ARM GAS  C:\Users\Luis\AppData\Local\Temp\ccIW1H7e.s 			page 1


   1              		.syntax unified
   2              		.cpu cortex-m4
   3              		.fpu softvfp
   4              		.eabi_attribute 20, 1
   5              		.eabi_attribute 21, 1
   6              		.eabi_attribute 23, 3
   7              		.eabi_attribute 24, 1
   8              		.eabi_attribute 25, 1
   9              		.eabi_attribute 26, 1
  10              		.eabi_attribute 30, 6
  11              		.eabi_attribute 34, 1
  12              		.eabi_attribute 18, 4
  13              		.thumb
  14              		.file	"adc.c"
  15              		.text
  16              	.Ltext0:
  17              		.cfi_sections	.debug_frame
  18              		.section	.text.port_lock,"ax",%progbits
  19              		.align	2
  20              		.p2align 4,,15
  21              		.thumb
  22              		.thumb_func
  23              		.type	port_lock, %function
  24              	port_lock:
  25              	.LFB116:
  26              		.file 1 "../../ChibiOS/os/rt/ports/ARMCMx/chcore_v7m.h"
  27              		.loc 1 444 0
  28              		.cfi_startproc
  29              		@ args = 0, pretend = 0, frame = 8
  30              		@ frame_needed = 1, uses_anonymous_args = 0
  31              		@ link register save eliminated.
  32 0000 80B4     		push	{r7}
  33              		.cfi_def_cfa_offset 4
  34              		.cfi_offset 7, -4
  35 0002 83B0     		sub	sp, sp, #12
  36              		.cfi_def_cfa_offset 16
  37 0004 00AF     		add	r7, sp, #0
  38              		.cfi_def_cfa_register 7
  39 0006 2023     		movs	r3, #32
  40 0008 7B60     		str	r3, [r7, #4]
  41              	.LBB6:
  42              	.LBB7:
  43              		.file 2 "../../ChibiOS/os/ext/CMSIS/include/core_cmFunc.h"
  44              		.loc 2 546 0
  45 000a 7B68     		ldr	r3, [r7, #4]
  46              	@ 546 "../../ChibiOS/os/ext/CMSIS/include/core_cmFunc.h" 1
  47 000c 83F31188 		MSR basepri, r3
  48              	@ 0 "" 2
  49              		.thumb
  50              	.LBE7:
  51              	.LBE6:
  52              		.loc 1 451 0
  53 0010 0C37     		adds	r7, r7, #12
  54 0012 BD46     		mov	sp, r7
  55              		@ sp needed
  56 0014 5DF8047B 		ldr	r7, [sp], #4
  57 0018 7047     		bx	lr
ARM GAS  C:\Users\Luis\AppData\Local\Temp\ccIW1H7e.s 			page 2


  58              		.cfi_endproc
  59              	.LFE116:
  60              		.size	port_lock, .-port_lock
  61 001a 00BFAFF3 		.section	.text.port_unlock,"ax",%progbits
  61      0080
  62              		.align	2
  63              		.p2align 4,,15
  64              		.thumb
  65              		.thumb_func
  66              		.type	port_unlock, %function
  67              	port_unlock:
  68              	.LFB117:
  69              		.loc 1 458 0
  70              		.cfi_startproc
  71              		@ args = 0, pretend = 0, frame = 8
  72              		@ frame_needed = 1, uses_anonymous_args = 0
  73              		@ link register save eliminated.
  74 0000 80B4     		push	{r7}
  75              		.cfi_def_cfa_offset 4
  76              		.cfi_offset 7, -4
  77 0002 83B0     		sub	sp, sp, #12
  78              		.cfi_def_cfa_offset 16
  79 0004 00AF     		add	r7, sp, #0
  80              		.cfi_def_cfa_register 7
  81 0006 0023     		movs	r3, #0
  82 0008 7B60     		str	r3, [r7, #4]
  83              	.LBB8:
  84              	.LBB9:
  85              		.loc 2 546 0
  86 000a 7B68     		ldr	r3, [r7, #4]
  87              	@ 546 "../../ChibiOS/os/ext/CMSIS/include/core_cmFunc.h" 1
  88 000c 83F31188 		MSR basepri, r3
  89              	@ 0 "" 2
  90              		.thumb
  91              	.LBE9:
  92              	.LBE8:
  93              		.loc 1 465 0
  94 0010 0C37     		adds	r7, r7, #12
  95 0012 BD46     		mov	sp, r7
  96              		@ sp needed
  97 0014 5DF8047B 		ldr	r7, [sp], #4
  98 0018 7047     		bx	lr
  99              		.cfi_endproc
 100              	.LFE117:
 101              		.size	port_unlock, .-port_unlock
 102 001a 00BFAFF3 		.section	.text.chSysLock,"ax",%progbits
 102      0080
 103              		.align	2
 104              		.p2align 4,,15
 105              		.thumb
 106              		.thumb_func
 107              		.type	chSysLock, %function
 108              	chSysLock:
 109              	.LFB156:
 110              		.file 3 "../../ChibiOS/os/rt/include/chsys.h"
 111              		.loc 3 346 0
 112              		.cfi_startproc
ARM GAS  C:\Users\Luis\AppData\Local\Temp\ccIW1H7e.s 			page 3


 113              		@ args = 0, pretend = 0, frame = 0
 114              		@ frame_needed = 1, uses_anonymous_args = 0
 115 0000 80B5     		push	{r7, lr}
 116              		.cfi_def_cfa_offset 8
 117              		.cfi_offset 7, -8
 118              		.cfi_offset 14, -4
 119 0002 00AF     		add	r7, sp, #0
 120              		.cfi_def_cfa_register 7
 121              		.loc 3 348 0
 122 0004 FFF7FEFF 		bl	port_lock
 123              		.loc 3 349 0
 124 0008 FFF7FEFF 		bl	_stats_start_measure_crit_thd
 125              		.loc 3 350 0
 126 000c FFF7FEFF 		bl	_dbg_check_lock
 127              		.loc 3 351 0
 128 0010 80BD     		pop	{r7, pc}
 129              		.cfi_endproc
 130              	.LFE156:
 131              		.size	chSysLock, .-chSysLock
 132 0012 00BFAFF3 		.section	.text.chSysUnlock,"ax",%progbits
 132      0080AFF3 
 132      0080AFF3 
 132      0080
 133              		.align	2
 134              		.p2align 4,,15
 135              		.thumb
 136              		.thumb_func
 137              		.type	chSysUnlock, %function
 138              	chSysUnlock:
 139              	.LFB157:
 140              		.loc 3 358 0
 141              		.cfi_startproc
 142              		@ args = 0, pretend = 0, frame = 0
 143              		@ frame_needed = 1, uses_anonymous_args = 0
 144 0000 80B5     		push	{r7, lr}
 145              		.cfi_def_cfa_offset 8
 146              		.cfi_offset 7, -8
 147              		.cfi_offset 14, -4
 148 0002 00AF     		add	r7, sp, #0
 149              		.cfi_def_cfa_register 7
 150              		.loc 3 360 0
 151 0004 FFF7FEFF 		bl	_dbg_check_unlock
 152              		.loc 3 361 0
 153 0008 FFF7FEFF 		bl	_stats_stop_measure_crit_thd
 154              		.loc 3 367 0
 155 000c 094B     		ldr	r3, .L6
 156 000e 1A68     		ldr	r2, [r3]
 157 0010 084B     		ldr	r3, .L6
 158 0012 9A42     		cmp	r2, r3
 159 0014 0AD0     		beq	.L5
 160              		.loc 3 367 0 is_stmt 0 discriminator 1
 161 0016 074B     		ldr	r3, .L6
 162 0018 9B69     		ldr	r3, [r3, #24]
 163 001a 9A68     		ldr	r2, [r3, #8]
 164 001c 054B     		ldr	r3, .L6
 165 001e 1B68     		ldr	r3, [r3]
 166 0020 9B68     		ldr	r3, [r3, #8]
ARM GAS  C:\Users\Luis\AppData\Local\Temp\ccIW1H7e.s 			page 4


 167 0022 9A42     		cmp	r2, r3
 168 0024 02D2     		bcs	.L5
 169 0026 0448     		ldr	r0, .L6+4
 170 0028 FFF7FEFF 		bl	chSysHalt
 171              	.L5:
 172              		.loc 3 371 0 is_stmt 1
 173 002c FFF7FEFF 		bl	port_unlock
 174              		.loc 3 372 0
 175 0030 80BD     		pop	{r7, pc}
 176              	.L7:
 177 0032 00BF     		.align	2
 178              	.L6:
 179 0034 00000000 		.word	ch
 180 0038 00000000 		.word	__func__.5842
 181              		.cfi_endproc
 182              	.LFE157:
 183              		.size	chSysUnlock, .-chSysUnlock
 184 003c AFF30080 		.section	.text.osalSysLock,"ax",%progbits
 185              		.align	2
 186              		.p2align 4,,15
 187              		.thumb
 188              		.thumb_func
 189              		.type	osalSysLock, %function
 190              	osalSysLock:
 191              	.LFB233:
 192              		.file 4 "../../ChibiOS/os/hal/osal/rt/osal.h"
 193              		.loc 4 491 0
 194              		.cfi_startproc
 195              		@ args = 0, pretend = 0, frame = 0
 196              		@ frame_needed = 1, uses_anonymous_args = 0
 197 0000 80B5     		push	{r7, lr}
 198              		.cfi_def_cfa_offset 8
 199              		.cfi_offset 7, -8
 200              		.cfi_offset 14, -4
 201 0002 00AF     		add	r7, sp, #0
 202              		.cfi_def_cfa_register 7
 203              		.loc 4 493 0
 204 0004 FFF7FEFF 		bl	chSysLock
 205              		.loc 4 494 0
 206 0008 80BD     		pop	{r7, pc}
 207              		.cfi_endproc
 208              	.LFE233:
 209              		.size	osalSysLock, .-osalSysLock
 210 000a 00BFAFF3 		.section	.text.osalSysUnlock,"ax",%progbits
 210      0080
 211              		.align	2
 212              		.p2align 4,,15
 213              		.thumb
 214              		.thumb_func
 215              		.type	osalSysUnlock, %function
 216              	osalSysUnlock:
 217              	.LFB234:
 218              		.loc 4 502 0
 219              		.cfi_startproc
 220              		@ args = 0, pretend = 0, frame = 0
 221              		@ frame_needed = 1, uses_anonymous_args = 0
 222 0000 80B5     		push	{r7, lr}
ARM GAS  C:\Users\Luis\AppData\Local\Temp\ccIW1H7e.s 			page 5


 223              		.cfi_def_cfa_offset 8
 224              		.cfi_offset 7, -8
 225              		.cfi_offset 14, -4
 226 0002 00AF     		add	r7, sp, #0
 227              		.cfi_def_cfa_register 7
 228              		.loc 4 504 0
 229 0004 FFF7FEFF 		bl	chSysUnlock
 230              		.loc 4 505 0
 231 0008 80BD     		pop	{r7, pc}
 232              		.cfi_endproc
 233              	.LFE234:
 234              		.size	osalSysUnlock, .-osalSysUnlock
 235 000a 00BFAFF3 		.section	.text.osalThreadSuspendS,"ax",%progbits
 235      0080
 236              		.align	2
 237              		.p2align 4,,15
 238              		.thumb
 239              		.thumb_func
 240              		.type	osalThreadSuspendS, %function
 241              	osalThreadSuspendS:
 242              	.LFB246:
 243              		.loc 4 686 0
 244              		.cfi_startproc
 245              		@ args = 0, pretend = 0, frame = 8
 246              		@ frame_needed = 1, uses_anonymous_args = 0
 247 0000 80B5     		push	{r7, lr}
 248              		.cfi_def_cfa_offset 8
 249              		.cfi_offset 7, -8
 250              		.cfi_offset 14, -4
 251 0002 82B0     		sub	sp, sp, #8
 252              		.cfi_def_cfa_offset 16
 253 0004 00AF     		add	r7, sp, #0
 254              		.cfi_def_cfa_register 7
 255 0006 7860     		str	r0, [r7, #4]
 256              		.loc 4 688 0
 257 0008 7868     		ldr	r0, [r7, #4]
 258 000a FFF7FEFF 		bl	chThdSuspendS
 259 000e 0346     		mov	r3, r0
 260              		.loc 4 689 0
 261 0010 1846     		mov	r0, r3
 262 0012 0837     		adds	r7, r7, #8
 263 0014 BD46     		mov	sp, r7
 264              		@ sp needed
 265 0016 80BD     		pop	{r7, pc}
 266              		.cfi_endproc
 267              	.LFE246:
 268              		.size	osalThreadSuspendS, .-osalThreadSuspendS
 269 0018 AFF30080 		.section	.text.osalThreadResumeI,"ax",%progbits
 269      AFF30080 
 270              		.align	2
 271              		.p2align 4,,15
 272              		.thumb
 273              		.thumb_func
 274              		.type	osalThreadResumeI, %function
 275              	osalThreadResumeI:
 276              	.LFB248:
 277              		.loc 4 726 0
ARM GAS  C:\Users\Luis\AppData\Local\Temp\ccIW1H7e.s 			page 6


 278              		.cfi_startproc
 279              		@ args = 0, pretend = 0, frame = 8
 280              		@ frame_needed = 1, uses_anonymous_args = 0
 281 0000 80B5     		push	{r7, lr}
 282              		.cfi_def_cfa_offset 8
 283              		.cfi_offset 7, -8
 284              		.cfi_offset 14, -4
 285 0002 82B0     		sub	sp, sp, #8
 286              		.cfi_def_cfa_offset 16
 287 0004 00AF     		add	r7, sp, #0
 288              		.cfi_def_cfa_register 7
 289 0006 7860     		str	r0, [r7, #4]
 290 0008 3960     		str	r1, [r7]
 291              		.loc 4 728 0
 292 000a 7868     		ldr	r0, [r7, #4]
 293 000c 3968     		ldr	r1, [r7]
 294 000e FFF7FEFF 		bl	chThdResumeI
 295              		.loc 4 729 0
 296 0012 0837     		adds	r7, r7, #8
 297 0014 BD46     		mov	sp, r7
 298              		@ sp needed
 299 0016 80BD     		pop	{r7, pc}
 300              		.cfi_endproc
 301              	.LFE248:
 302              		.size	osalThreadResumeI, .-osalThreadResumeI
 303 0018 AFF30080 		.section	.text.osalThreadResumeS,"ax",%progbits
 303      AFF30080 
 304              		.align	2
 305              		.p2align 4,,15
 306              		.thumb
 307              		.thumb_func
 308              		.type	osalThreadResumeS, %function
 309              	osalThreadResumeS:
 310              	.LFB249:
 311              		.loc 4 741 0
 312              		.cfi_startproc
 313              		@ args = 0, pretend = 0, frame = 8
 314              		@ frame_needed = 1, uses_anonymous_args = 0
 315 0000 80B5     		push	{r7, lr}
 316              		.cfi_def_cfa_offset 8
 317              		.cfi_offset 7, -8
 318              		.cfi_offset 14, -4
 319 0002 82B0     		sub	sp, sp, #8
 320              		.cfi_def_cfa_offset 16
 321 0004 00AF     		add	r7, sp, #0
 322              		.cfi_def_cfa_register 7
 323 0006 7860     		str	r0, [r7, #4]
 324 0008 3960     		str	r1, [r7]
 325              		.loc 4 743 0
 326 000a 7868     		ldr	r0, [r7, #4]
 327 000c 3968     		ldr	r1, [r7]
 328 000e FFF7FEFF 		bl	chThdResumeS
 329              		.loc 4 744 0
 330 0012 0837     		adds	r7, r7, #8
 331 0014 BD46     		mov	sp, r7
 332              		@ sp needed
 333 0016 80BD     		pop	{r7, pc}
ARM GAS  C:\Users\Luis\AppData\Local\Temp\ccIW1H7e.s 			page 7


 334              		.cfi_endproc
 335              	.LFE249:
 336              		.size	osalThreadResumeS, .-osalThreadResumeS
 337 0018 AFF30080 		.section	.text.osalMutexObjectInit,"ax",%progbits
 337      AFF30080 
 338              		.align	2
 339              		.p2align 4,,15
 340              		.thumb
 341              		.thumb_func
 342              		.type	osalMutexObjectInit, %function
 343              	osalMutexObjectInit:
 344              	.LFB257:
 345              		.loc 4 884 0
 346              		.cfi_startproc
 347              		@ args = 0, pretend = 0, frame = 8
 348              		@ frame_needed = 1, uses_anonymous_args = 0
 349 0000 80B5     		push	{r7, lr}
 350              		.cfi_def_cfa_offset 8
 351              		.cfi_offset 7, -8
 352              		.cfi_offset 14, -4
 353 0002 82B0     		sub	sp, sp, #8
 354              		.cfi_def_cfa_offset 16
 355 0004 00AF     		add	r7, sp, #0
 356              		.cfi_def_cfa_register 7
 357 0006 7860     		str	r0, [r7, #4]
 358              		.loc 4 887 0
 359 0008 7868     		ldr	r0, [r7, #4]
 360 000a FFF7FEFF 		bl	chMtxObjectInit
 361              		.loc 4 893 0
 362 000e 0837     		adds	r7, r7, #8
 363 0010 BD46     		mov	sp, r7
 364              		@ sp needed
 365 0012 80BD     		pop	{r7, pc}
 366              		.cfi_endproc
 367              	.LFE257:
 368              		.size	osalMutexObjectInit, .-osalMutexObjectInit
 369 0014 AFF30080 		.section	.text.osalMutexLock,"ax",%progbits
 369      AFF30080 
 369      AFF30080 
 370              		.align	2
 371              		.p2align 4,,15
 372              		.thumb
 373              		.thumb_func
 374              		.type	osalMutexLock, %function
 375              	osalMutexLock:
 376              	.LFB258:
 377              		.loc 4 904 0
 378              		.cfi_startproc
 379              		@ args = 0, pretend = 0, frame = 8
 380              		@ frame_needed = 1, uses_anonymous_args = 0
 381 0000 80B5     		push	{r7, lr}
 382              		.cfi_def_cfa_offset 8
 383              		.cfi_offset 7, -8
 384              		.cfi_offset 14, -4
 385 0002 82B0     		sub	sp, sp, #8
 386              		.cfi_def_cfa_offset 16
 387 0004 00AF     		add	r7, sp, #0
ARM GAS  C:\Users\Luis\AppData\Local\Temp\ccIW1H7e.s 			page 8


 388              		.cfi_def_cfa_register 7
 389 0006 7860     		str	r0, [r7, #4]
 390              		.loc 4 907 0
 391 0008 7868     		ldr	r0, [r7, #4]
 392 000a FFF7FEFF 		bl	chMtxLock
 393              		.loc 4 913 0
 394 000e 0837     		adds	r7, r7, #8
 395 0010 BD46     		mov	sp, r7
 396              		@ sp needed
 397 0012 80BD     		pop	{r7, pc}
 398              		.cfi_endproc
 399              	.LFE258:
 400              		.size	osalMutexLock, .-osalMutexLock
 401 0014 AFF30080 		.section	.text.osalMutexUnlock,"ax",%progbits
 401      AFF30080 
 401      AFF30080 
 402              		.align	2
 403              		.p2align 4,,15
 404              		.thumb
 405              		.thumb_func
 406              		.type	osalMutexUnlock, %function
 407              	osalMutexUnlock:
 408              	.LFB259:
 409              		.loc 4 928 0
 410              		.cfi_startproc
 411              		@ args = 0, pretend = 0, frame = 8
 412              		@ frame_needed = 1, uses_anonymous_args = 0
 413 0000 80B5     		push	{r7, lr}
 414              		.cfi_def_cfa_offset 8
 415              		.cfi_offset 7, -8
 416              		.cfi_offset 14, -4
 417 0002 82B0     		sub	sp, sp, #8
 418              		.cfi_def_cfa_offset 16
 419 0004 00AF     		add	r7, sp, #0
 420              		.cfi_def_cfa_register 7
 421 0006 7860     		str	r0, [r7, #4]
 422              		.loc 4 931 0
 423 0008 7868     		ldr	r0, [r7, #4]
 424 000a FFF7FEFF 		bl	chMtxUnlock
 425              		.loc 4 937 0
 426 000e 0837     		adds	r7, r7, #8
 427 0010 BD46     		mov	sp, r7
 428              		@ sp needed
 429 0012 80BD     		pop	{r7, pc}
 430              		.cfi_endproc
 431              	.LFE259:
 432              		.size	osalMutexUnlock, .-osalMutexUnlock
 433 0014 AFF30080 		.section	.text.adcInit,"ax",%progbits
 433      AFF30080 
 433      AFF30080 
 434              		.align	2
 435              		.p2align 4,,15
 436              		.global	adcInit
 437              		.thumb
 438              		.thumb_func
 439              		.type	adcInit, %function
 440              	adcInit:
ARM GAS  C:\Users\Luis\AppData\Local\Temp\ccIW1H7e.s 			page 9


 441              	.LFB260:
 442              		.file 5 "../../ChibiOS/os/hal/src/adc.c"
 443              		.loc 5 56 0
 444              		.cfi_startproc
 445              		@ args = 0, pretend = 0, frame = 0
 446              		@ frame_needed = 1, uses_anonymous_args = 0
 447 0000 80B5     		push	{r7, lr}
 448              		.cfi_def_cfa_offset 8
 449              		.cfi_offset 7, -8
 450              		.cfi_offset 14, -4
 451 0002 00AF     		add	r7, sp, #0
 452              		.cfi_def_cfa_register 7
 453              		.loc 5 58 0
 454 0004 FFF7FEFF 		bl	adc_lld_init
 455              		.loc 5 59 0
 456 0008 80BD     		pop	{r7, pc}
 457              		.cfi_endproc
 458              	.LFE260:
 459              		.size	adcInit, .-adcInit
 460 000a 00BFAFF3 		.section	.text.adcObjectInit,"ax",%progbits
 460      0080
 461              		.align	2
 462              		.p2align 4,,15
 463              		.global	adcObjectInit
 464              		.thumb
 465              		.thumb_func
 466              		.type	adcObjectInit, %function
 467              	adcObjectInit:
 468              	.LFB261:
 469              		.loc 5 68 0
 470              		.cfi_startproc
 471              		@ args = 0, pretend = 0, frame = 8
 472              		@ frame_needed = 1, uses_anonymous_args = 0
 473 0000 80B5     		push	{r7, lr}
 474              		.cfi_def_cfa_offset 8
 475              		.cfi_offset 7, -8
 476              		.cfi_offset 14, -4
 477 0002 82B0     		sub	sp, sp, #8
 478              		.cfi_def_cfa_offset 16
 479 0004 00AF     		add	r7, sp, #0
 480              		.cfi_def_cfa_register 7
 481 0006 7860     		str	r0, [r7, #4]
 482              		.loc 5 70 0
 483 0008 7B68     		ldr	r3, [r7, #4]
 484 000a 0122     		movs	r2, #1
 485 000c 1A70     		strb	r2, [r3]
 486              		.loc 5 71 0
 487 000e 7B68     		ldr	r3, [r7, #4]
 488 0010 0022     		movs	r2, #0
 489 0012 5A60     		str	r2, [r3, #4]
 490              		.loc 5 72 0
 491 0014 7B68     		ldr	r3, [r7, #4]
 492 0016 0022     		movs	r2, #0
 493 0018 9A60     		str	r2, [r3, #8]
 494              		.loc 5 73 0
 495 001a 7B68     		ldr	r3, [r7, #4]
 496 001c 0022     		movs	r2, #0
ARM GAS  C:\Users\Luis\AppData\Local\Temp\ccIW1H7e.s 			page 10


 497 001e DA60     		str	r2, [r3, #12]
 498              		.loc 5 74 0
 499 0020 7B68     		ldr	r3, [r7, #4]
 500 0022 0022     		movs	r2, #0
 501 0024 1A61     		str	r2, [r3, #16]
 502              		.loc 5 76 0
 503 0026 7B68     		ldr	r3, [r7, #4]
 504 0028 0022     		movs	r2, #0
 505 002a 5A61     		str	r2, [r3, #20]
 506              		.loc 5 79 0
 507 002c 7B68     		ldr	r3, [r7, #4]
 508 002e 1833     		adds	r3, r3, #24
 509 0030 1846     		mov	r0, r3
 510 0032 FFF7FEFF 		bl	osalMutexObjectInit
 511              		.loc 5 84 0
 512 0036 0837     		adds	r7, r7, #8
 513 0038 BD46     		mov	sp, r7
 514              		@ sp needed
 515 003a 80BD     		pop	{r7, pc}
 516              		.cfi_endproc
 517              	.LFE261:
 518              		.size	adcObjectInit, .-adcObjectInit
 519 003c AFF30080 		.section	.text.adcStart,"ax",%progbits
 520              		.align	2
 521              		.p2align 4,,15
 522              		.global	adcStart
 523              		.thumb
 524              		.thumb_func
 525              		.type	adcStart, %function
 526              	adcStart:
 527              	.LFB262:
 528              		.loc 5 95 0
 529              		.cfi_startproc
 530              		@ args = 0, pretend = 0, frame = 8
 531              		@ frame_needed = 1, uses_anonymous_args = 0
 532 0000 80B5     		push	{r7, lr}
 533              		.cfi_def_cfa_offset 8
 534              		.cfi_offset 7, -8
 535              		.cfi_offset 14, -4
 536 0002 82B0     		sub	sp, sp, #8
 537              		.cfi_def_cfa_offset 16
 538 0004 00AF     		add	r7, sp, #0
 539              		.cfi_def_cfa_register 7
 540 0006 7860     		str	r0, [r7, #4]
 541 0008 3960     		str	r1, [r7]
 542              		.loc 5 97 0
 543 000a 7B68     		ldr	r3, [r7, #4]
 544 000c 002B     		cmp	r3, #0
 545 000e 02D1     		bne	.L20
 546              		.loc 5 97 0 is_stmt 0 discriminator 1
 547 0010 0E48     		ldr	r0, .L22
 548 0012 FFF7FEFF 		bl	chSysHalt
 549              	.L20:
 550              		.loc 5 99 0 is_stmt 1
 551 0016 FFF7FEFF 		bl	osalSysLock
 552              		.loc 5 100 0
 553 001a 7B68     		ldr	r3, [r7, #4]
ARM GAS  C:\Users\Luis\AppData\Local\Temp\ccIW1H7e.s 			page 11


 554 001c 1B78     		ldrb	r3, [r3]	@ zero_extendqisi2
 555 001e 012B     		cmp	r3, #1
 556 0020 06D0     		beq	.L21
 557              		.loc 5 100 0 is_stmt 0 discriminator 1
 558 0022 7B68     		ldr	r3, [r7, #4]
 559 0024 1B78     		ldrb	r3, [r3]	@ zero_extendqisi2
 560 0026 022B     		cmp	r3, #2
 561 0028 02D0     		beq	.L21
 562 002a 0848     		ldr	r0, .L22
 563 002c FFF7FEFF 		bl	chSysHalt
 564              	.L21:
 565              		.loc 5 102 0 is_stmt 1
 566 0030 7B68     		ldr	r3, [r7, #4]
 567 0032 3A68     		ldr	r2, [r7]
 568 0034 5A60     		str	r2, [r3, #4]
 569              		.loc 5 103 0
 570 0036 7868     		ldr	r0, [r7, #4]
 571 0038 FFF7FEFF 		bl	adc_lld_start
 572              		.loc 5 104 0
 573 003c 7B68     		ldr	r3, [r7, #4]
 574 003e 0222     		movs	r2, #2
 575 0040 1A70     		strb	r2, [r3]
 576              		.loc 5 105 0
 577 0042 FFF7FEFF 		bl	osalSysUnlock
 578              		.loc 5 106 0
 579 0046 0837     		adds	r7, r7, #8
 580 0048 BD46     		mov	sp, r7
 581              		@ sp needed
 582 004a 80BD     		pop	{r7, pc}
 583              	.L23:
 584              		.align	2
 585              	.L22:
 586 004c 00000000 		.word	__func__.7913
 587              		.cfi_endproc
 588              	.LFE262:
 589              		.size	adcStart, .-adcStart
 590              		.section	.text.adcStop,"ax",%progbits
 591              		.align	2
 592              		.p2align 4,,15
 593              		.global	adcStop
 594              		.thumb
 595              		.thumb_func
 596              		.type	adcStop, %function
 597              	adcStop:
 598              	.LFB263:
 599              		.loc 5 115 0
 600              		.cfi_startproc
 601              		@ args = 0, pretend = 0, frame = 8
 602              		@ frame_needed = 1, uses_anonymous_args = 0
 603 0000 80B5     		push	{r7, lr}
 604              		.cfi_def_cfa_offset 8
 605              		.cfi_offset 7, -8
 606              		.cfi_offset 14, -4
 607 0002 82B0     		sub	sp, sp, #8
 608              		.cfi_def_cfa_offset 16
 609 0004 00AF     		add	r7, sp, #0
 610              		.cfi_def_cfa_register 7
ARM GAS  C:\Users\Luis\AppData\Local\Temp\ccIW1H7e.s 			page 12


 611 0006 7860     		str	r0, [r7, #4]
 612              		.loc 5 117 0
 613 0008 7B68     		ldr	r3, [r7, #4]
 614 000a 002B     		cmp	r3, #0
 615 000c 02D1     		bne	.L25
 616              		.loc 5 117 0 is_stmt 0 discriminator 1
 617 000e 0D48     		ldr	r0, .L27
 618 0010 FFF7FEFF 		bl	chSysHalt
 619              	.L25:
 620              		.loc 5 119 0 is_stmt 1
 621 0014 FFF7FEFF 		bl	osalSysLock
 622              		.loc 5 120 0
 623 0018 7B68     		ldr	r3, [r7, #4]
 624 001a 1B78     		ldrb	r3, [r3]	@ zero_extendqisi2
 625 001c 012B     		cmp	r3, #1
 626 001e 06D0     		beq	.L26
 627              		.loc 5 120 0 is_stmt 0 discriminator 1
 628 0020 7B68     		ldr	r3, [r7, #4]
 629 0022 1B78     		ldrb	r3, [r3]	@ zero_extendqisi2
 630 0024 022B     		cmp	r3, #2
 631 0026 02D0     		beq	.L26
 632 0028 0648     		ldr	r0, .L27
 633 002a FFF7FEFF 		bl	chSysHalt
 634              	.L26:
 635              		.loc 5 122 0 is_stmt 1
 636 002e 7868     		ldr	r0, [r7, #4]
 637 0030 FFF7FEFF 		bl	adc_lld_stop
 638              		.loc 5 123 0
 639 0034 7B68     		ldr	r3, [r7, #4]
 640 0036 0122     		movs	r2, #1
 641 0038 1A70     		strb	r2, [r3]
 642              		.loc 5 124 0
 643 003a FFF7FEFF 		bl	osalSysUnlock
 644              		.loc 5 125 0
 645 003e 0837     		adds	r7, r7, #8
 646 0040 BD46     		mov	sp, r7
 647              		@ sp needed
 648 0042 80BD     		pop	{r7, pc}
 649              	.L28:
 650              		.align	2
 651              	.L27:
 652 0044 00000000 		.word	__func__.7917
 653              		.cfi_endproc
 654              	.LFE263:
 655              		.size	adcStop, .-adcStop
 656 0048 AFF30080 		.section	.text.adcStartConversion,"ax",%progbits
 656      AFF30080 
 657              		.align	2
 658              		.p2align 4,,15
 659              		.global	adcStartConversion
 660              		.thumb
 661              		.thumb_func
 662              		.type	adcStartConversion, %function
 663              	adcStartConversion:
 664              	.LFB264:
 665              		.loc 5 146 0
 666              		.cfi_startproc
ARM GAS  C:\Users\Luis\AppData\Local\Temp\ccIW1H7e.s 			page 13


 667              		@ args = 0, pretend = 0, frame = 16
 668              		@ frame_needed = 1, uses_anonymous_args = 0
 669 0000 80B5     		push	{r7, lr}
 670              		.cfi_def_cfa_offset 8
 671              		.cfi_offset 7, -8
 672              		.cfi_offset 14, -4
 673 0002 84B0     		sub	sp, sp, #16
 674              		.cfi_def_cfa_offset 24
 675 0004 00AF     		add	r7, sp, #0
 676              		.cfi_def_cfa_register 7
 677 0006 F860     		str	r0, [r7, #12]
 678 0008 B960     		str	r1, [r7, #8]
 679 000a 7A60     		str	r2, [r7, #4]
 680 000c 3B60     		str	r3, [r7]
 681              		.loc 5 148 0
 682 000e FFF7FEFF 		bl	osalSysLock
 683              		.loc 5 149 0
 684 0012 F868     		ldr	r0, [r7, #12]
 685 0014 B968     		ldr	r1, [r7, #8]
 686 0016 7A68     		ldr	r2, [r7, #4]
 687 0018 3B68     		ldr	r3, [r7]
 688 001a FFF7FEFF 		bl	adcStartConversionI
 689              		.loc 5 150 0
 690 001e FFF7FEFF 		bl	osalSysUnlock
 691              		.loc 5 151 0
 692 0022 1037     		adds	r7, r7, #16
 693 0024 BD46     		mov	sp, r7
 694              		@ sp needed
 695 0026 80BD     		pop	{r7, pc}
 696              		.cfi_endproc
 697              	.LFE264:
 698              		.size	adcStartConversion, .-adcStartConversion
 699 0028 AFF30080 		.section	.text.adcStartConversionI,"ax",%progbits
 699      AFF30080 
 700              		.align	2
 701              		.p2align 4,,15
 702              		.global	adcStartConversionI
 703              		.thumb
 704              		.thumb_func
 705              		.type	adcStartConversionI, %function
 706              	adcStartConversionI:
 707              	.LFB265:
 708              		.loc 5 174 0
 709              		.cfi_startproc
 710              		@ args = 0, pretend = 0, frame = 16
 711              		@ frame_needed = 1, uses_anonymous_args = 0
 712 0000 80B5     		push	{r7, lr}
 713              		.cfi_def_cfa_offset 8
 714              		.cfi_offset 7, -8
 715              		.cfi_offset 14, -4
 716 0002 84B0     		sub	sp, sp, #16
 717              		.cfi_def_cfa_offset 24
 718 0004 00AF     		add	r7, sp, #0
 719              		.cfi_def_cfa_register 7
 720 0006 F860     		str	r0, [r7, #12]
 721 0008 B960     		str	r1, [r7, #8]
 722 000a 7A60     		str	r2, [r7, #4]
ARM GAS  C:\Users\Luis\AppData\Local\Temp\ccIW1H7e.s 			page 14


 723 000c 3B60     		str	r3, [r7]
 724              		.loc 5 176 0
 725 000e FFF7FEFF 		bl	chDbgCheckClassI
 726              		.loc 5 177 0
 727 0012 FB68     		ldr	r3, [r7, #12]
 728 0014 002B     		cmp	r3, #0
 729 0016 0DD0     		beq	.L31
 730              		.loc 5 177 0 is_stmt 0 discriminator 2
 731 0018 BB68     		ldr	r3, [r7, #8]
 732 001a 002B     		cmp	r3, #0
 733 001c 0AD0     		beq	.L31
 734              		.loc 5 177 0 discriminator 1
 735 001e 7B68     		ldr	r3, [r7, #4]
 736 0020 002B     		cmp	r3, #0
 737 0022 07D0     		beq	.L31
 738 0024 3B68     		ldr	r3, [r7]
 739 0026 012B     		cmp	r3, #1
 740 0028 07D0     		beq	.L34
 741 002a 3B68     		ldr	r3, [r7]
 742 002c 03F00103 		and	r3, r3, #1
 743 0030 002B     		cmp	r3, #0
 744 0032 02D0     		beq	.L34
 745              	.L31:
 746 0034 1148     		ldr	r0, .L35
 747 0036 FFF7FEFF 		bl	chSysHalt
 748              	.L34:
 749              		.loc 5 179 0 is_stmt 1 discriminator 1
 750 003a FB68     		ldr	r3, [r7, #12]
 751 003c 1B78     		ldrb	r3, [r3]	@ zero_extendqisi2
 752 003e 022B     		cmp	r3, #2
 753 0040 0AD0     		beq	.L33
 754 0042 FB68     		ldr	r3, [r7, #12]
 755 0044 1B78     		ldrb	r3, [r3]	@ zero_extendqisi2
 756 0046 042B     		cmp	r3, #4
 757 0048 06D0     		beq	.L33
 758 004a FB68     		ldr	r3, [r7, #12]
 759 004c 1B78     		ldrb	r3, [r3]	@ zero_extendqisi2
 760 004e 052B     		cmp	r3, #5
 761 0050 02D0     		beq	.L33
 762 0052 0A48     		ldr	r0, .L35
 763 0054 FFF7FEFF 		bl	chSysHalt
 764              	.L33:
 765              		.loc 5 184 0
 766 0058 FB68     		ldr	r3, [r7, #12]
 767 005a 7A68     		ldr	r2, [r7, #4]
 768 005c 9A60     		str	r2, [r3, #8]
 769              		.loc 5 185 0
 770 005e FB68     		ldr	r3, [r7, #12]
 771 0060 3A68     		ldr	r2, [r7]
 772 0062 DA60     		str	r2, [r3, #12]
 773              		.loc 5 186 0
 774 0064 FB68     		ldr	r3, [r7, #12]
 775 0066 BA68     		ldr	r2, [r7, #8]
 776 0068 1A61     		str	r2, [r3, #16]
 777              		.loc 5 187 0
 778 006a FB68     		ldr	r3, [r7, #12]
 779 006c 0322     		movs	r2, #3
ARM GAS  C:\Users\Luis\AppData\Local\Temp\ccIW1H7e.s 			page 15


 780 006e 1A70     		strb	r2, [r3]
 781              		.loc 5 188 0
 782 0070 F868     		ldr	r0, [r7, #12]
 783 0072 FFF7FEFF 		bl	adc_lld_start_conversion
 784              		.loc 5 189 0
 785 0076 1037     		adds	r7, r7, #16
 786 0078 BD46     		mov	sp, r7
 787              		@ sp needed
 788 007a 80BD     		pop	{r7, pc}
 789              	.L36:
 790              		.align	2
 791              	.L35:
 792 007c 00000000 		.word	__func__.7930
 793              		.cfi_endproc
 794              	.LFE265:
 795              		.size	adcStartConversionI, .-adcStartConversionI
 796              		.section	.text.adcStopConversion,"ax",%progbits
 797              		.align	2
 798              		.p2align 4,,15
 799              		.global	adcStopConversion
 800              		.thumb
 801              		.thumb_func
 802              		.type	adcStopConversion, %function
 803              	adcStopConversion:
 804              	.LFB266:
 805              		.loc 5 201 0
 806              		.cfi_startproc
 807              		@ args = 0, pretend = 0, frame = 8
 808              		@ frame_needed = 1, uses_anonymous_args = 0
 809 0000 80B5     		push	{r7, lr}
 810              		.cfi_def_cfa_offset 8
 811              		.cfi_offset 7, -8
 812              		.cfi_offset 14, -4
 813 0002 82B0     		sub	sp, sp, #8
 814              		.cfi_def_cfa_offset 16
 815 0004 00AF     		add	r7, sp, #0
 816              		.cfi_def_cfa_register 7
 817 0006 7860     		str	r0, [r7, #4]
 818              		.loc 5 203 0
 819 0008 7B68     		ldr	r3, [r7, #4]
 820 000a 002B     		cmp	r3, #0
 821 000c 02D1     		bne	.L38
 822              		.loc 5 203 0 is_stmt 0 discriminator 1
 823 000e 1448     		ldr	r0, .L41
 824 0010 FFF7FEFF 		bl	chSysHalt
 825              	.L38:
 826              		.loc 5 205 0 is_stmt 1
 827 0014 FFF7FEFF 		bl	osalSysLock
 828              		.loc 5 206 0
 829 0018 7B68     		ldr	r3, [r7, #4]
 830 001a 1B78     		ldrb	r3, [r3]	@ zero_extendqisi2
 831 001c 022B     		cmp	r3, #2
 832 001e 06D0     		beq	.L39
 833              		.loc 5 206 0 is_stmt 0 discriminator 1
 834 0020 7B68     		ldr	r3, [r7, #4]
 835 0022 1B78     		ldrb	r3, [r3]	@ zero_extendqisi2
 836 0024 032B     		cmp	r3, #3
ARM GAS  C:\Users\Luis\AppData\Local\Temp\ccIW1H7e.s 			page 16


 837 0026 02D0     		beq	.L39
 838 0028 0D48     		ldr	r0, .L41
 839 002a FFF7FEFF 		bl	chSysHalt
 840              	.L39:
 841              		.loc 5 208 0 is_stmt 1
 842 002e 7B68     		ldr	r3, [r7, #4]
 843 0030 1B78     		ldrb	r3, [r3]	@ zero_extendqisi2
 844 0032 022B     		cmp	r3, #2
 845 0034 0FD0     		beq	.L40
 846              		.loc 5 209 0
 847 0036 7868     		ldr	r0, [r7, #4]
 848 0038 FFF7FEFF 		bl	adc_lld_stop_conversion
 849              		.loc 5 210 0
 850 003c 7B68     		ldr	r3, [r7, #4]
 851 003e 0022     		movs	r2, #0
 852 0040 1A61     		str	r2, [r3, #16]
 853              		.loc 5 211 0
 854 0042 7B68     		ldr	r3, [r7, #4]
 855 0044 0222     		movs	r2, #2
 856 0046 1A70     		strb	r2, [r3]
 857              		.loc 5 212 0
 858 0048 7B68     		ldr	r3, [r7, #4]
 859 004a 1433     		adds	r3, r3, #20
 860 004c 1846     		mov	r0, r3
 861 004e 6FF00101 		mvn	r1, #1
 862 0052 FFF7FEFF 		bl	osalThreadResumeS
 863              	.L40:
 864              		.loc 5 214 0
 865 0056 FFF7FEFF 		bl	osalSysUnlock
 866              		.loc 5 215 0
 867 005a 0837     		adds	r7, r7, #8
 868 005c BD46     		mov	sp, r7
 869              		@ sp needed
 870 005e 80BD     		pop	{r7, pc}
 871              	.L42:
 872              		.align	2
 873              	.L41:
 874 0060 00000000 		.word	__func__.7934
 875              		.cfi_endproc
 876              	.LFE266:
 877              		.size	adcStopConversion, .-adcStopConversion
 878 0064 AFF30080 		.section	.text.adcStopConversionI,"ax",%progbits
 878      AFF30080 
 878      AFF30080 
 879              		.align	2
 880              		.p2align 4,,15
 881              		.global	adcStopConversionI
 882              		.thumb
 883              		.thumb_func
 884              		.type	adcStopConversionI, %function
 885              	adcStopConversionI:
 886              	.LFB267:
 887              		.loc 5 227 0
 888              		.cfi_startproc
 889              		@ args = 0, pretend = 0, frame = 8
 890              		@ frame_needed = 1, uses_anonymous_args = 0
 891 0000 80B5     		push	{r7, lr}
ARM GAS  C:\Users\Luis\AppData\Local\Temp\ccIW1H7e.s 			page 17


 892              		.cfi_def_cfa_offset 8
 893              		.cfi_offset 7, -8
 894              		.cfi_offset 14, -4
 895 0002 82B0     		sub	sp, sp, #8
 896              		.cfi_def_cfa_offset 16
 897 0004 00AF     		add	r7, sp, #0
 898              		.cfi_def_cfa_register 7
 899 0006 7860     		str	r0, [r7, #4]
 900              		.loc 5 229 0
 901 0008 FFF7FEFF 		bl	chDbgCheckClassI
 902              		.loc 5 230 0
 903 000c 7B68     		ldr	r3, [r7, #4]
 904 000e 002B     		cmp	r3, #0
 905 0010 02D1     		bne	.L47
 906              		.loc 5 230 0 is_stmt 0 discriminator 1
 907 0012 1448     		ldr	r0, .L48
 908 0014 FFF7FEFF 		bl	chSysHalt
 909              	.L47:
 910              		.loc 5 231 0 is_stmt 1 discriminator 1
 911 0018 7B68     		ldr	r3, [r7, #4]
 912 001a 1B78     		ldrb	r3, [r3]	@ zero_extendqisi2
 913 001c 022B     		cmp	r3, #2
 914 001e 0AD0     		beq	.L45
 915 0020 7B68     		ldr	r3, [r7, #4]
 916 0022 1B78     		ldrb	r3, [r3]	@ zero_extendqisi2
 917 0024 032B     		cmp	r3, #3
 918 0026 06D0     		beq	.L45
 919 0028 7B68     		ldr	r3, [r7, #4]
 920 002a 1B78     		ldrb	r3, [r3]	@ zero_extendqisi2
 921 002c 042B     		cmp	r3, #4
 922 002e 02D0     		beq	.L45
 923 0030 0C48     		ldr	r0, .L48
 924 0032 FFF7FEFF 		bl	chSysHalt
 925              	.L45:
 926              		.loc 5 236 0
 927 0036 7B68     		ldr	r3, [r7, #4]
 928 0038 1B78     		ldrb	r3, [r3]	@ zero_extendqisi2
 929 003a 022B     		cmp	r3, #2
 930 003c 0FD0     		beq	.L43
 931              		.loc 5 237 0
 932 003e 7868     		ldr	r0, [r7, #4]
 933 0040 FFF7FEFF 		bl	adc_lld_stop_conversion
 934              		.loc 5 238 0
 935 0044 7B68     		ldr	r3, [r7, #4]
 936 0046 0022     		movs	r2, #0
 937 0048 1A61     		str	r2, [r3, #16]
 938              		.loc 5 239 0
 939 004a 7B68     		ldr	r3, [r7, #4]
 940 004c 0222     		movs	r2, #2
 941 004e 1A70     		strb	r2, [r3]
 942              		.loc 5 240 0
 943 0050 7B68     		ldr	r3, [r7, #4]
 944 0052 1433     		adds	r3, r3, #20
 945 0054 1846     		mov	r0, r3
 946 0056 6FF00101 		mvn	r1, #1
 947 005a FFF7FEFF 		bl	osalThreadResumeI
 948              	.L43:
ARM GAS  C:\Users\Luis\AppData\Local\Temp\ccIW1H7e.s 			page 18


 949              		.loc 5 242 0
 950 005e 0837     		adds	r7, r7, #8
 951 0060 BD46     		mov	sp, r7
 952              		@ sp needed
 953 0062 80BD     		pop	{r7, pc}
 954              	.L49:
 955              		.align	2
 956              	.L48:
 957 0064 00000000 		.word	__func__.7938
 958              		.cfi_endproc
 959              	.LFE267:
 960              		.size	adcStopConversionI, .-adcStopConversionI
 961 0068 AFF30080 		.section	.text.adcConvert,"ax",%progbits
 961      AFF30080 
 962              		.align	2
 963              		.p2align 4,,15
 964              		.global	adcConvert
 965              		.thumb
 966              		.thumb_func
 967              		.type	adcConvert, %function
 968              	adcConvert:
 969              	.LFB268:
 970              		.loc 5 271 0
 971              		.cfi_startproc
 972              		@ args = 0, pretend = 0, frame = 24
 973              		@ frame_needed = 1, uses_anonymous_args = 0
 974 0000 80B5     		push	{r7, lr}
 975              		.cfi_def_cfa_offset 8
 976              		.cfi_offset 7, -8
 977              		.cfi_offset 14, -4
 978 0002 86B0     		sub	sp, sp, #24
 979              		.cfi_def_cfa_offset 32
 980 0004 00AF     		add	r7, sp, #0
 981              		.cfi_def_cfa_register 7
 982 0006 F860     		str	r0, [r7, #12]
 983 0008 B960     		str	r1, [r7, #8]
 984 000a 7A60     		str	r2, [r7, #4]
 985 000c 3B60     		str	r3, [r7]
 986              		.loc 5 274 0
 987 000e FFF7FEFF 		bl	osalSysLock
 988              		.loc 5 275 0
 989 0012 FB68     		ldr	r3, [r7, #12]
 990 0014 5B69     		ldr	r3, [r3, #20]
 991 0016 002B     		cmp	r3, #0
 992 0018 02D0     		beq	.L51
 993              		.loc 5 275 0 is_stmt 0 discriminator 1
 994 001a 0B48     		ldr	r0, .L53
 995 001c FFF7FEFF 		bl	chSysHalt
 996              	.L51:
 997              		.loc 5 276 0 is_stmt 1
 998 0020 F868     		ldr	r0, [r7, #12]
 999 0022 B968     		ldr	r1, [r7, #8]
 1000 0024 7A68     		ldr	r2, [r7, #4]
 1001 0026 3B68     		ldr	r3, [r7]
 1002 0028 FFF7FEFF 		bl	adcStartConversionI
 1003              		.loc 5 277 0
 1004 002c FB68     		ldr	r3, [r7, #12]
ARM GAS  C:\Users\Luis\AppData\Local\Temp\ccIW1H7e.s 			page 19


 1005 002e 1433     		adds	r3, r3, #20
 1006 0030 1846     		mov	r0, r3
 1007 0032 FFF7FEFF 		bl	osalThreadSuspendS
 1008 0036 7861     		str	r0, [r7, #20]
 1009              		.loc 5 278 0
 1010 0038 FFF7FEFF 		bl	osalSysUnlock
 1011              		.loc 5 279 0
 1012 003c 7B69     		ldr	r3, [r7, #20]
 1013              		.loc 5 280 0
 1014 003e 1846     		mov	r0, r3
 1015 0040 1837     		adds	r7, r7, #24
 1016 0042 BD46     		mov	sp, r7
 1017              		@ sp needed
 1018 0044 80BD     		pop	{r7, pc}
 1019              	.L54:
 1020 0046 00BF     		.align	2
 1021              	.L53:
 1022 0048 00000000 		.word	__func__.7946
 1023              		.cfi_endproc
 1024              	.LFE268:
 1025              		.size	adcConvert, .-adcConvert
 1026 004c AFF30080 		.section	.text.adcAcquireBus,"ax",%progbits
 1027              		.align	2
 1028              		.p2align 4,,15
 1029              		.global	adcAcquireBus
 1030              		.thumb
 1031              		.thumb_func
 1032              		.type	adcAcquireBus, %function
 1033              	adcAcquireBus:
 1034              	.LFB269:
 1035              		.loc 5 295 0
 1036              		.cfi_startproc
 1037              		@ args = 0, pretend = 0, frame = 8
 1038              		@ frame_needed = 1, uses_anonymous_args = 0
 1039 0000 80B5     		push	{r7, lr}
 1040              		.cfi_def_cfa_offset 8
 1041              		.cfi_offset 7, -8
 1042              		.cfi_offset 14, -4
 1043 0002 82B0     		sub	sp, sp, #8
 1044              		.cfi_def_cfa_offset 16
 1045 0004 00AF     		add	r7, sp, #0
 1046              		.cfi_def_cfa_register 7
 1047 0006 7860     		str	r0, [r7, #4]
 1048              		.loc 5 297 0
 1049 0008 7B68     		ldr	r3, [r7, #4]
 1050 000a 002B     		cmp	r3, #0
 1051 000c 02D1     		bne	.L56
 1052              		.loc 5 297 0 is_stmt 0 discriminator 1
 1053 000e 0548     		ldr	r0, .L57
 1054 0010 FFF7FEFF 		bl	chSysHalt
 1055              	.L56:
 1056              		.loc 5 299 0 is_stmt 1
 1057 0014 7B68     		ldr	r3, [r7, #4]
 1058 0016 1833     		adds	r3, r3, #24
 1059 0018 1846     		mov	r0, r3
 1060 001a FFF7FEFF 		bl	osalMutexLock
 1061              		.loc 5 300 0
ARM GAS  C:\Users\Luis\AppData\Local\Temp\ccIW1H7e.s 			page 20


 1062 001e 0837     		adds	r7, r7, #8
 1063 0020 BD46     		mov	sp, r7
 1064              		@ sp needed
 1065 0022 80BD     		pop	{r7, pc}
 1066              	.L58:
 1067              		.align	2
 1068              	.L57:
 1069 0024 00000000 		.word	__func__.7950
 1070              		.cfi_endproc
 1071              	.LFE269:
 1072              		.size	adcAcquireBus, .-adcAcquireBus
 1073 0028 AFF30080 		.section	.text.adcReleaseBus,"ax",%progbits
 1073      AFF30080 
 1074              		.align	2
 1075              		.p2align 4,,15
 1076              		.global	adcReleaseBus
 1077              		.thumb
 1078              		.thumb_func
 1079              		.type	adcReleaseBus, %function
 1080              	adcReleaseBus:
 1081              	.LFB270:
 1082              		.loc 5 311 0
 1083              		.cfi_startproc
 1084              		@ args = 0, pretend = 0, frame = 8
 1085              		@ frame_needed = 1, uses_anonymous_args = 0
 1086 0000 80B5     		push	{r7, lr}
 1087              		.cfi_def_cfa_offset 8
 1088              		.cfi_offset 7, -8
 1089              		.cfi_offset 14, -4
 1090 0002 82B0     		sub	sp, sp, #8
 1091              		.cfi_def_cfa_offset 16
 1092 0004 00AF     		add	r7, sp, #0
 1093              		.cfi_def_cfa_register 7
 1094 0006 7860     		str	r0, [r7, #4]
 1095              		.loc 5 313 0
 1096 0008 7B68     		ldr	r3, [r7, #4]
 1097 000a 002B     		cmp	r3, #0
 1098 000c 02D1     		bne	.L60
 1099              		.loc 5 313 0 is_stmt 0 discriminator 1
 1100 000e 0548     		ldr	r0, .L61
 1101 0010 FFF7FEFF 		bl	chSysHalt
 1102              	.L60:
 1103              		.loc 5 315 0 is_stmt 1
 1104 0014 7B68     		ldr	r3, [r7, #4]
 1105 0016 1833     		adds	r3, r3, #24
 1106 0018 1846     		mov	r0, r3
 1107 001a FFF7FEFF 		bl	osalMutexUnlock
 1108              		.loc 5 316 0
 1109 001e 0837     		adds	r7, r7, #8
 1110 0020 BD46     		mov	sp, r7
 1111              		@ sp needed
 1112 0022 80BD     		pop	{r7, pc}
 1113              	.L62:
 1114              		.align	2
 1115              	.L61:
 1116 0024 00000000 		.word	__func__.7954
 1117              		.cfi_endproc
ARM GAS  C:\Users\Luis\AppData\Local\Temp\ccIW1H7e.s 			page 21


 1118              	.LFE270:
 1119              		.size	adcReleaseBus, .-adcReleaseBus
 1120 0028 AFF30080 		.section	.rodata.__func__.7913,"a",%progbits
 1120      AFF30080 
 1121              		.align	2
 1122              		.type	__func__.7913, %object
 1123              		.size	__func__.7913, 9
 1124              	__func__.7913:
 1125 0000 61646353 		.ascii	"adcStart\000"
 1125      74617274 
 1125      00
 1126 0009 000000   		.section	.rodata.__func__.5842,"a",%progbits
 1127              		.align	2
 1128              		.type	__func__.5842, %object
 1129              		.size	__func__.5842, 12
 1130              	__func__.5842:
 1131 0000 63685379 		.ascii	"chSysUnlock\000"
 1131      73556E6C 
 1131      6F636B00 
 1132              		.section	.rodata.__func__.7917,"a",%progbits
 1133              		.align	2
 1134              		.type	__func__.7917, %object
 1135              		.size	__func__.7917, 8
 1136              	__func__.7917:
 1137 0000 61646353 		.ascii	"adcStop\000"
 1137      746F7000 
 1138              		.section	.rodata.__func__.7930,"a",%progbits
 1139              		.align	2
 1140              		.type	__func__.7930, %object
 1141              		.size	__func__.7930, 20
 1142              	__func__.7930:
 1143 0000 61646353 		.ascii	"adcStartConversionI\000"
 1143      74617274 
 1143      436F6E76 
 1143      65727369 
 1143      6F6E4900 
 1144              		.section	.rodata.__func__.7934,"a",%progbits
 1145              		.align	2
 1146              		.type	__func__.7934, %object
 1147              		.size	__func__.7934, 18
 1148              	__func__.7934:
 1149 0000 61646353 		.ascii	"adcStopConversion\000"
 1149      746F7043 
 1149      6F6E7665 
 1149      7273696F 
 1149      6E00
 1150 0012 0000     		.section	.rodata.__func__.7938,"a",%progbits
 1151              		.align	2
 1152              		.type	__func__.7938, %object
 1153              		.size	__func__.7938, 19
 1154              	__func__.7938:
 1155 0000 61646353 		.ascii	"adcStopConversionI\000"
 1155      746F7043 
 1155      6F6E7665 
 1155      7273696F 
 1155      6E4900
 1156 0013 00       		.section	.rodata.__func__.7946,"a",%progbits
ARM GAS  C:\Users\Luis\AppData\Local\Temp\ccIW1H7e.s 			page 22


 1157              		.align	2
 1158              		.type	__func__.7946, %object
 1159              		.size	__func__.7946, 11
 1160              	__func__.7946:
 1161 0000 61646343 		.ascii	"adcConvert\000"
 1161      6F6E7665 
 1161      727400
 1162 000b 00       		.section	.rodata.__func__.7950,"a",%progbits
 1163              		.align	2
 1164              		.type	__func__.7950, %object
 1165              		.size	__func__.7950, 14
 1166              	__func__.7950:
 1167 0000 61646341 		.ascii	"adcAcquireBus\000"
 1167      63717569 
 1167      72654275 
 1167      7300
 1168 000e 0000     		.section	.rodata.__func__.7954,"a",%progbits
 1169              		.align	2
 1170              		.type	__func__.7954, %object
 1171              		.size	__func__.7954, 14
 1172              	__func__.7954:
 1173 0000 61646352 		.ascii	"adcReleaseBus\000"
 1173      656C6561 
 1173      73654275 
 1173      7300
 1174 000e 0000     		.text
 1175              	.Letext0:
 1176              		.file 6 "c:\\emtechesdk\\gcc\\lib\\gcc\\arm-none-eabi\\4.8.3\\include\\stddef.h"
 1177              		.file 7 "c:\\emtechesdk\\gcc\\arm-none-eabi\\include\\stdint.h"
 1178              		.file 8 "../../ChibiOS/os/rt/ports/ARMCMx/compilers/GCC/chtypes.h"
 1179              		.file 9 "../../ChibiOS/os/rt/include/chsystypes.h"
 1180              		.file 10 "../../ChibiOS/os/rt/include/chschd.h"
 1181              		.file 11 "../../ChibiOS/os/ext/CMSIS/ST/stm32f407xx.h"
 1182              		.file 12 "../../ChibiOS/os/rt/ports/ARMCMx/chcore.h"
 1183              		.file 13 "../../ChibiOS/os/rt/include/chdebug.h"
 1184              		.file 14 "../../ChibiOS/os/rt/include/chtm.h"
 1185              		.file 15 "../../ChibiOS/os/rt/include/chstats.h"
 1186              		.file 16 "../../ChibiOS/os/rt/include/chsem.h"
 1187              		.file 17 "../../ChibiOS/os/rt/include/chmtx.h"
 1188              		.file 18 "../../ChibiOS/os/hal/ports/STM32/STM32F4xx/stm32_dma.h"
 1189              		.file 19 "../../ChibiOS/os/hal/include/adc.h"
 1190              		.file 20 "../../ChibiOS/os/hal/ports/STM32/STM32F4xx/adc_lld.h"
 1191              		.file 21 "../../ChibiOS/os/ext/CMSIS/include/core_cm4.h"