ARM GAS  C:\Users\Luis\AppData\Local\Temp\ccIW1H7e.s 			page 1


   1              		.syntax unified
   2              		.cpu cortex-m4
   3              		.fpu softvfp
   4              		.eabi_attribute 20, 1
   5              		.eabi_attribute 21, 1
   6              		.eabi_attribute 23, 3
   7              		.eabi_attribute 24, 1
   8              		.eabi_attribute 25, 1
   9              		.eabi_attribute 26, 1
  10              		.eabi_attribute 30, 6
  11              		.eabi_attribute 34, 1
  12              		.eabi_attribute 18, 4
  13              		.thumb
  14              		.file	"adc.c"
  15              		.text
  16              	.Ltext0:
  17              		.cfi_sections	.debug_frame
  18              		.section	.text.port_lock,"ax",%progbits
  19              		.align	2
  20              		.p2align 4,,15
  21              		.thumb
  22              		.thumb_func
  23              		.type	port_lock, %function
  24              	port_lock:
  25              	.LFB116:
  26              		.file 1 "../../ChibiOS/os/rt/ports/ARMCMx/chcore_v7m.h"
  27              		.loc 1 444 0
  28              		.cfi_startproc
  29              		@ args = 0, pretend = 0, frame = 8
  30              		@ frame_needed = 1, uses_anonymous_args = 0
  31              		@ link register save eliminated.
  32 0000 80B4     		push	{r7}
  33              		.cfi_def_cfa_offset 4
  34              		.cfi_offset 7, -4
  35 0002 83B0     		sub	sp, sp, #12
  36              		.cfi_def_cfa_offset 16
  37 0004 00AF     		add	r7, sp, #0
  38              		.cfi_def_cfa_register 7
  39 0006 2023     		movs	r3, #32
  40 0008 7B60     		str	r3, [r7, #4]
  41              	.LBB6:
  42              	.LBB7:
  43              		.file 2 "../../ChibiOS/os/ext/CMSIS/include/core_cmFunc.h"
  44              		.loc 2 546 0
  45 000a 7B68     		ldr	r3, [r7, #4]
  46              	@ 546 "../../ChibiOS/os/ext/CMSIS/include/core_cmFunc.h" 1
  47 000c 83F31188 		MSR basepri, r3
  48              	@ 0 "" 2
  49              		.thumb
  50              	.LBE7:
  51              	.LBE6:
  52              		.loc 1 451 0
  53 0010 0C37     		adds	r7, r7, #12
  54 0012 BD46     		mov	sp, r7
  55              		@ sp needed
  56 0014 5DF8047B 		ldr	r7, [sp], #4
  57 0018 7047     		bx	lr
ARM GAS  C:\Users\Luis\AppData\Local\Temp\ccIW1H7e.s 			page 2


  58              		.cfi_endproc
  59              	.LFE116:
  60              		.size	port_lock, .-port_lock
  61 001a 00BFAFF3 		.section	.text.port_unlock,"ax",%progbits
  61      0080
  62              		.align	2
  63              		.p2align 4,,15
  64              		.thumb
  65              		.thumb_func
  66              		.type	port_unlock, %function
  67              	port_unlock:
  68              	.LFB117:
  69              		.loc 1 458 0
  70              		.cfi_startproc
  71              		@ args = 0, pretend = 0, frame = 8
  72              		@ frame_needed = 1, uses_anonymous_args = 0
  73              		@ link register save eliminated.
  74 0000 80B4     		push	{r7}
  75              		.cfi_def_cfa_offset 4
  76              		.cfi_offset 7, -4
  77 0002 83B0     		sub	sp, sp, #12
  78              		.cfi_def_cfa_offset 16
  79 0004 00AF     		add	r7, sp, #0
  80              		.cfi_def_cfa_register 7
  81 0006 0023     		movs	r3, #0
  82 0008 7B60     		str	r3, [r7, #4]
  83              	.LBB8:
  84              	.LBB9:
  85              		.loc 2 546 0
  86 000a 7B68     		ldr	r3, [r7, #4]
  87              	@ 546 "../../ChibiOS/os/ext/CMSIS/include/core_cmFunc.h" 1
  88 000c 83F31188 		MSR basepri, r3
  89              	@ 0 "" 2
  90              		.thumb
  91              	.LBE9:
  92              	.LBE8:
  93              		.loc 1 465 0
  94 0010 0C37     		adds	r7, r7, #12
  95 0012 BD46     		mov	sp, r7
  96              		@ sp needed
  97 0014 5DF8047B 		ldr	r7, [sp], #4
  98 0018 7047     		bx	lr
  99              		.cfi_endproc
 100              	.LFE117:
 101              		.size	port_unlock, .-port_unlock
 102 001a 00BFAFF3 		.section	.text.chSysLock,"ax",%progbits
 102      0080
 103              		.align	2
 104              		.p2align 4,,15
 105              		.thumb
 106              		.thumb_func
 107              		.type	chSysLock, %function
 108              	chSysLock:
 109              	.LFB156:
 110              		.file 3 "../../ChibiOS/os/rt/include/chsys.h"
 111              		.loc 3 346 0
 112              		.cfi_startproc
ARM GAS  C:\Users\Luis\AppData\Local\Temp\ccIW1H7e.s 			page 3


 113              		@ args = 0, pretend = 0, frame = 0
 114              		@ frame_needed = 1, uses_anonymous_args = 0
 115 0000 80B5     		push	{r7, lr}
 116              		.cfi_def_cfa_offset 8
 117              		.cfi_offset 7, -8
 118              		.cfi_offset 14, -4
 119 0002 00AF     		add	r7, sp, #0
 120              		.cfi_def_cfa_register 7
 121              		.loc 3 348 0
 122 0004 FFF7FEFF 		bl	port_lock
 123              		.loc 3 349 0
 124 0008 FFF7FEFF 		bl	_stats_start_measure_crit_thd
 125              		.loc 3 350 0
 126 000c FFF7FEFF 		bl	_dbg_check_lock
 127              		.loc 3 351 0
 128 0010 80BD     		pop	{r7, pc}
 129              		.cfi_endproc
 130              	.LFE156:
 131              		.size	chSysLock, .-chSysLock
 132 0012 00BFAFF3 		.section	.text.chSysUnlock,"ax",%progbits
 132      0080AFF3 
 132      0080AFF3 
 132      0080
 133              		.align	2
 134              		.p2align 4,,15
 135              		.thumb
 136              		.thumb_func
 137              		.type	chSysUnlock, %function
 138              	chSysUnlock:
 139              	.LFB157:
 140              		.loc 3 358 0
 141              		.cfi_startproc
 142              		@ args = 0, pretend = 0, frame = 0
 143              		@ frame_needed = 1, uses_anonymous_args = 0
 144 0000 80B5     		push	{r7, lr}
 145              		.cfi_def_cfa_offset 8
 146              		.cfi_offset 7, -8
 147              		.cfi_offset 14, -4
 148 0002 00AF     		add	r7, sp, #0
 149              		.cfi_def_cfa_register 7
 150              		.loc 3 360 0
 151 0004 FFF7FEFF 		bl	_dbg_check_unlock
 152              		.loc 3 361 0
 153 0008 FFF7FEFF 		bl	_stats_stop_measure_crit_thd
 154              		.loc 3 367 0
 155 000c 094B     		ldr	r3, .L6
 156 000e 1A68     		ldr	r2, [r3]
 157 0010 084B     		ldr	r3, .L6
 158 0012 9A42     		cmp	r2, r3
 159 0014 0AD0     		beq	.L5
 160              		.loc 3 367 0 is_stmt 0 discriminator 1
 161 0016 074B     		ldr	r3, .L6
 162 0018 9B69     		ldr	r3, [r3, #24]
 163 001a 9A68     		ldr	r2, [r3, #8]
 164 001c 054B     		ldr	r3, .L6
 165 001e 1B68     		ldr	r3, [r3]
 166 0020 9B68     		ldr	r3, [r3, #8]
ARM GAS  C:\Users\Luis\AppData\Local\Temp\ccIW1H7e.s 			page 4


 167 0022 9A42     		cmp	r2, r3
 168 0024 02D2     		bcs	.L5
 169 0026 0448     		ldr	r0, .L6+4
 170 0028 FFF7FEFF 		bl	chSysHalt
 171              	.L5:
 172              		.loc 3 371 0 is_stmt 1
 173 002c FFF7FEFF 		bl	port_unlock
 174              		.loc 3 372 0
 175 0030 80BD     		pop	{r7, pc}
 176              	.L7:
 177 0032 00BF     		.align	2
 178              	.L6:
 179 0034 00000000 		.word	ch
 180 0038 00000000 		.word	__func__.5842
 181              		.cfi_endproc
 182              	.LFE157:
 183              		.size	chSysUnlock, .-chSysUnlock
 184 003c AFF30080 		.section	.text.osalSysLock,"ax",%progbits
 185              		.align	2
 186              		.p2align 4,,15
 187              		.thumb
 188              		.thumb_func
 189              		.type	osalSysLock, %function
 190              	osalSysLock:
 191              	.LFB233:
 192              		.file 4 "../../ChibiOS/os/hal/osal/rt/osal.h"
 193              		.loc 4 491 0
 194              		.cfi_startproc
 195              		@ args = 0, pretend = 0, frame = 0
 196              		@ frame_needed = 1, uses_anonymous_args = 0
 197 0000 80B5     		push	{r7, lr}
 198              		.cfi_def_cfa_offset 8
 199              		.cfi_offset 7, -8
 200              		.cfi_offset 14, -4
 201 0002 00AF     		add	r7, sp, #0
 202              		.cfi_def_cfa_register 7
 203              		.loc 4 493 0
 204 0004 FFF7FEFF 		bl	chSysLock
 205              		.loc 4 494 0
 206 0008 80BD     		pop	{r7, pc}
 207              		.cfi_endproc
 208              	.LFE233:
 209              		.size	osalSysLock, .-osalSysLock
 210 000a 00BFAFF3 		.section	.text.osalSysUnlock,"ax",%progbits
 210      0080
 211              		.align	2
 212              		.p2align 4,,15
 213              		.thumb
 214              		.thumb_func
 215              		.type	osalSysUnlock, %function
 216              	osalSysUnlock:
 217              	.LFB234:
 218              		.loc 4 502 0
 219              		.cfi_startproc
 220              		@ args = 0, pretend = 0, frame = 0
 221              		@ frame_needed = 1, uses_anonymous_args = 0
 222 0000 80B5     		push	{r7, lr}
ARM GAS  C:\Users\Luis\AppData\Local\Temp\ccIW1H7e.s 			page 5


 223              		.cfi_def_cfa_offset 8
 224              		.cfi_offset 7, -8
 225              		.cfi_offset 14, -4
 226 0002 00AF     		add	r7, sp, #0
 227              		.cfi_def_cfa_register 7
 228              		.loc 4 504 0
 229 0004 FFF7FEFF 		bl	chSysUnlock
 230              		.loc 4 505 0
 231 0008 80BD     		pop	{r7, pc}
 232              		.cfi_endproc
 233              	.LFE234:
 234              		.size	osalSysUnlock, .-osalSysUnlock
 235 000a 00BFAFF3 		.section	.text.osalThreadSuspendS,"ax",%progbits
 235      0080
 236              		.align	2
 237              		.p2align 4,,15
 238              		.thumb
 239              		.thumb_func
 240              		.type	osalThreadSuspendS, %function
 241              	osalThreadSuspendS:
 242              	.LFB246:
 243              		.loc 4 686 0
 244              		.cfi_startproc
 245              		@ args = 0, pretend = 0, frame = 8
 246              		@ frame_needed = 1, uses_anonymous_args = 0
 247 0000 80B5     		push	{r7, lr}
 248              		.cfi_def_cfa_offset 8
 249              		.cfi_offset 7, -8
 250              		.cfi_offset 14, -4
 251 0002 82B0     		sub	sp, sp, #8
 252              		.cfi_def_cfa_offset 16
 253 0004 00AF     		add	r7, sp, #0
 254              		.cfi_def_cfa_register 7
 255 0006 7860     		str	r0, [r7, #4]
 256              		.loc 4 688 0
 257 0008 7868     		ldr	r0, [r7, #4]
 258 000a FFF7FEFF 		bl	chThdSuspendS
 259 000e 0346     		mov	r3, r0
 260              		.loc 4 689 0
 261 0010 1846     		mov	r0, r3
 262 0012 0837     		adds	r7, r7, #8
 263 0014 BD46     		mov	sp, r7
 264              		@ sp needed
 265 0016 80BD     		pop	{r7, pc}
 266              		.cfi_endproc
 267              	.LFE246:
 268              		.size	osalThreadSuspendS, .-osalThreadSuspendS
 269 0018 AFF30080 		.section	.text.osalThreadResumeI,"ax",%progbits
 269      AFF30080 
 270              		.align	2
 271              		.p2align 4,,15
 272              		.thumb
 273              		.thumb_func
 274              		.type	osalThreadResumeI, %function
 275              	osalThreadResumeI:
 276              	.LFB248:
 277              		.loc 4 726 0
ARM GAS  C:\Users\Luis\AppData\Local\Temp\ccIW1H7e.s 			page 6


 278              		.cfi_startproc
 279              		@ args = 0, pretend = 0, frame = 8
 280              		@ frame_needed = 1, uses_anonymous_args = 0
 281 0000 80B5     		push	{r7, lr}
 282              		.cfi_def_cfa_offset 8
 283              		.cfi_offset 7, -8
 284              		.cfi_offset 14, -4
 285 0002 82B0     		sub	sp, sp, #8
 286              		.cfi_def_cfa_offset 16
 287 0004 00AF     		add	r7, sp, #0
 288              		.cfi_def_cfa_register 7
 289 0006 7860     		str	r0, [r7, #4]
 290 0008 3960     		str	r1, [r7]
 291              		.loc 4 728 0
 292 000a 7868     		ldr	r0, [r7, #4]
 293 000c 3968     		ldr	r1, [r7]
 294 000e FFF7FEFF 		bl	chThdResumeI
 295              		.loc 4 729 0
 296 0012 0837     		adds	r7, r7, #8
 297 0014 BD46     		mov	sp, r7
 298              		@ sp needed
 299 0016 80BD     		pop	{r7, pc}
 300              		.cfi_endproc
 301              	.LFE248:
 302              		.size	osalThreadResumeI, .-osalThreadResumeI
 303 0018 AFF30080 		.section	.text.osalThreadResumeS,"ax",%progbits
 303      AFF30080 
 304              		.align	2
 305              		.p2align 4,,15
 306              		.thumb
 307              		.thumb_func
 308              		.type	osalThreadResumeS, %function
 309              	osalThreadResumeS:
 310              	.LFB249:
 311              		.loc 4 741 0
 312              		.cfi_startproc
 313              		@ args = 0, pretend = 0, frame = 8
 314              		@ frame_needed = 1, uses_anonymous_args = 0
 315 0000 80B5     		push	{r7, lr}
 316              		.cfi_def_cfa_offset 8
 317              		.cfi_offset 7, -8
 318              		.cfi_offset 14, -4
 319 0002 82B0     		sub	sp, sp, #8
 320              		.cfi_def_cfa_offset 16
 321 0004 00AF     		add	r7, sp, #0
 322              		.cfi_def_cfa_register 7
 323 0006 7860     		str	r0, [r7, #4]
 324 0008 3960     		str	r1, [r7]
 325              		.loc 4 743 0
 326 000a 7868     		ldr	r0, [r7, #4]
 327 000c 3968     		ldr	r1, [r7]
 328 000e FFF7FEFF 		bl	chThdResumeS
 329              		.loc 4 744 0
 330 0012 0837     		adds	r7, r7, #8
 331 0014 BD46     		mov	sp, r7
 332              		@ sp needed
 333 0016 80BD     		pop	{r7, pc}
ARM GAS  C:\Users\Luis\AppData\Local\Temp\ccIW1H7e.s 			page 7


 334              		.cfi_endproc
 335              	.LFE249:
 336              		.size	osalThreadResumeS, .-osalThreadResumeS
 337 0018 AFF30080 		.section	.text.osalMutexObjectInit,"ax",%progbits
 337      AFF30080 
 338              		.align	2
 339              		.p2align 4,,15
 340              		.thumb
 341              		.thumb_func
 342              		.type	osalMutexObjectInit, %function
 343              	osalMutexObjectInit:
 344              	.LFB257:
 345              		.loc 4 884 0
 346              		.cfi_startproc
 347              		@ args = 0, pretend = 0, frame = 8
 348              		@ frame_needed = 1, uses_anonymous_args = 0
 349 0000 80B5     		push	{r7, lr}
 350              		.cfi_def_cfa_offset 8
 351              		.cfi_offset 7, -8
 352              		.cfi_offset 14, -4
 353 0002 82B0     		sub	sp, sp, #8
 354              		.cfi_def_cfa_offset 16
 355 0004 00AF     		add	r7, sp, #0
 356              		.cfi_def_cfa_register 7
 357 0006 7860     		str	r0, [r7, #4]
 358              		.loc 4 887 0
 359 0008 7868     		ldr	r0, [r7, #4]
 360 000a FFF7FEFF 		bl	chMtxObjectInit
 361              		.loc 4 893 0
 362 000e 0837     		adds	r7, r7, #8
 363 0010 BD46     		mov	sp, r7
 364              		@ sp needed
 365 0012 80BD     		pop	{r7, pc}
 366              		.cfi_endproc
 367              	.LFE257:
 368              		.size	osalMutexObjectInit, .-osalMutexObjectInit
 369 0014 AFF30080 		.section	.text.osalMutexLock,"ax",%progbits
 369      AFF30080 
 369      AFF30080 
 370              		.align	2
 371              		.p2align 4,,15
 372              		.thumb
 373              		.thumb_func
 374              		.type	osalMutexLock, %function
 375              	osalMutexLock:
 376              	.LFB258:
 377              		.loc 4 904 0
 378              		.cfi_startproc
 379              		@ args = 0, pretend = 0, frame = 8
 380              		@ frame_needed = 1, uses_anonymous_args = 0
 381 0000 80B5     		push	{r7, lr}
 382              		.cfi_def_cfa_offset 8
 383              		.cfi_offset 7, -8
 384              		.cfi_offset 14, -4
 385 0002 82B0     		sub	sp, sp, #8
 386              		.cfi_def_cfa_offset 16
 387 0004 00AF     		add	r7, sp, #0
ARM GAS  C:\Users\Luis\AppData\Local\Temp\ccIW1H7e.s 			page 8


 388              		.cfi_def_cfa_register 7
 389 0006 7860     		str	r0, [r7, #4]
 390              		.loc 4 907 0
 391 0008 7868     		ldr	r0, [r7, #4]
 392 000a FFF7FEFF 		bl	chMtxLock
 393              		.loc 4 913 0
 394 000e 0837     		adds	r7, r7, #8
 395 0010 BD46     		mov	sp, r7
 396              		@ sp needed
 397 0012 80BD     		pop	{r7, pc}
 398              		.cfi_endproc
 399              	.LFE258:
 400              		.size	osalMutexLock, .-osalMutexLock
 401 0014 AFF30080 		.section	.text.osalMutexUnlock,"ax",%progbits
 401      AFF30080 
 401      AFF30080 
 402              		.align	2
 403              		.p2align 4,,15
 404              		.thumb
 405              		.thumb_func
 406              		.type	osalMutexUnlock, %function
 407              	osalMutexUnlock:
 408              	.LFB259:
 409              		.loc 4 928 0
 410              		.cfi_startproc
 411              		@ args = 0, pretend = 0, frame = 8
 412              		@ frame_needed = 1, uses_anonymous_args = 0
 413 0000 80B5     		push	{r7, lr}
 414              		.cfi_def_cfa_offset 8
 415              		.cfi_offset 7, -8
 416              		.cfi_offset 14, -4
 417 0002 82B0     		sub	sp, sp, #8
 418              		.cfi_def_cfa_offset 16
 419 0004 00AF     		add	r7, sp, #0
 420              		.cfi_def_cfa_register 7
 421 0006 7860     		str	r0, [r7, #4]
 422              		.loc 4 931 0
 423 0008 7868     		ldr	r0, [r7, #4]
 424 000a FFF7FEFF 		bl	chMtxUnlock
 425              		.loc 4 937 0
 426 000e 0837     		adds	r7, r7, #8
 427 0010 BD46     		mov	sp, r7
 428              		@ sp needed
 429 0012 80BD     		pop	{r7, pc}
 430              		.cfi_endproc
 431              	.LFE259:
 432              		.size	osalMutexUnlock, .-osalMutexUnlock
 433 0014 AFF30080 		.section	.text.adcInit,"ax",%progbits
 433      AFF30080 
 433      AFF30080 
 434              		.align	2
 435              		.p2align 4,,15
 436              		.global	adcInit
 437              		.thumb
 438              		.thumb_func
 439              		.type	adcInit, %function
 440              	adcInit:
ARM GAS  C:\Users\Luis\AppData\Local\Temp\ccIW1H7e.s 			page 9


 441              	.LFB260:
 442              		.file 5 "../../ChibiOS/os/hal/src/adc.c"
 443              		.loc 5 56 0
 444              		.cfi_startproc
 445              		@ args = 0, pretend = 0, frame = 0
 446              		@ frame_needed = 1, uses_anonymous_args = 0
 447 0000 80B5     		push	{r7, lr}
 448              		.cfi_def_cfa_offset 8
 449              		.cfi_offset 7, -8
 450              		.cfi_offset 14, -4
 451 0002 00AF     		add	r7, sp, #0
 452              		.cfi_def_cfa_register 7
 453              		.loc 5 58 0
 454 0004 FFF7FEFF 		bl	adc_lld_init
 455              		.loc 5 59 0
 456 0008 80BD     		pop	{r7, pc}
 457              		.cfi_endproc
 458              	.LFE260:
 459              		.size	adcInit, .-adcInit
 460 000a 00BFAFF3 		.section	.text.adcObjectInit,"ax",%progbits
 460      0080
 461              		.align	2
 462              		.p2align 4,,15
 463              		.global	adcObjectInit
 464              		.thumb
 465              		.thumb_func
 466              		.type	adcObjectInit, %function
 467              	adcObjectInit:
 468              	.LFB261:
 469              		.loc 5 68 0
 470              		.cfi_startproc
 471              		@ args = 0, pretend = 0, frame = 8
 472              		@ frame_needed = 1, uses_anonymous_args = 0
 473 0000 80B5     		push	{r7, lr}
 474              		.cfi_def_cfa_offset 8
 475              		.cfi_offset 7, -8
 476              		.cfi_offset 14, -4
 477 0002 82B0     		sub	sp, sp, #8
 478              		.cfi_def_cfa_offset 16
 479 0004 00AF     		add	r7, sp, #0
 480              		.cfi_def_cfa_register 7
 481 0006 7860     		str	r0, [r7, #4]
 482              		.loc 5 70 0
 483 0008 7B68     		ldr	r3, [r7, #4]
 484 000a 0122     		movs	r2, #1
 485 000c 1A70     		strb	r2, [r3]
 486              		.loc 5 71 0
 487 000e 7B68     		ldr	r3, [r7, #4]
 488 0010 0022     		movs	r2, #0
 489 0012 5A60     		str	r2, [r3, #4]
 490              		.loc 5 72 0
 491 0014 7B68     		ldr	r3, [r7, #4]
 492 0016 0022     		movs	r2, #0
 493 0018 9A60     		str	r2, [r3, #8]
 494              		.loc 5 73 0
 495 001a 7B68     		ldr	r3, [r7, #4]
 496 001c 0022     		movs	r2, #0
ARM GAS  C:\Users\Luis\AppData\Local\Temp\ccIW1H7e.s 			page 10


 497 001e DA60     		str	r2, [r3, #12]
 498              		.loc 5 74 0
 499 0020 7B68     		ldr	r3, [r7, #4]
 500 0022 0022     		movs	r2, #0
 501 0024 1A61     		str	r2, [r3, #16]
 502              		.loc 5 76 0
 503 0026 7B68     		ldr	r3, [r7, #4]
 504 0028 0022     		movs	r2, #0
 505 002a 5A61     		str	r2, [r3, #20]
 506              		.loc 5 79 0
 507 002c 7B68     		ldr	r3, [r7, #4]
 508 002e 1833     		adds	r3, r3, #24
 509 0030 1846     		mov	r0, r3
 510 0032 FFF7FEFF 		bl	osalMutexObjectInit
 511              		.loc 5 84 0
 512 0036 0837     		adds	r7, r7, #8
 513 0038 BD46     		mov	sp, r7
 514              		@ sp needed
 515 003a 80BD     		pop	{r7, pc}
 516              		.cfi_endproc
 517              	.LFE261:
 518              		.size	adcObjectInit, .-adcObjectInit
 519 003c AFF30080 		.section	.text.adcStart,"ax",%progbits
 520              		.align	2
 521              		.p2align 4,,15
 522              		.global	adcStart
 523              		.thumb
 524              		.thumb_func
 525              		.type	adcStart, %function
 526              	adcStart:
 527              	.LFB262:
 528              		.loc 5 95 0
 529              		.cfi_startproc
 530              		@ args = 0, pretend = 0, frame = 8
 531              		@ frame_needed = 1, uses_anonymous_args = 0
 532 0000 80B5     		push	{r7, lr}
 533              		.cfi_def_cfa_offset 8
 534              		.cfi_offset 7, -8
 535              		.cfi_offset 14, -4
 536 0002 82B0     		sub	sp, sp, #8
 537              		.cfi_def_cfa_offset 16
 538 0004 00AF     		add	r7, sp, #0
 539              		.cfi_def_cfa_register 7
 540 0006 7860     		str	r0, [r7, #4]
 541 0008 3960     		str	r1, [r7]
 542              		.loc 5 97 0
 543 000a 7B68     		ldr	r3, [r7, #4]
 544 000c 002B     		cmp	r3, #0
 545 000e 02D1     		bne	.L20
 546              		.loc 5 97 0 is_stmt 0 discriminator 1
 547 0010 0E48     		ldr	r0, .L22
 548 0012 FFF7FEFF 		bl	chSysHalt
 549              	.L20:
 550              		.loc 5 99 0 is_stmt 1
 551 0016 FFF7FEFF 		bl	osalSysLock
 552              		.loc 5 100 0
 553 001a 7B68     		ldr	r3, [r7, #4]
ARM GAS  C:\Users\Luis\AppData\Local\Temp\ccIW1H7e.s 			page 11


 554 001c 1B78     		ldrb	r3, [r3]	@ zero_extendqisi2
 555 001e 012B     		cmp	r3, #1
 556 0020 06D0     		beq	.L21
 557              		.loc 5 100 0 is_stmt 0 discriminator 1
 558 0022 7B68     		ldr	r3, [r7, #4]
 559 0024 1B78     		ldrb	r3, [r3]	@ zero_extendqisi2
 560 0026 022B     		cmp	r3, #2
 561 0028 02D0     		beq	.L21
 562 002a 0848     		ldr	r0, .L22
 563 002c FFF7FEFF 		bl	chSysHalt
 564              	.L21:
 565              		.loc 5 102 0 is_stmt 1
 566 0030 7B68     		ldr	r3, [r7, #4]
 567 0032 3A68     		ldr	r2, [r7]
 568 0034 5A60     		str	r2, [r3, #4]
 569              		.loc 5 103 0
 570 0036 7868     		ldr	r0, [r7, #4]
 571 0038 FFF7FEFF 		bl	adc_lld_start
 572              		.loc 5 104 0
 573 003c 7B68     		ldr	r3, [r7, #4]
 574 003e 0222     		movs	r2, #2
 575 0040 1A70     		strb	r2, [r3]
 576              		.loc 5 105 0
 577 0042 FFF7FEFF 		bl	osalSysUnlock
 578              		.loc 5 106 0
 579 0046 0837     		adds	r7, r7, #8
 580 0048 BD46     		mov	sp, r7
 581              		@ sp needed
 582 004a 80BD     		pop	{r7, pc}
 583              	.L23:
 584              		.align	2
 585              	.L22:
 586 004c 00000000 		.word	__func__.7913
 587              		.cfi_endproc
 588              	.LFE262:
 589              		.size	adcStart, .-adcStart
 590              		.section	.text.adcStop,"ax",%progbits
 591              		.align	2
 592              		.p2align 4,,15
 593              		.global	adcStop
 594              		.thumb
 595              		.thumb_func
 596              		.type	adcStop, %function
 597              	adcStop:
 598              	.LFB263:
 599              		.loc 5 115 0
 600              		.cfi_startproc
 601              		@ args = 0, pretend = 0, frame = 8
 602              		@ frame_needed = 1, uses_anonymous_args = 0
 603 0000 80B5     		push	{r7, lr}
 604              		.cfi_def_cfa_offset 8
 605              		.cfi_offset 7, -8
 606              		.cfi_offset 14, -4
 607 0002 82B0     		sub	sp, sp, #8
 608              		.cfi_def_cfa_offset 16
 609 0004 00AF     		add	r7, sp, #0
 610              		.cfi_def_cfa_register 7
ARM GAS  C:\Users\Luis\AppData\Local\Temp\ccIW1H7e.s 			page 12


 611 0006 7860     		str	r0, [r7, #4]
 612              		.loc 5 117 0
 613 0008 7B68     		ldr	r3, [r7, #4]
 614 000a 002B     		cmp	r3, #0
 615 000c 02D1     		bne	.L25
 616              		.loc 5 117 0 is_stmt 0 discriminator 1
 617 000e 0D48     		ldr	r0, .L27
 618 0010 FFF7FEFF 		bl	chSysHalt
 619              	.L25:
 620              		.loc 5 119 0 is_stmt 1
 621 0014 FFF7FEFF 		bl	osalSysLock
 622              		.loc 5 120 0
 623 0018 7B68     		ldr	r3, [r7, #4]
 624 001a 1B78     		ldrb	r3, [r3]	@ zero_extendqisi2
 625 001c 012B     		cmp	r3, #1
 626 001e 06D0     		beq	.L26
 627              		.loc 5 120 0 is_stmt 0 discriminator 1
 628 0020 7B68     		ldr	r3, [r7, #4]
 629 0022 1B78     		ldrb	r3, [r3]	@ zero_extendqisi2
 630 0024 022B     		cmp	r3, #2
 631 0026 02D0     		beq	.L26
 632 0028 0648     		ldr	r0, .L27
 633 002a FFF7FEFF 		bl	chSysHalt
 634              	.L26:
 635              		.loc 5 122 0 is_stmt 1
 636 002e 7868     		ldr	r0, [r7, #4]
 637 0030 FFF7FEFF 		bl	adc_lld_stop
 638              		.loc 5 123 0
 639 0034 7B68     		ldr	r3, [r7, #4]
 640 0036 0122     		movs	r2, #1
 641 0038 1A70     		strb	r2, [r3]
 642              		.loc 5 124 0
 643 003a FFF7FEFF 		bl	osalSysUnlock
 644              		.loc 5 125 0
 645 003e 0837     		adds	r7, r7, #8
 646 0040 BD46     		mov	sp, r7
 647              		@ sp needed
 648 0042 80BD     		pop	{r7, pc}
 649              	.L28:
 650              		.align	2
 651              	.L27:
 652 0044 00000000 		.word	__func__.7917
 653              		.cfi_endproc
 654              	.LFE263:
 655              		.size	adcStop, .-adcStop
 656 0048 AFF30080 		.section	.text.adcStartConversion,"ax",%progbits
 656      AFF30080 
 657              		.align	2
 658              		.p2align 4,,15
 659              		.global	adcStartConversion
 660              		.thumb
 661              		.thumb_func
 662              		.type	adcStartConversion, %function
 663              	adcStartConversion:
 664              	.LFB264:
 665              		.loc 5 146 0
 666              		.cfi_startproc
ARM GAS  C:\Users\Luis\AppData\Local\Temp\ccIW1H7e.s 			page 13


 667              		@ args = 0, pretend = 0, frame = 16
 668              		@ frame_needed = 1, uses_anonymous_args = 0
 669 0000 80B5     		push	{r7, lr}
 670              		.cfi_def_cfa_offset 8
 671              		.cfi_offset 7, -8
 672              		.cfi_offset 14, -4
 673 0002 84B0     		sub	sp, sp, #16
 674              		.cfi_def_cfa_offset 24
 675 0004 00AF     		add	r7, sp, #0
 676              		.cfi_def_cfa_register 7
 677 0006 F860     		str	r0, [r7, #12]
 678 0008 B960     		str	r1, [r7, #8]
 679 000a 7A60     		str	r2, [r7, #4]
 680 000c 3B60     		str	r3, [r7]
 681              		.loc 5 148 0
 682 000e FFF7FEFF 		bl	osalSysLock
 683              		.loc 5 149 0
 684 0012 F868     		ldr	r0, [r7, #12]
 685 0014 B968     		ldr	r1, [r7, #8]
 686 0016 7A68     		ldr	r2, [r7, #4]
 687 0018 3B68     		ldr	r3, [r7]
 688 001a FFF7FEFF 		bl	adcStartConversionI
 689              		.loc 5 150 0
 690 001e FFF7FEFF 		bl	osalSysUnlock
 691              		.loc 5 151 0
 692 0022 1037     		adds	r7, r7, #16
 693 0024 BD46     		mov	sp, r7
 694              		@ sp needed
 695 0026 80BD     		pop	{r7, pc}
 696              		.cfi_endproc
 697              	.LFE264:
 698              		.size	adcStartConversion, .-adcStartConversion
 699 0028 AFF30080 		.section	.text.adcStartConversionI,"ax",%progbits
 699      AFF30080 
 700              		.align	2
 701              		.p2align 4,,15
 702              		.global	adcStartConversionI
 703              		.thumb
 704              		.thumb_func
 705              		.type	adcStartConversionI, %function
 706              	adcStartConversionI:
 707              	.LFB265:
 708              		.loc 5 174 0
 709              		.cfi_startproc
 710              		@ args = 0, pretend = 0, frame = 16
 711              		@ frame_needed = 1, uses_anonymous_args = 0
 712 0000 80B5     		push	{r7, lr}
 713              		.cfi_def_cfa_offset 8
 714              		.cfi_offset 7, -8
 715              		.cfi_offset 14, -4
 716 0002 84B0     		sub	sp, sp, #16
 717              		.cfi_def_cfa_offset 24
 718 0004 00AF     		add	r7, sp, #0
 719              		.cfi_def_cfa_register 7
 720 0006 F860     		str	r0, [r7, #12]
 721 0008 B960     		str	r1, [r7, #8]
 722 000a 7A60     		str	r2, [r7, #4]
ARM GAS  C:\Users\Luis\AppData\Local\Temp\ccIW1H7e.s 			page 14


 723 000c 3B60     		str	r3, [r7]
 724              		.loc 5 176 0
 725 000e FFF7FEFF 		bl	chDbgCheckClassI
 726              		.loc 5 177 0
 727 0012 FB68     		ldr	r3, [r7, #12]
 728 0014 002B     		cmp	r3, #0
 729 0016 0DD0     		beq	.L31
 730              		.loc 5 177 0 is_stmt 0 discriminator 2
 731 0018 BB68     		ldr	r3, [r7, #8]
 732 001a 002B     		cmp	r3, #0
 733 001c 0AD0     		beq	.L31
 734              		.loc 5 177 0 discriminator 1
 735 001e 7B68     		ldr	r3, [r7, #4]
 736 0020 002B     		cmp	r3, #0
 737 0022 07D0     		beq	.L31
 738 0024 3B68     		ldr	r3, [r7]
 739 0026 012B     		cmp	r3, #1
 740 0028 07D0     		beq	.L34
 741 002a 3B68     		ldr	r3, [r7]
 742 002c 03F00103 		and	r3, r3, #1
 743 0030 002B     		cmp	r3, #0
 744 0032 02D0     		beq	.L34
 745              	.L31:
 746 0034 1148     		ldr	r0, .L35
 747 0036 FFF7FEFF 		bl	chSysHalt
 748              	.L34:
 749              		.loc 5 179 0 is_stmt 1 discriminator 1
 750 003a FB68     		ldr	r3, [r7, #12]
 751 003c 1B78     		ldrb	r3, [r3]	@ zero_extendqisi2
 752 003e 022B     		cmp	r3, #2
 753 0040 0AD0     		beq	.L33
 754 0042 FB68     		ldr	r3, [r7, #12]
 755 0044 1B78     		ldrb	r3, [r3]	@ zero_extendqisi2
 756 0046 042B     		cmp	r3, #4
 757 0048 06D0     		beq	.L33
 758 004a FB68     		ldr	r3, [r7, #12]
 759 004c 1B78     		ldrb	r3, [r3]	@ zero_extendqisi2
 760 004e 052B     		cmp	r3, #5
 761 0050 02D0     		beq	.L33
 762 0052 0A48     		ldr	r0, .L35
 763 0054 FFF7FEFF 		bl	chSysHalt
 764              	.L33:
 765              		.loc 5 184 0
 766 0058 FB68     		ldr	r3, [r7, #12]
 767 005a 7A68     		ldr	r2, [r7, #4]
 768 005c 9A60     		str	r2, [r3, #8]
 769              		.loc 5 185 0
 770 005e FB68     		ldr	r3, [r7, #12]
 771 0060 3A68     		ldr	r2, [r7]
 772 0062 DA60     		str	r2, [r3, #12]
 773              		.loc 5 186 0
 774 0064 FB68     		ldr	r3, [r7, #12]
 775 0066 BA68     		ldr	r2, [r7, #8]
 776 0068 1A61     		str	r2, [r3, #16]
 777              		.loc 5 187 0
 778 006a FB68     		ldr	r3, [r7, #12]
 779 006c 0322     		movs	r2, #3
ARM GAS  C:\Users\Luis\AppData\Local\Temp\ccIW1H7e.s 			page 15


 780 006e 1A70     		strb	r2, [r3]
 781              		.loc 5 188 0
 782 0070 F868     		ldr	r0, [r7, #12]
 783 0072 FFF7FEFF 		bl	adc_lld_start_conversion
 784              		.loc 5 189 0
 785 0076 1037     		adds	r7, r7, #16
 786 0078 BD46     		mov	sp, r7
 787              		@ sp needed
 788 007a 80BD     		pop	{r7, pc}
 789              	.L36:
 790              		.align	2
 791              	.L35:
 792 007c 00000000 		.word	__func__.7930
 793              		.cfi_endproc
 794              	.LFE265:
 795              		.size	adcStartConversionI, .-adcStartConversionI
 796              		.section	.text.adcStopConversion,"ax",%progbits
 797              		.align	2
 798              		.p2align 4,,15
 799              		.global	adcStopConversion
 800              		.thumb
 801              		.thumb_func
 802              		.type	adcStopConversion, %function
 803              	adcStopConversion:
 804              	.LFB266:
 805              		.loc 5 201 0
 806              		.cfi_startproc
 807              		@ args = 0, pretend = 0, frame = 8
 808              		@ frame_needed = 1, uses_anonymous_args = 0
 809 0000 80B5     		push	{r7, lr}
 810              		.cfi_def_cfa_offset 8
 811              		.cfi_offset 7, -8
 812              		.cfi_offset 14, -4
 813 0002 82B0     		sub	sp, sp, #8
 814              		.cfi_def_cfa_offset 16
 815 0004 00AF     		add	r7, sp, #0
 816              		.cfi_def_cfa_register 7
 817 0006 7860     		str	r0, [r7, #4]
 818              		.loc 5 203 0
 819 0008 7B68     		ldr	r3, [r7, #4]
 820 000a 002B     		cmp	r3, #0
 821 000c 02D1     		bne	.L38
 822              		.loc 5 203 0 is_stmt 0 discriminator 1
 823 000e 1448     		ldr	r0, .L41
 824 0010 FFF7FEFF 		bl	chSysHalt
 825              	.L38:
 826              		.loc 5 205 0 is_stmt 1
 827 0014 FFF7FEFF 		bl	osalSysLock
 828              		.loc 5 206 0
 829 0018 7B68     		ldr	r3, [r7, #4]
 830 001a 1B78     		ldrb	r3, [r3]	@ zero_extendqisi2
 831 001c 022B     		cmp	r3, #2
 832 001e 06D0     		beq	.L39
 833              		.loc 5 206 0 is_stmt 0 discriminator 1
 834 0020 7B68     		ldr	r3, [r7, #4]
 835 0022 1B78     		ldrb	r3, [r3]	@ zero_extendqisi2
 836 0024 032B     		cmp	r3, #3
ARM GAS  C:\Users\Luis\AppData\Local\Temp\ccIW1H7e.s 			page 16


 837 0026 02D0     		beq	.L39
 838 0028 0D48     		ldr	r0, .L41
 839 002a FFF7FEFF 		bl	chSysHalt
 840              	.L39:
 841              		.loc 5 208 0 is_stmt 1
 842 002e 7B68     		ldr	r3, [r7, #4]
 843 0030 1B78     		ldrb	r3, [r3]	@ zero_extendqisi2
 844 0032 022B     		cmp	r3, #2
 845 0034 0FD0     		beq	.L40
 846              		.loc 5 209 0
 847 0036 7868     		ldr	r0, [r7, #4]
 848 0038 FFF7FEFF 		bl	adc_lld_stop_conversion
 849              		.loc 5 210 0
 850 003c 7B68     		ldr	r3, [r7, #4]
 851 003e 0022     		movs	r2, #0
 852 0040 1A61     		str	r2, [r3, #16]
 853              		.loc 5 211 0
 854 0042 7B68     		ldr	r3, [r7, #4]
 855 0044 0222     		movs	r2, #2
 856 0046 1A70     		strb	r2, [r3]
 857              		.loc 5 212 0
 858 0048 7B68     		ldr	r3, [r7, #4]
 859 004a 1433     		adds	r3, r3, #20
 860 004c 1846     		mov	r0, r3
 861 004e 6FF00101 		mvn	r1, #1
 862 0052 FFF7FEFF 		bl	osalThreadResumeS
 863              	.L40:
 864              		.loc 5 214 0
 865 0056 FFF7FEFF 		bl	osalSysUnlock
 866              		.loc 5 215 0
 867 005a 0837     		adds	r7, r7, #8
 868 005c BD46     		mov	sp, r7
 869              		@ sp needed
 870 005e 80BD     		pop	{r7, pc}
 871              	.L42:
 872              		.align	2
 873              	.L41:
 874 0060 00000000 		.word	__func__.7934
 875              		.cfi_endproc
 876              	.LFE266:
 877              		.size	adcStopConversion, .-adcStopConversion
 878 0064 AFF30080 		.section	.text.adcStopConversionI,"ax",%progbits
 878      AFF30080 
 878      AFF30080 
 879              		.align	2
 880              		.p2align 4,,15
 881              		.global	adcStopConversionI
 882              		.thumb
 883              		.thumb_func
 884              		.type	adcStopConversionI, %function
 885              	adcStopConversionI:
 886              	.LFB267:
 887              		.loc 5 227 0
 888              		.cfi_startproc
 889              		@ args = 0, pretend = 0, frame = 8
 890              		@ frame_needed = 1, uses_anonymous_args = 0
 891 0000 80B5     		push	{r7, lr}
ARM GAS  C:\Users\Luis\AppData\Local\Temp\ccIW1H7e.s 			page 17


 892              		.cfi_def_cfa_offset 8
 893              		.cfi_offset 7, -8
 894              		.cfi_offset 14, -4
 895 0002 82B0     		sub	sp, sp, #8
 896              		.cfi_def_cfa_offset 16
 897 0004 00AF     		add	r7, sp, #0
 898              		.cfi_def_cfa_register 7
 899 0006 7860     		str	r0, [r7, #4]
 900              		.loc 5 229 0
 901 0008 FFF7FEFF 		bl	chDbgCheckClassI
 902              		.loc 5 230 0
 903 000c 7B68     		ldr	r3, [r7, #4]
 904 000e 002B     		cmp	r3, #0
 905 0010 02D1     		bne	.L47
 906              		.loc 5 230 0 is_stmt 0 discriminator 1
 907 0012 1448     		ldr	r0, .L48
 908 0014 FFF7FEFF 		bl	chSysHalt
 909              	.L47:
 910              		.loc 5 231 0 is_stmt 1 discriminator 1
 911 0018 7B68     		ldr	r3, [r7, #4]
 912 001a 1B78     		ldrb	r3, [r3]	@ zero_extendqisi2
 913 001c 022B     		cmp	r3, #2
 914 001e 0AD0     		beq	.L45
 915 0020 7B68     		ldr	r3, [r7, #4]
 916 0022 1B78     		ldrb	r3, [r3]	@ zero_extendqisi2
 917 0024 032B     		cmp	r3, #3
 918 0026 06D0     		beq	.L45
 919 0028 7B68     		ldr	r3, [r7, #4]
 920 002a 1B78     		ldrb	r3, [r3]	@ zero_extendqisi2
 921 002c 042B     		cmp	r3, #4
 922 002e 02D0     		beq	.L45
 923 0030 0C48     		ldr	r0, .L48
 924 0032 FFF7FEFF 		bl	chSysHalt
 925              	.L45:
 926              		.loc 5 236 0
 927 0036 7B68     		ldr	r3, [r7, #4]
 928 0038 1B78     		ldrb	r3, [r3]	@ zero_extendqisi2
 929 003a 022B     		cmp	r3, #2
 930 003c 0FD0     		beq	.L43
 931              		.loc 5 237 0
 932 003e 7868     		ldr	r0, [r7, #4]
 933 0040 FFF7FEFF 		bl	adc_lld_stop_conversion
 934              		.loc 5 238 0
 935 0044 7B68     		ldr	r3, [r7, #4]
 936 0046 0022     		movs	r2, #0
 937 0048 1A61     		str	r2, [r3, #16]
 938              		.loc 5 239 0
 939 004a 7B68     		ldr	r3, [r7, #4]
 940 004c 0222     		movs	r2, #2
 941 004e 1A70     		strb	r2, [r3]
 942              		.loc 5 240 0
 943 0050 7B68     		ldr	r3, [r7, #4]
 944 0052 1433     		adds	r3, r3, #20
 945 0054 1846     		mov	r0, r3
 946 0056 6FF00101 		mvn	r1, #1
 947 005a FFF7FEFF 		bl	osalThreadResumeI
 948              	.L43:
ARM GAS  C:\Users\Luis\AppData\Local\Temp\ccIW1H7e.s 			page 18


 949              		.loc 5 242 0
 950 005e 0837     		adds	r7, r7, #8
 951 0060 BD46     		mov	sp, r7
 952              		@ sp needed
 953 0062 80BD     		pop	{r7, pc}
 954              	.L49:
 955              		.align	2
 956              	.L48:
 957 0064 00000000 		.word	__func__.7938
 958              		.cfi_endproc
 959              	.LFE267:
 960              		.size	adcStopConversionI, .-adcStopConversionI
 961 0068 AFF30080 		.section	.text.adcConvert,"ax",%progbits
 961      AFF30080 
 962              		.align	2
 963              		.p2align 4,,15
 964              		.global	adcConvert
 965              		.thumb
 966              		.thumb_func
 967              		.type	adcConvert, %function
 968              	adcConvert:
 969              	.LFB268:
 970              		.loc 5 271 0
 971              		.cfi_startproc
 972              		@ args = 0, pretend = 0, frame = 24
 973              		@ frame_needed = 1, uses_anonymous_args = 0
 974 0000 80B5     		push	{r7, lr}
 975              		.cfi_def_cfa_offset 8
 976              		.cfi_offset 7, -8
 977              		.cfi_offset 14, -4
 978 0002 86B0     		sub	sp, sp, #24
 979              		.cfi_def_cfa_offset 32
 980 0004 00AF     		add	r7, sp, #0
 981              		.cfi_def_cfa_register 7
 982 0006 F860     		str	r0, [r7, #12]
 983 0008 B960     		str	r1, [r7, #8]
 984 000a 7A60     		str	r2, [r7, #4]
 985 000c 3B60     		str	r3, [r7]
 986              		.loc 5 274 0
 987 000e FFF7FEFF 		bl	osalSysLock
 988              		.loc 5 275 0
 989 0012 FB68     		ldr	r3, [r7, #12]
 990 0014 5B69     		ldr	r3, [r3, #20]
 991 0016 002B     		cmp	r3, #0
 992 0018 02D0     		beq	.L51
 993              		.loc 5 275 0 is_stmt 0 discriminator 1
 994 001a 0B48     		ldr	r0, .L53
 995 001c FFF7FEFF 		bl	chSysHalt
 996              	.L51:
 997              		.loc 5 276 0 is_stmt 1
 998 0020 F868     		ldr	r0, [r7, #12]
 999 0022 B968     		ldr	r1, [r7, #8]
 1000 0024 7A68     		ldr	r2, [r7, #4]
 1001 0026 3B68     		ldr	r3, [r7]
 1002 0028 FFF7FEFF 		bl	adcStartConversionI
 1003              		.loc 5 277 0
 1004 002c FB68     		ldr	r3, [r7, #12]
ARM GAS  C:\Users\Luis\AppData\Local\Temp\ccIW1H7e.s 			page 19


 1005 002e 1433     		adds	r3, r3, #20
 1006 0030 1846     		mov	r0, r3
 1007 0032 FFF7FEFF 		bl	osalThreadSuspendS
 1008 0036 7861     		str	r0, [r7, #20]
 1009              		.loc 5 278 0
 1010 0038 FFF7FEFF 		bl	osalSysUnlock
 1011              		.loc 5 279 0
 1012 003c 7B69     		ldr	r3, [r7, #20]
 1013              		.loc 5 280 0
 1014 003e 1846     		mov	r0, r3
 1015 0040 1837     		adds	r7, r7, #24
 1016 0042 BD46     		mov	sp, r7
 1017              		@ sp needed
 1018 0044 80BD     		pop	{r7, pc}
 1019              	.L54:
 1020 0046 00BF     		.align	2
 1021              	.L53:
 1022 0048 00000000 		.word	__func__.7946
 1023              		.cfi_endproc
 1024              	.LFE268:
 1025              		.size	adcConvert, .-adcConvert
 1026 004c AFF30080 		.section	.text.adcAcquireBus,"ax",%progbits
 1027              		.align	2
 1028              		.p2align 4,,15
 1029              		.global	adcAcquireBus
 1030              		.thumb
 1031              		.thumb_func
 1032              		.type	adcAcquireBus, %function
 1033              	adcAcquireBus:
 1034              	.LFB269:
 1035              		.loc 5 295 0
 1036              		.cfi_startproc
 1037              		@ args = 0, pretend = 0, frame = 8
 1038              		@ frame_needed = 1, uses_anonymous_args = 0
 1039 0000 80B5     		push	{r7, lr}
 1040              		.cfi_def_cfa_offset 8
 1041              		.cfi_offset 7, -8
 1042              		.cfi_offset 14, -4
 1043 0002 82B0     		sub	sp, sp, #8
 1044              		.cfi_def_cfa_offset 16
 1045 0004 00AF     		add	r7, sp, #0
 1046              		.cfi_def_cfa_register 7
 1047 0006 7860     		str	r0, [r7, #4]
 1048              		.loc 5 297 0
 1049 0008 7B68     		ldr	r3, [r7, #4]
 1050 000a 002B     		cmp	r3, #0
 1051 000c 02D1     		bne	.L56
 1052              		.loc 5 297 0 is_stmt 0 discriminator 1
 1053 000e 0548     		ldr	r0, .L57
 1054 0010 FFF7FEFF 		bl	chSysHalt
 1055              	.L56:
 1056              		.loc 5 299 0 is_stmt 1
 1057 0014 7B68     		ldr	r3, [r7, #4]
 1058 0016 1833     		adds	r3, r3, #24
 1059 0018 1846     		mov	r0, r3
 1060 001a FFF7FEFF 		bl	osalMutexLock
 1061              		.loc 5 300 0
ARM GAS  C:\Users\Luis\AppData\Local\Temp\ccIW1H7e.s 			page 20


 1062 001e 0837     		adds	r7, r7, #8
 1063 0020 BD46     		mov	sp, r7
 1064              		@ sp needed
 1065 0022 80BD     		pop	{r7, pc}
 1066              	.L58:
 1067              		.align	2
 1068              	.L57:
 1069 0024 00000000 		.word	__func__.7950
 1070              		.cfi_endproc
 1071              	.LFE269:
 1072              		.size	adcAcquireBus, .-adcAcquireBus
 1073 0028 AFF30080 		.section	.text.adcReleaseBus,"ax",%progbits
 1073      AFF30080 
 1074              		.align	2
 1075              		.p2align 4,,15
 1076              		.global	adcReleaseBus
 1077              		.thumb
 1078              		.thumb_func
 1079              		.type	adcReleaseBus, %function
 1080              	adcReleaseBus:
 1081              	.LFB270:
 1082              		.loc 5 311 0
 1083              		.cfi_startproc
 1084              		@ args = 0, pretend = 0, frame = 8
 1085              		@ frame_needed = 1, uses_anonymous_args = 0
 1086 0000 80B5     		push	{r7, lr}
 1087              		.cfi_def_cfa_offset 8
 1088              		.cfi_offset 7, -8
 1089              		.cfi_offset 14, -4
 1090 0002 82B0     		sub	sp, sp, #8
 1091              		.cfi_def_cfa_offset 16
 1092 0004 00AF     		add	r7, sp, #0
 1093              		.cfi_def_cfa_register 7
 1094 0006 7860     		str	r0, [r7, #4]
 1095              		.loc 5 313 0
 1096 0008 7B68     		ldr	r3, [r7, #4]
 1097 000a 002B     		cmp	r3, #0
 1098 000c 02D1     		bne	.L60
 1099              		.loc 5 313 0 is_stmt 0 discriminator 1
 1100 000e 0548     		ldr	r0, .L61
 1101 0010 FFF7FEFF 		bl	chSysHalt
 1102              	.L60:
 1103              		.loc 5 315 0 is_stmt 1
 1104 0014 7B68     		ldr	r3, [r7, #4]
 1105 0016 1833     		adds	r3, r3, #24
 1106 0018 1846     		mov	r0, r3
 1107 001a FFF7FEFF 		bl	osalMutexUnlock
 1108              		.loc 5 316 0
 1109 001e 0837     		adds	r7, r7, #8
 1110 0020 BD46     		mov	sp, r7
 1111              		@ sp needed
 1112 0022 80BD     		pop	{r7, pc}
 1113              	.L62:
 1114              		.align	2
 1115              	.L61:
 1116 0024 00000000 		.word	__func__.7954
 1117              		.cfi_endproc
ARM GAS  C:\Users\Luis\AppData\Local\Temp\ccIW1H7e.s 			page 21


 1118              	.LFE270:
 1119              		.size	adcReleaseBus, .-adcReleaseBus
 1120 0028 AFF30080 		.section	.rodata.__func__.7913,"a",%progbits
 1120      AFF30080 
 1121              		.align	2
 1122              		.type	__func__.7913, %object
 1123              		.size	__func__.7913, 9
 1124              	__func__.7913:
 1125 0000 61646353 		.ascii	"adcStart\000"
 1125      74617274 
 1125      00
 1126 0009 000000   		.section	.rodata.__func__.5842,"a",%progbits
 1127              		.align	2
 1128              		.type	__func__.5842, %object
 1129              		.size	__func__.5842, 12
 1130              	__func__.5842:
 1131 0000 63685379 		.ascii	"chSysUnlock\000"
 1131      73556E6C 
 1131      6F636B00 
 1132              		.section	.rodata.__func__.7917,"a",%progbits
 1133              		.align	2
 1134              		.type	__func__.7917, %object
 1135              		.size	__func__.7917, 8
 1136              	__func__.7917:
 1137 0000 61646353 		.ascii	"adcStop\000"
 1137      746F7000 
 1138              		.section	.rodata.__func__.7930,"a",%progbits
 1139              		.align	2
 1140              		.type	__func__.7930, %object
 1141              		.size	__func__.7930, 20
 1142              	__func__.7930:
 1143 0000 61646353 		.ascii	"adcStartConversionI\000"
 1143      74617274 
 1143      436F6E76 
 1143      65727369 
 1143      6F6E4900 
 1144              		.section	.rodata.__func__.7934,"a",%progbits
 1145              		.align	2
 1146              		.type	__func__.7934, %object
 1147              		.size	__func__.7934, 18
 1148              	__func__.7934:
 1149 0000 61646353 		.ascii	"adcStopConversion\000"
 1149      746F7043 
 1149      6F6E7665 
 1149      7273696F 
 1149      6E00
 1150 0012 0000     		.section	.rodata.__func__.7938,"a",%progbits
 1151              		.align	2
 1152              		.type	__func__.7938, %object
 1153              		.size	__func__.7938, 19
 1154              	__func__.7938:
 1155 0000 61646353 		.ascii	"adcStopConversionI\000"
 1155      746F7043 
 1155      6F6E7665 
 1155      7273696F 
 1155      6E4900
 1156 0013 00       		.section	.rodata.__func__.7946,"a",%progbits
ARM GAS  C:\Users\Luis\AppData\Local\Temp\ccIW1H7e.s 			page 22


 1157              		.align	2
 1158              		.type	__func__.7946, %object
 1159              		.size	__func__.7946, 11
 1160              	__func__.7946:
 1161 0000 61646343 		.ascii	"adcConvert\000"
 1161      6F6E7665 
 1161      727400
 1162 000b 00       		.section	.rodata.__func__.7950,"a",%progbits
 1163              		.align	2
 1164              		.type	__func__.7950, %object
 1165              		.size	__func__.7950, 14
 1166              	__func__.7950:
 1167 0000 61646341 		.ascii	"adcAcquireBus\000"
 1167      63717569 
 1167      72654275 
 1167      7300
 1168 000e 0000     		.section	.rodata.__func__.7954,"a",%progbits
 1169              		.align	2
 1170              		.type	__func__.7954, %object
 1171              		.size	__func__.7954, 14
 1172              	__func__.7954:
 1173 0000 61646352 		.ascii	"adcReleaseBus\000"
 1173      656C6561 
 1173      73654275 
 1173      7300
 1174 000e 0000     		.text
 1175              	.Letext0:
 1176              		.file 6 "c:\\emtechesdk\\gcc\\lib\\gcc\\arm-none-eabi\\4.8.3\\include\\stddef.h"
 1177              		.file 7 "c:\\emtechesdk\\gcc\\arm-none-eabi\\include\\stdint.h"
 1178              		.file 8 "../../ChibiOS/os/rt/ports/ARMCMx/compilers/GCC/chtypes.h"
 1179              		.file 9 "../../ChibiOS/os/rt/include/chsystypes.h"
 1180              		.file 10 "../../ChibiOS/os/rt/include/chschd.h"
 1181              		.file 11 "../../ChibiOS/os/ext/CMSIS/ST/stm32f407xx.h"
 1182              		.file 12 "../../ChibiOS/os/rt/ports/ARMCMx/chcore.h"
 1183              		.file 13 "../../ChibiOS/os/rt/include/chdebug.h"
 1184              		.file 14 "../../ChibiOS/os/rt/include/chtm.h"
 1185              		.file 15 "../../ChibiOS/os/rt/include/chstats.h"
 1186              		.file 16 "../../ChibiOS/os/rt/include/chsem.h"
 1187              		.file 17 "../../ChibiOS/os/rt/include/chmtx.h"
 1188              		.file 18 "../../ChibiOS/os/hal/ports/STM32/STM32F4xx/stm32_dma.h"
 1189              		.file 19 "../../ChibiOS/os/hal/include/adc.h"
 1190              		.file 20 "../../ChibiOS/os/hal/ports/STM32/STM32F4xx/adc_lld.h"
 1191              		.file 21 "../../ChibiOS/os/ext/CMSIS/include/core_cm4.h"
 1192              		.section	.debug_info,"",%progbits
 1193              	.Ldebug_info0:
 1194 0000 F7100000 		.4byte	0x10f7
 1195 0004 0400     		.2byte	0x4
 1196 0006 00000000 		.4byte	.Ldebug_abbrev0
 1197 000a 04       		.byte	0x4
 1198 000b 01       		.uleb128 0x1
 1199 000c E6060000 		.4byte	.LASF212
 1200 0010 01       		.byte	0x1
 1201 0011 05020000 		.4byte	.LASF213
 1202 0015 03050000 		.4byte	.LASF214
 1203 0019 00000000 		.4byte	.Ldebug_ranges0+0
 1204 001d 00000000 		.4byte	0
 1205 0021 00000000 		.4byte	.Ldebug_line0
ARM GAS  C:\Users\Luis\AppData\Local\Temp\ccIW1H7e.s 			page 23


 1206 0025 02       		.uleb128 0x2
 1207 0026 04       		.byte	0x4
 1208 0027 05       		.byte	0x5
 1209 0028 696E7400 		.ascii	"int\000"
 1210 002c 03       		.uleb128 0x3
 1211 002d 39000000 		.4byte	.LASF2
 1212 0031 06       		.byte	0x6
 1213 0032 D4       		.byte	0xd4
 1214 0033 37000000 		.4byte	0x37
 1215 0037 04       		.uleb128 0x4
 1216 0038 04       		.byte	0x4
 1217 0039 07       		.byte	0x7
 1218 003a 0A030000 		.4byte	.LASF0
 1219 003e 04       		.uleb128 0x4
 1220 003f 01       		.byte	0x1
 1221 0040 06       		.byte	0x6
 1222 0041 8F010000 		.4byte	.LASF1
 1223 0045 03       		.uleb128 0x3
 1224 0046 B3080000 		.4byte	.LASF3
 1225 004a 07       		.byte	0x7
 1226 004b 2A       		.byte	0x2a
 1227 004c 50000000 		.4byte	0x50
 1228 0050 04       		.uleb128 0x4
 1229 0051 01       		.byte	0x1
 1230 0052 08       		.byte	0x8
 1231 0053 DF050000 		.4byte	.LASF4
 1232 0057 04       		.uleb128 0x4
 1233 0058 02       		.byte	0x2
 1234 0059 05       		.byte	0x5
 1235 005a F7050000 		.4byte	.LASF5
 1236 005e 03       		.uleb128 0x3
 1237 005f 57020000 		.4byte	.LASF6
 1238 0063 07       		.byte	0x7
 1239 0064 36       		.byte	0x36
 1240 0065 69000000 		.4byte	0x69
 1241 0069 04       		.uleb128 0x4
 1242 006a 02       		.byte	0x2
 1243 006b 07       		.byte	0x7
 1244 006c 62030000 		.4byte	.LASF7
 1245 0070 03       		.uleb128 0x3
 1246 0071 D7050000 		.4byte	.LASF8
 1247 0075 07       		.byte	0x7
 1248 0076 4F       		.byte	0x4f
 1249 0077 7B000000 		.4byte	0x7b
 1250 007b 04       		.uleb128 0x4
 1251 007c 04       		.byte	0x4
 1252 007d 05       		.byte	0x5
 1253 007e E9010000 		.4byte	.LASF9
 1254 0082 03       		.uleb128 0x3
 1255 0083 81060000 		.4byte	.LASF10
 1256 0087 07       		.byte	0x7
 1257 0088 50       		.byte	0x50
 1258 0089 8D000000 		.4byte	0x8d
 1259 008d 04       		.uleb128 0x4
 1260 008e 04       		.byte	0x4
 1261 008f 07       		.byte	0x7
 1262 0090 B2060000 		.4byte	.LASF11
ARM GAS  C:\Users\Luis\AppData\Local\Temp\ccIW1H7e.s 			page 24


 1263 0094 04       		.uleb128 0x4
 1264 0095 08       		.byte	0x8
 1265 0096 05       		.byte	0x5
 1266 0097 81010000 		.4byte	.LASF12
 1267 009b 03       		.uleb128 0x3
 1268 009c D4040000 		.4byte	.LASF13
 1269 00a0 07       		.byte	0x7
 1270 00a1 78       		.byte	0x78
 1271 00a2 A6000000 		.4byte	0xa6
 1272 00a6 04       		.uleb128 0x4
 1273 00a7 08       		.byte	0x8
 1274 00a8 07       		.byte	0x7
 1275 00a9 D8000000 		.4byte	.LASF14
 1276 00ad 05       		.uleb128 0x5
 1277 00ae 70000000 		.4byte	0x70
 1278 00b2 05       		.uleb128 0x5
 1279 00b3 82000000 		.4byte	0x82
 1280 00b7 03       		.uleb128 0x3
 1281 00b8 5C080000 		.4byte	.LASF15
 1282 00bc 08       		.byte	0x8
 1283 00bd 45       		.byte	0x45
 1284 00be 82000000 		.4byte	0x82
 1285 00c2 03       		.uleb128 0x3
 1286 00c3 50010000 		.4byte	.LASF16
 1287 00c7 08       		.byte	0x8
 1288 00c8 46       		.byte	0x46
 1289 00c9 9B000000 		.4byte	0x9b
 1290 00cd 03       		.uleb128 0x3
 1291 00ce D3030000 		.4byte	.LASF17
 1292 00d2 08       		.byte	0x8
 1293 00d3 48       		.byte	0x48
 1294 00d4 45000000 		.4byte	0x45
 1295 00d8 03       		.uleb128 0x3
 1296 00d9 37020000 		.4byte	.LASF18
 1297 00dd 08       		.byte	0x8
 1298 00de 49       		.byte	0x49
 1299 00df 45000000 		.4byte	0x45
 1300 00e3 03       		.uleb128 0x3
 1301 00e4 7E050000 		.4byte	.LASF19
 1302 00e8 08       		.byte	0x8
 1303 00e9 4A       		.byte	0x4a
 1304 00ea 45000000 		.4byte	0x45
 1305 00ee 03       		.uleb128 0x3
 1306 00ef BA050000 		.4byte	.LASF20
 1307 00f3 08       		.byte	0x8
 1308 00f4 4C       		.byte	0x4c
 1309 00f5 82000000 		.4byte	0x82
 1310 00f9 03       		.uleb128 0x3
 1311 00fa AB030000 		.4byte	.LASF21
 1312 00fe 08       		.byte	0x8
 1313 00ff 4D       		.byte	0x4d
 1314 0100 70000000 		.4byte	0x70
 1315 0104 03       		.uleb128 0x3
 1316 0105 01040000 		.4byte	.LASF22
 1317 0109 08       		.byte	0x8
 1318 010a 4F       		.byte	0x4f
 1319 010b 82000000 		.4byte	0x82
ARM GAS  C:\Users\Luis\AppData\Local\Temp\ccIW1H7e.s 			page 25


 1320 010f 03       		.uleb128 0x3
 1321 0110 F9020000 		.4byte	.LASF23
 1322 0114 08       		.byte	0x8
 1323 0115 51       		.byte	0x51
 1324 0116 70000000 		.4byte	0x70
 1325 011a 03       		.uleb128 0x3
 1326 011b B6030000 		.4byte	.LASF24
 1327 011f 08       		.byte	0x8
 1328 0120 52       		.byte	0x52
 1329 0121 82000000 		.4byte	0x82
 1330 0125 03       		.uleb128 0x3
 1331 0126 C7070000 		.4byte	.LASF25
 1332 012a 09       		.byte	0x9
 1333 012b 33       		.byte	0x33
 1334 012c 82000000 		.4byte	0x82
 1335 0130 03       		.uleb128 0x3
 1336 0131 A1090000 		.4byte	.LASF26
 1337 0135 09       		.byte	0x9
 1338 0136 3F       		.byte	0x3f
 1339 0137 3B010000 		.4byte	0x13b
 1340 013b 06       		.uleb128 0x6
 1341 013c 84030000 		.4byte	.LASF49
 1342 0140 68       		.byte	0x68
 1343 0141 0A       		.byte	0xa
 1344 0142 C2       		.byte	0xc2
 1345 0143 4E020000 		.4byte	0x24e
 1346 0147 07       		.uleb128 0x7
 1347 0148 20060000 		.4byte	.LASF27
 1348 014c 0A       		.byte	0xa
 1349 014d C3       		.byte	0xc3
 1350 014e 59020000 		.4byte	0x259
 1351 0152 00       		.byte	0
 1352 0153 07       		.uleb128 0x7
 1353 0154 A0050000 		.4byte	.LASF28
 1354 0158 0A       		.byte	0xa
 1355 0159 C5       		.byte	0xc5
 1356 015a 59020000 		.4byte	0x259
 1357 015e 04       		.byte	0x4
 1358 015f 07       		.uleb128 0x7
 1359 0160 59010000 		.4byte	.LASF29
 1360 0164 0A       		.byte	0xa
 1361 0165 C7       		.byte	0xc7
 1362 0166 EE000000 		.4byte	0xee
 1363 016a 08       		.byte	0x8
 1364 016b 07       		.uleb128 0x7
 1365 016c B4090000 		.4byte	.LASF30
 1366 0170 0A       		.byte	0xa
 1367 0171 C8       		.byte	0xc8
 1368 0172 27060000 		.4byte	0x627
 1369 0176 0C       		.byte	0xc
 1370 0177 07       		.uleb128 0x7
 1371 0178 6C020000 		.4byte	.LASF31
 1372 017c 0A       		.byte	0xa
 1373 017d CA       		.byte	0xca
 1374 017e 59020000 		.4byte	0x259
 1375 0182 10       		.byte	0x10
 1376 0183 07       		.uleb128 0x7
ARM GAS  C:\Users\Luis\AppData\Local\Temp\ccIW1H7e.s 			page 26


 1377 0184 DD040000 		.4byte	.LASF32
 1378 0188 0A       		.byte	0xa
 1379 0189 CB       		.byte	0xcb
 1380 018a 59020000 		.4byte	0x259
 1381 018e 14       		.byte	0x14
 1382 018f 07       		.uleb128 0x7
 1383 0190 0C090000 		.4byte	.LASF33
 1384 0194 0A       		.byte	0xa
 1385 0195 D2       		.byte	0xd2
 1386 0196 CB080000 		.4byte	0x8cb
 1387 019a 18       		.byte	0x18
 1388 019b 07       		.uleb128 0x7
 1389 019c FF020000 		.4byte	.LASF34
 1390 01a0 0A       		.byte	0xa
 1391 01a1 D8       		.byte	0xd8
 1392 01a2 DD080000 		.4byte	0x8dd
 1393 01a6 1C       		.byte	0x1c
 1394 01a7 07       		.uleb128 0x7
 1395 01a8 01060000 		.4byte	.LASF35
 1396 01ac 0A       		.byte	0xa
 1397 01ad DD       		.byte	0xdd
 1398 01ae D8000000 		.4byte	0xd8
 1399 01b2 20       		.byte	0x20
 1400 01b3 07       		.uleb128 0x7
 1401 01b4 27060000 		.4byte	.LASF36
 1402 01b8 0A       		.byte	0xa
 1403 01b9 E1       		.byte	0xe1
 1404 01ba CD000000 		.4byte	0xcd
 1405 01be 21       		.byte	0x21
 1406 01bf 07       		.uleb128 0x7
 1407 01c0 92080000 		.4byte	.LASF37
 1408 01c4 0A       		.byte	0xa
 1409 01c5 E6       		.byte	0xe6
 1410 01c6 E3000000 		.4byte	0xe3
 1411 01ca 22       		.byte	0x22
 1412 01cb 08       		.uleb128 0x8
 1413 01cc 705F7500 		.ascii	"p_u\000"
 1414 01d0 0A       		.byte	0xa
 1415 01d1 3101     		.2byte	0x131
 1416 01d3 06080000 		.4byte	0x806
 1417 01d7 24       		.byte	0x24
 1418 01d8 09       		.uleb128 0x9
 1419 01d9 66040000 		.4byte	.LASF38
 1420 01dd 0A       		.byte	0xa
 1421 01de 3601     		.2byte	0x136
 1422 01e0 5F020000 		.4byte	0x25f
 1423 01e4 28       		.byte	0x28
 1424 01e5 09       		.uleb128 0x9
 1425 01e6 34030000 		.4byte	.LASF39
 1426 01ea 0A       		.byte	0xa
 1427 01eb 3C01     		.2byte	0x13c
 1428 01ed 83020000 		.4byte	0x283
 1429 01f1 2C       		.byte	0x2c
 1430 01f2 09       		.uleb128 0x9
 1431 01f3 5E060000 		.4byte	.LASF40
 1432 01f7 0A       		.byte	0xa
 1433 01f8 4001     		.2byte	0x140
ARM GAS  C:\Users\Luis\AppData\Local\Temp\ccIW1H7e.s 			page 27


 1434 01fa F9000000 		.4byte	0xf9
 1435 01fe 34       		.byte	0x34
 1436 01ff 09       		.uleb128 0x9
 1437 0200 71060000 		.4byte	.LASF41
 1438 0204 0A       		.byte	0xa
 1439 0205 4601     		.2byte	0x146
 1440 0207 04010000 		.4byte	0x104
 1441 020b 38       		.byte	0x38
 1442 020c 09       		.uleb128 0x9
 1443 020d ED050000 		.4byte	.LASF42
 1444 0211 0A       		.byte	0xa
 1445 0212 4D01     		.2byte	0x14d
 1446 0214 C5080000 		.4byte	0x8c5
 1447 0218 3C       		.byte	0x3c
 1448 0219 09       		.uleb128 0x9
 1449 021a D1070000 		.4byte	.LASF43
 1450 021e 0A       		.byte	0xa
 1451 021f 5101     		.2byte	0x151
 1452 0221 EE000000 		.4byte	0xee
 1453 0225 40       		.byte	0x40
 1454 0226 09       		.uleb128 0x9
 1455 0227 9B010000 		.4byte	.LASF44
 1456 022b 0A       		.byte	0xa
 1457 022c 5801     		.2byte	0x158
 1458 022e 36030000 		.4byte	0x336
 1459 0232 44       		.byte	0x44
 1460 0233 09       		.uleb128 0x9
 1461 0234 38060000 		.4byte	.LASF45
 1462 0238 0A       		.byte	0xa
 1463 0239 5E01     		.2byte	0x15e
 1464 023b B7070000 		.4byte	0x7b7
 1465 023f 48       		.byte	0x48
 1466 0240 09       		.uleb128 0x9
 1467 0241 49030000 		.4byte	.LASF46
 1468 0245 0A       		.byte	0xa
 1469 0246 6201     		.2byte	0x162
 1470 0248 36030000 		.4byte	0x336
 1471 024c 60       		.byte	0x60
 1472 024d 00       		.byte	0
 1473 024e 03       		.uleb128 0x3
 1474 024f 79040000 		.4byte	.LASF47
 1475 0253 09       		.byte	0x9
 1476 0254 44       		.byte	0x44
 1477 0255 59020000 		.4byte	0x259
 1478 0259 0A       		.uleb128 0xa
 1479 025a 04       		.byte	0x4
 1480 025b 30010000 		.4byte	0x130
 1481 025f 03       		.uleb128 0x3
 1482 0260 26090000 		.4byte	.LASF48
 1483 0264 09       		.byte	0x9
 1484 0265 49       		.byte	0x49
 1485 0266 6A020000 		.4byte	0x26a
 1486 026a 06       		.uleb128 0x6
 1487 026b A2060000 		.4byte	.LASF50
 1488 026f 04       		.byte	0x4
 1489 0270 0A       		.byte	0xa
 1490 0271 B0       		.byte	0xb0
ARM GAS  C:\Users\Luis\AppData\Local\Temp\ccIW1H7e.s 			page 28


 1491 0272 83020000 		.4byte	0x283
 1492 0276 07       		.uleb128 0x7
 1493 0277 20060000 		.4byte	.LASF27
 1494 027b 0A       		.byte	0xa
 1495 027c B1       		.byte	0xb1
 1496 027d 59020000 		.4byte	0x259
 1497 0281 00       		.byte	0
 1498 0282 00       		.byte	0
 1499 0283 03       		.uleb128 0x3
 1500 0284 79080000 		.4byte	.LASF51
 1501 0288 09       		.byte	0x9
 1502 0289 50       		.byte	0x50
 1503 028a 8E020000 		.4byte	0x28e
 1504 028e 06       		.uleb128 0x6
 1505 028f 78000000 		.4byte	.LASF52
 1506 0293 08       		.byte	0x8
 1507 0294 0A       		.byte	0xa
 1508 0295 B7       		.byte	0xb7
 1509 0296 B3020000 		.4byte	0x2b3
 1510 029a 07       		.uleb128 0x7
 1511 029b 20060000 		.4byte	.LASF27
 1512 029f 0A       		.byte	0xa
 1513 02a0 B8       		.byte	0xb8
 1514 02a1 59020000 		.4byte	0x259
 1515 02a5 00       		.byte	0
 1516 02a6 07       		.uleb128 0x7
 1517 02a7 A0050000 		.4byte	.LASF28
 1518 02ab 0A       		.byte	0xa
 1519 02ac B9       		.byte	0xb9
 1520 02ad 59020000 		.4byte	0x259
 1521 02b1 04       		.byte	0x4
 1522 02b2 00       		.byte	0
 1523 02b3 03       		.uleb128 0x3
 1524 02b4 12000000 		.4byte	.LASF53
 1525 02b8 09       		.byte	0x9
 1526 02b9 57       		.byte	0x57
 1527 02ba BE020000 		.4byte	0x2be
 1528 02be 0B       		.uleb128 0xb
 1529 02bf F3030000 		.4byte	.LASF54
 1530 02c3 1C       		.byte	0x1c
 1531 02c4 0A       		.byte	0xa
 1532 02c5 9001     		.2byte	0x190
 1533 02c7 1A030000 		.4byte	0x31a
 1534 02cb 09       		.uleb128 0x9
 1535 02cc 91060000 		.4byte	.LASF55
 1536 02d0 0A       		.byte	0xa
 1537 02d1 9101     		.2byte	0x191
 1538 02d3 83020000 		.4byte	0x283
 1539 02d7 00       		.byte	0
 1540 02d8 09       		.uleb128 0x9
 1541 02d9 12060000 		.4byte	.LASF56
 1542 02dd 0A       		.byte	0xa
 1543 02de 9201     		.2byte	0x192
 1544 02e0 EE000000 		.4byte	0xee
 1545 02e4 08       		.byte	0x8
 1546 02e5 09       		.uleb128 0x9
 1547 02e6 EA040000 		.4byte	.LASF57
ARM GAS  C:\Users\Luis\AppData\Local\Temp\ccIW1H7e.s 			page 29


 1548 02ea 0A       		.byte	0xa
 1549 02eb 9401     		.2byte	0x194
 1550 02ed 27060000 		.4byte	0x627
 1551 02f1 0C       		.byte	0xc
 1552 02f2 09       		.uleb128 0x9
 1553 02f3 95020000 		.4byte	.LASF58
 1554 02f7 0A       		.byte	0xa
 1555 02f8 9701     		.2byte	0x197
 1556 02fa 59020000 		.4byte	0x259
 1557 02fe 10       		.byte	0x10
 1558 02ff 09       		.uleb128 0x9
 1559 0300 48050000 		.4byte	.LASF59
 1560 0304 0A       		.byte	0xa
 1561 0305 9801     		.2byte	0x198
 1562 0307 59020000 		.4byte	0x259
 1563 030b 14       		.byte	0x14
 1564 030c 09       		.uleb128 0x9
 1565 030d 3E050000 		.4byte	.LASF60
 1566 0311 0A       		.byte	0xa
 1567 0312 9B01     		.2byte	0x19b
 1568 0314 59020000 		.4byte	0x259
 1569 0318 18       		.byte	0x18
 1570 0319 00       		.byte	0
 1571 031a 03       		.uleb128 0x3
 1572 031b DC070000 		.4byte	.LASF61
 1573 031f 09       		.byte	0x9
 1574 0320 5C       		.byte	0x5c
 1575 0321 25030000 		.4byte	0x325
 1576 0325 0A       		.uleb128 0xa
 1577 0326 04       		.byte	0x4
 1578 0327 2B030000 		.4byte	0x32b
 1579 032b 0C       		.uleb128 0xc
 1580 032c 36030000 		.4byte	0x336
 1581 0330 0D       		.uleb128 0xd
 1582 0331 36030000 		.4byte	0x336
 1583 0335 00       		.byte	0
 1584 0336 0E       		.uleb128 0xe
 1585 0337 04       		.byte	0x4
 1586 0338 03       		.uleb128 0x3
 1587 0339 90050000 		.4byte	.LASF62
 1588 033d 09       		.byte	0x9
 1589 033e 61       		.byte	0x61
 1590 033f 43030000 		.4byte	0x343
 1591 0343 0B       		.uleb128 0xb
 1592 0344 38080000 		.4byte	.LASF63
 1593 0348 14       		.byte	0x14
 1594 0349 0A       		.byte	0xa
 1595 034a 6B01     		.2byte	0x16b
 1596 034c 92030000 		.4byte	0x392
 1597 0350 09       		.uleb128 0x9
 1598 0351 17030000 		.4byte	.LASF64
 1599 0355 0A       		.byte	0xa
 1600 0356 6C01     		.2byte	0x16c
 1601 0358 E3080000 		.4byte	0x8e3
 1602 035c 00       		.byte	0
 1603 035d 09       		.uleb128 0x9
 1604 035e B0020000 		.4byte	.LASF65
ARM GAS  C:\Users\Luis\AppData\Local\Temp\ccIW1H7e.s 			page 30


 1605 0362 0A       		.byte	0xa
 1606 0363 6D01     		.2byte	0x16d
 1607 0365 E3080000 		.4byte	0x8e3
 1608 0369 04       		.byte	0x4
 1609 036a 09       		.uleb128 0x9
 1610 036b 99060000 		.4byte	.LASF66
 1611 036f 0A       		.byte	0xa
 1612 0370 6E01     		.2byte	0x16e
 1613 0372 25010000 		.4byte	0x125
 1614 0376 08       		.byte	0x8
 1615 0377 09       		.uleb128 0x9
 1616 0378 BA090000 		.4byte	.LASF67
 1617 037c 0A       		.byte	0xa
 1618 037d 6F01     		.2byte	0x16f
 1619 037f 1A030000 		.4byte	0x31a
 1620 0383 0C       		.byte	0xc
 1621 0384 09       		.uleb128 0x9
 1622 0385 69080000 		.4byte	.LASF68
 1623 0389 0A       		.byte	0xa
 1624 038a 7101     		.2byte	0x171
 1625 038c 36030000 		.4byte	0x336
 1626 0390 10       		.byte	0x10
 1627 0391 00       		.byte	0
 1628 0392 03       		.uleb128 0x3
 1629 0393 2D010000 		.4byte	.LASF69
 1630 0397 09       		.byte	0x9
 1631 0398 66       		.byte	0x66
 1632 0399 9D030000 		.4byte	0x39d
 1633 039d 0B       		.uleb128 0xb
 1634 039e 8C040000 		.4byte	.LASF70
 1635 03a2 10       		.byte	0x10
 1636 03a3 0A       		.byte	0xa
 1637 03a4 7B01     		.2byte	0x17b
 1638 03a6 DF030000 		.4byte	0x3df
 1639 03aa 09       		.uleb128 0x9
 1640 03ab 17030000 		.4byte	.LASF64
 1641 03af 0A       		.byte	0xa
 1642 03b0 7C01     		.2byte	0x17c
 1643 03b2 E3080000 		.4byte	0x8e3
 1644 03b6 00       		.byte	0
 1645 03b7 09       		.uleb128 0x9
 1646 03b8 B0020000 		.4byte	.LASF65
 1647 03bc 0A       		.byte	0xa
 1648 03bd 7E01     		.2byte	0x17e
 1649 03bf E3080000 		.4byte	0x8e3
 1650 03c3 04       		.byte	0x4
 1651 03c4 09       		.uleb128 0x9
 1652 03c5 99060000 		.4byte	.LASF66
 1653 03c9 0A       		.byte	0xa
 1654 03ca 8001     		.2byte	0x180
 1655 03cc 25010000 		.4byte	0x125
 1656 03d0 08       		.byte	0x8
 1657 03d1 09       		.uleb128 0x9
 1658 03d2 C8040000 		.4byte	.LASF71
 1659 03d6 0A       		.byte	0xa
 1660 03d7 8801     		.2byte	0x188
 1661 03d9 25010000 		.4byte	0x125
ARM GAS  C:\Users\Luis\AppData\Local\Temp\ccIW1H7e.s 			page 31


 1662 03dd 0C       		.byte	0xc
 1663 03de 00       		.byte	0
 1664 03df 03       		.uleb128 0x3
 1665 03e0 89000000 		.4byte	.LASF72
 1666 03e4 09       		.byte	0x9
 1667 03e5 6B       		.byte	0x6b
 1668 03e6 EA030000 		.4byte	0x3ea
 1669 03ea 0F       		.uleb128 0xf
 1670 03eb 4E090000 		.4byte	.LASF73
 1671 03ef 1404     		.2byte	0x414
 1672 03f1 0A       		.byte	0xa
 1673 03f2 A201     		.2byte	0x1a2
 1674 03f4 2D040000 		.4byte	0x42d
 1675 03f8 09       		.uleb128 0x9
 1676 03f9 0C080000 		.4byte	.LASF74
 1677 03fd 0A       		.byte	0xa
 1678 03fe AA01     		.2byte	0x1aa
 1679 0400 E9080000 		.4byte	0x8e9
 1680 0404 00       		.byte	0
 1681 0405 09       		.uleb128 0x9
 1682 0406 99080000 		.4byte	.LASF75
 1683 040a 0A       		.byte	0xa
 1684 040b AF01     		.2byte	0x1af
 1685 040d 0F010000 		.4byte	0x10f
 1686 0411 04       		.byte	0x4
 1687 0412 09       		.uleb128 0x9
 1688 0413 E1020000 		.4byte	.LASF76
 1689 0417 0A       		.byte	0xa
 1690 0418 B301     		.2byte	0x1b3
 1691 041a 0F010000 		.4byte	0x10f
 1692 041e 08       		.byte	0x8
 1693 041f 09       		.uleb128 0x9
 1694 0420 35090000 		.4byte	.LASF77
 1695 0424 0A       		.byte	0xa
 1696 0425 B901     		.2byte	0x1b9
 1697 0427 49070000 		.4byte	0x749
 1698 042b 0C       		.byte	0xc
 1699 042c 00       		.byte	0
 1700 042d 03       		.uleb128 0x3
 1701 042e C7030000 		.4byte	.LASF78
 1702 0432 09       		.byte	0x9
 1703 0433 70       		.byte	0x70
 1704 0434 38040000 		.4byte	0x438
 1705 0438 0F       		.uleb128 0xf
 1706 0439 47020000 		.4byte	.LASF79
 1707 043d E805     		.2byte	0x5e8
 1708 043f 0A       		.byte	0xa
 1709 0440 C201     		.2byte	0x1c2
 1710 0442 A5040000 		.4byte	0x4a5
 1711 0446 09       		.uleb128 0x9
 1712 0447 AD080000 		.4byte	.LASF80
 1713 044b 0A       		.byte	0xa
 1714 044c C601     		.2byte	0x1c6
 1715 044e B3020000 		.4byte	0x2b3
 1716 0452 00       		.byte	0
 1717 0453 09       		.uleb128 0x9
 1718 0454 B6010000 		.4byte	.LASF81
ARM GAS  C:\Users\Luis\AppData\Local\Temp\ccIW1H7e.s 			page 32


 1719 0458 0A       		.byte	0xa
 1720 0459 CA01     		.2byte	0x1ca
 1721 045b 92030000 		.4byte	0x392
 1722 045f 1C       		.byte	0x1c
 1723 0460 08       		.uleb128 0x8
 1724 0461 64626700 		.ascii	"dbg\000"
 1725 0465 0A       		.byte	0xa
 1726 0466 CE01     		.2byte	0x1ce
 1727 0468 DF030000 		.4byte	0x3df
 1728 046c 2C       		.byte	0x2c
 1729 046d 10       		.uleb128 0x10
 1730 046e 22010000 		.4byte	.LASF82
 1731 0472 0A       		.byte	0xa
 1732 0473 D201     		.2byte	0x1d2
 1733 0475 30010000 		.4byte	0x130
 1734 0479 4004     		.2byte	0x440
 1735 047b 11       		.uleb128 0x11
 1736 047c 746D00   		.ascii	"tm\000"
 1737 047f 0A       		.byte	0xa
 1738 0480 D701     		.2byte	0x1d7
 1739 0482 69070000 		.4byte	0x769
 1740 0486 A804     		.2byte	0x4a8
 1741 0488 10       		.uleb128 0x10
 1742 0489 52000000 		.4byte	.LASF83
 1743 048d 0A       		.byte	0xa
 1744 048e DD01     		.2byte	0x1dd
 1745 0490 FB070000 		.4byte	0x7fb
 1746 0494 B004     		.2byte	0x4b0
 1747 0496 10       		.uleb128 0x10
 1748 0497 EA020000 		.4byte	.LASF84
 1749 049b 0A       		.byte	0xa
 1750 049c E301     		.2byte	0x1e3
 1751 049e EE080000 		.4byte	0x8ee
 1752 04a2 E804     		.2byte	0x4e8
 1753 04a4 00       		.byte	0
 1754 04a5 04       		.uleb128 0x4
 1755 04a6 04       		.byte	0x4
 1756 04a7 07       		.byte	0x7
 1757 04a8 70040000 		.4byte	.LASF85
 1758 04ac 12       		.uleb128 0x12
 1759 04ad 50       		.byte	0x50
 1760 04ae 0B       		.byte	0xb
 1761 04af C4       		.byte	0xc4
 1762 04b0 A3050000 		.4byte	0x5a3
 1763 04b4 13       		.uleb128 0x13
 1764 04b5 535200   		.ascii	"SR\000"
 1765 04b8 0B       		.byte	0xb
 1766 04b9 C6       		.byte	0xc6
 1767 04ba B2000000 		.4byte	0xb2
 1768 04be 00       		.byte	0
 1769 04bf 13       		.uleb128 0x13
 1770 04c0 43523100 		.ascii	"CR1\000"
 1771 04c4 0B       		.byte	0xb
 1772 04c5 C7       		.byte	0xc7
 1773 04c6 B2000000 		.4byte	0xb2
 1774 04ca 04       		.byte	0x4
 1775 04cb 13       		.uleb128 0x13
ARM GAS  C:\Users\Luis\AppData\Local\Temp\ccIW1H7e.s 			page 33


 1776 04cc 43523200 		.ascii	"CR2\000"
 1777 04d0 0B       		.byte	0xb
 1778 04d1 C8       		.byte	0xc8
 1779 04d2 B2000000 		.4byte	0xb2
 1780 04d6 08       		.byte	0x8
 1781 04d7 07       		.uleb128 0x7
 1782 04d8 F0040000 		.4byte	.LASF86
 1783 04dc 0B       		.byte	0xb
 1784 04dd C9       		.byte	0xc9
 1785 04de B2000000 		.4byte	0xb2
 1786 04e2 0C       		.byte	0xc
 1787 04e3 07       		.uleb128 0x7
 1788 04e4 F6040000 		.4byte	.LASF87
 1789 04e8 0B       		.byte	0xb
 1790 04e9 CA       		.byte	0xca
 1791 04ea B2000000 		.4byte	0xb2
 1792 04ee 10       		.byte	0x10
 1793 04ef 07       		.uleb128 0x7
 1794 04f0 4C040000 		.4byte	.LASF88
 1795 04f4 0B       		.byte	0xb
 1796 04f5 CB       		.byte	0xcb
 1797 04f6 B2000000 		.4byte	0xb2
 1798 04fa 14       		.byte	0x14
 1799 04fb 07       		.uleb128 0x7
 1800 04fc 52040000 		.4byte	.LASF89
 1801 0500 0B       		.byte	0xb
 1802 0501 CC       		.byte	0xcc
 1803 0502 B2000000 		.4byte	0xb2
 1804 0506 18       		.byte	0x18
 1805 0507 07       		.uleb128 0x7
 1806 0508 58040000 		.4byte	.LASF90
 1807 050c 0B       		.byte	0xb
 1808 050d CD       		.byte	0xcd
 1809 050e B2000000 		.4byte	0xb2
 1810 0512 1C       		.byte	0x1c
 1811 0513 07       		.uleb128 0x7
 1812 0514 4A060000 		.4byte	.LASF91
 1813 0518 0B       		.byte	0xb
 1814 0519 CE       		.byte	0xce
 1815 051a B2000000 		.4byte	0xb2
 1816 051e 20       		.byte	0x20
 1817 051f 13       		.uleb128 0x13
 1818 0520 48545200 		.ascii	"HTR\000"
 1819 0524 0B       		.byte	0xb
 1820 0525 CF       		.byte	0xcf
 1821 0526 B2000000 		.4byte	0xb2
 1822 052a 24       		.byte	0x24
 1823 052b 13       		.uleb128 0x13
 1824 052c 4C545200 		.ascii	"LTR\000"
 1825 0530 0B       		.byte	0xb
 1826 0531 D0       		.byte	0xd0
 1827 0532 B2000000 		.4byte	0xb2
 1828 0536 28       		.byte	0x28
 1829 0537 07       		.uleb128 0x7
 1830 0538 50050000 		.4byte	.LASF92
 1831 053c 0B       		.byte	0xb
 1832 053d D1       		.byte	0xd1
ARM GAS  C:\Users\Luis\AppData\Local\Temp\ccIW1H7e.s 			page 34


 1833 053e B2000000 		.4byte	0xb2
 1834 0542 2C       		.byte	0x2c
 1835 0543 07       		.uleb128 0x7
 1836 0544 55050000 		.4byte	.LASF93
 1837 0548 0B       		.byte	0xb
 1838 0549 D2       		.byte	0xd2
 1839 054a B2000000 		.4byte	0xb2
 1840 054e 30       		.byte	0x30
 1841 054f 07       		.uleb128 0x7
 1842 0550 5A050000 		.4byte	.LASF94
 1843 0554 0B       		.byte	0xb
 1844 0555 D3       		.byte	0xd3
 1845 0556 B2000000 		.4byte	0xb2
 1846 055a 34       		.byte	0x34
 1847 055b 07       		.uleb128 0x7
 1848 055c 60010000 		.4byte	.LASF95
 1849 0560 0B       		.byte	0xb
 1850 0561 D4       		.byte	0xd4
 1851 0562 B2000000 		.4byte	0xb2
 1852 0566 38       		.byte	0x38
 1853 0567 07       		.uleb128 0x7
 1854 0568 E1080000 		.4byte	.LASF96
 1855 056c 0B       		.byte	0xb
 1856 056d D5       		.byte	0xd5
 1857 056e B2000000 		.4byte	0xb2
 1858 0572 3C       		.byte	0x3c
 1859 0573 07       		.uleb128 0x7
 1860 0574 E6080000 		.4byte	.LASF97
 1861 0578 0B       		.byte	0xb
 1862 0579 D6       		.byte	0xd6
 1863 057a B2000000 		.4byte	0xb2
 1864 057e 40       		.byte	0x40
 1865 057f 07       		.uleb128 0x7
 1866 0580 EB080000 		.4byte	.LASF98
 1867 0584 0B       		.byte	0xb
 1868 0585 D7       		.byte	0xd7
 1869 0586 B2000000 		.4byte	0xb2
 1870 058a 44       		.byte	0x44
 1871 058b 07       		.uleb128 0x7
 1872 058c E5040000 		.4byte	.LASF99
 1873 0590 0B       		.byte	0xb
 1874 0591 D8       		.byte	0xd8
 1875 0592 B2000000 		.4byte	0xb2
 1876 0596 48       		.byte	0x48
 1877 0597 13       		.uleb128 0x13
 1878 0598 445200   		.ascii	"DR\000"
 1879 059b 0B       		.byte	0xb
 1880 059c D9       		.byte	0xd9
 1881 059d B2000000 		.4byte	0xb2
 1882 05a1 4C       		.byte	0x4c
 1883 05a2 00       		.byte	0
 1884 05a3 03       		.uleb128 0x3
 1885 05a4 60020000 		.4byte	.LASF100
 1886 05a8 0B       		.byte	0xb
 1887 05a9 DA       		.byte	0xda
 1888 05aa AC040000 		.4byte	0x4ac
 1889 05ae 14       		.uleb128 0x14
ARM GAS  C:\Users\Luis\AppData\Local\Temp\ccIW1H7e.s 			page 35


 1890 05af 18       		.byte	0x18
 1891 05b0 0B       		.byte	0xb
 1892 05b1 6B01     		.2byte	0x16b
 1893 05b3 05060000 		.4byte	0x605
 1894 05b7 08       		.uleb128 0x8
 1895 05b8 435200   		.ascii	"CR\000"
 1896 05bb 0B       		.byte	0xb
 1897 05bc 6D01     		.2byte	0x16d
 1898 05be B2000000 		.4byte	0xb2
 1899 05c2 00       		.byte	0
 1900 05c3 09       		.uleb128 0x9
 1901 05c4 07080000 		.4byte	.LASF101
 1902 05c8 0B       		.byte	0xb
 1903 05c9 6E01     		.2byte	0x16e
 1904 05cb B2000000 		.4byte	0xb2
 1905 05cf 04       		.byte	0x4
 1906 05d0 08       		.uleb128 0x8
 1907 05d1 50415200 		.ascii	"PAR\000"
 1908 05d5 0B       		.byte	0xb
 1909 05d6 6F01     		.2byte	0x16f
 1910 05d8 B2000000 		.4byte	0xb2
 1911 05dc 08       		.byte	0x8
 1912 05dd 09       		.uleb128 0x9
 1913 05de 5F000000 		.4byte	.LASF102
 1914 05e2 0B       		.byte	0xb
 1915 05e3 7001     		.2byte	0x170
 1916 05e5 B2000000 		.4byte	0xb2
 1917 05e9 0C       		.byte	0xc
 1918 05ea 09       		.uleb128 0x9
 1919 05eb 64080000 		.4byte	.LASF103
 1920 05ef 0B       		.byte	0xb
 1921 05f0 7101     		.2byte	0x171
 1922 05f2 B2000000 		.4byte	0xb2
 1923 05f6 10       		.byte	0x10
 1924 05f7 08       		.uleb128 0x8
 1925 05f8 46435200 		.ascii	"FCR\000"
 1926 05fc 0B       		.byte	0xb
 1927 05fd 7201     		.2byte	0x172
 1928 05ff B2000000 		.4byte	0xb2
 1929 0603 14       		.byte	0x14
 1930 0604 00       		.byte	0
 1931 0605 15       		.uleb128 0x15
 1932 0606 1D080000 		.4byte	.LASF104
 1933 060a 0B       		.byte	0xb
 1934 060b 7301     		.2byte	0x173
 1935 060d AE050000 		.4byte	0x5ae
 1936 0611 03       		.uleb128 0x3
 1937 0612 A7020000 		.4byte	.LASF105
 1938 0616 0C       		.byte	0xc
 1939 0617 65       		.byte	0x65
 1940 0618 36030000 		.4byte	0x336
 1941 061c 03       		.uleb128 0x3
 1942 061d 23040000 		.4byte	.LASF106
 1943 0621 0C       		.byte	0xc
 1944 0622 6D       		.byte	0x6d
 1945 0623 9B000000 		.4byte	0x9b
 1946 0627 06       		.uleb128 0x6
ARM GAS  C:\Users\Luis\AppData\Local\Temp\ccIW1H7e.s 			page 36


 1947 0628 30080000 		.4byte	.LASF107
 1948 062c 04       		.byte	0x4
 1949 062d 0C       		.byte	0xc
 1950 062e 89       		.byte	0x89
 1951 062f 40060000 		.4byte	0x640
 1952 0633 13       		.uleb128 0x13
 1953 0634 72313300 		.ascii	"r13\000"
 1954 0638 0C       		.byte	0xc
 1955 0639 8A       		.byte	0x8a
 1956 063a BB060000 		.4byte	0x6bb
 1957 063e 00       		.byte	0
 1958 063f 00       		.byte	0
 1959 0640 06       		.uleb128 0x6
 1960 0641 6C000000 		.4byte	.LASF108
 1961 0645 24       		.byte	0x24
 1962 0646 01       		.byte	0x1
 1963 0647 F4       		.byte	0xf4
 1964 0648 BB060000 		.4byte	0x6bb
 1965 064c 08       		.uleb128 0x8
 1966 064d 723400   		.ascii	"r4\000"
 1967 0650 01       		.byte	0x1
 1968 0651 0701     		.2byte	0x107
 1969 0653 11060000 		.4byte	0x611
 1970 0657 00       		.byte	0
 1971 0658 08       		.uleb128 0x8
 1972 0659 723500   		.ascii	"r5\000"
 1973 065c 01       		.byte	0x1
 1974 065d 0801     		.2byte	0x108
 1975 065f 11060000 		.4byte	0x611
 1976 0663 04       		.byte	0x4
 1977 0664 08       		.uleb128 0x8
 1978 0665 723600   		.ascii	"r6\000"
 1979 0668 01       		.byte	0x1
 1980 0669 0901     		.2byte	0x109
 1981 066b 11060000 		.4byte	0x611
 1982 066f 08       		.byte	0x8
 1983 0670 08       		.uleb128 0x8
 1984 0671 723700   		.ascii	"r7\000"
 1985 0674 01       		.byte	0x1
 1986 0675 0A01     		.2byte	0x10a
 1987 0677 11060000 		.4byte	0x611
 1988 067b 0C       		.byte	0xc
 1989 067c 08       		.uleb128 0x8
 1990 067d 723800   		.ascii	"r8\000"
 1991 0680 01       		.byte	0x1
 1992 0681 0B01     		.2byte	0x10b
 1993 0683 11060000 		.4byte	0x611
 1994 0687 10       		.byte	0x10
 1995 0688 08       		.uleb128 0x8
 1996 0689 723900   		.ascii	"r9\000"
 1997 068c 01       		.byte	0x1
 1998 068d 0C01     		.2byte	0x10c
 1999 068f 11060000 		.4byte	0x611
 2000 0693 14       		.byte	0x14
 2001 0694 08       		.uleb128 0x8
 2002 0695 72313000 		.ascii	"r10\000"
 2003 0699 01       		.byte	0x1
ARM GAS  C:\Users\Luis\AppData\Local\Temp\ccIW1H7e.s 			page 37


 2004 069a 0D01     		.2byte	0x10d
 2005 069c 11060000 		.4byte	0x611
 2006 06a0 18       		.byte	0x18
 2007 06a1 08       		.uleb128 0x8
 2008 06a2 72313100 		.ascii	"r11\000"
 2009 06a6 01       		.byte	0x1
 2010 06a7 0E01     		.2byte	0x10e
 2011 06a9 11060000 		.4byte	0x611
 2012 06ad 1C       		.byte	0x1c
 2013 06ae 08       		.uleb128 0x8
 2014 06af 6C7200   		.ascii	"lr\000"
 2015 06b2 01       		.byte	0x1
 2016 06b3 0F01     		.2byte	0x10f
 2017 06b5 11060000 		.4byte	0x611
 2018 06b9 20       		.byte	0x20
 2019 06ba 00       		.byte	0
 2020 06bb 0A       		.uleb128 0xa
 2021 06bc 04       		.byte	0x4
 2022 06bd 40060000 		.4byte	0x640
 2023 06c1 12       		.uleb128 0x12
 2024 06c2 10       		.byte	0x10
 2025 06c3 0D       		.byte	0xd
 2026 06c4 51       		.byte	0x51
 2027 06c5 FA060000 		.4byte	0x6fa
 2028 06c9 07       		.uleb128 0x7
 2029 06ca 1F000000 		.4byte	.LASF109
 2030 06ce 0D       		.byte	0xd
 2031 06cf 55       		.byte	0x55
 2032 06d0 25010000 		.4byte	0x125
 2033 06d4 00       		.byte	0
 2034 06d5 07       		.uleb128 0x7
 2035 06d6 51020000 		.4byte	.LASF110
 2036 06da 0D       		.byte	0xd
 2037 06db 59       		.byte	0x59
 2038 06dc 59020000 		.4byte	0x259
 2039 06e0 04       		.byte	0x4
 2040 06e1 07       		.uleb128 0x7
 2041 06e2 AA090000 		.4byte	.LASF111
 2042 06e6 0D       		.byte	0xd
 2043 06e7 5D       		.byte	0x5d
 2044 06e8 36030000 		.4byte	0x336
 2045 06ec 08       		.byte	0x8
 2046 06ed 07       		.uleb128 0x7
 2047 06ee 01010000 		.4byte	.LASF112
 2048 06f2 0D       		.byte	0xd
 2049 06f3 61       		.byte	0x61
 2050 06f4 45000000 		.4byte	0x45
 2051 06f8 0C       		.byte	0xc
 2052 06f9 00       		.byte	0
 2053 06fa 03       		.uleb128 0x3
 2054 06fb B0040000 		.4byte	.LASF113
 2055 06ff 0D       		.byte	0xd
 2056 0700 62       		.byte	0x62
 2057 0701 C1060000 		.4byte	0x6c1
 2058 0705 16       		.uleb128 0x16
 2059 0706 0804     		.2byte	0x408
 2060 0708 0D       		.byte	0xd
ARM GAS  C:\Users\Luis\AppData\Local\Temp\ccIW1H7e.s 			page 38


 2061 0709 67       		.byte	0x67
 2062 070a 33070000 		.4byte	0x733
 2063 070e 07       		.uleb128 0x7
 2064 070f 2E040000 		.4byte	.LASF114
 2065 0713 0D       		.byte	0xd
 2066 0714 6B       		.byte	0x6b
 2067 0715 37000000 		.4byte	0x37
 2068 0719 00       		.byte	0
 2069 071a 07       		.uleb128 0x7
 2070 071b A9040000 		.4byte	.LASF115
 2071 071f 0D       		.byte	0xd
 2072 0720 6F       		.byte	0x6f
 2073 0721 33070000 		.4byte	0x733
 2074 0725 04       		.byte	0x4
 2075 0726 07       		.uleb128 0x7
 2076 0727 86050000 		.4byte	.LASF116
 2077 072b 0D       		.byte	0xd
 2078 072c 73       		.byte	0x73
 2079 072d 39070000 		.4byte	0x739
 2080 0731 08       		.byte	0x8
 2081 0732 00       		.byte	0
 2082 0733 0A       		.uleb128 0xa
 2083 0734 04       		.byte	0x4
 2084 0735 FA060000 		.4byte	0x6fa
 2085 0739 17       		.uleb128 0x17
 2086 073a FA060000 		.4byte	0x6fa
 2087 073e 49070000 		.4byte	0x749
 2088 0742 18       		.uleb128 0x18
 2089 0743 A5040000 		.4byte	0x4a5
 2090 0747 3F       		.byte	0x3f
 2091 0748 00       		.byte	0
 2092 0749 03       		.uleb128 0x3
 2093 074a EF000000 		.4byte	.LASF117
 2094 074e 0D       		.byte	0xd
 2095 074f 74       		.byte	0x74
 2096 0750 05070000 		.4byte	0x705
 2097 0754 12       		.uleb128 0x12
 2098 0755 04       		.byte	0x4
 2099 0756 0E       		.byte	0xe
 2100 0757 38       		.byte	0x38
 2101 0758 69070000 		.4byte	0x769
 2102 075c 07       		.uleb128 0x7
 2103 075d 16080000 		.4byte	.LASF118
 2104 0761 0E       		.byte	0xe
 2105 0762 3C       		.byte	0x3c
 2106 0763 B7000000 		.4byte	0xb7
 2107 0767 00       		.byte	0
 2108 0768 00       		.byte	0
 2109 0769 03       		.uleb128 0x3
 2110 076a 36040000 		.4byte	.LASF119
 2111 076e 0E       		.byte	0xe
 2112 076f 3D       		.byte	0x3d
 2113 0770 54070000 		.4byte	0x754
 2114 0774 12       		.uleb128 0x12
 2115 0775 18       		.byte	0x18
 2116 0776 0E       		.byte	0xe
 2117 0777 48       		.byte	0x48
ARM GAS  C:\Users\Luis\AppData\Local\Temp\ccIW1H7e.s 			page 39


 2118 0778 B7070000 		.4byte	0x7b7
 2119 077c 07       		.uleb128 0x7
 2120 077d 5D030000 		.4byte	.LASF120
 2121 0781 0E       		.byte	0xe
 2122 0782 49       		.byte	0x49
 2123 0783 B7000000 		.4byte	0xb7
 2124 0787 00       		.byte	0
 2125 0788 07       		.uleb128 0x7
 2126 0789 A9000000 		.4byte	.LASF121
 2127 078d 0E       		.byte	0xe
 2128 078e 4A       		.byte	0x4a
 2129 078f B7000000 		.4byte	0xb7
 2130 0793 04       		.byte	0x4
 2131 0794 07       		.uleb128 0x7
 2132 0795 B1030000 		.4byte	.LASF122
 2133 0799 0E       		.byte	0xe
 2134 079a 4B       		.byte	0x4b
 2135 079b B7000000 		.4byte	0xb7
 2136 079f 08       		.byte	0x8
 2137 07a0 13       		.uleb128 0x13
 2138 07a1 6E00     		.ascii	"n\000"
 2139 07a3 0E       		.byte	0xe
 2140 07a4 4C       		.byte	0x4c
 2141 07a5 1A010000 		.4byte	0x11a
 2142 07a9 0C       		.byte	0xc
 2143 07aa 07       		.uleb128 0x7
 2144 07ab 5F050000 		.4byte	.LASF123
 2145 07af 0E       		.byte	0xe
 2146 07b0 4D       		.byte	0x4d
 2147 07b1 C2000000 		.4byte	0xc2
 2148 07b5 10       		.byte	0x10
 2149 07b6 00       		.byte	0
 2150 07b7 03       		.uleb128 0x3
 2151 07b8 BA000000 		.4byte	.LASF124
 2152 07bc 0E       		.byte	0xe
 2153 07bd 4E       		.byte	0x4e
 2154 07be 74070000 		.4byte	0x774
 2155 07c2 12       		.uleb128 0x12
 2156 07c3 38       		.byte	0x38
 2157 07c4 0F       		.byte	0xf
 2158 07c5 38       		.byte	0x38
 2159 07c6 FB070000 		.4byte	0x7fb
 2160 07ca 07       		.uleb128 0x7
 2161 07cb E5070000 		.4byte	.LASF125
 2162 07cf 0F       		.byte	0xf
 2163 07d0 39       		.byte	0x39
 2164 07d1 1A010000 		.4byte	0x11a
 2165 07d5 00       		.byte	0
 2166 07d6 07       		.uleb128 0x7
 2167 07d7 C8050000 		.4byte	.LASF126
 2168 07db 0F       		.byte	0xf
 2169 07dc 3A       		.byte	0x3a
 2170 07dd 1A010000 		.4byte	0x11a
 2171 07e1 04       		.byte	0x4
 2172 07e2 07       		.uleb128 0x7
 2173 07e3 80090000 		.4byte	.LASF127
 2174 07e7 0F       		.byte	0xf
ARM GAS  C:\Users\Luis\AppData\Local\Temp\ccIW1H7e.s 			page 40


 2175 07e8 3B       		.byte	0x3b
 2176 07e9 B7070000 		.4byte	0x7b7
 2177 07ed 08       		.byte	0x8
 2178 07ee 07       		.uleb128 0x7
 2179 07ef E8030000 		.4byte	.LASF128
 2180 07f3 0F       		.byte	0xf
 2181 07f4 3D       		.byte	0x3d
 2182 07f5 B7070000 		.4byte	0x7b7
 2183 07f9 20       		.byte	0x20
 2184 07fa 00       		.byte	0
 2185 07fb 03       		.uleb128 0x3
 2186 07fc 75030000 		.4byte	.LASF129
 2187 0800 0F       		.byte	0xf
 2188 0801 3F       		.byte	0x3f
 2189 0802 C2070000 		.4byte	0x7c2
 2190 0806 19       		.uleb128 0x19
 2191 0807 04       		.byte	0x4
 2192 0808 0A       		.byte	0xa
 2193 0809 FA       		.byte	0xfa
 2194 080a 63080000 		.4byte	0x863
 2195 080e 1A       		.uleb128 0x1a
 2196 080f 40000000 		.4byte	.LASF130
 2197 0813 0A       		.byte	0xa
 2198 0814 0101     		.2byte	0x101
 2199 0816 F9000000 		.4byte	0xf9
 2200 081a 1A       		.uleb128 0x1a
 2201 081b 12010000 		.4byte	.LASF131
 2202 081f 0A       		.byte	0xa
 2203 0820 0801     		.2byte	0x108
 2204 0822 F9000000 		.4byte	0xf9
 2205 0826 1A       		.uleb128 0x1a
 2206 0827 F8080000 		.4byte	.LASF132
 2207 082b 0A       		.byte	0xa
 2208 082c 0F01     		.2byte	0x10f
 2209 082e 36030000 		.4byte	0x336
 2210 0832 1A       		.uleb128 0x1a
 2211 0833 A3040000 		.4byte	.LASF133
 2212 0837 0A       		.byte	0xa
 2213 0838 1601     		.2byte	0x116
 2214 083a 63080000 		.4byte	0x863
 2215 083e 1A       		.uleb128 0x1a
 2216 083f 2D030000 		.4byte	.LASF134
 2217 0843 0A       		.byte	0xa
 2218 0844 1E01     		.2byte	0x11e
 2219 0846 8E080000 		.4byte	0x88e
 2220 084a 1A       		.uleb128 0x1a
 2221 084b 8A060000 		.4byte	.LASF135
 2222 084f 0A       		.byte	0xa
 2223 0850 2701     		.2byte	0x127
 2224 0852 C5080000 		.4byte	0x8c5
 2225 0856 1A       		.uleb128 0x1a
 2226 0857 19060000 		.4byte	.LASF136
 2227 085b 0A       		.byte	0xa
 2228 085c 2F01     		.2byte	0x12f
 2229 085e 04010000 		.4byte	0x104
 2230 0862 00       		.byte	0
 2231 0863 0A       		.uleb128 0xa
ARM GAS  C:\Users\Luis\AppData\Local\Temp\ccIW1H7e.s 			page 41


 2232 0864 04       		.byte	0x4
 2233 0865 4E020000 		.4byte	0x24e
 2234 0869 06       		.uleb128 0x6
 2235 086a 64060000 		.4byte	.LASF137
 2236 086e 0C       		.byte	0xc
 2237 086f 10       		.byte	0x10
 2238 0870 34       		.byte	0x34
 2239 0871 8E080000 		.4byte	0x88e
 2240 0875 07       		.uleb128 0x7
 2241 0876 0A010000 		.4byte	.LASF138
 2242 087a 10       		.byte	0x10
 2243 087b 35       		.byte	0x35
 2244 087c 83020000 		.4byte	0x283
 2245 0880 00       		.byte	0
 2246 0881 07       		.uleb128 0x7
 2247 0882 57030000 		.4byte	.LASF139
 2248 0886 10       		.byte	0x10
 2249 0887 37       		.byte	0x37
 2250 0888 0F010000 		.4byte	0x10f
 2251 088c 08       		.byte	0x8
 2252 088d 00       		.byte	0
 2253 088e 0A       		.uleb128 0xa
 2254 088f 04       		.byte	0x4
 2255 0890 69080000 		.4byte	0x869
 2256 0894 06       		.uleb128 0x6
 2257 0895 89080000 		.4byte	.LASF140
 2258 0899 10       		.byte	0x10
 2259 089a 11       		.byte	0x11
 2260 089b 39       		.byte	0x39
 2261 089c C5080000 		.4byte	0x8c5
 2262 08a0 07       		.uleb128 0x7
 2263 08a1 A3010000 		.4byte	.LASF141
 2264 08a5 11       		.byte	0x11
 2265 08a6 3A       		.byte	0x3a
 2266 08a7 83020000 		.4byte	0x283
 2267 08ab 00       		.byte	0
 2268 08ac 07       		.uleb128 0x7
 2269 08ad 8B090000 		.4byte	.LASF142
 2270 08b1 11       		.byte	0x11
 2271 08b2 3C       		.byte	0x3c
 2272 08b3 59020000 		.4byte	0x259
 2273 08b7 08       		.byte	0x8
 2274 08b8 07       		.uleb128 0x7
 2275 08b9 FC040000 		.4byte	.LASF143
 2276 08bd 11       		.byte	0x11
 2277 08be 3E       		.byte	0x3e
 2278 08bf 09090000 		.4byte	0x909
 2279 08c3 0C       		.byte	0xc
 2280 08c4 00       		.byte	0
 2281 08c5 0A       		.uleb128 0xa
 2282 08c6 04       		.byte	0x4
 2283 08c7 94080000 		.4byte	0x894
 2284 08cb 0A       		.uleb128 0xa
 2285 08cc 04       		.byte	0x4
 2286 08cd D1080000 		.4byte	0x8d1
 2287 08d1 1B       		.uleb128 0x1b
 2288 08d2 D6080000 		.4byte	0x8d6
ARM GAS  C:\Users\Luis\AppData\Local\Temp\ccIW1H7e.s 			page 42


 2289 08d6 04       		.uleb128 0x4
 2290 08d7 01       		.byte	0x1
 2291 08d8 08       		.byte	0x8
 2292 08d9 CA060000 		.4byte	.LASF144
 2293 08dd 0A       		.uleb128 0xa
 2294 08de 04       		.byte	0x4
 2295 08df 1C060000 		.4byte	0x61c
 2296 08e3 0A       		.uleb128 0xa
 2297 08e4 04       		.byte	0x4
 2298 08e5 38030000 		.4byte	0x338
 2299 08e9 05       		.uleb128 0x5
 2300 08ea CB080000 		.4byte	0x8cb
 2301 08ee 17       		.uleb128 0x17
 2302 08ef 1C060000 		.4byte	0x61c
 2303 08f3 FE080000 		.4byte	0x8fe
 2304 08f7 18       		.uleb128 0x18
 2305 08f8 A5040000 		.4byte	0x4a5
 2306 08fc 1F       		.byte	0x1f
 2307 08fd 00       		.byte	0
 2308 08fe 03       		.uleb128 0x3
 2309 08ff 79010000 		.4byte	.LASF145
 2310 0903 11       		.byte	0x11
 2311 0904 34       		.byte	0x34
 2312 0905 94080000 		.4byte	0x894
 2313 0909 0A       		.uleb128 0xa
 2314 090a 04       		.byte	0x4
 2315 090b FE080000 		.4byte	0x8fe
 2316 090f 12       		.uleb128 0x12
 2317 0910 0C       		.byte	0xc
 2318 0911 12       		.byte	0x12
 2319 0912 DA       		.byte	0xda
 2320 0913 54090000 		.4byte	0x954
 2321 0917 07       		.uleb128 0x7
 2322 0918 98000000 		.4byte	.LASF146
 2323 091c 12       		.byte	0x12
 2324 091d DB       		.byte	0xdb
 2325 091e 54090000 		.4byte	0x954
 2326 0922 00       		.byte	0
 2327 0923 07       		.uleb128 0x7
 2328 0924 7C060000 		.4byte	.LASF147
 2329 0928 12       		.byte	0x12
 2330 0929 DC       		.byte	0xdc
 2331 092a 5A090000 		.4byte	0x95a
 2332 092e 04       		.byte	0x4
 2333 092f 07       		.uleb128 0x7
 2334 0930 50030000 		.4byte	.LASF148
 2335 0934 12       		.byte	0x12
 2336 0935 DD       		.byte	0xdd
 2337 0936 45000000 		.4byte	0x45
 2338 093a 08       		.byte	0x8
 2339 093b 07       		.uleb128 0x7
 2340 093c BD030000 		.4byte	.LASF149
 2341 0940 12       		.byte	0x12
 2342 0941 DF       		.byte	0xdf
 2343 0942 45000000 		.4byte	0x45
 2344 0946 09       		.byte	0x9
 2345 0947 07       		.uleb128 0x7
ARM GAS  C:\Users\Luis\AppData\Local\Temp\ccIW1H7e.s 			page 43


 2346 0948 1B010000 		.4byte	.LASF150
 2347 094c 12       		.byte	0x12
 2348 094d E0       		.byte	0xe0
 2349 094e 45000000 		.4byte	0x45
 2350 0952 0A       		.byte	0xa
 2351 0953 00       		.byte	0
 2352 0954 0A       		.uleb128 0xa
 2353 0955 04       		.byte	0x4
 2354 0956 05060000 		.4byte	0x605
 2355 095a 0A       		.uleb128 0xa
 2356 095b 04       		.byte	0x4
 2357 095c B2000000 		.4byte	0xb2
 2358 0960 03       		.uleb128 0x3
 2359 0961 A7050000 		.4byte	.LASF151
 2360 0965 12       		.byte	0x12
 2361 0966 E1       		.byte	0xe1
 2362 0967 0F090000 		.4byte	0x90f
 2363 096b 04       		.uleb128 0x4
 2364 096c 01       		.byte	0x1
 2365 096d 02       		.byte	0x2
 2366 096e D1050000 		.4byte	.LASF152
 2367 0972 1C       		.uleb128 0x1c
 2368 0973 01       		.byte	0x1
 2369 0974 13       		.byte	0x13
 2370 0975 46       		.byte	0x46
 2371 0976 9F090000 		.4byte	0x99f
 2372 097a 1D       		.uleb128 0x1d
 2373 097b AB010000 		.4byte	.LASF153
 2374 097f 00       		.sleb128 0
 2375 0980 1D       		.uleb128 0x1d
 2376 0981 BF040000 		.4byte	.LASF154
 2377 0985 01       		.sleb128 1
 2378 0986 1D       		.uleb128 0x1d
 2379 0987 8E030000 		.4byte	.LASF155
 2380 098b 02       		.sleb128 2
 2381 098c 1D       		.uleb128 0x1d
 2382 098d AF000000 		.4byte	.LASF156
 2383 0991 03       		.sleb128 3
 2384 0992 1D       		.uleb128 0x1d
 2385 0993 FF080000 		.4byte	.LASF157
 2386 0997 04       		.sleb128 4
 2387 0998 1D       		.uleb128 0x1d
 2388 0999 D0010000 		.4byte	.LASF158
 2389 099d 05       		.sleb128 5
 2390 099e 00       		.byte	0
 2391 099f 03       		.uleb128 0x3
 2392 09a0 47000000 		.4byte	.LASF159
 2393 09a4 13       		.byte	0x13
 2394 09a5 4D       		.byte	0x4d
 2395 09a6 72090000 		.4byte	0x972
 2396 09aa 15       		.uleb128 0x15
 2397 09ab 89020000 		.4byte	.LASF160
 2398 09af 14       		.byte	0x14
 2399 09b0 2701     		.2byte	0x127
 2400 09b2 5E000000 		.4byte	0x5e
 2401 09b6 15       		.uleb128 0x15
 2402 09b7 13090000 		.4byte	.LASF161
ARM GAS  C:\Users\Luis\AppData\Local\Temp\ccIW1H7e.s 			page 44


 2403 09bb 14       		.byte	0x14
 2404 09bc 2C01     		.2byte	0x12c
 2405 09be 5E000000 		.4byte	0x5e
 2406 09c2 1E       		.uleb128 0x1e
 2407 09c3 01       		.byte	0x1
 2408 09c4 14       		.byte	0x14
 2409 09c5 3301     		.2byte	0x133
 2410 09c7 D8090000 		.4byte	0x9d8
 2411 09cb 1D       		.uleb128 0x1d
 2412 09cc F2010000 		.4byte	.LASF162
 2413 09d0 00       		.sleb128 0
 2414 09d1 1D       		.uleb128 0x1d
 2415 09d2 CA020000 		.4byte	.LASF163
 2416 09d6 01       		.sleb128 1
 2417 09d7 00       		.byte	0
 2418 09d8 15       		.uleb128 0x15
 2419 09d9 CD000000 		.4byte	.LASF164
 2420 09dd 14       		.byte	0x14
 2421 09de 3601     		.2byte	0x136
 2422 09e0 C2090000 		.4byte	0x9c2
 2423 09e4 15       		.uleb128 0x15
 2424 09e5 3F030000 		.4byte	.LASF165
 2425 09e9 14       		.byte	0x14
 2426 09ea 3B01     		.2byte	0x13b
 2427 09ec F0090000 		.4byte	0x9f0
 2428 09f0 0B       		.uleb128 0xb
 2429 09f1 3F030000 		.4byte	.LASF165
 2430 09f5 34       		.byte	0x34
 2431 09f6 14       		.byte	0x14
 2432 09f7 9F01     		.2byte	0x19f
 2433 09f9 800A0000 		.4byte	0xa80
 2434 09fd 09       		.uleb128 0x9
 2435 09fe DA010000 		.4byte	.LASF166
 2436 0a02 14       		.byte	0x14
 2437 0a03 A301     		.2byte	0x1a3
 2438 0a05 9F090000 		.4byte	0x99f
 2439 0a09 00       		.byte	0
 2440 0a0a 09       		.uleb128 0x9
 2441 0a0b CF060000 		.4byte	.LASF167
 2442 0a0f 14       		.byte	0x14
 2443 0a10 A701     		.2byte	0x1a7
 2444 0a12 9D0B0000 		.4byte	0xb9d
 2445 0a16 04       		.byte	0x4
 2446 0a17 09       		.uleb128 0x9
 2447 0a18 5E040000 		.4byte	.LASF168
 2448 0a1c 14       		.byte	0x14
 2449 0a1d AB01     		.2byte	0x1ab
 2450 0a1f AD0A0000 		.4byte	0xaad
 2451 0a23 08       		.byte	0x8
 2452 0a24 09       		.uleb128 0x9
 2453 0a25 C4060000 		.4byte	.LASF169
 2454 0a29 14       		.byte	0x14
 2455 0a2a AF01     		.2byte	0x1af
 2456 0a2c 2C000000 		.4byte	0x2c
 2457 0a30 0C       		.byte	0xc
 2458 0a31 09       		.uleb128 0x9
 2459 0a32 47040000 		.4byte	.LASF170
ARM GAS  C:\Users\Luis\AppData\Local\Temp\ccIW1H7e.s 			page 45


 2460 0a36 14       		.byte	0x14
 2461 0a37 B301     		.2byte	0x1b3
 2462 0a39 A80B0000 		.4byte	0xba8
 2463 0a3d 10       		.byte	0x10
 2464 0a3e 09       		.uleb128 0x9
 2465 0a3f 40020000 		.4byte	.LASF171
 2466 0a43 14       		.byte	0x14
 2467 0a44 B801     		.2byte	0x1b8
 2468 0a46 4E020000 		.4byte	0x24e
 2469 0a4a 14       		.byte	0x14
 2470 0a4b 09       		.uleb128 0x9
 2471 0a4c C2050000 		.4byte	.LASF172
 2472 0a50 14       		.byte	0x14
 2473 0a51 BE01     		.2byte	0x1be
 2474 0a53 FE080000 		.4byte	0x8fe
 2475 0a57 18       		.byte	0x18
 2476 0a58 08       		.uleb128 0x8
 2477 0a59 61646300 		.ascii	"adc\000"
 2478 0a5d 14       		.byte	0x14
 2479 0a5e C701     		.2byte	0x1c7
 2480 0a60 B30B0000 		.4byte	0xbb3
 2481 0a64 28       		.byte	0x28
 2482 0a65 09       		.uleb128 0x9
 2483 0a66 C9010000 		.4byte	.LASF173
 2484 0a6a 14       		.byte	0x14
 2485 0a6b CB01     		.2byte	0x1cb
 2486 0a6d B90B0000 		.4byte	0xbb9
 2487 0a71 2C       		.byte	0x2c
 2488 0a72 09       		.uleb128 0x9
 2489 0a73 F0080000 		.4byte	.LASF174
 2490 0a77 14       		.byte	0x14
 2491 0a78 CF01     		.2byte	0x1cf
 2492 0a7a 82000000 		.4byte	0x82
 2493 0a7e 30       		.byte	0x30
 2494 0a7f 00       		.byte	0
 2495 0a80 15       		.uleb128 0x15
 2496 0a81 7B020000 		.4byte	.LASF175
 2497 0a85 14       		.byte	0x14
 2498 0a86 4501     		.2byte	0x145
 2499 0a88 8C0A0000 		.4byte	0xa8c
 2500 0a8c 0A       		.uleb128 0xa
 2501 0a8d 04       		.byte	0x4
 2502 0a8e 920A0000 		.4byte	0xa92
 2503 0a92 0C       		.uleb128 0xc
 2504 0a93 A70A0000 		.4byte	0xaa7
 2505 0a97 0D       		.uleb128 0xd
 2506 0a98 A70A0000 		.4byte	0xaa7
 2507 0a9c 0D       		.uleb128 0xd
 2508 0a9d AD0A0000 		.4byte	0xaad
 2509 0aa1 0D       		.uleb128 0xd
 2510 0aa2 2C000000 		.4byte	0x2c
 2511 0aa6 00       		.byte	0
 2512 0aa7 0A       		.uleb128 0xa
 2513 0aa8 04       		.byte	0x4
 2514 0aa9 E4090000 		.4byte	0x9e4
 2515 0aad 0A       		.uleb128 0xa
 2516 0aae 04       		.byte	0x4
ARM GAS  C:\Users\Luis\AppData\Local\Temp\ccIW1H7e.s 			page 46


 2517 0aaf AA090000 		.4byte	0x9aa
 2518 0ab3 15       		.uleb128 0x15
 2519 0ab4 24020000 		.4byte	.LASF176
 2520 0ab8 14       		.byte	0x14
 2521 0ab9 4E01     		.2byte	0x14e
 2522 0abb BF0A0000 		.4byte	0xabf
 2523 0abf 0A       		.uleb128 0xa
 2524 0ac0 04       		.byte	0x4
 2525 0ac1 C50A0000 		.4byte	0xac5
 2526 0ac5 0C       		.uleb128 0xc
 2527 0ac6 D50A0000 		.4byte	0xad5
 2528 0aca 0D       		.uleb128 0xd
 2529 0acb A70A0000 		.4byte	0xaa7
 2530 0acf 0D       		.uleb128 0xd
 2531 0ad0 D8090000 		.4byte	0x9d8
 2532 0ad4 00       		.byte	0
 2533 0ad5 14       		.uleb128 0x14
 2534 0ad6 28       		.byte	0x28
 2535 0ad7 14       		.byte	0x14
 2536 0ad8 5801     		.2byte	0x158
 2537 0ada 6E0B0000 		.4byte	0xb6e
 2538 0ade 09       		.uleb128 0x9
 2539 0adf E0010000 		.4byte	.LASF177
 2540 0ae3 14       		.byte	0x14
 2541 0ae4 5C01     		.2byte	0x15c
 2542 0ae6 6B090000 		.4byte	0x96b
 2543 0aea 00       		.byte	0
 2544 0aeb 09       		.uleb128 0x9
 2545 0aec DB030000 		.4byte	.LASF178
 2546 0af0 14       		.byte	0x14
 2547 0af1 6001     		.2byte	0x160
 2548 0af3 B6090000 		.4byte	0x9b6
 2549 0af7 02       		.byte	0x2
 2550 0af8 09       		.uleb128 0x9
 2551 0af9 74020000 		.4byte	.LASF179
 2552 0afd 14       		.byte	0x14
 2553 0afe 6401     		.2byte	0x164
 2554 0b00 800A0000 		.4byte	0xa80
 2555 0b04 04       		.byte	0x4
 2556 0b05 09       		.uleb128 0x9
 2557 0b06 09060000 		.4byte	.LASF180
 2558 0b0a 14       		.byte	0x14
 2559 0b0b 6801     		.2byte	0x168
 2560 0b0d B30A0000 		.4byte	0xab3
 2561 0b11 08       		.byte	0x8
 2562 0b12 08       		.uleb128 0x8
 2563 0b13 63723100 		.ascii	"cr1\000"
 2564 0b17 14       		.byte	0x14
 2565 0b18 6F01     		.2byte	0x16f
 2566 0b1a 82000000 		.4byte	0x82
 2567 0b1e 0C       		.byte	0xc
 2568 0b1f 08       		.uleb128 0x8
 2569 0b20 63723200 		.ascii	"cr2\000"
 2570 0b24 14       		.byte	0x14
 2571 0b25 7601     		.2byte	0x176
 2572 0b27 82000000 		.4byte	0x82
 2573 0b2b 10       		.byte	0x10
ARM GAS  C:\Users\Luis\AppData\Local\Temp\ccIW1H7e.s 			page 47


 2574 0b2c 09       		.uleb128 0x9
 2575 0b2d A1080000 		.4byte	.LASF181
 2576 0b31 14       		.byte	0x14
 2577 0b32 7C01     		.2byte	0x17c
 2578 0b34 82000000 		.4byte	0x82
 2579 0b38 14       		.byte	0x14
 2580 0b39 09       		.uleb128 0x9
 2581 0b3a A7080000 		.4byte	.LASF182
 2582 0b3e 14       		.byte	0x14
 2583 0b3f 8201     		.2byte	0x182
 2584 0b41 82000000 		.4byte	0x82
 2585 0b45 18       		.byte	0x18
 2586 0b46 09       		.uleb128 0x9
 2587 0b47 B8070000 		.4byte	.LASF183
 2588 0b4b 14       		.byte	0x14
 2589 0b4c 8701     		.2byte	0x187
 2590 0b4e 82000000 		.4byte	0x82
 2591 0b52 1C       		.byte	0x1c
 2592 0b53 09       		.uleb128 0x9
 2593 0b54 BD070000 		.4byte	.LASF184
 2594 0b58 14       		.byte	0x14
 2595 0b59 8C01     		.2byte	0x18c
 2596 0b5b 82000000 		.4byte	0x82
 2597 0b5f 20       		.byte	0x20
 2598 0b60 09       		.uleb128 0x9
 2599 0b61 C2070000 		.4byte	.LASF185
 2600 0b65 14       		.byte	0x14
 2601 0b66 9101     		.2byte	0x191
 2602 0b68 82000000 		.4byte	0x82
 2603 0b6c 24       		.byte	0x24
 2604 0b6d 00       		.byte	0
 2605 0b6e 15       		.uleb128 0x15
 2606 0b6f CE080000 		.4byte	.LASF186
 2607 0b73 14       		.byte	0x14
 2608 0b74 9201     		.2byte	0x192
 2609 0b76 D50A0000 		.4byte	0xad5
 2610 0b7a 14       		.uleb128 0x14
 2611 0b7b 04       		.byte	0x4
 2612 0b7c 14       		.byte	0x14
 2613 0b7d 9801     		.2byte	0x198
 2614 0b7f 910B0000 		.4byte	0xb91
 2615 0b83 09       		.uleb128 0x9
 2616 0b84 B8020000 		.4byte	.LASF187
 2617 0b88 14       		.byte	0x14
 2618 0b89 9901     		.2byte	0x199
 2619 0b8b 82000000 		.4byte	0x82
 2620 0b8f 00       		.byte	0
 2621 0b90 00       		.byte	0
 2622 0b91 15       		.uleb128 0x15
 2623 0b92 9D020000 		.4byte	.LASF188
 2624 0b96 14       		.byte	0x14
 2625 0b97 9A01     		.2byte	0x19a
 2626 0b99 7A0B0000 		.4byte	0xb7a
 2627 0b9d 0A       		.uleb128 0xa
 2628 0b9e 04       		.byte	0x4
 2629 0b9f A30B0000 		.4byte	0xba3
 2630 0ba3 1B       		.uleb128 0x1b
ARM GAS  C:\Users\Luis\AppData\Local\Temp\ccIW1H7e.s 			page 48


 2631 0ba4 910B0000 		.4byte	0xb91
 2632 0ba8 0A       		.uleb128 0xa
 2633 0ba9 04       		.byte	0x4
 2634 0baa AE0B0000 		.4byte	0xbae
 2635 0bae 1B       		.uleb128 0x1b
 2636 0baf 6E0B0000 		.4byte	0xb6e
 2637 0bb3 0A       		.uleb128 0xa
 2638 0bb4 04       		.byte	0x4
 2639 0bb5 A3050000 		.4byte	0x5a3
 2640 0bb9 0A       		.uleb128 0xa
 2641 0bba 04       		.byte	0x4
 2642 0bbb BF0B0000 		.4byte	0xbbf
 2643 0bbf 1B       		.uleb128 0x1b
 2644 0bc0 60090000 		.4byte	0x960
 2645 0bc4 1F       		.uleb128 0x1f
 2646 0bc5 EB070000 		.4byte	.LASF215
 2647 0bc9 02       		.byte	0x2
 2648 0bca 2002     		.2byte	0x220
 2649 0bcc 03       		.byte	0x3
 2650 0bcd DE0B0000 		.4byte	0xbde
 2651 0bd1 20       		.uleb128 0x20
 2652 0bd2 DB020000 		.4byte	.LASF216
 2653 0bd6 02       		.byte	0x2
 2654 0bd7 2002     		.2byte	0x220
 2655 0bd9 82000000 		.4byte	0x82
 2656 0bdd 00       		.byte	0
 2657 0bde 21       		.uleb128 0x21
 2658 0bdf 9F000000 		.4byte	.LASF189
 2659 0be3 01       		.byte	0x1
 2660 0be4 BC01     		.2byte	0x1bc
 2661 0be6 00000000 		.4byte	.LFB116
 2662 0bea 1A000000 		.4byte	.LFE116-.LFB116
 2663 0bee 01       		.uleb128 0x1
 2664 0bef 9C       		.byte	0x9c
 2665 0bf0 0E0C0000 		.4byte	0xc0e
 2666 0bf4 22       		.uleb128 0x22
 2667 0bf5 C40B0000 		.4byte	0xbc4
 2668 0bf9 0A000000 		.4byte	.LBB6
 2669 0bfd 06000000 		.4byte	.LBE6-.LBB6
 2670 0c01 01       		.byte	0x1
 2671 0c02 BF01     		.2byte	0x1bf
 2672 0c04 23       		.uleb128 0x23
 2673 0c05 D10B0000 		.4byte	0xbd1
 2674 0c09 02       		.uleb128 0x2
 2675 0c0a 91       		.byte	0x91
 2676 0c0b 74       		.sleb128 -12
 2677 0c0c 00       		.byte	0
 2678 0c0d 00       		.byte	0
 2679 0c0e 21       		.uleb128 0x21
 2680 0c0f BD010000 		.4byte	.LASF190
 2681 0c13 01       		.byte	0x1
 2682 0c14 CA01     		.2byte	0x1ca
 2683 0c16 00000000 		.4byte	.LFB117
 2684 0c1a 1A000000 		.4byte	.LFE117-.LFB117
 2685 0c1e 01       		.uleb128 0x1
 2686 0c1f 9C       		.byte	0x9c
 2687 0c20 3E0C0000 		.4byte	0xc3e
ARM GAS  C:\Users\Luis\AppData\Local\Temp\ccIW1H7e.s 			page 49


 2688 0c24 22       		.uleb128 0x22
 2689 0c25 C40B0000 		.4byte	0xbc4
 2690 0c29 0A000000 		.4byte	.LBB8
 2691 0c2d 06000000 		.4byte	.LBE8-.LBB8
 2692 0c31 01       		.byte	0x1
 2693 0c32 CD01     		.2byte	0x1cd
 2694 0c34 23       		.uleb128 0x23
 2695 0c35 D10B0000 		.4byte	0xbd1
 2696 0c39 02       		.uleb128 0x2
 2697 0c3a 91       		.byte	0x91
 2698 0c3b 74       		.sleb128 -12
 2699 0c3c 00       		.byte	0
 2700 0c3d 00       		.byte	0
 2701 0c3e 24       		.uleb128 0x24
 2702 0c3f 40060000 		.4byte	.LASF192
 2703 0c43 03       		.byte	0x3
 2704 0c44 5A01     		.2byte	0x15a
 2705 0c46 00000000 		.4byte	.LFB156
 2706 0c4a 12000000 		.4byte	.LFE156-.LFB156
 2707 0c4e 01       		.uleb128 0x1
 2708 0c4f 9C       		.byte	0x9c
 2709 0c50 25       		.uleb128 0x25
 2710 0c51 42090000 		.4byte	.LASF191
 2711 0c55 03       		.byte	0x3
 2712 0c56 6601     		.2byte	0x166
 2713 0c58 00000000 		.4byte	.LFB157
 2714 0c5c 3C000000 		.4byte	.LFE157-.LFB157
 2715 0c60 01       		.uleb128 0x1
 2716 0c61 9C       		.byte	0x9c
 2717 0c62 760C0000 		.4byte	0xc76
 2718 0c66 26       		.uleb128 0x26
 2719 0c67 2F060000 		.4byte	.LASF203
 2720 0c6b 860C0000 		.4byte	0xc86
 2721 0c6f 05       		.uleb128 0x5
 2722 0c70 03       		.byte	0x3
 2723 0c71 00000000 		.4byte	__func__.5842
 2724 0c75 00       		.byte	0
 2725 0c76 17       		.uleb128 0x17
 2726 0c77 D6080000 		.4byte	0x8d6
 2727 0c7b 860C0000 		.4byte	0xc86
 2728 0c7f 18       		.uleb128 0x18
 2729 0c80 A5040000 		.4byte	0x4a5
 2730 0c84 0B       		.byte	0xb
 2731 0c85 00       		.byte	0
 2732 0c86 1B       		.uleb128 0x1b
 2733 0c87 760C0000 		.4byte	0xc76
 2734 0c8b 24       		.uleb128 0x24
 2735 0c8c BE020000 		.4byte	.LASF193
 2736 0c90 04       		.byte	0x4
 2737 0c91 EB01     		.2byte	0x1eb
 2738 0c93 00000000 		.4byte	.LFB233
 2739 0c97 0A000000 		.4byte	.LFE233-.LFB233
 2740 0c9b 01       		.uleb128 0x1
 2741 0c9c 9C       		.byte	0x9c
 2742 0c9d 24       		.uleb128 0x24
 2743 0c9e 50060000 		.4byte	.LASF194
 2744 0ca2 04       		.byte	0x4
ARM GAS  C:\Users\Luis\AppData\Local\Temp\ccIW1H7e.s 			page 50


 2745 0ca3 F601     		.2byte	0x1f6
 2746 0ca5 00000000 		.4byte	.LFB234
 2747 0ca9 0A000000 		.4byte	.LFE234-.LFB234
 2748 0cad 01       		.uleb128 0x1
 2749 0cae 9C       		.byte	0x9c
 2750 0caf 27       		.uleb128 0x27
 2751 0cb0 98030000 		.4byte	.LASF217
 2752 0cb4 04       		.byte	0x4
 2753 0cb5 AE02     		.2byte	0x2ae
 2754 0cb7 F9000000 		.4byte	0xf9
 2755 0cbb 00000000 		.4byte	.LFB246
 2756 0cbf 18000000 		.4byte	.LFE246-.LFB246
 2757 0cc3 01       		.uleb128 0x1
 2758 0cc4 9C       		.byte	0x9c
 2759 0cc5 D90C0000 		.4byte	0xcd9
 2760 0cc9 28       		.uleb128 0x28
 2761 0cca 74727000 		.ascii	"trp\000"
 2762 0cce 04       		.byte	0x4
 2763 0ccf AE02     		.2byte	0x2ae
 2764 0cd1 63080000 		.4byte	0x863
 2765 0cd5 02       		.uleb128 0x2
 2766 0cd6 91       		.byte	0x91
 2767 0cd7 74       		.sleb128 -12
 2768 0cd8 00       		.byte	0
 2769 0cd9 25       		.uleb128 0x25
 2770 0cda 00000000 		.4byte	.LASF195
 2771 0cde 04       		.byte	0x4
 2772 0cdf D602     		.2byte	0x2d6
 2773 0ce1 00000000 		.4byte	.LFB248
 2774 0ce5 18000000 		.4byte	.LFE248-.LFB248
 2775 0ce9 01       		.uleb128 0x1
 2776 0cea 9C       		.byte	0x9c
 2777 0ceb 0E0D0000 		.4byte	0xd0e
 2778 0cef 28       		.uleb128 0x28
 2779 0cf0 74727000 		.ascii	"trp\000"
 2780 0cf4 04       		.byte	0x4
 2781 0cf5 D602     		.2byte	0x2d6
 2782 0cf7 63080000 		.4byte	0x863
 2783 0cfb 02       		.uleb128 0x2
 2784 0cfc 91       		.byte	0x91
 2785 0cfd 74       		.sleb128 -12
 2786 0cfe 28       		.uleb128 0x28
 2787 0cff 6D736700 		.ascii	"msg\000"
 2788 0d03 04       		.byte	0x4
 2789 0d04 D602     		.2byte	0x2d6
 2790 0d06 F9000000 		.4byte	0xf9
 2791 0d0a 02       		.uleb128 0x2
 2792 0d0b 91       		.byte	0x91
 2793 0d0c 70       		.sleb128 -16
 2794 0d0d 00       		.byte	0
 2795 0d0e 25       		.uleb128 0x25
 2796 0d0f 27000000 		.4byte	.LASF196
 2797 0d13 04       		.byte	0x4
 2798 0d14 E502     		.2byte	0x2e5
 2799 0d16 00000000 		.4byte	.LFB249
 2800 0d1a 18000000 		.4byte	.LFE249-.LFB249
 2801 0d1e 01       		.uleb128 0x1
ARM GAS  C:\Users\Luis\AppData\Local\Temp\ccIW1H7e.s 			page 51


 2802 0d1f 9C       		.byte	0x9c
 2803 0d20 430D0000 		.4byte	0xd43
 2804 0d24 28       		.uleb128 0x28
 2805 0d25 74727000 		.ascii	"trp\000"
 2806 0d29 04       		.byte	0x4
 2807 0d2a E502     		.2byte	0x2e5
 2808 0d2c 63080000 		.4byte	0x863
 2809 0d30 02       		.uleb128 0x2
 2810 0d31 91       		.byte	0x91
 2811 0d32 74       		.sleb128 -12
 2812 0d33 28       		.uleb128 0x28
 2813 0d34 6D736700 		.ascii	"msg\000"
 2814 0d38 04       		.byte	0x4
 2815 0d39 E502     		.2byte	0x2e5
 2816 0d3b F9000000 		.4byte	0xf9
 2817 0d3f 02       		.uleb128 0x2
 2818 0d40 91       		.byte	0x91
 2819 0d41 70       		.sleb128 -16
 2820 0d42 00       		.byte	0
 2821 0d43 25       		.uleb128 0x25
 2822 0d44 65010000 		.4byte	.LASF197
 2823 0d48 04       		.byte	0x4
 2824 0d49 7403     		.2byte	0x374
 2825 0d4b 00000000 		.4byte	.LFB257
 2826 0d4f 14000000 		.4byte	.LFE257-.LFB257
 2827 0d53 01       		.uleb128 0x1
 2828 0d54 9C       		.byte	0x9c
 2829 0d55 680D0000 		.4byte	0xd68
 2830 0d59 28       		.uleb128 0x28
 2831 0d5a 6D7000   		.ascii	"mp\000"
 2832 0d5d 04       		.byte	0x4
 2833 0d5e 7403     		.2byte	0x374
 2834 0d60 09090000 		.4byte	0x909
 2835 0d64 02       		.uleb128 0x2
 2836 0d65 91       		.byte	0x91
 2837 0d66 74       		.sleb128 -12
 2838 0d67 00       		.byte	0
 2839 0d68 25       		.uleb128 0x25
 2840 0d69 F9070000 		.4byte	.LASF198
 2841 0d6d 04       		.byte	0x4
 2842 0d6e 8803     		.2byte	0x388
 2843 0d70 00000000 		.4byte	.LFB258
 2844 0d74 14000000 		.4byte	.LFE258-.LFB258
 2845 0d78 01       		.uleb128 0x1
 2846 0d79 9C       		.byte	0x9c
 2847 0d7a 8D0D0000 		.4byte	0xd8d
 2848 0d7e 28       		.uleb128 0x28
 2849 0d7f 6D7000   		.ascii	"mp\000"
 2850 0d82 04       		.byte	0x4
 2851 0d83 8803     		.2byte	0x388
 2852 0d85 09090000 		.4byte	0x909
 2853 0d89 02       		.uleb128 0x2
 2854 0d8a 91       		.byte	0x91
 2855 0d8b 74       		.sleb128 -12
 2856 0d8c 00       		.byte	0
 2857 0d8d 25       		.uleb128 0x25
 2858 0d8e D6060000 		.4byte	.LASF199
ARM GAS  C:\Users\Luis\AppData\Local\Temp\ccIW1H7e.s 			page 52


 2859 0d92 04       		.byte	0x4
 2860 0d93 A003     		.2byte	0x3a0
 2861 0d95 00000000 		.4byte	.LFB259
 2862 0d99 14000000 		.4byte	.LFE259-.LFB259
 2863 0d9d 01       		.uleb128 0x1
 2864 0d9e 9C       		.byte	0x9c
 2865 0d9f B20D0000 		.4byte	0xdb2
 2866 0da3 28       		.uleb128 0x28
 2867 0da4 6D7000   		.ascii	"mp\000"
 2868 0da7 04       		.byte	0x4
 2869 0da8 A003     		.2byte	0x3a0
 2870 0daa 09090000 		.4byte	0x909
 2871 0dae 02       		.uleb128 0x2
 2872 0daf 91       		.byte	0x91
 2873 0db0 74       		.sleb128 -12
 2874 0db1 00       		.byte	0
 2875 0db2 29       		.uleb128 0x29
 2876 0db3 0D040000 		.4byte	.LASF218
 2877 0db7 05       		.byte	0x5
 2878 0db8 38       		.byte	0x38
 2879 0db9 00000000 		.4byte	.LFB260
 2880 0dbd 0A000000 		.4byte	.LFE260-.LFB260
 2881 0dc1 01       		.uleb128 0x1
 2882 0dc2 9C       		.byte	0x9c
 2883 0dc3 2A       		.uleb128 0x2a
 2884 0dc4 1F030000 		.4byte	.LASF201
 2885 0dc8 05       		.byte	0x5
 2886 0dc9 44       		.byte	0x44
 2887 0dca 00000000 		.4byte	.LFB261
 2888 0dce 3C000000 		.4byte	.LFE261-.LFB261
 2889 0dd2 01       		.uleb128 0x1
 2890 0dd3 9C       		.byte	0x9c
 2891 0dd4 E70D0000 		.4byte	0xde7
 2892 0dd8 2B       		.uleb128 0x2b
 2893 0dd9 5E090000 		.4byte	.LASF200
 2894 0ddd 05       		.byte	0x5
 2895 0dde 44       		.byte	0x44
 2896 0ddf A70A0000 		.4byte	0xaa7
 2897 0de3 02       		.uleb128 0x2
 2898 0de4 91       		.byte	0x91
 2899 0de5 74       		.sleb128 -12
 2900 0de6 00       		.byte	0
 2901 0de7 2A       		.uleb128 0x2a
 2902 0de8 70080000 		.4byte	.LASF202
 2903 0dec 05       		.byte	0x5
 2904 0ded 5F       		.byte	0x5f
 2905 0dee 00000000 		.4byte	.LFB262
 2906 0df2 50000000 		.4byte	.LFE262-.LFB262
 2907 0df6 01       		.uleb128 0x1
 2908 0df7 9C       		.byte	0x9c
 2909 0df8 280E0000 		.4byte	0xe28
 2910 0dfc 2B       		.uleb128 0x2b
 2911 0dfd 5E090000 		.4byte	.LASF200
 2912 0e01 05       		.byte	0x5
 2913 0e02 5F       		.byte	0x5f
 2914 0e03 A70A0000 		.4byte	0xaa7
 2915 0e07 02       		.uleb128 0x2
ARM GAS  C:\Users\Luis\AppData\Local\Temp\ccIW1H7e.s 			page 53


 2916 0e08 91       		.byte	0x91
 2917 0e09 74       		.sleb128 -12
 2918 0e0a 2B       		.uleb128 0x2b
 2919 0e0b CF060000 		.4byte	.LASF167
 2920 0e0f 05       		.byte	0x5
 2921 0e10 5F       		.byte	0x5f
 2922 0e11 9D0B0000 		.4byte	0xb9d
 2923 0e15 02       		.uleb128 0x2
 2924 0e16 91       		.byte	0x91
 2925 0e17 70       		.sleb128 -16
 2926 0e18 26       		.uleb128 0x26
 2927 0e19 2F060000 		.4byte	.LASF203
 2928 0e1d 380E0000 		.4byte	0xe38
 2929 0e21 05       		.uleb128 0x5
 2930 0e22 03       		.byte	0x3
 2931 0e23 00000000 		.4byte	__func__.7913
 2932 0e27 00       		.byte	0
 2933 0e28 17       		.uleb128 0x17
 2934 0e29 D6080000 		.4byte	0x8d6
 2935 0e2d 380E0000 		.4byte	0xe38
 2936 0e31 18       		.uleb128 0x18
 2937 0e32 A5040000 		.4byte	0x4a5
 2938 0e36 08       		.byte	0x8
 2939 0e37 00       		.byte	0
 2940 0e38 1B       		.uleb128 0x1b
 2941 0e39 280E0000 		.4byte	0xe28
 2942 0e3d 2A       		.uleb128 0x2a
 2943 0e3e 64000000 		.4byte	.LASF204
 2944 0e42 05       		.byte	0x5
 2945 0e43 73       		.byte	0x73
 2946 0e44 00000000 		.4byte	.LFB263
 2947 0e48 48000000 		.4byte	.LFE263-.LFB263
 2948 0e4c 01       		.uleb128 0x1
 2949 0e4d 9C       		.byte	0x9c
 2950 0e4e 700E0000 		.4byte	0xe70
 2951 0e52 2B       		.uleb128 0x2b
 2952 0e53 5E090000 		.4byte	.LASF200
 2953 0e57 05       		.byte	0x5
 2954 0e58 73       		.byte	0x73
 2955 0e59 A70A0000 		.4byte	0xaa7
 2956 0e5d 02       		.uleb128 0x2
 2957 0e5e 91       		.byte	0x91
 2958 0e5f 74       		.sleb128 -12
 2959 0e60 26       		.uleb128 0x26
 2960 0e61 2F060000 		.4byte	.LASF203
 2961 0e65 800E0000 		.4byte	0xe80
 2962 0e69 05       		.uleb128 0x5
 2963 0e6a 03       		.byte	0x3
 2964 0e6b 00000000 		.4byte	__func__.7917
 2965 0e6f 00       		.byte	0
 2966 0e70 17       		.uleb128 0x17
 2967 0e71 D6080000 		.4byte	0x8d6
 2968 0e75 800E0000 		.4byte	0xe80
 2969 0e79 18       		.uleb128 0x18
 2970 0e7a A5040000 		.4byte	0x4a5
 2971 0e7e 07       		.byte	0x7
 2972 0e7f 00       		.byte	0
ARM GAS  C:\Users\Luis\AppData\Local\Temp\ccIW1H7e.s 			page 54


 2973 0e80 1B       		.uleb128 0x1b
 2974 0e81 700E0000 		.4byte	0xe70
 2975 0e85 2A       		.uleb128 0x2a
 2976 0e86 49080000 		.4byte	.LASF205
 2977 0e8a 05       		.byte	0x5
 2978 0e8b 8F       		.byte	0x8f
 2979 0e8c 00000000 		.4byte	.LFB264
 2980 0e90 28000000 		.4byte	.LFE264-.LFB264
 2981 0e94 01       		.uleb128 0x1
 2982 0e95 9C       		.byte	0x9c
 2983 0e96 D30E0000 		.4byte	0xed3
 2984 0e9a 2B       		.uleb128 0x2b
 2985 0e9b 5E090000 		.4byte	.LASF200
 2986 0e9f 05       		.byte	0x5
 2987 0ea0 8F       		.byte	0x8f
 2988 0ea1 A70A0000 		.4byte	0xaa7
 2989 0ea5 02       		.uleb128 0x2
 2990 0ea6 91       		.byte	0x91
 2991 0ea7 74       		.sleb128 -12
 2992 0ea8 2B       		.uleb128 0x2b
 2993 0ea9 47040000 		.4byte	.LASF170
 2994 0ead 05       		.byte	0x5
 2995 0eae 90       		.byte	0x90
 2996 0eaf A80B0000 		.4byte	0xba8
 2997 0eb3 02       		.uleb128 0x2
 2998 0eb4 91       		.byte	0x91
 2999 0eb5 70       		.sleb128 -16
 3000 0eb6 2B       		.uleb128 0x2b
 3001 0eb7 5E040000 		.4byte	.LASF168
 3002 0ebb 05       		.byte	0x5
 3003 0ebc 91       		.byte	0x91
 3004 0ebd AD0A0000 		.4byte	0xaad
 3005 0ec1 02       		.uleb128 0x2
 3006 0ec2 91       		.byte	0x91
 3007 0ec3 6C       		.sleb128 -20
 3008 0ec4 2B       		.uleb128 0x2b
 3009 0ec5 C4060000 		.4byte	.LASF169
 3010 0ec9 05       		.byte	0x5
 3011 0eca 92       		.byte	0x92
 3012 0ecb 2C000000 		.4byte	0x2c
 3013 0ecf 02       		.uleb128 0x2
 3014 0ed0 91       		.byte	0x91
 3015 0ed1 68       		.sleb128 -24
 3016 0ed2 00       		.byte	0
 3017 0ed3 2A       		.uleb128 0x2a
 3018 0ed4 6A050000 		.4byte	.LASF206
 3019 0ed8 05       		.byte	0x5
 3020 0ed9 AB       		.byte	0xab
 3021 0eda 00000000 		.4byte	.LFB265
 3022 0ede 80000000 		.4byte	.LFE265-.LFB265
 3023 0ee2 01       		.uleb128 0x1
 3024 0ee3 9C       		.byte	0x9c
 3025 0ee4 300F0000 		.4byte	0xf30
 3026 0ee8 2B       		.uleb128 0x2b
 3027 0ee9 5E090000 		.4byte	.LASF200
 3028 0eed 05       		.byte	0x5
 3029 0eee AB       		.byte	0xab
ARM GAS  C:\Users\Luis\AppData\Local\Temp\ccIW1H7e.s 			page 55


 3030 0eef A70A0000 		.4byte	0xaa7
 3031 0ef3 02       		.uleb128 0x2
 3032 0ef4 91       		.byte	0x91
 3033 0ef5 74       		.sleb128 -12
 3034 0ef6 2B       		.uleb128 0x2b
 3035 0ef7 47040000 		.4byte	.LASF170
 3036 0efb 05       		.byte	0x5
 3037 0efc AC       		.byte	0xac
 3038 0efd A80B0000 		.4byte	0xba8
 3039 0f01 02       		.uleb128 0x2
 3040 0f02 91       		.byte	0x91
 3041 0f03 70       		.sleb128 -16
 3042 0f04 2B       		.uleb128 0x2b
 3043 0f05 5E040000 		.4byte	.LASF168
 3044 0f09 05       		.byte	0x5
 3045 0f0a AD       		.byte	0xad
 3046 0f0b AD0A0000 		.4byte	0xaad
 3047 0f0f 02       		.uleb128 0x2
 3048 0f10 91       		.byte	0x91
 3049 0f11 6C       		.sleb128 -20
 3050 0f12 2B       		.uleb128 0x2b
 3051 0f13 C4060000 		.4byte	.LASF169
 3052 0f17 05       		.byte	0x5
 3053 0f18 AE       		.byte	0xae
 3054 0f19 2C000000 		.4byte	0x2c
 3055 0f1d 02       		.uleb128 0x2
 3056 0f1e 91       		.byte	0x91
 3057 0f1f 68       		.sleb128 -24
 3058 0f20 26       		.uleb128 0x26
 3059 0f21 2F060000 		.4byte	.LASF203
 3060 0f25 400F0000 		.4byte	0xf40
 3061 0f29 05       		.uleb128 0x5
 3062 0f2a 03       		.byte	0x3
 3063 0f2b 00000000 		.4byte	__func__.7930
 3064 0f2f 00       		.byte	0
 3065 0f30 17       		.uleb128 0x17
 3066 0f31 D6080000 		.4byte	0x8d6
 3067 0f35 400F0000 		.4byte	0xf40
 3068 0f39 18       		.uleb128 0x18
 3069 0f3a A5040000 		.4byte	0x4a5
 3070 0f3e 13       		.byte	0x13
 3071 0f3f 00       		.byte	0
 3072 0f40 1B       		.uleb128 0x1b
 3073 0f41 300F0000 		.4byte	0xf30
 3074 0f45 2A       		.uleb128 0x2a
 3075 0f46 6E090000 		.4byte	.LASF207
 3076 0f4a 05       		.byte	0x5
 3077 0f4b C9       		.byte	0xc9
 3078 0f4c 00000000 		.4byte	.LFB266
 3079 0f50 64000000 		.4byte	.LFE266-.LFB266
 3080 0f54 01       		.uleb128 0x1
 3081 0f55 9C       		.byte	0x9c
 3082 0f56 780F0000 		.4byte	0xf78
 3083 0f5a 2B       		.uleb128 0x2b
 3084 0f5b 5E090000 		.4byte	.LASF200
 3085 0f5f 05       		.byte	0x5
 3086 0f60 C9       		.byte	0xc9
ARM GAS  C:\Users\Luis\AppData\Local\Temp\ccIW1H7e.s 			page 56


 3087 0f61 A70A0000 		.4byte	0xaa7
 3088 0f65 02       		.uleb128 0x2
 3089 0f66 91       		.byte	0x91
 3090 0f67 74       		.sleb128 -12
 3091 0f68 26       		.uleb128 0x26
 3092 0f69 2F060000 		.4byte	.LASF203
 3093 0f6d 880F0000 		.4byte	0xf88
 3094 0f71 05       		.uleb128 0x5
 3095 0f72 03       		.byte	0x3
 3096 0f73 00000000 		.4byte	__func__.7934
 3097 0f77 00       		.byte	0
 3098 0f78 17       		.uleb128 0x17
 3099 0f79 D6080000 		.4byte	0x8d6
 3100 0f7d 880F0000 		.4byte	0xf88
 3101 0f81 18       		.uleb128 0x18
 3102 0f82 A5040000 		.4byte	0x4a5
 3103 0f86 11       		.byte	0x11
 3104 0f87 00       		.byte	0
 3105 0f88 1B       		.uleb128 0x1b
 3106 0f89 780F0000 		.4byte	0xf78
 3107 0f8d 2A       		.uleb128 0x2a
 3108 0f8e BB080000 		.4byte	.LASF208
 3109 0f92 05       		.byte	0x5
 3110 0f93 E3       		.byte	0xe3
 3111 0f94 00000000 		.4byte	.LFB267
 3112 0f98 68000000 		.4byte	.LFE267-.LFB267
 3113 0f9c 01       		.uleb128 0x1
 3114 0f9d 9C       		.byte	0x9c
 3115 0f9e C00F0000 		.4byte	0xfc0
 3116 0fa2 2B       		.uleb128 0x2b
 3117 0fa3 5E090000 		.4byte	.LASF200
 3118 0fa7 05       		.byte	0x5
 3119 0fa8 E3       		.byte	0xe3
 3120 0fa9 A70A0000 		.4byte	0xaa7
 3121 0fad 02       		.uleb128 0x2
 3122 0fae 91       		.byte	0x91
 3123 0faf 74       		.sleb128 -12
 3124 0fb0 26       		.uleb128 0x26
 3125 0fb1 2F060000 		.4byte	.LASF203
 3126 0fb5 D00F0000 		.4byte	0xfd0
 3127 0fb9 05       		.uleb128 0x5
 3128 0fba 03       		.byte	0x3
 3129 0fbb 00000000 		.4byte	__func__.7938
 3130 0fbf 00       		.byte	0
 3131 0fc0 17       		.uleb128 0x17
 3132 0fc1 D6080000 		.4byte	0x8d6
 3133 0fc5 D00F0000 		.4byte	0xfd0
 3134 0fc9 18       		.uleb128 0x18
 3135 0fca A5040000 		.4byte	0x4a5
 3136 0fce 12       		.byte	0x12
 3137 0fcf 00       		.byte	0
 3138 0fd0 1B       		.uleb128 0x1b
 3139 0fd1 C00F0000 		.4byte	0xfc0
 3140 0fd5 2C       		.uleb128 0x2c
 3141 0fd6 63090000 		.4byte	.LASF219
 3142 0fda 05       		.byte	0x5
 3143 0fdb 0C01     		.2byte	0x10c
ARM GAS  C:\Users\Luis\AppData\Local\Temp\ccIW1H7e.s 			page 57


 3144 0fdd F9000000 		.4byte	0xf9
 3145 0fe1 00000000 		.4byte	.LFB268
 3146 0fe5 4C000000 		.4byte	.LFE268-.LFB268
 3147 0fe9 01       		.uleb128 0x1
 3148 0fea 9C       		.byte	0x9c
 3149 0feb 4A100000 		.4byte	0x104a
 3150 0fef 2D       		.uleb128 0x2d
 3151 0ff0 5E090000 		.4byte	.LASF200
 3152 0ff4 05       		.byte	0x5
 3153 0ff5 0C01     		.2byte	0x10c
 3154 0ff7 A70A0000 		.4byte	0xaa7
 3155 0ffb 02       		.uleb128 0x2
 3156 0ffc 91       		.byte	0x91
 3157 0ffd 6C       		.sleb128 -20
 3158 0ffe 2D       		.uleb128 0x2d
 3159 0fff 47040000 		.4byte	.LASF170
 3160 1003 05       		.byte	0x5
 3161 1004 0D01     		.2byte	0x10d
 3162 1006 A80B0000 		.4byte	0xba8
 3163 100a 02       		.uleb128 0x2
 3164 100b 91       		.byte	0x91
 3165 100c 68       		.sleb128 -24
 3166 100d 2D       		.uleb128 0x2d
 3167 100e 5E040000 		.4byte	.LASF168
 3168 1012 05       		.byte	0x5
 3169 1013 0E01     		.2byte	0x10e
 3170 1015 AD0A0000 		.4byte	0xaad
 3171 1019 02       		.uleb128 0x2
 3172 101a 91       		.byte	0x91
 3173 101b 64       		.sleb128 -28
 3174 101c 2D       		.uleb128 0x2d
 3175 101d C4060000 		.4byte	.LASF169
 3176 1021 05       		.byte	0x5
 3177 1022 0F01     		.2byte	0x10f
 3178 1024 2C000000 		.4byte	0x2c
 3179 1028 02       		.uleb128 0x2
 3180 1029 91       		.byte	0x91
 3181 102a 60       		.sleb128 -32
 3182 102b 2E       		.uleb128 0x2e
 3183 102c 6D736700 		.ascii	"msg\000"
 3184 1030 05       		.byte	0x5
 3185 1031 1001     		.2byte	0x110
 3186 1033 F9000000 		.4byte	0xf9
 3187 1037 02       		.uleb128 0x2
 3188 1038 91       		.byte	0x91
 3189 1039 74       		.sleb128 -12
 3190 103a 26       		.uleb128 0x26
 3191 103b 2F060000 		.4byte	.LASF203
 3192 103f 5A100000 		.4byte	0x105a
 3193 1043 05       		.uleb128 0x5
 3194 1044 03       		.byte	0x3
 3195 1045 00000000 		.4byte	__func__.7946
 3196 1049 00       		.byte	0
 3197 104a 17       		.uleb128 0x17
 3198 104b D6080000 		.4byte	0x8d6
 3199 104f 5A100000 		.4byte	0x105a
 3200 1053 18       		.uleb128 0x18
ARM GAS  C:\Users\Luis\AppData\Local\Temp\ccIW1H7e.s 			page 58


 3201 1054 A5040000 		.4byte	0x4a5
 3202 1058 0A       		.byte	0xa
 3203 1059 00       		.byte	0
 3204 105a 1B       		.uleb128 0x1b
 3205 105b 4A100000 		.4byte	0x104a
 3206 105f 2F       		.uleb128 0x2f
 3207 1060 93090000 		.4byte	.LASF209
 3208 1064 05       		.byte	0x5
 3209 1065 2701     		.2byte	0x127
 3210 1067 00000000 		.4byte	.LFB269
 3211 106b 28000000 		.4byte	.LFE269-.LFB269
 3212 106f 01       		.uleb128 0x1
 3213 1070 9C       		.byte	0x9c
 3214 1071 94100000 		.4byte	0x1094
 3215 1075 2D       		.uleb128 0x2d
 3216 1076 5E090000 		.4byte	.LASF200
 3217 107a 05       		.byte	0x5
 3218 107b 2701     		.2byte	0x127
 3219 107d A70A0000 		.4byte	0xaa7
 3220 1081 02       		.uleb128 0x2
 3221 1082 91       		.byte	0x91
 3222 1083 74       		.sleb128 -12
 3223 1084 26       		.uleb128 0x26
 3224 1085 2F060000 		.4byte	.LASF203
 3225 1089 A4100000 		.4byte	0x10a4
 3226 108d 05       		.uleb128 0x5
 3227 108e 03       		.byte	0x3
 3228 108f 00000000 		.4byte	__func__.7950
 3229 1093 00       		.byte	0
 3230 1094 17       		.uleb128 0x17
 3231 1095 D6080000 		.4byte	0x8d6
 3232 1099 A4100000 		.4byte	0x10a4
 3233 109d 18       		.uleb128 0x18
 3234 109e A5040000 		.4byte	0x4a5
 3235 10a2 0D       		.byte	0xd
 3236 10a3 00       		.byte	0
 3237 10a4 1B       		.uleb128 0x1b
 3238 10a5 94100000 		.4byte	0x1094
 3239 10a9 2F       		.uleb128 0x2f
 3240 10aa 15040000 		.4byte	.LASF210
 3241 10ae 05       		.byte	0x5
 3242 10af 3701     		.2byte	0x137
 3243 10b1 00000000 		.4byte	.LFB270
 3244 10b5 28000000 		.4byte	.LFE270-.LFB270
 3245 10b9 01       		.uleb128 0x1
 3246 10ba 9C       		.byte	0x9c
 3247 10bb DE100000 		.4byte	0x10de
 3248 10bf 2D       		.uleb128 0x2d
 3249 10c0 5E090000 		.4byte	.LASF200
 3250 10c4 05       		.byte	0x5
 3251 10c5 3701     		.2byte	0x137
 3252 10c7 A70A0000 		.4byte	0xaa7
 3253 10cb 02       		.uleb128 0x2
 3254 10cc 91       		.byte	0x91
 3255 10cd 74       		.sleb128 -12
 3256 10ce 26       		.uleb128 0x26
 3257 10cf 2F060000 		.4byte	.LASF203
ARM GAS  C:\Users\Luis\AppData\Local\Temp\ccIW1H7e.s 			page 59


 3258 10d3 DE100000 		.4byte	0x10de
 3259 10d7 05       		.uleb128 0x5
 3260 10d8 03       		.byte	0x3
 3261 10d9 00000000 		.4byte	__func__.7954
 3262 10dd 00       		.byte	0
 3263 10de 1B       		.uleb128 0x1b
 3264 10df 94100000 		.4byte	0x1094
 3265 10e3 30       		.uleb128 0x30
 3266 10e4 43010000 		.4byte	.LASF211
 3267 10e8 15       		.byte	0x15
 3268 10e9 A706     		.2byte	0x6a7
 3269 10eb AD000000 		.4byte	0xad
 3270 10ef 31       		.uleb128 0x31
 3271 10f0 636800   		.ascii	"ch\000"
 3272 10f3 0A       		.byte	0xa
 3273 10f4 0902     		.2byte	0x209
 3274 10f6 2D040000 		.4byte	0x42d
 3275 10fa 00       		.byte	0
 3276              		.section	.debug_abbrev,"",%progbits
 3277              	.Ldebug_abbrev0:
 3278 0000 01       		.uleb128 0x1
 3279 0001 11       		.uleb128 0x11
 3280 0002 01       		.byte	0x1
 3281 0003 25       		.uleb128 0x25
 3282 0004 0E       		.uleb128 0xe
 3283 0005 13       		.uleb128 0x13
 3284 0006 0B       		.uleb128 0xb
 3285 0007 03       		.uleb128 0x3
 3286 0008 0E       		.uleb128 0xe
 3287 0009 1B       		.uleb128 0x1b
 3288 000a 0E       		.uleb128 0xe
 3289 000b 55       		.uleb128 0x55
 3290 000c 17       		.uleb128 0x17
 3291 000d 11       		.uleb128 0x11
 3292 000e 01       		.uleb128 0x1
 3293 000f 10       		.uleb128 0x10
 3294 0010 17       		.uleb128 0x17
 3295 0011 00       		.byte	0
 3296 0012 00       		.byte	0
 3297 0013 02       		.uleb128 0x2
 3298 0014 24       		.uleb128 0x24
 3299 0015 00       		.byte	0
 3300 0016 0B       		.uleb128 0xb
 3301 0017 0B       		.uleb128 0xb
 3302 0018 3E       		.uleb128 0x3e
 3303 0019 0B       		.uleb128 0xb
 3304 001a 03       		.uleb128 0x3
 3305 001b 08       		.uleb128 0x8
 3306 001c 00       		.byte	0
 3307 001d 00       		.byte	0
 3308 001e 03       		.uleb128 0x3
 3309 001f 16       		.uleb128 0x16
 3310 0020 00       		.byte	0
 3311 0021 03       		.uleb128 0x3
 3312 0022 0E       		.uleb128 0xe
 3313 0023 3A       		.uleb128 0x3a
 3314 0024 0B       		.uleb128 0xb
ARM GAS  C:\Users\Luis\AppData\Local\Temp\ccIW1H7e.s 			page 60


 3315 0025 3B       		.uleb128 0x3b
 3316 0026 0B       		.uleb128 0xb
 3317 0027 49       		.uleb128 0x49
 3318 0028 13       		.uleb128 0x13
 3319 0029 00       		.byte	0
 3320 002a 00       		.byte	0
 3321 002b 04       		.uleb128 0x4
 3322 002c 24       		.uleb128 0x24
 3323 002d 00       		.byte	0
 3324 002e 0B       		.uleb128 0xb
 3325 002f 0B       		.uleb128 0xb
 3326 0030 3E       		.uleb128 0x3e
 3327 0031 0B       		.uleb128 0xb
 3328 0032 03       		.uleb128 0x3
 3329 0033 0E       		.uleb128 0xe
 3330 0034 00       		.byte	0
 3331 0035 00       		.byte	0
 3332 0036 05       		.uleb128 0x5
 3333 0037 35       		.uleb128 0x35
 3334 0038 00       		.byte	0
 3335 0039 49       		.uleb128 0x49
 3336 003a 13       		.uleb128 0x13
 3337 003b 00       		.byte	0
 3338 003c 00       		.byte	0
 3339 003d 06       		.uleb128 0x6
 3340 003e 13       		.uleb128 0x13
 3341 003f 01       		.byte	0x1
 3342 0040 03       		.uleb128 0x3
 3343 0041 0E       		.uleb128 0xe
 3344 0042 0B       		.uleb128 0xb
 3345 0043 0B       		.uleb128 0xb
 3346 0044 3A       		.uleb128 0x3a
 3347 0045 0B       		.uleb128 0xb
 3348 0046 3B       		.uleb128 0x3b
 3349 0047 0B       		.uleb128 0xb
 3350 0048 01       		.uleb128 0x1
 3351 0049 13       		.uleb128 0x13
 3352 004a 00       		.byte	0
 3353 004b 00       		.byte	0
 3354 004c 07       		.uleb128 0x7
 3355 004d 0D       		.uleb128 0xd
 3356 004e 00       		.byte	0
 3357 004f 03       		.uleb128 0x3
 3358 0050 0E       		.uleb128 0xe
 3359 0051 3A       		.uleb128 0x3a
 3360 0052 0B       		.uleb128 0xb
 3361 0053 3B       		.uleb128 0x3b
 3362 0054 0B       		.uleb128 0xb
 3363 0055 49       		.uleb128 0x49
 3364 0056 13       		.uleb128 0x13
 3365 0057 38       		.uleb128 0x38
 3366 0058 0B       		.uleb128 0xb
 3367 0059 00       		.byte	0
 3368 005a 00       		.byte	0
 3369 005b 08       		.uleb128 0x8
 3370 005c 0D       		.uleb128 0xd
 3371 005d 00       		.byte	0
ARM GAS  C:\Users\Luis\AppData\Local\Temp\ccIW1H7e.s 			page 61


 3372 005e 03       		.uleb128 0x3
 3373 005f 08       		.uleb128 0x8
 3374 0060 3A       		.uleb128 0x3a
 3375 0061 0B       		.uleb128 0xb
 3376 0062 3B       		.uleb128 0x3b
 3377 0063 05       		.uleb128 0x5
 3378 0064 49       		.uleb128 0x49
 3379 0065 13       		.uleb128 0x13
 3380 0066 38       		.uleb128 0x38
 3381 0067 0B       		.uleb128 0xb
 3382 0068 00       		.byte	0
 3383 0069 00       		.byte	0
 3384 006a 09       		.uleb128 0x9
 3385 006b 0D       		.uleb128 0xd
 3386 006c 00       		.byte	0
 3387 006d 03       		.uleb128 0x3
 3388 006e 0E       		.uleb128 0xe
 3389 006f 3A       		.uleb128 0x3a
 3390 0070 0B       		.uleb128 0xb
 3391 0071 3B       		.uleb128 0x3b
 3392 0072 05       		.uleb128 0x5
 3393 0073 49       		.uleb128 0x49
 3394 0074 13       		.uleb128 0x13
 3395 0075 38       		.uleb128 0x38
 3396 0076 0B       		.uleb128 0xb
 3397 0077 00       		.byte	0
 3398 0078 00       		.byte	0
 3399 0079 0A       		.uleb128 0xa
 3400 007a 0F       		.uleb128 0xf
 3401 007b 00       		.byte	0
 3402 007c 0B       		.uleb128 0xb
 3403 007d 0B       		.uleb128 0xb
 3404 007e 49       		.uleb128 0x49
 3405 007f 13       		.uleb128 0x13
 3406 0080 00       		.byte	0
 3407 0081 00       		.byte	0
 3408 0082 0B       		.uleb128 0xb
 3409 0083 13       		.uleb128 0x13
 3410 0084 01       		.byte	0x1
 3411 0085 03       		.uleb128 0x3
 3412 0086 0E       		.uleb128 0xe
 3413 0087 0B       		.uleb128 0xb
 3414 0088 0B       		.uleb128 0xb
 3415 0089 3A       		.uleb128 0x3a
 3416 008a 0B       		.uleb128 0xb
 3417 008b 3B       		.uleb128 0x3b
 3418 008c 05       		.uleb128 0x5
 3419 008d 01       		.uleb128 0x1
 3420 008e 13       		.uleb128 0x13
 3421 008f 00       		.byte	0
 3422 0090 00       		.byte	0
 3423 0091 0C       		.uleb128 0xc
 3424 0092 15       		.uleb128 0x15
 3425 0093 01       		.byte	0x1
 3426 0094 27       		.uleb128 0x27
 3427 0095 19       		.uleb128 0x19
 3428 0096 01       		.uleb128 0x1
ARM GAS  C:\Users\Luis\AppData\Local\Temp\ccIW1H7e.s 			page 62


 3429 0097 13       		.uleb128 0x13
 3430 0098 00       		.byte	0
 3431 0099 00       		.byte	0
 3432 009a 0D       		.uleb128 0xd
 3433 009b 05       		.uleb128 0x5
 3434 009c 00       		.byte	0
 3435 009d 49       		.uleb128 0x49
 3436 009e 13       		.uleb128 0x13
 3437 009f 00       		.byte	0
 3438 00a0 00       		.byte	0
 3439 00a1 0E       		.uleb128 0xe
 3440 00a2 0F       		.uleb128 0xf
 3441 00a3 00       		.byte	0
 3442 00a4 0B       		.uleb128 0xb
 3443 00a5 0B       		.uleb128 0xb
 3444 00a6 00       		.byte	0
 3445 00a7 00       		.byte	0
 3446 00a8 0F       		.uleb128 0xf
 3447 00a9 13       		.uleb128 0x13
 3448 00aa 01       		.byte	0x1
 3449 00ab 03       		.uleb128 0x3
 3450 00ac 0E       		.uleb128 0xe
 3451 00ad 0B       		.uleb128 0xb
 3452 00ae 05       		.uleb128 0x5
 3453 00af 3A       		.uleb128 0x3a
 3454 00b0 0B       		.uleb128 0xb
 3455 00b1 3B       		.uleb128 0x3b
 3456 00b2 05       		.uleb128 0x5
 3457 00b3 01       		.uleb128 0x1
 3458 00b4 13       		.uleb128 0x13
 3459 00b5 00       		.byte	0
 3460 00b6 00       		.byte	0
 3461 00b7 10       		.uleb128 0x10
 3462 00b8 0D       		.uleb128 0xd
 3463 00b9 00       		.byte	0
 3464 00ba 03       		.uleb128 0x3
 3465 00bb 0E       		.uleb128 0xe
 3466 00bc 3A       		.uleb128 0x3a
 3467 00bd 0B       		.uleb128 0xb
 3468 00be 3B       		.uleb128 0x3b
 3469 00bf 05       		.uleb128 0x5
 3470 00c0 49       		.uleb128 0x49
 3471 00c1 13       		.uleb128 0x13
 3472 00c2 38       		.uleb128 0x38
 3473 00c3 05       		.uleb128 0x5
 3474 00c4 00       		.byte	0
 3475 00c5 00       		.byte	0
 3476 00c6 11       		.uleb128 0x11
 3477 00c7 0D       		.uleb128 0xd
 3478 00c8 00       		.byte	0
 3479 00c9 03       		.uleb128 0x3
 3480 00ca 08       		.uleb128 0x8
 3481 00cb 3A       		.uleb128 0x3a
 3482 00cc 0B       		.uleb128 0xb
 3483 00cd 3B       		.uleb128 0x3b
 3484 00ce 05       		.uleb128 0x5
 3485 00cf 49       		.uleb128 0x49
ARM GAS  C:\Users\Luis\AppData\Local\Temp\ccIW1H7e.s 			page 63


 3486 00d0 13       		.uleb128 0x13
 3487 00d1 38       		.uleb128 0x38
 3488 00d2 05       		.uleb128 0x5
 3489 00d3 00       		.byte	0
 3490 00d4 00       		.byte	0
 3491 00d5 12       		.uleb128 0x12
 3492 00d6 13       		.uleb128 0x13
 3493 00d7 01       		.byte	0x1
 3494 00d8 0B       		.uleb128 0xb
 3495 00d9 0B       		.uleb128 0xb
 3496 00da 3A       		.uleb128 0x3a
 3497 00db 0B       		.uleb128 0xb
 3498 00dc 3B       		.uleb128 0x3b
 3499 00dd 0B       		.uleb128 0xb
 3500 00de 01       		.uleb128 0x1
 3501 00df 13       		.uleb128 0x13
 3502 00e0 00       		.byte	0
 3503 00e1 00       		.byte	0
 3504 00e2 13       		.uleb128 0x13
 3505 00e3 0D       		.uleb128 0xd
 3506 00e4 00       		.byte	0
 3507 00e5 03       		.uleb128 0x3
 3508 00e6 08       		.uleb128 0x8
 3509 00e7 3A       		.uleb128 0x3a
 3510 00e8 0B       		.uleb128 0xb
 3511 00e9 3B       		.uleb128 0x3b
 3512 00ea 0B       		.uleb128 0xb
 3513 00eb 49       		.uleb128 0x49
 3514 00ec 13       		.uleb128 0x13
 3515 00ed 38       		.uleb128 0x38
 3516 00ee 0B       		.uleb128 0xb
 3517 00ef 00       		.byte	0
 3518 00f0 00       		.byte	0
 3519 00f1 14       		.uleb128 0x14
 3520 00f2 13       		.uleb128 0x13
 3521 00f3 01       		.byte	0x1
 3522 00f4 0B       		.uleb128 0xb
 3523 00f5 0B       		.uleb128 0xb
 3524 00f6 3A       		.uleb128 0x3a
 3525 00f7 0B       		.uleb128 0xb
 3526 00f8 3B       		.uleb128 0x3b
 3527 00f9 05       		.uleb128 0x5
 3528 00fa 01       		.uleb128 0x1
 3529 00fb 13       		.uleb128 0x13
 3530 00fc 00       		.byte	0
 3531 00fd 00       		.byte	0
 3532 00fe 15       		.uleb128 0x15
 3533 00ff 16       		.uleb128 0x16
 3534 0100 00       		.byte	0
 3535 0101 03       		.uleb128 0x3
 3536 0102 0E       		.uleb128 0xe
 3537 0103 3A       		.uleb128 0x3a
 3538 0104 0B       		.uleb128 0xb
 3539 0105 3B       		.uleb128 0x3b
 3540 0106 05       		.uleb128 0x5
 3541 0107 49       		.uleb128 0x49
 3542 0108 13       		.uleb128 0x13
ARM GAS  C:\Users\Luis\AppData\Local\Temp\ccIW1H7e.s 			page 64


 3543 0109 00       		.byte	0
 3544 010a 00       		.byte	0
 3545 010b 16       		.uleb128 0x16
 3546 010c 13       		.uleb128 0x13
 3547 010d 01       		.byte	0x1
 3548 010e 0B       		.uleb128 0xb
 3549 010f 05       		.uleb128 0x5
 3550 0110 3A       		.uleb128 0x3a
 3551 0111 0B       		.uleb128 0xb
 3552 0112 3B       		.uleb128 0x3b
 3553 0113 0B       		.uleb128 0xb
 3554 0114 01       		.uleb128 0x1
 3555 0115 13       		.uleb128 0x13
 3556 0116 00       		.byte	0
 3557 0117 00       		.byte	0
 3558 0118 17       		.uleb128 0x17
 3559 0119 01       		.uleb128 0x1
 3560 011a 01       		.byte	0x1
 3561 011b 49       		.uleb128 0x49
 3562 011c 13       		.uleb128 0x13
 3563 011d 01       		.uleb128 0x1
 3564 011e 13       		.uleb128 0x13
 3565 011f 00       		.byte	0
 3566 0120 00       		.byte	0
 3567 0121 18       		.uleb128 0x18
 3568 0122 21       		.uleb128 0x21
 3569 0123 00       		.byte	0
 3570 0124 49       		.uleb128 0x49
 3571 0125 13       		.uleb128 0x13
 3572 0126 2F       		.uleb128 0x2f
 3573 0127 0B       		.uleb128 0xb
 3574 0128 00       		.byte	0
 3575 0129 00       		.byte	0
 3576 012a 19       		.uleb128 0x19
 3577 012b 17       		.uleb128 0x17
 3578 012c 01       		.byte	0x1
 3579 012d 0B       		.uleb128 0xb
 3580 012e 0B       		.uleb128 0xb
 3581 012f 3A       		.uleb128 0x3a
 3582 0130 0B       		.uleb128 0xb
 3583 0131 3B       		.uleb128 0x3b
 3584 0132 0B       		.uleb128 0xb
 3585 0133 01       		.uleb128 0x1
 3586 0134 13       		.uleb128 0x13
 3587 0135 00       		.byte	0
 3588 0136 00       		.byte	0
 3589 0137 1A       		.uleb128 0x1a
 3590 0138 0D       		.uleb128 0xd
 3591 0139 00       		.byte	0
 3592 013a 03       		.uleb128 0x3
 3593 013b 0E       		.uleb128 0xe
 3594 013c 3A       		.uleb128 0x3a
 3595 013d 0B       		.uleb128 0xb
 3596 013e 3B       		.uleb128 0x3b
 3597 013f 05       		.uleb128 0x5
 3598 0140 49       		.uleb128 0x49
 3599 0141 13       		.uleb128 0x13
ARM GAS  C:\Users\Luis\AppData\Local\Temp\ccIW1H7e.s 			page 65


 3600 0142 00       		.byte	0
 3601 0143 00       		.byte	0
 3602 0144 1B       		.uleb128 0x1b
 3603 0145 26       		.uleb128 0x26
 3604 0146 00       		.byte	0
 3605 0147 49       		.uleb128 0x49
 3606 0148 13       		.uleb128 0x13
 3607 0149 00       		.byte	0
 3608 014a 00       		.byte	0
 3609 014b 1C       		.uleb128 0x1c
 3610 014c 04       		.uleb128 0x4
 3611 014d 01       		.byte	0x1
 3612 014e 0B       		.uleb128 0xb
 3613 014f 0B       		.uleb128 0xb
 3614 0150 3A       		.uleb128 0x3a
 3615 0151 0B       		.uleb128 0xb
 3616 0152 3B       		.uleb128 0x3b
 3617 0153 0B       		.uleb128 0xb
 3618 0154 01       		.uleb128 0x1
 3619 0155 13       		.uleb128 0x13
 3620 0156 00       		.byte	0
 3621 0157 00       		.byte	0
 3622 0158 1D       		.uleb128 0x1d
 3623 0159 28       		.uleb128 0x28
 3624 015a 00       		.byte	0
 3625 015b 03       		.uleb128 0x3
 3626 015c 0E       		.uleb128 0xe
 3627 015d 1C       		.uleb128 0x1c
 3628 015e 0D       		.uleb128 0xd
 3629 015f 00       		.byte	0
 3630 0160 00       		.byte	0
 3631 0161 1E       		.uleb128 0x1e
 3632 0162 04       		.uleb128 0x4
 3633 0163 01       		.byte	0x1
 3634 0164 0B       		.uleb128 0xb
 3635 0165 0B       		.uleb128 0xb
 3636 0166 3A       		.uleb128 0x3a
 3637 0167 0B       		.uleb128 0xb
 3638 0168 3B       		.uleb128 0x3b
 3639 0169 05       		.uleb128 0x5
 3640 016a 01       		.uleb128 0x1
 3641 016b 13       		.uleb128 0x13
 3642 016c 00       		.byte	0
 3643 016d 00       		.byte	0
 3644 016e 1F       		.uleb128 0x1f
 3645 016f 2E       		.uleb128 0x2e
 3646 0170 01       		.byte	0x1
 3647 0171 03       		.uleb128 0x3
 3648 0172 0E       		.uleb128 0xe
 3649 0173 3A       		.uleb128 0x3a
 3650 0174 0B       		.uleb128 0xb
 3651 0175 3B       		.uleb128 0x3b
 3652 0176 05       		.uleb128 0x5
 3653 0177 27       		.uleb128 0x27
 3654 0178 19       		.uleb128 0x19
 3655 0179 20       		.uleb128 0x20
 3656 017a 0B       		.uleb128 0xb
ARM GAS  C:\Users\Luis\AppData\Local\Temp\ccIW1H7e.s 			page 66


 3657 017b 01       		.uleb128 0x1
 3658 017c 13       		.uleb128 0x13
 3659 017d 00       		.byte	0
 3660 017e 00       		.byte	0
 3661 017f 20       		.uleb128 0x20
 3662 0180 05       		.uleb128 0x5
 3663 0181 00       		.byte	0
 3664 0182 03       		.uleb128 0x3
 3665 0183 0E       		.uleb128 0xe
 3666 0184 3A       		.uleb128 0x3a
 3667 0185 0B       		.uleb128 0xb
 3668 0186 3B       		.uleb128 0x3b
 3669 0187 05       		.uleb128 0x5
 3670 0188 49       		.uleb128 0x49
 3671 0189 13       		.uleb128 0x13
 3672 018a 00       		.byte	0
 3673 018b 00       		.byte	0
 3674 018c 21       		.uleb128 0x21
 3675 018d 2E       		.uleb128 0x2e
 3676 018e 01       		.byte	0x1
 3677 018f 03       		.uleb128 0x3
 3678 0190 0E       		.uleb128 0xe
 3679 0191 3A       		.uleb128 0x3a
 3680 0192 0B       		.uleb128 0xb
 3681 0193 3B       		.uleb128 0x3b
 3682 0194 05       		.uleb128 0x5
 3683 0195 27       		.uleb128 0x27
 3684 0196 19       		.uleb128 0x19
 3685 0197 11       		.uleb128 0x11
 3686 0198 01       		.uleb128 0x1
 3687 0199 12       		.uleb128 0x12
 3688 019a 06       		.uleb128 0x6
 3689 019b 40       		.uleb128 0x40
 3690 019c 18       		.uleb128 0x18
 3691 019d 9742     		.uleb128 0x2117
 3692 019f 19       		.uleb128 0x19
 3693 01a0 01       		.uleb128 0x1
 3694 01a1 13       		.uleb128 0x13
 3695 01a2 00       		.byte	0
 3696 01a3 00       		.byte	0
 3697 01a4 22       		.uleb128 0x22
 3698 01a5 1D       		.uleb128 0x1d
 3699 01a6 01       		.byte	0x1
 3700 01a7 31       		.uleb128 0x31
 3701 01a8 13       		.uleb128 0x13
 3702 01a9 11       		.uleb128 0x11
 3703 01aa 01       		.uleb128 0x1
 3704 01ab 12       		.uleb128 0x12
 3705 01ac 06       		.uleb128 0x6
 3706 01ad 58       		.uleb128 0x58
 3707 01ae 0B       		.uleb128 0xb
 3708 01af 59       		.uleb128 0x59
 3709 01b0 05       		.uleb128 0x5
 3710 01b1 00       		.byte	0
 3711 01b2 00       		.byte	0
 3712 01b3 23       		.uleb128 0x23
 3713 01b4 05       		.uleb128 0x5
ARM GAS  C:\Users\Luis\AppData\Local\Temp\ccIW1H7e.s 			page 67


 3714 01b5 00       		.byte	0
 3715 01b6 31       		.uleb128 0x31
 3716 01b7 13       		.uleb128 0x13
 3717 01b8 02       		.uleb128 0x2
 3718 01b9 18       		.uleb128 0x18
 3719 01ba 00       		.byte	0
 3720 01bb 00       		.byte	0
 3721 01bc 24       		.uleb128 0x24
 3722 01bd 2E       		.uleb128 0x2e
 3723 01be 00       		.byte	0
 3724 01bf 03       		.uleb128 0x3
 3725 01c0 0E       		.uleb128 0xe
 3726 01c1 3A       		.uleb128 0x3a
 3727 01c2 0B       		.uleb128 0xb
 3728 01c3 3B       		.uleb128 0x3b
 3729 01c4 05       		.uleb128 0x5
 3730 01c5 27       		.uleb128 0x27
 3731 01c6 19       		.uleb128 0x19
 3732 01c7 11       		.uleb128 0x11
 3733 01c8 01       		.uleb128 0x1
 3734 01c9 12       		.uleb128 0x12
 3735 01ca 06       		.uleb128 0x6
 3736 01cb 40       		.uleb128 0x40
 3737 01cc 18       		.uleb128 0x18
 3738 01cd 9642     		.uleb128 0x2116
 3739 01cf 19       		.uleb128 0x19
 3740 01d0 00       		.byte	0
 3741 01d1 00       		.byte	0
 3742 01d2 25       		.uleb128 0x25
 3743 01d3 2E       		.uleb128 0x2e
 3744 01d4 01       		.byte	0x1
 3745 01d5 03       		.uleb128 0x3
 3746 01d6 0E       		.uleb128 0xe
 3747 01d7 3A       		.uleb128 0x3a
 3748 01d8 0B       		.uleb128 0xb
 3749 01d9 3B       		.uleb128 0x3b
 3750 01da 05       		.uleb128 0x5
 3751 01db 27       		.uleb128 0x27
 3752 01dc 19       		.uleb128 0x19
 3753 01dd 11       		.uleb128 0x11
 3754 01de 01       		.uleb128 0x1
 3755 01df 12       		.uleb128 0x12
 3756 01e0 06       		.uleb128 0x6
 3757 01e1 40       		.uleb128 0x40
 3758 01e2 18       		.uleb128 0x18
 3759 01e3 9642     		.uleb128 0x2116
 3760 01e5 19       		.uleb128 0x19
 3761 01e6 01       		.uleb128 0x1
 3762 01e7 13       		.uleb128 0x13
 3763 01e8 00       		.byte	0
 3764 01e9 00       		.byte	0
 3765 01ea 26       		.uleb128 0x26
 3766 01eb 34       		.uleb128 0x34
 3767 01ec 00       		.byte	0
 3768 01ed 03       		.uleb128 0x3
 3769 01ee 0E       		.uleb128 0xe
 3770 01ef 49       		.uleb128 0x49
ARM GAS  C:\Users\Luis\AppData\Local\Temp\ccIW1H7e.s 			page 68


 3771 01f0 13       		.uleb128 0x13
 3772 01f1 34       		.uleb128 0x34
 3773 01f2 19       		.uleb128 0x19
 3774 01f3 02       		.uleb128 0x2
 3775 01f4 18       		.uleb128 0x18
 3776 01f5 00       		.byte	0
 3777 01f6 00       		.byte	0
 3778 01f7 27       		.uleb128 0x27
 3779 01f8 2E       		.uleb128 0x2e
 3780 01f9 01       		.byte	0x1
 3781 01fa 03       		.uleb128 0x3
 3782 01fb 0E       		.uleb128 0xe
 3783 01fc 3A       		.uleb128 0x3a
 3784 01fd 0B       		.uleb128 0xb
 3785 01fe 3B       		.uleb128 0x3b
 3786 01ff 05       		.uleb128 0x5
 3787 0200 27       		.uleb128 0x27
 3788 0201 19       		.uleb128 0x19
 3789 0202 49       		.uleb128 0x49
 3790 0203 13       		.uleb128 0x13
 3791 0204 11       		.uleb128 0x11
 3792 0205 01       		.uleb128 0x1
 3793 0206 12       		.uleb128 0x12
 3794 0207 06       		.uleb128 0x6
 3795 0208 40       		.uleb128 0x40
 3796 0209 18       		.uleb128 0x18
 3797 020a 9642     		.uleb128 0x2116
 3798 020c 19       		.uleb128 0x19
 3799 020d 01       		.uleb128 0x1
 3800 020e 13       		.uleb128 0x13
 3801 020f 00       		.byte	0
 3802 0210 00       		.byte	0
 3803 0211 28       		.uleb128 0x28
 3804 0212 05       		.uleb128 0x5
 3805 0213 00       		.byte	0
 3806 0214 03       		.uleb128 0x3
 3807 0215 08       		.uleb128 0x8
 3808 0216 3A       		.uleb128 0x3a
 3809 0217 0B       		.uleb128 0xb
 3810 0218 3B       		.uleb128 0x3b
 3811 0219 05       		.uleb128 0x5
 3812 021a 49       		.uleb128 0x49
 3813 021b 13       		.uleb128 0x13
 3814 021c 02       		.uleb128 0x2
 3815 021d 18       		.uleb128 0x18
 3816 021e 00       		.byte	0
 3817 021f 00       		.byte	0
 3818 0220 29       		.uleb128 0x29
 3819 0221 2E       		.uleb128 0x2e
 3820 0222 00       		.byte	0
 3821 0223 3F       		.uleb128 0x3f
 3822 0224 19       		.uleb128 0x19
 3823 0225 03       		.uleb128 0x3
 3824 0226 0E       		.uleb128 0xe
 3825 0227 3A       		.uleb128 0x3a
 3826 0228 0B       		.uleb128 0xb
 3827 0229 3B       		.uleb128 0x3b
ARM GAS  C:\Users\Luis\AppData\Local\Temp\ccIW1H7e.s 			page 69


 3828 022a 0B       		.uleb128 0xb
 3829 022b 27       		.uleb128 0x27
 3830 022c 19       		.uleb128 0x19
 3831 022d 11       		.uleb128 0x11
 3832 022e 01       		.uleb128 0x1
 3833 022f 12       		.uleb128 0x12
 3834 0230 06       		.uleb128 0x6
 3835 0231 40       		.uleb128 0x40
 3836 0232 18       		.uleb128 0x18
 3837 0233 9642     		.uleb128 0x2116
 3838 0235 19       		.uleb128 0x19
 3839 0236 00       		.byte	0
 3840 0237 00       		.byte	0
 3841 0238 2A       		.uleb128 0x2a
 3842 0239 2E       		.uleb128 0x2e
 3843 023a 01       		.byte	0x1
 3844 023b 3F       		.uleb128 0x3f
 3845 023c 19       		.uleb128 0x19
 3846 023d 03       		.uleb128 0x3
 3847 023e 0E       		.uleb128 0xe
 3848 023f 3A       		.uleb128 0x3a
 3849 0240 0B       		.uleb128 0xb
 3850 0241 3B       		.uleb128 0x3b
 3851 0242 0B       		.uleb128 0xb
 3852 0243 27       		.uleb128 0x27
 3853 0244 19       		.uleb128 0x19
 3854 0245 11       		.uleb128 0x11
 3855 0246 01       		.uleb128 0x1
 3856 0247 12       		.uleb128 0x12
 3857 0248 06       		.uleb128 0x6
 3858 0249 40       		.uleb128 0x40
 3859 024a 18       		.uleb128 0x18
 3860 024b 9642     		.uleb128 0x2116
 3861 024d 19       		.uleb128 0x19
 3862 024e 01       		.uleb128 0x1
 3863 024f 13       		.uleb128 0x13
 3864 0250 00       		.byte	0
 3865 0251 00       		.byte	0
 3866 0252 2B       		.uleb128 0x2b
 3867 0253 05       		.uleb128 0x5
 3868 0254 00       		.byte	0
 3869 0255 03       		.uleb128 0x3
 3870 0256 0E       		.uleb128 0xe
 3871 0257 3A       		.uleb128 0x3a
 3872 0258 0B       		.uleb128 0xb
 3873 0259 3B       		.uleb128 0x3b
 3874 025a 0B       		.uleb128 0xb
 3875 025b 49       		.uleb128 0x49
 3876 025c 13       		.uleb128 0x13
 3877 025d 02       		.uleb128 0x2
 3878 025e 18       		.uleb128 0x18
 3879 025f 00       		.byte	0
 3880 0260 00       		.byte	0
 3881 0261 2C       		.uleb128 0x2c
 3882 0262 2E       		.uleb128 0x2e
 3883 0263 01       		.byte	0x1
 3884 0264 3F       		.uleb128 0x3f
ARM GAS  C:\Users\Luis\AppData\Local\Temp\ccIW1H7e.s 			page 70


 3885 0265 19       		.uleb128 0x19
 3886 0266 03       		.uleb128 0x3
 3887 0267 0E       		.uleb128 0xe
 3888 0268 3A       		.uleb128 0x3a
 3889 0269 0B       		.uleb128 0xb
 3890 026a 3B       		.uleb128 0x3b
 3891 026b 05       		.uleb128 0x5
 3892 026c 27       		.uleb128 0x27
 3893 026d 19       		.uleb128 0x19
 3894 026e 49       		.uleb128 0x49
 3895 026f 13       		.uleb128 0x13
 3896 0270 11       		.uleb128 0x11
 3897 0271 01       		.uleb128 0x1
 3898 0272 12       		.uleb128 0x12
 3899 0273 06       		.uleb128 0x6
 3900 0274 40       		.uleb128 0x40
 3901 0275 18       		.uleb128 0x18
 3902 0276 9642     		.uleb128 0x2116
 3903 0278 19       		.uleb128 0x19
 3904 0279 01       		.uleb128 0x1
 3905 027a 13       		.uleb128 0x13
 3906 027b 00       		.byte	0
 3907 027c 00       		.byte	0
 3908 027d 2D       		.uleb128 0x2d
 3909 027e 05       		.uleb128 0x5
 3910 027f 00       		.byte	0
 3911 0280 03       		.uleb128 0x3
 3912 0281 0E       		.uleb128 0xe
 3913 0282 3A       		.uleb128 0x3a
 3914 0283 0B       		.uleb128 0xb
 3915 0284 3B       		.uleb128 0x3b
 3916 0285 05       		.uleb128 0x5
 3917 0286 49       		.uleb128 0x49
 3918 0287 13       		.uleb128 0x13
 3919 0288 02       		.uleb128 0x2
 3920 0289 18       		.uleb128 0x18
 3921 028a 00       		.byte	0
 3922 028b 00       		.byte	0
 3923 028c 2E       		.uleb128 0x2e
 3924 028d 34       		.uleb128 0x34
 3925 028e 00       		.byte	0
 3926 028f 03       		.uleb128 0x3
 3927 0290 08       		.uleb128 0x8
 3928 0291 3A       		.uleb128 0x3a
 3929 0292 0B       		.uleb128 0xb
 3930 0293 3B       		.uleb128 0x3b
 3931 0294 05       		.uleb128 0x5
 3932 0295 49       		.uleb128 0x49
 3933 0296 13       		.uleb128 0x13
 3934 0297 02       		.uleb128 0x2
 3935 0298 18       		.uleb128 0x18
 3936 0299 00       		.byte	0
 3937 029a 00       		.byte	0
 3938 029b 2F       		.uleb128 0x2f
 3939 029c 2E       		.uleb128 0x2e
 3940 029d 01       		.byte	0x1
 3941 029e 3F       		.uleb128 0x3f
ARM GAS  C:\Users\Luis\AppData\Local\Temp\ccIW1H7e.s 			page 71


 3942 029f 19       		.uleb128 0x19
 3943 02a0 03       		.uleb128 0x3
 3944 02a1 0E       		.uleb128 0xe
 3945 02a2 3A       		.uleb128 0x3a
 3946 02a3 0B       		.uleb128 0xb
 3947 02a4 3B       		.uleb128 0x3b
 3948 02a5 05       		.uleb128 0x5
 3949 02a6 27       		.uleb128 0x27
 3950 02a7 19       		.uleb128 0x19
 3951 02a8 11       		.uleb128 0x11
 3952 02a9 01       		.uleb128 0x1
 3953 02aa 12       		.uleb128 0x12
 3954 02ab 06       		.uleb128 0x6
 3955 02ac 40       		.uleb128 0x40
 3956 02ad 18       		.uleb128 0x18
 3957 02ae 9642     		.uleb128 0x2116
 3958 02b0 19       		.uleb128 0x19
 3959 02b1 01       		.uleb128 0x1
 3960 02b2 13       		.uleb128 0x13
 3961 02b3 00       		.byte	0
 3962 02b4 00       		.byte	0
 3963 02b5 30       		.uleb128 0x30
 3964 02b6 34       		.uleb128 0x34
 3965 02b7 00       		.byte	0
 3966 02b8 03       		.uleb128 0x3
 3967 02b9 0E       		.uleb128 0xe
 3968 02ba 3A       		.uleb128 0x3a
 3969 02bb 0B       		.uleb128 0xb
 3970 02bc 3B       		.uleb128 0x3b
 3971 02bd 05       		.uleb128 0x5
 3972 02be 49       		.uleb128 0x49
 3973 02bf 13       		.uleb128 0x13
 3974 02c0 3F       		.uleb128 0x3f
 3975 02c1 19       		.uleb128 0x19
 3976 02c2 3C       		.uleb128 0x3c
 3977 02c3 19       		.uleb128 0x19
 3978 02c4 00       		.byte	0
 3979 02c5 00       		.byte	0
 3980 02c6 31       		.uleb128 0x31
 3981 02c7 34       		.uleb128 0x34
 3982 02c8 00       		.byte	0
 3983 02c9 03       		.uleb128 0x3
 3984 02ca 08       		.uleb128 0x8
 3985 02cb 3A       		.uleb128 0x3a
 3986 02cc 0B       		.uleb128 0xb
 3987 02cd 3B       		.uleb128 0x3b
 3988 02ce 05       		.uleb128 0x5
 3989 02cf 49       		.uleb128 0x49
 3990 02d0 13       		.uleb128 0x13
 3991 02d1 3F       		.uleb128 0x3f
 3992 02d2 19       		.uleb128 0x19
 3993 02d3 3C       		.uleb128 0x3c
 3994 02d4 19       		.uleb128 0x19
 3995 02d5 00       		.byte	0
 3996 02d6 00       		.byte	0
 3997 02d7 00       		.byte	0
 3998              		.section	.debug_aranges,"",%progbits
ARM GAS  C:\Users\Luis\AppData\Local\Temp\ccIW1H7e.s 			page 72


 3999 0000 CC000000 		.4byte	0xcc
 4000 0004 0200     		.2byte	0x2
 4001 0006 00000000 		.4byte	.Ldebug_info0
 4002 000a 04       		.byte	0x4
 4003 000b 00       		.byte	0
 4004 000c 0000     		.2byte	0
 4005 000e 0000     		.2byte	0
 4006 0010 00000000 		.4byte	.LFB116
 4007 0014 1A000000 		.4byte	.LFE116-.LFB116
 4008 0018 00000000 		.4byte	.LFB117
 4009 001c 1A000000 		.4byte	.LFE117-.LFB117
 4010 0020 00000000 		.4byte	.LFB156
 4011 0024 12000000 		.4byte	.LFE156-.LFB156
 4012 0028 00000000 		.4byte	.LFB157
 4013 002c 3C000000 		.4byte	.LFE157-.LFB157
 4014 0030 00000000 		.4byte	.LFB233
 4015 0034 0A000000 		.4byte	.LFE233-.LFB233
 4016 0038 00000000 		.4byte	.LFB234
 4017 003c 0A000000 		.4byte	.LFE234-.LFB234
 4018 0040 00000000 		.4byte	.LFB246
 4019 0044 18000000 		.4byte	.LFE246-.LFB246
 4020 0048 00000000 		.4byte	.LFB248
 4021 004c 18000000 		.4byte	.LFE248-.LFB248
 4022 0050 00000000 		.4byte	.LFB249
 4023 0054 18000000 		.4byte	.LFE249-.LFB249
 4024 0058 00000000 		.4byte	.LFB257
 4025 005c 14000000 		.4byte	.LFE257-.LFB257
 4026 0060 00000000 		.4byte	.LFB258
 4027 0064 14000000 		.4byte	.LFE258-.LFB258
 4028 0068 00000000 		.4byte	.LFB259
 4029 006c 14000000 		.4byte	.LFE259-.LFB259
 4030 0070 00000000 		.4byte	.LFB260
 4031 0074 0A000000 		.4byte	.LFE260-.LFB260
 4032 0078 00000000 		.4byte	.LFB261
 4033 007c 3C000000 		.4byte	.LFE261-.LFB261
 4034 0080 00000000 		.4byte	.LFB262
 4035 0084 50000000 		.4byte	.LFE262-.LFB262
 4036 0088 00000000 		.4byte	.LFB263
 4037 008c 48000000 		.4byte	.LFE263-.LFB263
 4038 0090 00000000 		.4byte	.LFB264
 4039 0094 28000000 		.4byte	.LFE264-.LFB264
 4040 0098 00000000 		.4byte	.LFB265
 4041 009c 80000000 		.4byte	.LFE265-.LFB265
 4042 00a0 00000000 		.4byte	.LFB266
 4043 00a4 64000000 		.4byte	.LFE266-.LFB266
 4044 00a8 00000000 		.4byte	.LFB267
 4045 00ac 68000000 		.4byte	.LFE267-.LFB267
 4046 00b0 00000000 		.4byte	.LFB268
 4047 00b4 4C000000 		.4byte	.LFE268-.LFB268
 4048 00b8 00000000 		.4byte	.LFB269
 4049 00bc 28000000 		.4byte	.LFE269-.LFB269
 4050 00c0 00000000 		.4byte	.LFB270
 4051 00c4 28000000 		.4byte	.LFE270-.LFB270
 4052 00c8 00000000 		.4byte	0
 4053 00cc 00000000 		.4byte	0
 4054              		.section	.debug_ranges,"",%progbits
 4055              	.Ldebug_ranges0:
ARM GAS  C:\Users\Luis\AppData\Local\Temp\ccIW1H7e.s 			page 73


 4056 0000 00000000 		.4byte	.LFB116
 4057 0004 1A000000 		.4byte	.LFE116
 4058 0008 00000000 		.4byte	.LFB117
 4059 000c 1A000000 		.4byte	.LFE117
 4060 0010 00000000 		.4byte	.LFB156
 4061 0014 12000000 		.4byte	.LFE156
 4062 0018 00000000 		.4byte	.LFB157
 4063 001c 3C000000 		.4byte	.LFE157
 4064 0020 00000000 		.4byte	.LFB233
 4065 0024 0A000000 		.4byte	.LFE233
 4066 0028 00000000 		.4byte	.LFB234
 4067 002c 0A000000 		.4byte	.LFE234
 4068 0030 00000000 		.4byte	.LFB246
 4069 0034 18000000 		.4byte	.LFE246
 4070 0038 00000000 		.4byte	.LFB248
 4071 003c 18000000 		.4byte	.LFE248
 4072 0040 00000000 		.4byte	.LFB249
 4073 0044 18000000 		.4byte	.LFE249
 4074 0048 00000000 		.4byte	.LFB257
 4075 004c 14000000 		.4byte	.LFE257
 4076 0050 00000000 		.4byte	.LFB258
 4077 0054 14000000 		.4byte	.LFE258
 4078 0058 00000000 		.4byte	.LFB259
 4079 005c 14000000 		.4byte	.LFE259
 4080 0060 00000000 		.4byte	.LFB260
 4081 0064 0A000000 		.4byte	.LFE260
 4082 0068 00000000 		.4byte	.LFB261
 4083 006c 3C000000 		.4byte	.LFE261
 4084 0070 00000000 		.4byte	.LFB262
 4085 0074 50000000 		.4byte	.LFE262
 4086 0078 00000000 		.4byte	.LFB263
 4087 007c 48000000 		.4byte	.LFE263
 4088 0080 00000000 		.4byte	.LFB264
 4089 0084 28000000 		.4byte	.LFE264
 4090 0088 00000000 		.4byte	.LFB265
 4091 008c 80000000 		.4byte	.LFE265
 4092 0090 00000000 		.4byte	.LFB266
 4093 0094 64000000 		.4byte	.LFE266
 4094 0098 00000000 		.4byte	.LFB267
 4095 009c 68000000 		.4byte	.LFE267
 4096 00a0 00000000 		.4byte	.LFB268
 4097 00a4 4C000000 		.4byte	.LFE268
 4098 00a8 00000000 		.4byte	.LFB269
 4099 00ac 28000000 		.4byte	.LFE269
 4100 00b0 00000000 		.4byte	.LFB270
 4101 00b4 28000000 		.4byte	.LFE270
 4102 00b8 00000000 		.4byte	0
 4103 00bc 00000000 		.4byte	0
 4104              		.section	.debug_line,"",%progbits
 4105              	.Ldebug_line0:
 4106 0000 1D050000 		.section	.debug_str,"MS",%progbits,1
 4106      0200A602 
 4106      00000201 
 4106      FB0E0D00 
 4106      01010101 
 4107              	.LASF195:
 4108 0000 6F73616C 		.ascii	"osalThreadResumeI\000"
ARM GAS  C:\Users\Luis\AppData\Local\Temp\ccIW1H7e.s 			page 74


 4108      54687265 
 4108      61645265 
 4108      73756D65 
 4108      4900
 4109              	.LASF53:
 4110 0012 72656164 		.ascii	"ready_list_t\000"
 4110      795F6C69 
 4110      73745F74 
 4110      00
 4111              	.LASF109:
 4112 001f 73655F74 		.ascii	"se_time\000"
 4112      696D6500 
 4113              	.LASF196:
 4114 0027 6F73616C 		.ascii	"osalThreadResumeS\000"
 4114      54687265 
 4114      61645265 
 4114      73756D65 
 4114      5300
 4115              	.LASF2:
 4116 0039 73697A65 		.ascii	"size_t\000"
 4116      5F7400
 4117              	.LASF130:
 4118 0040 7264796D 		.ascii	"rdymsg\000"
 4118      736700
 4119              	.LASF159:
 4120 0047 61646373 		.ascii	"adcstate_t\000"
 4120      74617465 
 4120      5F7400
 4121              	.LASF83:
 4122 0052 6B65726E 		.ascii	"kernel_stats\000"
 4122      656C5F73 
 4122      74617473 
 4122      00
 4123              	.LASF102:
 4124 005f 4D304152 		.ascii	"M0AR\000"
 4124      00
 4125              	.LASF204:
 4126 0064 61646353 		.ascii	"adcStop\000"
 4126      746F7000 
 4127              	.LASF108:
 4128 006c 706F7274 		.ascii	"port_intctx\000"
 4128      5F696E74 
 4128      63747800 
 4129              	.LASF52:
 4130 0078 63685F74 		.ascii	"ch_threads_queue\000"
 4130      68726561 
 4130      64735F71 
 4130      75657565 
 4130      00
 4131              	.LASF72:
 4132 0089 73797374 		.ascii	"system_debug_t\000"
 4132      656D5F64 
 4132      65627567 
 4132      5F7400
 4133              	.LASF146:
 4134 0098 73747265 		.ascii	"stream\000"
 4134      616D00
ARM GAS  C:\Users\Luis\AppData\Local\Temp\ccIW1H7e.s 			page 75


 4135              	.LASF189:
 4136 009f 706F7274 		.ascii	"port_lock\000"
 4136      5F6C6F63 
 4136      6B00
 4137              	.LASF121:
 4138 00a9 776F7273 		.ascii	"worst\000"
 4138      7400
 4139              	.LASF156:
 4140 00af 4144435F 		.ascii	"ADC_ACTIVE\000"
 4140      41435449 
 4140      564500
 4141              	.LASF124:
 4142 00ba 74696D65 		.ascii	"time_measurement_t\000"
 4142      5F6D6561 
 4142      73757265 
 4142      6D656E74 
 4142      5F7400
 4143              	.LASF164:
 4144 00cd 61646365 		.ascii	"adcerror_t\000"
 4144      72726F72 
 4144      5F7400
 4145              	.LASF14:
 4146 00d8 6C6F6E67 		.ascii	"long long unsigned int\000"
 4146      206C6F6E 
 4146      6720756E 
 4146      7369676E 
 4146      65642069 
 4147              	.LASF117:
 4148 00ef 63685F74 		.ascii	"ch_trace_buffer_t\000"
 4148      72616365 
 4148      5F627566 
 4148      6665725F 
 4148      7400
 4149              	.LASF112:
 4150 0101 73655F73 		.ascii	"se_state\000"
 4150      74617465 
 4150      00
 4151              	.LASF138:
 4152 010a 735F7175 		.ascii	"s_queue\000"
 4152      65756500 
 4153              	.LASF131:
 4154 0112 65786974 		.ascii	"exitcode\000"
 4154      636F6465 
 4154      00
 4155              	.LASF150:
 4156 011b 76656374 		.ascii	"vector\000"
 4156      6F7200
 4157              	.LASF82:
 4158 0122 6D61696E 		.ascii	"mainthread\000"
 4158      74687265 
 4158      616400
 4159              	.LASF69:
 4160 012d 76697274 		.ascii	"virtual_timers_list_t\000"
 4160      75616C5F 
 4160      74696D65 
 4160      72735F6C 
 4160      6973745F 
ARM GAS  C:\Users\Luis\AppData\Local\Temp\ccIW1H7e.s 			page 76


 4161              	.LASF211:
 4162 0143 49544D5F 		.ascii	"ITM_RxBuffer\000"
 4162      52784275 
 4162      66666572 
 4162      00
 4163              	.LASF16:
 4164 0150 72747469 		.ascii	"rttime_t\000"
 4164      6D655F74 
 4164      00
 4165              	.LASF29:
 4166 0159 705F7072 		.ascii	"p_prio\000"
 4166      696F00
 4167              	.LASF95:
 4168 0160 4A535152 		.ascii	"JSQR\000"
 4168      00
 4169              	.LASF197:
 4170 0165 6F73616C 		.ascii	"osalMutexObjectInit\000"
 4170      4D757465 
 4170      784F626A 
 4170      65637449 
 4170      6E697400 
 4171              	.LASF145:
 4172 0179 6D757465 		.ascii	"mutex_t\000"
 4172      785F7400 
 4173              	.LASF12:
 4174 0181 6C6F6E67 		.ascii	"long long int\000"
 4174      206C6F6E 
 4174      6720696E 
 4174      7400
 4175              	.LASF1:
 4176 018f 7369676E 		.ascii	"signed char\000"
 4176      65642063 
 4176      68617200 
 4177              	.LASF44:
 4178 019b 705F6D70 		.ascii	"p_mpool\000"
 4178      6F6F6C00 
 4179              	.LASF141:
 4180 01a3 6D5F7175 		.ascii	"m_queue\000"
 4180      65756500 
 4181              	.LASF153:
 4182 01ab 4144435F 		.ascii	"ADC_UNINIT\000"
 4182      554E494E 
 4182      495400
 4183              	.LASF81:
 4184 01b6 76746C69 		.ascii	"vtlist\000"
 4184      737400
 4185              	.LASF190:
 4186 01bd 706F7274 		.ascii	"port_unlock\000"
 4186      5F756E6C 
 4186      6F636B00 
 4187              	.LASF173:
 4188 01c9 646D6173 		.ascii	"dmastp\000"
 4188      747000
 4189              	.LASF158:
 4190 01d0 4144435F 		.ascii	"ADC_ERROR\000"
 4190      4552524F 
 4190      5200
ARM GAS  C:\Users\Luis\AppData\Local\Temp\ccIW1H7e.s 			page 77


 4191              	.LASF166:
 4192 01da 73746174 		.ascii	"state\000"
 4192      6500
 4193              	.LASF177:
 4194 01e0 63697263 		.ascii	"circular\000"
 4194      756C6172 
 4194      00
 4195              	.LASF9:
 4196 01e9 6C6F6E67 		.ascii	"long int\000"
 4196      20696E74 
 4196      00
 4197              	.LASF162:
 4198 01f2 4144435F 		.ascii	"ADC_ERR_DMAFAILURE\000"
 4198      4552525F 
 4198      444D4146 
 4198      41494C55 
 4198      524500
 4199              	.LASF213:
 4200 0205 2E2E2F2E 		.ascii	"../../ChibiOS/os/hal/src/adc.c\000"
 4200      2E2F4368 
 4200      6962694F 
 4200      532F6F73 
 4200      2F68616C 
 4201              	.LASF176:
 4202 0224 61646365 		.ascii	"adcerrorcallback_t\000"
 4202      72726F72 
 4202      63616C6C 
 4202      6261636B 
 4202      5F7400
 4203              	.LASF18:
 4204 0237 74737461 		.ascii	"tstate_t\000"
 4204      74655F74 
 4204      00
 4205              	.LASF171:
 4206 0240 74687265 		.ascii	"thread\000"
 4206      616400
 4207              	.LASF79:
 4208 0247 63685F73 		.ascii	"ch_system\000"
 4208      79737465 
 4208      6D00
 4209              	.LASF110:
 4210 0251 73655F74 		.ascii	"se_tp\000"
 4210      7000
 4211              	.LASF6:
 4212 0257 75696E74 		.ascii	"uint16_t\000"
 4212      31365F74 
 4212      00
 4213              	.LASF100:
 4214 0260 4144435F 		.ascii	"ADC_TypeDef\000"
 4214      54797065 
 4214      44656600 
 4215              	.LASF31:
 4216 026c 705F6E65 		.ascii	"p_newer\000"
 4216      77657200 
 4217              	.LASF179:
 4218 0274 656E645F 		.ascii	"end_cb\000"
 4218      636200
ARM GAS  C:\Users\Luis\AppData\Local\Temp\ccIW1H7e.s 			page 78


 4219              	.LASF175:
 4220 027b 61646363 		.ascii	"adccallback_t\000"
 4220      616C6C62 
 4220      61636B5F 
 4220      7400
 4221              	.LASF160:
 4222 0289 61646373 		.ascii	"adcsample_t\000"
 4222      616D706C 
 4222      655F7400 
 4223              	.LASF58:
 4224 0295 725F6E65 		.ascii	"r_newer\000"
 4224      77657200 
 4225              	.LASF188:
 4226 029d 41444343 		.ascii	"ADCConfig\000"
 4226      6F6E6669 
 4226      6700
 4227              	.LASF105:
 4228 02a7 72656761 		.ascii	"regarm_t\000"
 4228      726D5F74 
 4228      00
 4229              	.LASF65:
 4230 02b0 76745F70 		.ascii	"vt_prev\000"
 4230      72657600 
 4231              	.LASF187:
 4232 02b8 64756D6D 		.ascii	"dummy\000"
 4232      7900
 4233              	.LASF193:
 4234 02be 6F73616C 		.ascii	"osalSysLock\000"
 4234      5379734C 
 4234      6F636B00 
 4235              	.LASF163:
 4236 02ca 4144435F 		.ascii	"ADC_ERR_OVERFLOW\000"
 4236      4552525F 
 4236      4F564552 
 4236      464C4F57 
 4236      00
 4237              	.LASF216:
 4238 02db 76616C75 		.ascii	"value\000"
 4238      6500
 4239              	.LASF76:
 4240 02e1 6C6F636B 		.ascii	"lock_cnt\000"
 4240      5F636E74 
 4240      00
 4241              	.LASF84:
 4242 02ea 69646C65 		.ascii	"idle_thread_wa\000"
 4242      5F746872 
 4242      6561645F 
 4242      776100
 4243              	.LASF23:
 4244 02f9 636E745F 		.ascii	"cnt_t\000"
 4244      7400
 4245              	.LASF34:
 4246 02ff 705F7374 		.ascii	"p_stklimit\000"
 4246      6B6C696D 
 4246      697400
 4247              	.LASF0:
 4248 030a 756E7369 		.ascii	"unsigned int\000"
ARM GAS  C:\Users\Luis\AppData\Local\Temp\ccIW1H7e.s 			page 79


 4248      676E6564 
 4248      20696E74 
 4248      00
 4249              	.LASF64:
 4250 0317 76745F6E 		.ascii	"vt_next\000"
 4250      65787400 
 4251              	.LASF201:
 4252 031f 6164634F 		.ascii	"adcObjectInit\000"
 4252      626A6563 
 4252      74496E69 
 4252      7400
 4253              	.LASF134:
 4254 032d 77747365 		.ascii	"wtsemp\000"
 4254      6D7000
 4255              	.LASF39:
 4256 0334 705F6D73 		.ascii	"p_msgqueue\000"
 4256      67717565 
 4256      756500
 4257              	.LASF165:
 4258 033f 41444344 		.ascii	"ADCDriver\000"
 4258      72697665 
 4258      7200
 4259              	.LASF46:
 4260 0349 746C7350 		.ascii	"tlsPtr\000"
 4260      747200
 4261              	.LASF148:
 4262 0350 69736869 		.ascii	"ishift\000"
 4262      667400
 4263              	.LASF139:
 4264 0357 735F636E 		.ascii	"s_cnt\000"
 4264      7400
 4265              	.LASF120:
 4266 035d 62657374 		.ascii	"best\000"
 4266      00
 4267              	.LASF7:
 4268 0362 73686F72 		.ascii	"short unsigned int\000"
 4268      7420756E 
 4268      7369676E 
 4268      65642069 
 4268      6E7400
 4269              	.LASF129:
 4270 0375 6B65726E 		.ascii	"kernel_stats_t\000"
 4270      656C5F73 
 4270      74617473 
 4270      5F7400
 4271              	.LASF49:
 4272 0384 63685F74 		.ascii	"ch_thread\000"
 4272      68726561 
 4272      6400
 4273              	.LASF155:
 4274 038e 4144435F 		.ascii	"ADC_READY\000"
 4274      52454144 
 4274      5900
 4275              	.LASF217:
 4276 0398 6F73616C 		.ascii	"osalThreadSuspendS\000"
 4276      54687265 
 4276      61645375 
ARM GAS  C:\Users\Luis\AppData\Local\Temp\ccIW1H7e.s 			page 80


 4276      7370656E 
 4276      645300
 4277              	.LASF21:
 4278 03ab 6D73675F 		.ascii	"msg_t\000"
 4278      7400
 4279              	.LASF122:
 4280 03b1 6C617374 		.ascii	"last\000"
 4280      00
 4281              	.LASF24:
 4282 03b6 75636E74 		.ascii	"ucnt_t\000"
 4282      5F7400
 4283              	.LASF149:
 4284 03bd 73656C66 		.ascii	"selfindex\000"
 4284      696E6465 
 4284      7800
 4285              	.LASF78:
 4286 03c7 63685F73 		.ascii	"ch_system_t\000"
 4286      79737465 
 4286      6D5F7400 
 4287              	.LASF17:
 4288 03d3 746D6F64 		.ascii	"tmode_t\000"
 4288      655F7400 
 4289              	.LASF178:
 4290 03db 6E756D5F 		.ascii	"num_channels\000"
 4290      6368616E 
 4290      6E656C73 
 4290      00
 4291              	.LASF128:
 4292 03e8 6D5F6372 		.ascii	"m_crit_isr\000"
 4292      69745F69 
 4292      737200
 4293              	.LASF54:
 4294 03f3 63685F72 		.ascii	"ch_ready_list\000"
 4294      65616479 
 4294      5F6C6973 
 4294      7400
 4295              	.LASF22:
 4296 0401 6576656E 		.ascii	"eventmask_t\000"
 4296      746D6173 
 4296      6B5F7400 
 4297              	.LASF218:
 4298 040d 61646349 		.ascii	"adcInit\000"
 4298      6E697400 
 4299              	.LASF210:
 4300 0415 61646352 		.ascii	"adcReleaseBus\000"
 4300      656C6561 
 4300      73654275 
 4300      7300
 4301              	.LASF106:
 4302 0423 73746B61 		.ascii	"stkalign_t\000"
 4302      6C69676E 
 4302      5F7400
 4303              	.LASF114:
 4304 042e 74625F73 		.ascii	"tb_size\000"
 4304      697A6500 
 4305              	.LASF119:
 4306 0436 746D5F63 		.ascii	"tm_calibration_t\000"
ARM GAS  C:\Users\Luis\AppData\Local\Temp\ccIW1H7e.s 			page 81


 4306      616C6962 
 4306      72617469 
 4306      6F6E5F74 
 4306      00
 4307              	.LASF170:
 4308 0447 67727070 		.ascii	"grpp\000"
 4308      00
 4309              	.LASF88:
 4310 044c 4A4F4652 		.ascii	"JOFR1\000"
 4310      3100
 4311              	.LASF89:
 4312 0452 4A4F4652 		.ascii	"JOFR2\000"
 4312      3200
 4313              	.LASF90:
 4314 0458 4A4F4652 		.ascii	"JOFR3\000"
 4314      3300
 4315              	.LASF168:
 4316 045e 73616D70 		.ascii	"samples\000"
 4316      6C657300 
 4317              	.LASF38:
 4318 0466 705F7761 		.ascii	"p_waiting\000"
 4318      6974696E 
 4318      6700
 4319              	.LASF85:
 4320 0470 73697A65 		.ascii	"sizetype\000"
 4320      74797065 
 4320      00
 4321              	.LASF47:
 4322 0479 74687265 		.ascii	"thread_reference_t\000"
 4322      61645F72 
 4322      65666572 
 4322      656E6365 
 4322      5F7400
 4323              	.LASF70:
 4324 048c 63685F76 		.ascii	"ch_virtual_timers_list\000"
 4324      69727475 
 4324      616C5F74 
 4324      696D6572 
 4324      735F6C69 
 4325              	.LASF133:
 4326 04a3 77747472 		.ascii	"wttrp\000"
 4326      7000
 4327              	.LASF115:
 4328 04a9 74625F70 		.ascii	"tb_ptr\000"
 4328      747200
 4329              	.LASF113:
 4330 04b0 63685F73 		.ascii	"ch_swc_event_t\000"
 4330      77635F65 
 4330      76656E74 
 4330      5F7400
 4331              	.LASF154:
 4332 04bf 4144435F 		.ascii	"ADC_STOP\000"
 4332      53544F50 
 4332      00
 4333              	.LASF71:
 4334 04c8 76745F6C 		.ascii	"vt_lasttime\000"
 4334      61737474 
ARM GAS  C:\Users\Luis\AppData\Local\Temp\ccIW1H7e.s 			page 82


 4334      696D6500 
 4335              	.LASF13:
 4336 04d4 75696E74 		.ascii	"uint64_t\000"
 4336      36345F74 
 4336      00
 4337              	.LASF32:
 4338 04dd 705F6F6C 		.ascii	"p_older\000"
 4338      64657200 
 4339              	.LASF99:
 4340 04e5 4A445234 		.ascii	"JDR4\000"
 4340      00
 4341              	.LASF57:
 4342 04ea 725F6374 		.ascii	"r_ctx\000"
 4342      7800
 4343              	.LASF86:
 4344 04f0 534D5052 		.ascii	"SMPR1\000"
 4344      3100
 4345              	.LASF87:
 4346 04f6 534D5052 		.ascii	"SMPR2\000"
 4346      3200
 4347              	.LASF143:
 4348 04fc 6D5F6E65 		.ascii	"m_next\000"
 4348      787400
 4349              	.LASF214:
 4350 0503 433A5C55 		.ascii	"C:\\Users\\Luis\\workspace\\ChibiOS 3.0.2\\examples"
 4350      73657273 
 4350      5C4C7569 
 4350      735C776F 
 4350      726B7370 
 4351 0531 5C445350 		.ascii	"\\DSP-Library\000"
 4351      2D4C6962 
 4351      72617279 
 4351      00
 4352              	.LASF60:
 4353 053e 725F6375 		.ascii	"r_current\000"
 4353      7272656E 
 4353      7400
 4354              	.LASF59:
 4355 0548 725F6F6C 		.ascii	"r_older\000"
 4355      64657200 
 4356              	.LASF92:
 4357 0550 53515231 		.ascii	"SQR1\000"
 4357      00
 4358              	.LASF93:
 4359 0555 53515232 		.ascii	"SQR2\000"
 4359      00
 4360              	.LASF94:
 4361 055a 53515233 		.ascii	"SQR3\000"
 4361      00
 4362              	.LASF123:
 4363 055f 63756D75 		.ascii	"cumulative\000"
 4363      6C617469 
 4363      766500
 4364              	.LASF206:
 4365 056a 61646353 		.ascii	"adcStartConversionI\000"
 4365      74617274 
 4365      436F6E76 
ARM GAS  C:\Users\Luis\AppData\Local\Temp\ccIW1H7e.s 			page 83


 4365      65727369 
 4365      6F6E4900 
 4366              	.LASF19:
 4367 057e 74726566 		.ascii	"trefs_t\000"
 4367      735F7400 
 4368              	.LASF116:
 4369 0586 74625F62 		.ascii	"tb_buffer\000"
 4369      75666665 
 4369      7200
 4370              	.LASF62:
 4371 0590 76697274 		.ascii	"virtual_timer_t\000"
 4371      75616C5F 
 4371      74696D65 
 4371      725F7400 
 4372              	.LASF28:
 4373 05a0 705F7072 		.ascii	"p_prev\000"
 4373      657600
 4374              	.LASF151:
 4375 05a7 73746D33 		.ascii	"stm32_dma_stream_t\000"
 4375      325F646D 
 4375      615F7374 
 4375      7265616D 
 4375      5F7400
 4376              	.LASF20:
 4377 05ba 74707269 		.ascii	"tprio_t\000"
 4377      6F5F7400 
 4378              	.LASF172:
 4379 05c2 6D757465 		.ascii	"mutex\000"
 4379      7800
 4380              	.LASF126:
 4381 05c8 6E5F6374 		.ascii	"n_ctxswc\000"
 4381      78737763 
 4381      00
 4382              	.LASF152:
 4383 05d1 5F426F6F 		.ascii	"_Bool\000"
 4383      6C00
 4384              	.LASF8:
 4385 05d7 696E7433 		.ascii	"int32_t\000"
 4385      325F7400 
 4386              	.LASF4:
 4387 05df 756E7369 		.ascii	"unsigned char\000"
 4387      676E6564 
 4387      20636861 
 4387      7200
 4388              	.LASF42:
 4389 05ed 705F6D74 		.ascii	"p_mtxlist\000"
 4389      786C6973 
 4389      7400
 4390              	.LASF5:
 4391 05f7 73686F72 		.ascii	"short int\000"
 4391      7420696E 
 4391      7400
 4392              	.LASF35:
 4393 0601 705F7374 		.ascii	"p_state\000"
 4393      61746500 
 4394              	.LASF180:
 4395 0609 6572726F 		.ascii	"error_cb\000"
ARM GAS  C:\Users\Luis\AppData\Local\Temp\ccIW1H7e.s 			page 84


 4395      725F6362 
 4395      00
 4396              	.LASF56:
 4397 0612 725F7072 		.ascii	"r_prio\000"
 4397      696F00
 4398              	.LASF136:
 4399 0619 65776D61 		.ascii	"ewmask\000"
 4399      736B00
 4400              	.LASF27:
 4401 0620 705F6E65 		.ascii	"p_next\000"
 4401      787400
 4402              	.LASF36:
 4403 0627 705F666C 		.ascii	"p_flags\000"
 4403      61677300 
 4404              	.LASF203:
 4405 062f 5F5F6675 		.ascii	"__func__\000"
 4405      6E635F5F 
 4405      00
 4406              	.LASF45:
 4407 0638 705F7374 		.ascii	"p_stats\000"
 4407      61747300 
 4408              	.LASF192:
 4409 0640 63685379 		.ascii	"chSysLock\000"
 4409      734C6F63 
 4409      6B00
 4410              	.LASF91:
 4411 064a 4A4F4652 		.ascii	"JOFR4\000"
 4411      3400
 4412              	.LASF194:
 4413 0650 6F73616C 		.ascii	"osalSysUnlock\000"
 4413      53797355 
 4413      6E6C6F63 
 4413      6B00
 4414              	.LASF40:
 4415 065e 705F6D73 		.ascii	"p_msg\000"
 4415      6700
 4416              	.LASF137:
 4417 0664 63685F73 		.ascii	"ch_semaphore\000"
 4417      656D6170 
 4417      686F7265 
 4417      00
 4418              	.LASF41:
 4419 0671 705F6570 		.ascii	"p_epending\000"
 4419      656E6469 
 4419      6E6700
 4420              	.LASF147:
 4421 067c 69666372 		.ascii	"ifcr\000"
 4421      00
 4422              	.LASF10:
 4423 0681 75696E74 		.ascii	"uint32_t\000"
 4423      33325F74 
 4423      00
 4424              	.LASF135:
 4425 068a 77746D74 		.ascii	"wtmtxp\000"
 4425      787000
 4426              	.LASF55:
 4427 0691 725F7175 		.ascii	"r_queue\000"
ARM GAS  C:\Users\Luis\AppData\Local\Temp\ccIW1H7e.s 			page 85


 4427      65756500 
 4428              	.LASF66:
 4429 0699 76745F64 		.ascii	"vt_delta\000"
 4429      656C7461 
 4429      00
 4430              	.LASF50:
 4431 06a2 63685F74 		.ascii	"ch_threads_list\000"
 4431      68726561 
 4431      64735F6C 
 4431      69737400 
 4432              	.LASF11:
 4433 06b2 6C6F6E67 		.ascii	"long unsigned int\000"
 4433      20756E73 
 4433      69676E65 
 4433      6420696E 
 4433      7400
 4434              	.LASF169:
 4435 06c4 64657074 		.ascii	"depth\000"
 4435      6800
 4436              	.LASF144:
 4437 06ca 63686172 		.ascii	"char\000"
 4437      00
 4438              	.LASF167:
 4439 06cf 636F6E66 		.ascii	"config\000"
 4439      696700
 4440              	.LASF199:
 4441 06d6 6F73616C 		.ascii	"osalMutexUnlock\000"
 4441      4D757465 
 4441      78556E6C 
 4441      6F636B00 
 4442              	.LASF212:
 4443 06e6 474E5520 		.ascii	"GNU C 4.8.3 20131129 (release) [ARM/embedded-4_8-br"
 4443      4320342E 
 4443      382E3320 
 4443      32303133 
 4443      31313239 
 4444 0719 616E6368 		.ascii	"anch revision 205641] -mcpu=cortex-m4 -mapcs-frame "
 4444      20726576 
 4444      6973696F 
 4444      6E203230 
 4444      35363431 
 4445 074c 2D6D6E6F 		.ascii	"-mno-thumb-interwork -mthumb -ggdb -O0 -falign-func"
 4445      2D746875 
 4445      6D622D69 
 4445      6E746572 
 4445      776F726B 
 4446 077f 74696F6E 		.ascii	"tions=16 -ffunction-sections -fdata-sections -fno-c"
 4446      733D3136 
 4446      202D6666 
 4446      756E6374 
 4446      696F6E2D 
 4447 07b2 6F6D6D6F 		.ascii	"ommon\000"
 4447      6E00
 4448              	.LASF183:
 4449 07b8 73717231 		.ascii	"sqr1\000"
 4449      00
 4450              	.LASF184:
ARM GAS  C:\Users\Luis\AppData\Local\Temp\ccIW1H7e.s 			page 86


 4451 07bd 73717232 		.ascii	"sqr2\000"
 4451      00
 4452              	.LASF185:
 4453 07c2 73717233 		.ascii	"sqr3\000"
 4453      00
 4454              	.LASF25:
 4455 07c7 73797374 		.ascii	"systime_t\000"
 4455      696D655F 
 4455      7400
 4456              	.LASF43:
 4457 07d1 705F7265 		.ascii	"p_realprio\000"
 4457      616C7072 
 4457      696F00
 4458              	.LASF61:
 4459 07dc 76746675 		.ascii	"vtfunc_t\000"
 4459      6E635F74 
 4459      00
 4460              	.LASF125:
 4461 07e5 6E5F6972 		.ascii	"n_irq\000"
 4461      7100
 4462              	.LASF215:
 4463 07eb 5F5F7365 		.ascii	"__set_BASEPRI\000"
 4463      745F4241 
 4463      53455052 
 4463      4900
 4464              	.LASF198:
 4465 07f9 6F73616C 		.ascii	"osalMutexLock\000"
 4465      4D757465 
 4465      784C6F63 
 4465      6B00
 4466              	.LASF101:
 4467 0807 4E445452 		.ascii	"NDTR\000"
 4467      00
 4468              	.LASF74:
 4469 080c 70616E69 		.ascii	"panic_msg\000"
 4469      635F6D73 
 4469      6700
 4470              	.LASF118:
 4471 0816 6F666673 		.ascii	"offset\000"
 4471      657400
 4472              	.LASF104:
 4473 081d 444D415F 		.ascii	"DMA_Stream_TypeDef\000"
 4473      53747265 
 4473      616D5F54 
 4473      79706544 
 4473      656600
 4474              	.LASF107:
 4475 0830 636F6E74 		.ascii	"context\000"
 4475      65787400 
 4476              	.LASF63:
 4477 0838 63685F76 		.ascii	"ch_virtual_timer\000"
 4477      69727475 
 4477      616C5F74 
 4477      696D6572 
 4477      00
 4478              	.LASF205:
 4479 0849 61646353 		.ascii	"adcStartConversion\000"
ARM GAS  C:\Users\Luis\AppData\Local\Temp\ccIW1H7e.s 			page 87


 4479      74617274 
 4479      436F6E76 
 4479      65727369 
 4479      6F6E00
 4480              	.LASF15:
 4481 085c 7274636E 		.ascii	"rtcnt_t\000"
 4481      745F7400 
 4482              	.LASF103:
 4483 0864 4D314152 		.ascii	"M1AR\000"
 4483      00
 4484              	.LASF68:
 4485 0869 76745F70 		.ascii	"vt_par\000"
 4485      617200
 4486              	.LASF202:
 4487 0870 61646353 		.ascii	"adcStart\000"
 4487      74617274 
 4487      00
 4488              	.LASF51:
 4489 0879 74687265 		.ascii	"threads_queue_t\000"
 4489      6164735F 
 4489      71756575 
 4489      655F7400 
 4490              	.LASF140:
 4491 0889 63685F6D 		.ascii	"ch_mutex\000"
 4491      75746578 
 4491      00
 4492              	.LASF37:
 4493 0892 705F7265 		.ascii	"p_refs\000"
 4493      667300
 4494              	.LASF75:
 4495 0899 6973725F 		.ascii	"isr_cnt\000"
 4495      636E7400 
 4496              	.LASF181:
 4497 08a1 736D7072 		.ascii	"smpr1\000"
 4497      3100
 4498              	.LASF182:
 4499 08a7 736D7072 		.ascii	"smpr2\000"
 4499      3200
 4500              	.LASF80:
 4501 08ad 726C6973 		.ascii	"rlist\000"
 4501      7400
 4502              	.LASF3:
 4503 08b3 75696E74 		.ascii	"uint8_t\000"
 4503      385F7400 
 4504              	.LASF208:
 4505 08bb 61646353 		.ascii	"adcStopConversionI\000"
 4505      746F7043 
 4505      6F6E7665 
 4505      7273696F 
 4505      6E4900
 4506              	.LASF186:
 4507 08ce 41444343 		.ascii	"ADCConversionGroup\000"
 4507      6F6E7665 
 4507      7273696F 
 4507      6E47726F 
 4507      757000
 4508              	.LASF96:
ARM GAS  C:\Users\Luis\AppData\Local\Temp\ccIW1H7e.s 			page 88


 4509 08e1 4A445231 		.ascii	"JDR1\000"
 4509      00
 4510              	.LASF97:
 4511 08e6 4A445232 		.ascii	"JDR2\000"
 4511      00
 4512              	.LASF98:
 4513 08eb 4A445233 		.ascii	"JDR3\000"
 4513      00
 4514              	.LASF174:
 4515 08f0 646D616D 		.ascii	"dmamode\000"
 4515      6F646500 
 4516              	.LASF132:
 4517 08f8 77746F62 		.ascii	"wtobjp\000"
 4517      6A7000
 4518              	.LASF157:
 4519 08ff 4144435F 		.ascii	"ADC_COMPLETE\000"
 4519      434F4D50 
 4519      4C455445 
 4519      00
 4520              	.LASF33:
 4521 090c 705F6E61 		.ascii	"p_name\000"
 4521      6D6500
 4522              	.LASF161:
 4523 0913 6164635F 		.ascii	"adc_channels_num_t\000"
 4523      6368616E 
 4523      6E656C73 
 4523      5F6E756D 
 4523      5F7400
 4524              	.LASF48:
 4525 0926 74687265 		.ascii	"threads_list_t\000"
 4525      6164735F 
 4525      6C697374 
 4525      5F7400
 4526              	.LASF77:
 4527 0935 74726163 		.ascii	"trace_buffer\000"
 4527      655F6275 
 4527      66666572 
 4527      00
 4528              	.LASF191:
 4529 0942 63685379 		.ascii	"chSysUnlock\000"
 4529      73556E6C 
 4529      6F636B00 
 4530              	.LASF73:
 4531 094e 63685F73 		.ascii	"ch_system_debug\000"
 4531      79737465 
 4531      6D5F6465 
 4531      62756700 
 4532              	.LASF200:
 4533 095e 61646370 		.ascii	"adcp\000"
 4533      00
 4534              	.LASF219:
 4535 0963 61646343 		.ascii	"adcConvert\000"
 4535      6F6E7665 
 4535      727400
 4536              	.LASF207:
 4537 096e 61646353 		.ascii	"adcStopConversion\000"
 4537      746F7043 
ARM GAS  C:\Users\Luis\AppData\Local\Temp\ccIW1H7e.s 			page 89


 4537      6F6E7665 
 4537      7273696F 
 4537      6E00
 4538              	.LASF127:
 4539 0980 6D5F6372 		.ascii	"m_crit_thd\000"
 4539      69745F74 
 4539      686400
 4540              	.LASF142:
 4541 098b 6D5F6F77 		.ascii	"m_owner\000"
 4541      6E657200 
 4542              	.LASF209:
 4543 0993 61646341 		.ascii	"adcAcquireBus\000"
 4543      63717569 
 4543      72654275 
 4543      7300
 4544              	.LASF26:
 4545 09a1 74687265 		.ascii	"thread_t\000"
 4545      61645F74 
 4545      00
 4546              	.LASF111:
 4547 09aa 73655F77 		.ascii	"se_wtobjp\000"
 4547      746F626A 
 4547      7000
 4548              	.LASF30:
 4549 09b4 705F6374 		.ascii	"p_ctx\000"
 4549      7800
 4550              	.LASF67:
 4551 09ba 76745F66 		.ascii	"vt_func\000"
 4551      756E6300 
 4552              		.ident	"GCC: (GNU Tools for ARM Embedded Processors) 4.8.3 20131129 (release) [ARM/embedded-4_8-br
ARM GAS  C:\Users\Luis\AppData\Local\Temp\ccIW1H7e.s 			page 90


DEFINED SYMBOLS
                            *ABS*:00000000 adc.c
C:\Users\Luis\AppData\Local\Temp\ccIW1H7e.s:19     .text.port_lock:00000000 $t
C:\Users\Luis\AppData\Local\Temp\ccIW1H7e.s:24     .text.port_lock:00000000 port_lock
C:\Users\Luis\AppData\Local\Temp\ccIW1H7e.s:62     .text.port_unlock:00000000 $t
C:\Users\Luis\AppData\Local\Temp\ccIW1H7e.s:67     .text.port_unlock:00000000 port_unlock
C:\Users\Luis\AppData\Local\Temp\ccIW1H7e.s:103    .text.chSysLock:00000000 $t
C:\Users\Luis\AppData\Local\Temp\ccIW1H7e.s:108    .text.chSysLock:00000000 chSysLock
C:\Users\Luis\AppData\Local\Temp\ccIW1H7e.s:133    .text.chSysUnlock:00000000 $t
C:\Users\Luis\AppData\Local\Temp\ccIW1H7e.s:138    .text.chSysUnlock:00000000 chSysUnlock
C:\Users\Luis\AppData\Local\Temp\ccIW1H7e.s:179    .text.chSysUnlock:00000034 $d
C:\Users\Luis\AppData\Local\Temp\ccIW1H7e.s:1130   .rodata.__func__.5842:00000000 __func__.5842
C:\Users\Luis\AppData\Local\Temp\ccIW1H7e.s:185    .text.osalSysLock:00000000 $t
C:\Users\Luis\AppData\Local\Temp\ccIW1H7e.s:190    .text.osalSysLock:00000000 osalSysLock
C:\Users\Luis\AppData\Local\Temp\ccIW1H7e.s:211    .text.osalSysUnlock:00000000 $t
C:\Users\Luis\AppData\Local\Temp\ccIW1H7e.s:216    .text.osalSysUnlock:00000000 osalSysUnlock
C:\Users\Luis\AppData\Local\Temp\ccIW1H7e.s:236    .text.osalThreadSuspendS:00000000 $t
C:\Users\Luis\AppData\Local\Temp\ccIW1H7e.s:241    .text.osalThreadSuspendS:00000000 osalThreadSuspendS
C:\Users\Luis\AppData\Local\Temp\ccIW1H7e.s:270    .text.osalThreadResumeI:00000000 $t
C:\Users\Luis\AppData\Local\Temp\ccIW1H7e.s:275    .text.osalThreadResumeI:00000000 osalThreadResumeI
C:\Users\Luis\AppData\Local\Temp\ccIW1H7e.s:304    .text.osalThreadResumeS:00000000 $t
C:\Users\Luis\AppData\Local\Temp\ccIW1H7e.s:309    .text.osalThreadResumeS:00000000 osalThreadResumeS
C:\Users\Luis\AppData\Local\Temp\ccIW1H7e.s:338    .text.osalMutexObjectInit:00000000 $t
C:\Users\Luis\AppData\Local\Temp\ccIW1H7e.s:343    .text.osalMutexObjectInit:00000000 osalMutexObjectInit
C:\Users\Luis\AppData\Local\Temp\ccIW1H7e.s:370    .text.osalMutexLock:00000000 $t
C:\Users\Luis\AppData\Local\Temp\ccIW1H7e.s:375    .text.osalMutexLock:00000000 osalMutexLock
C:\Users\Luis\AppData\Local\Temp\ccIW1H7e.s:402    .text.osalMutexUnlock:00000000 $t
C:\Users\Luis\AppData\Local\Temp\ccIW1H7e.s:407    .text.osalMutexUnlock:00000000 osalMutexUnlock
C:\Users\Luis\AppData\Local\Temp\ccIW1H7e.s:434    .text.adcInit:00000000 $t
C:\Users\Luis\AppData\Local\Temp\ccIW1H7e.s:440    .text.adcInit:00000000 adcInit
C:\Users\Luis\AppData\Local\Temp\ccIW1H7e.s:461    .text.adcObjectInit:00000000 $t
C:\Users\Luis\AppData\Local\Temp\ccIW1H7e.s:467    .text.adcObjectInit:00000000 adcObjectInit
C:\Users\Luis\AppData\Local\Temp\ccIW1H7e.s:520    .text.adcStart:00000000 $t
C:\Users\Luis\AppData\Local\Temp\ccIW1H7e.s:526    .text.adcStart:00000000 adcStart
C:\Users\Luis\AppData\Local\Temp\ccIW1H7e.s:586    .text.adcStart:0000004c $d
C:\Users\Luis\AppData\Local\Temp\ccIW1H7e.s:1124   .rodata.__func__.7913:00000000 __func__.7913
C:\Users\Luis\AppData\Local\Temp\ccIW1H7e.s:591    .text.adcStop:00000000 $t
C:\Users\Luis\AppData\Local\Temp\ccIW1H7e.s:597    .text.adcStop:00000000 adcStop
C:\Users\Luis\AppData\Local\Temp\ccIW1H7e.s:652    .text.adcStop:00000044 $d
C:\Users\Luis\AppData\Local\Temp\ccIW1H7e.s:1136   .rodata.__func__.7917:00000000 __func__.7917
C:\Users\Luis\AppData\Local\Temp\ccIW1H7e.s:657    .text.adcStartConversion:00000000 $t
C:\Users\Luis\AppData\Local\Temp\ccIW1H7e.s:663    .text.adcStartConversion:00000000 adcStartConversion
C:\Users\Luis\AppData\Local\Temp\ccIW1H7e.s:706    .text.adcStartConversionI:00000000 adcStartConversionI
C:\Users\Luis\AppData\Local\Temp\ccIW1H7e.s:700    .text.adcStartConversionI:00000000 $t
C:\Users\Luis\AppData\Local\Temp\ccIW1H7e.s:792    .text.adcStartConversionI:0000007c $d
C:\Users\Luis\AppData\Local\Temp\ccIW1H7e.s:1142   .rodata.__func__.7930:00000000 __func__.7930
C:\Users\Luis\AppData\Local\Temp\ccIW1H7e.s:797    .text.adcStopConversion:00000000 $t
C:\Users\Luis\AppData\Local\Temp\ccIW1H7e.s:803    .text.adcStopConversion:00000000 adcStopConversion
C:\Users\Luis\AppData\Local\Temp\ccIW1H7e.s:874    .text.adcStopConversion:00000060 $d
C:\Users\Luis\AppData\Local\Temp\ccIW1H7e.s:1148   .rodata.__func__.7934:00000000 __func__.7934
C:\Users\Luis\AppData\Local\Temp\ccIW1H7e.s:879    .text.adcStopConversionI:00000000 $t
C:\Users\Luis\AppData\Local\Temp\ccIW1H7e.s:885    .text.adcStopConversionI:00000000 adcStopConversionI
C:\Users\Luis\AppData\Local\Temp\ccIW1H7e.s:957    .text.adcStopConversionI:00000064 $d
C:\Users\Luis\AppData\Local\Temp\ccIW1H7e.s:1154   .rodata.__func__.7938:00000000 __func__.7938
C:\Users\Luis\AppData\Local\Temp\ccIW1H7e.s:962    .text.adcConvert:00000000 $t
C:\Users\Luis\AppData\Local\Temp\ccIW1H7e.s:968    .text.adcConvert:00000000 adcConvert
C:\Users\Luis\AppData\Local\Temp\ccIW1H7e.s:1022   .text.adcConvert:00000048 $d
ARM GAS  C:\Users\Luis\AppData\Local\Temp\ccIW1H7e.s 			page 91


C:\Users\Luis\AppData\Local\Temp\ccIW1H7e.s:1160   .rodata.__func__.7946:00000000 __func__.7946
C:\Users\Luis\AppData\Local\Temp\ccIW1H7e.s:1027   .text.adcAcquireBus:00000000 $t
C:\Users\Luis\AppData\Local\Temp\ccIW1H7e.s:1033   .text.adcAcquireBus:00000000 adcAcquireBus
C:\Users\Luis\AppData\Local\Temp\ccIW1H7e.s:1069   .text.adcAcquireBus:00000024 $d
C:\Users\Luis\AppData\Local\Temp\ccIW1H7e.s:1166   .rodata.__func__.7950:00000000 __func__.7950
C:\Users\Luis\AppData\Local\Temp\ccIW1H7e.s:1074   .text.adcReleaseBus:00000000 $t
C:\Users\Luis\AppData\Local\Temp\ccIW1H7e.s:1080   .text.adcReleaseBus:00000000 adcReleaseBus
C:\Users\Luis\AppData\Local\Temp\ccIW1H7e.s:1116   .text.adcReleaseBus:00000024 $d
C:\Users\Luis\AppData\Local\Temp\ccIW1H7e.s:1172   .rodata.__func__.7954:00000000 __func__.7954
C:\Users\Luis\AppData\Local\Temp\ccIW1H7e.s:1121   .rodata.__func__.7913:00000000 $d
C:\Users\Luis\AppData\Local\Temp\ccIW1H7e.s:1127   .rodata.__func__.5842:00000000 $d
C:\Users\Luis\AppData\Local\Temp\ccIW1H7e.s:1133   .rodata.__func__.7917:00000000 $d
C:\Users\Luis\AppData\Local\Temp\ccIW1H7e.s:1139   .rodata.__func__.7930:00000000 $d
C:\Users\Luis\AppData\Local\Temp\ccIW1H7e.s:1145   .rodata.__func__.7934:00000000 $d
C:\Users\Luis\AppData\Local\Temp\ccIW1H7e.s:1151   .rodata.__func__.7938:00000000 $d
C:\Users\Luis\AppData\Local\Temp\ccIW1H7e.s:1157   .rodata.__func__.7946:00000000 $d
C:\Users\Luis\AppData\Local\Temp\ccIW1H7e.s:1163   .rodata.__func__.7950:00000000 $d
C:\Users\Luis\AppData\Local\Temp\ccIW1H7e.s:1169   .rodata.__func__.7954:00000000 $d
                     .debug_frame:00000010 $d
C:\Users\Luis\AppData\Local\Temp\ccIW1H7e.s:184    .text.chSysUnlock:0000003c $t
C:\Users\Luis\AppData\Local\Temp\ccIW1H7e.s:656    .text.adcStop:00000048 $t
C:\Users\Luis\AppData\Local\Temp\ccIW1H7e.s:878    .text.adcStopConversion:00000064 $t
C:\Users\Luis\AppData\Local\Temp\ccIW1H7e.s:961    .text.adcStopConversionI:00000068 $t
C:\Users\Luis\AppData\Local\Temp\ccIW1H7e.s:1026   .text.adcConvert:0000004c $t
C:\Users\Luis\AppData\Local\Temp\ccIW1H7e.s:1073   .text.adcAcquireBus:00000028 $t
C:\Users\Luis\AppData\Local\Temp\ccIW1H7e.s:1120   .text.adcReleaseBus:00000028 $t

UNDEFINED SYMBOLS
_stats_start_measure_crit_thd
_dbg_check_lock
_dbg_check_unlock
_stats_stop_measure_crit_thd
chSysHalt
ch
chThdSuspendS
chThdResumeI
chThdResumeS
chMtxObjectInit
chMtxLock
chMtxUnlock
adc_lld_init
adc_lld_start
adc_lld_stop
chDbgCheckClassI
adc_lld_start_conversion
adc_lld_stop_conversion
