ARM GAS  C:\Users\Luis\AppData\Local\Temp\ccrWllZq.s 			page 1


   1              		.syntax unified
   2              		.cpu cortex-m4
   3              		.fpu softvfp
   4              		.eabi_attribute 20, 1
   5              		.eabi_attribute 21, 1
   6              		.eabi_attribute 23, 3
   7              		.eabi_attribute 24, 1
   8              		.eabi_attribute 25, 1
   9              		.eabi_attribute 26, 1
  10              		.eabi_attribute 30, 6
  11              		.eabi_attribute 34, 1
  12              		.eabi_attribute 18, 4
  13              		.thumb
  14              		.file	"chcond.c"
  15              		.text
  16              	.Ltext0:
  17              		.cfi_sections	.debug_frame
  18              		.section	.text.port_lock,"ax",%progbits
  19              		.align	2
  20              		.p2align 4,,15
  21              		.thumb
  22              		.thumb_func
  23              		.type	port_lock, %function
  24              	port_lock:
  25              	.LFB116:
  26              		.file 1 "../../ChibiOS/os/rt/ports/ARMCMx/chcore_v7m.h"
  27              		.loc 1 444 0
  28              		.cfi_startproc
  29              		@ args = 0, pretend = 0, frame = 8
  30              		@ frame_needed = 1, uses_anonymous_args = 0
  31              		@ link register save eliminated.
  32 0000 80B4     		push	{r7}
  33              		.cfi_def_cfa_offset 4
  34              		.cfi_offset 7, -4
  35 0002 83B0     		sub	sp, sp, #12
  36              		.cfi_def_cfa_offset 16
  37 0004 00AF     		add	r7, sp, #0
  38              		.cfi_def_cfa_register 7
  39 0006 2023     		movs	r3, #32
  40 0008 7B60     		str	r3, [r7, #4]
  41              	.LBB6:
  42              	.LBB7:
  43              		.file 2 "../../ChibiOS/os/ext/CMSIS/include/core_cmFunc.h"
  44              		.loc 2 546 0
  45 000a 7B68     		ldr	r3, [r7, #4]
  46              	@ 546 "../../ChibiOS/os/ext/CMSIS/include/core_cmFunc.h" 1
  47 000c 83F31188 		MSR basepri, r3
  48              	@ 0 "" 2
  49              		.thumb
  50              	.LBE7:
  51              	.LBE6:
  52              		.loc 1 451 0
  53 0010 0C37     		adds	r7, r7, #12
  54 0012 BD46     		mov	sp, r7
  55              		@ sp needed
  56 0014 5DF8047B 		ldr	r7, [sp], #4
  57 0018 7047     		bx	lr
ARM GAS  C:\Users\Luis\AppData\Local\Temp\ccrWllZq.s 			page 2


  58              		.cfi_endproc
  59              	.LFE116:
  60              		.size	port_lock, .-port_lock
  61 001a 00BFAFF3 		.section	.text.port_unlock,"ax",%progbits
  61      0080
  62              		.align	2
  63              		.p2align 4,,15
  64              		.thumb
  65              		.thumb_func
  66              		.type	port_unlock, %function
  67              	port_unlock:
  68              	.LFB117:
  69              		.loc 1 458 0
  70              		.cfi_startproc
  71              		@ args = 0, pretend = 0, frame = 8
  72              		@ frame_needed = 1, uses_anonymous_args = 0
  73              		@ link register save eliminated.
  74 0000 80B4     		push	{r7}
  75              		.cfi_def_cfa_offset 4
  76              		.cfi_offset 7, -4
  77 0002 83B0     		sub	sp, sp, #12
  78              		.cfi_def_cfa_offset 16
  79 0004 00AF     		add	r7, sp, #0
  80              		.cfi_def_cfa_register 7
  81 0006 0023     		movs	r3, #0
  82 0008 7B60     		str	r3, [r7, #4]
  83              	.LBB8:
  84              	.LBB9:
  85              		.loc 2 546 0
  86 000a 7B68     		ldr	r3, [r7, #4]
  87              	@ 546 "../../ChibiOS/os/ext/CMSIS/include/core_cmFunc.h" 1
  88 000c 83F31188 		MSR basepri, r3
  89              	@ 0 "" 2
  90              		.thumb
  91              	.LBE9:
  92              	.LBE8:
  93              		.loc 1 465 0
  94 0010 0C37     		adds	r7, r7, #12
  95 0012 BD46     		mov	sp, r7
  96              		@ sp needed
  97 0014 5DF8047B 		ldr	r7, [sp], #4
  98 0018 7047     		bx	lr
  99              		.cfi_endproc
 100              	.LFE117:
 101              		.size	port_unlock, .-port_unlock
 102 001a 00BFAFF3 		.section	.text.queue_init,"ax",%progbits
 102      0080
 103              		.align	2
 104              		.p2align 4,,15
 105              		.thumb
 106              		.thumb_func
 107              		.type	queue_init, %function
 108              	queue_init:
 109              	.LFB139:
 110              		.file 3 "../../ChibiOS/os/rt/include/chschd.h"
 111              		.loc 3 602 0
 112              		.cfi_startproc
ARM GAS  C:\Users\Luis\AppData\Local\Temp\ccrWllZq.s 			page 3


 113              		@ args = 0, pretend = 0, frame = 8
 114              		@ frame_needed = 1, uses_anonymous_args = 0
 115              		@ link register save eliminated.
 116 0000 80B4     		push	{r7}
 117              		.cfi_def_cfa_offset 4
 118              		.cfi_offset 7, -4
 119 0002 83B0     		sub	sp, sp, #12
 120              		.cfi_def_cfa_offset 16
 121 0004 00AF     		add	r7, sp, #0
 122              		.cfi_def_cfa_register 7
 123 0006 7860     		str	r0, [r7, #4]
 124              		.loc 3 604 0
 125 0008 7B68     		ldr	r3, [r7, #4]
 126 000a 7A68     		ldr	r2, [r7, #4]
 127 000c 1A60     		str	r2, [r3]
 128              		.loc 3 605 0
 129 000e 7B68     		ldr	r3, [r7, #4]
 130 0010 7A68     		ldr	r2, [r7, #4]
 131 0012 5A60     		str	r2, [r3, #4]
 132              		.loc 3 606 0
 133 0014 0C37     		adds	r7, r7, #12
 134 0016 BD46     		mov	sp, r7
 135              		@ sp needed
 136 0018 5DF8047B 		ldr	r7, [sp], #4
 137 001c 7047     		bx	lr
 138              		.cfi_endproc
 139              	.LFE139:
 140              		.size	queue_init, .-queue_init
 141 001e 00BF     		.section	.text.queue_notempty,"ax",%progbits
 142              		.align	2
 143              		.p2align 4,,15
 144              		.thumb
 145              		.thumb_func
 146              		.type	queue_notempty, %function
 147              	queue_notempty:
 148              	.LFB141:
 149              		.loc 3 629 0
 150              		.cfi_startproc
 151              		@ args = 0, pretend = 0, frame = 8
 152              		@ frame_needed = 1, uses_anonymous_args = 0
 153              		@ link register save eliminated.
 154 0000 80B4     		push	{r7}
 155              		.cfi_def_cfa_offset 4
 156              		.cfi_offset 7, -4
 157 0002 83B0     		sub	sp, sp, #12
 158              		.cfi_def_cfa_offset 16
 159 0004 00AF     		add	r7, sp, #0
 160              		.cfi_def_cfa_register 7
 161 0006 7860     		str	r0, [r7, #4]
 162              		.loc 3 631 0
 163 0008 7B68     		ldr	r3, [r7, #4]
 164 000a 1A68     		ldr	r2, [r3]
 165 000c 7B68     		ldr	r3, [r7, #4]
 166 000e 9A42     		cmp	r2, r3
 167 0010 0CBF     		ite	eq
 168 0012 0023     		moveq	r3, #0
 169 0014 0123     		movne	r3, #1
ARM GAS  C:\Users\Luis\AppData\Local\Temp\ccrWllZq.s 			page 4


 170 0016 DBB2     		uxtb	r3, r3
 171              		.loc 3 632 0
 172 0018 1846     		mov	r0, r3
 173 001a 0C37     		adds	r7, r7, #12
 174 001c BD46     		mov	sp, r7
 175              		@ sp needed
 176 001e 5DF8047B 		ldr	r7, [sp], #4
 177 0022 7047     		bx	lr
 178              		.cfi_endproc
 179              	.LFE141:
 180              		.size	queue_notempty, .-queue_notempty
 181 0024 AFF30080 		.section	.text.queue_prio_insert,"ax",%progbits
 181      AFF30080 
 181      AFF30080 
 182              		.align	2
 183              		.p2align 4,,15
 184              		.thumb
 185              		.thumb_func
 186              		.type	queue_prio_insert, %function
 187              	queue_prio_insert:
 188              	.LFB144:
 189              		.loc 3 651 0
 190              		.cfi_startproc
 191              		@ args = 0, pretend = 0, frame = 16
 192              		@ frame_needed = 1, uses_anonymous_args = 0
 193              		@ link register save eliminated.
 194 0000 80B4     		push	{r7}
 195              		.cfi_def_cfa_offset 4
 196              		.cfi_offset 7, -4
 197 0002 85B0     		sub	sp, sp, #20
 198              		.cfi_def_cfa_offset 24
 199 0004 00AF     		add	r7, sp, #0
 200              		.cfi_def_cfa_register 7
 201 0006 7860     		str	r0, [r7, #4]
 202 0008 3960     		str	r1, [r7]
 203              		.loc 3 653 0
 204 000a 3B68     		ldr	r3, [r7]
 205 000c FB60     		str	r3, [r7, #12]
 206              	.L8:
 207              		.loc 3 655 0 discriminator 1
 208 000e FB68     		ldr	r3, [r7, #12]
 209 0010 1B68     		ldr	r3, [r3]
 210 0012 FB60     		str	r3, [r7, #12]
 211              		.loc 3 656 0 discriminator 1
 212 0014 FA68     		ldr	r2, [r7, #12]
 213 0016 3B68     		ldr	r3, [r7]
 214 0018 9A42     		cmp	r2, r3
 215 001a 05D0     		beq	.L7
 216 001c FB68     		ldr	r3, [r7, #12]
 217 001e 9A68     		ldr	r2, [r3, #8]
 218 0020 7B68     		ldr	r3, [r7, #4]
 219 0022 9B68     		ldr	r3, [r3, #8]
 220 0024 9A42     		cmp	r2, r3
 221 0026 F2D2     		bcs	.L8
 222              	.L7:
 223              		.loc 3 657 0
 224 0028 7B68     		ldr	r3, [r7, #4]
ARM GAS  C:\Users\Luis\AppData\Local\Temp\ccrWllZq.s 			page 5


 225 002a FA68     		ldr	r2, [r7, #12]
 226 002c 1A60     		str	r2, [r3]
 227              		.loc 3 658 0
 228 002e FB68     		ldr	r3, [r7, #12]
 229 0030 5A68     		ldr	r2, [r3, #4]
 230 0032 7B68     		ldr	r3, [r7, #4]
 231 0034 5A60     		str	r2, [r3, #4]
 232              		.loc 3 659 0
 233 0036 7B68     		ldr	r3, [r7, #4]
 234 0038 5B68     		ldr	r3, [r3, #4]
 235 003a 7A68     		ldr	r2, [r7, #4]
 236 003c 1A60     		str	r2, [r3]
 237              		.loc 3 660 0
 238 003e FB68     		ldr	r3, [r7, #12]
 239 0040 7A68     		ldr	r2, [r7, #4]
 240 0042 5A60     		str	r2, [r3, #4]
 241              		.loc 3 661 0
 242 0044 1437     		adds	r7, r7, #20
 243 0046 BD46     		mov	sp, r7
 244              		@ sp needed
 245 0048 5DF8047B 		ldr	r7, [sp], #4
 246 004c 7047     		bx	lr
 247              		.cfi_endproc
 248              	.LFE144:
 249              		.size	queue_prio_insert, .-queue_prio_insert
 250 004e 00BF     		.section	.text.queue_fifo_remove,"ax",%progbits
 251              		.align	2
 252              		.p2align 4,,15
 253              		.thumb
 254              		.thumb_func
 255              		.type	queue_fifo_remove, %function
 256              	queue_fifo_remove:
 257              	.LFB146:
 258              		.loc 3 671 0
 259              		.cfi_startproc
 260              		@ args = 0, pretend = 0, frame = 16
 261              		@ frame_needed = 1, uses_anonymous_args = 0
 262              		@ link register save eliminated.
 263 0000 80B4     		push	{r7}
 264              		.cfi_def_cfa_offset 4
 265              		.cfi_offset 7, -4
 266 0002 85B0     		sub	sp, sp, #20
 267              		.cfi_def_cfa_offset 24
 268 0004 00AF     		add	r7, sp, #0
 269              		.cfi_def_cfa_register 7
 270 0006 7860     		str	r0, [r7, #4]
 271              		.loc 3 672 0
 272 0008 7B68     		ldr	r3, [r7, #4]
 273 000a 1B68     		ldr	r3, [r3]
 274 000c FB60     		str	r3, [r7, #12]
 275              		.loc 3 674 0
 276 000e FB68     		ldr	r3, [r7, #12]
 277 0010 1A68     		ldr	r2, [r3]
 278 0012 7B68     		ldr	r3, [r7, #4]
 279 0014 1A60     		str	r2, [r3]
 280              		.loc 3 675 0
 281 0016 7B68     		ldr	r3, [r7, #4]
ARM GAS  C:\Users\Luis\AppData\Local\Temp\ccrWllZq.s 			page 6


 282 0018 1B68     		ldr	r3, [r3]
 283 001a 7A68     		ldr	r2, [r7, #4]
 284 001c 5A60     		str	r2, [r3, #4]
 285              		.loc 3 677 0
 286 001e FB68     		ldr	r3, [r7, #12]
 287              		.loc 3 678 0
 288 0020 1846     		mov	r0, r3
 289 0022 1437     		adds	r7, r7, #20
 290 0024 BD46     		mov	sp, r7
 291              		@ sp needed
 292 0026 5DF8047B 		ldr	r7, [sp], #4
 293 002a 7047     		bx	lr
 294              		.cfi_endproc
 295              	.LFE146:
 296              		.size	queue_fifo_remove, .-queue_fifo_remove
 297 002c AFF30080 		.section	.text.chSysLock,"ax",%progbits
 298              		.align	2
 299              		.p2align 4,,15
 300              		.thumb
 301              		.thumb_func
 302              		.type	chSysLock, %function
 303              	chSysLock:
 304              	.LFB156:
 305              		.file 4 "../../ChibiOS/os/rt/include/chsys.h"
 306              		.loc 4 346 0
 307              		.cfi_startproc
 308              		@ args = 0, pretend = 0, frame = 0
 309              		@ frame_needed = 1, uses_anonymous_args = 0
 310 0000 80B5     		push	{r7, lr}
 311              		.cfi_def_cfa_offset 8
 312              		.cfi_offset 7, -8
 313              		.cfi_offset 14, -4
 314 0002 00AF     		add	r7, sp, #0
 315              		.cfi_def_cfa_register 7
 316              		.loc 4 348 0
 317 0004 FFF7FEFF 		bl	port_lock
 318              		.loc 4 349 0
 319 0008 FFF7FEFF 		bl	_stats_start_measure_crit_thd
 320              		.loc 4 350 0
 321 000c FFF7FEFF 		bl	_dbg_check_lock
 322              		.loc 4 351 0
 323 0010 80BD     		pop	{r7, pc}
 324              		.cfi_endproc
 325              	.LFE156:
 326              		.size	chSysLock, .-chSysLock
 327 0012 00BFAFF3 		.section	.text.chSysUnlock,"ax",%progbits
 327      0080AFF3 
 327      0080AFF3 
 327      0080
 328              		.align	2
 329              		.p2align 4,,15
 330              		.thumb
 331              		.thumb_func
 332              		.type	chSysUnlock, %function
 333              	chSysUnlock:
 334              	.LFB157:
 335              		.loc 4 358 0
ARM GAS  C:\Users\Luis\AppData\Local\Temp\ccrWllZq.s 			page 7


 336              		.cfi_startproc
 337              		@ args = 0, pretend = 0, frame = 0
 338              		@ frame_needed = 1, uses_anonymous_args = 0
 339 0000 80B5     		push	{r7, lr}
 340              		.cfi_def_cfa_offset 8
 341              		.cfi_offset 7, -8
 342              		.cfi_offset 14, -4
 343 0002 00AF     		add	r7, sp, #0
 344              		.cfi_def_cfa_register 7
 345              		.loc 4 360 0
 346 0004 FFF7FEFF 		bl	_dbg_check_unlock
 347              		.loc 4 361 0
 348 0008 FFF7FEFF 		bl	_stats_stop_measure_crit_thd
 349              		.loc 4 367 0
 350 000c 094B     		ldr	r3, .L14
 351 000e 1A68     		ldr	r2, [r3]
 352 0010 084B     		ldr	r3, .L14
 353 0012 9A42     		cmp	r2, r3
 354 0014 0AD0     		beq	.L13
 355              		.loc 4 367 0 is_stmt 0 discriminator 1
 356 0016 074B     		ldr	r3, .L14
 357 0018 9B69     		ldr	r3, [r3, #24]
 358 001a 9A68     		ldr	r2, [r3, #8]
 359 001c 054B     		ldr	r3, .L14
 360 001e 1B68     		ldr	r3, [r3]
 361 0020 9B68     		ldr	r3, [r3, #8]
 362 0022 9A42     		cmp	r2, r3
 363 0024 02D2     		bcs	.L13
 364 0026 0448     		ldr	r0, .L14+4
 365 0028 FFF7FEFF 		bl	chSysHalt
 366              	.L13:
 367              		.loc 4 371 0 is_stmt 1
 368 002c FFF7FEFF 		bl	port_unlock
 369              		.loc 4 372 0
 370 0030 80BD     		pop	{r7, pc}
 371              	.L15:
 372 0032 00BF     		.align	2
 373              	.L14:
 374 0034 00000000 		.word	ch
 375 0038 00000000 		.word	__func__.5842
 376              		.cfi_endproc
 377              	.LFE157:
 378              		.size	chSysUnlock, .-chSysUnlock
 379 003c AFF30080 		.section	.text.chThdGetSelfX,"ax",%progbits
 380              		.align	2
 381              		.p2align 4,,15
 382              		.thumb
 383              		.thumb_func
 384              		.type	chThdGetSelfX, %function
 385              	chThdGetSelfX:
 386              	.LFB177:
 387              		.file 5 "../../ChibiOS/os/rt/include/chthreads.h"
 388              		.loc 5 174 0
 389              		.cfi_startproc
 390              		@ args = 0, pretend = 0, frame = 0
 391              		@ frame_needed = 1, uses_anonymous_args = 0
 392              		@ link register save eliminated.
ARM GAS  C:\Users\Luis\AppData\Local\Temp\ccrWllZq.s 			page 8


 393 0000 80B4     		push	{r7}
 394              		.cfi_def_cfa_offset 4
 395              		.cfi_offset 7, -4
 396 0002 00AF     		add	r7, sp, #0
 397              		.cfi_def_cfa_register 7
 398              		.loc 5 176 0
 399 0004 034B     		ldr	r3, .L18
 400 0006 9B69     		ldr	r3, [r3, #24]
 401              		.loc 5 177 0
 402 0008 1846     		mov	r0, r3
 403 000a BD46     		mov	sp, r7
 404              		@ sp needed
 405 000c 5DF8047B 		ldr	r7, [sp], #4
 406 0010 7047     		bx	lr
 407              	.L19:
 408 0012 00BF     		.align	2
 409              	.L18:
 410 0014 00000000 		.word	ch
 411              		.cfi_endproc
 412              	.LFE177:
 413              		.size	chThdGetSelfX, .-chThdGetSelfX
 414 0018 AFF30080 		.section	.text.chMtxGetNextMutexS,"ax",%progbits
 414      AFF30080 
 415              		.align	2
 416              		.p2align 4,,15
 417              		.thumb
 418              		.thumb_func
 419              		.type	chMtxGetNextMutexS, %function
 420              	chMtxGetNextMutexS:
 421              	.LFB203:
 422              		.file 6 "../../ChibiOS/os/rt/include/chmtx.h"
 423              		.loc 6 144 0
 424              		.cfi_startproc
 425              		@ args = 0, pretend = 0, frame = 0
 426              		@ frame_needed = 1, uses_anonymous_args = 0
 427 0000 80B5     		push	{r7, lr}
 428              		.cfi_def_cfa_offset 8
 429              		.cfi_offset 7, -8
 430              		.cfi_offset 14, -4
 431 0002 00AF     		add	r7, sp, #0
 432              		.cfi_def_cfa_register 7
 433              		.loc 6 146 0
 434 0004 FFF7FEFF 		bl	chThdGetSelfX
 435 0008 0346     		mov	r3, r0
 436 000a DB6B     		ldr	r3, [r3, #60]
 437              		.loc 6 147 0
 438 000c 1846     		mov	r0, r3
 439 000e 80BD     		pop	{r7, pc}
 440              		.cfi_endproc
 441              	.LFE203:
 442              		.size	chMtxGetNextMutexS, .-chMtxGetNextMutexS
 443              		.section	.text.chCondObjectInit,"ax",%progbits
 444              		.align	2
 445              		.p2align 4,,15
 446              		.global	chCondObjectInit
 447              		.thumb
 448              		.thumb_func
ARM GAS  C:\Users\Luis\AppData\Local\Temp\ccrWllZq.s 			page 9


 449              		.type	chCondObjectInit, %function
 450              	chCondObjectInit:
 451              	.LFB229:
 452              		.file 7 "../../ChibiOS/os/rt/src/chcond.c"
 453              		.loc 7 75 0
 454              		.cfi_startproc
 455              		@ args = 0, pretend = 0, frame = 8
 456              		@ frame_needed = 1, uses_anonymous_args = 0
 457 0000 80B5     		push	{r7, lr}
 458              		.cfi_def_cfa_offset 8
 459              		.cfi_offset 7, -8
 460              		.cfi_offset 14, -4
 461 0002 82B0     		sub	sp, sp, #8
 462              		.cfi_def_cfa_offset 16
 463 0004 00AF     		add	r7, sp, #0
 464              		.cfi_def_cfa_register 7
 465 0006 7860     		str	r0, [r7, #4]
 466              		.loc 7 77 0
 467 0008 7B68     		ldr	r3, [r7, #4]
 468 000a 002B     		cmp	r3, #0
 469 000c 02D1     		bne	.L23
 470              		.loc 7 77 0 is_stmt 0 discriminator 1
 471 000e 0548     		ldr	r0, .L24
 472 0010 FFF7FEFF 		bl	chSysHalt
 473              	.L23:
 474              		.loc 7 79 0 is_stmt 1
 475 0014 7B68     		ldr	r3, [r7, #4]
 476 0016 1846     		mov	r0, r3
 477 0018 FFF7FEFF 		bl	queue_init
 478              		.loc 7 80 0
 479 001c 0837     		adds	r7, r7, #8
 480 001e BD46     		mov	sp, r7
 481              		@ sp needed
 482 0020 80BD     		pop	{r7, pc}
 483              	.L25:
 484 0022 00BF     		.align	2
 485              	.L24:
 486 0024 00000000 		.word	__func__.6537
 487              		.cfi_endproc
 488              	.LFE229:
 489              		.size	chCondObjectInit, .-chCondObjectInit
 490 0028 AFF30080 		.section	.text.chCondSignal,"ax",%progbits
 490      AFF30080 
 491              		.align	2
 492              		.p2align 4,,15
 493              		.global	chCondSignal
 494              		.thumb
 495              		.thumb_func
 496              		.type	chCondSignal, %function
 497              	chCondSignal:
 498              	.LFB230:
 499              		.loc 7 89 0
 500              		.cfi_startproc
 501              		@ args = 0, pretend = 0, frame = 8
 502              		@ frame_needed = 1, uses_anonymous_args = 0
 503 0000 80B5     		push	{r7, lr}
 504              		.cfi_def_cfa_offset 8
ARM GAS  C:\Users\Luis\AppData\Local\Temp\ccrWllZq.s 			page 10


 505              		.cfi_offset 7, -8
 506              		.cfi_offset 14, -4
 507 0002 82B0     		sub	sp, sp, #8
 508              		.cfi_def_cfa_offset 16
 509 0004 00AF     		add	r7, sp, #0
 510              		.cfi_def_cfa_register 7
 511 0006 7860     		str	r0, [r7, #4]
 512              		.loc 7 91 0
 513 0008 7B68     		ldr	r3, [r7, #4]
 514 000a 002B     		cmp	r3, #0
 515 000c 02D1     		bne	.L27
 516              		.loc 7 91 0 is_stmt 0 discriminator 1
 517 000e 0D48     		ldr	r0, .L29
 518 0010 FFF7FEFF 		bl	chSysHalt
 519              	.L27:
 520              		.loc 7 93 0 is_stmt 1
 521 0014 FFF7FEFF 		bl	chSysLock
 522              		.loc 7 94 0
 523 0018 7B68     		ldr	r3, [r7, #4]
 524 001a 1846     		mov	r0, r3
 525 001c FFF7FEFF 		bl	queue_notempty
 526 0020 0346     		mov	r3, r0
 527 0022 002B     		cmp	r3, #0
 528 0024 08D0     		beq	.L28
 529              		.loc 7 95 0
 530 0026 7B68     		ldr	r3, [r7, #4]
 531 0028 1846     		mov	r0, r3
 532 002a FFF7FEFF 		bl	queue_fifo_remove
 533 002e 0346     		mov	r3, r0
 534 0030 1846     		mov	r0, r3
 535 0032 0021     		movs	r1, #0
 536 0034 FFF7FEFF 		bl	chSchWakeupS
 537              	.L28:
 538              		.loc 7 97 0
 539 0038 FFF7FEFF 		bl	chSysUnlock
 540              		.loc 7 98 0
 541 003c 0837     		adds	r7, r7, #8
 542 003e BD46     		mov	sp, r7
 543              		@ sp needed
 544 0040 80BD     		pop	{r7, pc}
 545              	.L30:
 546 0042 00BF     		.align	2
 547              	.L29:
 548 0044 00000000 		.word	__func__.6541
 549              		.cfi_endproc
 550              	.LFE230:
 551              		.size	chCondSignal, .-chCondSignal
 552 0048 AFF30080 		.section	.text.chCondSignalI,"ax",%progbits
 552      AFF30080 
 553              		.align	2
 554              		.p2align 4,,15
 555              		.global	chCondSignalI
 556              		.thumb
 557              		.thumb_func
 558              		.type	chCondSignalI, %function
 559              	chCondSignalI:
 560              	.LFB231:
ARM GAS  C:\Users\Luis\AppData\Local\Temp\ccrWllZq.s 			page 11


 561              		.loc 7 111 0
 562              		.cfi_startproc
 563              		@ args = 0, pretend = 0, frame = 16
 564              		@ frame_needed = 1, uses_anonymous_args = 0
 565 0000 80B5     		push	{r7, lr}
 566              		.cfi_def_cfa_offset 8
 567              		.cfi_offset 7, -8
 568              		.cfi_offset 14, -4
 569 0002 84B0     		sub	sp, sp, #16
 570              		.cfi_def_cfa_offset 24
 571 0004 00AF     		add	r7, sp, #0
 572              		.cfi_def_cfa_register 7
 573 0006 7860     		str	r0, [r7, #4]
 574              		.loc 7 113 0
 575 0008 FFF7FEFF 		bl	chDbgCheckClassI
 576              		.loc 7 114 0
 577 000c 7B68     		ldr	r3, [r7, #4]
 578 000e 002B     		cmp	r3, #0
 579 0010 02D1     		bne	.L32
 580              		.loc 7 114 0 is_stmt 0 discriminator 1
 581 0012 0C48     		ldr	r0, .L34
 582 0014 FFF7FEFF 		bl	chSysHalt
 583              	.L32:
 584              		.loc 7 116 0 is_stmt 1
 585 0018 7B68     		ldr	r3, [r7, #4]
 586 001a 1846     		mov	r0, r3
 587 001c FFF7FEFF 		bl	queue_notempty
 588 0020 0346     		mov	r3, r0
 589 0022 002B     		cmp	r3, #0
 590 0024 0AD0     		beq	.L31
 591              	.LBB10:
 592              		.loc 7 117 0
 593 0026 7B68     		ldr	r3, [r7, #4]
 594 0028 1846     		mov	r0, r3
 595 002a FFF7FEFF 		bl	queue_fifo_remove
 596 002e F860     		str	r0, [r7, #12]
 597              		.loc 7 118 0
 598 0030 FB68     		ldr	r3, [r7, #12]
 599 0032 0022     		movs	r2, #0
 600 0034 5A62     		str	r2, [r3, #36]
 601              		.loc 7 119 0
 602 0036 F868     		ldr	r0, [r7, #12]
 603 0038 FFF7FEFF 		bl	chSchReadyI
 604              	.L31:
 605              	.LBE10:
 606              		.loc 7 121 0
 607 003c 1037     		adds	r7, r7, #16
 608 003e BD46     		mov	sp, r7
 609              		@ sp needed
 610 0040 80BD     		pop	{r7, pc}
 611              	.L35:
 612 0042 00BF     		.align	2
 613              	.L34:
 614 0044 00000000 		.word	__func__.6545
 615              		.cfi_endproc
 616              	.LFE231:
 617              		.size	chCondSignalI, .-chCondSignalI
ARM GAS  C:\Users\Luis\AppData\Local\Temp\ccrWllZq.s 			page 12


 618 0048 AFF30080 		.section	.text.chCondBroadcast,"ax",%progbits
 618      AFF30080 
 619              		.align	2
 620              		.p2align 4,,15
 621              		.global	chCondBroadcast
 622              		.thumb
 623              		.thumb_func
 624              		.type	chCondBroadcast, %function
 625              	chCondBroadcast:
 626              	.LFB232:
 627              		.loc 7 130 0
 628              		.cfi_startproc
 629              		@ args = 0, pretend = 0, frame = 8
 630              		@ frame_needed = 1, uses_anonymous_args = 0
 631 0000 80B5     		push	{r7, lr}
 632              		.cfi_def_cfa_offset 8
 633              		.cfi_offset 7, -8
 634              		.cfi_offset 14, -4
 635 0002 82B0     		sub	sp, sp, #8
 636              		.cfi_def_cfa_offset 16
 637 0004 00AF     		add	r7, sp, #0
 638              		.cfi_def_cfa_register 7
 639 0006 7860     		str	r0, [r7, #4]
 640              		.loc 7 132 0
 641 0008 FFF7FEFF 		bl	chSysLock
 642              		.loc 7 133 0
 643 000c 7868     		ldr	r0, [r7, #4]
 644 000e FFF7FEFF 		bl	chCondBroadcastI
 645              		.loc 7 134 0
 646 0012 FFF7FEFF 		bl	chSchRescheduleS
 647              		.loc 7 135 0
 648 0016 FFF7FEFF 		bl	chSysUnlock
 649              		.loc 7 136 0
 650 001a 0837     		adds	r7, r7, #8
 651 001c BD46     		mov	sp, r7
 652              		@ sp needed
 653 001e 80BD     		pop	{r7, pc}
 654              		.cfi_endproc
 655              	.LFE232:
 656              		.size	chCondBroadcast, .-chCondBroadcast
 657              		.section	.text.chCondBroadcastI,"ax",%progbits
 658              		.align	2
 659              		.p2align 4,,15
 660              		.global	chCondBroadcastI
 661              		.thumb
 662              		.thumb_func
 663              		.type	chCondBroadcastI, %function
 664              	chCondBroadcastI:
 665              	.LFB233:
 666              		.loc 7 149 0
 667              		.cfi_startproc
 668              		@ args = 0, pretend = 0, frame = 8
 669              		@ frame_needed = 1, uses_anonymous_args = 0
 670 0000 80B5     		push	{r7, lr}
 671              		.cfi_def_cfa_offset 8
 672              		.cfi_offset 7, -8
 673              		.cfi_offset 14, -4
ARM GAS  C:\Users\Luis\AppData\Local\Temp\ccrWllZq.s 			page 13


 674 0002 82B0     		sub	sp, sp, #8
 675              		.cfi_def_cfa_offset 16
 676 0004 00AF     		add	r7, sp, #0
 677              		.cfi_def_cfa_register 7
 678 0006 7860     		str	r0, [r7, #4]
 679              		.loc 7 151 0
 680 0008 FFF7FEFF 		bl	chDbgCheckClassI
 681              		.loc 7 152 0
 682 000c 7B68     		ldr	r3, [r7, #4]
 683 000e 002B     		cmp	r3, #0
 684 0010 03D1     		bne	.L38
 685              		.loc 7 152 0 is_stmt 0 discriminator 1
 686 0012 0D48     		ldr	r0, .L41
 687 0014 FFF7FEFF 		bl	chSysHalt
 688              		.loc 7 157 0 is_stmt 1 discriminator 1
 689 0018 0CE0     		b	.L39
 690              	.L38:
 691              		.loc 7 157 0 is_stmt 0
 692 001a 0BE0     		b	.L39
 693              	.L40:
 694              		.loc 7 158 0 is_stmt 1
 695 001c 7B68     		ldr	r3, [r7, #4]
 696 001e 1846     		mov	r0, r3
 697 0020 FFF7FEFF 		bl	queue_fifo_remove
 698 0024 0346     		mov	r3, r0
 699 0026 1846     		mov	r0, r3
 700 0028 FFF7FEFF 		bl	chSchReadyI
 701 002c 0346     		mov	r3, r0
 702 002e 6FF00102 		mvn	r2, #1
 703 0032 5A62     		str	r2, [r3, #36]
 704              	.L39:
 705              		.loc 7 157 0 discriminator 1
 706 0034 7B68     		ldr	r3, [r7, #4]
 707 0036 1846     		mov	r0, r3
 708 0038 FFF7FEFF 		bl	queue_notempty
 709 003c 0346     		mov	r3, r0
 710 003e 002B     		cmp	r3, #0
 711 0040 ECD1     		bne	.L40
 712              		.loc 7 160 0
 713 0042 0837     		adds	r7, r7, #8
 714 0044 BD46     		mov	sp, r7
 715              		@ sp needed
 716 0046 80BD     		pop	{r7, pc}
 717              	.L42:
 718              		.align	2
 719              	.L41:
 720 0048 00000000 		.word	__func__.6553
 721              		.cfi_endproc
 722              	.LFE233:
 723              		.size	chCondBroadcastI, .-chCondBroadcastI
 724 004c AFF30080 		.section	.text.chCondWait,"ax",%progbits
 725              		.align	2
 726              		.p2align 4,,15
 727              		.global	chCondWait
 728              		.thumb
 729              		.thumb_func
 730              		.type	chCondWait, %function
ARM GAS  C:\Users\Luis\AppData\Local\Temp\ccrWllZq.s 			page 14


 731              	chCondWait:
 732              	.LFB234:
 733              		.loc 7 179 0
 734              		.cfi_startproc
 735              		@ args = 0, pretend = 0, frame = 16
 736              		@ frame_needed = 1, uses_anonymous_args = 0
 737 0000 80B5     		push	{r7, lr}
 738              		.cfi_def_cfa_offset 8
 739              		.cfi_offset 7, -8
 740              		.cfi_offset 14, -4
 741 0002 84B0     		sub	sp, sp, #16
 742              		.cfi_def_cfa_offset 24
 743 0004 00AF     		add	r7, sp, #0
 744              		.cfi_def_cfa_register 7
 745 0006 7860     		str	r0, [r7, #4]
 746              		.loc 7 182 0
 747 0008 FFF7FEFF 		bl	chSysLock
 748              		.loc 7 183 0
 749 000c 7868     		ldr	r0, [r7, #4]
 750 000e FFF7FEFF 		bl	chCondWaitS
 751 0012 F860     		str	r0, [r7, #12]
 752              		.loc 7 184 0
 753 0014 FFF7FEFF 		bl	chSysUnlock
 754              		.loc 7 185 0
 755 0018 FB68     		ldr	r3, [r7, #12]
 756              		.loc 7 186 0
 757 001a 1846     		mov	r0, r3
 758 001c 1037     		adds	r7, r7, #16
 759 001e BD46     		mov	sp, r7
 760              		@ sp needed
 761 0020 80BD     		pop	{r7, pc}
 762              		.cfi_endproc
 763              	.LFE234:
 764              		.size	chCondWait, .-chCondWait
 765 0022 00BFAFF3 		.section	.text.chCondWaitS,"ax",%progbits
 765      0080AFF3 
 765      0080AFF3 
 765      0080
 766              		.align	2
 767              		.p2align 4,,15
 768              		.global	chCondWaitS
 769              		.thumb
 770              		.thumb_func
 771              		.type	chCondWaitS, %function
 772              	chCondWaitS:
 773              	.LFB235:
 774              		.loc 7 205 0
 775              		.cfi_startproc
 776              		@ args = 0, pretend = 0, frame = 24
 777              		@ frame_needed = 1, uses_anonymous_args = 0
 778 0000 80B5     		push	{r7, lr}
 779              		.cfi_def_cfa_offset 8
 780              		.cfi_offset 7, -8
 781              		.cfi_offset 14, -4
 782 0002 86B0     		sub	sp, sp, #24
 783              		.cfi_def_cfa_offset 32
 784 0004 00AF     		add	r7, sp, #0
ARM GAS  C:\Users\Luis\AppData\Local\Temp\ccrWllZq.s 			page 15


 785              		.cfi_def_cfa_register 7
 786 0006 7860     		str	r0, [r7, #4]
 787              		.loc 7 206 0
 788 0008 164B     		ldr	r3, .L50
 789 000a 9B69     		ldr	r3, [r3, #24]
 790 000c 7B61     		str	r3, [r7, #20]
 791              		.loc 7 210 0
 792 000e FFF7FEFF 		bl	chDbgCheckClassS
 793              		.loc 7 211 0
 794 0012 7B68     		ldr	r3, [r7, #4]
 795 0014 002B     		cmp	r3, #0
 796 0016 02D1     		bne	.L49
 797              		.loc 7 211 0 is_stmt 0 discriminator 1
 798 0018 1348     		ldr	r0, .L50+4
 799 001a FFF7FEFF 		bl	chSysHalt
 800              	.L49:
 801              		.loc 7 212 0 is_stmt 1 discriminator 1
 802 001e 7B69     		ldr	r3, [r7, #20]
 803 0020 DB6B     		ldr	r3, [r3, #60]
 804 0022 002B     		cmp	r3, #0
 805 0024 02D1     		bne	.L47
 806 0026 1048     		ldr	r0, .L50+4
 807 0028 FFF7FEFF 		bl	chSysHalt
 808              	.L47:
 809              		.loc 7 215 0
 810 002c FFF7FEFF 		bl	chMtxGetNextMutexS
 811 0030 3861     		str	r0, [r7, #16]
 812              		.loc 7 216 0
 813 0032 3869     		ldr	r0, [r7, #16]
 814 0034 FFF7FEFF 		bl	chMtxUnlockS
 815              		.loc 7 220 0
 816 0038 7B69     		ldr	r3, [r7, #20]
 817 003a 7A68     		ldr	r2, [r7, #4]
 818 003c 5A62     		str	r2, [r3, #36]
 819              		.loc 7 221 0
 820 003e 7B68     		ldr	r3, [r7, #4]
 821 0040 7869     		ldr	r0, [r7, #20]
 822 0042 1946     		mov	r1, r3
 823 0044 FFF7FEFF 		bl	queue_prio_insert
 824              		.loc 7 222 0
 825 0048 0720     		movs	r0, #7
 826 004a FFF7FEFF 		bl	chSchGoSleepS
 827              		.loc 7 223 0
 828 004e 7B69     		ldr	r3, [r7, #20]
 829 0050 5B6A     		ldr	r3, [r3, #36]
 830 0052 FB60     		str	r3, [r7, #12]
 831              		.loc 7 224 0
 832 0054 3869     		ldr	r0, [r7, #16]
 833 0056 FFF7FEFF 		bl	chMtxLockS
 834              		.loc 7 226 0
 835 005a FB68     		ldr	r3, [r7, #12]
 836              		.loc 7 227 0
 837 005c 1846     		mov	r0, r3
 838 005e 1837     		adds	r7, r7, #24
 839 0060 BD46     		mov	sp, r7
 840              		@ sp needed
 841 0062 80BD     		pop	{r7, pc}
ARM GAS  C:\Users\Luis\AppData\Local\Temp\ccrWllZq.s 			page 16


 842              	.L51:
 843              		.align	2
 844              	.L50:
 845 0064 00000000 		.word	ch
 846 0068 00000000 		.word	__func__.6567
 847              		.cfi_endproc
 848              	.LFE235:
 849              		.size	chCondWaitS, .-chCondWaitS
 850 006c AFF30080 		.section	.text.chCondWaitTimeout,"ax",%progbits
 851              		.align	2
 852              		.p2align 4,,15
 853              		.global	chCondWaitTimeout
 854              		.thumb
 855              		.thumb_func
 856              		.type	chCondWaitTimeout, %function
 857              	chCondWaitTimeout:
 858              	.LFB236:
 859              		.loc 7 258 0
 860              		.cfi_startproc
 861              		@ args = 0, pretend = 0, frame = 16
 862              		@ frame_needed = 1, uses_anonymous_args = 0
 863 0000 80B5     		push	{r7, lr}
 864              		.cfi_def_cfa_offset 8
 865              		.cfi_offset 7, -8
 866              		.cfi_offset 14, -4
 867 0002 84B0     		sub	sp, sp, #16
 868              		.cfi_def_cfa_offset 24
 869 0004 00AF     		add	r7, sp, #0
 870              		.cfi_def_cfa_register 7
 871 0006 7860     		str	r0, [r7, #4]
 872 0008 3960     		str	r1, [r7]
 873              		.loc 7 261 0
 874 000a FFF7FEFF 		bl	chSysLock
 875              		.loc 7 262 0
 876 000e 7868     		ldr	r0, [r7, #4]
 877 0010 3968     		ldr	r1, [r7]
 878 0012 FFF7FEFF 		bl	chCondWaitTimeoutS
 879 0016 F860     		str	r0, [r7, #12]
 880              		.loc 7 263 0
 881 0018 FFF7FEFF 		bl	chSysUnlock
 882              		.loc 7 265 0
 883 001c FB68     		ldr	r3, [r7, #12]
 884              		.loc 7 266 0
 885 001e 1846     		mov	r0, r3
 886 0020 1037     		adds	r7, r7, #16
 887 0022 BD46     		mov	sp, r7
 888              		@ sp needed
 889 0024 80BD     		pop	{r7, pc}
 890              		.cfi_endproc
 891              	.LFE236:
 892              		.size	chCondWaitTimeout, .-chCondWaitTimeout
 893 0026 00BFAFF3 		.section	.text.chCondWaitTimeoutS,"ax",%progbits
 893      0080AFF3 
 893      0080
 894              		.align	2
 895              		.p2align 4,,15
 896              		.global	chCondWaitTimeoutS
ARM GAS  C:\Users\Luis\AppData\Local\Temp\ccrWllZq.s 			page 17


 897              		.thumb
 898              		.thumb_func
 899              		.type	chCondWaitTimeoutS, %function
 900              	chCondWaitTimeoutS:
 901              	.LFB237:
 902              		.loc 7 296 0
 903              		.cfi_startproc
 904              		@ args = 0, pretend = 0, frame = 16
 905              		@ frame_needed = 1, uses_anonymous_args = 0
 906 0000 80B5     		push	{r7, lr}
 907              		.cfi_def_cfa_offset 8
 908              		.cfi_offset 7, -8
 909              		.cfi_offset 14, -4
 910 0002 84B0     		sub	sp, sp, #16
 911              		.cfi_def_cfa_offset 24
 912 0004 00AF     		add	r7, sp, #0
 913              		.cfi_def_cfa_register 7
 914 0006 7860     		str	r0, [r7, #4]
 915 0008 3960     		str	r1, [r7]
 916              		.loc 7 300 0
 917 000a FFF7FEFF 		bl	chDbgCheckClassS
 918              		.loc 7 301 0
 919 000e 7B68     		ldr	r3, [r7, #4]
 920 0010 002B     		cmp	r3, #0
 921 0012 02D0     		beq	.L55
 922              		.loc 7 301 0 is_stmt 0 discriminator 2
 923 0014 3B68     		ldr	r3, [r7]
 924 0016 002B     		cmp	r3, #0
 925 0018 02D1     		bne	.L60
 926              	.L55:
 927              		.loc 7 301 0 discriminator 1
 928 001a 1648     		ldr	r0, .L61
 929 001c FFF7FEFF 		bl	chSysHalt
 930              	.L60:
 931              		.loc 7 302 0 is_stmt 1 discriminator 1
 932 0020 154B     		ldr	r3, .L61+4
 933 0022 9B69     		ldr	r3, [r3, #24]
 934 0024 DB6B     		ldr	r3, [r3, #60]
 935 0026 002B     		cmp	r3, #0
 936 0028 02D1     		bne	.L57
 937 002a 1248     		ldr	r0, .L61
 938 002c FFF7FEFF 		bl	chSysHalt
 939              	.L57:
 940              		.loc 7 305 0
 941 0030 FFF7FEFF 		bl	chMtxGetNextMutexS
 942 0034 F860     		str	r0, [r7, #12]
 943              		.loc 7 306 0
 944 0036 F868     		ldr	r0, [r7, #12]
 945 0038 FFF7FEFF 		bl	chMtxUnlockS
 946              		.loc 7 310 0
 947 003c 0E4B     		ldr	r3, .L61+4
 948 003e 9B69     		ldr	r3, [r3, #24]
 949 0040 7A68     		ldr	r2, [r7, #4]
 950 0042 5A62     		str	r2, [r3, #36]
 951              		.loc 7 311 0
 952 0044 0C4B     		ldr	r3, .L61+4
 953 0046 9A69     		ldr	r2, [r3, #24]
ARM GAS  C:\Users\Luis\AppData\Local\Temp\ccrWllZq.s 			page 18


 954 0048 7B68     		ldr	r3, [r7, #4]
 955 004a 1046     		mov	r0, r2
 956 004c 1946     		mov	r1, r3
 957 004e FFF7FEFF 		bl	queue_prio_insert
 958              		.loc 7 312 0
 959 0052 0720     		movs	r0, #7
 960 0054 3968     		ldr	r1, [r7]
 961 0056 FFF7FEFF 		bl	chSchGoSleepTimeoutS
 962 005a B860     		str	r0, [r7, #8]
 963              		.loc 7 313 0
 964 005c BB68     		ldr	r3, [r7, #8]
 965 005e B3F1FF3F 		cmp	r3, #-1
 966 0062 02D0     		beq	.L58
 967              		.loc 7 314 0
 968 0064 F868     		ldr	r0, [r7, #12]
 969 0066 FFF7FEFF 		bl	chMtxLockS
 970              	.L58:
 971              		.loc 7 317 0
 972 006a BB68     		ldr	r3, [r7, #8]
 973              		.loc 7 318 0
 974 006c 1846     		mov	r0, r3
 975 006e 1037     		adds	r7, r7, #16
 976 0070 BD46     		mov	sp, r7
 977              		@ sp needed
 978 0072 80BD     		pop	{r7, pc}
 979              	.L62:
 980              		.align	2
 981              	.L61:
 982 0074 00000000 		.word	__func__.6579
 983 0078 00000000 		.word	ch
 984              		.cfi_endproc
 985              	.LFE237:
 986              		.size	chCondWaitTimeoutS, .-chCondWaitTimeoutS
 987 007c AFF30080 		.section	.rodata.__func__.6537,"a",%progbits
 988              		.align	2
 989              		.type	__func__.6537, %object
 990              		.size	__func__.6537, 17
 991              	__func__.6537:
 992 0000 6368436F 		.ascii	"chCondObjectInit\000"
 992      6E644F62 
 992      6A656374 
 992      496E6974 
 992      00
 993 0011 000000   		.section	.rodata.__func__.6541,"a",%progbits
 994              		.align	2
 995              		.type	__func__.6541, %object
 996              		.size	__func__.6541, 13
 997              	__func__.6541:
 998 0000 6368436F 		.ascii	"chCondSignal\000"
 998      6E645369 
 998      676E616C 
 998      00
 999 000d 000000   		.section	.rodata.__func__.5842,"a",%progbits
 1000              		.align	2
 1001              		.type	__func__.5842, %object
 1002              		.size	__func__.5842, 12
 1003              	__func__.5842:
ARM GAS  C:\Users\Luis\AppData\Local\Temp\ccrWllZq.s 			page 19


 1004 0000 63685379 		.ascii	"chSysUnlock\000"
 1004      73556E6C 
 1004      6F636B00 
 1005              		.section	.rodata.__func__.6545,"a",%progbits
 1006              		.align	2
 1007              		.type	__func__.6545, %object
 1008              		.size	__func__.6545, 14
 1009              	__func__.6545:
 1010 0000 6368436F 		.ascii	"chCondSignalI\000"
 1010      6E645369 
 1010      676E616C 
 1010      4900
 1011 000e 0000     		.section	.rodata.__func__.6553,"a",%progbits
 1012              		.align	2
 1013              		.type	__func__.6553, %object
 1014              		.size	__func__.6553, 17
 1015              	__func__.6553:
 1016 0000 6368436F 		.ascii	"chCondBroadcastI\000"
 1016      6E644272 
 1016      6F616463 
 1016      61737449 
 1016      00
 1017 0011 000000   		.section	.rodata.__func__.6567,"a",%progbits
 1018              		.align	2
 1019              		.type	__func__.6567, %object
 1020              		.size	__func__.6567, 12
 1021              	__func__.6567:
 1022 0000 6368436F 		.ascii	"chCondWaitS\000"
 1022      6E645761 
 1022      69745300 
 1023              		.section	.rodata.__func__.6579,"a",%progbits
 1024              		.align	2
 1025              		.type	__func__.6579, %object
 1026              		.size	__func__.6579, 19
 1027              	__func__.6579:
 1028 0000 6368436F 		.ascii	"chCondWaitTimeoutS\000"
 1028      6E645761 
 1028      69745469 
 1028      6D656F75 
 1028      745300
 1029 0013 00       		.text
 1030              	.Letext0:
 1031              		.file 8 "c:\\emtechesdk\\gcc\\arm-none-eabi\\include\\stdint.h"
 1032              		.file 9 "../../ChibiOS/os/rt/ports/ARMCMx/compilers/GCC/chtypes.h"
 1033              		.file 10 "../../ChibiOS/os/rt/include/chsystypes.h"
 1034              		.file 11 "../../ChibiOS/os/rt/ports/ARMCMx/chcore.h"
 1035              		.file 12 "../../ChibiOS/os/rt/include/chdebug.h"
 1036              		.file 13 "../../ChibiOS/os/rt/include/chtm.h"
 1037              		.file 14 "../../ChibiOS/os/rt/include/chstats.h"
 1038              		.file 15 "../../ChibiOS/os/rt/include/chsem.h"
 1039              		.file 16 "../../ChibiOS/os/rt/include/chcond.h"
 1040              		.file 17 "../../ChibiOS/os/ext/CMSIS/include/core_cm4.h"