ARM GAS  C:\Users\Luis\AppData\Local\Temp\ccPt6fch.s 			page 1


   1              		.syntax unified
   2              		.cpu cortex-m4
   3              		.fpu softvfp
   4              		.eabi_attribute 20, 1
   5              		.eabi_attribute 21, 1
   6              		.eabi_attribute 23, 3
   7              		.eabi_attribute 24, 1
   8              		.eabi_attribute 25, 1
   9              		.eabi_attribute 26, 1
  10              		.eabi_attribute 30, 6
  11              		.eabi_attribute 34, 1
  12              		.eabi_attribute 18, 4
  13              		.thumb
  14              		.file	"chcore_v7m.c"
  15              		.text
  16              	.Ltext0:
  17              		.cfi_sections	.debug_frame
  18              		.section	.text.port_lock,"ax",%progbits
  19              		.align	2
  20              		.p2align 4,,15
  21              		.thumb
  22              		.thumb_func
  23              		.type	port_lock, %function
  24              	port_lock:
  25              	.LFB116:
  26              		.file 1 "../../ChibiOS/os/rt/ports/ARMCMx/chcore_v7m.h"
  27              		.loc 1 444 0
  28              		.cfi_startproc
  29              		@ args = 0, pretend = 0, frame = 8
  30              		@ frame_needed = 1, uses_anonymous_args = 0
  31              		@ link register save eliminated.
  32 0000 80B4     		push	{r7}
  33              		.cfi_def_cfa_offset 4
  34              		.cfi_offset 7, -4
  35 0002 83B0     		sub	sp, sp, #12
  36              		.cfi_def_cfa_offset 16
  37 0004 00AF     		add	r7, sp, #0
  38              		.cfi_def_cfa_register 7
  39 0006 2023     		movs	r3, #32
  40 0008 7B60     		str	r3, [r7, #4]
  41              	.LBB15:
  42              	.LBB16:
  43              		.file 2 "../../ChibiOS/os/ext/CMSIS/include/core_cmFunc.h"
  44              		.loc 2 546 0
  45 000a 7B68     		ldr	r3, [r7, #4]
  46              	@ 546 "../../ChibiOS/os/ext/CMSIS/include/core_cmFunc.h" 1
  47 000c 83F31188 		MSR basepri, r3
  48              	@ 0 "" 2
  49              		.thumb
  50              	.LBE16:
  51              	.LBE15:
  52              		.loc 1 451 0
  53 0010 0C37     		adds	r7, r7, #12
  54 0012 BD46     		mov	sp, r7
  55              		@ sp needed
  56 0014 5DF8047B 		ldr	r7, [sp], #4
  57 0018 7047     		bx	lr
ARM GAS  C:\Users\Luis\AppData\Local\Temp\ccPt6fch.s 			page 2


  58              		.cfi_endproc
  59              	.LFE116:
  60              		.size	port_lock, .-port_lock
  61 001a 00BFAFF3 		.section	.text.port_unlock,"ax",%progbits
  61      0080
  62              		.align	2
  63              		.p2align 4,,15
  64              		.thumb
  65              		.thumb_func
  66              		.type	port_unlock, %function
  67              	port_unlock:
  68              	.LFB117:
  69              		.loc 1 458 0
  70              		.cfi_startproc
  71              		@ args = 0, pretend = 0, frame = 8
  72              		@ frame_needed = 1, uses_anonymous_args = 0
  73              		@ link register save eliminated.
  74 0000 80B4     		push	{r7}
  75              		.cfi_def_cfa_offset 4
  76              		.cfi_offset 7, -4
  77 0002 83B0     		sub	sp, sp, #12
  78              		.cfi_def_cfa_offset 16
  79 0004 00AF     		add	r7, sp, #0
  80              		.cfi_def_cfa_register 7
  81 0006 0023     		movs	r3, #0
  82 0008 7B60     		str	r3, [r7, #4]
  83              	.LBB17:
  84              	.LBB18:
  85              		.loc 2 546 0
  86 000a 7B68     		ldr	r3, [r7, #4]
  87              	@ 546 "../../ChibiOS/os/ext/CMSIS/include/core_cmFunc.h" 1
  88 000c 83F31188 		MSR basepri, r3
  89              	@ 0 "" 2
  90              		.thumb
  91              	.LBE18:
  92              	.LBE17:
  93              		.loc 1 465 0
  94 0010 0C37     		adds	r7, r7, #12
  95 0012 BD46     		mov	sp, r7
  96              		@ sp needed
  97 0014 5DF8047B 		ldr	r7, [sp], #4
  98 0018 7047     		bx	lr
  99              		.cfi_endproc
 100              	.LFE117:
 101              		.size	port_unlock, .-port_unlock
 102 001a 00BFAFF3 		.section	.text.port_lock_from_isr,"ax",%progbits
 102      0080
 103              		.align	2
 104              		.p2align 4,,15
 105              		.thumb
 106              		.thumb_func
 107              		.type	port_lock_from_isr, %function
 108              	port_lock_from_isr:
 109              	.LFB118:
 110              		.loc 1 473 0
 111              		.cfi_startproc
 112              		@ args = 0, pretend = 0, frame = 0
ARM GAS  C:\Users\Luis\AppData\Local\Temp\ccPt6fch.s 			page 3


 113              		@ frame_needed = 1, uses_anonymous_args = 0
 114 0000 80B5     		push	{r7, lr}
 115              		.cfi_def_cfa_offset 8
 116              		.cfi_offset 7, -8
 117              		.cfi_offset 14, -4
 118 0002 00AF     		add	r7, sp, #0
 119              		.cfi_def_cfa_register 7
 120              		.loc 1 475 0
 121 0004 FFF7FEFF 		bl	port_lock
 122              		.loc 1 476 0
 123 0008 80BD     		pop	{r7, pc}
 124              		.cfi_endproc
 125              	.LFE118:
 126              		.size	port_lock_from_isr, .-port_lock_from_isr
 127 000a 00BFAFF3 		.section	.text.port_unlock_from_isr,"ax",%progbits
 127      0080
 128              		.align	2
 129              		.p2align 4,,15
 130              		.thumb
 131              		.thumb_func
 132              		.type	port_unlock_from_isr, %function
 133              	port_unlock_from_isr:
 134              	.LFB119:
 135              		.loc 1 484 0
 136              		.cfi_startproc
 137              		@ args = 0, pretend = 0, frame = 0
 138              		@ frame_needed = 1, uses_anonymous_args = 0
 139 0000 80B5     		push	{r7, lr}
 140              		.cfi_def_cfa_offset 8
 141              		.cfi_offset 7, -8
 142              		.cfi_offset 14, -4
 143 0002 00AF     		add	r7, sp, #0
 144              		.cfi_def_cfa_register 7
 145              		.loc 1 486 0
 146 0004 FFF7FEFF 		bl	port_unlock
 147              		.loc 1 487 0
 148 0008 80BD     		pop	{r7, pc}
 149              		.cfi_endproc
 150              	.LFE119:
 151              		.size	port_unlock_from_isr, .-port_unlock_from_isr
 152 000a 00BFAFF3 		.section	.text.SVC_Handler,"ax",%progbits
 152      0080
 153              		.align	2
 154              		.p2align 4,,15
 155              		.global	SVC_Handler
 156              		.thumb
 157              		.thumb_func
 158              		.type	SVC_Handler, %function
 159              	SVC_Handler:
 160              	.LFB229:
 161              		.file 3 "../../ChibiOS/os/rt/ports/ARMCMx/chcore_v7m.c"
 162              		.loc 3 62 0
 163              		.cfi_startproc
 164              		@ args = 0, pretend = 0, frame = 8
 165              		@ frame_needed = 1, uses_anonymous_args = 0
 166 0000 90B5     		push	{r4, r7, lr}
 167              		.cfi_def_cfa_offset 12
ARM GAS  C:\Users\Luis\AppData\Local\Temp\ccPt6fch.s 			page 4


 168              		.cfi_offset 4, -12
 169              		.cfi_offset 7, -8
 170              		.cfi_offset 14, -4
 171 0002 83B0     		sub	sp, sp, #12
 172              		.cfi_def_cfa_offset 24
 173 0004 00AF     		add	r7, sp, #0
 174              		.cfi_def_cfa_register 7
 175              	.LBB19:
 176              	.LBB20:
 177              		.loc 2 428 0
 178              	@ 428 "../../ChibiOS/os/ext/CMSIS/include/core_cmFunc.h" 1
 179 0006 EFF30983 		MRS r3, psp
 180              	
 181              	@ 0 "" 2
 182              		.thumb
 183 000a 1C46     		mov	r4, r3
 184              		.loc 2 429 0
 185 000c 2346     		mov	r3, r4
 186              	.LBE20:
 187              	.LBE19:
 188              		.loc 3 72 0
 189 000e 7B60     		str	r3, [r7, #4]
 190              		.loc 3 76 0
 191 0010 7B68     		ldr	r3, [r7, #4]
 192 0012 2033     		adds	r3, r3, #32
 193 0014 7B60     		str	r3, [r7, #4]
 194              		.loc 3 79 0
 195 0016 7B68     		ldr	r3, [r7, #4]
 196 0018 3B60     		str	r3, [r7]
 197              	.LBB21:
 198              	.LBB22:
 199              		.loc 2 441 0
 200 001a 3B68     		ldr	r3, [r7]
 201              	@ 441 "../../ChibiOS/os/ext/CMSIS/include/core_cmFunc.h" 1
 202 001c 83F30988 		MSR psp, r3
 203              	
 204              	@ 0 "" 2
 205              		.thumb
 206              	.LBE22:
 207              	.LBE21:
 208              		.loc 3 82 0
 209 0020 FFF7FEFF 		bl	port_unlock_from_isr
 210              		.loc 3 83 0
 211 0024 0C37     		adds	r7, r7, #12
 212 0026 BD46     		mov	sp, r7
 213              		@ sp needed
 214 0028 90BD     		pop	{r4, r7, pc}
 215              		.cfi_endproc
 216              	.LFE229:
 217              		.size	SVC_Handler, .-SVC_Handler
 218 002a 00BFAFF3 		.section	.text._port_irq_epilogue,"ax",%progbits
 218      0080
 219              		.align	2
 220              		.p2align 4,,15
 221              		.global	_port_irq_epilogue
 222              		.thumb
 223              		.thumb_func
ARM GAS  C:\Users\Luis\AppData\Local\Temp\ccPt6fch.s 			page 5


 224              		.type	_port_irq_epilogue, %function
 225              	_port_irq_epilogue:
 226              	.LFB230:
 227              		.loc 3 122 0
 228              		.cfi_startproc
 229              		@ args = 0, pretend = 0, frame = 8
 230              		@ frame_needed = 1, uses_anonymous_args = 0
 231 0000 90B5     		push	{r4, r7, lr}
 232              		.cfi_def_cfa_offset 12
 233              		.cfi_offset 4, -12
 234              		.cfi_offset 7, -8
 235              		.cfi_offset 14, -4
 236 0002 83B0     		sub	sp, sp, #12
 237              		.cfi_def_cfa_offset 24
 238 0004 00AF     		add	r7, sp, #0
 239              		.cfi_def_cfa_register 7
 240              		.loc 3 124 0
 241 0006 FFF7FEFF 		bl	port_lock_from_isr
 242              		.loc 3 125 0
 243 000a 144B     		ldr	r3, .L13
 244 000c 5B68     		ldr	r3, [r3, #4]
 245 000e 03F40063 		and	r3, r3, #2048
 246 0012 002B     		cmp	r3, #0
 247 0014 1DD0     		beq	.L8
 248              	.LBB23:
 249              	.LBB24:
 250              	.LBB25:
 251              		.loc 2 428 0
 252              	@ 428 "../../ChibiOS/os/ext/CMSIS/include/core_cmFunc.h" 1
 253 0016 EFF30983 		MRS r3, psp
 254              	
 255              	@ 0 "" 2
 256              		.thumb
 257 001a 1C46     		mov	r4, r3
 258              		.loc 2 429 0
 259 001c 2346     		mov	r3, r4
 260              	.LBE25:
 261              	.LBE24:
 262              		.loc 3 134 0
 263 001e 7B60     		str	r3, [r7, #4]
 264              		.loc 3 138 0
 265 0020 7B68     		ldr	r3, [r7, #4]
 266 0022 203B     		subs	r3, r3, #32
 267 0024 7B60     		str	r3, [r7, #4]
 268              		.loc 3 141 0
 269 0026 7B68     		ldr	r3, [r7, #4]
 270 0028 4FF08072 		mov	r2, #16777216
 271 002c DA61     		str	r2, [r3, #28]
 272              		.loc 3 147 0
 273 002e 7B68     		ldr	r3, [r7, #4]
 274 0030 3B60     		str	r3, [r7]
 275              	.LBB26:
 276              	.LBB27:
 277              		.loc 2 441 0
 278 0032 3B68     		ldr	r3, [r7]
 279              	@ 441 "../../ChibiOS/os/ext/CMSIS/include/core_cmFunc.h" 1
 280 0034 83F30988 		MSR psp, r3
ARM GAS  C:\Users\Luis\AppData\Local\Temp\ccPt6fch.s 			page 6


 281              	
 282              	@ 0 "" 2
 283              		.thumb
 284              	.LBE27:
 285              	.LBE26:
 286              		.loc 3 151 0
 287 0038 FFF7FEFF 		bl	chSchIsPreemptionRequired
 288 003c 0346     		mov	r3, r0
 289 003e 002B     		cmp	r3, #0
 290 0040 03D0     		beq	.L10
 291              		.loc 3 153 0
 292 0042 7B68     		ldr	r3, [r7, #4]
 293 0044 064A     		ldr	r2, .L13+4
 294 0046 9A61     		str	r2, [r3, #24]
 295              		.loc 3 163 0
 296 0048 05E0     		b	.L7
 297              	.L10:
 298              		.loc 3 158 0
 299 004a 7B68     		ldr	r3, [r7, #4]
 300 004c 054A     		ldr	r2, .L13+8
 301 004e 9A61     		str	r2, [r3, #24]
 302              		.loc 3 163 0
 303 0050 01E0     		b	.L7
 304              	.L8:
 305              	.LBE23:
 306              		.loc 3 165 0
 307 0052 FFF7FEFF 		bl	port_unlock_from_isr
 308              	.L7:
 309              		.loc 3 166 0
 310 0056 0C37     		adds	r7, r7, #12
 311 0058 BD46     		mov	sp, r7
 312              		@ sp needed
 313 005a 90BD     		pop	{r4, r7, pc}
 314              	.L14:
 315              		.align	2
 316              	.L13:
 317 005c 00ED00E0 		.word	-536810240
 318 0060 00000000 		.word	_port_switch_from_isr
 319 0064 00000000 		.word	_port_exit_from_isr
 320              		.cfi_endproc
 321              	.LFE230:
 322              		.size	_port_irq_epilogue, .-_port_irq_epilogue
 323 0068 AFF30080 		.text
 323      AFF30080 
 324              	.Letext0:
 325              		.file 4 "c:\\emtechesdk\\gcc\\arm-none-eabi\\include\\stdint.h"
 326              		.file 5 "../../ChibiOS/os/rt/ports/ARMCMx/compilers/GCC/chtypes.h"
 327              		.file 6 "../../ChibiOS/os/rt/include/chsystypes.h"
 328              		.file 7 "../../ChibiOS/os/rt/include/chschd.h"
 329              		.file 8 "../../ChibiOS/os/ext/CMSIS/include/core_cm4.h"
 330              		.file 9 "../../ChibiOS/os/rt/ports/ARMCMx/chcore.h"
 331              		.file 10 "../../ChibiOS/os/rt/include/chdebug.h"
 332              		.file 11 "../../ChibiOS/os/rt/include/chtm.h"
 333              		.file 12 "../../ChibiOS/os/rt/include/chstats.h"
 334              		.file 13 "../../ChibiOS/os/rt/include/chsem.h"
 335              		.file 14 "../../ChibiOS/os/rt/include/chmtx.h"