ARM GAS  C:\Users\Luis\AppData\Local\Temp\ccE330xk.s 			page 1


   1              		.syntax unified
   2              		.cpu cortex-m4
   3              		.fpu softvfp
   4              		.eabi_attribute 20, 1
   5              		.eabi_attribute 21, 1
   6              		.eabi_attribute 23, 3
   7              		.eabi_attribute 24, 1
   8              		.eabi_attribute 25, 1
   9              		.eabi_attribute 26, 1
  10              		.eabi_attribute 30, 6
  11              		.eabi_attribute 34, 1
  12              		.eabi_attribute 18, 4
  13              		.thumb
  14              		.file	"chdebug.c"
  15              		.text
  16              	.Ltext0:
  17              		.cfi_sections	.debug_frame
  18              		.section	.text.port_lock,"ax",%progbits
  19              		.align	2
  20              		.p2align 4,,15
  21              		.thumb
  22              		.thumb_func
  23              		.type	port_lock, %function
  24              	port_lock:
  25              	.LFB116:
  26              		.file 1 "../../ChibiOS/os/rt/ports/ARMCMx/chcore_v7m.h"
  27              		.loc 1 444 0
  28              		.cfi_startproc
  29              		@ args = 0, pretend = 0, frame = 8
  30              		@ frame_needed = 1, uses_anonymous_args = 0
  31              		@ link register save eliminated.
  32 0000 80B4     		push	{r7}
  33              		.cfi_def_cfa_offset 4
  34              		.cfi_offset 7, -4
  35 0002 83B0     		sub	sp, sp, #12
  36              		.cfi_def_cfa_offset 16
  37 0004 00AF     		add	r7, sp, #0
  38              		.cfi_def_cfa_register 7
  39 0006 2023     		movs	r3, #32
  40 0008 7B60     		str	r3, [r7, #4]
  41              	.LBB6:
  42              	.LBB7:
  43              		.file 2 "../../ChibiOS/os/ext/CMSIS/include/core_cmFunc.h"
  44              		.loc 2 546 0
  45 000a 7B68     		ldr	r3, [r7, #4]
  46              	@ 546 "../../ChibiOS/os/ext/CMSIS/include/core_cmFunc.h" 1
  47 000c 83F31188 		MSR basepri, r3
  48              	@ 0 "" 2
  49              		.thumb
  50              	.LBE7:
  51              	.LBE6:
  52              		.loc 1 451 0
  53 0010 0C37     		adds	r7, r7, #12
  54 0012 BD46     		mov	sp, r7
  55              		@ sp needed
  56 0014 5DF8047B 		ldr	r7, [sp], #4
  57 0018 7047     		bx	lr
ARM GAS  C:\Users\Luis\AppData\Local\Temp\ccE330xk.s 			page 2


  58              		.cfi_endproc
  59              	.LFE116:
  60              		.size	port_lock, .-port_lock
  61 001a 00BFAFF3 		.section	.text.port_unlock,"ax",%progbits
  61      0080
  62              		.align	2
  63              		.p2align 4,,15
  64              		.thumb
  65              		.thumb_func
  66              		.type	port_unlock, %function
  67              	port_unlock:
  68              	.LFB117:
  69              		.loc 1 458 0
  70              		.cfi_startproc
  71              		@ args = 0, pretend = 0, frame = 8
  72              		@ frame_needed = 1, uses_anonymous_args = 0
  73              		@ link register save eliminated.
  74 0000 80B4     		push	{r7}
  75              		.cfi_def_cfa_offset 4
  76              		.cfi_offset 7, -4
  77 0002 83B0     		sub	sp, sp, #12
  78              		.cfi_def_cfa_offset 16
  79 0004 00AF     		add	r7, sp, #0
  80              		.cfi_def_cfa_register 7
  81 0006 0023     		movs	r3, #0
  82 0008 7B60     		str	r3, [r7, #4]
  83              	.LBB8:
  84              	.LBB9:
  85              		.loc 2 546 0
  86 000a 7B68     		ldr	r3, [r7, #4]
  87              	@ 546 "../../ChibiOS/os/ext/CMSIS/include/core_cmFunc.h" 1
  88 000c 83F31188 		MSR basepri, r3
  89              	@ 0 "" 2
  90              		.thumb
  91              	.LBE9:
  92              	.LBE8:
  93              		.loc 1 465 0
  94 0010 0C37     		adds	r7, r7, #12
  95 0012 BD46     		mov	sp, r7
  96              		@ sp needed
  97 0014 5DF8047B 		ldr	r7, [sp], #4
  98 0018 7047     		bx	lr
  99              		.cfi_endproc
 100              	.LFE117:
 101              		.size	port_unlock, .-port_unlock
 102 001a 00BFAFF3 		.section	.text.port_lock_from_isr,"ax",%progbits
 102      0080
 103              		.align	2
 104              		.p2align 4,,15
 105              		.thumb
 106              		.thumb_func
 107              		.type	port_lock_from_isr, %function
 108              	port_lock_from_isr:
 109              	.LFB118:
 110              		.loc 1 473 0
 111              		.cfi_startproc
 112              		@ args = 0, pretend = 0, frame = 0
ARM GAS  C:\Users\Luis\AppData\Local\Temp\ccE330xk.s 			page 3


 113              		@ frame_needed = 1, uses_anonymous_args = 0
 114 0000 80B5     		push	{r7, lr}
 115              		.cfi_def_cfa_offset 8
 116              		.cfi_offset 7, -8
 117              		.cfi_offset 14, -4
 118 0002 00AF     		add	r7, sp, #0
 119              		.cfi_def_cfa_register 7
 120              		.loc 1 475 0
 121 0004 FFF7FEFF 		bl	port_lock
 122              		.loc 1 476 0
 123 0008 80BD     		pop	{r7, pc}
 124              		.cfi_endproc
 125              	.LFE118:
 126              		.size	port_lock_from_isr, .-port_lock_from_isr
 127 000a 00BFAFF3 		.section	.text.port_unlock_from_isr,"ax",%progbits
 127      0080
 128              		.align	2
 129              		.p2align 4,,15
 130              		.thumb
 131              		.thumb_func
 132              		.type	port_unlock_from_isr, %function
 133              	port_unlock_from_isr:
 134              	.LFB119:
 135              		.loc 1 484 0
 136              		.cfi_startproc
 137              		@ args = 0, pretend = 0, frame = 0
 138              		@ frame_needed = 1, uses_anonymous_args = 0
 139 0000 80B5     		push	{r7, lr}
 140              		.cfi_def_cfa_offset 8
 141              		.cfi_offset 7, -8
 142              		.cfi_offset 14, -4
 143 0002 00AF     		add	r7, sp, #0
 144              		.cfi_def_cfa_register 7
 145              		.loc 1 486 0
 146 0004 FFF7FEFF 		bl	port_unlock
 147              		.loc 1 487 0
 148 0008 80BD     		pop	{r7, pc}
 149              		.cfi_endproc
 150              	.LFE119:
 151              		.size	port_unlock_from_isr, .-port_unlock_from_isr
 152 000a 00BFAFF3 		.section	.text.st_lld_get_counter,"ax",%progbits
 152      0080
 153              		.align	2
 154              		.p2align 4,,15
 155              		.thumb
 156              		.thumb_func
 157              		.type	st_lld_get_counter, %function
 158              	st_lld_get_counter:
 159              	.LFB125:
 160              		.file 3 "../../ChibiOS/os/hal/ports/STM32/LLD/TIMv1/st_lld.h"
 161              		.loc 3 127 0
 162              		.cfi_startproc
 163              		@ args = 0, pretend = 0, frame = 0
 164              		@ frame_needed = 1, uses_anonymous_args = 0
 165              		@ link register save eliminated.
 166 0000 80B4     		push	{r7}
 167              		.cfi_def_cfa_offset 4
ARM GAS  C:\Users\Luis\AppData\Local\Temp\ccE330xk.s 			page 4


 168              		.cfi_offset 7, -4
 169 0002 00AF     		add	r7, sp, #0
 170              		.cfi_def_cfa_register 7
 171              		.loc 3 129 0
 172 0004 4FF08043 		mov	r3, #1073741824
 173 0008 5B6A     		ldr	r3, [r3, #36]
 174              		.loc 3 130 0
 175 000a 1846     		mov	r0, r3
 176 000c BD46     		mov	sp, r7
 177              		@ sp needed
 178 000e 5DF8047B 		ldr	r7, [sp], #4
 179 0012 7047     		bx	lr
 180              		.cfi_endproc
 181              	.LFE125:
 182              		.size	st_lld_get_counter, .-st_lld_get_counter
 183 0014 AFF30080 		.section	.text.port_timer_get_time,"ax",%progbits
 183      AFF30080 
 183      AFF30080 
 184              		.align	2
 185              		.p2align 4,,15
 186              		.thumb
 187              		.thumb_func
 188              		.type	port_timer_get_time, %function
 189              	port_timer_get_time:
 190              	.LFB134:
 191              		.file 4 "../../ChibiOS/os/rt/ports/ARMCMx/chcore_timer.h"
 192              		.loc 4 105 0
 193              		.cfi_startproc
 194              		@ args = 0, pretend = 0, frame = 0
 195              		@ frame_needed = 1, uses_anonymous_args = 0
 196 0000 80B5     		push	{r7, lr}
 197              		.cfi_def_cfa_offset 8
 198              		.cfi_offset 7, -8
 199              		.cfi_offset 14, -4
 200 0002 00AF     		add	r7, sp, #0
 201              		.cfi_def_cfa_register 7
 202              		.loc 4 107 0
 203 0004 FFF7FEFF 		bl	st_lld_get_counter
 204 0008 0346     		mov	r3, r0
 205              		.loc 4 108 0
 206 000a 1846     		mov	r0, r3
 207 000c 80BD     		pop	{r7, pc}
 208              		.cfi_endproc
 209              	.LFE134:
 210              		.size	port_timer_get_time, .-port_timer_get_time
 211 000e 00BF     		.section	.text.chVTGetSystemTimeX,"ax",%progbits
 212              		.align	2
 213              		.p2align 4,,15
 214              		.thumb
 215              		.thumb_func
 216              		.type	chVTGetSystemTimeX, %function
 217              	chVTGetSystemTimeX:
 218              	.LFB164:
 219              		.file 5 "../../ChibiOS/os/rt/include/chvt.h"
 220              		.loc 5 228 0
 221              		.cfi_startproc
 222              		@ args = 0, pretend = 0, frame = 0
ARM GAS  C:\Users\Luis\AppData\Local\Temp\ccE330xk.s 			page 5


 223              		@ frame_needed = 1, uses_anonymous_args = 0
 224 0000 80B5     		push	{r7, lr}
 225              		.cfi_def_cfa_offset 8
 226              		.cfi_offset 7, -8
 227              		.cfi_offset 14, -4
 228 0002 00AF     		add	r7, sp, #0
 229              		.cfi_def_cfa_register 7
 230              		.loc 5 233 0
 231 0004 FFF7FEFF 		bl	port_timer_get_time
 232 0008 0346     		mov	r3, r0
 233              		.loc 5 235 0
 234 000a 1846     		mov	r0, r3
 235 000c 80BD     		pop	{r7, pc}
 236              		.cfi_endproc
 237              	.LFE164:
 238              		.size	chVTGetSystemTimeX, .-chVTGetSystemTimeX
 239 000e 00BF     		.section	.rodata
 240              		.align	2
 241              	.LC0:
 242 0000 53562331 		.ascii	"SV#1\000"
 242      00
 243              		.section	.text._dbg_check_disable,"ax",%progbits
 244              		.align	2
 245              		.p2align 4,,15
 246              		.global	_dbg_check_disable
 247              		.thumb
 248              		.thumb_func
 249              		.type	_dbg_check_disable, %function
 250              	_dbg_check_disable:
 251              	.LFB229:
 252              		.file 6 "../../ChibiOS/os/rt/src/chdebug.c"
 253              		.loc 6 114 0
 254              		.cfi_startproc
 255              		@ args = 0, pretend = 0, frame = 0
 256              		@ frame_needed = 1, uses_anonymous_args = 0
 257 0000 80B5     		push	{r7, lr}
 258              		.cfi_def_cfa_offset 8
 259              		.cfi_offset 7, -8
 260              		.cfi_offset 14, -4
 261 0002 00AF     		add	r7, sp, #0
 262              		.cfi_def_cfa_register 7
 263              		.loc 6 116 0
 264 0004 054B     		ldr	r3, .L14
 265 0006 1B6B     		ldr	r3, [r3, #48]
 266 0008 002B     		cmp	r3, #0
 267 000a 03D1     		bne	.L12
 268              		.loc 6 116 0 is_stmt 0 discriminator 1
 269 000c 034B     		ldr	r3, .L14
 270 000e 5B6B     		ldr	r3, [r3, #52]
 271 0010 002B     		cmp	r3, #0
 272 0012 02D0     		beq	.L11
 273              	.L12:
 274              		.loc 6 117 0 is_stmt 1
 275 0014 0248     		ldr	r0, .L14+4
 276 0016 FFF7FEFF 		bl	chSysHalt
 277              	.L11:
 278              		.loc 6 119 0
ARM GAS  C:\Users\Luis\AppData\Local\Temp\ccE330xk.s 			page 6


 279 001a 80BD     		pop	{r7, pc}
 280              	.L15:
 281              		.align	2
 282              	.L14:
 283 001c 00000000 		.word	ch
 284 0020 00000000 		.word	.LC0
 285              		.cfi_endproc
 286              	.LFE229:
 287              		.size	_dbg_check_disable, .-_dbg_check_disable
 288 0024 AFF30080 		.section	.rodata
 288      AFF30080 
 288      AFF30080 
 289 0005 000000   		.align	2
 290              	.LC1:
 291 0008 53562332 		.ascii	"SV#2\000"
 291      00
 292              		.section	.text._dbg_check_suspend,"ax",%progbits
 293              		.align	2
 294              		.p2align 4,,15
 295              		.global	_dbg_check_suspend
 296              		.thumb
 297              		.thumb_func
 298              		.type	_dbg_check_suspend, %function
 299              	_dbg_check_suspend:
 300              	.LFB230:
 301              		.loc 6 126 0
 302              		.cfi_startproc
 303              		@ args = 0, pretend = 0, frame = 0
 304              		@ frame_needed = 1, uses_anonymous_args = 0
 305 0000 80B5     		push	{r7, lr}
 306              		.cfi_def_cfa_offset 8
 307              		.cfi_offset 7, -8
 308              		.cfi_offset 14, -4
 309 0002 00AF     		add	r7, sp, #0
 310              		.cfi_def_cfa_register 7
 311              		.loc 6 128 0
 312 0004 054B     		ldr	r3, .L19
 313 0006 1B6B     		ldr	r3, [r3, #48]
 314 0008 002B     		cmp	r3, #0
 315 000a 03D1     		bne	.L17
 316              		.loc 6 128 0 is_stmt 0 discriminator 1
 317 000c 034B     		ldr	r3, .L19
 318 000e 5B6B     		ldr	r3, [r3, #52]
 319 0010 002B     		cmp	r3, #0
 320 0012 02D0     		beq	.L16
 321              	.L17:
 322              		.loc 6 129 0 is_stmt 1
 323 0014 0248     		ldr	r0, .L19+4
 324 0016 FFF7FEFF 		bl	chSysHalt
 325              	.L16:
 326              		.loc 6 131 0
 327 001a 80BD     		pop	{r7, pc}
 328              	.L20:
 329              		.align	2
 330              	.L19:
 331 001c 00000000 		.word	ch
 332 0020 08000000 		.word	.LC1
ARM GAS  C:\Users\Luis\AppData\Local\Temp\ccE330xk.s 			page 7


 333              		.cfi_endproc
 334              	.LFE230:
 335              		.size	_dbg_check_suspend, .-_dbg_check_suspend
 336 0024 AFF30080 		.section	.rodata
 336      AFF30080 
 336      AFF30080 
 337 000d 000000   		.align	2
 338              	.LC2:
 339 0010 53562333 		.ascii	"SV#3\000"
 339      00
 340              		.section	.text._dbg_check_enable,"ax",%progbits
 341              		.align	2
 342              		.p2align 4,,15
 343              		.global	_dbg_check_enable
 344              		.thumb
 345              		.thumb_func
 346              		.type	_dbg_check_enable, %function
 347              	_dbg_check_enable:
 348              	.LFB231:
 349              		.loc 6 138 0
 350              		.cfi_startproc
 351              		@ args = 0, pretend = 0, frame = 0
 352              		@ frame_needed = 1, uses_anonymous_args = 0
 353 0000 80B5     		push	{r7, lr}
 354              		.cfi_def_cfa_offset 8
 355              		.cfi_offset 7, -8
 356              		.cfi_offset 14, -4
 357 0002 00AF     		add	r7, sp, #0
 358              		.cfi_def_cfa_register 7
 359              		.loc 6 140 0
 360 0004 054B     		ldr	r3, .L24
 361 0006 1B6B     		ldr	r3, [r3, #48]
 362 0008 002B     		cmp	r3, #0
 363 000a 03D1     		bne	.L22
 364              		.loc 6 140 0 is_stmt 0 discriminator 1
 365 000c 034B     		ldr	r3, .L24
 366 000e 5B6B     		ldr	r3, [r3, #52]
 367 0010 002B     		cmp	r3, #0
 368 0012 02D0     		beq	.L21
 369              	.L22:
 370              		.loc 6 141 0 is_stmt 1
 371 0014 0248     		ldr	r0, .L24+4
 372 0016 FFF7FEFF 		bl	chSysHalt
 373              	.L21:
 374              		.loc 6 143 0
 375 001a 80BD     		pop	{r7, pc}
 376              	.L25:
 377              		.align	2
 378              	.L24:
 379 001c 00000000 		.word	ch
 380 0020 10000000 		.word	.LC2
 381              		.cfi_endproc
 382              	.LFE231:
 383              		.size	_dbg_check_enable, .-_dbg_check_enable
 384 0024 AFF30080 		.section	.rodata
 384      AFF30080 
 384      AFF30080 
ARM GAS  C:\Users\Luis\AppData\Local\Temp\ccE330xk.s 			page 8


 385 0015 000000   		.align	2
 386              	.LC3:
 387 0018 53562334 		.ascii	"SV#4\000"
 387      00
 388              		.section	.text._dbg_check_lock,"ax",%progbits
 389              		.align	2
 390              		.p2align 4,,15
 391              		.global	_dbg_check_lock
 392              		.thumb
 393              		.thumb_func
 394              		.type	_dbg_check_lock, %function
 395              	_dbg_check_lock:
 396              	.LFB232:
 397              		.loc 6 150 0
 398              		.cfi_startproc
 399              		@ args = 0, pretend = 0, frame = 0
 400              		@ frame_needed = 1, uses_anonymous_args = 0
 401 0000 80B5     		push	{r7, lr}
 402              		.cfi_def_cfa_offset 8
 403              		.cfi_offset 7, -8
 404              		.cfi_offset 14, -4
 405 0002 00AF     		add	r7, sp, #0
 406              		.cfi_def_cfa_register 7
 407              		.loc 6 152 0
 408 0004 074B     		ldr	r3, .L29
 409 0006 1B6B     		ldr	r3, [r3, #48]
 410 0008 002B     		cmp	r3, #0
 411 000a 03D1     		bne	.L27
 412              		.loc 6 152 0 is_stmt 0 discriminator 1
 413 000c 054B     		ldr	r3, .L29
 414 000e 5B6B     		ldr	r3, [r3, #52]
 415 0010 002B     		cmp	r3, #0
 416 0012 02D0     		beq	.L28
 417              	.L27:
 418              		.loc 6 153 0 is_stmt 1
 419 0014 0448     		ldr	r0, .L29+4
 420 0016 FFF7FEFF 		bl	chSysHalt
 421              	.L28:
 422              		.loc 6 155 0
 423 001a 024B     		ldr	r3, .L29
 424 001c 0122     		movs	r2, #1
 425 001e 5A63     		str	r2, [r3, #52]
 426              		.loc 6 156 0
 427 0020 80BD     		pop	{r7, pc}
 428              	.L30:
 429 0022 00BF     		.align	2
 430              	.L29:
 431 0024 00000000 		.word	ch
 432 0028 18000000 		.word	.LC3
 433              		.cfi_endproc
 434              	.LFE232:
 435              		.size	_dbg_check_lock, .-_dbg_check_lock
 436 002c AFF30080 		.section	.rodata
 437 001d 000000   		.align	2
 438              	.LC4:
 439 0020 53562335 		.ascii	"SV#5\000"
 439      00
ARM GAS  C:\Users\Luis\AppData\Local\Temp\ccE330xk.s 			page 9


 440              		.section	.text._dbg_check_unlock,"ax",%progbits
 441              		.align	2
 442              		.p2align 4,,15
 443              		.global	_dbg_check_unlock
 444              		.thumb
 445              		.thumb_func
 446              		.type	_dbg_check_unlock, %function
 447              	_dbg_check_unlock:
 448              	.LFB233:
 449              		.loc 6 163 0
 450              		.cfi_startproc
 451              		@ args = 0, pretend = 0, frame = 0
 452              		@ frame_needed = 1, uses_anonymous_args = 0
 453 0000 80B5     		push	{r7, lr}
 454              		.cfi_def_cfa_offset 8
 455              		.cfi_offset 7, -8
 456              		.cfi_offset 14, -4
 457 0002 00AF     		add	r7, sp, #0
 458              		.cfi_def_cfa_register 7
 459              		.loc 6 165 0
 460 0004 074B     		ldr	r3, .L34
 461 0006 1B6B     		ldr	r3, [r3, #48]
 462 0008 002B     		cmp	r3, #0
 463 000a 03D1     		bne	.L32
 464              		.loc 6 165 0 is_stmt 0 discriminator 1
 465 000c 054B     		ldr	r3, .L34
 466 000e 5B6B     		ldr	r3, [r3, #52]
 467 0010 002B     		cmp	r3, #0
 468 0012 02DC     		bgt	.L33
 469              	.L32:
 470              		.loc 6 166 0 is_stmt 1
 471 0014 0448     		ldr	r0, .L34+4
 472 0016 FFF7FEFF 		bl	chSysHalt
 473              	.L33:
 474              		.loc 6 168 0
 475 001a 024B     		ldr	r3, .L34
 476 001c 0022     		movs	r2, #0
 477 001e 5A63     		str	r2, [r3, #52]
 478              		.loc 6 169 0
 479 0020 80BD     		pop	{r7, pc}
 480              	.L35:
 481 0022 00BF     		.align	2
 482              	.L34:
 483 0024 00000000 		.word	ch
 484 0028 20000000 		.word	.LC4
 485              		.cfi_endproc
 486              	.LFE233:
 487              		.size	_dbg_check_unlock, .-_dbg_check_unlock
 488 002c AFF30080 		.section	.rodata
 489 0025 000000   		.align	2
 490              	.LC5:
 491 0028 53562336 		.ascii	"SV#6\000"
 491      00
 492              		.section	.text._dbg_check_lock_from_isr,"ax",%progbits
 493              		.align	2
 494              		.p2align 4,,15
 495              		.global	_dbg_check_lock_from_isr
ARM GAS  C:\Users\Luis\AppData\Local\Temp\ccE330xk.s 			page 10


 496              		.thumb
 497              		.thumb_func
 498              		.type	_dbg_check_lock_from_isr, %function
 499              	_dbg_check_lock_from_isr:
 500              	.LFB234:
 501              		.loc 6 176 0
 502              		.cfi_startproc
 503              		@ args = 0, pretend = 0, frame = 0
 504              		@ frame_needed = 1, uses_anonymous_args = 0
 505 0000 80B5     		push	{r7, lr}
 506              		.cfi_def_cfa_offset 8
 507              		.cfi_offset 7, -8
 508              		.cfi_offset 14, -4
 509 0002 00AF     		add	r7, sp, #0
 510              		.cfi_def_cfa_register 7
 511              		.loc 6 178 0
 512 0004 074B     		ldr	r3, .L39
 513 0006 1B6B     		ldr	r3, [r3, #48]
 514 0008 002B     		cmp	r3, #0
 515 000a 03DD     		ble	.L37
 516              		.loc 6 178 0 is_stmt 0 discriminator 1
 517 000c 054B     		ldr	r3, .L39
 518 000e 5B6B     		ldr	r3, [r3, #52]
 519 0010 002B     		cmp	r3, #0
 520 0012 02D0     		beq	.L38
 521              	.L37:
 522              		.loc 6 179 0 is_stmt 1
 523 0014 0448     		ldr	r0, .L39+4
 524 0016 FFF7FEFF 		bl	chSysHalt
 525              	.L38:
 526              		.loc 6 181 0
 527 001a 024B     		ldr	r3, .L39
 528 001c 0122     		movs	r2, #1
 529 001e 5A63     		str	r2, [r3, #52]
 530              		.loc 6 182 0
 531 0020 80BD     		pop	{r7, pc}
 532              	.L40:
 533 0022 00BF     		.align	2
 534              	.L39:
 535 0024 00000000 		.word	ch
 536 0028 28000000 		.word	.LC5
 537              		.cfi_endproc
 538              	.LFE234:
 539              		.size	_dbg_check_lock_from_isr, .-_dbg_check_lock_from_isr
 540 002c AFF30080 		.section	.rodata
 541 002d 000000   		.align	2
 542              	.LC6:
 543 0030 53562337 		.ascii	"SV#7\000"
 543      00
 544              		.section	.text._dbg_check_unlock_from_isr,"ax",%progbits
 545              		.align	2
 546              		.p2align 4,,15
 547              		.global	_dbg_check_unlock_from_isr
 548              		.thumb
 549              		.thumb_func
 550              		.type	_dbg_check_unlock_from_isr, %function
 551              	_dbg_check_unlock_from_isr:
ARM GAS  C:\Users\Luis\AppData\Local\Temp\ccE330xk.s 			page 11


 552              	.LFB235:
 553              		.loc 6 189 0
 554              		.cfi_startproc
 555              		@ args = 0, pretend = 0, frame = 0
 556              		@ frame_needed = 1, uses_anonymous_args = 0
 557 0000 80B5     		push	{r7, lr}
 558              		.cfi_def_cfa_offset 8
 559              		.cfi_offset 7, -8
 560              		.cfi_offset 14, -4
 561 0002 00AF     		add	r7, sp, #0
 562              		.cfi_def_cfa_register 7
 563              		.loc 6 191 0
 564 0004 074B     		ldr	r3, .L44
 565 0006 1B6B     		ldr	r3, [r3, #48]
 566 0008 002B     		cmp	r3, #0
 567 000a 03DD     		ble	.L42
 568              		.loc 6 191 0 is_stmt 0 discriminator 1
 569 000c 054B     		ldr	r3, .L44
 570 000e 5B6B     		ldr	r3, [r3, #52]
 571 0010 002B     		cmp	r3, #0
 572 0012 02DC     		bgt	.L43
 573              	.L42:
 574              		.loc 6 192 0 is_stmt 1
 575 0014 0448     		ldr	r0, .L44+4
 576 0016 FFF7FEFF 		bl	chSysHalt
 577              	.L43:
 578              		.loc 6 194 0
 579 001a 024B     		ldr	r3, .L44
 580 001c 0022     		movs	r2, #0
 581 001e 5A63     		str	r2, [r3, #52]
 582              		.loc 6 195 0
 583 0020 80BD     		pop	{r7, pc}
 584              	.L45:
 585 0022 00BF     		.align	2
 586              	.L44:
 587 0024 00000000 		.word	ch
 588 0028 30000000 		.word	.LC6
 589              		.cfi_endproc
 590              	.LFE235:
 591              		.size	_dbg_check_unlock_from_isr, .-_dbg_check_unlock_from_isr
 592 002c AFF30080 		.section	.rodata
 593 0035 000000   		.align	2
 594              	.LC7:
 595 0038 53562338 		.ascii	"SV#8\000"
 595      00
 596              		.section	.text._dbg_check_enter_isr,"ax",%progbits
 597              		.align	2
 598              		.p2align 4,,15
 599              		.global	_dbg_check_enter_isr
 600              		.thumb
 601              		.thumb_func
 602              		.type	_dbg_check_enter_isr, %function
 603              	_dbg_check_enter_isr:
 604              	.LFB236:
 605              		.loc 6 202 0
 606              		.cfi_startproc
 607              		@ args = 0, pretend = 0, frame = 0
ARM GAS  C:\Users\Luis\AppData\Local\Temp\ccE330xk.s 			page 12


 608              		@ frame_needed = 1, uses_anonymous_args = 0
 609 0000 80B5     		push	{r7, lr}
 610              		.cfi_def_cfa_offset 8
 611              		.cfi_offset 7, -8
 612              		.cfi_offset 14, -4
 613 0002 00AF     		add	r7, sp, #0
 614              		.cfi_def_cfa_register 7
 615              		.loc 6 204 0
 616 0004 FFF7FEFF 		bl	port_lock_from_isr
 617              		.loc 6 205 0
 618 0008 094B     		ldr	r3, .L49
 619 000a 1B6B     		ldr	r3, [r3, #48]
 620 000c 002B     		cmp	r3, #0
 621 000e 03DB     		blt	.L47
 622              		.loc 6 205 0 is_stmt 0 discriminator 1
 623 0010 074B     		ldr	r3, .L49
 624 0012 5B6B     		ldr	r3, [r3, #52]
 625 0014 002B     		cmp	r3, #0
 626 0016 02D0     		beq	.L48
 627              	.L47:
 628              		.loc 6 206 0 is_stmt 1
 629 0018 0648     		ldr	r0, .L49+4
 630 001a FFF7FEFF 		bl	chSysHalt
 631              	.L48:
 632              		.loc 6 208 0
 633 001e 044B     		ldr	r3, .L49
 634 0020 1B6B     		ldr	r3, [r3, #48]
 635 0022 5A1C     		adds	r2, r3, #1
 636 0024 024B     		ldr	r3, .L49
 637 0026 1A63     		str	r2, [r3, #48]
 638              		.loc 6 209 0
 639 0028 FFF7FEFF 		bl	port_unlock_from_isr
 640              		.loc 6 210 0
 641 002c 80BD     		pop	{r7, pc}
 642              	.L50:
 643 002e 00BF     		.align	2
 644              	.L49:
 645 0030 00000000 		.word	ch
 646 0034 38000000 		.word	.LC7
 647              		.cfi_endproc
 648              	.LFE236:
 649              		.size	_dbg_check_enter_isr, .-_dbg_check_enter_isr
 650 0038 AFF30080 		.section	.rodata
 650      AFF30080 
 651 003d 000000   		.align	2
 652              	.LC8:
 653 0040 53562339 		.ascii	"SV#9\000"
 653      00
 654              		.section	.text._dbg_check_leave_isr,"ax",%progbits
 655              		.align	2
 656              		.p2align 4,,15
 657              		.global	_dbg_check_leave_isr
 658              		.thumb
 659              		.thumb_func
 660              		.type	_dbg_check_leave_isr, %function
 661              	_dbg_check_leave_isr:
 662              	.LFB237:
ARM GAS  C:\Users\Luis\AppData\Local\Temp\ccE330xk.s 			page 13


 663              		.loc 6 217 0
 664              		.cfi_startproc
 665              		@ args = 0, pretend = 0, frame = 0
 666              		@ frame_needed = 1, uses_anonymous_args = 0
 667 0000 80B5     		push	{r7, lr}
 668              		.cfi_def_cfa_offset 8
 669              		.cfi_offset 7, -8
 670              		.cfi_offset 14, -4
 671 0002 00AF     		add	r7, sp, #0
 672              		.cfi_def_cfa_register 7
 673              		.loc 6 219 0
 674 0004 FFF7FEFF 		bl	port_lock_from_isr
 675              		.loc 6 220 0
 676 0008 094B     		ldr	r3, .L54
 677 000a 1B6B     		ldr	r3, [r3, #48]
 678 000c 002B     		cmp	r3, #0
 679 000e 03DD     		ble	.L52
 680              		.loc 6 220 0 is_stmt 0 discriminator 1
 681 0010 074B     		ldr	r3, .L54
 682 0012 5B6B     		ldr	r3, [r3, #52]
 683 0014 002B     		cmp	r3, #0
 684 0016 02D0     		beq	.L53
 685              	.L52:
 686              		.loc 6 221 0 is_stmt 1
 687 0018 0648     		ldr	r0, .L54+4
 688 001a FFF7FEFF 		bl	chSysHalt
 689              	.L53:
 690              		.loc 6 223 0
 691 001e 044B     		ldr	r3, .L54
 692 0020 1B6B     		ldr	r3, [r3, #48]
 693 0022 5A1E     		subs	r2, r3, #1
 694 0024 024B     		ldr	r3, .L54
 695 0026 1A63     		str	r2, [r3, #48]
 696              		.loc 6 224 0
 697 0028 FFF7FEFF 		bl	port_unlock_from_isr
 698              		.loc 6 225 0
 699 002c 80BD     		pop	{r7, pc}
 700              	.L55:
 701 002e 00BF     		.align	2
 702              	.L54:
 703 0030 00000000 		.word	ch
 704 0034 40000000 		.word	.LC8
 705              		.cfi_endproc
 706              	.LFE237:
 707              		.size	_dbg_check_leave_isr, .-_dbg_check_leave_isr
 708 0038 AFF30080 		.section	.rodata
 708      AFF30080 
 709 0045 000000   		.align	2
 710              	.LC9:
 711 0048 53562331 		.ascii	"SV#10\000"
 711      3000
 712              		.section	.text.chDbgCheckClassI,"ax",%progbits
 713              		.align	2
 714              		.p2align 4,,15
 715              		.global	chDbgCheckClassI
 716              		.thumb
 717              		.thumb_func
ARM GAS  C:\Users\Luis\AppData\Local\Temp\ccE330xk.s 			page 14


 718              		.type	chDbgCheckClassI, %function
 719              	chDbgCheckClassI:
 720              	.LFB238:
 721              		.loc 6 235 0
 722              		.cfi_startproc
 723              		@ args = 0, pretend = 0, frame = 0
 724              		@ frame_needed = 1, uses_anonymous_args = 0
 725 0000 80B5     		push	{r7, lr}
 726              		.cfi_def_cfa_offset 8
 727              		.cfi_offset 7, -8
 728              		.cfi_offset 14, -4
 729 0002 00AF     		add	r7, sp, #0
 730              		.cfi_def_cfa_register 7
 731              		.loc 6 237 0
 732 0004 054B     		ldr	r3, .L59
 733 0006 1B6B     		ldr	r3, [r3, #48]
 734 0008 002B     		cmp	r3, #0
 735 000a 03DB     		blt	.L57
 736              		.loc 6 237 0 is_stmt 0 discriminator 1
 737 000c 034B     		ldr	r3, .L59
 738 000e 5B6B     		ldr	r3, [r3, #52]
 739 0010 002B     		cmp	r3, #0
 740 0012 02DC     		bgt	.L56
 741              	.L57:
 742              		.loc 6 238 0 is_stmt 1
 743 0014 0248     		ldr	r0, .L59+4
 744 0016 FFF7FEFF 		bl	chSysHalt
 745              	.L56:
 746              		.loc 6 240 0
 747 001a 80BD     		pop	{r7, pc}
 748              	.L60:
 749              		.align	2
 750              	.L59:
 751 001c 00000000 		.word	ch
 752 0020 48000000 		.word	.LC9
 753              		.cfi_endproc
 754              	.LFE238:
 755              		.size	chDbgCheckClassI, .-chDbgCheckClassI
 756 0024 AFF30080 		.section	.rodata
 756      AFF30080 
 756      AFF30080 
 757 004e 0000     		.align	2
 758              	.LC10:
 759 0050 53562331 		.ascii	"SV#11\000"
 759      3100
 760 0056 0000     		.section	.text.chDbgCheckClassS,"ax",%progbits
 761              		.align	2
 762              		.p2align 4,,15
 763              		.global	chDbgCheckClassS
 764              		.thumb
 765              		.thumb_func
 766              		.type	chDbgCheckClassS, %function
 767              	chDbgCheckClassS:
 768              	.LFB239:
 769              		.loc 6 250 0
 770              		.cfi_startproc
 771              		@ args = 0, pretend = 0, frame = 0
ARM GAS  C:\Users\Luis\AppData\Local\Temp\ccE330xk.s 			page 15


 772              		@ frame_needed = 1, uses_anonymous_args = 0
 773 0000 80B5     		push	{r7, lr}
 774              		.cfi_def_cfa_offset 8
 775              		.cfi_offset 7, -8
 776              		.cfi_offset 14, -4
 777 0002 00AF     		add	r7, sp, #0
 778              		.cfi_def_cfa_register 7
 779              		.loc 6 252 0
 780 0004 054B     		ldr	r3, .L64
 781 0006 1B6B     		ldr	r3, [r3, #48]
 782 0008 002B     		cmp	r3, #0
 783 000a 03D1     		bne	.L62
 784              		.loc 6 252 0 is_stmt 0 discriminator 1
 785 000c 034B     		ldr	r3, .L64
 786 000e 5B6B     		ldr	r3, [r3, #52]
 787 0010 002B     		cmp	r3, #0
 788 0012 02DC     		bgt	.L61
 789              	.L62:
 790              		.loc 6 253 0 is_stmt 1
 791 0014 0248     		ldr	r0, .L64+4
 792 0016 FFF7FEFF 		bl	chSysHalt
 793              	.L61:
 794              		.loc 6 255 0
 795 001a 80BD     		pop	{r7, pc}
 796              	.L65:
 797              		.align	2
 798              	.L64:
 799 001c 00000000 		.word	ch
 800 0020 50000000 		.word	.LC10
 801              		.cfi_endproc
 802              	.LFE239:
 803              		.size	chDbgCheckClassS, .-chDbgCheckClassS
 804 0024 AFF30080 		.section	.text._dbg_trace_init,"ax",%progbits
 804      AFF30080 
 804      AFF30080 
 805              		.align	2
 806              		.p2align 4,,15
 807              		.global	_dbg_trace_init
 808              		.thumb
 809              		.thumb_func
 810              		.type	_dbg_trace_init, %function
 811              	_dbg_trace_init:
 812              	.LFB240:
 813              		.loc 6 264 0
 814              		.cfi_startproc
 815              		@ args = 0, pretend = 0, frame = 0
 816              		@ frame_needed = 1, uses_anonymous_args = 0
 817              		@ link register save eliminated.
 818 0000 80B4     		push	{r7}
 819              		.cfi_def_cfa_offset 4
 820              		.cfi_offset 7, -4
 821 0002 00AF     		add	r7, sp, #0
 822              		.cfi_def_cfa_register 7
 823              		.loc 6 266 0
 824 0004 044B     		ldr	r3, .L67
 825 0006 4022     		movs	r2, #64
 826 0008 9A63     		str	r2, [r3, #56]
ARM GAS  C:\Users\Luis\AppData\Local\Temp\ccE330xk.s 			page 16


 827              		.loc 6 267 0
 828 000a 034B     		ldr	r3, .L67
 829 000c 034A     		ldr	r2, .L67+4
 830 000e DA63     		str	r2, [r3, #60]
 831              		.loc 6 268 0
 832 0010 BD46     		mov	sp, r7
 833              		@ sp needed
 834 0012 5DF8047B 		ldr	r7, [sp], #4
 835 0016 7047     		bx	lr
 836              	.L68:
 837              		.align	2
 838              	.L67:
 839 0018 00000000 		.word	ch
 840 001c 40000000 		.word	ch+64
 841              		.cfi_endproc
 842              	.LFE240:
 843              		.size	_dbg_trace_init, .-_dbg_trace_init
 844              		.section	.text._dbg_trace,"ax",%progbits
 845              		.align	2
 846              		.p2align 4,,15
 847              		.global	_dbg_trace
 848              		.thumb
 849              		.thumb_func
 850              		.type	_dbg_trace, %function
 851              	_dbg_trace:
 852              	.LFB241:
 853              		.loc 6 277 0
 854              		.cfi_startproc
 855              		@ args = 0, pretend = 0, frame = 8
 856              		@ frame_needed = 1, uses_anonymous_args = 0
 857 0000 90B5     		push	{r4, r7, lr}
 858              		.cfi_def_cfa_offset 12
 859              		.cfi_offset 4, -12
 860              		.cfi_offset 7, -8
 861              		.cfi_offset 14, -4
 862 0002 83B0     		sub	sp, sp, #12
 863              		.cfi_def_cfa_offset 24
 864 0004 00AF     		add	r7, sp, #0
 865              		.cfi_def_cfa_register 7
 866 0006 7860     		str	r0, [r7, #4]
 867              		.loc 6 279 0
 868 0008 134B     		ldr	r3, .L71
 869 000a DC6B     		ldr	r4, [r3, #60]
 870 000c FFF7FEFF 		bl	chVTGetSystemTimeX
 871 0010 0346     		mov	r3, r0
 872 0012 2360     		str	r3, [r4]
 873              		.loc 6 280 0
 874 0014 104B     		ldr	r3, .L71
 875 0016 DB6B     		ldr	r3, [r3, #60]
 876 0018 0F4A     		ldr	r2, .L71
 877 001a 9269     		ldr	r2, [r2, #24]
 878 001c 5A60     		str	r2, [r3, #4]
 879              		.loc 6 281 0
 880 001e 0E4B     		ldr	r3, .L71
 881 0020 DB6B     		ldr	r3, [r3, #60]
 882 0022 7A68     		ldr	r2, [r7, #4]
 883 0024 526A     		ldr	r2, [r2, #36]
ARM GAS  C:\Users\Luis\AppData\Local\Temp\ccE330xk.s 			page 17


 884 0026 9A60     		str	r2, [r3, #8]
 885              		.loc 6 282 0
 886 0028 0B4B     		ldr	r3, .L71
 887 002a DB6B     		ldr	r3, [r3, #60]
 888 002c 7A68     		ldr	r2, [r7, #4]
 889 002e 92F82020 		ldrb	r2, [r2, #32]	@ zero_extendqisi2
 890 0032 1A73     		strb	r2, [r3, #12]
 891              		.loc 6 283 0
 892 0034 084B     		ldr	r3, .L71
 893 0036 DB6B     		ldr	r3, [r3, #60]
 894 0038 03F11002 		add	r2, r3, #16
 895 003c 064B     		ldr	r3, .L71
 896 003e DA63     		str	r2, [r3, #60]
 897 0040 054B     		ldr	r3, .L71
 898 0042 DA6B     		ldr	r2, [r3, #60]
 899 0044 054B     		ldr	r3, .L71+4
 900 0046 9A42     		cmp	r2, r3
 901 0048 02D3     		bcc	.L69
 902              		.loc 6 285 0
 903 004a 034B     		ldr	r3, .L71
 904 004c 044A     		ldr	r2, .L71+8
 905 004e DA63     		str	r2, [r3, #60]
 906              	.L69:
 907              		.loc 6 287 0
 908 0050 0C37     		adds	r7, r7, #12
 909 0052 BD46     		mov	sp, r7
 910              		@ sp needed
 911 0054 90BD     		pop	{r4, r7, pc}
 912              	.L72:
 913 0056 00BF     		.align	2
 914              	.L71:
 915 0058 00000000 		.word	ch
 916 005c 40040000 		.word	ch+1088
 917 0060 40000000 		.word	ch+64
 918              		.cfi_endproc
 919              	.LFE241:
 920              		.size	_dbg_trace, .-_dbg_trace
 921 0064 AFF30080 		.text
 921      AFF30080 
 921      AFF30080 
 922              	.Letext0:
 923              		.file 7 "c:\\emtechesdk\\gcc\\arm-none-eabi\\include\\stdint.h"
 924              		.file 8 "../../ChibiOS/os/rt/ports/ARMCMx/compilers/GCC/chtypes.h"
 925              		.file 9 "../../ChibiOS/os/rt/include/chsystypes.h"
 926              		.file 10 "../../ChibiOS/os/rt/include/chschd.h"
 927              		.file 11 "../../ChibiOS/os/rt/ports/ARMCMx/chcore.h"
 928              		.file 12 "../../ChibiOS/os/hal/ports/STM32/LLD/TIMv1/stm32_tim.h"
 929              		.file 13 "../../ChibiOS/os/rt/include/chdebug.h"
 930              		.file 14 "../../ChibiOS/os/rt/include/chtm.h"
 931              		.file 15 "../../ChibiOS/os/rt/include/chstats.h"
 932              		.file 16 "../../ChibiOS/os/rt/include/chsem.h"
 933              		.file 17 "../../ChibiOS/os/rt/include/chmtx.h"
 934              		.file 18 "../../ChibiOS/os/ext/CMSIS/include/core_cm4.h"