ARM GAS  C:\Users\Luis\AppData\Local\Temp\ccGmsG3i.s 			page 1


   1              		.syntax unified
   2              		.cpu cortex-m4
   3              		.fpu softvfp
   4              		.eabi_attribute 20, 1
   5              		.eabi_attribute 21, 1
   6              		.eabi_attribute 23, 3
   7              		.eabi_attribute 24, 1
   8              		.eabi_attribute 25, 1
   9              		.eabi_attribute 26, 1
  10              		.eabi_attribute 30, 6
  11              		.eabi_attribute 34, 1
  12              		.eabi_attribute 18, 4
  13              		.thumb
  14              		.file	"chdynamic.c"
  15              		.text
  16              	.Ltext0:
  17              		.cfi_sections	.debug_frame
  18              		.section	.text.port_lock,"ax",%progbits
  19              		.align	2
  20              		.p2align 4,,15
  21              		.thumb
  22              		.thumb_func
  23              		.type	port_lock, %function
  24              	port_lock:
  25              	.LFB116:
  26              		.file 1 "../../ChibiOS/os/rt/ports/ARMCMx/chcore_v7m.h"
  27              		.loc 1 444 0
  28              		.cfi_startproc
  29              		@ args = 0, pretend = 0, frame = 8
  30              		@ frame_needed = 1, uses_anonymous_args = 0
  31              		@ link register save eliminated.
  32 0000 80B4     		push	{r7}
  33              		.cfi_def_cfa_offset 4
  34              		.cfi_offset 7, -4
  35 0002 83B0     		sub	sp, sp, #12
  36              		.cfi_def_cfa_offset 16
  37 0004 00AF     		add	r7, sp, #0
  38              		.cfi_def_cfa_register 7
  39 0006 2023     		movs	r3, #32
  40 0008 7B60     		str	r3, [r7, #4]
  41              	.LBB6:
  42              	.LBB7:
  43              		.file 2 "../../ChibiOS/os/ext/CMSIS/include/core_cmFunc.h"
  44              		.loc 2 546 0
  45 000a 7B68     		ldr	r3, [r7, #4]
  46              	@ 546 "../../ChibiOS/os/ext/CMSIS/include/core_cmFunc.h" 1
  47 000c 83F31188 		MSR basepri, r3
  48              	@ 0 "" 2
  49              		.thumb
  50              	.LBE7:
  51              	.LBE6:
  52              		.loc 1 451 0
  53 0010 0C37     		adds	r7, r7, #12
  54 0012 BD46     		mov	sp, r7
  55              		@ sp needed
  56 0014 5DF8047B 		ldr	r7, [sp], #4
  57 0018 7047     		bx	lr
ARM GAS  C:\Users\Luis\AppData\Local\Temp\ccGmsG3i.s 			page 2


  58              		.cfi_endproc
  59              	.LFE116:
  60              		.size	port_lock, .-port_lock
  61 001a 00BFAFF3 		.section	.text.port_unlock,"ax",%progbits
  61      0080
  62              		.align	2
  63              		.p2align 4,,15
  64              		.thumb
  65              		.thumb_func
  66              		.type	port_unlock, %function
  67              	port_unlock:
  68              	.LFB117:
  69              		.loc 1 458 0
  70              		.cfi_startproc
  71              		@ args = 0, pretend = 0, frame = 8
  72              		@ frame_needed = 1, uses_anonymous_args = 0
  73              		@ link register save eliminated.
  74 0000 80B4     		push	{r7}
  75              		.cfi_def_cfa_offset 4
  76              		.cfi_offset 7, -4
  77 0002 83B0     		sub	sp, sp, #12
  78              		.cfi_def_cfa_offset 16
  79 0004 00AF     		add	r7, sp, #0
  80              		.cfi_def_cfa_register 7
  81 0006 0023     		movs	r3, #0
  82 0008 7B60     		str	r3, [r7, #4]
  83              	.LBB8:
  84              	.LBB9:
  85              		.loc 2 546 0
  86 000a 7B68     		ldr	r3, [r7, #4]
  87              	@ 546 "../../ChibiOS/os/ext/CMSIS/include/core_cmFunc.h" 1
  88 000c 83F31188 		MSR basepri, r3
  89              	@ 0 "" 2
  90              		.thumb
  91              	.LBE9:
  92              	.LBE8:
  93              		.loc 1 465 0
  94 0010 0C37     		adds	r7, r7, #12
  95 0012 BD46     		mov	sp, r7
  96              		@ sp needed
  97 0014 5DF8047B 		ldr	r7, [sp], #4
  98 0018 7047     		bx	lr
  99              		.cfi_endproc
 100              	.LFE117:
 101              		.size	port_unlock, .-port_unlock
 102 001a 00BFAFF3 		.section	.text.chSysLock,"ax",%progbits
 102      0080
 103              		.align	2
 104              		.p2align 4,,15
 105              		.thumb
 106              		.thumb_func
 107              		.type	chSysLock, %function
 108              	chSysLock:
 109              	.LFB156:
 110              		.file 3 "../../ChibiOS/os/rt/include/chsys.h"
 111              		.loc 3 346 0
 112              		.cfi_startproc
ARM GAS  C:\Users\Luis\AppData\Local\Temp\ccGmsG3i.s 			page 3


 113              		@ args = 0, pretend = 0, frame = 0
 114              		@ frame_needed = 1, uses_anonymous_args = 0
 115 0000 80B5     		push	{r7, lr}
 116              		.cfi_def_cfa_offset 8
 117              		.cfi_offset 7, -8
 118              		.cfi_offset 14, -4
 119 0002 00AF     		add	r7, sp, #0
 120              		.cfi_def_cfa_register 7
 121              		.loc 3 348 0
 122 0004 FFF7FEFF 		bl	port_lock
 123              		.loc 3 349 0
 124 0008 FFF7FEFF 		bl	_stats_start_measure_crit_thd
 125              		.loc 3 350 0
 126 000c FFF7FEFF 		bl	_dbg_check_lock
 127              		.loc 3 351 0
 128 0010 80BD     		pop	{r7, pc}
 129              		.cfi_endproc
 130              	.LFE156:
 131              		.size	chSysLock, .-chSysLock
 132 0012 00BFAFF3 		.section	.text.chSysUnlock,"ax",%progbits
 132      0080AFF3 
 132      0080AFF3 
 132      0080
 133              		.align	2
 134              		.p2align 4,,15
 135              		.thumb
 136              		.thumb_func
 137              		.type	chSysUnlock, %function
 138              	chSysUnlock:
 139              	.LFB157:
 140              		.loc 3 358 0
 141              		.cfi_startproc
 142              		@ args = 0, pretend = 0, frame = 0
 143              		@ frame_needed = 1, uses_anonymous_args = 0
 144 0000 80B5     		push	{r7, lr}
 145              		.cfi_def_cfa_offset 8
 146              		.cfi_offset 7, -8
 147              		.cfi_offset 14, -4
 148 0002 00AF     		add	r7, sp, #0
 149              		.cfi_def_cfa_register 7
 150              		.loc 3 360 0
 151 0004 FFF7FEFF 		bl	_dbg_check_unlock
 152              		.loc 3 361 0
 153 0008 FFF7FEFF 		bl	_stats_stop_measure_crit_thd
 154              		.loc 3 367 0
 155 000c 094B     		ldr	r3, .L6
 156 000e 1A68     		ldr	r2, [r3]
 157 0010 084B     		ldr	r3, .L6
 158 0012 9A42     		cmp	r2, r3
 159 0014 0AD0     		beq	.L5
 160              		.loc 3 367 0 is_stmt 0 discriminator 1
 161 0016 074B     		ldr	r3, .L6
 162 0018 9B69     		ldr	r3, [r3, #24]
 163 001a 9A68     		ldr	r2, [r3, #8]
 164 001c 054B     		ldr	r3, .L6
 165 001e 1B68     		ldr	r3, [r3]
 166 0020 9B68     		ldr	r3, [r3, #8]
ARM GAS  C:\Users\Luis\AppData\Local\Temp\ccGmsG3i.s 			page 4


 167 0022 9A42     		cmp	r2, r3
 168 0024 02D2     		bcs	.L5
 169 0026 0448     		ldr	r0, .L6+4
 170 0028 FFF7FEFF 		bl	chSysHalt
 171              	.L5:
 172              		.loc 3 371 0 is_stmt 1
 173 002c FFF7FEFF 		bl	port_unlock
 174              		.loc 3 372 0
 175 0030 80BD     		pop	{r7, pc}
 176              	.L7:
 177 0032 00BF     		.align	2
 178              	.L6:
 179 0034 00000000 		.word	ch
 180 0038 00000000 		.word	__func__.5842
 181              		.cfi_endproc
 182              	.LFE157:
 183              		.size	chSysUnlock, .-chSysUnlock
 184 003c AFF30080 		.section	.text.chThdAddRef,"ax",%progbits
 185              		.align	2
 186              		.p2align 4,,15
 187              		.global	chThdAddRef
 188              		.thumb
 189              		.thumb_func
 190              		.type	chThdAddRef, %function
 191              	chThdAddRef:
 192              	.LFB229:
 193              		.file 4 "../../ChibiOS/os/rt/src/chdynamic.c"
 194              		.loc 4 68 0
 195              		.cfi_startproc
 196              		@ args = 0, pretend = 0, frame = 8
 197              		@ frame_needed = 1, uses_anonymous_args = 0
 198 0000 80B5     		push	{r7, lr}
 199              		.cfi_def_cfa_offset 8
 200              		.cfi_offset 7, -8
 201              		.cfi_offset 14, -4
 202 0002 82B0     		sub	sp, sp, #8
 203              		.cfi_def_cfa_offset 16
 204 0004 00AF     		add	r7, sp, #0
 205              		.cfi_def_cfa_register 7
 206 0006 7860     		str	r0, [r7, #4]
 207              		.loc 4 70 0
 208 0008 FFF7FEFF 		bl	chSysLock
 209              		.loc 4 71 0
 210 000c 7B68     		ldr	r3, [r7, #4]
 211 000e 93F82230 		ldrb	r3, [r3, #34]	@ zero_extendqisi2
 212 0012 FF2B     		cmp	r3, #255
 213 0014 02D1     		bne	.L9
 214              		.loc 4 71 0 is_stmt 0 discriminator 1
 215 0016 0948     		ldr	r0, .L11
 216 0018 FFF7FEFF 		bl	chSysHalt
 217              	.L9:
 218              		.loc 4 72 0 is_stmt 1
 219 001c 7B68     		ldr	r3, [r7, #4]
 220 001e 93F82230 		ldrb	r3, [r3, #34]	@ zero_extendqisi2
 221 0022 0133     		adds	r3, r3, #1
 222 0024 DAB2     		uxtb	r2, r3
 223 0026 7B68     		ldr	r3, [r7, #4]
ARM GAS  C:\Users\Luis\AppData\Local\Temp\ccGmsG3i.s 			page 5


 224 0028 83F82220 		strb	r2, [r3, #34]
 225              		.loc 4 73 0
 226 002c FFF7FEFF 		bl	chSysUnlock
 227              		.loc 4 75 0
 228 0030 7B68     		ldr	r3, [r7, #4]
 229              		.loc 4 76 0
 230 0032 1846     		mov	r0, r3
 231 0034 0837     		adds	r7, r7, #8
 232 0036 BD46     		mov	sp, r7
 233              		@ sp needed
 234 0038 80BD     		pop	{r7, pc}
 235              	.L12:
 236 003a 00BF     		.align	2
 237              	.L11:
 238 003c 00000000 		.word	__func__.6537
 239              		.cfi_endproc
 240              	.LFE229:
 241              		.size	chThdAddRef, .-chThdAddRef
 242              		.section	.text.chThdRelease,"ax",%progbits
 243              		.align	2
 244              		.p2align 4,,15
 245              		.global	chThdRelease
 246              		.thumb
 247              		.thumb_func
 248              		.type	chThdRelease, %function
 249              	chThdRelease:
 250              	.LFB230:
 251              		.loc 4 91 0
 252              		.cfi_startproc
 253              		@ args = 0, pretend = 0, frame = 16
 254              		@ frame_needed = 1, uses_anonymous_args = 0
 255 0000 80B5     		push	{r7, lr}
 256              		.cfi_def_cfa_offset 8
 257              		.cfi_offset 7, -8
 258              		.cfi_offset 14, -4
 259 0002 84B0     		sub	sp, sp, #16
 260              		.cfi_def_cfa_offset 24
 261 0004 00AF     		add	r7, sp, #0
 262              		.cfi_def_cfa_register 7
 263 0006 7860     		str	r0, [r7, #4]
 264              		.loc 4 94 0
 265 0008 FFF7FEFF 		bl	chSysLock
 266              		.loc 4 95 0
 267 000c 7B68     		ldr	r3, [r7, #4]
 268 000e 93F82230 		ldrb	r3, [r3, #34]	@ zero_extendqisi2
 269 0012 002B     		cmp	r3, #0
 270 0014 02D1     		bne	.L14
 271              		.loc 4 95 0 is_stmt 0 discriminator 1
 272 0016 2248     		ldr	r0, .L19
 273 0018 FFF7FEFF 		bl	chSysHalt
 274              	.L14:
 275              		.loc 4 96 0 is_stmt 1
 276 001c 7B68     		ldr	r3, [r7, #4]
 277 001e 93F82230 		ldrb	r3, [r3, #34]	@ zero_extendqisi2
 278 0022 013B     		subs	r3, r3, #1
 279 0024 DAB2     		uxtb	r2, r3
 280 0026 7B68     		ldr	r3, [r7, #4]
ARM GAS  C:\Users\Luis\AppData\Local\Temp\ccGmsG3i.s 			page 6


 281 0028 83F82220 		strb	r2, [r3, #34]
 282              		.loc 4 97 0
 283 002c 7B68     		ldr	r3, [r7, #4]
 284 002e 93F82230 		ldrb	r3, [r3, #34]
 285 0032 FB73     		strb	r3, [r7, #15]
 286              		.loc 4 98 0
 287 0034 FFF7FEFF 		bl	chSysUnlock
 288              		.loc 4 103 0
 289 0038 FB7B     		ldrb	r3, [r7, #15]	@ zero_extendqisi2
 290 003a 002B     		cmp	r3, #0
 291 003c 2DD1     		bne	.L13
 292              		.loc 4 103 0 is_stmt 0 discriminator 1
 293 003e 7B68     		ldr	r3, [r7, #4]
 294 0040 93F82030 		ldrb	r3, [r3, #32]	@ zero_extendqisi2
 295 0044 0F2B     		cmp	r3, #15
 296 0046 28D1     		bne	.L13
 297              		.loc 4 104 0 is_stmt 1
 298 0048 7B68     		ldr	r3, [r7, #4]
 299 004a 93F82130 		ldrb	r3, [r3, #33]	@ zero_extendqisi2
 300 004e 03F00303 		and	r3, r3, #3
 301 0052 012B     		cmp	r3, #1
 302 0054 02D0     		beq	.L17
 303 0056 022B     		cmp	r3, #2
 304 0058 0ED0     		beq	.L18
 305              		.loc 4 124 0
 306 005a 1EE0     		b	.L13
 307              	.L17:
 308              		.loc 4 108 0
 309 005c 7B68     		ldr	r3, [r7, #4]
 310 005e 5B69     		ldr	r3, [r3, #20]
 311 0060 7A68     		ldr	r2, [r7, #4]
 312 0062 1269     		ldr	r2, [r2, #16]
 313 0064 1A61     		str	r2, [r3, #16]
 314 0066 7B68     		ldr	r3, [r7, #4]
 315 0068 1B69     		ldr	r3, [r3, #16]
 316 006a 7A68     		ldr	r2, [r7, #4]
 317 006c 5269     		ldr	r2, [r2, #20]
 318 006e 5A61     		str	r2, [r3, #20]
 319              		.loc 4 110 0
 320 0070 7868     		ldr	r0, [r7, #4]
 321 0072 FFF7FEFF 		bl	chHeapFree
 322              		.loc 4 111 0
 323 0076 10E0     		b	.L13
 324              	.L18:
 325              		.loc 4 116 0
 326 0078 7B68     		ldr	r3, [r7, #4]
 327 007a 5B69     		ldr	r3, [r3, #20]
 328 007c 7A68     		ldr	r2, [r7, #4]
 329 007e 1269     		ldr	r2, [r2, #16]
 330 0080 1A61     		str	r2, [r3, #16]
 331 0082 7B68     		ldr	r3, [r7, #4]
 332 0084 1B69     		ldr	r3, [r3, #16]
 333 0086 7A68     		ldr	r2, [r7, #4]
 334 0088 5269     		ldr	r2, [r2, #20]
 335 008a 5A61     		str	r2, [r3, #20]
 336              		.loc 4 118 0
 337 008c 7B68     		ldr	r3, [r7, #4]
ARM GAS  C:\Users\Luis\AppData\Local\Temp\ccGmsG3i.s 			page 7


 338 008e 5B6C     		ldr	r3, [r3, #68]
 339 0090 1846     		mov	r0, r3
 340 0092 7968     		ldr	r1, [r7, #4]
 341 0094 FFF7FEFF 		bl	chPoolFree
 342              		.loc 4 119 0
 343 0098 00BF     		nop
 344              	.L13:
 345              		.loc 4 127 0
 346 009a 1037     		adds	r7, r7, #16
 347 009c BD46     		mov	sp, r7
 348              		@ sp needed
 349 009e 80BD     		pop	{r7, pc}
 350              	.L20:
 351              		.align	2
 352              	.L19:
 353 00a0 00000000 		.word	__func__.6542
 354              		.cfi_endproc
 355              	.LFE230:
 356              		.size	chThdRelease, .-chThdRelease
 357 00a4 AFF30080 		.section	.text.chThdCreateFromHeap,"ax",%progbits
 357      AFF30080 
 357      AFF30080 
 358              		.align	2
 359              		.p2align 4,,15
 360              		.global	chThdCreateFromHeap
 361              		.thumb
 362              		.thumb_func
 363              		.type	chThdCreateFromHeap, %function
 364              	chThdCreateFromHeap:
 365              	.LFB231:
 366              		.loc 4 153 0
 367              		.cfi_startproc
 368              		@ args = 4, pretend = 0, frame = 24
 369              		@ frame_needed = 1, uses_anonymous_args = 0
 370 0000 80B5     		push	{r7, lr}
 371              		.cfi_def_cfa_offset 8
 372              		.cfi_offset 7, -8
 373              		.cfi_offset 14, -4
 374 0002 88B0     		sub	sp, sp, #32
 375              		.cfi_def_cfa_offset 40
 376 0004 02AF     		add	r7, sp, #8
 377              		.cfi_def_cfa 7, 32
 378 0006 F860     		str	r0, [r7, #12]
 379 0008 B960     		str	r1, [r7, #8]
 380 000a 7A60     		str	r2, [r7, #4]
 381 000c 3B60     		str	r3, [r7]
 382              		.loc 4 157 0
 383 000e F868     		ldr	r0, [r7, #12]
 384 0010 B968     		ldr	r1, [r7, #8]
 385 0012 FFF7FEFF 		bl	chHeapAlloc
 386 0016 7861     		str	r0, [r7, #20]
 387              		.loc 4 158 0
 388 0018 7B69     		ldr	r3, [r7, #20]
 389 001a 002B     		cmp	r3, #0
 390 001c 01D1     		bne	.L22
 391              		.loc 4 159 0
 392 001e 0023     		movs	r3, #0
ARM GAS  C:\Users\Luis\AppData\Local\Temp\ccGmsG3i.s 			page 8


 393 0020 27E0     		b	.L23
 394              	.L22:
 395              		.loc 4 163 0
 396 0022 7B69     		ldr	r3, [r7, #20]
 397 0024 6833     		adds	r3, r3, #104
 398 0026 7869     		ldr	r0, [r7, #20]
 399 0028 1946     		mov	r1, r3
 400 002a FF22     		movs	r2, #255
 401 002c FFF7FEFF 		bl	_thread_memfill
 402              		.loc 4 166 0
 403 0030 7B69     		ldr	r3, [r7, #20]
 404 0032 03F16802 		add	r2, r3, #104
 405 0036 7969     		ldr	r1, [r7, #20]
 406 0038 BB68     		ldr	r3, [r7, #8]
 407 003a 0B44     		add	r3, r3, r1
 408 003c 1046     		mov	r0, r2
 409 003e 1946     		mov	r1, r3
 410 0040 5522     		movs	r2, #85
 411 0042 FFF7FEFF 		bl	_thread_memfill
 412              		.loc 4 171 0
 413 0046 FFF7FEFF 		bl	chSysLock
 414              		.loc 4 172 0
 415 004a 3B6A     		ldr	r3, [r7, #32]
 416 004c 0093     		str	r3, [sp]
 417 004e 7869     		ldr	r0, [r7, #20]
 418 0050 B968     		ldr	r1, [r7, #8]
 419 0052 7A68     		ldr	r2, [r7, #4]
 420 0054 3B68     		ldr	r3, [r7]
 421 0056 FFF7FEFF 		bl	chThdCreateI
 422 005a 3861     		str	r0, [r7, #16]
 423              		.loc 4 173 0
 424 005c 3B69     		ldr	r3, [r7, #16]
 425 005e 0122     		movs	r2, #1
 426 0060 83F82120 		strb	r2, [r3, #33]
 427              		.loc 4 174 0
 428 0064 3869     		ldr	r0, [r7, #16]
 429 0066 0021     		movs	r1, #0
 430 0068 FFF7FEFF 		bl	chSchWakeupS
 431              		.loc 4 175 0
 432 006c FFF7FEFF 		bl	chSysUnlock
 433              		.loc 4 177 0
 434 0070 3B69     		ldr	r3, [r7, #16]
 435              	.L23:
 436              		.loc 4 178 0
 437 0072 1846     		mov	r0, r3
 438 0074 1837     		adds	r7, r7, #24
 439 0076 BD46     		mov	sp, r7
 440              		@ sp needed
 441 0078 80BD     		pop	{r7, pc}
 442              		.cfi_endproc
 443              	.LFE231:
 444              		.size	chThdCreateFromHeap, .-chThdCreateFromHeap
 445 007a 00BFAFF3 		.section	.text.chThdCreateFromMemoryPool,"ax",%progbits
 445      0080
 446              		.align	2
 447              		.p2align 4,,15
 448              		.global	chThdCreateFromMemoryPool
ARM GAS  C:\Users\Luis\AppData\Local\Temp\ccGmsG3i.s 			page 9


 449              		.thumb
 450              		.thumb_func
 451              		.type	chThdCreateFromMemoryPool, %function
 452              	chThdCreateFromMemoryPool:
 453              	.LFB232:
 454              		.loc 4 205 0
 455              		.cfi_startproc
 456              		@ args = 0, pretend = 0, frame = 24
 457              		@ frame_needed = 1, uses_anonymous_args = 0
 458 0000 80B5     		push	{r7, lr}
 459              		.cfi_def_cfa_offset 8
 460              		.cfi_offset 7, -8
 461              		.cfi_offset 14, -4
 462 0002 88B0     		sub	sp, sp, #32
 463              		.cfi_def_cfa_offset 40
 464 0004 02AF     		add	r7, sp, #8
 465              		.cfi_def_cfa 7, 32
 466 0006 F860     		str	r0, [r7, #12]
 467 0008 B960     		str	r1, [r7, #8]
 468 000a 7A60     		str	r2, [r7, #4]
 469 000c 3B60     		str	r3, [r7]
 470              		.loc 4 209 0
 471 000e FB68     		ldr	r3, [r7, #12]
 472 0010 002B     		cmp	r3, #0
 473 0012 02D1     		bne	.L25
 474              		.loc 4 209 0 is_stmt 0 discriminator 1
 475 0014 1E48     		ldr	r0, .L28
 476 0016 FFF7FEFF 		bl	chSysHalt
 477              	.L25:
 478              		.loc 4 211 0 is_stmt 1
 479 001a F868     		ldr	r0, [r7, #12]
 480 001c FFF7FEFF 		bl	chPoolAlloc
 481 0020 7861     		str	r0, [r7, #20]
 482              		.loc 4 212 0
 483 0022 7B69     		ldr	r3, [r7, #20]
 484 0024 002B     		cmp	r3, #0
 485 0026 01D1     		bne	.L26
 486              		.loc 4 213 0
 487 0028 0023     		movs	r3, #0
 488 002a 2DE0     		b	.L27
 489              	.L26:
 490              		.loc 4 217 0
 491 002c 7B69     		ldr	r3, [r7, #20]
 492 002e 6833     		adds	r3, r3, #104
 493 0030 7869     		ldr	r0, [r7, #20]
 494 0032 1946     		mov	r1, r3
 495 0034 FF22     		movs	r2, #255
 496 0036 FFF7FEFF 		bl	_thread_memfill
 497              		.loc 4 220 0
 498 003a 7B69     		ldr	r3, [r7, #20]
 499 003c 03F16802 		add	r2, r3, #104
 500              		.loc 4 221 0
 501 0040 FB68     		ldr	r3, [r7, #12]
 502 0042 5B68     		ldr	r3, [r3, #4]
 503              		.loc 4 220 0
 504 0044 7969     		ldr	r1, [r7, #20]
 505 0046 0B44     		add	r3, r3, r1
ARM GAS  C:\Users\Luis\AppData\Local\Temp\ccGmsG3i.s 			page 10


 506 0048 1046     		mov	r0, r2
 507 004a 1946     		mov	r1, r3
 508 004c 5522     		movs	r2, #85
 509 004e FFF7FEFF 		bl	_thread_memfill
 510              		.loc 4 225 0
 511 0052 FFF7FEFF 		bl	chSysLock
 512              		.loc 4 226 0
 513 0056 FB68     		ldr	r3, [r7, #12]
 514 0058 5B68     		ldr	r3, [r3, #4]
 515 005a 3A68     		ldr	r2, [r7]
 516 005c 0092     		str	r2, [sp]
 517 005e 7869     		ldr	r0, [r7, #20]
 518 0060 1946     		mov	r1, r3
 519 0062 BA68     		ldr	r2, [r7, #8]
 520 0064 7B68     		ldr	r3, [r7, #4]
 521 0066 FFF7FEFF 		bl	chThdCreateI
 522 006a 3861     		str	r0, [r7, #16]
 523              		.loc 4 227 0
 524 006c 3B69     		ldr	r3, [r7, #16]
 525 006e 0222     		movs	r2, #2
 526 0070 83F82120 		strb	r2, [r3, #33]
 527              		.loc 4 228 0
 528 0074 3B69     		ldr	r3, [r7, #16]
 529 0076 FA68     		ldr	r2, [r7, #12]
 530 0078 5A64     		str	r2, [r3, #68]
 531              		.loc 4 229 0
 532 007a 3869     		ldr	r0, [r7, #16]
 533 007c 0021     		movs	r1, #0
 534 007e FFF7FEFF 		bl	chSchWakeupS
 535              		.loc 4 230 0
 536 0082 FFF7FEFF 		bl	chSysUnlock
 537              		.loc 4 232 0
 538 0086 3B69     		ldr	r3, [r7, #16]
 539              	.L27:
 540              		.loc 4 233 0
 541 0088 1846     		mov	r0, r3
 542 008a 1837     		adds	r7, r7, #24
 543 008c BD46     		mov	sp, r7
 544              		@ sp needed
 545 008e 80BD     		pop	{r7, pc}
 546              	.L29:
 547              		.align	2
 548              	.L28:
 549 0090 00000000 		.word	__func__.6564
 550              		.cfi_endproc
 551              	.LFE232:
 552              		.size	chThdCreateFromMemoryPool, .-chThdCreateFromMemoryPool
 553 0094 AFF30080 		.section	.rodata.__func__.6537,"a",%progbits
 553      AFF30080 
 553      AFF30080 
 554              		.align	2
 555              		.type	__func__.6537, %object
 556              		.size	__func__.6537, 12
 557              	__func__.6537:
 558 0000 63685468 		.ascii	"chThdAddRef\000"
 558      64416464 
 558      52656600 
ARM GAS  C:\Users\Luis\AppData\Local\Temp\ccGmsG3i.s 			page 11


 559              		.section	.rodata.__func__.5842,"a",%progbits
 560              		.align	2
 561              		.type	__func__.5842, %object
 562              		.size	__func__.5842, 12
 563              	__func__.5842:
 564 0000 63685379 		.ascii	"chSysUnlock\000"
 564      73556E6C 
 564      6F636B00 
 565              		.section	.rodata.__func__.6542,"a",%progbits
 566              		.align	2
 567              		.type	__func__.6542, %object
 568              		.size	__func__.6542, 13
 569              	__func__.6542:
 570 0000 63685468 		.ascii	"chThdRelease\000"
 570      6452656C 
 570      65617365 
 570      00
 571 000d 000000   		.section	.rodata.__func__.6564,"a",%progbits
 572              		.align	2
 573              		.type	__func__.6564, %object
 574              		.size	__func__.6564, 26
 575              	__func__.6564:
 576 0000 63685468 		.ascii	"chThdCreateFromMemoryPool\000"
 576      64437265 
 576      61746546 
 576      726F6D4D 
 576      656D6F72 
 577 001a 0000     		.text
 578              	.Letext0:
 579              		.file 5 "c:\\emtechesdk\\gcc\\lib\\gcc\\arm-none-eabi\\4.8.3\\include\\stddef.h"
 580              		.file 6 "c:\\emtechesdk\\gcc\\arm-none-eabi\\include\\stdint.h"
 581              		.file 7 "../../ChibiOS/os/rt/ports/ARMCMx/compilers/GCC/chtypes.h"
 582              		.file 8 "../../ChibiOS/os/rt/include/chsystypes.h"
 583              		.file 9 "../../ChibiOS/os/rt/include/chschd.h"
 584              		.file 10 "../../ChibiOS/os/rt/ports/ARMCMx/chcore.h"
 585              		.file 11 "../../ChibiOS/os/rt/include/chdebug.h"
 586              		.file 12 "../../ChibiOS/os/rt/include/chtm.h"
 587              		.file 13 "../../ChibiOS/os/rt/include/chstats.h"
 588              		.file 14 "../../ChibiOS/os/rt/include/chsem.h"
 589              		.file 15 "../../ChibiOS/os/rt/include/chmtx.h"
 590              		.file 16 "../../ChibiOS/os/rt/include/chthreads.h"
 591              		.file 17 "../../ChibiOS/os/rt/include/chmemcore.h"
 592              		.file 18 "../../ChibiOS/os/rt/include/chheap.h"
 593              		.file 19 "../../ChibiOS/os/rt/include/chmempools.h"
 594              		.file 20 "../../ChibiOS/os/ext/CMSIS/include/core_cm4.h"