ARM GAS  C:\Users\Luis\AppData\Local\Temp\ccSTjVgv.s 			page 1


   1              		.syntax unified
   2              		.cpu cortex-m4
   3              		.fpu softvfp
   4              		.eabi_attribute 20, 1
   5              		.eabi_attribute 21, 1
   6              		.eabi_attribute 23, 3
   7              		.eabi_attribute 24, 1
   8              		.eabi_attribute 25, 1
   9              		.eabi_attribute 26, 1
  10              		.eabi_attribute 30, 6
  11              		.eabi_attribute 34, 1
  12              		.eabi_attribute 18, 4
  13              		.thumb
  14              		.file	"chevents.c"
  15              		.text
  16              	.Ltext0:
  17              		.cfi_sections	.debug_frame
  18              		.section	.text.port_lock,"ax",%progbits
  19              		.align	2
  20              		.p2align 4,,15
  21              		.thumb
  22              		.thumb_func
  23              		.type	port_lock, %function
  24              	port_lock:
  25              	.LFB116:
  26              		.file 1 "../../ChibiOS/os/rt/ports/ARMCMx/chcore_v7m.h"
  27              		.loc 1 444 0
  28              		.cfi_startproc
  29              		@ args = 0, pretend = 0, frame = 8
  30              		@ frame_needed = 1, uses_anonymous_args = 0
  31              		@ link register save eliminated.
  32 0000 80B4     		push	{r7}
  33              		.cfi_def_cfa_offset 4
  34              		.cfi_offset 7, -4
  35 0002 83B0     		sub	sp, sp, #12
  36              		.cfi_def_cfa_offset 16
  37 0004 00AF     		add	r7, sp, #0
  38              		.cfi_def_cfa_register 7
  39 0006 2023     		movs	r3, #32
  40 0008 7B60     		str	r3, [r7, #4]
  41              	.LBB6:
  42              	.LBB7:
  43              		.file 2 "../../ChibiOS/os/ext/CMSIS/include/core_cmFunc.h"
  44              		.loc 2 546 0
  45 000a 7B68     		ldr	r3, [r7, #4]
  46              	@ 546 "../../ChibiOS/os/ext/CMSIS/include/core_cmFunc.h" 1
  47 000c 83F31188 		MSR basepri, r3
  48              	@ 0 "" 2
  49              		.thumb
  50              	.LBE7:
  51              	.LBE6:
  52              		.loc 1 451 0
  53 0010 0C37     		adds	r7, r7, #12
  54 0012 BD46     		mov	sp, r7
  55              		@ sp needed
  56 0014 5DF8047B 		ldr	r7, [sp], #4
  57 0018 7047     		bx	lr
ARM GAS  C:\Users\Luis\AppData\Local\Temp\ccSTjVgv.s 			page 2


  58              		.cfi_endproc
  59              	.LFE116:
  60              		.size	port_lock, .-port_lock
  61 001a 00BFAFF3 		.section	.text.port_unlock,"ax",%progbits
  61      0080
  62              		.align	2
  63              		.p2align 4,,15
  64              		.thumb
  65              		.thumb_func
  66              		.type	port_unlock, %function
  67              	port_unlock:
  68              	.LFB117:
  69              		.loc 1 458 0
  70              		.cfi_startproc
  71              		@ args = 0, pretend = 0, frame = 8
  72              		@ frame_needed = 1, uses_anonymous_args = 0
  73              		@ link register save eliminated.
  74 0000 80B4     		push	{r7}
  75              		.cfi_def_cfa_offset 4
  76              		.cfi_offset 7, -4
  77 0002 83B0     		sub	sp, sp, #12
  78              		.cfi_def_cfa_offset 16
  79 0004 00AF     		add	r7, sp, #0
  80              		.cfi_def_cfa_register 7
  81 0006 0023     		movs	r3, #0
  82 0008 7B60     		str	r3, [r7, #4]
  83              	.LBB8:
  84              	.LBB9:
  85              		.loc 2 546 0
  86 000a 7B68     		ldr	r3, [r7, #4]
  87              	@ 546 "../../ChibiOS/os/ext/CMSIS/include/core_cmFunc.h" 1
  88 000c 83F31188 		MSR basepri, r3
  89              	@ 0 "" 2
  90              		.thumb
  91              	.LBE9:
  92              	.LBE8:
  93              		.loc 1 465 0
  94 0010 0C37     		adds	r7, r7, #12
  95 0012 BD46     		mov	sp, r7
  96              		@ sp needed
  97 0014 5DF8047B 		ldr	r7, [sp], #4
  98 0018 7047     		bx	lr
  99              		.cfi_endproc
 100              	.LFE117:
 101              		.size	port_unlock, .-port_unlock
 102 001a 00BFAFF3 		.section	.text.chSysLock,"ax",%progbits
 102      0080
 103              		.align	2
 104              		.p2align 4,,15
 105              		.thumb
 106              		.thumb_func
 107              		.type	chSysLock, %function
 108              	chSysLock:
 109              	.LFB156:
 110              		.file 3 "../../ChibiOS/os/rt/include/chsys.h"
 111              		.loc 3 346 0
 112              		.cfi_startproc
ARM GAS  C:\Users\Luis\AppData\Local\Temp\ccSTjVgv.s 			page 3


 113              		@ args = 0, pretend = 0, frame = 0
 114              		@ frame_needed = 1, uses_anonymous_args = 0
 115 0000 80B5     		push	{r7, lr}
 116              		.cfi_def_cfa_offset 8
 117              		.cfi_offset 7, -8
 118              		.cfi_offset 14, -4
 119 0002 00AF     		add	r7, sp, #0
 120              		.cfi_def_cfa_register 7
 121              		.loc 3 348 0
 122 0004 FFF7FEFF 		bl	port_lock
 123              		.loc 3 349 0
 124 0008 FFF7FEFF 		bl	_stats_start_measure_crit_thd
 125              		.loc 3 350 0
 126 000c FFF7FEFF 		bl	_dbg_check_lock
 127              		.loc 3 351 0
 128 0010 80BD     		pop	{r7, pc}
 129              		.cfi_endproc
 130              	.LFE156:
 131              		.size	chSysLock, .-chSysLock
 132 0012 00BFAFF3 		.section	.text.chSysUnlock,"ax",%progbits
 132      0080AFF3 
 132      0080AFF3 
 132      0080
 133              		.align	2
 134              		.p2align 4,,15
 135              		.thumb
 136              		.thumb_func
 137              		.type	chSysUnlock, %function
 138              	chSysUnlock:
 139              	.LFB157:
 140              		.loc 3 358 0
 141              		.cfi_startproc
 142              		@ args = 0, pretend = 0, frame = 0
 143              		@ frame_needed = 1, uses_anonymous_args = 0
 144 0000 80B5     		push	{r7, lr}
 145              		.cfi_def_cfa_offset 8
 146              		.cfi_offset 7, -8
 147              		.cfi_offset 14, -4
 148 0002 00AF     		add	r7, sp, #0
 149              		.cfi_def_cfa_register 7
 150              		.loc 3 360 0
 151 0004 FFF7FEFF 		bl	_dbg_check_unlock
 152              		.loc 3 361 0
 153 0008 FFF7FEFF 		bl	_stats_stop_measure_crit_thd
 154              		.loc 3 367 0
 155 000c 094B     		ldr	r3, .L6
 156 000e 1A68     		ldr	r2, [r3]
 157 0010 084B     		ldr	r3, .L6
 158 0012 9A42     		cmp	r2, r3
 159 0014 0AD0     		beq	.L5
 160              		.loc 3 367 0 is_stmt 0 discriminator 1
 161 0016 074B     		ldr	r3, .L6
 162 0018 9B69     		ldr	r3, [r3, #24]
 163 001a 9A68     		ldr	r2, [r3, #8]
 164 001c 054B     		ldr	r3, .L6
 165 001e 1B68     		ldr	r3, [r3]
 166 0020 9B68     		ldr	r3, [r3, #8]
ARM GAS  C:\Users\Luis\AppData\Local\Temp\ccSTjVgv.s 			page 4


 167 0022 9A42     		cmp	r2, r3
 168 0024 02D2     		bcs	.L5
 169 0026 0448     		ldr	r0, .L6+4
 170 0028 FFF7FEFF 		bl	chSysHalt
 171              	.L5:
 172              		.loc 3 371 0 is_stmt 1
 173 002c FFF7FEFF 		bl	port_unlock
 174              		.loc 3 372 0
 175 0030 80BD     		pop	{r7, pc}
 176              	.L7:
 177 0032 00BF     		.align	2
 178              	.L6:
 179 0034 00000000 		.word	ch
 180 0038 00000000 		.word	__func__.5842
 181              		.cfi_endproc
 182              	.LFE157:
 183              		.size	chSysUnlock, .-chSysUnlock
 184 003c AFF30080 		.section	.text.chEvtRegisterMaskWithFlags,"ax",%progbits
 185              		.align	2
 186              		.p2align 4,,15
 187              		.global	chEvtRegisterMaskWithFlags
 188              		.thumb
 189              		.thumb_func
 190              		.type	chEvtRegisterMaskWithFlags, %function
 191              	chEvtRegisterMaskWithFlags:
 192              	.LFB229:
 193              		.file 4 "../../ChibiOS/os/rt/src/chevents.c"
 194              		.loc 4 106 0
 195              		.cfi_startproc
 196              		@ args = 0, pretend = 0, frame = 16
 197              		@ frame_needed = 1, uses_anonymous_args = 0
 198 0000 80B5     		push	{r7, lr}
 199              		.cfi_def_cfa_offset 8
 200              		.cfi_offset 7, -8
 201              		.cfi_offset 14, -4
 202 0002 84B0     		sub	sp, sp, #16
 203              		.cfi_def_cfa_offset 24
 204 0004 00AF     		add	r7, sp, #0
 205              		.cfi_def_cfa_register 7
 206 0006 F860     		str	r0, [r7, #12]
 207 0008 B960     		str	r1, [r7, #8]
 208 000a 7A60     		str	r2, [r7, #4]
 209 000c 3B60     		str	r3, [r7]
 210              		.loc 4 108 0
 211 000e FB68     		ldr	r3, [r7, #12]
 212 0010 002B     		cmp	r3, #0
 213 0012 02D0     		beq	.L9
 214              		.loc 4 108 0 is_stmt 0 discriminator 2
 215 0014 BB68     		ldr	r3, [r7, #8]
 216 0016 002B     		cmp	r3, #0
 217 0018 02D1     		bne	.L10
 218              	.L9:
 219              		.loc 4 108 0 discriminator 1
 220 001a 0F48     		ldr	r0, .L11
 221 001c FFF7FEFF 		bl	chSysHalt
 222              	.L10:
 223              		.loc 4 110 0 is_stmt 1
ARM GAS  C:\Users\Luis\AppData\Local\Temp\ccSTjVgv.s 			page 5


 224 0020 FFF7FEFF 		bl	chSysLock
 225              		.loc 4 111 0
 226 0024 FB68     		ldr	r3, [r7, #12]
 227 0026 1A68     		ldr	r2, [r3]
 228 0028 BB68     		ldr	r3, [r7, #8]
 229 002a 1A60     		str	r2, [r3]
 230              		.loc 4 112 0
 231 002c FB68     		ldr	r3, [r7, #12]
 232 002e BA68     		ldr	r2, [r7, #8]
 233 0030 1A60     		str	r2, [r3]
 234              		.loc 4 113 0
 235 0032 0A4B     		ldr	r3, .L11+4
 236 0034 9A69     		ldr	r2, [r3, #24]
 237 0036 BB68     		ldr	r3, [r7, #8]
 238 0038 5A60     		str	r2, [r3, #4]
 239              		.loc 4 114 0
 240 003a BB68     		ldr	r3, [r7, #8]
 241 003c 7A68     		ldr	r2, [r7, #4]
 242 003e 9A60     		str	r2, [r3, #8]
 243              		.loc 4 115 0
 244 0040 BB68     		ldr	r3, [r7, #8]
 245 0042 0022     		movs	r2, #0
 246 0044 DA60     		str	r2, [r3, #12]
 247              		.loc 4 116 0
 248 0046 BB68     		ldr	r3, [r7, #8]
 249 0048 3A68     		ldr	r2, [r7]
 250 004a 1A61     		str	r2, [r3, #16]
 251              		.loc 4 117 0
 252 004c FFF7FEFF 		bl	chSysUnlock
 253              		.loc 4 118 0
 254 0050 1037     		adds	r7, r7, #16
 255 0052 BD46     		mov	sp, r7
 256              		@ sp needed
 257 0054 80BD     		pop	{r7, pc}
 258              	.L12:
 259 0056 00BF     		.align	2
 260              	.L11:
 261 0058 00000000 		.word	__func__.6540
 262 005c 00000000 		.word	ch
 263              		.cfi_endproc
 264              	.LFE229:
 265              		.size	chEvtRegisterMaskWithFlags, .-chEvtRegisterMaskWithFlags
 266              		.section	.text.chEvtUnregister,"ax",%progbits
 267              		.align	2
 268              		.p2align 4,,15
 269              		.global	chEvtUnregister
 270              		.thumb
 271              		.thumb_func
 272              		.type	chEvtUnregister, %function
 273              	chEvtUnregister:
 274              	.LFB230:
 275              		.loc 4 133 0
 276              		.cfi_startproc
 277              		@ args = 0, pretend = 0, frame = 16
 278              		@ frame_needed = 1, uses_anonymous_args = 0
 279 0000 80B5     		push	{r7, lr}
 280              		.cfi_def_cfa_offset 8
ARM GAS  C:\Users\Luis\AppData\Local\Temp\ccSTjVgv.s 			page 6


 281              		.cfi_offset 7, -8
 282              		.cfi_offset 14, -4
 283 0002 84B0     		sub	sp, sp, #16
 284              		.cfi_def_cfa_offset 24
 285 0004 00AF     		add	r7, sp, #0
 286              		.cfi_def_cfa_register 7
 287 0006 7860     		str	r0, [r7, #4]
 288 0008 3960     		str	r1, [r7]
 289              		.loc 4 136 0
 290 000a 7B68     		ldr	r3, [r7, #4]
 291 000c 002B     		cmp	r3, #0
 292 000e 02D0     		beq	.L14
 293              		.loc 4 136 0 is_stmt 0 discriminator 2
 294 0010 3B68     		ldr	r3, [r7]
 295 0012 002B     		cmp	r3, #0
 296 0014 02D1     		bne	.L15
 297              	.L14:
 298              		.loc 4 136 0 discriminator 1
 299 0016 0F48     		ldr	r0, .L20
 300 0018 FFF7FEFF 		bl	chSysHalt
 301              	.L15:
 302              		.loc 4 139 0 is_stmt 1
 303 001c 7B68     		ldr	r3, [r7, #4]
 304 001e FB60     		str	r3, [r7, #12]
 305              		.loc 4 141 0
 306 0020 FFF7FEFF 		bl	chSysLock
 307              		.loc 4 143 0
 308 0024 0CE0     		b	.L16
 309              	.L19:
 310              		.loc 4 145 0
 311 0026 FB68     		ldr	r3, [r7, #12]
 312 0028 1A68     		ldr	r2, [r3]
 313 002a 3B68     		ldr	r3, [r7]
 314 002c 9A42     		cmp	r2, r3
 315 002e 04D1     		bne	.L17
 316              		.loc 4 146 0
 317 0030 3B68     		ldr	r3, [r7]
 318 0032 1A68     		ldr	r2, [r3]
 319 0034 FB68     		ldr	r3, [r7, #12]
 320 0036 1A60     		str	r2, [r3]
 321              		.loc 4 147 0
 322 0038 07E0     		b	.L18
 323              	.L17:
 324              		.loc 4 149 0
 325 003a FB68     		ldr	r3, [r7, #12]
 326 003c 1B68     		ldr	r3, [r3]
 327 003e FB60     		str	r3, [r7, #12]
 328              	.L16:
 329              		.loc 4 143 0 discriminator 1
 330 0040 FB68     		ldr	r3, [r7, #12]
 331 0042 1A68     		ldr	r2, [r3]
 332 0044 7B68     		ldr	r3, [r7, #4]
 333 0046 9A42     		cmp	r2, r3
 334 0048 EDD1     		bne	.L19
 335              	.L18:
 336              		.loc 4 151 0
 337 004a FFF7FEFF 		bl	chSysUnlock
ARM GAS  C:\Users\Luis\AppData\Local\Temp\ccSTjVgv.s 			page 7


 338              		.loc 4 152 0
 339 004e 1037     		adds	r7, r7, #16
 340 0050 BD46     		mov	sp, r7
 341              		@ sp needed
 342 0052 80BD     		pop	{r7, pc}
 343              	.L21:
 344              		.align	2
 345              	.L20:
 346 0054 00000000 		.word	__func__.6546
 347              		.cfi_endproc
 348              	.LFE230:
 349              		.size	chEvtUnregister, .-chEvtUnregister
 350 0058 AFF30080 		.section	.text.chEvtGetAndClearEvents,"ax",%progbits
 350      AFF30080 
 351              		.align	2
 352              		.p2align 4,,15
 353              		.global	chEvtGetAndClearEvents
 354              		.thumb
 355              		.thumb_func
 356              		.type	chEvtGetAndClearEvents, %function
 357              	chEvtGetAndClearEvents:
 358              	.LFB231:
 359              		.loc 4 162 0
 360              		.cfi_startproc
 361              		@ args = 0, pretend = 0, frame = 16
 362              		@ frame_needed = 1, uses_anonymous_args = 0
 363 0000 80B5     		push	{r7, lr}
 364              		.cfi_def_cfa_offset 8
 365              		.cfi_offset 7, -8
 366              		.cfi_offset 14, -4
 367 0002 84B0     		sub	sp, sp, #16
 368              		.cfi_def_cfa_offset 24
 369 0004 00AF     		add	r7, sp, #0
 370              		.cfi_def_cfa_register 7
 371 0006 7860     		str	r0, [r7, #4]
 372              		.loc 4 165 0
 373 0008 FFF7FEFF 		bl	chSysLock
 374              		.loc 4 166 0
 375 000c 0A4B     		ldr	r3, .L24
 376 000e 9B69     		ldr	r3, [r3, #24]
 377 0010 9A6B     		ldr	r2, [r3, #56]
 378 0012 7B68     		ldr	r3, [r7, #4]
 379 0014 1340     		ands	r3, r3, r2
 380 0016 FB60     		str	r3, [r7, #12]
 381              		.loc 4 167 0
 382 0018 074B     		ldr	r3, .L24
 383 001a 9B69     		ldr	r3, [r3, #24]
 384 001c 064A     		ldr	r2, .L24
 385 001e 9269     		ldr	r2, [r2, #24]
 386 0020 916B     		ldr	r1, [r2, #56]
 387 0022 7A68     		ldr	r2, [r7, #4]
 388 0024 D243     		mvns	r2, r2
 389 0026 0A40     		ands	r2, r2, r1
 390 0028 9A63     		str	r2, [r3, #56]
 391              		.loc 4 168 0
 392 002a FFF7FEFF 		bl	chSysUnlock
 393              		.loc 4 170 0
ARM GAS  C:\Users\Luis\AppData\Local\Temp\ccSTjVgv.s 			page 8


 394 002e FB68     		ldr	r3, [r7, #12]
 395              		.loc 4 171 0
 396 0030 1846     		mov	r0, r3
 397 0032 1037     		adds	r7, r7, #16
 398 0034 BD46     		mov	sp, r7
 399              		@ sp needed
 400 0036 80BD     		pop	{r7, pc}
 401              	.L25:
 402              		.align	2
 403              	.L24:
 404 0038 00000000 		.word	ch
 405              		.cfi_endproc
 406              	.LFE231:
 407              		.size	chEvtGetAndClearEvents, .-chEvtGetAndClearEvents
 408 003c AFF30080 		.section	.text.chEvtAddEvents,"ax",%progbits
 409              		.align	2
 410              		.p2align 4,,15
 411              		.global	chEvtAddEvents
 412              		.thumb
 413              		.thumb_func
 414              		.type	chEvtAddEvents, %function
 415              	chEvtAddEvents:
 416              	.LFB232:
 417              		.loc 4 182 0
 418              		.cfi_startproc
 419              		@ args = 0, pretend = 0, frame = 8
 420              		@ frame_needed = 1, uses_anonymous_args = 0
 421 0000 80B5     		push	{r7, lr}
 422              		.cfi_def_cfa_offset 8
 423              		.cfi_offset 7, -8
 424              		.cfi_offset 14, -4
 425 0002 82B0     		sub	sp, sp, #8
 426              		.cfi_def_cfa_offset 16
 427 0004 00AF     		add	r7, sp, #0
 428              		.cfi_def_cfa_register 7
 429 0006 7860     		str	r0, [r7, #4]
 430              		.loc 4 184 0
 431 0008 FFF7FEFF 		bl	chSysLock
 432              		.loc 4 185 0
 433 000c 094B     		ldr	r3, .L28
 434 000e 9B69     		ldr	r3, [r3, #24]
 435 0010 084A     		ldr	r2, .L28
 436 0012 9269     		ldr	r2, [r2, #24]
 437 0014 916B     		ldr	r1, [r2, #56]
 438 0016 7A68     		ldr	r2, [r7, #4]
 439 0018 0A43     		orrs	r2, r2, r1
 440 001a 9A63     		str	r2, [r3, #56]
 441              		.loc 4 186 0
 442 001c 054B     		ldr	r3, .L28
 443 001e 9B69     		ldr	r3, [r3, #24]
 444 0020 9B6B     		ldr	r3, [r3, #56]
 445 0022 7B60     		str	r3, [r7, #4]
 446              		.loc 4 187 0
 447 0024 FFF7FEFF 		bl	chSysUnlock
 448              		.loc 4 189 0
 449 0028 7B68     		ldr	r3, [r7, #4]
 450              		.loc 4 190 0
ARM GAS  C:\Users\Luis\AppData\Local\Temp\ccSTjVgv.s 			page 9


 451 002a 1846     		mov	r0, r3
 452 002c 0837     		adds	r7, r7, #8
 453 002e BD46     		mov	sp, r7
 454              		@ sp needed
 455 0030 80BD     		pop	{r7, pc}
 456              	.L29:
 457 0032 00BF     		.align	2
 458              	.L28:
 459 0034 00000000 		.word	ch
 460              		.cfi_endproc
 461              	.LFE232:
 462              		.size	chEvtAddEvents, .-chEvtAddEvents
 463 0038 AFF30080 		.section	.text.chEvtBroadcastFlagsI,"ax",%progbits
 463      AFF30080 
 464              		.align	2
 465              		.p2align 4,,15
 466              		.global	chEvtBroadcastFlagsI
 467              		.thumb
 468              		.thumb_func
 469              		.type	chEvtBroadcastFlagsI, %function
 470              	chEvtBroadcastFlagsI:
 471              	.LFB233:
 472              		.loc 4 209 0
 473              		.cfi_startproc
 474              		@ args = 0, pretend = 0, frame = 16
 475              		@ frame_needed = 1, uses_anonymous_args = 0
 476 0000 80B5     		push	{r7, lr}
 477              		.cfi_def_cfa_offset 8
 478              		.cfi_offset 7, -8
 479              		.cfi_offset 14, -4
 480 0002 84B0     		sub	sp, sp, #16
 481              		.cfi_def_cfa_offset 24
 482 0004 00AF     		add	r7, sp, #0
 483              		.cfi_def_cfa_register 7
 484 0006 7860     		str	r0, [r7, #4]
 485 0008 3960     		str	r1, [r7]
 486              		.loc 4 212 0
 487 000a FFF7FEFF 		bl	chDbgCheckClassI
 488              		.loc 4 213 0
 489 000e 7B68     		ldr	r3, [r7, #4]
 490 0010 002B     		cmp	r3, #0
 491 0012 02D1     		bne	.L31
 492              		.loc 4 213 0 is_stmt 0 discriminator 1
 493 0014 1448     		ldr	r0, .L36
 494 0016 FFF7FEFF 		bl	chSysHalt
 495              	.L31:
 496              		.loc 4 215 0 is_stmt 1
 497 001a 7B68     		ldr	r3, [r7, #4]
 498 001c 1B68     		ldr	r3, [r3]
 499 001e FB60     		str	r3, [r7, #12]
 500              		.loc 4 217 0
 501 0020 1AE0     		b	.L32
 502              	.L35:
 503              		.loc 4 219 0
 504 0022 FB68     		ldr	r3, [r7, #12]
 505 0024 DA68     		ldr	r2, [r3, #12]
 506 0026 3B68     		ldr	r3, [r7]
ARM GAS  C:\Users\Luis\AppData\Local\Temp\ccSTjVgv.s 			page 10


 507 0028 1A43     		orrs	r2, r2, r3
 508 002a FB68     		ldr	r3, [r7, #12]
 509 002c DA60     		str	r2, [r3, #12]
 510              		.loc 4 222 0
 511 002e 3B68     		ldr	r3, [r7]
 512 0030 002B     		cmp	r3, #0
 513 0032 06D0     		beq	.L33
 514              		.loc 4 223 0 discriminator 1
 515 0034 FB68     		ldr	r3, [r7, #12]
 516 0036 DA68     		ldr	r2, [r3, #12]
 517 0038 FB68     		ldr	r3, [r7, #12]
 518 003a 1B69     		ldr	r3, [r3, #16]
 519 003c 1340     		ands	r3, r3, r2
 520              		.loc 4 222 0 discriminator 1
 521 003e 002B     		cmp	r3, #0
 522 0040 07D0     		beq	.L34
 523              	.L33:
 524              		.loc 4 224 0
 525 0042 FB68     		ldr	r3, [r7, #12]
 526 0044 5A68     		ldr	r2, [r3, #4]
 527 0046 FB68     		ldr	r3, [r7, #12]
 528 0048 9B68     		ldr	r3, [r3, #8]
 529 004a 1046     		mov	r0, r2
 530 004c 1946     		mov	r1, r3
 531 004e FFF7FEFF 		bl	chEvtSignalI
 532              	.L34:
 533              		.loc 4 226 0
 534 0052 FB68     		ldr	r3, [r7, #12]
 535 0054 1B68     		ldr	r3, [r3]
 536 0056 FB60     		str	r3, [r7, #12]
 537              	.L32:
 538              		.loc 4 217 0 discriminator 1
 539 0058 FA68     		ldr	r2, [r7, #12]
 540 005a 7B68     		ldr	r3, [r7, #4]
 541 005c 9A42     		cmp	r2, r3
 542 005e E0D1     		bne	.L35
 543              		.loc 4 228 0
 544 0060 1037     		adds	r7, r7, #16
 545 0062 BD46     		mov	sp, r7
 546              		@ sp needed
 547 0064 80BD     		pop	{r7, pc}
 548              	.L37:
 549 0066 00BF     		.align	2
 550              	.L36:
 551 0068 00000000 		.word	__func__.6562
 552              		.cfi_endproc
 553              	.LFE233:
 554              		.size	chEvtBroadcastFlagsI, .-chEvtBroadcastFlagsI
 555 006c AFF30080 		.section	.text.chEvtGetAndClearFlags,"ax",%progbits
 556              		.align	2
 557              		.p2align 4,,15
 558              		.global	chEvtGetAndClearFlags
 559              		.thumb
 560              		.thumb_func
 561              		.type	chEvtGetAndClearFlags, %function
 562              	chEvtGetAndClearFlags:
 563              	.LFB234:
ARM GAS  C:\Users\Luis\AppData\Local\Temp\ccSTjVgv.s 			page 11


 564              		.loc 4 241 0
 565              		.cfi_startproc
 566              		@ args = 0, pretend = 0, frame = 16
 567              		@ frame_needed = 1, uses_anonymous_args = 0
 568 0000 80B5     		push	{r7, lr}
 569              		.cfi_def_cfa_offset 8
 570              		.cfi_offset 7, -8
 571              		.cfi_offset 14, -4
 572 0002 84B0     		sub	sp, sp, #16
 573              		.cfi_def_cfa_offset 24
 574 0004 00AF     		add	r7, sp, #0
 575              		.cfi_def_cfa_register 7
 576 0006 7860     		str	r0, [r7, #4]
 577              		.loc 4 244 0
 578 0008 FFF7FEFF 		bl	chSysLock
 579              		.loc 4 245 0
 580 000c 7B68     		ldr	r3, [r7, #4]
 581 000e DB68     		ldr	r3, [r3, #12]
 582 0010 FB60     		str	r3, [r7, #12]
 583              		.loc 4 246 0
 584 0012 7B68     		ldr	r3, [r7, #4]
 585 0014 0022     		movs	r2, #0
 586 0016 DA60     		str	r2, [r3, #12]
 587              		.loc 4 247 0
 588 0018 FFF7FEFF 		bl	chSysUnlock
 589              		.loc 4 249 0
 590 001c FB68     		ldr	r3, [r7, #12]
 591              		.loc 4 250 0
 592 001e 1846     		mov	r0, r3
 593 0020 1037     		adds	r7, r7, #16
 594 0022 BD46     		mov	sp, r7
 595              		@ sp needed
 596 0024 80BD     		pop	{r7, pc}
 597              		.cfi_endproc
 598              	.LFE234:
 599              		.size	chEvtGetAndClearFlags, .-chEvtGetAndClearFlags
 600 0026 00BFAFF3 		.section	.text.chEvtSignal,"ax",%progbits
 600      0080AFF3 
 600      0080
 601              		.align	2
 602              		.p2align 4,,15
 603              		.global	chEvtSignal
 604              		.thumb
 605              		.thumb_func
 606              		.type	chEvtSignal, %function
 607              	chEvtSignal:
 608              	.LFB235:
 609              		.loc 4 260 0
 610              		.cfi_startproc
 611              		@ args = 0, pretend = 0, frame = 8
 612              		@ frame_needed = 1, uses_anonymous_args = 0
 613 0000 80B5     		push	{r7, lr}
 614              		.cfi_def_cfa_offset 8
 615              		.cfi_offset 7, -8
 616              		.cfi_offset 14, -4
 617 0002 82B0     		sub	sp, sp, #8
 618              		.cfi_def_cfa_offset 16
ARM GAS  C:\Users\Luis\AppData\Local\Temp\ccSTjVgv.s 			page 12


 619 0004 00AF     		add	r7, sp, #0
 620              		.cfi_def_cfa_register 7
 621 0006 7860     		str	r0, [r7, #4]
 622 0008 3960     		str	r1, [r7]
 623              		.loc 4 262 0
 624 000a 7B68     		ldr	r3, [r7, #4]
 625 000c 002B     		cmp	r3, #0
 626 000e 02D1     		bne	.L41
 627              		.loc 4 262 0 is_stmt 0 discriminator 1
 628 0010 0748     		ldr	r0, .L42
 629 0012 FFF7FEFF 		bl	chSysHalt
 630              	.L41:
 631              		.loc 4 264 0 is_stmt 1
 632 0016 FFF7FEFF 		bl	chSysLock
 633              		.loc 4 265 0
 634 001a 7868     		ldr	r0, [r7, #4]
 635 001c 3968     		ldr	r1, [r7]
 636 001e FFF7FEFF 		bl	chEvtSignalI
 637              		.loc 4 266 0
 638 0022 FFF7FEFF 		bl	chSchRescheduleS
 639              		.loc 4 267 0
 640 0026 FFF7FEFF 		bl	chSysUnlock
 641              		.loc 4 268 0
 642 002a 0837     		adds	r7, r7, #8
 643 002c BD46     		mov	sp, r7
 644              		@ sp needed
 645 002e 80BD     		pop	{r7, pc}
 646              	.L43:
 647              		.align	2
 648              	.L42:
 649 0030 00000000 		.word	__func__.6574
 650              		.cfi_endproc
 651              	.LFE235:
 652              		.size	chEvtSignal, .-chEvtSignal
 653 0034 AFF30080 		.section	.text.chEvtSignalI,"ax",%progbits
 653      AFF30080 
 653      AFF30080 
 654              		.align	2
 655              		.p2align 4,,15
 656              		.global	chEvtSignalI
 657              		.thumb
 658              		.thumb_func
 659              		.type	chEvtSignalI, %function
 660              	chEvtSignalI:
 661              	.LFB236:
 662              		.loc 4 282 0
 663              		.cfi_startproc
 664              		@ args = 0, pretend = 0, frame = 8
 665              		@ frame_needed = 1, uses_anonymous_args = 0
 666 0000 80B5     		push	{r7, lr}
 667              		.cfi_def_cfa_offset 8
 668              		.cfi_offset 7, -8
 669              		.cfi_offset 14, -4
 670 0002 82B0     		sub	sp, sp, #8
 671              		.cfi_def_cfa_offset 16
 672 0004 00AF     		add	r7, sp, #0
 673              		.cfi_def_cfa_register 7
ARM GAS  C:\Users\Luis\AppData\Local\Temp\ccSTjVgv.s 			page 13


 674 0006 7860     		str	r0, [r7, #4]
 675 0008 3960     		str	r1, [r7]
 676              		.loc 4 284 0
 677 000a FFF7FEFF 		bl	chDbgCheckClassI
 678              		.loc 4 285 0
 679 000e 7B68     		ldr	r3, [r7, #4]
 680 0010 002B     		cmp	r3, #0
 681 0012 02D1     		bne	.L45
 682              		.loc 4 285 0 is_stmt 0 discriminator 1
 683 0014 1548     		ldr	r0, .L49
 684 0016 FFF7FEFF 		bl	chSysHalt
 685              	.L45:
 686              		.loc 4 287 0 is_stmt 1
 687 001a 7B68     		ldr	r3, [r7, #4]
 688 001c 9A6B     		ldr	r2, [r3, #56]
 689 001e 3B68     		ldr	r3, [r7]
 690 0020 1A43     		orrs	r2, r2, r3
 691 0022 7B68     		ldr	r3, [r7, #4]
 692 0024 9A63     		str	r2, [r3, #56]
 693              		.loc 4 289 0
 694 0026 7B68     		ldr	r3, [r7, #4]
 695 0028 93F82030 		ldrb	r3, [r3, #32]	@ zero_extendqisi2
 696 002c 0A2B     		cmp	r3, #10
 697 002e 06D1     		bne	.L46
 698              		.loc 4 290 0 discriminator 1
 699 0030 7B68     		ldr	r3, [r7, #4]
 700 0032 9A6B     		ldr	r2, [r3, #56]
 701 0034 7B68     		ldr	r3, [r7, #4]
 702 0036 5B6A     		ldr	r3, [r3, #36]
 703 0038 1340     		ands	r3, r3, r2
 704              		.loc 4 289 0 discriminator 1
 705 003a 002B     		cmp	r3, #0
 706 003c 0DD1     		bne	.L47
 707              	.L46:
 708              		.loc 4 291 0
 709 003e 7B68     		ldr	r3, [r7, #4]
 710 0040 93F82030 		ldrb	r3, [r3, #32]	@ zero_extendqisi2
 711              		.loc 4 290 0
 712 0044 0B2B     		cmp	r3, #11
 713 0046 0ED1     		bne	.L44
 714              		.loc 4 292 0
 715 0048 7B68     		ldr	r3, [r7, #4]
 716 004a 9A6B     		ldr	r2, [r3, #56]
 717 004c 7B68     		ldr	r3, [r7, #4]
 718 004e 5B6A     		ldr	r3, [r3, #36]
 719 0050 1A40     		ands	r2, r2, r3
 720 0052 7B68     		ldr	r3, [r7, #4]
 721 0054 5B6A     		ldr	r3, [r3, #36]
 722              		.loc 4 291 0
 723 0056 9A42     		cmp	r2, r3
 724 0058 05D1     		bne	.L44
 725              	.L47:
 726              		.loc 4 293 0
 727 005a 7B68     		ldr	r3, [r7, #4]
 728 005c 0022     		movs	r2, #0
 729 005e 5A62     		str	r2, [r3, #36]
 730              		.loc 4 294 0
ARM GAS  C:\Users\Luis\AppData\Local\Temp\ccSTjVgv.s 			page 14


 731 0060 7868     		ldr	r0, [r7, #4]
 732 0062 FFF7FEFF 		bl	chSchReadyI
 733              	.L44:
 734              		.loc 4 296 0
 735 0066 0837     		adds	r7, r7, #8
 736 0068 BD46     		mov	sp, r7
 737              		@ sp needed
 738 006a 80BD     		pop	{r7, pc}
 739              	.L50:
 740              		.align	2
 741              	.L49:
 742 006c 00000000 		.word	__func__.6579
 743              		.cfi_endproc
 744              	.LFE236:
 745              		.size	chEvtSignalI, .-chEvtSignalI
 746              		.section	.text.chEvtBroadcastFlags,"ax",%progbits
 747              		.align	2
 748              		.p2align 4,,15
 749              		.global	chEvtBroadcastFlags
 750              		.thumb
 751              		.thumb_func
 752              		.type	chEvtBroadcastFlags, %function
 753              	chEvtBroadcastFlags:
 754              	.LFB237:
 755              		.loc 4 311 0
 756              		.cfi_startproc
 757              		@ args = 0, pretend = 0, frame = 8
 758              		@ frame_needed = 1, uses_anonymous_args = 0
 759 0000 80B5     		push	{r7, lr}
 760              		.cfi_def_cfa_offset 8
 761              		.cfi_offset 7, -8
 762              		.cfi_offset 14, -4
 763 0002 82B0     		sub	sp, sp, #8
 764              		.cfi_def_cfa_offset 16
 765 0004 00AF     		add	r7, sp, #0
 766              		.cfi_def_cfa_register 7
 767 0006 7860     		str	r0, [r7, #4]
 768 0008 3960     		str	r1, [r7]
 769              		.loc 4 313 0
 770 000a FFF7FEFF 		bl	chSysLock
 771              		.loc 4 314 0
 772 000e 7868     		ldr	r0, [r7, #4]
 773 0010 3968     		ldr	r1, [r7]
 774 0012 FFF7FEFF 		bl	chEvtBroadcastFlagsI
 775              		.loc 4 315 0
 776 0016 FFF7FEFF 		bl	chSchRescheduleS
 777              		.loc 4 316 0
 778 001a FFF7FEFF 		bl	chSysUnlock
 779              		.loc 4 317 0
 780 001e 0837     		adds	r7, r7, #8
 781 0020 BD46     		mov	sp, r7
 782              		@ sp needed
 783 0022 80BD     		pop	{r7, pc}
 784              		.cfi_endproc
 785              	.LFE237:
 786              		.size	chEvtBroadcastFlags, .-chEvtBroadcastFlags
 787 0024 AFF30080 		.section	.text.chEvtGetAndClearFlagsI,"ax",%progbits
ARM GAS  C:\Users\Luis\AppData\Local\Temp\ccSTjVgv.s 			page 15


 787      AFF30080 
 787      AFF30080 
 788              		.align	2
 789              		.p2align 4,,15
 790              		.global	chEvtGetAndClearFlagsI
 791              		.thumb
 792              		.thumb_func
 793              		.type	chEvtGetAndClearFlagsI, %function
 794              	chEvtGetAndClearFlagsI:
 795              	.LFB238:
 796              		.loc 4 330 0
 797              		.cfi_startproc
 798              		@ args = 0, pretend = 0, frame = 16
 799              		@ frame_needed = 1, uses_anonymous_args = 0
 800              		@ link register save eliminated.
 801 0000 80B4     		push	{r7}
 802              		.cfi_def_cfa_offset 4
 803              		.cfi_offset 7, -4
 804 0002 85B0     		sub	sp, sp, #20
 805              		.cfi_def_cfa_offset 24
 806 0004 00AF     		add	r7, sp, #0
 807              		.cfi_def_cfa_register 7
 808 0006 7860     		str	r0, [r7, #4]
 809              		.loc 4 333 0
 810 0008 7B68     		ldr	r3, [r7, #4]
 811 000a DB68     		ldr	r3, [r3, #12]
 812 000c FB60     		str	r3, [r7, #12]
 813              		.loc 4 334 0
 814 000e 7B68     		ldr	r3, [r7, #4]
 815 0010 0022     		movs	r2, #0
 816 0012 DA60     		str	r2, [r3, #12]
 817              		.loc 4 336 0
 818 0014 FB68     		ldr	r3, [r7, #12]
 819              		.loc 4 337 0
 820 0016 1846     		mov	r0, r3
 821 0018 1437     		adds	r7, r7, #20
 822 001a BD46     		mov	sp, r7
 823              		@ sp needed
 824 001c 5DF8047B 		ldr	r7, [sp], #4
 825 0020 7047     		bx	lr
 826              		.cfi_endproc
 827              	.LFE238:
 828              		.size	chEvtGetAndClearFlagsI, .-chEvtGetAndClearFlagsI
 829 0022 00BFAFF3 		.section	.text.chEvtDispatch,"ax",%progbits
 829      0080AFF3 
 829      0080AFF3 
 829      0080
 830              		.align	2
 831              		.p2align 4,,15
 832              		.global	chEvtDispatch
 833              		.thumb
 834              		.thumb_func
 835              		.type	chEvtDispatch, %function
 836              	chEvtDispatch:
 837              	.LFB239:
 838              		.loc 4 348 0
 839              		.cfi_startproc
ARM GAS  C:\Users\Luis\AppData\Local\Temp\ccSTjVgv.s 			page 16


 840              		@ args = 0, pretend = 0, frame = 16
 841              		@ frame_needed = 1, uses_anonymous_args = 0
 842 0000 80B5     		push	{r7, lr}
 843              		.cfi_def_cfa_offset 8
 844              		.cfi_offset 7, -8
 845              		.cfi_offset 14, -4
 846 0002 84B0     		sub	sp, sp, #16
 847              		.cfi_def_cfa_offset 24
 848 0004 00AF     		add	r7, sp, #0
 849              		.cfi_def_cfa_register 7
 850 0006 7860     		str	r0, [r7, #4]
 851 0008 3960     		str	r1, [r7]
 852              		.loc 4 351 0
 853 000a 7B68     		ldr	r3, [r7, #4]
 854 000c 002B     		cmp	r3, #0
 855 000e 02D1     		bne	.L55
 856              		.loc 4 351 0 is_stmt 0 discriminator 1
 857 0010 1748     		ldr	r0, .L60
 858 0012 FFF7FEFF 		bl	chSysHalt
 859              	.L55:
 860              		.loc 4 353 0 is_stmt 1
 861 0016 0023     		movs	r3, #0
 862 0018 FB60     		str	r3, [r7, #12]
 863              		.loc 4 354 0
 864 001a 23E0     		b	.L56
 865              	.L59:
 866              		.loc 4 355 0
 867 001c 3A68     		ldr	r2, [r7]
 868 001e FB68     		ldr	r3, [r7, #12]
 869 0020 22FA03F3 		lsr	r3, r2, r3
 870 0024 03F00103 		and	r3, r3, #1
 871 0028 002B     		cmp	r3, #0
 872 002a 18D0     		beq	.L57
 873              		.loc 4 356 0 discriminator 1
 874 002c FB68     		ldr	r3, [r7, #12]
 875 002e 9B00     		lsls	r3, r3, #2
 876 0030 7A68     		ldr	r2, [r7, #4]
 877 0032 1344     		add	r3, r3, r2
 878 0034 1B68     		ldr	r3, [r3]
 879 0036 002B     		cmp	r3, #0
 880 0038 02D1     		bne	.L58
 881 003a 0D48     		ldr	r0, .L60
 882 003c FFF7FEFF 		bl	chSysHalt
 883              	.L58:
 884              		.loc 4 357 0
 885 0040 0122     		movs	r2, #1
 886 0042 FB68     		ldr	r3, [r7, #12]
 887 0044 02FA03F3 		lsl	r3, r2, r3
 888 0048 DB43     		mvns	r3, r3
 889 004a 3A68     		ldr	r2, [r7]
 890 004c 1340     		ands	r3, r3, r2
 891 004e 3B60     		str	r3, [r7]
 892              		.loc 4 358 0
 893 0050 FB68     		ldr	r3, [r7, #12]
 894 0052 9B00     		lsls	r3, r3, #2
 895 0054 7A68     		ldr	r2, [r7, #4]
 896 0056 1344     		add	r3, r3, r2
ARM GAS  C:\Users\Luis\AppData\Local\Temp\ccSTjVgv.s 			page 17


 897 0058 1B68     		ldr	r3, [r3]
 898 005a F868     		ldr	r0, [r7, #12]
 899 005c 9847     		blx	r3
 900              	.L57:
 901              		.loc 4 360 0
 902 005e FB68     		ldr	r3, [r7, #12]
 903 0060 0133     		adds	r3, r3, #1
 904 0062 FB60     		str	r3, [r7, #12]
 905              	.L56:
 906              		.loc 4 354 0 discriminator 1
 907 0064 3B68     		ldr	r3, [r7]
 908 0066 002B     		cmp	r3, #0
 909 0068 D8D1     		bne	.L59
 910              		.loc 4 362 0
 911 006a 1037     		adds	r7, r7, #16
 912 006c BD46     		mov	sp, r7
 913              		@ sp needed
 914 006e 80BD     		pop	{r7, pc}
 915              	.L61:
 916              		.align	2
 917              	.L60:
 918 0070 00000000 		.word	__func__.6593
 919              		.cfi_endproc
 920              	.LFE239:
 921              		.size	chEvtDispatch, .-chEvtDispatch
 922 0074 AFF30080 		.section	.text.chEvtWaitOne,"ax",%progbits
 922      AFF30080 
 922      AFF30080 
 923              		.align	2
 924              		.p2align 4,,15
 925              		.global	chEvtWaitOne
 926              		.thumb
 927              		.thumb_func
 928              		.type	chEvtWaitOne, %function
 929              	chEvtWaitOne:
 930              	.LFB240:
 931              		.loc 4 383 0
 932              		.cfi_startproc
 933              		@ args = 0, pretend = 0, frame = 16
 934              		@ frame_needed = 1, uses_anonymous_args = 0
 935 0000 80B5     		push	{r7, lr}
 936              		.cfi_def_cfa_offset 8
 937              		.cfi_offset 7, -8
 938              		.cfi_offset 14, -4
 939 0002 84B0     		sub	sp, sp, #16
 940              		.cfi_def_cfa_offset 24
 941 0004 00AF     		add	r7, sp, #0
 942              		.cfi_def_cfa_register 7
 943 0006 7860     		str	r0, [r7, #4]
 944              		.loc 4 384 0
 945 0008 154B     		ldr	r3, .L65
 946 000a 9B69     		ldr	r3, [r3, #24]
 947 000c BB60     		str	r3, [r7, #8]
 948              		.loc 4 387 0
 949 000e FFF7FEFF 		bl	chSysLock
 950              		.loc 4 388 0
 951 0012 BB68     		ldr	r3, [r7, #8]
ARM GAS  C:\Users\Luis\AppData\Local\Temp\ccSTjVgv.s 			page 18


 952 0014 9A6B     		ldr	r2, [r3, #56]
 953 0016 7B68     		ldr	r3, [r7, #4]
 954 0018 1340     		ands	r3, r3, r2
 955 001a FB60     		str	r3, [r7, #12]
 956              		.loc 4 389 0
 957 001c FB68     		ldr	r3, [r7, #12]
 958 001e 002B     		cmp	r3, #0
 959 0020 0AD1     		bne	.L63
 960              		.loc 4 390 0
 961 0022 BB68     		ldr	r3, [r7, #8]
 962 0024 7A68     		ldr	r2, [r7, #4]
 963 0026 5A62     		str	r2, [r3, #36]
 964              		.loc 4 391 0
 965 0028 0A20     		movs	r0, #10
 966 002a FFF7FEFF 		bl	chSchGoSleepS
 967              		.loc 4 392 0
 968 002e BB68     		ldr	r3, [r7, #8]
 969 0030 9A6B     		ldr	r2, [r3, #56]
 970 0032 7B68     		ldr	r3, [r7, #4]
 971 0034 1340     		ands	r3, r3, r2
 972 0036 FB60     		str	r3, [r7, #12]
 973              	.L63:
 974              		.loc 4 394 0
 975 0038 FB68     		ldr	r3, [r7, #12]
 976 003a 5B42     		negs	r3, r3
 977 003c FA68     		ldr	r2, [r7, #12]
 978 003e 1340     		ands	r3, r3, r2
 979 0040 FB60     		str	r3, [r7, #12]
 980              		.loc 4 395 0
 981 0042 BB68     		ldr	r3, [r7, #8]
 982 0044 9A6B     		ldr	r2, [r3, #56]
 983 0046 FB68     		ldr	r3, [r7, #12]
 984 0048 DB43     		mvns	r3, r3
 985 004a 1A40     		ands	r2, r2, r3
 986 004c BB68     		ldr	r3, [r7, #8]
 987 004e 9A63     		str	r2, [r3, #56]
 988              		.loc 4 396 0
 989 0050 FFF7FEFF 		bl	chSysUnlock
 990              		.loc 4 398 0
 991 0054 FB68     		ldr	r3, [r7, #12]
 992              		.loc 4 399 0
 993 0056 1846     		mov	r0, r3
 994 0058 1037     		adds	r7, r7, #16
 995 005a BD46     		mov	sp, r7
 996              		@ sp needed
 997 005c 80BD     		pop	{r7, pc}
 998              	.L66:
 999 005e 00BF     		.align	2
 1000              	.L65:
 1001 0060 00000000 		.word	ch
 1002              		.cfi_endproc
 1003              	.LFE240:
 1004              		.size	chEvtWaitOne, .-chEvtWaitOne
 1005 0064 AFF30080 		.section	.text.chEvtWaitAny,"ax",%progbits
 1005      AFF30080 
 1005      AFF30080 
 1006              		.align	2
ARM GAS  C:\Users\Luis\AppData\Local\Temp\ccSTjVgv.s 			page 19


 1007              		.p2align 4,,15
 1008              		.global	chEvtWaitAny
 1009              		.thumb
 1010              		.thumb_func
 1011              		.type	chEvtWaitAny, %function
 1012              	chEvtWaitAny:
 1013              	.LFB241:
 1014              		.loc 4 413 0
 1015              		.cfi_startproc
 1016              		@ args = 0, pretend = 0, frame = 16
 1017              		@ frame_needed = 1, uses_anonymous_args = 0
 1018 0000 80B5     		push	{r7, lr}
 1019              		.cfi_def_cfa_offset 8
 1020              		.cfi_offset 7, -8
 1021              		.cfi_offset 14, -4
 1022 0002 84B0     		sub	sp, sp, #16
 1023              		.cfi_def_cfa_offset 24
 1024 0004 00AF     		add	r7, sp, #0
 1025              		.cfi_def_cfa_register 7
 1026 0006 7860     		str	r0, [r7, #4]
 1027              		.loc 4 414 0
 1028 0008 124B     		ldr	r3, .L70
 1029 000a 9B69     		ldr	r3, [r3, #24]
 1030 000c BB60     		str	r3, [r7, #8]
 1031              		.loc 4 417 0
 1032 000e FFF7FEFF 		bl	chSysLock
 1033              		.loc 4 418 0
 1034 0012 BB68     		ldr	r3, [r7, #8]
 1035 0014 9A6B     		ldr	r2, [r3, #56]
 1036 0016 7B68     		ldr	r3, [r7, #4]
 1037 0018 1340     		ands	r3, r3, r2
 1038 001a FB60     		str	r3, [r7, #12]
 1039              		.loc 4 419 0
 1040 001c FB68     		ldr	r3, [r7, #12]
 1041 001e 002B     		cmp	r3, #0
 1042 0020 0AD1     		bne	.L68
 1043              		.loc 4 420 0
 1044 0022 BB68     		ldr	r3, [r7, #8]
 1045 0024 7A68     		ldr	r2, [r7, #4]
 1046 0026 5A62     		str	r2, [r3, #36]
 1047              		.loc 4 421 0
 1048 0028 0A20     		movs	r0, #10
 1049 002a FFF7FEFF 		bl	chSchGoSleepS
 1050              		.loc 4 422 0
 1051 002e BB68     		ldr	r3, [r7, #8]
 1052 0030 9A6B     		ldr	r2, [r3, #56]
 1053 0032 7B68     		ldr	r3, [r7, #4]
 1054 0034 1340     		ands	r3, r3, r2
 1055 0036 FB60     		str	r3, [r7, #12]
 1056              	.L68:
 1057              		.loc 4 424 0
 1058 0038 BB68     		ldr	r3, [r7, #8]
 1059 003a 9A6B     		ldr	r2, [r3, #56]
 1060 003c FB68     		ldr	r3, [r7, #12]
 1061 003e DB43     		mvns	r3, r3
 1062 0040 1A40     		ands	r2, r2, r3
 1063 0042 BB68     		ldr	r3, [r7, #8]
ARM GAS  C:\Users\Luis\AppData\Local\Temp\ccSTjVgv.s 			page 20


 1064 0044 9A63     		str	r2, [r3, #56]
 1065              		.loc 4 425 0
 1066 0046 FFF7FEFF 		bl	chSysUnlock
 1067              		.loc 4 427 0
 1068 004a FB68     		ldr	r3, [r7, #12]
 1069              		.loc 4 428 0
 1070 004c 1846     		mov	r0, r3
 1071 004e 1037     		adds	r7, r7, #16
 1072 0050 BD46     		mov	sp, r7
 1073              		@ sp needed
 1074 0052 80BD     		pop	{r7, pc}
 1075              	.L71:
 1076              		.align	2
 1077              	.L70:
 1078 0054 00000000 		.word	ch
 1079              		.cfi_endproc
 1080              	.LFE241:
 1081              		.size	chEvtWaitAny, .-chEvtWaitAny
 1082 0058 AFF30080 		.section	.text.chEvtWaitAll,"ax",%progbits
 1082      AFF30080 
 1083              		.align	2
 1084              		.p2align 4,,15
 1085              		.global	chEvtWaitAll
 1086              		.thumb
 1087              		.thumb_func
 1088              		.type	chEvtWaitAll, %function
 1089              	chEvtWaitAll:
 1090              	.LFB242:
 1091              		.loc 4 441 0
 1092              		.cfi_startproc
 1093              		@ args = 0, pretend = 0, frame = 16
 1094              		@ frame_needed = 1, uses_anonymous_args = 0
 1095 0000 80B5     		push	{r7, lr}
 1096              		.cfi_def_cfa_offset 8
 1097              		.cfi_offset 7, -8
 1098              		.cfi_offset 14, -4
 1099 0002 84B0     		sub	sp, sp, #16
 1100              		.cfi_def_cfa_offset 24
 1101 0004 00AF     		add	r7, sp, #0
 1102              		.cfi_def_cfa_register 7
 1103 0006 7860     		str	r0, [r7, #4]
 1104              		.loc 4 442 0
 1105 0008 0F4B     		ldr	r3, .L75
 1106 000a 9B69     		ldr	r3, [r3, #24]
 1107 000c FB60     		str	r3, [r7, #12]
 1108              		.loc 4 444 0
 1109 000e FFF7FEFF 		bl	chSysLock
 1110              		.loc 4 445 0
 1111 0012 FB68     		ldr	r3, [r7, #12]
 1112 0014 9A6B     		ldr	r2, [r3, #56]
 1113 0016 7B68     		ldr	r3, [r7, #4]
 1114 0018 1A40     		ands	r2, r2, r3
 1115 001a 7B68     		ldr	r3, [r7, #4]
 1116 001c 9A42     		cmp	r2, r3
 1117 001e 05D0     		beq	.L73
 1118              		.loc 4 446 0
 1119 0020 FB68     		ldr	r3, [r7, #12]
ARM GAS  C:\Users\Luis\AppData\Local\Temp\ccSTjVgv.s 			page 21


 1120 0022 7A68     		ldr	r2, [r7, #4]
 1121 0024 5A62     		str	r2, [r3, #36]
 1122              		.loc 4 447 0
 1123 0026 0B20     		movs	r0, #11
 1124 0028 FFF7FEFF 		bl	chSchGoSleepS
 1125              	.L73:
 1126              		.loc 4 449 0
 1127 002c FB68     		ldr	r3, [r7, #12]
 1128 002e 9A6B     		ldr	r2, [r3, #56]
 1129 0030 7B68     		ldr	r3, [r7, #4]
 1130 0032 DB43     		mvns	r3, r3
 1131 0034 1A40     		ands	r2, r2, r3
 1132 0036 FB68     		ldr	r3, [r7, #12]
 1133 0038 9A63     		str	r2, [r3, #56]
 1134              		.loc 4 450 0
 1135 003a FFF7FEFF 		bl	chSysUnlock
 1136              		.loc 4 452 0
 1137 003e 7B68     		ldr	r3, [r7, #4]
 1138              		.loc 4 453 0
 1139 0040 1846     		mov	r0, r3
 1140 0042 1037     		adds	r7, r7, #16
 1141 0044 BD46     		mov	sp, r7
 1142              		@ sp needed
 1143 0046 80BD     		pop	{r7, pc}
 1144              	.L76:
 1145              		.align	2
 1146              	.L75:
 1147 0048 00000000 		.word	ch
 1148              		.cfi_endproc
 1149              	.LFE242:
 1150              		.size	chEvtWaitAll, .-chEvtWaitAll
 1151 004c AFF30080 		.section	.text.chEvtWaitOneTimeout,"ax",%progbits
 1152              		.align	2
 1153              		.p2align 4,,15
 1154              		.global	chEvtWaitOneTimeout
 1155              		.thumb
 1156              		.thumb_func
 1157              		.type	chEvtWaitOneTimeout, %function
 1158              	chEvtWaitOneTimeout:
 1159              	.LFB243:
 1160              		.loc 4 479 0
 1161              		.cfi_startproc
 1162              		@ args = 0, pretend = 0, frame = 16
 1163              		@ frame_needed = 1, uses_anonymous_args = 0
 1164 0000 80B5     		push	{r7, lr}
 1165              		.cfi_def_cfa_offset 8
 1166              		.cfi_offset 7, -8
 1167              		.cfi_offset 14, -4
 1168 0002 84B0     		sub	sp, sp, #16
 1169              		.cfi_def_cfa_offset 24
 1170 0004 00AF     		add	r7, sp, #0
 1171              		.cfi_def_cfa_register 7
 1172 0006 7860     		str	r0, [r7, #4]
 1173 0008 3960     		str	r1, [r7]
 1174              		.loc 4 480 0
 1175 000a 1D4B     		ldr	r3, .L82
 1176 000c 9B69     		ldr	r3, [r3, #24]
ARM GAS  C:\Users\Luis\AppData\Local\Temp\ccSTjVgv.s 			page 22


 1177 000e BB60     		str	r3, [r7, #8]
 1178              		.loc 4 483 0
 1179 0010 FFF7FEFF 		bl	chSysLock
 1180              		.loc 4 484 0
 1181 0014 BB68     		ldr	r3, [r7, #8]
 1182 0016 9A6B     		ldr	r2, [r3, #56]
 1183 0018 7B68     		ldr	r3, [r7, #4]
 1184 001a 1340     		ands	r3, r3, r2
 1185 001c FB60     		str	r3, [r7, #12]
 1186              		.loc 4 485 0
 1187 001e FB68     		ldr	r3, [r7, #12]
 1188 0020 002B     		cmp	r3, #0
 1189 0022 19D1     		bne	.L78
 1190              		.loc 4 486 0
 1191 0024 3B68     		ldr	r3, [r7]
 1192 0026 002B     		cmp	r3, #0
 1193 0028 03D1     		bne	.L79
 1194              		.loc 4 487 0
 1195 002a FFF7FEFF 		bl	chSysUnlock
 1196              		.loc 4 488 0
 1197 002e 0023     		movs	r3, #0
 1198 0030 21E0     		b	.L80
 1199              	.L79:
 1200              		.loc 4 490 0
 1201 0032 BB68     		ldr	r3, [r7, #8]
 1202 0034 7A68     		ldr	r2, [r7, #4]
 1203 0036 5A62     		str	r2, [r3, #36]
 1204              		.loc 4 491 0
 1205 0038 0A20     		movs	r0, #10
 1206 003a 3968     		ldr	r1, [r7]
 1207 003c FFF7FEFF 		bl	chSchGoSleepTimeoutS
 1208 0040 0346     		mov	r3, r0
 1209 0042 002B     		cmp	r3, #0
 1210 0044 03DA     		bge	.L81
 1211              		.loc 4 492 0
 1212 0046 FFF7FEFF 		bl	chSysUnlock
 1213              		.loc 4 493 0
 1214 004a 0023     		movs	r3, #0
 1215 004c 13E0     		b	.L80
 1216              	.L81:
 1217              		.loc 4 495 0
 1218 004e BB68     		ldr	r3, [r7, #8]
 1219 0050 9A6B     		ldr	r2, [r3, #56]
 1220 0052 7B68     		ldr	r3, [r7, #4]
 1221 0054 1340     		ands	r3, r3, r2
 1222 0056 FB60     		str	r3, [r7, #12]
 1223              	.L78:
 1224              		.loc 4 497 0
 1225 0058 FB68     		ldr	r3, [r7, #12]
 1226 005a 5B42     		negs	r3, r3
 1227 005c FA68     		ldr	r2, [r7, #12]
 1228 005e 1340     		ands	r3, r3, r2
 1229 0060 FB60     		str	r3, [r7, #12]
 1230              		.loc 4 498 0
 1231 0062 BB68     		ldr	r3, [r7, #8]
 1232 0064 9A6B     		ldr	r2, [r3, #56]
 1233 0066 FB68     		ldr	r3, [r7, #12]
ARM GAS  C:\Users\Luis\AppData\Local\Temp\ccSTjVgv.s 			page 23


 1234 0068 DB43     		mvns	r3, r3
 1235 006a 1A40     		ands	r2, r2, r3
 1236 006c BB68     		ldr	r3, [r7, #8]
 1237 006e 9A63     		str	r2, [r3, #56]
 1238              		.loc 4 499 0
 1239 0070 FFF7FEFF 		bl	chSysUnlock
 1240              		.loc 4 501 0
 1241 0074 FB68     		ldr	r3, [r7, #12]
 1242              	.L80:
 1243              		.loc 4 502 0
 1244 0076 1846     		mov	r0, r3
 1245 0078 1037     		adds	r7, r7, #16
 1246 007a BD46     		mov	sp, r7
 1247              		@ sp needed
 1248 007c 80BD     		pop	{r7, pc}
 1249              	.L83:
 1250 007e 00BF     		.align	2
 1251              	.L82:
 1252 0080 00000000 		.word	ch
 1253              		.cfi_endproc
 1254              	.LFE243:
 1255              		.size	chEvtWaitOneTimeout, .-chEvtWaitOneTimeout
 1256 0084 AFF30080 		.section	.text.chEvtWaitAnyTimeout,"ax",%progbits
 1256      AFF30080 
 1256      AFF30080 
 1257              		.align	2
 1258              		.p2align 4,,15
 1259              		.global	chEvtWaitAnyTimeout
 1260              		.thumb
 1261              		.thumb_func
 1262              		.type	chEvtWaitAnyTimeout, %function
 1263              	chEvtWaitAnyTimeout:
 1264              	.LFB244:
 1265              		.loc 4 522 0
 1266              		.cfi_startproc
 1267              		@ args = 0, pretend = 0, frame = 16
 1268              		@ frame_needed = 1, uses_anonymous_args = 0
 1269 0000 80B5     		push	{r7, lr}
 1270              		.cfi_def_cfa_offset 8
 1271              		.cfi_offset 7, -8
 1272              		.cfi_offset 14, -4
 1273 0002 84B0     		sub	sp, sp, #16
 1274              		.cfi_def_cfa_offset 24
 1275 0004 00AF     		add	r7, sp, #0
 1276              		.cfi_def_cfa_register 7
 1277 0006 7860     		str	r0, [r7, #4]
 1278 0008 3960     		str	r1, [r7]
 1279              		.loc 4 523 0
 1280 000a 1A4B     		ldr	r3, .L89
 1281 000c 9B69     		ldr	r3, [r3, #24]
 1282 000e BB60     		str	r3, [r7, #8]
 1283              		.loc 4 526 0
 1284 0010 FFF7FEFF 		bl	chSysLock
 1285              		.loc 4 527 0
 1286 0014 BB68     		ldr	r3, [r7, #8]
 1287 0016 9A6B     		ldr	r2, [r3, #56]
 1288 0018 7B68     		ldr	r3, [r7, #4]
ARM GAS  C:\Users\Luis\AppData\Local\Temp\ccSTjVgv.s 			page 24


 1289 001a 1340     		ands	r3, r3, r2
 1290 001c FB60     		str	r3, [r7, #12]
 1291              		.loc 4 528 0
 1292 001e FB68     		ldr	r3, [r7, #12]
 1293 0020 002B     		cmp	r3, #0
 1294 0022 19D1     		bne	.L85
 1295              		.loc 4 529 0
 1296 0024 3B68     		ldr	r3, [r7]
 1297 0026 002B     		cmp	r3, #0
 1298 0028 03D1     		bne	.L86
 1299              		.loc 4 530 0
 1300 002a FFF7FEFF 		bl	chSysUnlock
 1301              		.loc 4 531 0
 1302 002e 0023     		movs	r3, #0
 1303 0030 1CE0     		b	.L87
 1304              	.L86:
 1305              		.loc 4 533 0
 1306 0032 BB68     		ldr	r3, [r7, #8]
 1307 0034 7A68     		ldr	r2, [r7, #4]
 1308 0036 5A62     		str	r2, [r3, #36]
 1309              		.loc 4 534 0
 1310 0038 0A20     		movs	r0, #10
 1311 003a 3968     		ldr	r1, [r7]
 1312 003c FFF7FEFF 		bl	chSchGoSleepTimeoutS
 1313 0040 0346     		mov	r3, r0
 1314 0042 002B     		cmp	r3, #0
 1315 0044 03DA     		bge	.L88
 1316              		.loc 4 535 0
 1317 0046 FFF7FEFF 		bl	chSysUnlock
 1318              		.loc 4 536 0
 1319 004a 0023     		movs	r3, #0
 1320 004c 0EE0     		b	.L87
 1321              	.L88:
 1322              		.loc 4 538 0
 1323 004e BB68     		ldr	r3, [r7, #8]
 1324 0050 9A6B     		ldr	r2, [r3, #56]
 1325 0052 7B68     		ldr	r3, [r7, #4]
 1326 0054 1340     		ands	r3, r3, r2
 1327 0056 FB60     		str	r3, [r7, #12]
 1328              	.L85:
 1329              		.loc 4 540 0
 1330 0058 BB68     		ldr	r3, [r7, #8]
 1331 005a 9A6B     		ldr	r2, [r3, #56]
 1332 005c FB68     		ldr	r3, [r7, #12]
 1333 005e DB43     		mvns	r3, r3
 1334 0060 1A40     		ands	r2, r2, r3
 1335 0062 BB68     		ldr	r3, [r7, #8]
 1336 0064 9A63     		str	r2, [r3, #56]
 1337              		.loc 4 541 0
 1338 0066 FFF7FEFF 		bl	chSysUnlock
 1339              		.loc 4 543 0
 1340 006a FB68     		ldr	r3, [r7, #12]
 1341              	.L87:
 1342              		.loc 4 544 0
 1343 006c 1846     		mov	r0, r3
 1344 006e 1037     		adds	r7, r7, #16
 1345 0070 BD46     		mov	sp, r7
ARM GAS  C:\Users\Luis\AppData\Local\Temp\ccSTjVgv.s 			page 25


 1346              		@ sp needed
 1347 0072 80BD     		pop	{r7, pc}
 1348              	.L90:
 1349              		.align	2
 1350              	.L89:
 1351 0074 00000000 		.word	ch
 1352              		.cfi_endproc
 1353              	.LFE244:
 1354              		.size	chEvtWaitAnyTimeout, .-chEvtWaitAnyTimeout
 1355 0078 AFF30080 		.section	.text.chEvtWaitAllTimeout,"ax",%progbits
 1355      AFF30080 
 1356              		.align	2
 1357              		.p2align 4,,15
 1358              		.global	chEvtWaitAllTimeout
 1359              		.thumb
 1360              		.thumb_func
 1361              		.type	chEvtWaitAllTimeout, %function
 1362              	chEvtWaitAllTimeout:
 1363              	.LFB245:
 1364              		.loc 4 563 0
 1365              		.cfi_startproc
 1366              		@ args = 0, pretend = 0, frame = 16
 1367              		@ frame_needed = 1, uses_anonymous_args = 0
 1368 0000 80B5     		push	{r7, lr}
 1369              		.cfi_def_cfa_offset 8
 1370              		.cfi_offset 7, -8
 1371              		.cfi_offset 14, -4
 1372 0002 84B0     		sub	sp, sp, #16
 1373              		.cfi_def_cfa_offset 24
 1374 0004 00AF     		add	r7, sp, #0
 1375              		.cfi_def_cfa_register 7
 1376 0006 7860     		str	r0, [r7, #4]
 1377 0008 3960     		str	r1, [r7]
 1378              		.loc 4 564 0
 1379 000a 174B     		ldr	r3, .L95
 1380 000c 9B69     		ldr	r3, [r3, #24]
 1381 000e FB60     		str	r3, [r7, #12]
 1382              		.loc 4 566 0
 1383 0010 FFF7FEFF 		bl	chSysLock
 1384              		.loc 4 567 0
 1385 0014 FB68     		ldr	r3, [r7, #12]
 1386 0016 9A6B     		ldr	r2, [r3, #56]
 1387 0018 7B68     		ldr	r3, [r7, #4]
 1388 001a 1A40     		ands	r2, r2, r3
 1389 001c 7B68     		ldr	r3, [r7, #4]
 1390 001e 9A42     		cmp	r2, r3
 1391 0020 14D0     		beq	.L92
 1392              		.loc 4 568 0
 1393 0022 3B68     		ldr	r3, [r7]
 1394 0024 002B     		cmp	r3, #0
 1395 0026 03D1     		bne	.L93
 1396              		.loc 4 569 0
 1397 0028 FFF7FEFF 		bl	chSysUnlock
 1398              		.loc 4 570 0
 1399 002c 0023     		movs	r3, #0
 1400 002e 17E0     		b	.L94
 1401              	.L93:
ARM GAS  C:\Users\Luis\AppData\Local\Temp\ccSTjVgv.s 			page 26


 1402              		.loc 4 572 0
 1403 0030 FB68     		ldr	r3, [r7, #12]
 1404 0032 7A68     		ldr	r2, [r7, #4]
 1405 0034 5A62     		str	r2, [r3, #36]
 1406              		.loc 4 573 0
 1407 0036 0B20     		movs	r0, #11
 1408 0038 3968     		ldr	r1, [r7]
 1409 003a FFF7FEFF 		bl	chSchGoSleepTimeoutS
 1410 003e 0346     		mov	r3, r0
 1411 0040 002B     		cmp	r3, #0
 1412 0042 03DA     		bge	.L92
 1413              		.loc 4 574 0
 1414 0044 FFF7FEFF 		bl	chSysUnlock
 1415              		.loc 4 575 0
 1416 0048 0023     		movs	r3, #0
 1417 004a 09E0     		b	.L94
 1418              	.L92:
 1419              		.loc 4 578 0
 1420 004c FB68     		ldr	r3, [r7, #12]
 1421 004e 9A6B     		ldr	r2, [r3, #56]
 1422 0050 7B68     		ldr	r3, [r7, #4]
 1423 0052 DB43     		mvns	r3, r3
 1424 0054 1A40     		ands	r2, r2, r3
 1425 0056 FB68     		ldr	r3, [r7, #12]
 1426 0058 9A63     		str	r2, [r3, #56]
 1427              		.loc 4 579 0
 1428 005a FFF7FEFF 		bl	chSysUnlock
 1429              		.loc 4 581 0
 1430 005e 7B68     		ldr	r3, [r7, #4]
 1431              	.L94:
 1432              		.loc 4 582 0
 1433 0060 1846     		mov	r0, r3
 1434 0062 1037     		adds	r7, r7, #16
 1435 0064 BD46     		mov	sp, r7
 1436              		@ sp needed
 1437 0066 80BD     		pop	{r7, pc}
 1438              	.L96:
 1439              		.align	2
 1440              	.L95:
 1441 0068 00000000 		.word	ch
 1442              		.cfi_endproc
 1443              	.LFE245:
 1444              		.size	chEvtWaitAllTimeout, .-chEvtWaitAllTimeout
 1445 006c AFF30080 		.section	.rodata.__func__.6540,"a",%progbits
 1446              		.align	2
 1447              		.type	__func__.6540, %object
 1448              		.size	__func__.6540, 27
 1449              	__func__.6540:
 1450 0000 63684576 		.ascii	"chEvtRegisterMaskWithFlags\000"
 1450      74526567 
 1450      69737465 
 1450      724D6173 
 1450      6B576974 
 1451 001b 00       		.section	.rodata.__func__.5842,"a",%progbits
 1452              		.align	2
 1453              		.type	__func__.5842, %object
 1454              		.size	__func__.5842, 12
ARM GAS  C:\Users\Luis\AppData\Local\Temp\ccSTjVgv.s 			page 27


 1455              	__func__.5842:
 1456 0000 63685379 		.ascii	"chSysUnlock\000"
 1456      73556E6C 
 1456      6F636B00 
 1457              		.section	.rodata.__func__.6546,"a",%progbits
 1458              		.align	2
 1459              		.type	__func__.6546, %object
 1460              		.size	__func__.6546, 16
 1461              	__func__.6546:
 1462 0000 63684576 		.ascii	"chEvtUnregister\000"
 1462      74556E72 
 1462      65676973 
 1462      74657200 
 1463              		.section	.rodata.__func__.6562,"a",%progbits
 1464              		.align	2
 1465              		.type	__func__.6562, %object
 1466              		.size	__func__.6562, 21
 1467              	__func__.6562:
 1468 0000 63684576 		.ascii	"chEvtBroadcastFlagsI\000"
 1468      7442726F 
 1468      61646361 
 1468      7374466C 
 1468      61677349 
 1469 0015 000000   		.section	.rodata.__func__.6574,"a",%progbits
 1470              		.align	2
 1471              		.type	__func__.6574, %object
 1472              		.size	__func__.6574, 12
 1473              	__func__.6574:
 1474 0000 63684576 		.ascii	"chEvtSignal\000"
 1474      74536967 
 1474      6E616C00 
 1475              		.section	.rodata.__func__.6579,"a",%progbits
 1476              		.align	2
 1477              		.type	__func__.6579, %object
 1478              		.size	__func__.6579, 13
 1479              	__func__.6579:
 1480 0000 63684576 		.ascii	"chEvtSignalI\000"
 1480      74536967 
 1480      6E616C49 
 1480      00
 1481 000d 000000   		.section	.rodata.__func__.6593,"a",%progbits
 1482              		.align	2
 1483              		.type	__func__.6593, %object
 1484              		.size	__func__.6593, 14
 1485              	__func__.6593:
 1486 0000 63684576 		.ascii	"chEvtDispatch\000"
 1486      74446973 
 1486      70617463 
 1486      6800
 1487 000e 0000     		.text
 1488              	.Letext0:
 1489              		.file 5 "c:\\emtechesdk\\gcc\\arm-none-eabi\\include\\stdint.h"
 1490              		.file 6 "../../ChibiOS/os/rt/ports/ARMCMx/compilers/GCC/chtypes.h"
 1491              		.file 7 "../../ChibiOS/os/rt/include/chsystypes.h"
 1492              		.file 8 "../../ChibiOS/os/rt/include/chschd.h"
 1493              		.file 9 "../../ChibiOS/os/rt/ports/ARMCMx/chcore.h"
 1494              		.file 10 "../../ChibiOS/os/rt/include/chdebug.h"
ARM GAS  C:\Users\Luis\AppData\Local\Temp\ccSTjVgv.s 			page 28


 1495              		.file 11 "../../ChibiOS/os/rt/include/chtm.h"
 1496              		.file 12 "../../ChibiOS/os/rt/include/chstats.h"
 1497              		.file 13 "../../ChibiOS/os/rt/include/chsem.h"
 1498              		.file 14 "../../ChibiOS/os/rt/include/chmtx.h"
 1499              		.file 15 "../../ChibiOS/os/rt/include/chevents.h"
 1500              		.file 16 "../../ChibiOS/os/ext/CMSIS/include/core_cm4.h"