ARM GAS  C:\Users\Luis\AppData\Local\Temp\ccAiMQcC.s 			page 1


   1              		.syntax unified
   2              		.cpu cortex-m4
   3              		.fpu softvfp
   4              		.eabi_attribute 20, 1
   5              		.eabi_attribute 21, 1
   6              		.eabi_attribute 23, 3
   7              		.eabi_attribute 24, 1
   8              		.eabi_attribute 25, 1
   9              		.eabi_attribute 26, 1
  10              		.eabi_attribute 30, 6
  11              		.eabi_attribute 34, 1
  12              		.eabi_attribute 18, 4
  13              		.thumb
  14              		.file	"chheap.c"
  15              		.text
  16              	.Ltext0:
  17              		.cfi_sections	.debug_frame
  18              		.section	.bss.default_heap,"aw",%nobits
  19              		.align	3
  20              		.type	default_heap, %object
  21              		.size	default_heap, 32
  22              	default_heap:
  23 0000 00000000 		.space	32
  23      00000000 
  23      00000000 
  23      00000000 
  23      00000000 
  24              		.section	.text._heap_init,"ax",%progbits
  25              		.align	2
  26              		.p2align 4,,15
  27              		.global	_heap_init
  28              		.thumb
  29              		.thumb_func
  30              		.type	_heap_init, %function
  31              	_heap_init:
  32              	.LFB229:
  33              		.file 1 "../../ChibiOS/os/rt/src/chheap.c"
  34              		.loc 1 91 0
  35              		.cfi_startproc
  36              		@ args = 0, pretend = 0, frame = 0
  37              		@ frame_needed = 1, uses_anonymous_args = 0
  38 0000 80B5     		push	{r7, lr}
  39              		.cfi_def_cfa_offset 8
  40              		.cfi_offset 7, -8
  41              		.cfi_offset 14, -4
  42 0002 00AF     		add	r7, sp, #0
  43              		.cfi_def_cfa_register 7
  44              		.loc 1 93 0
  45 0004 064B     		ldr	r3, .L2
  46 0006 074A     		ldr	r2, .L2+4
  47 0008 1A60     		str	r2, [r3]
  48              		.loc 1 94 0
  49 000a 054B     		ldr	r3, .L2
  50 000c 0022     		movs	r2, #0
  51 000e 9A60     		str	r2, [r3, #8]
  52              		.loc 1 95 0
  53 0010 034B     		ldr	r3, .L2
ARM GAS  C:\Users\Luis\AppData\Local\Temp\ccAiMQcC.s 			page 2


  54 0012 0022     		movs	r2, #0
  55 0014 DA60     		str	r2, [r3, #12]
  56              		.loc 1 97 0
  57 0016 0448     		ldr	r0, .L2+8
  58 0018 FFF7FEFF 		bl	chMtxObjectInit
  59              		.loc 1 101 0
  60 001c 80BD     		pop	{r7, pc}
  61              	.L3:
  62 001e 00BF     		.align	2
  63              	.L2:
  64 0020 00000000 		.word	default_heap
  65 0024 00000000 		.word	chCoreAlloc
  66 0028 10000000 		.word	default_heap+16
  67              		.cfi_endproc
  68              	.LFE229:
  69              		.size	_heap_init, .-_heap_init
  70 002c AFF30080 		.section	.text.chHeapObjectInit,"ax",%progbits
  71              		.align	2
  72              		.p2align 4,,15
  73              		.global	chHeapObjectInit
  74              		.thumb
  75              		.thumb_func
  76              		.type	chHeapObjectInit, %function
  77              	chHeapObjectInit:
  78              	.LFB230:
  79              		.loc 1 114 0
  80              		.cfi_startproc
  81              		@ args = 0, pretend = 0, frame = 24
  82              		@ frame_needed = 1, uses_anonymous_args = 0
  83 0000 80B5     		push	{r7, lr}
  84              		.cfi_def_cfa_offset 8
  85              		.cfi_offset 7, -8
  86              		.cfi_offset 14, -4
  87 0002 86B0     		sub	sp, sp, #24
  88              		.cfi_def_cfa_offset 32
  89 0004 00AF     		add	r7, sp, #0
  90              		.cfi_def_cfa_register 7
  91 0006 F860     		str	r0, [r7, #12]
  92 0008 B960     		str	r1, [r7, #8]
  93 000a 7A60     		str	r2, [r7, #4]
  94              		.loc 1 115 0
  95 000c BB68     		ldr	r3, [r7, #8]
  96 000e 7B61     		str	r3, [r7, #20]
  97              		.loc 1 117 0
  98 0010 BB68     		ldr	r3, [r7, #8]
  99 0012 03F00703 		and	r3, r3, #7
 100 0016 002B     		cmp	r3, #0
 101 0018 04D1     		bne	.L5
 102              		.loc 1 117 0 is_stmt 0 discriminator 2
 103 001a 7B68     		ldr	r3, [r7, #4]
 104 001c 03F00703 		and	r3, r3, #7
 105 0020 002B     		cmp	r3, #0
 106 0022 02D0     		beq	.L6
 107              	.L5:
 108              		.loc 1 117 0 discriminator 1
 109 0024 0D48     		ldr	r0, .L7
 110 0026 FFF7FEFF 		bl	chSysHalt
ARM GAS  C:\Users\Luis\AppData\Local\Temp\ccAiMQcC.s 			page 3


 111              	.L6:
 112              		.loc 1 119 0 is_stmt 1
 113 002a FB68     		ldr	r3, [r7, #12]
 114 002c 0022     		movs	r2, #0
 115 002e 1A60     		str	r2, [r3]
 116              		.loc 1 120 0
 117 0030 FB68     		ldr	r3, [r7, #12]
 118 0032 7A69     		ldr	r2, [r7, #20]
 119 0034 9A60     		str	r2, [r3, #8]
 120              		.loc 1 121 0
 121 0036 FB68     		ldr	r3, [r7, #12]
 122 0038 0022     		movs	r2, #0
 123 003a DA60     		str	r2, [r3, #12]
 124              		.loc 1 122 0
 125 003c 7B69     		ldr	r3, [r7, #20]
 126 003e 0022     		movs	r2, #0
 127 0040 1A60     		str	r2, [r3]
 128              		.loc 1 123 0
 129 0042 7B68     		ldr	r3, [r7, #4]
 130 0044 A3F10802 		sub	r2, r3, #8
 131 0048 7B69     		ldr	r3, [r7, #20]
 132 004a 5A60     		str	r2, [r3, #4]
 133              		.loc 1 125 0
 134 004c FB68     		ldr	r3, [r7, #12]
 135 004e 1033     		adds	r3, r3, #16
 136 0050 1846     		mov	r0, r3
 137 0052 FFF7FEFF 		bl	chMtxObjectInit
 138              		.loc 1 129 0
 139 0056 1837     		adds	r7, r7, #24
 140 0058 BD46     		mov	sp, r7
 141              		@ sp needed
 142 005a 80BD     		pop	{r7, pc}
 143              	.L8:
 144              		.align	2
 145              	.L7:
 146 005c 00000000 		.word	__func__.6544
 147              		.cfi_endproc
 148              	.LFE230:
 149              		.size	chHeapObjectInit, .-chHeapObjectInit
 150              		.section	.text.chHeapAlloc,"ax",%progbits
 151              		.align	2
 152              		.p2align 4,,15
 153              		.global	chHeapAlloc
 154              		.thumb
 155              		.thumb_func
 156              		.type	chHeapAlloc, %function
 157              	chHeapAlloc:
 158              	.LFB231:
 159              		.loc 1 147 0
 160              		.cfi_startproc
 161              		@ args = 0, pretend = 0, frame = 24
 162              		@ frame_needed = 1, uses_anonymous_args = 0
 163 0000 80B5     		push	{r7, lr}
 164              		.cfi_def_cfa_offset 8
 165              		.cfi_offset 7, -8
 166              		.cfi_offset 14, -4
 167 0002 86B0     		sub	sp, sp, #24
ARM GAS  C:\Users\Luis\AppData\Local\Temp\ccAiMQcC.s 			page 4


 168              		.cfi_def_cfa_offset 32
 169 0004 00AF     		add	r7, sp, #0
 170              		.cfi_def_cfa_register 7
 171 0006 7860     		str	r0, [r7, #4]
 172 0008 3960     		str	r1, [r7]
 173              		.loc 1 150 0
 174 000a 7B68     		ldr	r3, [r7, #4]
 175 000c 002B     		cmp	r3, #0
 176 000e 01D1     		bne	.L10
 177              		.loc 1 151 0
 178 0010 364B     		ldr	r3, .L18
 179 0012 7B60     		str	r3, [r7, #4]
 180              	.L10:
 181              		.loc 1 154 0
 182 0014 3B68     		ldr	r3, [r7]
 183 0016 0733     		adds	r3, r3, #7
 184 0018 23F00703 		bic	r3, r3, #7
 185 001c 3B60     		str	r3, [r7]
 186              		.loc 1 155 0
 187 001e 7B68     		ldr	r3, [r7, #4]
 188 0020 0833     		adds	r3, r3, #8
 189 0022 7B61     		str	r3, [r7, #20]
 190              		.loc 1 157 0
 191 0024 7B68     		ldr	r3, [r7, #4]
 192 0026 1033     		adds	r3, r3, #16
 193 0028 1846     		mov	r0, r3
 194 002a FFF7FEFF 		bl	chMtxLock
 195              		.loc 1 158 0
 196 002e 36E0     		b	.L11
 197              	.L16:
 198              		.loc 1 159 0
 199 0030 7B69     		ldr	r3, [r7, #20]
 200 0032 1B68     		ldr	r3, [r3]
 201 0034 3B61     		str	r3, [r7, #16]
 202              		.loc 1 160 0
 203 0036 3B69     		ldr	r3, [r7, #16]
 204 0038 5A68     		ldr	r2, [r3, #4]
 205 003a 3B68     		ldr	r3, [r7]
 206 003c 9A42     		cmp	r2, r3
 207 003e 2CD3     		bcc	.L12
 208              		.loc 1 161 0
 209 0040 3B69     		ldr	r3, [r7, #16]
 210 0042 5A68     		ldr	r2, [r3, #4]
 211 0044 3B68     		ldr	r3, [r7]
 212 0046 0833     		adds	r3, r3, #8
 213 0048 9A42     		cmp	r2, r3
 214 004a 04D2     		bcs	.L13
 215              		.loc 1 165 0
 216 004c 3B69     		ldr	r3, [r7, #16]
 217 004e 1A68     		ldr	r2, [r3]
 218 0050 7B69     		ldr	r3, [r7, #20]
 219 0052 1A60     		str	r2, [r3]
 220 0054 16E0     		b	.L14
 221              	.L13:
 222              		.loc 1 170 0
 223 0056 3B68     		ldr	r3, [r7]
 224 0058 0833     		adds	r3, r3, #8
ARM GAS  C:\Users\Luis\AppData\Local\Temp\ccAiMQcC.s 			page 5


 225 005a 3A69     		ldr	r2, [r7, #16]
 226 005c 1344     		add	r3, r3, r2
 227 005e FB60     		str	r3, [r7, #12]
 228              		.loc 1 172 0
 229 0060 3B69     		ldr	r3, [r7, #16]
 230 0062 1A68     		ldr	r2, [r3]
 231 0064 FB68     		ldr	r3, [r7, #12]
 232 0066 1A60     		str	r2, [r3]
 233              		.loc 1 173 0
 234 0068 3B69     		ldr	r3, [r7, #16]
 235 006a 5A68     		ldr	r2, [r3, #4]
 236 006c 3B68     		ldr	r3, [r7]
 237 006e D31A     		subs	r3, r2, r3
 238 0070 A3F10802 		sub	r2, r3, #8
 239 0074 FB68     		ldr	r3, [r7, #12]
 240 0076 5A60     		str	r2, [r3, #4]
 241              		.loc 1 174 0
 242 0078 7B69     		ldr	r3, [r7, #20]
 243 007a FA68     		ldr	r2, [r7, #12]
 244 007c 1A60     		str	r2, [r3]
 245              		.loc 1 175 0
 246 007e 3B69     		ldr	r3, [r7, #16]
 247 0080 3A68     		ldr	r2, [r7]
 248 0082 5A60     		str	r2, [r3, #4]
 249              	.L14:
 250              		.loc 1 177 0
 251 0084 3B69     		ldr	r3, [r7, #16]
 252 0086 7A68     		ldr	r2, [r7, #4]
 253 0088 1A60     		str	r2, [r3]
 254              		.loc 1 178 0
 255 008a 7B68     		ldr	r3, [r7, #4]
 256 008c 1033     		adds	r3, r3, #16
 257 008e 1846     		mov	r0, r3
 258 0090 FFF7FEFF 		bl	chMtxUnlock
 259              		.loc 1 181 0
 260 0094 3B69     		ldr	r3, [r7, #16]
 261 0096 0833     		adds	r3, r3, #8
 262 0098 24E0     		b	.L15
 263              	.L12:
 264              		.loc 1 184 0
 265 009a 3B69     		ldr	r3, [r7, #16]
 266 009c 7B61     		str	r3, [r7, #20]
 267              	.L11:
 268              		.loc 1 158 0 discriminator 1
 269 009e 7B69     		ldr	r3, [r7, #20]
 270 00a0 1B68     		ldr	r3, [r3]
 271 00a2 002B     		cmp	r3, #0
 272 00a4 C4D1     		bne	.L16
 273              		.loc 1 186 0
 274 00a6 7B68     		ldr	r3, [r7, #4]
 275 00a8 1033     		adds	r3, r3, #16
 276 00aa 1846     		mov	r0, r3
 277 00ac FFF7FEFF 		bl	chMtxUnlock
 278              		.loc 1 190 0
 279 00b0 7B68     		ldr	r3, [r7, #4]
 280 00b2 1B68     		ldr	r3, [r3]
 281 00b4 002B     		cmp	r3, #0
ARM GAS  C:\Users\Luis\AppData\Local\Temp\ccAiMQcC.s 			page 6


 282 00b6 14D0     		beq	.L17
 283              		.loc 1 191 0
 284 00b8 7B68     		ldr	r3, [r7, #4]
 285 00ba 1B68     		ldr	r3, [r3]
 286 00bc 3A68     		ldr	r2, [r7]
 287 00be 0832     		adds	r2, r2, #8
 288 00c0 1046     		mov	r0, r2
 289 00c2 9847     		blx	r3
 290 00c4 3861     		str	r0, [r7, #16]
 291              		.loc 1 192 0
 292 00c6 3B69     		ldr	r3, [r7, #16]
 293 00c8 002B     		cmp	r3, #0
 294 00ca 0AD0     		beq	.L17
 295              		.loc 1 193 0
 296 00cc 3B69     		ldr	r3, [r7, #16]
 297 00ce 7A68     		ldr	r2, [r7, #4]
 298 00d0 1A60     		str	r2, [r3]
 299              		.loc 1 194 0
 300 00d2 3B69     		ldr	r3, [r7, #16]
 301 00d4 3A68     		ldr	r2, [r7]
 302 00d6 5A60     		str	r2, [r3, #4]
 303              		.loc 1 195 0
 304 00d8 3B69     		ldr	r3, [r7, #16]
 305 00da 0833     		adds	r3, r3, #8
 306 00dc 3B61     		str	r3, [r7, #16]
 307              		.loc 1 198 0
 308 00de 3B69     		ldr	r3, [r7, #16]
 309 00e0 00E0     		b	.L15
 310              	.L17:
 311              		.loc 1 203 0
 312 00e2 0023     		movs	r3, #0
 313              	.L15:
 314              		.loc 1 204 0
 315 00e4 1846     		mov	r0, r3
 316 00e6 1837     		adds	r7, r7, #24
 317 00e8 BD46     		mov	sp, r7
 318              		@ sp needed
 319 00ea 80BD     		pop	{r7, pc}
 320              	.L19:
 321              		.align	2
 322              	.L18:
 323 00ec 00000000 		.word	default_heap
 324              		.cfi_endproc
 325              	.LFE231:
 326              		.size	chHeapAlloc, .-chHeapAlloc
 327              		.section	.text.chHeapFree,"ax",%progbits
 328              		.align	2
 329              		.p2align 4,,15
 330              		.global	chHeapFree
 331              		.thumb
 332              		.thumb_func
 333              		.type	chHeapFree, %function
 334              	chHeapFree:
 335              	.LFB232:
 336              		.loc 1 213 0
 337              		.cfi_startproc
 338              		@ args = 0, pretend = 0, frame = 24
ARM GAS  C:\Users\Luis\AppData\Local\Temp\ccAiMQcC.s 			page 7


 339              		@ frame_needed = 1, uses_anonymous_args = 0
 340 0000 80B5     		push	{r7, lr}
 341              		.cfi_def_cfa_offset 8
 342              		.cfi_offset 7, -8
 343              		.cfi_offset 14, -4
 344 0002 86B0     		sub	sp, sp, #24
 345              		.cfi_def_cfa_offset 32
 346 0004 00AF     		add	r7, sp, #0
 347              		.cfi_def_cfa_register 7
 348 0006 7860     		str	r0, [r7, #4]
 349              		.loc 1 217 0
 350 0008 7B68     		ldr	r3, [r7, #4]
 351 000a 002B     		cmp	r3, #0
 352 000c 02D1     		bne	.L21
 353              		.loc 1 217 0 is_stmt 0 discriminator 1
 354 000e 3B48     		ldr	r0, .L31
 355 0010 FFF7FEFF 		bl	chSysHalt
 356              	.L21:
 357              		.loc 1 220 0 is_stmt 1
 358 0014 7B68     		ldr	r3, [r7, #4]
 359 0016 083B     		subs	r3, r3, #8
 360 0018 3B61     		str	r3, [r7, #16]
 361              		.loc 1 222 0
 362 001a 3B69     		ldr	r3, [r7, #16]
 363 001c 1B68     		ldr	r3, [r3]
 364 001e FB60     		str	r3, [r7, #12]
 365              		.loc 1 223 0
 366 0020 FB68     		ldr	r3, [r7, #12]
 367 0022 0833     		adds	r3, r3, #8
 368 0024 7B61     		str	r3, [r7, #20]
 369              		.loc 1 225 0
 370 0026 FB68     		ldr	r3, [r7, #12]
 371 0028 1033     		adds	r3, r3, #16
 372 002a 1846     		mov	r0, r3
 373 002c FFF7FEFF 		bl	chMtxLock
 374              	.L29:
 375              		.loc 1 227 0
 376 0030 3A69     		ldr	r2, [r7, #16]
 377 0032 7B69     		ldr	r3, [r7, #20]
 378 0034 9A42     		cmp	r2, r3
 379 0036 0AD3     		bcc	.L22
 380              		.loc 1 227 0 is_stmt 0 discriminator 1
 381 0038 7B69     		ldr	r3, [r7, #20]
 382 003a 5B68     		ldr	r3, [r3, #4]
 383 003c 0833     		adds	r3, r3, #8
 384 003e 7A69     		ldr	r2, [r7, #20]
 385 0040 1A44     		add	r2, r2, r3
 386 0042 3B69     		ldr	r3, [r7, #16]
 387 0044 9A42     		cmp	r2, r3
 388 0046 02D9     		bls	.L22
 389 0048 2C48     		ldr	r0, .L31
 390 004a FFF7FEFF 		bl	chSysHalt
 391              	.L22:
 392              		.loc 1 229 0 is_stmt 1
 393 004e FB68     		ldr	r3, [r7, #12]
 394 0050 03F10802 		add	r2, r3, #8
 395 0054 7B69     		ldr	r3, [r7, #20]
ARM GAS  C:\Users\Luis\AppData\Local\Temp\ccAiMQcC.s 			page 8


 396 0056 9A42     		cmp	r2, r3
 397 0058 03D0     		beq	.L23
 398              		.loc 1 229 0 is_stmt 0 discriminator 2
 399 005a 3A69     		ldr	r2, [r7, #16]
 400 005c 7B69     		ldr	r3, [r7, #20]
 401 005e 9A42     		cmp	r2, r3
 402 0060 3ED9     		bls	.L24
 403              	.L23:
 404              		.loc 1 230 0 is_stmt 1 discriminator 1
 405 0062 7B69     		ldr	r3, [r7, #20]
 406 0064 1B68     		ldr	r3, [r3]
 407              		.loc 1 229 0 discriminator 1
 408 0066 002B     		cmp	r3, #0
 409 0068 04D0     		beq	.L25
 410              		.loc 1 230 0
 411 006a 7B69     		ldr	r3, [r7, #20]
 412 006c 1A68     		ldr	r2, [r3]
 413 006e 3B69     		ldr	r3, [r7, #16]
 414 0070 9A42     		cmp	r2, r3
 415 0072 35D9     		bls	.L24
 416              	.L25:
 417              		.loc 1 232 0
 418 0074 7B69     		ldr	r3, [r7, #20]
 419 0076 1A68     		ldr	r2, [r3]
 420 0078 3B69     		ldr	r3, [r7, #16]
 421 007a 1A60     		str	r2, [r3]
 422              		.loc 1 233 0
 423 007c 7B69     		ldr	r3, [r7, #20]
 424 007e 3A69     		ldr	r2, [r7, #16]
 425 0080 1A60     		str	r2, [r3]
 426              		.loc 1 235 0
 427 0082 3B69     		ldr	r3, [r7, #16]
 428 0084 5B68     		ldr	r3, [r3, #4]
 429 0086 0833     		adds	r3, r3, #8
 430 0088 3A69     		ldr	r2, [r7, #16]
 431 008a 1A44     		add	r2, r2, r3
 432 008c 3B69     		ldr	r3, [r7, #16]
 433 008e 1B68     		ldr	r3, [r3]
 434 0090 9A42     		cmp	r2, r3
 435 0092 0ED1     		bne	.L26
 436              		.loc 1 237 0
 437 0094 3B69     		ldr	r3, [r7, #16]
 438 0096 5A68     		ldr	r2, [r3, #4]
 439 0098 3B69     		ldr	r3, [r7, #16]
 440 009a 1B68     		ldr	r3, [r3]
 441 009c 5B68     		ldr	r3, [r3, #4]
 442 009e 1344     		add	r3, r3, r2
 443 00a0 03F10802 		add	r2, r3, #8
 444 00a4 3B69     		ldr	r3, [r7, #16]
 445 00a6 5A60     		str	r2, [r3, #4]
 446              		.loc 1 238 0
 447 00a8 3B69     		ldr	r3, [r7, #16]
 448 00aa 1B68     		ldr	r3, [r3]
 449 00ac 1A68     		ldr	r2, [r3]
 450 00ae 3B69     		ldr	r3, [r7, #16]
 451 00b0 1A60     		str	r2, [r3]
 452              	.L26:
ARM GAS  C:\Users\Luis\AppData\Local\Temp\ccAiMQcC.s 			page 9


 453              		.loc 1 240 0
 454 00b2 7B69     		ldr	r3, [r7, #20]
 455 00b4 5B68     		ldr	r3, [r3, #4]
 456 00b6 0833     		adds	r3, r3, #8
 457 00b8 7A69     		ldr	r2, [r7, #20]
 458 00ba 1A44     		add	r2, r2, r3
 459 00bc 3B69     		ldr	r3, [r7, #16]
 460 00be 9A42     		cmp	r2, r3
 461 00c0 0DD1     		bne	.L27
 462              		.loc 1 242 0
 463 00c2 7B69     		ldr	r3, [r7, #20]
 464 00c4 5A68     		ldr	r2, [r3, #4]
 465 00c6 3B69     		ldr	r3, [r7, #16]
 466 00c8 5B68     		ldr	r3, [r3, #4]
 467 00ca 1344     		add	r3, r3, r2
 468 00cc 03F10802 		add	r2, r3, #8
 469 00d0 7B69     		ldr	r3, [r7, #20]
 470 00d2 5A60     		str	r2, [r3, #4]
 471              		.loc 1 243 0
 472 00d4 3B69     		ldr	r3, [r7, #16]
 473 00d6 1A68     		ldr	r2, [r3]
 474 00d8 7B69     		ldr	r3, [r7, #20]
 475 00da 1A60     		str	r2, [r3]
 476              		.loc 1 245 0
 477 00dc 04E0     		b	.L28
 478              	.L27:
 479 00de 03E0     		b	.L28
 480              	.L24:
 481              		.loc 1 247 0
 482 00e0 7B69     		ldr	r3, [r7, #20]
 483 00e2 1B68     		ldr	r3, [r3]
 484 00e4 7B61     		str	r3, [r7, #20]
 485              		.loc 1 248 0
 486 00e6 A3E7     		b	.L29
 487              	.L28:
 488              		.loc 1 249 0
 489 00e8 FB68     		ldr	r3, [r7, #12]
 490 00ea 1033     		adds	r3, r3, #16
 491 00ec 1846     		mov	r0, r3
 492 00ee FFF7FEFF 		bl	chMtxUnlock
 493              		.loc 1 251 0
 494 00f2 00BF     		nop
 495              		.loc 1 252 0
 496 00f4 1837     		adds	r7, r7, #24
 497 00f6 BD46     		mov	sp, r7
 498              		@ sp needed
 499 00f8 80BD     		pop	{r7, pc}
 500              	.L32:
 501 00fa 00BF     		.align	2
 502              	.L31:
 503 00fc 00000000 		.word	__func__.6561
 504              		.cfi_endproc
 505              	.LFE232:
 506              		.size	chHeapFree, .-chHeapFree
 507              		.section	.text.chHeapStatus,"ax",%progbits
 508              		.align	2
 509              		.p2align 4,,15
ARM GAS  C:\Users\Luis\AppData\Local\Temp\ccAiMQcC.s 			page 10


 510              		.global	chHeapStatus
 511              		.thumb
 512              		.thumb_func
 513              		.type	chHeapStatus, %function
 514              	chHeapStatus:
 515              	.LFB233:
 516              		.loc 1 267 0
 517              		.cfi_startproc
 518              		@ args = 0, pretend = 0, frame = 24
 519              		@ frame_needed = 1, uses_anonymous_args = 0
 520 0000 80B5     		push	{r7, lr}
 521              		.cfi_def_cfa_offset 8
 522              		.cfi_offset 7, -8
 523              		.cfi_offset 14, -4
 524 0002 86B0     		sub	sp, sp, #24
 525              		.cfi_def_cfa_offset 32
 526 0004 00AF     		add	r7, sp, #0
 527              		.cfi_def_cfa_register 7
 528 0006 7860     		str	r0, [r7, #4]
 529 0008 3960     		str	r1, [r7]
 530              		.loc 1 271 0
 531 000a 7B68     		ldr	r3, [r7, #4]
 532 000c 002B     		cmp	r3, #0
 533 000e 01D1     		bne	.L34
 534              		.loc 1 272 0
 535 0010 174B     		ldr	r3, .L39
 536 0012 7B60     		str	r3, [r7, #4]
 537              	.L34:
 538              		.loc 1 275 0
 539 0014 7B68     		ldr	r3, [r7, #4]
 540 0016 1033     		adds	r3, r3, #16
 541 0018 1846     		mov	r0, r3
 542 001a FFF7FEFF 		bl	chMtxLock
 543              		.loc 1 276 0
 544 001e 0023     		movs	r3, #0
 545 0020 FB60     		str	r3, [r7, #12]
 546              		.loc 1 277 0
 547 0022 0023     		movs	r3, #0
 548 0024 3B61     		str	r3, [r7, #16]
 549              		.loc 1 278 0
 550 0026 7B68     		ldr	r3, [r7, #4]
 551 0028 0833     		adds	r3, r3, #8
 552 002a 7B61     		str	r3, [r7, #20]
 553              		.loc 1 279 0
 554 002c 0BE0     		b	.L35
 555              	.L36:
 556              		.loc 1 280 0
 557 002e 7B69     		ldr	r3, [r7, #20]
 558 0030 1B68     		ldr	r3, [r3]
 559 0032 5B68     		ldr	r3, [r3, #4]
 560 0034 FA68     		ldr	r2, [r7, #12]
 561 0036 1344     		add	r3, r3, r2
 562 0038 FB60     		str	r3, [r7, #12]
 563              		.loc 1 281 0
 564 003a 3B69     		ldr	r3, [r7, #16]
 565 003c 0133     		adds	r3, r3, #1
 566 003e 3B61     		str	r3, [r7, #16]
ARM GAS  C:\Users\Luis\AppData\Local\Temp\ccAiMQcC.s 			page 11


 567              		.loc 1 282 0
 568 0040 7B69     		ldr	r3, [r7, #20]
 569 0042 1B68     		ldr	r3, [r3]
 570 0044 7B61     		str	r3, [r7, #20]
 571              	.L35:
 572              		.loc 1 279 0 discriminator 1
 573 0046 7B69     		ldr	r3, [r7, #20]
 574 0048 1B68     		ldr	r3, [r3]
 575 004a 002B     		cmp	r3, #0
 576 004c EFD1     		bne	.L36
 577              		.loc 1 284 0
 578 004e 3B68     		ldr	r3, [r7]
 579 0050 002B     		cmp	r3, #0
 580 0052 02D0     		beq	.L37
 581              		.loc 1 285 0
 582 0054 3B68     		ldr	r3, [r7]
 583 0056 FA68     		ldr	r2, [r7, #12]
 584 0058 1A60     		str	r2, [r3]
 585              	.L37:
 586              		.loc 1 287 0
 587 005a 7B68     		ldr	r3, [r7, #4]
 588 005c 1033     		adds	r3, r3, #16
 589 005e 1846     		mov	r0, r3
 590 0060 FFF7FEFF 		bl	chMtxUnlock
 591              		.loc 1 289 0
 592 0064 3B69     		ldr	r3, [r7, #16]
 593              		.loc 1 290 0
 594 0066 1846     		mov	r0, r3
 595 0068 1837     		adds	r7, r7, #24
 596 006a BD46     		mov	sp, r7
 597              		@ sp needed
 598 006c 80BD     		pop	{r7, pc}
 599              	.L40:
 600 006e 00BF     		.align	2
 601              	.L39:
 602 0070 00000000 		.word	default_heap
 603              		.cfi_endproc
 604              	.LFE233:
 605              		.size	chHeapStatus, .-chHeapStatus
 606 0074 AFF30080 		.section	.rodata.__func__.6544,"a",%progbits
 606      AFF30080 
 606      AFF30080 
 607              		.align	2
 608              		.type	__func__.6544, %object
 609              		.size	__func__.6544, 17
 610              	__func__.6544:
 611 0000 63684865 		.ascii	"chHeapObjectInit\000"
 611      61704F62 
 611      6A656374 
 611      496E6974 
 611      00
 612 0011 000000   		.section	.rodata.__func__.6561,"a",%progbits
 613              		.align	2
 614              		.type	__func__.6561, %object
 615              		.size	__func__.6561, 11
 616              	__func__.6561:
 617 0000 63684865 		.ascii	"chHeapFree\000"
ARM GAS  C:\Users\Luis\AppData\Local\Temp\ccAiMQcC.s 			page 12


 617      61704672 
 617      656500
 618 000b 00       		.text
 619              	.Letext0:
 620              		.file 2 "c:\\emtechesdk\\gcc\\lib\\gcc\\arm-none-eabi\\4.8.3\\include\\stddef.h"
 621              		.file 3 "c:\\emtechesdk\\gcc\\arm-none-eabi\\include\\stdint.h"
 622              		.file 4 "../../ChibiOS/os/rt/ports/ARMCMx/compilers/GCC/chtypes.h"
 623              		.file 5 "../../ChibiOS/os/rt/include/chsystypes.h"
 624              		.file 6 "../../ChibiOS/os/rt/include/chschd.h"
 625              		.file 7 "../../ChibiOS/os/rt/ports/ARMCMx/chcore.h"
 626              		.file 8 "../../ChibiOS/os/rt/ports/ARMCMx/chcore_v7m.h"
 627              		.file 9 "../../ChibiOS/os/rt/include/chdebug.h"
 628              		.file 10 "../../ChibiOS/os/rt/include/chtm.h"
 629              		.file 11 "../../ChibiOS/os/rt/include/chstats.h"
 630              		.file 12 "../../ChibiOS/os/rt/include/chsem.h"
 631              		.file 13 "../../ChibiOS/os/rt/include/chmtx.h"
 632              		.file 14 "../../ChibiOS/os/rt/include/chmemcore.h"
 633              		.file 15 "../../ChibiOS/os/rt/include/chheap.h"
 634              		.file 16 "../../ChibiOS/os/ext/CMSIS/include/core_cm4.h"