ARM GAS  C:\Users\Luis\AppData\Local\Temp\ccdJOPAF.s 			page 1


   1              		.syntax unified
   2              		.cpu cortex-m4
   3              		.fpu softvfp
   4              		.eabi_attribute 20, 1
   5              		.eabi_attribute 21, 1
   6              		.eabi_attribute 23, 3
   7              		.eabi_attribute 24, 1
   8              		.eabi_attribute 25, 1
   9              		.eabi_attribute 26, 1
  10              		.eabi_attribute 30, 6
  11              		.eabi_attribute 34, 1
  12              		.eabi_attribute 18, 4
  13              		.thumb
  14              		.file	"chmboxes.c"
  15              		.text
  16              	.Ltext0:
  17              		.cfi_sections	.debug_frame
  18              		.section	.text.port_lock,"ax",%progbits
  19              		.align	2
  20              		.p2align 4,,15
  21              		.thumb
  22              		.thumb_func
  23              		.type	port_lock, %function
  24              	port_lock:
  25              	.LFB116:
  26              		.file 1 "../../ChibiOS/os/rt/ports/ARMCMx/chcore_v7m.h"
  27              		.loc 1 444 0
  28              		.cfi_startproc
  29              		@ args = 0, pretend = 0, frame = 8
  30              		@ frame_needed = 1, uses_anonymous_args = 0
  31              		@ link register save eliminated.
  32 0000 80B4     		push	{r7}
  33              		.cfi_def_cfa_offset 4
  34              		.cfi_offset 7, -4
  35 0002 83B0     		sub	sp, sp, #12
  36              		.cfi_def_cfa_offset 16
  37 0004 00AF     		add	r7, sp, #0
  38              		.cfi_def_cfa_register 7
  39 0006 2023     		movs	r3, #32
  40 0008 7B60     		str	r3, [r7, #4]
  41              	.LBB6:
  42              	.LBB7:
  43              		.file 2 "../../ChibiOS/os/ext/CMSIS/include/core_cmFunc.h"
  44              		.loc 2 546 0
  45 000a 7B68     		ldr	r3, [r7, #4]
  46              	@ 546 "../../ChibiOS/os/ext/CMSIS/include/core_cmFunc.h" 1
  47 000c 83F31188 		MSR basepri, r3
  48              	@ 0 "" 2
  49              		.thumb
  50              	.LBE7:
  51              	.LBE6:
  52              		.loc 1 451 0
  53 0010 0C37     		adds	r7, r7, #12
  54 0012 BD46     		mov	sp, r7
  55              		@ sp needed
  56 0014 5DF8047B 		ldr	r7, [sp], #4
  57 0018 7047     		bx	lr
ARM GAS  C:\Users\Luis\AppData\Local\Temp\ccdJOPAF.s 			page 2


  58              		.cfi_endproc
  59              	.LFE116:
  60              		.size	port_lock, .-port_lock
  61 001a 00BFAFF3 		.section	.text.port_unlock,"ax",%progbits
  61      0080
  62              		.align	2
  63              		.p2align 4,,15
  64              		.thumb
  65              		.thumb_func
  66              		.type	port_unlock, %function
  67              	port_unlock:
  68              	.LFB117:
  69              		.loc 1 458 0
  70              		.cfi_startproc
  71              		@ args = 0, pretend = 0, frame = 8
  72              		@ frame_needed = 1, uses_anonymous_args = 0
  73              		@ link register save eliminated.
  74 0000 80B4     		push	{r7}
  75              		.cfi_def_cfa_offset 4
  76              		.cfi_offset 7, -4
  77 0002 83B0     		sub	sp, sp, #12
  78              		.cfi_def_cfa_offset 16
  79 0004 00AF     		add	r7, sp, #0
  80              		.cfi_def_cfa_register 7
  81 0006 0023     		movs	r3, #0
  82 0008 7B60     		str	r3, [r7, #4]
  83              	.LBB8:
  84              	.LBB9:
  85              		.loc 2 546 0
  86 000a 7B68     		ldr	r3, [r7, #4]
  87              	@ 546 "../../ChibiOS/os/ext/CMSIS/include/core_cmFunc.h" 1
  88 000c 83F31188 		MSR basepri, r3
  89              	@ 0 "" 2
  90              		.thumb
  91              	.LBE9:
  92              	.LBE8:
  93              		.loc 1 465 0
  94 0010 0C37     		adds	r7, r7, #12
  95 0012 BD46     		mov	sp, r7
  96              		@ sp needed
  97 0014 5DF8047B 		ldr	r7, [sp], #4
  98 0018 7047     		bx	lr
  99              		.cfi_endproc
 100              	.LFE117:
 101              		.size	port_unlock, .-port_unlock
 102 001a 00BFAFF3 		.section	.text.chSysLock,"ax",%progbits
 102      0080
 103              		.align	2
 104              		.p2align 4,,15
 105              		.thumb
 106              		.thumb_func
 107              		.type	chSysLock, %function
 108              	chSysLock:
 109              	.LFB156:
 110              		.file 3 "../../ChibiOS/os/rt/include/chsys.h"
 111              		.loc 3 346 0
 112              		.cfi_startproc
ARM GAS  C:\Users\Luis\AppData\Local\Temp\ccdJOPAF.s 			page 3


 113              		@ args = 0, pretend = 0, frame = 0
 114              		@ frame_needed = 1, uses_anonymous_args = 0
 115 0000 80B5     		push	{r7, lr}
 116              		.cfi_def_cfa_offset 8
 117              		.cfi_offset 7, -8
 118              		.cfi_offset 14, -4
 119 0002 00AF     		add	r7, sp, #0
 120              		.cfi_def_cfa_register 7
 121              		.loc 3 348 0
 122 0004 FFF7FEFF 		bl	port_lock
 123              		.loc 3 349 0
 124 0008 FFF7FEFF 		bl	_stats_start_measure_crit_thd
 125              		.loc 3 350 0
 126 000c FFF7FEFF 		bl	_dbg_check_lock
 127              		.loc 3 351 0
 128 0010 80BD     		pop	{r7, pc}
 129              		.cfi_endproc
 130              	.LFE156:
 131              		.size	chSysLock, .-chSysLock
 132 0012 00BFAFF3 		.section	.text.chSysUnlock,"ax",%progbits
 132      0080AFF3 
 132      0080AFF3 
 132      0080
 133              		.align	2
 134              		.p2align 4,,15
 135              		.thumb
 136              		.thumb_func
 137              		.type	chSysUnlock, %function
 138              	chSysUnlock:
 139              	.LFB157:
 140              		.loc 3 358 0
 141              		.cfi_startproc
 142              		@ args = 0, pretend = 0, frame = 0
 143              		@ frame_needed = 1, uses_anonymous_args = 0
 144 0000 80B5     		push	{r7, lr}
 145              		.cfi_def_cfa_offset 8
 146              		.cfi_offset 7, -8
 147              		.cfi_offset 14, -4
 148 0002 00AF     		add	r7, sp, #0
 149              		.cfi_def_cfa_register 7
 150              		.loc 3 360 0
 151 0004 FFF7FEFF 		bl	_dbg_check_unlock
 152              		.loc 3 361 0
 153 0008 FFF7FEFF 		bl	_stats_stop_measure_crit_thd
 154              		.loc 3 367 0
 155 000c 094B     		ldr	r3, .L6
 156 000e 1A68     		ldr	r2, [r3]
 157 0010 084B     		ldr	r3, .L6
 158 0012 9A42     		cmp	r2, r3
 159 0014 0AD0     		beq	.L5
 160              		.loc 3 367 0 is_stmt 0 discriminator 1
 161 0016 074B     		ldr	r3, .L6
 162 0018 9B69     		ldr	r3, [r3, #24]
 163 001a 9A68     		ldr	r2, [r3, #8]
 164 001c 054B     		ldr	r3, .L6
 165 001e 1B68     		ldr	r3, [r3]
 166 0020 9B68     		ldr	r3, [r3, #8]
ARM GAS  C:\Users\Luis\AppData\Local\Temp\ccdJOPAF.s 			page 4


 167 0022 9A42     		cmp	r2, r3
 168 0024 02D2     		bcs	.L5
 169 0026 0448     		ldr	r0, .L6+4
 170 0028 FFF7FEFF 		bl	chSysHalt
 171              	.L5:
 172              		.loc 3 371 0 is_stmt 1
 173 002c FFF7FEFF 		bl	port_unlock
 174              		.loc 3 372 0
 175 0030 80BD     		pop	{r7, pc}
 176              	.L7:
 177 0032 00BF     		.align	2
 178              	.L6:
 179 0034 00000000 		.word	ch
 180 0038 00000000 		.word	__func__.5842
 181              		.cfi_endproc
 182              	.LFE157:
 183              		.size	chSysUnlock, .-chSysUnlock
 184 003c AFF30080 		.section	.text.chSemFastWaitI,"ax",%progbits
 185              		.align	2
 186              		.p2align 4,,15
 187              		.thumb
 188              		.thumb_func
 189              		.type	chSemFastWaitI, %function
 190              	chSemFastWaitI:
 191              	.LFB189:
 192              		.file 4 "../../ChibiOS/os/rt/include/chsem.h"
 193              		.loc 4 118 0
 194              		.cfi_startproc
 195              		@ args = 0, pretend = 0, frame = 8
 196              		@ frame_needed = 1, uses_anonymous_args = 0
 197 0000 80B5     		push	{r7, lr}
 198              		.cfi_def_cfa_offset 8
 199              		.cfi_offset 7, -8
 200              		.cfi_offset 14, -4
 201 0002 82B0     		sub	sp, sp, #8
 202              		.cfi_def_cfa_offset 16
 203 0004 00AF     		add	r7, sp, #0
 204              		.cfi_def_cfa_register 7
 205 0006 7860     		str	r0, [r7, #4]
 206              		.loc 4 120 0
 207 0008 FFF7FEFF 		bl	chDbgCheckClassI
 208              		.loc 4 122 0
 209 000c 7B68     		ldr	r3, [r7, #4]
 210 000e 9B68     		ldr	r3, [r3, #8]
 211 0010 5A1E     		subs	r2, r3, #1
 212 0012 7B68     		ldr	r3, [r7, #4]
 213 0014 9A60     		str	r2, [r3, #8]
 214              		.loc 4 123 0
 215 0016 0837     		adds	r7, r7, #8
 216 0018 BD46     		mov	sp, r7
 217              		@ sp needed
 218 001a 80BD     		pop	{r7, pc}
 219              		.cfi_endproc
 220              	.LFE189:
 221              		.size	chSemFastWaitI, .-chSemFastWaitI
 222 001c AFF30080 		.section	.text.chSemGetCounterI,"ax",%progbits
 223              		.align	2
ARM GAS  C:\Users\Luis\AppData\Local\Temp\ccdJOPAF.s 			page 5


 224              		.p2align 4,,15
 225              		.thumb
 226              		.thumb_func
 227              		.type	chSemGetCounterI, %function
 228              	chSemGetCounterI:
 229              	.LFB191:
 230              		.loc 4 149 0
 231              		.cfi_startproc
 232              		@ args = 0, pretend = 0, frame = 8
 233              		@ frame_needed = 1, uses_anonymous_args = 0
 234 0000 80B5     		push	{r7, lr}
 235              		.cfi_def_cfa_offset 8
 236              		.cfi_offset 7, -8
 237              		.cfi_offset 14, -4
 238 0002 82B0     		sub	sp, sp, #8
 239              		.cfi_def_cfa_offset 16
 240 0004 00AF     		add	r7, sp, #0
 241              		.cfi_def_cfa_register 7
 242 0006 7860     		str	r0, [r7, #4]
 243              		.loc 4 151 0
 244 0008 FFF7FEFF 		bl	chDbgCheckClassI
 245              		.loc 4 153 0
 246 000c 7B68     		ldr	r3, [r7, #4]
 247 000e 9B68     		ldr	r3, [r3, #8]
 248              		.loc 4 154 0
 249 0010 1846     		mov	r0, r3
 250 0012 0837     		adds	r7, r7, #8
 251 0014 BD46     		mov	sp, r7
 252              		@ sp needed
 253 0016 80BD     		pop	{r7, pc}
 254              		.cfi_endproc
 255              	.LFE191:
 256              		.size	chSemGetCounterI, .-chSemGetCounterI
 257 0018 AFF30080 		.section	.text.chMBObjectInit,"ax",%progbits
 257      AFF30080 
 258              		.align	2
 259              		.p2align 4,,15
 260              		.global	chMBObjectInit
 261              		.thumb
 262              		.thumb_func
 263              		.type	chMBObjectInit, %function
 264              	chMBObjectInit:
 265              	.LFB229:
 266              		.file 5 "../../ChibiOS/os/rt/src/chmboxes.c"
 267              		.loc 5 86 0
 268              		.cfi_startproc
 269              		@ args = 0, pretend = 0, frame = 16
 270              		@ frame_needed = 1, uses_anonymous_args = 0
 271 0000 80B5     		push	{r7, lr}
 272              		.cfi_def_cfa_offset 8
 273              		.cfi_offset 7, -8
 274              		.cfi_offset 14, -4
 275 0002 84B0     		sub	sp, sp, #16
 276              		.cfi_def_cfa_offset 24
 277 0004 00AF     		add	r7, sp, #0
 278              		.cfi_def_cfa_register 7
 279 0006 F860     		str	r0, [r7, #12]
ARM GAS  C:\Users\Luis\AppData\Local\Temp\ccdJOPAF.s 			page 6


 280 0008 B960     		str	r1, [r7, #8]
 281 000a 7A60     		str	r2, [r7, #4]
 282              		.loc 5 88 0
 283 000c FB68     		ldr	r3, [r7, #12]
 284 000e 002B     		cmp	r3, #0
 285 0010 05D0     		beq	.L12
 286              		.loc 5 88 0 is_stmt 0 discriminator 2
 287 0012 BB68     		ldr	r3, [r7, #8]
 288 0014 002B     		cmp	r3, #0
 289 0016 02D0     		beq	.L12
 290              		.loc 5 88 0 discriminator 1
 291 0018 7B68     		ldr	r3, [r7, #4]
 292 001a 002B     		cmp	r3, #0
 293 001c 02DC     		bgt	.L13
 294              	.L12:
 295 001e 1048     		ldr	r0, .L14
 296 0020 FFF7FEFF 		bl	chSysHalt
 297              	.L13:
 298              		.loc 5 90 0 is_stmt 1
 299 0024 FB68     		ldr	r3, [r7, #12]
 300 0026 BA68     		ldr	r2, [r7, #8]
 301 0028 1A60     		str	r2, [r3]
 302              		.loc 5 91 0
 303 002a FB68     		ldr	r3, [r7, #12]
 304 002c BA68     		ldr	r2, [r7, #8]
 305 002e DA60     		str	r2, [r3, #12]
 306              		.loc 5 92 0
 307 0030 FB68     		ldr	r3, [r7, #12]
 308 0032 BA68     		ldr	r2, [r7, #8]
 309 0034 9A60     		str	r2, [r3, #8]
 310              		.loc 5 93 0
 311 0036 7B68     		ldr	r3, [r7, #4]
 312 0038 9B00     		lsls	r3, r3, #2
 313 003a BA68     		ldr	r2, [r7, #8]
 314 003c 1A44     		add	r2, r2, r3
 315 003e FB68     		ldr	r3, [r7, #12]
 316 0040 5A60     		str	r2, [r3, #4]
 317              		.loc 5 94 0
 318 0042 FB68     		ldr	r3, [r7, #12]
 319 0044 1C33     		adds	r3, r3, #28
 320 0046 1846     		mov	r0, r3
 321 0048 7968     		ldr	r1, [r7, #4]
 322 004a FFF7FEFF 		bl	chSemObjectInit
 323              		.loc 5 95 0
 324 004e FB68     		ldr	r3, [r7, #12]
 325 0050 1033     		adds	r3, r3, #16
 326 0052 1846     		mov	r0, r3
 327 0054 0021     		movs	r1, #0
 328 0056 FFF7FEFF 		bl	chSemObjectInit
 329              		.loc 5 96 0
 330 005a 1037     		adds	r7, r7, #16
 331 005c BD46     		mov	sp, r7
 332              		@ sp needed
 333 005e 80BD     		pop	{r7, pc}
 334              	.L15:
 335              		.align	2
 336              	.L14:
ARM GAS  C:\Users\Luis\AppData\Local\Temp\ccdJOPAF.s 			page 7


 337 0060 00000000 		.word	__func__.6539
 338              		.cfi_endproc
 339              	.LFE229:
 340              		.size	chMBObjectInit, .-chMBObjectInit
 341 0064 AFF30080 		.section	.text.chMBReset,"ax",%progbits
 341      AFF30080 
 341      AFF30080 
 342              		.align	2
 343              		.p2align 4,,15
 344              		.global	chMBReset
 345              		.thumb
 346              		.thumb_func
 347              		.type	chMBReset, %function
 348              	chMBReset:
 349              	.LFB230:
 350              		.loc 5 107 0
 351              		.cfi_startproc
 352              		@ args = 0, pretend = 0, frame = 8
 353              		@ frame_needed = 1, uses_anonymous_args = 0
 354 0000 80B5     		push	{r7, lr}
 355              		.cfi_def_cfa_offset 8
 356              		.cfi_offset 7, -8
 357              		.cfi_offset 14, -4
 358 0002 82B0     		sub	sp, sp, #8
 359              		.cfi_def_cfa_offset 16
 360 0004 00AF     		add	r7, sp, #0
 361              		.cfi_def_cfa_register 7
 362 0006 7860     		str	r0, [r7, #4]
 363              		.loc 5 109 0
 364 0008 FFF7FEFF 		bl	chSysLock
 365              		.loc 5 110 0
 366 000c 7868     		ldr	r0, [r7, #4]
 367 000e FFF7FEFF 		bl	chMBResetI
 368              		.loc 5 111 0
 369 0012 FFF7FEFF 		bl	chSchRescheduleS
 370              		.loc 5 112 0
 371 0016 FFF7FEFF 		bl	chSysUnlock
 372              		.loc 5 113 0
 373 001a 0837     		adds	r7, r7, #8
 374 001c BD46     		mov	sp, r7
 375              		@ sp needed
 376 001e 80BD     		pop	{r7, pc}
 377              		.cfi_endproc
 378              	.LFE230:
 379              		.size	chMBReset, .-chMBReset
 380              		.section	.text.chMBResetI,"ax",%progbits
 381              		.align	2
 382              		.p2align 4,,15
 383              		.global	chMBResetI
 384              		.thumb
 385              		.thumb_func
 386              		.type	chMBResetI, %function
 387              	chMBResetI:
 388              	.LFB231:
 389              		.loc 5 124 0
 390              		.cfi_startproc
 391              		@ args = 0, pretend = 0, frame = 8
ARM GAS  C:\Users\Luis\AppData\Local\Temp\ccdJOPAF.s 			page 8


 392              		@ frame_needed = 1, uses_anonymous_args = 0
 393 0000 80B5     		push	{r7, lr}
 394              		.cfi_def_cfa_offset 8
 395              		.cfi_offset 7, -8
 396              		.cfi_offset 14, -4
 397 0002 82B0     		sub	sp, sp, #8
 398              		.cfi_def_cfa_offset 16
 399 0004 00AF     		add	r7, sp, #0
 400              		.cfi_def_cfa_register 7
 401 0006 7860     		str	r0, [r7, #4]
 402              		.loc 5 126 0
 403 0008 FFF7FEFF 		bl	chDbgCheckClassI
 404              		.loc 5 127 0
 405 000c 7B68     		ldr	r3, [r7, #4]
 406 000e 002B     		cmp	r3, #0
 407 0010 02D1     		bne	.L18
 408              		.loc 5 127 0 is_stmt 0 discriminator 1
 409 0012 1148     		ldr	r0, .L19
 410 0014 FFF7FEFF 		bl	chSysHalt
 411              	.L18:
 412              		.loc 5 129 0 is_stmt 1
 413 0018 7B68     		ldr	r3, [r7, #4]
 414 001a 1A68     		ldr	r2, [r3]
 415 001c 7B68     		ldr	r3, [r7, #4]
 416 001e 9A60     		str	r2, [r3, #8]
 417              		.loc 5 130 0
 418 0020 7B68     		ldr	r3, [r7, #4]
 419 0022 1A68     		ldr	r2, [r3]
 420 0024 7B68     		ldr	r3, [r7, #4]
 421 0026 DA60     		str	r2, [r3, #12]
 422              		.loc 5 131 0
 423 0028 7B68     		ldr	r3, [r7, #4]
 424 002a 03F11C02 		add	r2, r3, #28
 425 002e 7B68     		ldr	r3, [r7, #4]
 426 0030 5B68     		ldr	r3, [r3, #4]
 427 0032 1946     		mov	r1, r3
 428 0034 7B68     		ldr	r3, [r7, #4]
 429 0036 1B68     		ldr	r3, [r3]
 430 0038 CB1A     		subs	r3, r1, r3
 431 003a 9B10     		asrs	r3, r3, #2
 432 003c 1046     		mov	r0, r2
 433 003e 1946     		mov	r1, r3
 434 0040 FFF7FEFF 		bl	chSemResetI
 435              		.loc 5 132 0
 436 0044 7B68     		ldr	r3, [r7, #4]
 437 0046 1033     		adds	r3, r3, #16
 438 0048 1846     		mov	r0, r3
 439 004a 0021     		movs	r1, #0
 440 004c FFF7FEFF 		bl	chSemResetI
 441              		.loc 5 133 0
 442 0050 0837     		adds	r7, r7, #8
 443 0052 BD46     		mov	sp, r7
 444              		@ sp needed
 445 0054 80BD     		pop	{r7, pc}
 446              	.L20:
 447 0056 00BF     		.align	2
 448              	.L19:
ARM GAS  C:\Users\Luis\AppData\Local\Temp\ccdJOPAF.s 			page 9


 449 0058 00000000 		.word	__func__.6546
 450              		.cfi_endproc
 451              	.LFE231:
 452              		.size	chMBResetI, .-chMBResetI
 453 005c AFF30080 		.section	.text.chMBPost,"ax",%progbits
 454              		.align	2
 455              		.p2align 4,,15
 456              		.global	chMBPost
 457              		.thumb
 458              		.thumb_func
 459              		.type	chMBPost, %function
 460              	chMBPost:
 461              	.LFB232:
 462              		.loc 5 154 0
 463              		.cfi_startproc
 464              		@ args = 0, pretend = 0, frame = 24
 465              		@ frame_needed = 1, uses_anonymous_args = 0
 466 0000 80B5     		push	{r7, lr}
 467              		.cfi_def_cfa_offset 8
 468              		.cfi_offset 7, -8
 469              		.cfi_offset 14, -4
 470 0002 86B0     		sub	sp, sp, #24
 471              		.cfi_def_cfa_offset 32
 472 0004 00AF     		add	r7, sp, #0
 473              		.cfi_def_cfa_register 7
 474 0006 F860     		str	r0, [r7, #12]
 475 0008 B960     		str	r1, [r7, #8]
 476 000a 7A60     		str	r2, [r7, #4]
 477              		.loc 5 157 0
 478 000c FFF7FEFF 		bl	chSysLock
 479              		.loc 5 158 0
 480 0010 F868     		ldr	r0, [r7, #12]
 481 0012 B968     		ldr	r1, [r7, #8]
 482 0014 7A68     		ldr	r2, [r7, #4]
 483 0016 FFF7FEFF 		bl	chMBPostS
 484 001a 7861     		str	r0, [r7, #20]
 485              		.loc 5 159 0
 486 001c FFF7FEFF 		bl	chSysUnlock
 487              		.loc 5 161 0
 488 0020 7B69     		ldr	r3, [r7, #20]
 489              		.loc 5 162 0
 490 0022 1846     		mov	r0, r3
 491 0024 1837     		adds	r7, r7, #24
 492 0026 BD46     		mov	sp, r7
 493              		@ sp needed
 494 0028 80BD     		pop	{r7, pc}
 495              		.cfi_endproc
 496              	.LFE232:
 497              		.size	chMBPost, .-chMBPost
 498              		.section	.text.chMBPostS,"ax",%progbits
 499              		.align	2
 500              		.p2align 4,,15
 501              		.global	chMBPostS
 502              		.thumb
 503              		.thumb_func
 504              		.type	chMBPostS, %function
 505              	chMBPostS:
ARM GAS  C:\Users\Luis\AppData\Local\Temp\ccdJOPAF.s 			page 10


 506              	.LFB233:
 507              		.loc 5 183 0
 508              		.cfi_startproc
 509              		@ args = 0, pretend = 0, frame = 24
 510              		@ frame_needed = 1, uses_anonymous_args = 0
 511 0000 80B5     		push	{r7, lr}
 512              		.cfi_def_cfa_offset 8
 513              		.cfi_offset 7, -8
 514              		.cfi_offset 14, -4
 515 0002 86B0     		sub	sp, sp, #24
 516              		.cfi_def_cfa_offset 32
 517 0004 00AF     		add	r7, sp, #0
 518              		.cfi_def_cfa_register 7
 519 0006 F860     		str	r0, [r7, #12]
 520 0008 B960     		str	r1, [r7, #8]
 521 000a 7A60     		str	r2, [r7, #4]
 522              		.loc 5 186 0
 523 000c FFF7FEFF 		bl	chDbgCheckClassS
 524              		.loc 5 187 0
 525 0010 FB68     		ldr	r3, [r7, #12]
 526 0012 002B     		cmp	r3, #0
 527 0014 02D1     		bne	.L24
 528              		.loc 5 187 0 is_stmt 0 discriminator 1
 529 0016 1548     		ldr	r0, .L28
 530 0018 FFF7FEFF 		bl	chSysHalt
 531              	.L24:
 532              		.loc 5 189 0 is_stmt 1
 533 001c FB68     		ldr	r3, [r7, #12]
 534 001e 1C33     		adds	r3, r3, #28
 535 0020 1846     		mov	r0, r3
 536 0022 7968     		ldr	r1, [r7, #4]
 537 0024 FFF7FEFF 		bl	chSemWaitTimeoutS
 538 0028 7861     		str	r0, [r7, #20]
 539              		.loc 5 190 0
 540 002a 7B69     		ldr	r3, [r7, #20]
 541 002c 002B     		cmp	r3, #0
 542 002e 17D1     		bne	.L25
 543              		.loc 5 191 0
 544 0030 FB68     		ldr	r3, [r7, #12]
 545 0032 9B68     		ldr	r3, [r3, #8]
 546 0034 191D     		adds	r1, r3, #4
 547 0036 FA68     		ldr	r2, [r7, #12]
 548 0038 9160     		str	r1, [r2, #8]
 549 003a BA68     		ldr	r2, [r7, #8]
 550 003c 1A60     		str	r2, [r3]
 551              		.loc 5 192 0
 552 003e FB68     		ldr	r3, [r7, #12]
 553 0040 9A68     		ldr	r2, [r3, #8]
 554 0042 FB68     		ldr	r3, [r7, #12]
 555 0044 5B68     		ldr	r3, [r3, #4]
 556 0046 9A42     		cmp	r2, r3
 557 0048 03D3     		bcc	.L26
 558              		.loc 5 193 0
 559 004a FB68     		ldr	r3, [r7, #12]
 560 004c 1A68     		ldr	r2, [r3]
 561 004e FB68     		ldr	r3, [r7, #12]
 562 0050 9A60     		str	r2, [r3, #8]
ARM GAS  C:\Users\Luis\AppData\Local\Temp\ccdJOPAF.s 			page 11


 563              	.L26:
 564              		.loc 5 195 0
 565 0052 FB68     		ldr	r3, [r7, #12]
 566 0054 1033     		adds	r3, r3, #16
 567 0056 1846     		mov	r0, r3
 568 0058 FFF7FEFF 		bl	chSemSignalI
 569              		.loc 5 196 0
 570 005c FFF7FEFF 		bl	chSchRescheduleS
 571              	.L25:
 572              		.loc 5 199 0
 573 0060 7B69     		ldr	r3, [r7, #20]
 574              		.loc 5 200 0
 575 0062 1846     		mov	r0, r3
 576 0064 1837     		adds	r7, r7, #24
 577 0066 BD46     		mov	sp, r7
 578              		@ sp needed
 579 0068 80BD     		pop	{r7, pc}
 580              	.L29:
 581 006a 00BF     		.align	2
 582              	.L28:
 583 006c 00000000 		.word	__func__.6559
 584              		.cfi_endproc
 585              	.LFE233:
 586              		.size	chMBPostS, .-chMBPostS
 587              		.section	.text.chMBPostI,"ax",%progbits
 588              		.align	2
 589              		.p2align 4,,15
 590              		.global	chMBPostI
 591              		.thumb
 592              		.thumb_func
 593              		.type	chMBPostI, %function
 594              	chMBPostI:
 595              	.LFB234:
 596              		.loc 5 216 0
 597              		.cfi_startproc
 598              		@ args = 0, pretend = 0, frame = 8
 599              		@ frame_needed = 1, uses_anonymous_args = 0
 600 0000 80B5     		push	{r7, lr}
 601              		.cfi_def_cfa_offset 8
 602              		.cfi_offset 7, -8
 603              		.cfi_offset 14, -4
 604 0002 82B0     		sub	sp, sp, #8
 605              		.cfi_def_cfa_offset 16
 606 0004 00AF     		add	r7, sp, #0
 607              		.cfi_def_cfa_register 7
 608 0006 7860     		str	r0, [r7, #4]
 609 0008 3960     		str	r1, [r7]
 610              		.loc 5 218 0
 611 000a FFF7FEFF 		bl	chDbgCheckClassI
 612              		.loc 5 219 0
 613 000e 7B68     		ldr	r3, [r7, #4]
 614 0010 002B     		cmp	r3, #0
 615 0012 02D1     		bne	.L31
 616              		.loc 5 219 0 is_stmt 0 discriminator 1
 617 0014 1648     		ldr	r0, .L35
 618 0016 FFF7FEFF 		bl	chSysHalt
 619              	.L31:
ARM GAS  C:\Users\Luis\AppData\Local\Temp\ccdJOPAF.s 			page 12


 620              		.loc 5 221 0 is_stmt 1
 621 001a 7B68     		ldr	r3, [r7, #4]
 622 001c 1C33     		adds	r3, r3, #28
 623 001e 1846     		mov	r0, r3
 624 0020 FFF7FEFF 		bl	chSemGetCounterI
 625 0024 0346     		mov	r3, r0
 626 0026 002B     		cmp	r3, #0
 627 0028 02DC     		bgt	.L32
 628              		.loc 5 222 0
 629 002a 4FF0FF33 		mov	r3, #-1
 630 002e 1BE0     		b	.L33
 631              	.L32:
 632              		.loc 5 225 0
 633 0030 7B68     		ldr	r3, [r7, #4]
 634 0032 1C33     		adds	r3, r3, #28
 635 0034 1846     		mov	r0, r3
 636 0036 FFF7FEFF 		bl	chSemFastWaitI
 637              		.loc 5 226 0
 638 003a 7B68     		ldr	r3, [r7, #4]
 639 003c 9B68     		ldr	r3, [r3, #8]
 640 003e 191D     		adds	r1, r3, #4
 641 0040 7A68     		ldr	r2, [r7, #4]
 642 0042 9160     		str	r1, [r2, #8]
 643 0044 3A68     		ldr	r2, [r7]
 644 0046 1A60     		str	r2, [r3]
 645              		.loc 5 227 0
 646 0048 7B68     		ldr	r3, [r7, #4]
 647 004a 9A68     		ldr	r2, [r3, #8]
 648 004c 7B68     		ldr	r3, [r7, #4]
 649 004e 5B68     		ldr	r3, [r3, #4]
 650 0050 9A42     		cmp	r2, r3
 651 0052 03D3     		bcc	.L34
 652              		.loc 5 228 0
 653 0054 7B68     		ldr	r3, [r7, #4]
 654 0056 1A68     		ldr	r2, [r3]
 655 0058 7B68     		ldr	r3, [r7, #4]
 656 005a 9A60     		str	r2, [r3, #8]
 657              	.L34:
 658              		.loc 5 230 0
 659 005c 7B68     		ldr	r3, [r7, #4]
 660 005e 1033     		adds	r3, r3, #16
 661 0060 1846     		mov	r0, r3
 662 0062 FFF7FEFF 		bl	chSemSignalI
 663              		.loc 5 232 0
 664 0066 0023     		movs	r3, #0
 665              	.L33:
 666              		.loc 5 233 0
 667 0068 1846     		mov	r0, r3
 668 006a 0837     		adds	r7, r7, #8
 669 006c BD46     		mov	sp, r7
 670              		@ sp needed
 671 006e 80BD     		pop	{r7, pc}
 672              	.L36:
 673              		.align	2
 674              	.L35:
 675 0070 00000000 		.word	__func__.6564
 676              		.cfi_endproc
ARM GAS  C:\Users\Luis\AppData\Local\Temp\ccdJOPAF.s 			page 13


 677              	.LFE234:
 678              		.size	chMBPostI, .-chMBPostI
 679 0074 AFF30080 		.section	.text.chMBPostAhead,"ax",%progbits
 679      AFF30080 
 679      AFF30080 
 680              		.align	2
 681              		.p2align 4,,15
 682              		.global	chMBPostAhead
 683              		.thumb
 684              		.thumb_func
 685              		.type	chMBPostAhead, %function
 686              	chMBPostAhead:
 687              	.LFB235:
 688              		.loc 5 254 0
 689              		.cfi_startproc
 690              		@ args = 0, pretend = 0, frame = 24
 691              		@ frame_needed = 1, uses_anonymous_args = 0
 692 0000 80B5     		push	{r7, lr}
 693              		.cfi_def_cfa_offset 8
 694              		.cfi_offset 7, -8
 695              		.cfi_offset 14, -4
 696 0002 86B0     		sub	sp, sp, #24
 697              		.cfi_def_cfa_offset 32
 698 0004 00AF     		add	r7, sp, #0
 699              		.cfi_def_cfa_register 7
 700 0006 F860     		str	r0, [r7, #12]
 701 0008 B960     		str	r1, [r7, #8]
 702 000a 7A60     		str	r2, [r7, #4]
 703              		.loc 5 257 0
 704 000c FFF7FEFF 		bl	chSysLock
 705              		.loc 5 258 0
 706 0010 F868     		ldr	r0, [r7, #12]
 707 0012 B968     		ldr	r1, [r7, #8]
 708 0014 7A68     		ldr	r2, [r7, #4]
 709 0016 FFF7FEFF 		bl	chMBPostAheadS
 710 001a 7861     		str	r0, [r7, #20]
 711              		.loc 5 259 0
 712 001c FFF7FEFF 		bl	chSysUnlock
 713              		.loc 5 261 0
 714 0020 7B69     		ldr	r3, [r7, #20]
 715              		.loc 5 262 0
 716 0022 1846     		mov	r0, r3
 717 0024 1837     		adds	r7, r7, #24
 718 0026 BD46     		mov	sp, r7
 719              		@ sp needed
 720 0028 80BD     		pop	{r7, pc}
 721              		.cfi_endproc
 722              	.LFE235:
 723              		.size	chMBPostAhead, .-chMBPostAhead
 724              		.section	.text.chMBPostAheadS,"ax",%progbits
 725              		.align	2
 726              		.p2align 4,,15
 727              		.global	chMBPostAheadS
 728              		.thumb
 729              		.thumb_func
 730              		.type	chMBPostAheadS, %function
 731              	chMBPostAheadS:
ARM GAS  C:\Users\Luis\AppData\Local\Temp\ccdJOPAF.s 			page 14


 732              	.LFB236:
 733              		.loc 5 283 0
 734              		.cfi_startproc
 735              		@ args = 0, pretend = 0, frame = 24
 736              		@ frame_needed = 1, uses_anonymous_args = 0
 737 0000 80B5     		push	{r7, lr}
 738              		.cfi_def_cfa_offset 8
 739              		.cfi_offset 7, -8
 740              		.cfi_offset 14, -4
 741 0002 86B0     		sub	sp, sp, #24
 742              		.cfi_def_cfa_offset 32
 743 0004 00AF     		add	r7, sp, #0
 744              		.cfi_def_cfa_register 7
 745 0006 F860     		str	r0, [r7, #12]
 746 0008 B960     		str	r1, [r7, #8]
 747 000a 7A60     		str	r2, [r7, #4]
 748              		.loc 5 286 0
 749 000c FFF7FEFF 		bl	chDbgCheckClassS
 750              		.loc 5 287 0
 751 0010 FB68     		ldr	r3, [r7, #12]
 752 0012 002B     		cmp	r3, #0
 753 0014 02D1     		bne	.L40
 754              		.loc 5 287 0 is_stmt 0 discriminator 1
 755 0016 1648     		ldr	r0, .L44
 756 0018 FFF7FEFF 		bl	chSysHalt
 757              	.L40:
 758              		.loc 5 289 0 is_stmt 1
 759 001c FB68     		ldr	r3, [r7, #12]
 760 001e 1C33     		adds	r3, r3, #28
 761 0020 1846     		mov	r0, r3
 762 0022 7968     		ldr	r1, [r7, #4]
 763 0024 FFF7FEFF 		bl	chSemWaitTimeoutS
 764 0028 7861     		str	r0, [r7, #20]
 765              		.loc 5 290 0
 766 002a 7B69     		ldr	r3, [r7, #20]
 767 002c 002B     		cmp	r3, #0
 768 002e 1AD1     		bne	.L41
 769              		.loc 5 291 0
 770 0030 FB68     		ldr	r3, [r7, #12]
 771 0032 DB68     		ldr	r3, [r3, #12]
 772 0034 1A1F     		subs	r2, r3, #4
 773 0036 FB68     		ldr	r3, [r7, #12]
 774 0038 DA60     		str	r2, [r3, #12]
 775 003a FB68     		ldr	r3, [r7, #12]
 776 003c DA68     		ldr	r2, [r3, #12]
 777 003e FB68     		ldr	r3, [r7, #12]
 778 0040 1B68     		ldr	r3, [r3]
 779 0042 9A42     		cmp	r2, r3
 780 0044 04D2     		bcs	.L42
 781              		.loc 5 292 0
 782 0046 FB68     		ldr	r3, [r7, #12]
 783 0048 5B68     		ldr	r3, [r3, #4]
 784 004a 1A1F     		subs	r2, r3, #4
 785 004c FB68     		ldr	r3, [r7, #12]
 786 004e DA60     		str	r2, [r3, #12]
 787              	.L42:
 788              		.loc 5 294 0
ARM GAS  C:\Users\Luis\AppData\Local\Temp\ccdJOPAF.s 			page 15


 789 0050 FB68     		ldr	r3, [r7, #12]
 790 0052 DB68     		ldr	r3, [r3, #12]
 791 0054 BA68     		ldr	r2, [r7, #8]
 792 0056 1A60     		str	r2, [r3]
 793              		.loc 5 295 0
 794 0058 FB68     		ldr	r3, [r7, #12]
 795 005a 1033     		adds	r3, r3, #16
 796 005c 1846     		mov	r0, r3
 797 005e FFF7FEFF 		bl	chSemSignalI
 798              		.loc 5 296 0
 799 0062 FFF7FEFF 		bl	chSchRescheduleS
 800              	.L41:
 801              		.loc 5 299 0
 802 0066 7B69     		ldr	r3, [r7, #20]
 803              		.loc 5 300 0
 804 0068 1846     		mov	r0, r3
 805 006a 1837     		adds	r7, r7, #24
 806 006c BD46     		mov	sp, r7
 807              		@ sp needed
 808 006e 80BD     		pop	{r7, pc}
 809              	.L45:
 810              		.align	2
 811              	.L44:
 812 0070 00000000 		.word	__func__.6577
 813              		.cfi_endproc
 814              	.LFE236:
 815              		.size	chMBPostAheadS, .-chMBPostAheadS
 816 0074 AFF30080 		.section	.text.chMBPostAheadI,"ax",%progbits
 816      AFF30080 
 816      AFF30080 
 817              		.align	2
 818              		.p2align 4,,15
 819              		.global	chMBPostAheadI
 820              		.thumb
 821              		.thumb_func
 822              		.type	chMBPostAheadI, %function
 823              	chMBPostAheadI:
 824              	.LFB237:
 825              		.loc 5 316 0
 826              		.cfi_startproc
 827              		@ args = 0, pretend = 0, frame = 8
 828              		@ frame_needed = 1, uses_anonymous_args = 0
 829 0000 80B5     		push	{r7, lr}
 830              		.cfi_def_cfa_offset 8
 831              		.cfi_offset 7, -8
 832              		.cfi_offset 14, -4
 833 0002 82B0     		sub	sp, sp, #8
 834              		.cfi_def_cfa_offset 16
 835 0004 00AF     		add	r7, sp, #0
 836              		.cfi_def_cfa_register 7
 837 0006 7860     		str	r0, [r7, #4]
 838 0008 3960     		str	r1, [r7]
 839              		.loc 5 318 0
 840 000a FFF7FEFF 		bl	chDbgCheckClassI
 841              		.loc 5 319 0
 842 000e 7B68     		ldr	r3, [r7, #4]
 843 0010 002B     		cmp	r3, #0
ARM GAS  C:\Users\Luis\AppData\Local\Temp\ccdJOPAF.s 			page 16


 844 0012 02D1     		bne	.L47
 845              		.loc 5 319 0 is_stmt 0 discriminator 1
 846 0014 1848     		ldr	r0, .L51
 847 0016 FFF7FEFF 		bl	chSysHalt
 848              	.L47:
 849              		.loc 5 321 0 is_stmt 1
 850 001a 7B68     		ldr	r3, [r7, #4]
 851 001c 1C33     		adds	r3, r3, #28
 852 001e 1846     		mov	r0, r3
 853 0020 FFF7FEFF 		bl	chSemGetCounterI
 854 0024 0346     		mov	r3, r0
 855 0026 002B     		cmp	r3, #0
 856 0028 02DC     		bgt	.L48
 857              		.loc 5 322 0
 858 002a 4FF0FF33 		mov	r3, #-1
 859 002e 1EE0     		b	.L49
 860              	.L48:
 861              		.loc 5 324 0
 862 0030 7B68     		ldr	r3, [r7, #4]
 863 0032 1C33     		adds	r3, r3, #28
 864 0034 1846     		mov	r0, r3
 865 0036 FFF7FEFF 		bl	chSemFastWaitI
 866              		.loc 5 325 0
 867 003a 7B68     		ldr	r3, [r7, #4]
 868 003c DB68     		ldr	r3, [r3, #12]
 869 003e 1A1F     		subs	r2, r3, #4
 870 0040 7B68     		ldr	r3, [r7, #4]
 871 0042 DA60     		str	r2, [r3, #12]
 872 0044 7B68     		ldr	r3, [r7, #4]
 873 0046 DA68     		ldr	r2, [r3, #12]
 874 0048 7B68     		ldr	r3, [r7, #4]
 875 004a 1B68     		ldr	r3, [r3]
 876 004c 9A42     		cmp	r2, r3
 877 004e 04D2     		bcs	.L50
 878              		.loc 5 326 0
 879 0050 7B68     		ldr	r3, [r7, #4]
 880 0052 5B68     		ldr	r3, [r3, #4]
 881 0054 1A1F     		subs	r2, r3, #4
 882 0056 7B68     		ldr	r3, [r7, #4]
 883 0058 DA60     		str	r2, [r3, #12]
 884              	.L50:
 885              		.loc 5 328 0
 886 005a 7B68     		ldr	r3, [r7, #4]
 887 005c DB68     		ldr	r3, [r3, #12]
 888 005e 3A68     		ldr	r2, [r7]
 889 0060 1A60     		str	r2, [r3]
 890              		.loc 5 329 0
 891 0062 7B68     		ldr	r3, [r7, #4]
 892 0064 1033     		adds	r3, r3, #16
 893 0066 1846     		mov	r0, r3
 894 0068 FFF7FEFF 		bl	chSemSignalI
 895              		.loc 5 331 0
 896 006c 0023     		movs	r3, #0
 897              	.L49:
 898              		.loc 5 332 0
 899 006e 1846     		mov	r0, r3
 900 0070 0837     		adds	r7, r7, #8
ARM GAS  C:\Users\Luis\AppData\Local\Temp\ccdJOPAF.s 			page 17


 901 0072 BD46     		mov	sp, r7
 902              		@ sp needed
 903 0074 80BD     		pop	{r7, pc}
 904              	.L52:
 905 0076 00BF     		.align	2
 906              	.L51:
 907 0078 00000000 		.word	__func__.6582
 908              		.cfi_endproc
 909              	.LFE237:
 910              		.size	chMBPostAheadI, .-chMBPostAheadI
 911 007c AFF30080 		.section	.text.chMBFetch,"ax",%progbits
 912              		.align	2
 913              		.p2align 4,,15
 914              		.global	chMBFetch
 915              		.thumb
 916              		.thumb_func
 917              		.type	chMBFetch, %function
 918              	chMBFetch:
 919              	.LFB238:
 920              		.loc 5 353 0
 921              		.cfi_startproc
 922              		@ args = 0, pretend = 0, frame = 24
 923              		@ frame_needed = 1, uses_anonymous_args = 0
 924 0000 80B5     		push	{r7, lr}
 925              		.cfi_def_cfa_offset 8
 926              		.cfi_offset 7, -8
 927              		.cfi_offset 14, -4
 928 0002 86B0     		sub	sp, sp, #24
 929              		.cfi_def_cfa_offset 32
 930 0004 00AF     		add	r7, sp, #0
 931              		.cfi_def_cfa_register 7
 932 0006 F860     		str	r0, [r7, #12]
 933 0008 B960     		str	r1, [r7, #8]
 934 000a 7A60     		str	r2, [r7, #4]
 935              		.loc 5 356 0
 936 000c FFF7FEFF 		bl	chSysLock
 937              		.loc 5 357 0
 938 0010 F868     		ldr	r0, [r7, #12]
 939 0012 B968     		ldr	r1, [r7, #8]
 940 0014 7A68     		ldr	r2, [r7, #4]
 941 0016 FFF7FEFF 		bl	chMBFetchS
 942 001a 7861     		str	r0, [r7, #20]
 943              		.loc 5 358 0
 944 001c FFF7FEFF 		bl	chSysUnlock
 945              		.loc 5 360 0
 946 0020 7B69     		ldr	r3, [r7, #20]
 947              		.loc 5 361 0
 948 0022 1846     		mov	r0, r3
 949 0024 1837     		adds	r7, r7, #24
 950 0026 BD46     		mov	sp, r7
 951              		@ sp needed
 952 0028 80BD     		pop	{r7, pc}
 953              		.cfi_endproc
 954              	.LFE238:
 955              		.size	chMBFetch, .-chMBFetch
 956              		.section	.text.chMBFetchS,"ax",%progbits
 957              		.align	2
ARM GAS  C:\Users\Luis\AppData\Local\Temp\ccdJOPAF.s 			page 18


 958              		.p2align 4,,15
 959              		.global	chMBFetchS
 960              		.thumb
 961              		.thumb_func
 962              		.type	chMBFetchS, %function
 963              	chMBFetchS:
 964              	.LFB239:
 965              		.loc 5 382 0
 966              		.cfi_startproc
 967              		@ args = 0, pretend = 0, frame = 24
 968              		@ frame_needed = 1, uses_anonymous_args = 0
 969 0000 80B5     		push	{r7, lr}
 970              		.cfi_def_cfa_offset 8
 971              		.cfi_offset 7, -8
 972              		.cfi_offset 14, -4
 973 0002 86B0     		sub	sp, sp, #24
 974              		.cfi_def_cfa_offset 32
 975 0004 00AF     		add	r7, sp, #0
 976              		.cfi_def_cfa_register 7
 977 0006 F860     		str	r0, [r7, #12]
 978 0008 B960     		str	r1, [r7, #8]
 979 000a 7A60     		str	r2, [r7, #4]
 980              		.loc 5 385 0
 981 000c FFF7FEFF 		bl	chDbgCheckClassS
 982              		.loc 5 386 0
 983 0010 FB68     		ldr	r3, [r7, #12]
 984 0012 002B     		cmp	r3, #0
 985 0014 02D0     		beq	.L56
 986              		.loc 5 386 0 is_stmt 0 discriminator 2
 987 0016 BB68     		ldr	r3, [r7, #8]
 988 0018 002B     		cmp	r3, #0
 989 001a 02D1     		bne	.L57
 990              	.L56:
 991              		.loc 5 386 0 discriminator 1
 992 001c 1548     		ldr	r0, .L61
 993 001e FFF7FEFF 		bl	chSysHalt
 994              	.L57:
 995              		.loc 5 388 0 is_stmt 1
 996 0022 FB68     		ldr	r3, [r7, #12]
 997 0024 1033     		adds	r3, r3, #16
 998 0026 1846     		mov	r0, r3
 999 0028 7968     		ldr	r1, [r7, #4]
 1000 002a FFF7FEFF 		bl	chSemWaitTimeoutS
 1001 002e 7861     		str	r0, [r7, #20]
 1002              		.loc 5 389 0
 1003 0030 7B69     		ldr	r3, [r7, #20]
 1004 0032 002B     		cmp	r3, #0
 1005 0034 18D1     		bne	.L58
 1006              		.loc 5 390 0
 1007 0036 FB68     		ldr	r3, [r7, #12]
 1008 0038 DB68     		ldr	r3, [r3, #12]
 1009 003a 191D     		adds	r1, r3, #4
 1010 003c FA68     		ldr	r2, [r7, #12]
 1011 003e D160     		str	r1, [r2, #12]
 1012 0040 1A68     		ldr	r2, [r3]
 1013 0042 BB68     		ldr	r3, [r7, #8]
 1014 0044 1A60     		str	r2, [r3]
ARM GAS  C:\Users\Luis\AppData\Local\Temp\ccdJOPAF.s 			page 19


 1015              		.loc 5 391 0
 1016 0046 FB68     		ldr	r3, [r7, #12]
 1017 0048 DA68     		ldr	r2, [r3, #12]
 1018 004a FB68     		ldr	r3, [r7, #12]
 1019 004c 5B68     		ldr	r3, [r3, #4]
 1020 004e 9A42     		cmp	r2, r3
 1021 0050 03D3     		bcc	.L59
 1022              		.loc 5 392 0
 1023 0052 FB68     		ldr	r3, [r7, #12]
 1024 0054 1A68     		ldr	r2, [r3]
 1025 0056 FB68     		ldr	r3, [r7, #12]
 1026 0058 DA60     		str	r2, [r3, #12]
 1027              	.L59:
 1028              		.loc 5 394 0
 1029 005a FB68     		ldr	r3, [r7, #12]
 1030 005c 1C33     		adds	r3, r3, #28
 1031 005e 1846     		mov	r0, r3
 1032 0060 FFF7FEFF 		bl	chSemSignalI
 1033              		.loc 5 395 0
 1034 0064 FFF7FEFF 		bl	chSchRescheduleS
 1035              	.L58:
 1036              		.loc 5 398 0
 1037 0068 7B69     		ldr	r3, [r7, #20]
 1038              		.loc 5 399 0
 1039 006a 1846     		mov	r0, r3
 1040 006c 1837     		adds	r7, r7, #24
 1041 006e BD46     		mov	sp, r7
 1042              		@ sp needed
 1043 0070 80BD     		pop	{r7, pc}
 1044              	.L62:
 1045 0072 00BF     		.align	2
 1046              	.L61:
 1047 0074 00000000 		.word	__func__.6595
 1048              		.cfi_endproc
 1049              	.LFE239:
 1050              		.size	chMBFetchS, .-chMBFetchS
 1051 0078 AFF30080 		.section	.text.chMBFetchI,"ax",%progbits
 1051      AFF30080 
 1052              		.align	2
 1053              		.p2align 4,,15
 1054              		.global	chMBFetchI
 1055              		.thumb
 1056              		.thumb_func
 1057              		.type	chMBFetchI, %function
 1058              	chMBFetchI:
 1059              	.LFB240:
 1060              		.loc 5 415 0
 1061              		.cfi_startproc
 1062              		@ args = 0, pretend = 0, frame = 8
 1063              		@ frame_needed = 1, uses_anonymous_args = 0
 1064 0000 80B5     		push	{r7, lr}
 1065              		.cfi_def_cfa_offset 8
 1066              		.cfi_offset 7, -8
 1067              		.cfi_offset 14, -4
 1068 0002 82B0     		sub	sp, sp, #8
 1069              		.cfi_def_cfa_offset 16
 1070 0004 00AF     		add	r7, sp, #0
ARM GAS  C:\Users\Luis\AppData\Local\Temp\ccdJOPAF.s 			page 20


 1071              		.cfi_def_cfa_register 7
 1072 0006 7860     		str	r0, [r7, #4]
 1073 0008 3960     		str	r1, [r7]
 1074              		.loc 5 417 0
 1075 000a FFF7FEFF 		bl	chDbgCheckClassI
 1076              		.loc 5 418 0
 1077 000e 7B68     		ldr	r3, [r7, #4]
 1078 0010 002B     		cmp	r3, #0
 1079 0012 02D0     		beq	.L64
 1080              		.loc 5 418 0 is_stmt 0 discriminator 2
 1081 0014 3B68     		ldr	r3, [r7]
 1082 0016 002B     		cmp	r3, #0
 1083 0018 02D1     		bne	.L65
 1084              	.L64:
 1085              		.loc 5 418 0 discriminator 1
 1086 001a 1748     		ldr	r0, .L69
 1087 001c FFF7FEFF 		bl	chSysHalt
 1088              	.L65:
 1089              		.loc 5 420 0 is_stmt 1
 1090 0020 7B68     		ldr	r3, [r7, #4]
 1091 0022 1033     		adds	r3, r3, #16
 1092 0024 1846     		mov	r0, r3
 1093 0026 FFF7FEFF 		bl	chSemGetCounterI
 1094 002a 0346     		mov	r3, r0
 1095 002c 002B     		cmp	r3, #0
 1096 002e 02DC     		bgt	.L66
 1097              		.loc 5 421 0
 1098 0030 4FF0FF33 		mov	r3, #-1
 1099 0034 1CE0     		b	.L67
 1100              	.L66:
 1101              		.loc 5 423 0
 1102 0036 7B68     		ldr	r3, [r7, #4]
 1103 0038 1033     		adds	r3, r3, #16
 1104 003a 1846     		mov	r0, r3
 1105 003c FFF7FEFF 		bl	chSemFastWaitI
 1106              		.loc 5 424 0
 1107 0040 7B68     		ldr	r3, [r7, #4]
 1108 0042 DB68     		ldr	r3, [r3, #12]
 1109 0044 191D     		adds	r1, r3, #4
 1110 0046 7A68     		ldr	r2, [r7, #4]
 1111 0048 D160     		str	r1, [r2, #12]
 1112 004a 1A68     		ldr	r2, [r3]
 1113 004c 3B68     		ldr	r3, [r7]
 1114 004e 1A60     		str	r2, [r3]
 1115              		.loc 5 425 0
 1116 0050 7B68     		ldr	r3, [r7, #4]
 1117 0052 DA68     		ldr	r2, [r3, #12]
 1118 0054 7B68     		ldr	r3, [r7, #4]
 1119 0056 5B68     		ldr	r3, [r3, #4]
 1120 0058 9A42     		cmp	r2, r3
 1121 005a 03D3     		bcc	.L68
 1122              		.loc 5 426 0
 1123 005c 7B68     		ldr	r3, [r7, #4]
 1124 005e 1A68     		ldr	r2, [r3]
 1125 0060 7B68     		ldr	r3, [r7, #4]
 1126 0062 DA60     		str	r2, [r3, #12]
 1127              	.L68:
ARM GAS  C:\Users\Luis\AppData\Local\Temp\ccdJOPAF.s 			page 21


 1128              		.loc 5 428 0
 1129 0064 7B68     		ldr	r3, [r7, #4]
 1130 0066 1C33     		adds	r3, r3, #28
 1131 0068 1846     		mov	r0, r3
 1132 006a FFF7FEFF 		bl	chSemSignalI
 1133              		.loc 5 430 0
 1134 006e 0023     		movs	r3, #0
 1135              	.L67:
 1136              		.loc 5 431 0
 1137 0070 1846     		mov	r0, r3
 1138 0072 0837     		adds	r7, r7, #8
 1139 0074 BD46     		mov	sp, r7
 1140              		@ sp needed
 1141 0076 80BD     		pop	{r7, pc}
 1142              	.L70:
 1143              		.align	2
 1144              	.L69:
 1145 0078 00000000 		.word	__func__.6600
 1146              		.cfi_endproc
 1147              	.LFE240:
 1148              		.size	chMBFetchI, .-chMBFetchI
 1149 007c AFF30080 		.section	.rodata.__func__.6539,"a",%progbits
 1150              		.align	2
 1151              		.type	__func__.6539, %object
 1152              		.size	__func__.6539, 15
 1153              	__func__.6539:
 1154 0000 63684D42 		.ascii	"chMBObjectInit\000"
 1154      4F626A65 
 1154      6374496E 
 1154      697400
 1155 000f 00       		.section	.rodata.__func__.5842,"a",%progbits
 1156              		.align	2
 1157              		.type	__func__.5842, %object
 1158              		.size	__func__.5842, 12
 1159              	__func__.5842:
 1160 0000 63685379 		.ascii	"chSysUnlock\000"
 1160      73556E6C 
 1160      6F636B00 
 1161              		.section	.rodata.__func__.6546,"a",%progbits
 1162              		.align	2
 1163              		.type	__func__.6546, %object
 1164              		.size	__func__.6546, 11
 1165              	__func__.6546:
 1166 0000 63684D42 		.ascii	"chMBResetI\000"
 1166      52657365 
 1166      744900
 1167 000b 00       		.section	.rodata.__func__.6559,"a",%progbits
 1168              		.align	2
 1169              		.type	__func__.6559, %object
 1170              		.size	__func__.6559, 10
 1171              	__func__.6559:
 1172 0000 63684D42 		.ascii	"chMBPostS\000"
 1172      506F7374 
 1172      5300
 1173 000a 0000     		.section	.rodata.__func__.6564,"a",%progbits
 1174              		.align	2
 1175              		.type	__func__.6564, %object
ARM GAS  C:\Users\Luis\AppData\Local\Temp\ccdJOPAF.s 			page 22


 1176              		.size	__func__.6564, 10
 1177              	__func__.6564:
 1178 0000 63684D42 		.ascii	"chMBPostI\000"
 1178      506F7374 
 1178      4900
 1179 000a 0000     		.section	.rodata.__func__.6577,"a",%progbits
 1180              		.align	2
 1181              		.type	__func__.6577, %object
 1182              		.size	__func__.6577, 15
 1183              	__func__.6577:
 1184 0000 63684D42 		.ascii	"chMBPostAheadS\000"
 1184      506F7374 
 1184      41686561 
 1184      645300
 1185 000f 00       		.section	.rodata.__func__.6582,"a",%progbits
 1186              		.align	2
 1187              		.type	__func__.6582, %object
 1188              		.size	__func__.6582, 15
 1189              	__func__.6582:
 1190 0000 63684D42 		.ascii	"chMBPostAheadI\000"
 1190      506F7374 
 1190      41686561 
 1190      644900
 1191 000f 00       		.section	.rodata.__func__.6595,"a",%progbits
 1192              		.align	2
 1193              		.type	__func__.6595, %object
 1194              		.size	__func__.6595, 11
 1195              	__func__.6595:
 1196 0000 63684D42 		.ascii	"chMBFetchS\000"
 1196      46657463 
 1196      685300
 1197 000b 00       		.section	.rodata.__func__.6600,"a",%progbits
 1198              		.align	2
 1199              		.type	__func__.6600, %object
 1200              		.size	__func__.6600, 11
 1201              	__func__.6600:
 1202 0000 63684D42 		.ascii	"chMBFetchI\000"
 1202      46657463 
 1202      684900
 1203 000b 00       		.text
 1204              	.Letext0:
 1205              		.file 6 "c:\\emtechesdk\\gcc\\arm-none-eabi\\include\\stdint.h"
 1206              		.file 7 "../../ChibiOS/os/rt/ports/ARMCMx/compilers/GCC/chtypes.h"
 1207              		.file 8 "../../ChibiOS/os/rt/include/chsystypes.h"
 1208              		.file 9 "../../ChibiOS/os/rt/include/chschd.h"
 1209              		.file 10 "../../ChibiOS/os/rt/ports/ARMCMx/chcore.h"
 1210              		.file 11 "../../ChibiOS/os/rt/include/chdebug.h"
 1211              		.file 12 "../../ChibiOS/os/rt/include/chtm.h"
 1212              		.file 13 "../../ChibiOS/os/rt/include/chstats.h"
 1213              		.file 14 "../../ChibiOS/os/rt/include/chmtx.h"
 1214              		.file 15 "../../ChibiOS/os/rt/include/chmboxes.h"
 1215              		.file 16 "../../ChibiOS/os/ext/CMSIS/include/core_cm4.h"