ARM GAS  C:\Users\Luis\AppData\Local\Temp\ccdJOPAF.s 			page 1


   1              		.syntax unified
   2              		.cpu cortex-m4
   3              		.fpu softvfp
   4              		.eabi_attribute 20, 1
   5              		.eabi_attribute 21, 1
   6              		.eabi_attribute 23, 3
   7              		.eabi_attribute 24, 1
   8              		.eabi_attribute 25, 1
   9              		.eabi_attribute 26, 1
  10              		.eabi_attribute 30, 6
  11              		.eabi_attribute 34, 1
  12              		.eabi_attribute 18, 4
  13              		.thumb
  14              		.file	"chmboxes.c"
  15              		.text
  16              	.Ltext0:
  17              		.cfi_sections	.debug_frame
  18              		.section	.text.port_lock,"ax",%progbits
  19              		.align	2
  20              		.p2align 4,,15
  21              		.thumb
  22              		.thumb_func
  23              		.type	port_lock, %function
  24              	port_lock:
  25              	.LFB116:
  26              		.file 1 "../../ChibiOS/os/rt/ports/ARMCMx/chcore_v7m.h"
  27              		.loc 1 444 0
  28              		.cfi_startproc
  29              		@ args = 0, pretend = 0, frame = 8
  30              		@ frame_needed = 1, uses_anonymous_args = 0
  31              		@ link register save eliminated.
  32 0000 80B4     		push	{r7}
  33              		.cfi_def_cfa_offset 4
  34              		.cfi_offset 7, -4
  35 0002 83B0     		sub	sp, sp, #12
  36              		.cfi_def_cfa_offset 16
  37 0004 00AF     		add	r7, sp, #0
  38              		.cfi_def_cfa_register 7
  39 0006 2023     		movs	r3, #32
  40 0008 7B60     		str	r3, [r7, #4]
  41              	.LBB6:
  42              	.LBB7:
  43              		.file 2 "../../ChibiOS/os/ext/CMSIS/include/core_cmFunc.h"
  44              		.loc 2 546 0
  45 000a 7B68     		ldr	r3, [r7, #4]
  46              	@ 546 "../../ChibiOS/os/ext/CMSIS/include/core_cmFunc.h" 1
  47 000c 83F31188 		MSR basepri, r3
  48              	@ 0 "" 2
  49              		.thumb
  50              	.LBE7:
  51              	.LBE6:
  52              		.loc 1 451 0
  53 0010 0C37     		adds	r7, r7, #12
  54 0012 BD46     		mov	sp, r7
  55              		@ sp needed
  56 0014 5DF8047B 		ldr	r7, [sp], #4
  57 0018 7047     		bx	lr
ARM GAS  C:\Users\Luis\AppData\Local\Temp\ccdJOPAF.s 			page 2


  58              		.cfi_endproc
  59              	.LFE116:
  60              		.size	port_lock, .-port_lock
  61 001a 00BFAFF3 		.section	.text.port_unlock,"ax",%progbits
  61      0080
  62              		.align	2
  63              		.p2align 4,,15
  64              		.thumb
  65              		.thumb_func
  66              		.type	port_unlock, %function
  67              	port_unlock:
  68              	.LFB117:
  69              		.loc 1 458 0
  70              		.cfi_startproc
  71              		@ args = 0, pretend = 0, frame = 8
  72              		@ frame_needed = 1, uses_anonymous_args = 0
  73              		@ link register save eliminated.
  74 0000 80B4     		push	{r7}
  75              		.cfi_def_cfa_offset 4
  76              		.cfi_offset 7, -4
  77 0002 83B0     		sub	sp, sp, #12
  78              		.cfi_def_cfa_offset 16
  79 0004 00AF     		add	r7, sp, #0
  80              		.cfi_def_cfa_register 7
  81 0006 0023     		movs	r3, #0
  82 0008 7B60     		str	r3, [r7, #4]
  83              	.LBB8:
  84              	.LBB9:
  85              		.loc 2 546 0
  86 000a 7B68     		ldr	r3, [r7, #4]
  87              	@ 546 "../../ChibiOS/os/ext/CMSIS/include/core_cmFunc.h" 1
  88 000c 83F31188 		MSR basepri, r3
  89              	@ 0 "" 2
  90              		.thumb
  91              	.LBE9:
  92              	.LBE8:
  93              		.loc 1 465 0
  94 0010 0C37     		adds	r7, r7, #12
  95 0012 BD46     		mov	sp, r7
  96              		@ sp needed
  97 0014 5DF8047B 		ldr	r7, [sp], #4
  98 0018 7047     		bx	lr
  99              		.cfi_endproc
 100              	.LFE117:
 101              		.size	port_unlock, .-port_unlock
 102 001a 00BFAFF3 		.section	.text.chSysLock,"ax",%progbits
 102      0080
 103              		.align	2
 104              		.p2align 4,,15
 105              		.thumb
 106              		.thumb_func
 107              		.type	chSysLock, %function
 108              	chSysLock:
 109              	.LFB156:
 110              		.file 3 "../../ChibiOS/os/rt/include/chsys.h"
 111              		.loc 3 346 0
 112              		.cfi_startproc
ARM GAS  C:\Users\Luis\AppData\Local\Temp\ccdJOPAF.s 			page 3


 113              		@ args = 0, pretend = 0, frame = 0
 114              		@ frame_needed = 1, uses_anonymous_args = 0
 115 0000 80B5     		push	{r7, lr}
 116              		.cfi_def_cfa_offset 8
 117              		.cfi_offset 7, -8
 118              		.cfi_offset 14, -4
 119 0002 00AF     		add	r7, sp, #0
 120              		.cfi_def_cfa_register 7
 121              		.loc 3 348 0
 122 0004 FFF7FEFF 		bl	port_lock
 123              		.loc 3 349 0
 124 0008 FFF7FEFF 		bl	_stats_start_measure_crit_thd
 125              		.loc 3 350 0
 126 000c FFF7FEFF 		bl	_dbg_check_lock
 127              		.loc 3 351 0
 128 0010 80BD     		pop	{r7, pc}
 129              		.cfi_endproc
 130              	.LFE156:
 131              		.size	chSysLock, .-chSysLock
 132 0012 00BFAFF3 		.section	.text.chSysUnlock,"ax",%progbits
 132      0080AFF3 
 132      0080AFF3 
 132      0080
 133              		.align	2
 134              		.p2align 4,,15
 135              		.thumb
 136              		.thumb_func
 137              		.type	chSysUnlock, %function
 138              	chSysUnlock:
 139              	.LFB157:
 140              		.loc 3 358 0
 141              		.cfi_startproc
 142              		@ args = 0, pretend = 0, frame = 0
 143              		@ frame_needed = 1, uses_anonymous_args = 0
 144 0000 80B5     		push	{r7, lr}
 145              		.cfi_def_cfa_offset 8
 146              		.cfi_offset 7, -8
 147              		.cfi_offset 14, -4
 148 0002 00AF     		add	r7, sp, #0
 149              		.cfi_def_cfa_register 7
 150              		.loc 3 360 0
 151 0004 FFF7FEFF 		bl	_dbg_check_unlock
 152              		.loc 3 361 0
 153 0008 FFF7FEFF 		bl	_stats_stop_measure_crit_thd
 154              		.loc 3 367 0
 155 000c 094B     		ldr	r3, .L6
 156 000e 1A68     		ldr	r2, [r3]
 157 0010 084B     		ldr	r3, .L6
 158 0012 9A42     		cmp	r2, r3
 159 0014 0AD0     		beq	.L5
 160              		.loc 3 367 0 is_stmt 0 discriminator 1
 161 0016 074B     		ldr	r3, .L6
 162 0018 9B69     		ldr	r3, [r3, #24]
 163 001a 9A68     		ldr	r2, [r3, #8]
 164 001c 054B     		ldr	r3, .L6
 165 001e 1B68     		ldr	r3, [r3]
 166 0020 9B68     		ldr	r3, [r3, #8]
ARM GAS  C:\Users\Luis\AppData\Local\Temp\ccdJOPAF.s 			page 4


 167 0022 9A42     		cmp	r2, r3
 168 0024 02D2     		bcs	.L5
 169 0026 0448     		ldr	r0, .L6+4
 170 0028 FFF7FEFF 		bl	chSysHalt
 171              	.L5:
 172              		.loc 3 371 0 is_stmt 1
 173 002c FFF7FEFF 		bl	port_unlock
 174              		.loc 3 372 0
 175 0030 80BD     		pop	{r7, pc}
 176              	.L7:
 177 0032 00BF     		.align	2
 178              	.L6:
 179 0034 00000000 		.word	ch
 180 0038 00000000 		.word	__func__.5842
 181              		.cfi_endproc
 182              	.LFE157:
 183              		.size	chSysUnlock, .-chSysUnlock
 184 003c AFF30080 		.section	.text.chSemFastWaitI,"ax",%progbits
 185              		.align	2
 186              		.p2align 4,,15
 187              		.thumb
 188              		.thumb_func
 189              		.type	chSemFastWaitI, %function
 190              	chSemFastWaitI:
 191              	.LFB189:
 192              		.file 4 "../../ChibiOS/os/rt/include/chsem.h"
 193              		.loc 4 118 0
 194              		.cfi_startproc
 195              		@ args = 0, pretend = 0, frame = 8
 196              		@ frame_needed = 1, uses_anonymous_args = 0
 197 0000 80B5     		push	{r7, lr}
 198              		.cfi_def_cfa_offset 8
 199              		.cfi_offset 7, -8
 200              		.cfi_offset 14, -4
 201 0002 82B0     		sub	sp, sp, #8
 202              		.cfi_def_cfa_offset 16
 203 0004 00AF     		add	r7, sp, #0
 204              		.cfi_def_cfa_register 7
 205 0006 7860     		str	r0, [r7, #4]
 206              		.loc 4 120 0
 207 0008 FFF7FEFF 		bl	chDbgCheckClassI
 208              		.loc 4 122 0
 209 000c 7B68     		ldr	r3, [r7, #4]
 210 000e 9B68     		ldr	r3, [r3, #8]
 211 0010 5A1E     		subs	r2, r3, #1
 212 0012 7B68     		ldr	r3, [r7, #4]
 213 0014 9A60     		str	r2, [r3, #8]
 214              		.loc 4 123 0
 215 0016 0837     		adds	r7, r7, #8
 216 0018 BD46     		mov	sp, r7
 217              		@ sp needed
 218 001a 80BD     		pop	{r7, pc}
 219              		.cfi_endproc
 220              	.LFE189:
 221              		.size	chSemFastWaitI, .-chSemFastWaitI
 222 001c AFF30080 		.section	.text.chSemGetCounterI,"ax",%progbits
 223              		.align	2
ARM GAS  C:\Users\Luis\AppData\Local\Temp\ccdJOPAF.s 			page 5


 224              		.p2align 4,,15
 225              		.thumb
 226              		.thumb_func
 227              		.type	chSemGetCounterI, %function
 228              	chSemGetCounterI:
 229              	.LFB191:
 230              		.loc 4 149 0
 231              		.cfi_startproc
 232              		@ args = 0, pretend = 0, frame = 8
 233              		@ frame_needed = 1, uses_anonymous_args = 0
 234 0000 80B5     		push	{r7, lr}
 235              		.cfi_def_cfa_offset 8
 236              		.cfi_offset 7, -8
 237              		.cfi_offset 14, -4
 238 0002 82B0     		sub	sp, sp, #8
 239              		.cfi_def_cfa_offset 16
 240 0004 00AF     		add	r7, sp, #0
 241              		.cfi_def_cfa_register 7
 242 0006 7860     		str	r0, [r7, #4]
 243              		.loc 4 151 0
 244 0008 FFF7FEFF 		bl	chDbgCheckClassI
 245              		.loc 4 153 0
 246 000c 7B68     		ldr	r3, [r7, #4]
 247 000e 9B68     		ldr	r3, [r3, #8]
 248              		.loc 4 154 0
 249 0010 1846     		mov	r0, r3
 250 0012 0837     		adds	r7, r7, #8
 251 0014 BD46     		mov	sp, r7
 252              		@ sp needed
 253 0016 80BD     		pop	{r7, pc}
 254              		.cfi_endproc
 255              	.LFE191:
 256              		.size	chSemGetCounterI, .-chSemGetCounterI
 257 0018 AFF30080 		.section	.text.chMBObjectInit,"ax",%progbits
 257      AFF30080 
 258              		.align	2
 259              		.p2align 4,,15
 260              		.global	chMBObjectInit
 261              		.thumb
 262              		.thumb_func
 263              		.type	chMBObjectInit, %function
 264              	chMBObjectInit:
 265              	.LFB229:
 266              		.file 5 "../../ChibiOS/os/rt/src/chmboxes.c"
 267              		.loc 5 86 0
 268              		.cfi_startproc
 269              		@ args = 0, pretend = 0, frame = 16
 270              		@ frame_needed = 1, uses_anonymous_args = 0
 271 0000 80B5     		push	{r7, lr}
 272              		.cfi_def_cfa_offset 8
 273              		.cfi_offset 7, -8
 274              		.cfi_offset 14, -4
 275 0002 84B0     		sub	sp, sp, #16
 276              		.cfi_def_cfa_offset 24
 277 0004 00AF     		add	r7, sp, #0
 278              		.cfi_def_cfa_register 7
 279 0006 F860     		str	r0, [r7, #12]
ARM GAS  C:\Users\Luis\AppData\Local\Temp\ccdJOPAF.s 			page 6


 280 0008 B960     		str	r1, [r7, #8]
 281 000a 7A60     		str	r2, [r7, #4]
 282              		.loc 5 88 0
 283 000c FB68     		ldr	r3, [r7, #12]
 284 000e 002B     		cmp	r3, #0
 285 0010 05D0     		beq	.L12
 286              		.loc 5 88 0 is_stmt 0 discriminator 2
 287 0012 BB68     		ldr	r3, [r7, #8]
 288 0014 002B     		cmp	r3, #0
 289 0016 02D0     		beq	.L12
 290              		.loc 5 88 0 discriminator 1
 291 0018 7B68     		ldr	r3, [r7, #4]
 292 001a 002B     		cmp	r3, #0
 293 001c 02DC     		bgt	.L13
 294              	.L12:
 295 001e 1048     		ldr	r0, .L14
 296 0020 FFF7FEFF 		bl	chSysHalt
 297              	.L13:
 298              		.loc 5 90 0 is_stmt 1
 299 0024 FB68     		ldr	r3, [r7, #12]
 300 0026 BA68     		ldr	r2, [r7, #8]
 301 0028 1A60     		str	r2, [r3]
 302              		.loc 5 91 0
 303 002a FB68     		ldr	r3, [r7, #12]
 304 002c BA68     		ldr	r2, [r7, #8]
 305 002e DA60     		str	r2, [r3, #12]
 306              		.loc 5 92 0
 307 0030 FB68     		ldr	r3, [r7, #12]
 308 0032 BA68     		ldr	r2, [r7, #8]
 309 0034 9A60     		str	r2, [r3, #8]
 310              		.loc 5 93 0
 311 0036 7B68     		ldr	r3, [r7, #4]
 312 0038 9B00     		lsls	r3, r3, #2
 313 003a BA68     		ldr	r2, [r7, #8]
 314 003c 1A44     		add	r2, r2, r3
 315 003e FB68     		ldr	r3, [r7, #12]
 316 0040 5A60     		str	r2, [r3, #4]
 317              		.loc 5 94 0
 318 0042 FB68     		ldr	r3, [r7, #12]
 319 0044 1C33     		adds	r3, r3, #28
 320 0046 1846     		mov	r0, r3
 321 0048 7968     		ldr	r1, [r7, #4]
 322 004a FFF7FEFF 		bl	chSemObjectInit
 323              		.loc 5 95 0
 324 004e FB68     		ldr	r3, [r7, #12]
 325 0050 1033     		adds	r3, r3, #16
 326 0052 1846     		mov	r0, r3
 327 0054 0021     		movs	r1, #0
 328 0056 FFF7FEFF 		bl	chSemObjectInit
 329              		.loc 5 96 0
 330 005a 1037     		adds	r7, r7, #16
 331 005c BD46     		mov	sp, r7
 332              		@ sp needed
 333 005e 80BD     		pop	{r7, pc}
 334              	.L15:
 335              		.align	2
 336              	.L14:
ARM GAS  C:\Users\Luis\AppData\Local\Temp\ccdJOPAF.s 			page 7


 337 0060 00000000 		.word	__func__.6539
 338              		.cfi_endproc
 339              	.LFE229:
 340              		.size	chMBObjectInit, .-chMBObjectInit
 341 0064 AFF30080 		.section	.text.chMBReset,"ax",%progbits
 341      AFF30080 
 341      AFF30080 
 342              		.align	2
 343              		.p2align 4,,15
 344              		.global	chMBReset
 345              		.thumb
 346              		.thumb_func
 347              		.type	chMBReset, %function
 348              	chMBReset:
 349              	.LFB230:
 350              		.loc 5 107 0
 351              		.cfi_startproc
 352              		@ args = 0, pretend = 0, frame = 8
 353              		@ frame_needed = 1, uses_anonymous_args = 0
 354 0000 80B5     		push	{r7, lr}
 355              		.cfi_def_cfa_offset 8
 356              		.cfi_offset 7, -8
 357              		.cfi_offset 14, -4
 358 0002 82B0     		sub	sp, sp, #8
 359              		.cfi_def_cfa_offset 16
 360 0004 00AF     		add	r7, sp, #0
 361              		.cfi_def_cfa_register 7
 362 0006 7860     		str	r0, [r7, #4]
 363              		.loc 5 109 0
 364 0008 FFF7FEFF 		bl	chSysLock
 365              		.loc 5 110 0
 366 000c 7868     		ldr	r0, [r7, #4]
 367 000e FFF7FEFF 		bl	chMBResetI
 368              		.loc 5 111 0
 369 0012 FFF7FEFF 		bl	chSchRescheduleS
 370              		.loc 5 112 0
 371 0016 FFF7FEFF 		bl	chSysUnlock
 372              		.loc 5 113 0
 373 001a 0837     		adds	r7, r7, #8
 374 001c BD46     		mov	sp, r7
 375              		@ sp needed
 376 001e 80BD     		pop	{r7, pc}
 377              		.cfi_endproc
 378              	.LFE230:
 379              		.size	chMBReset, .-chMBReset
 380              		.section	.text.chMBResetI,"ax",%progbits
 381              		.align	2
 382              		.p2align 4,,15
 383              		.global	chMBResetI
 384              		.thumb
 385              		.thumb_func
 386              		.type	chMBResetI, %function
 387              	chMBResetI:
 388              	.LFB231:
 389              		.loc 5 124 0
 390              		.cfi_startproc
 391              		@ args = 0, pretend = 0, frame = 8
ARM GAS  C:\Users\Luis\AppData\Local\Temp\ccdJOPAF.s 			page 8


 392              		@ frame_needed = 1, uses_anonymous_args = 0
 393 0000 80B5     		push	{r7, lr}
 394              		.cfi_def_cfa_offset 8
 395              		.cfi_offset 7, -8
 396              		.cfi_offset 14, -4
 397 0002 82B0     		sub	sp, sp, #8
 398              		.cfi_def_cfa_offset 16
 399 0004 00AF     		add	r7, sp, #0
 400              		.cfi_def_cfa_register 7
 401 0006 7860     		str	r0, [r7, #4]
 402              		.loc 5 126 0
 403 0008 FFF7FEFF 		bl	chDbgCheckClassI
 404              		.loc 5 127 0
 405 000c 7B68     		ldr	r3, [r7, #4]
 406 000e 002B     		cmp	r3, #0
 407 0010 02D1     		bne	.L18
 408              		.loc 5 127 0 is_stmt 0 discriminator 1
 409 0012 1148     		ldr	r0, .L19
 410 0014 FFF7FEFF 		bl	chSysHalt
 411              	.L18:
 412              		.loc 5 129 0 is_stmt 1
 413 0018 7B68     		ldr	r3, [r7, #4]
 414 001a 1A68     		ldr	r2, [r3]
 415 001c 7B68     		ldr	r3, [r7, #4]
 416 001e 9A60     		str	r2, [r3, #8]
 417              		.loc 5 130 0
 418 0020 7B68     		ldr	r3, [r7, #4]
 419 0022 1A68     		ldr	r2, [r3]
 420 0024 7B68     		ldr	r3, [r7, #4]
 421 0026 DA60     		str	r2, [r3, #12]
 422              		.loc 5 131 0
 423 0028 7B68     		ldr	r3, [r7, #4]
 424 002a 03F11C02 		add	r2, r3, #28
 425 002e 7B68     		ldr	r3, [r7, #4]
 426 0030 5B68     		ldr	r3, [r3, #4]
 427 0032 1946     		mov	r1, r3
 428 0034 7B68     		ldr	r3, [r7, #4]
 429 0036 1B68     		ldr	r3, [r3]
 430 0038 CB1A     		subs	r3, r1, r3
 431 003a 9B10     		asrs	r3, r3, #2
 432 003c 1046     		mov	r0, r2
 433 003e 1946     		mov	r1, r3
 434 0040 FFF7FEFF 		bl	chSemResetI
 435              		.loc 5 132 0
 436 0044 7B68     		ldr	r3, [r7, #4]
 437 0046 1033     		adds	r3, r3, #16
 438 0048 1846     		mov	r0, r3
 439 004a 0021     		movs	r1, #0
 440 004c FFF7FEFF 		bl	chSemResetI
 441              		.loc 5 133 0
 442 0050 0837     		adds	r7, r7, #8
 443 0052 BD46     		mov	sp, r7
 444              		@ sp needed
 445 0054 80BD     		pop	{r7, pc}
 446              	.L20:
 447 0056 00BF     		.align	2
 448              	.L19:
ARM GAS  C:\Users\Luis\AppData\Local\Temp\ccdJOPAF.s 			page 9


 449 0058 00000000 		.word	__func__.6546
 450              		.cfi_endproc
 451              	.LFE231:
 452              		.size	chMBResetI, .-chMBResetI
 453 005c AFF30080 		.section	.text.chMBPost,"ax",%progbits
 454              		.align	2
 455              		.p2align 4,,15
 456              		.global	chMBPost
 457              		.thumb
 458              		.thumb_func
 459              		.type	chMBPost, %function
 460              	chMBPost:
 461              	.LFB232:
 462              		.loc 5 154 0
 463              		.cfi_startproc
 464              		@ args = 0, pretend = 0, frame = 24
 465              		@ frame_needed = 1, uses_anonymous_args = 0
 466 0000 80B5     		push	{r7, lr}
 467              		.cfi_def_cfa_offset 8
 468              		.cfi_offset 7, -8
 469              		.cfi_offset 14, -4
 470 0002 86B0     		sub	sp, sp, #24
 471              		.cfi_def_cfa_offset 32
 472 0004 00AF     		add	r7, sp, #0
 473              		.cfi_def_cfa_register 7
 474 0006 F860     		str	r0, [r7, #12]
 475 0008 B960     		str	r1, [r7, #8]
 476 000a 7A60     		str	r2, [r7, #4]
 477              		.loc 5 157 0
 478 000c FFF7FEFF 		bl	chSysLock
 479              		.loc 5 158 0
 480 0010 F868     		ldr	r0, [r7, #12]
 481 0012 B968     		ldr	r1, [r7, #8]
 482 0014 7A68     		ldr	r2, [r7, #4]
 483 0016 FFF7FEFF 		bl	chMBPostS
 484 001a 7861     		str	r0, [r7, #20]
 485              		.loc 5 159 0
 486 001c FFF7FEFF 		bl	chSysUnlock
 487              		.loc 5 161 0
 488 0020 7B69     		ldr	r3, [r7, #20]
 489              		.loc 5 162 0
 490 0022 1846     		mov	r0, r3
 491 0024 1837     		adds	r7, r7, #24
 492 0026 BD46     		mov	sp, r7
 493              		@ sp needed
 494 0028 80BD     		pop	{r7, pc}
 495              		.cfi_endproc
 496              	.LFE232:
 497              		.size	chMBPost, .-chMBPost
 498              		.section	.text.chMBPostS,"ax",%progbits
 499              		.align	2
 500              		.p2align 4,,15
 501              		.global	chMBPostS
 502              		.thumb
 503              		.thumb_func
 504              		.type	chMBPostS, %function
 505              	chMBPostS:
ARM GAS  C:\Users\Luis\AppData\Local\Temp\ccdJOPAF.s 			page 10


 506              	.LFB233:
 507              		.loc 5 183 0
 508              		.cfi_startproc
 509              		@ args = 0, pretend = 0, frame = 24
 510              		@ frame_needed = 1, uses_anonymous_args = 0
 511 0000 80B5     		push	{r7, lr}
 512              		.cfi_def_cfa_offset 8
 513              		.cfi_offset 7, -8
 514              		.cfi_offset 14, -4
 515 0002 86B0     		sub	sp, sp, #24
 516              		.cfi_def_cfa_offset 32
 517 0004 00AF     		add	r7, sp, #0
 518              		.cfi_def_cfa_register 7
 519 0006 F860     		str	r0, [r7, #12]
 520 0008 B960     		str	r1, [r7, #8]
 521 000a 7A60     		str	r2, [r7, #4]
 522              		.loc 5 186 0
 523 000c FFF7FEFF 		bl	chDbgCheckClassS
 524              		.loc 5 187 0
 525 0010 FB68     		ldr	r3, [r7, #12]
 526 0012 002B     		cmp	r3, #0
 527 0014 02D1     		bne	.L24
 528              		.loc 5 187 0 is_stmt 0 discriminator 1
 529 0016 1548     		ldr	r0, .L28
 530 0018 FFF7FEFF 		bl	chSysHalt
 531              	.L24:
 532              		.loc 5 189 0 is_stmt 1
 533 001c FB68     		ldr	r3, [r7, #12]
 534 001e 1C33     		adds	r3, r3, #28
 535 0020 1846     		mov	r0, r3
 536 0022 7968     		ldr	r1, [r7, #4]
 537 0024 FFF7FEFF 		bl	chSemWaitTimeoutS
 538 0028 7861     		str	r0, [r7, #20]
 539              		.loc 5 190 0
 540 002a 7B69     		ldr	r3, [r7, #20]
 541 002c 002B     		cmp	r3, #0
 542 002e 17D1     		bne	.L25
 543              		.loc 5 191 0
 544 0030 FB68     		ldr	r3, [r7, #12]
 545 0032 9B68     		ldr	r3, [r3, #8]
 546 0034 191D     		adds	r1, r3, #4
 547 0036 FA68     		ldr	r2, [r7, #12]
 548 0038 9160     		str	r1, [r2, #8]
 549 003a BA68     		ldr	r2, [r7, #8]
 550 003c 1A60     		str	r2, [r3]
 551              		.loc 5 192 0
 552 003e FB68     		ldr	r3, [r7, #12]
 553 0040 9A68     		ldr	r2, [r3, #8]
 554 0042 FB68     		ldr	r3, [r7, #12]
 555 0044 5B68     		ldr	r3, [r3, #4]
 556 0046 9A42     		cmp	r2, r3
 557 0048 03D3     		bcc	.L26
 558              		.loc 5 193 0
 559 004a FB68     		ldr	r3, [r7, #12]
 560 004c 1A68     		ldr	r2, [r3]
 561 004e FB68     		ldr	r3, [r7, #12]
 562 0050 9A60     		str	r2, [r3, #8]
ARM GAS  C:\Users\Luis\AppData\Local\Temp\ccdJOPAF.s 			page 11


 563              	.L26:
 564              		.loc 5 195 0
 565 0052 FB68     		ldr	r3, [r7, #12]
 566 0054 1033     		adds	r3, r3, #16
 567 0056 1846     		mov	r0, r3
 568 0058 FFF7FEFF 		bl	chSemSignalI
 569              		.loc 5 196 0
 570 005c FFF7FEFF 		bl	chSchRescheduleS
 571              	.L25:
 572              		.loc 5 199 0
 573 0060 7B69     		ldr	r3, [r7, #20]
 574              		.loc 5 200 0
 575 0062 1846     		mov	r0, r3
 576 0064 1837     		adds	r7, r7, #24
 577 0066 BD46     		mov	sp, r7
 578              		@ sp needed
 579 0068 80BD     		pop	{r7, pc}
 580              	.L29:
 581 006a 00BF     		.align	2
 582              	.L28:
 583 006c 00000000 		.word	__func__.6559
 584              		.cfi_endproc
 585              	.LFE233:
 586              		.size	chMBPostS, .-chMBPostS
 587              		.section	.text.chMBPostI,"ax",%progbits
 588              		.align	2
 589              		.p2align 4,,15
 590              		.global	chMBPostI
 591              		.thumb
 592              		.thumb_func
 593              		.type	chMBPostI, %function
 594              	chMBPostI:
 595              	.LFB234:
 596              		.loc 5 216 0
 597              		.cfi_startproc
 598              		@ args = 0, pretend = 0, frame = 8
 599              		@ frame_needed = 1, uses_anonymous_args = 0
 600 0000 80B5     		push	{r7, lr}
 601              		.cfi_def_cfa_offset 8
 602              		.cfi_offset 7, -8
 603              		.cfi_offset 14, -4
 604 0002 82B0     		sub	sp, sp, #8
 605              		.cfi_def_cfa_offset 16
 606 0004 00AF     		add	r7, sp, #0
 607              		.cfi_def_cfa_register 7
 608 0006 7860     		str	r0, [r7, #4]
 609 0008 3960     		str	r1, [r7]
 610              		.loc 5 218 0
 611 000a FFF7FEFF 		bl	chDbgCheckClassI
 612              		.loc 5 219 0
 613 000e 7B68     		ldr	r3, [r7, #4]
 614 0010 002B     		cmp	r3, #0
 615 0012 02D1     		bne	.L31
 616              		.loc 5 219 0 is_stmt 0 discriminator 1
 617 0014 1648     		ldr	r0, .L35
 618 0016 FFF7FEFF 		bl	chSysHalt
 619              	.L31:
ARM GAS  C:\Users\Luis\AppData\Local\Temp\ccdJOPAF.s 			page 12


 620              		.loc 5 221 0 is_stmt 1
 621 001a 7B68     		ldr	r3, [r7, #4]
 622 001c 1C33     		adds	r3, r3, #28
 623 001e 1846     		mov	r0, r3
 624 0020 FFF7FEFF 		bl	chSemGetCounterI
 625 0024 0346     		mov	r3, r0
 626 0026 002B     		cmp	r3, #0
 627 0028 02DC     		bgt	.L32
 628              		.loc 5 222 0
 629 002a 4FF0FF33 		mov	r3, #-1
 630 002e 1BE0     		b	.L33
 631              	.L32:
 632              		.loc 5 225 0
 633 0030 7B68     		ldr	r3, [r7, #4]
 634 0032 1C33     		adds	r3, r3, #28
 635 0034 1846     		mov	r0, r3
 636 0036 FFF7FEFF 		bl	chSemFastWaitI
 637              		.loc 5 226 0
 638 003a 7B68     		ldr	r3, [r7, #4]
 639 003c 9B68     		ldr	r3, [r3, #8]
 640 003e 191D     		adds	r1, r3, #4
 641 0040 7A68     		ldr	r2, [r7, #4]
 642 0042 9160     		str	r1, [r2, #8]
 643 0044 3A68     		ldr	r2, [r7]
 644 0046 1A60     		str	r2, [r3]
 645              		.loc 5 227 0
 646 0048 7B68     		ldr	r3, [r7, #4]
 647 004a 9A68     		ldr	r2, [r3, #8]
 648 004c 7B68     		ldr	r3, [r7, #4]
 649 004e 5B68     		ldr	r3, [r3, #4]
 650 0050 9A42     		cmp	r2, r3
 651 0052 03D3     		bcc	.L34
 652              		.loc 5 228 0
 653 0054 7B68     		ldr	r3, [r7, #4]
 654 0056 1A68     		ldr	r2, [r3]
 655 0058 7B68     		ldr	r3, [r7, #4]
 656 005a 9A60     		str	r2, [r3, #8]
 657              	.L34:
 658              		.loc 5 230 0
 659 005c 7B68     		ldr	r3, [r7, #4]
 660 005e 1033     		adds	r3, r3, #16
 661 0060 1846     		mov	r0, r3
 662 0062 FFF7FEFF 		bl	chSemSignalI
 663              		.loc 5 232 0
 664 0066 0023     		movs	r3, #0
 665              	.L33:
 666              		.loc 5 233 0
 667 0068 1846     		mov	r0, r3
 668 006a 0837     		adds	r7, r7, #8
 669 006c BD46     		mov	sp, r7
 670              		@ sp needed
 671 006e 80BD     		pop	{r7, pc}
 672              	.L36:
 673              		.align	2
 674              	.L35:
 675 0070 00000000 		.word	__func__.6564
 676              		.cfi_endproc
ARM GAS  C:\Users\Luis\AppData\Local\Temp\ccdJOPAF.s 			page 13


 677              	.LFE234:
 678              		.size	chMBPostI, .-chMBPostI
 679 0074 AFF30080 		.section	.text.chMBPostAhead,"ax",%progbits
 679      AFF30080 
 679      AFF30080 
 680              		.align	2
 681              		.p2align 4,,15
 682              		.global	chMBPostAhead
 683              		.thumb
 684              		.thumb_func
 685              		.type	chMBPostAhead, %function
 686              	chMBPostAhead:
 687              	.LFB235:
 688              		.loc 5 254 0
 689              		.cfi_startproc
 690              		@ args = 0, pretend = 0, frame = 24
 691              		@ frame_needed = 1, uses_anonymous_args = 0
 692 0000 80B5     		push	{r7, lr}
 693              		.cfi_def_cfa_offset 8
 694              		.cfi_offset 7, -8
 695              		.cfi_offset 14, -4
 696 0002 86B0     		sub	sp, sp, #24
 697              		.cfi_def_cfa_offset 32
 698 0004 00AF     		add	r7, sp, #0
 699              		.cfi_def_cfa_register 7
 700 0006 F860     		str	r0, [r7, #12]
 701 0008 B960     		str	r1, [r7, #8]
 702 000a 7A60     		str	r2, [r7, #4]
 703              		.loc 5 257 0
 704 000c FFF7FEFF 		bl	chSysLock
 705              		.loc 5 258 0
 706 0010 F868     		ldr	r0, [r7, #12]
 707 0012 B968     		ldr	r1, [r7, #8]
 708 0014 7A68     		ldr	r2, [r7, #4]
 709 0016 FFF7FEFF 		bl	chMBPostAheadS
 710 001a 7861     		str	r0, [r7, #20]
 711              		.loc 5 259 0
 712 001c FFF7FEFF 		bl	chSysUnlock
 713              		.loc 5 261 0
 714 0020 7B69     		ldr	r3, [r7, #20]
 715              		.loc 5 262 0
 716 0022 1846     		mov	r0, r3
 717 0024 1837     		adds	r7, r7, #24
 718 0026 BD46     		mov	sp, r7
 719              		@ sp needed
 720 0028 80BD     		pop	{r7, pc}
 721              		.cfi_endproc
 722              	.LFE235:
 723              		.size	chMBPostAhead, .-chMBPostAhead
 724              		.section	.text.chMBPostAheadS,"ax",%progbits
 725              		.align	2
 726              		.p2align 4,,15
 727              		.global	chMBPostAheadS
 728              		.thumb
 729              		.thumb_func
 730              		.type	chMBPostAheadS, %function
 731              	chMBPostAheadS:
ARM GAS  C:\Users\Luis\AppData\Local\Temp\ccdJOPAF.s 			page 14


 732              	.LFB236:
 733              		.loc 5 283 0
 734              		.cfi_startproc
 735              		@ args = 0, pretend = 0, frame = 24
 736              		@ frame_needed = 1, uses_anonymous_args = 0
 737 0000 80B5     		push	{r7, lr}
 738              		.cfi_def_cfa_offset 8
 739              		.cfi_offset 7, -8
 740              		.cfi_offset 14, -4
 741 0002 86B0     		sub	sp, sp, #24
 742              		.cfi_def_cfa_offset 32
 743 0004 00AF     		add	r7, sp, #0
 744              		.cfi_def_cfa_register 7
 745 0006 F860     		str	r0, [r7, #12]
 746 0008 B960     		str	r1, [r7, #8]
 747 000a 7A60     		str	r2, [r7, #4]
 748              		.loc 5 286 0
 749 000c FFF7FEFF 		bl	chDbgCheckClassS
 750              		.loc 5 287 0
 751 0010 FB68     		ldr	r3, [r7, #12]
 752 0012 002B     		cmp	r3, #0
 753 0014 02D1     		bne	.L40
 754              		.loc 5 287 0 is_stmt 0 discriminator 1
 755 0016 1648     		ldr	r0, .L44
 756 0018 FFF7FEFF 		bl	chSysHalt
 757              	.L40:
 758              		.loc 5 289 0 is_stmt 1
 759 001c FB68     		ldr	r3, [r7, #12]
 760 001e 1C33     		adds	r3, r3, #28
 761 0020 1846     		mov	r0, r3
 762 0022 7968     		ldr	r1, [r7, #4]
 763 0024 FFF7FEFF 		bl	chSemWaitTimeoutS
 764 0028 7861     		str	r0, [r7, #20]
 765              		.loc 5 290 0
 766 002a 7B69     		ldr	r3, [r7, #20]
 767 002c 002B     		cmp	r3, #0
 768 002e 1AD1     		bne	.L41
 769              		.loc 5 291 0
 770 0030 FB68     		ldr	r3, [r7, #12]
 771 0032 DB68     		ldr	r3, [r3, #12]
 772 0034 1A1F     		subs	r2, r3, #4
 773 0036 FB68     		ldr	r3, [r7, #12]
 774 0038 DA60     		str	r2, [r3, #12]
 775 003a FB68     		ldr	r3, [r7, #12]
 776 003c DA68     		ldr	r2, [r3, #12]
 777 003e FB68     		ldr	r3, [r7, #12]
 778 0040 1B68     		ldr	r3, [r3]
 779 0042 9A42     		cmp	r2, r3
 780 0044 04D2     		bcs	.L42
 781              		.loc 5 292 0
 782 0046 FB68     		ldr	r3, [r7, #12]
 783 0048 5B68     		ldr	r3, [r3, #4]
 784 004a 1A1F     		subs	r2, r3, #4
 785 004c FB68     		ldr	r3, [r7, #12]
 786 004e DA60     		str	r2, [r3, #12]
 787              	.L42:
 788              		.loc 5 294 0
ARM GAS  C:\Users\Luis\AppData\Local\Temp\ccdJOPAF.s 			page 15


 789 0050 FB68     		ldr	r3, [r7, #12]
 790 0052 DB68     		ldr	r3, [r3, #12]
 791 0054 BA68     		ldr	r2, [r7, #8]
 792 0056 1A60     		str	r2, [r3]
 793              		.loc 5 295 0
 794 0058 FB68     		ldr	r3, [r7, #12]
 795 005a 1033     		adds	r3, r3, #16
 796 005c 1846     		mov	r0, r3
 797 005e FFF7FEFF 		bl	chSemSignalI
 798              		.loc 5 296 0
 799 0062 FFF7FEFF 		bl	chSchRescheduleS
 800              	.L41:
 801              		.loc 5 299 0
 802 0066 7B69     		ldr	r3, [r7, #20]
 803              		.loc 5 300 0
 804 0068 1846     		mov	r0, r3
 805 006a 1837     		adds	r7, r7, #24
 806 006c BD46     		mov	sp, r7
 807              		@ sp needed
 808 006e 80BD     		pop	{r7, pc}
 809              	.L45:
 810              		.align	2
 811              	.L44:
 812 0070 00000000 		.word	__func__.6577
 813              		.cfi_endproc
 814              	.LFE236:
 815              		.size	chMBPostAheadS, .-chMBPostAheadS
 816 0074 AFF30080 		.section	.text.chMBPostAheadI,"ax",%progbits
 816      AFF30080 
 816      AFF30080 
 817              		.align	2
 818              		.p2align 4,,15
 819              		.global	chMBPostAheadI
 820              		.thumb
 821              		.thumb_func
 822              		.type	chMBPostAheadI, %function
 823              	chMBPostAheadI:
 824              	.LFB237:
 825              		.loc 5 316 0
 826              		.cfi_startproc
 827              		@ args = 0, pretend = 0, frame = 8
 828              		@ frame_needed = 1, uses_anonymous_args = 0
 829 0000 80B5     		push	{r7, lr}
 830              		.cfi_def_cfa_offset 8
 831              		.cfi_offset 7, -8
 832              		.cfi_offset 14, -4
 833 0002 82B0     		sub	sp, sp, #8
 834              		.cfi_def_cfa_offset 16
 835 0004 00AF     		add	r7, sp, #0
 836              		.cfi_def_cfa_register 7
 837 0006 7860     		str	r0, [r7, #4]
 838 0008 3960     		str	r1, [r7]
 839              		.loc 5 318 0
 840 000a FFF7FEFF 		bl	chDbgCheckClassI
 841              		.loc 5 319 0
 842 000e 7B68     		ldr	r3, [r7, #4]
 843 0010 002B     		cmp	r3, #0
ARM GAS  C:\Users\Luis\AppData\Local\Temp\ccdJOPAF.s 			page 16


 844 0012 02D1     		bne	.L47
 845              		.loc 5 319 0 is_stmt 0 discriminator 1
 846 0014 1848     		ldr	r0, .L51
 847 0016 FFF7FEFF 		bl	chSysHalt
 848              	.L47:
 849              		.loc 5 321 0 is_stmt 1
 850 001a 7B68     		ldr	r3, [r7, #4]
 851 001c 1C33     		adds	r3, r3, #28
 852 001e 1846     		mov	r0, r3
 853 0020 FFF7FEFF 		bl	chSemGetCounterI
 854 0024 0346     		mov	r3, r0
 855 0026 002B     		cmp	r3, #0
 856 0028 02DC     		bgt	.L48
 857              		.loc 5 322 0
 858 002a 4FF0FF33 		mov	r3, #-1
 859 002e 1EE0     		b	.L49
 860              	.L48:
 861              		.loc 5 324 0
 862 0030 7B68     		ldr	r3, [r7, #4]
 863 0032 1C33     		adds	r3, r3, #28
 864 0034 1846     		mov	r0, r3
 865 0036 FFF7FEFF 		bl	chSemFastWaitI
 866              		.loc 5 325 0
 867 003a 7B68     		ldr	r3, [r7, #4]
 868 003c DB68     		ldr	r3, [r3, #12]
 869 003e 1A1F     		subs	r2, r3, #4
 870 0040 7B68     		ldr	r3, [r7, #4]
 871 0042 DA60     		str	r2, [r3, #12]
 872 0044 7B68     		ldr	r3, [r7, #4]
 873 0046 DA68     		ldr	r2, [r3, #12]
 874 0048 7B68     		ldr	r3, [r7, #4]
 875 004a 1B68     		ldr	r3, [r3]
 876 004c 9A42     		cmp	r2, r3
 877 004e 04D2     		bcs	.L50
 878              		.loc 5 326 0
 879 0050 7B68     		ldr	r3, [r7, #4]
 880 0052 5B68     		ldr	r3, [r3, #4]
 881 0054 1A1F     		subs	r2, r3, #4
 882 0056 7B68     		ldr	r3, [r7, #4]
 883 0058 DA60     		str	r2, [r3, #12]
 884              	.L50:
 885              		.loc 5 328 0
 886 005a 7B68     		ldr	r3, [r7, #4]
 887 005c DB68     		ldr	r3, [r3, #12]
 888 005e 3A68     		ldr	r2, [r7]
 889 0060 1A60     		str	r2, [r3]
 890              		.loc 5 329 0
 891 0062 7B68     		ldr	r3, [r7, #4]
 892 0064 1033     		adds	r3, r3, #16
 893 0066 1846     		mov	r0, r3
 894 0068 FFF7FEFF 		bl	chSemSignalI
 895              		.loc 5 331 0
 896 006c 0023     		movs	r3, #0
 897              	.L49:
 898              		.loc 5 332 0
 899 006e 1846     		mov	r0, r3
 900 0070 0837     		adds	r7, r7, #8
ARM GAS  C:\Users\Luis\AppData\Local\Temp\ccdJOPAF.s 			page 17


 901 0072 BD46     		mov	sp, r7
 902              		@ sp needed
 903 0074 80BD     		pop	{r7, pc}
 904              	.L52:
 905 0076 00BF     		.align	2
 906              	.L51:
 907 0078 00000000 		.word	__func__.6582
 908              		.cfi_endproc
 909              	.LFE237:
 910              		.size	chMBPostAheadI, .-chMBPostAheadI
 911 007c AFF30080 		.section	.text.chMBFetch,"ax",%progbits
 912              		.align	2
 913              		.p2align 4,,15
 914              		.global	chMBFetch
 915              		.thumb
 916              		.thumb_func
 917              		.type	chMBFetch, %function
 918              	chMBFetch:
 919              	.LFB238:
 920              		.loc 5 353 0
 921              		.cfi_startproc
 922              		@ args = 0, pretend = 0, frame = 24
 923              		@ frame_needed = 1, uses_anonymous_args = 0
 924 0000 80B5     		push	{r7, lr}
 925              		.cfi_def_cfa_offset 8
 926              		.cfi_offset 7, -8
 927              		.cfi_offset 14, -4
 928 0002 86B0     		sub	sp, sp, #24
 929              		.cfi_def_cfa_offset 32
 930 0004 00AF     		add	r7, sp, #0
 931              		.cfi_def_cfa_register 7
 932 0006 F860     		str	r0, [r7, #12]
 933 0008 B960     		str	r1, [r7, #8]
 934 000a 7A60     		str	r2, [r7, #4]
 935              		.loc 5 356 0
 936 000c FFF7FEFF 		bl	chSysLock
 937              		.loc 5 357 0
 938 0010 F868     		ldr	r0, [r7, #12]
 939 0012 B968     		ldr	r1, [r7, #8]
 940 0014 7A68     		ldr	r2, [r7, #4]
 941 0016 FFF7FEFF 		bl	chMBFetchS
 942 001a 7861     		str	r0, [r7, #20]
 943              		.loc 5 358 0
 944 001c FFF7FEFF 		bl	chSysUnlock
 945              		.loc 5 360 0
 946 0020 7B69     		ldr	r3, [r7, #20]
 947              		.loc 5 361 0
 948 0022 1846     		mov	r0, r3
 949 0024 1837     		adds	r7, r7, #24
 950 0026 BD46     		mov	sp, r7
 951              		@ sp needed
 952 0028 80BD     		pop	{r7, pc}
 953              		.cfi_endproc
 954              	.LFE238:
 955              		.size	chMBFetch, .-chMBFetch
 956              		.section	.text.chMBFetchS,"ax",%progbits
 957              		.align	2
ARM GAS  C:\Users\Luis\AppData\Local\Temp\ccdJOPAF.s 			page 18


 958              		.p2align 4,,15
 959              		.global	chMBFetchS
 960              		.thumb
 961              		.thumb_func
 962              		.type	chMBFetchS, %function
 963              	chMBFetchS:
 964              	.LFB239:
 965              		.loc 5 382 0
 966              		.cfi_startproc
 967              		@ args = 0, pretend = 0, frame = 24
 968              		@ frame_needed = 1, uses_anonymous_args = 0
 969 0000 80B5     		push	{r7, lr}
 970              		.cfi_def_cfa_offset 8
 971              		.cfi_offset 7, -8
 972              		.cfi_offset 14, -4
 973 0002 86B0     		sub	sp, sp, #24
 974              		.cfi_def_cfa_offset 32
 975 0004 00AF     		add	r7, sp, #0
 976              		.cfi_def_cfa_register 7
 977 0006 F860     		str	r0, [r7, #12]
 978 0008 B960     		str	r1, [r7, #8]
 979 000a 7A60     		str	r2, [r7, #4]
 980              		.loc 5 385 0
 981 000c FFF7FEFF 		bl	chDbgCheckClassS
 982              		.loc 5 386 0
 983 0010 FB68     		ldr	r3, [r7, #12]
 984 0012 002B     		cmp	r3, #0
 985 0014 02D0     		beq	.L56
 986              		.loc 5 386 0 is_stmt 0 discriminator 2
 987 0016 BB68     		ldr	r3, [r7, #8]
 988 0018 002B     		cmp	r3, #0
 989 001a 02D1     		bne	.L57
 990              	.L56:
 991              		.loc 5 386 0 discriminator 1
 992 001c 1548     		ldr	r0, .L61
 993 001e FFF7FEFF 		bl	chSysHalt
 994              	.L57:
 995              		.loc 5 388 0 is_stmt 1
 996 0022 FB68     		ldr	r3, [r7, #12]
 997 0024 1033     		adds	r3, r3, #16
 998 0026 1846     		mov	r0, r3
 999 0028 7968     		ldr	r1, [r7, #4]
 1000 002a FFF7FEFF 		bl	chSemWaitTimeoutS
 1001 002e 7861     		str	r0, [r7, #20]
 1002              		.loc 5 389 0
 1003 0030 7B69     		ldr	r3, [r7, #20]
 1004 0032 002B     		cmp	r3, #0
 1005 0034 18D1     		bne	.L58
 1006              		.loc 5 390 0
 1007 0036 FB68     		ldr	r3, [r7, #12]
 1008 0038 DB68     		ldr	r3, [r3, #12]
 1009 003a 191D     		adds	r1, r3, #4
 1010 003c FA68     		ldr	r2, [r7, #12]
 1011 003e D160     		str	r1, [r2, #12]
 1012 0040 1A68     		ldr	r2, [r3]
 1013 0042 BB68     		ldr	r3, [r7, #8]
 1014 0044 1A60     		str	r2, [r3]
ARM GAS  C:\Users\Luis\AppData\Local\Temp\ccdJOPAF.s 			page 19


 1015              		.loc 5 391 0
 1016 0046 FB68     		ldr	r3, [r7, #12]
 1017 0048 DA68     		ldr	r2, [r3, #12]
 1018 004a FB68     		ldr	r3, [r7, #12]
 1019 004c 5B68     		ldr	r3, [r3, #4]
 1020 004e 9A42     		cmp	r2, r3
 1021 0050 03D3     		bcc	.L59
 1022              		.loc 5 392 0
 1023 0052 FB68     		ldr	r3, [r7, #12]
 1024 0054 1A68     		ldr	r2, [r3]
 1025 0056 FB68     		ldr	r3, [r7, #12]
 1026 0058 DA60     		str	r2, [r3, #12]
 1027              	.L59:
 1028              		.loc 5 394 0
 1029 005a FB68     		ldr	r3, [r7, #12]
 1030 005c 1C33     		adds	r3, r3, #28
 1031 005e 1846     		mov	r0, r3
 1032 0060 FFF7FEFF 		bl	chSemSignalI
 1033              		.loc 5 395 0
 1034 0064 FFF7FEFF 		bl	chSchRescheduleS
 1035              	.L58:
 1036              		.loc 5 398 0
 1037 0068 7B69     		ldr	r3, [r7, #20]
 1038              		.loc 5 399 0
 1039 006a 1846     		mov	r0, r3
 1040 006c 1837     		adds	r7, r7, #24
 1041 006e BD46     		mov	sp, r7
 1042              		@ sp needed
 1043 0070 80BD     		pop	{r7, pc}
 1044              	.L62:
 1045 0072 00BF     		.align	2
 1046              	.L61:
 1047 0074 00000000 		.word	__func__.6595
 1048              		.cfi_endproc
 1049              	.LFE239:
 1050              		.size	chMBFetchS, .-chMBFetchS
 1051 0078 AFF30080 		.section	.text.chMBFetchI,"ax",%progbits
 1051      AFF30080 
 1052              		.align	2
 1053              		.p2align 4,,15
 1054              		.global	chMBFetchI
 1055              		.thumb
 1056              		.thumb_func
 1057              		.type	chMBFetchI, %function
 1058              	chMBFetchI:
 1059              	.LFB240:
 1060              		.loc 5 415 0
 1061              		.cfi_startproc
 1062              		@ args = 0, pretend = 0, frame = 8
 1063              		@ frame_needed = 1, uses_anonymous_args = 0
 1064 0000 80B5     		push	{r7, lr}
 1065              		.cfi_def_cfa_offset 8
 1066              		.cfi_offset 7, -8
 1067              		.cfi_offset 14, -4
 1068 0002 82B0     		sub	sp, sp, #8
 1069              		.cfi_def_cfa_offset 16
 1070 0004 00AF     		add	r7, sp, #0
ARM GAS  C:\Users\Luis\AppData\Local\Temp\ccdJOPAF.s 			page 20


 1071              		.cfi_def_cfa_register 7
 1072 0006 7860     		str	r0, [r7, #4]
 1073 0008 3960     		str	r1, [r7]
 1074              		.loc 5 417 0
 1075 000a FFF7FEFF 		bl	chDbgCheckClassI
 1076              		.loc 5 418 0
 1077 000e 7B68     		ldr	r3, [r7, #4]
 1078 0010 002B     		cmp	r3, #0
 1079 0012 02D0     		beq	.L64
 1080              		.loc 5 418 0 is_stmt 0 discriminator 2
 1081 0014 3B68     		ldr	r3, [r7]
 1082 0016 002B     		cmp	r3, #0
 1083 0018 02D1     		bne	.L65
 1084              	.L64:
 1085              		.loc 5 418 0 discriminator 1
 1086 001a 1748     		ldr	r0, .L69
 1087 001c FFF7FEFF 		bl	chSysHalt
 1088              	.L65:
 1089              		.loc 5 420 0 is_stmt 1
 1090 0020 7B68     		ldr	r3, [r7, #4]
 1091 0022 1033     		adds	r3, r3, #16
 1092 0024 1846     		mov	r0, r3
 1093 0026 FFF7FEFF 		bl	chSemGetCounterI
 1094 002a 0346     		mov	r3, r0
 1095 002c 002B     		cmp	r3, #0
 1096 002e 02DC     		bgt	.L66
 1097              		.loc 5 421 0
 1098 0030 4FF0FF33 		mov	r3, #-1
 1099 0034 1CE0     		b	.L67
 1100              	.L66:
 1101              		.loc 5 423 0
 1102 0036 7B68     		ldr	r3, [r7, #4]
 1103 0038 1033     		adds	r3, r3, #16
 1104 003a 1846     		mov	r0, r3
 1105 003c FFF7FEFF 		bl	chSemFastWaitI
 1106              		.loc 5 424 0
 1107 0040 7B68     		ldr	r3, [r7, #4]
 1108 0042 DB68     		ldr	r3, [r3, #12]
 1109 0044 191D     		adds	r1, r3, #4
 1110 0046 7A68     		ldr	r2, [r7, #4]
 1111 0048 D160     		str	r1, [r2, #12]
 1112 004a 1A68     		ldr	r2, [r3]
 1113 004c 3B68     		ldr	r3, [r7]
 1114 004e 1A60     		str	r2, [r3]
 1115              		.loc 5 425 0
 1116 0050 7B68     		ldr	r3, [r7, #4]
 1117 0052 DA68     		ldr	r2, [r3, #12]
 1118 0054 7B68     		ldr	r3, [r7, #4]
 1119 0056 5B68     		ldr	r3, [r3, #4]
 1120 0058 9A42     		cmp	r2, r3
 1121 005a 03D3     		bcc	.L68
 1122              		.loc 5 426 0
 1123 005c 7B68     		ldr	r3, [r7, #4]
 1124 005e 1A68     		ldr	r2, [r3]
 1125 0060 7B68     		ldr	r3, [r7, #4]
 1126 0062 DA60     		str	r2, [r3, #12]
 1127              	.L68:
ARM GAS  C:\Users\Luis\AppData\Local\Temp\ccdJOPAF.s 			page 21


 1128              		.loc 5 428 0
 1129 0064 7B68     		ldr	r3, [r7, #4]
 1130 0066 1C33     		adds	r3, r3, #28
 1131 0068 1846     		mov	r0, r3
 1132 006a FFF7FEFF 		bl	chSemSignalI
 1133              		.loc 5 430 0
 1134 006e 0023     		movs	r3, #0
 1135              	.L67:
 1136              		.loc 5 431 0
 1137 0070 1846     		mov	r0, r3
 1138 0072 0837     		adds	r7, r7, #8
 1139 0074 BD46     		mov	sp, r7
 1140              		@ sp needed
 1141 0076 80BD     		pop	{r7, pc}
 1142              	.L70:
 1143              		.align	2
 1144              	.L69:
 1145 0078 00000000 		.word	__func__.6600
 1146              		.cfi_endproc
 1147              	.LFE240:
 1148              		.size	chMBFetchI, .-chMBFetchI
 1149 007c AFF30080 		.section	.rodata.__func__.6539,"a",%progbits
 1150              		.align	2
 1151              		.type	__func__.6539, %object
 1152              		.size	__func__.6539, 15
 1153              	__func__.6539:
 1154 0000 63684D42 		.ascii	"chMBObjectInit\000"
 1154      4F626A65 
 1154      6374496E 
 1154      697400
 1155 000f 00       		.section	.rodata.__func__.5842,"a",%progbits
 1156              		.align	2
 1157              		.type	__func__.5842, %object
 1158              		.size	__func__.5842, 12
 1159              	__func__.5842:
 1160 0000 63685379 		.ascii	"chSysUnlock\000"
 1160      73556E6C 
 1160      6F636B00 
 1161              		.section	.rodata.__func__.6546,"a",%progbits
 1162              		.align	2
 1163              		.type	__func__.6546, %object
 1164              		.size	__func__.6546, 11
 1165              	__func__.6546:
 1166 0000 63684D42 		.ascii	"chMBResetI\000"
 1166      52657365 
 1166      744900
 1167 000b 00       		.section	.rodata.__func__.6559,"a",%progbits
 1168              		.align	2
 1169              		.type	__func__.6559, %object
 1170              		.size	__func__.6559, 10
 1171              	__func__.6559:
 1172 0000 63684D42 		.ascii	"chMBPostS\000"
 1172      506F7374 
 1172      5300
 1173 000a 0000     		.section	.rodata.__func__.6564,"a",%progbits
 1174              		.align	2
 1175              		.type	__func__.6564, %object
ARM GAS  C:\Users\Luis\AppData\Local\Temp\ccdJOPAF.s 			page 22


 1176              		.size	__func__.6564, 10
 1177              	__func__.6564:
 1178 0000 63684D42 		.ascii	"chMBPostI\000"
 1178      506F7374 
 1178      4900
 1179 000a 0000     		.section	.rodata.__func__.6577,"a",%progbits
 1180              		.align	2
 1181              		.type	__func__.6577, %object
 1182              		.size	__func__.6577, 15
 1183              	__func__.6577:
 1184 0000 63684D42 		.ascii	"chMBPostAheadS\000"
 1184      506F7374 
 1184      41686561 
 1184      645300
 1185 000f 00       		.section	.rodata.__func__.6582,"a",%progbits
 1186              		.align	2
 1187              		.type	__func__.6582, %object
 1188              		.size	__func__.6582, 15
 1189              	__func__.6582:
 1190 0000 63684D42 		.ascii	"chMBPostAheadI\000"
 1190      506F7374 
 1190      41686561 
 1190      644900
 1191 000f 00       		.section	.rodata.__func__.6595,"a",%progbits
 1192              		.align	2
 1193              		.type	__func__.6595, %object
 1194              		.size	__func__.6595, 11
 1195              	__func__.6595:
 1196 0000 63684D42 		.ascii	"chMBFetchS\000"
 1196      46657463 
 1196      685300
 1197 000b 00       		.section	.rodata.__func__.6600,"a",%progbits
 1198              		.align	2
 1199              		.type	__func__.6600, %object
 1200              		.size	__func__.6600, 11
 1201              	__func__.6600:
 1202 0000 63684D42 		.ascii	"chMBFetchI\000"
 1202      46657463 
 1202      684900
 1203 000b 00       		.text
 1204              	.Letext0:
 1205              		.file 6 "c:\\emtechesdk\\gcc\\arm-none-eabi\\include\\stdint.h"
 1206              		.file 7 "../../ChibiOS/os/rt/ports/ARMCMx/compilers/GCC/chtypes.h"
 1207              		.file 8 "../../ChibiOS/os/rt/include/chsystypes.h"
 1208              		.file 9 "../../ChibiOS/os/rt/include/chschd.h"
 1209              		.file 10 "../../ChibiOS/os/rt/ports/ARMCMx/chcore.h"
 1210              		.file 11 "../../ChibiOS/os/rt/include/chdebug.h"
 1211              		.file 12 "../../ChibiOS/os/rt/include/chtm.h"
 1212              		.file 13 "../../ChibiOS/os/rt/include/chstats.h"
 1213              		.file 14 "../../ChibiOS/os/rt/include/chmtx.h"
 1214              		.file 15 "../../ChibiOS/os/rt/include/chmboxes.h"
 1215              		.file 16 "../../ChibiOS/os/ext/CMSIS/include/core_cm4.h"
 1216              		.section	.debug_info,"",%progbits
 1217              	.Ldebug_info0:
 1218 0000 260D0000 		.4byte	0xd26
 1219 0004 0400     		.2byte	0x4
 1220 0006 00000000 		.4byte	.Ldebug_abbrev0
ARM GAS  C:\Users\Luis\AppData\Local\Temp\ccdJOPAF.s 			page 23


 1221 000a 04       		.byte	0x4
 1222 000b 01       		.uleb128 0x1
 1223 000c 5D050000 		.4byte	.LASF153
 1224 0010 01       		.byte	0x1
 1225 0011 FB040000 		.4byte	.LASF154
 1226 0015 7F010000 		.4byte	.LASF155
 1227 0019 00000000 		.4byte	.Ldebug_ranges0+0
 1228 001d 00000000 		.4byte	0
 1229 0021 00000000 		.4byte	.Ldebug_line0
 1230 0025 02       		.uleb128 0x2
 1231 0026 04       		.byte	0x4
 1232 0027 05       		.byte	0x5
 1233 0028 696E7400 		.ascii	"int\000"
 1234 002c 03       		.uleb128 0x3
 1235 002d 04       		.byte	0x4
 1236 002e 07       		.byte	0x7
 1237 002f 52020000 		.4byte	.LASF0
 1238 0033 03       		.uleb128 0x3
 1239 0034 01       		.byte	0x1
 1240 0035 06       		.byte	0x6
 1241 0036 48010000 		.4byte	.LASF1
 1242 003a 04       		.uleb128 0x4
 1243 003b 08070000 		.4byte	.LASF5
 1244 003f 06       		.byte	0x6
 1245 0040 2A       		.byte	0x2a
 1246 0041 45000000 		.4byte	0x45
 1247 0045 03       		.uleb128 0x3
 1248 0046 01       		.byte	0x1
 1249 0047 08       		.byte	0x8
 1250 0048 46040000 		.4byte	.LASF2
 1251 004c 03       		.uleb128 0x3
 1252 004d 02       		.byte	0x2
 1253 004e 05       		.byte	0x5
 1254 004f 72040000 		.4byte	.LASF3
 1255 0053 03       		.uleb128 0x3
 1256 0054 02       		.byte	0x2
 1257 0055 07       		.byte	0x7
 1258 0056 27010000 		.4byte	.LASF4
 1259 005a 04       		.uleb128 0x4
 1260 005b 3E040000 		.4byte	.LASF6
 1261 005f 06       		.byte	0x6
 1262 0060 4F       		.byte	0x4f
 1263 0061 65000000 		.4byte	0x65
 1264 0065 03       		.uleb128 0x3
 1265 0066 04       		.byte	0x4
 1266 0067 05       		.byte	0x5
 1267 0068 C1010000 		.4byte	.LASF7
 1268 006c 04       		.uleb128 0x4
 1269 006d BD060000 		.4byte	.LASF8
 1270 0071 06       		.byte	0x6
 1271 0072 50       		.byte	0x50
 1272 0073 77000000 		.4byte	0x77
 1273 0077 03       		.uleb128 0x3
 1274 0078 04       		.byte	0x4
 1275 0079 07       		.byte	0x7
 1276 007a 46050000 		.4byte	.LASF9
 1277 007e 03       		.uleb128 0x3
ARM GAS  C:\Users\Luis\AppData\Local\Temp\ccdJOPAF.s 			page 24


 1278 007f 08       		.byte	0x8
 1279 0080 05       		.byte	0x5
 1280 0081 3A010000 		.4byte	.LASF10
 1281 0085 04       		.uleb128 0x4
 1282 0086 30000000 		.4byte	.LASF11
 1283 008a 06       		.byte	0x6
 1284 008b 78       		.byte	0x78
 1285 008c 90000000 		.4byte	0x90
 1286 0090 03       		.uleb128 0x3
 1287 0091 08       		.byte	0x8
 1288 0092 07       		.byte	0x7
 1289 0093 AE000000 		.4byte	.LASF12
 1290 0097 05       		.uleb128 0x5
 1291 0098 5A000000 		.4byte	0x5a
 1292 009c 04       		.uleb128 0x4
 1293 009d 9F060000 		.4byte	.LASF13
 1294 00a1 07       		.byte	0x7
 1295 00a2 45       		.byte	0x45
 1296 00a3 6C000000 		.4byte	0x6c
 1297 00a7 04       		.uleb128 0x4
 1298 00a8 17010000 		.4byte	.LASF14
 1299 00ac 07       		.byte	0x7
 1300 00ad 46       		.byte	0x46
 1301 00ae 85000000 		.4byte	0x85
 1302 00b2 04       		.uleb128 0x4
 1303 00b3 0B030000 		.4byte	.LASF15
 1304 00b7 07       		.byte	0x7
 1305 00b8 48       		.byte	0x48
 1306 00b9 3A000000 		.4byte	0x3a
 1307 00bd 04       		.uleb128 0x4
 1308 00be CA010000 		.4byte	.LASF16
 1309 00c2 07       		.byte	0x7
 1310 00c3 49       		.byte	0x49
 1311 00c4 3A000000 		.4byte	0x3a
 1312 00c8 04       		.uleb128 0x4
 1313 00c9 04040000 		.4byte	.LASF17
 1314 00cd 07       		.byte	0x7
 1315 00ce 4A       		.byte	0x4a
 1316 00cf 3A000000 		.4byte	0x3a
 1317 00d3 04       		.uleb128 0x4
 1318 00d4 2D040000 		.4byte	.LASF18
 1319 00d8 07       		.byte	0x7
 1320 00d9 4C       		.byte	0x4c
 1321 00da 6C000000 		.4byte	0x6c
 1322 00de 04       		.uleb128 0x4
 1323 00df DA020000 		.4byte	.LASF19
 1324 00e3 07       		.byte	0x7
 1325 00e4 4D       		.byte	0x4d
 1326 00e5 5A000000 		.4byte	0x5a
 1327 00e9 04       		.uleb128 0x4
 1328 00ea 2C030000 		.4byte	.LASF20
 1329 00ee 07       		.byte	0x7
 1330 00ef 4F       		.byte	0x4f
 1331 00f0 6C000000 		.4byte	0x6c
 1332 00f4 04       		.uleb128 0x4
 1333 00f5 41020000 		.4byte	.LASF21
 1334 00f9 07       		.byte	0x7
ARM GAS  C:\Users\Luis\AppData\Local\Temp\ccdJOPAF.s 			page 25


 1335 00fa 51       		.byte	0x51
 1336 00fb 5A000000 		.4byte	0x5a
 1337 00ff 04       		.uleb128 0x4
 1338 0100 E5020000 		.4byte	.LASF22
 1339 0104 07       		.byte	0x7
 1340 0105 52       		.byte	0x52
 1341 0106 6C000000 		.4byte	0x6c
 1342 010a 04       		.uleb128 0x4
 1343 010b 3B060000 		.4byte	.LASF23
 1344 010f 08       		.byte	0x8
 1345 0110 33       		.byte	0x33
 1346 0111 6C000000 		.4byte	0x6c
 1347 0115 04       		.uleb128 0x4
 1348 0116 F9060000 		.4byte	.LASF24
 1349 011a 08       		.byte	0x8
 1350 011b 3F       		.byte	0x3f
 1351 011c 20010000 		.4byte	0x120
 1352 0120 06       		.uleb128 0x6
 1353 0121 AE020000 		.4byte	.LASF47
 1354 0125 68       		.byte	0x68
 1355 0126 09       		.byte	0x9
 1356 0127 C2       		.byte	0xc2
 1357 0128 33020000 		.4byte	0x233
 1358 012c 07       		.uleb128 0x7
 1359 012d 92040000 		.4byte	.LASF25
 1360 0131 09       		.byte	0x9
 1361 0132 C3       		.byte	0xc3
 1362 0133 3E020000 		.4byte	0x23e
 1363 0137 00       		.byte	0
 1364 0138 07       		.uleb128 0x7
 1365 0139 26040000 		.4byte	.LASF26
 1366 013d 09       		.byte	0x9
 1367 013e C5       		.byte	0xc5
 1368 013f 3E020000 		.4byte	0x23e
 1369 0143 04       		.byte	0x4
 1370 0144 07       		.uleb128 0x7
 1371 0145 20010000 		.4byte	.LASF27
 1372 0149 09       		.byte	0x9
 1373 014a C7       		.byte	0xc7
 1374 014b D3000000 		.4byte	0xd3
 1375 014f 08       		.byte	0x8
 1376 0150 07       		.uleb128 0x7
 1377 0151 73070000 		.4byte	.LASF28
 1378 0155 09       		.byte	0x9
 1379 0156 C8       		.byte	0xc8
 1380 0157 A7040000 		.4byte	0x4a7
 1381 015b 0C       		.byte	0xc
 1382 015c 07       		.uleb128 0x7
 1383 015d D9010000 		.4byte	.LASF29
 1384 0161 09       		.byte	0x9
 1385 0162 CA       		.byte	0xca
 1386 0163 3E020000 		.4byte	0x23e
 1387 0167 10       		.byte	0x10
 1388 0168 07       		.uleb128 0x7
 1389 0169 B4030000 		.4byte	.LASF30
 1390 016d 09       		.byte	0x9
 1391 016e CB       		.byte	0xcb
ARM GAS  C:\Users\Luis\AppData\Local\Temp\ccdJOPAF.s 			page 26


 1392 016f 3E020000 		.4byte	0x23e
 1393 0173 14       		.byte	0x14
 1394 0174 07       		.uleb128 0x7
 1395 0175 17070000 		.4byte	.LASF31
 1396 0179 09       		.byte	0x9
 1397 017a D2       		.byte	0xd2
 1398 017b 4B070000 		.4byte	0x74b
 1399 017f 18       		.byte	0x18
 1400 0180 07       		.uleb128 0x7
 1401 0181 47020000 		.4byte	.LASF32
 1402 0185 09       		.byte	0x9
 1403 0186 D8       		.byte	0xd8
 1404 0187 5D070000 		.4byte	0x75d
 1405 018b 1C       		.byte	0x1c
 1406 018c 07       		.uleb128 0x7
 1407 018d 7C040000 		.4byte	.LASF33
 1408 0191 09       		.byte	0x9
 1409 0192 DD       		.byte	0xdd
 1410 0193 BD000000 		.4byte	0xbd
 1411 0197 20       		.byte	0x20
 1412 0198 07       		.uleb128 0x7
 1413 0199 99040000 		.4byte	.LASF34
 1414 019d 09       		.byte	0x9
 1415 019e E1       		.byte	0xe1
 1416 019f B2000000 		.4byte	0xb2
 1417 01a3 21       		.byte	0x21
 1418 01a4 07       		.uleb128 0x7
 1419 01a5 EA060000 		.4byte	.LASF35
 1420 01a9 09       		.byte	0x9
 1421 01aa E6       		.byte	0xe6
 1422 01ab C8000000 		.4byte	0xc8
 1423 01af 22       		.byte	0x22
 1424 01b0 08       		.uleb128 0x8
 1425 01b1 705F7500 		.ascii	"p_u\000"
 1426 01b5 09       		.byte	0x9
 1427 01b6 3101     		.2byte	0x131
 1428 01b8 86060000 		.4byte	0x686
 1429 01bc 24       		.byte	0x24
 1430 01bd 09       		.uleb128 0x9
 1431 01be 48030000 		.4byte	.LASF36
 1432 01c2 09       		.byte	0x9
 1433 01c3 3601     		.2byte	0x136
 1434 01c5 44020000 		.4byte	0x244
 1435 01c9 28       		.byte	0x28
 1436 01ca 09       		.uleb128 0x9
 1437 01cb 6E020000 		.4byte	.LASF37
 1438 01cf 09       		.byte	0x9
 1439 01d0 3C01     		.2byte	0x13c
 1440 01d2 68020000 		.4byte	0x268
 1441 01d6 2C       		.byte	0x2c
 1442 01d7 09       		.uleb128 0x9
 1443 01d8 46070000 		.4byte	.LASF38
 1444 01dc 09       		.byte	0x9
 1445 01dd 4001     		.2byte	0x140
 1446 01df DE000000 		.4byte	0xde
 1447 01e3 34       		.byte	0x34
 1448 01e4 09       		.uleb128 0x9
ARM GAS  C:\Users\Luis\AppData\Local\Temp\ccdJOPAF.s 			page 27


 1449 01e5 F0040000 		.4byte	.LASF39
 1450 01e9 09       		.byte	0x9
 1451 01ea 4601     		.2byte	0x146
 1452 01ec E9000000 		.4byte	0xe9
 1453 01f0 38       		.byte	0x38
 1454 01f1 09       		.uleb128 0x9
 1455 01f2 68040000 		.4byte	.LASF40
 1456 01f6 09       		.byte	0x9
 1457 01f7 4D01     		.2byte	0x14d
 1458 01f9 45070000 		.4byte	0x745
 1459 01fd 3C       		.byte	0x3c
 1460 01fe 09       		.uleb128 0x9
 1461 01ff 45060000 		.4byte	.LASF41
 1462 0203 09       		.byte	0x9
 1463 0204 5101     		.2byte	0x151
 1464 0206 D3000000 		.4byte	0xd3
 1465 020a 40       		.byte	0x40
 1466 020b 09       		.uleb128 0x9
 1467 020c 5C010000 		.4byte	.LASF42
 1468 0210 09       		.byte	0x9
 1469 0211 5801     		.2byte	0x158
 1470 0213 1B030000 		.4byte	0x31b
 1471 0217 44       		.byte	0x44
 1472 0218 09       		.uleb128 0x9
 1473 0219 AA040000 		.4byte	.LASF43
 1474 021d 09       		.byte	0x9
 1475 021e 5E01     		.2byte	0x15e
 1476 0220 37060000 		.4byte	0x637
 1477 0224 48       		.byte	0x48
 1478 0225 09       		.uleb128 0x9
 1479 0226 81020000 		.4byte	.LASF44
 1480 022a 09       		.byte	0x9
 1481 022b 6201     		.2byte	0x162
 1482 022d 1B030000 		.4byte	0x31b
 1483 0231 60       		.byte	0x60
 1484 0232 00       		.byte	0
 1485 0233 04       		.uleb128 0x4
 1486 0234 5B030000 		.4byte	.LASF45
 1487 0238 08       		.byte	0x8
 1488 0239 44       		.byte	0x44
 1489 023a 3E020000 		.4byte	0x23e
 1490 023e 0A       		.uleb128 0xa
 1491 023f 04       		.byte	0x4
 1492 0240 15010000 		.4byte	0x115
 1493 0244 04       		.uleb128 0x4
 1494 0245 1E070000 		.4byte	.LASF46
 1495 0249 08       		.byte	0x8
 1496 024a 49       		.byte	0x49
 1497 024b 4F020000 		.4byte	0x24f
 1498 024f 06       		.uleb128 0x6
 1499 0250 36050000 		.4byte	.LASF48
 1500 0254 04       		.byte	0x4
 1501 0255 09       		.byte	0x9
 1502 0256 B0       		.byte	0xb0
 1503 0257 68020000 		.4byte	0x268
 1504 025b 07       		.uleb128 0x7
 1505 025c 92040000 		.4byte	.LASF25
ARM GAS  C:\Users\Luis\AppData\Local\Temp\ccdJOPAF.s 			page 28


 1506 0260 09       		.byte	0x9
 1507 0261 B1       		.byte	0xb1
 1508 0262 3E020000 		.4byte	0x23e
 1509 0266 00       		.byte	0
 1510 0267 00       		.byte	0
 1511 0268 04       		.uleb128 0x4
 1512 0269 D1060000 		.4byte	.LASF49
 1513 026d 08       		.byte	0x8
 1514 026e 50       		.byte	0x50
 1515 026f 73020000 		.4byte	0x273
 1516 0273 06       		.uleb128 0x6
 1517 0274 5C000000 		.4byte	.LASF50
 1518 0278 08       		.byte	0x8
 1519 0279 09       		.byte	0x9
 1520 027a B7       		.byte	0xb7
 1521 027b 98020000 		.4byte	0x298
 1522 027f 07       		.uleb128 0x7
 1523 0280 92040000 		.4byte	.LASF25
 1524 0284 09       		.byte	0x9
 1525 0285 B8       		.byte	0xb8
 1526 0286 3E020000 		.4byte	0x23e
 1527 028a 00       		.byte	0
 1528 028b 07       		.uleb128 0x7
 1529 028c 26040000 		.4byte	.LASF26
 1530 0290 09       		.byte	0x9
 1531 0291 B9       		.byte	0xb9
 1532 0292 3E020000 		.4byte	0x23e
 1533 0296 04       		.byte	0x4
 1534 0297 00       		.byte	0
 1535 0298 04       		.uleb128 0x4
 1536 0299 07000000 		.4byte	.LASF51
 1537 029d 08       		.byte	0x8
 1538 029e 57       		.byte	0x57
 1539 029f A3020000 		.4byte	0x2a3
 1540 02a3 0B       		.uleb128 0xb
 1541 02a4 1E030000 		.4byte	.LASF52
 1542 02a8 1C       		.byte	0x1c
 1543 02a9 09       		.byte	0x9
 1544 02aa 9001     		.2byte	0x190
 1545 02ac FF020000 		.4byte	0x2ff
 1546 02b0 09       		.uleb128 0x9
 1547 02b1 25050000 		.4byte	.LASF53
 1548 02b5 09       		.byte	0x9
 1549 02b6 9101     		.2byte	0x191
 1550 02b8 68020000 		.4byte	0x268
 1551 02bc 00       		.byte	0
 1552 02bd 09       		.uleb128 0x9
 1553 02be 84040000 		.4byte	.LASF54
 1554 02c2 09       		.byte	0x9
 1555 02c3 9201     		.2byte	0x192
 1556 02c5 D3000000 		.4byte	0xd3
 1557 02c9 08       		.byte	0x8
 1558 02ca 09       		.uleb128 0x9
 1559 02cb BC030000 		.4byte	.LASF55
 1560 02cf 09       		.byte	0x9
 1561 02d0 9401     		.2byte	0x194
 1562 02d2 A7040000 		.4byte	0x4a7
ARM GAS  C:\Users\Luis\AppData\Local\Temp\ccdJOPAF.s 			page 29


 1563 02d6 0C       		.byte	0xc
 1564 02d7 09       		.uleb128 0x9
 1565 02d8 EC020000 		.4byte	.LASF56
 1566 02dc 09       		.byte	0x9
 1567 02dd 9701     		.2byte	0x197
 1568 02df 3E020000 		.4byte	0x23e
 1569 02e3 10       		.byte	0x10
 1570 02e4 09       		.uleb128 0x9
 1571 02e5 F1030000 		.4byte	.LASF57
 1572 02e9 09       		.byte	0x9
 1573 02ea 9801     		.2byte	0x198
 1574 02ec 3E020000 		.4byte	0x23e
 1575 02f0 14       		.byte	0x14
 1576 02f1 09       		.uleb128 0x9
 1577 02f2 E7030000 		.4byte	.LASF58
 1578 02f6 09       		.byte	0x9
 1579 02f7 9B01     		.2byte	0x19b
 1580 02f9 3E020000 		.4byte	0x23e
 1581 02fd 18       		.byte	0x18
 1582 02fe 00       		.byte	0
 1583 02ff 04       		.uleb128 0x4
 1584 0300 50060000 		.4byte	.LASF59
 1585 0304 08       		.byte	0x8
 1586 0305 5C       		.byte	0x5c
 1587 0306 0A030000 		.4byte	0x30a
 1588 030a 0A       		.uleb128 0xa
 1589 030b 04       		.byte	0x4
 1590 030c 10030000 		.4byte	0x310
 1591 0310 0C       		.uleb128 0xc
 1592 0311 1B030000 		.4byte	0x31b
 1593 0315 0D       		.uleb128 0xd
 1594 0316 1B030000 		.4byte	0x31b
 1595 031a 00       		.byte	0
 1596 031b 0E       		.uleb128 0xe
 1597 031c 04       		.byte	0x4
 1598 031d 04       		.uleb128 0x4
 1599 031e 16040000 		.4byte	.LASF60
 1600 0322 08       		.byte	0x8
 1601 0323 61       		.byte	0x61
 1602 0324 28030000 		.4byte	0x328
 1603 0328 0B       		.uleb128 0xb
 1604 0329 D2040000 		.4byte	.LASF61
 1605 032d 14       		.byte	0x14
 1606 032e 09       		.byte	0x9
 1607 032f 6B01     		.2byte	0x16b
 1608 0331 77030000 		.4byte	0x377
 1609 0335 09       		.uleb128 0x9
 1610 0336 5F020000 		.4byte	.LASF62
 1611 033a 09       		.byte	0x9
 1612 033b 6C01     		.2byte	0x16c
 1613 033d 63070000 		.4byte	0x763
 1614 0341 00       		.byte	0
 1615 0342 09       		.uleb128 0x9
 1616 0343 03020000 		.4byte	.LASF63
 1617 0347 09       		.byte	0x9
 1618 0348 6D01     		.2byte	0x16d
 1619 034a 63070000 		.4byte	0x763
ARM GAS  C:\Users\Luis\AppData\Local\Temp\ccdJOPAF.s 			page 30


 1620 034e 04       		.byte	0x4
 1621 034f 09       		.uleb128 0x9
 1622 0350 2D050000 		.4byte	.LASF64
 1623 0354 09       		.byte	0x9
 1624 0355 6E01     		.2byte	0x16e
 1625 0357 0A010000 		.4byte	0x10a
 1626 035b 08       		.byte	0x8
 1627 035c 09       		.uleb128 0x9
 1628 035d 79070000 		.4byte	.LASF65
 1629 0361 09       		.byte	0x9
 1630 0362 6F01     		.2byte	0x16f
 1631 0364 FF020000 		.4byte	0x2ff
 1632 0368 0C       		.byte	0xc
 1633 0369 09       		.uleb128 0x9
 1634 036a A7060000 		.4byte	.LASF66
 1635 036e 09       		.byte	0x9
 1636 036f 7101     		.2byte	0x171
 1637 0371 1B030000 		.4byte	0x31b
 1638 0375 10       		.byte	0x10
 1639 0376 00       		.byte	0
 1640 0377 04       		.uleb128 0x4
 1641 0378 F8000000 		.4byte	.LASF67
 1642 037c 08       		.byte	0x8
 1643 037d 66       		.byte	0x66
 1644 037e 82030000 		.4byte	0x382
 1645 0382 0B       		.uleb128 0xb
 1646 0383 6E030000 		.4byte	.LASF68
 1647 0387 10       		.byte	0x10
 1648 0388 09       		.byte	0x9
 1649 0389 7B01     		.2byte	0x17b
 1650 038b C4030000 		.4byte	0x3c4
 1651 038f 09       		.uleb128 0x9
 1652 0390 5F020000 		.4byte	.LASF62
 1653 0394 09       		.byte	0x9
 1654 0395 7C01     		.2byte	0x17c
 1655 0397 63070000 		.4byte	0x763
 1656 039b 00       		.byte	0
 1657 039c 09       		.uleb128 0x9
 1658 039d 03020000 		.4byte	.LASF63
 1659 03a1 09       		.byte	0x9
 1660 03a2 7E01     		.2byte	0x17e
 1661 03a4 63070000 		.4byte	0x763
 1662 03a8 04       		.byte	0x4
 1663 03a9 09       		.uleb128 0x9
 1664 03aa 2D050000 		.4byte	.LASF64
 1665 03ae 09       		.byte	0x9
 1666 03af 8001     		.2byte	0x180
 1667 03b1 0A010000 		.4byte	0x10a
 1668 03b5 08       		.byte	0x8
 1669 03b6 09       		.uleb128 0x9
 1670 03b7 A8030000 		.4byte	.LASF69
 1671 03bb 09       		.byte	0x9
 1672 03bc 8801     		.2byte	0x188
 1673 03be 0A010000 		.4byte	0x10a
 1674 03c2 0C       		.byte	0xc
 1675 03c3 00       		.byte	0
 1676 03c4 04       		.uleb128 0x4
ARM GAS  C:\Users\Luis\AppData\Local\Temp\ccdJOPAF.s 			page 31


 1677 03c5 6D000000 		.4byte	.LASF70
 1678 03c9 08       		.byte	0x8
 1679 03ca 6B       		.byte	0x6b
 1680 03cb CF030000 		.4byte	0x3cf
 1681 03cf 0F       		.uleb128 0xf
 1682 03d0 0B020000 		.4byte	.LASF71
 1683 03d4 1404     		.2byte	0x414
 1684 03d6 09       		.byte	0x9
 1685 03d7 A201     		.2byte	0x1a2
 1686 03d9 12040000 		.4byte	0x412
 1687 03dd 09       		.uleb128 0x9
 1688 03de 78060000 		.4byte	.LASF72
 1689 03e2 09       		.byte	0x9
 1690 03e3 AA01     		.2byte	0x1aa
 1691 03e5 69070000 		.4byte	0x769
 1692 03e9 00       		.byte	0
 1693 03ea 09       		.uleb128 0x9
 1694 03eb F1060000 		.4byte	.LASF73
 1695 03ef 09       		.byte	0x9
 1696 03f0 AF01     		.2byte	0x1af
 1697 03f2 F4000000 		.4byte	0xf4
 1698 03f6 04       		.byte	0x4
 1699 03f7 09       		.uleb128 0x9
 1700 03f8 29020000 		.4byte	.LASF74
 1701 03fc 09       		.byte	0x9
 1702 03fd B301     		.2byte	0x1b3
 1703 03ff F4000000 		.4byte	0xf4
 1704 0403 08       		.byte	0x8
 1705 0404 09       		.uleb128 0x9
 1706 0405 2D070000 		.4byte	.LASF75
 1707 0409 09       		.byte	0x9
 1708 040a B901     		.2byte	0x1b9
 1709 040c C9050000 		.4byte	0x5c9
 1710 0410 0C       		.byte	0xc
 1711 0411 00       		.byte	0
 1712 0412 04       		.uleb128 0x4
 1713 0413 F4020000 		.4byte	.LASF76
 1714 0417 08       		.byte	0x8
 1715 0418 70       		.byte	0x70
 1716 0419 1D040000 		.4byte	0x41d
 1717 041d 0F       		.uleb128 0xf
 1718 041e BC040000 		.4byte	.LASF77
 1719 0422 E805     		.2byte	0x5e8
 1720 0424 09       		.byte	0x9
 1721 0425 C201     		.2byte	0x1c2
 1722 0427 8A040000 		.4byte	0x48a
 1723 042b 09       		.uleb128 0x9
 1724 042c 02070000 		.4byte	.LASF78
 1725 0430 09       		.byte	0x9
 1726 0431 C601     		.2byte	0x1c6
 1727 0433 98020000 		.4byte	0x298
 1728 0437 00       		.byte	0
 1729 0438 09       		.uleb128 0x9
 1730 0439 6C010000 		.4byte	.LASF79
 1731 043d 09       		.byte	0x9
 1732 043e CA01     		.2byte	0x1ca
 1733 0440 77030000 		.4byte	0x377
ARM GAS  C:\Users\Luis\AppData\Local\Temp\ccdJOPAF.s 			page 32


 1734 0444 1C       		.byte	0x1c
 1735 0445 08       		.uleb128 0x8
 1736 0446 64626700 		.ascii	"dbg\000"
 1737 044a 09       		.byte	0x9
 1738 044b CE01     		.2byte	0x1ce
 1739 044d C4030000 		.4byte	0x3c4
 1740 0451 2C       		.byte	0x2c
 1741 0452 10       		.uleb128 0x10
 1742 0453 C4020000 		.4byte	.LASF80
 1743 0457 09       		.byte	0x9
 1744 0458 D201     		.2byte	0x1d2
 1745 045a 15010000 		.4byte	0x115
 1746 045e 4004     		.2byte	0x440
 1747 0460 11       		.uleb128 0x11
 1748 0461 746D00   		.ascii	"tm\000"
 1749 0464 09       		.byte	0x9
 1750 0465 D701     		.2byte	0x1d7
 1751 0467 E9050000 		.4byte	0x5e9
 1752 046b A804     		.2byte	0x4a8
 1753 046d 10       		.uleb128 0x10
 1754 046e 39000000 		.4byte	.LASF81
 1755 0472 09       		.byte	0x9
 1756 0473 DD01     		.2byte	0x1dd
 1757 0475 7B060000 		.4byte	0x67b
 1758 0479 B004     		.2byte	0x4b0
 1759 047b 10       		.uleb128 0x10
 1760 047c 32020000 		.4byte	.LASF82
 1761 0480 09       		.byte	0x9
 1762 0481 E301     		.2byte	0x1e3
 1763 0483 6E070000 		.4byte	0x76e
 1764 0487 E804     		.2byte	0x4e8
 1765 0489 00       		.byte	0
 1766 048a 03       		.uleb128 0x3
 1767 048b 04       		.byte	0x4
 1768 048c 07       		.byte	0x7
 1769 048d 52030000 		.4byte	.LASF83
 1770 0491 04       		.uleb128 0x4
 1771 0492 FA010000 		.4byte	.LASF84
 1772 0496 0A       		.byte	0xa
 1773 0497 65       		.byte	0x65
 1774 0498 1B030000 		.4byte	0x31b
 1775 049c 04       		.uleb128 0x4
 1776 049d 3D030000 		.4byte	.LASF85
 1777 04a1 0A       		.byte	0xa
 1778 04a2 6D       		.byte	0x6d
 1779 04a3 85000000 		.4byte	0x85
 1780 04a7 06       		.uleb128 0x6
 1781 04a8 89060000 		.4byte	.LASF86
 1782 04ac 04       		.byte	0x4
 1783 04ad 0A       		.byte	0xa
 1784 04ae 89       		.byte	0x89
 1785 04af C0040000 		.4byte	0x4c0
 1786 04b3 12       		.uleb128 0x12
 1787 04b4 72313300 		.ascii	"r13\000"
 1788 04b8 0A       		.byte	0xa
 1789 04b9 8A       		.byte	0x8a
 1790 04ba 3B050000 		.4byte	0x53b
ARM GAS  C:\Users\Luis\AppData\Local\Temp\ccdJOPAF.s 			page 33


 1791 04be 00       		.byte	0
 1792 04bf 00       		.byte	0
 1793 04c0 06       		.uleb128 0x6
 1794 04c1 50000000 		.4byte	.LASF87
 1795 04c5 24       		.byte	0x24
 1796 04c6 01       		.byte	0x1
 1797 04c7 F4       		.byte	0xf4
 1798 04c8 3B050000 		.4byte	0x53b
 1799 04cc 08       		.uleb128 0x8
 1800 04cd 723400   		.ascii	"r4\000"
 1801 04d0 01       		.byte	0x1
 1802 04d1 0701     		.2byte	0x107
 1803 04d3 91040000 		.4byte	0x491
 1804 04d7 00       		.byte	0
 1805 04d8 08       		.uleb128 0x8
 1806 04d9 723500   		.ascii	"r5\000"
 1807 04dc 01       		.byte	0x1
 1808 04dd 0801     		.2byte	0x108
 1809 04df 91040000 		.4byte	0x491
 1810 04e3 04       		.byte	0x4
 1811 04e4 08       		.uleb128 0x8
 1812 04e5 723600   		.ascii	"r6\000"
 1813 04e8 01       		.byte	0x1
 1814 04e9 0901     		.2byte	0x109
 1815 04eb 91040000 		.4byte	0x491
 1816 04ef 08       		.byte	0x8
 1817 04f0 08       		.uleb128 0x8
 1818 04f1 723700   		.ascii	"r7\000"
 1819 04f4 01       		.byte	0x1
 1820 04f5 0A01     		.2byte	0x10a
 1821 04f7 91040000 		.4byte	0x491
 1822 04fb 0C       		.byte	0xc
 1823 04fc 08       		.uleb128 0x8
 1824 04fd 723800   		.ascii	"r8\000"
 1825 0500 01       		.byte	0x1
 1826 0501 0B01     		.2byte	0x10b
 1827 0503 91040000 		.4byte	0x491
 1828 0507 10       		.byte	0x10
 1829 0508 08       		.uleb128 0x8
 1830 0509 723900   		.ascii	"r9\000"
 1831 050c 01       		.byte	0x1
 1832 050d 0C01     		.2byte	0x10c
 1833 050f 91040000 		.4byte	0x491
 1834 0513 14       		.byte	0x14
 1835 0514 08       		.uleb128 0x8
 1836 0515 72313000 		.ascii	"r10\000"
 1837 0519 01       		.byte	0x1
 1838 051a 0D01     		.2byte	0x10d
 1839 051c 91040000 		.4byte	0x491
 1840 0520 18       		.byte	0x18
 1841 0521 08       		.uleb128 0x8
 1842 0522 72313100 		.ascii	"r11\000"
 1843 0526 01       		.byte	0x1
 1844 0527 0E01     		.2byte	0x10e
 1845 0529 91040000 		.4byte	0x491
 1846 052d 1C       		.byte	0x1c
 1847 052e 08       		.uleb128 0x8
ARM GAS  C:\Users\Luis\AppData\Local\Temp\ccdJOPAF.s 			page 34


 1848 052f 6C7200   		.ascii	"lr\000"
 1849 0532 01       		.byte	0x1
 1850 0533 0F01     		.2byte	0x10f
 1851 0535 91040000 		.4byte	0x491
 1852 0539 20       		.byte	0x20
 1853 053a 00       		.byte	0
 1854 053b 0A       		.uleb128 0xa
 1855 053c 04       		.byte	0x4
 1856 053d C0040000 		.4byte	0x4c0
 1857 0541 13       		.uleb128 0x13
 1858 0542 10       		.byte	0x10
 1859 0543 0B       		.byte	0xb
 1860 0544 51       		.byte	0x51
 1861 0545 7A050000 		.4byte	0x57a
 1862 0549 07       		.uleb128 0x7
 1863 054a 54010000 		.4byte	.LASF88
 1864 054e 0B       		.byte	0xb
 1865 054f 55       		.byte	0x55
 1866 0550 0A010000 		.4byte	0x10a
 1867 0554 00       		.byte	0
 1868 0555 07       		.uleb128 0x7
 1869 0556 D3010000 		.4byte	.LASF89
 1870 055a 0B       		.byte	0xb
 1871 055b 59       		.byte	0x59
 1872 055c 3E020000 		.4byte	0x23e
 1873 0560 04       		.byte	0x4
 1874 0561 07       		.uleb128 0x7
 1875 0562 69070000 		.4byte	.LASF90
 1876 0566 0B       		.byte	0xb
 1877 0567 5D       		.byte	0x5d
 1878 0568 1B030000 		.4byte	0x31b
 1879 056c 08       		.byte	0x8
 1880 056d 07       		.uleb128 0x7
 1881 056e D7000000 		.4byte	.LASF91
 1882 0572 0B       		.byte	0xb
 1883 0573 61       		.byte	0x61
 1884 0574 3A000000 		.4byte	0x3a
 1885 0578 0C       		.byte	0xc
 1886 0579 00       		.byte	0
 1887 057a 04       		.uleb128 0x4
 1888 057b 99030000 		.4byte	.LASF92
 1889 057f 0B       		.byte	0xb
 1890 0580 62       		.byte	0x62
 1891 0581 41050000 		.4byte	0x541
 1892 0585 14       		.uleb128 0x14
 1893 0586 0804     		.2byte	0x408
 1894 0588 0B       		.byte	0xb
 1895 0589 67       		.byte	0x67
 1896 058a B3050000 		.4byte	0x5b3
 1897 058e 07       		.uleb128 0x7
 1898 058f E9010000 		.4byte	.LASF93
 1899 0593 0B       		.byte	0xb
 1900 0594 6B       		.byte	0x6b
 1901 0595 2C000000 		.4byte	0x2c
 1902 0599 00       		.byte	0
 1903 059a 07       		.uleb128 0x7
 1904 059b 00000000 		.4byte	.LASF94
ARM GAS  C:\Users\Luis\AppData\Local\Temp\ccdJOPAF.s 			page 35


 1905 059f 0B       		.byte	0xb
 1906 05a0 6F       		.byte	0x6f
 1907 05a1 B3050000 		.4byte	0x5b3
 1908 05a5 04       		.byte	0x4
 1909 05a6 07       		.uleb128 0x7
 1910 05a7 0C040000 		.4byte	.LASF95
 1911 05ab 0B       		.byte	0xb
 1912 05ac 73       		.byte	0x73
 1913 05ad B9050000 		.4byte	0x5b9
 1914 05b1 08       		.byte	0x8
 1915 05b2 00       		.byte	0
 1916 05b3 0A       		.uleb128 0xa
 1917 05b4 04       		.byte	0x4
 1918 05b5 7A050000 		.4byte	0x57a
 1919 05b9 15       		.uleb128 0x15
 1920 05ba 7A050000 		.4byte	0x57a
 1921 05be C9050000 		.4byte	0x5c9
 1922 05c2 16       		.uleb128 0x16
 1923 05c3 8A040000 		.4byte	0x48a
 1924 05c7 3F       		.byte	0x3f
 1925 05c8 00       		.byte	0
 1926 05c9 04       		.uleb128 0x4
 1927 05ca C5000000 		.4byte	.LASF96
 1928 05ce 0B       		.byte	0xb
 1929 05cf 74       		.byte	0x74
 1930 05d0 85050000 		.4byte	0x585
 1931 05d4 13       		.uleb128 0x13
 1932 05d5 04       		.byte	0x4
 1933 05d6 0C       		.byte	0xc
 1934 05d7 38       		.byte	0x38
 1935 05d8 E9050000 		.4byte	0x5e9
 1936 05dc 07       		.uleb128 0x7
 1937 05dd 82060000 		.4byte	.LASF97
 1938 05e1 0C       		.byte	0xc
 1939 05e2 3C       		.byte	0x3c
 1940 05e3 9C000000 		.4byte	0x9c
 1941 05e7 00       		.byte	0
 1942 05e8 00       		.byte	0
 1943 05e9 04       		.uleb128 0x4
 1944 05ea CC030000 		.4byte	.LASF98
 1945 05ee 0C       		.byte	0xc
 1946 05ef 3D       		.byte	0x3d
 1947 05f0 D4050000 		.4byte	0x5d4
 1948 05f4 13       		.uleb128 0x13
 1949 05f5 18       		.byte	0x18
 1950 05f6 0C       		.byte	0xc
 1951 05f7 48       		.byte	0x48
 1952 05f8 37060000 		.4byte	0x637
 1953 05fc 07       		.uleb128 0x7
 1954 05fd 2F060000 		.4byte	.LASF99
 1955 0601 0C       		.byte	0xc
 1956 0602 49       		.byte	0x49
 1957 0603 9C000000 		.4byte	0x9c
 1958 0607 00       		.byte	0
 1959 0608 07       		.uleb128 0x7
 1960 0609 86000000 		.4byte	.LASF100
 1961 060d 0C       		.byte	0xc
ARM GAS  C:\Users\Luis\AppData\Local\Temp\ccdJOPAF.s 			page 36


 1962 060e 4A       		.byte	0x4a
 1963 060f 9C000000 		.4byte	0x9c
 1964 0613 04       		.byte	0x4
 1965 0614 07       		.uleb128 0x7
 1966 0615 E0020000 		.4byte	.LASF101
 1967 0619 0C       		.byte	0xc
 1968 061a 4B       		.byte	0x4b
 1969 061b 9C000000 		.4byte	0x9c
 1970 061f 08       		.byte	0x8
 1971 0620 12       		.uleb128 0x12
 1972 0621 6E00     		.ascii	"n\000"
 1973 0623 0C       		.byte	0xc
 1974 0624 4C       		.byte	0x4c
 1975 0625 FF000000 		.4byte	0xff
 1976 0629 0C       		.byte	0xc
 1977 062a 07       		.uleb128 0x7
 1978 062b F9030000 		.4byte	.LASF102
 1979 062f 0C       		.byte	0xc
 1980 0630 4D       		.byte	0x4d
 1981 0631 A7000000 		.4byte	0xa7
 1982 0635 10       		.byte	0x10
 1983 0636 00       		.byte	0
 1984 0637 04       		.uleb128 0x4
 1985 0638 8C000000 		.4byte	.LASF103
 1986 063c 0C       		.byte	0xc
 1987 063d 4E       		.byte	0x4e
 1988 063e F4050000 		.4byte	0x5f4
 1989 0642 13       		.uleb128 0x13
 1990 0643 38       		.byte	0x38
 1991 0644 0D       		.byte	0xd
 1992 0645 38       		.byte	0x38
 1993 0646 7B060000 		.4byte	0x67b
 1994 064a 07       		.uleb128 0x7
 1995 064b 88020000 		.4byte	.LASF104
 1996 064f 0D       		.byte	0xd
 1997 0650 39       		.byte	0x39
 1998 0651 FF000000 		.4byte	0xff
 1999 0655 00       		.byte	0
 2000 0656 07       		.uleb128 0x7
 2001 0657 35040000 		.4byte	.LASF105
 2002 065b 0D       		.byte	0xd
 2003 065c 3A       		.byte	0x3a
 2004 065d FF000000 		.4byte	0xff
 2005 0661 04       		.byte	0x4
 2006 0662 07       		.uleb128 0x7
 2007 0663 56070000 		.4byte	.LASF106
 2008 0667 0D       		.byte	0xd
 2009 0668 3B       		.byte	0x3b
 2010 0669 37060000 		.4byte	0x637
 2011 066d 08       		.byte	0x8
 2012 066e 07       		.uleb128 0x7
 2013 066f 13030000 		.4byte	.LASF107
 2014 0673 0D       		.byte	0xd
 2015 0674 3D       		.byte	0x3d
 2016 0675 37060000 		.4byte	0x637
 2017 0679 20       		.byte	0x20
 2018 067a 00       		.byte	0
ARM GAS  C:\Users\Luis\AppData\Local\Temp\ccdJOPAF.s 			page 37


 2019 067b 04       		.uleb128 0x4
 2020 067c 9F020000 		.4byte	.LASF108
 2021 0680 0D       		.byte	0xd
 2022 0681 3F       		.byte	0x3f
 2023 0682 42060000 		.4byte	0x642
 2024 0686 17       		.uleb128 0x17
 2025 0687 04       		.byte	0x4
 2026 0688 09       		.byte	0x9
 2027 0689 FA       		.byte	0xfa
 2028 068a E3060000 		.4byte	0x6e3
 2029 068e 18       		.uleb128 0x18
 2030 068f 29000000 		.4byte	.LASF109
 2031 0693 09       		.byte	0x9
 2032 0694 0101     		.2byte	0x101
 2033 0696 DE000000 		.4byte	0xde
 2034 069a 18       		.uleb128 0x18
 2035 069b E0000000 		.4byte	.LASF110
 2036 069f 09       		.byte	0x9
 2037 06a0 0801     		.2byte	0x108
 2038 06a2 DE000000 		.4byte	0xde
 2039 06a6 18       		.uleb128 0x18
 2040 06a7 10070000 		.4byte	.LASF111
 2041 06ab 09       		.byte	0x9
 2042 06ac 0F01     		.2byte	0x10f
 2043 06ae 1B030000 		.4byte	0x31b
 2044 06b2 18       		.uleb128 0x18
 2045 06b3 23000000 		.4byte	.LASF112
 2046 06b7 09       		.byte	0x9
 2047 06b8 1601     		.2byte	0x116
 2048 06ba E3060000 		.4byte	0x6e3
 2049 06be 18       		.uleb128 0x18
 2050 06bf 67020000 		.4byte	.LASF113
 2051 06c3 09       		.byte	0x9
 2052 06c4 1E01     		.2byte	0x11e
 2053 06c6 0E070000 		.4byte	0x70e
 2054 06ca 18       		.uleb128 0x18
 2055 06cb 1E050000 		.4byte	.LASF114
 2056 06cf 09       		.byte	0x9
 2057 06d0 2701     		.2byte	0x127
 2058 06d2 45070000 		.4byte	0x745
 2059 06d6 18       		.uleb128 0x18
 2060 06d7 8B040000 		.4byte	.LASF115
 2061 06db 09       		.byte	0x9
 2062 06dc 2F01     		.2byte	0x12f
 2063 06de E9000000 		.4byte	0xe9
 2064 06e2 00       		.byte	0
 2065 06e3 0A       		.uleb128 0xa
 2066 06e4 04       		.byte	0x4
 2067 06e5 33020000 		.4byte	0x233
 2068 06e9 06       		.uleb128 0x6
 2069 06ea E3040000 		.4byte	.LASF116
 2070 06ee 0C       		.byte	0xc
 2071 06ef 04       		.byte	0x4
 2072 06f0 34       		.byte	0x34
 2073 06f1 0E070000 		.4byte	0x70e
 2074 06f5 07       		.uleb128 0x7
 2075 06f6 E1010000 		.4byte	.LASF117
ARM GAS  C:\Users\Luis\AppData\Local\Temp\ccdJOPAF.s 			page 38


 2076 06fa 04       		.byte	0x4
 2077 06fb 35       		.byte	0x35
 2078 06fc 68020000 		.4byte	0x268
 2079 0700 00       		.byte	0
 2080 0701 07       		.uleb128 0x7
 2081 0702 8E020000 		.4byte	.LASF118
 2082 0706 04       		.byte	0x4
 2083 0707 37       		.byte	0x37
 2084 0708 F4000000 		.4byte	0xf4
 2085 070c 08       		.byte	0x8
 2086 070d 00       		.byte	0
 2087 070e 0A       		.uleb128 0xa
 2088 070f 04       		.byte	0x4
 2089 0710 E9060000 		.4byte	0x6e9
 2090 0714 06       		.uleb128 0x6
 2091 0715 E1060000 		.4byte	.LASF119
 2092 0719 10       		.byte	0x10
 2093 071a 0E       		.byte	0xe
 2094 071b 39       		.byte	0x39
 2095 071c 45070000 		.4byte	0x745
 2096 0720 07       		.uleb128 0x7
 2097 0721 64010000 		.4byte	.LASF120
 2098 0725 0E       		.byte	0xe
 2099 0726 3A       		.byte	0x3a
 2100 0727 68020000 		.4byte	0x268
 2101 072b 00       		.byte	0
 2102 072c 07       		.uleb128 0x7
 2103 072d 61070000 		.4byte	.LASF121
 2104 0731 0E       		.byte	0xe
 2105 0732 3C       		.byte	0x3c
 2106 0733 3E020000 		.4byte	0x23e
 2107 0737 08       		.byte	0x8
 2108 0738 07       		.uleb128 0x7
 2109 0739 34060000 		.4byte	.LASF122
 2110 073d 0E       		.byte	0xe
 2111 073e 3E       		.byte	0x3e
 2112 073f 94070000 		.4byte	0x794
 2113 0743 0C       		.byte	0xc
 2114 0744 00       		.byte	0
 2115 0745 0A       		.uleb128 0xa
 2116 0746 04       		.byte	0x4
 2117 0747 14070000 		.4byte	0x714
 2118 074b 0A       		.uleb128 0xa
 2119 074c 04       		.byte	0x4
 2120 074d 51070000 		.4byte	0x751
 2121 0751 19       		.uleb128 0x19
 2122 0752 56070000 		.4byte	0x756
 2123 0756 03       		.uleb128 0x3
 2124 0757 01       		.byte	0x1
 2125 0758 08       		.byte	0x8
 2126 0759 58050000 		.4byte	.LASF123
 2127 075d 0A       		.uleb128 0xa
 2128 075e 04       		.byte	0x4
 2129 075f 9C040000 		.4byte	0x49c
 2130 0763 0A       		.uleb128 0xa
 2131 0764 04       		.byte	0x4
 2132 0765 1D030000 		.4byte	0x31d
ARM GAS  C:\Users\Luis\AppData\Local\Temp\ccdJOPAF.s 			page 39


 2133 0769 05       		.uleb128 0x5
 2134 076a 4B070000 		.4byte	0x74b
 2135 076e 15       		.uleb128 0x15
 2136 076f 9C040000 		.4byte	0x49c
 2137 0773 7E070000 		.4byte	0x77e
 2138 0777 16       		.uleb128 0x16
 2139 0778 8A040000 		.4byte	0x48a
 2140 077c 1F       		.byte	0x1f
 2141 077d 00       		.byte	0
 2142 077e 04       		.uleb128 0x4
 2143 077f C6040000 		.4byte	.LASF124
 2144 0783 04       		.byte	0x4
 2145 0784 38       		.byte	0x38
 2146 0785 E9060000 		.4byte	0x6e9
 2147 0789 04       		.uleb128 0x4
 2148 078a 1B020000 		.4byte	.LASF125
 2149 078e 0E       		.byte	0xe
 2150 078f 34       		.byte	0x34
 2151 0790 14070000 		.4byte	0x714
 2152 0794 0A       		.uleb128 0xa
 2153 0795 04       		.byte	0x4
 2154 0796 89070000 		.4byte	0x789
 2155 079a 13       		.uleb128 0x13
 2156 079b 28       		.byte	0x28
 2157 079c 0F       		.byte	0xf
 2158 079d 38       		.byte	0x38
 2159 079e EB070000 		.4byte	0x7eb
 2160 07a2 07       		.uleb128 0x7
 2161 07a3 DD030000 		.4byte	.LASF126
 2162 07a7 0F       		.byte	0xf
 2163 07a8 39       		.byte	0x39
 2164 07a9 EB070000 		.4byte	0x7eb
 2165 07ad 00       		.byte	0
 2166 07ae 07       		.uleb128 0x7
 2167 07af 54040000 		.4byte	.LASF127
 2168 07b3 0F       		.byte	0xf
 2169 07b4 3B       		.byte	0x3b
 2170 07b5 EB070000 		.4byte	0x7eb
 2171 07b9 04       		.byte	0x4
 2172 07ba 07       		.uleb128 0x7
 2173 07bb 0E010000 		.4byte	.LASF128
 2174 07bf 0F       		.byte	0xf
 2175 07c0 3D       		.byte	0x3d
 2176 07c1 EB070000 		.4byte	0x7eb
 2177 07c5 08       		.byte	0x8
 2178 07c6 07       		.uleb128 0x7
 2179 07c7 F1010000 		.4byte	.LASF129
 2180 07cb 0F       		.byte	0xf
 2181 07cc 3E       		.byte	0x3e
 2182 07cd EB070000 		.4byte	0x7eb
 2183 07d1 0C       		.byte	0xc
 2184 07d2 07       		.uleb128 0x7
 2185 07d3 C6060000 		.4byte	.LASF130
 2186 07d7 0F       		.byte	0xf
 2187 07d8 3F       		.byte	0x3f
 2188 07d9 7E070000 		.4byte	0x77e
 2189 07dd 10       		.byte	0x10
ARM GAS  C:\Users\Luis\AppData\Local\Temp\ccdJOPAF.s 			page 40


 2190 07de 07       		.uleb128 0x7
 2191 07df B8020000 		.4byte	.LASF131
 2192 07e3 0F       		.byte	0xf
 2193 07e4 41       		.byte	0x41
 2194 07e5 7E070000 		.4byte	0x77e
 2195 07e9 1C       		.byte	0x1c
 2196 07ea 00       		.byte	0
 2197 07eb 0A       		.uleb128 0xa
 2198 07ec 04       		.byte	0x4
 2199 07ed DE000000 		.4byte	0xde
 2200 07f1 04       		.uleb128 0x4
 2201 07f2 C2030000 		.4byte	.LASF132
 2202 07f6 0F       		.byte	0xf
 2203 07f7 43       		.byte	0x43
 2204 07f8 9A070000 		.4byte	0x79a
 2205 07fc 1A       		.uleb128 0x1a
 2206 07fd 6A060000 		.4byte	.LASF156
 2207 0801 02       		.byte	0x2
 2208 0802 2002     		.2byte	0x220
 2209 0804 03       		.byte	0x3
 2210 0805 16080000 		.4byte	0x816
 2211 0809 1B       		.uleb128 0x1b
 2212 080a 23020000 		.4byte	.LASF157
 2213 080e 02       		.byte	0x2
 2214 080f 2002     		.2byte	0x220
 2215 0811 6C000000 		.4byte	0x6c
 2216 0815 00       		.byte	0
 2217 0816 1C       		.uleb128 0x1c
 2218 0817 7C000000 		.4byte	.LASF133
 2219 081b 01       		.byte	0x1
 2220 081c BC01     		.2byte	0x1bc
 2221 081e 00000000 		.4byte	.LFB116
 2222 0822 1A000000 		.4byte	.LFE116-.LFB116
 2223 0826 01       		.uleb128 0x1
 2224 0827 9C       		.byte	0x9c
 2225 0828 46080000 		.4byte	0x846
 2226 082c 1D       		.uleb128 0x1d
 2227 082d FC070000 		.4byte	0x7fc
 2228 0831 0A000000 		.4byte	.LBB6
 2229 0835 06000000 		.4byte	.LBE6-.LBB6
 2230 0839 01       		.byte	0x1
 2231 083a BF01     		.2byte	0x1bf
 2232 083c 1E       		.uleb128 0x1e
 2233 083d 09080000 		.4byte	0x809
 2234 0841 02       		.uleb128 0x2
 2235 0842 91       		.byte	0x91
 2236 0843 74       		.sleb128 -12
 2237 0844 00       		.byte	0
 2238 0845 00       		.byte	0
 2239 0846 1C       		.uleb128 0x1c
 2240 0847 73010000 		.4byte	.LASF134
 2241 084b 01       		.byte	0x1
 2242 084c CA01     		.2byte	0x1ca
 2243 084e 00000000 		.4byte	.LFB117
 2244 0852 1A000000 		.4byte	.LFE117-.LFB117
 2245 0856 01       		.uleb128 0x1
 2246 0857 9C       		.byte	0x9c
ARM GAS  C:\Users\Luis\AppData\Local\Temp\ccdJOPAF.s 			page 41


 2247 0858 76080000 		.4byte	0x876
 2248 085c 1D       		.uleb128 0x1d
 2249 085d FC070000 		.4byte	0x7fc
 2250 0861 0A000000 		.4byte	.LBB8
 2251 0865 06000000 		.4byte	.LBE8-.LBB8
 2252 0869 01       		.byte	0x1
 2253 086a CD01     		.2byte	0x1cd
 2254 086c 1E       		.uleb128 0x1e
 2255 086d 09080000 		.4byte	0x809
 2256 0871 02       		.uleb128 0x2
 2257 0872 91       		.byte	0x91
 2258 0873 74       		.sleb128 -12
 2259 0874 00       		.byte	0
 2260 0875 00       		.byte	0
 2261 0876 1F       		.uleb128 0x1f
 2262 0877 B2040000 		.4byte	.LASF158
 2263 087b 03       		.byte	0x3
 2264 087c 5A01     		.2byte	0x15a
 2265 087e 00000000 		.4byte	.LFB156
 2266 0882 12000000 		.4byte	.LFE156-.LFB156
 2267 0886 01       		.uleb128 0x1
 2268 0887 9C       		.byte	0x9c
 2269 0888 20       		.uleb128 0x20
 2270 0889 3A070000 		.4byte	.LASF135
 2271 088d 03       		.byte	0x3
 2272 088e 6601     		.2byte	0x166
 2273 0890 00000000 		.4byte	.LFB157
 2274 0894 3C000000 		.4byte	.LFE157-.LFB157
 2275 0898 01       		.uleb128 0x1
 2276 0899 9C       		.byte	0x9c
 2277 089a AE080000 		.4byte	0x8ae
 2278 089e 21       		.uleb128 0x21
 2279 089f A1040000 		.4byte	.LASF137
 2280 08a3 BE080000 		.4byte	0x8be
 2281 08a7 05       		.uleb128 0x5
 2282 08a8 03       		.byte	0x3
 2283 08a9 00000000 		.4byte	__func__.5842
 2284 08ad 00       		.byte	0
 2285 08ae 15       		.uleb128 0x15
 2286 08af 56070000 		.4byte	0x756
 2287 08b3 BE080000 		.4byte	0x8be
 2288 08b7 16       		.uleb128 0x16
 2289 08b8 8A040000 		.4byte	0x48a
 2290 08bc 0B       		.byte	0xb
 2291 08bd 00       		.byte	0
 2292 08be 19       		.uleb128 0x19
 2293 08bf AE080000 		.4byte	0x8ae
 2294 08c3 22       		.uleb128 0x22
 2295 08c4 AE060000 		.4byte	.LASF136
 2296 08c8 04       		.byte	0x4
 2297 08c9 76       		.byte	0x76
 2298 08ca 00000000 		.4byte	.LFB189
 2299 08ce 1C000000 		.4byte	.LFE189-.LFB189
 2300 08d2 01       		.uleb128 0x1
 2301 08d3 9C       		.byte	0x9c
 2302 08d4 E6080000 		.4byte	0x8e6
 2303 08d8 23       		.uleb128 0x23
ARM GAS  C:\Users\Luis\AppData\Local\Temp\ccdJOPAF.s 			page 42


 2304 08d9 737000   		.ascii	"sp\000"
 2305 08dc 04       		.byte	0x4
 2306 08dd 76       		.byte	0x76
 2307 08de E6080000 		.4byte	0x8e6
 2308 08e2 02       		.uleb128 0x2
 2309 08e3 91       		.byte	0x91
 2310 08e4 74       		.sleb128 -12
 2311 08e5 00       		.byte	0
 2312 08e6 0A       		.uleb128 0xa
 2313 08e7 04       		.byte	0x4
 2314 08e8 7E070000 		.4byte	0x77e
 2315 08ec 24       		.uleb128 0x24
 2316 08ed 59060000 		.4byte	.LASF159
 2317 08f1 04       		.byte	0x4
 2318 08f2 95       		.byte	0x95
 2319 08f3 F4000000 		.4byte	0xf4
 2320 08f7 00000000 		.4byte	.LFB191
 2321 08fb 18000000 		.4byte	.LFE191-.LFB191
 2322 08ff 01       		.uleb128 0x1
 2323 0900 9C       		.byte	0x9c
 2324 0901 13090000 		.4byte	0x913
 2325 0905 23       		.uleb128 0x23
 2326 0906 737000   		.ascii	"sp\000"
 2327 0909 04       		.byte	0x4
 2328 090a 95       		.byte	0x95
 2329 090b E6080000 		.4byte	0x8e6
 2330 090f 02       		.uleb128 0x2
 2331 0910 91       		.byte	0x91
 2332 0911 74       		.sleb128 -12
 2333 0912 00       		.byte	0
 2334 0913 25       		.uleb128 0x25
 2335 0914 14000000 		.4byte	.LASF138
 2336 0918 05       		.byte	0x5
 2337 0919 56       		.byte	0x56
 2338 091a 00000000 		.4byte	.LFB229
 2339 091e 64000000 		.4byte	.LFE229-.LFB229
 2340 0922 01       		.uleb128 0x1
 2341 0923 9C       		.byte	0x9c
 2342 0924 60090000 		.4byte	0x960
 2343 0928 23       		.uleb128 0x23
 2344 0929 6D627000 		.ascii	"mbp\000"
 2345 092d 05       		.byte	0x5
 2346 092e 56       		.byte	0x56
 2347 092f 60090000 		.4byte	0x960
 2348 0933 02       		.uleb128 0x2
 2349 0934 91       		.byte	0x91
 2350 0935 74       		.sleb128 -12
 2351 0936 23       		.uleb128 0x23
 2352 0937 62756600 		.ascii	"buf\000"
 2353 093b 05       		.byte	0x5
 2354 093c 56       		.byte	0x56
 2355 093d EB070000 		.4byte	0x7eb
 2356 0941 02       		.uleb128 0x2
 2357 0942 91       		.byte	0x91
 2358 0943 70       		.sleb128 -16
 2359 0944 23       		.uleb128 0x23
 2360 0945 6E00     		.ascii	"n\000"
ARM GAS  C:\Users\Luis\AppData\Local\Temp\ccdJOPAF.s 			page 43


 2361 0947 05       		.byte	0x5
 2362 0948 56       		.byte	0x56
 2363 0949 F4000000 		.4byte	0xf4
 2364 094d 02       		.uleb128 0x2
 2365 094e 91       		.byte	0x91
 2366 094f 6C       		.sleb128 -20
 2367 0950 21       		.uleb128 0x21
 2368 0951 A1040000 		.4byte	.LASF137
 2369 0955 76090000 		.4byte	0x976
 2370 0959 05       		.uleb128 0x5
 2371 095a 03       		.byte	0x3
 2372 095b 00000000 		.4byte	__func__.6539
 2373 095f 00       		.byte	0
 2374 0960 0A       		.uleb128 0xa
 2375 0961 04       		.byte	0x4
 2376 0962 F1070000 		.4byte	0x7f1
 2377 0966 15       		.uleb128 0x15
 2378 0967 56070000 		.4byte	0x756
 2379 096b 76090000 		.4byte	0x976
 2380 096f 16       		.uleb128 0x16
 2381 0970 8A040000 		.4byte	0x48a
 2382 0974 0E       		.byte	0xe
 2383 0975 00       		.byte	0
 2384 0976 19       		.uleb128 0x19
 2385 0977 66090000 		.4byte	0x966
 2386 097b 25       		.uleb128 0x25
 2387 097c 8F030000 		.4byte	.LASF139
 2388 0980 05       		.byte	0x5
 2389 0981 6B       		.byte	0x6b
 2390 0982 00000000 		.4byte	.LFB230
 2391 0986 20000000 		.4byte	.LFE230-.LFB230
 2392 098a 01       		.uleb128 0x1
 2393 098b 9C       		.byte	0x9c
 2394 098c 9F090000 		.4byte	0x99f
 2395 0990 23       		.uleb128 0x23
 2396 0991 6D627000 		.ascii	"mbp\000"
 2397 0995 05       		.byte	0x5
 2398 0996 6B       		.byte	0x6b
 2399 0997 60090000 		.4byte	0x960
 2400 099b 02       		.uleb128 0x2
 2401 099c 91       		.byte	0x91
 2402 099d 74       		.sleb128 -12
 2403 099e 00       		.byte	0
 2404 099f 25       		.uleb128 0x25
 2405 09a0 94020000 		.4byte	.LASF140
 2406 09a4 05       		.byte	0x5
 2407 09a5 7C       		.byte	0x7c
 2408 09a6 00000000 		.4byte	.LFB231
 2409 09aa 5C000000 		.4byte	.LFE231-.LFB231
 2410 09ae 01       		.uleb128 0x1
 2411 09af 9C       		.byte	0x9c
 2412 09b0 D2090000 		.4byte	0x9d2
 2413 09b4 23       		.uleb128 0x23
 2414 09b5 6D627000 		.ascii	"mbp\000"
 2415 09b9 05       		.byte	0x5
 2416 09ba 7C       		.byte	0x7c
 2417 09bb 60090000 		.4byte	0x960
ARM GAS  C:\Users\Luis\AppData\Local\Temp\ccdJOPAF.s 			page 44


 2418 09bf 02       		.uleb128 0x2
 2419 09c0 91       		.byte	0x91
 2420 09c1 74       		.sleb128 -12
 2421 09c2 21       		.uleb128 0x21
 2422 09c3 A1040000 		.4byte	.LASF137
 2423 09c7 E2090000 		.4byte	0x9e2
 2424 09cb 05       		.uleb128 0x5
 2425 09cc 03       		.byte	0x3
 2426 09cd 00000000 		.4byte	__func__.6546
 2427 09d1 00       		.byte	0
 2428 09d2 15       		.uleb128 0x15
 2429 09d3 56070000 		.4byte	0x756
 2430 09d7 E2090000 		.4byte	0x9e2
 2431 09db 16       		.uleb128 0x16
 2432 09dc 8A040000 		.4byte	0x48a
 2433 09e0 0A       		.byte	0xa
 2434 09e1 00       		.byte	0
 2435 09e2 19       		.uleb128 0x19
 2436 09e3 D2090000 		.4byte	0x9d2
 2437 09e7 26       		.uleb128 0x26
 2438 09e8 B8010000 		.4byte	.LASF142
 2439 09ec 05       		.byte	0x5
 2440 09ed 9A       		.byte	0x9a
 2441 09ee DE000000 		.4byte	0xde
 2442 09f2 00000000 		.4byte	.LFB232
 2443 09f6 2A000000 		.4byte	.LFE232-.LFB232
 2444 09fa 01       		.uleb128 0x1
 2445 09fb 9C       		.byte	0x9c
 2446 09fc 390A0000 		.4byte	0xa39
 2447 0a00 23       		.uleb128 0x23
 2448 0a01 6D627000 		.ascii	"mbp\000"
 2449 0a05 05       		.byte	0x5
 2450 0a06 9A       		.byte	0x9a
 2451 0a07 60090000 		.4byte	0x960
 2452 0a0b 02       		.uleb128 0x2
 2453 0a0c 91       		.byte	0x91
 2454 0a0d 6C       		.sleb128 -20
 2455 0a0e 23       		.uleb128 0x23
 2456 0a0f 6D736700 		.ascii	"msg\000"
 2457 0a13 05       		.byte	0x5
 2458 0a14 9A       		.byte	0x9a
 2459 0a15 DE000000 		.4byte	0xde
 2460 0a19 02       		.uleb128 0x2
 2461 0a1a 91       		.byte	0x91
 2462 0a1b 68       		.sleb128 -24
 2463 0a1c 27       		.uleb128 0x27
 2464 0a1d 79020000 		.4byte	.LASF141
 2465 0a21 05       		.byte	0x5
 2466 0a22 9A       		.byte	0x9a
 2467 0a23 0A010000 		.4byte	0x10a
 2468 0a27 02       		.uleb128 0x2
 2469 0a28 91       		.byte	0x91
 2470 0a29 64       		.sleb128 -28
 2471 0a2a 28       		.uleb128 0x28
 2472 0a2b 29000000 		.4byte	.LASF109
 2473 0a2f 05       		.byte	0x5
 2474 0a30 9B       		.byte	0x9b
ARM GAS  C:\Users\Luis\AppData\Local\Temp\ccdJOPAF.s 			page 45


 2475 0a31 DE000000 		.4byte	0xde
 2476 0a35 02       		.uleb128 0x2
 2477 0a36 91       		.byte	0x91
 2478 0a37 74       		.sleb128 -12
 2479 0a38 00       		.byte	0
 2480 0a39 26       		.uleb128 0x26
 2481 0a3a 4C070000 		.4byte	.LASF143
 2482 0a3e 05       		.byte	0x5
 2483 0a3f B7       		.byte	0xb7
 2484 0a40 DE000000 		.4byte	0xde
 2485 0a44 00000000 		.4byte	.LFB233
 2486 0a48 70000000 		.4byte	.LFE233-.LFB233
 2487 0a4c 01       		.uleb128 0x1
 2488 0a4d 9C       		.byte	0x9c
 2489 0a4e 9A0A0000 		.4byte	0xa9a
 2490 0a52 23       		.uleb128 0x23
 2491 0a53 6D627000 		.ascii	"mbp\000"
 2492 0a57 05       		.byte	0x5
 2493 0a58 B7       		.byte	0xb7
 2494 0a59 60090000 		.4byte	0x960
 2495 0a5d 02       		.uleb128 0x2
 2496 0a5e 91       		.byte	0x91
 2497 0a5f 6C       		.sleb128 -20
 2498 0a60 23       		.uleb128 0x23
 2499 0a61 6D736700 		.ascii	"msg\000"
 2500 0a65 05       		.byte	0x5
 2501 0a66 B7       		.byte	0xb7
 2502 0a67 DE000000 		.4byte	0xde
 2503 0a6b 02       		.uleb128 0x2
 2504 0a6c 91       		.byte	0x91
 2505 0a6d 68       		.sleb128 -24
 2506 0a6e 27       		.uleb128 0x27
 2507 0a6f 79020000 		.4byte	.LASF141
 2508 0a73 05       		.byte	0x5
 2509 0a74 B7       		.byte	0xb7
 2510 0a75 0A010000 		.4byte	0x10a
 2511 0a79 02       		.uleb128 0x2
 2512 0a7a 91       		.byte	0x91
 2513 0a7b 64       		.sleb128 -28
 2514 0a7c 28       		.uleb128 0x28
 2515 0a7d 29000000 		.4byte	.LASF109
 2516 0a81 05       		.byte	0x5
 2517 0a82 B8       		.byte	0xb8
 2518 0a83 DE000000 		.4byte	0xde
 2519 0a87 02       		.uleb128 0x2
 2520 0a88 91       		.byte	0x91
 2521 0a89 74       		.sleb128 -12
 2522 0a8a 21       		.uleb128 0x21
 2523 0a8b A1040000 		.4byte	.LASF137
 2524 0a8f AA0A0000 		.4byte	0xaaa
 2525 0a93 05       		.uleb128 0x5
 2526 0a94 03       		.byte	0x3
 2527 0a95 00000000 		.4byte	__func__.6559
 2528 0a99 00       		.byte	0
 2529 0a9a 15       		.uleb128 0x15
 2530 0a9b 56070000 		.4byte	0x756
 2531 0a9f AA0A0000 		.4byte	0xaaa
ARM GAS  C:\Users\Luis\AppData\Local\Temp\ccdJOPAF.s 			page 46


 2532 0aa3 16       		.uleb128 0x16
 2533 0aa4 8A040000 		.4byte	0x48a
 2534 0aa8 09       		.byte	0x9
 2535 0aa9 00       		.byte	0
 2536 0aaa 19       		.uleb128 0x19
 2537 0aab 9A0A0000 		.4byte	0xa9a
 2538 0aaf 26       		.uleb128 0x26
 2539 0ab0 46000000 		.4byte	.LASF144
 2540 0ab4 05       		.byte	0x5
 2541 0ab5 D8       		.byte	0xd8
 2542 0ab6 DE000000 		.4byte	0xde
 2543 0aba 00000000 		.4byte	.LFB234
 2544 0abe 74000000 		.4byte	.LFE234-.LFB234
 2545 0ac2 01       		.uleb128 0x1
 2546 0ac3 9C       		.byte	0x9c
 2547 0ac4 F40A0000 		.4byte	0xaf4
 2548 0ac8 23       		.uleb128 0x23
 2549 0ac9 6D627000 		.ascii	"mbp\000"
 2550 0acd 05       		.byte	0x5
 2551 0ace D8       		.byte	0xd8
 2552 0acf 60090000 		.4byte	0x960
 2553 0ad3 02       		.uleb128 0x2
 2554 0ad4 91       		.byte	0x91
 2555 0ad5 74       		.sleb128 -12
 2556 0ad6 23       		.uleb128 0x23
 2557 0ad7 6D736700 		.ascii	"msg\000"
 2558 0adb 05       		.byte	0x5
 2559 0adc D8       		.byte	0xd8
 2560 0add DE000000 		.4byte	0xde
 2561 0ae1 02       		.uleb128 0x2
 2562 0ae2 91       		.byte	0x91
 2563 0ae3 70       		.sleb128 -16
 2564 0ae4 21       		.uleb128 0x21
 2565 0ae5 A1040000 		.4byte	.LASF137
 2566 0ae9 F40A0000 		.4byte	0xaf4
 2567 0aed 05       		.uleb128 0x5
 2568 0aee 03       		.byte	0x3
 2569 0aef 00000000 		.4byte	__func__.6564
 2570 0af3 00       		.byte	0
 2571 0af4 19       		.uleb128 0x19
 2572 0af5 9A0A0000 		.4byte	0xa9a
 2573 0af9 26       		.uleb128 0x26
 2574 0afa 91060000 		.4byte	.LASF145
 2575 0afe 05       		.byte	0x5
 2576 0aff FE       		.byte	0xfe
 2577 0b00 DE000000 		.4byte	0xde
 2578 0b04 00000000 		.4byte	.LFB235
 2579 0b08 2A000000 		.4byte	.LFE235-.LFB235
 2580 0b0c 01       		.uleb128 0x1
 2581 0b0d 9C       		.byte	0x9c
 2582 0b0e 4B0B0000 		.4byte	0xb4b
 2583 0b12 23       		.uleb128 0x23
 2584 0b13 6D627000 		.ascii	"mbp\000"
 2585 0b17 05       		.byte	0x5
 2586 0b18 FE       		.byte	0xfe
 2587 0b19 60090000 		.4byte	0x960
 2588 0b1d 02       		.uleb128 0x2
ARM GAS  C:\Users\Luis\AppData\Local\Temp\ccdJOPAF.s 			page 47


 2589 0b1e 91       		.byte	0x91
 2590 0b1f 6C       		.sleb128 -20
 2591 0b20 23       		.uleb128 0x23
 2592 0b21 6D736700 		.ascii	"msg\000"
 2593 0b25 05       		.byte	0x5
 2594 0b26 FE       		.byte	0xfe
 2595 0b27 DE000000 		.4byte	0xde
 2596 0b2b 02       		.uleb128 0x2
 2597 0b2c 91       		.byte	0x91
 2598 0b2d 68       		.sleb128 -24
 2599 0b2e 27       		.uleb128 0x27
 2600 0b2f 79020000 		.4byte	.LASF141
 2601 0b33 05       		.byte	0x5
 2602 0b34 FE       		.byte	0xfe
 2603 0b35 0A010000 		.4byte	0x10a
 2604 0b39 02       		.uleb128 0x2
 2605 0b3a 91       		.byte	0x91
 2606 0b3b 64       		.sleb128 -28
 2607 0b3c 28       		.uleb128 0x28
 2608 0b3d 29000000 		.4byte	.LASF109
 2609 0b41 05       		.byte	0x5
 2610 0b42 FF       		.byte	0xff
 2611 0b43 DE000000 		.4byte	0xde
 2612 0b47 02       		.uleb128 0x2
 2613 0b48 91       		.byte	0x91
 2614 0b49 74       		.sleb128 -12
 2615 0b4a 00       		.byte	0
 2616 0b4b 29       		.uleb128 0x29
 2617 0b4c E9000000 		.4byte	.LASF146
 2618 0b50 05       		.byte	0x5
 2619 0b51 1B01     		.2byte	0x11b
 2620 0b53 DE000000 		.4byte	0xde
 2621 0b57 00000000 		.4byte	.LFB236
 2622 0b5b 74000000 		.4byte	.LFE236-.LFB236
 2623 0b5f 01       		.uleb128 0x1
 2624 0b60 9C       		.byte	0x9c
 2625 0b61 B10B0000 		.4byte	0xbb1
 2626 0b65 2A       		.uleb128 0x2a
 2627 0b66 6D627000 		.ascii	"mbp\000"
 2628 0b6a 05       		.byte	0x5
 2629 0b6b 1B01     		.2byte	0x11b
 2630 0b6d 60090000 		.4byte	0x960
 2631 0b71 02       		.uleb128 0x2
 2632 0b72 91       		.byte	0x91
 2633 0b73 6C       		.sleb128 -20
 2634 0b74 2A       		.uleb128 0x2a
 2635 0b75 6D736700 		.ascii	"msg\000"
 2636 0b79 05       		.byte	0x5
 2637 0b7a 1B01     		.2byte	0x11b
 2638 0b7c DE000000 		.4byte	0xde
 2639 0b80 02       		.uleb128 0x2
 2640 0b81 91       		.byte	0x91
 2641 0b82 68       		.sleb128 -24
 2642 0b83 2B       		.uleb128 0x2b
 2643 0b84 79020000 		.4byte	.LASF141
 2644 0b88 05       		.byte	0x5
 2645 0b89 1B01     		.2byte	0x11b
ARM GAS  C:\Users\Luis\AppData\Local\Temp\ccdJOPAF.s 			page 48


 2646 0b8b 0A010000 		.4byte	0x10a
 2647 0b8f 02       		.uleb128 0x2
 2648 0b90 91       		.byte	0x91
 2649 0b91 64       		.sleb128 -28
 2650 0b92 2C       		.uleb128 0x2c
 2651 0b93 29000000 		.4byte	.LASF109
 2652 0b97 05       		.byte	0x5
 2653 0b98 1C01     		.2byte	0x11c
 2654 0b9a DE000000 		.4byte	0xde
 2655 0b9e 02       		.uleb128 0x2
 2656 0b9f 91       		.byte	0x91
 2657 0ba0 74       		.sleb128 -12
 2658 0ba1 21       		.uleb128 0x21
 2659 0ba2 A1040000 		.4byte	.LASF137
 2660 0ba6 B10B0000 		.4byte	0xbb1
 2661 0baa 05       		.uleb128 0x5
 2662 0bab 03       		.byte	0x3
 2663 0bac 00000000 		.4byte	__func__.6577
 2664 0bb0 00       		.byte	0
 2665 0bb1 19       		.uleb128 0x19
 2666 0bb2 66090000 		.4byte	0x966
 2667 0bb6 29       		.uleb128 0x29
 2668 0bb7 9F000000 		.4byte	.LASF147
 2669 0bbb 05       		.byte	0x5
 2670 0bbc 3C01     		.2byte	0x13c
 2671 0bbe DE000000 		.4byte	0xde
 2672 0bc2 00000000 		.4byte	.LFB237
 2673 0bc6 7C000000 		.4byte	.LFE237-.LFB237
 2674 0bca 01       		.uleb128 0x1
 2675 0bcb 9C       		.byte	0x9c
 2676 0bcc FE0B0000 		.4byte	0xbfe
 2677 0bd0 2A       		.uleb128 0x2a
 2678 0bd1 6D627000 		.ascii	"mbp\000"
 2679 0bd5 05       		.byte	0x5
 2680 0bd6 3C01     		.2byte	0x13c
 2681 0bd8 60090000 		.4byte	0x960
 2682 0bdc 02       		.uleb128 0x2
 2683 0bdd 91       		.byte	0x91
 2684 0bde 74       		.sleb128 -12
 2685 0bdf 2A       		.uleb128 0x2a
 2686 0be0 6D736700 		.ascii	"msg\000"
 2687 0be4 05       		.byte	0x5
 2688 0be5 3C01     		.2byte	0x13c
 2689 0be7 DE000000 		.4byte	0xde
 2690 0beb 02       		.uleb128 0x2
 2691 0bec 91       		.byte	0x91
 2692 0bed 70       		.sleb128 -16
 2693 0bee 21       		.uleb128 0x21
 2694 0bef A1040000 		.4byte	.LASF137
 2695 0bf3 FE0B0000 		.4byte	0xbfe
 2696 0bf7 05       		.uleb128 0x5
 2697 0bf8 03       		.byte	0x3
 2698 0bf9 00000000 		.4byte	__func__.6582
 2699 0bfd 00       		.byte	0
 2700 0bfe 19       		.uleb128 0x19
 2701 0bff 66090000 		.4byte	0x966
 2702 0c03 29       		.uleb128 0x29
ARM GAS  C:\Users\Luis\AppData\Local\Temp\ccdJOPAF.s 			page 49


 2703 0c04 85030000 		.4byte	.LASF148
 2704 0c08 05       		.byte	0x5
 2705 0c09 6101     		.2byte	0x161
 2706 0c0b DE000000 		.4byte	0xde
 2707 0c0f 00000000 		.4byte	.LFB238
 2708 0c13 2A000000 		.4byte	.LFE238-.LFB238
 2709 0c17 01       		.uleb128 0x1
 2710 0c18 9C       		.byte	0x9c
 2711 0c19 5A0C0000 		.4byte	0xc5a
 2712 0c1d 2A       		.uleb128 0x2a
 2713 0c1e 6D627000 		.ascii	"mbp\000"
 2714 0c22 05       		.byte	0x5
 2715 0c23 6101     		.2byte	0x161
 2716 0c25 60090000 		.4byte	0x960
 2717 0c29 02       		.uleb128 0x2
 2718 0c2a 91       		.byte	0x91
 2719 0c2b 6C       		.sleb128 -20
 2720 0c2c 2B       		.uleb128 0x2b
 2721 0c2d 38030000 		.4byte	.LASF149
 2722 0c31 05       		.byte	0x5
 2723 0c32 6101     		.2byte	0x161
 2724 0c34 EB070000 		.4byte	0x7eb
 2725 0c38 02       		.uleb128 0x2
 2726 0c39 91       		.byte	0x91
 2727 0c3a 68       		.sleb128 -24
 2728 0c3b 2B       		.uleb128 0x2b
 2729 0c3c 79020000 		.4byte	.LASF141
 2730 0c40 05       		.byte	0x5
 2731 0c41 6101     		.2byte	0x161
 2732 0c43 0A010000 		.4byte	0x10a
 2733 0c47 02       		.uleb128 0x2
 2734 0c48 91       		.byte	0x91
 2735 0c49 64       		.sleb128 -28
 2736 0c4a 2C       		.uleb128 0x2c
 2737 0c4b 29000000 		.4byte	.LASF109
 2738 0c4f 05       		.byte	0x5
 2739 0c50 6201     		.2byte	0x162
 2740 0c52 DE000000 		.4byte	0xde
 2741 0c56 02       		.uleb128 0x2
 2742 0c57 91       		.byte	0x91
 2743 0c58 74       		.sleb128 -12
 2744 0c59 00       		.byte	0
 2745 0c5a 29       		.uleb128 0x29
 2746 0c5b 00030000 		.4byte	.LASF150
 2747 0c5f 05       		.byte	0x5
 2748 0c60 7E01     		.2byte	0x17e
 2749 0c62 DE000000 		.4byte	0xde
 2750 0c66 00000000 		.4byte	.LFB239
 2751 0c6a 78000000 		.4byte	.LFE239-.LFB239
 2752 0c6e 01       		.uleb128 0x1
 2753 0c6f 9C       		.byte	0x9c
 2754 0c70 C00C0000 		.4byte	0xcc0
 2755 0c74 2A       		.uleb128 0x2a
 2756 0c75 6D627000 		.ascii	"mbp\000"
 2757 0c79 05       		.byte	0x5
 2758 0c7a 7E01     		.2byte	0x17e
 2759 0c7c 60090000 		.4byte	0x960
ARM GAS  C:\Users\Luis\AppData\Local\Temp\ccdJOPAF.s 			page 50


 2760 0c80 02       		.uleb128 0x2
 2761 0c81 91       		.byte	0x91
 2762 0c82 6C       		.sleb128 -20
 2763 0c83 2B       		.uleb128 0x2b
 2764 0c84 38030000 		.4byte	.LASF149
 2765 0c88 05       		.byte	0x5
 2766 0c89 7E01     		.2byte	0x17e
 2767 0c8b EB070000 		.4byte	0x7eb
 2768 0c8f 02       		.uleb128 0x2
 2769 0c90 91       		.byte	0x91
 2770 0c91 68       		.sleb128 -24
 2771 0c92 2B       		.uleb128 0x2b
 2772 0c93 79020000 		.4byte	.LASF141
 2773 0c97 05       		.byte	0x5
 2774 0c98 7E01     		.2byte	0x17e
 2775 0c9a 0A010000 		.4byte	0x10a
 2776 0c9e 02       		.uleb128 0x2
 2777 0c9f 91       		.byte	0x91
 2778 0ca0 64       		.sleb128 -28
 2779 0ca1 2C       		.uleb128 0x2c
 2780 0ca2 29000000 		.4byte	.LASF109
 2781 0ca6 05       		.byte	0x5
 2782 0ca7 7F01     		.2byte	0x17f
 2783 0ca9 DE000000 		.4byte	0xde
 2784 0cad 02       		.uleb128 0x2
 2785 0cae 91       		.byte	0x91
 2786 0caf 74       		.sleb128 -12
 2787 0cb0 21       		.uleb128 0x21
 2788 0cb1 A1040000 		.4byte	.LASF137
 2789 0cb5 C00C0000 		.4byte	0xcc0
 2790 0cb9 05       		.uleb128 0x5
 2791 0cba 03       		.byte	0x3
 2792 0cbb 00000000 		.4byte	__func__.6595
 2793 0cbf 00       		.byte	0
 2794 0cc0 19       		.uleb128 0x19
 2795 0cc1 D2090000 		.4byte	0x9d2
 2796 0cc5 29       		.uleb128 0x29
 2797 0cc6 CF020000 		.4byte	.LASF151
 2798 0cca 05       		.byte	0x5
 2799 0ccb 9F01     		.2byte	0x19f
 2800 0ccd DE000000 		.4byte	0xde
 2801 0cd1 00000000 		.4byte	.LFB240
 2802 0cd5 7C000000 		.4byte	.LFE240-.LFB240
 2803 0cd9 01       		.uleb128 0x1
 2804 0cda 9C       		.byte	0x9c
 2805 0cdb 0D0D0000 		.4byte	0xd0d
 2806 0cdf 2A       		.uleb128 0x2a
 2807 0ce0 6D627000 		.ascii	"mbp\000"
 2808 0ce4 05       		.byte	0x5
 2809 0ce5 9F01     		.2byte	0x19f
 2810 0ce7 60090000 		.4byte	0x960
 2811 0ceb 02       		.uleb128 0x2
 2812 0cec 91       		.byte	0x91
 2813 0ced 74       		.sleb128 -12
 2814 0cee 2B       		.uleb128 0x2b
 2815 0cef 38030000 		.4byte	.LASF149
 2816 0cf3 05       		.byte	0x5
ARM GAS  C:\Users\Luis\AppData\Local\Temp\ccdJOPAF.s 			page 51


 2817 0cf4 9F01     		.2byte	0x19f
 2818 0cf6 EB070000 		.4byte	0x7eb
 2819 0cfa 02       		.uleb128 0x2
 2820 0cfb 91       		.byte	0x91
 2821 0cfc 70       		.sleb128 -16
 2822 0cfd 21       		.uleb128 0x21
 2823 0cfe A1040000 		.4byte	.LASF137
 2824 0d02 0D0D0000 		.4byte	0xd0d
 2825 0d06 05       		.uleb128 0x5
 2826 0d07 03       		.byte	0x3
 2827 0d08 00000000 		.4byte	__func__.6600
 2828 0d0c 00       		.byte	0
 2829 0d0d 19       		.uleb128 0x19
 2830 0d0e D2090000 		.4byte	0x9d2
 2831 0d12 2D       		.uleb128 0x2d
 2832 0d13 5B040000 		.4byte	.LASF152
 2833 0d17 10       		.byte	0x10
 2834 0d18 A706     		.2byte	0x6a7
 2835 0d1a 97000000 		.4byte	0x97
 2836 0d1e 2E       		.uleb128 0x2e
 2837 0d1f 636800   		.ascii	"ch\000"
 2838 0d22 09       		.byte	0x9
 2839 0d23 0902     		.2byte	0x209
 2840 0d25 12040000 		.4byte	0x412
 2841 0d29 00       		.byte	0
 2842              		.section	.debug_abbrev,"",%progbits
 2843              	.Ldebug_abbrev0:
 2844 0000 01       		.uleb128 0x1
 2845 0001 11       		.uleb128 0x11
 2846 0002 01       		.byte	0x1
 2847 0003 25       		.uleb128 0x25
 2848 0004 0E       		.uleb128 0xe
 2849 0005 13       		.uleb128 0x13
 2850 0006 0B       		.uleb128 0xb
 2851 0007 03       		.uleb128 0x3
 2852 0008 0E       		.uleb128 0xe
 2853 0009 1B       		.uleb128 0x1b
 2854 000a 0E       		.uleb128 0xe
 2855 000b 55       		.uleb128 0x55
 2856 000c 17       		.uleb128 0x17
 2857 000d 11       		.uleb128 0x11
 2858 000e 01       		.uleb128 0x1
 2859 000f 10       		.uleb128 0x10
 2860 0010 17       		.uleb128 0x17
 2861 0011 00       		.byte	0
 2862 0012 00       		.byte	0
 2863 0013 02       		.uleb128 0x2
 2864 0014 24       		.uleb128 0x24
 2865 0015 00       		.byte	0
 2866 0016 0B       		.uleb128 0xb
 2867 0017 0B       		.uleb128 0xb
 2868 0018 3E       		.uleb128 0x3e
 2869 0019 0B       		.uleb128 0xb
 2870 001a 03       		.uleb128 0x3
 2871 001b 08       		.uleb128 0x8
 2872 001c 00       		.byte	0
 2873 001d 00       		.byte	0
ARM GAS  C:\Users\Luis\AppData\Local\Temp\ccdJOPAF.s 			page 52


 2874 001e 03       		.uleb128 0x3
 2875 001f 24       		.uleb128 0x24
 2876 0020 00       		.byte	0
 2877 0021 0B       		.uleb128 0xb
 2878 0022 0B       		.uleb128 0xb
 2879 0023 3E       		.uleb128 0x3e
 2880 0024 0B       		.uleb128 0xb
 2881 0025 03       		.uleb128 0x3
 2882 0026 0E       		.uleb128 0xe
 2883 0027 00       		.byte	0
 2884 0028 00       		.byte	0
 2885 0029 04       		.uleb128 0x4
 2886 002a 16       		.uleb128 0x16
 2887 002b 00       		.byte	0
 2888 002c 03       		.uleb128 0x3
 2889 002d 0E       		.uleb128 0xe
 2890 002e 3A       		.uleb128 0x3a
 2891 002f 0B       		.uleb128 0xb
 2892 0030 3B       		.uleb128 0x3b
 2893 0031 0B       		.uleb128 0xb
 2894 0032 49       		.uleb128 0x49
 2895 0033 13       		.uleb128 0x13
 2896 0034 00       		.byte	0
 2897 0035 00       		.byte	0
 2898 0036 05       		.uleb128 0x5
 2899 0037 35       		.uleb128 0x35
 2900 0038 00       		.byte	0
 2901 0039 49       		.uleb128 0x49
 2902 003a 13       		.uleb128 0x13
 2903 003b 00       		.byte	0
 2904 003c 00       		.byte	0
 2905 003d 06       		.uleb128 0x6
 2906 003e 13       		.uleb128 0x13
 2907 003f 01       		.byte	0x1
 2908 0040 03       		.uleb128 0x3
 2909 0041 0E       		.uleb128 0xe
 2910 0042 0B       		.uleb128 0xb
 2911 0043 0B       		.uleb128 0xb
 2912 0044 3A       		.uleb128 0x3a
 2913 0045 0B       		.uleb128 0xb
 2914 0046 3B       		.uleb128 0x3b
 2915 0047 0B       		.uleb128 0xb
 2916 0048 01       		.uleb128 0x1
 2917 0049 13       		.uleb128 0x13
 2918 004a 00       		.byte	0
 2919 004b 00       		.byte	0
 2920 004c 07       		.uleb128 0x7
 2921 004d 0D       		.uleb128 0xd
 2922 004e 00       		.byte	0
 2923 004f 03       		.uleb128 0x3
 2924 0050 0E       		.uleb128 0xe
 2925 0051 3A       		.uleb128 0x3a
 2926 0052 0B       		.uleb128 0xb
 2927 0053 3B       		.uleb128 0x3b
 2928 0054 0B       		.uleb128 0xb
 2929 0055 49       		.uleb128 0x49
 2930 0056 13       		.uleb128 0x13
ARM GAS  C:\Users\Luis\AppData\Local\Temp\ccdJOPAF.s 			page 53


 2931 0057 38       		.uleb128 0x38
 2932 0058 0B       		.uleb128 0xb
 2933 0059 00       		.byte	0
 2934 005a 00       		.byte	0
 2935 005b 08       		.uleb128 0x8
 2936 005c 0D       		.uleb128 0xd
 2937 005d 00       		.byte	0
 2938 005e 03       		.uleb128 0x3
 2939 005f 08       		.uleb128 0x8
 2940 0060 3A       		.uleb128 0x3a
 2941 0061 0B       		.uleb128 0xb
 2942 0062 3B       		.uleb128 0x3b
 2943 0063 05       		.uleb128 0x5
 2944 0064 49       		.uleb128 0x49
 2945 0065 13       		.uleb128 0x13
 2946 0066 38       		.uleb128 0x38
 2947 0067 0B       		.uleb128 0xb
 2948 0068 00       		.byte	0
 2949 0069 00       		.byte	0
 2950 006a 09       		.uleb128 0x9
 2951 006b 0D       		.uleb128 0xd
 2952 006c 00       		.byte	0
 2953 006d 03       		.uleb128 0x3
 2954 006e 0E       		.uleb128 0xe
 2955 006f 3A       		.uleb128 0x3a
 2956 0070 0B       		.uleb128 0xb
 2957 0071 3B       		.uleb128 0x3b
 2958 0072 05       		.uleb128 0x5
 2959 0073 49       		.uleb128 0x49
 2960 0074 13       		.uleb128 0x13
 2961 0075 38       		.uleb128 0x38
 2962 0076 0B       		.uleb128 0xb
 2963 0077 00       		.byte	0
 2964 0078 00       		.byte	0
 2965 0079 0A       		.uleb128 0xa
 2966 007a 0F       		.uleb128 0xf
 2967 007b 00       		.byte	0
 2968 007c 0B       		.uleb128 0xb
 2969 007d 0B       		.uleb128 0xb
 2970 007e 49       		.uleb128 0x49
 2971 007f 13       		.uleb128 0x13
 2972 0080 00       		.byte	0
 2973 0081 00       		.byte	0
 2974 0082 0B       		.uleb128 0xb
 2975 0083 13       		.uleb128 0x13
 2976 0084 01       		.byte	0x1
 2977 0085 03       		.uleb128 0x3
 2978 0086 0E       		.uleb128 0xe
 2979 0087 0B       		.uleb128 0xb
 2980 0088 0B       		.uleb128 0xb
 2981 0089 3A       		.uleb128 0x3a
 2982 008a 0B       		.uleb128 0xb
 2983 008b 3B       		.uleb128 0x3b
 2984 008c 05       		.uleb128 0x5
 2985 008d 01       		.uleb128 0x1
 2986 008e 13       		.uleb128 0x13
 2987 008f 00       		.byte	0
ARM GAS  C:\Users\Luis\AppData\Local\Temp\ccdJOPAF.s 			page 54


 2988 0090 00       		.byte	0
 2989 0091 0C       		.uleb128 0xc
 2990 0092 15       		.uleb128 0x15
 2991 0093 01       		.byte	0x1
 2992 0094 27       		.uleb128 0x27
 2993 0095 19       		.uleb128 0x19
 2994 0096 01       		.uleb128 0x1
 2995 0097 13       		.uleb128 0x13
 2996 0098 00       		.byte	0
 2997 0099 00       		.byte	0
 2998 009a 0D       		.uleb128 0xd
 2999 009b 05       		.uleb128 0x5
 3000 009c 00       		.byte	0
 3001 009d 49       		.uleb128 0x49
 3002 009e 13       		.uleb128 0x13
 3003 009f 00       		.byte	0
 3004 00a0 00       		.byte	0
 3005 00a1 0E       		.uleb128 0xe
 3006 00a2 0F       		.uleb128 0xf
 3007 00a3 00       		.byte	0
 3008 00a4 0B       		.uleb128 0xb
 3009 00a5 0B       		.uleb128 0xb
 3010 00a6 00       		.byte	0
 3011 00a7 00       		.byte	0
 3012 00a8 0F       		.uleb128 0xf
 3013 00a9 13       		.uleb128 0x13
 3014 00aa 01       		.byte	0x1
 3015 00ab 03       		.uleb128 0x3
 3016 00ac 0E       		.uleb128 0xe
 3017 00ad 0B       		.uleb128 0xb
 3018 00ae 05       		.uleb128 0x5
 3019 00af 3A       		.uleb128 0x3a
 3020 00b0 0B       		.uleb128 0xb
 3021 00b1 3B       		.uleb128 0x3b
 3022 00b2 05       		.uleb128 0x5
 3023 00b3 01       		.uleb128 0x1
 3024 00b4 13       		.uleb128 0x13
 3025 00b5 00       		.byte	0
 3026 00b6 00       		.byte	0
 3027 00b7 10       		.uleb128 0x10
 3028 00b8 0D       		.uleb128 0xd
 3029 00b9 00       		.byte	0
 3030 00ba 03       		.uleb128 0x3
 3031 00bb 0E       		.uleb128 0xe
 3032 00bc 3A       		.uleb128 0x3a
 3033 00bd 0B       		.uleb128 0xb
 3034 00be 3B       		.uleb128 0x3b
 3035 00bf 05       		.uleb128 0x5
 3036 00c0 49       		.uleb128 0x49
 3037 00c1 13       		.uleb128 0x13
 3038 00c2 38       		.uleb128 0x38
 3039 00c3 05       		.uleb128 0x5
 3040 00c4 00       		.byte	0
 3041 00c5 00       		.byte	0
 3042 00c6 11       		.uleb128 0x11
 3043 00c7 0D       		.uleb128 0xd
 3044 00c8 00       		.byte	0
ARM GAS  C:\Users\Luis\AppData\Local\Temp\ccdJOPAF.s 			page 55


 3045 00c9 03       		.uleb128 0x3
 3046 00ca 08       		.uleb128 0x8
 3047 00cb 3A       		.uleb128 0x3a
 3048 00cc 0B       		.uleb128 0xb
 3049 00cd 3B       		.uleb128 0x3b
 3050 00ce 05       		.uleb128 0x5
 3051 00cf 49       		.uleb128 0x49
 3052 00d0 13       		.uleb128 0x13
 3053 00d1 38       		.uleb128 0x38
 3054 00d2 05       		.uleb128 0x5
 3055 00d3 00       		.byte	0
 3056 00d4 00       		.byte	0
 3057 00d5 12       		.uleb128 0x12
 3058 00d6 0D       		.uleb128 0xd
 3059 00d7 00       		.byte	0
 3060 00d8 03       		.uleb128 0x3
 3061 00d9 08       		.uleb128 0x8
 3062 00da 3A       		.uleb128 0x3a
 3063 00db 0B       		.uleb128 0xb
 3064 00dc 3B       		.uleb128 0x3b
 3065 00dd 0B       		.uleb128 0xb
 3066 00de 49       		.uleb128 0x49
 3067 00df 13       		.uleb128 0x13
 3068 00e0 38       		.uleb128 0x38
 3069 00e1 0B       		.uleb128 0xb
 3070 00e2 00       		.byte	0
 3071 00e3 00       		.byte	0
 3072 00e4 13       		.uleb128 0x13
 3073 00e5 13       		.uleb128 0x13
 3074 00e6 01       		.byte	0x1
 3075 00e7 0B       		.uleb128 0xb
 3076 00e8 0B       		.uleb128 0xb
 3077 00e9 3A       		.uleb128 0x3a
 3078 00ea 0B       		.uleb128 0xb
 3079 00eb 3B       		.uleb128 0x3b
 3080 00ec 0B       		.uleb128 0xb
 3081 00ed 01       		.uleb128 0x1
 3082 00ee 13       		.uleb128 0x13
 3083 00ef 00       		.byte	0
 3084 00f0 00       		.byte	0
 3085 00f1 14       		.uleb128 0x14
 3086 00f2 13       		.uleb128 0x13
 3087 00f3 01       		.byte	0x1
 3088 00f4 0B       		.uleb128 0xb
 3089 00f5 05       		.uleb128 0x5
 3090 00f6 3A       		.uleb128 0x3a
 3091 00f7 0B       		.uleb128 0xb
 3092 00f8 3B       		.uleb128 0x3b
 3093 00f9 0B       		.uleb128 0xb
 3094 00fa 01       		.uleb128 0x1
 3095 00fb 13       		.uleb128 0x13
 3096 00fc 00       		.byte	0
 3097 00fd 00       		.byte	0
 3098 00fe 15       		.uleb128 0x15
 3099 00ff 01       		.uleb128 0x1
 3100 0100 01       		.byte	0x1
 3101 0101 49       		.uleb128 0x49
ARM GAS  C:\Users\Luis\AppData\Local\Temp\ccdJOPAF.s 			page 56


 3102 0102 13       		.uleb128 0x13
 3103 0103 01       		.uleb128 0x1
 3104 0104 13       		.uleb128 0x13
 3105 0105 00       		.byte	0
 3106 0106 00       		.byte	0
 3107 0107 16       		.uleb128 0x16
 3108 0108 21       		.uleb128 0x21
 3109 0109 00       		.byte	0
 3110 010a 49       		.uleb128 0x49
 3111 010b 13       		.uleb128 0x13
 3112 010c 2F       		.uleb128 0x2f
 3113 010d 0B       		.uleb128 0xb
 3114 010e 00       		.byte	0
 3115 010f 00       		.byte	0
 3116 0110 17       		.uleb128 0x17
 3117 0111 17       		.uleb128 0x17
 3118 0112 01       		.byte	0x1
 3119 0113 0B       		.uleb128 0xb
 3120 0114 0B       		.uleb128 0xb
 3121 0115 3A       		.uleb128 0x3a
 3122 0116 0B       		.uleb128 0xb
 3123 0117 3B       		.uleb128 0x3b
 3124 0118 0B       		.uleb128 0xb
 3125 0119 01       		.uleb128 0x1
 3126 011a 13       		.uleb128 0x13
 3127 011b 00       		.byte	0
 3128 011c 00       		.byte	0
 3129 011d 18       		.uleb128 0x18
 3130 011e 0D       		.uleb128 0xd
 3131 011f 00       		.byte	0
 3132 0120 03       		.uleb128 0x3
 3133 0121 0E       		.uleb128 0xe
 3134 0122 3A       		.uleb128 0x3a
 3135 0123 0B       		.uleb128 0xb
 3136 0124 3B       		.uleb128 0x3b
 3137 0125 05       		.uleb128 0x5
 3138 0126 49       		.uleb128 0x49
 3139 0127 13       		.uleb128 0x13
 3140 0128 00       		.byte	0
 3141 0129 00       		.byte	0
 3142 012a 19       		.uleb128 0x19
 3143 012b 26       		.uleb128 0x26
 3144 012c 00       		.byte	0
 3145 012d 49       		.uleb128 0x49
 3146 012e 13       		.uleb128 0x13
 3147 012f 00       		.byte	0
 3148 0130 00       		.byte	0
 3149 0131 1A       		.uleb128 0x1a
 3150 0132 2E       		.uleb128 0x2e
 3151 0133 01       		.byte	0x1
 3152 0134 03       		.uleb128 0x3
 3153 0135 0E       		.uleb128 0xe
 3154 0136 3A       		.uleb128 0x3a
 3155 0137 0B       		.uleb128 0xb
 3156 0138 3B       		.uleb128 0x3b
 3157 0139 05       		.uleb128 0x5
 3158 013a 27       		.uleb128 0x27
ARM GAS  C:\Users\Luis\AppData\Local\Temp\ccdJOPAF.s 			page 57


 3159 013b 19       		.uleb128 0x19
 3160 013c 20       		.uleb128 0x20
 3161 013d 0B       		.uleb128 0xb
 3162 013e 01       		.uleb128 0x1
 3163 013f 13       		.uleb128 0x13
 3164 0140 00       		.byte	0
 3165 0141 00       		.byte	0
 3166 0142 1B       		.uleb128 0x1b
 3167 0143 05       		.uleb128 0x5
 3168 0144 00       		.byte	0
 3169 0145 03       		.uleb128 0x3
 3170 0146 0E       		.uleb128 0xe
 3171 0147 3A       		.uleb128 0x3a
 3172 0148 0B       		.uleb128 0xb
 3173 0149 3B       		.uleb128 0x3b
 3174 014a 05       		.uleb128 0x5
 3175 014b 49       		.uleb128 0x49
 3176 014c 13       		.uleb128 0x13
 3177 014d 00       		.byte	0
 3178 014e 00       		.byte	0
 3179 014f 1C       		.uleb128 0x1c
 3180 0150 2E       		.uleb128 0x2e
 3181 0151 01       		.byte	0x1
 3182 0152 03       		.uleb128 0x3
 3183 0153 0E       		.uleb128 0xe
 3184 0154 3A       		.uleb128 0x3a
 3185 0155 0B       		.uleb128 0xb
 3186 0156 3B       		.uleb128 0x3b
 3187 0157 05       		.uleb128 0x5
 3188 0158 27       		.uleb128 0x27
 3189 0159 19       		.uleb128 0x19
 3190 015a 11       		.uleb128 0x11
 3191 015b 01       		.uleb128 0x1
 3192 015c 12       		.uleb128 0x12
 3193 015d 06       		.uleb128 0x6
 3194 015e 40       		.uleb128 0x40
 3195 015f 18       		.uleb128 0x18
 3196 0160 9742     		.uleb128 0x2117
 3197 0162 19       		.uleb128 0x19
 3198 0163 01       		.uleb128 0x1
 3199 0164 13       		.uleb128 0x13
 3200 0165 00       		.byte	0
 3201 0166 00       		.byte	0
 3202 0167 1D       		.uleb128 0x1d
 3203 0168 1D       		.uleb128 0x1d
 3204 0169 01       		.byte	0x1
 3205 016a 31       		.uleb128 0x31
 3206 016b 13       		.uleb128 0x13
 3207 016c 11       		.uleb128 0x11
 3208 016d 01       		.uleb128 0x1
 3209 016e 12       		.uleb128 0x12
 3210 016f 06       		.uleb128 0x6
 3211 0170 58       		.uleb128 0x58
 3212 0171 0B       		.uleb128 0xb
 3213 0172 59       		.uleb128 0x59
 3214 0173 05       		.uleb128 0x5
 3215 0174 00       		.byte	0
ARM GAS  C:\Users\Luis\AppData\Local\Temp\ccdJOPAF.s 			page 58


 3216 0175 00       		.byte	0
 3217 0176 1E       		.uleb128 0x1e
 3218 0177 05       		.uleb128 0x5
 3219 0178 00       		.byte	0
 3220 0179 31       		.uleb128 0x31
 3221 017a 13       		.uleb128 0x13
 3222 017b 02       		.uleb128 0x2
 3223 017c 18       		.uleb128 0x18
 3224 017d 00       		.byte	0
 3225 017e 00       		.byte	0
 3226 017f 1F       		.uleb128 0x1f
 3227 0180 2E       		.uleb128 0x2e
 3228 0181 00       		.byte	0
 3229 0182 03       		.uleb128 0x3
 3230 0183 0E       		.uleb128 0xe
 3231 0184 3A       		.uleb128 0x3a
 3232 0185 0B       		.uleb128 0xb
 3233 0186 3B       		.uleb128 0x3b
 3234 0187 05       		.uleb128 0x5
 3235 0188 27       		.uleb128 0x27
 3236 0189 19       		.uleb128 0x19
 3237 018a 11       		.uleb128 0x11
 3238 018b 01       		.uleb128 0x1
 3239 018c 12       		.uleb128 0x12
 3240 018d 06       		.uleb128 0x6
 3241 018e 40       		.uleb128 0x40
 3242 018f 18       		.uleb128 0x18
 3243 0190 9642     		.uleb128 0x2116
 3244 0192 19       		.uleb128 0x19
 3245 0193 00       		.byte	0
 3246 0194 00       		.byte	0
 3247 0195 20       		.uleb128 0x20
 3248 0196 2E       		.uleb128 0x2e
 3249 0197 01       		.byte	0x1
 3250 0198 03       		.uleb128 0x3
 3251 0199 0E       		.uleb128 0xe
 3252 019a 3A       		.uleb128 0x3a
 3253 019b 0B       		.uleb128 0xb
 3254 019c 3B       		.uleb128 0x3b
 3255 019d 05       		.uleb128 0x5
 3256 019e 27       		.uleb128 0x27
 3257 019f 19       		.uleb128 0x19
 3258 01a0 11       		.uleb128 0x11
 3259 01a1 01       		.uleb128 0x1
 3260 01a2 12       		.uleb128 0x12
 3261 01a3 06       		.uleb128 0x6
 3262 01a4 40       		.uleb128 0x40
 3263 01a5 18       		.uleb128 0x18
 3264 01a6 9642     		.uleb128 0x2116
 3265 01a8 19       		.uleb128 0x19
 3266 01a9 01       		.uleb128 0x1
 3267 01aa 13       		.uleb128 0x13
 3268 01ab 00       		.byte	0
 3269 01ac 00       		.byte	0
 3270 01ad 21       		.uleb128 0x21
 3271 01ae 34       		.uleb128 0x34
 3272 01af 00       		.byte	0
ARM GAS  C:\Users\Luis\AppData\Local\Temp\ccdJOPAF.s 			page 59


 3273 01b0 03       		.uleb128 0x3
 3274 01b1 0E       		.uleb128 0xe
 3275 01b2 49       		.uleb128 0x49
 3276 01b3 13       		.uleb128 0x13
 3277 01b4 34       		.uleb128 0x34
 3278 01b5 19       		.uleb128 0x19
 3279 01b6 02       		.uleb128 0x2
 3280 01b7 18       		.uleb128 0x18
 3281 01b8 00       		.byte	0
 3282 01b9 00       		.byte	0
 3283 01ba 22       		.uleb128 0x22
 3284 01bb 2E       		.uleb128 0x2e
 3285 01bc 01       		.byte	0x1
 3286 01bd 03       		.uleb128 0x3
 3287 01be 0E       		.uleb128 0xe
 3288 01bf 3A       		.uleb128 0x3a
 3289 01c0 0B       		.uleb128 0xb
 3290 01c1 3B       		.uleb128 0x3b
 3291 01c2 0B       		.uleb128 0xb
 3292 01c3 27       		.uleb128 0x27
 3293 01c4 19       		.uleb128 0x19
 3294 01c5 11       		.uleb128 0x11
 3295 01c6 01       		.uleb128 0x1
 3296 01c7 12       		.uleb128 0x12
 3297 01c8 06       		.uleb128 0x6
 3298 01c9 40       		.uleb128 0x40
 3299 01ca 18       		.uleb128 0x18
 3300 01cb 9642     		.uleb128 0x2116
 3301 01cd 19       		.uleb128 0x19
 3302 01ce 01       		.uleb128 0x1
 3303 01cf 13       		.uleb128 0x13
 3304 01d0 00       		.byte	0
 3305 01d1 00       		.byte	0
 3306 01d2 23       		.uleb128 0x23
 3307 01d3 05       		.uleb128 0x5
 3308 01d4 00       		.byte	0
 3309 01d5 03       		.uleb128 0x3
 3310 01d6 08       		.uleb128 0x8
 3311 01d7 3A       		.uleb128 0x3a
 3312 01d8 0B       		.uleb128 0xb
 3313 01d9 3B       		.uleb128 0x3b
 3314 01da 0B       		.uleb128 0xb
 3315 01db 49       		.uleb128 0x49
 3316 01dc 13       		.uleb128 0x13
 3317 01dd 02       		.uleb128 0x2
 3318 01de 18       		.uleb128 0x18
 3319 01df 00       		.byte	0
 3320 01e0 00       		.byte	0
 3321 01e1 24       		.uleb128 0x24
 3322 01e2 2E       		.uleb128 0x2e
 3323 01e3 01       		.byte	0x1
 3324 01e4 03       		.uleb128 0x3
 3325 01e5 0E       		.uleb128 0xe
 3326 01e6 3A       		.uleb128 0x3a
 3327 01e7 0B       		.uleb128 0xb
 3328 01e8 3B       		.uleb128 0x3b
 3329 01e9 0B       		.uleb128 0xb
ARM GAS  C:\Users\Luis\AppData\Local\Temp\ccdJOPAF.s 			page 60


 3330 01ea 27       		.uleb128 0x27
 3331 01eb 19       		.uleb128 0x19
 3332 01ec 49       		.uleb128 0x49
 3333 01ed 13       		.uleb128 0x13
 3334 01ee 11       		.uleb128 0x11
 3335 01ef 01       		.uleb128 0x1
 3336 01f0 12       		.uleb128 0x12
 3337 01f1 06       		.uleb128 0x6
 3338 01f2 40       		.uleb128 0x40
 3339 01f3 18       		.uleb128 0x18
 3340 01f4 9642     		.uleb128 0x2116
 3341 01f6 19       		.uleb128 0x19
 3342 01f7 01       		.uleb128 0x1
 3343 01f8 13       		.uleb128 0x13
 3344 01f9 00       		.byte	0
 3345 01fa 00       		.byte	0
 3346 01fb 25       		.uleb128 0x25
 3347 01fc 2E       		.uleb128 0x2e
 3348 01fd 01       		.byte	0x1
 3349 01fe 3F       		.uleb128 0x3f
 3350 01ff 19       		.uleb128 0x19
 3351 0200 03       		.uleb128 0x3
 3352 0201 0E       		.uleb128 0xe
 3353 0202 3A       		.uleb128 0x3a
 3354 0203 0B       		.uleb128 0xb
 3355 0204 3B       		.uleb128 0x3b
 3356 0205 0B       		.uleb128 0xb
 3357 0206 27       		.uleb128 0x27
 3358 0207 19       		.uleb128 0x19
 3359 0208 11       		.uleb128 0x11
 3360 0209 01       		.uleb128 0x1
 3361 020a 12       		.uleb128 0x12
 3362 020b 06       		.uleb128 0x6
 3363 020c 40       		.uleb128 0x40
 3364 020d 18       		.uleb128 0x18
 3365 020e 9642     		.uleb128 0x2116
 3366 0210 19       		.uleb128 0x19
 3367 0211 01       		.uleb128 0x1
 3368 0212 13       		.uleb128 0x13
 3369 0213 00       		.byte	0
 3370 0214 00       		.byte	0
 3371 0215 26       		.uleb128 0x26
 3372 0216 2E       		.uleb128 0x2e
 3373 0217 01       		.byte	0x1
 3374 0218 3F       		.uleb128 0x3f
 3375 0219 19       		.uleb128 0x19
 3376 021a 03       		.uleb128 0x3
 3377 021b 0E       		.uleb128 0xe
 3378 021c 3A       		.uleb128 0x3a
 3379 021d 0B       		.uleb128 0xb
 3380 021e 3B       		.uleb128 0x3b
 3381 021f 0B       		.uleb128 0xb
 3382 0220 27       		.uleb128 0x27
 3383 0221 19       		.uleb128 0x19
 3384 0222 49       		.uleb128 0x49
 3385 0223 13       		.uleb128 0x13
 3386 0224 11       		.uleb128 0x11
ARM GAS  C:\Users\Luis\AppData\Local\Temp\ccdJOPAF.s 			page 61


 3387 0225 01       		.uleb128 0x1
 3388 0226 12       		.uleb128 0x12
 3389 0227 06       		.uleb128 0x6
 3390 0228 40       		.uleb128 0x40
 3391 0229 18       		.uleb128 0x18
 3392 022a 9642     		.uleb128 0x2116
 3393 022c 19       		.uleb128 0x19
 3394 022d 01       		.uleb128 0x1
 3395 022e 13       		.uleb128 0x13
 3396 022f 00       		.byte	0
 3397 0230 00       		.byte	0
 3398 0231 27       		.uleb128 0x27
 3399 0232 05       		.uleb128 0x5
 3400 0233 00       		.byte	0
 3401 0234 03       		.uleb128 0x3
 3402 0235 0E       		.uleb128 0xe
 3403 0236 3A       		.uleb128 0x3a
 3404 0237 0B       		.uleb128 0xb
 3405 0238 3B       		.uleb128 0x3b
 3406 0239 0B       		.uleb128 0xb
 3407 023a 49       		.uleb128 0x49
 3408 023b 13       		.uleb128 0x13
 3409 023c 02       		.uleb128 0x2
 3410 023d 18       		.uleb128 0x18
 3411 023e 00       		.byte	0
 3412 023f 00       		.byte	0
 3413 0240 28       		.uleb128 0x28
 3414 0241 34       		.uleb128 0x34
 3415 0242 00       		.byte	0
 3416 0243 03       		.uleb128 0x3
 3417 0244 0E       		.uleb128 0xe
 3418 0245 3A       		.uleb128 0x3a
 3419 0246 0B       		.uleb128 0xb
 3420 0247 3B       		.uleb128 0x3b
 3421 0248 0B       		.uleb128 0xb
 3422 0249 49       		.uleb128 0x49
 3423 024a 13       		.uleb128 0x13
 3424 024b 02       		.uleb128 0x2
 3425 024c 18       		.uleb128 0x18
 3426 024d 00       		.byte	0
 3427 024e 00       		.byte	0
 3428 024f 29       		.uleb128 0x29
 3429 0250 2E       		.uleb128 0x2e
 3430 0251 01       		.byte	0x1
 3431 0252 3F       		.uleb128 0x3f
 3432 0253 19       		.uleb128 0x19
 3433 0254 03       		.uleb128 0x3
 3434 0255 0E       		.uleb128 0xe
 3435 0256 3A       		.uleb128 0x3a
 3436 0257 0B       		.uleb128 0xb
 3437 0258 3B       		.uleb128 0x3b
 3438 0259 05       		.uleb128 0x5
 3439 025a 27       		.uleb128 0x27
 3440 025b 19       		.uleb128 0x19
 3441 025c 49       		.uleb128 0x49
 3442 025d 13       		.uleb128 0x13
 3443 025e 11       		.uleb128 0x11
ARM GAS  C:\Users\Luis\AppData\Local\Temp\ccdJOPAF.s 			page 62


 3444 025f 01       		.uleb128 0x1
 3445 0260 12       		.uleb128 0x12
 3446 0261 06       		.uleb128 0x6
 3447 0262 40       		.uleb128 0x40
 3448 0263 18       		.uleb128 0x18
 3449 0264 9642     		.uleb128 0x2116
 3450 0266 19       		.uleb128 0x19
 3451 0267 01       		.uleb128 0x1
 3452 0268 13       		.uleb128 0x13
 3453 0269 00       		.byte	0
 3454 026a 00       		.byte	0
 3455 026b 2A       		.uleb128 0x2a
 3456 026c 05       		.uleb128 0x5
 3457 026d 00       		.byte	0
 3458 026e 03       		.uleb128 0x3
 3459 026f 08       		.uleb128 0x8
 3460 0270 3A       		.uleb128 0x3a
 3461 0271 0B       		.uleb128 0xb
 3462 0272 3B       		.uleb128 0x3b
 3463 0273 05       		.uleb128 0x5
 3464 0274 49       		.uleb128 0x49
 3465 0275 13       		.uleb128 0x13
 3466 0276 02       		.uleb128 0x2
 3467 0277 18       		.uleb128 0x18
 3468 0278 00       		.byte	0
 3469 0279 00       		.byte	0
 3470 027a 2B       		.uleb128 0x2b
 3471 027b 05       		.uleb128 0x5
 3472 027c 00       		.byte	0
 3473 027d 03       		.uleb128 0x3
 3474 027e 0E       		.uleb128 0xe
 3475 027f 3A       		.uleb128 0x3a
 3476 0280 0B       		.uleb128 0xb
 3477 0281 3B       		.uleb128 0x3b
 3478 0282 05       		.uleb128 0x5
 3479 0283 49       		.uleb128 0x49
 3480 0284 13       		.uleb128 0x13
 3481 0285 02       		.uleb128 0x2
 3482 0286 18       		.uleb128 0x18
 3483 0287 00       		.byte	0
 3484 0288 00       		.byte	0
 3485 0289 2C       		.uleb128 0x2c
 3486 028a 34       		.uleb128 0x34
 3487 028b 00       		.byte	0
 3488 028c 03       		.uleb128 0x3
 3489 028d 0E       		.uleb128 0xe
 3490 028e 3A       		.uleb128 0x3a
 3491 028f 0B       		.uleb128 0xb
 3492 0290 3B       		.uleb128 0x3b
 3493 0291 05       		.uleb128 0x5
 3494 0292 49       		.uleb128 0x49
 3495 0293 13       		.uleb128 0x13
 3496 0294 02       		.uleb128 0x2
 3497 0295 18       		.uleb128 0x18
 3498 0296 00       		.byte	0
 3499 0297 00       		.byte	0
 3500 0298 2D       		.uleb128 0x2d
ARM GAS  C:\Users\Luis\AppData\Local\Temp\ccdJOPAF.s 			page 63


 3501 0299 34       		.uleb128 0x34
 3502 029a 00       		.byte	0
 3503 029b 03       		.uleb128 0x3
 3504 029c 0E       		.uleb128 0xe
 3505 029d 3A       		.uleb128 0x3a
 3506 029e 0B       		.uleb128 0xb
 3507 029f 3B       		.uleb128 0x3b
 3508 02a0 05       		.uleb128 0x5
 3509 02a1 49       		.uleb128 0x49
 3510 02a2 13       		.uleb128 0x13
 3511 02a3 3F       		.uleb128 0x3f
 3512 02a4 19       		.uleb128 0x19
 3513 02a5 3C       		.uleb128 0x3c
 3514 02a6 19       		.uleb128 0x19
 3515 02a7 00       		.byte	0
 3516 02a8 00       		.byte	0
 3517 02a9 2E       		.uleb128 0x2e
 3518 02aa 34       		.uleb128 0x34
 3519 02ab 00       		.byte	0
 3520 02ac 03       		.uleb128 0x3
 3521 02ad 08       		.uleb128 0x8
 3522 02ae 3A       		.uleb128 0x3a
 3523 02af 0B       		.uleb128 0xb
 3524 02b0 3B       		.uleb128 0x3b
 3525 02b1 05       		.uleb128 0x5
 3526 02b2 49       		.uleb128 0x49
 3527 02b3 13       		.uleb128 0x13
 3528 02b4 3F       		.uleb128 0x3f
 3529 02b5 19       		.uleb128 0x19
 3530 02b6 3C       		.uleb128 0x3c
 3531 02b7 19       		.uleb128 0x19
 3532 02b8 00       		.byte	0
 3533 02b9 00       		.byte	0
 3534 02ba 00       		.byte	0
 3535              		.section	.debug_aranges,"",%progbits
 3536 0000 A4000000 		.4byte	0xa4
 3537 0004 0200     		.2byte	0x2
 3538 0006 00000000 		.4byte	.Ldebug_info0
 3539 000a 04       		.byte	0x4
 3540 000b 00       		.byte	0
 3541 000c 0000     		.2byte	0
 3542 000e 0000     		.2byte	0
 3543 0010 00000000 		.4byte	.LFB116
 3544 0014 1A000000 		.4byte	.LFE116-.LFB116
 3545 0018 00000000 		.4byte	.LFB117
 3546 001c 1A000000 		.4byte	.LFE117-.LFB117
 3547 0020 00000000 		.4byte	.LFB156
 3548 0024 12000000 		.4byte	.LFE156-.LFB156
 3549 0028 00000000 		.4byte	.LFB157
 3550 002c 3C000000 		.4byte	.LFE157-.LFB157
 3551 0030 00000000 		.4byte	.LFB189
 3552 0034 1C000000 		.4byte	.LFE189-.LFB189
 3553 0038 00000000 		.4byte	.LFB191
 3554 003c 18000000 		.4byte	.LFE191-.LFB191
 3555 0040 00000000 		.4byte	.LFB229
 3556 0044 64000000 		.4byte	.LFE229-.LFB229
 3557 0048 00000000 		.4byte	.LFB230
ARM GAS  C:\Users\Luis\AppData\Local\Temp\ccdJOPAF.s 			page 64


 3558 004c 20000000 		.4byte	.LFE230-.LFB230
 3559 0050 00000000 		.4byte	.LFB231
 3560 0054 5C000000 		.4byte	.LFE231-.LFB231
 3561 0058 00000000 		.4byte	.LFB232
 3562 005c 2A000000 		.4byte	.LFE232-.LFB232
 3563 0060 00000000 		.4byte	.LFB233
 3564 0064 70000000 		.4byte	.LFE233-.LFB233
 3565 0068 00000000 		.4byte	.LFB234
 3566 006c 74000000 		.4byte	.LFE234-.LFB234
 3567 0070 00000000 		.4byte	.LFB235
 3568 0074 2A000000 		.4byte	.LFE235-.LFB235
 3569 0078 00000000 		.4byte	.LFB236
 3570 007c 74000000 		.4byte	.LFE236-.LFB236
 3571 0080 00000000 		.4byte	.LFB237
 3572 0084 7C000000 		.4byte	.LFE237-.LFB237
 3573 0088 00000000 		.4byte	.LFB238
 3574 008c 2A000000 		.4byte	.LFE238-.LFB238
 3575 0090 00000000 		.4byte	.LFB239
 3576 0094 78000000 		.4byte	.LFE239-.LFB239
 3577 0098 00000000 		.4byte	.LFB240
 3578 009c 7C000000 		.4byte	.LFE240-.LFB240
 3579 00a0 00000000 		.4byte	0
 3580 00a4 00000000 		.4byte	0
 3581              		.section	.debug_ranges,"",%progbits
 3582              	.Ldebug_ranges0:
 3583 0000 00000000 		.4byte	.LFB116
 3584 0004 1A000000 		.4byte	.LFE116
 3585 0008 00000000 		.4byte	.LFB117
 3586 000c 1A000000 		.4byte	.LFE117
 3587 0010 00000000 		.4byte	.LFB156
 3588 0014 12000000 		.4byte	.LFE156
 3589 0018 00000000 		.4byte	.LFB157
 3590 001c 3C000000 		.4byte	.LFE157
 3591 0020 00000000 		.4byte	.LFB189
 3592 0024 1C000000 		.4byte	.LFE189
 3593 0028 00000000 		.4byte	.LFB191
 3594 002c 18000000 		.4byte	.LFE191
 3595 0030 00000000 		.4byte	.LFB229
 3596 0034 64000000 		.4byte	.LFE229
 3597 0038 00000000 		.4byte	.LFB230
 3598 003c 20000000 		.4byte	.LFE230
 3599 0040 00000000 		.4byte	.LFB231
 3600 0044 5C000000 		.4byte	.LFE231
 3601 0048 00000000 		.4byte	.LFB232
 3602 004c 2A000000 		.4byte	.LFE232
 3603 0050 00000000 		.4byte	.LFB233
 3604 0054 70000000 		.4byte	.LFE233
 3605 0058 00000000 		.4byte	.LFB234
 3606 005c 74000000 		.4byte	.LFE234
 3607 0060 00000000 		.4byte	.LFB235
 3608 0064 2A000000 		.4byte	.LFE235
 3609 0068 00000000 		.4byte	.LFB236
 3610 006c 74000000 		.4byte	.LFE236
 3611 0070 00000000 		.4byte	.LFB237
 3612 0074 7C000000 		.4byte	.LFE237
 3613 0078 00000000 		.4byte	.LFB238
 3614 007c 2A000000 		.4byte	.LFE238
ARM GAS  C:\Users\Luis\AppData\Local\Temp\ccdJOPAF.s 			page 65


 3615 0080 00000000 		.4byte	.LFB239
 3616 0084 78000000 		.4byte	.LFE239
 3617 0088 00000000 		.4byte	.LFB240
 3618 008c 7C000000 		.4byte	.LFE240
 3619 0090 00000000 		.4byte	0
 3620 0094 00000000 		.4byte	0
 3621              		.section	.debug_line,"",%progbits
 3622              	.Ldebug_line0:
 3623 0000 D3030000 		.section	.debug_str,"MS",%progbits,1
 3623      0200B301 
 3623      00000201 
 3623      FB0E0D00 
 3623      01010101 
 3624              	.LASF94:
 3625 0000 74625F70 		.ascii	"tb_ptr\000"
 3625      747200
 3626              	.LASF51:
 3627 0007 72656164 		.ascii	"ready_list_t\000"
 3627      795F6C69 
 3627      73745F74 
 3627      00
 3628              	.LASF138:
 3629 0014 63684D42 		.ascii	"chMBObjectInit\000"
 3629      4F626A65 
 3629      6374496E 
 3629      697400
 3630              	.LASF112:
 3631 0023 77747472 		.ascii	"wttrp\000"
 3631      7000
 3632              	.LASF109:
 3633 0029 7264796D 		.ascii	"rdymsg\000"
 3633      736700
 3634              	.LASF11:
 3635 0030 75696E74 		.ascii	"uint64_t\000"
 3635      36345F74 
 3635      00
 3636              	.LASF81:
 3637 0039 6B65726E 		.ascii	"kernel_stats\000"
 3637      656C5F73 
 3637      74617473 
 3637      00
 3638              	.LASF144:
 3639 0046 63684D42 		.ascii	"chMBPostI\000"
 3639      506F7374 
 3639      4900
 3640              	.LASF87:
 3641 0050 706F7274 		.ascii	"port_intctx\000"
 3641      5F696E74 
 3641      63747800 
 3642              	.LASF50:
 3643 005c 63685F74 		.ascii	"ch_threads_queue\000"
 3643      68726561 
 3643      64735F71 
 3643      75657565 
 3643      00
 3644              	.LASF70:
 3645 006d 73797374 		.ascii	"system_debug_t\000"
ARM GAS  C:\Users\Luis\AppData\Local\Temp\ccdJOPAF.s 			page 66


 3645      656D5F64 
 3645      65627567 
 3645      5F7400
 3646              	.LASF133:
 3647 007c 706F7274 		.ascii	"port_lock\000"
 3647      5F6C6F63 
 3647      6B00
 3648              	.LASF100:
 3649 0086 776F7273 		.ascii	"worst\000"
 3649      7400
 3650              	.LASF103:
 3651 008c 74696D65 		.ascii	"time_measurement_t\000"
 3651      5F6D6561 
 3651      73757265 
 3651      6D656E74 
 3651      5F7400
 3652              	.LASF147:
 3653 009f 63684D42 		.ascii	"chMBPostAheadI\000"
 3653      506F7374 
 3653      41686561 
 3653      644900
 3654              	.LASF12:
 3655 00ae 6C6F6E67 		.ascii	"long long unsigned int\000"
 3655      206C6F6E 
 3655      6720756E 
 3655      7369676E 
 3655      65642069 
 3656              	.LASF96:
 3657 00c5 63685F74 		.ascii	"ch_trace_buffer_t\000"
 3657      72616365 
 3657      5F627566 
 3657      6665725F 
 3657      7400
 3658              	.LASF91:
 3659 00d7 73655F73 		.ascii	"se_state\000"
 3659      74617465 
 3659      00
 3660              	.LASF110:
 3661 00e0 65786974 		.ascii	"exitcode\000"
 3661      636F6465 
 3661      00
 3662              	.LASF146:
 3663 00e9 63684D42 		.ascii	"chMBPostAheadS\000"
 3663      506F7374 
 3663      41686561 
 3663      645300
 3664              	.LASF67:
 3665 00f8 76697274 		.ascii	"virtual_timers_list_t\000"
 3665      75616C5F 
 3665      74696D65 
 3665      72735F6C 
 3665      6973745F 
 3666              	.LASF128:
 3667 010e 6D625F77 		.ascii	"mb_wrptr\000"
 3667      72707472 
 3667      00
 3668              	.LASF14:
ARM GAS  C:\Users\Luis\AppData\Local\Temp\ccdJOPAF.s 			page 67


 3669 0117 72747469 		.ascii	"rttime_t\000"
 3669      6D655F74 
 3669      00
 3670              	.LASF27:
 3671 0120 705F7072 		.ascii	"p_prio\000"
 3671      696F00
 3672              	.LASF4:
 3673 0127 73686F72 		.ascii	"short unsigned int\000"
 3673      7420756E 
 3673      7369676E 
 3673      65642069 
 3673      6E7400
 3674              	.LASF10:
 3675 013a 6C6F6E67 		.ascii	"long long int\000"
 3675      206C6F6E 
 3675      6720696E 
 3675      7400
 3676              	.LASF1:
 3677 0148 7369676E 		.ascii	"signed char\000"
 3677      65642063 
 3677      68617200 
 3678              	.LASF88:
 3679 0154 73655F74 		.ascii	"se_time\000"
 3679      696D6500 
 3680              	.LASF42:
 3681 015c 705F6D70 		.ascii	"p_mpool\000"
 3681      6F6F6C00 
 3682              	.LASF120:
 3683 0164 6D5F7175 		.ascii	"m_queue\000"
 3683      65756500 
 3684              	.LASF79:
 3685 016c 76746C69 		.ascii	"vtlist\000"
 3685      737400
 3686              	.LASF134:
 3687 0173 706F7274 		.ascii	"port_unlock\000"
 3687      5F756E6C 
 3687      6F636B00 
 3688              	.LASF155:
 3689 017f 433A5C55 		.ascii	"C:\\Users\\Luis\\git\\DSP-Library-Lanin\\examples\\"
 3689      73657273 
 3689      5C4C7569 
 3689      735C6769 
 3689      745C4453 
 3690 01ac 4453502D 		.ascii	"DSP-Library\000"
 3690      4C696272 
 3690      61727900 
 3691              	.LASF142:
 3692 01b8 63684D42 		.ascii	"chMBPost\000"
 3692      506F7374 
 3692      00
 3693              	.LASF7:
 3694 01c1 6C6F6E67 		.ascii	"long int\000"
 3694      20696E74 
 3694      00
 3695              	.LASF16:
 3696 01ca 74737461 		.ascii	"tstate_t\000"
 3696      74655F74 
ARM GAS  C:\Users\Luis\AppData\Local\Temp\ccdJOPAF.s 			page 68


 3696      00
 3697              	.LASF89:
 3698 01d3 73655F74 		.ascii	"se_tp\000"
 3698      7000
 3699              	.LASF29:
 3700 01d9 705F6E65 		.ascii	"p_newer\000"
 3700      77657200 
 3701              	.LASF117:
 3702 01e1 735F7175 		.ascii	"s_queue\000"
 3702      65756500 
 3703              	.LASF93:
 3704 01e9 74625F73 		.ascii	"tb_size\000"
 3704      697A6500 
 3705              	.LASF129:
 3706 01f1 6D625F72 		.ascii	"mb_rdptr\000"
 3706      64707472 
 3706      00
 3707              	.LASF84:
 3708 01fa 72656761 		.ascii	"regarm_t\000"
 3708      726D5F74 
 3708      00
 3709              	.LASF63:
 3710 0203 76745F70 		.ascii	"vt_prev\000"
 3710      72657600 
 3711              	.LASF71:
 3712 020b 63685F73 		.ascii	"ch_system_debug\000"
 3712      79737465 
 3712      6D5F6465 
 3712      62756700 
 3713              	.LASF125:
 3714 021b 6D757465 		.ascii	"mutex_t\000"
 3714      785F7400 
 3715              	.LASF157:
 3716 0223 76616C75 		.ascii	"value\000"
 3716      6500
 3717              	.LASF74:
 3718 0229 6C6F636B 		.ascii	"lock_cnt\000"
 3718      5F636E74 
 3718      00
 3719              	.LASF82:
 3720 0232 69646C65 		.ascii	"idle_thread_wa\000"
 3720      5F746872 
 3720      6561645F 
 3720      776100
 3721              	.LASF21:
 3722 0241 636E745F 		.ascii	"cnt_t\000"
 3722      7400
 3723              	.LASF32:
 3724 0247 705F7374 		.ascii	"p_stklimit\000"
 3724      6B6C696D 
 3724      697400
 3725              	.LASF0:
 3726 0252 756E7369 		.ascii	"unsigned int\000"
 3726      676E6564 
 3726      20696E74 
 3726      00
 3727              	.LASF62:
ARM GAS  C:\Users\Luis\AppData\Local\Temp\ccdJOPAF.s 			page 69


 3728 025f 76745F6E 		.ascii	"vt_next\000"
 3728      65787400 
 3729              	.LASF113:
 3730 0267 77747365 		.ascii	"wtsemp\000"
 3730      6D7000
 3731              	.LASF37:
 3732 026e 705F6D73 		.ascii	"p_msgqueue\000"
 3732      67717565 
 3732      756500
 3733              	.LASF141:
 3734 0279 74696D65 		.ascii	"timeout\000"
 3734      6F757400 
 3735              	.LASF44:
 3736 0281 746C7350 		.ascii	"tlsPtr\000"
 3736      747200
 3737              	.LASF104:
 3738 0288 6E5F6972 		.ascii	"n_irq\000"
 3738      7100
 3739              	.LASF118:
 3740 028e 735F636E 		.ascii	"s_cnt\000"
 3740      7400
 3741              	.LASF140:
 3742 0294 63684D42 		.ascii	"chMBResetI\000"
 3742      52657365 
 3742      744900
 3743              	.LASF108:
 3744 029f 6B65726E 		.ascii	"kernel_stats_t\000"
 3744      656C5F73 
 3744      74617473 
 3744      5F7400
 3745              	.LASF47:
 3746 02ae 63685F74 		.ascii	"ch_thread\000"
 3746      68726561 
 3746      6400
 3747              	.LASF131:
 3748 02b8 6D625F65 		.ascii	"mb_emptysem\000"
 3748      6D707479 
 3748      73656D00 
 3749              	.LASF80:
 3750 02c4 6D61696E 		.ascii	"mainthread\000"
 3750      74687265 
 3750      616400
 3751              	.LASF151:
 3752 02cf 63684D42 		.ascii	"chMBFetchI\000"
 3752      46657463 
 3752      684900
 3753              	.LASF19:
 3754 02da 6D73675F 		.ascii	"msg_t\000"
 3754      7400
 3755              	.LASF101:
 3756 02e0 6C617374 		.ascii	"last\000"
 3756      00
 3757              	.LASF22:
 3758 02e5 75636E74 		.ascii	"ucnt_t\000"
 3758      5F7400
 3759              	.LASF56:
 3760 02ec 725F6E65 		.ascii	"r_newer\000"
ARM GAS  C:\Users\Luis\AppData\Local\Temp\ccdJOPAF.s 			page 70


 3760      77657200 
 3761              	.LASF76:
 3762 02f4 63685F73 		.ascii	"ch_system_t\000"
 3762      79737465 
 3762      6D5F7400 
 3763              	.LASF150:
 3764 0300 63684D42 		.ascii	"chMBFetchS\000"
 3764      46657463 
 3764      685300
 3765              	.LASF15:
 3766 030b 746D6F64 		.ascii	"tmode_t\000"
 3766      655F7400 
 3767              	.LASF107:
 3768 0313 6D5F6372 		.ascii	"m_crit_isr\000"
 3768      69745F69 
 3768      737200
 3769              	.LASF52:
 3770 031e 63685F72 		.ascii	"ch_ready_list\000"
 3770      65616479 
 3770      5F6C6973 
 3770      7400
 3771              	.LASF20:
 3772 032c 6576656E 		.ascii	"eventmask_t\000"
 3772      746D6173 
 3772      6B5F7400 
 3773              	.LASF149:
 3774 0338 6D736770 		.ascii	"msgp\000"
 3774      00
 3775              	.LASF85:
 3776 033d 73746B61 		.ascii	"stkalign_t\000"
 3776      6C69676E 
 3776      5F7400
 3777              	.LASF36:
 3778 0348 705F7761 		.ascii	"p_waiting\000"
 3778      6974696E 
 3778      6700
 3779              	.LASF83:
 3780 0352 73697A65 		.ascii	"sizetype\000"
 3780      74797065 
 3780      00
 3781              	.LASF45:
 3782 035b 74687265 		.ascii	"thread_reference_t\000"
 3782      61645F72 
 3782      65666572 
 3782      656E6365 
 3782      5F7400
 3783              	.LASF68:
 3784 036e 63685F76 		.ascii	"ch_virtual_timers_list\000"
 3784      69727475 
 3784      616C5F74 
 3784      696D6572 
 3784      735F6C69 
 3785              	.LASF148:
 3786 0385 63684D42 		.ascii	"chMBFetch\000"
 3786      46657463 
 3786      6800
 3787              	.LASF139:
ARM GAS  C:\Users\Luis\AppData\Local\Temp\ccdJOPAF.s 			page 71


 3788 038f 63684D42 		.ascii	"chMBReset\000"
 3788      52657365 
 3788      7400
 3789              	.LASF92:
 3790 0399 63685F73 		.ascii	"ch_swc_event_t\000"
 3790      77635F65 
 3790      76656E74 
 3790      5F7400
 3791              	.LASF69:
 3792 03a8 76745F6C 		.ascii	"vt_lasttime\000"
 3792      61737474 
 3792      696D6500 
 3793              	.LASF30:
 3794 03b4 705F6F6C 		.ascii	"p_older\000"
 3794      64657200 
 3795              	.LASF55:
 3796 03bc 725F6374 		.ascii	"r_ctx\000"
 3796      7800
 3797              	.LASF132:
 3798 03c2 6D61696C 		.ascii	"mailbox_t\000"
 3798      626F785F 
 3798      7400
 3799              	.LASF98:
 3800 03cc 746D5F63 		.ascii	"tm_calibration_t\000"
 3800      616C6962 
 3800      72617469 
 3800      6F6E5F74 
 3800      00
 3801              	.LASF126:
 3802 03dd 6D625F62 		.ascii	"mb_buffer\000"
 3802      75666665 
 3802      7200
 3803              	.LASF58:
 3804 03e7 725F6375 		.ascii	"r_current\000"
 3804      7272656E 
 3804      7400
 3805              	.LASF57:
 3806 03f1 725F6F6C 		.ascii	"r_older\000"
 3806      64657200 
 3807              	.LASF102:
 3808 03f9 63756D75 		.ascii	"cumulative\000"
 3808      6C617469 
 3808      766500
 3809              	.LASF17:
 3810 0404 74726566 		.ascii	"trefs_t\000"
 3810      735F7400 
 3811              	.LASF95:
 3812 040c 74625F62 		.ascii	"tb_buffer\000"
 3812      75666665 
 3812      7200
 3813              	.LASF60:
 3814 0416 76697274 		.ascii	"virtual_timer_t\000"
 3814      75616C5F 
 3814      74696D65 
 3814      725F7400 
 3815              	.LASF26:
 3816 0426 705F7072 		.ascii	"p_prev\000"
ARM GAS  C:\Users\Luis\AppData\Local\Temp\ccdJOPAF.s 			page 72


 3816      657600
 3817              	.LASF18:
 3818 042d 74707269 		.ascii	"tprio_t\000"
 3818      6F5F7400 
 3819              	.LASF105:
 3820 0435 6E5F6374 		.ascii	"n_ctxswc\000"
 3820      78737763 
 3820      00
 3821              	.LASF6:
 3822 043e 696E7433 		.ascii	"int32_t\000"
 3822      325F7400 
 3823              	.LASF2:
 3824 0446 756E7369 		.ascii	"unsigned char\000"
 3824      676E6564 
 3824      20636861 
 3824      7200
 3825              	.LASF127:
 3826 0454 6D625F74 		.ascii	"mb_top\000"
 3826      6F7000
 3827              	.LASF152:
 3828 045b 49544D5F 		.ascii	"ITM_RxBuffer\000"
 3828      52784275 
 3828      66666572 
 3828      00
 3829              	.LASF40:
 3830 0468 705F6D74 		.ascii	"p_mtxlist\000"
 3830      786C6973 
 3830      7400
 3831              	.LASF3:
 3832 0472 73686F72 		.ascii	"short int\000"
 3832      7420696E 
 3832      7400
 3833              	.LASF33:
 3834 047c 705F7374 		.ascii	"p_state\000"
 3834      61746500 
 3835              	.LASF54:
 3836 0484 725F7072 		.ascii	"r_prio\000"
 3836      696F00
 3837              	.LASF115:
 3838 048b 65776D61 		.ascii	"ewmask\000"
 3838      736B00
 3839              	.LASF25:
 3840 0492 705F6E65 		.ascii	"p_next\000"
 3840      787400
 3841              	.LASF34:
 3842 0499 705F666C 		.ascii	"p_flags\000"
 3842      61677300 
 3843              	.LASF137:
 3844 04a1 5F5F6675 		.ascii	"__func__\000"
 3844      6E635F5F 
 3844      00
 3845              	.LASF43:
 3846 04aa 705F7374 		.ascii	"p_stats\000"
 3846      61747300 
 3847              	.LASF158:
 3848 04b2 63685379 		.ascii	"chSysLock\000"
 3848      734C6F63 
ARM GAS  C:\Users\Luis\AppData\Local\Temp\ccdJOPAF.s 			page 73


 3848      6B00
 3849              	.LASF77:
 3850 04bc 63685F73 		.ascii	"ch_system\000"
 3850      79737465 
 3850      6D00
 3851              	.LASF124:
 3852 04c6 73656D61 		.ascii	"semaphore_t\000"
 3852      70686F72 
 3852      655F7400 
 3853              	.LASF61:
 3854 04d2 63685F76 		.ascii	"ch_virtual_timer\000"
 3854      69727475 
 3854      616C5F74 
 3854      696D6572 
 3854      00
 3855              	.LASF116:
 3856 04e3 63685F73 		.ascii	"ch_semaphore\000"
 3856      656D6170 
 3856      686F7265 
 3856      00
 3857              	.LASF39:
 3858 04f0 705F6570 		.ascii	"p_epending\000"
 3858      656E6469 
 3858      6E6700
 3859              	.LASF154:
 3860 04fb 2E2E2F2E 		.ascii	"../../ChibiOS/os/rt/src/chmboxes.c\000"
 3860      2E2F4368 
 3860      6962694F 
 3860      532F6F73 
 3860      2F72742F 
 3861              	.LASF114:
 3862 051e 77746D74 		.ascii	"wtmtxp\000"
 3862      787000
 3863              	.LASF53:
 3864 0525 725F7175 		.ascii	"r_queue\000"
 3864      65756500 
 3865              	.LASF64:
 3866 052d 76745F64 		.ascii	"vt_delta\000"
 3866      656C7461 
 3866      00
 3867              	.LASF48:
 3868 0536 63685F74 		.ascii	"ch_threads_list\000"
 3868      68726561 
 3868      64735F6C 
 3868      69737400 
 3869              	.LASF9:
 3870 0546 6C6F6E67 		.ascii	"long unsigned int\000"
 3870      20756E73 
 3870      69676E65 
 3870      6420696E 
 3870      7400
 3871              	.LASF123:
 3872 0558 63686172 		.ascii	"char\000"
 3872      00
 3873              	.LASF153:
 3874 055d 474E5520 		.ascii	"GNU C 4.8.3 20131129 (release) [ARM/embedded-4_8-br"
 3874      4320342E 
ARM GAS  C:\Users\Luis\AppData\Local\Temp\ccdJOPAF.s 			page 74


 3874      382E3320 
 3874      32303133 
 3874      31313239 
 3875 0590 616E6368 		.ascii	"anch revision 205641] -mcpu=cortex-m4 -mapcs-frame "
 3875      20726576 
 3875      6973696F 
 3875      6E203230 
 3875      35363431 
 3876 05c3 2D6D6E6F 		.ascii	"-mno-thumb-interwork -mthumb -ggdb -O0 -falign-func"
 3876      2D746875 
 3876      6D622D69 
 3876      6E746572 
 3876      776F726B 
 3877 05f6 74696F6E 		.ascii	"tions=16 -ffunction-sections -fdata-sections -fno-c"
 3877      733D3136 
 3877      202D6666 
 3877      756E6374 
 3877      696F6E2D 
 3878 0629 6F6D6D6F 		.ascii	"ommon\000"
 3878      6E00
 3879              	.LASF99:
 3880 062f 62657374 		.ascii	"best\000"
 3880      00
 3881              	.LASF122:
 3882 0634 6D5F6E65 		.ascii	"m_next\000"
 3882      787400
 3883              	.LASF23:
 3884 063b 73797374 		.ascii	"systime_t\000"
 3884      696D655F 
 3884      7400
 3885              	.LASF41:
 3886 0645 705F7265 		.ascii	"p_realprio\000"
 3886      616C7072 
 3886      696F00
 3887              	.LASF59:
 3888 0650 76746675 		.ascii	"vtfunc_t\000"
 3888      6E635F74 
 3888      00
 3889              	.LASF159:
 3890 0659 63685365 		.ascii	"chSemGetCounterI\000"
 3890      6D476574 
 3890      436F756E 
 3890      74657249 
 3890      00
 3891              	.LASF156:
 3892 066a 5F5F7365 		.ascii	"__set_BASEPRI\000"
 3892      745F4241 
 3892      53455052 
 3892      4900
 3893              	.LASF72:
 3894 0678 70616E69 		.ascii	"panic_msg\000"
 3894      635F6D73 
 3894      6700
 3895              	.LASF97:
 3896 0682 6F666673 		.ascii	"offset\000"
 3896      657400
 3897              	.LASF86:
ARM GAS  C:\Users\Luis\AppData\Local\Temp\ccdJOPAF.s 			page 75


 3898 0689 636F6E74 		.ascii	"context\000"
 3898      65787400 
 3899              	.LASF145:
 3900 0691 63684D42 		.ascii	"chMBPostAhead\000"
 3900      506F7374 
 3900      41686561 
 3900      6400
 3901              	.LASF13:
 3902 069f 7274636E 		.ascii	"rtcnt_t\000"
 3902      745F7400 
 3903              	.LASF66:
 3904 06a7 76745F70 		.ascii	"vt_par\000"
 3904      617200
 3905              	.LASF136:
 3906 06ae 63685365 		.ascii	"chSemFastWaitI\000"
 3906      6D466173 
 3906      74576169 
 3906      744900
 3907              	.LASF8:
 3908 06bd 75696E74 		.ascii	"uint32_t\000"
 3908      33325F74 
 3908      00
 3909              	.LASF130:
 3910 06c6 6D625F66 		.ascii	"mb_fullsem\000"
 3910      756C6C73 
 3910      656D00
 3911              	.LASF49:
 3912 06d1 74687265 		.ascii	"threads_queue_t\000"
 3912      6164735F 
 3912      71756575 
 3912      655F7400 
 3913              	.LASF119:
 3914 06e1 63685F6D 		.ascii	"ch_mutex\000"
 3914      75746578 
 3914      00
 3915              	.LASF35:
 3916 06ea 705F7265 		.ascii	"p_refs\000"
 3916      667300
 3917              	.LASF73:
 3918 06f1 6973725F 		.ascii	"isr_cnt\000"
 3918      636E7400 
 3919              	.LASF24:
 3920 06f9 74687265 		.ascii	"thread_t\000"
 3920      61645F74 
 3920      00
 3921              	.LASF78:
 3922 0702 726C6973 		.ascii	"rlist\000"
 3922      7400
 3923              	.LASF5:
 3924 0708 75696E74 		.ascii	"uint8_t\000"
 3924      385F7400 
 3925              	.LASF111:
 3926 0710 77746F62 		.ascii	"wtobjp\000"
 3926      6A7000
 3927              	.LASF31:
 3928 0717 705F6E61 		.ascii	"p_name\000"
 3928      6D6500
ARM GAS  C:\Users\Luis\AppData\Local\Temp\ccdJOPAF.s 			page 76


 3929              	.LASF46:
 3930 071e 74687265 		.ascii	"threads_list_t\000"
 3930      6164735F 
 3930      6C697374 
 3930      5F7400
 3931              	.LASF75:
 3932 072d 74726163 		.ascii	"trace_buffer\000"
 3932      655F6275 
 3932      66666572 
 3932      00
 3933              	.LASF135:
 3934 073a 63685379 		.ascii	"chSysUnlock\000"
 3934      73556E6C 
 3934      6F636B00 
 3935              	.LASF38:
 3936 0746 705F6D73 		.ascii	"p_msg\000"
 3936      6700
 3937              	.LASF143:
 3938 074c 63684D42 		.ascii	"chMBPostS\000"
 3938      506F7374 
 3938      5300
 3939              	.LASF106:
 3940 0756 6D5F6372 		.ascii	"m_crit_thd\000"
 3940      69745F74 
 3940      686400
 3941              	.LASF121:
 3942 0761 6D5F6F77 		.ascii	"m_owner\000"
 3942      6E657200 
 3943              	.LASF90:
 3944 0769 73655F77 		.ascii	"se_wtobjp\000"
 3944      746F626A 
 3944      7000
 3945              	.LASF28:
 3946 0773 705F6374 		.ascii	"p_ctx\000"
 3946      7800
 3947              	.LASF65:
 3948 0779 76745F66 		.ascii	"vt_func\000"
 3948      756E6300 
 3949              		.ident	"GCC: (GNU Tools for ARM Embedded Processors) 4.8.3 20131129 (release) [ARM/embedded-4_8-br
ARM GAS  C:\Users\Luis\AppData\Local\Temp\ccdJOPAF.s 			page 77


DEFINED SYMBOLS
                            *ABS*:00000000 chmboxes.c
C:\Users\Luis\AppData\Local\Temp\ccdJOPAF.s:19     .text.port_lock:00000000 $t
C:\Users\Luis\AppData\Local\Temp\ccdJOPAF.s:24     .text.port_lock:00000000 port_lock
C:\Users\Luis\AppData\Local\Temp\ccdJOPAF.s:62     .text.port_unlock:00000000 $t
C:\Users\Luis\AppData\Local\Temp\ccdJOPAF.s:67     .text.port_unlock:00000000 port_unlock
C:\Users\Luis\AppData\Local\Temp\ccdJOPAF.s:103    .text.chSysLock:00000000 $t
C:\Users\Luis\AppData\Local\Temp\ccdJOPAF.s:108    .text.chSysLock:00000000 chSysLock
C:\Users\Luis\AppData\Local\Temp\ccdJOPAF.s:133    .text.chSysUnlock:00000000 $t
C:\Users\Luis\AppData\Local\Temp\ccdJOPAF.s:138    .text.chSysUnlock:00000000 chSysUnlock
C:\Users\Luis\AppData\Local\Temp\ccdJOPAF.s:179    .text.chSysUnlock:00000034 $d
C:\Users\Luis\AppData\Local\Temp\ccdJOPAF.s:1159   .rodata.__func__.5842:00000000 __func__.5842
C:\Users\Luis\AppData\Local\Temp\ccdJOPAF.s:185    .text.chSemFastWaitI:00000000 $t
C:\Users\Luis\AppData\Local\Temp\ccdJOPAF.s:190    .text.chSemFastWaitI:00000000 chSemFastWaitI
C:\Users\Luis\AppData\Local\Temp\ccdJOPAF.s:223    .text.chSemGetCounterI:00000000 $t
C:\Users\Luis\AppData\Local\Temp\ccdJOPAF.s:228    .text.chSemGetCounterI:00000000 chSemGetCounterI
C:\Users\Luis\AppData\Local\Temp\ccdJOPAF.s:258    .text.chMBObjectInit:00000000 $t
C:\Users\Luis\AppData\Local\Temp\ccdJOPAF.s:264    .text.chMBObjectInit:00000000 chMBObjectInit
C:\Users\Luis\AppData\Local\Temp\ccdJOPAF.s:337    .text.chMBObjectInit:00000060 $d
C:\Users\Luis\AppData\Local\Temp\ccdJOPAF.s:1153   .rodata.__func__.6539:00000000 __func__.6539
C:\Users\Luis\AppData\Local\Temp\ccdJOPAF.s:342    .text.chMBReset:00000000 $t
C:\Users\Luis\AppData\Local\Temp\ccdJOPAF.s:348    .text.chMBReset:00000000 chMBReset
C:\Users\Luis\AppData\Local\Temp\ccdJOPAF.s:387    .text.chMBResetI:00000000 chMBResetI
C:\Users\Luis\AppData\Local\Temp\ccdJOPAF.s:381    .text.chMBResetI:00000000 $t
C:\Users\Luis\AppData\Local\Temp\ccdJOPAF.s:449    .text.chMBResetI:00000058 $d
C:\Users\Luis\AppData\Local\Temp\ccdJOPAF.s:1165   .rodata.__func__.6546:00000000 __func__.6546
C:\Users\Luis\AppData\Local\Temp\ccdJOPAF.s:454    .text.chMBPost:00000000 $t
C:\Users\Luis\AppData\Local\Temp\ccdJOPAF.s:460    .text.chMBPost:00000000 chMBPost
C:\Users\Luis\AppData\Local\Temp\ccdJOPAF.s:505    .text.chMBPostS:00000000 chMBPostS
C:\Users\Luis\AppData\Local\Temp\ccdJOPAF.s:499    .text.chMBPostS:00000000 $t
C:\Users\Luis\AppData\Local\Temp\ccdJOPAF.s:583    .text.chMBPostS:0000006c $d
C:\Users\Luis\AppData\Local\Temp\ccdJOPAF.s:1171   .rodata.__func__.6559:00000000 __func__.6559
C:\Users\Luis\AppData\Local\Temp\ccdJOPAF.s:588    .text.chMBPostI:00000000 $t
C:\Users\Luis\AppData\Local\Temp\ccdJOPAF.s:594    .text.chMBPostI:00000000 chMBPostI
C:\Users\Luis\AppData\Local\Temp\ccdJOPAF.s:675    .text.chMBPostI:00000070 $d
C:\Users\Luis\AppData\Local\Temp\ccdJOPAF.s:1177   .rodata.__func__.6564:00000000 __func__.6564
C:\Users\Luis\AppData\Local\Temp\ccdJOPAF.s:680    .text.chMBPostAhead:00000000 $t
C:\Users\Luis\AppData\Local\Temp\ccdJOPAF.s:686    .text.chMBPostAhead:00000000 chMBPostAhead
C:\Users\Luis\AppData\Local\Temp\ccdJOPAF.s:731    .text.chMBPostAheadS:00000000 chMBPostAheadS
C:\Users\Luis\AppData\Local\Temp\ccdJOPAF.s:725    .text.chMBPostAheadS:00000000 $t
C:\Users\Luis\AppData\Local\Temp\ccdJOPAF.s:812    .text.chMBPostAheadS:00000070 $d
C:\Users\Luis\AppData\Local\Temp\ccdJOPAF.s:1183   .rodata.__func__.6577:00000000 __func__.6577
C:\Users\Luis\AppData\Local\Temp\ccdJOPAF.s:817    .text.chMBPostAheadI:00000000 $t
C:\Users\Luis\AppData\Local\Temp\ccdJOPAF.s:823    .text.chMBPostAheadI:00000000 chMBPostAheadI
C:\Users\Luis\AppData\Local\Temp\ccdJOPAF.s:907    .text.chMBPostAheadI:00000078 $d
C:\Users\Luis\AppData\Local\Temp\ccdJOPAF.s:1189   .rodata.__func__.6582:00000000 __func__.6582
C:\Users\Luis\AppData\Local\Temp\ccdJOPAF.s:912    .text.chMBFetch:00000000 $t
C:\Users\Luis\AppData\Local\Temp\ccdJOPAF.s:918    .text.chMBFetch:00000000 chMBFetch
C:\Users\Luis\AppData\Local\Temp\ccdJOPAF.s:963    .text.chMBFetchS:00000000 chMBFetchS
C:\Users\Luis\AppData\Local\Temp\ccdJOPAF.s:957    .text.chMBFetchS:00000000 $t
C:\Users\Luis\AppData\Local\Temp\ccdJOPAF.s:1047   .text.chMBFetchS:00000074 $d
C:\Users\Luis\AppData\Local\Temp\ccdJOPAF.s:1195   .rodata.__func__.6595:00000000 __func__.6595
C:\Users\Luis\AppData\Local\Temp\ccdJOPAF.s:1052   .text.chMBFetchI:00000000 $t
C:\Users\Luis\AppData\Local\Temp\ccdJOPAF.s:1058   .text.chMBFetchI:00000000 chMBFetchI
C:\Users\Luis\AppData\Local\Temp\ccdJOPAF.s:1145   .text.chMBFetchI:00000078 $d
C:\Users\Luis\AppData\Local\Temp\ccdJOPAF.s:1201   .rodata.__func__.6600:00000000 __func__.6600
C:\Users\Luis\AppData\Local\Temp\ccdJOPAF.s:1150   .rodata.__func__.6539:00000000 $d
ARM GAS  C:\Users\Luis\AppData\Local\Temp\ccdJOPAF.s 			page 78


C:\Users\Luis\AppData\Local\Temp\ccdJOPAF.s:1156   .rodata.__func__.5842:00000000 $d
C:\Users\Luis\AppData\Local\Temp\ccdJOPAF.s:1162   .rodata.__func__.6546:00000000 $d
C:\Users\Luis\AppData\Local\Temp\ccdJOPAF.s:1168   .rodata.__func__.6559:00000000 $d
C:\Users\Luis\AppData\Local\Temp\ccdJOPAF.s:1174   .rodata.__func__.6564:00000000 $d
C:\Users\Luis\AppData\Local\Temp\ccdJOPAF.s:1180   .rodata.__func__.6577:00000000 $d
C:\Users\Luis\AppData\Local\Temp\ccdJOPAF.s:1186   .rodata.__func__.6582:00000000 $d
C:\Users\Luis\AppData\Local\Temp\ccdJOPAF.s:1192   .rodata.__func__.6595:00000000 $d
C:\Users\Luis\AppData\Local\Temp\ccdJOPAF.s:1198   .rodata.__func__.6600:00000000 $d
                     .debug_frame:00000010 $d
C:\Users\Luis\AppData\Local\Temp\ccdJOPAF.s:184    .text.chSysUnlock:0000003c $t
C:\Users\Luis\AppData\Local\Temp\ccdJOPAF.s:341    .text.chMBObjectInit:00000064 $t
C:\Users\Luis\AppData\Local\Temp\ccdJOPAF.s:453    .text.chMBResetI:0000005c $t
C:\Users\Luis\AppData\Local\Temp\ccdJOPAF.s:679    .text.chMBPostI:00000074 $t
C:\Users\Luis\AppData\Local\Temp\ccdJOPAF.s:816    .text.chMBPostAheadS:00000074 $t
C:\Users\Luis\AppData\Local\Temp\ccdJOPAF.s:911    .text.chMBPostAheadI:0000007c $t
C:\Users\Luis\AppData\Local\Temp\ccdJOPAF.s:1051   .text.chMBFetchS:00000078 $t
C:\Users\Luis\AppData\Local\Temp\ccdJOPAF.s:1149   .text.chMBFetchI:0000007c $t

UNDEFINED SYMBOLS
_stats_start_measure_crit_thd
_dbg_check_lock
_dbg_check_unlock
_stats_stop_measure_crit_thd
chSysHalt
ch
chDbgCheckClassI
chSemObjectInit
chSchRescheduleS
chSemResetI
chDbgCheckClassS
chSemWaitTimeoutS
chSemSignalI
