ARM GAS  C:\Users\Luis\AppData\Local\Temp\ccgEIuaR.s 			page 1


   1              		.syntax unified
   2              		.cpu cortex-m4
   3              		.fpu softvfp
   4              		.eabi_attribute 20, 1
   5              		.eabi_attribute 21, 1
   6              		.eabi_attribute 23, 3
   7              		.eabi_attribute 24, 1
   8              		.eabi_attribute 25, 1
   9              		.eabi_attribute 26, 1
  10              		.eabi_attribute 30, 6
  11              		.eabi_attribute 34, 1
  12              		.eabi_attribute 18, 4
  13              		.thumb
  14              		.file	"chmempools.c"
  15              		.text
  16              	.Ltext0:
  17              		.cfi_sections	.debug_frame
  18              		.section	.text.port_lock,"ax",%progbits
  19              		.align	2
  20              		.p2align 4,,15
  21              		.thumb
  22              		.thumb_func
  23              		.type	port_lock, %function
  24              	port_lock:
  25              	.LFB116:
  26              		.file 1 "../../ChibiOS/os/rt/ports/ARMCMx/chcore_v7m.h"
  27              		.loc 1 444 0
  28              		.cfi_startproc
  29              		@ args = 0, pretend = 0, frame = 8
  30              		@ frame_needed = 1, uses_anonymous_args = 0
  31              		@ link register save eliminated.
  32 0000 80B4     		push	{r7}
  33              		.cfi_def_cfa_offset 4
  34              		.cfi_offset 7, -4
  35 0002 83B0     		sub	sp, sp, #12
  36              		.cfi_def_cfa_offset 16
  37 0004 00AF     		add	r7, sp, #0
  38              		.cfi_def_cfa_register 7
  39 0006 2023     		movs	r3, #32
  40 0008 7B60     		str	r3, [r7, #4]
  41              	.LBB6:
  42              	.LBB7:
  43              		.file 2 "../../ChibiOS/os/ext/CMSIS/include/core_cmFunc.h"
  44              		.loc 2 546 0
  45 000a 7B68     		ldr	r3, [r7, #4]
  46              	@ 546 "../../ChibiOS/os/ext/CMSIS/include/core_cmFunc.h" 1
  47 000c 83F31188 		MSR basepri, r3
  48              	@ 0 "" 2
  49              		.thumb
  50              	.LBE7:
  51              	.LBE6:
  52              		.loc 1 451 0
  53 0010 0C37     		adds	r7, r7, #12
  54 0012 BD46     		mov	sp, r7
  55              		@ sp needed
  56 0014 5DF8047B 		ldr	r7, [sp], #4
  57 0018 7047     		bx	lr
ARM GAS  C:\Users\Luis\AppData\Local\Temp\ccgEIuaR.s 			page 2


  58              		.cfi_endproc
  59              	.LFE116:
  60              		.size	port_lock, .-port_lock
  61 001a 00BFAFF3 		.section	.text.port_unlock,"ax",%progbits
  61      0080
  62              		.align	2
  63              		.p2align 4,,15
  64              		.thumb
  65              		.thumb_func
  66              		.type	port_unlock, %function
  67              	port_unlock:
  68              	.LFB117:
  69              		.loc 1 458 0
  70              		.cfi_startproc
  71              		@ args = 0, pretend = 0, frame = 8
  72              		@ frame_needed = 1, uses_anonymous_args = 0
  73              		@ link register save eliminated.
  74 0000 80B4     		push	{r7}
  75              		.cfi_def_cfa_offset 4
  76              		.cfi_offset 7, -4
  77 0002 83B0     		sub	sp, sp, #12
  78              		.cfi_def_cfa_offset 16
  79 0004 00AF     		add	r7, sp, #0
  80              		.cfi_def_cfa_register 7
  81 0006 0023     		movs	r3, #0
  82 0008 7B60     		str	r3, [r7, #4]
  83              	.LBB8:
  84              	.LBB9:
  85              		.loc 2 546 0
  86 000a 7B68     		ldr	r3, [r7, #4]
  87              	@ 546 "../../ChibiOS/os/ext/CMSIS/include/core_cmFunc.h" 1
  88 000c 83F31188 		MSR basepri, r3
  89              	@ 0 "" 2
  90              		.thumb
  91              	.LBE9:
  92              	.LBE8:
  93              		.loc 1 465 0
  94 0010 0C37     		adds	r7, r7, #12
  95 0012 BD46     		mov	sp, r7
  96              		@ sp needed
  97 0014 5DF8047B 		ldr	r7, [sp], #4
  98 0018 7047     		bx	lr
  99              		.cfi_endproc
 100              	.LFE117:
 101              		.size	port_unlock, .-port_unlock
 102 001a 00BFAFF3 		.section	.text.chSysLock,"ax",%progbits
 102      0080
 103              		.align	2
 104              		.p2align 4,,15
 105              		.thumb
 106              		.thumb_func
 107              		.type	chSysLock, %function
 108              	chSysLock:
 109              	.LFB156:
 110              		.file 3 "../../ChibiOS/os/rt/include/chsys.h"
 111              		.loc 3 346 0
 112              		.cfi_startproc
ARM GAS  C:\Users\Luis\AppData\Local\Temp\ccgEIuaR.s 			page 3


 113              		@ args = 0, pretend = 0, frame = 0
 114              		@ frame_needed = 1, uses_anonymous_args = 0
 115 0000 80B5     		push	{r7, lr}
 116              		.cfi_def_cfa_offset 8
 117              		.cfi_offset 7, -8
 118              		.cfi_offset 14, -4
 119 0002 00AF     		add	r7, sp, #0
 120              		.cfi_def_cfa_register 7
 121              		.loc 3 348 0
 122 0004 FFF7FEFF 		bl	port_lock
 123              		.loc 3 349 0
 124 0008 FFF7FEFF 		bl	_stats_start_measure_crit_thd
 125              		.loc 3 350 0
 126 000c FFF7FEFF 		bl	_dbg_check_lock
 127              		.loc 3 351 0
 128 0010 80BD     		pop	{r7, pc}
 129              		.cfi_endproc
 130              	.LFE156:
 131              		.size	chSysLock, .-chSysLock
 132 0012 00BFAFF3 		.section	.text.chSysUnlock,"ax",%progbits
 132      0080AFF3 
 132      0080AFF3 
 132      0080
 133              		.align	2
 134              		.p2align 4,,15
 135              		.thumb
 136              		.thumb_func
 137              		.type	chSysUnlock, %function
 138              	chSysUnlock:
 139              	.LFB157:
 140              		.loc 3 358 0
 141              		.cfi_startproc
 142              		@ args = 0, pretend = 0, frame = 0
 143              		@ frame_needed = 1, uses_anonymous_args = 0
 144 0000 80B5     		push	{r7, lr}
 145              		.cfi_def_cfa_offset 8
 146              		.cfi_offset 7, -8
 147              		.cfi_offset 14, -4
 148 0002 00AF     		add	r7, sp, #0
 149              		.cfi_def_cfa_register 7
 150              		.loc 3 360 0
 151 0004 FFF7FEFF 		bl	_dbg_check_unlock
 152              		.loc 3 361 0
 153 0008 FFF7FEFF 		bl	_stats_stop_measure_crit_thd
 154              		.loc 3 367 0
 155 000c 094B     		ldr	r3, .L6
 156 000e 1A68     		ldr	r2, [r3]
 157 0010 084B     		ldr	r3, .L6
 158 0012 9A42     		cmp	r2, r3
 159 0014 0AD0     		beq	.L5
 160              		.loc 3 367 0 is_stmt 0 discriminator 1
 161 0016 074B     		ldr	r3, .L6
 162 0018 9B69     		ldr	r3, [r3, #24]
 163 001a 9A68     		ldr	r2, [r3, #8]
 164 001c 054B     		ldr	r3, .L6
 165 001e 1B68     		ldr	r3, [r3]
 166 0020 9B68     		ldr	r3, [r3, #8]
ARM GAS  C:\Users\Luis\AppData\Local\Temp\ccgEIuaR.s 			page 4


 167 0022 9A42     		cmp	r2, r3
 168 0024 02D2     		bcs	.L5
 169 0026 0448     		ldr	r0, .L6+4
 170 0028 FFF7FEFF 		bl	chSysHalt
 171              	.L5:
 172              		.loc 3 371 0 is_stmt 1
 173 002c FFF7FEFF 		bl	port_unlock
 174              		.loc 3 372 0
 175 0030 80BD     		pop	{r7, pc}
 176              	.L7:
 177 0032 00BF     		.align	2
 178              	.L6:
 179 0034 00000000 		.word	ch
 180 0038 00000000 		.word	__func__.5842
 181              		.cfi_endproc
 182              	.LFE157:
 183              		.size	chSysUnlock, .-chSysUnlock
 184 003c AFF30080 		.section	.text.chPoolAdd,"ax",%progbits
 185              		.align	2
 186              		.p2align 4,,15
 187              		.thumb
 188              		.thumb_func
 189              		.type	chPoolAdd, %function
 190              	chPoolAdd:
 191              	.LFB217:
 192              		.file 4 "../../ChibiOS/os/rt/include/chmempools.h"
 193              		.loc 4 137 0
 194              		.cfi_startproc
 195              		@ args = 0, pretend = 0, frame = 8
 196              		@ frame_needed = 1, uses_anonymous_args = 0
 197 0000 80B5     		push	{r7, lr}
 198              		.cfi_def_cfa_offset 8
 199              		.cfi_offset 7, -8
 200              		.cfi_offset 14, -4
 201 0002 82B0     		sub	sp, sp, #8
 202              		.cfi_def_cfa_offset 16
 203 0004 00AF     		add	r7, sp, #0
 204              		.cfi_def_cfa_register 7
 205 0006 7860     		str	r0, [r7, #4]
 206 0008 3960     		str	r1, [r7]
 207              		.loc 4 139 0
 208 000a 7868     		ldr	r0, [r7, #4]
 209 000c 3968     		ldr	r1, [r7]
 210 000e FFF7FEFF 		bl	chPoolFree
 211              		.loc 4 140 0
 212 0012 0837     		adds	r7, r7, #8
 213 0014 BD46     		mov	sp, r7
 214              		@ sp needed
 215 0016 80BD     		pop	{r7, pc}
 216              		.cfi_endproc
 217              	.LFE217:
 218              		.size	chPoolAdd, .-chPoolAdd
 219 0018 AFF30080 		.section	.text.chPoolObjectInit,"ax",%progbits
 219      AFF30080 
 220              		.align	2
 221              		.p2align 4,,15
 222              		.global	chPoolObjectInit
ARM GAS  C:\Users\Luis\AppData\Local\Temp\ccgEIuaR.s 			page 5


 223              		.thumb
 224              		.thumb_func
 225              		.type	chPoolObjectInit, %function
 226              	chPoolObjectInit:
 227              	.LFB229:
 228              		.file 5 "../../ChibiOS/os/rt/src/chmempools.c"
 229              		.loc 5 75 0
 230              		.cfi_startproc
 231              		@ args = 0, pretend = 0, frame = 16
 232              		@ frame_needed = 1, uses_anonymous_args = 0
 233 0000 80B5     		push	{r7, lr}
 234              		.cfi_def_cfa_offset 8
 235              		.cfi_offset 7, -8
 236              		.cfi_offset 14, -4
 237 0002 84B0     		sub	sp, sp, #16
 238              		.cfi_def_cfa_offset 24
 239 0004 00AF     		add	r7, sp, #0
 240              		.cfi_def_cfa_register 7
 241 0006 F860     		str	r0, [r7, #12]
 242 0008 B960     		str	r1, [r7, #8]
 243 000a 7A60     		str	r2, [r7, #4]
 244              		.loc 5 77 0
 245 000c FB68     		ldr	r3, [r7, #12]
 246 000e 002B     		cmp	r3, #0
 247 0010 02D0     		beq	.L10
 248              		.loc 5 77 0 is_stmt 0 discriminator 2
 249 0012 BB68     		ldr	r3, [r7, #8]
 250 0014 032B     		cmp	r3, #3
 251 0016 02D8     		bhi	.L11
 252              	.L10:
 253              		.loc 5 77 0 discriminator 1
 254 0018 0748     		ldr	r0, .L12
 255 001a FFF7FEFF 		bl	chSysHalt
 256              	.L11:
 257              		.loc 5 79 0 is_stmt 1
 258 001e FB68     		ldr	r3, [r7, #12]
 259 0020 0022     		movs	r2, #0
 260 0022 1A60     		str	r2, [r3]
 261              		.loc 5 80 0
 262 0024 FB68     		ldr	r3, [r7, #12]
 263 0026 BA68     		ldr	r2, [r7, #8]
 264 0028 5A60     		str	r2, [r3, #4]
 265              		.loc 5 81 0
 266 002a FB68     		ldr	r3, [r7, #12]
 267 002c 7A68     		ldr	r2, [r7, #4]
 268 002e 9A60     		str	r2, [r3, #8]
 269              		.loc 5 82 0
 270 0030 1037     		adds	r7, r7, #16
 271 0032 BD46     		mov	sp, r7
 272              		@ sp needed
 273 0034 80BD     		pop	{r7, pc}
 274              	.L13:
 275 0036 00BF     		.align	2
 276              	.L12:
 277 0038 00000000 		.word	__func__.6539
 278              		.cfi_endproc
 279              	.LFE229:
ARM GAS  C:\Users\Luis\AppData\Local\Temp\ccgEIuaR.s 			page 6


 280              		.size	chPoolObjectInit, .-chPoolObjectInit
 281 003c AFF30080 		.section	.text.chPoolLoadArray,"ax",%progbits
 282              		.align	2
 283              		.p2align 4,,15
 284              		.global	chPoolLoadArray
 285              		.thumb
 286              		.thumb_func
 287              		.type	chPoolLoadArray, %function
 288              	chPoolLoadArray:
 289              	.LFB230:
 290              		.loc 5 97 0
 291              		.cfi_startproc
 292              		@ args = 0, pretend = 0, frame = 16
 293              		@ frame_needed = 1, uses_anonymous_args = 0
 294 0000 80B5     		push	{r7, lr}
 295              		.cfi_def_cfa_offset 8
 296              		.cfi_offset 7, -8
 297              		.cfi_offset 14, -4
 298 0002 84B0     		sub	sp, sp, #16
 299              		.cfi_def_cfa_offset 24
 300 0004 00AF     		add	r7, sp, #0
 301              		.cfi_def_cfa_register 7
 302 0006 F860     		str	r0, [r7, #12]
 303 0008 B960     		str	r1, [r7, #8]
 304 000a 7A60     		str	r2, [r7, #4]
 305              		.loc 5 99 0
 306 000c FB68     		ldr	r3, [r7, #12]
 307 000e 002B     		cmp	r3, #0
 308 0010 02D0     		beq	.L15
 309              		.loc 5 99 0 is_stmt 0 discriminator 2
 310 0012 7B68     		ldr	r3, [r7, #4]
 311 0014 002B     		cmp	r3, #0
 312 0016 03D1     		bne	.L16
 313              	.L15:
 314              		.loc 5 99 0 discriminator 1
 315 0018 0B48     		ldr	r0, .L19
 316 001a FFF7FEFF 		bl	chSysHalt
 317              		.loc 5 101 0 is_stmt 1 discriminator 1
 318 001e 0CE0     		b	.L17
 319              	.L16:
 320              		.loc 5 101 0 is_stmt 0
 321 0020 0BE0     		b	.L17
 322              	.L18:
 323              		.loc 5 102 0 is_stmt 1
 324 0022 F868     		ldr	r0, [r7, #12]
 325 0024 B968     		ldr	r1, [r7, #8]
 326 0026 FFF7FEFF 		bl	chPoolAdd
 327              		.loc 5 104 0
 328 002a FB68     		ldr	r3, [r7, #12]
 329 002c 5B68     		ldr	r3, [r3, #4]
 330 002e BA68     		ldr	r2, [r7, #8]
 331 0030 1344     		add	r3, r3, r2
 332 0032 BB60     		str	r3, [r7, #8]
 333              		.loc 5 106 0
 334 0034 7B68     		ldr	r3, [r7, #4]
 335 0036 013B     		subs	r3, r3, #1
 336 0038 7B60     		str	r3, [r7, #4]
ARM GAS  C:\Users\Luis\AppData\Local\Temp\ccgEIuaR.s 			page 7


 337              	.L17:
 338              		.loc 5 101 0 discriminator 1
 339 003a 7B68     		ldr	r3, [r7, #4]
 340 003c 002B     		cmp	r3, #0
 341 003e F0D1     		bne	.L18
 342              		.loc 5 108 0
 343 0040 1037     		adds	r7, r7, #16
 344 0042 BD46     		mov	sp, r7
 345              		@ sp needed
 346 0044 80BD     		pop	{r7, pc}
 347              	.L20:
 348 0046 00BF     		.align	2
 349              	.L19:
 350 0048 00000000 		.word	__func__.6545
 351              		.cfi_endproc
 352              	.LFE230:
 353              		.size	chPoolLoadArray, .-chPoolLoadArray
 354 004c AFF30080 		.section	.text.chPoolAllocI,"ax",%progbits
 355              		.align	2
 356              		.p2align 4,,15
 357              		.global	chPoolAllocI
 358              		.thumb
 359              		.thumb_func
 360              		.type	chPoolAllocI, %function
 361              	chPoolAllocI:
 362              	.LFB231:
 363              		.loc 5 120 0
 364              		.cfi_startproc
 365              		@ args = 0, pretend = 0, frame = 16
 366              		@ frame_needed = 1, uses_anonymous_args = 0
 367 0000 80B5     		push	{r7, lr}
 368              		.cfi_def_cfa_offset 8
 369              		.cfi_offset 7, -8
 370              		.cfi_offset 14, -4
 371 0002 84B0     		sub	sp, sp, #16
 372              		.cfi_def_cfa_offset 24
 373 0004 00AF     		add	r7, sp, #0
 374              		.cfi_def_cfa_register 7
 375 0006 7860     		str	r0, [r7, #4]
 376              		.loc 5 123 0
 377 0008 FFF7FEFF 		bl	chDbgCheckClassI
 378              		.loc 5 124 0
 379 000c 7B68     		ldr	r3, [r7, #4]
 380 000e 002B     		cmp	r3, #0
 381 0010 02D1     		bne	.L22
 382              		.loc 5 124 0 is_stmt 0 discriminator 1
 383 0012 0F48     		ldr	r0, .L26
 384 0014 FFF7FEFF 		bl	chSysHalt
 385              	.L22:
 386              		.loc 5 126 0 is_stmt 1
 387 0018 7B68     		ldr	r3, [r7, #4]
 388 001a 1B68     		ldr	r3, [r3]
 389 001c FB60     		str	r3, [r7, #12]
 390              		.loc 5 128 0
 391 001e FB68     		ldr	r3, [r7, #12]
 392 0020 002B     		cmp	r3, #0
 393 0022 05D0     		beq	.L23
ARM GAS  C:\Users\Luis\AppData\Local\Temp\ccgEIuaR.s 			page 8


 394              		.loc 5 129 0
 395 0024 7B68     		ldr	r3, [r7, #4]
 396 0026 1B68     		ldr	r3, [r3]
 397 0028 1A68     		ldr	r2, [r3]
 398 002a 7B68     		ldr	r3, [r7, #4]
 399 002c 1A60     		str	r2, [r3]
 400 002e 0AE0     		b	.L24
 401              	.L23:
 402              		.loc 5 131 0
 403 0030 7B68     		ldr	r3, [r7, #4]
 404 0032 9B68     		ldr	r3, [r3, #8]
 405 0034 002B     		cmp	r3, #0
 406 0036 06D0     		beq	.L24
 407              		.loc 5 132 0
 408 0038 7B68     		ldr	r3, [r7, #4]
 409 003a 9B68     		ldr	r3, [r3, #8]
 410 003c 7A68     		ldr	r2, [r7, #4]
 411 003e 5268     		ldr	r2, [r2, #4]
 412 0040 1046     		mov	r0, r2
 413 0042 9847     		blx	r3
 414 0044 F860     		str	r0, [r7, #12]
 415              	.L24:
 416              		.loc 5 136 0
 417 0046 FB68     		ldr	r3, [r7, #12]
 418              		.loc 5 137 0
 419 0048 1846     		mov	r0, r3
 420 004a 1037     		adds	r7, r7, #16
 421 004c BD46     		mov	sp, r7
 422              		@ sp needed
 423 004e 80BD     		pop	{r7, pc}
 424              	.L27:
 425              		.align	2
 426              	.L26:
 427 0050 00000000 		.word	__func__.6553
 428              		.cfi_endproc
 429              	.LFE231:
 430              		.size	chPoolAllocI, .-chPoolAllocI
 431 0054 AFF30080 		.section	.text.chPoolAlloc,"ax",%progbits
 431      AFF30080 
 431      AFF30080 
 432              		.align	2
 433              		.p2align 4,,15
 434              		.global	chPoolAlloc
 435              		.thumb
 436              		.thumb_func
 437              		.type	chPoolAlloc, %function
 438              	chPoolAlloc:
 439              	.LFB232:
 440              		.loc 5 149 0
 441              		.cfi_startproc
 442              		@ args = 0, pretend = 0, frame = 16
 443              		@ frame_needed = 1, uses_anonymous_args = 0
 444 0000 80B5     		push	{r7, lr}
 445              		.cfi_def_cfa_offset 8
 446              		.cfi_offset 7, -8
 447              		.cfi_offset 14, -4
 448 0002 84B0     		sub	sp, sp, #16
ARM GAS  C:\Users\Luis\AppData\Local\Temp\ccgEIuaR.s 			page 9


 449              		.cfi_def_cfa_offset 24
 450 0004 00AF     		add	r7, sp, #0
 451              		.cfi_def_cfa_register 7
 452 0006 7860     		str	r0, [r7, #4]
 453              		.loc 5 152 0
 454 0008 FFF7FEFF 		bl	chSysLock
 455              		.loc 5 153 0
 456 000c 7868     		ldr	r0, [r7, #4]
 457 000e FFF7FEFF 		bl	chPoolAllocI
 458 0012 F860     		str	r0, [r7, #12]
 459              		.loc 5 154 0
 460 0014 FFF7FEFF 		bl	chSysUnlock
 461              		.loc 5 156 0
 462 0018 FB68     		ldr	r3, [r7, #12]
 463              		.loc 5 157 0
 464 001a 1846     		mov	r0, r3
 465 001c 1037     		adds	r7, r7, #16
 466 001e BD46     		mov	sp, r7
 467              		@ sp needed
 468 0020 80BD     		pop	{r7, pc}
 469              		.cfi_endproc
 470              	.LFE232:
 471              		.size	chPoolAlloc, .-chPoolAlloc
 472 0022 00BFAFF3 		.section	.text.chPoolFreeI,"ax",%progbits
 472      0080AFF3 
 472      0080AFF3 
 472      0080
 473              		.align	2
 474              		.p2align 4,,15
 475              		.global	chPoolFreeI
 476              		.thumb
 477              		.thumb_func
 478              		.type	chPoolFreeI, %function
 479              	chPoolFreeI:
 480              	.LFB233:
 481              		.loc 5 171 0
 482              		.cfi_startproc
 483              		@ args = 0, pretend = 0, frame = 16
 484              		@ frame_needed = 1, uses_anonymous_args = 0
 485 0000 80B5     		push	{r7, lr}
 486              		.cfi_def_cfa_offset 8
 487              		.cfi_offset 7, -8
 488              		.cfi_offset 14, -4
 489 0002 84B0     		sub	sp, sp, #16
 490              		.cfi_def_cfa_offset 24
 491 0004 00AF     		add	r7, sp, #0
 492              		.cfi_def_cfa_register 7
 493 0006 7860     		str	r0, [r7, #4]
 494 0008 3960     		str	r1, [r7]
 495              		.loc 5 172 0
 496 000a 3B68     		ldr	r3, [r7]
 497 000c FB60     		str	r3, [r7, #12]
 498              		.loc 5 174 0
 499 000e FFF7FEFF 		bl	chDbgCheckClassI
 500              		.loc 5 175 0
 501 0012 7B68     		ldr	r3, [r7, #4]
 502 0014 002B     		cmp	r3, #0
ARM GAS  C:\Users\Luis\AppData\Local\Temp\ccgEIuaR.s 			page 10


 503 0016 02D0     		beq	.L31
 504              		.loc 5 175 0 is_stmt 0 discriminator 2
 505 0018 3B68     		ldr	r3, [r7]
 506 001a 002B     		cmp	r3, #0
 507 001c 02D1     		bne	.L32
 508              	.L31:
 509              		.loc 5 175 0 discriminator 1
 510 001e 0648     		ldr	r0, .L33
 511 0020 FFF7FEFF 		bl	chSysHalt
 512              	.L32:
 513              		.loc 5 177 0 is_stmt 1
 514 0024 7B68     		ldr	r3, [r7, #4]
 515 0026 1A68     		ldr	r2, [r3]
 516 0028 FB68     		ldr	r3, [r7, #12]
 517 002a 1A60     		str	r2, [r3]
 518              		.loc 5 178 0
 519 002c 7B68     		ldr	r3, [r7, #4]
 520 002e FA68     		ldr	r2, [r7, #12]
 521 0030 1A60     		str	r2, [r3]
 522              		.loc 5 179 0
 523 0032 1037     		adds	r7, r7, #16
 524 0034 BD46     		mov	sp, r7
 525              		@ sp needed
 526 0036 80BD     		pop	{r7, pc}
 527              	.L34:
 528              		.align	2
 529              	.L33:
 530 0038 00000000 		.word	__func__.6563
 531              		.cfi_endproc
 532              	.LFE233:
 533              		.size	chPoolFreeI, .-chPoolFreeI
 534 003c AFF30080 		.section	.text.chPoolFree,"ax",%progbits
 535              		.align	2
 536              		.p2align 4,,15
 537              		.global	chPoolFree
 538              		.thumb
 539              		.thumb_func
 540              		.type	chPoolFree, %function
 541              	chPoolFree:
 542              	.LFB234:
 543              		.loc 5 193 0
 544              		.cfi_startproc
 545              		@ args = 0, pretend = 0, frame = 8
 546              		@ frame_needed = 1, uses_anonymous_args = 0
 547 0000 80B5     		push	{r7, lr}
 548              		.cfi_def_cfa_offset 8
 549              		.cfi_offset 7, -8
 550              		.cfi_offset 14, -4
 551 0002 82B0     		sub	sp, sp, #8
 552              		.cfi_def_cfa_offset 16
 553 0004 00AF     		add	r7, sp, #0
 554              		.cfi_def_cfa_register 7
 555 0006 7860     		str	r0, [r7, #4]
 556 0008 3960     		str	r1, [r7]
 557              		.loc 5 195 0
 558 000a FFF7FEFF 		bl	chSysLock
 559              		.loc 5 196 0
ARM GAS  C:\Users\Luis\AppData\Local\Temp\ccgEIuaR.s 			page 11


 560 000e 7868     		ldr	r0, [r7, #4]
 561 0010 3968     		ldr	r1, [r7]
 562 0012 FFF7FEFF 		bl	chPoolFreeI
 563              		.loc 5 197 0
 564 0016 FFF7FEFF 		bl	chSysUnlock
 565              		.loc 5 198 0
 566 001a 0837     		adds	r7, r7, #8
 567 001c BD46     		mov	sp, r7
 568              		@ sp needed
 569 001e 80BD     		pop	{r7, pc}
 570              		.cfi_endproc
 571              	.LFE234:
 572              		.size	chPoolFree, .-chPoolFree
 573              		.section	.rodata.__func__.6539,"a",%progbits
 574              		.align	2
 575              		.type	__func__.6539, %object
 576              		.size	__func__.6539, 17
 577              	__func__.6539:
 578 0000 6368506F 		.ascii	"chPoolObjectInit\000"
 578      6F6C4F62 
 578      6A656374 
 578      496E6974 
 578      00
 579 0011 000000   		.section	.rodata.__func__.6545,"a",%progbits
 580              		.align	2
 581              		.type	__func__.6545, %object
 582              		.size	__func__.6545, 16
 583              	__func__.6545:
 584 0000 6368506F 		.ascii	"chPoolLoadArray\000"
 584      6F6C4C6F 
 584      61644172 
 584      72617900 
 585              		.section	.rodata.__func__.6553,"a",%progbits
 586              		.align	2
 587              		.type	__func__.6553, %object
 588              		.size	__func__.6553, 13
 589              	__func__.6553:
 590 0000 6368506F 		.ascii	"chPoolAllocI\000"
 590      6F6C416C 
 590      6C6F6349 
 590      00
 591 000d 000000   		.section	.rodata.__func__.5842,"a",%progbits
 592              		.align	2
 593              		.type	__func__.5842, %object
 594              		.size	__func__.5842, 12
 595              	__func__.5842:
 596 0000 63685379 		.ascii	"chSysUnlock\000"
 596      73556E6C 
 596      6F636B00 
 597              		.section	.rodata.__func__.6563,"a",%progbits
 598              		.align	2
 599              		.type	__func__.6563, %object
 600              		.size	__func__.6563, 12
 601              	__func__.6563:
 602 0000 6368506F 		.ascii	"chPoolFreeI\000"
 602      6F6C4672 
 602      65654900 
ARM GAS  C:\Users\Luis\AppData\Local\Temp\ccgEIuaR.s 			page 12


 603              		.text
 604              	.Letext0:
 605              		.file 6 "c:\\emtechesdk\\gcc\\lib\\gcc\\arm-none-eabi\\4.8.3\\include\\stddef.h"
 606              		.file 7 "c:\\emtechesdk\\gcc\\arm-none-eabi\\include\\stdint.h"
 607              		.file 8 "../../ChibiOS/os/rt/ports/ARMCMx/compilers/GCC/chtypes.h"
 608              		.file 9 "../../ChibiOS/os/rt/include/chsystypes.h"
 609              		.file 10 "../../ChibiOS/os/rt/include/chschd.h"
 610              		.file 11 "../../ChibiOS/os/rt/ports/ARMCMx/chcore.h"
 611              		.file 12 "../../ChibiOS/os/rt/include/chdebug.h"
 612              		.file 13 "../../ChibiOS/os/rt/include/chtm.h"
 613              		.file 14 "../../ChibiOS/os/rt/include/chstats.h"
 614              		.file 15 "../../ChibiOS/os/rt/include/chsem.h"
 615              		.file 16 "../../ChibiOS/os/rt/include/chmtx.h"
 616              		.file 17 "../../ChibiOS/os/rt/include/chmemcore.h"
 617              		.file 18 "../../ChibiOS/os/ext/CMSIS/include/core_cm4.h"