ARM GAS  C:\Users\Luis\AppData\Local\Temp\ccgEIuaR.s 			page 1


   1              		.syntax unified
   2              		.cpu cortex-m4
   3              		.fpu softvfp
   4              		.eabi_attribute 20, 1
   5              		.eabi_attribute 21, 1
   6              		.eabi_attribute 23, 3
   7              		.eabi_attribute 24, 1
   8              		.eabi_attribute 25, 1
   9              		.eabi_attribute 26, 1
  10              		.eabi_attribute 30, 6
  11              		.eabi_attribute 34, 1
  12              		.eabi_attribute 18, 4
  13              		.thumb
  14              		.file	"chmempools.c"
  15              		.text
  16              	.Ltext0:
  17              		.cfi_sections	.debug_frame
  18              		.section	.text.port_lock,"ax",%progbits
  19              		.align	2
  20              		.p2align 4,,15
  21              		.thumb
  22              		.thumb_func
  23              		.type	port_lock, %function
  24              	port_lock:
  25              	.LFB116:
  26              		.file 1 "../../ChibiOS/os/rt/ports/ARMCMx/chcore_v7m.h"
  27              		.loc 1 444 0
  28              		.cfi_startproc
  29              		@ args = 0, pretend = 0, frame = 8
  30              		@ frame_needed = 1, uses_anonymous_args = 0
  31              		@ link register save eliminated.
  32 0000 80B4     		push	{r7}
  33              		.cfi_def_cfa_offset 4
  34              		.cfi_offset 7, -4
  35 0002 83B0     		sub	sp, sp, #12
  36              		.cfi_def_cfa_offset 16
  37 0004 00AF     		add	r7, sp, #0
  38              		.cfi_def_cfa_register 7
  39 0006 2023     		movs	r3, #32
  40 0008 7B60     		str	r3, [r7, #4]
  41              	.LBB6:
  42              	.LBB7:
  43              		.file 2 "../../ChibiOS/os/ext/CMSIS/include/core_cmFunc.h"
  44              		.loc 2 546 0
  45 000a 7B68     		ldr	r3, [r7, #4]
  46              	@ 546 "../../ChibiOS/os/ext/CMSIS/include/core_cmFunc.h" 1
  47 000c 83F31188 		MSR basepri, r3
  48              	@ 0 "" 2
  49              		.thumb
  50              	.LBE7:
  51              	.LBE6:
  52              		.loc 1 451 0
  53 0010 0C37     		adds	r7, r7, #12
  54 0012 BD46     		mov	sp, r7
  55              		@ sp needed
  56 0014 5DF8047B 		ldr	r7, [sp], #4
  57 0018 7047     		bx	lr
ARM GAS  C:\Users\Luis\AppData\Local\Temp\ccgEIuaR.s 			page 2


  58              		.cfi_endproc
  59              	.LFE116:
  60              		.size	port_lock, .-port_lock
  61 001a 00BFAFF3 		.section	.text.port_unlock,"ax",%progbits
  61      0080
  62              		.align	2
  63              		.p2align 4,,15
  64              		.thumb
  65              		.thumb_func
  66              		.type	port_unlock, %function
  67              	port_unlock:
  68              	.LFB117:
  69              		.loc 1 458 0
  70              		.cfi_startproc
  71              		@ args = 0, pretend = 0, frame = 8
  72              		@ frame_needed = 1, uses_anonymous_args = 0
  73              		@ link register save eliminated.
  74 0000 80B4     		push	{r7}
  75              		.cfi_def_cfa_offset 4
  76              		.cfi_offset 7, -4
  77 0002 83B0     		sub	sp, sp, #12
  78              		.cfi_def_cfa_offset 16
  79 0004 00AF     		add	r7, sp, #0
  80              		.cfi_def_cfa_register 7
  81 0006 0023     		movs	r3, #0
  82 0008 7B60     		str	r3, [r7, #4]
  83              	.LBB8:
  84              	.LBB9:
  85              		.loc 2 546 0
  86 000a 7B68     		ldr	r3, [r7, #4]
  87              	@ 546 "../../ChibiOS/os/ext/CMSIS/include/core_cmFunc.h" 1
  88 000c 83F31188 		MSR basepri, r3
  89              	@ 0 "" 2
  90              		.thumb
  91              	.LBE9:
  92              	.LBE8:
  93              		.loc 1 465 0
  94 0010 0C37     		adds	r7, r7, #12
  95 0012 BD46     		mov	sp, r7
  96              		@ sp needed
  97 0014 5DF8047B 		ldr	r7, [sp], #4
  98 0018 7047     		bx	lr
  99              		.cfi_endproc
 100              	.LFE117:
 101              		.size	port_unlock, .-port_unlock
 102 001a 00BFAFF3 		.section	.text.chSysLock,"ax",%progbits
 102      0080
 103              		.align	2
 104              		.p2align 4,,15
 105              		.thumb
 106              		.thumb_func
 107              		.type	chSysLock, %function
 108              	chSysLock:
 109              	.LFB156:
 110              		.file 3 "../../ChibiOS/os/rt/include/chsys.h"
 111              		.loc 3 346 0
 112              		.cfi_startproc
ARM GAS  C:\Users\Luis\AppData\Local\Temp\ccgEIuaR.s 			page 3


 113              		@ args = 0, pretend = 0, frame = 0
 114              		@ frame_needed = 1, uses_anonymous_args = 0
 115 0000 80B5     		push	{r7, lr}
 116              		.cfi_def_cfa_offset 8
 117              		.cfi_offset 7, -8
 118              		.cfi_offset 14, -4
 119 0002 00AF     		add	r7, sp, #0
 120              		.cfi_def_cfa_register 7
 121              		.loc 3 348 0
 122 0004 FFF7FEFF 		bl	port_lock
 123              		.loc 3 349 0
 124 0008 FFF7FEFF 		bl	_stats_start_measure_crit_thd
 125              		.loc 3 350 0
 126 000c FFF7FEFF 		bl	_dbg_check_lock
 127              		.loc 3 351 0
 128 0010 80BD     		pop	{r7, pc}
 129              		.cfi_endproc
 130              	.LFE156:
 131              		.size	chSysLock, .-chSysLock
 132 0012 00BFAFF3 		.section	.text.chSysUnlock,"ax",%progbits
 132      0080AFF3 
 132      0080AFF3 
 132      0080
 133              		.align	2
 134              		.p2align 4,,15
 135              		.thumb
 136              		.thumb_func
 137              		.type	chSysUnlock, %function
 138              	chSysUnlock:
 139              	.LFB157:
 140              		.loc 3 358 0
 141              		.cfi_startproc
 142              		@ args = 0, pretend = 0, frame = 0
 143              		@ frame_needed = 1, uses_anonymous_args = 0
 144 0000 80B5     		push	{r7, lr}
 145              		.cfi_def_cfa_offset 8
 146              		.cfi_offset 7, -8
 147              		.cfi_offset 14, -4
 148 0002 00AF     		add	r7, sp, #0
 149              		.cfi_def_cfa_register 7
 150              		.loc 3 360 0
 151 0004 FFF7FEFF 		bl	_dbg_check_unlock
 152              		.loc 3 361 0
 153 0008 FFF7FEFF 		bl	_stats_stop_measure_crit_thd
 154              		.loc 3 367 0
 155 000c 094B     		ldr	r3, .L6
 156 000e 1A68     		ldr	r2, [r3]
 157 0010 084B     		ldr	r3, .L6
 158 0012 9A42     		cmp	r2, r3
 159 0014 0AD0     		beq	.L5
 160              		.loc 3 367 0 is_stmt 0 discriminator 1
 161 0016 074B     		ldr	r3, .L6
 162 0018 9B69     		ldr	r3, [r3, #24]
 163 001a 9A68     		ldr	r2, [r3, #8]
 164 001c 054B     		ldr	r3, .L6
 165 001e 1B68     		ldr	r3, [r3]
 166 0020 9B68     		ldr	r3, [r3, #8]
ARM GAS  C:\Users\Luis\AppData\Local\Temp\ccgEIuaR.s 			page 4


 167 0022 9A42     		cmp	r2, r3
 168 0024 02D2     		bcs	.L5
 169 0026 0448     		ldr	r0, .L6+4
 170 0028 FFF7FEFF 		bl	chSysHalt
 171              	.L5:
 172              		.loc 3 371 0 is_stmt 1
 173 002c FFF7FEFF 		bl	port_unlock
 174              		.loc 3 372 0
 175 0030 80BD     		pop	{r7, pc}
 176              	.L7:
 177 0032 00BF     		.align	2
 178              	.L6:
 179 0034 00000000 		.word	ch
 180 0038 00000000 		.word	__func__.5842
 181              		.cfi_endproc
 182              	.LFE157:
 183              		.size	chSysUnlock, .-chSysUnlock
 184 003c AFF30080 		.section	.text.chPoolAdd,"ax",%progbits
 185              		.align	2
 186              		.p2align 4,,15
 187              		.thumb
 188              		.thumb_func
 189              		.type	chPoolAdd, %function
 190              	chPoolAdd:
 191              	.LFB217:
 192              		.file 4 "../../ChibiOS/os/rt/include/chmempools.h"
 193              		.loc 4 137 0
 194              		.cfi_startproc
 195              		@ args = 0, pretend = 0, frame = 8
 196              		@ frame_needed = 1, uses_anonymous_args = 0
 197 0000 80B5     		push	{r7, lr}
 198              		.cfi_def_cfa_offset 8
 199              		.cfi_offset 7, -8
 200              		.cfi_offset 14, -4
 201 0002 82B0     		sub	sp, sp, #8
 202              		.cfi_def_cfa_offset 16
 203 0004 00AF     		add	r7, sp, #0
 204              		.cfi_def_cfa_register 7
 205 0006 7860     		str	r0, [r7, #4]
 206 0008 3960     		str	r1, [r7]
 207              		.loc 4 139 0
 208 000a 7868     		ldr	r0, [r7, #4]
 209 000c 3968     		ldr	r1, [r7]
 210 000e FFF7FEFF 		bl	chPoolFree
 211              		.loc 4 140 0
 212 0012 0837     		adds	r7, r7, #8
 213 0014 BD46     		mov	sp, r7
 214              		@ sp needed
 215 0016 80BD     		pop	{r7, pc}
 216              		.cfi_endproc
 217              	.LFE217:
 218              		.size	chPoolAdd, .-chPoolAdd
 219 0018 AFF30080 		.section	.text.chPoolObjectInit,"ax",%progbits
 219      AFF30080 
 220              		.align	2
 221              		.p2align 4,,15
 222              		.global	chPoolObjectInit
ARM GAS  C:\Users\Luis\AppData\Local\Temp\ccgEIuaR.s 			page 5


 223              		.thumb
 224              		.thumb_func
 225              		.type	chPoolObjectInit, %function
 226              	chPoolObjectInit:
 227              	.LFB229:
 228              		.file 5 "../../ChibiOS/os/rt/src/chmempools.c"
 229              		.loc 5 75 0
 230              		.cfi_startproc
 231              		@ args = 0, pretend = 0, frame = 16
 232              		@ frame_needed = 1, uses_anonymous_args = 0
 233 0000 80B5     		push	{r7, lr}
 234              		.cfi_def_cfa_offset 8
 235              		.cfi_offset 7, -8
 236              		.cfi_offset 14, -4
 237 0002 84B0     		sub	sp, sp, #16
 238              		.cfi_def_cfa_offset 24
 239 0004 00AF     		add	r7, sp, #0
 240              		.cfi_def_cfa_register 7
 241 0006 F860     		str	r0, [r7, #12]
 242 0008 B960     		str	r1, [r7, #8]
 243 000a 7A60     		str	r2, [r7, #4]
 244              		.loc 5 77 0
 245 000c FB68     		ldr	r3, [r7, #12]
 246 000e 002B     		cmp	r3, #0
 247 0010 02D0     		beq	.L10
 248              		.loc 5 77 0 is_stmt 0 discriminator 2
 249 0012 BB68     		ldr	r3, [r7, #8]
 250 0014 032B     		cmp	r3, #3
 251 0016 02D8     		bhi	.L11
 252              	.L10:
 253              		.loc 5 77 0 discriminator 1
 254 0018 0748     		ldr	r0, .L12
 255 001a FFF7FEFF 		bl	chSysHalt
 256              	.L11:
 257              		.loc 5 79 0 is_stmt 1
 258 001e FB68     		ldr	r3, [r7, #12]
 259 0020 0022     		movs	r2, #0
 260 0022 1A60     		str	r2, [r3]
 261              		.loc 5 80 0
 262 0024 FB68     		ldr	r3, [r7, #12]
 263 0026 BA68     		ldr	r2, [r7, #8]
 264 0028 5A60     		str	r2, [r3, #4]
 265              		.loc 5 81 0
 266 002a FB68     		ldr	r3, [r7, #12]
 267 002c 7A68     		ldr	r2, [r7, #4]
 268 002e 9A60     		str	r2, [r3, #8]
 269              		.loc 5 82 0
 270 0030 1037     		adds	r7, r7, #16
 271 0032 BD46     		mov	sp, r7
 272              		@ sp needed
 273 0034 80BD     		pop	{r7, pc}
 274              	.L13:
 275 0036 00BF     		.align	2
 276              	.L12:
 277 0038 00000000 		.word	__func__.6539
 278              		.cfi_endproc
 279              	.LFE229:
ARM GAS  C:\Users\Luis\AppData\Local\Temp\ccgEIuaR.s 			page 6


 280              		.size	chPoolObjectInit, .-chPoolObjectInit
 281 003c AFF30080 		.section	.text.chPoolLoadArray,"ax",%progbits
 282              		.align	2
 283              		.p2align 4,,15
 284              		.global	chPoolLoadArray
 285              		.thumb
 286              		.thumb_func
 287              		.type	chPoolLoadArray, %function
 288              	chPoolLoadArray:
 289              	.LFB230:
 290              		.loc 5 97 0
 291              		.cfi_startproc
 292              		@ args = 0, pretend = 0, frame = 16
 293              		@ frame_needed = 1, uses_anonymous_args = 0
 294 0000 80B5     		push	{r7, lr}
 295              		.cfi_def_cfa_offset 8
 296              		.cfi_offset 7, -8
 297              		.cfi_offset 14, -4
 298 0002 84B0     		sub	sp, sp, #16
 299              		.cfi_def_cfa_offset 24
 300 0004 00AF     		add	r7, sp, #0
 301              		.cfi_def_cfa_register 7
 302 0006 F860     		str	r0, [r7, #12]
 303 0008 B960     		str	r1, [r7, #8]
 304 000a 7A60     		str	r2, [r7, #4]
 305              		.loc 5 99 0
 306 000c FB68     		ldr	r3, [r7, #12]
 307 000e 002B     		cmp	r3, #0
 308 0010 02D0     		beq	.L15
 309              		.loc 5 99 0 is_stmt 0 discriminator 2
 310 0012 7B68     		ldr	r3, [r7, #4]
 311 0014 002B     		cmp	r3, #0
 312 0016 03D1     		bne	.L16
 313              	.L15:
 314              		.loc 5 99 0 discriminator 1
 315 0018 0B48     		ldr	r0, .L19
 316 001a FFF7FEFF 		bl	chSysHalt
 317              		.loc 5 101 0 is_stmt 1 discriminator 1
 318 001e 0CE0     		b	.L17
 319              	.L16:
 320              		.loc 5 101 0 is_stmt 0
 321 0020 0BE0     		b	.L17
 322              	.L18:
 323              		.loc 5 102 0 is_stmt 1
 324 0022 F868     		ldr	r0, [r7, #12]
 325 0024 B968     		ldr	r1, [r7, #8]
 326 0026 FFF7FEFF 		bl	chPoolAdd
 327              		.loc 5 104 0
 328 002a FB68     		ldr	r3, [r7, #12]
 329 002c 5B68     		ldr	r3, [r3, #4]
 330 002e BA68     		ldr	r2, [r7, #8]
 331 0030 1344     		add	r3, r3, r2
 332 0032 BB60     		str	r3, [r7, #8]
 333              		.loc 5 106 0
 334 0034 7B68     		ldr	r3, [r7, #4]
 335 0036 013B     		subs	r3, r3, #1
 336 0038 7B60     		str	r3, [r7, #4]
ARM GAS  C:\Users\Luis\AppData\Local\Temp\ccgEIuaR.s 			page 7


 337              	.L17:
 338              		.loc 5 101 0 discriminator 1
 339 003a 7B68     		ldr	r3, [r7, #4]
 340 003c 002B     		cmp	r3, #0
 341 003e F0D1     		bne	.L18
 342              		.loc 5 108 0
 343 0040 1037     		adds	r7, r7, #16
 344 0042 BD46     		mov	sp, r7
 345              		@ sp needed
 346 0044 80BD     		pop	{r7, pc}
 347              	.L20:
 348 0046 00BF     		.align	2
 349              	.L19:
 350 0048 00000000 		.word	__func__.6545
 351              		.cfi_endproc
 352              	.LFE230:
 353              		.size	chPoolLoadArray, .-chPoolLoadArray
 354 004c AFF30080 		.section	.text.chPoolAllocI,"ax",%progbits
 355              		.align	2
 356              		.p2align 4,,15
 357              		.global	chPoolAllocI
 358              		.thumb
 359              		.thumb_func
 360              		.type	chPoolAllocI, %function
 361              	chPoolAllocI:
 362              	.LFB231:
 363              		.loc 5 120 0
 364              		.cfi_startproc
 365              		@ args = 0, pretend = 0, frame = 16
 366              		@ frame_needed = 1, uses_anonymous_args = 0
 367 0000 80B5     		push	{r7, lr}
 368              		.cfi_def_cfa_offset 8
 369              		.cfi_offset 7, -8
 370              		.cfi_offset 14, -4
 371 0002 84B0     		sub	sp, sp, #16
 372              		.cfi_def_cfa_offset 24
 373 0004 00AF     		add	r7, sp, #0
 374              		.cfi_def_cfa_register 7
 375 0006 7860     		str	r0, [r7, #4]
 376              		.loc 5 123 0
 377 0008 FFF7FEFF 		bl	chDbgCheckClassI
 378              		.loc 5 124 0
 379 000c 7B68     		ldr	r3, [r7, #4]
 380 000e 002B     		cmp	r3, #0
 381 0010 02D1     		bne	.L22
 382              		.loc 5 124 0 is_stmt 0 discriminator 1
 383 0012 0F48     		ldr	r0, .L26
 384 0014 FFF7FEFF 		bl	chSysHalt
 385              	.L22:
 386              		.loc 5 126 0 is_stmt 1
 387 0018 7B68     		ldr	r3, [r7, #4]
 388 001a 1B68     		ldr	r3, [r3]
 389 001c FB60     		str	r3, [r7, #12]
 390              		.loc 5 128 0
 391 001e FB68     		ldr	r3, [r7, #12]
 392 0020 002B     		cmp	r3, #0
 393 0022 05D0     		beq	.L23
ARM GAS  C:\Users\Luis\AppData\Local\Temp\ccgEIuaR.s 			page 8


 394              		.loc 5 129 0
 395 0024 7B68     		ldr	r3, [r7, #4]
 396 0026 1B68     		ldr	r3, [r3]
 397 0028 1A68     		ldr	r2, [r3]
 398 002a 7B68     		ldr	r3, [r7, #4]
 399 002c 1A60     		str	r2, [r3]
 400 002e 0AE0     		b	.L24
 401              	.L23:
 402              		.loc 5 131 0
 403 0030 7B68     		ldr	r3, [r7, #4]
 404 0032 9B68     		ldr	r3, [r3, #8]
 405 0034 002B     		cmp	r3, #0
 406 0036 06D0     		beq	.L24
 407              		.loc 5 132 0
 408 0038 7B68     		ldr	r3, [r7, #4]
 409 003a 9B68     		ldr	r3, [r3, #8]
 410 003c 7A68     		ldr	r2, [r7, #4]
 411 003e 5268     		ldr	r2, [r2, #4]
 412 0040 1046     		mov	r0, r2
 413 0042 9847     		blx	r3
 414 0044 F860     		str	r0, [r7, #12]
 415              	.L24:
 416              		.loc 5 136 0
 417 0046 FB68     		ldr	r3, [r7, #12]
 418              		.loc 5 137 0
 419 0048 1846     		mov	r0, r3
 420 004a 1037     		adds	r7, r7, #16
 421 004c BD46     		mov	sp, r7
 422              		@ sp needed
 423 004e 80BD     		pop	{r7, pc}
 424              	.L27:
 425              		.align	2
 426              	.L26:
 427 0050 00000000 		.word	__func__.6553
 428              		.cfi_endproc
 429              	.LFE231:
 430              		.size	chPoolAllocI, .-chPoolAllocI
 431 0054 AFF30080 		.section	.text.chPoolAlloc,"ax",%progbits
 431      AFF30080 
 431      AFF30080 
 432              		.align	2
 433              		.p2align 4,,15
 434              		.global	chPoolAlloc
 435              		.thumb
 436              		.thumb_func
 437              		.type	chPoolAlloc, %function
 438              	chPoolAlloc:
 439              	.LFB232:
 440              		.loc 5 149 0
 441              		.cfi_startproc
 442              		@ args = 0, pretend = 0, frame = 16
 443              		@ frame_needed = 1, uses_anonymous_args = 0
 444 0000 80B5     		push	{r7, lr}
 445              		.cfi_def_cfa_offset 8
 446              		.cfi_offset 7, -8
 447              		.cfi_offset 14, -4
 448 0002 84B0     		sub	sp, sp, #16
ARM GAS  C:\Users\Luis\AppData\Local\Temp\ccgEIuaR.s 			page 9


 449              		.cfi_def_cfa_offset 24
 450 0004 00AF     		add	r7, sp, #0
 451              		.cfi_def_cfa_register 7
 452 0006 7860     		str	r0, [r7, #4]
 453              		.loc 5 152 0
 454 0008 FFF7FEFF 		bl	chSysLock
 455              		.loc 5 153 0
 456 000c 7868     		ldr	r0, [r7, #4]
 457 000e FFF7FEFF 		bl	chPoolAllocI
 458 0012 F860     		str	r0, [r7, #12]
 459              		.loc 5 154 0
 460 0014 FFF7FEFF 		bl	chSysUnlock
 461              		.loc 5 156 0
 462 0018 FB68     		ldr	r3, [r7, #12]
 463              		.loc 5 157 0
 464 001a 1846     		mov	r0, r3
 465 001c 1037     		adds	r7, r7, #16
 466 001e BD46     		mov	sp, r7
 467              		@ sp needed
 468 0020 80BD     		pop	{r7, pc}
 469              		.cfi_endproc
 470              	.LFE232:
 471              		.size	chPoolAlloc, .-chPoolAlloc
 472 0022 00BFAFF3 		.section	.text.chPoolFreeI,"ax",%progbits
 472      0080AFF3 
 472      0080AFF3 
 472      0080
 473              		.align	2
 474              		.p2align 4,,15
 475              		.global	chPoolFreeI
 476              		.thumb
 477              		.thumb_func
 478              		.type	chPoolFreeI, %function
 479              	chPoolFreeI:
 480              	.LFB233:
 481              		.loc 5 171 0
 482              		.cfi_startproc
 483              		@ args = 0, pretend = 0, frame = 16
 484              		@ frame_needed = 1, uses_anonymous_args = 0
 485 0000 80B5     		push	{r7, lr}
 486              		.cfi_def_cfa_offset 8
 487              		.cfi_offset 7, -8
 488              		.cfi_offset 14, -4
 489 0002 84B0     		sub	sp, sp, #16
 490              		.cfi_def_cfa_offset 24
 491 0004 00AF     		add	r7, sp, #0
 492              		.cfi_def_cfa_register 7
 493 0006 7860     		str	r0, [r7, #4]
 494 0008 3960     		str	r1, [r7]
 495              		.loc 5 172 0
 496 000a 3B68     		ldr	r3, [r7]
 497 000c FB60     		str	r3, [r7, #12]
 498              		.loc 5 174 0
 499 000e FFF7FEFF 		bl	chDbgCheckClassI
 500              		.loc 5 175 0
 501 0012 7B68     		ldr	r3, [r7, #4]
 502 0014 002B     		cmp	r3, #0
ARM GAS  C:\Users\Luis\AppData\Local\Temp\ccgEIuaR.s 			page 10


 503 0016 02D0     		beq	.L31
 504              		.loc 5 175 0 is_stmt 0 discriminator 2
 505 0018 3B68     		ldr	r3, [r7]
 506 001a 002B     		cmp	r3, #0
 507 001c 02D1     		bne	.L32
 508              	.L31:
 509              		.loc 5 175 0 discriminator 1
 510 001e 0648     		ldr	r0, .L33
 511 0020 FFF7FEFF 		bl	chSysHalt
 512              	.L32:
 513              		.loc 5 177 0 is_stmt 1
 514 0024 7B68     		ldr	r3, [r7, #4]
 515 0026 1A68     		ldr	r2, [r3]
 516 0028 FB68     		ldr	r3, [r7, #12]
 517 002a 1A60     		str	r2, [r3]
 518              		.loc 5 178 0
 519 002c 7B68     		ldr	r3, [r7, #4]
 520 002e FA68     		ldr	r2, [r7, #12]
 521 0030 1A60     		str	r2, [r3]
 522              		.loc 5 179 0
 523 0032 1037     		adds	r7, r7, #16
 524 0034 BD46     		mov	sp, r7
 525              		@ sp needed
 526 0036 80BD     		pop	{r7, pc}
 527              	.L34:
 528              		.align	2
 529              	.L33:
 530 0038 00000000 		.word	__func__.6563
 531              		.cfi_endproc
 532              	.LFE233:
 533              		.size	chPoolFreeI, .-chPoolFreeI
 534 003c AFF30080 		.section	.text.chPoolFree,"ax",%progbits
 535              		.align	2
 536              		.p2align 4,,15
 537              		.global	chPoolFree
 538              		.thumb
 539              		.thumb_func
 540              		.type	chPoolFree, %function
 541              	chPoolFree:
 542              	.LFB234:
 543              		.loc 5 193 0
 544              		.cfi_startproc
 545              		@ args = 0, pretend = 0, frame = 8
 546              		@ frame_needed = 1, uses_anonymous_args = 0
 547 0000 80B5     		push	{r7, lr}
 548              		.cfi_def_cfa_offset 8
 549              		.cfi_offset 7, -8
 550              		.cfi_offset 14, -4
 551 0002 82B0     		sub	sp, sp, #8
 552              		.cfi_def_cfa_offset 16
 553 0004 00AF     		add	r7, sp, #0
 554              		.cfi_def_cfa_register 7
 555 0006 7860     		str	r0, [r7, #4]
 556 0008 3960     		str	r1, [r7]
 557              		.loc 5 195 0
 558 000a FFF7FEFF 		bl	chSysLock
 559              		.loc 5 196 0
ARM GAS  C:\Users\Luis\AppData\Local\Temp\ccgEIuaR.s 			page 11


 560 000e 7868     		ldr	r0, [r7, #4]
 561 0010 3968     		ldr	r1, [r7]
 562 0012 FFF7FEFF 		bl	chPoolFreeI
 563              		.loc 5 197 0
 564 0016 FFF7FEFF 		bl	chSysUnlock
 565              		.loc 5 198 0
 566 001a 0837     		adds	r7, r7, #8
 567 001c BD46     		mov	sp, r7
 568              		@ sp needed
 569 001e 80BD     		pop	{r7, pc}
 570              		.cfi_endproc
 571              	.LFE234:
 572              		.size	chPoolFree, .-chPoolFree
 573              		.section	.rodata.__func__.6539,"a",%progbits
 574              		.align	2
 575              		.type	__func__.6539, %object
 576              		.size	__func__.6539, 17
 577              	__func__.6539:
 578 0000 6368506F 		.ascii	"chPoolObjectInit\000"
 578      6F6C4F62 
 578      6A656374 
 578      496E6974 
 578      00
 579 0011 000000   		.section	.rodata.__func__.6545,"a",%progbits
 580              		.align	2
 581              		.type	__func__.6545, %object
 582              		.size	__func__.6545, 16
 583              	__func__.6545:
 584 0000 6368506F 		.ascii	"chPoolLoadArray\000"
 584      6F6C4C6F 
 584      61644172 
 584      72617900 
 585              		.section	.rodata.__func__.6553,"a",%progbits
 586              		.align	2
 587              		.type	__func__.6553, %object
 588              		.size	__func__.6553, 13
 589              	__func__.6553:
 590 0000 6368506F 		.ascii	"chPoolAllocI\000"
 590      6F6C416C 
 590      6C6F6349 
 590      00
 591 000d 000000   		.section	.rodata.__func__.5842,"a",%progbits
 592              		.align	2
 593              		.type	__func__.5842, %object
 594              		.size	__func__.5842, 12
 595              	__func__.5842:
 596 0000 63685379 		.ascii	"chSysUnlock\000"
 596      73556E6C 
 596      6F636B00 
 597              		.section	.rodata.__func__.6563,"a",%progbits
 598              		.align	2
 599              		.type	__func__.6563, %object
 600              		.size	__func__.6563, 12
 601              	__func__.6563:
 602 0000 6368506F 		.ascii	"chPoolFreeI\000"
 602      6F6C4672 
 602      65654900 
ARM GAS  C:\Users\Luis\AppData\Local\Temp\ccgEIuaR.s 			page 12


 603              		.text
 604              	.Letext0:
 605              		.file 6 "c:\\emtechesdk\\gcc\\lib\\gcc\\arm-none-eabi\\4.8.3\\include\\stddef.h"
 606              		.file 7 "c:\\emtechesdk\\gcc\\arm-none-eabi\\include\\stdint.h"
 607              		.file 8 "../../ChibiOS/os/rt/ports/ARMCMx/compilers/GCC/chtypes.h"
 608              		.file 9 "../../ChibiOS/os/rt/include/chsystypes.h"
 609              		.file 10 "../../ChibiOS/os/rt/include/chschd.h"
 610              		.file 11 "../../ChibiOS/os/rt/ports/ARMCMx/chcore.h"
 611              		.file 12 "../../ChibiOS/os/rt/include/chdebug.h"
 612              		.file 13 "../../ChibiOS/os/rt/include/chtm.h"
 613              		.file 14 "../../ChibiOS/os/rt/include/chstats.h"
 614              		.file 15 "../../ChibiOS/os/rt/include/chsem.h"
 615              		.file 16 "../../ChibiOS/os/rt/include/chmtx.h"
 616              		.file 17 "../../ChibiOS/os/rt/include/chmemcore.h"
 617              		.file 18 "../../ChibiOS/os/ext/CMSIS/include/core_cm4.h"
 618              		.section	.debug_info,"",%progbits
 619              	.Ldebug_info0:
 620 0000 F70A0000 		.4byte	0xaf7
 621 0004 0400     		.2byte	0x4
 622 0006 00000000 		.4byte	.Ldebug_abbrev0
 623 000a 04       		.byte	0x4
 624 000b 01       		.uleb128 0x1
 625 000c 0B050000 		.4byte	.LASF148
 626 0010 01       		.byte	0x1
 627 0011 A7020000 		.4byte	.LASF149
 628 0015 4E010000 		.4byte	.LASF150
 629 0019 00000000 		.4byte	.Ldebug_ranges0+0
 630 001d 00000000 		.4byte	0
 631 0021 00000000 		.4byte	.Ldebug_line0
 632 0025 02       		.uleb128 0x2
 633 0026 04       		.byte	0x4
 634 0027 05       		.byte	0x5
 635 0028 696E7400 		.ascii	"int\000"
 636 002c 03       		.uleb128 0x3
 637 002d 1C000000 		.4byte	.LASF2
 638 0031 06       		.byte	0x6
 639 0032 D4       		.byte	0xd4
 640 0033 37000000 		.4byte	0x37
 641 0037 04       		.uleb128 0x4
 642 0038 04       		.byte	0x4
 643 0039 07       		.byte	0x7
 644 003a 33020000 		.4byte	.LASF0
 645 003e 04       		.uleb128 0x4
 646 003f 01       		.byte	0x1
 647 0040 06       		.byte	0x6
 648 0041 1F010000 		.4byte	.LASF1
 649 0045 03       		.uleb128 0x3
 650 0046 9B060000 		.4byte	.LASF3
 651 004a 07       		.byte	0x7
 652 004b 2A       		.byte	0x2a
 653 004c 50000000 		.4byte	0x50
 654 0050 04       		.uleb128 0x4
 655 0051 01       		.byte	0x1
 656 0052 08       		.byte	0x8
 657 0053 2F040000 		.4byte	.LASF4
 658 0057 04       		.uleb128 0x4
 659 0058 02       		.byte	0x2
ARM GAS  C:\Users\Luis\AppData\Local\Temp\ccgEIuaR.s 			page 13


 660 0059 05       		.byte	0x5
 661 005a 47040000 		.4byte	.LASF5
 662 005e 04       		.uleb128 0x4
 663 005f 02       		.byte	0x2
 664 0060 07       		.byte	0x7
 665 0061 7B020000 		.4byte	.LASF6
 666 0065 03       		.uleb128 0x3
 667 0066 27040000 		.4byte	.LASF7
 668 006a 07       		.byte	0x7
 669 006b 4F       		.byte	0x4f
 670 006c 70000000 		.4byte	0x70
 671 0070 04       		.uleb128 0x4
 672 0071 04       		.byte	0x4
 673 0072 05       		.byte	0x5
 674 0073 97010000 		.4byte	.LASF8
 675 0077 03       		.uleb128 0x3
 676 0078 B7040000 		.4byte	.LASF9
 677 007c 07       		.byte	0x7
 678 007d 50       		.byte	0x50
 679 007e 82000000 		.4byte	0x82
 680 0082 04       		.uleb128 0x4
 681 0083 04       		.byte	0x4
 682 0084 07       		.byte	0x7
 683 0085 E8040000 		.4byte	.LASF10
 684 0089 04       		.uleb128 0x4
 685 008a 08       		.byte	0x8
 686 008b 05       		.byte	0x5
 687 008c 11010000 		.4byte	.LASF11
 688 0090 03       		.uleb128 0x3
 689 0091 2A000000 		.4byte	.LASF12
 690 0095 07       		.byte	0x7
 691 0096 78       		.byte	0x78
 692 0097 9B000000 		.4byte	0x9b
 693 009b 04       		.uleb128 0x4
 694 009c 08       		.byte	0x8
 695 009d 07       		.byte	0x7
 696 009e 98000000 		.4byte	.LASF13
 697 00a2 05       		.uleb128 0x5
 698 00a3 65000000 		.4byte	0x65
 699 00a7 03       		.uleb128 0x3
 700 00a8 45060000 		.4byte	.LASF14
 701 00ac 08       		.byte	0x8
 702 00ad 45       		.byte	0x45
 703 00ae 77000000 		.4byte	0x77
 704 00b2 03       		.uleb128 0x3
 705 00b3 01010000 		.4byte	.LASF15
 706 00b7 08       		.byte	0x8
 707 00b8 46       		.byte	0x46
 708 00b9 90000000 		.4byte	0x90
 709 00bd 03       		.uleb128 0x3
 710 00be F4020000 		.4byte	.LASF16
 711 00c2 08       		.byte	0x8
 712 00c3 48       		.byte	0x48
 713 00c4 45000000 		.4byte	0x45
 714 00c8 03       		.uleb128 0x3
 715 00c9 A0010000 		.4byte	.LASF17
 716 00cd 08       		.byte	0x8
ARM GAS  C:\Users\Luis\AppData\Local\Temp\ccgEIuaR.s 			page 14


 717 00ce 49       		.byte	0x49
 718 00cf 45000000 		.4byte	0x45
 719 00d3 03       		.uleb128 0x3
 720 00d4 ED030000 		.4byte	.LASF18
 721 00d8 08       		.byte	0x8
 722 00d9 4A       		.byte	0x4a
 723 00da 45000000 		.4byte	0x45
 724 00de 03       		.uleb128 0x3
 725 00df 16040000 		.4byte	.LASF19
 726 00e3 08       		.byte	0x8
 727 00e4 4C       		.byte	0x4c
 728 00e5 77000000 		.4byte	0x77
 729 00e9 03       		.uleb128 0x3
 730 00ea CC020000 		.4byte	.LASF20
 731 00ee 08       		.byte	0x8
 732 00ef 4D       		.byte	0x4d
 733 00f0 65000000 		.4byte	0x65
 734 00f4 03       		.uleb128 0x3
 735 00f5 26030000 		.4byte	.LASF21
 736 00f9 08       		.byte	0x8
 737 00fa 4F       		.byte	0x4f
 738 00fb 77000000 		.4byte	0x77
 739 00ff 03       		.uleb128 0x3
 740 0100 22020000 		.4byte	.LASF22
 741 0104 08       		.byte	0x8
 742 0105 51       		.byte	0x51
 743 0106 65000000 		.4byte	0x65
 744 010a 03       		.uleb128 0x3
 745 010b D7020000 		.4byte	.LASF23
 746 010f 08       		.byte	0x8
 747 0110 52       		.byte	0x52
 748 0111 77000000 		.4byte	0x77
 749 0115 03       		.uleb128 0x3
 750 0116 E9050000 		.4byte	.LASF24
 751 011a 09       		.byte	0x9
 752 011b 33       		.byte	0x33
 753 011c 77000000 		.4byte	0x77
 754 0120 03       		.uleb128 0x3
 755 0121 8C060000 		.4byte	.LASF25
 756 0125 09       		.byte	0x9
 757 0126 3F       		.byte	0x3f
 758 0127 2B010000 		.4byte	0x12b
 759 012b 06       		.uleb128 0x6
 760 012c 9D020000 		.4byte	.LASF48
 761 0130 68       		.byte	0x68
 762 0131 0A       		.byte	0xa
 763 0132 C2       		.byte	0xc2
 764 0133 3E020000 		.4byte	0x23e
 765 0137 07       		.uleb128 0x7
 766 0138 67040000 		.4byte	.LASF26
 767 013c 0A       		.byte	0xa
 768 013d C3       		.byte	0xc3
 769 013e 49020000 		.4byte	0x249
 770 0142 00       		.byte	0
 771 0143 07       		.uleb128 0x7
 772 0144 0F040000 		.4byte	.LASF27
 773 0148 0A       		.byte	0xa
ARM GAS  C:\Users\Luis\AppData\Local\Temp\ccgEIuaR.s 			page 15


 774 0149 C5       		.byte	0xc5
 775 014a 49020000 		.4byte	0x249
 776 014e 04       		.byte	0x4
 777 014f 07       		.uleb128 0x7
 778 0150 0A010000 		.4byte	.LASF28
 779 0154 0A       		.byte	0xa
 780 0155 C7       		.byte	0xc7
 781 0156 DE000000 		.4byte	0xde
 782 015a 08       		.byte	0x8
 783 015b 07       		.uleb128 0x7
 784 015c 32070000 		.4byte	.LASF29
 785 0160 0A       		.byte	0xa
 786 0161 C8       		.byte	0xc8
 787 0162 B2040000 		.4byte	0x4b2
 788 0166 0C       		.byte	0xc
 789 0167 07       		.uleb128 0x7
 790 0168 AF010000 		.4byte	.LASF30
 791 016c 0A       		.byte	0xa
 792 016d CA       		.byte	0xca
 793 016e 49020000 		.4byte	0x249
 794 0172 10       		.byte	0x10
 795 0173 07       		.uleb128 0x7
 796 0174 A2030000 		.4byte	.LASF31
 797 0178 0A       		.byte	0xa
 798 0179 CB       		.byte	0xcb
 799 017a 49020000 		.4byte	0x249
 800 017e 14       		.byte	0x14
 801 017f 07       		.uleb128 0x7
 802 0180 C9060000 		.4byte	.LASF32
 803 0184 0A       		.byte	0xa
 804 0185 D2       		.byte	0xd2
 805 0186 56070000 		.4byte	0x756
 806 018a 18       		.byte	0x18
 807 018b 07       		.uleb128 0x7
 808 018c 28020000 		.4byte	.LASF33
 809 0190 0A       		.byte	0xa
 810 0191 D8       		.byte	0xd8
 811 0192 68070000 		.4byte	0x768
 812 0196 1C       		.byte	0x1c
 813 0197 07       		.uleb128 0x7
 814 0198 51040000 		.4byte	.LASF34
 815 019c 0A       		.byte	0xa
 816 019d DD       		.byte	0xdd
 817 019e C8000000 		.4byte	0xc8
 818 01a2 20       		.byte	0x20
 819 01a3 07       		.uleb128 0x7
 820 01a4 F1060000 		.4byte	.LASF35
 821 01a8 0A       		.byte	0xa
 822 01a9 E1       		.byte	0xe1
 823 01aa BD000000 		.4byte	0xbd
 824 01ae 21       		.byte	0x21
 825 01af 07       		.uleb128 0x7
 826 01b0 7D060000 		.4byte	.LASF36
 827 01b4 0A       		.byte	0xa
 828 01b5 E6       		.byte	0xe6
 829 01b6 D3000000 		.4byte	0xd3
 830 01ba 22       		.byte	0x22
ARM GAS  C:\Users\Luis\AppData\Local\Temp\ccgEIuaR.s 			page 16


 831 01bb 08       		.uleb128 0x8
 832 01bc 705F7500 		.ascii	"p_u\000"
 833 01c0 0A       		.byte	0xa
 834 01c1 3101     		.2byte	0x131
 835 01c3 91060000 		.4byte	0x691
 836 01c7 24       		.byte	0x24
 837 01c8 09       		.uleb128 0x9
 838 01c9 3D030000 		.4byte	.LASF37
 839 01cd 0A       		.byte	0xa
 840 01ce 3601     		.2byte	0x136
 841 01d0 4F020000 		.4byte	0x24f
 842 01d4 28       		.byte	0x28
 843 01d5 09       		.uleb128 0x9
 844 01d6 4F020000 		.4byte	.LASF38
 845 01da 0A       		.byte	0xa
 846 01db 3C01     		.2byte	0x13c
 847 01dd 73020000 		.4byte	0x273
 848 01e1 2C       		.byte	0x2c
 849 01e2 09       		.uleb128 0x9
 850 01e3 3F060000 		.4byte	.LASF39
 851 01e7 0A       		.byte	0xa
 852 01e8 4001     		.2byte	0x140
 853 01ea E9000000 		.4byte	0xe9
 854 01ee 34       		.byte	0x34
 855 01ef 09       		.uleb128 0x9
 856 01f0 AC040000 		.4byte	.LASF40
 857 01f4 0A       		.byte	0xa
 858 01f5 4601     		.2byte	0x146
 859 01f7 F4000000 		.4byte	0xf4
 860 01fb 38       		.byte	0x38
 861 01fc 09       		.uleb128 0x9
 862 01fd 3D040000 		.4byte	.LASF41
 863 0201 0A       		.byte	0xa
 864 0202 4D01     		.2byte	0x14d
 865 0204 50070000 		.4byte	0x750
 866 0208 3C       		.byte	0x3c
 867 0209 09       		.uleb128 0x9
 868 020a F3050000 		.4byte	.LASF42
 869 020e 0A       		.byte	0xa
 870 020f 5101     		.2byte	0x151
 871 0211 DE000000 		.4byte	0xde
 872 0215 40       		.byte	0x40
 873 0216 09       		.uleb128 0x9
 874 0217 2B010000 		.4byte	.LASF43
 875 021b 0A       		.byte	0xa
 876 021c 5801     		.2byte	0x158
 877 021e 26030000 		.4byte	0x326
 878 0222 44       		.byte	0x44
 879 0223 09       		.uleb128 0x9
 880 0224 77040000 		.4byte	.LASF44
 881 0228 0A       		.byte	0xa
 882 0229 5E01     		.2byte	0x15e
 883 022b 42060000 		.4byte	0x642
 884 022f 48       		.byte	0x48
 885 0230 09       		.uleb128 0x9
 886 0231 5A020000 		.4byte	.LASF45
 887 0235 0A       		.byte	0xa
ARM GAS  C:\Users\Luis\AppData\Local\Temp\ccgEIuaR.s 			page 17


 888 0236 6201     		.2byte	0x162
 889 0238 26030000 		.4byte	0x326
 890 023c 60       		.byte	0x60
 891 023d 00       		.byte	0
 892 023e 03       		.uleb128 0x3
 893 023f 50030000 		.4byte	.LASF46
 894 0243 09       		.byte	0x9
 895 0244 44       		.byte	0x44
 896 0245 49020000 		.4byte	0x249
 897 0249 0A       		.uleb128 0xa
 898 024a 04       		.byte	0x4
 899 024b 20010000 		.4byte	0x120
 900 024f 03       		.uleb128 0x3
 901 0250 D5060000 		.4byte	.LASF47
 902 0254 09       		.byte	0x9
 903 0255 49       		.byte	0x49
 904 0256 5A020000 		.4byte	0x25a
 905 025a 06       		.uleb128 0x6
 906 025b D8040000 		.4byte	.LASF49
 907 025f 04       		.byte	0x4
 908 0260 0A       		.byte	0xa
 909 0261 B0       		.byte	0xb0
 910 0262 73020000 		.4byte	0x273
 911 0266 07       		.uleb128 0x7
 912 0267 67040000 		.4byte	.LASF26
 913 026b 0A       		.byte	0xa
 914 026c B1       		.byte	0xb1
 915 026d 49020000 		.4byte	0x249
 916 0271 00       		.byte	0
 917 0272 00       		.byte	0
 918 0273 03       		.uleb128 0x3
 919 0274 61060000 		.4byte	.LASF50
 920 0278 09       		.byte	0x9
 921 0279 50       		.byte	0x50
 922 027a 7E020000 		.4byte	0x27e
 923 027e 06       		.uleb128 0x6
 924 027f 4C000000 		.4byte	.LASF51
 925 0283 08       		.byte	0x8
 926 0284 0A       		.byte	0xa
 927 0285 B7       		.byte	0xb7
 928 0286 A3020000 		.4byte	0x2a3
 929 028a 07       		.uleb128 0x7
 930 028b 67040000 		.4byte	.LASF26
 931 028f 0A       		.byte	0xa
 932 0290 B8       		.byte	0xb8
 933 0291 49020000 		.4byte	0x249
 934 0295 00       		.byte	0
 935 0296 07       		.uleb128 0x7
 936 0297 0F040000 		.4byte	.LASF27
 937 029b 0A       		.byte	0xa
 938 029c B9       		.byte	0xb9
 939 029d 49020000 		.4byte	0x249
 940 02a1 04       		.byte	0x4
 941 02a2 00       		.byte	0
 942 02a3 03       		.uleb128 0x3
 943 02a4 07000000 		.4byte	.LASF52
 944 02a8 09       		.byte	0x9
ARM GAS  C:\Users\Luis\AppData\Local\Temp\ccgEIuaR.s 			page 18


 945 02a9 57       		.byte	0x57
 946 02aa AE020000 		.4byte	0x2ae
 947 02ae 0B       		.uleb128 0xb
 948 02af 18030000 		.4byte	.LASF53
 949 02b3 1C       		.byte	0x1c
 950 02b4 0A       		.byte	0xa
 951 02b5 9001     		.2byte	0x190
 952 02b7 0A030000 		.4byte	0x30a
 953 02bb 09       		.uleb128 0x9
 954 02bc C7040000 		.4byte	.LASF54
 955 02c0 0A       		.byte	0xa
 956 02c1 9101     		.2byte	0x191
 957 02c3 73020000 		.4byte	0x273
 958 02c7 00       		.byte	0
 959 02c8 09       		.uleb128 0x9
 960 02c9 59040000 		.4byte	.LASF55
 961 02cd 0A       		.byte	0xa
 962 02ce 9201     		.2byte	0x192
 963 02d0 DE000000 		.4byte	0xde
 964 02d4 08       		.byte	0x8
 965 02d5 09       		.uleb128 0x9
 966 02d6 AA030000 		.4byte	.LASF56
 967 02da 0A       		.byte	0xa
 968 02db 9401     		.2byte	0x194
 969 02dd B2040000 		.4byte	0x4b2
 970 02e1 0C       		.byte	0xc
 971 02e2 09       		.uleb128 0x9
 972 02e3 C7010000 		.4byte	.LASF57
 973 02e7 0A       		.byte	0xa
 974 02e8 9701     		.2byte	0x197
 975 02ea 49020000 		.4byte	0x249
 976 02ee 10       		.byte	0x10
 977 02ef 09       		.uleb128 0x9
 978 02f0 DA030000 		.4byte	.LASF58
 979 02f4 0A       		.byte	0xa
 980 02f5 9801     		.2byte	0x198
 981 02f7 49020000 		.4byte	0x249
 982 02fb 14       		.byte	0x14
 983 02fc 09       		.uleb128 0x9
 984 02fd D0030000 		.4byte	.LASF59
 985 0301 0A       		.byte	0xa
 986 0302 9B01     		.2byte	0x19b
 987 0304 49020000 		.4byte	0x249
 988 0308 18       		.byte	0x18
 989 0309 00       		.byte	0
 990 030a 03       		.uleb128 0x3
 991 030b FE050000 		.4byte	.LASF60
 992 030f 09       		.byte	0x9
 993 0310 5C       		.byte	0x5c
 994 0311 15030000 		.4byte	0x315
 995 0315 0A       		.uleb128 0xa
 996 0316 04       		.byte	0x4
 997 0317 1B030000 		.4byte	0x31b
 998 031b 0C       		.uleb128 0xc
 999 031c 26030000 		.4byte	0x326
 1000 0320 0D       		.uleb128 0xd
 1001 0321 26030000 		.4byte	0x326
ARM GAS  C:\Users\Luis\AppData\Local\Temp\ccgEIuaR.s 			page 19


 1002 0325 00       		.byte	0
 1003 0326 0E       		.uleb128 0xe
 1004 0327 04       		.byte	0x4
 1005 0328 03       		.uleb128 0x3
 1006 0329 FF030000 		.4byte	.LASF61
 1007 032d 09       		.byte	0x9
 1008 032e 61       		.byte	0x61
 1009 032f 33030000 		.4byte	0x333
 1010 0333 0B       		.uleb128 0xb
 1011 0334 8E040000 		.4byte	.LASF62
 1012 0338 14       		.byte	0x14
 1013 0339 0A       		.byte	0xa
 1014 033a 6B01     		.2byte	0x16b
 1015 033c 82030000 		.4byte	0x382
 1016 0340 09       		.uleb128 0x9
 1017 0341 40020000 		.4byte	.LASF63
 1018 0345 0A       		.byte	0xa
 1019 0346 6C01     		.2byte	0x16c
 1020 0348 6E070000 		.4byte	0x76e
 1021 034c 00       		.byte	0
 1022 034d 09       		.uleb128 0x9
 1023 034e E4010000 		.4byte	.LASF64
 1024 0352 0A       		.byte	0xa
 1025 0353 6D01     		.2byte	0x16d
 1026 0355 6E070000 		.4byte	0x76e
 1027 0359 04       		.byte	0x4
 1028 035a 09       		.uleb128 0x9
 1029 035b CF040000 		.4byte	.LASF65
 1030 035f 0A       		.byte	0xa
 1031 0360 6E01     		.2byte	0x16e
 1032 0362 15010000 		.4byte	0x115
 1033 0366 08       		.byte	0x8
 1034 0367 09       		.uleb128 0x9
 1035 0368 38070000 		.4byte	.LASF66
 1036 036c 0A       		.byte	0xa
 1037 036d 6F01     		.2byte	0x16f
 1038 036f 0A030000 		.4byte	0x30a
 1039 0373 0C       		.byte	0xc
 1040 0374 09       		.uleb128 0x9
 1041 0375 5A060000 		.4byte	.LASF67
 1042 0379 0A       		.byte	0xa
 1043 037a 7101     		.2byte	0x171
 1044 037c 26030000 		.4byte	0x326
 1045 0380 10       		.byte	0x10
 1046 0381 00       		.byte	0
 1047 0382 03       		.uleb128 0x3
 1048 0383 DE000000 		.4byte	.LASF68
 1049 0387 09       		.byte	0x9
 1050 0388 66       		.byte	0x66
 1051 0389 8D030000 		.4byte	0x38d
 1052 038d 0B       		.uleb128 0xb
 1053 038e 63030000 		.4byte	.LASF69
 1054 0392 10       		.byte	0x10
 1055 0393 0A       		.byte	0xa
 1056 0394 7B01     		.2byte	0x17b
 1057 0396 CF030000 		.4byte	0x3cf
 1058 039a 09       		.uleb128 0x9
ARM GAS  C:\Users\Luis\AppData\Local\Temp\ccgEIuaR.s 			page 20


 1059 039b 40020000 		.4byte	.LASF63
 1060 039f 0A       		.byte	0xa
 1061 03a0 7C01     		.2byte	0x17c
 1062 03a2 6E070000 		.4byte	0x76e
 1063 03a6 00       		.byte	0
 1064 03a7 09       		.uleb128 0x9
 1065 03a8 E4010000 		.4byte	.LASF64
 1066 03ac 0A       		.byte	0xa
 1067 03ad 7E01     		.2byte	0x17e
 1068 03af 6E070000 		.4byte	0x76e
 1069 03b3 04       		.byte	0x4
 1070 03b4 09       		.uleb128 0x9
 1071 03b5 CF040000 		.4byte	.LASF65
 1072 03b9 0A       		.byte	0xa
 1073 03ba 8001     		.2byte	0x180
 1074 03bc 15010000 		.4byte	0x115
 1075 03c0 08       		.byte	0x8
 1076 03c1 09       		.uleb128 0x9
 1077 03c2 96030000 		.4byte	.LASF70
 1078 03c6 0A       		.byte	0xa
 1079 03c7 8801     		.2byte	0x188
 1080 03c9 15010000 		.4byte	0x115
 1081 03cd 0C       		.byte	0xc
 1082 03ce 00       		.byte	0
 1083 03cf 03       		.uleb128 0x3
 1084 03d0 5D000000 		.4byte	.LASF71
 1085 03d4 09       		.byte	0x9
 1086 03d5 6B       		.byte	0x6b
 1087 03d6 DA030000 		.4byte	0x3da
 1088 03da 0F       		.uleb128 0xf
 1089 03db EC010000 		.4byte	.LASF72
 1090 03df 1404     		.2byte	0x414
 1091 03e1 0A       		.byte	0xa
 1092 03e2 A201     		.2byte	0x1a2
 1093 03e4 1D040000 		.4byte	0x41d
 1094 03e8 09       		.uleb128 0x9
 1095 03e9 15060000 		.4byte	.LASF73
 1096 03ed 0A       		.byte	0xa
 1097 03ee AA01     		.2byte	0x1aa
 1098 03f0 74070000 		.4byte	0x774
 1099 03f4 00       		.byte	0
 1100 03f5 09       		.uleb128 0x9
 1101 03f6 84060000 		.4byte	.LASF74
 1102 03fa 0A       		.byte	0xa
 1103 03fb AF01     		.2byte	0x1af
 1104 03fd FF000000 		.4byte	0xff
 1105 0401 04       		.byte	0x4
 1106 0402 09       		.uleb128 0x9
 1107 0403 0A020000 		.4byte	.LASF75
 1108 0407 0A       		.byte	0xa
 1109 0408 B301     		.2byte	0x1b3
 1110 040a FF000000 		.4byte	0xff
 1111 040e 08       		.byte	0x8
 1112 040f 09       		.uleb128 0x9
 1113 0410 E4060000 		.4byte	.LASF76
 1114 0414 0A       		.byte	0xa
 1115 0415 B901     		.2byte	0x1b9
ARM GAS  C:\Users\Luis\AppData\Local\Temp\ccgEIuaR.s 			page 21


 1116 0417 D4050000 		.4byte	0x5d4
 1117 041b 0C       		.byte	0xc
 1118 041c 00       		.byte	0
 1119 041d 03       		.uleb128 0x3
 1120 041e DE020000 		.4byte	.LASF77
 1121 0422 09       		.byte	0x9
 1122 0423 70       		.byte	0x70
 1123 0424 28040000 		.4byte	0x428
 1124 0428 0F       		.uleb128 0xf
 1125 0429 8D010000 		.4byte	.LASF78
 1126 042d E805     		.2byte	0x5e8
 1127 042f 0A       		.byte	0xa
 1128 0430 C201     		.2byte	0x1c2
 1129 0432 95040000 		.4byte	0x495
 1130 0436 09       		.uleb128 0x9
 1131 0437 95060000 		.4byte	.LASF79
 1132 043b 0A       		.byte	0xa
 1133 043c C601     		.2byte	0x1c6
 1134 043e A3020000 		.4byte	0x2a3
 1135 0442 00       		.byte	0
 1136 0443 09       		.uleb128 0x9
 1137 0444 3B010000 		.4byte	.LASF80
 1138 0448 0A       		.byte	0xa
 1139 0449 CA01     		.2byte	0x1ca
 1140 044b 82030000 		.4byte	0x382
 1141 044f 1C       		.byte	0x1c
 1142 0450 08       		.uleb128 0x8
 1143 0451 64626700 		.ascii	"dbg\000"
 1144 0455 0A       		.byte	0xa
 1145 0456 CE01     		.2byte	0x1ce
 1146 0458 CF030000 		.4byte	0x3cf
 1147 045c 2C       		.byte	0x2c
 1148 045d 10       		.uleb128 0x10
 1149 045e D3000000 		.4byte	.LASF81
 1150 0462 0A       		.byte	0xa
 1151 0463 D201     		.2byte	0x1d2
 1152 0465 20010000 		.4byte	0x120
 1153 0469 4004     		.2byte	0x440
 1154 046b 11       		.uleb128 0x11
 1155 046c 746D00   		.ascii	"tm\000"
 1156 046f 0A       		.byte	0xa
 1157 0470 D701     		.2byte	0x1d7
 1158 0472 F4050000 		.4byte	0x5f4
 1159 0476 A804     		.2byte	0x4a8
 1160 0478 10       		.uleb128 0x10
 1161 0479 33000000 		.4byte	.LASF82
 1162 047d 0A       		.byte	0xa
 1163 047e DD01     		.2byte	0x1dd
 1164 0480 86060000 		.4byte	0x686
 1165 0484 B004     		.2byte	0x4b0
 1166 0486 10       		.uleb128 0x10
 1167 0487 13020000 		.4byte	.LASF83
 1168 048b 0A       		.byte	0xa
 1169 048c E301     		.2byte	0x1e3
 1170 048e 79070000 		.4byte	0x779
 1171 0492 E804     		.2byte	0x4e8
 1172 0494 00       		.byte	0
ARM GAS  C:\Users\Luis\AppData\Local\Temp\ccgEIuaR.s 			page 22


 1173 0495 04       		.uleb128 0x4
 1174 0496 04       		.byte	0x4
 1175 0497 07       		.byte	0x7
 1176 0498 47030000 		.4byte	.LASF84
 1177 049c 03       		.uleb128 0x3
 1178 049d DB010000 		.4byte	.LASF85
 1179 04a1 0B       		.byte	0xb
 1180 04a2 65       		.byte	0x65
 1181 04a3 26030000 		.4byte	0x326
 1182 04a7 03       		.uleb128 0x3
 1183 04a8 32030000 		.4byte	.LASF86
 1184 04ac 0B       		.byte	0xb
 1185 04ad 6D       		.byte	0x6d
 1186 04ae 90000000 		.4byte	0x90
 1187 04b2 06       		.uleb128 0x6
 1188 04b3 37060000 		.4byte	.LASF87
 1189 04b7 04       		.byte	0x4
 1190 04b8 0B       		.byte	0xb
 1191 04b9 89       		.byte	0x89
 1192 04ba CB040000 		.4byte	0x4cb
 1193 04be 12       		.uleb128 0x12
 1194 04bf 72313300 		.ascii	"r13\000"
 1195 04c3 0B       		.byte	0xb
 1196 04c4 8A       		.byte	0x8a
 1197 04c5 46050000 		.4byte	0x546
 1198 04c9 00       		.byte	0
 1199 04ca 00       		.byte	0
 1200 04cb 06       		.uleb128 0x6
 1201 04cc 40000000 		.4byte	.LASF88
 1202 04d0 24       		.byte	0x24
 1203 04d1 01       		.byte	0x1
 1204 04d2 F4       		.byte	0xf4
 1205 04d3 46050000 		.4byte	0x546
 1206 04d7 08       		.uleb128 0x8
 1207 04d8 723400   		.ascii	"r4\000"
 1208 04db 01       		.byte	0x1
 1209 04dc 0701     		.2byte	0x107
 1210 04de 9C040000 		.4byte	0x49c
 1211 04e2 00       		.byte	0
 1212 04e3 08       		.uleb128 0x8
 1213 04e4 723500   		.ascii	"r5\000"
 1214 04e7 01       		.byte	0x1
 1215 04e8 0801     		.2byte	0x108
 1216 04ea 9C040000 		.4byte	0x49c
 1217 04ee 04       		.byte	0x4
 1218 04ef 08       		.uleb128 0x8
 1219 04f0 723600   		.ascii	"r6\000"
 1220 04f3 01       		.byte	0x1
 1221 04f4 0901     		.2byte	0x109
 1222 04f6 9C040000 		.4byte	0x49c
 1223 04fa 08       		.byte	0x8
 1224 04fb 08       		.uleb128 0x8
 1225 04fc 723700   		.ascii	"r7\000"
 1226 04ff 01       		.byte	0x1
 1227 0500 0A01     		.2byte	0x10a
 1228 0502 9C040000 		.4byte	0x49c
 1229 0506 0C       		.byte	0xc
ARM GAS  C:\Users\Luis\AppData\Local\Temp\ccgEIuaR.s 			page 23


 1230 0507 08       		.uleb128 0x8
 1231 0508 723800   		.ascii	"r8\000"
 1232 050b 01       		.byte	0x1
 1233 050c 0B01     		.2byte	0x10b
 1234 050e 9C040000 		.4byte	0x49c
 1235 0512 10       		.byte	0x10
 1236 0513 08       		.uleb128 0x8
 1237 0514 723900   		.ascii	"r9\000"
 1238 0517 01       		.byte	0x1
 1239 0518 0C01     		.2byte	0x10c
 1240 051a 9C040000 		.4byte	0x49c
 1241 051e 14       		.byte	0x14
 1242 051f 08       		.uleb128 0x8
 1243 0520 72313000 		.ascii	"r10\000"
 1244 0524 01       		.byte	0x1
 1245 0525 0D01     		.2byte	0x10d
 1246 0527 9C040000 		.4byte	0x49c
 1247 052b 18       		.byte	0x18
 1248 052c 08       		.uleb128 0x8
 1249 052d 72313100 		.ascii	"r11\000"
 1250 0531 01       		.byte	0x1
 1251 0532 0E01     		.2byte	0x10e
 1252 0534 9C040000 		.4byte	0x49c
 1253 0538 1C       		.byte	0x1c
 1254 0539 08       		.uleb128 0x8
 1255 053a 6C7200   		.ascii	"lr\000"
 1256 053d 01       		.byte	0x1
 1257 053e 0F01     		.2byte	0x10f
 1258 0540 9C040000 		.4byte	0x49c
 1259 0544 20       		.byte	0x20
 1260 0545 00       		.byte	0
 1261 0546 0A       		.uleb128 0xa
 1262 0547 04       		.byte	0x4
 1263 0548 CB040000 		.4byte	0x4cb
 1264 054c 13       		.uleb128 0x13
 1265 054d 10       		.byte	0x10
 1266 054e 0C       		.byte	0xc
 1267 054f 51       		.byte	0x51
 1268 0550 85050000 		.4byte	0x585
 1269 0554 07       		.uleb128 0x7
 1270 0555 14000000 		.4byte	.LASF89
 1271 0559 0C       		.byte	0xc
 1272 055a 55       		.byte	0x55
 1273 055b 15010000 		.4byte	0x115
 1274 055f 00       		.byte	0
 1275 0560 07       		.uleb128 0x7
 1276 0561 A9010000 		.4byte	.LASF90
 1277 0565 0C       		.byte	0xc
 1278 0566 59       		.byte	0x59
 1279 0567 49020000 		.4byte	0x249
 1280 056b 04       		.byte	0x4
 1281 056c 07       		.uleb128 0x7
 1282 056d 28070000 		.4byte	.LASF91
 1283 0571 0C       		.byte	0xc
 1284 0572 5D       		.byte	0x5d
 1285 0573 26030000 		.4byte	0x326
 1286 0577 08       		.byte	0x8
ARM GAS  C:\Users\Luis\AppData\Local\Temp\ccgEIuaR.s 			page 24


 1287 0578 07       		.uleb128 0x7
 1288 0579 C1000000 		.4byte	.LASF92
 1289 057d 0C       		.byte	0xc
 1290 057e 61       		.byte	0x61
 1291 057f 45000000 		.4byte	0x45
 1292 0583 0C       		.byte	0xc
 1293 0584 00       		.byte	0
 1294 0585 03       		.uleb128 0x3
 1295 0586 87030000 		.4byte	.LASF93
 1296 058a 0C       		.byte	0xc
 1297 058b 62       		.byte	0x62
 1298 058c 4C050000 		.4byte	0x54c
 1299 0590 14       		.uleb128 0x14
 1300 0591 0804     		.2byte	0x408
 1301 0593 0C       		.byte	0xc
 1302 0594 67       		.byte	0x67
 1303 0595 BE050000 		.4byte	0x5be
 1304 0599 07       		.uleb128 0x7
 1305 059a BF010000 		.4byte	.LASF94
 1306 059e 0C       		.byte	0xc
 1307 059f 6B       		.byte	0x6b
 1308 05a0 37000000 		.4byte	0x37
 1309 05a4 00       		.byte	0
 1310 05a5 07       		.uleb128 0x7
 1311 05a6 00000000 		.4byte	.LASF95
 1312 05aa 0C       		.byte	0xc
 1313 05ab 6F       		.byte	0x6f
 1314 05ac BE050000 		.4byte	0x5be
 1315 05b0 04       		.byte	0x4
 1316 05b1 07       		.uleb128 0x7
 1317 05b2 F5030000 		.4byte	.LASF96
 1318 05b6 0C       		.byte	0xc
 1319 05b7 73       		.byte	0x73
 1320 05b8 C4050000 		.4byte	0x5c4
 1321 05bc 08       		.byte	0x8
 1322 05bd 00       		.byte	0
 1323 05be 0A       		.uleb128 0xa
 1324 05bf 04       		.byte	0x4
 1325 05c0 85050000 		.4byte	0x585
 1326 05c4 15       		.uleb128 0x15
 1327 05c5 85050000 		.4byte	0x585
 1328 05c9 D4050000 		.4byte	0x5d4
 1329 05cd 16       		.uleb128 0x16
 1330 05ce 95040000 		.4byte	0x495
 1331 05d2 3F       		.byte	0x3f
 1332 05d3 00       		.byte	0
 1333 05d4 03       		.uleb128 0x3
 1334 05d5 AF000000 		.4byte	.LASF97
 1335 05d9 0C       		.byte	0xc
 1336 05da 74       		.byte	0x74
 1337 05db 90050000 		.4byte	0x590
 1338 05df 13       		.uleb128 0x13
 1339 05e0 04       		.byte	0x4
 1340 05e1 0D       		.byte	0xd
 1341 05e2 38       		.byte	0x38
 1342 05e3 F4050000 		.4byte	0x5f4
 1343 05e7 07       		.uleb128 0x7
ARM GAS  C:\Users\Luis\AppData\Local\Temp\ccgEIuaR.s 			page 25


 1344 05e8 1F060000 		.4byte	.LASF98
 1345 05ec 0D       		.byte	0xd
 1346 05ed 3C       		.byte	0x3c
 1347 05ee A7000000 		.4byte	0xa7
 1348 05f2 00       		.byte	0
 1349 05f3 00       		.byte	0
 1350 05f4 03       		.uleb128 0x3
 1351 05f5 BF030000 		.4byte	.LASF99
 1352 05f9 0D       		.byte	0xd
 1353 05fa 3D       		.byte	0x3d
 1354 05fb DF050000 		.4byte	0x5df
 1355 05ff 13       		.uleb128 0x13
 1356 0600 18       		.byte	0x18
 1357 0601 0D       		.byte	0xd
 1358 0602 48       		.byte	0x48
 1359 0603 42060000 		.4byte	0x642
 1360 0607 07       		.uleb128 0x7
 1361 0608 DD050000 		.4byte	.LASF100
 1362 060c 0D       		.byte	0xd
 1363 060d 49       		.byte	0x49
 1364 060e A7000000 		.4byte	0xa7
 1365 0612 00       		.byte	0
 1366 0613 07       		.uleb128 0x7
 1367 0614 7F000000 		.4byte	.LASF101
 1368 0618 0D       		.byte	0xd
 1369 0619 4A       		.byte	0x4a
 1370 061a A7000000 		.4byte	0xa7
 1371 061e 04       		.byte	0x4
 1372 061f 07       		.uleb128 0x7
 1373 0620 D2020000 		.4byte	.LASF102
 1374 0624 0D       		.byte	0xd
 1375 0625 4B       		.byte	0x4b
 1376 0626 A7000000 		.4byte	0xa7
 1377 062a 08       		.byte	0x8
 1378 062b 12       		.uleb128 0x12
 1379 062c 6E00     		.ascii	"n\000"
 1380 062e 0D       		.byte	0xd
 1381 062f 4C       		.byte	0x4c
 1382 0630 0A010000 		.4byte	0x10a
 1383 0634 0C       		.byte	0xc
 1384 0635 07       		.uleb128 0x7
 1385 0636 E2030000 		.4byte	.LASF103
 1386 063a 0D       		.byte	0xd
 1387 063b 4D       		.byte	0x4d
 1388 063c B2000000 		.4byte	0xb2
 1389 0640 10       		.byte	0x10
 1390 0641 00       		.byte	0
 1391 0642 03       		.uleb128 0x3
 1392 0643 85000000 		.4byte	.LASF104
 1393 0647 0D       		.byte	0xd
 1394 0648 4E       		.byte	0x4e
 1395 0649 FF050000 		.4byte	0x5ff
 1396 064d 13       		.uleb128 0x13
 1397 064e 38       		.byte	0x38
 1398 064f 0E       		.byte	0xe
 1399 0650 38       		.byte	0x38
 1400 0651 86060000 		.4byte	0x686
ARM GAS  C:\Users\Luis\AppData\Local\Temp\ccgEIuaR.s 			page 26


 1401 0655 07       		.uleb128 0x7
 1402 0656 6F020000 		.4byte	.LASF105
 1403 065a 0E       		.byte	0xe
 1404 065b 39       		.byte	0x39
 1405 065c 0A010000 		.4byte	0x10a
 1406 0660 00       		.byte	0
 1407 0661 07       		.uleb128 0x7
 1408 0662 1E040000 		.4byte	.LASF106
 1409 0666 0E       		.byte	0xe
 1410 0667 3A       		.byte	0x3a
 1411 0668 0A010000 		.4byte	0x10a
 1412 066c 04       		.byte	0x4
 1413 066d 07       		.uleb128 0x7
 1414 066e 15070000 		.4byte	.LASF107
 1415 0672 0E       		.byte	0xe
 1416 0673 3B       		.byte	0x3b
 1417 0674 42060000 		.4byte	0x642
 1418 0678 08       		.byte	0x8
 1419 0679 07       		.uleb128 0x7
 1420 067a 0D030000 		.4byte	.LASF108
 1421 067e 0E       		.byte	0xe
 1422 067f 3D       		.byte	0x3d
 1423 0680 42060000 		.4byte	0x642
 1424 0684 20       		.byte	0x20
 1425 0685 00       		.byte	0
 1426 0686 03       		.uleb128 0x3
 1427 0687 8E020000 		.4byte	.LASF109
 1428 068b 0E       		.byte	0xe
 1429 068c 3F       		.byte	0x3f
 1430 068d 4D060000 		.4byte	0x64d
 1431 0691 17       		.uleb128 0x17
 1432 0692 04       		.byte	0x4
 1433 0693 0A       		.byte	0xa
 1434 0694 FA       		.byte	0xfa
 1435 0695 EE060000 		.4byte	0x6ee
 1436 0699 18       		.uleb128 0x18
 1437 069a 23000000 		.4byte	.LASF110
 1438 069e 0A       		.byte	0xa
 1439 069f 0101     		.2byte	0x101
 1440 06a1 E9000000 		.4byte	0xe9
 1441 06a5 18       		.uleb128 0x18
 1442 06a6 CA000000 		.4byte	.LASF111
 1443 06aa 0A       		.byte	0xa
 1444 06ab 0801     		.2byte	0x108
 1445 06ad E9000000 		.4byte	0xe9
 1446 06b1 18       		.uleb128 0x18
 1447 06b2 BA060000 		.4byte	.LASF112
 1448 06b6 0A       		.byte	0xa
 1449 06b7 0F01     		.2byte	0x10f
 1450 06b9 26030000 		.4byte	0x326
 1451 06bd 18       		.uleb128 0x18
 1452 06be 87010000 		.4byte	.LASF113
 1453 06c2 0A       		.byte	0xa
 1454 06c3 1601     		.2byte	0x116
 1455 06c5 EE060000 		.4byte	0x6ee
 1456 06c9 18       		.uleb128 0x18
 1457 06ca 48020000 		.4byte	.LASF114
ARM GAS  C:\Users\Luis\AppData\Local\Temp\ccgEIuaR.s 			page 27


 1458 06ce 0A       		.byte	0xa
 1459 06cf 1E01     		.2byte	0x11e
 1460 06d1 19070000 		.4byte	0x719
 1461 06d5 18       		.uleb128 0x18
 1462 06d6 C0040000 		.4byte	.LASF115
 1463 06da 0A       		.byte	0xa
 1464 06db 2701     		.2byte	0x127
 1465 06dd 50070000 		.4byte	0x750
 1466 06e1 18       		.uleb128 0x18
 1467 06e2 60040000 		.4byte	.LASF116
 1468 06e6 0A       		.byte	0xa
 1469 06e7 2F01     		.2byte	0x12f
 1470 06e9 F4000000 		.4byte	0xf4
 1471 06ed 00       		.byte	0
 1472 06ee 0A       		.uleb128 0xa
 1473 06ef 04       		.byte	0x4
 1474 06f0 3E020000 		.4byte	0x23e
 1475 06f4 06       		.uleb128 0x6
 1476 06f5 9F040000 		.4byte	.LASF117
 1477 06f9 0C       		.byte	0xc
 1478 06fa 0F       		.byte	0xf
 1479 06fb 34       		.byte	0x34
 1480 06fc 19070000 		.4byte	0x719
 1481 0700 07       		.uleb128 0x7
 1482 0701 B7010000 		.4byte	.LASF118
 1483 0705 0F       		.byte	0xf
 1484 0706 35       		.byte	0x35
 1485 0707 73020000 		.4byte	0x273
 1486 070b 00       		.byte	0
 1487 070c 07       		.uleb128 0x7
 1488 070d 75020000 		.4byte	.LASF119
 1489 0711 0F       		.byte	0xf
 1490 0712 37       		.byte	0x37
 1491 0713 FF000000 		.4byte	0xff
 1492 0717 08       		.byte	0x8
 1493 0718 00       		.byte	0
 1494 0719 0A       		.uleb128 0xa
 1495 071a 04       		.byte	0x4
 1496 071b F4060000 		.4byte	0x6f4
 1497 071f 06       		.uleb128 0x6
 1498 0720 26060000 		.4byte	.LASF120
 1499 0724 10       		.byte	0x10
 1500 0725 10       		.byte	0x10
 1501 0726 39       		.byte	0x39
 1502 0727 50070000 		.4byte	0x750
 1503 072b 07       		.uleb128 0x7
 1504 072c 33010000 		.4byte	.LASF121
 1505 0730 10       		.byte	0x10
 1506 0731 3A       		.byte	0x3a
 1507 0732 73020000 		.4byte	0x273
 1508 0736 00       		.byte	0
 1509 0737 07       		.uleb128 0x7
 1510 0738 20070000 		.4byte	.LASF122
 1511 073c 10       		.byte	0x10
 1512 073d 3C       		.byte	0x3c
 1513 073e 49020000 		.4byte	0x249
 1514 0742 08       		.byte	0x8
ARM GAS  C:\Users\Luis\AppData\Local\Temp\ccgEIuaR.s 			page 28


 1515 0743 07       		.uleb128 0x7
 1516 0744 E2050000 		.4byte	.LASF123
 1517 0748 10       		.byte	0x10
 1518 0749 3E       		.byte	0x3e
 1519 074a 94070000 		.4byte	0x794
 1520 074e 0C       		.byte	0xc
 1521 074f 00       		.byte	0
 1522 0750 0A       		.uleb128 0xa
 1523 0751 04       		.byte	0x4
 1524 0752 1F070000 		.4byte	0x71f
 1525 0756 0A       		.uleb128 0xa
 1526 0757 04       		.byte	0x4
 1527 0758 5C070000 		.4byte	0x75c
 1528 075c 19       		.uleb128 0x19
 1529 075d 61070000 		.4byte	0x761
 1530 0761 04       		.uleb128 0x4
 1531 0762 01       		.byte	0x1
 1532 0763 08       		.byte	0x8
 1533 0764 FA040000 		.4byte	.LASF124
 1534 0768 0A       		.uleb128 0xa
 1535 0769 04       		.byte	0x4
 1536 076a A7040000 		.4byte	0x4a7
 1537 076e 0A       		.uleb128 0xa
 1538 076f 04       		.byte	0x4
 1539 0770 28030000 		.4byte	0x328
 1540 0774 05       		.uleb128 0x5
 1541 0775 56070000 		.4byte	0x756
 1542 0779 15       		.uleb128 0x15
 1543 077a A7040000 		.4byte	0x4a7
 1544 077e 89070000 		.4byte	0x789
 1545 0782 16       		.uleb128 0x16
 1546 0783 95040000 		.4byte	0x495
 1547 0787 1F       		.byte	0x1f
 1548 0788 00       		.byte	0
 1549 0789 03       		.uleb128 0x3
 1550 078a FC010000 		.4byte	.LASF125
 1551 078e 10       		.byte	0x10
 1552 078f 34       		.byte	0x34
 1553 0790 1F070000 		.4byte	0x71f
 1554 0794 0A       		.uleb128 0xa
 1555 0795 04       		.byte	0x4
 1556 0796 89070000 		.4byte	0x789
 1557 079a 03       		.uleb128 0x3
 1558 079b 4D060000 		.4byte	.LASF126
 1559 079f 11       		.byte	0x11
 1560 07a0 36       		.byte	0x36
 1561 07a1 A5070000 		.4byte	0x7a5
 1562 07a5 0A       		.uleb128 0xa
 1563 07a6 04       		.byte	0x4
 1564 07a7 AB070000 		.4byte	0x7ab
 1565 07ab 1A       		.uleb128 0x1a
 1566 07ac 26030000 		.4byte	0x326
 1567 07b0 BA070000 		.4byte	0x7ba
 1568 07b4 0D       		.uleb128 0xd
 1569 07b5 2C000000 		.4byte	0x2c
 1570 07b9 00       		.byte	0
 1571 07ba 06       		.uleb128 0x6
ARM GAS  C:\Users\Luis\AppData\Local\Temp\ccgEIuaR.s 			page 29


 1572 07bb 71060000 		.4byte	.LASF127
 1573 07bf 04       		.byte	0x4
 1574 07c0 04       		.byte	0x4
 1575 07c1 38       		.byte	0x38
 1576 07c2 D3070000 		.4byte	0x7d3
 1577 07c6 07       		.uleb128 0x7
 1578 07c7 C1060000 		.4byte	.LASF128
 1579 07cb 04       		.byte	0x4
 1580 07cc 39       		.byte	0x39
 1581 07cd D3070000 		.4byte	0x7d3
 1582 07d1 00       		.byte	0
 1583 07d2 00       		.byte	0
 1584 07d3 0A       		.uleb128 0xa
 1585 07d4 04       		.byte	0x4
 1586 07d5 BA070000 		.4byte	0x7ba
 1587 07d9 13       		.uleb128 0x13
 1588 07da 0C       		.byte	0xc
 1589 07db 04       		.byte	0x4
 1590 07dc 40       		.byte	0x40
 1591 07dd 06080000 		.4byte	0x806
 1592 07e1 07       		.uleb128 0x7
 1593 07e2 2F060000 		.4byte	.LASF129
 1594 07e6 04       		.byte	0x4
 1595 07e7 41       		.byte	0x41
 1596 07e8 D3070000 		.4byte	0x7d3
 1597 07ec 00       		.byte	0
 1598 07ed 07       		.uleb128 0x7
 1599 07ee B0030000 		.4byte	.LASF130
 1600 07f2 04       		.byte	0x4
 1601 07f3 42       		.byte	0x42
 1602 07f4 2C000000 		.4byte	0x2c
 1603 07f8 04       		.byte	0x4
 1604 07f9 07       		.uleb128 0x7
 1605 07fa CF010000 		.4byte	.LASF131
 1606 07fe 04       		.byte	0x4
 1607 07ff 44       		.byte	0x44
 1608 0800 9A070000 		.4byte	0x79a
 1609 0804 08       		.byte	0x8
 1610 0805 00       		.byte	0
 1611 0806 03       		.uleb128 0x3
 1612 0807 61020000 		.4byte	.LASF132
 1613 080b 04       		.byte	0x4
 1614 080c 46       		.byte	0x46
 1615 080d D9070000 		.4byte	0x7d9
 1616 0811 1B       		.uleb128 0x1b
 1617 0812 07060000 		.4byte	.LASF151
 1618 0816 02       		.byte	0x2
 1619 0817 2002     		.2byte	0x220
 1620 0819 03       		.byte	0x3
 1621 081a 2B080000 		.4byte	0x82b
 1622 081e 1C       		.uleb128 0x1c
 1623 081f 04020000 		.4byte	.LASF152
 1624 0823 02       		.byte	0x2
 1625 0824 2002     		.2byte	0x220
 1626 0826 77000000 		.4byte	0x77
 1627 082a 00       		.byte	0
 1628 082b 1D       		.uleb128 0x1d
ARM GAS  C:\Users\Luis\AppData\Local\Temp\ccgEIuaR.s 			page 30


 1629 082c 75000000 		.4byte	.LASF133
 1630 0830 01       		.byte	0x1
 1631 0831 BC01     		.2byte	0x1bc
 1632 0833 00000000 		.4byte	.LFB116
 1633 0837 1A000000 		.4byte	.LFE116-.LFB116
 1634 083b 01       		.uleb128 0x1
 1635 083c 9C       		.byte	0x9c
 1636 083d 5B080000 		.4byte	0x85b
 1637 0841 1E       		.uleb128 0x1e
 1638 0842 11080000 		.4byte	0x811
 1639 0846 0A000000 		.4byte	.LBB6
 1640 084a 06000000 		.4byte	.LBE6-.LBB6
 1641 084e 01       		.byte	0x1
 1642 084f BF01     		.2byte	0x1bf
 1643 0851 1F       		.uleb128 0x1f
 1644 0852 1E080000 		.4byte	0x81e
 1645 0856 02       		.uleb128 0x2
 1646 0857 91       		.byte	0x91
 1647 0858 74       		.sleb128 -12
 1648 0859 00       		.byte	0
 1649 085a 00       		.byte	0
 1650 085b 1D       		.uleb128 0x1d
 1651 085c 42010000 		.4byte	.LASF134
 1652 0860 01       		.byte	0x1
 1653 0861 CA01     		.2byte	0x1ca
 1654 0863 00000000 		.4byte	.LFB117
 1655 0867 1A000000 		.4byte	.LFE117-.LFB117
 1656 086b 01       		.uleb128 0x1
 1657 086c 9C       		.byte	0x9c
 1658 086d 8B080000 		.4byte	0x88b
 1659 0871 1E       		.uleb128 0x1e
 1660 0872 11080000 		.4byte	0x811
 1661 0876 0A000000 		.4byte	.LBB8
 1662 087a 06000000 		.4byte	.LBE8-.LBB8
 1663 087e 01       		.byte	0x1
 1664 087f CD01     		.2byte	0x1cd
 1665 0881 1F       		.uleb128 0x1f
 1666 0882 1E080000 		.4byte	0x81e
 1667 0886 02       		.uleb128 0x2
 1668 0887 91       		.byte	0x91
 1669 0888 74       		.sleb128 -12
 1670 0889 00       		.byte	0
 1671 088a 00       		.byte	0
 1672 088b 20       		.uleb128 0x20
 1673 088c 7F040000 		.4byte	.LASF153
 1674 0890 03       		.byte	0x3
 1675 0891 5A01     		.2byte	0x15a
 1676 0893 00000000 		.4byte	.LFB156
 1677 0897 12000000 		.4byte	.LFE156-.LFB156
 1678 089b 01       		.uleb128 0x1
 1679 089c 9C       		.byte	0x9c
 1680 089d 21       		.uleb128 0x21
 1681 089e F9060000 		.4byte	.LASF135
 1682 08a2 03       		.byte	0x3
 1683 08a3 6601     		.2byte	0x166
 1684 08a5 00000000 		.4byte	.LFB157
 1685 08a9 3C000000 		.4byte	.LFE157-.LFB157
ARM GAS  C:\Users\Luis\AppData\Local\Temp\ccgEIuaR.s 			page 31


 1686 08ad 01       		.uleb128 0x1
 1687 08ae 9C       		.byte	0x9c
 1688 08af C3080000 		.4byte	0x8c3
 1689 08b3 22       		.uleb128 0x22
 1690 08b4 6E040000 		.4byte	.LASF140
 1691 08b8 D3080000 		.4byte	0x8d3
 1692 08bc 05       		.uleb128 0x5
 1693 08bd 03       		.byte	0x3
 1694 08be 00000000 		.4byte	__func__.5842
 1695 08c2 00       		.byte	0
 1696 08c3 15       		.uleb128 0x15
 1697 08c4 61070000 		.4byte	0x761
 1698 08c8 D3080000 		.4byte	0x8d3
 1699 08cc 16       		.uleb128 0x16
 1700 08cd 95040000 		.4byte	0x495
 1701 08d1 0B       		.byte	0xb
 1702 08d2 00       		.byte	0
 1703 08d3 19       		.uleb128 0x19
 1704 08d4 C3080000 		.4byte	0x8c3
 1705 08d8 23       		.uleb128 0x23
 1706 08d9 EA020000 		.4byte	.LASF136
 1707 08dd 04       		.byte	0x4
 1708 08de 89       		.byte	0x89
 1709 08df 00000000 		.4byte	.LFB217
 1710 08e3 18000000 		.4byte	.LFE217-.LFB217
 1711 08e7 01       		.uleb128 0x1
 1712 08e8 9C       		.byte	0x9c
 1713 08e9 09090000 		.4byte	0x909
 1714 08ed 24       		.uleb128 0x24
 1715 08ee 6D7000   		.ascii	"mp\000"
 1716 08f1 04       		.byte	0x4
 1717 08f2 89       		.byte	0x89
 1718 08f3 09090000 		.4byte	0x909
 1719 08f7 02       		.uleb128 0x2
 1720 08f8 91       		.byte	0x91
 1721 08f9 74       		.sleb128 -12
 1722 08fa 25       		.uleb128 0x25
 1723 08fb 89040000 		.4byte	.LASF137
 1724 08ff 04       		.byte	0x4
 1725 0900 89       		.byte	0x89
 1726 0901 26030000 		.4byte	0x326
 1727 0905 02       		.uleb128 0x2
 1728 0906 91       		.byte	0x91
 1729 0907 70       		.sleb128 -16
 1730 0908 00       		.byte	0
 1731 0909 0A       		.uleb128 0xa
 1732 090a 04       		.byte	0x4
 1733 090b 06080000 		.4byte	0x806
 1734 090f 26       		.uleb128 0x26
 1735 0910 FC020000 		.4byte	.LASF141
 1736 0914 05       		.byte	0x5
 1737 0915 4B       		.byte	0x4b
 1738 0916 00000000 		.4byte	.LFB229
 1739 091a 3C000000 		.4byte	.LFE229-.LFB229
 1740 091e 01       		.uleb128 0x1
 1741 091f 9C       		.byte	0x9c
 1742 0920 5D090000 		.4byte	0x95d
ARM GAS  C:\Users\Luis\AppData\Local\Temp\ccgEIuaR.s 			page 32


 1743 0924 24       		.uleb128 0x24
 1744 0925 6D7000   		.ascii	"mp\000"
 1745 0928 05       		.byte	0x5
 1746 0929 4B       		.byte	0x4b
 1747 092a 09090000 		.4byte	0x909
 1748 092e 02       		.uleb128 0x2
 1749 092f 91       		.byte	0x91
 1750 0930 74       		.sleb128 -12
 1751 0931 25       		.uleb128 0x25
 1752 0932 D0060000 		.4byte	.LASF138
 1753 0936 05       		.byte	0x5
 1754 0937 4B       		.byte	0x4b
 1755 0938 2C000000 		.4byte	0x2c
 1756 093c 02       		.uleb128 0x2
 1757 093d 91       		.byte	0x91
 1758 093e 70       		.sleb128 -16
 1759 093f 25       		.uleb128 0x25
 1760 0940 6C000000 		.4byte	.LASF139
 1761 0944 05       		.byte	0x5
 1762 0945 4B       		.byte	0x4b
 1763 0946 9A070000 		.4byte	0x79a
 1764 094a 02       		.uleb128 0x2
 1765 094b 91       		.byte	0x91
 1766 094c 6C       		.sleb128 -20
 1767 094d 22       		.uleb128 0x22
 1768 094e 6E040000 		.4byte	.LASF140
 1769 0952 6D090000 		.4byte	0x96d
 1770 0956 05       		.uleb128 0x5
 1771 0957 03       		.byte	0x3
 1772 0958 00000000 		.4byte	__func__.6539
 1773 095c 00       		.byte	0
 1774 095d 15       		.uleb128 0x15
 1775 095e 61070000 		.4byte	0x761
 1776 0962 6D090000 		.4byte	0x96d
 1777 0966 16       		.uleb128 0x16
 1778 0967 95040000 		.4byte	0x495
 1779 096b 10       		.byte	0x10
 1780 096c 00       		.byte	0
 1781 096d 19       		.uleb128 0x19
 1782 096e 5D090000 		.4byte	0x95d
 1783 0972 26       		.uleb128 0x26
 1784 0973 05070000 		.4byte	.LASF142
 1785 0977 05       		.byte	0x5
 1786 0978 61       		.byte	0x61
 1787 0979 00000000 		.4byte	.LFB230
 1788 097d 4C000000 		.4byte	.LFE230-.LFB230
 1789 0981 01       		.uleb128 0x1
 1790 0982 9C       		.byte	0x9c
 1791 0983 BC090000 		.4byte	0x9bc
 1792 0987 24       		.uleb128 0x24
 1793 0988 6D7000   		.ascii	"mp\000"
 1794 098b 05       		.byte	0x5
 1795 098c 61       		.byte	0x61
 1796 098d 09090000 		.4byte	0x909
 1797 0991 02       		.uleb128 0x2
 1798 0992 91       		.byte	0x91
 1799 0993 74       		.sleb128 -12
ARM GAS  C:\Users\Luis\AppData\Local\Temp\ccgEIuaR.s 			page 33


 1800 0994 24       		.uleb128 0x24
 1801 0995 7000     		.ascii	"p\000"
 1802 0997 05       		.byte	0x5
 1803 0998 61       		.byte	0x61
 1804 0999 26030000 		.4byte	0x326
 1805 099d 02       		.uleb128 0x2
 1806 099e 91       		.byte	0x91
 1807 099f 70       		.sleb128 -16
 1808 09a0 24       		.uleb128 0x24
 1809 09a1 6E00     		.ascii	"n\000"
 1810 09a3 05       		.byte	0x5
 1811 09a4 61       		.byte	0x61
 1812 09a5 2C000000 		.4byte	0x2c
 1813 09a9 02       		.uleb128 0x2
 1814 09aa 91       		.byte	0x91
 1815 09ab 6C       		.sleb128 -20
 1816 09ac 22       		.uleb128 0x22
 1817 09ad 6E040000 		.4byte	.LASF140
 1818 09b1 CC090000 		.4byte	0x9cc
 1819 09b5 05       		.uleb128 0x5
 1820 09b6 03       		.byte	0x3
 1821 09b7 00000000 		.4byte	__func__.6545
 1822 09bb 00       		.byte	0
 1823 09bc 15       		.uleb128 0x15
 1824 09bd 61070000 		.4byte	0x761
 1825 09c1 CC090000 		.4byte	0x9cc
 1826 09c5 16       		.uleb128 0x16
 1827 09c6 95040000 		.4byte	0x495
 1828 09ca 0F       		.byte	0xf
 1829 09cb 00       		.byte	0
 1830 09cc 19       		.uleb128 0x19
 1831 09cd BC090000 		.4byte	0x9bc
 1832 09d1 27       		.uleb128 0x27
 1833 09d2 7A030000 		.4byte	.LASF143
 1834 09d6 05       		.byte	0x5
 1835 09d7 78       		.byte	0x78
 1836 09d8 26030000 		.4byte	0x326
 1837 09dc 00000000 		.4byte	.LFB231
 1838 09e0 54000000 		.4byte	.LFE231-.LFB231
 1839 09e4 01       		.uleb128 0x1
 1840 09e5 9C       		.byte	0x9c
 1841 09e6 150A0000 		.4byte	0xa15
 1842 09ea 24       		.uleb128 0x24
 1843 09eb 6D7000   		.ascii	"mp\000"
 1844 09ee 05       		.byte	0x5
 1845 09ef 78       		.byte	0x78
 1846 09f0 09090000 		.4byte	0x909
 1847 09f4 02       		.uleb128 0x2
 1848 09f5 91       		.byte	0x91
 1849 09f6 6C       		.sleb128 -20
 1850 09f7 28       		.uleb128 0x28
 1851 09f8 89040000 		.4byte	.LASF137
 1852 09fc 05       		.byte	0x5
 1853 09fd 79       		.byte	0x79
 1854 09fe 26030000 		.4byte	0x326
 1855 0a02 02       		.uleb128 0x2
 1856 0a03 91       		.byte	0x91
ARM GAS  C:\Users\Luis\AppData\Local\Temp\ccgEIuaR.s 			page 34


 1857 0a04 74       		.sleb128 -12
 1858 0a05 22       		.uleb128 0x22
 1859 0a06 6E040000 		.4byte	.LASF140
 1860 0a0a 250A0000 		.4byte	0xa25
 1861 0a0e 05       		.uleb128 0x5
 1862 0a0f 03       		.byte	0x3
 1863 0a10 00000000 		.4byte	__func__.6553
 1864 0a14 00       		.byte	0
 1865 0a15 15       		.uleb128 0x15
 1866 0a16 61070000 		.4byte	0x761
 1867 0a1a 250A0000 		.4byte	0xa25
 1868 0a1e 16       		.uleb128 0x16
 1869 0a1f 95040000 		.4byte	0x495
 1870 0a23 0C       		.byte	0xc
 1871 0a24 00       		.byte	0
 1872 0a25 19       		.uleb128 0x19
 1873 0a26 150A0000 		.4byte	0xa15
 1874 0a2a 27       		.uleb128 0x27
 1875 0a2b A3060000 		.4byte	.LASF144
 1876 0a2f 05       		.byte	0x5
 1877 0a30 95       		.byte	0x95
 1878 0a31 26030000 		.4byte	0x326
 1879 0a35 00000000 		.4byte	.LFB232
 1880 0a39 22000000 		.4byte	.LFE232-.LFB232
 1881 0a3d 01       		.uleb128 0x1
 1882 0a3e 9C       		.byte	0x9c
 1883 0a3f 5F0A0000 		.4byte	0xa5f
 1884 0a43 24       		.uleb128 0x24
 1885 0a44 6D7000   		.ascii	"mp\000"
 1886 0a47 05       		.byte	0x5
 1887 0a48 95       		.byte	0x95
 1888 0a49 09090000 		.4byte	0x909
 1889 0a4d 02       		.uleb128 0x2
 1890 0a4e 91       		.byte	0x91
 1891 0a4f 6C       		.sleb128 -20
 1892 0a50 28       		.uleb128 0x28
 1893 0a51 89040000 		.4byte	.LASF137
 1894 0a55 05       		.byte	0x5
 1895 0a56 96       		.byte	0x96
 1896 0a57 26030000 		.4byte	0x326
 1897 0a5b 02       		.uleb128 0x2
 1898 0a5c 91       		.byte	0x91
 1899 0a5d 74       		.sleb128 -12
 1900 0a5e 00       		.byte	0
 1901 0a5f 26       		.uleb128 0x26
 1902 0a60 FF040000 		.4byte	.LASF145
 1903 0a64 05       		.byte	0x5
 1904 0a65 AB       		.byte	0xab
 1905 0a66 00000000 		.4byte	.LFB233
 1906 0a6a 3C000000 		.4byte	.LFE233-.LFB233
 1907 0a6e 01       		.uleb128 0x1
 1908 0a6f 9C       		.byte	0x9c
 1909 0a70 AD0A0000 		.4byte	0xaad
 1910 0a74 24       		.uleb128 0x24
 1911 0a75 6D7000   		.ascii	"mp\000"
 1912 0a78 05       		.byte	0x5
 1913 0a79 AB       		.byte	0xab
ARM GAS  C:\Users\Luis\AppData\Local\Temp\ccgEIuaR.s 			page 35


 1914 0a7a 09090000 		.4byte	0x909
 1915 0a7e 02       		.uleb128 0x2
 1916 0a7f 91       		.byte	0x91
 1917 0a80 6C       		.sleb128 -20
 1918 0a81 25       		.uleb128 0x25
 1919 0a82 89040000 		.4byte	.LASF137
 1920 0a86 05       		.byte	0x5
 1921 0a87 AB       		.byte	0xab
 1922 0a88 26030000 		.4byte	0x326
 1923 0a8c 02       		.uleb128 0x2
 1924 0a8d 91       		.byte	0x91
 1925 0a8e 68       		.sleb128 -24
 1926 0a8f 29       		.uleb128 0x29
 1927 0a90 70687000 		.ascii	"php\000"
 1928 0a94 05       		.byte	0x5
 1929 0a95 AC       		.byte	0xac
 1930 0a96 D3070000 		.4byte	0x7d3
 1931 0a9a 02       		.uleb128 0x2
 1932 0a9b 91       		.byte	0x91
 1933 0a9c 74       		.sleb128 -12
 1934 0a9d 22       		.uleb128 0x22
 1935 0a9e 6E040000 		.4byte	.LASF140
 1936 0aa2 AD0A0000 		.4byte	0xaad
 1937 0aa6 05       		.uleb128 0x5
 1938 0aa7 03       		.byte	0x3
 1939 0aa8 00000000 		.4byte	__func__.6563
 1940 0aac 00       		.byte	0
 1941 0aad 19       		.uleb128 0x19
 1942 0aae C3080000 		.4byte	0x8c3
 1943 0ab2 26       		.uleb128 0x26
 1944 0ab3 AF060000 		.4byte	.LASF146
 1945 0ab7 05       		.byte	0x5
 1946 0ab8 C1       		.byte	0xc1
 1947 0ab9 00000000 		.4byte	.LFB234
 1948 0abd 20000000 		.4byte	.LFE234-.LFB234
 1949 0ac1 01       		.uleb128 0x1
 1950 0ac2 9C       		.byte	0x9c
 1951 0ac3 E30A0000 		.4byte	0xae3
 1952 0ac7 24       		.uleb128 0x24
 1953 0ac8 6D7000   		.ascii	"mp\000"
 1954 0acb 05       		.byte	0x5
 1955 0acc C1       		.byte	0xc1
 1956 0acd 09090000 		.4byte	0x909
 1957 0ad1 02       		.uleb128 0x2
 1958 0ad2 91       		.byte	0x91
 1959 0ad3 74       		.sleb128 -12
 1960 0ad4 25       		.uleb128 0x25
 1961 0ad5 89040000 		.4byte	.LASF137
 1962 0ad9 05       		.byte	0x5
 1963 0ada C1       		.byte	0xc1
 1964 0adb 26030000 		.4byte	0x326
 1965 0adf 02       		.uleb128 0x2
 1966 0ae0 91       		.byte	0x91
 1967 0ae1 70       		.sleb128 -16
 1968 0ae2 00       		.byte	0
 1969 0ae3 2A       		.uleb128 0x2a
 1970 0ae4 F4000000 		.4byte	.LASF147
ARM GAS  C:\Users\Luis\AppData\Local\Temp\ccgEIuaR.s 			page 36


 1971 0ae8 12       		.byte	0x12
 1972 0ae9 A706     		.2byte	0x6a7
 1973 0aeb A2000000 		.4byte	0xa2
 1974 0aef 2B       		.uleb128 0x2b
 1975 0af0 636800   		.ascii	"ch\000"
 1976 0af3 0A       		.byte	0xa
 1977 0af4 0902     		.2byte	0x209
 1978 0af6 1D040000 		.4byte	0x41d
 1979 0afa 00       		.byte	0
 1980              		.section	.debug_abbrev,"",%progbits
 1981              	.Ldebug_abbrev0:
 1982 0000 01       		.uleb128 0x1
 1983 0001 11       		.uleb128 0x11
 1984 0002 01       		.byte	0x1
 1985 0003 25       		.uleb128 0x25
 1986 0004 0E       		.uleb128 0xe
 1987 0005 13       		.uleb128 0x13
 1988 0006 0B       		.uleb128 0xb
 1989 0007 03       		.uleb128 0x3
 1990 0008 0E       		.uleb128 0xe
 1991 0009 1B       		.uleb128 0x1b
 1992 000a 0E       		.uleb128 0xe
 1993 000b 55       		.uleb128 0x55
 1994 000c 17       		.uleb128 0x17
 1995 000d 11       		.uleb128 0x11
 1996 000e 01       		.uleb128 0x1
 1997 000f 10       		.uleb128 0x10
 1998 0010 17       		.uleb128 0x17
 1999 0011 00       		.byte	0
 2000 0012 00       		.byte	0
 2001 0013 02       		.uleb128 0x2
 2002 0014 24       		.uleb128 0x24
 2003 0015 00       		.byte	0
 2004 0016 0B       		.uleb128 0xb
 2005 0017 0B       		.uleb128 0xb
 2006 0018 3E       		.uleb128 0x3e
 2007 0019 0B       		.uleb128 0xb
 2008 001a 03       		.uleb128 0x3
 2009 001b 08       		.uleb128 0x8
 2010 001c 00       		.byte	0
 2011 001d 00       		.byte	0
 2012 001e 03       		.uleb128 0x3
 2013 001f 16       		.uleb128 0x16
 2014 0020 00       		.byte	0
 2015 0021 03       		.uleb128 0x3
 2016 0022 0E       		.uleb128 0xe
 2017 0023 3A       		.uleb128 0x3a
 2018 0024 0B       		.uleb128 0xb
 2019 0025 3B       		.uleb128 0x3b
 2020 0026 0B       		.uleb128 0xb
 2021 0027 49       		.uleb128 0x49
 2022 0028 13       		.uleb128 0x13
 2023 0029 00       		.byte	0
 2024 002a 00       		.byte	0
 2025 002b 04       		.uleb128 0x4
 2026 002c 24       		.uleb128 0x24
 2027 002d 00       		.byte	0
ARM GAS  C:\Users\Luis\AppData\Local\Temp\ccgEIuaR.s 			page 37


 2028 002e 0B       		.uleb128 0xb
 2029 002f 0B       		.uleb128 0xb
 2030 0030 3E       		.uleb128 0x3e
 2031 0031 0B       		.uleb128 0xb
 2032 0032 03       		.uleb128 0x3
 2033 0033 0E       		.uleb128 0xe
 2034 0034 00       		.byte	0
 2035 0035 00       		.byte	0
 2036 0036 05       		.uleb128 0x5
 2037 0037 35       		.uleb128 0x35
 2038 0038 00       		.byte	0
 2039 0039 49       		.uleb128 0x49
 2040 003a 13       		.uleb128 0x13
 2041 003b 00       		.byte	0
 2042 003c 00       		.byte	0
 2043 003d 06       		.uleb128 0x6
 2044 003e 13       		.uleb128 0x13
 2045 003f 01       		.byte	0x1
 2046 0040 03       		.uleb128 0x3
 2047 0041 0E       		.uleb128 0xe
 2048 0042 0B       		.uleb128 0xb
 2049 0043 0B       		.uleb128 0xb
 2050 0044 3A       		.uleb128 0x3a
 2051 0045 0B       		.uleb128 0xb
 2052 0046 3B       		.uleb128 0x3b
 2053 0047 0B       		.uleb128 0xb
 2054 0048 01       		.uleb128 0x1
 2055 0049 13       		.uleb128 0x13
 2056 004a 00       		.byte	0
 2057 004b 00       		.byte	0
 2058 004c 07       		.uleb128 0x7
 2059 004d 0D       		.uleb128 0xd
 2060 004e 00       		.byte	0
 2061 004f 03       		.uleb128 0x3
 2062 0050 0E       		.uleb128 0xe
 2063 0051 3A       		.uleb128 0x3a
 2064 0052 0B       		.uleb128 0xb
 2065 0053 3B       		.uleb128 0x3b
 2066 0054 0B       		.uleb128 0xb
 2067 0055 49       		.uleb128 0x49
 2068 0056 13       		.uleb128 0x13
 2069 0057 38       		.uleb128 0x38
 2070 0058 0B       		.uleb128 0xb
 2071 0059 00       		.byte	0
 2072 005a 00       		.byte	0
 2073 005b 08       		.uleb128 0x8
 2074 005c 0D       		.uleb128 0xd
 2075 005d 00       		.byte	0
 2076 005e 03       		.uleb128 0x3
 2077 005f 08       		.uleb128 0x8
 2078 0060 3A       		.uleb128 0x3a
 2079 0061 0B       		.uleb128 0xb
 2080 0062 3B       		.uleb128 0x3b
 2081 0063 05       		.uleb128 0x5
 2082 0064 49       		.uleb128 0x49
 2083 0065 13       		.uleb128 0x13
 2084 0066 38       		.uleb128 0x38
ARM GAS  C:\Users\Luis\AppData\Local\Temp\ccgEIuaR.s 			page 38


 2085 0067 0B       		.uleb128 0xb
 2086 0068 00       		.byte	0
 2087 0069 00       		.byte	0
 2088 006a 09       		.uleb128 0x9
 2089 006b 0D       		.uleb128 0xd
 2090 006c 00       		.byte	0
 2091 006d 03       		.uleb128 0x3
 2092 006e 0E       		.uleb128 0xe
 2093 006f 3A       		.uleb128 0x3a
 2094 0070 0B       		.uleb128 0xb
 2095 0071 3B       		.uleb128 0x3b
 2096 0072 05       		.uleb128 0x5
 2097 0073 49       		.uleb128 0x49
 2098 0074 13       		.uleb128 0x13
 2099 0075 38       		.uleb128 0x38
 2100 0076 0B       		.uleb128 0xb
 2101 0077 00       		.byte	0
 2102 0078 00       		.byte	0
 2103 0079 0A       		.uleb128 0xa
 2104 007a 0F       		.uleb128 0xf
 2105 007b 00       		.byte	0
 2106 007c 0B       		.uleb128 0xb
 2107 007d 0B       		.uleb128 0xb
 2108 007e 49       		.uleb128 0x49
 2109 007f 13       		.uleb128 0x13
 2110 0080 00       		.byte	0
 2111 0081 00       		.byte	0
 2112 0082 0B       		.uleb128 0xb
 2113 0083 13       		.uleb128 0x13
 2114 0084 01       		.byte	0x1
 2115 0085 03       		.uleb128 0x3
 2116 0086 0E       		.uleb128 0xe
 2117 0087 0B       		.uleb128 0xb
 2118 0088 0B       		.uleb128 0xb
 2119 0089 3A       		.uleb128 0x3a
 2120 008a 0B       		.uleb128 0xb
 2121 008b 3B       		.uleb128 0x3b
 2122 008c 05       		.uleb128 0x5
 2123 008d 01       		.uleb128 0x1
 2124 008e 13       		.uleb128 0x13
 2125 008f 00       		.byte	0
 2126 0090 00       		.byte	0
 2127 0091 0C       		.uleb128 0xc
 2128 0092 15       		.uleb128 0x15
 2129 0093 01       		.byte	0x1
 2130 0094 27       		.uleb128 0x27
 2131 0095 19       		.uleb128 0x19
 2132 0096 01       		.uleb128 0x1
 2133 0097 13       		.uleb128 0x13
 2134 0098 00       		.byte	0
 2135 0099 00       		.byte	0
 2136 009a 0D       		.uleb128 0xd
 2137 009b 05       		.uleb128 0x5
 2138 009c 00       		.byte	0
 2139 009d 49       		.uleb128 0x49
 2140 009e 13       		.uleb128 0x13
 2141 009f 00       		.byte	0
ARM GAS  C:\Users\Luis\AppData\Local\Temp\ccgEIuaR.s 			page 39


 2142 00a0 00       		.byte	0
 2143 00a1 0E       		.uleb128 0xe
 2144 00a2 0F       		.uleb128 0xf
 2145 00a3 00       		.byte	0
 2146 00a4 0B       		.uleb128 0xb
 2147 00a5 0B       		.uleb128 0xb
 2148 00a6 00       		.byte	0
 2149 00a7 00       		.byte	0
 2150 00a8 0F       		.uleb128 0xf
 2151 00a9 13       		.uleb128 0x13
 2152 00aa 01       		.byte	0x1
 2153 00ab 03       		.uleb128 0x3
 2154 00ac 0E       		.uleb128 0xe
 2155 00ad 0B       		.uleb128 0xb
 2156 00ae 05       		.uleb128 0x5
 2157 00af 3A       		.uleb128 0x3a
 2158 00b0 0B       		.uleb128 0xb
 2159 00b1 3B       		.uleb128 0x3b
 2160 00b2 05       		.uleb128 0x5
 2161 00b3 01       		.uleb128 0x1
 2162 00b4 13       		.uleb128 0x13
 2163 00b5 00       		.byte	0
 2164 00b6 00       		.byte	0
 2165 00b7 10       		.uleb128 0x10
 2166 00b8 0D       		.uleb128 0xd
 2167 00b9 00       		.byte	0
 2168 00ba 03       		.uleb128 0x3
 2169 00bb 0E       		.uleb128 0xe
 2170 00bc 3A       		.uleb128 0x3a
 2171 00bd 0B       		.uleb128 0xb
 2172 00be 3B       		.uleb128 0x3b
 2173 00bf 05       		.uleb128 0x5
 2174 00c0 49       		.uleb128 0x49
 2175 00c1 13       		.uleb128 0x13
 2176 00c2 38       		.uleb128 0x38
 2177 00c3 05       		.uleb128 0x5
 2178 00c4 00       		.byte	0
 2179 00c5 00       		.byte	0
 2180 00c6 11       		.uleb128 0x11
 2181 00c7 0D       		.uleb128 0xd
 2182 00c8 00       		.byte	0
 2183 00c9 03       		.uleb128 0x3
 2184 00ca 08       		.uleb128 0x8
 2185 00cb 3A       		.uleb128 0x3a
 2186 00cc 0B       		.uleb128 0xb
 2187 00cd 3B       		.uleb128 0x3b
 2188 00ce 05       		.uleb128 0x5
 2189 00cf 49       		.uleb128 0x49
 2190 00d0 13       		.uleb128 0x13
 2191 00d1 38       		.uleb128 0x38
 2192 00d2 05       		.uleb128 0x5
 2193 00d3 00       		.byte	0
 2194 00d4 00       		.byte	0
 2195 00d5 12       		.uleb128 0x12
 2196 00d6 0D       		.uleb128 0xd
 2197 00d7 00       		.byte	0
 2198 00d8 03       		.uleb128 0x3
ARM GAS  C:\Users\Luis\AppData\Local\Temp\ccgEIuaR.s 			page 40


 2199 00d9 08       		.uleb128 0x8
 2200 00da 3A       		.uleb128 0x3a
 2201 00db 0B       		.uleb128 0xb
 2202 00dc 3B       		.uleb128 0x3b
 2203 00dd 0B       		.uleb128 0xb
 2204 00de 49       		.uleb128 0x49
 2205 00df 13       		.uleb128 0x13
 2206 00e0 38       		.uleb128 0x38
 2207 00e1 0B       		.uleb128 0xb
 2208 00e2 00       		.byte	0
 2209 00e3 00       		.byte	0
 2210 00e4 13       		.uleb128 0x13
 2211 00e5 13       		.uleb128 0x13
 2212 00e6 01       		.byte	0x1
 2213 00e7 0B       		.uleb128 0xb
 2214 00e8 0B       		.uleb128 0xb
 2215 00e9 3A       		.uleb128 0x3a
 2216 00ea 0B       		.uleb128 0xb
 2217 00eb 3B       		.uleb128 0x3b
 2218 00ec 0B       		.uleb128 0xb
 2219 00ed 01       		.uleb128 0x1
 2220 00ee 13       		.uleb128 0x13
 2221 00ef 00       		.byte	0
 2222 00f0 00       		.byte	0
 2223 00f1 14       		.uleb128 0x14
 2224 00f2 13       		.uleb128 0x13
 2225 00f3 01       		.byte	0x1
 2226 00f4 0B       		.uleb128 0xb
 2227 00f5 05       		.uleb128 0x5
 2228 00f6 3A       		.uleb128 0x3a
 2229 00f7 0B       		.uleb128 0xb
 2230 00f8 3B       		.uleb128 0x3b
 2231 00f9 0B       		.uleb128 0xb
 2232 00fa 01       		.uleb128 0x1
 2233 00fb 13       		.uleb128 0x13
 2234 00fc 00       		.byte	0
 2235 00fd 00       		.byte	0
 2236 00fe 15       		.uleb128 0x15
 2237 00ff 01       		.uleb128 0x1
 2238 0100 01       		.byte	0x1
 2239 0101 49       		.uleb128 0x49
 2240 0102 13       		.uleb128 0x13
 2241 0103 01       		.uleb128 0x1
 2242 0104 13       		.uleb128 0x13
 2243 0105 00       		.byte	0
 2244 0106 00       		.byte	0
 2245 0107 16       		.uleb128 0x16
 2246 0108 21       		.uleb128 0x21
 2247 0109 00       		.byte	0
 2248 010a 49       		.uleb128 0x49
 2249 010b 13       		.uleb128 0x13
 2250 010c 2F       		.uleb128 0x2f
 2251 010d 0B       		.uleb128 0xb
 2252 010e 00       		.byte	0
 2253 010f 00       		.byte	0
 2254 0110 17       		.uleb128 0x17
 2255 0111 17       		.uleb128 0x17
ARM GAS  C:\Users\Luis\AppData\Local\Temp\ccgEIuaR.s 			page 41


 2256 0112 01       		.byte	0x1
 2257 0113 0B       		.uleb128 0xb
 2258 0114 0B       		.uleb128 0xb
 2259 0115 3A       		.uleb128 0x3a
 2260 0116 0B       		.uleb128 0xb
 2261 0117 3B       		.uleb128 0x3b
 2262 0118 0B       		.uleb128 0xb
 2263 0119 01       		.uleb128 0x1
 2264 011a 13       		.uleb128 0x13
 2265 011b 00       		.byte	0
 2266 011c 00       		.byte	0
 2267 011d 18       		.uleb128 0x18
 2268 011e 0D       		.uleb128 0xd
 2269 011f 00       		.byte	0
 2270 0120 03       		.uleb128 0x3
 2271 0121 0E       		.uleb128 0xe
 2272 0122 3A       		.uleb128 0x3a
 2273 0123 0B       		.uleb128 0xb
 2274 0124 3B       		.uleb128 0x3b
 2275 0125 05       		.uleb128 0x5
 2276 0126 49       		.uleb128 0x49
 2277 0127 13       		.uleb128 0x13
 2278 0128 00       		.byte	0
 2279 0129 00       		.byte	0
 2280 012a 19       		.uleb128 0x19
 2281 012b 26       		.uleb128 0x26
 2282 012c 00       		.byte	0
 2283 012d 49       		.uleb128 0x49
 2284 012e 13       		.uleb128 0x13
 2285 012f 00       		.byte	0
 2286 0130 00       		.byte	0
 2287 0131 1A       		.uleb128 0x1a
 2288 0132 15       		.uleb128 0x15
 2289 0133 01       		.byte	0x1
 2290 0134 27       		.uleb128 0x27
 2291 0135 19       		.uleb128 0x19
 2292 0136 49       		.uleb128 0x49
 2293 0137 13       		.uleb128 0x13
 2294 0138 01       		.uleb128 0x1
 2295 0139 13       		.uleb128 0x13
 2296 013a 00       		.byte	0
 2297 013b 00       		.byte	0
 2298 013c 1B       		.uleb128 0x1b
 2299 013d 2E       		.uleb128 0x2e
 2300 013e 01       		.byte	0x1
 2301 013f 03       		.uleb128 0x3
 2302 0140 0E       		.uleb128 0xe
 2303 0141 3A       		.uleb128 0x3a
 2304 0142 0B       		.uleb128 0xb
 2305 0143 3B       		.uleb128 0x3b
 2306 0144 05       		.uleb128 0x5
 2307 0145 27       		.uleb128 0x27
 2308 0146 19       		.uleb128 0x19
 2309 0147 20       		.uleb128 0x20
 2310 0148 0B       		.uleb128 0xb
 2311 0149 01       		.uleb128 0x1
 2312 014a 13       		.uleb128 0x13
ARM GAS  C:\Users\Luis\AppData\Local\Temp\ccgEIuaR.s 			page 42


 2313 014b 00       		.byte	0
 2314 014c 00       		.byte	0
 2315 014d 1C       		.uleb128 0x1c
 2316 014e 05       		.uleb128 0x5
 2317 014f 00       		.byte	0
 2318 0150 03       		.uleb128 0x3
 2319 0151 0E       		.uleb128 0xe
 2320 0152 3A       		.uleb128 0x3a
 2321 0153 0B       		.uleb128 0xb
 2322 0154 3B       		.uleb128 0x3b
 2323 0155 05       		.uleb128 0x5
 2324 0156 49       		.uleb128 0x49
 2325 0157 13       		.uleb128 0x13
 2326 0158 00       		.byte	0
 2327 0159 00       		.byte	0
 2328 015a 1D       		.uleb128 0x1d
 2329 015b 2E       		.uleb128 0x2e
 2330 015c 01       		.byte	0x1
 2331 015d 03       		.uleb128 0x3
 2332 015e 0E       		.uleb128 0xe
 2333 015f 3A       		.uleb128 0x3a
 2334 0160 0B       		.uleb128 0xb
 2335 0161 3B       		.uleb128 0x3b
 2336 0162 05       		.uleb128 0x5
 2337 0163 27       		.uleb128 0x27
 2338 0164 19       		.uleb128 0x19
 2339 0165 11       		.uleb128 0x11
 2340 0166 01       		.uleb128 0x1
 2341 0167 12       		.uleb128 0x12
 2342 0168 06       		.uleb128 0x6
 2343 0169 40       		.uleb128 0x40
 2344 016a 18       		.uleb128 0x18
 2345 016b 9742     		.uleb128 0x2117
 2346 016d 19       		.uleb128 0x19
 2347 016e 01       		.uleb128 0x1
 2348 016f 13       		.uleb128 0x13
 2349 0170 00       		.byte	0
 2350 0171 00       		.byte	0
 2351 0172 1E       		.uleb128 0x1e
 2352 0173 1D       		.uleb128 0x1d
 2353 0174 01       		.byte	0x1
 2354 0175 31       		.uleb128 0x31
 2355 0176 13       		.uleb128 0x13
 2356 0177 11       		.uleb128 0x11
 2357 0178 01       		.uleb128 0x1
 2358 0179 12       		.uleb128 0x12
 2359 017a 06       		.uleb128 0x6
 2360 017b 58       		.uleb128 0x58
 2361 017c 0B       		.uleb128 0xb
 2362 017d 59       		.uleb128 0x59
 2363 017e 05       		.uleb128 0x5
 2364 017f 00       		.byte	0
 2365 0180 00       		.byte	0
 2366 0181 1F       		.uleb128 0x1f
 2367 0182 05       		.uleb128 0x5
 2368 0183 00       		.byte	0
 2369 0184 31       		.uleb128 0x31
ARM GAS  C:\Users\Luis\AppData\Local\Temp\ccgEIuaR.s 			page 43


 2370 0185 13       		.uleb128 0x13
 2371 0186 02       		.uleb128 0x2
 2372 0187 18       		.uleb128 0x18
 2373 0188 00       		.byte	0
 2374 0189 00       		.byte	0
 2375 018a 20       		.uleb128 0x20
 2376 018b 2E       		.uleb128 0x2e
 2377 018c 00       		.byte	0
 2378 018d 03       		.uleb128 0x3
 2379 018e 0E       		.uleb128 0xe
 2380 018f 3A       		.uleb128 0x3a
 2381 0190 0B       		.uleb128 0xb
 2382 0191 3B       		.uleb128 0x3b
 2383 0192 05       		.uleb128 0x5
 2384 0193 27       		.uleb128 0x27
 2385 0194 19       		.uleb128 0x19
 2386 0195 11       		.uleb128 0x11
 2387 0196 01       		.uleb128 0x1
 2388 0197 12       		.uleb128 0x12
 2389 0198 06       		.uleb128 0x6
 2390 0199 40       		.uleb128 0x40
 2391 019a 18       		.uleb128 0x18
 2392 019b 9642     		.uleb128 0x2116
 2393 019d 19       		.uleb128 0x19
 2394 019e 00       		.byte	0
 2395 019f 00       		.byte	0
 2396 01a0 21       		.uleb128 0x21
 2397 01a1 2E       		.uleb128 0x2e
 2398 01a2 01       		.byte	0x1
 2399 01a3 03       		.uleb128 0x3
 2400 01a4 0E       		.uleb128 0xe
 2401 01a5 3A       		.uleb128 0x3a
 2402 01a6 0B       		.uleb128 0xb
 2403 01a7 3B       		.uleb128 0x3b
 2404 01a8 05       		.uleb128 0x5
 2405 01a9 27       		.uleb128 0x27
 2406 01aa 19       		.uleb128 0x19
 2407 01ab 11       		.uleb128 0x11
 2408 01ac 01       		.uleb128 0x1
 2409 01ad 12       		.uleb128 0x12
 2410 01ae 06       		.uleb128 0x6
 2411 01af 40       		.uleb128 0x40
 2412 01b0 18       		.uleb128 0x18
 2413 01b1 9642     		.uleb128 0x2116
 2414 01b3 19       		.uleb128 0x19
 2415 01b4 01       		.uleb128 0x1
 2416 01b5 13       		.uleb128 0x13
 2417 01b6 00       		.byte	0
 2418 01b7 00       		.byte	0
 2419 01b8 22       		.uleb128 0x22
 2420 01b9 34       		.uleb128 0x34
 2421 01ba 00       		.byte	0
 2422 01bb 03       		.uleb128 0x3
 2423 01bc 0E       		.uleb128 0xe
 2424 01bd 49       		.uleb128 0x49
 2425 01be 13       		.uleb128 0x13
 2426 01bf 34       		.uleb128 0x34
ARM GAS  C:\Users\Luis\AppData\Local\Temp\ccgEIuaR.s 			page 44


 2427 01c0 19       		.uleb128 0x19
 2428 01c1 02       		.uleb128 0x2
 2429 01c2 18       		.uleb128 0x18
 2430 01c3 00       		.byte	0
 2431 01c4 00       		.byte	0
 2432 01c5 23       		.uleb128 0x23
 2433 01c6 2E       		.uleb128 0x2e
 2434 01c7 01       		.byte	0x1
 2435 01c8 03       		.uleb128 0x3
 2436 01c9 0E       		.uleb128 0xe
 2437 01ca 3A       		.uleb128 0x3a
 2438 01cb 0B       		.uleb128 0xb
 2439 01cc 3B       		.uleb128 0x3b
 2440 01cd 0B       		.uleb128 0xb
 2441 01ce 27       		.uleb128 0x27
 2442 01cf 19       		.uleb128 0x19
 2443 01d0 11       		.uleb128 0x11
 2444 01d1 01       		.uleb128 0x1
 2445 01d2 12       		.uleb128 0x12
 2446 01d3 06       		.uleb128 0x6
 2447 01d4 40       		.uleb128 0x40
 2448 01d5 18       		.uleb128 0x18
 2449 01d6 9642     		.uleb128 0x2116
 2450 01d8 19       		.uleb128 0x19
 2451 01d9 01       		.uleb128 0x1
 2452 01da 13       		.uleb128 0x13
 2453 01db 00       		.byte	0
 2454 01dc 00       		.byte	0
 2455 01dd 24       		.uleb128 0x24
 2456 01de 05       		.uleb128 0x5
 2457 01df 00       		.byte	0
 2458 01e0 03       		.uleb128 0x3
 2459 01e1 08       		.uleb128 0x8
 2460 01e2 3A       		.uleb128 0x3a
 2461 01e3 0B       		.uleb128 0xb
 2462 01e4 3B       		.uleb128 0x3b
 2463 01e5 0B       		.uleb128 0xb
 2464 01e6 49       		.uleb128 0x49
 2465 01e7 13       		.uleb128 0x13
 2466 01e8 02       		.uleb128 0x2
 2467 01e9 18       		.uleb128 0x18
 2468 01ea 00       		.byte	0
 2469 01eb 00       		.byte	0
 2470 01ec 25       		.uleb128 0x25
 2471 01ed 05       		.uleb128 0x5
 2472 01ee 00       		.byte	0
 2473 01ef 03       		.uleb128 0x3
 2474 01f0 0E       		.uleb128 0xe
 2475 01f1 3A       		.uleb128 0x3a
 2476 01f2 0B       		.uleb128 0xb
 2477 01f3 3B       		.uleb128 0x3b
 2478 01f4 0B       		.uleb128 0xb
 2479 01f5 49       		.uleb128 0x49
 2480 01f6 13       		.uleb128 0x13
 2481 01f7 02       		.uleb128 0x2
 2482 01f8 18       		.uleb128 0x18
 2483 01f9 00       		.byte	0
ARM GAS  C:\Users\Luis\AppData\Local\Temp\ccgEIuaR.s 			page 45


 2484 01fa 00       		.byte	0
 2485 01fb 26       		.uleb128 0x26
 2486 01fc 2E       		.uleb128 0x2e
 2487 01fd 01       		.byte	0x1
 2488 01fe 3F       		.uleb128 0x3f
 2489 01ff 19       		.uleb128 0x19
 2490 0200 03       		.uleb128 0x3
 2491 0201 0E       		.uleb128 0xe
 2492 0202 3A       		.uleb128 0x3a
 2493 0203 0B       		.uleb128 0xb
 2494 0204 3B       		.uleb128 0x3b
 2495 0205 0B       		.uleb128 0xb
 2496 0206 27       		.uleb128 0x27
 2497 0207 19       		.uleb128 0x19
 2498 0208 11       		.uleb128 0x11
 2499 0209 01       		.uleb128 0x1
 2500 020a 12       		.uleb128 0x12
 2501 020b 06       		.uleb128 0x6
 2502 020c 40       		.uleb128 0x40
 2503 020d 18       		.uleb128 0x18
 2504 020e 9642     		.uleb128 0x2116
 2505 0210 19       		.uleb128 0x19
 2506 0211 01       		.uleb128 0x1
 2507 0212 13       		.uleb128 0x13
 2508 0213 00       		.byte	0
 2509 0214 00       		.byte	0
 2510 0215 27       		.uleb128 0x27
 2511 0216 2E       		.uleb128 0x2e
 2512 0217 01       		.byte	0x1
 2513 0218 3F       		.uleb128 0x3f
 2514 0219 19       		.uleb128 0x19
 2515 021a 03       		.uleb128 0x3
 2516 021b 0E       		.uleb128 0xe
 2517 021c 3A       		.uleb128 0x3a
 2518 021d 0B       		.uleb128 0xb
 2519 021e 3B       		.uleb128 0x3b
 2520 021f 0B       		.uleb128 0xb
 2521 0220 27       		.uleb128 0x27
 2522 0221 19       		.uleb128 0x19
 2523 0222 49       		.uleb128 0x49
 2524 0223 13       		.uleb128 0x13
 2525 0224 11       		.uleb128 0x11
 2526 0225 01       		.uleb128 0x1
 2527 0226 12       		.uleb128 0x12
 2528 0227 06       		.uleb128 0x6
 2529 0228 40       		.uleb128 0x40
 2530 0229 18       		.uleb128 0x18
 2531 022a 9642     		.uleb128 0x2116
 2532 022c 19       		.uleb128 0x19
 2533 022d 01       		.uleb128 0x1
 2534 022e 13       		.uleb128 0x13
 2535 022f 00       		.byte	0
 2536 0230 00       		.byte	0
 2537 0231 28       		.uleb128 0x28
 2538 0232 34       		.uleb128 0x34
 2539 0233 00       		.byte	0
 2540 0234 03       		.uleb128 0x3
ARM GAS  C:\Users\Luis\AppData\Local\Temp\ccgEIuaR.s 			page 46


 2541 0235 0E       		.uleb128 0xe
 2542 0236 3A       		.uleb128 0x3a
 2543 0237 0B       		.uleb128 0xb
 2544 0238 3B       		.uleb128 0x3b
 2545 0239 0B       		.uleb128 0xb
 2546 023a 49       		.uleb128 0x49
 2547 023b 13       		.uleb128 0x13
 2548 023c 02       		.uleb128 0x2
 2549 023d 18       		.uleb128 0x18
 2550 023e 00       		.byte	0
 2551 023f 00       		.byte	0
 2552 0240 29       		.uleb128 0x29
 2553 0241 34       		.uleb128 0x34
 2554 0242 00       		.byte	0
 2555 0243 03       		.uleb128 0x3
 2556 0244 08       		.uleb128 0x8
 2557 0245 3A       		.uleb128 0x3a
 2558 0246 0B       		.uleb128 0xb
 2559 0247 3B       		.uleb128 0x3b
 2560 0248 0B       		.uleb128 0xb
 2561 0249 49       		.uleb128 0x49
 2562 024a 13       		.uleb128 0x13
 2563 024b 02       		.uleb128 0x2
 2564 024c 18       		.uleb128 0x18
 2565 024d 00       		.byte	0
 2566 024e 00       		.byte	0
 2567 024f 2A       		.uleb128 0x2a
 2568 0250 34       		.uleb128 0x34
 2569 0251 00       		.byte	0
 2570 0252 03       		.uleb128 0x3
 2571 0253 0E       		.uleb128 0xe
 2572 0254 3A       		.uleb128 0x3a
 2573 0255 0B       		.uleb128 0xb
 2574 0256 3B       		.uleb128 0x3b
 2575 0257 05       		.uleb128 0x5
 2576 0258 49       		.uleb128 0x49
 2577 0259 13       		.uleb128 0x13
 2578 025a 3F       		.uleb128 0x3f
 2579 025b 19       		.uleb128 0x19
 2580 025c 3C       		.uleb128 0x3c
 2581 025d 19       		.uleb128 0x19
 2582 025e 00       		.byte	0
 2583 025f 00       		.byte	0
 2584 0260 2B       		.uleb128 0x2b
 2585 0261 34       		.uleb128 0x34
 2586 0262 00       		.byte	0
 2587 0263 03       		.uleb128 0x3
 2588 0264 08       		.uleb128 0x8
 2589 0265 3A       		.uleb128 0x3a
 2590 0266 0B       		.uleb128 0xb
 2591 0267 3B       		.uleb128 0x3b
 2592 0268 05       		.uleb128 0x5
 2593 0269 49       		.uleb128 0x49
 2594 026a 13       		.uleb128 0x13
 2595 026b 3F       		.uleb128 0x3f
 2596 026c 19       		.uleb128 0x19
 2597 026d 3C       		.uleb128 0x3c
ARM GAS  C:\Users\Luis\AppData\Local\Temp\ccgEIuaR.s 			page 47


 2598 026e 19       		.uleb128 0x19
 2599 026f 00       		.byte	0
 2600 0270 00       		.byte	0
 2601 0271 00       		.byte	0
 2602              		.section	.debug_aranges,"",%progbits
 2603 0000 6C000000 		.4byte	0x6c
 2604 0004 0200     		.2byte	0x2
 2605 0006 00000000 		.4byte	.Ldebug_info0
 2606 000a 04       		.byte	0x4
 2607 000b 00       		.byte	0
 2608 000c 0000     		.2byte	0
 2609 000e 0000     		.2byte	0
 2610 0010 00000000 		.4byte	.LFB116
 2611 0014 1A000000 		.4byte	.LFE116-.LFB116
 2612 0018 00000000 		.4byte	.LFB117
 2613 001c 1A000000 		.4byte	.LFE117-.LFB117
 2614 0020 00000000 		.4byte	.LFB156
 2615 0024 12000000 		.4byte	.LFE156-.LFB156
 2616 0028 00000000 		.4byte	.LFB157
 2617 002c 3C000000 		.4byte	.LFE157-.LFB157
 2618 0030 00000000 		.4byte	.LFB217
 2619 0034 18000000 		.4byte	.LFE217-.LFB217
 2620 0038 00000000 		.4byte	.LFB229
 2621 003c 3C000000 		.4byte	.LFE229-.LFB229
 2622 0040 00000000 		.4byte	.LFB230
 2623 0044 4C000000 		.4byte	.LFE230-.LFB230
 2624 0048 00000000 		.4byte	.LFB231
 2625 004c 54000000 		.4byte	.LFE231-.LFB231
 2626 0050 00000000 		.4byte	.LFB232
 2627 0054 22000000 		.4byte	.LFE232-.LFB232
 2628 0058 00000000 		.4byte	.LFB233
 2629 005c 3C000000 		.4byte	.LFE233-.LFB233
 2630 0060 00000000 		.4byte	.LFB234
 2631 0064 20000000 		.4byte	.LFE234-.LFB234
 2632 0068 00000000 		.4byte	0
 2633 006c 00000000 		.4byte	0
 2634              		.section	.debug_ranges,"",%progbits
 2635              	.Ldebug_ranges0:
 2636 0000 00000000 		.4byte	.LFB116
 2637 0004 1A000000 		.4byte	.LFE116
 2638 0008 00000000 		.4byte	.LFB117
 2639 000c 1A000000 		.4byte	.LFE117
 2640 0010 00000000 		.4byte	.LFB156
 2641 0014 12000000 		.4byte	.LFE156
 2642 0018 00000000 		.4byte	.LFB157
 2643 001c 3C000000 		.4byte	.LFE157
 2644 0020 00000000 		.4byte	.LFB217
 2645 0024 18000000 		.4byte	.LFE217
 2646 0028 00000000 		.4byte	.LFB229
 2647 002c 3C000000 		.4byte	.LFE229
 2648 0030 00000000 		.4byte	.LFB230
 2649 0034 4C000000 		.4byte	.LFE230
 2650 0038 00000000 		.4byte	.LFB231
 2651 003c 54000000 		.4byte	.LFE231
 2652 0040 00000000 		.4byte	.LFB232
 2653 0044 22000000 		.4byte	.LFE232
 2654 0048 00000000 		.4byte	.LFB233
ARM GAS  C:\Users\Luis\AppData\Local\Temp\ccgEIuaR.s 			page 48


 2655 004c 3C000000 		.4byte	.LFE233
 2656 0050 00000000 		.4byte	.LFB234
 2657 0054 20000000 		.4byte	.LFE234
 2658 0058 00000000 		.4byte	0
 2659 005c 00000000 		.4byte	0
 2660              		.section	.debug_line,"",%progbits
 2661              	.Ldebug_line0:
 2662 0000 54030000 		.section	.debug_str,"MS",%progbits,1
 2662      02000802 
 2662      00000201 
 2662      FB0E0D00 
 2662      01010101 
 2663              	.LASF95:
 2664 0000 74625F70 		.ascii	"tb_ptr\000"
 2664      747200
 2665              	.LASF52:
 2666 0007 72656164 		.ascii	"ready_list_t\000"
 2666      795F6C69 
 2666      73745F74 
 2666      00
 2667              	.LASF89:
 2668 0014 73655F74 		.ascii	"se_time\000"
 2668      696D6500 
 2669              	.LASF2:
 2670 001c 73697A65 		.ascii	"size_t\000"
 2670      5F7400
 2671              	.LASF110:
 2672 0023 7264796D 		.ascii	"rdymsg\000"
 2672      736700
 2673              	.LASF12:
 2674 002a 75696E74 		.ascii	"uint64_t\000"
 2674      36345F74 
 2674      00
 2675              	.LASF82:
 2676 0033 6B65726E 		.ascii	"kernel_stats\000"
 2676      656C5F73 
 2676      74617473 
 2676      00
 2677              	.LASF88:
 2678 0040 706F7274 		.ascii	"port_intctx\000"
 2678      5F696E74 
 2678      63747800 
 2679              	.LASF51:
 2680 004c 63685F74 		.ascii	"ch_threads_queue\000"
 2680      68726561 
 2680      64735F71 
 2680      75657565 
 2680      00
 2681              	.LASF71:
 2682 005d 73797374 		.ascii	"system_debug_t\000"
 2682      656D5F64 
 2682      65627567 
 2682      5F7400
 2683              	.LASF139:
 2684 006c 70726F76 		.ascii	"provider\000"
 2684      69646572 
 2684      00
ARM GAS  C:\Users\Luis\AppData\Local\Temp\ccgEIuaR.s 			page 49


 2685              	.LASF133:
 2686 0075 706F7274 		.ascii	"port_lock\000"
 2686      5F6C6F63 
 2686      6B00
 2687              	.LASF101:
 2688 007f 776F7273 		.ascii	"worst\000"
 2688      7400
 2689              	.LASF104:
 2690 0085 74696D65 		.ascii	"time_measurement_t\000"
 2690      5F6D6561 
 2690      73757265 
 2690      6D656E74 
 2690      5F7400
 2691              	.LASF13:
 2692 0098 6C6F6E67 		.ascii	"long long unsigned int\000"
 2692      206C6F6E 
 2692      6720756E 
 2692      7369676E 
 2692      65642069 
 2693              	.LASF97:
 2694 00af 63685F74 		.ascii	"ch_trace_buffer_t\000"
 2694      72616365 
 2694      5F627566 
 2694      6665725F 
 2694      7400
 2695              	.LASF92:
 2696 00c1 73655F73 		.ascii	"se_state\000"
 2696      74617465 
 2696      00
 2697              	.LASF111:
 2698 00ca 65786974 		.ascii	"exitcode\000"
 2698      636F6465 
 2698      00
 2699              	.LASF81:
 2700 00d3 6D61696E 		.ascii	"mainthread\000"
 2700      74687265 
 2700      616400
 2701              	.LASF68:
 2702 00de 76697274 		.ascii	"virtual_timers_list_t\000"
 2702      75616C5F 
 2702      74696D65 
 2702      72735F6C 
 2702      6973745F 
 2703              	.LASF147:
 2704 00f4 49544D5F 		.ascii	"ITM_RxBuffer\000"
 2704      52784275 
 2704      66666572 
 2704      00
 2705              	.LASF15:
 2706 0101 72747469 		.ascii	"rttime_t\000"
 2706      6D655F74 
 2706      00
 2707              	.LASF28:
 2708 010a 705F7072 		.ascii	"p_prio\000"
 2708      696F00
 2709              	.LASF11:
 2710 0111 6C6F6E67 		.ascii	"long long int\000"
ARM GAS  C:\Users\Luis\AppData\Local\Temp\ccgEIuaR.s 			page 50


 2710      206C6F6E 
 2710      6720696E 
 2710      7400
 2711              	.LASF1:
 2712 011f 7369676E 		.ascii	"signed char\000"
 2712      65642063 
 2712      68617200 
 2713              	.LASF43:
 2714 012b 705F6D70 		.ascii	"p_mpool\000"
 2714      6F6F6C00 
 2715              	.LASF121:
 2716 0133 6D5F7175 		.ascii	"m_queue\000"
 2716      65756500 
 2717              	.LASF80:
 2718 013b 76746C69 		.ascii	"vtlist\000"
 2718      737400
 2719              	.LASF134:
 2720 0142 706F7274 		.ascii	"port_unlock\000"
 2720      5F756E6C 
 2720      6F636B00 
 2721              	.LASF150:
 2722 014e 433A5C55 		.ascii	"C:\\Users\\Luis\\git\\DSP-Library-Lanin\\examples\\"
 2722      73657273 
 2722      5C4C7569 
 2722      735C6769 
 2722      745C4453 
 2723 017b 4453502D 		.ascii	"DSP-Library\000"
 2723      4C696272 
 2723      61727900 
 2724              	.LASF113:
 2725 0187 77747472 		.ascii	"wttrp\000"
 2725      7000
 2726              	.LASF78:
 2727 018d 63685F73 		.ascii	"ch_system\000"
 2727      79737465 
 2727      6D00
 2728              	.LASF8:
 2729 0197 6C6F6E67 		.ascii	"long int\000"
 2729      20696E74 
 2729      00
 2730              	.LASF17:
 2731 01a0 74737461 		.ascii	"tstate_t\000"
 2731      74655F74 
 2731      00
 2732              	.LASF90:
 2733 01a9 73655F74 		.ascii	"se_tp\000"
 2733      7000
 2734              	.LASF30:
 2735 01af 705F6E65 		.ascii	"p_newer\000"
 2735      77657200 
 2736              	.LASF118:
 2737 01b7 735F7175 		.ascii	"s_queue\000"
 2737      65756500 
 2738              	.LASF94:
 2739 01bf 74625F73 		.ascii	"tb_size\000"
 2739      697A6500 
 2740              	.LASF57:
ARM GAS  C:\Users\Luis\AppData\Local\Temp\ccgEIuaR.s 			page 51


 2741 01c7 725F6E65 		.ascii	"r_newer\000"
 2741      77657200 
 2742              	.LASF131:
 2743 01cf 6D705F70 		.ascii	"mp_provider\000"
 2743      726F7669 
 2743      64657200 
 2744              	.LASF85:
 2745 01db 72656761 		.ascii	"regarm_t\000"
 2745      726D5F74 
 2745      00
 2746              	.LASF64:
 2747 01e4 76745F70 		.ascii	"vt_prev\000"
 2747      72657600 
 2748              	.LASF72:
 2749 01ec 63685F73 		.ascii	"ch_system_debug\000"
 2749      79737465 
 2749      6D5F6465 
 2749      62756700 
 2750              	.LASF125:
 2751 01fc 6D757465 		.ascii	"mutex_t\000"
 2751      785F7400 
 2752              	.LASF152:
 2753 0204 76616C75 		.ascii	"value\000"
 2753      6500
 2754              	.LASF75:
 2755 020a 6C6F636B 		.ascii	"lock_cnt\000"
 2755      5F636E74 
 2755      00
 2756              	.LASF83:
 2757 0213 69646C65 		.ascii	"idle_thread_wa\000"
 2757      5F746872 
 2757      6561645F 
 2757      776100
 2758              	.LASF22:
 2759 0222 636E745F 		.ascii	"cnt_t\000"
 2759      7400
 2760              	.LASF33:
 2761 0228 705F7374 		.ascii	"p_stklimit\000"
 2761      6B6C696D 
 2761      697400
 2762              	.LASF0:
 2763 0233 756E7369 		.ascii	"unsigned int\000"
 2763      676E6564 
 2763      20696E74 
 2763      00
 2764              	.LASF63:
 2765 0240 76745F6E 		.ascii	"vt_next\000"
 2765      65787400 
 2766              	.LASF114:
 2767 0248 77747365 		.ascii	"wtsemp\000"
 2767      6D7000
 2768              	.LASF38:
 2769 024f 705F6D73 		.ascii	"p_msgqueue\000"
 2769      67717565 
 2769      756500
 2770              	.LASF45:
 2771 025a 746C7350 		.ascii	"tlsPtr\000"
ARM GAS  C:\Users\Luis\AppData\Local\Temp\ccgEIuaR.s 			page 52


 2771      747200
 2772              	.LASF132:
 2773 0261 6D656D6F 		.ascii	"memory_pool_t\000"
 2773      72795F70 
 2773      6F6F6C5F 
 2773      7400
 2774              	.LASF105:
 2775 026f 6E5F6972 		.ascii	"n_irq\000"
 2775      7100
 2776              	.LASF119:
 2777 0275 735F636E 		.ascii	"s_cnt\000"
 2777      7400
 2778              	.LASF6:
 2779 027b 73686F72 		.ascii	"short unsigned int\000"
 2779      7420756E 
 2779      7369676E 
 2779      65642069 
 2779      6E7400
 2780              	.LASF109:
 2781 028e 6B65726E 		.ascii	"kernel_stats_t\000"
 2781      656C5F73 
 2781      74617473 
 2781      5F7400
 2782              	.LASF48:
 2783 029d 63685F74 		.ascii	"ch_thread\000"
 2783      68726561 
 2783      6400
 2784              	.LASF149:
 2785 02a7 2E2E2F2E 		.ascii	"../../ChibiOS/os/rt/src/chmempools.c\000"
 2785      2E2F4368 
 2785      6962694F 
 2785      532F6F73 
 2785      2F72742F 
 2786              	.LASF20:
 2787 02cc 6D73675F 		.ascii	"msg_t\000"
 2787      7400
 2788              	.LASF102:
 2789 02d2 6C617374 		.ascii	"last\000"
 2789      00
 2790              	.LASF23:
 2791 02d7 75636E74 		.ascii	"ucnt_t\000"
 2791      5F7400
 2792              	.LASF77:
 2793 02de 63685F73 		.ascii	"ch_system_t\000"
 2793      79737465 
 2793      6D5F7400 
 2794              	.LASF136:
 2795 02ea 6368506F 		.ascii	"chPoolAdd\000"
 2795      6F6C4164 
 2795      6400
 2796              	.LASF16:
 2797 02f4 746D6F64 		.ascii	"tmode_t\000"
 2797      655F7400 
 2798              	.LASF141:
 2799 02fc 6368506F 		.ascii	"chPoolObjectInit\000"
 2799      6F6C4F62 
 2799      6A656374 
ARM GAS  C:\Users\Luis\AppData\Local\Temp\ccgEIuaR.s 			page 53


 2799      496E6974 
 2799      00
 2800              	.LASF108:
 2801 030d 6D5F6372 		.ascii	"m_crit_isr\000"
 2801      69745F69 
 2801      737200
 2802              	.LASF53:
 2803 0318 63685F72 		.ascii	"ch_ready_list\000"
 2803      65616479 
 2803      5F6C6973 
 2803      7400
 2804              	.LASF21:
 2805 0326 6576656E 		.ascii	"eventmask_t\000"
 2805      746D6173 
 2805      6B5F7400 
 2806              	.LASF86:
 2807 0332 73746B61 		.ascii	"stkalign_t\000"
 2807      6C69676E 
 2807      5F7400
 2808              	.LASF37:
 2809 033d 705F7761 		.ascii	"p_waiting\000"
 2809      6974696E 
 2809      6700
 2810              	.LASF84:
 2811 0347 73697A65 		.ascii	"sizetype\000"
 2811      74797065 
 2811      00
 2812              	.LASF46:
 2813 0350 74687265 		.ascii	"thread_reference_t\000"
 2813      61645F72 
 2813      65666572 
 2813      656E6365 
 2813      5F7400
 2814              	.LASF69:
 2815 0363 63685F76 		.ascii	"ch_virtual_timers_list\000"
 2815      69727475 
 2815      616C5F74 
 2815      696D6572 
 2815      735F6C69 
 2816              	.LASF143:
 2817 037a 6368506F 		.ascii	"chPoolAllocI\000"
 2817      6F6C416C 
 2817      6C6F6349 
 2817      00
 2818              	.LASF93:
 2819 0387 63685F73 		.ascii	"ch_swc_event_t\000"
 2819      77635F65 
 2819      76656E74 
 2819      5F7400
 2820              	.LASF70:
 2821 0396 76745F6C 		.ascii	"vt_lasttime\000"
 2821      61737474 
 2821      696D6500 
 2822              	.LASF31:
 2823 03a2 705F6F6C 		.ascii	"p_older\000"
 2823      64657200 
 2824              	.LASF56:
ARM GAS  C:\Users\Luis\AppData\Local\Temp\ccgEIuaR.s 			page 54


 2825 03aa 725F6374 		.ascii	"r_ctx\000"
 2825      7800
 2826              	.LASF130:
 2827 03b0 6D705F6F 		.ascii	"mp_object_size\000"
 2827      626A6563 
 2827      745F7369 
 2827      7A6500
 2828              	.LASF99:
 2829 03bf 746D5F63 		.ascii	"tm_calibration_t\000"
 2829      616C6962 
 2829      72617469 
 2829      6F6E5F74 
 2829      00
 2830              	.LASF59:
 2831 03d0 725F6375 		.ascii	"r_current\000"
 2831      7272656E 
 2831      7400
 2832              	.LASF58:
 2833 03da 725F6F6C 		.ascii	"r_older\000"
 2833      64657200 
 2834              	.LASF103:
 2835 03e2 63756D75 		.ascii	"cumulative\000"
 2835      6C617469 
 2835      766500
 2836              	.LASF18:
 2837 03ed 74726566 		.ascii	"trefs_t\000"
 2837      735F7400 
 2838              	.LASF96:
 2839 03f5 74625F62 		.ascii	"tb_buffer\000"
 2839      75666665 
 2839      7200
 2840              	.LASF61:
 2841 03ff 76697274 		.ascii	"virtual_timer_t\000"
 2841      75616C5F 
 2841      74696D65 
 2841      725F7400 
 2842              	.LASF27:
 2843 040f 705F7072 		.ascii	"p_prev\000"
 2843      657600
 2844              	.LASF19:
 2845 0416 74707269 		.ascii	"tprio_t\000"
 2845      6F5F7400 
 2846              	.LASF106:
 2847 041e 6E5F6374 		.ascii	"n_ctxswc\000"
 2847      78737763 
 2847      00
 2848              	.LASF7:
 2849 0427 696E7433 		.ascii	"int32_t\000"
 2849      325F7400 
 2850              	.LASF4:
 2851 042f 756E7369 		.ascii	"unsigned char\000"
 2851      676E6564 
 2851      20636861 
 2851      7200
 2852              	.LASF41:
 2853 043d 705F6D74 		.ascii	"p_mtxlist\000"
 2853      786C6973 
ARM GAS  C:\Users\Luis\AppData\Local\Temp\ccgEIuaR.s 			page 55


 2853      7400
 2854              	.LASF5:
 2855 0447 73686F72 		.ascii	"short int\000"
 2855      7420696E 
 2855      7400
 2856              	.LASF34:
 2857 0451 705F7374 		.ascii	"p_state\000"
 2857      61746500 
 2858              	.LASF55:
 2859 0459 725F7072 		.ascii	"r_prio\000"
 2859      696F00
 2860              	.LASF116:
 2861 0460 65776D61 		.ascii	"ewmask\000"
 2861      736B00
 2862              	.LASF26:
 2863 0467 705F6E65 		.ascii	"p_next\000"
 2863      787400
 2864              	.LASF140:
 2865 046e 5F5F6675 		.ascii	"__func__\000"
 2865      6E635F5F 
 2865      00
 2866              	.LASF44:
 2867 0477 705F7374 		.ascii	"p_stats\000"
 2867      61747300 
 2868              	.LASF153:
 2869 047f 63685379 		.ascii	"chSysLock\000"
 2869      734C6F63 
 2869      6B00
 2870              	.LASF137:
 2871 0489 6F626A70 		.ascii	"objp\000"
 2871      00
 2872              	.LASF62:
 2873 048e 63685F76 		.ascii	"ch_virtual_timer\000"
 2873      69727475 
 2873      616C5F74 
 2873      696D6572 
 2873      00
 2874              	.LASF117:
 2875 049f 63685F73 		.ascii	"ch_semaphore\000"
 2875      656D6170 
 2875      686F7265 
 2875      00
 2876              	.LASF40:
 2877 04ac 705F6570 		.ascii	"p_epending\000"
 2877      656E6469 
 2877      6E6700
 2878              	.LASF9:
 2879 04b7 75696E74 		.ascii	"uint32_t\000"
 2879      33325F74 
 2879      00
 2880              	.LASF115:
 2881 04c0 77746D74 		.ascii	"wtmtxp\000"
 2881      787000
 2882              	.LASF54:
 2883 04c7 725F7175 		.ascii	"r_queue\000"
 2883      65756500 
 2884              	.LASF65:
ARM GAS  C:\Users\Luis\AppData\Local\Temp\ccgEIuaR.s 			page 56


 2885 04cf 76745F64 		.ascii	"vt_delta\000"
 2885      656C7461 
 2885      00
 2886              	.LASF49:
 2887 04d8 63685F74 		.ascii	"ch_threads_list\000"
 2887      68726561 
 2887      64735F6C 
 2887      69737400 
 2888              	.LASF10:
 2889 04e8 6C6F6E67 		.ascii	"long unsigned int\000"
 2889      20756E73 
 2889      69676E65 
 2889      6420696E 
 2889      7400
 2890              	.LASF124:
 2891 04fa 63686172 		.ascii	"char\000"
 2891      00
 2892              	.LASF145:
 2893 04ff 6368506F 		.ascii	"chPoolFreeI\000"
 2893      6F6C4672 
 2893      65654900 
 2894              	.LASF148:
 2895 050b 474E5520 		.ascii	"GNU C 4.8.3 20131129 (release) [ARM/embedded-4_8-br"
 2895      4320342E 
 2895      382E3320 
 2895      32303133 
 2895      31313239 
 2896 053e 616E6368 		.ascii	"anch revision 205641] -mcpu=cortex-m4 -mapcs-frame "
 2896      20726576 
 2896      6973696F 
 2896      6E203230 
 2896      35363431 
 2897 0571 2D6D6E6F 		.ascii	"-mno-thumb-interwork -mthumb -ggdb -O0 -falign-func"
 2897      2D746875 
 2897      6D622D69 
 2897      6E746572 
 2897      776F726B 
 2898 05a4 74696F6E 		.ascii	"tions=16 -ffunction-sections -fdata-sections -fno-c"
 2898      733D3136 
 2898      202D6666 
 2898      756E6374 
 2898      696F6E2D 
 2899 05d7 6F6D6D6F 		.ascii	"ommon\000"
 2899      6E00
 2900              	.LASF100:
 2901 05dd 62657374 		.ascii	"best\000"
 2901      00
 2902              	.LASF123:
 2903 05e2 6D5F6E65 		.ascii	"m_next\000"
 2903      787400
 2904              	.LASF24:
 2905 05e9 73797374 		.ascii	"systime_t\000"
 2905      696D655F 
 2905      7400
 2906              	.LASF42:
 2907 05f3 705F7265 		.ascii	"p_realprio\000"
 2907      616C7072 
ARM GAS  C:\Users\Luis\AppData\Local\Temp\ccgEIuaR.s 			page 57


 2907      696F00
 2908              	.LASF60:
 2909 05fe 76746675 		.ascii	"vtfunc_t\000"
 2909      6E635F74 
 2909      00
 2910              	.LASF151:
 2911 0607 5F5F7365 		.ascii	"__set_BASEPRI\000"
 2911      745F4241 
 2911      53455052 
 2911      4900
 2912              	.LASF73:
 2913 0615 70616E69 		.ascii	"panic_msg\000"
 2913      635F6D73 
 2913      6700
 2914              	.LASF98:
 2915 061f 6F666673 		.ascii	"offset\000"
 2915      657400
 2916              	.LASF120:
 2917 0626 63685F6D 		.ascii	"ch_mutex\000"
 2917      75746578 
 2917      00
 2918              	.LASF129:
 2919 062f 6D705F6E 		.ascii	"mp_next\000"
 2919      65787400 
 2920              	.LASF87:
 2921 0637 636F6E74 		.ascii	"context\000"
 2921      65787400 
 2922              	.LASF39:
 2923 063f 705F6D73 		.ascii	"p_msg\000"
 2923      6700
 2924              	.LASF14:
 2925 0645 7274636E 		.ascii	"rtcnt_t\000"
 2925      745F7400 
 2926              	.LASF126:
 2927 064d 6D656D67 		.ascii	"memgetfunc_t\000"
 2927      65746675 
 2927      6E635F74 
 2927      00
 2928              	.LASF67:
 2929 065a 76745F70 		.ascii	"vt_par\000"
 2929      617200
 2930              	.LASF50:
 2931 0661 74687265 		.ascii	"threads_queue_t\000"
 2931      6164735F 
 2931      71756575 
 2931      655F7400 
 2932              	.LASF127:
 2933 0671 706F6F6C 		.ascii	"pool_header\000"
 2933      5F686561 
 2933      64657200 
 2934              	.LASF36:
 2935 067d 705F7265 		.ascii	"p_refs\000"
 2935      667300
 2936              	.LASF74:
 2937 0684 6973725F 		.ascii	"isr_cnt\000"
 2937      636E7400 
 2938              	.LASF25:
ARM GAS  C:\Users\Luis\AppData\Local\Temp\ccgEIuaR.s 			page 58


 2939 068c 74687265 		.ascii	"thread_t\000"
 2939      61645F74 
 2939      00
 2940              	.LASF79:
 2941 0695 726C6973 		.ascii	"rlist\000"
 2941      7400
 2942              	.LASF3:
 2943 069b 75696E74 		.ascii	"uint8_t\000"
 2943      385F7400 
 2944              	.LASF144:
 2945 06a3 6368506F 		.ascii	"chPoolAlloc\000"
 2945      6F6C416C 
 2945      6C6F6300 
 2946              	.LASF146:
 2947 06af 6368506F 		.ascii	"chPoolFree\000"
 2947      6F6C4672 
 2947      656500
 2948              	.LASF112:
 2949 06ba 77746F62 		.ascii	"wtobjp\000"
 2949      6A7000
 2950              	.LASF128:
 2951 06c1 70685F6E 		.ascii	"ph_next\000"
 2951      65787400 
 2952              	.LASF32:
 2953 06c9 705F6E61 		.ascii	"p_name\000"
 2953      6D6500
 2954              	.LASF138:
 2955 06d0 73697A65 		.ascii	"size\000"
 2955      00
 2956              	.LASF47:
 2957 06d5 74687265 		.ascii	"threads_list_t\000"
 2957      6164735F 
 2957      6C697374 
 2957      5F7400
 2958              	.LASF76:
 2959 06e4 74726163 		.ascii	"trace_buffer\000"
 2959      655F6275 
 2959      66666572 
 2959      00
 2960              	.LASF35:
 2961 06f1 705F666C 		.ascii	"p_flags\000"
 2961      61677300 
 2962              	.LASF135:
 2963 06f9 63685379 		.ascii	"chSysUnlock\000"
 2963      73556E6C 
 2963      6F636B00 
 2964              	.LASF142:
 2965 0705 6368506F 		.ascii	"chPoolLoadArray\000"
 2965      6F6C4C6F 
 2965      61644172 
 2965      72617900 
 2966              	.LASF107:
 2967 0715 6D5F6372 		.ascii	"m_crit_thd\000"
 2967      69745F74 
 2967      686400
 2968              	.LASF122:
 2969 0720 6D5F6F77 		.ascii	"m_owner\000"
ARM GAS  C:\Users\Luis\AppData\Local\Temp\ccgEIuaR.s 			page 59


 2969      6E657200 
 2970              	.LASF91:
 2971 0728 73655F77 		.ascii	"se_wtobjp\000"
 2971      746F626A 
 2971      7000
 2972              	.LASF29:
 2973 0732 705F6374 		.ascii	"p_ctx\000"
 2973      7800
 2974              	.LASF66:
 2975 0738 76745F66 		.ascii	"vt_func\000"
 2975      756E6300 
 2976              		.ident	"GCC: (GNU Tools for ARM Embedded Processors) 4.8.3 20131129 (release) [ARM/embedded-4_8-br
ARM GAS  C:\Users\Luis\AppData\Local\Temp\ccgEIuaR.s 			page 60


DEFINED SYMBOLS
                            *ABS*:00000000 chmempools.c
C:\Users\Luis\AppData\Local\Temp\ccgEIuaR.s:19     .text.port_lock:00000000 $t
C:\Users\Luis\AppData\Local\Temp\ccgEIuaR.s:24     .text.port_lock:00000000 port_lock
C:\Users\Luis\AppData\Local\Temp\ccgEIuaR.s:62     .text.port_unlock:00000000 $t
C:\Users\Luis\AppData\Local\Temp\ccgEIuaR.s:67     .text.port_unlock:00000000 port_unlock
C:\Users\Luis\AppData\Local\Temp\ccgEIuaR.s:103    .text.chSysLock:00000000 $t
C:\Users\Luis\AppData\Local\Temp\ccgEIuaR.s:108    .text.chSysLock:00000000 chSysLock
C:\Users\Luis\AppData\Local\Temp\ccgEIuaR.s:133    .text.chSysUnlock:00000000 $t
C:\Users\Luis\AppData\Local\Temp\ccgEIuaR.s:138    .text.chSysUnlock:00000000 chSysUnlock
C:\Users\Luis\AppData\Local\Temp\ccgEIuaR.s:179    .text.chSysUnlock:00000034 $d
C:\Users\Luis\AppData\Local\Temp\ccgEIuaR.s:595    .rodata.__func__.5842:00000000 __func__.5842
C:\Users\Luis\AppData\Local\Temp\ccgEIuaR.s:185    .text.chPoolAdd:00000000 $t
C:\Users\Luis\AppData\Local\Temp\ccgEIuaR.s:190    .text.chPoolAdd:00000000 chPoolAdd
C:\Users\Luis\AppData\Local\Temp\ccgEIuaR.s:541    .text.chPoolFree:00000000 chPoolFree
C:\Users\Luis\AppData\Local\Temp\ccgEIuaR.s:220    .text.chPoolObjectInit:00000000 $t
C:\Users\Luis\AppData\Local\Temp\ccgEIuaR.s:226    .text.chPoolObjectInit:00000000 chPoolObjectInit
C:\Users\Luis\AppData\Local\Temp\ccgEIuaR.s:277    .text.chPoolObjectInit:00000038 $d
C:\Users\Luis\AppData\Local\Temp\ccgEIuaR.s:577    .rodata.__func__.6539:00000000 __func__.6539
C:\Users\Luis\AppData\Local\Temp\ccgEIuaR.s:282    .text.chPoolLoadArray:00000000 $t
C:\Users\Luis\AppData\Local\Temp\ccgEIuaR.s:288    .text.chPoolLoadArray:00000000 chPoolLoadArray
C:\Users\Luis\AppData\Local\Temp\ccgEIuaR.s:350    .text.chPoolLoadArray:00000048 $d
C:\Users\Luis\AppData\Local\Temp\ccgEIuaR.s:583    .rodata.__func__.6545:00000000 __func__.6545
C:\Users\Luis\AppData\Local\Temp\ccgEIuaR.s:355    .text.chPoolAllocI:00000000 $t
C:\Users\Luis\AppData\Local\Temp\ccgEIuaR.s:361    .text.chPoolAllocI:00000000 chPoolAllocI
C:\Users\Luis\AppData\Local\Temp\ccgEIuaR.s:427    .text.chPoolAllocI:00000050 $d
C:\Users\Luis\AppData\Local\Temp\ccgEIuaR.s:589    .rodata.__func__.6553:00000000 __func__.6553
C:\Users\Luis\AppData\Local\Temp\ccgEIuaR.s:432    .text.chPoolAlloc:00000000 $t
C:\Users\Luis\AppData\Local\Temp\ccgEIuaR.s:438    .text.chPoolAlloc:00000000 chPoolAlloc
C:\Users\Luis\AppData\Local\Temp\ccgEIuaR.s:473    .text.chPoolFreeI:00000000 $t
C:\Users\Luis\AppData\Local\Temp\ccgEIuaR.s:479    .text.chPoolFreeI:00000000 chPoolFreeI
C:\Users\Luis\AppData\Local\Temp\ccgEIuaR.s:530    .text.chPoolFreeI:00000038 $d
C:\Users\Luis\AppData\Local\Temp\ccgEIuaR.s:601    .rodata.__func__.6563:00000000 __func__.6563
C:\Users\Luis\AppData\Local\Temp\ccgEIuaR.s:535    .text.chPoolFree:00000000 $t
C:\Users\Luis\AppData\Local\Temp\ccgEIuaR.s:574    .rodata.__func__.6539:00000000 $d
C:\Users\Luis\AppData\Local\Temp\ccgEIuaR.s:580    .rodata.__func__.6545:00000000 $d
C:\Users\Luis\AppData\Local\Temp\ccgEIuaR.s:586    .rodata.__func__.6553:00000000 $d
C:\Users\Luis\AppData\Local\Temp\ccgEIuaR.s:592    .rodata.__func__.5842:00000000 $d
C:\Users\Luis\AppData\Local\Temp\ccgEIuaR.s:598    .rodata.__func__.6563:00000000 $d
                     .debug_frame:00000010 $d
C:\Users\Luis\AppData\Local\Temp\ccgEIuaR.s:184    .text.chSysUnlock:0000003c $t
C:\Users\Luis\AppData\Local\Temp\ccgEIuaR.s:281    .text.chPoolObjectInit:0000003c $t
C:\Users\Luis\AppData\Local\Temp\ccgEIuaR.s:354    .text.chPoolLoadArray:0000004c $t
C:\Users\Luis\AppData\Local\Temp\ccgEIuaR.s:431    .text.chPoolAllocI:00000054 $t
C:\Users\Luis\AppData\Local\Temp\ccgEIuaR.s:534    .text.chPoolFreeI:0000003c $t

UNDEFINED SYMBOLS
_stats_start_measure_crit_thd
_dbg_check_lock
_dbg_check_unlock
_stats_stop_measure_crit_thd
chSysHalt
ch
chDbgCheckClassI
