ARM GAS  C:\Users\Luis\AppData\Local\Temp\ccDV8U54.s 			page 1


   1              		.syntax unified
   2              		.cpu cortex-m4
   3              		.fpu softvfp
   4              		.eabi_attribute 20, 1
   5              		.eabi_attribute 21, 1
   6              		.eabi_attribute 23, 3
   7              		.eabi_attribute 24, 1
   8              		.eabi_attribute 25, 1
   9              		.eabi_attribute 26, 1
  10              		.eabi_attribute 30, 6
  11              		.eabi_attribute 34, 1
  12              		.eabi_attribute 18, 4
  13              		.thumb
  14              		.file	"chmsg.c"
  15              		.text
  16              	.Ltext0:
  17              		.cfi_sections	.debug_frame
  18              		.section	.text.port_lock,"ax",%progbits
  19              		.align	2
  20              		.p2align 4,,15
  21              		.thumb
  22              		.thumb_func
  23              		.type	port_lock, %function
  24              	port_lock:
  25              	.LFB116:
  26              		.file 1 "../../ChibiOS/os/rt/ports/ARMCMx/chcore_v7m.h"
  27              		.loc 1 444 0
  28              		.cfi_startproc
  29              		@ args = 0, pretend = 0, frame = 8
  30              		@ frame_needed = 1, uses_anonymous_args = 0
  31              		@ link register save eliminated.
  32 0000 80B4     		push	{r7}
  33              		.cfi_def_cfa_offset 4
  34              		.cfi_offset 7, -4
  35 0002 83B0     		sub	sp, sp, #12
  36              		.cfi_def_cfa_offset 16
  37 0004 00AF     		add	r7, sp, #0
  38              		.cfi_def_cfa_register 7
  39 0006 2023     		movs	r3, #32
  40 0008 7B60     		str	r3, [r7, #4]
  41              	.LBB6:
  42              	.LBB7:
  43              		.file 2 "../../ChibiOS/os/ext/CMSIS/include/core_cmFunc.h"
  44              		.loc 2 546 0
  45 000a 7B68     		ldr	r3, [r7, #4]
  46              	@ 546 "../../ChibiOS/os/ext/CMSIS/include/core_cmFunc.h" 1
  47 000c 83F31188 		MSR basepri, r3
  48              	@ 0 "" 2
  49              		.thumb
  50              	.LBE7:
  51              	.LBE6:
  52              		.loc 1 451 0
  53 0010 0C37     		adds	r7, r7, #12
  54 0012 BD46     		mov	sp, r7
  55              		@ sp needed
  56 0014 5DF8047B 		ldr	r7, [sp], #4
  57 0018 7047     		bx	lr
ARM GAS  C:\Users\Luis\AppData\Local\Temp\ccDV8U54.s 			page 2


  58              		.cfi_endproc
  59              	.LFE116:
  60              		.size	port_lock, .-port_lock
  61 001a 00BFAFF3 		.section	.text.port_unlock,"ax",%progbits
  61      0080
  62              		.align	2
  63              		.p2align 4,,15
  64              		.thumb
  65              		.thumb_func
  66              		.type	port_unlock, %function
  67              	port_unlock:
  68              	.LFB117:
  69              		.loc 1 458 0
  70              		.cfi_startproc
  71              		@ args = 0, pretend = 0, frame = 8
  72              		@ frame_needed = 1, uses_anonymous_args = 0
  73              		@ link register save eliminated.
  74 0000 80B4     		push	{r7}
  75              		.cfi_def_cfa_offset 4
  76              		.cfi_offset 7, -4
  77 0002 83B0     		sub	sp, sp, #12
  78              		.cfi_def_cfa_offset 16
  79 0004 00AF     		add	r7, sp, #0
  80              		.cfi_def_cfa_register 7
  81 0006 0023     		movs	r3, #0
  82 0008 7B60     		str	r3, [r7, #4]
  83              	.LBB8:
  84              	.LBB9:
  85              		.loc 2 546 0
  86 000a 7B68     		ldr	r3, [r7, #4]
  87              	@ 546 "../../ChibiOS/os/ext/CMSIS/include/core_cmFunc.h" 1
  88 000c 83F31188 		MSR basepri, r3
  89              	@ 0 "" 2
  90              		.thumb
  91              	.LBE9:
  92              	.LBE8:
  93              		.loc 1 465 0
  94 0010 0C37     		adds	r7, r7, #12
  95 0012 BD46     		mov	sp, r7
  96              		@ sp needed
  97 0014 5DF8047B 		ldr	r7, [sp], #4
  98 0018 7047     		bx	lr
  99              		.cfi_endproc
 100              	.LFE117:
 101              		.size	port_unlock, .-port_unlock
 102 001a 00BFAFF3 		.section	.text.queue_insert,"ax",%progbits
 102      0080
 103              		.align	2
 104              		.p2align 4,,15
 105              		.thumb
 106              		.thumb_func
 107              		.type	queue_insert, %function
 108              	queue_insert:
 109              	.LFB145:
 110              		.file 3 "../../ChibiOS/os/rt/include/chschd.h"
 111              		.loc 3 663 0
 112              		.cfi_startproc
ARM GAS  C:\Users\Luis\AppData\Local\Temp\ccDV8U54.s 			page 3


 113              		@ args = 0, pretend = 0, frame = 8
 114              		@ frame_needed = 1, uses_anonymous_args = 0
 115              		@ link register save eliminated.
 116 0000 80B4     		push	{r7}
 117              		.cfi_def_cfa_offset 4
 118              		.cfi_offset 7, -4
 119 0002 83B0     		sub	sp, sp, #12
 120              		.cfi_def_cfa_offset 16
 121 0004 00AF     		add	r7, sp, #0
 122              		.cfi_def_cfa_register 7
 123 0006 7860     		str	r0, [r7, #4]
 124 0008 3960     		str	r1, [r7]
 125              		.loc 3 665 0
 126 000a 7B68     		ldr	r3, [r7, #4]
 127 000c 3A68     		ldr	r2, [r7]
 128 000e 1A60     		str	r2, [r3]
 129              		.loc 3 666 0
 130 0010 3B68     		ldr	r3, [r7]
 131 0012 5A68     		ldr	r2, [r3, #4]
 132 0014 7B68     		ldr	r3, [r7, #4]
 133 0016 5A60     		str	r2, [r3, #4]
 134              		.loc 3 667 0
 135 0018 7B68     		ldr	r3, [r7, #4]
 136 001a 5B68     		ldr	r3, [r3, #4]
 137 001c 7A68     		ldr	r2, [r7, #4]
 138 001e 1A60     		str	r2, [r3]
 139              		.loc 3 668 0
 140 0020 3B68     		ldr	r3, [r7]
 141 0022 7A68     		ldr	r2, [r7, #4]
 142 0024 5A60     		str	r2, [r3, #4]
 143              		.loc 3 669 0
 144 0026 0C37     		adds	r7, r7, #12
 145 0028 BD46     		mov	sp, r7
 146              		@ sp needed
 147 002a 5DF8047B 		ldr	r7, [sp], #4
 148 002e 7047     		bx	lr
 149              		.cfi_endproc
 150              	.LFE145:
 151              		.size	queue_insert, .-queue_insert
 152              		.section	.text.queue_fifo_remove,"ax",%progbits
 153              		.align	2
 154              		.p2align 4,,15
 155              		.thumb
 156              		.thumb_func
 157              		.type	queue_fifo_remove, %function
 158              	queue_fifo_remove:
 159              	.LFB146:
 160              		.loc 3 671 0
 161              		.cfi_startproc
 162              		@ args = 0, pretend = 0, frame = 16
 163              		@ frame_needed = 1, uses_anonymous_args = 0
 164              		@ link register save eliminated.
 165 0000 80B4     		push	{r7}
 166              		.cfi_def_cfa_offset 4
 167              		.cfi_offset 7, -4
 168 0002 85B0     		sub	sp, sp, #20
 169              		.cfi_def_cfa_offset 24
ARM GAS  C:\Users\Luis\AppData\Local\Temp\ccDV8U54.s 			page 4


 170 0004 00AF     		add	r7, sp, #0
 171              		.cfi_def_cfa_register 7
 172 0006 7860     		str	r0, [r7, #4]
 173              		.loc 3 672 0
 174 0008 7B68     		ldr	r3, [r7, #4]
 175 000a 1B68     		ldr	r3, [r3]
 176 000c FB60     		str	r3, [r7, #12]
 177              		.loc 3 674 0
 178 000e FB68     		ldr	r3, [r7, #12]
 179 0010 1A68     		ldr	r2, [r3]
 180 0012 7B68     		ldr	r3, [r7, #4]
 181 0014 1A60     		str	r2, [r3]
 182              		.loc 3 675 0
 183 0016 7B68     		ldr	r3, [r7, #4]
 184 0018 1B68     		ldr	r3, [r3]
 185 001a 7A68     		ldr	r2, [r7, #4]
 186 001c 5A60     		str	r2, [r3, #4]
 187              		.loc 3 677 0
 188 001e FB68     		ldr	r3, [r7, #12]
 189              		.loc 3 678 0
 190 0020 1846     		mov	r0, r3
 191 0022 1437     		adds	r7, r7, #20
 192 0024 BD46     		mov	sp, r7
 193              		@ sp needed
 194 0026 5DF8047B 		ldr	r7, [sp], #4
 195 002a 7047     		bx	lr
 196              		.cfi_endproc
 197              	.LFE146:
 198              		.size	queue_fifo_remove, .-queue_fifo_remove
 199 002c AFF30080 		.section	.text.chSysLock,"ax",%progbits
 200              		.align	2
 201              		.p2align 4,,15
 202              		.thumb
 203              		.thumb_func
 204              		.type	chSysLock, %function
 205              	chSysLock:
 206              	.LFB156:
 207              		.file 4 "../../ChibiOS/os/rt/include/chsys.h"
 208              		.loc 4 346 0
 209              		.cfi_startproc
 210              		@ args = 0, pretend = 0, frame = 0
 211              		@ frame_needed = 1, uses_anonymous_args = 0
 212 0000 80B5     		push	{r7, lr}
 213              		.cfi_def_cfa_offset 8
 214              		.cfi_offset 7, -8
 215              		.cfi_offset 14, -4
 216 0002 00AF     		add	r7, sp, #0
 217              		.cfi_def_cfa_register 7
 218              		.loc 4 348 0
 219 0004 FFF7FEFF 		bl	port_lock
 220              		.loc 4 349 0
 221 0008 FFF7FEFF 		bl	_stats_start_measure_crit_thd
 222              		.loc 4 350 0
 223 000c FFF7FEFF 		bl	_dbg_check_lock
 224              		.loc 4 351 0
 225 0010 80BD     		pop	{r7, pc}
 226              		.cfi_endproc
ARM GAS  C:\Users\Luis\AppData\Local\Temp\ccDV8U54.s 			page 5


 227              	.LFE156:
 228              		.size	chSysLock, .-chSysLock
 229 0012 00BFAFF3 		.section	.text.chSysUnlock,"ax",%progbits
 229      0080AFF3 
 229      0080AFF3 
 229      0080
 230              		.align	2
 231              		.p2align 4,,15
 232              		.thumb
 233              		.thumb_func
 234              		.type	chSysUnlock, %function
 235              	chSysUnlock:
 236              	.LFB157:
 237              		.loc 4 358 0
 238              		.cfi_startproc
 239              		@ args = 0, pretend = 0, frame = 0
 240              		@ frame_needed = 1, uses_anonymous_args = 0
 241 0000 80B5     		push	{r7, lr}
 242              		.cfi_def_cfa_offset 8
 243              		.cfi_offset 7, -8
 244              		.cfi_offset 14, -4
 245 0002 00AF     		add	r7, sp, #0
 246              		.cfi_def_cfa_register 7
 247              		.loc 4 360 0
 248 0004 FFF7FEFF 		bl	_dbg_check_unlock
 249              		.loc 4 361 0
 250 0008 FFF7FEFF 		bl	_stats_stop_measure_crit_thd
 251              		.loc 4 367 0
 252 000c 094B     		ldr	r3, .L9
 253 000e 1A68     		ldr	r2, [r3]
 254 0010 084B     		ldr	r3, .L9
 255 0012 9A42     		cmp	r2, r3
 256 0014 0AD0     		beq	.L8
 257              		.loc 4 367 0 is_stmt 0 discriminator 1
 258 0016 074B     		ldr	r3, .L9
 259 0018 9B69     		ldr	r3, [r3, #24]
 260 001a 9A68     		ldr	r2, [r3, #8]
 261 001c 054B     		ldr	r3, .L9
 262 001e 1B68     		ldr	r3, [r3]
 263 0020 9B68     		ldr	r3, [r3, #8]
 264 0022 9A42     		cmp	r2, r3
 265 0024 02D2     		bcs	.L8
 266 0026 0448     		ldr	r0, .L9+4
 267 0028 FFF7FEFF 		bl	chSysHalt
 268              	.L8:
 269              		.loc 4 371 0 is_stmt 1
 270 002c FFF7FEFF 		bl	port_unlock
 271              		.loc 4 372 0
 272 0030 80BD     		pop	{r7, pc}
 273              	.L10:
 274 0032 00BF     		.align	2
 275              	.L9:
 276 0034 00000000 		.word	ch
 277 0038 00000000 		.word	__func__.5842
 278              		.cfi_endproc
 279              	.LFE157:
 280              		.size	chSysUnlock, .-chSysUnlock
ARM GAS  C:\Users\Luis\AppData\Local\Temp\ccDV8U54.s 			page 6


 281 003c AFF30080 		.section	.text.chMsgIsPendingI,"ax",%progbits
 282              		.align	2
 283              		.p2align 4,,15
 284              		.thumb
 285              		.thumb_func
 286              		.type	chMsgIsPendingI, %function
 287              	chMsgIsPendingI:
 288              	.LFB210:
 289              		.file 5 "../../ChibiOS/os/rt/include/chmsg.h"
 290              		.loc 5 79 0
 291              		.cfi_startproc
 292              		@ args = 0, pretend = 0, frame = 8
 293              		@ frame_needed = 1, uses_anonymous_args = 0
 294 0000 80B5     		push	{r7, lr}
 295              		.cfi_def_cfa_offset 8
 296              		.cfi_offset 7, -8
 297              		.cfi_offset 14, -4
 298 0002 82B0     		sub	sp, sp, #8
 299              		.cfi_def_cfa_offset 16
 300 0004 00AF     		add	r7, sp, #0
 301              		.cfi_def_cfa_register 7
 302 0006 7860     		str	r0, [r7, #4]
 303              		.loc 5 81 0
 304 0008 FFF7FEFF 		bl	chDbgCheckClassI
 305              		.loc 5 83 0
 306 000c 7B68     		ldr	r3, [r7, #4]
 307 000e DA6A     		ldr	r2, [r3, #44]
 308 0010 7B68     		ldr	r3, [r7, #4]
 309 0012 2C33     		adds	r3, r3, #44
 310 0014 9A42     		cmp	r2, r3
 311 0016 0CBF     		ite	eq
 312 0018 0023     		moveq	r3, #0
 313 001a 0123     		movne	r3, #1
 314 001c DBB2     		uxtb	r3, r3
 315              		.loc 5 84 0
 316 001e 1846     		mov	r0, r3
 317 0020 0837     		adds	r7, r7, #8
 318 0022 BD46     		mov	sp, r7
 319              		@ sp needed
 320 0024 80BD     		pop	{r7, pc}
 321              		.cfi_endproc
 322              	.LFE210:
 323              		.size	chMsgIsPendingI, .-chMsgIsPendingI
 324 0026 00BFAFF3 		.section	.text.chMsgReleaseS,"ax",%progbits
 324      0080AFF3 
 324      0080
 325              		.align	2
 326              		.p2align 4,,15
 327              		.thumb
 328              		.thumb_func
 329              		.type	chMsgReleaseS, %function
 330              	chMsgReleaseS:
 331              	.LFB212:
 332              		.loc 5 111 0
 333              		.cfi_startproc
 334              		@ args = 0, pretend = 0, frame = 8
 335              		@ frame_needed = 1, uses_anonymous_args = 0
ARM GAS  C:\Users\Luis\AppData\Local\Temp\ccDV8U54.s 			page 7


 336 0000 80B5     		push	{r7, lr}
 337              		.cfi_def_cfa_offset 8
 338              		.cfi_offset 7, -8
 339              		.cfi_offset 14, -4
 340 0002 82B0     		sub	sp, sp, #8
 341              		.cfi_def_cfa_offset 16
 342 0004 00AF     		add	r7, sp, #0
 343              		.cfi_def_cfa_register 7
 344 0006 7860     		str	r0, [r7, #4]
 345 0008 3960     		str	r1, [r7]
 346              		.loc 5 113 0
 347 000a FFF7FEFF 		bl	chDbgCheckClassS
 348              		.loc 5 115 0
 349 000e 7868     		ldr	r0, [r7, #4]
 350 0010 3968     		ldr	r1, [r7]
 351 0012 FFF7FEFF 		bl	chSchWakeupS
 352              		.loc 5 116 0
 353 0016 0837     		adds	r7, r7, #8
 354 0018 BD46     		mov	sp, r7
 355              		@ sp needed
 356 001a 80BD     		pop	{r7, pc}
 357              		.cfi_endproc
 358              	.LFE212:
 359              		.size	chMsgReleaseS, .-chMsgReleaseS
 360 001c AFF30080 		.section	.text.chMsgSend,"ax",%progbits
 361              		.align	2
 362              		.p2align 4,,15
 363              		.global	chMsgSend
 364              		.thumb
 365              		.thumb_func
 366              		.type	chMsgSend, %function
 367              	chMsgSend:
 368              	.LFB229:
 369              		.file 6 "../../ChibiOS/os/rt/src/chmsg.c"
 370              		.loc 6 87 0
 371              		.cfi_startproc
 372              		@ args = 0, pretend = 0, frame = 16
 373              		@ frame_needed = 1, uses_anonymous_args = 0
 374 0000 80B5     		push	{r7, lr}
 375              		.cfi_def_cfa_offset 8
 376              		.cfi_offset 7, -8
 377              		.cfi_offset 14, -4
 378 0002 84B0     		sub	sp, sp, #16
 379              		.cfi_def_cfa_offset 24
 380 0004 00AF     		add	r7, sp, #0
 381              		.cfi_def_cfa_register 7
 382 0006 7860     		str	r0, [r7, #4]
 383 0008 3960     		str	r1, [r7]
 384              		.loc 6 88 0
 385 000a 174B     		ldr	r3, .L18
 386 000c 9B69     		ldr	r3, [r3, #24]
 387 000e FB60     		str	r3, [r7, #12]
 388              		.loc 6 90 0
 389 0010 7B68     		ldr	r3, [r7, #4]
 390 0012 002B     		cmp	r3, #0
 391 0014 02D1     		bne	.L15
 392              		.loc 6 90 0 is_stmt 0 discriminator 1
ARM GAS  C:\Users\Luis\AppData\Local\Temp\ccDV8U54.s 			page 8


 393 0016 1548     		ldr	r0, .L18+4
 394 0018 FFF7FEFF 		bl	chSysHalt
 395              	.L15:
 396              		.loc 6 92 0 is_stmt 1
 397 001c FFF7FEFF 		bl	chSysLock
 398              		.loc 6 93 0
 399 0020 FB68     		ldr	r3, [r7, #12]
 400 0022 3A68     		ldr	r2, [r7]
 401 0024 5A63     		str	r2, [r3, #52]
 402              		.loc 6 94 0
 403 0026 7B68     		ldr	r3, [r7, #4]
 404 0028 03F12C02 		add	r2, r3, #44
 405 002c FB68     		ldr	r3, [r7, #12]
 406 002e 5A62     		str	r2, [r3, #36]
 407              		.loc 6 95 0
 408 0030 7B68     		ldr	r3, [r7, #4]
 409 0032 2C33     		adds	r3, r3, #44
 410 0034 F868     		ldr	r0, [r7, #12]
 411 0036 1946     		mov	r1, r3
 412 0038 FFF7FEFF 		bl	queue_insert
 413              		.loc 6 96 0
 414 003c 7B68     		ldr	r3, [r7, #4]
 415 003e 93F82030 		ldrb	r3, [r3, #32]	@ zero_extendqisi2
 416 0042 0E2B     		cmp	r3, #14
 417 0044 02D1     		bne	.L16
 418              		.loc 6 97 0
 419 0046 7868     		ldr	r0, [r7, #4]
 420 0048 FFF7FEFF 		bl	chSchReadyI
 421              	.L16:
 422              		.loc 6 99 0
 423 004c 0C20     		movs	r0, #12
 424 004e FFF7FEFF 		bl	chSchGoSleepS
 425              		.loc 6 100 0
 426 0052 FB68     		ldr	r3, [r7, #12]
 427 0054 5B6A     		ldr	r3, [r3, #36]
 428 0056 3B60     		str	r3, [r7]
 429              		.loc 6 101 0
 430 0058 FFF7FEFF 		bl	chSysUnlock
 431              		.loc 6 103 0
 432 005c 3B68     		ldr	r3, [r7]
 433              		.loc 6 104 0
 434 005e 1846     		mov	r0, r3
 435 0060 1037     		adds	r7, r7, #16
 436 0062 BD46     		mov	sp, r7
 437              		@ sp needed
 438 0064 80BD     		pop	{r7, pc}
 439              	.L19:
 440 0066 00BF     		.align	2
 441              	.L18:
 442 0068 00000000 		.word	ch
 443 006c 00000000 		.word	__func__.6539
 444              		.cfi_endproc
 445              	.LFE229:
 446              		.size	chMsgSend, .-chMsgSend
 447              		.section	.text.chMsgWait,"ax",%progbits
 448              		.align	2
 449              		.p2align 4,,15
ARM GAS  C:\Users\Luis\AppData\Local\Temp\ccDV8U54.s 			page 9


 450              		.global	chMsgWait
 451              		.thumb
 452              		.thumb_func
 453              		.type	chMsgWait, %function
 454              	chMsgWait:
 455              	.LFB230:
 456              		.loc 6 120 0
 457              		.cfi_startproc
 458              		@ args = 0, pretend = 0, frame = 8
 459              		@ frame_needed = 1, uses_anonymous_args = 0
 460 0000 80B5     		push	{r7, lr}
 461              		.cfi_def_cfa_offset 8
 462              		.cfi_offset 7, -8
 463              		.cfi_offset 14, -4
 464 0002 82B0     		sub	sp, sp, #8
 465              		.cfi_def_cfa_offset 16
 466 0004 00AF     		add	r7, sp, #0
 467              		.cfi_def_cfa_register 7
 468              		.loc 6 123 0
 469 0006 FFF7FEFF 		bl	chSysLock
 470              		.loc 6 124 0
 471 000a 104B     		ldr	r3, .L23
 472 000c 9B69     		ldr	r3, [r3, #24]
 473 000e 1846     		mov	r0, r3
 474 0010 FFF7FEFF 		bl	chMsgIsPendingI
 475 0014 0346     		mov	r3, r0
 476 0016 83F00103 		eor	r3, r3, #1
 477 001a DBB2     		uxtb	r3, r3
 478 001c 002B     		cmp	r3, #0
 479 001e 02D0     		beq	.L21
 480              		.loc 6 125 0
 481 0020 0E20     		movs	r0, #14
 482 0022 FFF7FEFF 		bl	chSchGoSleepS
 483              	.L21:
 484              		.loc 6 127 0
 485 0026 094B     		ldr	r3, .L23
 486 0028 9B69     		ldr	r3, [r3, #24]
 487 002a 2C33     		adds	r3, r3, #44
 488 002c 1846     		mov	r0, r3
 489 002e FFF7FEFF 		bl	queue_fifo_remove
 490 0032 7860     		str	r0, [r7, #4]
 491              		.loc 6 128 0
 492 0034 7B68     		ldr	r3, [r7, #4]
 493 0036 0D22     		movs	r2, #13
 494 0038 83F82020 		strb	r2, [r3, #32]
 495              		.loc 6 129 0
 496 003c FFF7FEFF 		bl	chSysUnlock
 497              		.loc 6 131 0
 498 0040 7B68     		ldr	r3, [r7, #4]
 499              		.loc 6 132 0
 500 0042 1846     		mov	r0, r3
 501 0044 0837     		adds	r7, r7, #8
 502 0046 BD46     		mov	sp, r7
 503              		@ sp needed
 504 0048 80BD     		pop	{r7, pc}
 505              	.L24:
 506 004a 00BF     		.align	2
ARM GAS  C:\Users\Luis\AppData\Local\Temp\ccDV8U54.s 			page 10


 507              	.L23:
 508 004c 00000000 		.word	ch
 509              		.cfi_endproc
 510              	.LFE230:
 511              		.size	chMsgWait, .-chMsgWait
 512              		.section	.text.chMsgRelease,"ax",%progbits
 513              		.align	2
 514              		.p2align 4,,15
 515              		.global	chMsgRelease
 516              		.thumb
 517              		.thumb_func
 518              		.type	chMsgRelease, %function
 519              	chMsgRelease:
 520              	.LFB231:
 521              		.loc 6 144 0
 522              		.cfi_startproc
 523              		@ args = 0, pretend = 0, frame = 8
 524              		@ frame_needed = 1, uses_anonymous_args = 0
 525 0000 80B5     		push	{r7, lr}
 526              		.cfi_def_cfa_offset 8
 527              		.cfi_offset 7, -8
 528              		.cfi_offset 14, -4
 529 0002 82B0     		sub	sp, sp, #8
 530              		.cfi_def_cfa_offset 16
 531 0004 00AF     		add	r7, sp, #0
 532              		.cfi_def_cfa_register 7
 533 0006 7860     		str	r0, [r7, #4]
 534 0008 3960     		str	r1, [r7]
 535              		.loc 6 146 0
 536 000a FFF7FEFF 		bl	chSysLock
 537              		.loc 6 147 0
 538 000e 7B68     		ldr	r3, [r7, #4]
 539 0010 93F82030 		ldrb	r3, [r3, #32]	@ zero_extendqisi2
 540 0014 0D2B     		cmp	r3, #13
 541 0016 02D0     		beq	.L26
 542              		.loc 6 147 0 is_stmt 0 discriminator 1
 543 0018 0548     		ldr	r0, .L27
 544 001a FFF7FEFF 		bl	chSysHalt
 545              	.L26:
 546              		.loc 6 148 0 is_stmt 1
 547 001e 7868     		ldr	r0, [r7, #4]
 548 0020 3968     		ldr	r1, [r7]
 549 0022 FFF7FEFF 		bl	chMsgReleaseS
 550              		.loc 6 149 0
 551 0026 FFF7FEFF 		bl	chSysUnlock
 552              		.loc 6 150 0
 553 002a 0837     		adds	r7, r7, #8
 554 002c BD46     		mov	sp, r7
 555              		@ sp needed
 556 002e 80BD     		pop	{r7, pc}
 557              	.L28:
 558              		.align	2
 559              	.L27:
 560 0030 00000000 		.word	__func__.6548
 561              		.cfi_endproc
 562              	.LFE231:
 563              		.size	chMsgRelease, .-chMsgRelease
ARM GAS  C:\Users\Luis\AppData\Local\Temp\ccDV8U54.s 			page 11


 564 0034 AFF30080 		.section	.rodata.__func__.6539,"a",%progbits
 564      AFF30080 
 564      AFF30080 
 565              		.align	2
 566              		.type	__func__.6539, %object
 567              		.size	__func__.6539, 10
 568              	__func__.6539:
 569 0000 63684D73 		.ascii	"chMsgSend\000"
 569      6753656E 
 569      6400
 570 000a 0000     		.section	.rodata.__func__.5842,"a",%progbits
 571              		.align	2
 572              		.type	__func__.5842, %object
 573              		.size	__func__.5842, 12
 574              	__func__.5842:
 575 0000 63685379 		.ascii	"chSysUnlock\000"
 575      73556E6C 
 575      6F636B00 
 576              		.section	.rodata.__func__.6548,"a",%progbits
 577              		.align	2
 578              		.type	__func__.6548, %object
 579              		.size	__func__.6548, 13
 580              	__func__.6548:
 581 0000 63684D73 		.ascii	"chMsgRelease\000"
 581      6752656C 
 581      65617365 
 581      00
 582 000d 000000   		.text
 583              	.Letext0:
 584              		.file 7 "c:\\emtechesdk\\gcc\\arm-none-eabi\\include\\stdint.h"
 585              		.file 8 "../../ChibiOS/os/rt/ports/ARMCMx/compilers/GCC/chtypes.h"
 586              		.file 9 "../../ChibiOS/os/rt/include/chsystypes.h"
 587              		.file 10 "../../ChibiOS/os/rt/ports/ARMCMx/chcore.h"
 588              		.file 11 "../../ChibiOS/os/rt/include/chdebug.h"
 589              		.file 12 "../../ChibiOS/os/rt/include/chtm.h"
 590              		.file 13 "../../ChibiOS/os/rt/include/chstats.h"
 591              		.file 14 "../../ChibiOS/os/rt/include/chsem.h"
 592              		.file 15 "../../ChibiOS/os/rt/include/chmtx.h"
 593              		.file 16 "../../ChibiOS/os/ext/CMSIS/include/core_cm4.h"