ARM GAS  C:\Users\Luis\AppData\Local\Temp\cc2tUkgc.s 			page 1


   1              		.syntax unified
   2              		.cpu cortex-m4
   3              		.fpu softvfp
   4              		.eabi_attribute 20, 1
   5              		.eabi_attribute 21, 1
   6              		.eabi_attribute 23, 3
   7              		.eabi_attribute 24, 1
   8              		.eabi_attribute 25, 1
   9              		.eabi_attribute 26, 1
  10              		.eabi_attribute 30, 6
  11              		.eabi_attribute 34, 1
  12              		.eabi_attribute 18, 4
  13              		.thumb
  14              		.file	"chmtx.c"
  15              		.text
  16              	.Ltext0:
  17              		.cfi_sections	.debug_frame
  18              		.section	.text.port_lock,"ax",%progbits
  19              		.align	2
  20              		.p2align 4,,15
  21              		.thumb
  22              		.thumb_func
  23              		.type	port_lock, %function
  24              	port_lock:
  25              	.LFB116:
  26              		.file 1 "../../ChibiOS/os/rt/ports/ARMCMx/chcore_v7m.h"
  27              		.loc 1 444 0
  28              		.cfi_startproc
  29              		@ args = 0, pretend = 0, frame = 8
  30              		@ frame_needed = 1, uses_anonymous_args = 0
  31              		@ link register save eliminated.
  32 0000 80B4     		push	{r7}
  33              		.cfi_def_cfa_offset 4
  34              		.cfi_offset 7, -4
  35 0002 83B0     		sub	sp, sp, #12
  36              		.cfi_def_cfa_offset 16
  37 0004 00AF     		add	r7, sp, #0
  38              		.cfi_def_cfa_register 7
  39 0006 2023     		movs	r3, #32
  40 0008 7B60     		str	r3, [r7, #4]
  41              	.LBB6:
  42              	.LBB7:
  43              		.file 2 "../../ChibiOS/os/ext/CMSIS/include/core_cmFunc.h"
  44              		.loc 2 546 0
  45 000a 7B68     		ldr	r3, [r7, #4]
  46              	@ 546 "../../ChibiOS/os/ext/CMSIS/include/core_cmFunc.h" 1
  47 000c 83F31188 		MSR basepri, r3
  48              	@ 0 "" 2
  49              		.thumb
  50              	.LBE7:
  51              	.LBE6:
  52              		.loc 1 451 0
  53 0010 0C37     		adds	r7, r7, #12
  54 0012 BD46     		mov	sp, r7
  55              		@ sp needed
  56 0014 5DF8047B 		ldr	r7, [sp], #4
  57 0018 7047     		bx	lr
ARM GAS  C:\Users\Luis\AppData\Local\Temp\cc2tUkgc.s 			page 2


  58              		.cfi_endproc
  59              	.LFE116:
  60              		.size	port_lock, .-port_lock
  61 001a 00BFAFF3 		.section	.text.port_unlock,"ax",%progbits
  61      0080
  62              		.align	2
  63              		.p2align 4,,15
  64              		.thumb
  65              		.thumb_func
  66              		.type	port_unlock, %function
  67              	port_unlock:
  68              	.LFB117:
  69              		.loc 1 458 0
  70              		.cfi_startproc
  71              		@ args = 0, pretend = 0, frame = 8
  72              		@ frame_needed = 1, uses_anonymous_args = 0
  73              		@ link register save eliminated.
  74 0000 80B4     		push	{r7}
  75              		.cfi_def_cfa_offset 4
  76              		.cfi_offset 7, -4
  77 0002 83B0     		sub	sp, sp, #12
  78              		.cfi_def_cfa_offset 16
  79 0004 00AF     		add	r7, sp, #0
  80              		.cfi_def_cfa_register 7
  81 0006 0023     		movs	r3, #0
  82 0008 7B60     		str	r3, [r7, #4]
  83              	.LBB8:
  84              	.LBB9:
  85              		.loc 2 546 0
  86 000a 7B68     		ldr	r3, [r7, #4]
  87              	@ 546 "../../ChibiOS/os/ext/CMSIS/include/core_cmFunc.h" 1
  88 000c 83F31188 		MSR basepri, r3
  89              	@ 0 "" 2
  90              		.thumb
  91              	.LBE9:
  92              	.LBE8:
  93              		.loc 1 465 0
  94 0010 0C37     		adds	r7, r7, #12
  95 0012 BD46     		mov	sp, r7
  96              		@ sp needed
  97 0014 5DF8047B 		ldr	r7, [sp], #4
  98 0018 7047     		bx	lr
  99              		.cfi_endproc
 100              	.LFE117:
 101              		.size	port_unlock, .-port_unlock
 102 001a 00BFAFF3 		.section	.text.queue_init,"ax",%progbits
 102      0080
 103              		.align	2
 104              		.p2align 4,,15
 105              		.thumb
 106              		.thumb_func
 107              		.type	queue_init, %function
 108              	queue_init:
 109              	.LFB139:
 110              		.file 3 "../../ChibiOS/os/rt/include/chschd.h"
 111              		.loc 3 602 0
 112              		.cfi_startproc
ARM GAS  C:\Users\Luis\AppData\Local\Temp\cc2tUkgc.s 			page 3


 113              		@ args = 0, pretend = 0, frame = 8
 114              		@ frame_needed = 1, uses_anonymous_args = 0
 115              		@ link register save eliminated.
 116 0000 80B4     		push	{r7}
 117              		.cfi_def_cfa_offset 4
 118              		.cfi_offset 7, -4
 119 0002 83B0     		sub	sp, sp, #12
 120              		.cfi_def_cfa_offset 16
 121 0004 00AF     		add	r7, sp, #0
 122              		.cfi_def_cfa_register 7
 123 0006 7860     		str	r0, [r7, #4]
 124              		.loc 3 604 0
 125 0008 7B68     		ldr	r3, [r7, #4]
 126 000a 7A68     		ldr	r2, [r7, #4]
 127 000c 1A60     		str	r2, [r3]
 128              		.loc 3 605 0
 129 000e 7B68     		ldr	r3, [r7, #4]
 130 0010 7A68     		ldr	r2, [r7, #4]
 131 0012 5A60     		str	r2, [r3, #4]
 132              		.loc 3 606 0
 133 0014 0C37     		adds	r7, r7, #12
 134 0016 BD46     		mov	sp, r7
 135              		@ sp needed
 136 0018 5DF8047B 		ldr	r7, [sp], #4
 137 001c 7047     		bx	lr
 138              		.cfi_endproc
 139              	.LFE139:
 140              		.size	queue_init, .-queue_init
 141 001e 00BF     		.section	.text.queue_notempty,"ax",%progbits
 142              		.align	2
 143              		.p2align 4,,15
 144              		.thumb
 145              		.thumb_func
 146              		.type	queue_notempty, %function
 147              	queue_notempty:
 148              	.LFB141:
 149              		.loc 3 629 0
 150              		.cfi_startproc
 151              		@ args = 0, pretend = 0, frame = 8
 152              		@ frame_needed = 1, uses_anonymous_args = 0
 153              		@ link register save eliminated.
 154 0000 80B4     		push	{r7}
 155              		.cfi_def_cfa_offset 4
 156              		.cfi_offset 7, -4
 157 0002 83B0     		sub	sp, sp, #12
 158              		.cfi_def_cfa_offset 16
 159 0004 00AF     		add	r7, sp, #0
 160              		.cfi_def_cfa_register 7
 161 0006 7860     		str	r0, [r7, #4]
 162              		.loc 3 631 0
 163 0008 7B68     		ldr	r3, [r7, #4]
 164 000a 1A68     		ldr	r2, [r3]
 165 000c 7B68     		ldr	r3, [r7, #4]
 166 000e 9A42     		cmp	r2, r3
 167 0010 0CBF     		ite	eq
 168 0012 0023     		moveq	r3, #0
 169 0014 0123     		movne	r3, #1
ARM GAS  C:\Users\Luis\AppData\Local\Temp\cc2tUkgc.s 			page 4


 170 0016 DBB2     		uxtb	r3, r3
 171              		.loc 3 632 0
 172 0018 1846     		mov	r0, r3
 173 001a 0C37     		adds	r7, r7, #12
 174 001c BD46     		mov	sp, r7
 175              		@ sp needed
 176 001e 5DF8047B 		ldr	r7, [sp], #4
 177 0022 7047     		bx	lr
 178              		.cfi_endproc
 179              	.LFE141:
 180              		.size	queue_notempty, .-queue_notempty
 181 0024 AFF30080 		.section	.text.queue_prio_insert,"ax",%progbits
 181      AFF30080 
 181      AFF30080 
 182              		.align	2
 183              		.p2align 4,,15
 184              		.thumb
 185              		.thumb_func
 186              		.type	queue_prio_insert, %function
 187              	queue_prio_insert:
 188              	.LFB144:
 189              		.loc 3 651 0
 190              		.cfi_startproc
 191              		@ args = 0, pretend = 0, frame = 16
 192              		@ frame_needed = 1, uses_anonymous_args = 0
 193              		@ link register save eliminated.
 194 0000 80B4     		push	{r7}
 195              		.cfi_def_cfa_offset 4
 196              		.cfi_offset 7, -4
 197 0002 85B0     		sub	sp, sp, #20
 198              		.cfi_def_cfa_offset 24
 199 0004 00AF     		add	r7, sp, #0
 200              		.cfi_def_cfa_register 7
 201 0006 7860     		str	r0, [r7, #4]
 202 0008 3960     		str	r1, [r7]
 203              		.loc 3 653 0
 204 000a 3B68     		ldr	r3, [r7]
 205 000c FB60     		str	r3, [r7, #12]
 206              	.L8:
 207              		.loc 3 655 0 discriminator 1
 208 000e FB68     		ldr	r3, [r7, #12]
 209 0010 1B68     		ldr	r3, [r3]
 210 0012 FB60     		str	r3, [r7, #12]
 211              		.loc 3 656 0 discriminator 1
 212 0014 FA68     		ldr	r2, [r7, #12]
 213 0016 3B68     		ldr	r3, [r7]
 214 0018 9A42     		cmp	r2, r3
 215 001a 05D0     		beq	.L7
 216 001c FB68     		ldr	r3, [r7, #12]
 217 001e 9A68     		ldr	r2, [r3, #8]
 218 0020 7B68     		ldr	r3, [r7, #4]
 219 0022 9B68     		ldr	r3, [r3, #8]
 220 0024 9A42     		cmp	r2, r3
 221 0026 F2D2     		bcs	.L8
 222              	.L7:
 223              		.loc 3 657 0
 224 0028 7B68     		ldr	r3, [r7, #4]
ARM GAS  C:\Users\Luis\AppData\Local\Temp\cc2tUkgc.s 			page 5


 225 002a FA68     		ldr	r2, [r7, #12]
 226 002c 1A60     		str	r2, [r3]
 227              		.loc 3 658 0
 228 002e FB68     		ldr	r3, [r7, #12]
 229 0030 5A68     		ldr	r2, [r3, #4]
 230 0032 7B68     		ldr	r3, [r7, #4]
 231 0034 5A60     		str	r2, [r3, #4]
 232              		.loc 3 659 0
 233 0036 7B68     		ldr	r3, [r7, #4]
 234 0038 5B68     		ldr	r3, [r3, #4]
 235 003a 7A68     		ldr	r2, [r7, #4]
 236 003c 1A60     		str	r2, [r3]
 237              		.loc 3 660 0
 238 003e FB68     		ldr	r3, [r7, #12]
 239 0040 7A68     		ldr	r2, [r7, #4]
 240 0042 5A60     		str	r2, [r3, #4]
 241              		.loc 3 661 0
 242 0044 1437     		adds	r7, r7, #20
 243 0046 BD46     		mov	sp, r7
 244              		@ sp needed
 245 0048 5DF8047B 		ldr	r7, [sp], #4
 246 004c 7047     		bx	lr
 247              		.cfi_endproc
 248              	.LFE144:
 249              		.size	queue_prio_insert, .-queue_prio_insert
 250 004e 00BF     		.section	.text.queue_fifo_remove,"ax",%progbits
 251              		.align	2
 252              		.p2align 4,,15
 253              		.thumb
 254              		.thumb_func
 255              		.type	queue_fifo_remove, %function
 256              	queue_fifo_remove:
 257              	.LFB146:
 258              		.loc 3 671 0
 259              		.cfi_startproc
 260              		@ args = 0, pretend = 0, frame = 16
 261              		@ frame_needed = 1, uses_anonymous_args = 0
 262              		@ link register save eliminated.
 263 0000 80B4     		push	{r7}
 264              		.cfi_def_cfa_offset 4
 265              		.cfi_offset 7, -4
 266 0002 85B0     		sub	sp, sp, #20
 267              		.cfi_def_cfa_offset 24
 268 0004 00AF     		add	r7, sp, #0
 269              		.cfi_def_cfa_register 7
 270 0006 7860     		str	r0, [r7, #4]
 271              		.loc 3 672 0
 272 0008 7B68     		ldr	r3, [r7, #4]
 273 000a 1B68     		ldr	r3, [r3]
 274 000c FB60     		str	r3, [r7, #12]
 275              		.loc 3 674 0
 276 000e FB68     		ldr	r3, [r7, #12]
 277 0010 1A68     		ldr	r2, [r3]
 278 0012 7B68     		ldr	r3, [r7, #4]
 279 0014 1A60     		str	r2, [r3]
 280              		.loc 3 675 0
 281 0016 7B68     		ldr	r3, [r7, #4]
ARM GAS  C:\Users\Luis\AppData\Local\Temp\cc2tUkgc.s 			page 6


 282 0018 1B68     		ldr	r3, [r3]
 283 001a 7A68     		ldr	r2, [r7, #4]
 284 001c 5A60     		str	r2, [r3, #4]
 285              		.loc 3 677 0
 286 001e FB68     		ldr	r3, [r7, #12]
 287              		.loc 3 678 0
 288 0020 1846     		mov	r0, r3
 289 0022 1437     		adds	r7, r7, #20
 290 0024 BD46     		mov	sp, r7
 291              		@ sp needed
 292 0026 5DF8047B 		ldr	r7, [sp], #4
 293 002a 7047     		bx	lr
 294              		.cfi_endproc
 295              	.LFE146:
 296              		.size	queue_fifo_remove, .-queue_fifo_remove
 297 002c AFF30080 		.section	.text.queue_dequeue,"ax",%progbits
 298              		.align	2
 299              		.p2align 4,,15
 300              		.thumb
 301              		.thumb_func
 302              		.type	queue_dequeue, %function
 303              	queue_dequeue:
 304              	.LFB148:
 305              		.loc 3 689 0
 306              		.cfi_startproc
 307              		@ args = 0, pretend = 0, frame = 8
 308              		@ frame_needed = 1, uses_anonymous_args = 0
 309              		@ link register save eliminated.
 310 0000 80B4     		push	{r7}
 311              		.cfi_def_cfa_offset 4
 312              		.cfi_offset 7, -4
 313 0002 83B0     		sub	sp, sp, #12
 314              		.cfi_def_cfa_offset 16
 315 0004 00AF     		add	r7, sp, #0
 316              		.cfi_def_cfa_register 7
 317 0006 7860     		str	r0, [r7, #4]
 318              		.loc 3 691 0
 319 0008 7B68     		ldr	r3, [r7, #4]
 320 000a 5B68     		ldr	r3, [r3, #4]
 321 000c 7A68     		ldr	r2, [r7, #4]
 322 000e 1268     		ldr	r2, [r2]
 323 0010 1A60     		str	r2, [r3]
 324              		.loc 3 692 0
 325 0012 7B68     		ldr	r3, [r7, #4]
 326 0014 1B68     		ldr	r3, [r3]
 327 0016 7A68     		ldr	r2, [r7, #4]
 328 0018 5268     		ldr	r2, [r2, #4]
 329 001a 5A60     		str	r2, [r3, #4]
 330              		.loc 3 694 0
 331 001c 7B68     		ldr	r3, [r7, #4]
 332              		.loc 3 695 0
 333 001e 1846     		mov	r0, r3
 334 0020 0C37     		adds	r7, r7, #12
 335 0022 BD46     		mov	sp, r7
 336              		@ sp needed
 337 0024 5DF8047B 		ldr	r7, [sp], #4
 338 0028 7047     		bx	lr
ARM GAS  C:\Users\Luis\AppData\Local\Temp\cc2tUkgc.s 			page 7


 339              		.cfi_endproc
 340              	.LFE148:
 341              		.size	queue_dequeue, .-queue_dequeue
 342 002a 00BFAFF3 		.section	.text.chSysLock,"ax",%progbits
 342      0080
 343              		.align	2
 344              		.p2align 4,,15
 345              		.thumb
 346              		.thumb_func
 347              		.type	chSysLock, %function
 348              	chSysLock:
 349              	.LFB156:
 350              		.file 4 "../../ChibiOS/os/rt/include/chsys.h"
 351              		.loc 4 346 0
 352              		.cfi_startproc
 353              		@ args = 0, pretend = 0, frame = 0
 354              		@ frame_needed = 1, uses_anonymous_args = 0
 355 0000 80B5     		push	{r7, lr}
 356              		.cfi_def_cfa_offset 8
 357              		.cfi_offset 7, -8
 358              		.cfi_offset 14, -4
 359 0002 00AF     		add	r7, sp, #0
 360              		.cfi_def_cfa_register 7
 361              		.loc 4 348 0
 362 0004 FFF7FEFF 		bl	port_lock
 363              		.loc 4 349 0
 364 0008 FFF7FEFF 		bl	_stats_start_measure_crit_thd
 365              		.loc 4 350 0
 366 000c FFF7FEFF 		bl	_dbg_check_lock
 367              		.loc 4 351 0
 368 0010 80BD     		pop	{r7, pc}
 369              		.cfi_endproc
 370              	.LFE156:
 371              		.size	chSysLock, .-chSysLock
 372 0012 00BFAFF3 		.section	.text.chSysUnlock,"ax",%progbits
 372      0080AFF3 
 372      0080AFF3 
 372      0080
 373              		.align	2
 374              		.p2align 4,,15
 375              		.thumb
 376              		.thumb_func
 377              		.type	chSysUnlock, %function
 378              	chSysUnlock:
 379              	.LFB157:
 380              		.loc 4 358 0
 381              		.cfi_startproc
 382              		@ args = 0, pretend = 0, frame = 0
 383              		@ frame_needed = 1, uses_anonymous_args = 0
 384 0000 80B5     		push	{r7, lr}
 385              		.cfi_def_cfa_offset 8
 386              		.cfi_offset 7, -8
 387              		.cfi_offset 14, -4
 388 0002 00AF     		add	r7, sp, #0
 389              		.cfi_def_cfa_register 7
 390              		.loc 4 360 0
 391 0004 FFF7FEFF 		bl	_dbg_check_unlock
ARM GAS  C:\Users\Luis\AppData\Local\Temp\cc2tUkgc.s 			page 8


 392              		.loc 4 361 0
 393 0008 FFF7FEFF 		bl	_stats_stop_measure_crit_thd
 394              		.loc 4 367 0
 395 000c 094B     		ldr	r3, .L16
 396 000e 1A68     		ldr	r2, [r3]
 397 0010 084B     		ldr	r3, .L16
 398 0012 9A42     		cmp	r2, r3
 399 0014 0AD0     		beq	.L15
 400              		.loc 4 367 0 is_stmt 0 discriminator 1
 401 0016 074B     		ldr	r3, .L16
 402 0018 9B69     		ldr	r3, [r3, #24]
 403 001a 9A68     		ldr	r2, [r3, #8]
 404 001c 054B     		ldr	r3, .L16
 405 001e 1B68     		ldr	r3, [r3]
 406 0020 9B68     		ldr	r3, [r3, #8]
 407 0022 9A42     		cmp	r2, r3
 408 0024 02D2     		bcs	.L15
 409 0026 0448     		ldr	r0, .L16+4
 410 0028 FFF7FEFF 		bl	chSysHalt
 411              	.L15:
 412              		.loc 4 371 0 is_stmt 1
 413 002c FFF7FEFF 		bl	port_unlock
 414              		.loc 4 372 0
 415 0030 80BD     		pop	{r7, pc}
 416              	.L17:
 417 0032 00BF     		.align	2
 418              	.L16:
 419 0034 00000000 		.word	ch
 420 0038 00000000 		.word	__func__.5842
 421              		.cfi_endproc
 422              	.LFE157:
 423              		.size	chSysUnlock, .-chSysUnlock
 424 003c AFF30080 		.section	.text.chMtxQueueNotEmptyS,"ax",%progbits
 425              		.align	2
 426              		.p2align 4,,15
 427              		.thumb
 428              		.thumb_func
 429              		.type	chMtxQueueNotEmptyS, %function
 430              	chMtxQueueNotEmptyS:
 431              	.LFB202:
 432              		.file 5 "../../ChibiOS/os/rt/include/chmtx.h"
 433              		.loc 5 129 0
 434              		.cfi_startproc
 435              		@ args = 0, pretend = 0, frame = 8
 436              		@ frame_needed = 1, uses_anonymous_args = 0
 437 0000 80B5     		push	{r7, lr}
 438              		.cfi_def_cfa_offset 8
 439              		.cfi_offset 7, -8
 440              		.cfi_offset 14, -4
 441 0002 82B0     		sub	sp, sp, #8
 442              		.cfi_def_cfa_offset 16
 443 0004 00AF     		add	r7, sp, #0
 444              		.cfi_def_cfa_register 7
 445 0006 7860     		str	r0, [r7, #4]
 446              		.loc 5 131 0
 447 0008 FFF7FEFF 		bl	chDbgCheckClassS
 448              		.loc 5 133 0
ARM GAS  C:\Users\Luis\AppData\Local\Temp\cc2tUkgc.s 			page 9


 449 000c 7B68     		ldr	r3, [r7, #4]
 450 000e 1846     		mov	r0, r3
 451 0010 FFF7FEFF 		bl	queue_notempty
 452 0014 0346     		mov	r3, r0
 453              		.loc 5 134 0
 454 0016 1846     		mov	r0, r3
 455 0018 0837     		adds	r7, r7, #8
 456 001a BD46     		mov	sp, r7
 457              		@ sp needed
 458 001c 80BD     		pop	{r7, pc}
 459              		.cfi_endproc
 460              	.LFE202:
 461              		.size	chMtxQueueNotEmptyS, .-chMtxQueueNotEmptyS
 462 001e 00BF     		.section	.text.chMtxObjectInit,"ax",%progbits
 463              		.align	2
 464              		.p2align 4,,15
 465              		.global	chMtxObjectInit
 466              		.thumb
 467              		.thumb_func
 468              		.type	chMtxObjectInit, %function
 469              	chMtxObjectInit:
 470              	.LFB229:
 471              		.file 6 "../../ChibiOS/os/rt/src/chmtx.c"
 472              		.loc 6 103 0
 473              		.cfi_startproc
 474              		@ args = 0, pretend = 0, frame = 8
 475              		@ frame_needed = 1, uses_anonymous_args = 0
 476 0000 80B5     		push	{r7, lr}
 477              		.cfi_def_cfa_offset 8
 478              		.cfi_offset 7, -8
 479              		.cfi_offset 14, -4
 480 0002 82B0     		sub	sp, sp, #8
 481              		.cfi_def_cfa_offset 16
 482 0004 00AF     		add	r7, sp, #0
 483              		.cfi_def_cfa_register 7
 484 0006 7860     		str	r0, [r7, #4]
 485              		.loc 6 105 0
 486 0008 7B68     		ldr	r3, [r7, #4]
 487 000a 002B     		cmp	r3, #0
 488 000c 02D1     		bne	.L21
 489              		.loc 6 105 0 is_stmt 0 discriminator 1
 490 000e 0648     		ldr	r0, .L22
 491 0010 FFF7FEFF 		bl	chSysHalt
 492              	.L21:
 493              		.loc 6 107 0 is_stmt 1
 494 0014 7B68     		ldr	r3, [r7, #4]
 495 0016 1846     		mov	r0, r3
 496 0018 FFF7FEFF 		bl	queue_init
 497              		.loc 6 108 0
 498 001c 7B68     		ldr	r3, [r7, #4]
 499 001e 0022     		movs	r2, #0
 500 0020 9A60     		str	r2, [r3, #8]
 501              		.loc 6 112 0
 502 0022 0837     		adds	r7, r7, #8
 503 0024 BD46     		mov	sp, r7
 504              		@ sp needed
 505 0026 80BD     		pop	{r7, pc}
ARM GAS  C:\Users\Luis\AppData\Local\Temp\cc2tUkgc.s 			page 10


 506              	.L23:
 507              		.align	2
 508              	.L22:
 509 0028 00000000 		.word	__func__.6537
 510              		.cfi_endproc
 511              	.LFE229:
 512              		.size	chMtxObjectInit, .-chMtxObjectInit
 513 002c AFF30080 		.section	.text.chMtxLock,"ax",%progbits
 514              		.align	2
 515              		.p2align 4,,15
 516              		.global	chMtxLock
 517              		.thumb
 518              		.thumb_func
 519              		.type	chMtxLock, %function
 520              	chMtxLock:
 521              	.LFB230:
 522              		.loc 6 123 0
 523              		.cfi_startproc
 524              		@ args = 0, pretend = 0, frame = 8
 525              		@ frame_needed = 1, uses_anonymous_args = 0
 526 0000 80B5     		push	{r7, lr}
 527              		.cfi_def_cfa_offset 8
 528              		.cfi_offset 7, -8
 529              		.cfi_offset 14, -4
 530 0002 82B0     		sub	sp, sp, #8
 531              		.cfi_def_cfa_offset 16
 532 0004 00AF     		add	r7, sp, #0
 533              		.cfi_def_cfa_register 7
 534 0006 7860     		str	r0, [r7, #4]
 535              		.loc 6 125 0
 536 0008 FFF7FEFF 		bl	chSysLock
 537              		.loc 6 126 0
 538 000c 7868     		ldr	r0, [r7, #4]
 539 000e FFF7FEFF 		bl	chMtxLockS
 540              		.loc 6 127 0
 541 0012 FFF7FEFF 		bl	chSysUnlock
 542              		.loc 6 128 0
 543 0016 0837     		adds	r7, r7, #8
 544 0018 BD46     		mov	sp, r7
 545              		@ sp needed
 546 001a 80BD     		pop	{r7, pc}
 547              		.cfi_endproc
 548              	.LFE230:
 549              		.size	chMtxLock, .-chMtxLock
 550 001c AFF30080 		.section	.text.chMtxLockS,"ax",%progbits
 551              		.align	2
 552              		.p2align 4,,15
 553              		.global	chMtxLockS
 554              		.thumb
 555              		.thumb_func
 556              		.type	chMtxLockS, %function
 557              	chMtxLockS:
 558              	.LFB231:
 559              		.loc 6 139 0
 560              		.cfi_startproc
 561              		@ args = 0, pretend = 0, frame = 16
 562              		@ frame_needed = 1, uses_anonymous_args = 0
ARM GAS  C:\Users\Luis\AppData\Local\Temp\cc2tUkgc.s 			page 11


 563 0000 80B5     		push	{r7, lr}
 564              		.cfi_def_cfa_offset 8
 565              		.cfi_offset 7, -8
 566              		.cfi_offset 14, -4
 567 0002 84B0     		sub	sp, sp, #16
 568              		.cfi_def_cfa_offset 24
 569 0004 00AF     		add	r7, sp, #0
 570              		.cfi_def_cfa_register 7
 571 0006 7860     		str	r0, [r7, #4]
 572              		.loc 6 140 0
 573 0008 3B4B     		ldr	r3, .L40
 574 000a 9B69     		ldr	r3, [r3, #24]
 575 000c BB60     		str	r3, [r7, #8]
 576              		.loc 6 142 0
 577 000e FFF7FEFF 		bl	chDbgCheckClassS
 578              		.loc 6 143 0
 579 0012 7B68     		ldr	r3, [r7, #4]
 580 0014 002B     		cmp	r3, #0
 581 0016 02D1     		bne	.L26
 582              		.loc 6 143 0 is_stmt 0 discriminator 1
 583 0018 3848     		ldr	r0, .L40+4
 584 001a FFF7FEFF 		bl	chSysHalt
 585              	.L26:
 586              		.loc 6 146 0 is_stmt 1
 587 001e 7B68     		ldr	r3, [r7, #4]
 588 0020 9B68     		ldr	r3, [r3, #8]
 589 0022 002B     		cmp	r3, #0
 590 0024 5BD0     		beq	.L27
 591              	.LBB10:
 592              		.loc 6 161 0
 593 0026 7B68     		ldr	r3, [r7, #4]
 594 0028 9B68     		ldr	r3, [r3, #8]
 595 002a FB60     		str	r3, [r7, #12]
 596              		.loc 6 165 0
 597 002c 34E0     		b	.L28
 598              	.L35:
 599              		.loc 6 167 0
 600 002e BB68     		ldr	r3, [r7, #8]
 601 0030 9A68     		ldr	r2, [r3, #8]
 602 0032 FB68     		ldr	r3, [r7, #12]
 603 0034 9A60     		str	r2, [r3, #8]
 604              		.loc 6 170 0
 605 0036 FB68     		ldr	r3, [r7, #12]
 606 0038 93F82030 		ldrb	r3, [r3, #32]	@ zero_extendqisi2
 607 003c 062B     		cmp	r3, #6
 608 003e 04D0     		beq	.L30
 609 0040 072B     		cmp	r3, #7
 610 0042 11D0     		beq	.L31
 611 0044 002B     		cmp	r3, #0
 612 0046 1AD0     		beq	.L32
 613              		.loc 6 206 0
 614 0048 25E0     		b	.L33
 615              	.L30:
 616              		.loc 6 173 0
 617 004a F868     		ldr	r0, [r7, #12]
 618 004c FFF7FEFF 		bl	queue_dequeue
 619 0050 0246     		mov	r2, r0
ARM GAS  C:\Users\Luis\AppData\Local\Temp\cc2tUkgc.s 			page 12


 620 0052 FB68     		ldr	r3, [r7, #12]
 621 0054 5B6A     		ldr	r3, [r3, #36]
 622 0056 1046     		mov	r0, r2
 623 0058 1946     		mov	r1, r3
 624 005a FFF7FEFF 		bl	queue_prio_insert
 625              		.loc 6 174 0
 626 005e FB68     		ldr	r3, [r7, #12]
 627 0060 5B6A     		ldr	r3, [r3, #36]
 628 0062 9B68     		ldr	r3, [r3, #8]
 629 0064 FB60     		str	r3, [r7, #12]
 630              		.loc 6 176 0
 631 0066 17E0     		b	.L28
 632              	.L31:
 633              		.loc 6 193 0
 634 0068 F868     		ldr	r0, [r7, #12]
 635 006a FFF7FEFF 		bl	queue_dequeue
 636 006e 0246     		mov	r2, r0
 637 0070 FB68     		ldr	r3, [r7, #12]
 638 0072 5B6A     		ldr	r3, [r3, #36]
 639 0074 1046     		mov	r0, r2
 640 0076 1946     		mov	r1, r3
 641 0078 FFF7FEFF 		bl	queue_prio_insert
 642              		.loc 6 194 0
 643 007c 0BE0     		b	.L33
 644              	.L32:
 645              		.loc 6 199 0
 646 007e FB68     		ldr	r3, [r7, #12]
 647 0080 0122     		movs	r2, #1
 648 0082 83F82020 		strb	r2, [r3, #32]
 649              		.loc 6 202 0
 650 0086 F868     		ldr	r0, [r7, #12]
 651 0088 FFF7FEFF 		bl	queue_dequeue
 652 008c 0346     		mov	r3, r0
 653 008e 1846     		mov	r0, r3
 654 0090 FFF7FEFF 		bl	chSchReadyI
 655              		.loc 6 203 0
 656 0094 00BF     		nop
 657              	.L33:
 658              		.loc 6 208 0
 659 0096 05E0     		b	.L34
 660              	.L28:
 661              		.loc 6 165 0 discriminator 1
 662 0098 FB68     		ldr	r3, [r7, #12]
 663 009a 9A68     		ldr	r2, [r3, #8]
 664 009c BB68     		ldr	r3, [r7, #8]
 665 009e 9B68     		ldr	r3, [r3, #8]
 666 00a0 9A42     		cmp	r2, r3
 667 00a2 C4D3     		bcc	.L35
 668              	.L34:
 669              		.loc 6 212 0
 670 00a4 7B68     		ldr	r3, [r7, #4]
 671 00a6 B868     		ldr	r0, [r7, #8]
 672 00a8 1946     		mov	r1, r3
 673 00aa FFF7FEFF 		bl	queue_prio_insert
 674              		.loc 6 213 0
 675 00ae BB68     		ldr	r3, [r7, #8]
 676 00b0 7A68     		ldr	r2, [r7, #4]
ARM GAS  C:\Users\Luis\AppData\Local\Temp\cc2tUkgc.s 			page 13


 677 00b2 5A62     		str	r2, [r3, #36]
 678              		.loc 6 214 0
 679 00b4 0620     		movs	r0, #6
 680 00b6 FFF7FEFF 		bl	chSchGoSleepS
 681              		.loc 6 218 0
 682 00ba 7B68     		ldr	r3, [r7, #4]
 683 00bc 9A68     		ldr	r2, [r3, #8]
 684 00be BB68     		ldr	r3, [r7, #8]
 685 00c0 9A42     		cmp	r2, r3
 686 00c2 02D0     		beq	.L39
 687              		.loc 6 218 0 is_stmt 0 discriminator 1
 688 00c4 0D48     		ldr	r0, .L40+4
 689 00c6 FFF7FEFF 		bl	chSysHalt
 690              	.L39:
 691              		.loc 6 219 0 is_stmt 1 discriminator 1
 692 00ca BB68     		ldr	r3, [r7, #8]
 693 00cc DA6B     		ldr	r2, [r3, #60]
 694 00ce 7B68     		ldr	r3, [r7, #4]
 695 00d0 9A42     		cmp	r2, r3
 696 00d2 03D0     		beq	.L37
 697 00d4 0948     		ldr	r0, .L40+4
 698 00d6 FFF7FEFF 		bl	chSysHalt
 699              	.LBE10:
 700 00da 0AE0     		b	.L25
 701              	.L37:
 702 00dc 09E0     		b	.L25
 703              	.L27:
 704              		.loc 6 232 0
 705 00de 7B68     		ldr	r3, [r7, #4]
 706 00e0 BA68     		ldr	r2, [r7, #8]
 707 00e2 9A60     		str	r2, [r3, #8]
 708              		.loc 6 233 0
 709 00e4 BB68     		ldr	r3, [r7, #8]
 710 00e6 DA6B     		ldr	r2, [r3, #60]
 711 00e8 7B68     		ldr	r3, [r7, #4]
 712 00ea DA60     		str	r2, [r3, #12]
 713              		.loc 6 234 0
 714 00ec BB68     		ldr	r3, [r7, #8]
 715 00ee 7A68     		ldr	r2, [r7, #4]
 716 00f0 DA63     		str	r2, [r3, #60]
 717              	.L25:
 718              		.loc 6 236 0
 719 00f2 1037     		adds	r7, r7, #16
 720 00f4 BD46     		mov	sp, r7
 721              		@ sp needed
 722 00f6 80BD     		pop	{r7, pc}
 723              	.L41:
 724              		.align	2
 725              	.L40:
 726 00f8 00000000 		.word	ch
 727 00fc 00000000 		.word	__func__.6545
 728              		.cfi_endproc
 729              	.LFE231:
 730              		.size	chMtxLockS, .-chMtxLockS
 731              		.section	.text.chMtxTryLock,"ax",%progbits
 732              		.align	2
 733              		.p2align 4,,15
ARM GAS  C:\Users\Luis\AppData\Local\Temp\cc2tUkgc.s 			page 14


 734              		.global	chMtxTryLock
 735              		.thumb
 736              		.thumb_func
 737              		.type	chMtxTryLock, %function
 738              	chMtxTryLock:
 739              	.LFB232:
 740              		.loc 6 255 0
 741              		.cfi_startproc
 742              		@ args = 0, pretend = 0, frame = 16
 743              		@ frame_needed = 1, uses_anonymous_args = 0
 744 0000 80B5     		push	{r7, lr}
 745              		.cfi_def_cfa_offset 8
 746              		.cfi_offset 7, -8
 747              		.cfi_offset 14, -4
 748 0002 84B0     		sub	sp, sp, #16
 749              		.cfi_def_cfa_offset 24
 750 0004 00AF     		add	r7, sp, #0
 751              		.cfi_def_cfa_register 7
 752 0006 7860     		str	r0, [r7, #4]
 753              		.loc 6 258 0
 754 0008 FFF7FEFF 		bl	chSysLock
 755              		.loc 6 259 0
 756 000c 7868     		ldr	r0, [r7, #4]
 757 000e FFF7FEFF 		bl	chMtxTryLockS
 758 0012 0346     		mov	r3, r0
 759 0014 FB73     		strb	r3, [r7, #15]
 760              		.loc 6 260 0
 761 0016 FFF7FEFF 		bl	chSysUnlock
 762              		.loc 6 262 0
 763 001a FB7B     		ldrb	r3, [r7, #15]	@ zero_extendqisi2
 764              		.loc 6 263 0
 765 001c 1846     		mov	r0, r3
 766 001e 1037     		adds	r7, r7, #16
 767 0020 BD46     		mov	sp, r7
 768              		@ sp needed
 769 0022 80BD     		pop	{r7, pc}
 770              		.cfi_endproc
 771              	.LFE232:
 772              		.size	chMtxTryLock, .-chMtxTryLock
 773 0024 AFF30080 		.section	.text.chMtxTryLockS,"ax",%progbits
 773      AFF30080 
 773      AFF30080 
 774              		.align	2
 775              		.p2align 4,,15
 776              		.global	chMtxTryLockS
 777              		.thumb
 778              		.thumb_func
 779              		.type	chMtxTryLockS, %function
 780              	chMtxTryLockS:
 781              	.LFB233:
 782              		.loc 6 282 0
 783              		.cfi_startproc
 784              		@ args = 0, pretend = 0, frame = 8
 785              		@ frame_needed = 1, uses_anonymous_args = 0
 786 0000 80B5     		push	{r7, lr}
 787              		.cfi_def_cfa_offset 8
 788              		.cfi_offset 7, -8
ARM GAS  C:\Users\Luis\AppData\Local\Temp\cc2tUkgc.s 			page 15


 789              		.cfi_offset 14, -4
 790 0002 82B0     		sub	sp, sp, #8
 791              		.cfi_def_cfa_offset 16
 792 0004 00AF     		add	r7, sp, #0
 793              		.cfi_def_cfa_register 7
 794 0006 7860     		str	r0, [r7, #4]
 795              		.loc 6 284 0
 796 0008 FFF7FEFF 		bl	chDbgCheckClassS
 797              		.loc 6 285 0
 798 000c 7B68     		ldr	r3, [r7, #4]
 799 000e 002B     		cmp	r3, #0
 800 0010 02D1     		bne	.L45
 801              		.loc 6 285 0 is_stmt 0 discriminator 1
 802 0012 0D48     		ldr	r0, .L48
 803 0014 FFF7FEFF 		bl	chSysHalt
 804              	.L45:
 805              		.loc 6 287 0 is_stmt 1
 806 0018 7B68     		ldr	r3, [r7, #4]
 807 001a 9B68     		ldr	r3, [r3, #8]
 808 001c 002B     		cmp	r3, #0
 809 001e 01D0     		beq	.L46
 810              		.loc 6 297 0
 811 0020 0023     		movs	r3, #0
 812 0022 0DE0     		b	.L47
 813              	.L46:
 814              		.loc 6 305 0
 815 0024 094B     		ldr	r3, .L48+4
 816 0026 9A69     		ldr	r2, [r3, #24]
 817 0028 7B68     		ldr	r3, [r7, #4]
 818 002a 9A60     		str	r2, [r3, #8]
 819              		.loc 6 306 0
 820 002c 074B     		ldr	r3, .L48+4
 821 002e 9B69     		ldr	r3, [r3, #24]
 822 0030 DA6B     		ldr	r2, [r3, #60]
 823 0032 7B68     		ldr	r3, [r7, #4]
 824 0034 DA60     		str	r2, [r3, #12]
 825              		.loc 6 307 0
 826 0036 054B     		ldr	r3, .L48+4
 827 0038 9B69     		ldr	r3, [r3, #24]
 828 003a 7A68     		ldr	r2, [r7, #4]
 829 003c DA63     		str	r2, [r3, #60]
 830              		.loc 6 308 0
 831 003e 0123     		movs	r3, #1
 832              	.L47:
 833              		.loc 6 309 0
 834 0040 1846     		mov	r0, r3
 835 0042 0837     		adds	r7, r7, #8
 836 0044 BD46     		mov	sp, r7
 837              		@ sp needed
 838 0046 80BD     		pop	{r7, pc}
 839              	.L49:
 840              		.align	2
 841              	.L48:
 842 0048 00000000 		.word	__func__.6562
 843 004c 00000000 		.word	ch
 844              		.cfi_endproc
 845              	.LFE233:
ARM GAS  C:\Users\Luis\AppData\Local\Temp\cc2tUkgc.s 			page 16


 846              		.size	chMtxTryLockS, .-chMtxTryLockS
 847              		.section	.text.chMtxUnlock,"ax",%progbits
 848              		.align	2
 849              		.p2align 4,,15
 850              		.global	chMtxUnlock
 851              		.thumb
 852              		.thumb_func
 853              		.type	chMtxUnlock, %function
 854              	chMtxUnlock:
 855              	.LFB234:
 856              		.loc 6 323 0
 857              		.cfi_startproc
 858              		@ args = 0, pretend = 0, frame = 24
 859              		@ frame_needed = 1, uses_anonymous_args = 0
 860 0000 80B5     		push	{r7, lr}
 861              		.cfi_def_cfa_offset 8
 862              		.cfi_offset 7, -8
 863              		.cfi_offset 14, -4
 864 0002 86B0     		sub	sp, sp, #24
 865              		.cfi_def_cfa_offset 32
 866 0004 00AF     		add	r7, sp, #0
 867              		.cfi_def_cfa_register 7
 868 0006 7860     		str	r0, [r7, #4]
 869              		.loc 6 324 0
 870 0008 344B     		ldr	r3, .L62
 871 000a 9B69     		ldr	r3, [r3, #24]
 872 000c FB60     		str	r3, [r7, #12]
 873              		.loc 6 327 0
 874 000e 7B68     		ldr	r3, [r7, #4]
 875 0010 002B     		cmp	r3, #0
 876 0012 02D1     		bne	.L51
 877              		.loc 6 327 0 is_stmt 0 discriminator 1
 878 0014 3248     		ldr	r0, .L62+4
 879 0016 FFF7FEFF 		bl	chSysHalt
 880              	.L51:
 881              		.loc 6 329 0 is_stmt 1
 882 001a FFF7FEFF 		bl	chSysLock
 883              		.loc 6 331 0
 884 001e FB68     		ldr	r3, [r7, #12]
 885 0020 DB6B     		ldr	r3, [r3, #60]
 886 0022 002B     		cmp	r3, #0
 887 0024 02D1     		bne	.L60
 888              		.loc 6 331 0 is_stmt 0 discriminator 1
 889 0026 2E48     		ldr	r0, .L62+4
 890 0028 FFF7FEFF 		bl	chSysHalt
 891              	.L60:
 892              		.loc 6 332 0 is_stmt 1 discriminator 1
 893 002c FB68     		ldr	r3, [r7, #12]
 894 002e DB6B     		ldr	r3, [r3, #60]
 895 0030 9A68     		ldr	r2, [r3, #8]
 896 0032 FB68     		ldr	r3, [r7, #12]
 897 0034 9A42     		cmp	r2, r3
 898 0036 02D0     		beq	.L61
 899 0038 2948     		ldr	r0, .L62+4
 900 003a FFF7FEFF 		bl	chSysHalt
 901              	.L61:
 902              		.loc 6 339 0 discriminator 1
ARM GAS  C:\Users\Luis\AppData\Local\Temp\cc2tUkgc.s 			page 17


 903 003e FB68     		ldr	r3, [r7, #12]
 904 0040 DA6B     		ldr	r2, [r3, #60]
 905 0042 7B68     		ldr	r3, [r7, #4]
 906 0044 9A42     		cmp	r2, r3
 907 0046 02D0     		beq	.L54
 908 0048 2548     		ldr	r0, .L62+4
 909 004a FFF7FEFF 		bl	chSysHalt
 910              	.L54:
 911              		.loc 6 344 0
 912 004e 7B68     		ldr	r3, [r7, #4]
 913 0050 DA68     		ldr	r2, [r3, #12]
 914 0052 FB68     		ldr	r3, [r7, #12]
 915 0054 DA63     		str	r2, [r3, #60]
 916              		.loc 6 347 0
 917 0056 7868     		ldr	r0, [r7, #4]
 918 0058 FFF7FEFF 		bl	chMtxQueueNotEmptyS
 919 005c 0346     		mov	r3, r0
 920 005e 002B     		cmp	r3, #0
 921 0060 34D0     		beq	.L55
 922              	.LBB11:
 923              		.loc 6 352 0
 924 0062 FB68     		ldr	r3, [r7, #12]
 925 0064 1B6C     		ldr	r3, [r3, #64]
 926 0066 3B61     		str	r3, [r7, #16]
 927              		.loc 6 353 0
 928 0068 FB68     		ldr	r3, [r7, #12]
 929 006a DB6B     		ldr	r3, [r3, #60]
 930 006c 7B61     		str	r3, [r7, #20]
 931              		.loc 6 354 0
 932 006e 12E0     		b	.L56
 933              	.L58:
 934              		.loc 6 358 0
 935 0070 7869     		ldr	r0, [r7, #20]
 936 0072 FFF7FEFF 		bl	chMtxQueueNotEmptyS
 937 0076 0346     		mov	r3, r0
 938 0078 002B     		cmp	r3, #0
 939 007a 09D0     		beq	.L57
 940              		.loc 6 359 0 discriminator 1
 941 007c 7B69     		ldr	r3, [r7, #20]
 942 007e 1B68     		ldr	r3, [r3]
 943 0080 9A68     		ldr	r2, [r3, #8]
 944              		.loc 6 358 0 discriminator 1
 945 0082 3B69     		ldr	r3, [r7, #16]
 946 0084 9A42     		cmp	r2, r3
 947 0086 03D9     		bls	.L57
 948              		.loc 6 360 0
 949 0088 7B69     		ldr	r3, [r7, #20]
 950 008a 1B68     		ldr	r3, [r3]
 951 008c 9B68     		ldr	r3, [r3, #8]
 952 008e 3B61     		str	r3, [r7, #16]
 953              	.L57:
 954              		.loc 6 362 0
 955 0090 7B69     		ldr	r3, [r7, #20]
 956 0092 DB68     		ldr	r3, [r3, #12]
 957 0094 7B61     		str	r3, [r7, #20]
 958              	.L56:
 959              		.loc 6 354 0 discriminator 1
ARM GAS  C:\Users\Luis\AppData\Local\Temp\cc2tUkgc.s 			page 18


 960 0096 7B69     		ldr	r3, [r7, #20]
 961 0098 002B     		cmp	r3, #0
 962 009a E9D1     		bne	.L58
 963              		.loc 6 367 0
 964 009c FB68     		ldr	r3, [r7, #12]
 965 009e 3A69     		ldr	r2, [r7, #16]
 966 00a0 9A60     		str	r2, [r3, #8]
 967              		.loc 6 374 0
 968 00a2 7B68     		ldr	r3, [r7, #4]
 969 00a4 1846     		mov	r0, r3
 970 00a6 FFF7FEFF 		bl	queue_fifo_remove
 971 00aa B860     		str	r0, [r7, #8]
 972              		.loc 6 375 0
 973 00ac 7B68     		ldr	r3, [r7, #4]
 974 00ae BA68     		ldr	r2, [r7, #8]
 975 00b0 9A60     		str	r2, [r3, #8]
 976              		.loc 6 376 0
 977 00b2 BB68     		ldr	r3, [r7, #8]
 978 00b4 DA6B     		ldr	r2, [r3, #60]
 979 00b6 7B68     		ldr	r3, [r7, #4]
 980 00b8 DA60     		str	r2, [r3, #12]
 981              		.loc 6 377 0
 982 00ba BB68     		ldr	r3, [r7, #8]
 983 00bc 7A68     		ldr	r2, [r7, #4]
 984 00be DA63     		str	r2, [r3, #60]
 985              		.loc 6 383 0
 986 00c0 B868     		ldr	r0, [r7, #8]
 987 00c2 FFF7FEFF 		bl	chSchReadyI
 988              		.loc 6 384 0
 989 00c6 FFF7FEFF 		bl	chSchRescheduleS
 990              	.LBE11:
 991 00ca 02E0     		b	.L59
 992              	.L55:
 993              		.loc 6 387 0
 994 00cc 7B68     		ldr	r3, [r7, #4]
 995 00ce 0022     		movs	r2, #0
 996 00d0 9A60     		str	r2, [r3, #8]
 997              	.L59:
 998              		.loc 6 393 0
 999 00d2 FFF7FEFF 		bl	chSysUnlock
 1000              		.loc 6 394 0
 1001 00d6 1837     		adds	r7, r7, #24
 1002 00d8 BD46     		mov	sp, r7
 1003              		@ sp needed
 1004 00da 80BD     		pop	{r7, pc}
 1005              	.L63:
 1006              		.align	2
 1007              	.L62:
 1008 00dc 00000000 		.word	ch
 1009 00e0 00000000 		.word	__func__.6568
 1010              		.cfi_endproc
 1011              	.LFE234:
 1012              		.size	chMtxUnlock, .-chMtxUnlock
 1013 00e4 AFF30080 		.section	.text.chMtxUnlockS,"ax",%progbits
 1013      AFF30080 
 1013      AFF30080 
 1014              		.align	2
ARM GAS  C:\Users\Luis\AppData\Local\Temp\cc2tUkgc.s 			page 19


 1015              		.p2align 4,,15
 1016              		.global	chMtxUnlockS
 1017              		.thumb
 1018              		.thumb_func
 1019              		.type	chMtxUnlockS, %function
 1020              	chMtxUnlockS:
 1021              	.LFB235:
 1022              		.loc 6 410 0
 1023              		.cfi_startproc
 1024              		@ args = 0, pretend = 0, frame = 24
 1025              		@ frame_needed = 1, uses_anonymous_args = 0
 1026 0000 80B5     		push	{r7, lr}
 1027              		.cfi_def_cfa_offset 8
 1028              		.cfi_offset 7, -8
 1029              		.cfi_offset 14, -4
 1030 0002 86B0     		sub	sp, sp, #24
 1031              		.cfi_def_cfa_offset 32
 1032 0004 00AF     		add	r7, sp, #0
 1033              		.cfi_def_cfa_register 7
 1034 0006 7860     		str	r0, [r7, #4]
 1035              		.loc 6 411 0
 1036 0008 324B     		ldr	r3, .L77
 1037 000a 9B69     		ldr	r3, [r3, #24]
 1038 000c FB60     		str	r3, [r7, #12]
 1039              		.loc 6 414 0
 1040 000e FFF7FEFF 		bl	chDbgCheckClassS
 1041              		.loc 6 415 0
 1042 0012 7B68     		ldr	r3, [r7, #4]
 1043 0014 002B     		cmp	r3, #0
 1044 0016 02D1     		bne	.L74
 1045              		.loc 6 415 0 is_stmt 0 discriminator 1
 1046 0018 2F48     		ldr	r0, .L77+4
 1047 001a FFF7FEFF 		bl	chSysHalt
 1048              	.L74:
 1049              		.loc 6 417 0 is_stmt 1 discriminator 1
 1050 001e FB68     		ldr	r3, [r7, #12]
 1051 0020 DB6B     		ldr	r3, [r3, #60]
 1052 0022 002B     		cmp	r3, #0
 1053 0024 02D1     		bne	.L75
 1054 0026 2C48     		ldr	r0, .L77+4
 1055 0028 FFF7FEFF 		bl	chSysHalt
 1056              	.L75:
 1057              		.loc 6 418 0 discriminator 1
 1058 002c FB68     		ldr	r3, [r7, #12]
 1059 002e DB6B     		ldr	r3, [r3, #60]
 1060 0030 9A68     		ldr	r2, [r3, #8]
 1061 0032 FB68     		ldr	r3, [r7, #12]
 1062 0034 9A42     		cmp	r2, r3
 1063 0036 02D0     		beq	.L76
 1064 0038 2748     		ldr	r0, .L77+4
 1065 003a FFF7FEFF 		bl	chSysHalt
 1066              	.L76:
 1067              		.loc 6 425 0 discriminator 1
 1068 003e FB68     		ldr	r3, [r7, #12]
 1069 0040 DA6B     		ldr	r2, [r3, #60]
 1070 0042 7B68     		ldr	r3, [r7, #4]
 1071 0044 9A42     		cmp	r2, r3
ARM GAS  C:\Users\Luis\AppData\Local\Temp\cc2tUkgc.s 			page 20


 1072 0046 02D0     		beq	.L68
 1073 0048 2348     		ldr	r0, .L77+4
 1074 004a FFF7FEFF 		bl	chSysHalt
 1075              	.L68:
 1076              		.loc 6 430 0
 1077 004e 7B68     		ldr	r3, [r7, #4]
 1078 0050 DA68     		ldr	r2, [r3, #12]
 1079 0052 FB68     		ldr	r3, [r7, #12]
 1080 0054 DA63     		str	r2, [r3, #60]
 1081              		.loc 6 433 0
 1082 0056 7868     		ldr	r0, [r7, #4]
 1083 0058 FFF7FEFF 		bl	chMtxQueueNotEmptyS
 1084 005c 0346     		mov	r3, r0
 1085 005e 002B     		cmp	r3, #0
 1086 0060 32D0     		beq	.L69
 1087              	.LBB12:
 1088              		.loc 6 438 0
 1089 0062 FB68     		ldr	r3, [r7, #12]
 1090 0064 1B6C     		ldr	r3, [r3, #64]
 1091 0066 3B61     		str	r3, [r7, #16]
 1092              		.loc 6 439 0
 1093 0068 FB68     		ldr	r3, [r7, #12]
 1094 006a DB6B     		ldr	r3, [r3, #60]
 1095 006c 7B61     		str	r3, [r7, #20]
 1096              		.loc 6 440 0
 1097 006e 12E0     		b	.L70
 1098              	.L72:
 1099              		.loc 6 444 0
 1100 0070 7869     		ldr	r0, [r7, #20]
 1101 0072 FFF7FEFF 		bl	chMtxQueueNotEmptyS
 1102 0076 0346     		mov	r3, r0
 1103 0078 002B     		cmp	r3, #0
 1104 007a 09D0     		beq	.L71
 1105              		.loc 6 445 0 discriminator 1
 1106 007c 7B69     		ldr	r3, [r7, #20]
 1107 007e 1B68     		ldr	r3, [r3]
 1108 0080 9A68     		ldr	r2, [r3, #8]
 1109              		.loc 6 444 0 discriminator 1
 1110 0082 3B69     		ldr	r3, [r7, #16]
 1111 0084 9A42     		cmp	r2, r3
 1112 0086 03D9     		bls	.L71
 1113              		.loc 6 446 0
 1114 0088 7B69     		ldr	r3, [r7, #20]
 1115 008a 1B68     		ldr	r3, [r3]
 1116 008c 9B68     		ldr	r3, [r3, #8]
 1117 008e 3B61     		str	r3, [r7, #16]
 1118              	.L71:
 1119              		.loc 6 448 0
 1120 0090 7B69     		ldr	r3, [r7, #20]
 1121 0092 DB68     		ldr	r3, [r3, #12]
 1122 0094 7B61     		str	r3, [r7, #20]
 1123              	.L70:
 1124              		.loc 6 440 0 discriminator 1
 1125 0096 7B69     		ldr	r3, [r7, #20]
 1126 0098 002B     		cmp	r3, #0
 1127 009a E9D1     		bne	.L72
 1128              		.loc 6 453 0
ARM GAS  C:\Users\Luis\AppData\Local\Temp\cc2tUkgc.s 			page 21


 1129 009c FB68     		ldr	r3, [r7, #12]
 1130 009e 3A69     		ldr	r2, [r7, #16]
 1131 00a0 9A60     		str	r2, [r3, #8]
 1132              		.loc 6 460 0
 1133 00a2 7B68     		ldr	r3, [r7, #4]
 1134 00a4 1846     		mov	r0, r3
 1135 00a6 FFF7FEFF 		bl	queue_fifo_remove
 1136 00aa B860     		str	r0, [r7, #8]
 1137              		.loc 6 461 0
 1138 00ac 7B68     		ldr	r3, [r7, #4]
 1139 00ae BA68     		ldr	r2, [r7, #8]
 1140 00b0 9A60     		str	r2, [r3, #8]
 1141              		.loc 6 462 0
 1142 00b2 BB68     		ldr	r3, [r7, #8]
 1143 00b4 DA6B     		ldr	r2, [r3, #60]
 1144 00b6 7B68     		ldr	r3, [r7, #4]
 1145 00b8 DA60     		str	r2, [r3, #12]
 1146              		.loc 6 463 0
 1147 00ba BB68     		ldr	r3, [r7, #8]
 1148 00bc 7A68     		ldr	r2, [r7, #4]
 1149 00be DA63     		str	r2, [r3, #60]
 1150              		.loc 6 464 0
 1151 00c0 B868     		ldr	r0, [r7, #8]
 1152 00c2 FFF7FEFF 		bl	chSchReadyI
 1153              	.LBE12:
 1154 00c6 02E0     		b	.L64
 1155              	.L69:
 1156              		.loc 6 467 0
 1157 00c8 7B68     		ldr	r3, [r7, #4]
 1158 00ca 0022     		movs	r2, #0
 1159 00cc 9A60     		str	r2, [r3, #8]
 1160              	.L64:
 1161              		.loc 6 472 0
 1162 00ce 1837     		adds	r7, r7, #24
 1163 00d0 BD46     		mov	sp, r7
 1164              		@ sp needed
 1165 00d2 80BD     		pop	{r7, pc}
 1166              	.L78:
 1167              		.align	2
 1168              	.L77:
 1169 00d4 00000000 		.word	ch
 1170 00d8 00000000 		.word	__func__.6579
 1171              		.cfi_endproc
 1172              	.LFE235:
 1173              		.size	chMtxUnlockS, .-chMtxUnlockS
 1174 00dc AFF30080 		.section	.text.chMtxUnlockAll,"ax",%progbits
 1175              		.align	2
 1176              		.p2align 4,,15
 1177              		.global	chMtxUnlockAll
 1178              		.thumb
 1179              		.thumb_func
 1180              		.type	chMtxUnlockAll, %function
 1181              	chMtxUnlockAll:
 1182              	.LFB236:
 1183              		.loc 6 485 0
 1184              		.cfi_startproc
 1185              		@ args = 0, pretend = 0, frame = 16
ARM GAS  C:\Users\Luis\AppData\Local\Temp\cc2tUkgc.s 			page 22


 1186              		@ frame_needed = 1, uses_anonymous_args = 0
 1187 0000 80B5     		push	{r7, lr}
 1188              		.cfi_def_cfa_offset 8
 1189              		.cfi_offset 7, -8
 1190              		.cfi_offset 14, -4
 1191 0002 84B0     		sub	sp, sp, #16
 1192              		.cfi_def_cfa_offset 24
 1193 0004 00AF     		add	r7, sp, #0
 1194              		.cfi_def_cfa_register 7
 1195              		.loc 6 486 0
 1196 0006 1D4B     		ldr	r3, .L84
 1197 0008 9B69     		ldr	r3, [r3, #24]
 1198 000a FB60     		str	r3, [r7, #12]
 1199              		.loc 6 488 0
 1200 000c FFF7FEFF 		bl	chSysLock
 1201              		.loc 6 489 0
 1202 0010 FB68     		ldr	r3, [r7, #12]
 1203 0012 DB6B     		ldr	r3, [r3, #60]
 1204 0014 002B     		cmp	r3, #0
 1205 0016 2CD0     		beq	.L80
 1206              	.L83:
 1207              	.LBB13:
 1208              		.loc 6 491 0
 1209 0018 FB68     		ldr	r3, [r7, #12]
 1210 001a DB6B     		ldr	r3, [r3, #60]
 1211 001c BB60     		str	r3, [r7, #8]
 1212              		.loc 6 492 0
 1213 001e BB68     		ldr	r3, [r7, #8]
 1214 0020 DA68     		ldr	r2, [r3, #12]
 1215 0022 FB68     		ldr	r3, [r7, #12]
 1216 0024 DA63     		str	r2, [r3, #60]
 1217              		.loc 6 493 0
 1218 0026 B868     		ldr	r0, [r7, #8]
 1219 0028 FFF7FEFF 		bl	chMtxQueueNotEmptyS
 1220 002c 0346     		mov	r3, r0
 1221 002e 002B     		cmp	r3, #0
 1222 0030 12D0     		beq	.L81
 1223              	.LBB14:
 1224              		.loc 6 497 0
 1225 0032 BB68     		ldr	r3, [r7, #8]
 1226 0034 1846     		mov	r0, r3
 1227 0036 FFF7FEFF 		bl	queue_fifo_remove
 1228 003a 7860     		str	r0, [r7, #4]
 1229              		.loc 6 498 0
 1230 003c BB68     		ldr	r3, [r7, #8]
 1231 003e 7A68     		ldr	r2, [r7, #4]
 1232 0040 9A60     		str	r2, [r3, #8]
 1233              		.loc 6 499 0
 1234 0042 7B68     		ldr	r3, [r7, #4]
 1235 0044 DA6B     		ldr	r2, [r3, #60]
 1236 0046 BB68     		ldr	r3, [r7, #8]
 1237 0048 DA60     		str	r2, [r3, #12]
 1238              		.loc 6 500 0
 1239 004a 7B68     		ldr	r3, [r7, #4]
 1240 004c BA68     		ldr	r2, [r7, #8]
 1241 004e DA63     		str	r2, [r3, #60]
 1242              		.loc 6 501 0
ARM GAS  C:\Users\Luis\AppData\Local\Temp\cc2tUkgc.s 			page 23


 1243 0050 7868     		ldr	r0, [r7, #4]
 1244 0052 FFF7FEFF 		bl	chSchReadyI
 1245              	.LBE14:
 1246 0056 02E0     		b	.L82
 1247              	.L81:
 1248              		.loc 6 507 0
 1249 0058 BB68     		ldr	r3, [r7, #8]
 1250 005a 0022     		movs	r2, #0
 1251 005c 9A60     		str	r2, [r3, #8]
 1252              	.L82:
 1253              	.LBE13:
 1254              		.loc 6 509 0
 1255 005e FB68     		ldr	r3, [r7, #12]
 1256 0060 DB6B     		ldr	r3, [r3, #60]
 1257 0062 002B     		cmp	r3, #0
 1258 0064 D8D1     		bne	.L83
 1259              		.loc 6 510 0
 1260 0066 FB68     		ldr	r3, [r7, #12]
 1261 0068 1A6C     		ldr	r2, [r3, #64]
 1262 006a FB68     		ldr	r3, [r7, #12]
 1263 006c 9A60     		str	r2, [r3, #8]
 1264              		.loc 6 511 0
 1265 006e FFF7FEFF 		bl	chSchRescheduleS
 1266              	.L80:
 1267              		.loc 6 513 0
 1268 0072 FFF7FEFF 		bl	chSysUnlock
 1269              		.loc 6 514 0
 1270 0076 1037     		adds	r7, r7, #16
 1271 0078 BD46     		mov	sp, r7
 1272              		@ sp needed
 1273 007a 80BD     		pop	{r7, pc}
 1274              	.L85:
 1275              		.align	2
 1276              	.L84:
 1277 007c 00000000 		.word	ch
 1278              		.cfi_endproc
 1279              	.LFE236:
 1280              		.size	chMtxUnlockAll, .-chMtxUnlockAll
 1281              		.section	.rodata.__func__.6537,"a",%progbits
 1282              		.align	2
 1283              		.type	__func__.6537, %object
 1284              		.size	__func__.6537, 16
 1285              	__func__.6537:
 1286 0000 63684D74 		.ascii	"chMtxObjectInit\000"
 1286      784F626A 
 1286      65637449 
 1286      6E697400 
 1287              		.section	.rodata.__func__.5842,"a",%progbits
 1288              		.align	2
 1289              		.type	__func__.5842, %object
 1290              		.size	__func__.5842, 12
 1291              	__func__.5842:
 1292 0000 63685379 		.ascii	"chSysUnlock\000"
 1292      73556E6C 
 1292      6F636B00 
 1293              		.section	.rodata.__func__.6545,"a",%progbits
 1294              		.align	2
ARM GAS  C:\Users\Luis\AppData\Local\Temp\cc2tUkgc.s 			page 24


 1295              		.type	__func__.6545, %object
 1296              		.size	__func__.6545, 11
 1297              	__func__.6545:
 1298 0000 63684D74 		.ascii	"chMtxLockS\000"
 1298      784C6F63 
 1298      6B5300
 1299 000b 00       		.section	.rodata.__func__.6562,"a",%progbits
 1300              		.align	2
 1301              		.type	__func__.6562, %object
 1302              		.size	__func__.6562, 14
 1303              	__func__.6562:
 1304 0000 63684D74 		.ascii	"chMtxTryLockS\000"
 1304      78547279 
 1304      4C6F636B 
 1304      5300
 1305 000e 0000     		.section	.rodata.__func__.6568,"a",%progbits
 1306              		.align	2
 1307              		.type	__func__.6568, %object
 1308              		.size	__func__.6568, 12
 1309              	__func__.6568:
 1310 0000 63684D74 		.ascii	"chMtxUnlock\000"
 1310      78556E6C 
 1310      6F636B00 
 1311              		.section	.rodata.__func__.6579,"a",%progbits
 1312              		.align	2
 1313              		.type	__func__.6579, %object
 1314              		.size	__func__.6579, 13
 1315              	__func__.6579:
 1316 0000 63684D74 		.ascii	"chMtxUnlockS\000"
 1316      78556E6C 
 1316      6F636B53 
 1316      00
 1317 000d 000000   		.text
 1318              	.Letext0:
 1319              		.file 7 "c:\\emtechesdk\\gcc\\arm-none-eabi\\include\\stdint.h"
 1320              		.file 8 "../../ChibiOS/os/rt/ports/ARMCMx/compilers/GCC/chtypes.h"
 1321              		.file 9 "../../ChibiOS/os/rt/include/chsystypes.h"
 1322              		.file 10 "../../ChibiOS/os/rt/ports/ARMCMx/chcore.h"
 1323              		.file 11 "../../ChibiOS/os/rt/include/chdebug.h"
 1324              		.file 12 "../../ChibiOS/os/rt/include/chtm.h"
 1325              		.file 13 "../../ChibiOS/os/rt/include/chstats.h"
 1326              		.file 14 "../../ChibiOS/os/rt/include/chsem.h"
 1327              		.file 15 "../../ChibiOS/os/ext/CMSIS/include/core_cm4.h"