ARM GAS  C:\Users\Luis\AppData\Local\Temp\cce7KkEG.s 			page 1


   1              		.syntax unified
   2              		.cpu cortex-m4
   3              		.fpu softvfp
   4              		.eabi_attribute 20, 1
   5              		.eabi_attribute 21, 1
   6              		.eabi_attribute 23, 3
   7              		.eabi_attribute 24, 1
   8              		.eabi_attribute 25, 1
   9              		.eabi_attribute 26, 1
  10              		.eabi_attribute 30, 6
  11              		.eabi_attribute 34, 1
  12              		.eabi_attribute 18, 4
  13              		.thumb
  14              		.file	"chprintf.c"
  15              		.text
  16              	.Ltext0:
  17              		.cfi_sections	.debug_frame
  18              		.section	.text.long_to_string_with_divisor,"ax",%progbits
  19              		.align	2
  20              		.p2align 4,,15
  21              		.thumb
  22              		.thumb_func
  23              		.type	long_to_string_with_divisor, %function
  24              	long_to_string_with_divisor:
  25              	.LFB261:
  26              		.file 1 "../../ChibiOS/os/hal/lib/streams/chprintf.c"
  27              		.loc 1 40 0
  28              		.cfi_startproc
  29              		@ args = 0, pretend = 0, frame = 32
  30              		@ frame_needed = 1, uses_anonymous_args = 0
  31              		@ link register save eliminated.
  32 0000 80B4     		push	{r7}
  33              		.cfi_def_cfa_offset 4
  34              		.cfi_offset 7, -4
  35 0002 89B0     		sub	sp, sp, #36
  36              		.cfi_def_cfa_offset 40
  37 0004 00AF     		add	r7, sp, #0
  38              		.cfi_def_cfa_register 7
  39 0006 F860     		str	r0, [r7, #12]
  40 0008 B960     		str	r1, [r7, #8]
  41 000a 7A60     		str	r2, [r7, #4]
  42 000c 3B60     		str	r3, [r7]
  43              		.loc 1 45 0
  44 000e BB68     		ldr	r3, [r7, #8]
  45 0010 7B61     		str	r3, [r7, #20]
  46              		.loc 1 46 0
  47 0012 3B68     		ldr	r3, [r7]
  48 0014 002B     		cmp	r3, #0
  49 0016 02D1     		bne	.L2
  50              		.loc 1 47 0
  51 0018 BB68     		ldr	r3, [r7, #8]
  52 001a 3B61     		str	r3, [r7, #16]
  53 001c 01E0     		b	.L3
  54              	.L2:
  55              		.loc 1 49 0
  56 001e 3B68     		ldr	r3, [r7]
  57 0020 3B61     		str	r3, [r7, #16]
ARM GAS  C:\Users\Luis\AppData\Local\Temp\cce7KkEG.s 			page 2


  58              	.L3:
  59              		.loc 1 52 0
  60 0022 FB68     		ldr	r3, [r7, #12]
  61 0024 0B33     		adds	r3, r3, #11
  62 0026 BB61     		str	r3, [r7, #24]
  63              	.L5:
  64              		.loc 1 54 0
  65 0028 7B69     		ldr	r3, [r7, #20]
  66 002a 7A68     		ldr	r2, [r7, #4]
  67 002c B3FBF2F2 		udiv	r2, r3, r2
  68 0030 7968     		ldr	r1, [r7, #4]
  69 0032 01FB02F2 		mul	r2, r1, r2
  70 0036 9B1A     		subs	r3, r3, r2
  71 0038 FB61     		str	r3, [r7, #28]
  72              		.loc 1 55 0
  73 003a FB69     		ldr	r3, [r7, #28]
  74 003c 3033     		adds	r3, r3, #48
  75 003e FB61     		str	r3, [r7, #28]
  76              		.loc 1 56 0
  77 0040 FB69     		ldr	r3, [r7, #28]
  78 0042 392B     		cmp	r3, #57
  79 0044 02DD     		ble	.L4
  80              		.loc 1 57 0
  81 0046 FB69     		ldr	r3, [r7, #28]
  82 0048 0733     		adds	r3, r3, #7
  83 004a FB61     		str	r3, [r7, #28]
  84              	.L4:
  85              		.loc 1 58 0
  86 004c BB69     		ldr	r3, [r7, #24]
  87 004e 013B     		subs	r3, r3, #1
  88 0050 BB61     		str	r3, [r7, #24]
  89 0052 FB69     		ldr	r3, [r7, #28]
  90 0054 DAB2     		uxtb	r2, r3
  91 0056 BB69     		ldr	r3, [r7, #24]
  92 0058 1A70     		strb	r2, [r3]
  93              		.loc 1 59 0
  94 005a 7A69     		ldr	r2, [r7, #20]
  95 005c 7B68     		ldr	r3, [r7, #4]
  96 005e B2FBF3F3 		udiv	r3, r2, r3
  97 0062 7B61     		str	r3, [r7, #20]
  98              		.loc 1 60 0
  99 0064 3A69     		ldr	r2, [r7, #16]
 100 0066 7B68     		ldr	r3, [r7, #4]
 101 0068 B2FBF3F3 		udiv	r3, r2, r3
 102 006c 3B61     		str	r3, [r7, #16]
 103 006e 3B69     		ldr	r3, [r7, #16]
 104 0070 002B     		cmp	r3, #0
 105 0072 D9D1     		bne	.L5
 106              		.loc 1 62 0
 107 0074 FB68     		ldr	r3, [r7, #12]
 108 0076 0B33     		adds	r3, r3, #11
 109 0078 1A46     		mov	r2, r3
 110 007a BB69     		ldr	r3, [r7, #24]
 111 007c D31A     		subs	r3, r2, r3
 112 007e FB61     		str	r3, [r7, #28]
 113              	.L6:
 114              		.loc 1 64 0 discriminator 1
ARM GAS  C:\Users\Luis\AppData\Local\Temp\cce7KkEG.s 			page 3


 115 0080 FB68     		ldr	r3, [r7, #12]
 116 0082 5A1C     		adds	r2, r3, #1
 117 0084 FA60     		str	r2, [r7, #12]
 118 0086 BA69     		ldr	r2, [r7, #24]
 119 0088 511C     		adds	r1, r2, #1
 120 008a B961     		str	r1, [r7, #24]
 121 008c 1278     		ldrb	r2, [r2]	@ zero_extendqisi2
 122 008e 1A70     		strb	r2, [r3]
 123              		.loc 1 65 0 discriminator 1
 124 0090 FB69     		ldr	r3, [r7, #28]
 125 0092 013B     		subs	r3, r3, #1
 126 0094 FB61     		str	r3, [r7, #28]
 127 0096 FB69     		ldr	r3, [r7, #28]
 128 0098 002B     		cmp	r3, #0
 129 009a F1D1     		bne	.L6
 130              		.loc 1 67 0
 131 009c FB68     		ldr	r3, [r7, #12]
 132              		.loc 1 68 0
 133 009e 1846     		mov	r0, r3
 134 00a0 2437     		adds	r7, r7, #36
 135 00a2 BD46     		mov	sp, r7
 136              		@ sp needed
 137 00a4 5DF8047B 		ldr	r7, [sp], #4
 138 00a8 7047     		bx	lr
 139              		.cfi_endproc
 140              	.LFE261:
 141              		.size	long_to_string_with_divisor, .-long_to_string_with_divisor
 142 00aa 00BFAFF3 		.section	.text.ch_ltoa,"ax",%progbits
 142      0080
 143              		.align	2
 144              		.p2align 4,,15
 145              		.thumb
 146              		.thumb_func
 147              		.type	ch_ltoa, %function
 148              	ch_ltoa:
 149              	.LFB262:
 150              		.loc 1 70 0
 151              		.cfi_startproc
 152              		@ args = 0, pretend = 0, frame = 16
 153              		@ frame_needed = 1, uses_anonymous_args = 0
 154 0000 80B5     		push	{r7, lr}
 155              		.cfi_def_cfa_offset 8
 156              		.cfi_offset 7, -8
 157              		.cfi_offset 14, -4
 158 0002 84B0     		sub	sp, sp, #16
 159              		.cfi_def_cfa_offset 24
 160 0004 00AF     		add	r7, sp, #0
 161              		.cfi_def_cfa_register 7
 162 0006 F860     		str	r0, [r7, #12]
 163 0008 B960     		str	r1, [r7, #8]
 164 000a 7A60     		str	r2, [r7, #4]
 165              		.loc 1 72 0
 166 000c F868     		ldr	r0, [r7, #12]
 167 000e B968     		ldr	r1, [r7, #8]
 168 0010 7A68     		ldr	r2, [r7, #4]
 169 0012 0023     		movs	r3, #0
 170 0014 FFF7FEFF 		bl	long_to_string_with_divisor
ARM GAS  C:\Users\Luis\AppData\Local\Temp\cce7KkEG.s 			page 4


 171 0018 0346     		mov	r3, r0
 172              		.loc 1 73 0
 173 001a 1846     		mov	r0, r3
 174 001c 1037     		adds	r7, r7, #16
 175 001e BD46     		mov	sp, r7
 176              		@ sp needed
 177 0020 80BD     		pop	{r7, pc}
 178              		.cfi_endproc
 179              	.LFE262:
 180              		.size	ch_ltoa, .-ch_ltoa
 181 0022 00BFAFF3 		.section	.rodata.pow10,"a",%progbits
 181      0080AFF3 
 181      0080AFF3 
 181      0080
 182              		.align	2
 183              		.type	pow10, %object
 184              		.size	pow10, 36
 185              	pow10:
 186 0000 0A000000 		.word	10
 187 0004 64000000 		.word	100
 188 0008 E8030000 		.word	1000
 189 000c 10270000 		.word	10000
 190 0010 A0860100 		.word	100000
 191 0014 40420F00 		.word	1000000
 192 0018 80969800 		.word	10000000
 193 001c 00E1F505 		.word	100000000
 194 0020 00CA9A3B 		.word	1000000000
 195              		.global	__aeabi_d2iz
 196              		.global	__aeabi_i2d
 197              		.global	__aeabi_dsub
 198              		.global	__aeabi_ui2d
 199              		.global	__aeabi_dmul
 200              		.section	.text.ftoa,"ax",%progbits
 201              		.align	2
 202              		.p2align 4,,15
 203              		.thumb
 204              		.thumb_func
 205              		.type	ftoa, %function
 206              	ftoa:
 207              	.LFB263:
 208              		.loc 1 80 0
 209              		.cfi_startproc
 210              		@ args = 4, pretend = 0, frame = 24
 211              		@ frame_needed = 1, uses_anonymous_args = 0
 212 0000 B0B5     		push	{r4, r5, r7, lr}
 213              		.cfi_def_cfa_offset 16
 214              		.cfi_offset 4, -16
 215              		.cfi_offset 5, -12
 216              		.cfi_offset 7, -8
 217              		.cfi_offset 14, -4
 218 0002 86B0     		sub	sp, sp, #24
 219              		.cfi_def_cfa_offset 40
 220 0004 00AF     		add	r7, sp, #0
 221              		.cfi_def_cfa_register 7
 222 0006 F860     		str	r0, [r7, #12]
 223 0008 C7E90023 		strd	r2, [r7]
 224              		.loc 1 83 0
ARM GAS  C:\Users\Luis\AppData\Local\Temp\cce7KkEG.s 			page 5


 225 000c BB6A     		ldr	r3, [r7, #40]
 226 000e 002B     		cmp	r3, #0
 227 0010 02D0     		beq	.L11
 228              		.loc 1 83 0 is_stmt 0 discriminator 1
 229 0012 BB6A     		ldr	r3, [r7, #40]
 230 0014 092B     		cmp	r3, #9
 231 0016 01D9     		bls	.L12
 232              	.L11:
 233              		.loc 1 84 0 is_stmt 1
 234 0018 0923     		movs	r3, #9
 235 001a BB62     		str	r3, [r7, #40]
 236              	.L12:
 237              		.loc 1 85 0
 238 001c BB6A     		ldr	r3, [r7, #40]
 239 001e 5A1E     		subs	r2, r3, #1
 240 0020 214B     		ldr	r3, .L14
 241 0022 53F82230 		ldr	r3, [r3, r2, lsl #2]
 242 0026 BB62     		str	r3, [r7, #40]
 243              		.loc 1 87 0
 244 0028 D7E90001 		ldrd	r0, [r7]
 245 002c FFF7FEFF 		bl	__aeabi_d2iz
 246 0030 0346     		mov	r3, r0
 247 0032 7B61     		str	r3, [r7, #20]
 248              		.loc 1 88 0
 249 0034 F868     		ldr	r0, [r7, #12]
 250 0036 7969     		ldr	r1, [r7, #20]
 251 0038 0A22     		movs	r2, #10
 252 003a 0023     		movs	r3, #0
 253 003c FFF7FEFF 		bl	long_to_string_with_divisor
 254 0040 F860     		str	r0, [r7, #12]
 255              		.loc 1 89 0
 256 0042 FB68     		ldr	r3, [r7, #12]
 257 0044 5A1C     		adds	r2, r3, #1
 258 0046 FA60     		str	r2, [r7, #12]
 259 0048 2E22     		movs	r2, #46
 260 004a 1A70     		strb	r2, [r3]
 261              		.loc 1 90 0
 262 004c 7869     		ldr	r0, [r7, #20]
 263 004e FFF7FEFF 		bl	__aeabi_i2d
 264 0052 0246     		mov	r2, r0
 265 0054 0B46     		mov	r3, r1
 266 0056 D7E90001 		ldrd	r0, [r7]
 267 005a FFF7FEFF 		bl	__aeabi_dsub
 268 005e 0246     		mov	r2, r0
 269 0060 0B46     		mov	r3, r1
 270 0062 1446     		mov	r4, r2
 271 0064 1D46     		mov	r5, r3
 272 0066 B86A     		ldr	r0, [r7, #40]
 273 0068 FFF7FEFF 		bl	__aeabi_ui2d
 274 006c 0246     		mov	r2, r0
 275 006e 0B46     		mov	r3, r1
 276 0070 2046     		mov	r0, r4
 277 0072 2946     		mov	r1, r5
 278 0074 FFF7FEFF 		bl	__aeabi_dmul
 279 0078 0246     		mov	r2, r0
 280 007a 0B46     		mov	r3, r1
 281 007c 1046     		mov	r0, r2
ARM GAS  C:\Users\Luis\AppData\Local\Temp\cce7KkEG.s 			page 6


 282 007e 1946     		mov	r1, r3
 283 0080 FFF7FEFF 		bl	__aeabi_d2iz
 284 0084 0346     		mov	r3, r0
 285 0086 7B61     		str	r3, [r7, #20]
 286              		.loc 1 91 0
 287 0088 BA6A     		ldr	r2, [r7, #40]
 288 008a 084B     		ldr	r3, .L14+4
 289 008c A3FB0213 		umull	r1, r3, r3, r2
 290 0090 DB08     		lsrs	r3, r3, #3
 291 0092 F868     		ldr	r0, [r7, #12]
 292 0094 7969     		ldr	r1, [r7, #20]
 293 0096 0A22     		movs	r2, #10
 294 0098 FFF7FEFF 		bl	long_to_string_with_divisor
 295 009c 0346     		mov	r3, r0
 296              		.loc 1 92 0
 297 009e 1846     		mov	r0, r3
 298 00a0 1837     		adds	r7, r7, #24
 299 00a2 BD46     		mov	sp, r7
 300              		@ sp needed
 301 00a4 B0BD     		pop	{r4, r5, r7, pc}
 302              	.L15:
 303 00a6 00BF     		.align	2
 304              	.L14:
 305 00a8 00000000 		.word	pow10
 306 00ac CDCCCCCC 		.word	-858993459
 307              		.cfi_endproc
 308              	.LFE263:
 309              		.size	ftoa, .-ftoa
 310              		.section	.rodata
 311              		.align	2
 312              	.LC0:
 313 0000 286E756C 		.ascii	"(null)\000"
 313      6C2900
 314              		.global	__aeabi_d2f
 315              		.global	__aeabi_fcmplt
 316              		.global	__aeabi_f2d
 317 0007 00       		.section	.text.chvprintf,"ax",%progbits
 318              		.align	2
 319              		.p2align 4,,15
 320              		.global	chvprintf
 321              		.thumb
 322              		.thumb_func
 323              		.type	chvprintf, %function
 324              	chvprintf:
 325              	.LFB264:
 326              		.loc 1 121 0
 327              		.cfi_startproc
 328              		@ args = 0, pretend = 0, frame = 80
 329              		@ frame_needed = 1, uses_anonymous_args = 0
 330 0000 80B5     		push	{r7, lr}
 331              		.cfi_def_cfa_offset 8
 332              		.cfi_offset 7, -8
 333              		.cfi_offset 14, -4
 334 0002 96B0     		sub	sp, sp, #88
 335              		.cfi_def_cfa_offset 96
 336 0004 02AF     		add	r7, sp, #8
 337              		.cfi_def_cfa 7, 88
ARM GAS  C:\Users\Luis\AppData\Local\Temp\cce7KkEG.s 			page 7


 338 0006 F860     		str	r0, [r7, #12]
 339 0008 B960     		str	r1, [r7, #8]
 340 000a 7A60     		str	r2, [r7, #4]
 341              		.loc 1 124 0
 342 000c 0023     		movs	r3, #0
 343 000e 7B63     		str	r3, [r7, #52]
 344              	.L70:
 345              		.loc 1 135 0
 346 0010 BB68     		ldr	r3, [r7, #8]
 347 0012 5A1C     		adds	r2, r3, #1
 348 0014 BA60     		str	r2, [r7, #8]
 349 0016 1B78     		ldrb	r3, [r3]
 350 0018 87F84730 		strb	r3, [r7, #71]
 351              		.loc 1 136 0
 352 001c 97F84730 		ldrb	r3, [r7, #71]	@ zero_extendqisi2
 353 0020 002B     		cmp	r3, #0
 354 0022 01D1     		bne	.L17
 355              		.loc 1 137 0
 356 0024 7B6B     		ldr	r3, [r7, #52]
 357 0026 3FE2     		b	.L72
 358              	.L17:
 359              		.loc 1 138 0
 360 0028 97F84730 		ldrb	r3, [r7, #71]	@ zero_extendqisi2
 361 002c 252B     		cmp	r3, #37
 362 002e 0BD0     		beq	.L19
 363              		.loc 1 139 0
 364 0030 FB68     		ldr	r3, [r7, #12]
 365 0032 1B68     		ldr	r3, [r3]
 366 0034 9B68     		ldr	r3, [r3, #8]
 367 0036 97F84720 		ldrb	r2, [r7, #71]	@ zero_extendqisi2
 368 003a F868     		ldr	r0, [r7, #12]
 369 003c 1146     		mov	r1, r2
 370 003e 9847     		blx	r3
 371              		.loc 1 140 0
 372 0040 7B6B     		ldr	r3, [r7, #52]
 373 0042 0133     		adds	r3, r3, #1
 374 0044 7B63     		str	r3, [r7, #52]
 375              		.loc 1 141 0
 376 0046 2EE2     		b	.L20
 377              	.L19:
 378              		.loc 1 143 0
 379 0048 07F11003 		add	r3, r7, #16
 380 004c FB64     		str	r3, [r7, #76]
 381              		.loc 1 144 0
 382 004e 07F11003 		add	r3, r7, #16
 383 0052 BB64     		str	r3, [r7, #72]
 384              		.loc 1 145 0
 385 0054 0023     		movs	r3, #0
 386 0056 87F83230 		strb	r3, [r7, #50]
 387              		.loc 1 146 0
 388 005a BB68     		ldr	r3, [r7, #8]
 389 005c 1B78     		ldrb	r3, [r3]	@ zero_extendqisi2
 390 005e 2D2B     		cmp	r3, #45
 391 0060 05D1     		bne	.L21
 392              		.loc 1 147 0
 393 0062 BB68     		ldr	r3, [r7, #8]
 394 0064 0133     		adds	r3, r3, #1
ARM GAS  C:\Users\Luis\AppData\Local\Temp\cce7KkEG.s 			page 8


 395 0066 BB60     		str	r3, [r7, #8]
 396              		.loc 1 148 0
 397 0068 0123     		movs	r3, #1
 398 006a 87F83230 		strb	r3, [r7, #50]
 399              	.L21:
 400              		.loc 1 150 0
 401 006e 2023     		movs	r3, #32
 402 0070 87F84630 		strb	r3, [r7, #70]
 403              		.loc 1 151 0
 404 0074 BB68     		ldr	r3, [r7, #8]
 405 0076 1B78     		ldrb	r3, [r3]	@ zero_extendqisi2
 406 0078 302B     		cmp	r3, #48
 407 007a 05D1     		bne	.L22
 408              		.loc 1 152 0
 409 007c BB68     		ldr	r3, [r7, #8]
 410 007e 0133     		adds	r3, r3, #1
 411 0080 BB60     		str	r3, [r7, #8]
 412              		.loc 1 153 0
 413 0082 3023     		movs	r3, #48
 414 0084 87F84630 		strb	r3, [r7, #70]
 415              	.L22:
 416              		.loc 1 155 0
 417 0088 0023     		movs	r3, #0
 418 008a BB63     		str	r3, [r7, #56]
 419              	.L27:
 420              		.loc 1 157 0
 421 008c BB68     		ldr	r3, [r7, #8]
 422 008e 5A1C     		adds	r2, r3, #1
 423 0090 BA60     		str	r2, [r7, #8]
 424 0092 1B78     		ldrb	r3, [r3]
 425 0094 87F84730 		strb	r3, [r7, #71]
 426              		.loc 1 158 0
 427 0098 97F84730 		ldrb	r3, [r7, #71]	@ zero_extendqisi2
 428 009c 2F2B     		cmp	r3, #47
 429 009e 09D9     		bls	.L23
 430              		.loc 1 158 0 is_stmt 0 discriminator 1
 431 00a0 97F84730 		ldrb	r3, [r7, #71]	@ zero_extendqisi2
 432 00a4 392B     		cmp	r3, #57
 433 00a6 05D8     		bhi	.L23
 434              		.loc 1 159 0 is_stmt 1
 435 00a8 97F84730 		ldrb	r3, [r7, #71]
 436 00ac 303B     		subs	r3, r3, #48
 437 00ae 87F84730 		strb	r3, [r7, #71]
 438 00b2 12E0     		b	.L24
 439              	.L23:
 440              		.loc 1 160 0
 441 00b4 97F84730 		ldrb	r3, [r7, #71]	@ zero_extendqisi2
 442 00b8 2A2B     		cmp	r3, #42
 443 00ba 06D1     		bne	.L25
 444              		.loc 1 161 0
 445 00bc 7B68     		ldr	r3, [r7, #4]
 446 00be 1A1D     		adds	r2, r3, #4
 447 00c0 7A60     		str	r2, [r7, #4]
 448 00c2 1B68     		ldr	r3, [r3]
 449 00c4 87F84730 		strb	r3, [r7, #71]
 450 00c8 07E0     		b	.L24
 451              	.L25:
ARM GAS  C:\Users\Luis\AppData\Local\Temp\cce7KkEG.s 			page 9


 452              		.loc 1 163 0
 453 00ca 00BF     		nop
 454              		.loc 1 166 0
 455 00cc 0023     		movs	r3, #0
 456 00ce FB63     		str	r3, [r7, #60]
 457              		.loc 1 167 0
 458 00d0 97F84730 		ldrb	r3, [r7, #71]	@ zero_extendqisi2
 459 00d4 2E2B     		cmp	r3, #46
 460 00d6 37D1     		bne	.L28
 461 00d8 0AE0     		b	.L32
 462              	.L24:
 463              		.loc 1 164 0
 464 00da BA6B     		ldr	r2, [r7, #56]
 465 00dc 1346     		mov	r3, r2
 466 00de 9B00     		lsls	r3, r3, #2
 467 00e0 1344     		add	r3, r3, r2
 468 00e2 5B00     		lsls	r3, r3, #1
 469 00e4 1A46     		mov	r2, r3
 470 00e6 97F84730 		ldrb	r3, [r7, #71]	@ zero_extendqisi2
 471 00ea 1344     		add	r3, r3, r2
 472 00ec BB63     		str	r3, [r7, #56]
 473              		.loc 1 165 0
 474 00ee CDE7     		b	.L27
 475              	.L32:
 476              		.loc 1 169 0
 477 00f0 BB68     		ldr	r3, [r7, #8]
 478 00f2 5A1C     		adds	r2, r3, #1
 479 00f4 BA60     		str	r2, [r7, #8]
 480 00f6 1B78     		ldrb	r3, [r3]
 481 00f8 87F84730 		strb	r3, [r7, #71]
 482              		.loc 1 170 0
 483 00fc 97F84730 		ldrb	r3, [r7, #71]	@ zero_extendqisi2
 484 0100 2F2B     		cmp	r3, #47
 485 0102 09D9     		bls	.L29
 486              		.loc 1 170 0 is_stmt 0 discriminator 1
 487 0104 97F84730 		ldrb	r3, [r7, #71]	@ zero_extendqisi2
 488 0108 392B     		cmp	r3, #57
 489 010a 05D8     		bhi	.L29
 490              		.loc 1 171 0 is_stmt 1
 491 010c 97F84730 		ldrb	r3, [r7, #71]
 492 0110 303B     		subs	r3, r3, #48
 493 0112 87F84730 		strb	r3, [r7, #71]
 494 0116 0BE0     		b	.L30
 495              	.L29:
 496              		.loc 1 172 0
 497 0118 97F84730 		ldrb	r3, [r7, #71]	@ zero_extendqisi2
 498 011c 2A2B     		cmp	r3, #42
 499 011e 06D1     		bne	.L31
 500              		.loc 1 173 0
 501 0120 7B68     		ldr	r3, [r7, #4]
 502 0122 1A1D     		adds	r2, r3, #4
 503 0124 7A60     		str	r2, [r7, #4]
 504 0126 1B68     		ldr	r3, [r3]
 505 0128 87F84730 		strb	r3, [r7, #71]
 506 012c 00E0     		b	.L30
 507              	.L31:
 508              		.loc 1 175 0
ARM GAS  C:\Users\Luis\AppData\Local\Temp\cce7KkEG.s 			page 10


 509 012e 0BE0     		b	.L28
 510              	.L30:
 511              		.loc 1 176 0
 512 0130 FA6B     		ldr	r2, [r7, #60]
 513 0132 1346     		mov	r3, r2
 514 0134 9B00     		lsls	r3, r3, #2
 515 0136 1344     		add	r3, r3, r2
 516 0138 5B00     		lsls	r3, r3, #1
 517 013a FB63     		str	r3, [r7, #60]
 518              		.loc 1 177 0
 519 013c 97F84730 		ldrb	r3, [r7, #71]	@ zero_extendqisi2
 520 0140 FA6B     		ldr	r2, [r7, #60]
 521 0142 1344     		add	r3, r3, r2
 522 0144 FB63     		str	r3, [r7, #60]
 523              		.loc 1 178 0
 524 0146 D3E7     		b	.L32
 525              	.L28:
 526              		.loc 1 181 0
 527 0148 97F84730 		ldrb	r3, [r7, #71]	@ zero_extendqisi2
 528 014c 6C2B     		cmp	r3, #108
 529 014e 03D0     		beq	.L33
 530              		.loc 1 181 0 is_stmt 0 discriminator 1
 531 0150 97F84730 		ldrb	r3, [r7, #71]	@ zero_extendqisi2
 532 0154 4C2B     		cmp	r3, #76
 533 0156 0ED1     		bne	.L34
 534              	.L33:
 535              		.loc 1 182 0 is_stmt 1
 536 0158 0123     		movs	r3, #1
 537 015a 87F83330 		strb	r3, [r7, #51]
 538              		.loc 1 183 0
 539 015e BB68     		ldr	r3, [r7, #8]
 540 0160 1B78     		ldrb	r3, [r3]	@ zero_extendqisi2
 541 0162 002B     		cmp	r3, #0
 542 0164 06D0     		beq	.L35
 543              		.loc 1 184 0
 544 0166 BB68     		ldr	r3, [r7, #8]
 545 0168 5A1C     		adds	r2, r3, #1
 546 016a BA60     		str	r2, [r7, #8]
 547 016c 1B78     		ldrb	r3, [r3]
 548 016e 87F84730 		strb	r3, [r7, #71]
 549              		.loc 1 183 0
 550 0172 13E0     		b	.L36
 551              	.L35:
 552              		.loc 1 183 0 is_stmt 0 discriminator 1
 553 0174 12E0     		b	.L36
 554              	.L34:
 555              		.loc 1 187 0 is_stmt 1
 556 0176 97F84730 		ldrb	r3, [r7, #71]	@ zero_extendqisi2
 557 017a 402B     		cmp	r3, #64
 558 017c 05D9     		bls	.L37
 559              		.loc 1 187 0 is_stmt 0 discriminator 1
 560 017e 97F84730 		ldrb	r3, [r7, #71]	@ zero_extendqisi2
 561 0182 5A2B     		cmp	r3, #90
 562 0184 01D8     		bhi	.L37
 563              		.loc 1 187 0 discriminator 3
 564 0186 0123     		movs	r3, #1
 565 0188 00E0     		b	.L38
ARM GAS  C:\Users\Luis\AppData\Local\Temp\cce7KkEG.s 			page 11


 566              	.L37:
 567              		.loc 1 187 0 discriminator 2
 568 018a 0023     		movs	r3, #0
 569              	.L38:
 570              		.loc 1 187 0 discriminator 4
 571 018c 87F83330 		strb	r3, [r7, #51]
 572 0190 97F83330 		ldrb	r3, [r7, #51]
 573 0194 03F00103 		and	r3, r3, #1
 574 0198 87F83330 		strb	r3, [r7, #51]
 575              	.L36:
 576              		.loc 1 190 0 is_stmt 1
 577 019c 97F84730 		ldrb	r3, [r7, #71]	@ zero_extendqisi2
 578 01a0 443B     		subs	r3, r3, #68
 579 01a2 342B     		cmp	r3, #52
 580 01a4 00F20F81 		bhi	.L39
 581 01a8 01A2     		adr	r2, .L41
 582 01aa 52F823F0 		ldr	pc, [r2, r3, lsl #2]
 583 01ae 00BF     		.p2align 2
 584              	.L41:
 585 01b0 E7020000 		.word	.L40+1
 586 01b4 C7030000 		.word	.L39+1
 587 01b8 C7030000 		.word	.L39+1
 588 01bc C7030000 		.word	.L39+1
 589 01c0 C7030000 		.word	.L39+1
 590 01c4 E7020000 		.word	.L40+1
 591 01c8 C7030000 		.word	.L39+1
 592 01cc C7030000 		.word	.L39+1
 593 01d0 C7030000 		.word	.L39+1
 594 01d4 C7030000 		.word	.L39+1
 595 01d8 C7030000 		.word	.L39+1
 596 01dc 91030000 		.word	.L42+1
 597 01e0 C7030000 		.word	.L39+1
 598 01e4 C7030000 		.word	.L39+1
 599 01e8 C7030000 		.word	.L39+1
 600 01ec C7030000 		.word	.L39+1
 601 01f0 C7030000 		.word	.L39+1
 602 01f4 89030000 		.word	.L43+1
 603 01f8 C7030000 		.word	.L39+1
 604 01fc C7030000 		.word	.L39+1
 605 0200 81030000 		.word	.L44+1
 606 0204 C7030000 		.word	.L39+1
 607 0208 C7030000 		.word	.L39+1
 608 020c C7030000 		.word	.L39+1
 609 0210 C7030000 		.word	.L39+1
 610 0214 C7030000 		.word	.L39+1
 611 0218 C7030000 		.word	.L39+1
 612 021c C7030000 		.word	.L39+1
 613 0220 C7030000 		.word	.L39+1
 614 0224 C7030000 		.word	.L39+1
 615 0228 C7030000 		.word	.L39+1
 616 022c 85020000 		.word	.L45+1
 617 0230 E7020000 		.word	.L40+1
 618 0234 C7030000 		.word	.L39+1
 619 0238 29030000 		.word	.L46+1
 620 023c C7030000 		.word	.L39+1
 621 0240 C7030000 		.word	.L39+1
 622 0244 E7020000 		.word	.L40+1
ARM GAS  C:\Users\Luis\AppData\Local\Temp\cce7KkEG.s 			page 12


 623 0248 C7030000 		.word	.L39+1
 624 024c C7030000 		.word	.L39+1
 625 0250 C7030000 		.word	.L39+1
 626 0254 C7030000 		.word	.L39+1
 627 0258 C7030000 		.word	.L39+1
 628 025c 91030000 		.word	.L42+1
 629 0260 C7030000 		.word	.L39+1
 630 0264 C7030000 		.word	.L39+1
 631 0268 C7030000 		.word	.L39+1
 632 026c 9F020000 		.word	.L47+1
 633 0270 C7030000 		.word	.L39+1
 634 0274 89030000 		.word	.L43+1
 635 0278 C7030000 		.word	.L39+1
 636 027c C7030000 		.word	.L39+1
 637 0280 81030000 		.word	.L44+1
 638              	.L45:
 639              		.loc 1 192 0
 640 0284 2023     		movs	r3, #32
 641 0286 87F84630 		strb	r3, [r7, #70]
 642              		.loc 1 193 0
 643 028a FB6C     		ldr	r3, [r7, #76]
 644 028c 5A1C     		adds	r2, r3, #1
 645 028e FA64     		str	r2, [r7, #76]
 646 0290 7A68     		ldr	r2, [r7, #4]
 647 0292 111D     		adds	r1, r2, #4
 648 0294 7960     		str	r1, [r7, #4]
 649 0296 1268     		ldr	r2, [r2]
 650 0298 D2B2     		uxtb	r2, r2
 651 029a 1A70     		strb	r2, [r3]
 652              		.loc 1 194 0
 653 029c 9AE0     		b	.L48
 654              	.L47:
 655              		.loc 1 196 0
 656 029e 2023     		movs	r3, #32
 657 02a0 87F84630 		strb	r3, [r7, #70]
 658              		.loc 1 197 0
 659 02a4 7B68     		ldr	r3, [r7, #4]
 660 02a6 1A1D     		adds	r2, r3, #4
 661 02a8 7A60     		str	r2, [r7, #4]
 662 02aa 1B68     		ldr	r3, [r3]
 663 02ac BB64     		str	r3, [r7, #72]
 664 02ae BB6C     		ldr	r3, [r7, #72]
 665 02b0 002B     		cmp	r3, #0
 666 02b2 01D1     		bne	.L49
 667              		.loc 1 198 0
 668 02b4 7E4B     		ldr	r3, .L73
 669 02b6 BB64     		str	r3, [r7, #72]
 670              	.L49:
 671              		.loc 1 199 0
 672 02b8 FB6B     		ldr	r3, [r7, #60]
 673 02ba 002B     		cmp	r3, #0
 674 02bc 02D1     		bne	.L50
 675              		.loc 1 200 0
 676 02be 47F6FF73 		movw	r3, #32767
 677 02c2 FB63     		str	r3, [r7, #60]
 678              	.L50:
 679              		.loc 1 201 0
ARM GAS  C:\Users\Luis\AppData\Local\Temp\cce7KkEG.s 			page 13


 680 02c4 BB6C     		ldr	r3, [r7, #72]
 681 02c6 FB64     		str	r3, [r7, #76]
 682 02c8 02E0     		b	.L51
 683              	.L53:
 684              		.loc 1 201 0 is_stmt 0 discriminator 1
 685 02ca FB6C     		ldr	r3, [r7, #76]
 686 02cc 0133     		adds	r3, r3, #1
 687 02ce FB64     		str	r3, [r7, #76]
 688              	.L51:
 689 02d0 FB6C     		ldr	r3, [r7, #76]
 690 02d2 1B78     		ldrb	r3, [r3]	@ zero_extendqisi2
 691 02d4 002B     		cmp	r3, #0
 692 02d6 05D0     		beq	.L52
 693              		.loc 1 201 0 discriminator 2
 694 02d8 FB6B     		ldr	r3, [r7, #60]
 695 02da 013B     		subs	r3, r3, #1
 696 02dc FB63     		str	r3, [r7, #60]
 697 02de FB6B     		ldr	r3, [r7, #60]
 698 02e0 002B     		cmp	r3, #0
 699 02e2 F2DA     		bge	.L53
 700              	.L52:
 701              		.loc 1 203 0 is_stmt 1
 702 02e4 76E0     		b	.L48
 703              	.L40:
 704              		.loc 1 208 0
 705 02e6 97F83330 		ldrb	r3, [r7, #51]	@ zero_extendqisi2
 706 02ea 002B     		cmp	r3, #0
 707 02ec 05D0     		beq	.L54
 708              		.loc 1 209 0
 709 02ee 7B68     		ldr	r3, [r7, #4]
 710 02f0 1A1D     		adds	r2, r3, #4
 711 02f2 7A60     		str	r2, [r7, #4]
 712 02f4 1B68     		ldr	r3, [r3]
 713 02f6 FB62     		str	r3, [r7, #44]
 714 02f8 04E0     		b	.L55
 715              	.L54:
 716              		.loc 1 211 0
 717 02fa 7B68     		ldr	r3, [r7, #4]
 718 02fc 1A1D     		adds	r2, r3, #4
 719 02fe 7A60     		str	r2, [r7, #4]
 720 0300 1B68     		ldr	r3, [r3]
 721 0302 FB62     		str	r3, [r7, #44]
 722              	.L55:
 723              		.loc 1 212 0
 724 0304 FB6A     		ldr	r3, [r7, #44]
 725 0306 002B     		cmp	r3, #0
 726 0308 07DA     		bge	.L56
 727              		.loc 1 213 0
 728 030a FB6C     		ldr	r3, [r7, #76]
 729 030c 5A1C     		adds	r2, r3, #1
 730 030e FA64     		str	r2, [r7, #76]
 731 0310 2D22     		movs	r2, #45
 732 0312 1A70     		strb	r2, [r3]
 733              		.loc 1 214 0
 734 0314 FB6A     		ldr	r3, [r7, #44]
 735 0316 5B42     		negs	r3, r3
 736 0318 FB62     		str	r3, [r7, #44]
ARM GAS  C:\Users\Luis\AppData\Local\Temp\cce7KkEG.s 			page 14


 737              	.L56:
 738              		.loc 1 216 0
 739 031a F86C     		ldr	r0, [r7, #76]
 740 031c F96A     		ldr	r1, [r7, #44]
 741 031e 0A22     		movs	r2, #10
 742 0320 FFF7FEFF 		bl	ch_ltoa
 743 0324 F864     		str	r0, [r7, #76]
 744              		.loc 1 217 0
 745 0326 55E0     		b	.L48
 746              	.L46:
 747              		.loc 1 220 0
 748 0328 7B68     		ldr	r3, [r7, #4]
 749 032a 0733     		adds	r3, r3, #7
 750 032c 23F00703 		bic	r3, r3, #7
 751 0330 03F10802 		add	r2, r3, #8
 752 0334 7A60     		str	r2, [r7, #4]
 753 0336 D3E90023 		ldrd	r2, [r3]
 754 033a 1046     		mov	r0, r2
 755 033c 1946     		mov	r1, r3
 756 033e FFF7FEFF 		bl	__aeabi_d2f
 757 0342 0346     		mov	r3, r0
 758 0344 BB62     		str	r3, [r7, #40]	@ float
 759              		.loc 1 221 0
 760 0346 B86A     		ldr	r0, [r7, #40]	@ float
 761 0348 4FF00001 		mov	r1, #0
 762 034c FFF7FEFF 		bl	__aeabi_fcmplt
 763 0350 0346     		mov	r3, r0
 764 0352 002B     		cmp	r3, #0
 765 0354 08D0     		beq	.L57
 766              		.loc 1 222 0
 767 0356 FB6C     		ldr	r3, [r7, #76]
 768 0358 5A1C     		adds	r2, r3, #1
 769 035a FA64     		str	r2, [r7, #76]
 770 035c 2D22     		movs	r2, #45
 771 035e 1A70     		strb	r2, [r3]
 772              		.loc 1 223 0
 773 0360 BB6A     		ldr	r3, [r7, #40]
 774 0362 83F00043 		eor	r3, r3, #-2147483648
 775 0366 BB62     		str	r3, [r7, #40]	@ float
 776              	.L57:
 777              		.loc 1 225 0
 778 0368 B86A     		ldr	r0, [r7, #40]	@ float
 779 036a FFF7FEFF 		bl	__aeabi_f2d
 780 036e 0246     		mov	r2, r0
 781 0370 0B46     		mov	r3, r1
 782 0372 F96B     		ldr	r1, [r7, #60]
 783 0374 0091     		str	r1, [sp]
 784 0376 F86C     		ldr	r0, [r7, #76]
 785 0378 FFF7FEFF 		bl	ftoa
 786 037c F864     		str	r0, [r7, #76]
 787              		.loc 1 226 0
 788 037e 29E0     		b	.L48
 789              	.L44:
 790              		.loc 1 230 0
 791 0380 1023     		movs	r3, #16
 792 0382 87F84730 		strb	r3, [r7, #71]
 793              		.loc 1 231 0
ARM GAS  C:\Users\Luis\AppData\Local\Temp\cce7KkEG.s 			page 15


 794 0386 06E0     		b	.L59
 795              	.L43:
 796              		.loc 1 234 0
 797 0388 0A23     		movs	r3, #10
 798 038a 87F84730 		strb	r3, [r7, #71]
 799              		.loc 1 235 0
 800 038e 02E0     		b	.L59
 801              	.L42:
 802              		.loc 1 238 0
 803 0390 0823     		movs	r3, #8
 804 0392 87F84730 		strb	r3, [r7, #71]
 805              	.L59:
 806              		.loc 1 240 0
 807 0396 97F83330 		ldrb	r3, [r7, #51]	@ zero_extendqisi2
 808 039a 002B     		cmp	r3, #0
 809 039c 05D0     		beq	.L60
 810              		.loc 1 241 0
 811 039e 7B68     		ldr	r3, [r7, #4]
 812 03a0 1A1D     		adds	r2, r3, #4
 813 03a2 7A60     		str	r2, [r7, #4]
 814 03a4 1B68     		ldr	r3, [r3]
 815 03a6 FB62     		str	r3, [r7, #44]
 816 03a8 04E0     		b	.L61
 817              	.L60:
 818              		.loc 1 243 0
 819 03aa 7B68     		ldr	r3, [r7, #4]
 820 03ac 1A1D     		adds	r2, r3, #4
 821 03ae 7A60     		str	r2, [r7, #4]
 822 03b0 1B68     		ldr	r3, [r3]
 823 03b2 FB62     		str	r3, [r7, #44]
 824              	.L61:
 825              		.loc 1 244 0
 826 03b4 97F84730 		ldrb	r3, [r7, #71]	@ zero_extendqisi2
 827 03b8 F86C     		ldr	r0, [r7, #76]
 828 03ba F96A     		ldr	r1, [r7, #44]
 829 03bc 1A46     		mov	r2, r3
 830 03be FFF7FEFF 		bl	ch_ltoa
 831 03c2 F864     		str	r0, [r7, #76]
 832              		.loc 1 245 0
 833 03c4 06E0     		b	.L48
 834              	.L39:
 835              		.loc 1 247 0
 836 03c6 FB6C     		ldr	r3, [r7, #76]
 837 03c8 5A1C     		adds	r2, r3, #1
 838 03ca FA64     		str	r2, [r7, #76]
 839 03cc 97F84720 		ldrb	r2, [r7, #71]
 840 03d0 1A70     		strb	r2, [r3]
 841              		.loc 1 248 0
 842 03d2 00BF     		nop
 843              	.L48:
 844              		.loc 1 250 0
 845 03d4 FA6C     		ldr	r2, [r7, #76]
 846 03d6 BB6C     		ldr	r3, [r7, #72]
 847 03d8 D31A     		subs	r3, r2, r3
 848 03da 3B64     		str	r3, [r7, #64]
 849              		.loc 1 251 0
 850 03dc BA6B     		ldr	r2, [r7, #56]
ARM GAS  C:\Users\Luis\AppData\Local\Temp\cce7KkEG.s 			page 16


 851 03de 3B6C     		ldr	r3, [r7, #64]
 852 03e0 D31A     		subs	r3, r2, r3
 853 03e2 BB63     		str	r3, [r7, #56]
 854 03e4 BB6B     		ldr	r3, [r7, #56]
 855 03e6 002B     		cmp	r3, #0
 856 03e8 01DA     		bge	.L62
 857              		.loc 1 252 0
 858 03ea 0023     		movs	r3, #0
 859 03ec BB63     		str	r3, [r7, #56]
 860              	.L62:
 861              		.loc 1 253 0
 862 03ee 97F83230 		ldrb	r3, [r7, #50]
 863 03f2 83F00103 		eor	r3, r3, #1
 864 03f6 DBB2     		uxtb	r3, r3
 865 03f8 002B     		cmp	r3, #0
 866 03fa 02D0     		beq	.L63
 867              		.loc 1 254 0
 868 03fc BB6B     		ldr	r3, [r7, #56]
 869 03fe 5B42     		negs	r3, r3
 870 0400 BB63     		str	r3, [r7, #56]
 871              	.L63:
 872              		.loc 1 255 0
 873 0402 BB6B     		ldr	r3, [r7, #56]
 874 0404 002B     		cmp	r3, #0
 875 0406 28DA     		bge	.L64
 876              		.loc 1 256 0
 877 0408 BB6C     		ldr	r3, [r7, #72]
 878 040a 1B78     		ldrb	r3, [r3]	@ zero_extendqisi2
 879 040c 2D2B     		cmp	r3, #45
 880 040e 13D1     		bne	.L65
 881              		.loc 1 256 0 is_stmt 0 discriminator 1
 882 0410 97F84630 		ldrb	r3, [r7, #70]	@ zero_extendqisi2
 883 0414 302B     		cmp	r3, #48
 884 0416 0FD1     		bne	.L65
 885              		.loc 1 257 0 is_stmt 1
 886 0418 FB68     		ldr	r3, [r7, #12]
 887 041a 1B68     		ldr	r3, [r3]
 888 041c 9A68     		ldr	r2, [r3, #8]
 889 041e BB6C     		ldr	r3, [r7, #72]
 890 0420 591C     		adds	r1, r3, #1
 891 0422 B964     		str	r1, [r7, #72]
 892 0424 1B78     		ldrb	r3, [r3]	@ zero_extendqisi2
 893 0426 F868     		ldr	r0, [r7, #12]
 894 0428 1946     		mov	r1, r3
 895 042a 9047     		blx	r2
 896              		.loc 1 258 0
 897 042c 7B6B     		ldr	r3, [r7, #52]
 898 042e 0133     		adds	r3, r3, #1
 899 0430 7B63     		str	r3, [r7, #52]
 900              		.loc 1 259 0
 901 0432 3B6C     		ldr	r3, [r7, #64]
 902 0434 013B     		subs	r3, r3, #1
 903 0436 3B64     		str	r3, [r7, #64]
 904              	.L65:
 905              		.loc 1 262 0 discriminator 1
 906 0438 FB68     		ldr	r3, [r7, #12]
 907 043a 1B68     		ldr	r3, [r3]
ARM GAS  C:\Users\Luis\AppData\Local\Temp\cce7KkEG.s 			page 17


 908 043c 9B68     		ldr	r3, [r3, #8]
 909 043e 97F84620 		ldrb	r2, [r7, #70]	@ zero_extendqisi2
 910 0442 F868     		ldr	r0, [r7, #12]
 911 0444 1146     		mov	r1, r2
 912 0446 9847     		blx	r3
 913              		.loc 1 263 0 discriminator 1
 914 0448 7B6B     		ldr	r3, [r7, #52]
 915 044a 0133     		adds	r3, r3, #1
 916 044c 7B63     		str	r3, [r7, #52]
 917              		.loc 1 264 0 discriminator 1
 918 044e BB6B     		ldr	r3, [r7, #56]
 919 0450 0133     		adds	r3, r3, #1
 920 0452 BB63     		str	r3, [r7, #56]
 921 0454 BB6B     		ldr	r3, [r7, #56]
 922 0456 002B     		cmp	r3, #0
 923 0458 EED1     		bne	.L65
 924              	.L64:
 925              		.loc 1 266 0
 926 045a 0CE0     		b	.L66
 927              	.L67:
 928              		.loc 1 267 0
 929 045c FB68     		ldr	r3, [r7, #12]
 930 045e 1B68     		ldr	r3, [r3]
 931 0460 9A68     		ldr	r2, [r3, #8]
 932 0462 BB6C     		ldr	r3, [r7, #72]
 933 0464 591C     		adds	r1, r3, #1
 934 0466 B964     		str	r1, [r7, #72]
 935 0468 1B78     		ldrb	r3, [r3]	@ zero_extendqisi2
 936 046a F868     		ldr	r0, [r7, #12]
 937 046c 1946     		mov	r1, r3
 938 046e 9047     		blx	r2
 939              		.loc 1 268 0
 940 0470 7B6B     		ldr	r3, [r7, #52]
 941 0472 0133     		adds	r3, r3, #1
 942 0474 7B63     		str	r3, [r7, #52]
 943              	.L66:
 944              		.loc 1 266 0 discriminator 1
 945 0476 3B6C     		ldr	r3, [r7, #64]
 946 0478 013B     		subs	r3, r3, #1
 947 047a 3B64     		str	r3, [r7, #64]
 948 047c 3B6C     		ldr	r3, [r7, #64]
 949 047e 002B     		cmp	r3, #0
 950 0480 ECDA     		bge	.L67
 951              		.loc 1 271 0
 952 0482 0DE0     		b	.L68
 953              	.L69:
 954              		.loc 1 272 0
 955 0484 FB68     		ldr	r3, [r7, #12]
 956 0486 1B68     		ldr	r3, [r3]
 957 0488 9B68     		ldr	r3, [r3, #8]
 958 048a 97F84620 		ldrb	r2, [r7, #70]	@ zero_extendqisi2
 959 048e F868     		ldr	r0, [r7, #12]
 960 0490 1146     		mov	r1, r2
 961 0492 9847     		blx	r3
 962              		.loc 1 273 0
 963 0494 7B6B     		ldr	r3, [r7, #52]
 964 0496 0133     		adds	r3, r3, #1
ARM GAS  C:\Users\Luis\AppData\Local\Temp\cce7KkEG.s 			page 18


 965 0498 7B63     		str	r3, [r7, #52]
 966              		.loc 1 274 0
 967 049a BB6B     		ldr	r3, [r7, #56]
 968 049c 013B     		subs	r3, r3, #1
 969 049e BB63     		str	r3, [r7, #56]
 970              	.L68:
 971              		.loc 1 271 0 discriminator 1
 972 04a0 BB6B     		ldr	r3, [r7, #56]
 973 04a2 002B     		cmp	r3, #0
 974 04a4 EED1     		bne	.L69
 975              	.L20:
 976              		.loc 1 276 0
 977 04a6 B3E5     		b	.L70
 978              	.L72:
 979              		.loc 1 277 0
 980 04a8 1846     		mov	r0, r3
 981 04aa 5037     		adds	r7, r7, #80
 982 04ac BD46     		mov	sp, r7
 983              		@ sp needed
 984 04ae 80BD     		pop	{r7, pc}
 985              	.L74:
 986              		.align	2
 987              	.L73:
 988 04b0 00000000 		.word	.LC0
 989              		.cfi_endproc
 990              	.LFE264:
 991              		.size	chvprintf, .-chvprintf
 992 04b4 AFF30080 		.section	.text.chsnprintf,"ax",%progbits
 992      AFF30080 
 992      AFF30080 
 993              		.align	2
 994              		.p2align 4,,15
 995              		.global	chsnprintf
 996              		.thumb
 997              		.thumb_func
 998              		.type	chsnprintf, %function
 999              	chsnprintf:
 1000              	.LFB265:
 1001              		.loc 1 307 0
 1002              		.cfi_startproc
 1003              		@ args = 4, pretend = 8, frame = 48
 1004              		@ frame_needed = 1, uses_anonymous_args = 1
 1005 0000 0CB4     		push	{r2, r3}
 1006              		.cfi_def_cfa_offset 8
 1007              		.cfi_offset 2, -8
 1008              		.cfi_offset 3, -4
 1009 0002 80B5     		push	{r7, lr}
 1010              		.cfi_def_cfa_offset 16
 1011              		.cfi_offset 7, -16
 1012              		.cfi_offset 14, -12
 1013 0004 8CB0     		sub	sp, sp, #48
 1014              		.cfi_def_cfa_offset 64
 1015 0006 00AF     		add	r7, sp, #0
 1016              		.cfi_def_cfa_register 7
 1017 0008 7860     		str	r0, [r7, #4]
 1018 000a 3960     		str	r1, [r7]
 1019              		.loc 1 314 0
ARM GAS  C:\Users\Luis\AppData\Local\Temp\cce7KkEG.s 			page 19


 1020 000c 3B68     		ldr	r3, [r7]
 1021 000e 002B     		cmp	r3, #0
 1022 0010 03D0     		beq	.L76
 1023              		.loc 1 315 0
 1024 0012 3B68     		ldr	r3, [r7]
 1025 0014 013B     		subs	r3, r3, #1
 1026 0016 FB62     		str	r3, [r7, #44]
 1027 0018 01E0     		b	.L77
 1028              	.L76:
 1029              		.loc 1 317 0
 1030 001a 0023     		movs	r3, #0
 1031 001c FB62     		str	r3, [r7, #44]
 1032              	.L77:
 1033              		.loc 1 321 0
 1034 001e 07F10C03 		add	r3, r7, #12
 1035 0022 1846     		mov	r0, r3
 1036 0024 7968     		ldr	r1, [r7, #4]
 1037 0026 FA6A     		ldr	r2, [r7, #44]
 1038 0028 0023     		movs	r3, #0
 1039 002a FFF7FEFF 		bl	msObjectInit
 1040              		.loc 1 324 0
 1041 002e 07F10C03 		add	r3, r7, #12
 1042 0032 BB62     		str	r3, [r7, #40]
 1043              		.loc 1 325 0
 1044 0034 07F13C03 		add	r3, r7, #60
 1045 0038 3B62     		str	r3, [r7, #32]
 1046              		.loc 1 326 0
 1047 003a B86A     		ldr	r0, [r7, #40]
 1048 003c B96B     		ldr	r1, [r7, #56]
 1049 003e 3A6A     		ldr	r2, [r7, #32]
 1050 0040 FFF7FEFF 		bl	chvprintf
 1051 0044 7862     		str	r0, [r7, #36]
 1052              		.loc 1 330 0
 1053 0046 BA69     		ldr	r2, [r7, #24]
 1054 0048 3B68     		ldr	r3, [r7]
 1055 004a 9A42     		cmp	r2, r3
 1056 004c 04D2     		bcs	.L78
 1057              		.loc 1 331 0
 1058 004e BB69     		ldr	r3, [r7, #24]
 1059 0050 7A68     		ldr	r2, [r7, #4]
 1060 0052 1344     		add	r3, r3, r2
 1061 0054 0022     		movs	r2, #0
 1062 0056 1A70     		strb	r2, [r3]
 1063              	.L78:
 1064              		.loc 1 334 0
 1065 0058 7B6A     		ldr	r3, [r7, #36]
 1066              		.loc 1 335 0
 1067 005a 1846     		mov	r0, r3
 1068 005c 3037     		adds	r7, r7, #48
 1069 005e BD46     		mov	sp, r7
 1070              		@ sp needed
 1071 0060 BDE88040 		pop	{r7, lr}
 1072 0064 02B0     		add	sp, sp, #8
 1073 0066 7047     		bx	lr
 1074              		.cfi_endproc
 1075              	.LFE265:
 1076              		.size	chsnprintf, .-chsnprintf
ARM GAS  C:\Users\Luis\AppData\Local\Temp\cce7KkEG.s 			page 20


 1077 0068 AFF30080 		.text
 1077      AFF30080 
 1078              	.Letext0:
 1079              		.file 2 "c:\\emtechesdk\\gcc\\lib\\gcc\\arm-none-eabi\\4.8.3\\include\\stddef.h"
 1080              		.file 3 "c:\\emtechesdk\\gcc\\arm-none-eabi\\include\\stdint.h"
 1081              		.file 4 "../../ChibiOS/os/rt/ports/ARMCMx/compilers/GCC/chtypes.h"
 1082              		.file 5 "../../ChibiOS/os/rt/include/chsystypes.h"
 1083              		.file 6 "../../ChibiOS/os/rt/include/chschd.h"
 1084              		.file 7 "../../ChibiOS/os/rt/ports/ARMCMx/chcore.h"
 1085              		.file 8 "../../ChibiOS/os/rt/ports/ARMCMx/chcore_v7m.h"
 1086              		.file 9 "../../ChibiOS/os/rt/include/chdebug.h"
 1087              		.file 10 "../../ChibiOS/os/rt/include/chtm.h"
 1088              		.file 11 "../../ChibiOS/os/rt/include/chstats.h"
 1089              		.file 12 "../../ChibiOS/os/rt/include/chsem.h"
 1090              		.file 13 "../../ChibiOS/os/rt/include/chmtx.h"
 1091              		.file 14 "../../ChibiOS/os/rt/include/chstreams.h"
 1092              		.file 15 "c:\\emtechesdk\\gcc\\lib\\gcc\\arm-none-eabi\\4.8.3\\include\\stdarg.h"
 1093              		.file 16 "<built-in>"
 1094              		.file 17 "../../ChibiOS/os/hal/lib/streams/memstreams.h"
 1095              		.file 18 "../../ChibiOS/os/ext/CMSIS/include/core_cm4.h"