ARM GAS  C:\Users\Luis\AppData\Local\Temp\cc8tW16A.s 			page 1


   1              		.syntax unified
   2              		.cpu cortex-m4
   3              		.fpu softvfp
   4              		.eabi_attribute 20, 1
   5              		.eabi_attribute 21, 1
   6              		.eabi_attribute 23, 3
   7              		.eabi_attribute 24, 1
   8              		.eabi_attribute 25, 1
   9              		.eabi_attribute 26, 1
  10              		.eabi_attribute 30, 6
  11              		.eabi_attribute 34, 1
  12              		.eabi_attribute 18, 4
  13              		.thumb
  14              		.file	"chqueues.c"
  15              		.text
  16              	.Ltext0:
  17              		.cfi_sections	.debug_frame
  18              		.section	.text.port_lock,"ax",%progbits
  19              		.align	2
  20              		.p2align 4,,15
  21              		.thumb
  22              		.thumb_func
  23              		.type	port_lock, %function
  24              	port_lock:
  25              	.LFB116:
  26              		.file 1 "../../ChibiOS/os/rt/ports/ARMCMx/chcore_v7m.h"
  27              		.loc 1 444 0
  28              		.cfi_startproc
  29              		@ args = 0, pretend = 0, frame = 8
  30              		@ frame_needed = 1, uses_anonymous_args = 0
  31              		@ link register save eliminated.
  32 0000 80B4     		push	{r7}
  33              		.cfi_def_cfa_offset 4
  34              		.cfi_offset 7, -4
  35 0002 83B0     		sub	sp, sp, #12
  36              		.cfi_def_cfa_offset 16
  37 0004 00AF     		add	r7, sp, #0
  38              		.cfi_def_cfa_register 7
  39 0006 2023     		movs	r3, #32
  40 0008 7B60     		str	r3, [r7, #4]
  41              	.LBB6:
  42              	.LBB7:
  43              		.file 2 "../../ChibiOS/os/ext/CMSIS/include/core_cmFunc.h"
  44              		.loc 2 546 0
  45 000a 7B68     		ldr	r3, [r7, #4]
  46              	@ 546 "../../ChibiOS/os/ext/CMSIS/include/core_cmFunc.h" 1
  47 000c 83F31188 		MSR basepri, r3
  48              	@ 0 "" 2
  49              		.thumb
  50              	.LBE7:
  51              	.LBE6:
  52              		.loc 1 451 0
  53 0010 0C37     		adds	r7, r7, #12
  54 0012 BD46     		mov	sp, r7
  55              		@ sp needed
  56 0014 5DF8047B 		ldr	r7, [sp], #4
  57 0018 7047     		bx	lr
ARM GAS  C:\Users\Luis\AppData\Local\Temp\cc8tW16A.s 			page 2


  58              		.cfi_endproc
  59              	.LFE116:
  60              		.size	port_lock, .-port_lock
  61 001a 00BFAFF3 		.section	.text.port_unlock,"ax",%progbits
  61      0080
  62              		.align	2
  63              		.p2align 4,,15
  64              		.thumb
  65              		.thumb_func
  66              		.type	port_unlock, %function
  67              	port_unlock:
  68              	.LFB117:
  69              		.loc 1 458 0
  70              		.cfi_startproc
  71              		@ args = 0, pretend = 0, frame = 8
  72              		@ frame_needed = 1, uses_anonymous_args = 0
  73              		@ link register save eliminated.
  74 0000 80B4     		push	{r7}
  75              		.cfi_def_cfa_offset 4
  76              		.cfi_offset 7, -4
  77 0002 83B0     		sub	sp, sp, #12
  78              		.cfi_def_cfa_offset 16
  79 0004 00AF     		add	r7, sp, #0
  80              		.cfi_def_cfa_register 7
  81 0006 0023     		movs	r3, #0
  82 0008 7B60     		str	r3, [r7, #4]
  83              	.LBB8:
  84              	.LBB9:
  85              		.loc 2 546 0
  86 000a 7B68     		ldr	r3, [r7, #4]
  87              	@ 546 "../../ChibiOS/os/ext/CMSIS/include/core_cmFunc.h" 1
  88 000c 83F31188 		MSR basepri, r3
  89              	@ 0 "" 2
  90              		.thumb
  91              	.LBE9:
  92              	.LBE8:
  93              		.loc 1 465 0
  94 0010 0C37     		adds	r7, r7, #12
  95 0012 BD46     		mov	sp, r7
  96              		@ sp needed
  97 0014 5DF8047B 		ldr	r7, [sp], #4
  98 0018 7047     		bx	lr
  99              		.cfi_endproc
 100              	.LFE117:
 101              		.size	port_unlock, .-port_unlock
 102 001a 00BFAFF3 		.section	.text.queue_init,"ax",%progbits
 102      0080
 103              		.align	2
 104              		.p2align 4,,15
 105              		.thumb
 106              		.thumb_func
 107              		.type	queue_init, %function
 108              	queue_init:
 109              	.LFB139:
 110              		.file 3 "../../ChibiOS/os/rt/include/chschd.h"
 111              		.loc 3 602 0
 112              		.cfi_startproc
ARM GAS  C:\Users\Luis\AppData\Local\Temp\cc8tW16A.s 			page 3


 113              		@ args = 0, pretend = 0, frame = 8
 114              		@ frame_needed = 1, uses_anonymous_args = 0
 115              		@ link register save eliminated.
 116 0000 80B4     		push	{r7}
 117              		.cfi_def_cfa_offset 4
 118              		.cfi_offset 7, -4
 119 0002 83B0     		sub	sp, sp, #12
 120              		.cfi_def_cfa_offset 16
 121 0004 00AF     		add	r7, sp, #0
 122              		.cfi_def_cfa_register 7
 123 0006 7860     		str	r0, [r7, #4]
 124              		.loc 3 604 0
 125 0008 7B68     		ldr	r3, [r7, #4]
 126 000a 7A68     		ldr	r2, [r7, #4]
 127 000c 1A60     		str	r2, [r3]
 128              		.loc 3 605 0
 129 000e 7B68     		ldr	r3, [r7, #4]
 130 0010 7A68     		ldr	r2, [r7, #4]
 131 0012 5A60     		str	r2, [r3, #4]
 132              		.loc 3 606 0
 133 0014 0C37     		adds	r7, r7, #12
 134 0016 BD46     		mov	sp, r7
 135              		@ sp needed
 136 0018 5DF8047B 		ldr	r7, [sp], #4
 137 001c 7047     		bx	lr
 138              		.cfi_endproc
 139              	.LFE139:
 140              		.size	queue_init, .-queue_init
 141 001e 00BF     		.section	.text.chSysLock,"ax",%progbits
 142              		.align	2
 143              		.p2align 4,,15
 144              		.thumb
 145              		.thumb_func
 146              		.type	chSysLock, %function
 147              	chSysLock:
 148              	.LFB156:
 149              		.file 4 "../../ChibiOS/os/rt/include/chsys.h"
 150              		.loc 4 346 0
 151              		.cfi_startproc
 152              		@ args = 0, pretend = 0, frame = 0
 153              		@ frame_needed = 1, uses_anonymous_args = 0
 154 0000 80B5     		push	{r7, lr}
 155              		.cfi_def_cfa_offset 8
 156              		.cfi_offset 7, -8
 157              		.cfi_offset 14, -4
 158 0002 00AF     		add	r7, sp, #0
 159              		.cfi_def_cfa_register 7
 160              		.loc 4 348 0
 161 0004 FFF7FEFF 		bl	port_lock
 162              		.loc 4 349 0
 163 0008 FFF7FEFF 		bl	_stats_start_measure_crit_thd
 164              		.loc 4 350 0
 165 000c FFF7FEFF 		bl	_dbg_check_lock
 166              		.loc 4 351 0
 167 0010 80BD     		pop	{r7, pc}
 168              		.cfi_endproc
 169              	.LFE156:
ARM GAS  C:\Users\Luis\AppData\Local\Temp\cc8tW16A.s 			page 4


 170              		.size	chSysLock, .-chSysLock
 171 0012 00BFAFF3 		.section	.text.chSysUnlock,"ax",%progbits
 171      0080AFF3 
 171      0080AFF3 
 171      0080
 172              		.align	2
 173              		.p2align 4,,15
 174              		.thumb
 175              		.thumb_func
 176              		.type	chSysUnlock, %function
 177              	chSysUnlock:
 178              	.LFB157:
 179              		.loc 4 358 0
 180              		.cfi_startproc
 181              		@ args = 0, pretend = 0, frame = 0
 182              		@ frame_needed = 1, uses_anonymous_args = 0
 183 0000 80B5     		push	{r7, lr}
 184              		.cfi_def_cfa_offset 8
 185              		.cfi_offset 7, -8
 186              		.cfi_offset 14, -4
 187 0002 00AF     		add	r7, sp, #0
 188              		.cfi_def_cfa_register 7
 189              		.loc 4 360 0
 190 0004 FFF7FEFF 		bl	_dbg_check_unlock
 191              		.loc 4 361 0
 192 0008 FFF7FEFF 		bl	_stats_stop_measure_crit_thd
 193              		.loc 4 367 0
 194 000c 094B     		ldr	r3, .L7
 195 000e 1A68     		ldr	r2, [r3]
 196 0010 084B     		ldr	r3, .L7
 197 0012 9A42     		cmp	r2, r3
 198 0014 0AD0     		beq	.L6
 199              		.loc 4 367 0 is_stmt 0 discriminator 1
 200 0016 074B     		ldr	r3, .L7
 201 0018 9B69     		ldr	r3, [r3, #24]
 202 001a 9A68     		ldr	r2, [r3, #8]
 203 001c 054B     		ldr	r3, .L7
 204 001e 1B68     		ldr	r3, [r3]
 205 0020 9B68     		ldr	r3, [r3, #8]
 206 0022 9A42     		cmp	r2, r3
 207 0024 02D2     		bcs	.L6
 208 0026 0448     		ldr	r0, .L7+4
 209 0028 FFF7FEFF 		bl	chSysHalt
 210              	.L6:
 211              		.loc 4 371 0 is_stmt 1
 212 002c FFF7FEFF 		bl	port_unlock
 213              		.loc 4 372 0
 214 0030 80BD     		pop	{r7, pc}
 215              	.L8:
 216 0032 00BF     		.align	2
 217              	.L7:
 218 0034 00000000 		.word	ch
 219 0038 00000000 		.word	__func__.5842
 220              		.cfi_endproc
 221              	.LFE157:
 222              		.size	chSysUnlock, .-chSysUnlock
 223 003c AFF30080 		.section	.text.chThdQueueObjectInit,"ax",%progbits
ARM GAS  C:\Users\Luis\AppData\Local\Temp\cc8tW16A.s 			page 5


 224              		.align	2
 225              		.p2align 4,,15
 226              		.thumb
 227              		.thumb_func
 228              		.type	chThdQueueObjectInit, %function
 229              	chThdQueueObjectInit:
 230              	.LFB183:
 231              		.file 5 "../../ChibiOS/os/rt/include/chthreads.h"
 232              		.loc 5 278 0
 233              		.cfi_startproc
 234              		@ args = 0, pretend = 0, frame = 8
 235              		@ frame_needed = 1, uses_anonymous_args = 0
 236 0000 80B5     		push	{r7, lr}
 237              		.cfi_def_cfa_offset 8
 238              		.cfi_offset 7, -8
 239              		.cfi_offset 14, -4
 240 0002 82B0     		sub	sp, sp, #8
 241              		.cfi_def_cfa_offset 16
 242 0004 00AF     		add	r7, sp, #0
 243              		.cfi_def_cfa_register 7
 244 0006 7860     		str	r0, [r7, #4]
 245              		.loc 5 280 0
 246 0008 7868     		ldr	r0, [r7, #4]
 247 000a FFF7FEFF 		bl	queue_init
 248              		.loc 5 281 0
 249 000e 0837     		adds	r7, r7, #8
 250 0010 BD46     		mov	sp, r7
 251              		@ sp needed
 252 0012 80BD     		pop	{r7, pc}
 253              		.cfi_endproc
 254              	.LFE183:
 255              		.size	chThdQueueObjectInit, .-chThdQueueObjectInit
 256 0014 AFF30080 		.section	.text.chIQIsEmptyI,"ax",%progbits
 256      AFF30080 
 256      AFF30080 
 257              		.align	2
 258              		.p2align 4,,15
 259              		.thumb
 260              		.thumb_func
 261              		.type	chIQIsEmptyI, %function
 262              	chIQIsEmptyI:
 263              	.LFB221:
 264              		.file 6 "../../ChibiOS/os/rt/include/chqueues.h"
 265              		.loc 6 303 0
 266              		.cfi_startproc
 267              		@ args = 0, pretend = 0, frame = 8
 268              		@ frame_needed = 1, uses_anonymous_args = 0
 269 0000 80B5     		push	{r7, lr}
 270              		.cfi_def_cfa_offset 8
 271              		.cfi_offset 7, -8
 272              		.cfi_offset 14, -4
 273 0002 82B0     		sub	sp, sp, #8
 274              		.cfi_def_cfa_offset 16
 275 0004 00AF     		add	r7, sp, #0
 276              		.cfi_def_cfa_register 7
 277 0006 7860     		str	r0, [r7, #4]
 278              		.loc 6 305 0
ARM GAS  C:\Users\Luis\AppData\Local\Temp\cc8tW16A.s 			page 6


 279 0008 FFF7FEFF 		bl	chDbgCheckClassI
 280              		.loc 6 307 0
 281 000c 7B68     		ldr	r3, [r7, #4]
 282 000e 9B68     		ldr	r3, [r3, #8]
 283 0010 002B     		cmp	r3, #0
 284 0012 14BF     		ite	ne
 285 0014 0023     		movne	r3, #0
 286 0016 0123     		moveq	r3, #1
 287 0018 DBB2     		uxtb	r3, r3
 288              		.loc 6 308 0
 289 001a 1846     		mov	r0, r3
 290 001c 0837     		adds	r7, r7, #8
 291 001e BD46     		mov	sp, r7
 292              		@ sp needed
 293 0020 80BD     		pop	{r7, pc}
 294              		.cfi_endproc
 295              	.LFE221:
 296              		.size	chIQIsEmptyI, .-chIQIsEmptyI
 297 0022 00BFAFF3 		.section	.text.chIQIsFullI,"ax",%progbits
 297      0080AFF3 
 297      0080AFF3 
 297      0080
 298              		.align	2
 299              		.p2align 4,,15
 300              		.thumb
 301              		.thumb_func
 302              		.type	chIQIsFullI, %function
 303              	chIQIsFullI:
 304              	.LFB222:
 305              		.loc 6 320 0
 306              		.cfi_startproc
 307              		@ args = 0, pretend = 0, frame = 8
 308              		@ frame_needed = 1, uses_anonymous_args = 0
 309 0000 80B5     		push	{r7, lr}
 310              		.cfi_def_cfa_offset 8
 311              		.cfi_offset 7, -8
 312              		.cfi_offset 14, -4
 313 0002 82B0     		sub	sp, sp, #8
 314              		.cfi_def_cfa_offset 16
 315 0004 00AF     		add	r7, sp, #0
 316              		.cfi_def_cfa_register 7
 317 0006 7860     		str	r0, [r7, #4]
 318              		.loc 6 322 0
 319 0008 FFF7FEFF 		bl	chDbgCheckClassI
 320              		.loc 6 324 0
 321 000c 7B68     		ldr	r3, [r7, #4]
 322 000e 5A69     		ldr	r2, [r3, #20]
 323 0010 7B68     		ldr	r3, [r7, #4]
 324 0012 9B69     		ldr	r3, [r3, #24]
 325 0014 9A42     		cmp	r2, r3
 326 0016 05D1     		bne	.L13
 327              		.loc 6 324 0 is_stmt 0 discriminator 1
 328 0018 7B68     		ldr	r3, [r7, #4]
 329 001a 9B68     		ldr	r3, [r3, #8]
 330 001c 002B     		cmp	r3, #0
 331 001e 01D0     		beq	.L13
 332              		.loc 6 324 0 discriminator 3
ARM GAS  C:\Users\Luis\AppData\Local\Temp\cc8tW16A.s 			page 7


 333 0020 0123     		movs	r3, #1
 334 0022 00E0     		b	.L14
 335              	.L13:
 336              		.loc 6 324 0 discriminator 2
 337 0024 0023     		movs	r3, #0
 338              	.L14:
 339              		.loc 6 324 0 discriminator 4
 340 0026 03F00103 		and	r3, r3, #1
 341 002a DBB2     		uxtb	r3, r3
 342              		.loc 6 325 0 is_stmt 1 discriminator 4
 343 002c 1846     		mov	r0, r3
 344 002e 0837     		adds	r7, r7, #8
 345 0030 BD46     		mov	sp, r7
 346              		@ sp needed
 347 0032 80BD     		pop	{r7, pc}
 348              		.cfi_endproc
 349              	.LFE222:
 350              		.size	chIQIsFullI, .-chIQIsFullI
 351 0034 AFF30080 		.section	.text.chOQIsEmptyI,"ax",%progbits
 351      AFF30080 
 351      AFF30080 
 352              		.align	2
 353              		.p2align 4,,15
 354              		.thumb
 355              		.thumb_func
 356              		.type	chOQIsEmptyI, %function
 357              	chOQIsEmptyI:
 358              	.LFB226:
 359              		.loc 6 386 0
 360              		.cfi_startproc
 361              		@ args = 0, pretend = 0, frame = 8
 362              		@ frame_needed = 1, uses_anonymous_args = 0
 363 0000 80B5     		push	{r7, lr}
 364              		.cfi_def_cfa_offset 8
 365              		.cfi_offset 7, -8
 366              		.cfi_offset 14, -4
 367 0002 82B0     		sub	sp, sp, #8
 368              		.cfi_def_cfa_offset 16
 369 0004 00AF     		add	r7, sp, #0
 370              		.cfi_def_cfa_register 7
 371 0006 7860     		str	r0, [r7, #4]
 372              		.loc 6 388 0
 373 0008 FFF7FEFF 		bl	chDbgCheckClassI
 374              		.loc 6 390 0
 375 000c 7B68     		ldr	r3, [r7, #4]
 376 000e 5A69     		ldr	r2, [r3, #20]
 377 0010 7B68     		ldr	r3, [r7, #4]
 378 0012 9B69     		ldr	r3, [r3, #24]
 379 0014 9A42     		cmp	r2, r3
 380 0016 05D1     		bne	.L17
 381              		.loc 6 390 0 is_stmt 0 discriminator 1
 382 0018 7B68     		ldr	r3, [r7, #4]
 383 001a 9B68     		ldr	r3, [r3, #8]
 384 001c 002B     		cmp	r3, #0
 385 001e 01D0     		beq	.L17
 386              		.loc 6 390 0 discriminator 3
 387 0020 0123     		movs	r3, #1
ARM GAS  C:\Users\Luis\AppData\Local\Temp\cc8tW16A.s 			page 8


 388 0022 00E0     		b	.L18
 389              	.L17:
 390              		.loc 6 390 0 discriminator 2
 391 0024 0023     		movs	r3, #0
 392              	.L18:
 393              		.loc 6 390 0 discriminator 4
 394 0026 03F00103 		and	r3, r3, #1
 395 002a DBB2     		uxtb	r3, r3
 396              		.loc 6 391 0 is_stmt 1 discriminator 4
 397 002c 1846     		mov	r0, r3
 398 002e 0837     		adds	r7, r7, #8
 399 0030 BD46     		mov	sp, r7
 400              		@ sp needed
 401 0032 80BD     		pop	{r7, pc}
 402              		.cfi_endproc
 403              	.LFE226:
 404              		.size	chOQIsEmptyI, .-chOQIsEmptyI
 405 0034 AFF30080 		.section	.text.chOQIsFullI,"ax",%progbits
 405      AFF30080 
 405      AFF30080 
 406              		.align	2
 407              		.p2align 4,,15
 408              		.thumb
 409              		.thumb_func
 410              		.type	chOQIsFullI, %function
 411              	chOQIsFullI:
 412              	.LFB227:
 413              		.loc 6 403 0
 414              		.cfi_startproc
 415              		@ args = 0, pretend = 0, frame = 8
 416              		@ frame_needed = 1, uses_anonymous_args = 0
 417 0000 80B5     		push	{r7, lr}
 418              		.cfi_def_cfa_offset 8
 419              		.cfi_offset 7, -8
 420              		.cfi_offset 14, -4
 421 0002 82B0     		sub	sp, sp, #8
 422              		.cfi_def_cfa_offset 16
 423 0004 00AF     		add	r7, sp, #0
 424              		.cfi_def_cfa_register 7
 425 0006 7860     		str	r0, [r7, #4]
 426              		.loc 6 405 0
 427 0008 FFF7FEFF 		bl	chDbgCheckClassI
 428              		.loc 6 407 0
 429 000c 7B68     		ldr	r3, [r7, #4]
 430 000e 9B68     		ldr	r3, [r3, #8]
 431 0010 002B     		cmp	r3, #0
 432 0012 14BF     		ite	ne
 433 0014 0023     		movne	r3, #0
 434 0016 0123     		moveq	r3, #1
 435 0018 DBB2     		uxtb	r3, r3
 436              		.loc 6 408 0
 437 001a 1846     		mov	r0, r3
 438 001c 0837     		adds	r7, r7, #8
 439 001e BD46     		mov	sp, r7
 440              		@ sp needed
 441 0020 80BD     		pop	{r7, pc}
 442              		.cfi_endproc
ARM GAS  C:\Users\Luis\AppData\Local\Temp\cc8tW16A.s 			page 9


 443              	.LFE227:
 444              		.size	chOQIsFullI, .-chOQIsFullI
 445 0022 00BFAFF3 		.section	.text.chIQObjectInit,"ax",%progbits
 445      0080AFF3 
 445      0080AFF3 
 445      0080
 446              		.align	2
 447              		.p2align 4,,15
 448              		.global	chIQObjectInit
 449              		.thumb
 450              		.thumb_func
 451              		.type	chIQObjectInit, %function
 452              	chIQObjectInit:
 453              	.LFB229:
 454              		.file 7 "../../ChibiOS/os/rt/src/chqueues.c"
 455              		.loc 7 88 0
 456              		.cfi_startproc
 457              		@ args = 4, pretend = 0, frame = 16
 458              		@ frame_needed = 1, uses_anonymous_args = 0
 459 0000 80B5     		push	{r7, lr}
 460              		.cfi_def_cfa_offset 8
 461              		.cfi_offset 7, -8
 462              		.cfi_offset 14, -4
 463 0002 84B0     		sub	sp, sp, #16
 464              		.cfi_def_cfa_offset 24
 465 0004 00AF     		add	r7, sp, #0
 466              		.cfi_def_cfa_register 7
 467 0006 F860     		str	r0, [r7, #12]
 468 0008 B960     		str	r1, [r7, #8]
 469 000a 7A60     		str	r2, [r7, #4]
 470 000c 3B60     		str	r3, [r7]
 471              		.loc 7 90 0
 472 000e FB68     		ldr	r3, [r7, #12]
 473 0010 1846     		mov	r0, r3
 474 0012 FFF7FEFF 		bl	chThdQueueObjectInit
 475              		.loc 7 91 0
 476 0016 FB68     		ldr	r3, [r7, #12]
 477 0018 0022     		movs	r2, #0
 478 001a 9A60     		str	r2, [r3, #8]
 479              		.loc 7 92 0
 480 001c FB68     		ldr	r3, [r7, #12]
 481 001e BA68     		ldr	r2, [r7, #8]
 482 0020 DA60     		str	r2, [r3, #12]
 483              		.loc 7 93 0
 484 0022 FB68     		ldr	r3, [r7, #12]
 485 0024 BA68     		ldr	r2, [r7, #8]
 486 0026 9A61     		str	r2, [r3, #24]
 487              		.loc 7 94 0
 488 0028 FB68     		ldr	r3, [r7, #12]
 489 002a BA68     		ldr	r2, [r7, #8]
 490 002c 5A61     		str	r2, [r3, #20]
 491              		.loc 7 95 0
 492 002e BA68     		ldr	r2, [r7, #8]
 493 0030 7B68     		ldr	r3, [r7, #4]
 494 0032 1A44     		add	r2, r2, r3
 495 0034 FB68     		ldr	r3, [r7, #12]
 496 0036 1A61     		str	r2, [r3, #16]
ARM GAS  C:\Users\Luis\AppData\Local\Temp\cc8tW16A.s 			page 10


 497              		.loc 7 96 0
 498 0038 FB68     		ldr	r3, [r7, #12]
 499 003a 3A68     		ldr	r2, [r7]
 500 003c DA61     		str	r2, [r3, #28]
 501              		.loc 7 97 0
 502 003e FB68     		ldr	r3, [r7, #12]
 503 0040 BA69     		ldr	r2, [r7, #24]
 504 0042 1A62     		str	r2, [r3, #32]
 505              		.loc 7 98 0
 506 0044 1037     		adds	r7, r7, #16
 507 0046 BD46     		mov	sp, r7
 508              		@ sp needed
 509 0048 80BD     		pop	{r7, pc}
 510              		.cfi_endproc
 511              	.LFE229:
 512              		.size	chIQObjectInit, .-chIQObjectInit
 513 004a 00BFAFF3 		.section	.text.chIQResetI,"ax",%progbits
 513      0080
 514              		.align	2
 515              		.p2align 4,,15
 516              		.global	chIQResetI
 517              		.thumb
 518              		.thumb_func
 519              		.type	chIQResetI, %function
 520              	chIQResetI:
 521              	.LFB230:
 522              		.loc 7 111 0
 523              		.cfi_startproc
 524              		@ args = 0, pretend = 0, frame = 8
 525              		@ frame_needed = 1, uses_anonymous_args = 0
 526 0000 80B5     		push	{r7, lr}
 527              		.cfi_def_cfa_offset 8
 528              		.cfi_offset 7, -8
 529              		.cfi_offset 14, -4
 530 0002 82B0     		sub	sp, sp, #8
 531              		.cfi_def_cfa_offset 16
 532 0004 00AF     		add	r7, sp, #0
 533              		.cfi_def_cfa_register 7
 534 0006 7860     		str	r0, [r7, #4]
 535              		.loc 7 113 0
 536 0008 FFF7FEFF 		bl	chDbgCheckClassI
 537              		.loc 7 115 0
 538 000c 7B68     		ldr	r3, [r7, #4]
 539 000e DA68     		ldr	r2, [r3, #12]
 540 0010 7B68     		ldr	r3, [r7, #4]
 541 0012 9A61     		str	r2, [r3, #24]
 542              		.loc 7 116 0
 543 0014 7B68     		ldr	r3, [r7, #4]
 544 0016 DA68     		ldr	r2, [r3, #12]
 545 0018 7B68     		ldr	r3, [r7, #4]
 546 001a 5A61     		str	r2, [r3, #20]
 547              		.loc 7 117 0
 548 001c 7B68     		ldr	r3, [r7, #4]
 549 001e 0022     		movs	r2, #0
 550 0020 9A60     		str	r2, [r3, #8]
 551              		.loc 7 118 0
 552 0022 7B68     		ldr	r3, [r7, #4]
ARM GAS  C:\Users\Luis\AppData\Local\Temp\cc8tW16A.s 			page 11


 553 0024 1846     		mov	r0, r3
 554 0026 6FF00101 		mvn	r1, #1
 555 002a FFF7FEFF 		bl	chThdDequeueAllI
 556              		.loc 7 119 0
 557 002e 0837     		adds	r7, r7, #8
 558 0030 BD46     		mov	sp, r7
 559              		@ sp needed
 560 0032 80BD     		pop	{r7, pc}
 561              		.cfi_endproc
 562              	.LFE230:
 563              		.size	chIQResetI, .-chIQResetI
 564 0034 AFF30080 		.section	.text.chIQPutI,"ax",%progbits
 564      AFF30080 
 564      AFF30080 
 565              		.align	2
 566              		.p2align 4,,15
 567              		.global	chIQPutI
 568              		.thumb
 569              		.thumb_func
 570              		.type	chIQPutI, %function
 571              	chIQPutI:
 572              	.LFB231:
 573              		.loc 7 134 0
 574              		.cfi_startproc
 575              		@ args = 0, pretend = 0, frame = 8
 576              		@ frame_needed = 1, uses_anonymous_args = 0
 577 0000 80B5     		push	{r7, lr}
 578              		.cfi_def_cfa_offset 8
 579              		.cfi_offset 7, -8
 580              		.cfi_offset 14, -4
 581 0002 82B0     		sub	sp, sp, #8
 582              		.cfi_def_cfa_offset 16
 583 0004 00AF     		add	r7, sp, #0
 584              		.cfi_def_cfa_register 7
 585 0006 7860     		str	r0, [r7, #4]
 586 0008 0B46     		mov	r3, r1
 587 000a FB70     		strb	r3, [r7, #3]
 588              		.loc 7 136 0
 589 000c FFF7FEFF 		bl	chDbgCheckClassI
 590              		.loc 7 138 0
 591 0010 7868     		ldr	r0, [r7, #4]
 592 0012 FFF7FEFF 		bl	chIQIsFullI
 593 0016 0346     		mov	r3, r0
 594 0018 002B     		cmp	r3, #0
 595 001a 02D0     		beq	.L25
 596              		.loc 7 139 0
 597 001c 6FF00303 		mvn	r3, #3
 598 0020 1BE0     		b	.L26
 599              	.L25:
 600              		.loc 7 142 0
 601 0022 7B68     		ldr	r3, [r7, #4]
 602 0024 9B68     		ldr	r3, [r3, #8]
 603 0026 5A1C     		adds	r2, r3, #1
 604 0028 7B68     		ldr	r3, [r7, #4]
 605 002a 9A60     		str	r2, [r3, #8]
 606              		.loc 7 143 0
 607 002c 7B68     		ldr	r3, [r7, #4]
ARM GAS  C:\Users\Luis\AppData\Local\Temp\cc8tW16A.s 			page 12


 608 002e 5B69     		ldr	r3, [r3, #20]
 609 0030 591C     		adds	r1, r3, #1
 610 0032 7A68     		ldr	r2, [r7, #4]
 611 0034 5161     		str	r1, [r2, #20]
 612 0036 FA78     		ldrb	r2, [r7, #3]
 613 0038 1A70     		strb	r2, [r3]
 614              		.loc 7 144 0
 615 003a 7B68     		ldr	r3, [r7, #4]
 616 003c 5A69     		ldr	r2, [r3, #20]
 617 003e 7B68     		ldr	r3, [r7, #4]
 618 0040 1B69     		ldr	r3, [r3, #16]
 619 0042 9A42     		cmp	r2, r3
 620 0044 03D3     		bcc	.L27
 621              		.loc 7 145 0
 622 0046 7B68     		ldr	r3, [r7, #4]
 623 0048 DA68     		ldr	r2, [r3, #12]
 624 004a 7B68     		ldr	r3, [r7, #4]
 625 004c 5A61     		str	r2, [r3, #20]
 626              	.L27:
 627              		.loc 7 148 0
 628 004e 7B68     		ldr	r3, [r7, #4]
 629 0050 1846     		mov	r0, r3
 630 0052 0021     		movs	r1, #0
 631 0054 FFF7FEFF 		bl	chThdDequeueNextI
 632              		.loc 7 150 0
 633 0058 0023     		movs	r3, #0
 634              	.L26:
 635              		.loc 7 151 0
 636 005a 1846     		mov	r0, r3
 637 005c 0837     		adds	r7, r7, #8
 638 005e BD46     		mov	sp, r7
 639              		@ sp needed
 640 0060 80BD     		pop	{r7, pc}
 641              		.cfi_endproc
 642              	.LFE231:
 643              		.size	chIQPutI, .-chIQPutI
 644 0062 00BFAFF3 		.section	.text.chIQGetTimeout,"ax",%progbits
 644      0080AFF3 
 644      0080AFF3 
 644      0080
 645              		.align	2
 646              		.p2align 4,,15
 647              		.global	chIQGetTimeout
 648              		.thumb
 649              		.thumb_func
 650              		.type	chIQGetTimeout, %function
 651              	chIQGetTimeout:
 652              	.LFB232:
 653              		.loc 7 173 0
 654              		.cfi_startproc
 655              		@ args = 0, pretend = 0, frame = 16
 656              		@ frame_needed = 1, uses_anonymous_args = 0
 657 0000 80B5     		push	{r7, lr}
 658              		.cfi_def_cfa_offset 8
 659              		.cfi_offset 7, -8
 660              		.cfi_offset 14, -4
 661 0002 84B0     		sub	sp, sp, #16
ARM GAS  C:\Users\Luis\AppData\Local\Temp\cc8tW16A.s 			page 13


 662              		.cfi_def_cfa_offset 24
 663 0004 00AF     		add	r7, sp, #0
 664              		.cfi_def_cfa_register 7
 665 0006 7860     		str	r0, [r7, #4]
 666 0008 3960     		str	r1, [r7]
 667              		.loc 7 176 0
 668 000a FFF7FEFF 		bl	chSysLock
 669              		.loc 7 177 0
 670 000e 7B68     		ldr	r3, [r7, #4]
 671 0010 DB69     		ldr	r3, [r3, #28]
 672 0012 002B     		cmp	r3, #0
 673 0014 04D0     		beq	.L29
 674              		.loc 7 178 0
 675 0016 7B68     		ldr	r3, [r7, #4]
 676 0018 DB69     		ldr	r3, [r3, #28]
 677 001a 7868     		ldr	r0, [r7, #4]
 678 001c 9847     		blx	r3
 679              		.loc 7 181 0
 680 001e 0DE0     		b	.L30
 681              	.L29:
 682 0020 0CE0     		b	.L30
 683              	.L32:
 684              	.LBB10:
 685              		.loc 7 182 0
 686 0022 7B68     		ldr	r3, [r7, #4]
 687 0024 1846     		mov	r0, r3
 688 0026 3968     		ldr	r1, [r7]
 689 0028 FFF7FEFF 		bl	chThdEnqueueTimeoutS
 690 002c F860     		str	r0, [r7, #12]
 691              		.loc 7 183 0
 692 002e FB68     		ldr	r3, [r7, #12]
 693 0030 002B     		cmp	r3, #0
 694 0032 03DA     		bge	.L30
 695              		.loc 7 184 0
 696 0034 FFF7FEFF 		bl	chSysUnlock
 697              		.loc 7 185 0
 698 0038 FB68     		ldr	r3, [r7, #12]
 699 003a 1EE0     		b	.L31
 700              	.L30:
 701              	.LBE10:
 702              		.loc 7 181 0 discriminator 1
 703 003c 7868     		ldr	r0, [r7, #4]
 704 003e FFF7FEFF 		bl	chIQIsEmptyI
 705 0042 0346     		mov	r3, r0
 706 0044 002B     		cmp	r3, #0
 707 0046 ECD1     		bne	.L32
 708              		.loc 7 189 0
 709 0048 7B68     		ldr	r3, [r7, #4]
 710 004a 9B68     		ldr	r3, [r3, #8]
 711 004c 5A1E     		subs	r2, r3, #1
 712 004e 7B68     		ldr	r3, [r7, #4]
 713 0050 9A60     		str	r2, [r3, #8]
 714              		.loc 7 190 0
 715 0052 7B68     		ldr	r3, [r7, #4]
 716 0054 9B69     		ldr	r3, [r3, #24]
 717 0056 591C     		adds	r1, r3, #1
 718 0058 7A68     		ldr	r2, [r7, #4]
ARM GAS  C:\Users\Luis\AppData\Local\Temp\cc8tW16A.s 			page 14


 719 005a 9161     		str	r1, [r2, #24]
 720 005c 1B78     		ldrb	r3, [r3]
 721 005e FB72     		strb	r3, [r7, #11]
 722              		.loc 7 191 0
 723 0060 7B68     		ldr	r3, [r7, #4]
 724 0062 9A69     		ldr	r2, [r3, #24]
 725 0064 7B68     		ldr	r3, [r7, #4]
 726 0066 1B69     		ldr	r3, [r3, #16]
 727 0068 9A42     		cmp	r2, r3
 728 006a 03D3     		bcc	.L33
 729              		.loc 7 192 0
 730 006c 7B68     		ldr	r3, [r7, #4]
 731 006e DA68     		ldr	r2, [r3, #12]
 732 0070 7B68     		ldr	r3, [r7, #4]
 733 0072 9A61     		str	r2, [r3, #24]
 734              	.L33:
 735              		.loc 7 194 0
 736 0074 FFF7FEFF 		bl	chSysUnlock
 737              		.loc 7 196 0
 738 0078 FB7A     		ldrb	r3, [r7, #11]	@ zero_extendqisi2
 739              	.L31:
 740              		.loc 7 197 0
 741 007a 1846     		mov	r0, r3
 742 007c 1037     		adds	r7, r7, #16
 743 007e BD46     		mov	sp, r7
 744              		@ sp needed
 745 0080 80BD     		pop	{r7, pc}
 746              		.cfi_endproc
 747              	.LFE232:
 748              		.size	chIQGetTimeout, .-chIQGetTimeout
 749 0082 00BFAFF3 		.section	.text.chIQReadTimeout,"ax",%progbits
 749      0080AFF3 
 749      0080AFF3 
 749      0080
 750              		.align	2
 751              		.p2align 4,,15
 752              		.global	chIQReadTimeout
 753              		.thumb
 754              		.thumb_func
 755              		.type	chIQReadTimeout, %function
 756              	chIQReadTimeout:
 757              	.LFB233:
 758              		.loc 7 224 0
 759              		.cfi_startproc
 760              		@ args = 0, pretend = 0, frame = 24
 761              		@ frame_needed = 1, uses_anonymous_args = 0
 762 0000 80B5     		push	{r7, lr}
 763              		.cfi_def_cfa_offset 8
 764              		.cfi_offset 7, -8
 765              		.cfi_offset 14, -4
 766 0002 86B0     		sub	sp, sp, #24
 767              		.cfi_def_cfa_offset 32
 768 0004 00AF     		add	r7, sp, #0
 769              		.cfi_def_cfa_register 7
 770 0006 F860     		str	r0, [r7, #12]
 771 0008 B960     		str	r1, [r7, #8]
 772 000a 7A60     		str	r2, [r7, #4]
ARM GAS  C:\Users\Luis\AppData\Local\Temp\cc8tW16A.s 			page 15


 773 000c 3B60     		str	r3, [r7]
 774              		.loc 7 225 0
 775 000e FB68     		ldr	r3, [r7, #12]
 776 0010 DB69     		ldr	r3, [r3, #28]
 777 0012 3B61     		str	r3, [r7, #16]
 778              		.loc 7 226 0
 779 0014 0023     		movs	r3, #0
 780 0016 7B61     		str	r3, [r7, #20]
 781              		.loc 7 228 0
 782 0018 7B68     		ldr	r3, [r7, #4]
 783 001a 002B     		cmp	r3, #0
 784 001c 02D1     		bne	.L35
 785              		.loc 7 228 0 is_stmt 0 discriminator 1
 786 001e 2648     		ldr	r0, .L43
 787 0020 FFF7FEFF 		bl	chSysHalt
 788              	.L35:
 789              		.loc 7 230 0 is_stmt 1
 790 0024 FFF7FEFF 		bl	chSysLock
 791              	.L42:
 792              		.loc 7 232 0
 793 0028 3B69     		ldr	r3, [r7, #16]
 794 002a 002B     		cmp	r3, #0
 795 002c 03D0     		beq	.L36
 796              		.loc 7 233 0
 797 002e 3B69     		ldr	r3, [r7, #16]
 798 0030 F868     		ldr	r0, [r7, #12]
 799 0032 9847     		blx	r3
 800              		.loc 7 236 0
 801 0034 0CE0     		b	.L37
 802              	.L36:
 803 0036 0BE0     		b	.L37
 804              	.L39:
 805              		.loc 7 237 0
 806 0038 FB68     		ldr	r3, [r7, #12]
 807 003a 1846     		mov	r0, r3
 808 003c 3968     		ldr	r1, [r7]
 809 003e FFF7FEFF 		bl	chThdEnqueueTimeoutS
 810 0042 0346     		mov	r3, r0
 811 0044 002B     		cmp	r3, #0
 812 0046 03D0     		beq	.L37
 813              		.loc 7 238 0
 814 0048 FFF7FEFF 		bl	chSysUnlock
 815              		.loc 7 239 0
 816 004c 7B69     		ldr	r3, [r7, #20]
 817 004e 2EE0     		b	.L38
 818              	.L37:
 819              		.loc 7 236 0 discriminator 1
 820 0050 F868     		ldr	r0, [r7, #12]
 821 0052 FFF7FEFF 		bl	chIQIsEmptyI
 822 0056 0346     		mov	r3, r0
 823 0058 002B     		cmp	r3, #0
 824 005a EDD1     		bne	.L39
 825              		.loc 7 243 0
 826 005c FB68     		ldr	r3, [r7, #12]
 827 005e 9B68     		ldr	r3, [r3, #8]
 828 0060 5A1E     		subs	r2, r3, #1
 829 0062 FB68     		ldr	r3, [r7, #12]
ARM GAS  C:\Users\Luis\AppData\Local\Temp\cc8tW16A.s 			page 16


 830 0064 9A60     		str	r2, [r3, #8]
 831              		.loc 7 244 0
 832 0066 BB68     		ldr	r3, [r7, #8]
 833 0068 5A1C     		adds	r2, r3, #1
 834 006a BA60     		str	r2, [r7, #8]
 835 006c FA68     		ldr	r2, [r7, #12]
 836 006e 9269     		ldr	r2, [r2, #24]
 837 0070 501C     		adds	r0, r2, #1
 838 0072 F968     		ldr	r1, [r7, #12]
 839 0074 8861     		str	r0, [r1, #24]
 840 0076 1278     		ldrb	r2, [r2]	@ zero_extendqisi2
 841 0078 1A70     		strb	r2, [r3]
 842              		.loc 7 245 0
 843 007a FB68     		ldr	r3, [r7, #12]
 844 007c 9A69     		ldr	r2, [r3, #24]
 845 007e FB68     		ldr	r3, [r7, #12]
 846 0080 1B69     		ldr	r3, [r3, #16]
 847 0082 9A42     		cmp	r2, r3
 848 0084 03D3     		bcc	.L40
 849              		.loc 7 246 0
 850 0086 FB68     		ldr	r3, [r7, #12]
 851 0088 DA68     		ldr	r2, [r3, #12]
 852 008a FB68     		ldr	r3, [r7, #12]
 853 008c 9A61     		str	r2, [r3, #24]
 854              	.L40:
 855              		.loc 7 248 0
 856 008e FFF7FEFF 		bl	chSysUnlock
 857              		.loc 7 250 0
 858 0092 7B69     		ldr	r3, [r7, #20]
 859 0094 0133     		adds	r3, r3, #1
 860 0096 7B61     		str	r3, [r7, #20]
 861              		.loc 7 251 0
 862 0098 7B68     		ldr	r3, [r7, #4]
 863 009a 013B     		subs	r3, r3, #1
 864 009c 7B60     		str	r3, [r7, #4]
 865 009e 7B68     		ldr	r3, [r7, #4]
 866 00a0 002B     		cmp	r3, #0
 867 00a2 01D1     		bne	.L41
 868              		.loc 7 252 0
 869 00a4 7B69     		ldr	r3, [r7, #20]
 870 00a6 02E0     		b	.L38
 871              	.L41:
 872              		.loc 7 255 0
 873 00a8 FFF7FEFF 		bl	chSysLock
 874              		.loc 7 256 0
 875 00ac BCE7     		b	.L42
 876              	.L38:
 877              		.loc 7 257 0
 878 00ae 1846     		mov	r0, r3
 879 00b0 1837     		adds	r7, r7, #24
 880 00b2 BD46     		mov	sp, r7
 881              		@ sp needed
 882 00b4 80BD     		pop	{r7, pc}
 883              	.L44:
 884 00b6 00BF     		.align	2
 885              	.L43:
 886 00b8 00000000 		.word	__func__.6565
ARM GAS  C:\Users\Luis\AppData\Local\Temp\cc8tW16A.s 			page 17


 887              		.cfi_endproc
 888              	.LFE233:
 889              		.size	chIQReadTimeout, .-chIQReadTimeout
 890 00bc AFF30080 		.section	.text.chOQObjectInit,"ax",%progbits
 891              		.align	2
 892              		.p2align 4,,15
 893              		.global	chOQObjectInit
 894              		.thumb
 895              		.thumb_func
 896              		.type	chOQObjectInit, %function
 897              	chOQObjectInit:
 898              	.LFB234:
 899              		.loc 7 276 0
 900              		.cfi_startproc
 901              		@ args = 4, pretend = 0, frame = 16
 902              		@ frame_needed = 1, uses_anonymous_args = 0
 903 0000 80B5     		push	{r7, lr}
 904              		.cfi_def_cfa_offset 8
 905              		.cfi_offset 7, -8
 906              		.cfi_offset 14, -4
 907 0002 84B0     		sub	sp, sp, #16
 908              		.cfi_def_cfa_offset 24
 909 0004 00AF     		add	r7, sp, #0
 910              		.cfi_def_cfa_register 7
 911 0006 F860     		str	r0, [r7, #12]
 912 0008 B960     		str	r1, [r7, #8]
 913 000a 7A60     		str	r2, [r7, #4]
 914 000c 3B60     		str	r3, [r7]
 915              		.loc 7 278 0
 916 000e FB68     		ldr	r3, [r7, #12]
 917 0010 1846     		mov	r0, r3
 918 0012 FFF7FEFF 		bl	chThdQueueObjectInit
 919              		.loc 7 279 0
 920 0016 FB68     		ldr	r3, [r7, #12]
 921 0018 7A68     		ldr	r2, [r7, #4]
 922 001a 9A60     		str	r2, [r3, #8]
 923              		.loc 7 280 0
 924 001c FB68     		ldr	r3, [r7, #12]
 925 001e BA68     		ldr	r2, [r7, #8]
 926 0020 DA60     		str	r2, [r3, #12]
 927              		.loc 7 281 0
 928 0022 FB68     		ldr	r3, [r7, #12]
 929 0024 BA68     		ldr	r2, [r7, #8]
 930 0026 9A61     		str	r2, [r3, #24]
 931              		.loc 7 282 0
 932 0028 FB68     		ldr	r3, [r7, #12]
 933 002a BA68     		ldr	r2, [r7, #8]
 934 002c 5A61     		str	r2, [r3, #20]
 935              		.loc 7 283 0
 936 002e BA68     		ldr	r2, [r7, #8]
 937 0030 7B68     		ldr	r3, [r7, #4]
 938 0032 1A44     		add	r2, r2, r3
 939 0034 FB68     		ldr	r3, [r7, #12]
 940 0036 1A61     		str	r2, [r3, #16]
 941              		.loc 7 284 0
 942 0038 FB68     		ldr	r3, [r7, #12]
 943 003a 3A68     		ldr	r2, [r7]
ARM GAS  C:\Users\Luis\AppData\Local\Temp\cc8tW16A.s 			page 18


 944 003c DA61     		str	r2, [r3, #28]
 945              		.loc 7 285 0
 946 003e FB68     		ldr	r3, [r7, #12]
 947 0040 BA69     		ldr	r2, [r7, #24]
 948 0042 1A62     		str	r2, [r3, #32]
 949              		.loc 7 286 0
 950 0044 1037     		adds	r7, r7, #16
 951 0046 BD46     		mov	sp, r7
 952              		@ sp needed
 953 0048 80BD     		pop	{r7, pc}
 954              		.cfi_endproc
 955              	.LFE234:
 956              		.size	chOQObjectInit, .-chOQObjectInit
 957 004a 00BFAFF3 		.section	.text.chOQResetI,"ax",%progbits
 957      0080
 958              		.align	2
 959              		.p2align 4,,15
 960              		.global	chOQResetI
 961              		.thumb
 962              		.thumb_func
 963              		.type	chOQResetI, %function
 964              	chOQResetI:
 965              	.LFB235:
 966              		.loc 7 299 0
 967              		.cfi_startproc
 968              		@ args = 0, pretend = 0, frame = 8
 969              		@ frame_needed = 1, uses_anonymous_args = 0
 970 0000 80B5     		push	{r7, lr}
 971              		.cfi_def_cfa_offset 8
 972              		.cfi_offset 7, -8
 973              		.cfi_offset 14, -4
 974 0002 82B0     		sub	sp, sp, #8
 975              		.cfi_def_cfa_offset 16
 976 0004 00AF     		add	r7, sp, #0
 977              		.cfi_def_cfa_register 7
 978 0006 7860     		str	r0, [r7, #4]
 979              		.loc 7 301 0
 980 0008 FFF7FEFF 		bl	chDbgCheckClassI
 981              		.loc 7 303 0
 982 000c 7B68     		ldr	r3, [r7, #4]
 983 000e DA68     		ldr	r2, [r3, #12]
 984 0010 7B68     		ldr	r3, [r7, #4]
 985 0012 9A61     		str	r2, [r3, #24]
 986              		.loc 7 304 0
 987 0014 7B68     		ldr	r3, [r7, #4]
 988 0016 DA68     		ldr	r2, [r3, #12]
 989 0018 7B68     		ldr	r3, [r7, #4]
 990 001a 5A61     		str	r2, [r3, #20]
 991              		.loc 7 305 0
 992 001c 7B68     		ldr	r3, [r7, #4]
 993 001e 1B69     		ldr	r3, [r3, #16]
 994 0020 1A46     		mov	r2, r3
 995 0022 7B68     		ldr	r3, [r7, #4]
 996 0024 DB68     		ldr	r3, [r3, #12]
 997 0026 D31A     		subs	r3, r2, r3
 998 0028 1A46     		mov	r2, r3
 999 002a 7B68     		ldr	r3, [r7, #4]
ARM GAS  C:\Users\Luis\AppData\Local\Temp\cc8tW16A.s 			page 19


 1000 002c 9A60     		str	r2, [r3, #8]
 1001              		.loc 7 306 0
 1002 002e 7B68     		ldr	r3, [r7, #4]
 1003 0030 1846     		mov	r0, r3
 1004 0032 6FF00101 		mvn	r1, #1
 1005 0036 FFF7FEFF 		bl	chThdDequeueAllI
 1006              		.loc 7 307 0
 1007 003a 0837     		adds	r7, r7, #8
 1008 003c BD46     		mov	sp, r7
 1009              		@ sp needed
 1010 003e 80BD     		pop	{r7, pc}
 1011              		.cfi_endproc
 1012              	.LFE235:
 1013              		.size	chOQResetI, .-chOQResetI
 1014              		.section	.text.chOQPutTimeout,"ax",%progbits
 1015              		.align	2
 1016              		.p2align 4,,15
 1017              		.global	chOQPutTimeout
 1018              		.thumb
 1019              		.thumb_func
 1020              		.type	chOQPutTimeout, %function
 1021              	chOQPutTimeout:
 1022              	.LFB236:
 1023              		.loc 7 331 0
 1024              		.cfi_startproc
 1025              		@ args = 0, pretend = 0, frame = 24
 1026              		@ frame_needed = 1, uses_anonymous_args = 0
 1027 0000 80B5     		push	{r7, lr}
 1028              		.cfi_def_cfa_offset 8
 1029              		.cfi_offset 7, -8
 1030              		.cfi_offset 14, -4
 1031 0002 86B0     		sub	sp, sp, #24
 1032              		.cfi_def_cfa_offset 32
 1033 0004 00AF     		add	r7, sp, #0
 1034              		.cfi_def_cfa_register 7
 1035 0006 F860     		str	r0, [r7, #12]
 1036 0008 0B46     		mov	r3, r1
 1037 000a 7A60     		str	r2, [r7, #4]
 1038 000c FB72     		strb	r3, [r7, #11]
 1039              		.loc 7 333 0
 1040 000e FFF7FEFF 		bl	chSysLock
 1041              		.loc 7 334 0
 1042 0012 0CE0     		b	.L48
 1043              	.L50:
 1044              	.LBB11:
 1045              		.loc 7 335 0
 1046 0014 FB68     		ldr	r3, [r7, #12]
 1047 0016 1846     		mov	r0, r3
 1048 0018 7968     		ldr	r1, [r7, #4]
 1049 001a FFF7FEFF 		bl	chThdEnqueueTimeoutS
 1050 001e 7861     		str	r0, [r7, #20]
 1051              		.loc 7 336 0
 1052 0020 7B69     		ldr	r3, [r7, #20]
 1053 0022 002B     		cmp	r3, #0
 1054 0024 03DA     		bge	.L48
 1055              		.loc 7 337 0
 1056 0026 FFF7FEFF 		bl	chSysUnlock
ARM GAS  C:\Users\Luis\AppData\Local\Temp\cc8tW16A.s 			page 20


 1057              		.loc 7 338 0
 1058 002a 7B69     		ldr	r3, [r7, #20]
 1059 002c 26E0     		b	.L49
 1060              	.L48:
 1061              	.LBE11:
 1062              		.loc 7 334 0 discriminator 1
 1063 002e F868     		ldr	r0, [r7, #12]
 1064 0030 FFF7FEFF 		bl	chOQIsFullI
 1065 0034 0346     		mov	r3, r0
 1066 0036 002B     		cmp	r3, #0
 1067 0038 ECD1     		bne	.L50
 1068              		.loc 7 342 0
 1069 003a FB68     		ldr	r3, [r7, #12]
 1070 003c 9B68     		ldr	r3, [r3, #8]
 1071 003e 5A1E     		subs	r2, r3, #1
 1072 0040 FB68     		ldr	r3, [r7, #12]
 1073 0042 9A60     		str	r2, [r3, #8]
 1074              		.loc 7 343 0
 1075 0044 FB68     		ldr	r3, [r7, #12]
 1076 0046 5B69     		ldr	r3, [r3, #20]
 1077 0048 591C     		adds	r1, r3, #1
 1078 004a FA68     		ldr	r2, [r7, #12]
 1079 004c 5161     		str	r1, [r2, #20]
 1080 004e FA7A     		ldrb	r2, [r7, #11]
 1081 0050 1A70     		strb	r2, [r3]
 1082              		.loc 7 344 0
 1083 0052 FB68     		ldr	r3, [r7, #12]
 1084 0054 5A69     		ldr	r2, [r3, #20]
 1085 0056 FB68     		ldr	r3, [r7, #12]
 1086 0058 1B69     		ldr	r3, [r3, #16]
 1087 005a 9A42     		cmp	r2, r3
 1088 005c 03D3     		bcc	.L51
 1089              		.loc 7 345 0
 1090 005e FB68     		ldr	r3, [r7, #12]
 1091 0060 DA68     		ldr	r2, [r3, #12]
 1092 0062 FB68     		ldr	r3, [r7, #12]
 1093 0064 5A61     		str	r2, [r3, #20]
 1094              	.L51:
 1095              		.loc 7 348 0
 1096 0066 FB68     		ldr	r3, [r7, #12]
 1097 0068 DB69     		ldr	r3, [r3, #28]
 1098 006a 002B     		cmp	r3, #0
 1099 006c 03D0     		beq	.L52
 1100              		.loc 7 349 0
 1101 006e FB68     		ldr	r3, [r7, #12]
 1102 0070 DB69     		ldr	r3, [r3, #28]
 1103 0072 F868     		ldr	r0, [r7, #12]
 1104 0074 9847     		blx	r3
 1105              	.L52:
 1106              		.loc 7 351 0
 1107 0076 FFF7FEFF 		bl	chSysUnlock
 1108              		.loc 7 353 0
 1109 007a 0023     		movs	r3, #0
 1110              	.L49:
 1111              		.loc 7 354 0
 1112 007c 1846     		mov	r0, r3
 1113 007e 1837     		adds	r7, r7, #24
ARM GAS  C:\Users\Luis\AppData\Local\Temp\cc8tW16A.s 			page 21


 1114 0080 BD46     		mov	sp, r7
 1115              		@ sp needed
 1116 0082 80BD     		pop	{r7, pc}
 1117              		.cfi_endproc
 1118              	.LFE236:
 1119              		.size	chOQPutTimeout, .-chOQPutTimeout
 1120 0084 AFF30080 		.section	.text.chOQGetI,"ax",%progbits
 1120      AFF30080 
 1120      AFF30080 
 1121              		.align	2
 1122              		.p2align 4,,15
 1123              		.global	chOQGetI
 1124              		.thumb
 1125              		.thumb_func
 1126              		.type	chOQGetI, %function
 1127              	chOQGetI:
 1128              	.LFB237:
 1129              		.loc 7 366 0
 1130              		.cfi_startproc
 1131              		@ args = 0, pretend = 0, frame = 16
 1132              		@ frame_needed = 1, uses_anonymous_args = 0
 1133 0000 80B5     		push	{r7, lr}
 1134              		.cfi_def_cfa_offset 8
 1135              		.cfi_offset 7, -8
 1136              		.cfi_offset 14, -4
 1137 0002 84B0     		sub	sp, sp, #16
 1138              		.cfi_def_cfa_offset 24
 1139 0004 00AF     		add	r7, sp, #0
 1140              		.cfi_def_cfa_register 7
 1141 0006 7860     		str	r0, [r7, #4]
 1142              		.loc 7 369 0
 1143 0008 FFF7FEFF 		bl	chDbgCheckClassI
 1144              		.loc 7 371 0
 1145 000c 7868     		ldr	r0, [r7, #4]
 1146 000e FFF7FEFF 		bl	chOQIsEmptyI
 1147 0012 0346     		mov	r3, r0
 1148 0014 002B     		cmp	r3, #0
 1149 0016 02D0     		beq	.L54
 1150              		.loc 7 372 0
 1151 0018 6FF00203 		mvn	r3, #2
 1152 001c 1BE0     		b	.L55
 1153              	.L54:
 1154              		.loc 7 375 0
 1155 001e 7B68     		ldr	r3, [r7, #4]
 1156 0020 9B68     		ldr	r3, [r3, #8]
 1157 0022 5A1C     		adds	r2, r3, #1
 1158 0024 7B68     		ldr	r3, [r7, #4]
 1159 0026 9A60     		str	r2, [r3, #8]
 1160              		.loc 7 376 0
 1161 0028 7B68     		ldr	r3, [r7, #4]
 1162 002a 9B69     		ldr	r3, [r3, #24]
 1163 002c 591C     		adds	r1, r3, #1
 1164 002e 7A68     		ldr	r2, [r7, #4]
 1165 0030 9161     		str	r1, [r2, #24]
 1166 0032 1B78     		ldrb	r3, [r3]
 1167 0034 FB73     		strb	r3, [r7, #15]
 1168              		.loc 7 377 0
ARM GAS  C:\Users\Luis\AppData\Local\Temp\cc8tW16A.s 			page 22


 1169 0036 7B68     		ldr	r3, [r7, #4]
 1170 0038 9A69     		ldr	r2, [r3, #24]
 1171 003a 7B68     		ldr	r3, [r7, #4]
 1172 003c 1B69     		ldr	r3, [r3, #16]
 1173 003e 9A42     		cmp	r2, r3
 1174 0040 03D3     		bcc	.L56
 1175              		.loc 7 378 0
 1176 0042 7B68     		ldr	r3, [r7, #4]
 1177 0044 DA68     		ldr	r2, [r3, #12]
 1178 0046 7B68     		ldr	r3, [r7, #4]
 1179 0048 9A61     		str	r2, [r3, #24]
 1180              	.L56:
 1181              		.loc 7 381 0
 1182 004a 7B68     		ldr	r3, [r7, #4]
 1183 004c 1846     		mov	r0, r3
 1184 004e 0021     		movs	r1, #0
 1185 0050 FFF7FEFF 		bl	chThdDequeueNextI
 1186              		.loc 7 383 0
 1187 0054 FB7B     		ldrb	r3, [r7, #15]	@ zero_extendqisi2
 1188              	.L55:
 1189              		.loc 7 384 0
 1190 0056 1846     		mov	r0, r3
 1191 0058 1037     		adds	r7, r7, #16
 1192 005a BD46     		mov	sp, r7
 1193              		@ sp needed
 1194 005c 80BD     		pop	{r7, pc}
 1195              		.cfi_endproc
 1196              	.LFE237:
 1197              		.size	chOQGetI, .-chOQGetI
 1198 005e 00BF     		.section	.text.chOQWriteTimeout,"ax",%progbits
 1199              		.align	2
 1200              		.p2align 4,,15
 1201              		.global	chOQWriteTimeout
 1202              		.thumb
 1203              		.thumb_func
 1204              		.type	chOQWriteTimeout, %function
 1205              	chOQWriteTimeout:
 1206              	.LFB238:
 1207              		.loc 7 411 0
 1208              		.cfi_startproc
 1209              		@ args = 0, pretend = 0, frame = 24
 1210              		@ frame_needed = 1, uses_anonymous_args = 0
 1211 0000 80B5     		push	{r7, lr}
 1212              		.cfi_def_cfa_offset 8
 1213              		.cfi_offset 7, -8
 1214              		.cfi_offset 14, -4
 1215 0002 86B0     		sub	sp, sp, #24
 1216              		.cfi_def_cfa_offset 32
 1217 0004 00AF     		add	r7, sp, #0
 1218              		.cfi_def_cfa_register 7
 1219 0006 F860     		str	r0, [r7, #12]
 1220 0008 B960     		str	r1, [r7, #8]
 1221 000a 7A60     		str	r2, [r7, #4]
 1222 000c 3B60     		str	r3, [r7]
 1223              		.loc 7 412 0
 1224 000e FB68     		ldr	r3, [r7, #12]
 1225 0010 DB69     		ldr	r3, [r3, #28]
ARM GAS  C:\Users\Luis\AppData\Local\Temp\cc8tW16A.s 			page 23


 1226 0012 3B61     		str	r3, [r7, #16]
 1227              		.loc 7 413 0
 1228 0014 0023     		movs	r3, #0
 1229 0016 7B61     		str	r3, [r7, #20]
 1230              		.loc 7 415 0
 1231 0018 7B68     		ldr	r3, [r7, #4]
 1232 001a 002B     		cmp	r3, #0
 1233 001c 02D1     		bne	.L58
 1234              		.loc 7 415 0 is_stmt 0 discriminator 1
 1235 001e 2648     		ldr	r0, .L66
 1236 0020 FFF7FEFF 		bl	chSysHalt
 1237              	.L58:
 1238              		.loc 7 417 0 is_stmt 1
 1239 0024 FFF7FEFF 		bl	chSysLock
 1240              		.loc 7 419 0
 1241 0028 0BE0     		b	.L59
 1242              	.L61:
 1243              		.loc 7 420 0
 1244 002a FB68     		ldr	r3, [r7, #12]
 1245 002c 1846     		mov	r0, r3
 1246 002e 3968     		ldr	r1, [r7]
 1247 0030 FFF7FEFF 		bl	chThdEnqueueTimeoutS
 1248 0034 0346     		mov	r3, r0
 1249 0036 002B     		cmp	r3, #0
 1250 0038 03D0     		beq	.L59
 1251              		.loc 7 421 0
 1252 003a FFF7FEFF 		bl	chSysUnlock
 1253              		.loc 7 422 0
 1254 003e 7B69     		ldr	r3, [r7, #20]
 1255 0040 35E0     		b	.L60
 1256              	.L59:
 1257              		.loc 7 419 0 discriminator 1
 1258 0042 F868     		ldr	r0, [r7, #12]
 1259 0044 FFF7FEFF 		bl	chOQIsFullI
 1260 0048 0346     		mov	r3, r0
 1261 004a 002B     		cmp	r3, #0
 1262 004c EDD1     		bne	.L61
 1263              		.loc 7 426 0
 1264 004e FB68     		ldr	r3, [r7, #12]
 1265 0050 9B68     		ldr	r3, [r3, #8]
 1266 0052 5A1E     		subs	r2, r3, #1
 1267 0054 FB68     		ldr	r3, [r7, #12]
 1268 0056 9A60     		str	r2, [r3, #8]
 1269              		.loc 7 427 0
 1270 0058 FB68     		ldr	r3, [r7, #12]
 1271 005a 5B69     		ldr	r3, [r3, #20]
 1272 005c 591C     		adds	r1, r3, #1
 1273 005e FA68     		ldr	r2, [r7, #12]
 1274 0060 5161     		str	r1, [r2, #20]
 1275 0062 BA68     		ldr	r2, [r7, #8]
 1276 0064 511C     		adds	r1, r2, #1
 1277 0066 B960     		str	r1, [r7, #8]
 1278 0068 1278     		ldrb	r2, [r2]	@ zero_extendqisi2
 1279 006a 1A70     		strb	r2, [r3]
 1280              		.loc 7 428 0
 1281 006c FB68     		ldr	r3, [r7, #12]
 1282 006e 5A69     		ldr	r2, [r3, #20]
ARM GAS  C:\Users\Luis\AppData\Local\Temp\cc8tW16A.s 			page 24


 1283 0070 FB68     		ldr	r3, [r7, #12]
 1284 0072 1B69     		ldr	r3, [r3, #16]
 1285 0074 9A42     		cmp	r2, r3
 1286 0076 03D3     		bcc	.L62
 1287              		.loc 7 429 0
 1288 0078 FB68     		ldr	r3, [r7, #12]
 1289 007a DA68     		ldr	r2, [r3, #12]
 1290 007c FB68     		ldr	r3, [r7, #12]
 1291 007e 5A61     		str	r2, [r3, #20]
 1292              	.L62:
 1293              		.loc 7 432 0
 1294 0080 3B69     		ldr	r3, [r7, #16]
 1295 0082 002B     		cmp	r3, #0
 1296 0084 02D0     		beq	.L63
 1297              		.loc 7 433 0
 1298 0086 3B69     		ldr	r3, [r7, #16]
 1299 0088 F868     		ldr	r0, [r7, #12]
 1300 008a 9847     		blx	r3
 1301              	.L63:
 1302              		.loc 7 435 0
 1303 008c FFF7FEFF 		bl	chSysUnlock
 1304              		.loc 7 437 0
 1305 0090 7B69     		ldr	r3, [r7, #20]
 1306 0092 0133     		adds	r3, r3, #1
 1307 0094 7B61     		str	r3, [r7, #20]
 1308              		.loc 7 438 0
 1309 0096 7B68     		ldr	r3, [r7, #4]
 1310 0098 013B     		subs	r3, r3, #1
 1311 009a 7B60     		str	r3, [r7, #4]
 1312 009c 7B68     		ldr	r3, [r7, #4]
 1313 009e 002B     		cmp	r3, #0
 1314 00a0 01D1     		bne	.L64
 1315              		.loc 7 439 0
 1316 00a2 7B69     		ldr	r3, [r7, #20]
 1317 00a4 03E0     		b	.L60
 1318              	.L64:
 1319              		.loc 7 441 0
 1320 00a6 FFF7FEFF 		bl	chSysLock
 1321              		.loc 7 442 0
 1322 00aa 00BF     		nop
 1323              		.loc 7 419 0
 1324 00ac C9E7     		b	.L59
 1325              	.L60:
 1326              		.loc 7 443 0
 1327 00ae 1846     		mov	r0, r3
 1328 00b0 1837     		adds	r7, r7, #24
 1329 00b2 BD46     		mov	sp, r7
 1330              		@ sp needed
 1331 00b4 80BD     		pop	{r7, pc}
 1332              	.L67:
 1333 00b6 00BF     		.align	2
 1334              	.L66:
 1335 00b8 00000000 		.word	__func__.6601
 1336              		.cfi_endproc
 1337              	.LFE238:
 1338              		.size	chOQWriteTimeout, .-chOQWriteTimeout
 1339 00bc AFF30080 		.section	.rodata.__func__.5842,"a",%progbits
ARM GAS  C:\Users\Luis\AppData\Local\Temp\cc8tW16A.s 			page 25


 1340              		.align	2
 1341              		.type	__func__.5842, %object
 1342              		.size	__func__.5842, 12
 1343              	__func__.5842:
 1344 0000 63685379 		.ascii	"chSysUnlock\000"
 1344      73556E6C 
 1344      6F636B00 
 1345              		.section	.rodata.__func__.6565,"a",%progbits
 1346              		.align	2
 1347              		.type	__func__.6565, %object
 1348              		.size	__func__.6565, 16
 1349              	__func__.6565:
 1350 0000 63684951 		.ascii	"chIQReadTimeout\000"
 1350      52656164 
 1350      54696D65 
 1350      6F757400 
 1351              		.section	.rodata.__func__.6601,"a",%progbits
 1352              		.align	2
 1353              		.type	__func__.6601, %object
 1354              		.size	__func__.6601, 17
 1355              	__func__.6601:
 1356 0000 63684F51 		.ascii	"chOQWriteTimeout\000"
 1356      57726974 
 1356      6554696D 
 1356      656F7574 
 1356      00
 1357 0011 000000   		.text
 1358              	.Letext0:
 1359              		.file 8 "c:\\emtechesdk\\gcc\\lib\\gcc\\arm-none-eabi\\4.8.3\\include\\stddef.h"
 1360              		.file 9 "c:\\emtechesdk\\gcc\\arm-none-eabi\\include\\stdint.h"
 1361              		.file 10 "../../ChibiOS/os/rt/ports/ARMCMx/compilers/GCC/chtypes.h"
 1362              		.file 11 "../../ChibiOS/os/rt/include/chsystypes.h"
 1363              		.file 12 "../../ChibiOS/os/rt/ports/ARMCMx/chcore.h"
 1364              		.file 13 "../../ChibiOS/os/rt/include/chdebug.h"
 1365              		.file 14 "../../ChibiOS/os/rt/include/chtm.h"
 1366              		.file 15 "../../ChibiOS/os/rt/include/chstats.h"
 1367              		.file 16 "../../ChibiOS/os/rt/include/chsem.h"
 1368              		.file 17 "../../ChibiOS/os/rt/include/chmtx.h"
 1369              		.file 18 "../../ChibiOS/os/ext/CMSIS/include/core_cm4.h"