ARM GAS  C:\Users\Luis\AppData\Local\Temp\ccDBeIp0.s 			page 1


   1              		.syntax unified
   2              		.cpu cortex-m4
   3              		.fpu softvfp
   4              		.eabi_attribute 20, 1
   5              		.eabi_attribute 21, 1
   6              		.eabi_attribute 23, 3
   7              		.eabi_attribute 24, 1
   8              		.eabi_attribute 25, 1
   9              		.eabi_attribute 26, 1
  10              		.eabi_attribute 30, 6
  11              		.eabi_attribute 34, 1
  12              		.eabi_attribute 18, 4
  13              		.thumb
  14              		.file	"chsys.c"
  15              		.text
  16              	.Ltext0:
  17              		.cfi_sections	.debug_frame
  18              		.section	.text.NVIC_SetPriorityGrouping,"ax",%progbits
  19              		.align	2
  20              		.p2align 4,,15
  21              		.thumb
  22              		.thumb_func
  23              		.type	NVIC_SetPriorityGrouping, %function
  24              	NVIC_SetPriorityGrouping:
  25              	.LFB95:
  26              		.file 1 "../../ChibiOS/os/ext/CMSIS/include/core_cm4.h"
  27              		.loc 1 1436 0
  28              		.cfi_startproc
  29              		@ args = 0, pretend = 0, frame = 16
  30              		@ frame_needed = 1, uses_anonymous_args = 0
  31              		@ link register save eliminated.
  32 0000 80B4     		push	{r7}
  33              		.cfi_def_cfa_offset 4
  34              		.cfi_offset 7, -4
  35 0002 85B0     		sub	sp, sp, #20
  36              		.cfi_def_cfa_offset 24
  37 0004 00AF     		add	r7, sp, #0
  38              		.cfi_def_cfa_register 7
  39 0006 7860     		str	r0, [r7, #4]
  40              		.loc 1 1438 0
  41 0008 7B68     		ldr	r3, [r7, #4]
  42 000a 03F00703 		and	r3, r3, #7
  43 000e FB60     		str	r3, [r7, #12]
  44              		.loc 1 1440 0
  45 0010 0C4B     		ldr	r3, .L2
  46 0012 DB68     		ldr	r3, [r3, #12]
  47 0014 BB60     		str	r3, [r7, #8]
  48              		.loc 1 1441 0
  49 0016 BA68     		ldr	r2, [r7, #8]
  50 0018 4FF6FF03 		movw	r3, #63743
  51 001c 1340     		ands	r3, r3, r2
  52 001e BB60     		str	r3, [r7, #8]
  53              		.loc 1 1444 0
  54 0020 FB68     		ldr	r3, [r7, #12]
  55 0022 1A02     		lsls	r2, r3, #8
  56              		.loc 1 1443 0
  57 0024 BB68     		ldr	r3, [r7, #8]
ARM GAS  C:\Users\Luis\AppData\Local\Temp\ccDBeIp0.s 			page 2


  58 0026 1343     		orrs	r3, r3, r2
  59              		.loc 1 1442 0
  60 0028 43F0BF63 		orr	r3, r3, #100139008
  61 002c 43F40033 		orr	r3, r3, #131072
  62 0030 BB60     		str	r3, [r7, #8]
  63              		.loc 1 1445 0
  64 0032 044B     		ldr	r3, .L2
  65 0034 BA68     		ldr	r2, [r7, #8]
  66 0036 DA60     		str	r2, [r3, #12]
  67              		.loc 1 1446 0
  68 0038 1437     		adds	r7, r7, #20
  69 003a BD46     		mov	sp, r7
  70              		@ sp needed
  71 003c 5DF8047B 		ldr	r7, [sp], #4
  72 0040 7047     		bx	lr
  73              	.L3:
  74 0042 00BF     		.align	2
  75              	.L2:
  76 0044 00ED00E0 		.word	-536810240
  77              		.cfi_endproc
  78              	.LFE95:
  79              		.size	NVIC_SetPriorityGrouping, .-NVIC_SetPriorityGrouping
  80 0048 AFF30080 		.section	.text.NVIC_SetPriority,"ax",%progbits
  80      AFF30080 
  81              		.align	2
  82              		.p2align 4,,15
  83              		.thumb
  84              		.thumb_func
  85              		.type	NVIC_SetPriority, %function
  86              	NVIC_SetPriority:
  87              	.LFB103:
  88              		.loc 1 1551 0
  89              		.cfi_startproc
  90              		@ args = 0, pretend = 0, frame = 8
  91              		@ frame_needed = 1, uses_anonymous_args = 0
  92              		@ link register save eliminated.
  93 0000 80B4     		push	{r7}
  94              		.cfi_def_cfa_offset 4
  95              		.cfi_offset 7, -4
  96 0002 83B0     		sub	sp, sp, #12
  97              		.cfi_def_cfa_offset 16
  98 0004 00AF     		add	r7, sp, #0
  99              		.cfi_def_cfa_register 7
 100 0006 0346     		mov	r3, r0
 101 0008 3960     		str	r1, [r7]
 102 000a FB71     		strb	r3, [r7, #7]
 103              		.loc 1 1552 0
 104 000c 97F90730 		ldrsb	r3, [r7, #7]
 105 0010 002B     		cmp	r3, #0
 106 0012 0BDA     		bge	.L5
 107              		.loc 1 1553 0
 108 0014 0D49     		ldr	r1, .L7
 109 0016 FB79     		ldrb	r3, [r7, #7]	@ zero_extendqisi2
 110 0018 03F00F03 		and	r3, r3, #15
 111 001c 043B     		subs	r3, r3, #4
 112 001e 3A68     		ldr	r2, [r7]
 113 0020 D2B2     		uxtb	r2, r2
ARM GAS  C:\Users\Luis\AppData\Local\Temp\ccDBeIp0.s 			page 3


 114 0022 1201     		lsls	r2, r2, #4
 115 0024 D2B2     		uxtb	r2, r2
 116 0026 0B44     		add	r3, r3, r1
 117 0028 1A76     		strb	r2, [r3, #24]
 118 002a 09E0     		b	.L4
 119              	.L5:
 120              		.loc 1 1555 0
 121 002c 0849     		ldr	r1, .L7+4
 122 002e 97F90730 		ldrsb	r3, [r7, #7]
 123 0032 3A68     		ldr	r2, [r7]
 124 0034 D2B2     		uxtb	r2, r2
 125 0036 1201     		lsls	r2, r2, #4
 126 0038 D2B2     		uxtb	r2, r2
 127 003a 0B44     		add	r3, r3, r1
 128 003c 83F80023 		strb	r2, [r3, #768]
 129              	.L4:
 130              		.loc 1 1556 0
 131 0040 0C37     		adds	r7, r7, #12
 132 0042 BD46     		mov	sp, r7
 133              		@ sp needed
 134 0044 5DF8047B 		ldr	r7, [sp], #4
 135 0048 7047     		bx	lr
 136              	.L8:
 137 004a 00BF     		.align	2
 138              	.L7:
 139 004c 00ED00E0 		.word	-536810240
 140 0050 00E100E0 		.word	-536813312
 141              		.cfi_endproc
 142              	.LFE103:
 143              		.size	NVIC_SetPriority, .-NVIC_SetPriority
 144 0054 AFF30080 		.section	.text.port_init,"ax",%progbits
 144      AFF30080 
 144      AFF30080 
 145              		.align	2
 146              		.p2align 4,,15
 147              		.thumb
 148              		.thumb_func
 149              		.type	port_init, %function
 150              	port_init:
 151              	.LFB112:
 152              		.file 2 "../../ChibiOS/os/rt/ports/ARMCMx/chcore_v7m.h"
 153              		.loc 2 374 0
 154              		.cfi_startproc
 155              		@ args = 0, pretend = 0, frame = 0
 156              		@ frame_needed = 1, uses_anonymous_args = 0
 157 0000 80B5     		push	{r7, lr}
 158              		.cfi_def_cfa_offset 8
 159              		.cfi_offset 7, -8
 160              		.cfi_offset 14, -4
 161 0002 00AF     		add	r7, sp, #0
 162              		.cfi_def_cfa_register 7
 163              		.loc 2 377 0
 164 0004 0E4B     		ldr	r3, .L10
 165 0006 0022     		movs	r2, #0
 166 0008 9A60     		str	r2, [r3, #8]
 167              		.loc 2 380 0
 168 000a 0320     		movs	r0, #3
ARM GAS  C:\Users\Luis\AppData\Local\Temp\ccDBeIp0.s 			page 4


 169 000c FFF7FEFF 		bl	NVIC_SetPriorityGrouping
 170              		.loc 2 383 0
 171 0010 0C4B     		ldr	r3, .L10+4
 172 0012 0C4A     		ldr	r2, .L10+4
 173 0014 D268     		ldr	r2, [r2, #12]
 174 0016 42F08072 		orr	r2, r2, #16777216
 175 001a DA60     		str	r2, [r3, #12]
 176              		.loc 2 384 0
 177 001c 0A4B     		ldr	r3, .L10+8
 178 001e 0A4A     		ldr	r2, .L10+8
 179 0020 1268     		ldr	r2, [r2]
 180 0022 42F00102 		orr	r2, r2, #1
 181 0026 1A60     		str	r2, [r3]
 182              		.loc 2 388 0
 183 0028 6FF00400 		mvn	r0, #4
 184 002c 0121     		movs	r1, #1
 185 002e FFF7FEFF 		bl	NVIC_SetPriority
 186              		.loc 2 390 0
 187 0032 6FF00100 		mvn	r0, #1
 188 0036 0221     		movs	r1, #2
 189 0038 FFF7FEFF 		bl	NVIC_SetPriority
 190              		.loc 2 391 0
 191 003c 80BD     		pop	{r7, pc}
 192              	.L11:
 193 003e 00BF     		.align	2
 194              	.L10:
 195 0040 00ED00E0 		.word	-536810240
 196 0044 F0ED00E0 		.word	-536810000
 197 0048 001000E0 		.word	-536866816
 198              		.cfi_endproc
 199              	.LFE112:
 200              		.size	port_init, .-port_init
 201 004c AFF30080 		.section	.text.port_get_irq_status,"ax",%progbits
 202              		.align	2
 203              		.p2align 4,,15
 204              		.thumb
 205              		.thumb_func
 206              		.type	port_get_irq_status, %function
 207              	port_get_irq_status:
 208              	.LFB113:
 209              		.loc 2 398 0
 210              		.cfi_startproc
 211              		@ args = 0, pretend = 0, frame = 8
 212              		@ frame_needed = 1, uses_anonymous_args = 0
 213              		@ link register save eliminated.
 214 0000 80B4     		push	{r7}
 215              		.cfi_def_cfa_offset 4
 216              		.cfi_offset 7, -4
 217 0002 83B0     		sub	sp, sp, #12
 218              		.cfi_def_cfa_offset 16
 219 0004 00AF     		add	r7, sp, #0
 220              		.cfi_def_cfa_register 7
 221              	.LBB16:
 222              	.LBB17:
 223              		.file 3 "../../ChibiOS/os/ext/CMSIS/include/core_cmFunc.h"
 224              		.loc 3 533 0
 225              	@ 533 "../../ChibiOS/os/ext/CMSIS/include/core_cmFunc.h" 1
ARM GAS  C:\Users\Luis\AppData\Local\Temp\ccDBeIp0.s 			page 5


 226 0006 EFF31283 		MRS r3, basepri_max
 227              	@ 0 "" 2
 228              		.thumb
 229 000a 3B60     		str	r3, [r7]
 230              		.loc 3 534 0
 231 000c 3B68     		ldr	r3, [r7]
 232              	.LBE17:
 233              	.LBE16:
 234              		.loc 2 402 0
 235 000e 7B60     		str	r3, [r7, #4]
 236              		.loc 2 406 0
 237 0010 7B68     		ldr	r3, [r7, #4]
 238              		.loc 2 407 0
 239 0012 1846     		mov	r0, r3
 240 0014 0C37     		adds	r7, r7, #12
 241 0016 BD46     		mov	sp, r7
 242              		@ sp needed
 243 0018 5DF8047B 		ldr	r7, [sp], #4
 244 001c 7047     		bx	lr
 245              		.cfi_endproc
 246              	.LFE113:
 247              		.size	port_get_irq_status, .-port_get_irq_status
 248              		.section	.text.port_irq_enabled,"ax",%progbits
 249              		.align	2
 250              		.p2align 4,,15
 251              		.thumb
 252              		.thumb_func
 253              		.type	port_irq_enabled, %function
 254              	port_irq_enabled:
 255              	.LFB114:
 256              		.loc 2 418 0
 257              		.cfi_startproc
 258              		@ args = 0, pretend = 0, frame = 8
 259              		@ frame_needed = 1, uses_anonymous_args = 0
 260              		@ link register save eliminated.
 261 0000 80B4     		push	{r7}
 262              		.cfi_def_cfa_offset 4
 263              		.cfi_offset 7, -4
 264 0002 83B0     		sub	sp, sp, #12
 265              		.cfi_def_cfa_offset 16
 266 0004 00AF     		add	r7, sp, #0
 267              		.cfi_def_cfa_register 7
 268 0006 7860     		str	r0, [r7, #4]
 269              		.loc 2 421 0
 270 0008 7B68     		ldr	r3, [r7, #4]
 271 000a 002B     		cmp	r3, #0
 272 000c 14BF     		ite	ne
 273 000e 0023     		movne	r3, #0
 274 0010 0123     		moveq	r3, #1
 275 0012 DBB2     		uxtb	r3, r3
 276              		.loc 2 425 0
 277 0014 1846     		mov	r0, r3
 278 0016 0C37     		adds	r7, r7, #12
 279 0018 BD46     		mov	sp, r7
 280              		@ sp needed
 281 001a 5DF8047B 		ldr	r7, [sp], #4
 282 001e 7047     		bx	lr
ARM GAS  C:\Users\Luis\AppData\Local\Temp\ccDBeIp0.s 			page 6


 283              		.cfi_endproc
 284              	.LFE114:
 285              		.size	port_irq_enabled, .-port_irq_enabled
 286              		.section	.text.port_is_isr_context,"ax",%progbits
 287              		.align	2
 288              		.p2align 4,,15
 289              		.thumb
 290              		.thumb_func
 291              		.type	port_is_isr_context, %function
 292              	port_is_isr_context:
 293              	.LFB115:
 294              		.loc 2 434 0
 295              		.cfi_startproc
 296              		@ args = 0, pretend = 0, frame = 8
 297              		@ frame_needed = 1, uses_anonymous_args = 0
 298              		@ link register save eliminated.
 299 0000 80B4     		push	{r7}
 300              		.cfi_def_cfa_offset 4
 301              		.cfi_offset 7, -4
 302 0002 83B0     		sub	sp, sp, #12
 303              		.cfi_def_cfa_offset 16
 304 0004 00AF     		add	r7, sp, #0
 305              		.cfi_def_cfa_register 7
 306              	.LBB18:
 307              	.LBB19:
 308              		.loc 3 383 0
 309              	@ 383 "../../ChibiOS/os/ext/CMSIS/include/core_cmFunc.h" 1
 310 0006 EFF30583 		MRS r3, ipsr
 311              	@ 0 "" 2
 312              		.thumb
 313 000a 7B60     		str	r3, [r7, #4]
 314              		.loc 3 384 0
 315 000c 7B68     		ldr	r3, [r7, #4]
 316              	.LBE19:
 317              	.LBE18:
 318              		.loc 2 436 0
 319 000e C3F30803 		ubfx	r3, r3, #0, #9
 320 0012 002B     		cmp	r3, #0
 321 0014 0CBF     		ite	eq
 322 0016 0023     		moveq	r3, #0
 323 0018 0123     		movne	r3, #1
 324 001a DBB2     		uxtb	r3, r3
 325              		.loc 2 437 0
 326 001c 1846     		mov	r0, r3
 327 001e 0C37     		adds	r7, r7, #12
 328 0020 BD46     		mov	sp, r7
 329              		@ sp needed
 330 0022 5DF8047B 		ldr	r7, [sp], #4
 331 0026 7047     		bx	lr
 332              		.cfi_endproc
 333              	.LFE115:
 334              		.size	port_is_isr_context, .-port_is_isr_context
 335 0028 AFF30080 		.section	.text.port_lock,"ax",%progbits
 335      AFF30080 
 336              		.align	2
 337              		.p2align 4,,15
 338              		.thumb
ARM GAS  C:\Users\Luis\AppData\Local\Temp\ccDBeIp0.s 			page 7


 339              		.thumb_func
 340              		.type	port_lock, %function
 341              	port_lock:
 342              	.LFB116:
 343              		.loc 2 444 0
 344              		.cfi_startproc
 345              		@ args = 0, pretend = 0, frame = 8
 346              		@ frame_needed = 1, uses_anonymous_args = 0
 347              		@ link register save eliminated.
 348 0000 80B4     		push	{r7}
 349              		.cfi_def_cfa_offset 4
 350              		.cfi_offset 7, -4
 351 0002 83B0     		sub	sp, sp, #12
 352              		.cfi_def_cfa_offset 16
 353 0004 00AF     		add	r7, sp, #0
 354              		.cfi_def_cfa_register 7
 355 0006 2023     		movs	r3, #32
 356 0008 7B60     		str	r3, [r7, #4]
 357              	.LBB20:
 358              	.LBB21:
 359              		.loc 3 546 0
 360 000a 7B68     		ldr	r3, [r7, #4]
 361              	@ 546 "../../ChibiOS/os/ext/CMSIS/include/core_cmFunc.h" 1
 362 000c 83F31188 		MSR basepri, r3
 363              	@ 0 "" 2
 364              		.thumb
 365              	.LBE21:
 366              	.LBE20:
 367              		.loc 2 451 0
 368 0010 0C37     		adds	r7, r7, #12
 369 0012 BD46     		mov	sp, r7
 370              		@ sp needed
 371 0014 5DF8047B 		ldr	r7, [sp], #4
 372 0018 7047     		bx	lr
 373              		.cfi_endproc
 374              	.LFE116:
 375              		.size	port_lock, .-port_lock
 376 001a 00BFAFF3 		.section	.text.port_unlock,"ax",%progbits
 376      0080
 377              		.align	2
 378              		.p2align 4,,15
 379              		.thumb
 380              		.thumb_func
 381              		.type	port_unlock, %function
 382              	port_unlock:
 383              	.LFB117:
 384              		.loc 2 458 0
 385              		.cfi_startproc
 386              		@ args = 0, pretend = 0, frame = 8
 387              		@ frame_needed = 1, uses_anonymous_args = 0
 388              		@ link register save eliminated.
 389 0000 80B4     		push	{r7}
 390              		.cfi_def_cfa_offset 4
 391              		.cfi_offset 7, -4
 392 0002 83B0     		sub	sp, sp, #12
 393              		.cfi_def_cfa_offset 16
 394 0004 00AF     		add	r7, sp, #0
ARM GAS  C:\Users\Luis\AppData\Local\Temp\ccDBeIp0.s 			page 8


 395              		.cfi_def_cfa_register 7
 396 0006 0023     		movs	r3, #0
 397 0008 7B60     		str	r3, [r7, #4]
 398              	.LBB22:
 399              	.LBB23:
 400              		.loc 3 546 0
 401 000a 7B68     		ldr	r3, [r7, #4]
 402              	@ 546 "../../ChibiOS/os/ext/CMSIS/include/core_cmFunc.h" 1
 403 000c 83F31188 		MSR basepri, r3
 404              	@ 0 "" 2
 405              		.thumb
 406              	.LBE23:
 407              	.LBE22:
 408              		.loc 2 465 0
 409 0010 0C37     		adds	r7, r7, #12
 410 0012 BD46     		mov	sp, r7
 411              		@ sp needed
 412 0014 5DF8047B 		ldr	r7, [sp], #4
 413 0018 7047     		bx	lr
 414              		.cfi_endproc
 415              	.LFE117:
 416              		.size	port_unlock, .-port_unlock
 417 001a 00BFAFF3 		.section	.text.port_lock_from_isr,"ax",%progbits
 417      0080
 418              		.align	2
 419              		.p2align 4,,15
 420              		.thumb
 421              		.thumb_func
 422              		.type	port_lock_from_isr, %function
 423              	port_lock_from_isr:
 424              	.LFB118:
 425              		.loc 2 473 0
 426              		.cfi_startproc
 427              		@ args = 0, pretend = 0, frame = 0
 428              		@ frame_needed = 1, uses_anonymous_args = 0
 429 0000 80B5     		push	{r7, lr}
 430              		.cfi_def_cfa_offset 8
 431              		.cfi_offset 7, -8
 432              		.cfi_offset 14, -4
 433 0002 00AF     		add	r7, sp, #0
 434              		.cfi_def_cfa_register 7
 435              		.loc 2 475 0
 436 0004 FFF7FEFF 		bl	port_lock
 437              		.loc 2 476 0
 438 0008 80BD     		pop	{r7, pc}
 439              		.cfi_endproc
 440              	.LFE118:
 441              		.size	port_lock_from_isr, .-port_lock_from_isr
 442 000a 00BFAFF3 		.section	.text.port_unlock_from_isr,"ax",%progbits
 442      0080
 443              		.align	2
 444              		.p2align 4,,15
 445              		.thumb
 446              		.thumb_func
 447              		.type	port_unlock_from_isr, %function
 448              	port_unlock_from_isr:
 449              	.LFB119:
ARM GAS  C:\Users\Luis\AppData\Local\Temp\ccDBeIp0.s 			page 9


 450              		.loc 2 484 0
 451              		.cfi_startproc
 452              		@ args = 0, pretend = 0, frame = 0
 453              		@ frame_needed = 1, uses_anonymous_args = 0
 454 0000 80B5     		push	{r7, lr}
 455              		.cfi_def_cfa_offset 8
 456              		.cfi_offset 7, -8
 457              		.cfi_offset 14, -4
 458 0002 00AF     		add	r7, sp, #0
 459              		.cfi_def_cfa_register 7
 460              		.loc 2 486 0
 461 0004 FFF7FEFF 		bl	port_unlock
 462              		.loc 2 487 0
 463 0008 80BD     		pop	{r7, pc}
 464              		.cfi_endproc
 465              	.LFE119:
 466              		.size	port_unlock_from_isr, .-port_unlock_from_isr
 467 000a 00BFAFF3 		.section	.text.port_disable,"ax",%progbits
 467      0080
 468              		.align	2
 469              		.p2align 4,,15
 470              		.thumb
 471              		.thumb_func
 472              		.type	port_disable, %function
 473              	port_disable:
 474              	.LFB120:
 475              		.loc 2 494 0
 476              		.cfi_startproc
 477              		@ args = 0, pretend = 0, frame = 0
 478              		@ frame_needed = 1, uses_anonymous_args = 0
 479              		@ link register save eliminated.
 480 0000 80B4     		push	{r7}
 481              		.cfi_def_cfa_offset 4
 482              		.cfi_offset 7, -4
 483 0002 00AF     		add	r7, sp, #0
 484              		.cfi_def_cfa_register 7
 485              	.LBB24:
 486              	.LBB25:
 487              		.loc 3 342 0
 488              	@ 342 "../../ChibiOS/os/ext/CMSIS/include/core_cmFunc.h" 1
 489 0004 72B6     		cpsid i
 490              	@ 0 "" 2
 491              		.thumb
 492              	.LBE25:
 493              	.LBE24:
 494              		.loc 2 497 0
 495 0006 BD46     		mov	sp, r7
 496              		@ sp needed
 497 0008 5DF8047B 		ldr	r7, [sp], #4
 498 000c 7047     		bx	lr
 499              		.cfi_endproc
 500              	.LFE120:
 501              		.size	port_disable, .-port_disable
 502 000e 00BF     		.section	.text.port_enable,"ax",%progbits
 503              		.align	2
 504              		.p2align 4,,15
 505              		.thumb
ARM GAS  C:\Users\Luis\AppData\Local\Temp\ccDBeIp0.s 			page 10


 506              		.thumb_func
 507              		.type	port_enable, %function
 508              	port_enable:
 509              	.LFB122:
 510              		.loc 2 518 0
 511              		.cfi_startproc
 512              		@ args = 0, pretend = 0, frame = 8
 513              		@ frame_needed = 1, uses_anonymous_args = 0
 514              		@ link register save eliminated.
 515 0000 80B4     		push	{r7}
 516              		.cfi_def_cfa_offset 4
 517              		.cfi_offset 7, -4
 518 0002 83B0     		sub	sp, sp, #12
 519              		.cfi_def_cfa_offset 16
 520 0004 00AF     		add	r7, sp, #0
 521              		.cfi_def_cfa_register 7
 522 0006 0023     		movs	r3, #0
 523 0008 7B60     		str	r3, [r7, #4]
 524              	.LBB26:
 525              	.LBB27:
 526              		.loc 3 546 0
 527 000a 7B68     		ldr	r3, [r7, #4]
 528              	@ 546 "../../ChibiOS/os/ext/CMSIS/include/core_cmFunc.h" 1
 529 000c 83F31188 		MSR basepri, r3
 530              	@ 0 "" 2
 531              		.thumb
 532              	.LBE27:
 533              	.LBE26:
 534              	.LBB28:
 535              	.LBB29:
 536              		.loc 3 331 0
 537              	@ 331 "../../ChibiOS/os/ext/CMSIS/include/core_cmFunc.h" 1
 538 0010 62B6     		cpsie i
 539              	@ 0 "" 2
 540              		.thumb
 541              	.LBE29:
 542              	.LBE28:
 543              		.loc 2 524 0
 544 0012 0C37     		adds	r7, r7, #12
 545 0014 BD46     		mov	sp, r7
 546              		@ sp needed
 547 0016 5DF8047B 		ldr	r7, [sp], #4
 548 001a 7047     		bx	lr
 549              		.cfi_endproc
 550              	.LFE122:
 551              		.size	port_enable, .-port_enable
 552 001c AFF30080 		.section	.text.port_wait_for_interrupt,"ax",%progbits
 553              		.align	2
 554              		.p2align 4,,15
 555              		.thumb
 556              		.thumb_func
 557              		.type	port_wait_for_interrupt, %function
 558              	port_wait_for_interrupt:
 559              	.LFB123:
 560              		.loc 2 534 0
 561              		.cfi_startproc
 562              		@ args = 0, pretend = 0, frame = 0
ARM GAS  C:\Users\Luis\AppData\Local\Temp\ccDBeIp0.s 			page 11


 563              		@ frame_needed = 1, uses_anonymous_args = 0
 564              		@ link register save eliminated.
 565 0000 80B4     		push	{r7}
 566              		.cfi_def_cfa_offset 4
 567              		.cfi_offset 7, -4
 568 0002 00AF     		add	r7, sp, #0
 569              		.cfi_def_cfa_register 7
 570              		.loc 2 539 0
 571 0004 BD46     		mov	sp, r7
 572              		@ sp needed
 573 0006 5DF8047B 		ldr	r7, [sp], #4
 574 000a 7047     		bx	lr
 575              		.cfi_endproc
 576              	.LFE123:
 577              		.size	port_wait_for_interrupt, .-port_wait_for_interrupt
 578 000c AFF30080 		.section	.text.port_rt_get_counter_value,"ax",%progbits
 579              		.align	2
 580              		.p2align 4,,15
 581              		.thumb
 582              		.thumb_func
 583              		.type	port_rt_get_counter_value, %function
 584              	port_rt_get_counter_value:
 585              	.LFB124:
 586              		.loc 2 546 0
 587              		.cfi_startproc
 588              		@ args = 0, pretend = 0, frame = 0
 589              		@ frame_needed = 1, uses_anonymous_args = 0
 590              		@ link register save eliminated.
 591 0000 80B4     		push	{r7}
 592              		.cfi_def_cfa_offset 4
 593              		.cfi_offset 7, -4
 594 0002 00AF     		add	r7, sp, #0
 595              		.cfi_def_cfa_register 7
 596              		.loc 2 548 0
 597 0004 034B     		ldr	r3, .L29
 598 0006 5B68     		ldr	r3, [r3, #4]
 599              		.loc 2 549 0
 600 0008 1846     		mov	r0, r3
 601 000a BD46     		mov	sp, r7
 602              		@ sp needed
 603 000c 5DF8047B 		ldr	r7, [sp], #4
 604 0010 7047     		bx	lr
 605              	.L30:
 606 0012 00BF     		.align	2
 607              	.L29:
 608 0014 001000E0 		.word	-536866816
 609              		.cfi_endproc
 610              	.LFE124:
 611              		.size	port_rt_get_counter_value, .-port_rt_get_counter_value
 612 0018 AFF30080 		.section	.text.st_lld_get_counter,"ax",%progbits
 612      AFF30080 
 613              		.align	2
 614              		.p2align 4,,15
 615              		.thumb
 616              		.thumb_func
 617              		.type	st_lld_get_counter, %function
 618              	st_lld_get_counter:
ARM GAS  C:\Users\Luis\AppData\Local\Temp\ccDBeIp0.s 			page 12


 619              	.LFB125:
 620              		.file 4 "../../ChibiOS/os/hal/ports/STM32/LLD/TIMv1/st_lld.h"
 621              		.loc 4 127 0
 622              		.cfi_startproc
 623              		@ args = 0, pretend = 0, frame = 0
 624              		@ frame_needed = 1, uses_anonymous_args = 0
 625              		@ link register save eliminated.
 626 0000 80B4     		push	{r7}
 627              		.cfi_def_cfa_offset 4
 628              		.cfi_offset 7, -4
 629 0002 00AF     		add	r7, sp, #0
 630              		.cfi_def_cfa_register 7
 631              		.loc 4 129 0
 632 0004 4FF08043 		mov	r3, #1073741824
 633 0008 5B6A     		ldr	r3, [r3, #36]
 634              		.loc 4 130 0
 635 000a 1846     		mov	r0, r3
 636 000c BD46     		mov	sp, r7
 637              		@ sp needed
 638 000e 5DF8047B 		ldr	r7, [sp], #4
 639 0012 7047     		bx	lr
 640              		.cfi_endproc
 641              	.LFE125:
 642              		.size	st_lld_get_counter, .-st_lld_get_counter
 643 0014 AFF30080 		.section	.text.port_timer_stop_alarm,"ax",%progbits
 643      AFF30080 
 643      AFF30080 
 644              		.align	2
 645              		.p2align 4,,15
 646              		.thumb
 647              		.thumb_func
 648              		.type	port_timer_stop_alarm, %function
 649              	port_timer_stop_alarm:
 650              	.LFB132:
 651              		.file 5 "../../ChibiOS/os/rt/ports/ARMCMx/chcore_timer.h"
 652              		.loc 5 81 0
 653              		.cfi_startproc
 654              		@ args = 0, pretend = 0, frame = 0
 655              		@ frame_needed = 1, uses_anonymous_args = 0
 656 0000 80B5     		push	{r7, lr}
 657              		.cfi_def_cfa_offset 8
 658              		.cfi_offset 7, -8
 659              		.cfi_offset 14, -4
 660 0002 00AF     		add	r7, sp, #0
 661              		.cfi_def_cfa_register 7
 662              		.loc 5 83 0
 663 0004 FFF7FEFF 		bl	stStopAlarm
 664              		.loc 5 84 0
 665 0008 80BD     		pop	{r7, pc}
 666              		.cfi_endproc
 667              	.LFE132:
 668              		.size	port_timer_stop_alarm, .-port_timer_stop_alarm
 669 000a 00BFAFF3 		.section	.text.port_timer_set_alarm,"ax",%progbits
 669      0080
 670              		.align	2
 671              		.p2align 4,,15
 672              		.thumb
ARM GAS  C:\Users\Luis\AppData\Local\Temp\ccDBeIp0.s 			page 13


 673              		.thumb_func
 674              		.type	port_timer_set_alarm, %function
 675              	port_timer_set_alarm:
 676              	.LFB133:
 677              		.loc 5 93 0
 678              		.cfi_startproc
 679              		@ args = 0, pretend = 0, frame = 8
 680              		@ frame_needed = 1, uses_anonymous_args = 0
 681 0000 80B5     		push	{r7, lr}
 682              		.cfi_def_cfa_offset 8
 683              		.cfi_offset 7, -8
 684              		.cfi_offset 14, -4
 685 0002 82B0     		sub	sp, sp, #8
 686              		.cfi_def_cfa_offset 16
 687 0004 00AF     		add	r7, sp, #0
 688              		.cfi_def_cfa_register 7
 689 0006 7860     		str	r0, [r7, #4]
 690              		.loc 5 95 0
 691 0008 7868     		ldr	r0, [r7, #4]
 692 000a FFF7FEFF 		bl	stSetAlarm
 693              		.loc 5 96 0
 694 000e 0837     		adds	r7, r7, #8
 695 0010 BD46     		mov	sp, r7
 696              		@ sp needed
 697 0012 80BD     		pop	{r7, pc}
 698              		.cfi_endproc
 699              	.LFE133:
 700              		.size	port_timer_set_alarm, .-port_timer_set_alarm
 701 0014 AFF30080 		.section	.text.port_timer_get_time,"ax",%progbits
 701      AFF30080 
 701      AFF30080 
 702              		.align	2
 703              		.p2align 4,,15
 704              		.thumb
 705              		.thumb_func
 706              		.type	port_timer_get_time, %function
 707              	port_timer_get_time:
 708              	.LFB134:
 709              		.loc 5 105 0
 710              		.cfi_startproc
 711              		@ args = 0, pretend = 0, frame = 0
 712              		@ frame_needed = 1, uses_anonymous_args = 0
 713 0000 80B5     		push	{r7, lr}
 714              		.cfi_def_cfa_offset 8
 715              		.cfi_offset 7, -8
 716              		.cfi_offset 14, -4
 717 0002 00AF     		add	r7, sp, #0
 718              		.cfi_def_cfa_register 7
 719              		.loc 5 107 0
 720 0004 FFF7FEFF 		bl	st_lld_get_counter
 721 0008 0346     		mov	r3, r0
 722              		.loc 5 108 0
 723 000a 1846     		mov	r0, r3
 724 000c 80BD     		pop	{r7, pc}
 725              		.cfi_endproc
 726              	.LFE134:
 727              		.size	port_timer_get_time, .-port_timer_get_time
ARM GAS  C:\Users\Luis\AppData\Local\Temp\ccDBeIp0.s 			page 14


 728 000e 00BF     		.section	.text.chSysEnable,"ax",%progbits
 729              		.align	2
 730              		.p2align 4,,15
 731              		.thumb
 732              		.thumb_func
 733              		.type	chSysEnable, %function
 734              	chSysEnable:
 735              	.LFB155:
 736              		.file 6 "../../ChibiOS/os/rt/include/chsys.h"
 737              		.loc 6 335 0
 738              		.cfi_startproc
 739              		@ args = 0, pretend = 0, frame = 0
 740              		@ frame_needed = 1, uses_anonymous_args = 0
 741 0000 80B5     		push	{r7, lr}
 742              		.cfi_def_cfa_offset 8
 743              		.cfi_offset 7, -8
 744              		.cfi_offset 14, -4
 745 0002 00AF     		add	r7, sp, #0
 746              		.cfi_def_cfa_register 7
 747              		.loc 6 337 0
 748 0004 FFF7FEFF 		bl	_dbg_check_enable
 749              		.loc 6 338 0
 750 0008 FFF7FEFF 		bl	port_enable
 751              		.loc 6 339 0
 752 000c 80BD     		pop	{r7, pc}
 753              		.cfi_endproc
 754              	.LFE155:
 755              		.size	chSysEnable, .-chSysEnable
 756 000e 00BF     		.section	.text.chSysLock,"ax",%progbits
 757              		.align	2
 758              		.p2align 4,,15
 759              		.thumb
 760              		.thumb_func
 761              		.type	chSysLock, %function
 762              	chSysLock:
 763              	.LFB156:
 764              		.loc 6 346 0
 765              		.cfi_startproc
 766              		@ args = 0, pretend = 0, frame = 0
 767              		@ frame_needed = 1, uses_anonymous_args = 0
 768 0000 80B5     		push	{r7, lr}
 769              		.cfi_def_cfa_offset 8
 770              		.cfi_offset 7, -8
 771              		.cfi_offset 14, -4
 772 0002 00AF     		add	r7, sp, #0
 773              		.cfi_def_cfa_register 7
 774              		.loc 6 348 0
 775 0004 FFF7FEFF 		bl	port_lock
 776              		.loc 6 349 0
 777 0008 FFF7FEFF 		bl	_stats_start_measure_crit_thd
 778              		.loc 6 350 0
 779 000c FFF7FEFF 		bl	_dbg_check_lock
 780              		.loc 6 351 0
 781 0010 80BD     		pop	{r7, pc}
 782              		.cfi_endproc
 783              	.LFE156:
 784              		.size	chSysLock, .-chSysLock
ARM GAS  C:\Users\Luis\AppData\Local\Temp\ccDBeIp0.s 			page 15


 785 0012 00BFAFF3 		.section	.text.chSysUnlock,"ax",%progbits
 785      0080AFF3 
 785      0080AFF3 
 785      0080
 786              		.align	2
 787              		.p2align 4,,15
 788              		.thumb
 789              		.thumb_func
 790              		.type	chSysUnlock, %function
 791              	chSysUnlock:
 792              	.LFB157:
 793              		.loc 6 358 0
 794              		.cfi_startproc
 795              		@ args = 0, pretend = 0, frame = 0
 796              		@ frame_needed = 1, uses_anonymous_args = 0
 797 0000 80B5     		push	{r7, lr}
 798              		.cfi_def_cfa_offset 8
 799              		.cfi_offset 7, -8
 800              		.cfi_offset 14, -4
 801 0002 00AF     		add	r7, sp, #0
 802              		.cfi_def_cfa_register 7
 803              		.loc 6 360 0
 804 0004 FFF7FEFF 		bl	_dbg_check_unlock
 805              		.loc 6 361 0
 806 0008 FFF7FEFF 		bl	_stats_stop_measure_crit_thd
 807              		.loc 6 367 0
 808 000c 094B     		ldr	r3, .L41
 809 000e 1A68     		ldr	r2, [r3]
 810 0010 084B     		ldr	r3, .L41
 811 0012 9A42     		cmp	r2, r3
 812 0014 0AD0     		beq	.L40
 813              		.loc 6 367 0 is_stmt 0 discriminator 1
 814 0016 074B     		ldr	r3, .L41
 815 0018 9B69     		ldr	r3, [r3, #24]
 816 001a 9A68     		ldr	r2, [r3, #8]
 817 001c 054B     		ldr	r3, .L41
 818 001e 1B68     		ldr	r3, [r3]
 819 0020 9B68     		ldr	r3, [r3, #8]
 820 0022 9A42     		cmp	r2, r3
 821 0024 02D2     		bcs	.L40
 822 0026 0448     		ldr	r0, .L41+4
 823 0028 FFF7FEFF 		bl	chSysHalt
 824              	.L40:
 825              		.loc 6 371 0 is_stmt 1
 826 002c FFF7FEFF 		bl	port_unlock
 827              		.loc 6 372 0
 828 0030 80BD     		pop	{r7, pc}
 829              	.L42:
 830 0032 00BF     		.align	2
 831              	.L41:
 832 0034 00000000 		.word	ch
 833 0038 00000000 		.word	__func__.5842
 834              		.cfi_endproc
 835              	.LFE157:
 836              		.size	chSysUnlock, .-chSysUnlock
 837 003c AFF30080 		.section	.text.chSysLockFromISR,"ax",%progbits
 838              		.align	2
ARM GAS  C:\Users\Luis\AppData\Local\Temp\ccDBeIp0.s 			page 16


 839              		.p2align 4,,15
 840              		.thumb
 841              		.thumb_func
 842              		.type	chSysLockFromISR, %function
 843              	chSysLockFromISR:
 844              	.LFB158:
 845              		.loc 6 386 0
 846              		.cfi_startproc
 847              		@ args = 0, pretend = 0, frame = 0
 848              		@ frame_needed = 1, uses_anonymous_args = 0
 849 0000 80B5     		push	{r7, lr}
 850              		.cfi_def_cfa_offset 8
 851              		.cfi_offset 7, -8
 852              		.cfi_offset 14, -4
 853 0002 00AF     		add	r7, sp, #0
 854              		.cfi_def_cfa_register 7
 855              		.loc 6 388 0
 856 0004 FFF7FEFF 		bl	port_lock_from_isr
 857              		.loc 6 389 0
 858 0008 FFF7FEFF 		bl	_stats_start_measure_crit_isr
 859              		.loc 6 390 0
 860 000c FFF7FEFF 		bl	_dbg_check_lock_from_isr
 861              		.loc 6 391 0
 862 0010 80BD     		pop	{r7, pc}
 863              		.cfi_endproc
 864              	.LFE158:
 865              		.size	chSysLockFromISR, .-chSysLockFromISR
 866 0012 00BFAFF3 		.section	.text.chSysUnlockFromISR,"ax",%progbits
 866      0080AFF3 
 866      0080AFF3 
 866      0080
 867              		.align	2
 868              		.p2align 4,,15
 869              		.thumb
 870              		.thumb_func
 871              		.type	chSysUnlockFromISR, %function
 872              	chSysUnlockFromISR:
 873              	.LFB159:
 874              		.loc 6 406 0
 875              		.cfi_startproc
 876              		@ args = 0, pretend = 0, frame = 0
 877              		@ frame_needed = 1, uses_anonymous_args = 0
 878 0000 80B5     		push	{r7, lr}
 879              		.cfi_def_cfa_offset 8
 880              		.cfi_offset 7, -8
 881              		.cfi_offset 14, -4
 882 0002 00AF     		add	r7, sp, #0
 883              		.cfi_def_cfa_register 7
 884              		.loc 6 408 0
 885 0004 FFF7FEFF 		bl	_dbg_check_unlock_from_isr
 886              		.loc 6 409 0
 887 0008 FFF7FEFF 		bl	_stats_stop_measure_crit_isr
 888              		.loc 6 410 0
 889 000c FFF7FEFF 		bl	port_unlock_from_isr
 890              		.loc 6 411 0
 891 0010 80BD     		pop	{r7, pc}
 892              		.cfi_endproc
ARM GAS  C:\Users\Luis\AppData\Local\Temp\ccDBeIp0.s 			page 17


 893              	.LFE159:
 894              		.size	chSysUnlockFromISR, .-chSysUnlockFromISR
 895 0012 00BFAFF3 		.section	.text.chVTGetSystemTimeX,"ax",%progbits
 895      0080AFF3 
 895      0080AFF3 
 895      0080
 896              		.align	2
 897              		.p2align 4,,15
 898              		.thumb
 899              		.thumb_func
 900              		.type	chVTGetSystemTimeX, %function
 901              	chVTGetSystemTimeX:
 902              	.LFB164:
 903              		.file 7 "../../ChibiOS/os/rt/include/chvt.h"
 904              		.loc 7 228 0
 905              		.cfi_startproc
 906              		@ args = 0, pretend = 0, frame = 0
 907              		@ frame_needed = 1, uses_anonymous_args = 0
 908 0000 80B5     		push	{r7, lr}
 909              		.cfi_def_cfa_offset 8
 910              		.cfi_offset 7, -8
 911              		.cfi_offset 14, -4
 912 0002 00AF     		add	r7, sp, #0
 913              		.cfi_def_cfa_register 7
 914              		.loc 7 233 0
 915 0004 FFF7FEFF 		bl	port_timer_get_time
 916 0008 0346     		mov	r3, r0
 917              		.loc 7 235 0
 918 000a 1846     		mov	r0, r3
 919 000c 80BD     		pop	{r7, pc}
 920              		.cfi_endproc
 921              	.LFE164:
 922              		.size	chVTGetSystemTimeX, .-chVTGetSystemTimeX
 923 000e 00BF     		.section	.text.chVTDoTickI,"ax",%progbits
 924              		.align	2
 925              		.p2align 4,,15
 926              		.thumb
 927              		.thumb_func
 928              		.type	chVTDoTickI, %function
 929              	chVTDoTickI:
 930              	.LFB176:
 931              		.loc 7 466 0
 932              		.cfi_startproc
 933              		@ args = 0, pretend = 0, frame = 16
 934              		@ frame_needed = 1, uses_anonymous_args = 0
 935 0000 80B5     		push	{r7, lr}
 936              		.cfi_def_cfa_offset 8
 937              		.cfi_offset 7, -8
 938              		.cfi_offset 14, -4
 939 0002 84B0     		sub	sp, sp, #16
 940              		.cfi_def_cfa_offset 24
 941 0004 00AF     		add	r7, sp, #0
 942              		.cfi_def_cfa_register 7
 943              		.loc 7 468 0
 944 0006 FFF7FEFF 		bl	chDbgCheckClassI
 945              		.loc 7 494 0
 946 000a 334B     		ldr	r3, .L54
ARM GAS  C:\Users\Luis\AppData\Local\Temp\ccDBeIp0.s 			page 18


 947 000c DB69     		ldr	r3, [r3, #28]
 948 000e FB60     		str	r3, [r7, #12]
 949              		.loc 7 495 0
 950 0010 FFF7FEFF 		bl	chVTGetSystemTimeX
 951 0014 B860     		str	r0, [r7, #8]
 952              		.loc 7 501 0
 953 0016 2AE0     		b	.L48
 954              	.L50:
 955              	.LBB30:
 956              		.loc 7 505 0
 957 0018 2F4B     		ldr	r3, .L54
 958 001a 9A6A     		ldr	r2, [r3, #40]
 959 001c FB68     		ldr	r3, [r7, #12]
 960 001e 9B68     		ldr	r3, [r3, #8]
 961 0020 1A44     		add	r2, r2, r3
 962 0022 2D4B     		ldr	r3, .L54
 963 0024 9A62     		str	r2, [r3, #40]
 964              		.loc 7 507 0
 965 0026 FB68     		ldr	r3, [r7, #12]
 966 0028 1B68     		ldr	r3, [r3]
 967 002a 2C4A     		ldr	r2, .L54+4
 968 002c 5A60     		str	r2, [r3, #4]
 969              		.loc 7 508 0
 970 002e FB68     		ldr	r3, [r7, #12]
 971 0030 1A68     		ldr	r2, [r3]
 972 0032 294B     		ldr	r3, .L54
 973 0034 DA61     		str	r2, [r3, #28]
 974              		.loc 7 509 0
 975 0036 FB68     		ldr	r3, [r7, #12]
 976 0038 DB68     		ldr	r3, [r3, #12]
 977 003a 3B60     		str	r3, [r7]
 978              		.loc 7 510 0
 979 003c FB68     		ldr	r3, [r7, #12]
 980 003e 0022     		movs	r2, #0
 981 0040 DA60     		str	r2, [r3, #12]
 982              		.loc 7 513 0
 983 0042 254B     		ldr	r3, .L54
 984 0044 DA69     		ldr	r2, [r3, #28]
 985 0046 254B     		ldr	r3, .L54+4
 986 0048 9A42     		cmp	r2, r3
 987 004a 01D1     		bne	.L49
 988              		.loc 7 514 0
 989 004c FFF7FEFF 		bl	port_timer_stop_alarm
 990              	.L49:
 991              		.loc 7 520 0
 992 0050 FFF7FEFF 		bl	chSysUnlockFromISR
 993              		.loc 7 523 0
 994 0054 FB68     		ldr	r3, [r7, #12]
 995 0056 1A69     		ldr	r2, [r3, #16]
 996 0058 3B68     		ldr	r3, [r7]
 997 005a 1046     		mov	r0, r2
 998 005c 9847     		blx	r3
 999              		.loc 7 527 0
 1000 005e FFF7FEFF 		bl	chSysLockFromISR
 1001              		.loc 7 531 0
 1002 0062 1D4B     		ldr	r3, .L54
 1003 0064 DB69     		ldr	r3, [r3, #28]
ARM GAS  C:\Users\Luis\AppData\Local\Temp\ccDBeIp0.s 			page 19


 1004 0066 FB60     		str	r3, [r7, #12]
 1005              		.loc 7 532 0
 1006 0068 FFF7FEFF 		bl	chVTGetSystemTimeX
 1007 006c B860     		str	r0, [r7, #8]
 1008              	.L48:
 1009              	.LBE30:
 1010              		.loc 7 501 0 discriminator 1
 1011 006e FB68     		ldr	r3, [r7, #12]
 1012 0070 9A68     		ldr	r2, [r3, #8]
 1013 0072 194B     		ldr	r3, .L54
 1014 0074 9B6A     		ldr	r3, [r3, #40]
 1015 0076 B968     		ldr	r1, [r7, #8]
 1016 0078 CB1A     		subs	r3, r1, r3
 1017 007a 9A42     		cmp	r2, r3
 1018 007c CCD9     		bls	.L50
 1019              		.loc 7 536 0
 1020 007e 164B     		ldr	r3, .L54
 1021 0080 DA69     		ldr	r2, [r3, #28]
 1022 0082 164B     		ldr	r3, .L54+4
 1023 0084 9A42     		cmp	r2, r3
 1024 0086 00D1     		bne	.L51
 1025              		.loc 7 537 0
 1026 0088 23E0     		b	.L47
 1027              	.L51:
 1028              		.loc 7 541 0
 1029 008a 134B     		ldr	r3, .L54
 1030 008c 9A6A     		ldr	r2, [r3, #40]
 1031 008e FB68     		ldr	r3, [r7, #12]
 1032 0090 9B68     		ldr	r3, [r3, #8]
 1033 0092 1A44     		add	r2, r2, r3
 1034 0094 BB68     		ldr	r3, [r7, #8]
 1035 0096 D31A     		subs	r3, r2, r3
 1036 0098 7B60     		str	r3, [r7, #4]
 1037              		.loc 7 542 0
 1038 009a 7B68     		ldr	r3, [r7, #4]
 1039 009c 012B     		cmp	r3, #1
 1040 009e 01D8     		bhi	.L53
 1041              		.loc 7 543 0
 1042 00a0 0223     		movs	r3, #2
 1043 00a2 7B60     		str	r3, [r7, #4]
 1044              	.L53:
 1045              		.loc 7 545 0
 1046 00a4 BA68     		ldr	r2, [r7, #8]
 1047 00a6 7B68     		ldr	r3, [r7, #4]
 1048 00a8 1344     		add	r3, r3, r2
 1049 00aa 1846     		mov	r0, r3
 1050 00ac FFF7FEFF 		bl	port_timer_set_alarm
 1051              		.loc 7 547 0
 1052 00b0 FFF7FEFF 		bl	chVTGetSystemTimeX
 1053 00b4 0246     		mov	r2, r0
 1054 00b6 084B     		ldr	r3, .L54
 1055 00b8 9B6A     		ldr	r3, [r3, #40]
 1056 00ba D21A     		subs	r2, r2, r3
 1057 00bc B968     		ldr	r1, [r7, #8]
 1058 00be 7B68     		ldr	r3, [r7, #4]
 1059 00c0 1944     		add	r1, r1, r3
 1060 00c2 054B     		ldr	r3, .L54
ARM GAS  C:\Users\Luis\AppData\Local\Temp\ccDBeIp0.s 			page 20


 1061 00c4 9B6A     		ldr	r3, [r3, #40]
 1062 00c6 CB1A     		subs	r3, r1, r3
 1063 00c8 9A42     		cmp	r2, r3
 1064 00ca 02D9     		bls	.L47
 1065              		.loc 7 547 0 is_stmt 0 discriminator 1
 1066 00cc 0448     		ldr	r0, .L54+8
 1067 00ce FFF7FEFF 		bl	chSysHalt
 1068              	.L47:
 1069              		.loc 7 551 0 is_stmt 1
 1070 00d2 1037     		adds	r7, r7, #16
 1071 00d4 BD46     		mov	sp, r7
 1072              		@ sp needed
 1073 00d6 80BD     		pop	{r7, pc}
 1074              	.L55:
 1075              		.align	2
 1076              	.L54:
 1077 00d8 00000000 		.word	ch
 1078 00dc 1C000000 		.word	ch+28
 1079 00e0 00000000 		.word	__func__.5928
 1080              		.cfi_endproc
 1081              	.LFE176:
 1082              		.size	chVTDoTickI, .-chVTDoTickI
 1083 00e4 AFF30080 		.section	.text.chRegSetThreadName,"ax",%progbits
 1083      AFF30080 
 1083      AFF30080 
 1084              		.align	2
 1085              		.p2align 4,,15
 1086              		.thumb
 1087              		.thumb_func
 1088              		.type	chRegSetThreadName, %function
 1089              	chRegSetThreadName:
 1090              	.LFB186:
 1091              		.file 8 "../../ChibiOS/os/rt/include/chregistry.h"
 1092              		.loc 8 132 0
 1093              		.cfi_startproc
 1094              		@ args = 0, pretend = 0, frame = 8
 1095              		@ frame_needed = 1, uses_anonymous_args = 0
 1096              		@ link register save eliminated.
 1097 0000 80B4     		push	{r7}
 1098              		.cfi_def_cfa_offset 4
 1099              		.cfi_offset 7, -4
 1100 0002 83B0     		sub	sp, sp, #12
 1101              		.cfi_def_cfa_offset 16
 1102 0004 00AF     		add	r7, sp, #0
 1103              		.cfi_def_cfa_register 7
 1104 0006 7860     		str	r0, [r7, #4]
 1105              		.loc 8 135 0
 1106 0008 044B     		ldr	r3, .L57
 1107 000a 9B69     		ldr	r3, [r3, #24]
 1108 000c 7A68     		ldr	r2, [r7, #4]
 1109 000e 9A61     		str	r2, [r3, #24]
 1110              		.loc 8 139 0
 1111 0010 0C37     		adds	r7, r7, #12
 1112 0012 BD46     		mov	sp, r7
 1113              		@ sp needed
 1114 0014 5DF8047B 		ldr	r7, [sp], #4
 1115 0018 7047     		bx	lr
ARM GAS  C:\Users\Luis\AppData\Local\Temp\ccDBeIp0.s 			page 21


 1116              	.L58:
 1117 001a 00BF     		.align	2
 1118              	.L57:
 1119 001c 00000000 		.word	ch
 1120              		.cfi_endproc
 1121              	.LFE186:
 1122              		.size	chRegSetThreadName, .-chRegSetThreadName
 1123              		.section	.text.chRegSetThreadNameX,"ax",%progbits
 1124              		.align	2
 1125              		.p2align 4,,15
 1126              		.thumb
 1127              		.thumb_func
 1128              		.type	chRegSetThreadNameX, %function
 1129              	chRegSetThreadNameX:
 1130              	.LFB188:
 1131              		.loc 8 172 0
 1132              		.cfi_startproc
 1133              		@ args = 0, pretend = 0, frame = 8
 1134              		@ frame_needed = 1, uses_anonymous_args = 0
 1135              		@ link register save eliminated.
 1136 0000 80B4     		push	{r7}
 1137              		.cfi_def_cfa_offset 4
 1138              		.cfi_offset 7, -4
 1139 0002 83B0     		sub	sp, sp, #12
 1140              		.cfi_def_cfa_offset 16
 1141 0004 00AF     		add	r7, sp, #0
 1142              		.cfi_def_cfa_register 7
 1143 0006 7860     		str	r0, [r7, #4]
 1144 0008 3960     		str	r1, [r7]
 1145              		.loc 8 175 0
 1146 000a 7B68     		ldr	r3, [r7, #4]
 1147 000c 3A68     		ldr	r2, [r7]
 1148 000e 9A61     		str	r2, [r3, #24]
 1149              		.loc 8 180 0
 1150 0010 0C37     		adds	r7, r7, #12
 1151 0012 BD46     		mov	sp, r7
 1152              		@ sp needed
 1153 0014 5DF8047B 		ldr	r7, [sp], #4
 1154 0018 7047     		bx	lr
 1155              		.cfi_endproc
 1156              	.LFE188:
 1157              		.size	chRegSetThreadNameX, .-chRegSetThreadNameX
 1158 001a 00BFAFF3 		.section	.text._idle_thread,"ax",%progbits
 1158      0080
 1159              		.align	2
 1160              		.p2align 4,,15
 1161              		.thumb
 1162              		.thumb_func
 1163              		.type	_idle_thread, %function
 1164              	_idle_thread:
 1165              	.LFB229:
 1166              		.file 9 "../../ChibiOS/os/rt/src/chsys.c"
 1167              		.loc 9 65 0
 1168              		.cfi_startproc
 1169              		@ args = 0, pretend = 0, frame = 8
 1170              		@ frame_needed = 1, uses_anonymous_args = 0
 1171 0000 80B5     		push	{r7, lr}
ARM GAS  C:\Users\Luis\AppData\Local\Temp\ccDBeIp0.s 			page 22


 1172              		.cfi_def_cfa_offset 8
 1173              		.cfi_offset 7, -8
 1174              		.cfi_offset 14, -4
 1175 0002 82B0     		sub	sp, sp, #8
 1176              		.cfi_def_cfa_offset 16
 1177 0004 00AF     		add	r7, sp, #0
 1178              		.cfi_def_cfa_register 7
 1179 0006 7860     		str	r0, [r7, #4]
 1180              	.L61:
 1181              		.loc 9 72 0 discriminator 1
 1182 0008 FFF7FEFF 		bl	port_wait_for_interrupt
 1183              		.loc 9 75 0 discriminator 1
 1184 000c FCE7     		b	.L61
 1185              		.cfi_endproc
 1186              	.LFE229:
 1187              		.size	_idle_thread, .-_idle_thread
 1188 000e 00BF     		.section	.rodata
 1189              		.align	2
 1190              	.LC0:
 1191 0000 69646C65 		.ascii	"idle\000"
 1191      00
 1192 0005 000000   		.section	.text.chSysInit,"ax",%progbits
 1193              		.align	2
 1194              		.p2align 4,,15
 1195              		.global	chSysInit
 1196              		.thumb
 1197              		.thumb_func
 1198              		.type	chSysInit, %function
 1199              	chSysInit:
 1200              	.LFB230:
 1201              		.loc 9 93 0
 1202              		.cfi_startproc
 1203              		@ args = 0, pretend = 0, frame = 8
 1204              		@ frame_needed = 1, uses_anonymous_args = 0
 1205 0000 80B5     		push	{r7, lr}
 1206              		.cfi_def_cfa_offset 8
 1207              		.cfi_offset 7, -8
 1208              		.cfi_offset 14, -4
 1209 0002 84B0     		sub	sp, sp, #16
 1210              		.cfi_def_cfa_offset 24
 1211 0004 02AF     		add	r7, sp, #8
 1212              		.cfi_def_cfa 7, 16
 1213              		.loc 9 98 0
 1214 0006 FFF7FEFF 		bl	port_init
 1215              		.loc 9 99 0
 1216 000a FFF7FEFF 		bl	_scheduler_init
 1217              		.loc 9 100 0
 1218 000e FFF7FEFF 		bl	_vt_init
 1219              		.loc 9 102 0
 1220 0012 FFF7FEFF 		bl	_tm_init
 1221              		.loc 9 105 0
 1222 0016 FFF7FEFF 		bl	_core_init
 1223              		.loc 9 108 0
 1224 001a FFF7FEFF 		bl	_heap_init
 1225              		.loc 9 111 0
 1226 001e FFF7FEFF 		bl	_stats_init
 1227              		.loc 9 114 0
ARM GAS  C:\Users\Luis\AppData\Local\Temp\ccDBeIp0.s 			page 23


 1228 0022 FFF7FEFF 		bl	_dbg_trace_init
 1229              		.loc 9 119 0
 1230 0026 1348     		ldr	r0, .L63
 1231 0028 4021     		movs	r1, #64
 1232 002a FFF7FEFF 		bl	_thread_init
 1233 002e 0246     		mov	r2, r0
 1234 0030 114B     		ldr	r3, .L63+4
 1235 0032 9A61     		str	r2, [r3, #24]
 1236              		.loc 9 125 0
 1237 0034 104B     		ldr	r3, .L63+4
 1238 0036 9B69     		ldr	r3, [r3, #24]
 1239 0038 0122     		movs	r2, #1
 1240 003a 83F82020 		strb	r2, [r3, #32]
 1241              		.loc 9 129 0
 1242 003e 0E4B     		ldr	r3, .L63+4
 1243 0040 9B69     		ldr	r3, [r3, #24]
 1244 0042 0E4A     		ldr	r2, .L63+8
 1245 0044 DA61     		str	r2, [r3, #28]
 1246              		.loc 9 131 0
 1247 0046 FFF7FEFF 		bl	chSysEnable
 1248              		.loc 9 136 0
 1249 004a 0D48     		ldr	r0, .L63+12
 1250 004c FFF7FEFF 		bl	chRegSetThreadName
 1251              	.LBB31:
 1252              		.loc 9 144 0
 1253 0050 0023     		movs	r3, #0
 1254 0052 0093     		str	r3, [sp]
 1255 0054 0B48     		ldr	r0, .L63+16
 1256 0056 4FF48071 		mov	r1, #256
 1257 005a 0122     		movs	r2, #1
 1258 005c 0A4B     		ldr	r3, .L63+20
 1259 005e FFF7FEFF 		bl	chThdCreateStatic
 1260 0062 7860     		str	r0, [r7, #4]
 1261              		.loc 9 149 0
 1262 0064 7868     		ldr	r0, [r7, #4]
 1263 0066 0949     		ldr	r1, .L63+24
 1264 0068 FFF7FEFF 		bl	chRegSetThreadNameX
 1265              	.LBE31:
 1266              		.loc 9 152 0
 1267 006c 0837     		adds	r7, r7, #8
 1268 006e BD46     		mov	sp, r7
 1269              		@ sp needed
 1270 0070 80BD     		pop	{r7, pc}
 1271              	.L64:
 1272 0072 00BF     		.align	2
 1273              	.L63:
 1274 0074 40040000 		.word	ch+1088
 1275 0078 00000000 		.word	ch
 1276 007c 00000000 		.word	__main_thread_stack_base__
 1277 0080 00000000 		.word	ch_debug
 1278 0084 E8040000 		.word	ch+1256
 1279 0088 00000000 		.word	_idle_thread
 1280 008c 00000000 		.word	.LC0
 1281              		.cfi_endproc
 1282              	.LFE230:
 1283              		.size	chSysInit, .-chSysInit
 1284              		.section	.text.chSysHalt,"ax",%progbits
ARM GAS  C:\Users\Luis\AppData\Local\Temp\ccDBeIp0.s 			page 24


 1285              		.align	2
 1286              		.p2align 4,,15
 1287              		.global	chSysHalt
 1288              		.thumb
 1289              		.thumb_func
 1290              		.type	chSysHalt, %function
 1291              	chSysHalt:
 1292              	.LFB231:
 1293              		.loc 9 166 0
 1294              		.cfi_startproc
 1295              		@ args = 0, pretend = 0, frame = 8
 1296              		@ frame_needed = 1, uses_anonymous_args = 0
 1297 0000 80B5     		push	{r7, lr}
 1298              		.cfi_def_cfa_offset 8
 1299              		.cfi_offset 7, -8
 1300              		.cfi_offset 14, -4
 1301 0002 82B0     		sub	sp, sp, #8
 1302              		.cfi_def_cfa_offset 16
 1303 0004 00AF     		add	r7, sp, #0
 1304              		.cfi_def_cfa_register 7
 1305 0006 7860     		str	r0, [r7, #4]
 1306              		.loc 9 168 0
 1307 0008 FFF7FEFF 		bl	port_disable
 1308              		.loc 9 175 0
 1309 000c 014B     		ldr	r3, .L67
 1310 000e 7A68     		ldr	r2, [r7, #4]
 1311 0010 DA62     		str	r2, [r3, #44]
 1312              	.L66:
 1313              		.loc 9 179 0 discriminator 1
 1314 0012 FEE7     		b	.L66
 1315              	.L68:
 1316              		.align	2
 1317              	.L67:
 1318 0014 00000000 		.word	ch
 1319              		.cfi_endproc
 1320              	.LFE231:
 1321              		.size	chSysHalt, .-chSysHalt
 1322 0018 AFF30080 		.section	.text.chSysIntegrityCheckI,"ax",%progbits
 1322      AFF30080 
 1323              		.align	2
 1324              		.p2align 4,,15
 1325              		.global	chSysIntegrityCheckI
 1326              		.thumb
 1327              		.thumb_func
 1328              		.type	chSysIntegrityCheckI, %function
 1329              	chSysIntegrityCheckI:
 1330              	.LFB232:
 1331              		.loc 9 206 0
 1332              		.cfi_startproc
 1333              		@ args = 0, pretend = 0, frame = 24
 1334              		@ frame_needed = 1, uses_anonymous_args = 0
 1335 0000 80B5     		push	{r7, lr}
 1336              		.cfi_def_cfa_offset 8
 1337              		.cfi_offset 7, -8
 1338              		.cfi_offset 14, -4
 1339 0002 86B0     		sub	sp, sp, #24
 1340              		.cfi_def_cfa_offset 32
ARM GAS  C:\Users\Luis\AppData\Local\Temp\ccDBeIp0.s 			page 25


 1341 0004 00AF     		add	r7, sp, #0
 1342              		.cfi_def_cfa_register 7
 1343 0006 7860     		str	r0, [r7, #4]
 1344              		.loc 9 209 0
 1345 0008 FFF7FEFF 		bl	chDbgCheckClassI
 1346              		.loc 9 212 0
 1347 000c 7B68     		ldr	r3, [r7, #4]
 1348 000e 03F00103 		and	r3, r3, #1
 1349 0012 002B     		cmp	r3, #0
 1350 0014 22D0     		beq	.L70
 1351              	.LBB32:
 1352              		.loc 9 216 0
 1353 0016 0023     		movs	r3, #0
 1354 0018 7B61     		str	r3, [r7, #20]
 1355              		.loc 9 217 0
 1356 001a 3B4B     		ldr	r3, .L86
 1357 001c 1B68     		ldr	r3, [r3]
 1358 001e 3B61     		str	r3, [r7, #16]
 1359              		.loc 9 218 0
 1360 0020 05E0     		b	.L71
 1361              	.L72:
 1362              		.loc 9 219 0
 1363 0022 7B69     		ldr	r3, [r7, #20]
 1364 0024 0133     		adds	r3, r3, #1
 1365 0026 7B61     		str	r3, [r7, #20]
 1366              		.loc 9 220 0
 1367 0028 3B69     		ldr	r3, [r7, #16]
 1368 002a 1B68     		ldr	r3, [r3]
 1369 002c 3B61     		str	r3, [r7, #16]
 1370              	.L71:
 1371              		.loc 9 218 0 discriminator 1
 1372 002e 3A69     		ldr	r2, [r7, #16]
 1373 0030 354B     		ldr	r3, .L86
 1374 0032 9A42     		cmp	r2, r3
 1375 0034 F5D1     		bne	.L72
 1376              		.loc 9 224 0
 1377 0036 344B     		ldr	r3, .L86
 1378 0038 5B68     		ldr	r3, [r3, #4]
 1379 003a 3B61     		str	r3, [r7, #16]
 1380              		.loc 9 225 0
 1381 003c 05E0     		b	.L73
 1382              	.L74:
 1383              		.loc 9 226 0
 1384 003e 7B69     		ldr	r3, [r7, #20]
 1385 0040 013B     		subs	r3, r3, #1
 1386 0042 7B61     		str	r3, [r7, #20]
 1387              		.loc 9 227 0
 1388 0044 3B69     		ldr	r3, [r7, #16]
 1389 0046 5B68     		ldr	r3, [r3, #4]
 1390 0048 3B61     		str	r3, [r7, #16]
 1391              	.L73:
 1392              		.loc 9 225 0 discriminator 1
 1393 004a 3A69     		ldr	r2, [r7, #16]
 1394 004c 2E4B     		ldr	r3, .L86
 1395 004e 9A42     		cmp	r2, r3
 1396 0050 F5D1     		bne	.L74
 1397              		.loc 9 231 0
ARM GAS  C:\Users\Luis\AppData\Local\Temp\ccDBeIp0.s 			page 26


 1398 0052 7B69     		ldr	r3, [r7, #20]
 1399 0054 002B     		cmp	r3, #0
 1400 0056 01D0     		beq	.L70
 1401              		.loc 9 232 0
 1402 0058 0123     		movs	r3, #1
 1403 005a 50E0     		b	.L75
 1404              	.L70:
 1405              	.LBE32:
 1406              		.loc 9 237 0
 1407 005c 7B68     		ldr	r3, [r7, #4]
 1408 005e 03F00203 		and	r3, r3, #2
 1409 0062 002B     		cmp	r3, #0
 1410 0064 22D0     		beq	.L76
 1411              	.LBB33:
 1412              		.loc 9 241 0
 1413 0066 0023     		movs	r3, #0
 1414 0068 7B61     		str	r3, [r7, #20]
 1415              		.loc 9 242 0
 1416 006a 274B     		ldr	r3, .L86
 1417 006c DB69     		ldr	r3, [r3, #28]
 1418 006e FB60     		str	r3, [r7, #12]
 1419              		.loc 9 243 0
 1420 0070 05E0     		b	.L77
 1421              	.L78:
 1422              		.loc 9 244 0
 1423 0072 7B69     		ldr	r3, [r7, #20]
 1424 0074 0133     		adds	r3, r3, #1
 1425 0076 7B61     		str	r3, [r7, #20]
 1426              		.loc 9 245 0
 1427 0078 FB68     		ldr	r3, [r7, #12]
 1428 007a 1B68     		ldr	r3, [r3]
 1429 007c FB60     		str	r3, [r7, #12]
 1430              	.L77:
 1431              		.loc 9 243 0 discriminator 1
 1432 007e FA68     		ldr	r2, [r7, #12]
 1433 0080 224B     		ldr	r3, .L86+4
 1434 0082 9A42     		cmp	r2, r3
 1435 0084 F5D1     		bne	.L78
 1436              		.loc 9 249 0
 1437 0086 204B     		ldr	r3, .L86
 1438 0088 1B6A     		ldr	r3, [r3, #32]
 1439 008a FB60     		str	r3, [r7, #12]
 1440              		.loc 9 250 0
 1441 008c 05E0     		b	.L79
 1442              	.L80:
 1443              		.loc 9 251 0
 1444 008e 7B69     		ldr	r3, [r7, #20]
 1445 0090 013B     		subs	r3, r3, #1
 1446 0092 7B61     		str	r3, [r7, #20]
 1447              		.loc 9 252 0
 1448 0094 FB68     		ldr	r3, [r7, #12]
 1449 0096 5B68     		ldr	r3, [r3, #4]
 1450 0098 FB60     		str	r3, [r7, #12]
 1451              	.L79:
 1452              		.loc 9 250 0 discriminator 1
 1453 009a FA68     		ldr	r2, [r7, #12]
 1454 009c 1B4B     		ldr	r3, .L86+4
ARM GAS  C:\Users\Luis\AppData\Local\Temp\ccDBeIp0.s 			page 27


 1455 009e 9A42     		cmp	r2, r3
 1456 00a0 F5D1     		bne	.L80
 1457              		.loc 9 256 0
 1458 00a2 7B69     		ldr	r3, [r7, #20]
 1459 00a4 002B     		cmp	r3, #0
 1460 00a6 01D0     		beq	.L76
 1461              		.loc 9 257 0
 1462 00a8 0123     		movs	r3, #1
 1463 00aa 28E0     		b	.L75
 1464              	.L76:
 1465              	.LBE33:
 1466              		.loc 9 262 0
 1467 00ac 7B68     		ldr	r3, [r7, #4]
 1468 00ae 03F00403 		and	r3, r3, #4
 1469 00b2 002B     		cmp	r3, #0
 1470 00b4 22D0     		beq	.L81
 1471              	.LBB34:
 1472              		.loc 9 266 0
 1473 00b6 0023     		movs	r3, #0
 1474 00b8 7B61     		str	r3, [r7, #20]
 1475              		.loc 9 267 0
 1476 00ba 134B     		ldr	r3, .L86
 1477 00bc 1B69     		ldr	r3, [r3, #16]
 1478 00be BB60     		str	r3, [r7, #8]
 1479              		.loc 9 268 0
 1480 00c0 05E0     		b	.L82
 1481              	.L83:
 1482              		.loc 9 269 0
 1483 00c2 7B69     		ldr	r3, [r7, #20]
 1484 00c4 0133     		adds	r3, r3, #1
 1485 00c6 7B61     		str	r3, [r7, #20]
 1486              		.loc 9 270 0
 1487 00c8 BB68     		ldr	r3, [r7, #8]
 1488 00ca 1B69     		ldr	r3, [r3, #16]
 1489 00cc BB60     		str	r3, [r7, #8]
 1490              	.L82:
 1491              		.loc 9 268 0 discriminator 1
 1492 00ce BA68     		ldr	r2, [r7, #8]
 1493 00d0 0D4B     		ldr	r3, .L86
 1494 00d2 9A42     		cmp	r2, r3
 1495 00d4 F5D1     		bne	.L83
 1496              		.loc 9 274 0
 1497 00d6 0C4B     		ldr	r3, .L86
 1498 00d8 5B69     		ldr	r3, [r3, #20]
 1499 00da BB60     		str	r3, [r7, #8]
 1500              		.loc 9 275 0
 1501 00dc 05E0     		b	.L84
 1502              	.L85:
 1503              		.loc 9 276 0
 1504 00de 7B69     		ldr	r3, [r7, #20]
 1505 00e0 013B     		subs	r3, r3, #1
 1506 00e2 7B61     		str	r3, [r7, #20]
 1507              		.loc 9 277 0
 1508 00e4 BB68     		ldr	r3, [r7, #8]
 1509 00e6 5B69     		ldr	r3, [r3, #20]
 1510 00e8 BB60     		str	r3, [r7, #8]
 1511              	.L84:
ARM GAS  C:\Users\Luis\AppData\Local\Temp\ccDBeIp0.s 			page 28


 1512              		.loc 9 275 0 discriminator 1
 1513 00ea BA68     		ldr	r2, [r7, #8]
 1514 00ec 064B     		ldr	r3, .L86
 1515 00ee 9A42     		cmp	r2, r3
 1516 00f0 F5D1     		bne	.L85
 1517              		.loc 9 281 0
 1518 00f2 7B69     		ldr	r3, [r7, #20]
 1519 00f4 002B     		cmp	r3, #0
 1520 00f6 01D0     		beq	.L81
 1521              		.loc 9 282 0
 1522 00f8 0123     		movs	r3, #1
 1523 00fa 00E0     		b	.L75
 1524              	.L81:
 1525              	.LBE34:
 1526              		.loc 9 293 0
 1527 00fc 0023     		movs	r3, #0
 1528              	.L75:
 1529              		.loc 9 294 0
 1530 00fe 1846     		mov	r0, r3
 1531 0100 1837     		adds	r7, r7, #24
 1532 0102 BD46     		mov	sp, r7
 1533              		@ sp needed
 1534 0104 80BD     		pop	{r7, pc}
 1535              	.L87:
 1536 0106 00BF     		.align	2
 1537              	.L86:
 1538 0108 00000000 		.word	ch
 1539 010c 1C000000 		.word	ch+28
 1540              		.cfi_endproc
 1541              	.LFE232:
 1542              		.size	chSysIntegrityCheckI, .-chSysIntegrityCheckI
 1543              		.section	.text.chSysTimerHandlerI,"ax",%progbits
 1544              		.align	2
 1545              		.p2align 4,,15
 1546              		.global	chSysTimerHandlerI
 1547              		.thumb
 1548              		.thumb_func
 1549              		.type	chSysTimerHandlerI, %function
 1550              	chSysTimerHandlerI:
 1551              	.LFB233:
 1552              		.loc 9 307 0
 1553              		.cfi_startproc
 1554              		@ args = 0, pretend = 0, frame = 0
 1555              		@ frame_needed = 1, uses_anonymous_args = 0
 1556 0000 80B5     		push	{r7, lr}
 1557              		.cfi_def_cfa_offset 8
 1558              		.cfi_offset 7, -8
 1559              		.cfi_offset 14, -4
 1560 0002 00AF     		add	r7, sp, #0
 1561              		.cfi_def_cfa_register 7
 1562              		.loc 9 309 0
 1563 0004 FFF7FEFF 		bl	chDbgCheckClassI
 1564              		.loc 9 321 0
 1565 0008 FFF7FEFF 		bl	chVTDoTickI
 1566              		.loc 9 325 0
 1567 000c 80BD     		pop	{r7, pc}
 1568              		.cfi_endproc
ARM GAS  C:\Users\Luis\AppData\Local\Temp\ccDBeIp0.s 			page 29


 1569              	.LFE233:
 1570              		.size	chSysTimerHandlerI, .-chSysTimerHandlerI
 1571 000e 00BF     		.section	.text.chSysGetStatusAndLockX,"ax",%progbits
 1572              		.align	2
 1573              		.p2align 4,,15
 1574              		.global	chSysGetStatusAndLockX
 1575              		.thumb
 1576              		.thumb_func
 1577              		.type	chSysGetStatusAndLockX, %function
 1578              	chSysGetStatusAndLockX:
 1579              	.LFB234:
 1580              		.loc 9 340 0
 1581              		.cfi_startproc
 1582              		@ args = 0, pretend = 0, frame = 8
 1583              		@ frame_needed = 1, uses_anonymous_args = 0
 1584 0000 80B5     		push	{r7, lr}
 1585              		.cfi_def_cfa_offset 8
 1586              		.cfi_offset 7, -8
 1587              		.cfi_offset 14, -4
 1588 0002 82B0     		sub	sp, sp, #8
 1589              		.cfi_def_cfa_offset 16
 1590 0004 00AF     		add	r7, sp, #0
 1591              		.cfi_def_cfa_register 7
 1592              		.loc 9 342 0
 1593 0006 FFF7FEFF 		bl	port_get_irq_status
 1594 000a 7860     		str	r0, [r7, #4]
 1595              		.loc 9 343 0
 1596 000c 7868     		ldr	r0, [r7, #4]
 1597 000e FFF7FEFF 		bl	port_irq_enabled
 1598 0012 0346     		mov	r3, r0
 1599 0014 002B     		cmp	r3, #0
 1600 0016 09D0     		beq	.L90
 1601              		.loc 9 344 0
 1602 0018 FFF7FEFF 		bl	port_is_isr_context
 1603 001c 0346     		mov	r3, r0
 1604 001e 002B     		cmp	r3, #0
 1605 0020 02D0     		beq	.L91
 1606              		.loc 9 345 0
 1607 0022 FFF7FEFF 		bl	chSysLockFromISR
 1608 0026 01E0     		b	.L90
 1609              	.L91:
 1610              		.loc 9 348 0
 1611 0028 FFF7FEFF 		bl	chSysLock
 1612              	.L90:
 1613              		.loc 9 351 0
 1614 002c 7B68     		ldr	r3, [r7, #4]
 1615              		.loc 9 352 0
 1616 002e 1846     		mov	r0, r3
 1617 0030 0837     		adds	r7, r7, #8
 1618 0032 BD46     		mov	sp, r7
 1619              		@ sp needed
 1620 0034 80BD     		pop	{r7, pc}
 1621              		.cfi_endproc
 1622              	.LFE234:
 1623              		.size	chSysGetStatusAndLockX, .-chSysGetStatusAndLockX
 1624 0036 00BFAFF3 		.section	.text.chSysRestoreStatusX,"ax",%progbits
 1624      0080AFF3 
ARM GAS  C:\Users\Luis\AppData\Local\Temp\ccDBeIp0.s 			page 30


 1624      0080
 1625              		.align	2
 1626              		.p2align 4,,15
 1627              		.global	chSysRestoreStatusX
 1628              		.thumb
 1629              		.thumb_func
 1630              		.type	chSysRestoreStatusX, %function
 1631              	chSysRestoreStatusX:
 1632              	.LFB235:
 1633              		.loc 9 363 0
 1634              		.cfi_startproc
 1635              		@ args = 0, pretend = 0, frame = 8
 1636              		@ frame_needed = 1, uses_anonymous_args = 0
 1637 0000 80B5     		push	{r7, lr}
 1638              		.cfi_def_cfa_offset 8
 1639              		.cfi_offset 7, -8
 1640              		.cfi_offset 14, -4
 1641 0002 82B0     		sub	sp, sp, #8
 1642              		.cfi_def_cfa_offset 16
 1643 0004 00AF     		add	r7, sp, #0
 1644              		.cfi_def_cfa_register 7
 1645 0006 7860     		str	r0, [r7, #4]
 1646              		.loc 9 365 0
 1647 0008 7868     		ldr	r0, [r7, #4]
 1648 000a FFF7FEFF 		bl	port_irq_enabled
 1649 000e 0346     		mov	r3, r0
 1650 0010 002B     		cmp	r3, #0
 1651 0012 0BD0     		beq	.L93
 1652              		.loc 9 366 0
 1653 0014 FFF7FEFF 		bl	port_is_isr_context
 1654 0018 0346     		mov	r3, r0
 1655 001a 002B     		cmp	r3, #0
 1656 001c 02D0     		beq	.L95
 1657              		.loc 9 367 0
 1658 001e FFF7FEFF 		bl	chSysUnlockFromISR
 1659 0022 03E0     		b	.L93
 1660              	.L95:
 1661              		.loc 9 370 0
 1662 0024 FFF7FEFF 		bl	chSchRescheduleS
 1663              		.loc 9 371 0
 1664 0028 FFF7FEFF 		bl	chSysUnlock
 1665              	.L93:
 1666              		.loc 9 374 0
 1667 002c 0837     		adds	r7, r7, #8
 1668 002e BD46     		mov	sp, r7
 1669              		@ sp needed
 1670 0030 80BD     		pop	{r7, pc}
 1671              		.cfi_endproc
 1672              	.LFE235:
 1673              		.size	chSysRestoreStatusX, .-chSysRestoreStatusX
 1674 0032 00BFAFF3 		.section	.text.chSysIsCounterWithinX,"ax",%progbits
 1674      0080AFF3 
 1674      0080AFF3 
 1674      0080
 1675              		.align	2
 1676              		.p2align 4,,15
 1677              		.global	chSysIsCounterWithinX
ARM GAS  C:\Users\Luis\AppData\Local\Temp\ccDBeIp0.s 			page 31


 1678              		.thumb
 1679              		.thumb_func
 1680              		.type	chSysIsCounterWithinX, %function
 1681              	chSysIsCounterWithinX:
 1682              	.LFB236:
 1683              		.loc 9 395 0
 1684              		.cfi_startproc
 1685              		@ args = 0, pretend = 0, frame = 16
 1686              		@ frame_needed = 1, uses_anonymous_args = 0
 1687              		@ link register save eliminated.
 1688 0000 80B4     		push	{r7}
 1689              		.cfi_def_cfa_offset 4
 1690              		.cfi_offset 7, -4
 1691 0002 85B0     		sub	sp, sp, #20
 1692              		.cfi_def_cfa_offset 24
 1693 0004 00AF     		add	r7, sp, #0
 1694              		.cfi_def_cfa_register 7
 1695 0006 F860     		str	r0, [r7, #12]
 1696 0008 B960     		str	r1, [r7, #8]
 1697 000a 7A60     		str	r2, [r7, #4]
 1698              		.loc 9 397 0
 1699 000c FA68     		ldr	r2, [r7, #12]
 1700 000e BB68     		ldr	r3, [r7, #8]
 1701 0010 D21A     		subs	r2, r2, r3
 1702 0012 7968     		ldr	r1, [r7, #4]
 1703 0014 BB68     		ldr	r3, [r7, #8]
 1704 0016 CB1A     		subs	r3, r1, r3
 1705 0018 9A42     		cmp	r2, r3
 1706 001a 2CBF     		ite	cs
 1707 001c 0023     		movcs	r3, #0
 1708 001e 0123     		movcc	r3, #1
 1709 0020 DBB2     		uxtb	r3, r3
 1710              		.loc 9 398 0
 1711 0022 1846     		mov	r0, r3
 1712 0024 1437     		adds	r7, r7, #20
 1713 0026 BD46     		mov	sp, r7
 1714              		@ sp needed
 1715 0028 5DF8047B 		ldr	r7, [sp], #4
 1716 002c 7047     		bx	lr
 1717              		.cfi_endproc
 1718              	.LFE236:
 1719              		.size	chSysIsCounterWithinX, .-chSysIsCounterWithinX
 1720 002e 00BF     		.section	.text.chSysPolledDelayX,"ax",%progbits
 1721              		.align	2
 1722              		.p2align 4,,15
 1723              		.global	chSysPolledDelayX
 1724              		.thumb
 1725              		.thumb_func
 1726              		.type	chSysPolledDelayX, %function
 1727              	chSysPolledDelayX:
 1728              	.LFB237:
 1729              		.loc 9 411 0
 1730              		.cfi_startproc
 1731              		@ args = 0, pretend = 0, frame = 16
 1732              		@ frame_needed = 1, uses_anonymous_args = 0
 1733 0000 80B5     		push	{r7, lr}
 1734              		.cfi_def_cfa_offset 8
ARM GAS  C:\Users\Luis\AppData\Local\Temp\ccDBeIp0.s 			page 32


 1735              		.cfi_offset 7, -8
 1736              		.cfi_offset 14, -4
 1737 0002 84B0     		sub	sp, sp, #16
 1738              		.cfi_def_cfa_offset 24
 1739 0004 00AF     		add	r7, sp, #0
 1740              		.cfi_def_cfa_register 7
 1741 0006 7860     		str	r0, [r7, #4]
 1742              		.loc 9 412 0
 1743 0008 FFF7FEFF 		bl	port_rt_get_counter_value
 1744 000c F860     		str	r0, [r7, #12]
 1745              		.loc 9 413 0
 1746 000e FA68     		ldr	r2, [r7, #12]
 1747 0010 7B68     		ldr	r3, [r7, #4]
 1748 0012 1344     		add	r3, r3, r2
 1749 0014 BB60     		str	r3, [r7, #8]
 1750              		.loc 9 415 0
 1751 0016 00BF     		nop
 1752              	.L99:
 1753              		.loc 9 415 0 is_stmt 0 discriminator 1
 1754 0018 FFF7FEFF 		bl	port_rt_get_counter_value
 1755 001c 0346     		mov	r3, r0
 1756 001e 1846     		mov	r0, r3
 1757 0020 F968     		ldr	r1, [r7, #12]
 1758 0022 BA68     		ldr	r2, [r7, #8]
 1759 0024 FFF7FEFF 		bl	chSysIsCounterWithinX
 1760 0028 0346     		mov	r3, r0
 1761 002a 002B     		cmp	r3, #0
 1762 002c F4D1     		bne	.L99
 1763              		.loc 9 417 0 is_stmt 1
 1764 002e 1037     		adds	r7, r7, #16
 1765 0030 BD46     		mov	sp, r7
 1766              		@ sp needed
 1767 0032 80BD     		pop	{r7, pc}
 1768              		.cfi_endproc
 1769              	.LFE237:
 1770              		.size	chSysPolledDelayX, .-chSysPolledDelayX
 1771 0034 AFF30080 		.section	.rodata.__func__.5928,"a",%progbits
 1771      AFF30080 
 1771      AFF30080 
 1772              		.align	2
 1773              		.type	__func__.5928, %object
 1774              		.size	__func__.5928, 12
 1775              	__func__.5928:
 1776 0000 63685654 		.ascii	"chVTDoTickI\000"
 1776      446F5469 
 1776      636B4900 
 1777              		.section	.rodata.__func__.5842,"a",%progbits
 1778              		.align	2
 1779              		.type	__func__.5842, %object
 1780              		.size	__func__.5842, 12
 1781              	__func__.5842:
 1782 0000 63685379 		.ascii	"chSysUnlock\000"
 1782      73556E6C 
 1782      6F636B00 
 1783              		.text
 1784              	.Letext0:
 1785              		.file 10 "c:\\emtechesdk\\gcc\\arm-none-eabi\\include\\stdint.h"
ARM GAS  C:\Users\Luis\AppData\Local\Temp\ccDBeIp0.s 			page 33


 1786              		.file 11 "../../ChibiOS/os/rt/ports/ARMCMx/compilers/GCC/chtypes.h"
 1787              		.file 12 "../../ChibiOS/os/rt/include/chsystypes.h"
 1788              		.file 13 "../../ChibiOS/os/rt/include/chschd.h"
 1789              		.file 14 "../../ChibiOS/os/ext/CMSIS/ST/stm32f407xx.h"
 1790              		.file 15 "../../ChibiOS/os/rt/ports/ARMCMx/chcore.h"
 1791              		.file 16 "../../ChibiOS/os/hal/ports/STM32/LLD/TIMv1/stm32_tim.h"
 1792              		.file 17 "../../ChibiOS/os/rt/include/chdebug.h"
 1793              		.file 18 "../../ChibiOS/os/rt/include/chtm.h"
 1794              		.file 19 "../../ChibiOS/os/rt/include/chstats.h"
 1795              		.file 20 "../../ChibiOS/os/rt/include/chsem.h"
 1796              		.file 21 "../../ChibiOS/os/rt/include/chmtx.h"
 1797              		.file 22 "../../ChibiOS/os/rt/include/chthreads.h"