ARM GAS  C:\Users\Luis\AppData\Local\Temp\ccfBMJLd.s 			page 1


   1              		.syntax unified
   2              		.cpu cortex-m4
   3              		.fpu softvfp
   4              		.eabi_attribute 20, 1
   5              		.eabi_attribute 21, 1
   6              		.eabi_attribute 23, 3
   7              		.eabi_attribute 24, 1
   8              		.eabi_attribute 25, 1
   9              		.eabi_attribute 26, 1
  10              		.eabi_attribute 30, 6
  11              		.eabi_attribute 34, 1
  12              		.eabi_attribute 18, 4
  13              		.thumb
  14              		.file	"chthreads.c"
  15              		.text
  16              	.Ltext0:
  17              		.cfi_sections	.debug_frame
  18              		.section	.text.port_lock,"ax",%progbits
  19              		.align	2
  20              		.p2align 4,,15
  21              		.thumb
  22              		.thumb_func
  23              		.type	port_lock, %function
  24              	port_lock:
  25              	.LFB116:
  26              		.file 1 "../../ChibiOS/os/rt/ports/ARMCMx/chcore_v7m.h"
  27              		.loc 1 444 0
  28              		.cfi_startproc
  29              		@ args = 0, pretend = 0, frame = 8
  30              		@ frame_needed = 1, uses_anonymous_args = 0
  31              		@ link register save eliminated.
  32 0000 80B4     		push	{r7}
  33              		.cfi_def_cfa_offset 4
  34              		.cfi_offset 7, -4
  35 0002 83B0     		sub	sp, sp, #12
  36              		.cfi_def_cfa_offset 16
  37 0004 00AF     		add	r7, sp, #0
  38              		.cfi_def_cfa_register 7
  39 0006 2023     		movs	r3, #32
  40 0008 7B60     		str	r3, [r7, #4]
  41              	.LBB6:
  42              	.LBB7:
  43              		.file 2 "../../ChibiOS/os/ext/CMSIS/include/core_cmFunc.h"
  44              		.loc 2 546 0
  45 000a 7B68     		ldr	r3, [r7, #4]
  46              	@ 546 "../../ChibiOS/os/ext/CMSIS/include/core_cmFunc.h" 1
  47 000c 83F31188 		MSR basepri, r3
  48              	@ 0 "" 2
  49              		.thumb
  50              	.LBE7:
  51              	.LBE6:
  52              		.loc 1 451 0
  53 0010 0C37     		adds	r7, r7, #12
  54 0012 BD46     		mov	sp, r7
  55              		@ sp needed
  56 0014 5DF8047B 		ldr	r7, [sp], #4
  57 0018 7047     		bx	lr
ARM GAS  C:\Users\Luis\AppData\Local\Temp\ccfBMJLd.s 			page 2


  58              		.cfi_endproc
  59              	.LFE116:
  60              		.size	port_lock, .-port_lock
  61 001a 00BFAFF3 		.section	.text.port_unlock,"ax",%progbits
  61      0080
  62              		.align	2
  63              		.p2align 4,,15
  64              		.thumb
  65              		.thumb_func
  66              		.type	port_unlock, %function
  67              	port_unlock:
  68              	.LFB117:
  69              		.loc 1 458 0
  70              		.cfi_startproc
  71              		@ args = 0, pretend = 0, frame = 8
  72              		@ frame_needed = 1, uses_anonymous_args = 0
  73              		@ link register save eliminated.
  74 0000 80B4     		push	{r7}
  75              		.cfi_def_cfa_offset 4
  76              		.cfi_offset 7, -4
  77 0002 83B0     		sub	sp, sp, #12
  78              		.cfi_def_cfa_offset 16
  79 0004 00AF     		add	r7, sp, #0
  80              		.cfi_def_cfa_register 7
  81 0006 0023     		movs	r3, #0
  82 0008 7B60     		str	r3, [r7, #4]
  83              	.LBB8:
  84              	.LBB9:
  85              		.loc 2 546 0
  86 000a 7B68     		ldr	r3, [r7, #4]
  87              	@ 546 "../../ChibiOS/os/ext/CMSIS/include/core_cmFunc.h" 1
  88 000c 83F31188 		MSR basepri, r3
  89              	@ 0 "" 2
  90              		.thumb
  91              	.LBE9:
  92              	.LBE8:
  93              		.loc 1 465 0
  94 0010 0C37     		adds	r7, r7, #12
  95 0012 BD46     		mov	sp, r7
  96              		@ sp needed
  97 0014 5DF8047B 		ldr	r7, [sp], #4
  98 0018 7047     		bx	lr
  99              		.cfi_endproc
 100              	.LFE117:
 101              		.size	port_unlock, .-port_unlock
 102 001a 00BFAFF3 		.section	.text.st_lld_get_counter,"ax",%progbits
 102      0080
 103              		.align	2
 104              		.p2align 4,,15
 105              		.thumb
 106              		.thumb_func
 107              		.type	st_lld_get_counter, %function
 108              	st_lld_get_counter:
 109              	.LFB125:
 110              		.file 3 "../../ChibiOS/os/hal/ports/STM32/LLD/TIMv1/st_lld.h"
 111              		.loc 3 127 0
 112              		.cfi_startproc
ARM GAS  C:\Users\Luis\AppData\Local\Temp\ccfBMJLd.s 			page 3


 113              		@ args = 0, pretend = 0, frame = 0
 114              		@ frame_needed = 1, uses_anonymous_args = 0
 115              		@ link register save eliminated.
 116 0000 80B4     		push	{r7}
 117              		.cfi_def_cfa_offset 4
 118              		.cfi_offset 7, -4
 119 0002 00AF     		add	r7, sp, #0
 120              		.cfi_def_cfa_register 7
 121              		.loc 3 129 0
 122 0004 4FF08043 		mov	r3, #1073741824
 123 0008 5B6A     		ldr	r3, [r3, #36]
 124              		.loc 3 130 0
 125 000a 1846     		mov	r0, r3
 126 000c BD46     		mov	sp, r7
 127              		@ sp needed
 128 000e 5DF8047B 		ldr	r7, [sp], #4
 129 0012 7047     		bx	lr
 130              		.cfi_endproc
 131              	.LFE125:
 132              		.size	st_lld_get_counter, .-st_lld_get_counter
 133 0014 AFF30080 		.section	.text.port_timer_get_time,"ax",%progbits
 133      AFF30080 
 133      AFF30080 
 134              		.align	2
 135              		.p2align 4,,15
 136              		.thumb
 137              		.thumb_func
 138              		.type	port_timer_get_time, %function
 139              	port_timer_get_time:
 140              	.LFB134:
 141              		.file 4 "../../ChibiOS/os/rt/ports/ARMCMx/chcore_timer.h"
 142              		.loc 4 105 0
 143              		.cfi_startproc
 144              		@ args = 0, pretend = 0, frame = 0
 145              		@ frame_needed = 1, uses_anonymous_args = 0
 146 0000 80B5     		push	{r7, lr}
 147              		.cfi_def_cfa_offset 8
 148              		.cfi_offset 7, -8
 149              		.cfi_offset 14, -4
 150 0002 00AF     		add	r7, sp, #0
 151              		.cfi_def_cfa_register 7
 152              		.loc 4 107 0
 153 0004 FFF7FEFF 		bl	st_lld_get_counter
 154 0008 0346     		mov	r3, r0
 155              		.loc 4 108 0
 156 000a 1846     		mov	r0, r3
 157 000c 80BD     		pop	{r7, pc}
 158              		.cfi_endproc
 159              	.LFE134:
 160              		.size	port_timer_get_time, .-port_timer_get_time
 161 000e 00BF     		.section	.text.list_init,"ax",%progbits
 162              		.align	2
 163              		.p2align 4,,15
 164              		.thumb
 165              		.thumb_func
 166              		.type	list_init, %function
 167              	list_init:
ARM GAS  C:\Users\Luis\AppData\Local\Temp\ccfBMJLd.s 			page 4


 168              	.LFB136:
 169              		.file 5 "../../ChibiOS/os/rt/include/chschd.h"
 170              		.loc 5 564 0
 171              		.cfi_startproc
 172              		@ args = 0, pretend = 0, frame = 8
 173              		@ frame_needed = 1, uses_anonymous_args = 0
 174              		@ link register save eliminated.
 175 0000 80B4     		push	{r7}
 176              		.cfi_def_cfa_offset 4
 177              		.cfi_offset 7, -4
 178 0002 83B0     		sub	sp, sp, #12
 179              		.cfi_def_cfa_offset 16
 180 0004 00AF     		add	r7, sp, #0
 181              		.cfi_def_cfa_register 7
 182 0006 7860     		str	r0, [r7, #4]
 183              		.loc 5 566 0
 184 0008 7B68     		ldr	r3, [r7, #4]
 185 000a 7A68     		ldr	r2, [r7, #4]
 186 000c 1A60     		str	r2, [r3]
 187              		.loc 5 567 0
 188 000e 0C37     		adds	r7, r7, #12
 189 0010 BD46     		mov	sp, r7
 190              		@ sp needed
 191 0012 5DF8047B 		ldr	r7, [sp], #4
 192 0016 7047     		bx	lr
 193              		.cfi_endproc
 194              	.LFE136:
 195              		.size	list_init, .-list_init
 196 0018 AFF30080 		.section	.text.list_notempty,"ax",%progbits
 196      AFF30080 
 197              		.align	2
 198              		.p2align 4,,15
 199              		.thumb
 200              		.thumb_func
 201              		.type	list_notempty, %function
 202              	list_notempty:
 203              	.LFB138:
 204              		.loc 5 590 0
 205              		.cfi_startproc
 206              		@ args = 0, pretend = 0, frame = 8
 207              		@ frame_needed = 1, uses_anonymous_args = 0
 208              		@ link register save eliminated.
 209 0000 80B4     		push	{r7}
 210              		.cfi_def_cfa_offset 4
 211              		.cfi_offset 7, -4
 212 0002 83B0     		sub	sp, sp, #12
 213              		.cfi_def_cfa_offset 16
 214 0004 00AF     		add	r7, sp, #0
 215              		.cfi_def_cfa_register 7
 216 0006 7860     		str	r0, [r7, #4]
 217              		.loc 5 592 0
 218 0008 7B68     		ldr	r3, [r7, #4]
 219 000a 1A68     		ldr	r2, [r3]
 220 000c 7B68     		ldr	r3, [r7, #4]
 221 000e 9A42     		cmp	r2, r3
 222 0010 0CBF     		ite	eq
 223 0012 0023     		moveq	r3, #0
ARM GAS  C:\Users\Luis\AppData\Local\Temp\ccfBMJLd.s 			page 5


 224 0014 0123     		movne	r3, #1
 225 0016 DBB2     		uxtb	r3, r3
 226              		.loc 5 593 0
 227 0018 1846     		mov	r0, r3
 228 001a 0C37     		adds	r7, r7, #12
 229 001c BD46     		mov	sp, r7
 230              		@ sp needed
 231 001e 5DF8047B 		ldr	r7, [sp], #4
 232 0022 7047     		bx	lr
 233              		.cfi_endproc
 234              	.LFE138:
 235              		.size	list_notempty, .-list_notempty
 236 0024 AFF30080 		.section	.text.queue_init,"ax",%progbits
 236      AFF30080 
 236      AFF30080 
 237              		.align	2
 238              		.p2align 4,,15
 239              		.thumb
 240              		.thumb_func
 241              		.type	queue_init, %function
 242              	queue_init:
 243              	.LFB139:
 244              		.loc 5 602 0
 245              		.cfi_startproc
 246              		@ args = 0, pretend = 0, frame = 8
 247              		@ frame_needed = 1, uses_anonymous_args = 0
 248              		@ link register save eliminated.
 249 0000 80B4     		push	{r7}
 250              		.cfi_def_cfa_offset 4
 251              		.cfi_offset 7, -4
 252 0002 83B0     		sub	sp, sp, #12
 253              		.cfi_def_cfa_offset 16
 254 0004 00AF     		add	r7, sp, #0
 255              		.cfi_def_cfa_register 7
 256 0006 7860     		str	r0, [r7, #4]
 257              		.loc 5 604 0
 258 0008 7B68     		ldr	r3, [r7, #4]
 259 000a 7A68     		ldr	r2, [r7, #4]
 260 000c 1A60     		str	r2, [r3]
 261              		.loc 5 605 0
 262 000e 7B68     		ldr	r3, [r7, #4]
 263 0010 7A68     		ldr	r2, [r7, #4]
 264 0012 5A60     		str	r2, [r3, #4]
 265              		.loc 5 606 0
 266 0014 0C37     		adds	r7, r7, #12
 267 0016 BD46     		mov	sp, r7
 268              		@ sp needed
 269 0018 5DF8047B 		ldr	r7, [sp], #4
 270 001c 7047     		bx	lr
 271              		.cfi_endproc
 272              	.LFE139:
 273              		.size	queue_init, .-queue_init
 274 001e 00BF     		.section	.text.queue_notempty,"ax",%progbits
 275              		.align	2
 276              		.p2align 4,,15
 277              		.thumb
 278              		.thumb_func
ARM GAS  C:\Users\Luis\AppData\Local\Temp\ccfBMJLd.s 			page 6


 279              		.type	queue_notempty, %function
 280              	queue_notempty:
 281              	.LFB141:
 282              		.loc 5 629 0
 283              		.cfi_startproc
 284              		@ args = 0, pretend = 0, frame = 8
 285              		@ frame_needed = 1, uses_anonymous_args = 0
 286              		@ link register save eliminated.
 287 0000 80B4     		push	{r7}
 288              		.cfi_def_cfa_offset 4
 289              		.cfi_offset 7, -4
 290 0002 83B0     		sub	sp, sp, #12
 291              		.cfi_def_cfa_offset 16
 292 0004 00AF     		add	r7, sp, #0
 293              		.cfi_def_cfa_register 7
 294 0006 7860     		str	r0, [r7, #4]
 295              		.loc 5 631 0
 296 0008 7B68     		ldr	r3, [r7, #4]
 297 000a 1A68     		ldr	r2, [r3]
 298 000c 7B68     		ldr	r3, [r7, #4]
 299 000e 9A42     		cmp	r2, r3
 300 0010 0CBF     		ite	eq
 301 0012 0023     		moveq	r3, #0
 302 0014 0123     		movne	r3, #1
 303 0016 DBB2     		uxtb	r3, r3
 304              		.loc 5 632 0
 305 0018 1846     		mov	r0, r3
 306 001a 0C37     		adds	r7, r7, #12
 307 001c BD46     		mov	sp, r7
 308              		@ sp needed
 309 001e 5DF8047B 		ldr	r7, [sp], #4
 310 0022 7047     		bx	lr
 311              		.cfi_endproc
 312              	.LFE141:
 313              		.size	queue_notempty, .-queue_notempty
 314 0024 AFF30080 		.section	.text.list_insert,"ax",%progbits
 314      AFF30080 
 314      AFF30080 
 315              		.align	2
 316              		.p2align 4,,15
 317              		.thumb
 318              		.thumb_func
 319              		.type	list_insert, %function
 320              	list_insert:
 321              	.LFB142:
 322              		.loc 5 637 0
 323              		.cfi_startproc
 324              		@ args = 0, pretend = 0, frame = 8
 325              		@ frame_needed = 1, uses_anonymous_args = 0
 326              		@ link register save eliminated.
 327 0000 80B4     		push	{r7}
 328              		.cfi_def_cfa_offset 4
 329              		.cfi_offset 7, -4
 330 0002 83B0     		sub	sp, sp, #12
 331              		.cfi_def_cfa_offset 16
 332 0004 00AF     		add	r7, sp, #0
 333              		.cfi_def_cfa_register 7
ARM GAS  C:\Users\Luis\AppData\Local\Temp\ccfBMJLd.s 			page 7


 334 0006 7860     		str	r0, [r7, #4]
 335 0008 3960     		str	r1, [r7]
 336              		.loc 5 639 0
 337 000a 3B68     		ldr	r3, [r7]
 338 000c 1A68     		ldr	r2, [r3]
 339 000e 7B68     		ldr	r3, [r7, #4]
 340 0010 1A60     		str	r2, [r3]
 341              		.loc 5 640 0
 342 0012 3B68     		ldr	r3, [r7]
 343 0014 7A68     		ldr	r2, [r7, #4]
 344 0016 1A60     		str	r2, [r3]
 345              		.loc 5 641 0
 346 0018 0C37     		adds	r7, r7, #12
 347 001a BD46     		mov	sp, r7
 348              		@ sp needed
 349 001c 5DF8047B 		ldr	r7, [sp], #4
 350 0020 7047     		bx	lr
 351              		.cfi_endproc
 352              	.LFE142:
 353              		.size	list_insert, .-list_insert
 354 0022 00BFAFF3 		.section	.text.list_remove,"ax",%progbits
 354      0080AFF3 
 354      0080AFF3 
 354      0080
 355              		.align	2
 356              		.p2align 4,,15
 357              		.thumb
 358              		.thumb_func
 359              		.type	list_remove, %function
 360              	list_remove:
 361              	.LFB143:
 362              		.loc 5 643 0
 363              		.cfi_startproc
 364              		@ args = 0, pretend = 0, frame = 16
 365              		@ frame_needed = 1, uses_anonymous_args = 0
 366              		@ link register save eliminated.
 367 0000 80B4     		push	{r7}
 368              		.cfi_def_cfa_offset 4
 369              		.cfi_offset 7, -4
 370 0002 85B0     		sub	sp, sp, #20
 371              		.cfi_def_cfa_offset 24
 372 0004 00AF     		add	r7, sp, #0
 373              		.cfi_def_cfa_register 7
 374 0006 7860     		str	r0, [r7, #4]
 375              		.loc 5 645 0
 376 0008 7B68     		ldr	r3, [r7, #4]
 377 000a 1B68     		ldr	r3, [r3]
 378 000c FB60     		str	r3, [r7, #12]
 379              		.loc 5 646 0
 380 000e FB68     		ldr	r3, [r7, #12]
 381 0010 1A68     		ldr	r2, [r3]
 382 0012 7B68     		ldr	r3, [r7, #4]
 383 0014 1A60     		str	r2, [r3]
 384              		.loc 5 648 0
 385 0016 FB68     		ldr	r3, [r7, #12]
 386              		.loc 5 649 0
 387 0018 1846     		mov	r0, r3
ARM GAS  C:\Users\Luis\AppData\Local\Temp\ccfBMJLd.s 			page 8


 388 001a 1437     		adds	r7, r7, #20
 389 001c BD46     		mov	sp, r7
 390              		@ sp needed
 391 001e 5DF8047B 		ldr	r7, [sp], #4
 392 0022 7047     		bx	lr
 393              		.cfi_endproc
 394              	.LFE143:
 395              		.size	list_remove, .-list_remove
 396 0024 AFF30080 		.section	.text.queue_insert,"ax",%progbits
 396      AFF30080 
 396      AFF30080 
 397              		.align	2
 398              		.p2align 4,,15
 399              		.thumb
 400              		.thumb_func
 401              		.type	queue_insert, %function
 402              	queue_insert:
 403              	.LFB145:
 404              		.loc 5 663 0
 405              		.cfi_startproc
 406              		@ args = 0, pretend = 0, frame = 8
 407              		@ frame_needed = 1, uses_anonymous_args = 0
 408              		@ link register save eliminated.
 409 0000 80B4     		push	{r7}
 410              		.cfi_def_cfa_offset 4
 411              		.cfi_offset 7, -4
 412 0002 83B0     		sub	sp, sp, #12
 413              		.cfi_def_cfa_offset 16
 414 0004 00AF     		add	r7, sp, #0
 415              		.cfi_def_cfa_register 7
 416 0006 7860     		str	r0, [r7, #4]
 417 0008 3960     		str	r1, [r7]
 418              		.loc 5 665 0
 419 000a 7B68     		ldr	r3, [r7, #4]
 420 000c 3A68     		ldr	r2, [r7]
 421 000e 1A60     		str	r2, [r3]
 422              		.loc 5 666 0
 423 0010 3B68     		ldr	r3, [r7]
 424 0012 5A68     		ldr	r2, [r3, #4]
 425 0014 7B68     		ldr	r3, [r7, #4]
 426 0016 5A60     		str	r2, [r3, #4]
 427              		.loc 5 667 0
 428 0018 7B68     		ldr	r3, [r7, #4]
 429 001a 5B68     		ldr	r3, [r3, #4]
 430 001c 7A68     		ldr	r2, [r7, #4]
 431 001e 1A60     		str	r2, [r3]
 432              		.loc 5 668 0
 433 0020 3B68     		ldr	r3, [r7]
 434 0022 7A68     		ldr	r2, [r7, #4]
 435 0024 5A60     		str	r2, [r3, #4]
 436              		.loc 5 669 0
 437 0026 0C37     		adds	r7, r7, #12
 438 0028 BD46     		mov	sp, r7
 439              		@ sp needed
 440 002a 5DF8047B 		ldr	r7, [sp], #4
 441 002e 7047     		bx	lr
 442              		.cfi_endproc
ARM GAS  C:\Users\Luis\AppData\Local\Temp\ccfBMJLd.s 			page 9


 443              	.LFE145:
 444              		.size	queue_insert, .-queue_insert
 445              		.section	.text.queue_fifo_remove,"ax",%progbits
 446              		.align	2
 447              		.p2align 4,,15
 448              		.thumb
 449              		.thumb_func
 450              		.type	queue_fifo_remove, %function
 451              	queue_fifo_remove:
 452              	.LFB146:
 453              		.loc 5 671 0
 454              		.cfi_startproc
 455              		@ args = 0, pretend = 0, frame = 16
 456              		@ frame_needed = 1, uses_anonymous_args = 0
 457              		@ link register save eliminated.
 458 0000 80B4     		push	{r7}
 459              		.cfi_def_cfa_offset 4
 460              		.cfi_offset 7, -4
 461 0002 85B0     		sub	sp, sp, #20
 462              		.cfi_def_cfa_offset 24
 463 0004 00AF     		add	r7, sp, #0
 464              		.cfi_def_cfa_register 7
 465 0006 7860     		str	r0, [r7, #4]
 466              		.loc 5 672 0
 467 0008 7B68     		ldr	r3, [r7, #4]
 468 000a 1B68     		ldr	r3, [r3]
 469 000c FB60     		str	r3, [r7, #12]
 470              		.loc 5 674 0
 471 000e FB68     		ldr	r3, [r7, #12]
 472 0010 1A68     		ldr	r2, [r3]
 473 0012 7B68     		ldr	r3, [r7, #4]
 474 0014 1A60     		str	r2, [r3]
 475              		.loc 5 675 0
 476 0016 7B68     		ldr	r3, [r7, #4]
 477 0018 1B68     		ldr	r3, [r3]
 478 001a 7A68     		ldr	r2, [r7, #4]
 479 001c 5A60     		str	r2, [r3, #4]
 480              		.loc 5 677 0
 481 001e FB68     		ldr	r3, [r7, #12]
 482              		.loc 5 678 0
 483 0020 1846     		mov	r0, r3
 484 0022 1437     		adds	r7, r7, #20
 485 0024 BD46     		mov	sp, r7
 486              		@ sp needed
 487 0026 5DF8047B 		ldr	r7, [sp], #4
 488 002a 7047     		bx	lr
 489              		.cfi_endproc
 490              	.LFE146:
 491              		.size	queue_fifo_remove, .-queue_fifo_remove
 492 002c AFF30080 		.section	.text.chSchCanYieldS,"ax",%progbits
 493              		.align	2
 494              		.p2align 4,,15
 495              		.thumb
 496              		.thumb_func
 497              		.type	chSchCanYieldS, %function
 498              	chSchCanYieldS:
 499              	.LFB150:
ARM GAS  C:\Users\Luis\AppData\Local\Temp\ccfBMJLd.s 			page 10


 500              		.loc 5 727 0
 501              		.cfi_startproc
 502              		@ args = 0, pretend = 0, frame = 0
 503              		@ frame_needed = 1, uses_anonymous_args = 0
 504 0000 80B5     		push	{r7, lr}
 505              		.cfi_def_cfa_offset 8
 506              		.cfi_offset 7, -8
 507              		.cfi_offset 14, -4
 508 0002 00AF     		add	r7, sp, #0
 509              		.cfi_def_cfa_register 7
 510              		.loc 5 729 0
 511 0004 FFF7FEFF 		bl	chDbgCheckClassS
 512              		.loc 5 731 0
 513 0008 064B     		ldr	r3, .L21
 514 000a 1B68     		ldr	r3, [r3]
 515 000c 9A68     		ldr	r2, [r3, #8]
 516 000e 054B     		ldr	r3, .L21
 517 0010 9B69     		ldr	r3, [r3, #24]
 518 0012 9B68     		ldr	r3, [r3, #8]
 519 0014 9A42     		cmp	r2, r3
 520 0016 34BF     		ite	cc
 521 0018 0023     		movcc	r3, #0
 522 001a 0123     		movcs	r3, #1
 523 001c DBB2     		uxtb	r3, r3
 524              		.loc 5 732 0
 525 001e 1846     		mov	r0, r3
 526 0020 80BD     		pop	{r7, pc}
 527              	.L22:
 528 0022 00BF     		.align	2
 529              	.L21:
 530 0024 00000000 		.word	ch
 531              		.cfi_endproc
 532              	.LFE150:
 533              		.size	chSchCanYieldS, .-chSchCanYieldS
 534 0028 AFF30080 		.section	.text.chSchDoYieldS,"ax",%progbits
 534      AFF30080 
 535              		.align	2
 536              		.p2align 4,,15
 537              		.thumb
 538              		.thumb_func
 539              		.type	chSchDoYieldS, %function
 540              	chSchDoYieldS:
 541              	.LFB151:
 542              		.loc 5 741 0
 543              		.cfi_startproc
 544              		@ args = 0, pretend = 0, frame = 0
 545              		@ frame_needed = 1, uses_anonymous_args = 0
 546 0000 80B5     		push	{r7, lr}
 547              		.cfi_def_cfa_offset 8
 548              		.cfi_offset 7, -8
 549              		.cfi_offset 14, -4
 550 0002 00AF     		add	r7, sp, #0
 551              		.cfi_def_cfa_register 7
 552              		.loc 5 743 0
 553 0004 FFF7FEFF 		bl	chDbgCheckClassS
 554              		.loc 5 745 0
 555 0008 FFF7FEFF 		bl	chSchCanYieldS
ARM GAS  C:\Users\Luis\AppData\Local\Temp\ccfBMJLd.s 			page 11


 556 000c 0346     		mov	r3, r0
 557 000e 002B     		cmp	r3, #0
 558 0010 01D0     		beq	.L23
 559              		.loc 5 746 0
 560 0012 FFF7FEFF 		bl	chSchDoRescheduleBehind
 561              	.L23:
 562              		.loc 5 748 0
 563 0016 80BD     		pop	{r7, pc}
 564              		.cfi_endproc
 565              	.LFE151:
 566              		.size	chSchDoYieldS, .-chSchDoYieldS
 567 0018 AFF30080 		.section	.text.chSysLock,"ax",%progbits
 567      AFF30080 
 568              		.align	2
 569              		.p2align 4,,15
 570              		.thumb
 571              		.thumb_func
 572              		.type	chSysLock, %function
 573              	chSysLock:
 574              	.LFB156:
 575              		.file 6 "../../ChibiOS/os/rt/include/chsys.h"
 576              		.loc 6 346 0
 577              		.cfi_startproc
 578              		@ args = 0, pretend = 0, frame = 0
 579              		@ frame_needed = 1, uses_anonymous_args = 0
 580 0000 80B5     		push	{r7, lr}
 581              		.cfi_def_cfa_offset 8
 582              		.cfi_offset 7, -8
 583              		.cfi_offset 14, -4
 584 0002 00AF     		add	r7, sp, #0
 585              		.cfi_def_cfa_register 7
 586              		.loc 6 348 0
 587 0004 FFF7FEFF 		bl	port_lock
 588              		.loc 6 349 0
 589 0008 FFF7FEFF 		bl	_stats_start_measure_crit_thd
 590              		.loc 6 350 0
 591 000c FFF7FEFF 		bl	_dbg_check_lock
 592              		.loc 6 351 0
 593 0010 80BD     		pop	{r7, pc}
 594              		.cfi_endproc
 595              	.LFE156:
 596              		.size	chSysLock, .-chSysLock
 597 0012 00BFAFF3 		.section	.text.chSysUnlock,"ax",%progbits
 597      0080AFF3 
 597      0080AFF3 
 597      0080
 598              		.align	2
 599              		.p2align 4,,15
 600              		.thumb
 601              		.thumb_func
 602              		.type	chSysUnlock, %function
 603              	chSysUnlock:
 604              	.LFB157:
 605              		.loc 6 358 0
 606              		.cfi_startproc
 607              		@ args = 0, pretend = 0, frame = 0
 608              		@ frame_needed = 1, uses_anonymous_args = 0
ARM GAS  C:\Users\Luis\AppData\Local\Temp\ccfBMJLd.s 			page 12


 609 0000 80B5     		push	{r7, lr}
 610              		.cfi_def_cfa_offset 8
 611              		.cfi_offset 7, -8
 612              		.cfi_offset 14, -4
 613 0002 00AF     		add	r7, sp, #0
 614              		.cfi_def_cfa_register 7
 615              		.loc 6 360 0
 616 0004 FFF7FEFF 		bl	_dbg_check_unlock
 617              		.loc 6 361 0
 618 0008 FFF7FEFF 		bl	_stats_stop_measure_crit_thd
 619              		.loc 6 367 0
 620 000c 094B     		ldr	r3, .L28
 621 000e 1A68     		ldr	r2, [r3]
 622 0010 084B     		ldr	r3, .L28
 623 0012 9A42     		cmp	r2, r3
 624 0014 0AD0     		beq	.L27
 625              		.loc 6 367 0 is_stmt 0 discriminator 1
 626 0016 074B     		ldr	r3, .L28
 627 0018 9B69     		ldr	r3, [r3, #24]
 628 001a 9A68     		ldr	r2, [r3, #8]
 629 001c 054B     		ldr	r3, .L28
 630 001e 1B68     		ldr	r3, [r3]
 631 0020 9B68     		ldr	r3, [r3, #8]
 632 0022 9A42     		cmp	r2, r3
 633 0024 02D2     		bcs	.L27
 634 0026 0448     		ldr	r0, .L28+4
 635 0028 FFF7FEFF 		bl	chSysHalt
 636              	.L27:
 637              		.loc 6 371 0 is_stmt 1
 638 002c FFF7FEFF 		bl	port_unlock
 639              		.loc 6 372 0
 640 0030 80BD     		pop	{r7, pc}
 641              	.L29:
 642 0032 00BF     		.align	2
 643              	.L28:
 644 0034 00000000 		.word	ch
 645 0038 00000000 		.word	__func__.5842
 646              		.cfi_endproc
 647              	.LFE157:
 648              		.size	chSysUnlock, .-chSysUnlock
 649 003c AFF30080 		.section	.text.chVTGetSystemTimeX,"ax",%progbits
 650              		.align	2
 651              		.p2align 4,,15
 652              		.thumb
 653              		.thumb_func
 654              		.type	chVTGetSystemTimeX, %function
 655              	chVTGetSystemTimeX:
 656              	.LFB164:
 657              		.file 7 "../../ChibiOS/os/rt/include/chvt.h"
 658              		.loc 7 228 0
 659              		.cfi_startproc
 660              		@ args = 0, pretend = 0, frame = 0
 661              		@ frame_needed = 1, uses_anonymous_args = 0
 662 0000 80B5     		push	{r7, lr}
 663              		.cfi_def_cfa_offset 8
 664              		.cfi_offset 7, -8
 665              		.cfi_offset 14, -4
ARM GAS  C:\Users\Luis\AppData\Local\Temp\ccfBMJLd.s 			page 13


 666 0002 00AF     		add	r7, sp, #0
 667              		.cfi_def_cfa_register 7
 668              		.loc 7 233 0
 669 0004 FFF7FEFF 		bl	port_timer_get_time
 670 0008 0346     		mov	r3, r0
 671              		.loc 7 235 0
 672 000a 1846     		mov	r0, r3
 673 000c 80BD     		pop	{r7, pc}
 674              		.cfi_endproc
 675              	.LFE164:
 676              		.size	chVTGetSystemTimeX, .-chVTGetSystemTimeX
 677 000e 00BF     		.section	.text.chVTIsTimeWithinX,"ax",%progbits
 678              		.align	2
 679              		.p2align 4,,15
 680              		.thumb
 681              		.thumb_func
 682              		.type	chVTIsTimeWithinX, %function
 683              	chVTIsTimeWithinX:
 684              	.LFB167:
 685              		.loc 7 286 0
 686              		.cfi_startproc
 687              		@ args = 0, pretend = 0, frame = 16
 688              		@ frame_needed = 1, uses_anonymous_args = 0
 689              		@ link register save eliminated.
 690 0000 80B4     		push	{r7}
 691              		.cfi_def_cfa_offset 4
 692              		.cfi_offset 7, -4
 693 0002 85B0     		sub	sp, sp, #20
 694              		.cfi_def_cfa_offset 24
 695 0004 00AF     		add	r7, sp, #0
 696              		.cfi_def_cfa_register 7
 697 0006 F860     		str	r0, [r7, #12]
 698 0008 B960     		str	r1, [r7, #8]
 699 000a 7A60     		str	r2, [r7, #4]
 700              		.loc 7 288 0
 701 000c FA68     		ldr	r2, [r7, #12]
 702 000e BB68     		ldr	r3, [r7, #8]
 703 0010 D21A     		subs	r2, r2, r3
 704 0012 7968     		ldr	r1, [r7, #4]
 705 0014 BB68     		ldr	r3, [r7, #8]
 706 0016 CB1A     		subs	r3, r1, r3
 707 0018 9A42     		cmp	r2, r3
 708 001a 2CBF     		ite	cs
 709 001c 0023     		movcs	r3, #0
 710 001e 0123     		movcc	r3, #1
 711 0020 DBB2     		uxtb	r3, r3
 712              		.loc 7 289 0
 713 0022 1846     		mov	r0, r3
 714 0024 1437     		adds	r7, r7, #20
 715 0026 BD46     		mov	sp, r7
 716              		@ sp needed
 717 0028 5DF8047B 		ldr	r7, [sp], #4
 718 002c 7047     		bx	lr
 719              		.cfi_endproc
 720              	.LFE167:
 721              		.size	chVTIsTimeWithinX, .-chVTIsTimeWithinX
 722 002e 00BF     		.section	.text.chThdGetSelfX,"ax",%progbits
ARM GAS  C:\Users\Luis\AppData\Local\Temp\ccfBMJLd.s 			page 14


 723              		.align	2
 724              		.p2align 4,,15
 725              		.thumb
 726              		.thumb_func
 727              		.type	chThdGetSelfX, %function
 728              	chThdGetSelfX:
 729              	.LFB177:
 730              		.file 8 "../../ChibiOS/os/rt/include/chthreads.h"
 731              		.loc 8 174 0
 732              		.cfi_startproc
 733              		@ args = 0, pretend = 0, frame = 0
 734              		@ frame_needed = 1, uses_anonymous_args = 0
 735              		@ link register save eliminated.
 736 0000 80B4     		push	{r7}
 737              		.cfi_def_cfa_offset 4
 738              		.cfi_offset 7, -4
 739 0002 00AF     		add	r7, sp, #0
 740              		.cfi_def_cfa_register 7
 741              		.loc 8 176 0
 742 0004 034B     		ldr	r3, .L36
 743 0006 9B69     		ldr	r3, [r3, #24]
 744              		.loc 8 177 0
 745 0008 1846     		mov	r0, r3
 746 000a BD46     		mov	sp, r7
 747              		@ sp needed
 748 000c 5DF8047B 		ldr	r7, [sp], #4
 749 0010 7047     		bx	lr
 750              	.L37:
 751 0012 00BF     		.align	2
 752              	.L36:
 753 0014 00000000 		.word	ch
 754              		.cfi_endproc
 755              	.LFE177:
 756              		.size	chThdGetSelfX, .-chThdGetSelfX
 757 0018 AFF30080 		.section	.text.chThdStartI,"ax",%progbits
 757      AFF30080 
 758              		.align	2
 759              		.p2align 4,,15
 760              		.thumb
 761              		.thumb_func
 762              		.type	chThdStartI, %function
 763              	chThdStartI:
 764              	.LFB181:
 765              		.loc 8 245 0
 766              		.cfi_startproc
 767              		@ args = 0, pretend = 0, frame = 8
 768              		@ frame_needed = 1, uses_anonymous_args = 0
 769 0000 80B5     		push	{r7, lr}
 770              		.cfi_def_cfa_offset 8
 771              		.cfi_offset 7, -8
 772              		.cfi_offset 14, -4
 773 0002 82B0     		sub	sp, sp, #8
 774              		.cfi_def_cfa_offset 16
 775 0004 00AF     		add	r7, sp, #0
 776              		.cfi_def_cfa_register 7
 777 0006 7860     		str	r0, [r7, #4]
 778              		.loc 8 247 0
ARM GAS  C:\Users\Luis\AppData\Local\Temp\ccfBMJLd.s 			page 15


 779 0008 7B68     		ldr	r3, [r7, #4]
 780 000a 93F82030 		ldrb	r3, [r3, #32]	@ zero_extendqisi2
 781 000e 022B     		cmp	r3, #2
 782 0010 02D0     		beq	.L39
 783              		.loc 8 247 0 is_stmt 0 discriminator 1
 784 0012 0548     		ldr	r0, .L41
 785 0014 FFF7FEFF 		bl	chSysHalt
 786              	.L39:
 787              		.loc 8 249 0 is_stmt 1
 788 0018 7868     		ldr	r0, [r7, #4]
 789 001a FFF7FEFF 		bl	chSchReadyI
 790 001e 0346     		mov	r3, r0
 791              		.loc 8 250 0
 792 0020 1846     		mov	r0, r3
 793 0022 0837     		adds	r7, r7, #8
 794 0024 BD46     		mov	sp, r7
 795              		@ sp needed
 796 0026 80BD     		pop	{r7, pc}
 797              	.L42:
 798              		.align	2
 799              	.L41:
 800 0028 00000000 		.word	__func__.6009
 801              		.cfi_endproc
 802              	.LFE181:
 803              		.size	chThdStartI, .-chThdStartI
 804 002c AFF30080 		.section	.text.chThdSleepS,"ax",%progbits
 805              		.align	2
 806              		.p2align 4,,15
 807              		.thumb
 808              		.thumb_func
 809              		.type	chThdSleepS, %function
 810              	chThdSleepS:
 811              	.LFB182:
 812              		.loc 8 264 0
 813              		.cfi_startproc
 814              		@ args = 0, pretend = 0, frame = 8
 815              		@ frame_needed = 1, uses_anonymous_args = 0
 816 0000 80B5     		push	{r7, lr}
 817              		.cfi_def_cfa_offset 8
 818              		.cfi_offset 7, -8
 819              		.cfi_offset 14, -4
 820 0002 82B0     		sub	sp, sp, #8
 821              		.cfi_def_cfa_offset 16
 822 0004 00AF     		add	r7, sp, #0
 823              		.cfi_def_cfa_register 7
 824 0006 7860     		str	r0, [r7, #4]
 825              		.loc 8 266 0
 826 0008 7B68     		ldr	r3, [r7, #4]
 827 000a 002B     		cmp	r3, #0
 828 000c 02D1     		bne	.L44
 829              		.loc 8 266 0 is_stmt 0 discriminator 1
 830 000e 0548     		ldr	r0, .L45
 831 0010 FFF7FEFF 		bl	chSysHalt
 832              	.L44:
 833              		.loc 8 268 0 is_stmt 1
 834 0014 0820     		movs	r0, #8
 835 0016 7968     		ldr	r1, [r7, #4]
ARM GAS  C:\Users\Luis\AppData\Local\Temp\ccfBMJLd.s 			page 16


 836 0018 FFF7FEFF 		bl	chSchGoSleepTimeoutS
 837              		.loc 8 269 0
 838 001c 0837     		adds	r7, r7, #8
 839 001e BD46     		mov	sp, r7
 840              		@ sp needed
 841 0020 80BD     		pop	{r7, pc}
 842              	.L46:
 843 0022 00BF     		.align	2
 844              	.L45:
 845 0024 00000000 		.word	__func__.6013
 846              		.cfi_endproc
 847              	.LFE182:
 848              		.size	chThdSleepS, .-chThdSleepS
 849 0028 AFF30080 		.section	.text.chThdDoDequeueNextI,"ax",%progbits
 849      AFF30080 
 850              		.align	2
 851              		.p2align 4,,15
 852              		.thumb
 853              		.thumb_func
 854              		.type	chThdDoDequeueNextI, %function
 855              	chThdDoDequeueNextI:
 856              	.LFB185:
 857              		.loc 8 312 0
 858              		.cfi_startproc
 859              		@ args = 0, pretend = 0, frame = 16
 860              		@ frame_needed = 1, uses_anonymous_args = 0
 861 0000 80B5     		push	{r7, lr}
 862              		.cfi_def_cfa_offset 8
 863              		.cfi_offset 7, -8
 864              		.cfi_offset 14, -4
 865 0002 84B0     		sub	sp, sp, #16
 866              		.cfi_def_cfa_offset 24
 867 0004 00AF     		add	r7, sp, #0
 868              		.cfi_def_cfa_register 7
 869 0006 7860     		str	r0, [r7, #4]
 870 0008 3960     		str	r1, [r7]
 871              		.loc 8 315 0
 872 000a 7868     		ldr	r0, [r7, #4]
 873 000c FFF7FEFF 		bl	queue_notempty
 874 0010 0346     		mov	r3, r0
 875 0012 83F00103 		eor	r3, r3, #1
 876 0016 DBB2     		uxtb	r3, r3
 877 0018 002B     		cmp	r3, #0
 878 001a 02D0     		beq	.L48
 879              		.loc 8 315 0 is_stmt 0 discriminator 1
 880 001c 0B48     		ldr	r0, .L50
 881 001e FFF7FEFF 		bl	chSysHalt
 882              	.L48:
 883              		.loc 8 317 0 is_stmt 1
 884 0022 7868     		ldr	r0, [r7, #4]
 885 0024 FFF7FEFF 		bl	queue_fifo_remove
 886 0028 F860     		str	r0, [r7, #12]
 887              		.loc 8 319 0
 888 002a FB68     		ldr	r3, [r7, #12]
 889 002c 93F82030 		ldrb	r3, [r3, #32]	@ zero_extendqisi2
 890 0030 042B     		cmp	r3, #4
 891 0032 02D0     		beq	.L49
ARM GAS  C:\Users\Luis\AppData\Local\Temp\ccfBMJLd.s 			page 17


 892              		.loc 8 319 0 is_stmt 0 discriminator 1
 893 0034 0548     		ldr	r0, .L50
 894 0036 FFF7FEFF 		bl	chSysHalt
 895              	.L49:
 896              		.loc 8 321 0 is_stmt 1
 897 003a FB68     		ldr	r3, [r7, #12]
 898 003c 3A68     		ldr	r2, [r7]
 899 003e 5A62     		str	r2, [r3, #36]
 900              		.loc 8 322 0
 901 0040 F868     		ldr	r0, [r7, #12]
 902 0042 FFF7FEFF 		bl	chSchReadyI
 903              		.loc 8 323 0
 904 0046 1037     		adds	r7, r7, #16
 905 0048 BD46     		mov	sp, r7
 906              		@ sp needed
 907 004a 80BD     		pop	{r7, pc}
 908              	.L51:
 909              		.align	2
 910              	.L50:
 911 004c 00000000 		.word	__func__.6025
 912              		.cfi_endproc
 913              	.LFE185:
 914              		.size	chThdDoDequeueNextI, .-chThdDoDequeueNextI
 915              		.section	.text._thread_init,"ax",%progbits
 916              		.align	2
 917              		.p2align 4,,15
 918              		.global	_thread_init
 919              		.thumb
 920              		.thumb_func
 921              		.type	_thread_init, %function
 922              	_thread_init:
 923              	.LFB229:
 924              		.file 9 "../../ChibiOS/os/rt/src/chthreads.c"
 925              		.loc 9 91 0
 926              		.cfi_startproc
 927              		@ args = 0, pretend = 0, frame = 8
 928              		@ frame_needed = 1, uses_anonymous_args = 0
 929 0000 80B5     		push	{r7, lr}
 930              		.cfi_def_cfa_offset 8
 931              		.cfi_offset 7, -8
 932              		.cfi_offset 14, -4
 933 0002 82B0     		sub	sp, sp, #8
 934              		.cfi_def_cfa_offset 16
 935 0004 00AF     		add	r7, sp, #0
 936              		.cfi_def_cfa_register 7
 937 0006 7860     		str	r0, [r7, #4]
 938 0008 3960     		str	r1, [r7]
 939              		.loc 9 93 0
 940 000a 7B68     		ldr	r3, [r7, #4]
 941 000c 3A68     		ldr	r2, [r7]
 942 000e 9A60     		str	r2, [r3, #8]
 943              		.loc 9 94 0
 944 0010 7B68     		ldr	r3, [r7, #4]
 945 0012 0222     		movs	r2, #2
 946 0014 83F82020 		strb	r2, [r3, #32]
 947              		.loc 9 95 0
 948 0018 7B68     		ldr	r3, [r7, #4]
ARM GAS  C:\Users\Luis\AppData\Local\Temp\ccfBMJLd.s 			page 18


 949 001a 0022     		movs	r2, #0
 950 001c 83F82120 		strb	r2, [r3, #33]
 951              		.loc 9 100 0
 952 0020 7B68     		ldr	r3, [r7, #4]
 953 0022 3A68     		ldr	r2, [r7]
 954 0024 1A64     		str	r2, [r3, #64]
 955              		.loc 9 101 0
 956 0026 7B68     		ldr	r3, [r7, #4]
 957 0028 0022     		movs	r2, #0
 958 002a DA63     		str	r2, [r3, #60]
 959              		.loc 9 104 0
 960 002c 7B68     		ldr	r3, [r7, #4]
 961 002e 0022     		movs	r2, #0
 962 0030 9A63     		str	r2, [r3, #56]
 963              		.loc 9 110 0
 964 0032 7B68     		ldr	r3, [r7, #4]
 965 0034 0122     		movs	r2, #1
 966 0036 83F82220 		strb	r2, [r3, #34]
 967              		.loc 9 113 0
 968 003a 7B68     		ldr	r3, [r7, #4]
 969 003c 0022     		movs	r2, #0
 970 003e 9A61     		str	r2, [r3, #24]
 971              		.loc 9 114 0
 972 0040 7B68     		ldr	r3, [r7, #4]
 973 0042 154A     		ldr	r2, .L54
 974 0044 1A61     		str	r2, [r3, #16]
 975 0046 144B     		ldr	r3, .L54
 976 0048 5A69     		ldr	r2, [r3, #20]
 977 004a 7B68     		ldr	r3, [r7, #4]
 978 004c 5A61     		str	r2, [r3, #20]
 979 004e 7B68     		ldr	r3, [r7, #4]
 980 0050 5B69     		ldr	r3, [r3, #20]
 981 0052 7A68     		ldr	r2, [r7, #4]
 982 0054 1A61     		str	r2, [r3, #16]
 983 0056 104B     		ldr	r3, .L54
 984 0058 7A68     		ldr	r2, [r7, #4]
 985 005a 5A61     		str	r2, [r3, #20]
 986              		.loc 9 117 0
 987 005c 7B68     		ldr	r3, [r7, #4]
 988 005e 2833     		adds	r3, r3, #40
 989 0060 1846     		mov	r0, r3
 990 0062 FFF7FEFF 		bl	list_init
 991              		.loc 9 120 0
 992 0066 7B68     		ldr	r3, [r7, #4]
 993 0068 2C33     		adds	r3, r3, #44
 994 006a 1846     		mov	r0, r3
 995 006c FFF7FEFF 		bl	queue_init
 996              		.loc 9 123 0
 997 0070 7B68     		ldr	r3, [r7, #4]
 998 0072 03F16802 		add	r2, r3, #104
 999 0076 7B68     		ldr	r3, [r7, #4]
 1000 0078 DA61     		str	r2, [r3, #28]
 1001              		.loc 9 126 0
 1002 007a 7B68     		ldr	r3, [r7, #4]
 1003 007c 4833     		adds	r3, r3, #72
 1004 007e 1846     		mov	r0, r3
 1005 0080 FFF7FEFF 		bl	chTMObjectInit
ARM GAS  C:\Users\Luis\AppData\Local\Temp\ccfBMJLd.s 			page 19


 1006              		.loc 9 127 0
 1007 0084 7B68     		ldr	r3, [r7, #4]
 1008 0086 4833     		adds	r3, r3, #72
 1009 0088 1846     		mov	r0, r3
 1010 008a FFF7FEFF 		bl	chTMStartMeasurementX
 1011              		.loc 9 132 0
 1012 008e 7B68     		ldr	r3, [r7, #4]
 1013              		.loc 9 133 0
 1014 0090 1846     		mov	r0, r3
 1015 0092 0837     		adds	r7, r7, #8
 1016 0094 BD46     		mov	sp, r7
 1017              		@ sp needed
 1018 0096 80BD     		pop	{r7, pc}
 1019              	.L55:
 1020              		.align	2
 1021              	.L54:
 1022 0098 00000000 		.word	ch
 1023              		.cfi_endproc
 1024              	.LFE229:
 1025              		.size	_thread_init, .-_thread_init
 1026 009c AFF30080 		.section	.text._thread_memfill,"ax",%progbits
 1027              		.align	2
 1028              		.p2align 4,,15
 1029              		.global	_thread_memfill
 1030              		.thumb
 1031              		.thumb_func
 1032              		.type	_thread_memfill, %function
 1033              	_thread_memfill:
 1034              	.LFB230:
 1035              		.loc 9 145 0
 1036              		.cfi_startproc
 1037              		@ args = 0, pretend = 0, frame = 16
 1038              		@ frame_needed = 1, uses_anonymous_args = 0
 1039              		@ link register save eliminated.
 1040 0000 80B4     		push	{r7}
 1041              		.cfi_def_cfa_offset 4
 1042              		.cfi_offset 7, -4
 1043 0002 85B0     		sub	sp, sp, #20
 1044              		.cfi_def_cfa_offset 24
 1045 0004 00AF     		add	r7, sp, #0
 1046              		.cfi_def_cfa_register 7
 1047 0006 F860     		str	r0, [r7, #12]
 1048 0008 B960     		str	r1, [r7, #8]
 1049 000a 1346     		mov	r3, r2
 1050 000c FB71     		strb	r3, [r7, #7]
 1051              		.loc 9 147 0
 1052 000e 04E0     		b	.L57
 1053              	.L58:
 1054              		.loc 9 148 0
 1055 0010 FB68     		ldr	r3, [r7, #12]
 1056 0012 5A1C     		adds	r2, r3, #1
 1057 0014 FA60     		str	r2, [r7, #12]
 1058 0016 FA79     		ldrb	r2, [r7, #7]
 1059 0018 1A70     		strb	r2, [r3]
 1060              	.L57:
 1061              		.loc 9 147 0 discriminator 1
 1062 001a FA68     		ldr	r2, [r7, #12]
ARM GAS  C:\Users\Luis\AppData\Local\Temp\ccfBMJLd.s 			page 20


 1063 001c BB68     		ldr	r3, [r7, #8]
 1064 001e 9A42     		cmp	r2, r3
 1065 0020 F6D3     		bcc	.L58
 1066              		.loc 9 150 0
 1067 0022 1437     		adds	r7, r7, #20
 1068 0024 BD46     		mov	sp, r7
 1069              		@ sp needed
 1070 0026 5DF8047B 		ldr	r7, [sp], #4
 1071 002a 7047     		bx	lr
 1072              		.cfi_endproc
 1073              	.LFE230:
 1074              		.size	_thread_memfill, .-_thread_memfill
 1075 002c AFF30080 		.section	.text.chThdCreateI,"ax",%progbits
 1076              		.align	2
 1077              		.p2align 4,,15
 1078              		.global	chThdCreateI
 1079              		.thumb
 1080              		.thumb_func
 1081              		.type	chThdCreateI, %function
 1082              	chThdCreateI:
 1083              	.LFB231:
 1084              		.loc 9 178 0
 1085              		.cfi_startproc
 1086              		@ args = 4, pretend = 0, frame = 24
 1087              		@ frame_needed = 1, uses_anonymous_args = 0
 1088 0000 80B5     		push	{r7, lr}
 1089              		.cfi_def_cfa_offset 8
 1090              		.cfi_offset 7, -8
 1091              		.cfi_offset 14, -4
 1092 0002 86B0     		sub	sp, sp, #24
 1093              		.cfi_def_cfa_offset 32
 1094 0004 00AF     		add	r7, sp, #0
 1095              		.cfi_def_cfa_register 7
 1096 0006 F860     		str	r0, [r7, #12]
 1097 0008 B960     		str	r1, [r7, #8]
 1098 000a 7A60     		str	r2, [r7, #4]
 1099 000c 3B60     		str	r3, [r7]
 1100              		.loc 9 181 0
 1101 000e FB68     		ldr	r3, [r7, #12]
 1102 0010 7B61     		str	r3, [r7, #20]
 1103              		.loc 9 183 0
 1104 0012 FFF7FEFF 		bl	chDbgCheckClassI
 1105              		.loc 9 184 0
 1106 0016 FB68     		ldr	r3, [r7, #12]
 1107 0018 002B     		cmp	r3, #0
 1108 001a 08D0     		beq	.L60
 1109              		.loc 9 184 0 is_stmt 0 discriminator 2
 1110 001c BB68     		ldr	r3, [r7, #8]
 1111 001e EF2B     		cmp	r3, #239
 1112 0020 05D9     		bls	.L60
 1113              		.loc 9 184 0 discriminator 1
 1114 0022 7B68     		ldr	r3, [r7, #4]
 1115 0024 7F2B     		cmp	r3, #127
 1116 0026 02D8     		bhi	.L60
 1117 0028 3B68     		ldr	r3, [r7]
 1118 002a 002B     		cmp	r3, #0
 1119 002c 02D1     		bne	.L61
ARM GAS  C:\Users\Luis\AppData\Local\Temp\ccfBMJLd.s 			page 21


 1120              	.L60:
 1121 002e 0F48     		ldr	r0, .L63
 1122 0030 FFF7FEFF 		bl	chSysHalt
 1123              	.L61:
 1124              		.loc 9 187 0 is_stmt 1
 1125 0034 BB68     		ldr	r3, [r7, #8]
 1126 0036 243B     		subs	r3, r3, #36
 1127 0038 FA68     		ldr	r2, [r7, #12]
 1128 003a 1A44     		add	r2, r2, r3
 1129 003c 7B69     		ldr	r3, [r7, #20]
 1130 003e DA60     		str	r2, [r3, #12]
 1131 0040 7B69     		ldr	r3, [r7, #20]
 1132 0042 DB68     		ldr	r3, [r3, #12]
 1133 0044 3A68     		ldr	r2, [r7]
 1134 0046 1A60     		str	r2, [r3]
 1135 0048 7B69     		ldr	r3, [r7, #20]
 1136 004a DB68     		ldr	r3, [r3, #12]
 1137 004c 3A6A     		ldr	r2, [r7, #32]
 1138 004e 5A60     		str	r2, [r3, #4]
 1139 0050 7B69     		ldr	r3, [r7, #20]
 1140 0052 DB68     		ldr	r3, [r3, #12]
 1141 0054 064A     		ldr	r2, .L63+4
 1142 0056 1A62     		str	r2, [r3, #32]
 1143              		.loc 9 189 0
 1144 0058 7869     		ldr	r0, [r7, #20]
 1145 005a 7968     		ldr	r1, [r7, #4]
 1146 005c FFF7FEFF 		bl	_thread_init
 1147 0060 0346     		mov	r3, r0
 1148              		.loc 9 190 0
 1149 0062 1846     		mov	r0, r3
 1150 0064 1837     		adds	r7, r7, #24
 1151 0066 BD46     		mov	sp, r7
 1152              		@ sp needed
 1153 0068 80BD     		pop	{r7, pc}
 1154              	.L64:
 1155 006a 00BF     		.align	2
 1156              	.L63:
 1157 006c 00000000 		.word	__func__.6554
 1158 0070 00000000 		.word	_port_thread_start
 1159              		.cfi_endproc
 1160              	.LFE231:
 1161              		.size	chThdCreateI, .-chThdCreateI
 1162 0074 AFF30080 		.section	.text.chThdCreateStatic,"ax",%progbits
 1162      AFF30080 
 1162      AFF30080 
 1163              		.align	2
 1164              		.p2align 4,,15
 1165              		.global	chThdCreateStatic
 1166              		.thumb
 1167              		.thumb_func
 1168              		.type	chThdCreateStatic, %function
 1169              	chThdCreateStatic:
 1170              	.LFB232:
 1171              		.loc 9 209 0
 1172              		.cfi_startproc
 1173              		@ args = 4, pretend = 0, frame = 24
 1174              		@ frame_needed = 1, uses_anonymous_args = 0
ARM GAS  C:\Users\Luis\AppData\Local\Temp\ccfBMJLd.s 			page 22


 1175 0000 80B5     		push	{r7, lr}
 1176              		.cfi_def_cfa_offset 8
 1177              		.cfi_offset 7, -8
 1178              		.cfi_offset 14, -4
 1179 0002 88B0     		sub	sp, sp, #32
 1180              		.cfi_def_cfa_offset 40
 1181 0004 02AF     		add	r7, sp, #8
 1182              		.cfi_def_cfa 7, 32
 1183 0006 F860     		str	r0, [r7, #12]
 1184 0008 B960     		str	r1, [r7, #8]
 1185 000a 7A60     		str	r2, [r7, #4]
 1186 000c 3B60     		str	r3, [r7]
 1187              		.loc 9 213 0
 1188 000e FB68     		ldr	r3, [r7, #12]
 1189 0010 6833     		adds	r3, r3, #104
 1190 0012 F868     		ldr	r0, [r7, #12]
 1191 0014 1946     		mov	r1, r3
 1192 0016 FF22     		movs	r2, #255
 1193 0018 FFF7FEFF 		bl	_thread_memfill
 1194              		.loc 9 216 0
 1195 001c FB68     		ldr	r3, [r7, #12]
 1196 001e 03F16802 		add	r2, r3, #104
 1197 0022 F968     		ldr	r1, [r7, #12]
 1198 0024 BB68     		ldr	r3, [r7, #8]
 1199 0026 0B44     		add	r3, r3, r1
 1200 0028 1046     		mov	r0, r2
 1201 002a 1946     		mov	r1, r3
 1202 002c 5522     		movs	r2, #85
 1203 002e FFF7FEFF 		bl	_thread_memfill
 1204              		.loc 9 221 0
 1205 0032 FFF7FEFF 		bl	chSysLock
 1206              		.loc 9 222 0
 1207 0036 3B6A     		ldr	r3, [r7, #32]
 1208 0038 0093     		str	r3, [sp]
 1209 003a F868     		ldr	r0, [r7, #12]
 1210 003c B968     		ldr	r1, [r7, #8]
 1211 003e 7A68     		ldr	r2, [r7, #4]
 1212 0040 3B68     		ldr	r3, [r7]
 1213 0042 FFF7FEFF 		bl	chThdCreateI
 1214 0046 7861     		str	r0, [r7, #20]
 1215              		.loc 9 223 0
 1216 0048 7869     		ldr	r0, [r7, #20]
 1217 004a 0021     		movs	r1, #0
 1218 004c FFF7FEFF 		bl	chSchWakeupS
 1219              		.loc 9 224 0
 1220 0050 FFF7FEFF 		bl	chSysUnlock
 1221              		.loc 9 226 0
 1222 0054 7B69     		ldr	r3, [r7, #20]
 1223              		.loc 9 227 0
 1224 0056 1846     		mov	r0, r3
 1225 0058 1837     		adds	r7, r7, #24
 1226 005a BD46     		mov	sp, r7
 1227              		@ sp needed
 1228 005c 80BD     		pop	{r7, pc}
 1229              		.cfi_endproc
 1230              	.LFE232:
 1231              		.size	chThdCreateStatic, .-chThdCreateStatic
ARM GAS  C:\Users\Luis\AppData\Local\Temp\ccfBMJLd.s 			page 23


 1232 005e 00BF     		.section	.text.chThdStart,"ax",%progbits
 1233              		.align	2
 1234              		.p2align 4,,15
 1235              		.global	chThdStart
 1236              		.thumb
 1237              		.thumb_func
 1238              		.type	chThdStart, %function
 1239              	chThdStart:
 1240              	.LFB233:
 1241              		.loc 9 238 0
 1242              		.cfi_startproc
 1243              		@ args = 0, pretend = 0, frame = 8
 1244              		@ frame_needed = 1, uses_anonymous_args = 0
 1245 0000 80B5     		push	{r7, lr}
 1246              		.cfi_def_cfa_offset 8
 1247              		.cfi_offset 7, -8
 1248              		.cfi_offset 14, -4
 1249 0002 82B0     		sub	sp, sp, #8
 1250              		.cfi_def_cfa_offset 16
 1251 0004 00AF     		add	r7, sp, #0
 1252              		.cfi_def_cfa_register 7
 1253 0006 7860     		str	r0, [r7, #4]
 1254              		.loc 9 240 0
 1255 0008 FFF7FEFF 		bl	chSysLock
 1256              		.loc 9 241 0
 1257 000c 7868     		ldr	r0, [r7, #4]
 1258 000e FFF7FEFF 		bl	chThdStartI
 1259 0012 7860     		str	r0, [r7, #4]
 1260              		.loc 9 242 0
 1261 0014 FFF7FEFF 		bl	chSysUnlock
 1262              		.loc 9 244 0
 1263 0018 7B68     		ldr	r3, [r7, #4]
 1264              		.loc 9 245 0
 1265 001a 1846     		mov	r0, r3
 1266 001c 0837     		adds	r7, r7, #8
 1267 001e BD46     		mov	sp, r7
 1268              		@ sp needed
 1269 0020 80BD     		pop	{r7, pc}
 1270              		.cfi_endproc
 1271              	.LFE233:
 1272              		.size	chThdStart, .-chThdStart
 1273 0022 00BFAFF3 		.section	.text.chThdSetPriority,"ax",%progbits
 1273      0080AFF3 
 1273      0080AFF3 
 1273      0080
 1274              		.align	2
 1275              		.p2align 4,,15
 1276              		.global	chThdSetPriority
 1277              		.thumb
 1278              		.thumb_func
 1279              		.type	chThdSetPriority, %function
 1280              	chThdSetPriority:
 1281              	.LFB234:
 1282              		.loc 9 259 0
 1283              		.cfi_startproc
 1284              		@ args = 0, pretend = 0, frame = 16
 1285              		@ frame_needed = 1, uses_anonymous_args = 0
ARM GAS  C:\Users\Luis\AppData\Local\Temp\ccfBMJLd.s 			page 24


 1286 0000 80B5     		push	{r7, lr}
 1287              		.cfi_def_cfa_offset 8
 1288              		.cfi_offset 7, -8
 1289              		.cfi_offset 14, -4
 1290 0002 84B0     		sub	sp, sp, #16
 1291              		.cfi_def_cfa_offset 24
 1292 0004 00AF     		add	r7, sp, #0
 1293              		.cfi_def_cfa_register 7
 1294 0006 7860     		str	r0, [r7, #4]
 1295              		.loc 9 262 0
 1296 0008 7B68     		ldr	r3, [r7, #4]
 1297 000a 7F2B     		cmp	r3, #127
 1298 000c 02D9     		bls	.L70
 1299              		.loc 9 262 0 is_stmt 0 discriminator 1
 1300 000e 1448     		ldr	r0, .L74
 1301 0010 FFF7FEFF 		bl	chSysHalt
 1302              	.L70:
 1303              		.loc 9 264 0 is_stmt 1
 1304 0014 FFF7FEFF 		bl	chSysLock
 1305              		.loc 9 266 0
 1306 0018 124B     		ldr	r3, .L74+4
 1307 001a 9B69     		ldr	r3, [r3, #24]
 1308 001c 1B6C     		ldr	r3, [r3, #64]
 1309 001e FB60     		str	r3, [r7, #12]
 1310              		.loc 9 267 0
 1311 0020 104B     		ldr	r3, .L74+4
 1312 0022 9B69     		ldr	r3, [r3, #24]
 1313 0024 9A68     		ldr	r2, [r3, #8]
 1314 0026 0F4B     		ldr	r3, .L74+4
 1315 0028 9B69     		ldr	r3, [r3, #24]
 1316 002a 1B6C     		ldr	r3, [r3, #64]
 1317 002c 9A42     		cmp	r2, r3
 1318 002e 05D0     		beq	.L71
 1319              		.loc 9 267 0 is_stmt 0 discriminator 1
 1320 0030 0C4B     		ldr	r3, .L74+4
 1321 0032 9B69     		ldr	r3, [r3, #24]
 1322 0034 9A68     		ldr	r2, [r3, #8]
 1323 0036 7B68     		ldr	r3, [r7, #4]
 1324 0038 9A42     		cmp	r2, r3
 1325 003a 03D2     		bcs	.L72
 1326              	.L71:
 1327              		.loc 9 268 0 is_stmt 1
 1328 003c 094B     		ldr	r3, .L74+4
 1329 003e 9B69     		ldr	r3, [r3, #24]
 1330 0040 7A68     		ldr	r2, [r7, #4]
 1331 0042 9A60     		str	r2, [r3, #8]
 1332              	.L72:
 1333              		.loc 9 270 0
 1334 0044 074B     		ldr	r3, .L74+4
 1335 0046 9B69     		ldr	r3, [r3, #24]
 1336 0048 7A68     		ldr	r2, [r7, #4]
 1337 004a 1A64     		str	r2, [r3, #64]
 1338              		.loc 9 275 0
 1339 004c FFF7FEFF 		bl	chSchRescheduleS
 1340              		.loc 9 276 0
 1341 0050 FFF7FEFF 		bl	chSysUnlock
 1342              		.loc 9 278 0
ARM GAS  C:\Users\Luis\AppData\Local\Temp\ccfBMJLd.s 			page 25


 1343 0054 FB68     		ldr	r3, [r7, #12]
 1344              		.loc 9 279 0
 1345 0056 1846     		mov	r0, r3
 1346 0058 1037     		adds	r7, r7, #16
 1347 005a BD46     		mov	sp, r7
 1348              		@ sp needed
 1349 005c 80BD     		pop	{r7, pc}
 1350              	.L75:
 1351 005e 00BF     		.align	2
 1352              	.L74:
 1353 0060 00000000 		.word	__func__.6570
 1354 0064 00000000 		.word	ch
 1355              		.cfi_endproc
 1356              	.LFE234:
 1357              		.size	chThdSetPriority, .-chThdSetPriority
 1358 0068 AFF30080 		.section	.text.chThdTerminate,"ax",%progbits
 1358      AFF30080 
 1359              		.align	2
 1360              		.p2align 4,,15
 1361              		.global	chThdTerminate
 1362              		.thumb
 1363              		.thumb_func
 1364              		.type	chThdTerminate, %function
 1365              	chThdTerminate:
 1366              	.LFB235:
 1367              		.loc 9 293 0
 1368              		.cfi_startproc
 1369              		@ args = 0, pretend = 0, frame = 8
 1370              		@ frame_needed = 1, uses_anonymous_args = 0
 1371 0000 80B5     		push	{r7, lr}
 1372              		.cfi_def_cfa_offset 8
 1373              		.cfi_offset 7, -8
 1374              		.cfi_offset 14, -4
 1375 0002 82B0     		sub	sp, sp, #8
 1376              		.cfi_def_cfa_offset 16
 1377 0004 00AF     		add	r7, sp, #0
 1378              		.cfi_def_cfa_register 7
 1379 0006 7860     		str	r0, [r7, #4]
 1380              		.loc 9 295 0
 1381 0008 FFF7FEFF 		bl	chSysLock
 1382              		.loc 9 296 0
 1383 000c 7B68     		ldr	r3, [r7, #4]
 1384 000e 93F82130 		ldrb	r3, [r3, #33]	@ zero_extendqisi2
 1385 0012 43F00403 		orr	r3, r3, #4
 1386 0016 DAB2     		uxtb	r2, r3
 1387 0018 7B68     		ldr	r3, [r7, #4]
 1388 001a 83F82120 		strb	r2, [r3, #33]
 1389              		.loc 9 297 0
 1390 001e FFF7FEFF 		bl	chSysUnlock
 1391              		.loc 9 298 0
 1392 0022 0837     		adds	r7, r7, #8
 1393 0024 BD46     		mov	sp, r7
 1394              		@ sp needed
 1395 0026 80BD     		pop	{r7, pc}
 1396              		.cfi_endproc
 1397              	.LFE235:
 1398              		.size	chThdTerminate, .-chThdTerminate
ARM GAS  C:\Users\Luis\AppData\Local\Temp\ccfBMJLd.s 			page 26


 1399 0028 AFF30080 		.section	.text.chThdSleep,"ax",%progbits
 1399      AFF30080 
 1400              		.align	2
 1401              		.p2align 4,,15
 1402              		.global	chThdSleep
 1403              		.thumb
 1404              		.thumb_func
 1405              		.type	chThdSleep, %function
 1406              	chThdSleep:
 1407              	.LFB236:
 1408              		.loc 9 312 0
 1409              		.cfi_startproc
 1410              		@ args = 0, pretend = 0, frame = 8
 1411              		@ frame_needed = 1, uses_anonymous_args = 0
 1412 0000 80B5     		push	{r7, lr}
 1413              		.cfi_def_cfa_offset 8
 1414              		.cfi_offset 7, -8
 1415              		.cfi_offset 14, -4
 1416 0002 82B0     		sub	sp, sp, #8
 1417              		.cfi_def_cfa_offset 16
 1418 0004 00AF     		add	r7, sp, #0
 1419              		.cfi_def_cfa_register 7
 1420 0006 7860     		str	r0, [r7, #4]
 1421              		.loc 9 314 0
 1422 0008 FFF7FEFF 		bl	chSysLock
 1423              		.loc 9 315 0
 1424 000c 7868     		ldr	r0, [r7, #4]
 1425 000e FFF7FEFF 		bl	chThdSleepS
 1426              		.loc 9 316 0
 1427 0012 FFF7FEFF 		bl	chSysUnlock
 1428              		.loc 9 317 0
 1429 0016 0837     		adds	r7, r7, #8
 1430 0018 BD46     		mov	sp, r7
 1431              		@ sp needed
 1432 001a 80BD     		pop	{r7, pc}
 1433              		.cfi_endproc
 1434              	.LFE236:
 1435              		.size	chThdSleep, .-chThdSleep
 1436 001c AFF30080 		.section	.text.chThdSleepUntil,"ax",%progbits
 1437              		.align	2
 1438              		.p2align 4,,15
 1439              		.global	chThdSleepUntil
 1440              		.thumb
 1441              		.thumb_func
 1442              		.type	chThdSleepUntil, %function
 1443              	chThdSleepUntil:
 1444              	.LFB237:
 1445              		.loc 9 332 0
 1446              		.cfi_startproc
 1447              		@ args = 0, pretend = 0, frame = 8
 1448              		@ frame_needed = 1, uses_anonymous_args = 0
 1449 0000 80B5     		push	{r7, lr}
 1450              		.cfi_def_cfa_offset 8
 1451              		.cfi_offset 7, -8
 1452              		.cfi_offset 14, -4
 1453 0002 82B0     		sub	sp, sp, #8
 1454              		.cfi_def_cfa_offset 16
ARM GAS  C:\Users\Luis\AppData\Local\Temp\ccfBMJLd.s 			page 27


 1455 0004 00AF     		add	r7, sp, #0
 1456              		.cfi_def_cfa_register 7
 1457 0006 7860     		str	r0, [r7, #4]
 1458              		.loc 9 334 0
 1459 0008 FFF7FEFF 		bl	chSysLock
 1460              		.loc 9 335 0
 1461 000c FFF7FEFF 		bl	chVTGetSystemTimeX
 1462 0010 0346     		mov	r3, r0
 1463 0012 7A68     		ldr	r2, [r7, #4]
 1464 0014 D31A     		subs	r3, r2, r3
 1465 0016 7B60     		str	r3, [r7, #4]
 1466              		.loc 9 336 0
 1467 0018 7B68     		ldr	r3, [r7, #4]
 1468 001a 002B     		cmp	r3, #0
 1469 001c 02D0     		beq	.L79
 1470              		.loc 9 337 0
 1471 001e 7868     		ldr	r0, [r7, #4]
 1472 0020 FFF7FEFF 		bl	chThdSleepS
 1473              	.L79:
 1474              		.loc 9 339 0
 1475 0024 FFF7FEFF 		bl	chSysUnlock
 1476              		.loc 9 340 0
 1477 0028 0837     		adds	r7, r7, #8
 1478 002a BD46     		mov	sp, r7
 1479              		@ sp needed
 1480 002c 80BD     		pop	{r7, pc}
 1481              		.cfi_endproc
 1482              	.LFE237:
 1483              		.size	chThdSleepUntil, .-chThdSleepUntil
 1484 002e 00BF     		.section	.text.chThdSleepUntilWindowed,"ax",%progbits
 1485              		.align	2
 1486              		.p2align 4,,15
 1487              		.global	chThdSleepUntilWindowed
 1488              		.thumb
 1489              		.thumb_func
 1490              		.type	chThdSleepUntilWindowed, %function
 1491              	chThdSleepUntilWindowed:
 1492              	.LFB238:
 1493              		.loc 9 356 0
 1494              		.cfi_startproc
 1495              		@ args = 0, pretend = 0, frame = 16
 1496              		@ frame_needed = 1, uses_anonymous_args = 0
 1497 0000 80B5     		push	{r7, lr}
 1498              		.cfi_def_cfa_offset 8
 1499              		.cfi_offset 7, -8
 1500              		.cfi_offset 14, -4
 1501 0002 84B0     		sub	sp, sp, #16
 1502              		.cfi_def_cfa_offset 24
 1503 0004 00AF     		add	r7, sp, #0
 1504              		.cfi_def_cfa_register 7
 1505 0006 7860     		str	r0, [r7, #4]
 1506 0008 3960     		str	r1, [r7]
 1507              		.loc 9 359 0
 1508 000a FFF7FEFF 		bl	chSysLock
 1509              		.loc 9 360 0
 1510 000e FFF7FEFF 		bl	chVTGetSystemTimeX
 1511 0012 F860     		str	r0, [r7, #12]
ARM GAS  C:\Users\Luis\AppData\Local\Temp\ccfBMJLd.s 			page 28


 1512              		.loc 9 361 0
 1513 0014 F868     		ldr	r0, [r7, #12]
 1514 0016 7968     		ldr	r1, [r7, #4]
 1515 0018 3A68     		ldr	r2, [r7]
 1516 001a FFF7FEFF 		bl	chVTIsTimeWithinX
 1517 001e 0346     		mov	r3, r0
 1518 0020 002B     		cmp	r3, #0
 1519 0022 05D0     		beq	.L81
 1520              		.loc 9 362 0
 1521 0024 3A68     		ldr	r2, [r7]
 1522 0026 FB68     		ldr	r3, [r7, #12]
 1523 0028 D31A     		subs	r3, r2, r3
 1524 002a 1846     		mov	r0, r3
 1525 002c FFF7FEFF 		bl	chThdSleepS
 1526              	.L81:
 1527              		.loc 9 364 0
 1528 0030 FFF7FEFF 		bl	chSysUnlock
 1529              		.loc 9 366 0
 1530 0034 3B68     		ldr	r3, [r7]
 1531              		.loc 9 367 0
 1532 0036 1846     		mov	r0, r3
 1533 0038 1037     		adds	r7, r7, #16
 1534 003a BD46     		mov	sp, r7
 1535              		@ sp needed
 1536 003c 80BD     		pop	{r7, pc}
 1537              		.cfi_endproc
 1538              	.LFE238:
 1539              		.size	chThdSleepUntilWindowed, .-chThdSleepUntilWindowed
 1540 003e 00BF     		.section	.text.chThdYield,"ax",%progbits
 1541              		.align	2
 1542              		.p2align 4,,15
 1543              		.global	chThdYield
 1544              		.thumb
 1545              		.thumb_func
 1546              		.type	chThdYield, %function
 1547              	chThdYield:
 1548              	.LFB239:
 1549              		.loc 9 376 0
 1550              		.cfi_startproc
 1551              		@ args = 0, pretend = 0, frame = 0
 1552              		@ frame_needed = 1, uses_anonymous_args = 0
 1553 0000 80B5     		push	{r7, lr}
 1554              		.cfi_def_cfa_offset 8
 1555              		.cfi_offset 7, -8
 1556              		.cfi_offset 14, -4
 1557 0002 00AF     		add	r7, sp, #0
 1558              		.cfi_def_cfa_register 7
 1559              		.loc 9 378 0
 1560 0004 FFF7FEFF 		bl	chSysLock
 1561              		.loc 9 379 0
 1562 0008 FFF7FEFF 		bl	chSchDoYieldS
 1563              		.loc 9 380 0
 1564 000c FFF7FEFF 		bl	chSysUnlock
 1565              		.loc 9 381 0
 1566 0010 80BD     		pop	{r7, pc}
 1567              		.cfi_endproc
 1568              	.LFE239:
ARM GAS  C:\Users\Luis\AppData\Local\Temp\ccfBMJLd.s 			page 29


 1569              		.size	chThdYield, .-chThdYield
 1570 0012 00BFAFF3 		.section	.text.chThdExit,"ax",%progbits
 1570      0080AFF3 
 1570      0080AFF3 
 1570      0080
 1571              		.align	2
 1572              		.p2align 4,,15
 1573              		.global	chThdExit
 1574              		.thumb
 1575              		.thumb_func
 1576              		.type	chThdExit, %function
 1577              	chThdExit:
 1578              	.LFB240:
 1579              		.loc 9 397 0
 1580              		.cfi_startproc
 1581              		@ args = 0, pretend = 0, frame = 8
 1582              		@ frame_needed = 1, uses_anonymous_args = 0
 1583 0000 80B5     		push	{r7, lr}
 1584              		.cfi_def_cfa_offset 8
 1585              		.cfi_offset 7, -8
 1586              		.cfi_offset 14, -4
 1587 0002 82B0     		sub	sp, sp, #8
 1588              		.cfi_def_cfa_offset 16
 1589 0004 00AF     		add	r7, sp, #0
 1590              		.cfi_def_cfa_register 7
 1591 0006 7860     		str	r0, [r7, #4]
 1592              		.loc 9 399 0
 1593 0008 FFF7FEFF 		bl	chSysLock
 1594              		.loc 9 400 0
 1595 000c 7868     		ldr	r0, [r7, #4]
 1596 000e FFF7FEFF 		bl	chThdExitS
 1597              		.loc 9 402 0
 1598 0012 0837     		adds	r7, r7, #8
 1599 0014 BD46     		mov	sp, r7
 1600              		@ sp needed
 1601 0016 80BD     		pop	{r7, pc}
 1602              		.cfi_endproc
 1603              	.LFE240:
 1604              		.size	chThdExit, .-chThdExit
 1605 0018 AFF30080 		.section	.text.chThdExitS,"ax",%progbits
 1605      AFF30080 
 1606              		.align	2
 1607              		.p2align 4,,15
 1608              		.global	chThdExitS
 1609              		.thumb
 1610              		.thumb_func
 1611              		.type	chThdExitS, %function
 1612              	chThdExitS:
 1613              	.LFB241:
 1614              		.loc 9 418 0
 1615              		.cfi_startproc
 1616              		@ args = 0, pretend = 0, frame = 16
 1617              		@ frame_needed = 1, uses_anonymous_args = 0
 1618 0000 80B5     		push	{r7, lr}
 1619              		.cfi_def_cfa_offset 8
 1620              		.cfi_offset 7, -8
 1621              		.cfi_offset 14, -4
ARM GAS  C:\Users\Luis\AppData\Local\Temp\ccfBMJLd.s 			page 30


 1622 0002 84B0     		sub	sp, sp, #16
 1623              		.cfi_def_cfa_offset 24
 1624 0004 00AF     		add	r7, sp, #0
 1625              		.cfi_def_cfa_register 7
 1626 0006 7860     		str	r0, [r7, #4]
 1627              		.loc 9 419 0
 1628 0008 184B     		ldr	r3, .L89
 1629 000a 9B69     		ldr	r3, [r3, #24]
 1630 000c FB60     		str	r3, [r7, #12]
 1631              		.loc 9 421 0
 1632 000e FB68     		ldr	r3, [r7, #12]
 1633 0010 7A68     		ldr	r2, [r7, #4]
 1634 0012 5A62     		str	r2, [r3, #36]
 1635              		.loc 9 426 0
 1636 0014 08E0     		b	.L86
 1637              	.L87:
 1638              		.loc 9 427 0
 1639 0016 FB68     		ldr	r3, [r7, #12]
 1640 0018 2833     		adds	r3, r3, #40
 1641 001a 1846     		mov	r0, r3
 1642 001c FFF7FEFF 		bl	list_remove
 1643 0020 0346     		mov	r3, r0
 1644 0022 1846     		mov	r0, r3
 1645 0024 FFF7FEFF 		bl	chSchReadyI
 1646              	.L86:
 1647              		.loc 9 426 0 discriminator 1
 1648 0028 FB68     		ldr	r3, [r7, #12]
 1649 002a 2833     		adds	r3, r3, #40
 1650 002c 1846     		mov	r0, r3
 1651 002e FFF7FEFF 		bl	list_notempty
 1652 0032 0346     		mov	r3, r0
 1653 0034 002B     		cmp	r3, #0
 1654 0036 EED1     		bne	.L87
 1655              		.loc 9 433 0
 1656 0038 FB68     		ldr	r3, [r7, #12]
 1657 003a 93F82130 		ldrb	r3, [r3, #33]	@ zero_extendqisi2
 1658 003e 03F00303 		and	r3, r3, #3
 1659 0042 002B     		cmp	r3, #0
 1660 0044 09D1     		bne	.L88
 1661              		.loc 9 434 0
 1662 0046 FB68     		ldr	r3, [r7, #12]
 1663 0048 5B69     		ldr	r3, [r3, #20]
 1664 004a FA68     		ldr	r2, [r7, #12]
 1665 004c 1269     		ldr	r2, [r2, #16]
 1666 004e 1A61     		str	r2, [r3, #16]
 1667 0050 FB68     		ldr	r3, [r7, #12]
 1668 0052 1B69     		ldr	r3, [r3, #16]
 1669 0054 FA68     		ldr	r2, [r7, #12]
 1670 0056 5269     		ldr	r2, [r2, #20]
 1671 0058 5A61     		str	r2, [r3, #20]
 1672              	.L88:
 1673              		.loc 9 437 0
 1674 005a 0F20     		movs	r0, #15
 1675 005c FFF7FEFF 		bl	chSchGoSleepS
 1676              		.loc 9 440 0
 1677 0060 0348     		ldr	r0, .L89+4
 1678 0062 FFF7FEFF 		bl	chSysHalt
ARM GAS  C:\Users\Luis\AppData\Local\Temp\ccfBMJLd.s 			page 31


 1679              		.loc 9 441 0
 1680 0066 1037     		adds	r7, r7, #16
 1681 0068 BD46     		mov	sp, r7
 1682              		@ sp needed
 1683 006a 80BD     		pop	{r7, pc}
 1684              	.L90:
 1685              		.align	2
 1686              	.L89:
 1687 006c 00000000 		.word	ch
 1688 0070 00000000 		.word	__func__.6598
 1689              		.cfi_endproc
 1690              	.LFE241:
 1691              		.size	chThdExitS, .-chThdExitS
 1692 0074 AFF30080 		.section	.text.chThdWait,"ax",%progbits
 1692      AFF30080 
 1692      AFF30080 
 1693              		.align	2
 1694              		.p2align 4,,15
 1695              		.global	chThdWait
 1696              		.thumb
 1697              		.thumb_func
 1698              		.type	chThdWait, %function
 1699              	chThdWait:
 1700              	.LFB242:
 1701              		.loc 9 475 0
 1702              		.cfi_startproc
 1703              		@ args = 0, pretend = 0, frame = 16
 1704              		@ frame_needed = 1, uses_anonymous_args = 0
 1705 0000 80B5     		push	{r7, lr}
 1706              		.cfi_def_cfa_offset 8
 1707              		.cfi_offset 7, -8
 1708              		.cfi_offset 14, -4
 1709 0002 84B0     		sub	sp, sp, #16
 1710              		.cfi_def_cfa_offset 24
 1711 0004 00AF     		add	r7, sp, #0
 1712              		.cfi_def_cfa_register 7
 1713 0006 7860     		str	r0, [r7, #4]
 1714              		.loc 9 478 0
 1715 0008 7B68     		ldr	r3, [r7, #4]
 1716 000a 002B     		cmp	r3, #0
 1717 000c 02D1     		bne	.L92
 1718              		.loc 9 478 0 is_stmt 0 discriminator 1
 1719 000e 1948     		ldr	r0, .L98
 1720 0010 FFF7FEFF 		bl	chSysHalt
 1721              	.L92:
 1722              		.loc 9 480 0 is_stmt 1
 1723 0014 FFF7FEFF 		bl	chSysLock
 1724              		.loc 9 481 0
 1725 0018 174B     		ldr	r3, .L98+4
 1726 001a 9A69     		ldr	r2, [r3, #24]
 1727 001c 7B68     		ldr	r3, [r7, #4]
 1728 001e 9A42     		cmp	r2, r3
 1729 0020 02D1     		bne	.L97
 1730              		.loc 9 481 0 is_stmt 0 discriminator 1
 1731 0022 1448     		ldr	r0, .L98
 1732 0024 FFF7FEFF 		bl	chSysHalt
 1733              	.L97:
ARM GAS  C:\Users\Luis\AppData\Local\Temp\ccfBMJLd.s 			page 32


 1734              		.loc 9 483 0 is_stmt 1 discriminator 1
 1735 0028 7B68     		ldr	r3, [r7, #4]
 1736 002a 93F82230 		ldrb	r3, [r3, #34]	@ zero_extendqisi2
 1737 002e 002B     		cmp	r3, #0
 1738 0030 02D1     		bne	.L94
 1739 0032 1048     		ldr	r0, .L98
 1740 0034 FFF7FEFF 		bl	chSysHalt
 1741              	.L94:
 1742              		.loc 9 485 0
 1743 0038 7B68     		ldr	r3, [r7, #4]
 1744 003a 93F82030 		ldrb	r3, [r3, #32]	@ zero_extendqisi2
 1745 003e 0F2B     		cmp	r3, #15
 1746 0040 0AD0     		beq	.L95
 1747              		.loc 9 486 0
 1748 0042 0D4B     		ldr	r3, .L98+4
 1749 0044 9A69     		ldr	r2, [r3, #24]
 1750 0046 7B68     		ldr	r3, [r7, #4]
 1751 0048 2833     		adds	r3, r3, #40
 1752 004a 1046     		mov	r0, r2
 1753 004c 1946     		mov	r1, r3
 1754 004e FFF7FEFF 		bl	list_insert
 1755              		.loc 9 487 0
 1756 0052 0920     		movs	r0, #9
 1757 0054 FFF7FEFF 		bl	chSchGoSleepS
 1758              	.L95:
 1759              		.loc 9 489 0
 1760 0058 7B68     		ldr	r3, [r7, #4]
 1761 005a 5B6A     		ldr	r3, [r3, #36]
 1762 005c FB60     		str	r3, [r7, #12]
 1763              		.loc 9 490 0
 1764 005e FFF7FEFF 		bl	chSysUnlock
 1765              		.loc 9 494 0
 1766 0062 7868     		ldr	r0, [r7, #4]
 1767 0064 FFF7FEFF 		bl	chThdRelease
 1768              		.loc 9 497 0
 1769 0068 FB68     		ldr	r3, [r7, #12]
 1770              		.loc 9 498 0
 1771 006a 1846     		mov	r0, r3
 1772 006c 1037     		adds	r7, r7, #16
 1773 006e BD46     		mov	sp, r7
 1774              		@ sp needed
 1775 0070 80BD     		pop	{r7, pc}
 1776              	.L99:
 1777 0072 00BF     		.align	2
 1778              	.L98:
 1779 0074 00000000 		.word	__func__.6603
 1780 0078 00000000 		.word	ch
 1781              		.cfi_endproc
 1782              	.LFE242:
 1783              		.size	chThdWait, .-chThdWait
 1784 007c AFF30080 		.section	.text.chThdSuspendS,"ax",%progbits
 1785              		.align	2
 1786              		.p2align 4,,15
 1787              		.global	chThdSuspendS
 1788              		.thumb
 1789              		.thumb_func
 1790              		.type	chThdSuspendS, %function
ARM GAS  C:\Users\Luis\AppData\Local\Temp\ccfBMJLd.s 			page 33


 1791              	chThdSuspendS:
 1792              	.LFB243:
 1793              		.loc 9 511 0
 1794              		.cfi_startproc
 1795              		@ args = 0, pretend = 0, frame = 16
 1796              		@ frame_needed = 1, uses_anonymous_args = 0
 1797 0000 80B5     		push	{r7, lr}
 1798              		.cfi_def_cfa_offset 8
 1799              		.cfi_offset 7, -8
 1800              		.cfi_offset 14, -4
 1801 0002 84B0     		sub	sp, sp, #16
 1802              		.cfi_def_cfa_offset 24
 1803 0004 00AF     		add	r7, sp, #0
 1804              		.cfi_def_cfa_register 7
 1805 0006 7860     		str	r0, [r7, #4]
 1806              		.loc 9 512 0
 1807 0008 FFF7FEFF 		bl	chThdGetSelfX
 1808 000c F860     		str	r0, [r7, #12]
 1809              		.loc 9 514 0
 1810 000e 7B68     		ldr	r3, [r7, #4]
 1811 0010 1B68     		ldr	r3, [r3]
 1812 0012 002B     		cmp	r3, #0
 1813 0014 02D0     		beq	.L101
 1814              		.loc 9 514 0 is_stmt 0 discriminator 1
 1815 0016 0A48     		ldr	r0, .L103
 1816 0018 FFF7FEFF 		bl	chSysHalt
 1817              	.L101:
 1818              		.loc 9 516 0 is_stmt 1
 1819 001c 7B68     		ldr	r3, [r7, #4]
 1820 001e FA68     		ldr	r2, [r7, #12]
 1821 0020 1A60     		str	r2, [r3]
 1822              		.loc 9 517 0
 1823 0022 FB68     		ldr	r3, [r7, #12]
 1824 0024 7A68     		ldr	r2, [r7, #4]
 1825 0026 5A62     		str	r2, [r3, #36]
 1826              		.loc 9 518 0
 1827 0028 0320     		movs	r0, #3
 1828 002a FFF7FEFF 		bl	chSchGoSleepS
 1829              		.loc 9 520 0
 1830 002e FFF7FEFF 		bl	chThdGetSelfX
 1831 0032 0346     		mov	r3, r0
 1832 0034 5B6A     		ldr	r3, [r3, #36]
 1833              		.loc 9 521 0
 1834 0036 1846     		mov	r0, r3
 1835 0038 1037     		adds	r7, r7, #16
 1836 003a BD46     		mov	sp, r7
 1837              		@ sp needed
 1838 003c 80BD     		pop	{r7, pc}
 1839              	.L104:
 1840 003e 00BF     		.align	2
 1841              	.L103:
 1842 0040 00000000 		.word	__func__.6608
 1843              		.cfi_endproc
 1844              	.LFE243:
 1845              		.size	chThdSuspendS, .-chThdSuspendS
 1846 0044 AFF30080 		.section	.text.chThdSuspendTimeoutS,"ax",%progbits
 1846      AFF30080 
ARM GAS  C:\Users\Luis\AppData\Local\Temp\ccfBMJLd.s 			page 34


 1846      AFF30080 
 1847              		.align	2
 1848              		.p2align 4,,15
 1849              		.global	chThdSuspendTimeoutS
 1850              		.thumb
 1851              		.thumb_func
 1852              		.type	chThdSuspendTimeoutS, %function
 1853              	chThdSuspendTimeoutS:
 1854              	.LFB244:
 1855              		.loc 9 542 0
 1856              		.cfi_startproc
 1857              		@ args = 0, pretend = 0, frame = 16
 1858              		@ frame_needed = 1, uses_anonymous_args = 0
 1859 0000 80B5     		push	{r7, lr}
 1860              		.cfi_def_cfa_offset 8
 1861              		.cfi_offset 7, -8
 1862              		.cfi_offset 14, -4
 1863 0002 84B0     		sub	sp, sp, #16
 1864              		.cfi_def_cfa_offset 24
 1865 0004 00AF     		add	r7, sp, #0
 1866              		.cfi_def_cfa_register 7
 1867 0006 7860     		str	r0, [r7, #4]
 1868 0008 3960     		str	r1, [r7]
 1869              		.loc 9 543 0
 1870 000a FFF7FEFF 		bl	chThdGetSelfX
 1871 000e F860     		str	r0, [r7, #12]
 1872              		.loc 9 545 0
 1873 0010 7B68     		ldr	r3, [r7, #4]
 1874 0012 1B68     		ldr	r3, [r3]
 1875 0014 002B     		cmp	r3, #0
 1876 0016 02D0     		beq	.L106
 1877              		.loc 9 545 0 is_stmt 0 discriminator 1
 1878 0018 0B48     		ldr	r0, .L109
 1879 001a FFF7FEFF 		bl	chSysHalt
 1880              	.L106:
 1881              		.loc 9 547 0 is_stmt 1
 1882 001e 3B68     		ldr	r3, [r7]
 1883 0020 002B     		cmp	r3, #0
 1884 0022 02D1     		bne	.L107
 1885              		.loc 9 548 0
 1886 0024 4FF0FF33 		mov	r3, #-1
 1887 0028 0AE0     		b	.L108
 1888              	.L107:
 1889              		.loc 9 551 0
 1890 002a 7B68     		ldr	r3, [r7, #4]
 1891 002c FA68     		ldr	r2, [r7, #12]
 1892 002e 1A60     		str	r2, [r3]
 1893              		.loc 9 552 0
 1894 0030 FB68     		ldr	r3, [r7, #12]
 1895 0032 7A68     		ldr	r2, [r7, #4]
 1896 0034 5A62     		str	r2, [r3, #36]
 1897              		.loc 9 554 0
 1898 0036 0320     		movs	r0, #3
 1899 0038 3968     		ldr	r1, [r7]
 1900 003a FFF7FEFF 		bl	chSchGoSleepTimeoutS
 1901 003e 0346     		mov	r3, r0
 1902              	.L108:
ARM GAS  C:\Users\Luis\AppData\Local\Temp\ccfBMJLd.s 			page 35


 1903              		.loc 9 555 0
 1904 0040 1846     		mov	r0, r3
 1905 0042 1037     		adds	r7, r7, #16
 1906 0044 BD46     		mov	sp, r7
 1907              		@ sp needed
 1908 0046 80BD     		pop	{r7, pc}
 1909              	.L110:
 1910              		.align	2
 1911              	.L109:
 1912 0048 00000000 		.word	__func__.6614
 1913              		.cfi_endproc
 1914              	.LFE244:
 1915              		.size	chThdSuspendTimeoutS, .-chThdSuspendTimeoutS
 1916 004c AFF30080 		.section	.text.chThdResumeI,"ax",%progbits
 1917              		.align	2
 1918              		.p2align 4,,15
 1919              		.global	chThdResumeI
 1920              		.thumb
 1921              		.thumb_func
 1922              		.type	chThdResumeI, %function
 1923              	chThdResumeI:
 1924              	.LFB245:
 1925              		.loc 9 567 0
 1926              		.cfi_startproc
 1927              		@ args = 0, pretend = 0, frame = 16
 1928              		@ frame_needed = 1, uses_anonymous_args = 0
 1929 0000 80B5     		push	{r7, lr}
 1930              		.cfi_def_cfa_offset 8
 1931              		.cfi_offset 7, -8
 1932              		.cfi_offset 14, -4
 1933 0002 84B0     		sub	sp, sp, #16
 1934              		.cfi_def_cfa_offset 24
 1935 0004 00AF     		add	r7, sp, #0
 1936              		.cfi_def_cfa_register 7
 1937 0006 7860     		str	r0, [r7, #4]
 1938 0008 3960     		str	r1, [r7]
 1939              		.loc 9 569 0
 1940 000a 7B68     		ldr	r3, [r7, #4]
 1941 000c 1B68     		ldr	r3, [r3]
 1942 000e 002B     		cmp	r3, #0
 1943 0010 13D0     		beq	.L111
 1944              	.LBB10:
 1945              		.loc 9 570 0
 1946 0012 7B68     		ldr	r3, [r7, #4]
 1947 0014 1B68     		ldr	r3, [r3]
 1948 0016 FB60     		str	r3, [r7, #12]
 1949              		.loc 9 572 0
 1950 0018 FB68     		ldr	r3, [r7, #12]
 1951 001a 93F82030 		ldrb	r3, [r3, #32]	@ zero_extendqisi2
 1952 001e 032B     		cmp	r3, #3
 1953 0020 02D0     		beq	.L113
 1954              		.loc 9 572 0 is_stmt 0 discriminator 1
 1955 0022 0748     		ldr	r0, .L114
 1956 0024 FFF7FEFF 		bl	chSysHalt
 1957              	.L113:
 1958              		.loc 9 575 0 is_stmt 1
 1959 0028 7B68     		ldr	r3, [r7, #4]
ARM GAS  C:\Users\Luis\AppData\Local\Temp\ccfBMJLd.s 			page 36


 1960 002a 0022     		movs	r2, #0
 1961 002c 1A60     		str	r2, [r3]
 1962              		.loc 9 576 0
 1963 002e FB68     		ldr	r3, [r7, #12]
 1964 0030 3A68     		ldr	r2, [r7]
 1965 0032 5A62     		str	r2, [r3, #36]
 1966              		.loc 9 577 0
 1967 0034 F868     		ldr	r0, [r7, #12]
 1968 0036 FFF7FEFF 		bl	chSchReadyI
 1969              	.L111:
 1970              	.LBE10:
 1971              		.loc 9 579 0
 1972 003a 1037     		adds	r7, r7, #16
 1973 003c BD46     		mov	sp, r7
 1974              		@ sp needed
 1975 003e 80BD     		pop	{r7, pc}
 1976              	.L115:
 1977              		.align	2
 1978              	.L114:
 1979 0040 00000000 		.word	__func__.6620
 1980              		.cfi_endproc
 1981              	.LFE245:
 1982              		.size	chThdResumeI, .-chThdResumeI
 1983 0044 AFF30080 		.section	.text.chThdResumeS,"ax",%progbits
 1983      AFF30080 
 1983      AFF30080 
 1984              		.align	2
 1985              		.p2align 4,,15
 1986              		.global	chThdResumeS
 1987              		.thumb
 1988              		.thumb_func
 1989              		.type	chThdResumeS, %function
 1990              	chThdResumeS:
 1991              	.LFB246:
 1992              		.loc 9 591 0
 1993              		.cfi_startproc
 1994              		@ args = 0, pretend = 0, frame = 16
 1995              		@ frame_needed = 1, uses_anonymous_args = 0
 1996 0000 80B5     		push	{r7, lr}
 1997              		.cfi_def_cfa_offset 8
 1998              		.cfi_offset 7, -8
 1999              		.cfi_offset 14, -4
 2000 0002 84B0     		sub	sp, sp, #16
 2001              		.cfi_def_cfa_offset 24
 2002 0004 00AF     		add	r7, sp, #0
 2003              		.cfi_def_cfa_register 7
 2004 0006 7860     		str	r0, [r7, #4]
 2005 0008 3960     		str	r1, [r7]
 2006              		.loc 9 593 0
 2007 000a 7B68     		ldr	r3, [r7, #4]
 2008 000c 1B68     		ldr	r3, [r3]
 2009 000e 002B     		cmp	r3, #0
 2010 0010 11D0     		beq	.L116
 2011              	.LBB11:
 2012              		.loc 9 594 0
 2013 0012 7B68     		ldr	r3, [r7, #4]
 2014 0014 1B68     		ldr	r3, [r3]
ARM GAS  C:\Users\Luis\AppData\Local\Temp\ccfBMJLd.s 			page 37


 2015 0016 FB60     		str	r3, [r7, #12]
 2016              		.loc 9 596 0
 2017 0018 FB68     		ldr	r3, [r7, #12]
 2018 001a 93F82030 		ldrb	r3, [r3, #32]	@ zero_extendqisi2
 2019 001e 032B     		cmp	r3, #3
 2020 0020 02D0     		beq	.L118
 2021              		.loc 9 596 0 is_stmt 0 discriminator 1
 2022 0022 0648     		ldr	r0, .L119
 2023 0024 FFF7FEFF 		bl	chSysHalt
 2024              	.L118:
 2025              		.loc 9 599 0 is_stmt 1
 2026 0028 7B68     		ldr	r3, [r7, #4]
 2027 002a 0022     		movs	r2, #0
 2028 002c 1A60     		str	r2, [r3]
 2029              		.loc 9 600 0
 2030 002e F868     		ldr	r0, [r7, #12]
 2031 0030 3968     		ldr	r1, [r7]
 2032 0032 FFF7FEFF 		bl	chSchWakeupS
 2033              	.L116:
 2034              	.LBE11:
 2035              		.loc 9 602 0
 2036 0036 1037     		adds	r7, r7, #16
 2037 0038 BD46     		mov	sp, r7
 2038              		@ sp needed
 2039 003a 80BD     		pop	{r7, pc}
 2040              	.L120:
 2041              		.align	2
 2042              	.L119:
 2043 003c 00000000 		.word	__func__.6626
 2044              		.cfi_endproc
 2045              	.LFE246:
 2046              		.size	chThdResumeS, .-chThdResumeS
 2047              		.section	.text.chThdResume,"ax",%progbits
 2048              		.align	2
 2049              		.p2align 4,,15
 2050              		.global	chThdResume
 2051              		.thumb
 2052              		.thumb_func
 2053              		.type	chThdResume, %function
 2054              	chThdResume:
 2055              	.LFB247:
 2056              		.loc 9 614 0
 2057              		.cfi_startproc
 2058              		@ args = 0, pretend = 0, frame = 8
 2059              		@ frame_needed = 1, uses_anonymous_args = 0
 2060 0000 80B5     		push	{r7, lr}
 2061              		.cfi_def_cfa_offset 8
 2062              		.cfi_offset 7, -8
 2063              		.cfi_offset 14, -4
 2064 0002 82B0     		sub	sp, sp, #8
 2065              		.cfi_def_cfa_offset 16
 2066 0004 00AF     		add	r7, sp, #0
 2067              		.cfi_def_cfa_register 7
 2068 0006 7860     		str	r0, [r7, #4]
 2069 0008 3960     		str	r1, [r7]
 2070              		.loc 9 616 0
 2071 000a FFF7FEFF 		bl	chSysLock
ARM GAS  C:\Users\Luis\AppData\Local\Temp\ccfBMJLd.s 			page 38


 2072              		.loc 9 617 0
 2073 000e 7868     		ldr	r0, [r7, #4]
 2074 0010 3968     		ldr	r1, [r7]
 2075 0012 FFF7FEFF 		bl	chThdResumeS
 2076              		.loc 9 618 0
 2077 0016 FFF7FEFF 		bl	chSysUnlock
 2078              		.loc 9 619 0
 2079 001a 0837     		adds	r7, r7, #8
 2080 001c BD46     		mov	sp, r7
 2081              		@ sp needed
 2082 001e 80BD     		pop	{r7, pc}
 2083              		.cfi_endproc
 2084              	.LFE247:
 2085              		.size	chThdResume, .-chThdResume
 2086              		.section	.text.chThdEnqueueTimeoutS,"ax",%progbits
 2087              		.align	2
 2088              		.p2align 4,,15
 2089              		.global	chThdEnqueueTimeoutS
 2090              		.thumb
 2091              		.thumb_func
 2092              		.type	chThdEnqueueTimeoutS, %function
 2093              	chThdEnqueueTimeoutS:
 2094              	.LFB248:
 2095              		.loc 9 644 0
 2096              		.cfi_startproc
 2097              		@ args = 0, pretend = 0, frame = 8
 2098              		@ frame_needed = 1, uses_anonymous_args = 0
 2099 0000 80B5     		push	{r7, lr}
 2100              		.cfi_def_cfa_offset 8
 2101              		.cfi_offset 7, -8
 2102              		.cfi_offset 14, -4
 2103 0002 82B0     		sub	sp, sp, #8
 2104              		.cfi_def_cfa_offset 16
 2105 0004 00AF     		add	r7, sp, #0
 2106              		.cfi_def_cfa_register 7
 2107 0006 7860     		str	r0, [r7, #4]
 2108 0008 3960     		str	r1, [r7]
 2109              		.loc 9 646 0
 2110 000a 3B68     		ldr	r3, [r7]
 2111 000c 002B     		cmp	r3, #0
 2112 000e 02D1     		bne	.L123
 2113              		.loc 9 647 0
 2114 0010 4FF0FF33 		mov	r3, #-1
 2115 0014 0AE0     		b	.L124
 2116              	.L123:
 2117              		.loc 9 650 0
 2118 0016 074B     		ldr	r3, .L125
 2119 0018 9B69     		ldr	r3, [r3, #24]
 2120 001a 1846     		mov	r0, r3
 2121 001c 7968     		ldr	r1, [r7, #4]
 2122 001e FFF7FEFF 		bl	queue_insert
 2123              		.loc 9 652 0
 2124 0022 0420     		movs	r0, #4
 2125 0024 3968     		ldr	r1, [r7]
 2126 0026 FFF7FEFF 		bl	chSchGoSleepTimeoutS
 2127 002a 0346     		mov	r3, r0
 2128              	.L124:
ARM GAS  C:\Users\Luis\AppData\Local\Temp\ccfBMJLd.s 			page 39


 2129              		.loc 9 653 0
 2130 002c 1846     		mov	r0, r3
 2131 002e 0837     		adds	r7, r7, #8
 2132 0030 BD46     		mov	sp, r7
 2133              		@ sp needed
 2134 0032 80BD     		pop	{r7, pc}
 2135              	.L126:
 2136              		.align	2
 2137              	.L125:
 2138 0034 00000000 		.word	ch
 2139              		.cfi_endproc
 2140              	.LFE248:
 2141              		.size	chThdEnqueueTimeoutS, .-chThdEnqueueTimeoutS
 2142 0038 AFF30080 		.section	.text.chThdDequeueNextI,"ax",%progbits
 2142      AFF30080 
 2143              		.align	2
 2144              		.p2align 4,,15
 2145              		.global	chThdDequeueNextI
 2146              		.thumb
 2147              		.thumb_func
 2148              		.type	chThdDequeueNextI, %function
 2149              	chThdDequeueNextI:
 2150              	.LFB249:
 2151              		.loc 9 664 0
 2152              		.cfi_startproc
 2153              		@ args = 0, pretend = 0, frame = 8
 2154              		@ frame_needed = 1, uses_anonymous_args = 0
 2155 0000 80B5     		push	{r7, lr}
 2156              		.cfi_def_cfa_offset 8
 2157              		.cfi_offset 7, -8
 2158              		.cfi_offset 14, -4
 2159 0002 82B0     		sub	sp, sp, #8
 2160              		.cfi_def_cfa_offset 16
 2161 0004 00AF     		add	r7, sp, #0
 2162              		.cfi_def_cfa_register 7
 2163 0006 7860     		str	r0, [r7, #4]
 2164 0008 3960     		str	r1, [r7]
 2165              		.loc 9 666 0
 2166 000a 7868     		ldr	r0, [r7, #4]
 2167 000c FFF7FEFF 		bl	queue_notempty
 2168 0010 0346     		mov	r3, r0
 2169 0012 002B     		cmp	r3, #0
 2170 0014 03D0     		beq	.L127
 2171              		.loc 9 667 0
 2172 0016 7868     		ldr	r0, [r7, #4]
 2173 0018 3968     		ldr	r1, [r7]
 2174 001a FFF7FEFF 		bl	chThdDoDequeueNextI
 2175              	.L127:
 2176              		.loc 9 669 0
 2177 001e 0837     		adds	r7, r7, #8
 2178 0020 BD46     		mov	sp, r7
 2179              		@ sp needed
 2180 0022 80BD     		pop	{r7, pc}
 2181              		.cfi_endproc
 2182              	.LFE249:
 2183              		.size	chThdDequeueNextI, .-chThdDequeueNextI
 2184 0024 AFF30080 		.section	.text.chThdDequeueAllI,"ax",%progbits
ARM GAS  C:\Users\Luis\AppData\Local\Temp\ccfBMJLd.s 			page 40


 2184      AFF30080 
 2184      AFF30080 
 2185              		.align	2
 2186              		.p2align 4,,15
 2187              		.global	chThdDequeueAllI
 2188              		.thumb
 2189              		.thumb_func
 2190              		.type	chThdDequeueAllI, %function
 2191              	chThdDequeueAllI:
 2192              	.LFB250:
 2193              		.loc 9 679 0
 2194              		.cfi_startproc
 2195              		@ args = 0, pretend = 0, frame = 8
 2196              		@ frame_needed = 1, uses_anonymous_args = 0
 2197 0000 80B5     		push	{r7, lr}
 2198              		.cfi_def_cfa_offset 8
 2199              		.cfi_offset 7, -8
 2200              		.cfi_offset 14, -4
 2201 0002 82B0     		sub	sp, sp, #8
 2202              		.cfi_def_cfa_offset 16
 2203 0004 00AF     		add	r7, sp, #0
 2204              		.cfi_def_cfa_register 7
 2205 0006 7860     		str	r0, [r7, #4]
 2206 0008 3960     		str	r1, [r7]
 2207              		.loc 9 681 0
 2208 000a 03E0     		b	.L130
 2209              	.L131:
 2210              		.loc 9 682 0
 2211 000c 7868     		ldr	r0, [r7, #4]
 2212 000e 3968     		ldr	r1, [r7]
 2213 0010 FFF7FEFF 		bl	chThdDoDequeueNextI
 2214              	.L130:
 2215              		.loc 9 681 0 discriminator 1
 2216 0014 7868     		ldr	r0, [r7, #4]
 2217 0016 FFF7FEFF 		bl	queue_notempty
 2218 001a 0346     		mov	r3, r0
 2219 001c 002B     		cmp	r3, #0
 2220 001e F5D1     		bne	.L131
 2221              		.loc 9 684 0
 2222 0020 0837     		adds	r7, r7, #8
 2223 0022 BD46     		mov	sp, r7
 2224              		@ sp needed
 2225 0024 80BD     		pop	{r7, pc}
 2226              		.cfi_endproc
 2227              	.LFE250:
 2228              		.size	chThdDequeueAllI, .-chThdDequeueAllI
 2229 0026 00BFAFF3 		.section	.rodata.__func__.6554,"a",%progbits
 2229      0080AFF3 
 2229      0080
 2230              		.align	2
 2231              		.type	__func__.6554, %object
 2232              		.size	__func__.6554, 13
 2233              	__func__.6554:
 2234 0000 63685468 		.ascii	"chThdCreateI\000"
 2234      64437265 
 2234      61746549 
 2234      00
ARM GAS  C:\Users\Luis\AppData\Local\Temp\ccfBMJLd.s 			page 41


 2235 000d 000000   		.section	.rodata.__func__.5842,"a",%progbits
 2236              		.align	2
 2237              		.type	__func__.5842, %object
 2238              		.size	__func__.5842, 12
 2239              	__func__.5842:
 2240 0000 63685379 		.ascii	"chSysUnlock\000"
 2240      73556E6C 
 2240      6F636B00 
 2241              		.section	.rodata.__func__.6009,"a",%progbits
 2242              		.align	2
 2243              		.type	__func__.6009, %object
 2244              		.size	__func__.6009, 12
 2245              	__func__.6009:
 2246 0000 63685468 		.ascii	"chThdStartI\000"
 2246      64537461 
 2246      72744900 
 2247              		.section	.rodata.__func__.6570,"a",%progbits
 2248              		.align	2
 2249              		.type	__func__.6570, %object
 2250              		.size	__func__.6570, 17
 2251              	__func__.6570:
 2252 0000 63685468 		.ascii	"chThdSetPriority\000"
 2252      64536574 
 2252      5072696F 
 2252      72697479 
 2252      00
 2253 0011 000000   		.section	.rodata.__func__.6013,"a",%progbits
 2254              		.align	2
 2255              		.type	__func__.6013, %object
 2256              		.size	__func__.6013, 12
 2257              	__func__.6013:
 2258 0000 63685468 		.ascii	"chThdSleepS\000"
 2258      64536C65 
 2258      65705300 
 2259              		.section	.rodata.__func__.6598,"a",%progbits
 2260              		.align	2
 2261              		.type	__func__.6598, %object
 2262              		.size	__func__.6598, 11
 2263              	__func__.6598:
 2264 0000 63685468 		.ascii	"chThdExitS\000"
 2264      64457869 
 2264      745300
 2265 000b 00       		.section	.rodata.__func__.6603,"a",%progbits
 2266              		.align	2
 2267              		.type	__func__.6603, %object
 2268              		.size	__func__.6603, 10
 2269              	__func__.6603:
 2270 0000 63685468 		.ascii	"chThdWait\000"
 2270      64576169 
 2270      7400
 2271 000a 0000     		.section	.rodata.__func__.6608,"a",%progbits
 2272              		.align	2
 2273              		.type	__func__.6608, %object
 2274              		.size	__func__.6608, 14
 2275              	__func__.6608:
 2276 0000 63685468 		.ascii	"chThdSuspendS\000"
 2276      64537573 
ARM GAS  C:\Users\Luis\AppData\Local\Temp\ccfBMJLd.s 			page 42


 2276      70656E64 
 2276      5300
 2277 000e 0000     		.section	.rodata.__func__.6614,"a",%progbits
 2278              		.align	2
 2279              		.type	__func__.6614, %object
 2280              		.size	__func__.6614, 21
 2281              	__func__.6614:
 2282 0000 63685468 		.ascii	"chThdSuspendTimeoutS\000"
 2282      64537573 
 2282      70656E64 
 2282      54696D65 
 2282      6F757453 
 2283 0015 000000   		.section	.rodata.__func__.6620,"a",%progbits
 2284              		.align	2
 2285              		.type	__func__.6620, %object
 2286              		.size	__func__.6620, 13
 2287              	__func__.6620:
 2288 0000 63685468 		.ascii	"chThdResumeI\000"
 2288      64526573 
 2288      756D6549 
 2288      00
 2289 000d 000000   		.section	.rodata.__func__.6626,"a",%progbits
 2290              		.align	2
 2291              		.type	__func__.6626, %object
 2292              		.size	__func__.6626, 13
 2293              	__func__.6626:
 2294 0000 63685468 		.ascii	"chThdResumeS\000"
 2294      64526573 
 2294      756D6553 
 2294      00
 2295 000d 000000   		.section	.rodata.__func__.6025,"a",%progbits
 2296              		.align	2
 2297              		.type	__func__.6025, %object
 2298              		.size	__func__.6025, 20
 2299              	__func__.6025:
 2300 0000 63685468 		.ascii	"chThdDoDequeueNextI\000"
 2300      64446F44 
 2300      65717565 
 2300      75654E65 
 2300      78744900 
 2301              		.text
 2302              	.Letext0:
 2303              		.file 10 "c:\\emtechesdk\\gcc\\lib\\gcc\\arm-none-eabi\\4.8.3\\include\\stddef.h"
 2304              		.file 11 "c:\\emtechesdk\\gcc\\arm-none-eabi\\include\\stdint.h"
 2305              		.file 12 "../../ChibiOS/os/rt/ports/ARMCMx/compilers/GCC/chtypes.h"
 2306              		.file 13 "../../ChibiOS/os/rt/include/chsystypes.h"
 2307              		.file 14 "../../ChibiOS/os/rt/ports/ARMCMx/chcore.h"
 2308              		.file 15 "../../ChibiOS/os/hal/ports/STM32/LLD/TIMv1/stm32_tim.h"
 2309              		.file 16 "../../ChibiOS/os/rt/include/chdebug.h"
 2310              		.file 17 "../../ChibiOS/os/rt/include/chtm.h"
 2311              		.file 18 "../../ChibiOS/os/rt/include/chstats.h"
 2312              		.file 19 "../../ChibiOS/os/rt/include/chsem.h"
 2313              		.file 20 "../../ChibiOS/os/rt/include/chmtx.h"
 2314              		.file 21 "../../ChibiOS/os/ext/CMSIS/include/core_cm4.h"