ARM GAS  C:\Users\Luis\AppData\Local\Temp\ccPMbtpJ.s 			page 1


   1              		.syntax unified
   2              		.cpu cortex-m4
   3              		.fpu softvfp
   4              		.eabi_attribute 20, 1
   5              		.eabi_attribute 21, 1
   6              		.eabi_attribute 23, 3
   7              		.eabi_attribute 24, 1
   8              		.eabi_attribute 25, 1
   9              		.eabi_attribute 26, 1
  10              		.eabi_attribute 30, 6
  11              		.eabi_attribute 34, 1
  12              		.eabi_attribute 18, 4
  13              		.thumb
  14              		.file	"chtm.c"
  15              		.text
  16              	.Ltext0:
  17              		.cfi_sections	.debug_frame
  18              		.section	.text.port_rt_get_counter_value,"ax",%progbits
  19              		.align	2
  20              		.p2align 4,,15
  21              		.thumb
  22              		.thumb_func
  23              		.type	port_rt_get_counter_value, %function
  24              	port_rt_get_counter_value:
  25              	.LFB124:
  26              		.file 1 "../../ChibiOS/os/rt/ports/ARMCMx/chcore_v7m.h"
  27              		.loc 1 546 0
  28              		.cfi_startproc
  29              		@ args = 0, pretend = 0, frame = 0
  30              		@ frame_needed = 1, uses_anonymous_args = 0
  31              		@ link register save eliminated.
  32 0000 80B4     		push	{r7}
  33              		.cfi_def_cfa_offset 4
  34              		.cfi_offset 7, -4
  35 0002 00AF     		add	r7, sp, #0
  36              		.cfi_def_cfa_register 7
  37              		.loc 1 548 0
  38 0004 034B     		ldr	r3, .L3
  39 0006 5B68     		ldr	r3, [r3, #4]
  40              		.loc 1 549 0
  41 0008 1846     		mov	r0, r3
  42 000a BD46     		mov	sp, r7
  43              		@ sp needed
  44 000c 5DF8047B 		ldr	r7, [sp], #4
  45 0010 7047     		bx	lr
  46              	.L4:
  47 0012 00BF     		.align	2
  48              	.L3:
  49 0014 001000E0 		.word	-536866816
  50              		.cfi_endproc
  51              	.LFE124:
  52              		.size	port_rt_get_counter_value, .-port_rt_get_counter_value
  53 0018 AFF30080 		.section	.text.tm_stop,"ax",%progbits
  53      AFF30080 
  54              		.align	2
  55              		.p2align 4,,15
  56              		.thumb
ARM GAS  C:\Users\Luis\AppData\Local\Temp\ccPMbtpJ.s 			page 2


  57              		.thumb_func
  58              		.type	tm_stop, %function
  59              	tm_stop:
  60              	.LFB229:
  61              		.file 2 "../../ChibiOS/os/rt/src/chtm.c"
  62              		.loc 2 55 0
  63              		.cfi_startproc
  64              		@ args = 0, pretend = 0, frame = 16
  65              		@ frame_needed = 1, uses_anonymous_args = 0
  66              		@ link register save eliminated.
  67 0000 80B4     		push	{r7}
  68              		.cfi_def_cfa_offset 4
  69              		.cfi_offset 7, -4
  70 0002 85B0     		sub	sp, sp, #20
  71              		.cfi_def_cfa_offset 24
  72 0004 00AF     		add	r7, sp, #0
  73              		.cfi_def_cfa_register 7
  74 0006 F860     		str	r0, [r7, #12]
  75 0008 B960     		str	r1, [r7, #8]
  76 000a 7A60     		str	r2, [r7, #4]
  77              		.loc 2 57 0
  78 000c FB68     		ldr	r3, [r7, #12]
  79 000e DB68     		ldr	r3, [r3, #12]
  80 0010 5A1C     		adds	r2, r3, #1
  81 0012 FB68     		ldr	r3, [r7, #12]
  82 0014 DA60     		str	r2, [r3, #12]
  83              		.loc 2 58 0
  84 0016 FB68     		ldr	r3, [r7, #12]
  85 0018 9B68     		ldr	r3, [r3, #8]
  86 001a BA68     		ldr	r2, [r7, #8]
  87 001c D21A     		subs	r2, r2, r3
  88 001e 7B68     		ldr	r3, [r7, #4]
  89 0020 D21A     		subs	r2, r2, r3
  90 0022 FB68     		ldr	r3, [r7, #12]
  91 0024 9A60     		str	r2, [r3, #8]
  92              		.loc 2 59 0
  93 0026 FB68     		ldr	r3, [r7, #12]
  94 0028 D3E90401 		ldrd	r0, [r3, #16]
  95 002c FB68     		ldr	r3, [r7, #12]
  96 002e 9B68     		ldr	r3, [r3, #8]
  97 0030 1A46     		mov	r2, r3
  98 0032 4FF00003 		mov	r3, #0
  99 0036 1218     		adds	r2, r2, r0
 100 0038 43EB0103 		adc	r3, r3, r1
 101 003c F968     		ldr	r1, [r7, #12]
 102 003e C1E90423 		strd	r2, [r1, #16]
 103              		.loc 2 61 0
 104 0042 FB68     		ldr	r3, [r7, #12]
 105 0044 9A68     		ldr	r2, [r3, #8]
 106 0046 FB68     		ldr	r3, [r7, #12]
 107 0048 5B68     		ldr	r3, [r3, #4]
 108 004a 9A42     		cmp	r2, r3
 109 004c 04D9     		bls	.L6
 110              		.loc 2 62 0
 111 004e FB68     		ldr	r3, [r7, #12]
 112 0050 9A68     		ldr	r2, [r3, #8]
 113 0052 FB68     		ldr	r3, [r7, #12]
ARM GAS  C:\Users\Luis\AppData\Local\Temp\ccPMbtpJ.s 			page 3


 114 0054 5A60     		str	r2, [r3, #4]
 115 0056 09E0     		b	.L5
 116              	.L6:
 117              		.loc 2 64 0
 118 0058 FB68     		ldr	r3, [r7, #12]
 119 005a 9A68     		ldr	r2, [r3, #8]
 120 005c FB68     		ldr	r3, [r7, #12]
 121 005e 1B68     		ldr	r3, [r3]
 122 0060 9A42     		cmp	r2, r3
 123 0062 03D2     		bcs	.L5
 124              		.loc 2 65 0
 125 0064 FB68     		ldr	r3, [r7, #12]
 126 0066 9A68     		ldr	r2, [r3, #8]
 127 0068 FB68     		ldr	r3, [r7, #12]
 128 006a 1A60     		str	r2, [r3]
 129              	.L5:
 130              		.loc 2 68 0
 131 006c 1437     		adds	r7, r7, #20
 132 006e BD46     		mov	sp, r7
 133              		@ sp needed
 134 0070 5DF8047B 		ldr	r7, [sp], #4
 135 0074 7047     		bx	lr
 136              		.cfi_endproc
 137              	.LFE229:
 138              		.size	tm_stop, .-tm_stop
 139 0076 00BFAFF3 		.section	.text._tm_init,"ax",%progbits
 139      0080AFF3 
 139      0080
 140              		.align	2
 141              		.p2align 4,,15
 142              		.global	_tm_init
 143              		.thumb
 144              		.thumb_func
 145              		.type	_tm_init, %function
 146              	_tm_init:
 147              	.LFB230:
 148              		.loc 2 79 0
 149              		.cfi_startproc
 150              		@ args = 0, pretend = 0, frame = 24
 151              		@ frame_needed = 1, uses_anonymous_args = 0
 152 0000 80B5     		push	{r7, lr}
 153              		.cfi_def_cfa_offset 8
 154              		.cfi_offset 7, -8
 155              		.cfi_offset 14, -4
 156 0002 86B0     		sub	sp, sp, #24
 157              		.cfi_def_cfa_offset 32
 158 0004 00AF     		add	r7, sp, #0
 159              		.cfi_def_cfa_register 7
 160              		.loc 2 85 0
 161 0006 0B4B     		ldr	r3, .L9
 162 0008 0022     		movs	r2, #0
 163 000a C3F8A824 		str	r2, [r3, #1192]
 164              		.loc 2 86 0
 165 000e 3B46     		mov	r3, r7
 166 0010 1846     		mov	r0, r3
 167 0012 FFF7FEFF 		bl	chTMObjectInit
 168              		.loc 2 87 0
ARM GAS  C:\Users\Luis\AppData\Local\Temp\ccPMbtpJ.s 			page 4


 169 0016 3B46     		mov	r3, r7
 170 0018 1846     		mov	r0, r3
 171 001a FFF7FEFF 		bl	chTMStartMeasurementX
 172              		.loc 2 88 0
 173 001e 3B46     		mov	r3, r7
 174 0020 1846     		mov	r0, r3
 175 0022 FFF7FEFF 		bl	chTMStopMeasurementX
 176              		.loc 2 89 0
 177 0026 BA68     		ldr	r2, [r7, #8]
 178 0028 024B     		ldr	r3, .L9
 179 002a C3F8A824 		str	r2, [r3, #1192]
 180              		.loc 2 90 0
 181 002e 1837     		adds	r7, r7, #24
 182 0030 BD46     		mov	sp, r7
 183              		@ sp needed
 184 0032 80BD     		pop	{r7, pc}
 185              	.L10:
 186              		.align	2
 187              	.L9:
 188 0034 00000000 		.word	ch
 189              		.cfi_endproc
 190              	.LFE230:
 191              		.size	_tm_init, .-_tm_init
 192 0038 AFF30080 		.section	.text.chTMObjectInit,"ax",%progbits
 192      AFF30080 
 193              		.align	2
 194              		.p2align 4,,15
 195              		.global	chTMObjectInit
 196              		.thumb
 197              		.thumb_func
 198              		.type	chTMObjectInit, %function
 199              	chTMObjectInit:
 200              	.LFB231:
 201              		.loc 2 99 0
 202              		.cfi_startproc
 203              		@ args = 0, pretend = 0, frame = 8
 204              		@ frame_needed = 1, uses_anonymous_args = 0
 205              		@ link register save eliminated.
 206 0000 80B4     		push	{r7}
 207              		.cfi_def_cfa_offset 4
 208              		.cfi_offset 7, -4
 209 0002 83B0     		sub	sp, sp, #12
 210              		.cfi_def_cfa_offset 16
 211 0004 00AF     		add	r7, sp, #0
 212              		.cfi_def_cfa_register 7
 213 0006 7860     		str	r0, [r7, #4]
 214              		.loc 2 101 0
 215 0008 7B68     		ldr	r3, [r7, #4]
 216 000a 4FF0FF32 		mov	r2, #-1
 217 000e 1A60     		str	r2, [r3]
 218              		.loc 2 102 0
 219 0010 7B68     		ldr	r3, [r7, #4]
 220 0012 0022     		movs	r2, #0
 221 0014 5A60     		str	r2, [r3, #4]
 222              		.loc 2 103 0
 223 0016 7B68     		ldr	r3, [r7, #4]
 224 0018 0022     		movs	r2, #0
ARM GAS  C:\Users\Luis\AppData\Local\Temp\ccPMbtpJ.s 			page 5


 225 001a 9A60     		str	r2, [r3, #8]
 226              		.loc 2 104 0
 227 001c 7B68     		ldr	r3, [r7, #4]
 228 001e 0022     		movs	r2, #0
 229 0020 DA60     		str	r2, [r3, #12]
 230              		.loc 2 105 0
 231 0022 7968     		ldr	r1, [r7, #4]
 232 0024 4FF00002 		mov	r2, #0
 233 0028 4FF00003 		mov	r3, #0
 234 002c C1E90423 		strd	r2, [r1, #16]
 235              		.loc 2 106 0
 236 0030 0C37     		adds	r7, r7, #12
 237 0032 BD46     		mov	sp, r7
 238              		@ sp needed
 239 0034 5DF8047B 		ldr	r7, [sp], #4
 240 0038 7047     		bx	lr
 241              		.cfi_endproc
 242              	.LFE231:
 243              		.size	chTMObjectInit, .-chTMObjectInit
 244 003a 00BFAFF3 		.section	.text.chTMStartMeasurementX,"ax",%progbits
 244      0080
 245              		.align	2
 246              		.p2align 4,,15
 247              		.global	chTMStartMeasurementX
 248              		.thumb
 249              		.thumb_func
 250              		.type	chTMStartMeasurementX, %function
 251              	chTMStartMeasurementX:
 252              	.LFB232:
 253              		.loc 2 116 0
 254              		.cfi_startproc
 255              		@ args = 0, pretend = 0, frame = 8
 256              		@ frame_needed = 1, uses_anonymous_args = 0
 257 0000 80B5     		push	{r7, lr}
 258              		.cfi_def_cfa_offset 8
 259              		.cfi_offset 7, -8
 260              		.cfi_offset 14, -4
 261 0002 82B0     		sub	sp, sp, #8
 262              		.cfi_def_cfa_offset 16
 263 0004 00AF     		add	r7, sp, #0
 264              		.cfi_def_cfa_register 7
 265 0006 7860     		str	r0, [r7, #4]
 266              		.loc 2 118 0
 267 0008 FFF7FEFF 		bl	port_rt_get_counter_value
 268 000c 0246     		mov	r2, r0
 269 000e 7B68     		ldr	r3, [r7, #4]
 270 0010 9A60     		str	r2, [r3, #8]
 271              		.loc 2 119 0
 272 0012 0837     		adds	r7, r7, #8
 273 0014 BD46     		mov	sp, r7
 274              		@ sp needed
 275 0016 80BD     		pop	{r7, pc}
 276              		.cfi_endproc
 277              	.LFE232:
 278              		.size	chTMStartMeasurementX, .-chTMStartMeasurementX
 279 0018 AFF30080 		.section	.text.chTMStopMeasurementX,"ax",%progbits
 279      AFF30080 
ARM GAS  C:\Users\Luis\AppData\Local\Temp\ccPMbtpJ.s 			page 6


 280              		.align	2
 281              		.p2align 4,,15
 282              		.global	chTMStopMeasurementX
 283              		.thumb
 284              		.thumb_func
 285              		.type	chTMStopMeasurementX, %function
 286              	chTMStopMeasurementX:
 287              	.LFB233:
 288              		.loc 2 129 0
 289              		.cfi_startproc
 290              		@ args = 0, pretend = 0, frame = 8
 291              		@ frame_needed = 1, uses_anonymous_args = 0
 292 0000 80B5     		push	{r7, lr}
 293              		.cfi_def_cfa_offset 8
 294              		.cfi_offset 7, -8
 295              		.cfi_offset 14, -4
 296 0002 82B0     		sub	sp, sp, #8
 297              		.cfi_def_cfa_offset 16
 298 0004 00AF     		add	r7, sp, #0
 299              		.cfi_def_cfa_register 7
 300 0006 7860     		str	r0, [r7, #4]
 301              		.loc 2 131 0
 302 0008 FFF7FEFF 		bl	port_rt_get_counter_value
 303 000c 0246     		mov	r2, r0
 304 000e 054B     		ldr	r3, .L14
 305 0010 D3F8A834 		ldr	r3, [r3, #1192]
 306 0014 7868     		ldr	r0, [r7, #4]
 307 0016 1146     		mov	r1, r2
 308 0018 1A46     		mov	r2, r3
 309 001a FFF7FEFF 		bl	tm_stop
 310              		.loc 2 132 0
 311 001e 0837     		adds	r7, r7, #8
 312 0020 BD46     		mov	sp, r7
 313              		@ sp needed
 314 0022 80BD     		pop	{r7, pc}
 315              	.L15:
 316              		.align	2
 317              	.L14:
 318 0024 00000000 		.word	ch
 319              		.cfi_endproc
 320              	.LFE233:
 321              		.size	chTMStopMeasurementX, .-chTMStopMeasurementX
 322 0028 AFF30080 		.section	.text.chTMChainMeasurementToX,"ax",%progbits
 322      AFF30080 
 323              		.align	2
 324              		.p2align 4,,15
 325              		.global	chTMChainMeasurementToX
 326              		.thumb
 327              		.thumb_func
 328              		.type	chTMChainMeasurementToX, %function
 329              	chTMChainMeasurementToX:
 330              	.LFB234:
 331              		.loc 2 147 0
 332              		.cfi_startproc
 333              		@ args = 0, pretend = 0, frame = 8
 334              		@ frame_needed = 1, uses_anonymous_args = 0
 335 0000 80B5     		push	{r7, lr}
ARM GAS  C:\Users\Luis\AppData\Local\Temp\ccPMbtpJ.s 			page 7


 336              		.cfi_def_cfa_offset 8
 337              		.cfi_offset 7, -8
 338              		.cfi_offset 14, -4
 339 0002 82B0     		sub	sp, sp, #8
 340              		.cfi_def_cfa_offset 16
 341 0004 00AF     		add	r7, sp, #0
 342              		.cfi_def_cfa_register 7
 343 0006 7860     		str	r0, [r7, #4]
 344 0008 3960     		str	r1, [r7]
 345              		.loc 2 150 0
 346 000a FFF7FEFF 		bl	port_rt_get_counter_value
 347 000e 0246     		mov	r2, r0
 348 0010 3B68     		ldr	r3, [r7]
 349 0012 9A60     		str	r2, [r3, #8]
 350              		.loc 2 153 0
 351 0014 3B68     		ldr	r3, [r7]
 352 0016 9B68     		ldr	r3, [r3, #8]
 353 0018 7868     		ldr	r0, [r7, #4]
 354 001a 1946     		mov	r1, r3
 355 001c 0022     		movs	r2, #0
 356 001e FFF7FEFF 		bl	tm_stop
 357              		.loc 2 154 0
 358 0022 0837     		adds	r7, r7, #8
 359 0024 BD46     		mov	sp, r7
 360              		@ sp needed
 361 0026 80BD     		pop	{r7, pc}
 362              		.cfi_endproc
 363              	.LFE234:
 364              		.size	chTMChainMeasurementToX, .-chTMChainMeasurementToX
 365 0028 AFF30080 		.text
 365      AFF30080 
 366              	.Letext0:
 367              		.file 3 "c:\\emtechesdk\\gcc\\arm-none-eabi\\include\\stdint.h"
 368              		.file 4 "../../ChibiOS/os/rt/ports/ARMCMx/compilers/GCC/chtypes.h"
 369              		.file 5 "../../ChibiOS/os/rt/include/chsystypes.h"
 370              		.file 6 "../../ChibiOS/os/rt/include/chschd.h"
 371              		.file 7 "../../ChibiOS/os/ext/CMSIS/include/core_cm4.h"
 372              		.file 8 "../../ChibiOS/os/rt/ports/ARMCMx/chcore.h"
 373              		.file 9 "../../ChibiOS/os/rt/include/chdebug.h"
 374              		.file 10 "../../ChibiOS/os/rt/include/chtm.h"
 375              		.file 11 "../../ChibiOS/os/rt/include/chstats.h"
 376              		.file 12 "../../ChibiOS/os/rt/include/chsem.h"
 377              		.file 13 "../../ChibiOS/os/rt/include/chmtx.h"