ARM GAS  C:\Users\Luis\AppData\Local\Temp\cc4Tq2iV.s 			page 1


   1              		.syntax unified
   2              		.cpu cortex-m4
   3              		.fpu softvfp
   4              		.eabi_attribute 20, 1
   5              		.eabi_attribute 21, 1
   6              		.eabi_attribute 23, 3
   7              		.eabi_attribute 24, 1
   8              		.eabi_attribute 25, 1
   9              		.eabi_attribute 26, 1
  10              		.eabi_attribute 30, 6
  11              		.eabi_attribute 34, 1
  12              		.eabi_attribute 18, 4
  13              		.thumb
  14              		.file	"chvt.c"
  15              		.text
  16              	.Ltext0:
  17              		.cfi_sections	.debug_frame
  18              		.section	.text.st_lld_get_counter,"ax",%progbits
  19              		.align	2
  20              		.p2align 4,,15
  21              		.thumb
  22              		.thumb_func
  23              		.type	st_lld_get_counter, %function
  24              	st_lld_get_counter:
  25              	.LFB125:
  26              		.file 1 "../../ChibiOS/os/hal/ports/STM32/LLD/TIMv1/st_lld.h"
  27              		.loc 1 127 0
  28              		.cfi_startproc
  29              		@ args = 0, pretend = 0, frame = 0
  30              		@ frame_needed = 1, uses_anonymous_args = 0
  31              		@ link register save eliminated.
  32 0000 80B4     		push	{r7}
  33              		.cfi_def_cfa_offset 4
  34              		.cfi_offset 7, -4
  35 0002 00AF     		add	r7, sp, #0
  36              		.cfi_def_cfa_register 7
  37              		.loc 1 129 0
  38 0004 4FF08043 		mov	r3, #1073741824
  39 0008 5B6A     		ldr	r3, [r3, #36]
  40              		.loc 1 130 0
  41 000a 1846     		mov	r0, r3
  42 000c BD46     		mov	sp, r7
  43              		@ sp needed
  44 000e 5DF8047B 		ldr	r7, [sp], #4
  45 0012 7047     		bx	lr
  46              		.cfi_endproc
  47              	.LFE125:
  48              		.size	st_lld_get_counter, .-st_lld_get_counter
  49 0014 AFF30080 		.section	.text.port_timer_start_alarm,"ax",%progbits
  49      AFF30080 
  49      AFF30080 
  50              		.align	2
  51              		.p2align 4,,15
  52              		.thumb
  53              		.thumb_func
  54              		.type	port_timer_start_alarm, %function
  55              	port_timer_start_alarm:
ARM GAS  C:\Users\Luis\AppData\Local\Temp\cc4Tq2iV.s 			page 2


  56              	.LFB131:
  57              		.file 2 "../../ChibiOS/os/rt/ports/ARMCMx/chcore_timer.h"
  58              		.loc 2 71 0
  59              		.cfi_startproc
  60              		@ args = 0, pretend = 0, frame = 8
  61              		@ frame_needed = 1, uses_anonymous_args = 0
  62 0000 80B5     		push	{r7, lr}
  63              		.cfi_def_cfa_offset 8
  64              		.cfi_offset 7, -8
  65              		.cfi_offset 14, -4
  66 0002 82B0     		sub	sp, sp, #8
  67              		.cfi_def_cfa_offset 16
  68 0004 00AF     		add	r7, sp, #0
  69              		.cfi_def_cfa_register 7
  70 0006 7860     		str	r0, [r7, #4]
  71              		.loc 2 73 0
  72 0008 7868     		ldr	r0, [r7, #4]
  73 000a FFF7FEFF 		bl	stStartAlarm
  74              		.loc 2 74 0
  75 000e 0837     		adds	r7, r7, #8
  76 0010 BD46     		mov	sp, r7
  77              		@ sp needed
  78 0012 80BD     		pop	{r7, pc}
  79              		.cfi_endproc
  80              	.LFE131:
  81              		.size	port_timer_start_alarm, .-port_timer_start_alarm
  82 0014 AFF30080 		.section	.text.port_timer_stop_alarm,"ax",%progbits
  82      AFF30080 
  82      AFF30080 
  83              		.align	2
  84              		.p2align 4,,15
  85              		.thumb
  86              		.thumb_func
  87              		.type	port_timer_stop_alarm, %function
  88              	port_timer_stop_alarm:
  89              	.LFB132:
  90              		.loc 2 81 0
  91              		.cfi_startproc
  92              		@ args = 0, pretend = 0, frame = 0
  93              		@ frame_needed = 1, uses_anonymous_args = 0
  94 0000 80B5     		push	{r7, lr}
  95              		.cfi_def_cfa_offset 8
  96              		.cfi_offset 7, -8
  97              		.cfi_offset 14, -4
  98 0002 00AF     		add	r7, sp, #0
  99              		.cfi_def_cfa_register 7
 100              		.loc 2 83 0
 101 0004 FFF7FEFF 		bl	stStopAlarm
 102              		.loc 2 84 0
 103 0008 80BD     		pop	{r7, pc}
 104              		.cfi_endproc
 105              	.LFE132:
 106              		.size	port_timer_stop_alarm, .-port_timer_stop_alarm
 107 000a 00BFAFF3 		.section	.text.port_timer_set_alarm,"ax",%progbits
 107      0080
 108              		.align	2
 109              		.p2align 4,,15
ARM GAS  C:\Users\Luis\AppData\Local\Temp\cc4Tq2iV.s 			page 3


 110              		.thumb
 111              		.thumb_func
 112              		.type	port_timer_set_alarm, %function
 113              	port_timer_set_alarm:
 114              	.LFB133:
 115              		.loc 2 93 0
 116              		.cfi_startproc
 117              		@ args = 0, pretend = 0, frame = 8
 118              		@ frame_needed = 1, uses_anonymous_args = 0
 119 0000 80B5     		push	{r7, lr}
 120              		.cfi_def_cfa_offset 8
 121              		.cfi_offset 7, -8
 122              		.cfi_offset 14, -4
 123 0002 82B0     		sub	sp, sp, #8
 124              		.cfi_def_cfa_offset 16
 125 0004 00AF     		add	r7, sp, #0
 126              		.cfi_def_cfa_register 7
 127 0006 7860     		str	r0, [r7, #4]
 128              		.loc 2 95 0
 129 0008 7868     		ldr	r0, [r7, #4]
 130 000a FFF7FEFF 		bl	stSetAlarm
 131              		.loc 2 96 0
 132 000e 0837     		adds	r7, r7, #8
 133 0010 BD46     		mov	sp, r7
 134              		@ sp needed
 135 0012 80BD     		pop	{r7, pc}
 136              		.cfi_endproc
 137              	.LFE133:
 138              		.size	port_timer_set_alarm, .-port_timer_set_alarm
 139 0014 AFF30080 		.section	.text.port_timer_get_time,"ax",%progbits
 139      AFF30080 
 139      AFF30080 
 140              		.align	2
 141              		.p2align 4,,15
 142              		.thumb
 143              		.thumb_func
 144              		.type	port_timer_get_time, %function
 145              	port_timer_get_time:
 146              	.LFB134:
 147              		.loc 2 105 0
 148              		.cfi_startproc
 149              		@ args = 0, pretend = 0, frame = 0
 150              		@ frame_needed = 1, uses_anonymous_args = 0
 151 0000 80B5     		push	{r7, lr}
 152              		.cfi_def_cfa_offset 8
 153              		.cfi_offset 7, -8
 154              		.cfi_offset 14, -4
 155 0002 00AF     		add	r7, sp, #0
 156              		.cfi_def_cfa_register 7
 157              		.loc 2 107 0
 158 0004 FFF7FEFF 		bl	st_lld_get_counter
 159 0008 0346     		mov	r3, r0
 160              		.loc 2 108 0
 161 000a 1846     		mov	r0, r3
 162 000c 80BD     		pop	{r7, pc}
 163              		.cfi_endproc
 164              	.LFE134:
ARM GAS  C:\Users\Luis\AppData\Local\Temp\cc4Tq2iV.s 			page 4


 165              		.size	port_timer_get_time, .-port_timer_get_time
 166 000e 00BF     		.section	.text.chVTGetSystemTimeX,"ax",%progbits
 167              		.align	2
 168              		.p2align 4,,15
 169              		.thumb
 170              		.thumb_func
 171              		.type	chVTGetSystemTimeX, %function
 172              	chVTGetSystemTimeX:
 173              	.LFB164:
 174              		.file 3 "../../ChibiOS/os/rt/include/chvt.h"
 175              		.loc 3 228 0
 176              		.cfi_startproc
 177              		@ args = 0, pretend = 0, frame = 0
 178              		@ frame_needed = 1, uses_anonymous_args = 0
 179 0000 80B5     		push	{r7, lr}
 180              		.cfi_def_cfa_offset 8
 181              		.cfi_offset 7, -8
 182              		.cfi_offset 14, -4
 183 0002 00AF     		add	r7, sp, #0
 184              		.cfi_def_cfa_register 7
 185              		.loc 3 233 0
 186 0004 FFF7FEFF 		bl	port_timer_get_time
 187 0008 0346     		mov	r3, r0
 188              		.loc 3 235 0
 189 000a 1846     		mov	r0, r3
 190 000c 80BD     		pop	{r7, pc}
 191              		.cfi_endproc
 192              	.LFE164:
 193              		.size	chVTGetSystemTimeX, .-chVTGetSystemTimeX
 194 000e 00BF     		.section	.text._vt_init,"ax",%progbits
 195              		.align	2
 196              		.p2align 4,,15
 197              		.global	_vt_init
 198              		.thumb
 199              		.thumb_func
 200              		.type	_vt_init, %function
 201              	_vt_init:
 202              	.LFB229:
 203              		.file 4 "../../ChibiOS/os/rt/src/chvt.c"
 204              		.loc 4 61 0
 205              		.cfi_startproc
 206              		@ args = 0, pretend = 0, frame = 0
 207              		@ frame_needed = 1, uses_anonymous_args = 0
 208              		@ link register save eliminated.
 209 0000 80B4     		push	{r7}
 210              		.cfi_def_cfa_offset 4
 211              		.cfi_offset 7, -4
 212 0002 00AF     		add	r7, sp, #0
 213              		.cfi_def_cfa_register 7
 214              		.loc 4 63 0
 215 0004 084B     		ldr	r3, .L11
 216 0006 094A     		ldr	r2, .L11+4
 217 0008 DA61     		str	r2, [r3, #28]
 218              		.loc 4 64 0
 219 000a 074B     		ldr	r3, .L11
 220 000c 074A     		ldr	r2, .L11+4
 221 000e 1A62     		str	r2, [r3, #32]
ARM GAS  C:\Users\Luis\AppData\Local\Temp\cc4Tq2iV.s 			page 5


 222              		.loc 4 65 0
 223 0010 054B     		ldr	r3, .L11
 224 0012 4FF0FF32 		mov	r2, #-1
 225 0016 5A62     		str	r2, [r3, #36]
 226              		.loc 4 69 0
 227 0018 034B     		ldr	r3, .L11
 228 001a 0022     		movs	r2, #0
 229 001c 9A62     		str	r2, [r3, #40]
 230              		.loc 4 71 0
 231 001e BD46     		mov	sp, r7
 232              		@ sp needed
 233 0020 5DF8047B 		ldr	r7, [sp], #4
 234 0024 7047     		bx	lr
 235              	.L12:
 236 0026 00BF     		.align	2
 237              	.L11:
 238 0028 00000000 		.word	ch
 239 002c 1C000000 		.word	ch+28
 240              		.cfi_endproc
 241              	.LFE229:
 242              		.size	_vt_init, .-_vt_init
 243              		.section	.text.chVTDoSetI,"ax",%progbits
 244              		.align	2
 245              		.p2align 4,,15
 246              		.global	chVTDoSetI
 247              		.thumb
 248              		.thumb_func
 249              		.type	chVTDoSetI, %function
 250              	chVTDoSetI:
 251              	.LFB230:
 252              		.loc 4 96 0
 253              		.cfi_startproc
 254              		@ args = 0, pretend = 0, frame = 32
 255              		@ frame_needed = 1, uses_anonymous_args = 0
 256 0000 80B5     		push	{r7, lr}
 257              		.cfi_def_cfa_offset 8
 258              		.cfi_offset 7, -8
 259              		.cfi_offset 14, -4
 260 0002 88B0     		sub	sp, sp, #32
 261              		.cfi_def_cfa_offset 40
 262 0004 00AF     		add	r7, sp, #0
 263              		.cfi_def_cfa_register 7
 264 0006 F860     		str	r0, [r7, #12]
 265 0008 B960     		str	r1, [r7, #8]
 266 000a 7A60     		str	r2, [r7, #4]
 267 000c 3B60     		str	r3, [r7]
 268              		.loc 4 100 0
 269 000e FFF7FEFF 		bl	chDbgCheckClassI
 270              		.loc 4 101 0
 271 0012 FB68     		ldr	r3, [r7, #12]
 272 0014 002B     		cmp	r3, #0
 273 0016 05D0     		beq	.L14
 274              		.loc 4 101 0 is_stmt 0 discriminator 2
 275 0018 7B68     		ldr	r3, [r7, #4]
 276 001a 002B     		cmp	r3, #0
 277 001c 02D0     		beq	.L14
 278              		.loc 4 101 0 discriminator 1
ARM GAS  C:\Users\Luis\AppData\Local\Temp\cc4Tq2iV.s 			page 6


 279 001e BB68     		ldr	r3, [r7, #8]
 280 0020 002B     		cmp	r3, #0
 281 0022 02D1     		bne	.L15
 282              	.L14:
 283 0024 3948     		ldr	r0, .L22
 284 0026 FFF7FEFF 		bl	chSysHalt
 285              	.L15:
 286              		.loc 4 103 0 is_stmt 1
 287 002a FB68     		ldr	r3, [r7, #12]
 288 002c 3A68     		ldr	r2, [r7]
 289 002e 1A61     		str	r2, [r3, #16]
 290              		.loc 4 104 0
 291 0030 FB68     		ldr	r3, [r7, #12]
 292 0032 7A68     		ldr	r2, [r7, #4]
 293 0034 DA60     		str	r2, [r3, #12]
 294              	.LBB2:
 295              		.loc 4 108 0
 296 0036 FFF7FEFF 		bl	chVTGetSystemTimeX
 297 003a 7861     		str	r0, [r7, #20]
 298              		.loc 4 112 0
 299 003c BB68     		ldr	r3, [r7, #8]
 300 003e 012B     		cmp	r3, #1
 301 0040 01D8     		bhi	.L16
 302              		.loc 4 113 0
 303 0042 0223     		movs	r3, #2
 304 0044 BB60     		str	r3, [r7, #8]
 305              	.L16:
 306              		.loc 4 117 0
 307 0046 324B     		ldr	r3, .L22+4
 308 0048 DA69     		ldr	r2, [r3, #28]
 309 004a 324B     		ldr	r3, .L22+8
 310 004c 9A42     		cmp	r2, r3
 311 004e 19D1     		bne	.L17
 312              		.loc 4 121 0
 313 0050 2F4B     		ldr	r3, .L22+4
 314 0052 7A69     		ldr	r2, [r7, #20]
 315 0054 9A62     		str	r2, [r3, #40]
 316              		.loc 4 122 0
 317 0056 2E4B     		ldr	r3, .L22+4
 318 0058 FA68     		ldr	r2, [r7, #12]
 319 005a DA61     		str	r2, [r3, #28]
 320              		.loc 4 123 0
 321 005c 2C4B     		ldr	r3, .L22+4
 322 005e FA68     		ldr	r2, [r7, #12]
 323 0060 1A62     		str	r2, [r3, #32]
 324              		.loc 4 124 0
 325 0062 FB68     		ldr	r3, [r7, #12]
 326 0064 2B4A     		ldr	r2, .L22+8
 327 0066 1A60     		str	r2, [r3]
 328              		.loc 4 125 0
 329 0068 FB68     		ldr	r3, [r7, #12]
 330 006a 2A4A     		ldr	r2, .L22+8
 331 006c 5A60     		str	r2, [r3, #4]
 332              		.loc 4 126 0
 333 006e FB68     		ldr	r3, [r7, #12]
 334 0070 BA68     		ldr	r2, [r7, #8]
 335 0072 9A60     		str	r2, [r3, #8]
ARM GAS  C:\Users\Luis\AppData\Local\Temp\cc4Tq2iV.s 			page 7


 336              		.loc 4 129 0
 337 0074 264B     		ldr	r3, .L22+4
 338 0076 9A6A     		ldr	r2, [r3, #40]
 339 0078 BB68     		ldr	r3, [r7, #8]
 340 007a 1344     		add	r3, r3, r2
 341 007c 1846     		mov	r0, r3
 342 007e FFF7FEFF 		bl	port_timer_start_alarm
 343              		.loc 4 131 0
 344 0082 40E0     		b	.L13
 345              	.L17:
 346              		.loc 4 136 0
 347 0084 7A69     		ldr	r2, [r7, #20]
 348 0086 BB68     		ldr	r3, [r7, #8]
 349 0088 1A44     		add	r2, r2, r3
 350 008a 214B     		ldr	r3, .L22+4
 351 008c 9B6A     		ldr	r3, [r3, #40]
 352 008e D31A     		subs	r3, r2, r3
 353 0090 BB61     		str	r3, [r7, #24]
 354              		.loc 4 137 0
 355 0092 1F4B     		ldr	r3, .L22+4
 356 0094 DB69     		ldr	r3, [r3, #28]
 357 0096 9A68     		ldr	r2, [r3, #8]
 358 0098 BB69     		ldr	r3, [r7, #24]
 359 009a 9A42     		cmp	r2, r3
 360 009c 06D9     		bls	.L19
 361              		.loc 4 140 0
 362 009e 1C4B     		ldr	r3, .L22+4
 363 00a0 9A6A     		ldr	r2, [r3, #40]
 364 00a2 BB69     		ldr	r3, [r7, #24]
 365 00a4 1344     		add	r3, r3, r2
 366 00a6 1846     		mov	r0, r3
 367 00a8 FFF7FEFF 		bl	port_timer_set_alarm
 368              	.L19:
 369              	.LBE2:
 370              		.loc 4 150 0
 371 00ac 184B     		ldr	r3, .L22+4
 372 00ae DB69     		ldr	r3, [r3, #28]
 373 00b0 FB61     		str	r3, [r7, #28]
 374              		.loc 4 151 0
 375 00b2 07E0     		b	.L20
 376              	.L21:
 377              		.loc 4 152 0
 378 00b4 FB69     		ldr	r3, [r7, #28]
 379 00b6 9B68     		ldr	r3, [r3, #8]
 380 00b8 BA69     		ldr	r2, [r7, #24]
 381 00ba D31A     		subs	r3, r2, r3
 382 00bc BB61     		str	r3, [r7, #24]
 383              		.loc 4 153 0
 384 00be FB69     		ldr	r3, [r7, #28]
 385 00c0 1B68     		ldr	r3, [r3]
 386 00c2 FB61     		str	r3, [r7, #28]
 387              	.L20:
 388              		.loc 4 151 0 discriminator 1
 389 00c4 FB69     		ldr	r3, [r7, #28]
 390 00c6 9A68     		ldr	r2, [r3, #8]
 391 00c8 BB69     		ldr	r3, [r7, #24]
 392 00ca 9A42     		cmp	r2, r3
ARM GAS  C:\Users\Luis\AppData\Local\Temp\cc4Tq2iV.s 			page 8


 393 00cc F2D3     		bcc	.L21
 394              		.loc 4 157 0
 395 00ce FB68     		ldr	r3, [r7, #12]
 396 00d0 FA69     		ldr	r2, [r7, #28]
 397 00d2 1A60     		str	r2, [r3]
 398              		.loc 4 158 0
 399 00d4 FB68     		ldr	r3, [r7, #12]
 400 00d6 1B68     		ldr	r3, [r3]
 401 00d8 5A68     		ldr	r2, [r3, #4]
 402 00da FB68     		ldr	r3, [r7, #12]
 403 00dc 5A60     		str	r2, [r3, #4]
 404              		.loc 4 159 0
 405 00de FB68     		ldr	r3, [r7, #12]
 406 00e0 5B68     		ldr	r3, [r3, #4]
 407 00e2 FA68     		ldr	r2, [r7, #12]
 408 00e4 1A60     		str	r2, [r3]
 409              		.loc 4 160 0
 410 00e6 FB69     		ldr	r3, [r7, #28]
 411 00e8 FA68     		ldr	r2, [r7, #12]
 412 00ea 5A60     		str	r2, [r3, #4]
 413              		.loc 4 161 0
 414 00ec FB68     		ldr	r3, [r7, #12]
 415 00ee BA69     		ldr	r2, [r7, #24]
 416 00f0 9A60     		str	r2, [r3, #8]
 417              		.loc 4 165 0
 418 00f2 FB69     		ldr	r3, [r7, #28]
 419 00f4 9A68     		ldr	r2, [r3, #8]
 420 00f6 BB69     		ldr	r3, [r7, #24]
 421 00f8 D21A     		subs	r2, r2, r3
 422 00fa FB69     		ldr	r3, [r7, #28]
 423 00fc 9A60     		str	r2, [r3, #8]
 424              		.loc 4 166 0
 425 00fe 044B     		ldr	r3, .L22+4
 426 0100 4FF0FF32 		mov	r2, #-1
 427 0104 5A62     		str	r2, [r3, #36]
 428              	.L13:
 429              		.loc 4 167 0
 430 0106 2037     		adds	r7, r7, #32
 431 0108 BD46     		mov	sp, r7
 432              		@ sp needed
 433 010a 80BD     		pop	{r7, pc}
 434              	.L23:
 435              		.align	2
 436              	.L22:
 437 010c 00000000 		.word	__func__.6545
 438 0110 00000000 		.word	ch
 439 0114 1C000000 		.word	ch+28
 440              		.cfi_endproc
 441              	.LFE230:
 442              		.size	chVTDoSetI, .-chVTDoSetI
 443 0118 AFF30080 		.section	.text.chVTDoResetI,"ax",%progbits
 443      AFF30080 
 444              		.align	2
 445              		.p2align 4,,15
 446              		.global	chVTDoResetI
 447              		.thumb
 448              		.thumb_func
ARM GAS  C:\Users\Luis\AppData\Local\Temp\cc4Tq2iV.s 			page 9


 449              		.type	chVTDoResetI, %function
 450              	chVTDoResetI:
 451              	.LFB231:
 452              		.loc 4 177 0
 453              		.cfi_startproc
 454              		@ args = 0, pretend = 0, frame = 16
 455              		@ frame_needed = 1, uses_anonymous_args = 0
 456 0000 80B5     		push	{r7, lr}
 457              		.cfi_def_cfa_offset 8
 458              		.cfi_offset 7, -8
 459              		.cfi_offset 14, -4
 460 0002 84B0     		sub	sp, sp, #16
 461              		.cfi_def_cfa_offset 24
 462 0004 00AF     		add	r7, sp, #0
 463              		.cfi_def_cfa_register 7
 464 0006 7860     		str	r0, [r7, #4]
 465              		.loc 4 179 0
 466 0008 FFF7FEFF 		bl	chDbgCheckClassI
 467              		.loc 4 180 0
 468 000c 7B68     		ldr	r3, [r7, #4]
 469 000e 002B     		cmp	r3, #0
 470 0010 02D1     		bne	.L33
 471              		.loc 4 180 0 is_stmt 0 discriminator 1
 472 0012 3648     		ldr	r0, .L34
 473 0014 FFF7FEFF 		bl	chSysHalt
 474              	.L33:
 475              		.loc 4 181 0 is_stmt 1 discriminator 1
 476 0018 7B68     		ldr	r3, [r7, #4]
 477 001a DB68     		ldr	r3, [r3, #12]
 478 001c 002B     		cmp	r3, #0
 479 001e 02D1     		bne	.L26
 480 0020 3248     		ldr	r0, .L34
 481 0022 FFF7FEFF 		bl	chSysHalt
 482              	.L26:
 483              		.loc 4 201 0
 484 0026 324B     		ldr	r3, .L34+4
 485 0028 DA69     		ldr	r2, [r3, #28]
 486 002a 7B68     		ldr	r3, [r7, #4]
 487 002c 9A42     		cmp	r2, r3
 488 002e 1CD0     		beq	.L27
 489              		.loc 4 203 0
 490 0030 7B68     		ldr	r3, [r7, #4]
 491 0032 5B68     		ldr	r3, [r3, #4]
 492 0034 7A68     		ldr	r2, [r7, #4]
 493 0036 1268     		ldr	r2, [r2]
 494 0038 1A60     		str	r2, [r3]
 495              		.loc 4 204 0
 496 003a 7B68     		ldr	r3, [r7, #4]
 497 003c 1B68     		ldr	r3, [r3]
 498 003e 7A68     		ldr	r2, [r7, #4]
 499 0040 5268     		ldr	r2, [r2, #4]
 500 0042 5A60     		str	r2, [r3, #4]
 501              		.loc 4 205 0
 502 0044 7B68     		ldr	r3, [r7, #4]
 503 0046 0022     		movs	r2, #0
 504 0048 DA60     		str	r2, [r3, #12]
 505              		.loc 4 208 0
ARM GAS  C:\Users\Luis\AppData\Local\Temp\cc4Tq2iV.s 			page 10


 506 004a 7B68     		ldr	r3, [r7, #4]
 507 004c 1A68     		ldr	r2, [r3]
 508 004e 294B     		ldr	r3, .L34+8
 509 0050 9A42     		cmp	r2, r3
 510 0052 09D0     		beq	.L28
 511              		.loc 4 209 0
 512 0054 7B68     		ldr	r3, [r7, #4]
 513 0056 1B68     		ldr	r3, [r3]
 514 0058 7A68     		ldr	r2, [r7, #4]
 515 005a 1268     		ldr	r2, [r2]
 516 005c 9168     		ldr	r1, [r2, #8]
 517 005e 7A68     		ldr	r2, [r7, #4]
 518 0060 9268     		ldr	r2, [r2, #8]
 519 0062 0A44     		add	r2, r2, r1
 520 0064 9A60     		str	r2, [r3, #8]
 521              		.loc 4 211 0
 522 0066 3EE0     		b	.L24
 523              	.L28:
 524 0068 3DE0     		b	.L24
 525              	.L27:
 526              		.loc 4 215 0
 527 006a 7B68     		ldr	r3, [r7, #4]
 528 006c 1A68     		ldr	r2, [r3]
 529 006e 204B     		ldr	r3, .L34+4
 530 0070 DA61     		str	r2, [r3, #28]
 531              		.loc 4 216 0
 532 0072 1F4B     		ldr	r3, .L34+4
 533 0074 DB69     		ldr	r3, [r3, #28]
 534 0076 1F4A     		ldr	r2, .L34+8
 535 0078 5A60     		str	r2, [r3, #4]
 536              		.loc 4 217 0
 537 007a 7B68     		ldr	r3, [r7, #4]
 538 007c 0022     		movs	r2, #0
 539 007e DA60     		str	r2, [r3, #12]
 540              		.loc 4 220 0
 541 0080 1B4B     		ldr	r3, .L34+4
 542 0082 DA69     		ldr	r2, [r3, #28]
 543 0084 1B4B     		ldr	r3, .L34+8
 544 0086 9A42     		cmp	r2, r3
 545 0088 02D1     		bne	.L30
 546              		.loc 4 221 0
 547 008a FFF7FEFF 		bl	port_timer_stop_alarm
 548              		.loc 4 223 0
 549 008e 2AE0     		b	.L24
 550              	.L30:
 551              		.loc 4 227 0
 552 0090 174B     		ldr	r3, .L34+4
 553 0092 DB69     		ldr	r3, [r3, #28]
 554 0094 164A     		ldr	r2, .L34+4
 555 0096 D269     		ldr	r2, [r2, #28]
 556 0098 9168     		ldr	r1, [r2, #8]
 557 009a 7A68     		ldr	r2, [r7, #4]
 558 009c 9268     		ldr	r2, [r2, #8]
 559 009e 0A44     		add	r2, r2, r1
 560 00a0 9A60     		str	r2, [r3, #8]
 561              		.loc 4 236 0
 562 00a2 FFF7FEFF 		bl	chVTGetSystemTimeX
ARM GAS  C:\Users\Luis\AppData\Local\Temp\cc4Tq2iV.s 			page 11


 563 00a6 0246     		mov	r2, r0
 564 00a8 114B     		ldr	r3, .L34+4
 565 00aa 9B6A     		ldr	r3, [r3, #40]
 566 00ac D31A     		subs	r3, r2, r3
 567 00ae BB60     		str	r3, [r7, #8]
 568              		.loc 4 240 0
 569 00b0 0F4B     		ldr	r3, .L34+4
 570 00b2 DB69     		ldr	r3, [r3, #28]
 571 00b4 9A68     		ldr	r2, [r3, #8]
 572 00b6 BB68     		ldr	r3, [r7, #8]
 573 00b8 9A42     		cmp	r2, r3
 574 00ba 00D8     		bhi	.L31
 575              		.loc 4 241 0
 576 00bc 13E0     		b	.L24
 577              	.L31:
 578              		.loc 4 245 0
 579 00be 0C4B     		ldr	r3, .L34+4
 580 00c0 DB69     		ldr	r3, [r3, #28]
 581 00c2 9A68     		ldr	r2, [r3, #8]
 582 00c4 BB68     		ldr	r3, [r7, #8]
 583 00c6 D31A     		subs	r3, r2, r3
 584 00c8 FB60     		str	r3, [r7, #12]
 585              		.loc 4 249 0
 586 00ca FB68     		ldr	r3, [r7, #12]
 587 00cc 012B     		cmp	r3, #1
 588 00ce 01D8     		bhi	.L32
 589              		.loc 4 250 0
 590 00d0 0223     		movs	r3, #2
 591 00d2 FB60     		str	r3, [r7, #12]
 592              	.L32:
 593              		.loc 4 253 0
 594 00d4 064B     		ldr	r3, .L34+4
 595 00d6 9A6A     		ldr	r2, [r3, #40]
 596 00d8 BB68     		ldr	r3, [r7, #8]
 597 00da 1A44     		add	r2, r2, r3
 598 00dc FB68     		ldr	r3, [r7, #12]
 599 00de 1344     		add	r3, r3, r2
 600 00e0 1846     		mov	r0, r3
 601 00e2 FFF7FEFF 		bl	port_timer_set_alarm
 602              	.L24:
 603              		.loc 4 255 0
 604 00e6 1037     		adds	r7, r7, #16
 605 00e8 BD46     		mov	sp, r7
 606              		@ sp needed
 607 00ea 80BD     		pop	{r7, pc}
 608              	.L35:
 609              		.align	2
 610              	.L34:
 611 00ec 00000000 		.word	__func__.6553
 612 00f0 00000000 		.word	ch
 613 00f4 1C000000 		.word	ch+28
 614              		.cfi_endproc
 615              	.LFE231:
 616              		.size	chVTDoResetI, .-chVTDoResetI
 617 00f8 AFF30080 		.section	.rodata.__func__.6545,"a",%progbits
 617      AFF30080 
 618              		.align	2
ARM GAS  C:\Users\Luis\AppData\Local\Temp\cc4Tq2iV.s 			page 12


 619              		.type	__func__.6545, %object
 620              		.size	__func__.6545, 11
 621              	__func__.6545:
 622 0000 63685654 		.ascii	"chVTDoSetI\000"
 622      446F5365 
 622      744900
 623 000b 00       		.section	.rodata.__func__.6553,"a",%progbits
 624              		.align	2
 625              		.type	__func__.6553, %object
 626              		.size	__func__.6553, 13
 627              	__func__.6553:
 628 0000 63685654 		.ascii	"chVTDoResetI\000"
 628      446F5265 
 628      73657449 
 628      00
 629 000d 000000   		.text
 630              	.Letext0:
 631              		.file 5 "c:\\emtechesdk\\gcc\\arm-none-eabi\\include\\stdint.h"
 632              		.file 6 "../../ChibiOS/os/rt/ports/ARMCMx/compilers/GCC/chtypes.h"
 633              		.file 7 "../../ChibiOS/os/rt/include/chsystypes.h"
 634              		.file 8 "../../ChibiOS/os/rt/include/chschd.h"
 635              		.file 9 "../../ChibiOS/os/rt/ports/ARMCMx/chcore.h"
 636              		.file 10 "../../ChibiOS/os/rt/ports/ARMCMx/chcore_v7m.h"
 637              		.file 11 "../../ChibiOS/os/hal/ports/STM32/LLD/TIMv1/stm32_tim.h"
 638              		.file 12 "../../ChibiOS/os/rt/include/chdebug.h"
 639              		.file 13 "../../ChibiOS/os/rt/include/chtm.h"
 640              		.file 14 "../../ChibiOS/os/rt/include/chstats.h"
 641              		.file 15 "../../ChibiOS/os/rt/include/chsem.h"
 642              		.file 16 "../../ChibiOS/os/rt/include/chmtx.h"
 643              		.file 17 "../../ChibiOS/os/ext/CMSIS/include/core_cm4.h"