ARM GAS  C:\Users\Luis\AppData\Local\Temp\ccGUuGct.s 			page 1


   1              		.syntax unified
   2              		.cpu cortex-m4
   3              		.fpu softvfp
   4              		.eabi_attribute 20, 1
   5              		.eabi_attribute 21, 1
   6              		.eabi_attribute 23, 3
   7              		.eabi_attribute 24, 1
   8              		.eabi_attribute 25, 1
   9              		.eabi_attribute 26, 1
  10              		.eabi_attribute 30, 6
  11              		.eabi_attribute 34, 1
  12              		.eabi_attribute 18, 4
  13              		.thumb
  14              		.file	"crt1.c"
  15              		.text
  16              	.Ltext0:
  17              		.cfi_sections	.debug_frame
  18              		.section	.text.__core_init,"ax",%progbits
  19              		.align	2
  20              		.p2align 4,,15
  21              		.weak	__core_init
  22              		.thumb
  23              		.thumb_func
  24              		.type	__core_init, %function
  25              	__core_init:
  26              	.LFB112:
  27              		.file 1 "../../ChibiOS/os/common/ports/ARMCMx/compilers/GCC/crt1.c"
  28              		.loc 1 42 0
  29              		.cfi_startproc
  30              		@ args = 0, pretend = 0, frame = 0
  31              		@ frame_needed = 1, uses_anonymous_args = 0
  32              		@ link register save eliminated.
  33 0000 80B4     		push	{r7}
  34              		.cfi_def_cfa_offset 4
  35              		.cfi_offset 7, -4
  36 0002 00AF     		add	r7, sp, #0
  37              		.cfi_def_cfa_register 7
  38              		.loc 1 48 0
  39 0004 BD46     		mov	sp, r7
  40              		@ sp needed
  41 0006 5DF8047B 		ldr	r7, [sp], #4
  42 000a 7047     		bx	lr
  43              		.cfi_endproc
  44              	.LFE112:
  45              		.size	__core_init, .-__core_init
  46 000c AFF30080 		.section	.text.__early_init,"ax",%progbits
  47              		.align	2
  48              		.p2align 4,,15
  49              		.weak	__early_init
  50              		.thumb
  51              		.thumb_func
  52              		.type	__early_init, %function
  53              	__early_init:
  54              	.LFB113:
  55              		.loc 1 61 0
  56              		.cfi_startproc
  57              		@ args = 0, pretend = 0, frame = 0
ARM GAS  C:\Users\Luis\AppData\Local\Temp\ccGUuGct.s 			page 2


  58              		@ frame_needed = 1, uses_anonymous_args = 0
  59              		@ link register save eliminated.
  60 0000 80B4     		push	{r7}
  61              		.cfi_def_cfa_offset 4
  62              		.cfi_offset 7, -4
  63 0002 00AF     		add	r7, sp, #0
  64              		.cfi_def_cfa_register 7
  65              		.loc 1 61 0
  66 0004 BD46     		mov	sp, r7
  67              		@ sp needed
  68 0006 5DF8047B 		ldr	r7, [sp], #4
  69 000a 7047     		bx	lr
  70              		.cfi_endproc
  71              	.LFE113:
  72              		.size	__early_init, .-__early_init
  73 000c AFF30080 		.section	.text.__late_init,"ax",%progbits
  74              		.align	2
  75              		.p2align 4,,15
  76              		.weak	__late_init
  77              		.thumb
  78              		.thumb_func
  79              		.type	__late_init, %function
  80              	__late_init:
  81              	.LFB114:
  82              		.loc 1 75 0
  83              		.cfi_startproc
  84              		@ args = 0, pretend = 0, frame = 0
  85              		@ frame_needed = 1, uses_anonymous_args = 0
  86              		@ link register save eliminated.
  87 0000 80B4     		push	{r7}
  88              		.cfi_def_cfa_offset 4
  89              		.cfi_offset 7, -4
  90 0002 00AF     		add	r7, sp, #0
  91              		.cfi_def_cfa_register 7
  92              		.loc 1 75 0
  93 0004 BD46     		mov	sp, r7
  94              		@ sp needed
  95 0006 5DF8047B 		ldr	r7, [sp], #4
  96 000a 7047     		bx	lr
  97              		.cfi_endproc
  98              	.LFE114:
  99              		.size	__late_init, .-__late_init
 100 000c AFF30080 		.section	.text.__default_exit,"ax",%progbits
 101              		.align	2
 102              		.p2align 4,,15
 103              		.weak	__default_exit
 104              		.thumb
 105              		.thumb_func
 106              		.type	__default_exit, %function
 107              	__default_exit:
 108              	.LFB115:
 109              		.loc 1 88 0
 110              		.cfi_startproc
 111              		@ args = 0, pretend = 0, frame = 0
 112              		@ frame_needed = 1, uses_anonymous_args = 0
 113              		@ link register save eliminated.
 114 0000 80B4     		push	{r7}
ARM GAS  C:\Users\Luis\AppData\Local\Temp\ccGUuGct.s 			page 3


 115              		.cfi_def_cfa_offset 4
 116              		.cfi_offset 7, -4
 117 0002 00AF     		add	r7, sp, #0
 118              		.cfi_def_cfa_register 7
 119              	.L5:
 120              		.loc 1 92 0 discriminator 1
 121 0004 FEE7     		b	.L5
 122              		.cfi_endproc
 123              	.LFE115:
 124              		.size	__default_exit, .-__default_exit
 125 0006 00BFAFF3 		.text
 125      0080AFF3 
 125      0080
 126              	.Letext0:
 127              		.file 2 "c:\\emtechesdk\\gcc\\arm-none-eabi\\include\\stdint.h"
 128              		.file 3 "../../ChibiOS/os/ext/CMSIS/include/core_cm4.h"
 129              		.section	.debug_info,"",%progbits
 130              	.Ldebug_info0:
 131 0000 CF000000 		.4byte	0xcf
 132 0004 0400     		.2byte	0x4
 133 0006 00000000 		.4byte	.Ldebug_abbrev0
 134 000a 04       		.byte	0x4
 135 000b 01       		.uleb128 0x1
 136 000c 49010000 		.4byte	.LASF14
 137 0010 01       		.byte	0x1
 138 0011 06010000 		.4byte	.LASF15
 139 0015 BB000000 		.4byte	.LASF16
 140 0019 00000000 		.4byte	.Ldebug_ranges0+0
 141 001d 00000000 		.4byte	0
 142 0021 00000000 		.4byte	.Ldebug_line0
 143 0025 02       		.uleb128 0x2
 144 0026 01       		.byte	0x1
 145 0027 06       		.byte	0x6
 146 0028 A3000000 		.4byte	.LASF0
 147 002c 02       		.uleb128 0x2
 148 002d 01       		.byte	0x1
 149 002e 08       		.byte	0x8
 150 002f 2E000000 		.4byte	.LASF1
 151 0033 02       		.uleb128 0x2
 152 0034 02       		.byte	0x2
 153 0035 05       		.byte	0x5
 154 0036 F4000000 		.4byte	.LASF2
 155 003a 02       		.uleb128 0x2
 156 003b 02       		.byte	0x2
 157 003c 07       		.byte	0x7
 158 003d 0E000000 		.4byte	.LASF3
 159 0041 03       		.uleb128 0x3
 160 0042 FE000000 		.4byte	.LASF17
 161 0046 02       		.byte	0x2
 162 0047 4F       		.byte	0x4f
 163 0048 4C000000 		.4byte	0x4c
 164 004c 02       		.uleb128 0x2
 165 004d 04       		.byte	0x4
 166 004e 05       		.byte	0x5
 167 004f 8D000000 		.4byte	.LASF4
 168 0053 02       		.uleb128 0x2
 169 0054 04       		.byte	0x4
ARM GAS  C:\Users\Luis\AppData\Local\Temp\ccGUuGct.s 			page 4


 170 0055 07       		.byte	0x7
 171 0056 49000000 		.4byte	.LASF5
 172 005a 02       		.uleb128 0x2
 173 005b 08       		.byte	0x8
 174 005c 05       		.byte	0x5
 175 005d 00000000 		.4byte	.LASF6
 176 0061 02       		.uleb128 0x2
 177 0062 08       		.byte	0x8
 178 0063 07       		.byte	0x7
 179 0064 6A000000 		.4byte	.LASF7
 180 0068 04       		.uleb128 0x4
 181 0069 04       		.byte	0x4
 182 006a 05       		.byte	0x5
 183 006b 696E7400 		.ascii	"int\000"
 184 006f 02       		.uleb128 0x2
 185 0070 04       		.byte	0x4
 186 0071 07       		.byte	0x7
 187 0072 21000000 		.4byte	.LASF8
 188 0076 02       		.uleb128 0x2
 189 0077 04       		.byte	0x4
 190 0078 07       		.byte	0x7
 191 0079 40010000 		.4byte	.LASF9
 192 007d 05       		.uleb128 0x5
 193 007e AF000000 		.4byte	.LASF10
 194 0082 01       		.byte	0x1
 195 0083 2A       		.byte	0x2a
 196 0084 00000000 		.4byte	.LFB112
 197 0088 0C000000 		.4byte	.LFE112-.LFB112
 198 008c 01       		.uleb128 0x1
 199 008d 9C       		.byte	0x9c
 200 008e 05       		.uleb128 0x5
 201 008f 3C000000 		.4byte	.LASF11
 202 0093 01       		.byte	0x1
 203 0094 3D       		.byte	0x3d
 204 0095 00000000 		.4byte	.LFB113
 205 0099 0C000000 		.4byte	.LFE113-.LFB113
 206 009d 01       		.uleb128 0x1
 207 009e 9C       		.byte	0x9c
 208 009f 05       		.uleb128 0x5
 209 00a0 81000000 		.4byte	.LASF12
 210 00a4 01       		.byte	0x1
 211 00a5 4B       		.byte	0x4b
 212 00a6 00000000 		.4byte	.LFB114
 213 00aa 0C000000 		.4byte	.LFE114-.LFB114
 214 00ae 01       		.uleb128 0x1
 215 00af 9C       		.byte	0x9c
 216 00b0 05       		.uleb128 0x5
 217 00b1 5B000000 		.4byte	.LASF13
 218 00b5 01       		.byte	0x1
 219 00b6 58       		.byte	0x58
 220 00b7 00000000 		.4byte	.LFB115
 221 00bb 06000000 		.4byte	.LFE115-.LFB115
 222 00bf 01       		.uleb128 0x1
 223 00c0 9C       		.byte	0x9c
 224 00c1 06       		.uleb128 0x6
 225 00c2 96000000 		.4byte	.LASF18
 226 00c6 03       		.byte	0x3
ARM GAS  C:\Users\Luis\AppData\Local\Temp\ccGUuGct.s 			page 5


 227 00c7 A706     		.2byte	0x6a7
 228 00c9 CD000000 		.4byte	0xcd
 229 00cd 07       		.uleb128 0x7
 230 00ce 41000000 		.4byte	0x41
 231 00d2 00       		.byte	0
 232              		.section	.debug_abbrev,"",%progbits
 233              	.Ldebug_abbrev0:
 234 0000 01       		.uleb128 0x1
 235 0001 11       		.uleb128 0x11
 236 0002 01       		.byte	0x1
 237 0003 25       		.uleb128 0x25
 238 0004 0E       		.uleb128 0xe
 239 0005 13       		.uleb128 0x13
 240 0006 0B       		.uleb128 0xb
 241 0007 03       		.uleb128 0x3
 242 0008 0E       		.uleb128 0xe
 243 0009 1B       		.uleb128 0x1b
 244 000a 0E       		.uleb128 0xe
 245 000b 55       		.uleb128 0x55
 246 000c 17       		.uleb128 0x17
 247 000d 11       		.uleb128 0x11
 248 000e 01       		.uleb128 0x1
 249 000f 10       		.uleb128 0x10
 250 0010 17       		.uleb128 0x17
 251 0011 00       		.byte	0
 252 0012 00       		.byte	0
 253 0013 02       		.uleb128 0x2
 254 0014 24       		.uleb128 0x24
 255 0015 00       		.byte	0
 256 0016 0B       		.uleb128 0xb
 257 0017 0B       		.uleb128 0xb
 258 0018 3E       		.uleb128 0x3e
 259 0019 0B       		.uleb128 0xb
 260 001a 03       		.uleb128 0x3
 261 001b 0E       		.uleb128 0xe
 262 001c 00       		.byte	0
 263 001d 00       		.byte	0
 264 001e 03       		.uleb128 0x3
 265 001f 16       		.uleb128 0x16
 266 0020 00       		.byte	0
 267 0021 03       		.uleb128 0x3
 268 0022 0E       		.uleb128 0xe
 269 0023 3A       		.uleb128 0x3a
 270 0024 0B       		.uleb128 0xb
 271 0025 3B       		.uleb128 0x3b
 272 0026 0B       		.uleb128 0xb
 273 0027 49       		.uleb128 0x49
 274 0028 13       		.uleb128 0x13
 275 0029 00       		.byte	0
 276 002a 00       		.byte	0
 277 002b 04       		.uleb128 0x4
 278 002c 24       		.uleb128 0x24
 279 002d 00       		.byte	0
 280 002e 0B       		.uleb128 0xb
 281 002f 0B       		.uleb128 0xb
 282 0030 3E       		.uleb128 0x3e
 283 0031 0B       		.uleb128 0xb
ARM GAS  C:\Users\Luis\AppData\Local\Temp\ccGUuGct.s 			page 6


 284 0032 03       		.uleb128 0x3
 285 0033 08       		.uleb128 0x8
 286 0034 00       		.byte	0
 287 0035 00       		.byte	0
 288 0036 05       		.uleb128 0x5
 289 0037 2E       		.uleb128 0x2e
 290 0038 00       		.byte	0
 291 0039 3F       		.uleb128 0x3f
 292 003a 19       		.uleb128 0x19
 293 003b 03       		.uleb128 0x3
 294 003c 0E       		.uleb128 0xe
 295 003d 3A       		.uleb128 0x3a
 296 003e 0B       		.uleb128 0xb
 297 003f 3B       		.uleb128 0x3b
 298 0040 0B       		.uleb128 0xb
 299 0041 27       		.uleb128 0x27
 300 0042 19       		.uleb128 0x19
 301 0043 11       		.uleb128 0x11
 302 0044 01       		.uleb128 0x1
 303 0045 12       		.uleb128 0x12
 304 0046 06       		.uleb128 0x6
 305 0047 40       		.uleb128 0x40
 306 0048 18       		.uleb128 0x18
 307 0049 9742     		.uleb128 0x2117
 308 004b 19       		.uleb128 0x19
 309 004c 00       		.byte	0
 310 004d 00       		.byte	0
 311 004e 06       		.uleb128 0x6
 312 004f 34       		.uleb128 0x34
 313 0050 00       		.byte	0
 314 0051 03       		.uleb128 0x3
 315 0052 0E       		.uleb128 0xe
 316 0053 3A       		.uleb128 0x3a
 317 0054 0B       		.uleb128 0xb
 318 0055 3B       		.uleb128 0x3b
 319 0056 05       		.uleb128 0x5
 320 0057 49       		.uleb128 0x49
 321 0058 13       		.uleb128 0x13
 322 0059 3F       		.uleb128 0x3f
 323 005a 19       		.uleb128 0x19
 324 005b 3C       		.uleb128 0x3c
 325 005c 19       		.uleb128 0x19
 326 005d 00       		.byte	0
 327 005e 00       		.byte	0
 328 005f 07       		.uleb128 0x7
 329 0060 35       		.uleb128 0x35
 330 0061 00       		.byte	0
 331 0062 49       		.uleb128 0x49
 332 0063 13       		.uleb128 0x13
 333 0064 00       		.byte	0
 334 0065 00       		.byte	0
 335 0066 00       		.byte	0
 336              		.section	.debug_aranges,"",%progbits
 337 0000 34000000 		.4byte	0x34
 338 0004 0200     		.2byte	0x2
 339 0006 00000000 		.4byte	.Ldebug_info0
 340 000a 04       		.byte	0x4
ARM GAS  C:\Users\Luis\AppData\Local\Temp\ccGUuGct.s 			page 7


 341 000b 00       		.byte	0
 342 000c 0000     		.2byte	0
 343 000e 0000     		.2byte	0
 344 0010 00000000 		.4byte	.LFB112
 345 0014 0C000000 		.4byte	.LFE112-.LFB112
 346 0018 00000000 		.4byte	.LFB113
 347 001c 0C000000 		.4byte	.LFE113-.LFB113
 348 0020 00000000 		.4byte	.LFB114
 349 0024 0C000000 		.4byte	.LFE114-.LFB114
 350 0028 00000000 		.4byte	.LFB115
 351 002c 06000000 		.4byte	.LFE115-.LFB115
 352 0030 00000000 		.4byte	0
 353 0034 00000000 		.4byte	0
 354              		.section	.debug_ranges,"",%progbits
 355              	.Ldebug_ranges0:
 356 0000 00000000 		.4byte	.LFB112
 357 0004 0C000000 		.4byte	.LFE112
 358 0008 00000000 		.4byte	.LFB113
 359 000c 0C000000 		.4byte	.LFE113
 360 0010 00000000 		.4byte	.LFB114
 361 0014 0C000000 		.4byte	.LFE114
 362 0018 00000000 		.4byte	.LFB115
 363 001c 06000000 		.4byte	.LFE115
 364 0020 00000000 		.4byte	0
 365 0024 00000000 		.4byte	0
 366              		.section	.debug_line,"",%progbits
 367              	.Ldebug_line0:
 368 0000 01010000 		.section	.debug_str,"MS",%progbits,1
 368      0200B500 
 368      00000201 
 368      FB0E0D00 
 368      01010101 
 369              	.LASF6:
 370 0000 6C6F6E67 		.ascii	"long long int\000"
 370      206C6F6E 
 370      6720696E 
 370      7400
 371              	.LASF3:
 372 000e 73686F72 		.ascii	"short unsigned int\000"
 372      7420756E 
 372      7369676E 
 372      65642069 
 372      6E7400
 373              	.LASF8:
 374 0021 756E7369 		.ascii	"unsigned int\000"
 374      676E6564 
 374      20696E74 
 374      00
 375              	.LASF1:
 376 002e 756E7369 		.ascii	"unsigned char\000"
 376      676E6564 
 376      20636861 
 376      7200
 377              	.LASF11:
 378 003c 5F5F6561 		.ascii	"__early_init\000"
 378      726C795F 
 378      696E6974 
ARM GAS  C:\Users\Luis\AppData\Local\Temp\ccGUuGct.s 			page 8


 378      00
 379              	.LASF5:
 380 0049 6C6F6E67 		.ascii	"long unsigned int\000"
 380      20756E73 
 380      69676E65 
 380      6420696E 
 380      7400
 381              	.LASF13:
 382 005b 5F5F6465 		.ascii	"__default_exit\000"
 382      6661756C 
 382      745F6578 
 382      697400
 383              	.LASF7:
 384 006a 6C6F6E67 		.ascii	"long long unsigned int\000"
 384      206C6F6E 
 384      6720756E 
 384      7369676E 
 384      65642069 
 385              	.LASF12:
 386 0081 5F5F6C61 		.ascii	"__late_init\000"
 386      74655F69 
 386      6E697400 
 387              	.LASF4:
 388 008d 6C6F6E67 		.ascii	"long int\000"
 388      20696E74 
 388      00
 389              	.LASF18:
 390 0096 49544D5F 		.ascii	"ITM_RxBuffer\000"
 390      52784275 
 390      66666572 
 390      00
 391              	.LASF0:
 392 00a3 7369676E 		.ascii	"signed char\000"
 392      65642063 
 392      68617200 
 393              	.LASF10:
 394 00af 5F5F636F 		.ascii	"__core_init\000"
 394      72655F69 
 394      6E697400 
 395              	.LASF16:
 396 00bb 433A5C55 		.ascii	"C:\\Users\\Luis\\git\\DSP-Library-Lanin\\examples\\"
 396      73657273 
 396      5C4C7569 
 396      735C6769 
 396      745C4453 
 397 00e8 4453502D 		.ascii	"DSP-Library\000"
 397      4C696272 
 397      61727900 
 398              	.LASF2:
 399 00f4 73686F72 		.ascii	"short int\000"
 399      7420696E 
 399      7400
 400              	.LASF17:
 401 00fe 696E7433 		.ascii	"int32_t\000"
 401      325F7400 
 402              	.LASF15:
 403 0106 2E2E2F2E 		.ascii	"../../ChibiOS/os/common/ports/ARMCMx/compilers/GCC/"
ARM GAS  C:\Users\Luis\AppData\Local\Temp\ccGUuGct.s 			page 9


 403      2E2F4368 
 403      6962694F 
 403      532F6F73 
 403      2F636F6D 
 404 0139 63727431 		.ascii	"crt1.c\000"
 404      2E6300
 405              	.LASF9:
 406 0140 73697A65 		.ascii	"sizetype\000"
 406      74797065 
 406      00
 407              	.LASF14:
 408 0149 474E5520 		.ascii	"GNU C 4.8.3 20131129 (release) [ARM/embedded-4_8-br"
 408      4320342E 
 408      382E3320 
 408      32303133 
 408      31313239 
 409 017c 616E6368 		.ascii	"anch revision 205641] -mcpu=cortex-m4 -mapcs-frame "
 409      20726576 
 409      6973696F 
 409      6E203230 
 409      35363431 
 410 01af 2D6D6E6F 		.ascii	"-mno-thumb-interwork -mthumb -ggdb -O0 -falign-func"
 410      2D746875 
 410      6D622D69 
 410      6E746572 
 410      776F726B 
 411 01e2 74696F6E 		.ascii	"tions=16 -ffunction-sections -fdata-sections -fno-c"
 411      733D3136 
 411      202D6666 
 411      756E6374 
 411      696F6E2D 
 412 0215 6F6D6D6F 		.ascii	"ommon\000"
 412      6E00
 413              		.ident	"GCC: (GNU Tools for ARM Embedded Processors) 4.8.3 20131129 (release) [ARM/embedded-4_8-br
ARM GAS  C:\Users\Luis\AppData\Local\Temp\ccGUuGct.s 			page 10


DEFINED SYMBOLS
                            *ABS*:00000000 crt1.c
C:\Users\Luis\AppData\Local\Temp\ccGUuGct.s:19     .text.__core_init:00000000 $t
C:\Users\Luis\AppData\Local\Temp\ccGUuGct.s:25     .text.__core_init:00000000 __core_init
C:\Users\Luis\AppData\Local\Temp\ccGUuGct.s:47     .text.__early_init:00000000 $t
C:\Users\Luis\AppData\Local\Temp\ccGUuGct.s:53     .text.__early_init:00000000 __early_init
C:\Users\Luis\AppData\Local\Temp\ccGUuGct.s:74     .text.__late_init:00000000 $t
C:\Users\Luis\AppData\Local\Temp\ccGUuGct.s:80     .text.__late_init:00000000 __late_init
C:\Users\Luis\AppData\Local\Temp\ccGUuGct.s:101    .text.__default_exit:00000000 $t
C:\Users\Luis\AppData\Local\Temp\ccGUuGct.s:107    .text.__default_exit:00000000 __default_exit
                     .debug_frame:00000010 $d

NO UNDEFINED SYMBOLS
