ARM GAS  C:\Users\Luis\AppData\Local\Temp\ccGUuGct.s 			page 1


   1              		.syntax unified
   2              		.cpu cortex-m4
   3              		.fpu softvfp
   4              		.eabi_attribute 20, 1
   5              		.eabi_attribute 21, 1
   6              		.eabi_attribute 23, 3
   7              		.eabi_attribute 24, 1
   8              		.eabi_attribute 25, 1
   9              		.eabi_attribute 26, 1
  10              		.eabi_attribute 30, 6
  11              		.eabi_attribute 34, 1
  12              		.eabi_attribute 18, 4
  13              		.thumb
  14              		.file	"crt1.c"
  15              		.text
  16              	.Ltext0:
  17              		.cfi_sections	.debug_frame
  18              		.section	.text.__core_init,"ax",%progbits
  19              		.align	2
  20              		.p2align 4,,15
  21              		.weak	__core_init
  22              		.thumb
  23              		.thumb_func
  24              		.type	__core_init, %function
  25              	__core_init:
  26              	.LFB112:
  27              		.file 1 "../../ChibiOS/os/common/ports/ARMCMx/compilers/GCC/crt1.c"
  28              		.loc 1 42 0
  29              		.cfi_startproc
  30              		@ args = 0, pretend = 0, frame = 0
  31              		@ frame_needed = 1, uses_anonymous_args = 0
  32              		@ link register save eliminated.
  33 0000 80B4     		push	{r7}
  34              		.cfi_def_cfa_offset 4
  35              		.cfi_offset 7, -4
  36 0002 00AF     		add	r7, sp, #0
  37              		.cfi_def_cfa_register 7
  38              		.loc 1 48 0
  39 0004 BD46     		mov	sp, r7
  40              		@ sp needed
  41 0006 5DF8047B 		ldr	r7, [sp], #4
  42 000a 7047     		bx	lr
  43              		.cfi_endproc
  44              	.LFE112:
  45              		.size	__core_init, .-__core_init
  46 000c AFF30080 		.section	.text.__early_init,"ax",%progbits
  47              		.align	2
  48              		.p2align 4,,15
  49              		.weak	__early_init
  50              		.thumb
  51              		.thumb_func
  52              		.type	__early_init, %function
  53              	__early_init:
  54              	.LFB113:
  55              		.loc 1 61 0
  56              		.cfi_startproc
  57              		@ args = 0, pretend = 0, frame = 0
ARM GAS  C:\Users\Luis\AppData\Local\Temp\ccGUuGct.s 			page 2


  58              		@ frame_needed = 1, uses_anonymous_args = 0
  59              		@ link register save eliminated.
  60 0000 80B4     		push	{r7}
  61              		.cfi_def_cfa_offset 4
  62              		.cfi_offset 7, -4
  63 0002 00AF     		add	r7, sp, #0
  64              		.cfi_def_cfa_register 7
  65              		.loc 1 61 0
  66 0004 BD46     		mov	sp, r7
  67              		@ sp needed
  68 0006 5DF8047B 		ldr	r7, [sp], #4
  69 000a 7047     		bx	lr
  70              		.cfi_endproc
  71              	.LFE113:
  72              		.size	__early_init, .-__early_init
  73 000c AFF30080 		.section	.text.__late_init,"ax",%progbits
  74              		.align	2
  75              		.p2align 4,,15
  76              		.weak	__late_init
  77              		.thumb
  78              		.thumb_func
  79              		.type	__late_init, %function
  80              	__late_init:
  81              	.LFB114:
  82              		.loc 1 75 0
  83              		.cfi_startproc
  84              		@ args = 0, pretend = 0, frame = 0
  85              		@ frame_needed = 1, uses_anonymous_args = 0
  86              		@ link register save eliminated.
  87 0000 80B4     		push	{r7}
  88              		.cfi_def_cfa_offset 4
  89              		.cfi_offset 7, -4
  90 0002 00AF     		add	r7, sp, #0
  91              		.cfi_def_cfa_register 7
  92              		.loc 1 75 0
  93 0004 BD46     		mov	sp, r7
  94              		@ sp needed
  95 0006 5DF8047B 		ldr	r7, [sp], #4
  96 000a 7047     		bx	lr
  97              		.cfi_endproc
  98              	.LFE114:
  99              		.size	__late_init, .-__late_init
 100 000c AFF30080 		.section	.text.__default_exit,"ax",%progbits
 101              		.align	2
 102              		.p2align 4,,15
 103              		.weak	__default_exit
 104              		.thumb
 105              		.thumb_func
 106              		.type	__default_exit, %function
 107              	__default_exit:
 108              	.LFB115:
 109              		.loc 1 88 0
 110              		.cfi_startproc
 111              		@ args = 0, pretend = 0, frame = 0
 112              		@ frame_needed = 1, uses_anonymous_args = 0
 113              		@ link register save eliminated.
 114 0000 80B4     		push	{r7}
ARM GAS  C:\Users\Luis\AppData\Local\Temp\ccGUuGct.s 			page 3


 115              		.cfi_def_cfa_offset 4
 116              		.cfi_offset 7, -4
 117 0002 00AF     		add	r7, sp, #0
 118              		.cfi_def_cfa_register 7
 119              	.L5:
 120              		.loc 1 92 0 discriminator 1
 121 0004 FEE7     		b	.L5
 122              		.cfi_endproc
 123              	.LFE115:
 124              		.size	__default_exit, .-__default_exit
 125 0006 00BFAFF3 		.text
 125      0080AFF3 
 125      0080
 126              	.Letext0:
 127              		.file 2 "c:\\emtechesdk\\gcc\\arm-none-eabi\\include\\stdint.h"
 128              		.file 3 "../../ChibiOS/os/ext/CMSIS/include/core_cm4.h"