ARM GAS  C:\Users\Luis\AppData\Local\Temp\cc59VBSt.s 			page 1


   1              		.syntax unified
   2              		.cpu cortex-m4
   3              		.fpu softvfp
   4              		.eabi_attribute 20, 1
   5              		.eabi_attribute 21, 1
   6              		.eabi_attribute 23, 3
   7              		.eabi_attribute 24, 1
   8              		.eabi_attribute 25, 1
   9              		.eabi_attribute 26, 1
  10              		.eabi_attribute 30, 6
  11              		.eabi_attribute 34, 1
  12              		.eabi_attribute 18, 4
  13              		.thumb
  14              		.file	"DataFilter.cpp"
  15              		.text
  16              	.Ltext0:
  17              		.cfi_sections	.debug_frame
  18              		.section	.text._ZN10DataFilter13newDataFilterEi,"ax",%progbits
  19              		.align	2
  20              		.p2align 4,,15
  21              		.global	_ZN10DataFilter13newDataFilterEi
  22              		.thumb
  23              		.thumb_func
  24              		.type	_ZN10DataFilter13newDataFilterEi, %function
  25              	_ZN10DataFilter13newDataFilterEi:
  26              	.LFB261:
  27              		.file 1 "DataFilter.cpp"
  28              		.loc 1 16 0
  29              		.cfi_startproc
  30              		@ args = 0, pretend = 0, frame = 8
  31              		@ frame_needed = 1, uses_anonymous_args = 0
  32 0000 80B5     		push	{r7, lr}
  33              		.cfi_def_cfa_offset 8
  34              		.cfi_offset 7, -8
  35              		.cfi_offset 14, -4
  36 0002 82B0     		sub	sp, sp, #8
  37              		.cfi_def_cfa_offset 16
  38 0004 00AF     		add	r7, sp, #0
  39              		.cfi_def_cfa_register 7
  40 0006 7860     		str	r0, [r7, #4]
  41 0008 3960     		str	r1, [r7]
  42              		.loc 1 20 0
  43 000a 3B68     		ldr	r3, [r7]
  44 000c 9B00     		lsls	r3, r3, #2
  45 000e 0020     		movs	r0, #0
  46 0010 1946     		mov	r1, r3
  47 0012 FFF7FEFF 		bl	chHeapAlloc
  48 0016 0246     		mov	r2, r0
  49 0018 7B68     		ldr	r3, [r7, #4]
  50 001a 9A60     		str	r2, [r3, #8]
  51              		.loc 1 22 0
  52 001c 3B68     		ldr	r3, [r7]
  53 001e 0133     		adds	r3, r3, #1
  54 0020 9B00     		lsls	r3, r3, #2
  55 0022 0020     		movs	r0, #0
  56 0024 1946     		mov	r1, r3
  57 0026 FFF7FEFF 		bl	chHeapAlloc
ARM GAS  C:\Users\Luis\AppData\Local\Temp\cc59VBSt.s 			page 2


  58 002a 0246     		mov	r2, r0
  59 002c 7B68     		ldr	r3, [r7, #4]
  60 002e DA60     		str	r2, [r3, #12]
  61              		.loc 1 23 0
  62 0030 0823     		movs	r3, #8
  63 0032 0020     		movs	r0, #0
  64 0034 1946     		mov	r1, r3
  65 0036 FFF7FEFF 		bl	chHeapAlloc
  66 003a 0246     		mov	r2, r0
  67 003c 7B68     		ldr	r3, [r7, #4]
  68 003e 5A62     		str	r2, [r3, #36]
  69              		.loc 1 24 0
  70 0040 3B68     		ldr	r3, [r7]
  71 0042 9B00     		lsls	r3, r3, #2
  72 0044 0020     		movs	r0, #0
  73 0046 1946     		mov	r1, r3
  74 0048 FFF7FEFF 		bl	chHeapAlloc
  75 004c 0246     		mov	r2, r0
  76 004e 7B68     		ldr	r3, [r7, #4]
  77 0050 DA61     		str	r2, [r3, #28]
  78              		.loc 1 26 0
  79 0052 7868     		ldr	r0, [r7, #4]
  80 0054 3968     		ldr	r1, [r7]
  81 0056 FFF7FEFF 		bl	_ZN10DataFilter14setFilterOrderEi
  82              		.loc 1 27 0
  83 005a 0837     		adds	r7, r7, #8
  84 005c BD46     		mov	sp, r7
  85              		@ sp needed
  86 005e 80BD     		pop	{r7, pc}
  87              		.cfi_endproc
  88              	.LFE261:
  89              		.size	_ZN10DataFilter13newDataFilterEi, .-_ZN10DataFilter13newDataFilterEi
  90              		.section	.text._ZN10DataFilterD2Ev,"ax",%progbits
  91              		.align	2
  92              		.p2align 4,,15
  93              		.global	_ZN10DataFilterD2Ev
  94              		.thumb
  95              		.thumb_func
  96              		.type	_ZN10DataFilterD2Ev, %function
  97              	_ZN10DataFilterD2Ev:
  98              	.LFB263:
  99              		.loc 1 28 0
 100              		.cfi_startproc
 101              		@ args = 0, pretend = 0, frame = 8
 102              		@ frame_needed = 1, uses_anonymous_args = 0
 103 0000 80B5     		push	{r7, lr}
 104              		.cfi_def_cfa_offset 8
 105              		.cfi_offset 7, -8
 106              		.cfi_offset 14, -4
 107 0002 82B0     		sub	sp, sp, #8
 108              		.cfi_def_cfa_offset 16
 109 0004 00AF     		add	r7, sp, #0
 110              		.cfi_def_cfa_register 7
 111 0006 7860     		str	r0, [r7, #4]
 112              	.LBB2:
 113              		.loc 1 28 0
 114 0008 7B68     		ldr	r3, [r7, #4]
ARM GAS  C:\Users\Luis\AppData\Local\Temp\cc59VBSt.s 			page 3


 115 000a 154A     		ldr	r2, .L6
 116 000c 1A60     		str	r2, [r3]
 117              		.loc 1 30 0
 118 000e 7B68     		ldr	r3, [r7, #4]
 119 0010 9B68     		ldr	r3, [r3, #8]
 120 0012 1846     		mov	r0, r3
 121 0014 FFF7FEFF 		bl	chHeapFree
 122              		.loc 1 31 0
 123 0018 7B68     		ldr	r3, [r7, #4]
 124 001a DB68     		ldr	r3, [r3, #12]
 125 001c 1846     		mov	r0, r3
 126 001e FFF7FEFF 		bl	chHeapFree
 127              		.loc 1 32 0
 128 0022 7B68     		ldr	r3, [r7, #4]
 129 0024 5B6A     		ldr	r3, [r3, #36]
 130 0026 1846     		mov	r0, r3
 131 0028 FFF7FEFF 		bl	chHeapFree
 132              		.loc 1 33 0
 133 002c 7B68     		ldr	r3, [r7, #4]
 134 002e DB69     		ldr	r3, [r3, #28]
 135 0030 1846     		mov	r0, r3
 136 0032 FFF7FEFF 		bl	chHeapFree
 137              		.loc 1 34 0
 138 0036 7B68     		ldr	r3, [r7, #4]
 139 0038 1B69     		ldr	r3, [r3, #16]
 140 003a 1846     		mov	r0, r3
 141 003c FFF7FEFF 		bl	chHeapFree
 142              		.loc 1 35 0
 143 0040 7B68     		ldr	r3, [r7, #4]
 144 0042 1B6A     		ldr	r3, [r3, #32]
 145 0044 1846     		mov	r0, r3
 146 0046 FFF7FEFF 		bl	chHeapFree
 147              	.LBE2:
 148              		.loc 1 36 0
 149 004a 0023     		movs	r3, #0
 150 004c 002B     		cmp	r3, #0
 151 004e 02D0     		beq	.L4
 152              		.loc 1 36 0 is_stmt 0 discriminator 1
 153 0050 7868     		ldr	r0, [r7, #4]
 154 0052 FFF7FEFF 		bl	_ZdlPv
 155              	.L4:
 156              		.loc 1 36 0 discriminator 2
 157 0056 7B68     		ldr	r3, [r7, #4]
 158 0058 1846     		mov	r0, r3
 159 005a 0837     		adds	r7, r7, #8
 160 005c BD46     		mov	sp, r7
 161              		@ sp needed
 162 005e 80BD     		pop	{r7, pc}
 163              	.L7:
 164              		.align	2
 165              	.L6:
 166 0060 08000000 		.word	_ZTV10DataFilter+8
 167              		.cfi_endproc
 168              	.LFE263:
 169              		.size	_ZN10DataFilterD2Ev, .-_ZN10DataFilterD2Ev
 170              		.global	_ZN10DataFilterD1Ev
 171              		.thumb_set _ZN10DataFilterD1Ev,_ZN10DataFilterD2Ev
ARM GAS  C:\Users\Luis\AppData\Local\Temp\cc59VBSt.s 			page 4


 172 0064 AFF30080 		.section	.text._ZN10DataFilterD0Ev,"ax",%progbits
 172      AFF30080 
 172      AFF30080 
 173              		.align	2
 174              		.p2align 4,,15
 175              		.global	_ZN10DataFilterD0Ev
 176              		.thumb
 177              		.thumb_func
 178              		.type	_ZN10DataFilterD0Ev, %function
 179              	_ZN10DataFilterD0Ev:
 180              	.LFB265:
 181              		.loc 1 28 0 is_stmt 1
 182              		.cfi_startproc
 183              		@ args = 0, pretend = 0, frame = 8
 184              		@ frame_needed = 1, uses_anonymous_args = 0
 185 0000 80B5     		push	{r7, lr}
 186              		.cfi_def_cfa_offset 8
 187              		.cfi_offset 7, -8
 188              		.cfi_offset 14, -4
 189 0002 82B0     		sub	sp, sp, #8
 190              		.cfi_def_cfa_offset 16
 191 0004 00AF     		add	r7, sp, #0
 192              		.cfi_def_cfa_register 7
 193 0006 7860     		str	r0, [r7, #4]
 194              		.loc 1 36 0
 195 0008 7868     		ldr	r0, [r7, #4]
 196 000a FFF7FEFF 		bl	_ZN10DataFilterD1Ev
 197 000e 7868     		ldr	r0, [r7, #4]
 198 0010 FFF7FEFF 		bl	_ZdlPv
 199 0014 7B68     		ldr	r3, [r7, #4]
 200 0016 1846     		mov	r0, r3
 201 0018 0837     		adds	r7, r7, #8
 202 001a BD46     		mov	sp, r7
 203              		@ sp needed
 204 001c 80BD     		pop	{r7, pc}
 205              		.cfi_endproc
 206              	.LFE265:
 207              		.size	_ZN10DataFilterD0Ev, .-_ZN10DataFilterD0Ev
 208 001e 00BF     		.section	.text._ZN10DataFilter19createArrayInputFIREv,"ax",%progbits
 209              		.align	2
 210              		.p2align 4,,15
 211              		.global	_ZN10DataFilter19createArrayInputFIREv
 212              		.thumb
 213              		.thumb_func
 214              		.type	_ZN10DataFilter19createArrayInputFIREv, %function
 215              	_ZN10DataFilter19createArrayInputFIREv:
 216              	.LFB266:
 217              		.loc 1 38 0
 218              		.cfi_startproc
 219              		@ args = 0, pretend = 0, frame = 8
 220              		@ frame_needed = 1, uses_anonymous_args = 0
 221              		@ link register save eliminated.
 222 0000 80B4     		push	{r7}
 223              		.cfi_def_cfa_offset 4
 224              		.cfi_offset 7, -4
 225 0002 83B0     		sub	sp, sp, #12
 226              		.cfi_def_cfa_offset 16
ARM GAS  C:\Users\Luis\AppData\Local\Temp\cc59VBSt.s 			page 5


 227 0004 00AF     		add	r7, sp, #0
 228              		.cfi_def_cfa_register 7
 229 0006 7860     		str	r0, [r7, #4]
 230              		.loc 1 39 0
 231 0008 7B68     		ldr	r3, [r7, #4]
 232 000a 9B6A     		ldr	r3, [r3, #40]
 233 000c 5A1E     		subs	r2, r3, #1
 234 000e 7B68     		ldr	r3, [r7, #4]
 235 0010 1A63     		str	r2, [r3, #48]
 236 0012 15E0     		b	.L12
 237              	.L13:
 238              		.loc 1 40 0 discriminator 2
 239 0014 7B68     		ldr	r3, [r7, #4]
 240 0016 1A69     		ldr	r2, [r3, #16]
 241 0018 7B68     		ldr	r3, [r7, #4]
 242 001a 196B     		ldr	r1, [r3, #48]
 243 001c 7B68     		ldr	r3, [r7, #4]
 244 001e 5B68     		ldr	r3, [r3, #4]
 245 0020 0B44     		add	r3, r3, r1
 246 0022 9B00     		lsls	r3, r3, #2
 247 0024 1344     		add	r3, r3, r2
 248 0026 7A68     		ldr	r2, [r7, #4]
 249 0028 1169     		ldr	r1, [r2, #16]
 250 002a 7A68     		ldr	r2, [r7, #4]
 251 002c 126B     		ldr	r2, [r2, #48]
 252 002e 9200     		lsls	r2, r2, #2
 253 0030 0A44     		add	r2, r2, r1
 254 0032 1268     		ldr	r2, [r2]	@ float
 255 0034 1A60     		str	r2, [r3]	@ float
 256              		.loc 1 39 0 discriminator 2
 257 0036 7B68     		ldr	r3, [r7, #4]
 258 0038 1B6B     		ldr	r3, [r3, #48]
 259 003a 5A1E     		subs	r2, r3, #1
 260 003c 7B68     		ldr	r3, [r7, #4]
 261 003e 1A63     		str	r2, [r3, #48]
 262              	.L12:
 263              		.loc 1 39 0 is_stmt 0 discriminator 1
 264 0040 7B68     		ldr	r3, [r7, #4]
 265 0042 1B6B     		ldr	r3, [r3, #48]
 266 0044 002B     		cmp	r3, #0
 267 0046 E5DA     		bge	.L13
 268              		.loc 1 43 0 is_stmt 1
 269 0048 7B68     		ldr	r3, [r7, #4]
 270 004a 0022     		movs	r2, #0
 271 004c 1A63     		str	r2, [r3, #48]
 272 004e 12E0     		b	.L14
 273              	.L15:
 274              		.loc 1 44 0 discriminator 2
 275 0050 7B68     		ldr	r3, [r7, #4]
 276 0052 1A69     		ldr	r2, [r3, #16]
 277 0054 7B68     		ldr	r3, [r7, #4]
 278 0056 1B6B     		ldr	r3, [r3, #48]
 279 0058 9B00     		lsls	r3, r3, #2
 280 005a 1344     		add	r3, r3, r2
 281 005c 7A68     		ldr	r2, [r7, #4]
 282 005e 9168     		ldr	r1, [r2, #8]
 283 0060 7A68     		ldr	r2, [r7, #4]
ARM GAS  C:\Users\Luis\AppData\Local\Temp\cc59VBSt.s 			page 6


 284 0062 126B     		ldr	r2, [r2, #48]
 285 0064 9200     		lsls	r2, r2, #2
 286 0066 0A44     		add	r2, r2, r1
 287 0068 1268     		ldr	r2, [r2]	@ float
 288 006a 1A60     		str	r2, [r3]	@ float
 289              		.loc 1 43 0 discriminator 2
 290 006c 7B68     		ldr	r3, [r7, #4]
 291 006e 1B6B     		ldr	r3, [r3, #48]
 292 0070 5A1C     		adds	r2, r3, #1
 293 0072 7B68     		ldr	r3, [r7, #4]
 294 0074 1A63     		str	r2, [r3, #48]
 295              	.L14:
 296              		.loc 1 43 0 is_stmt 0 discriminator 1
 297 0076 7B68     		ldr	r3, [r7, #4]
 298 0078 1A6B     		ldr	r2, [r3, #48]
 299 007a 7B68     		ldr	r3, [r7, #4]
 300 007c 5B68     		ldr	r3, [r3, #4]
 301 007e 9A42     		cmp	r2, r3
 302 0080 E6DB     		blt	.L15
 303              		.loc 1 46 0 is_stmt 1
 304 0082 0C37     		adds	r7, r7, #12
 305 0084 BD46     		mov	sp, r7
 306              		@ sp needed
 307 0086 5DF8047B 		ldr	r7, [sp], #4
 308 008a 7047     		bx	lr
 309              		.cfi_endproc
 310              	.LFE266:
 311              		.size	_ZN10DataFilter19createArrayInputFIREv, .-_ZN10DataFilter19createArrayInputFIREv
 312 008c AFF30080 		.section	.text._ZN10DataFilter19createArrayInputIIREv,"ax",%progbits
 313              		.align	2
 314              		.p2align 4,,15
 315              		.global	_ZN10DataFilter19createArrayInputIIREv
 316              		.thumb
 317              		.thumb_func
 318              		.type	_ZN10DataFilter19createArrayInputIIREv, %function
 319              	_ZN10DataFilter19createArrayInputIIREv:
 320              	.LFB267:
 321              		.loc 1 48 0
 322              		.cfi_startproc
 323              		@ args = 0, pretend = 0, frame = 8
 324              		@ frame_needed = 1, uses_anonymous_args = 0
 325 0000 80B5     		push	{r7, lr}
 326              		.cfi_def_cfa_offset 8
 327              		.cfi_offset 7, -8
 328              		.cfi_offset 14, -4
 329 0002 82B0     		sub	sp, sp, #8
 330              		.cfi_def_cfa_offset 16
 331 0004 00AF     		add	r7, sp, #0
 332              		.cfi_def_cfa_register 7
 333 0006 7860     		str	r0, [r7, #4]
 334              		.loc 1 50 0
 335 0008 7B68     		ldr	r3, [r7, #4]
 336 000a 5B68     		ldr	r3, [r3, #4]
 337 000c 0A33     		adds	r3, r3, #10
 338 000e 9B00     		lsls	r3, r3, #2
 339 0010 0020     		movs	r0, #0
 340 0012 1946     		mov	r1, r3
ARM GAS  C:\Users\Luis\AppData\Local\Temp\cc59VBSt.s 			page 7


 341 0014 FFF7FEFF 		bl	chHeapAlloc
 342 0018 0246     		mov	r2, r0
 343 001a 7B68     		ldr	r3, [r7, #4]
 344 001c 1A61     		str	r2, [r3, #16]
 345              		.loc 1 51 0
 346 001e 7B68     		ldr	r3, [r7, #4]
 347 0020 0022     		movs	r2, #0
 348 0022 1A63     		str	r2, [r3, #48]
 349 0024 12E0     		b	.L17
 350              	.L18:
 351              		.loc 1 52 0 discriminator 2
 352 0026 7B68     		ldr	r3, [r7, #4]
 353 0028 1A69     		ldr	r2, [r3, #16]
 354 002a 7B68     		ldr	r3, [r7, #4]
 355 002c 1B6B     		ldr	r3, [r3, #48]
 356 002e 9B00     		lsls	r3, r3, #2
 357 0030 1344     		add	r3, r3, r2
 358 0032 7A68     		ldr	r2, [r7, #4]
 359 0034 9168     		ldr	r1, [r2, #8]
 360 0036 7A68     		ldr	r2, [r7, #4]
 361 0038 126B     		ldr	r2, [r2, #48]
 362 003a 9200     		lsls	r2, r2, #2
 363 003c 0A44     		add	r2, r2, r1
 364 003e 1268     		ldr	r2, [r2]	@ float
 365 0040 1A60     		str	r2, [r3]	@ float
 366              		.loc 1 51 0 discriminator 2
 367 0042 7B68     		ldr	r3, [r7, #4]
 368 0044 1B6B     		ldr	r3, [r3, #48]
 369 0046 5A1C     		adds	r2, r3, #1
 370 0048 7B68     		ldr	r3, [r7, #4]
 371 004a 1A63     		str	r2, [r3, #48]
 372              	.L17:
 373              		.loc 1 51 0 is_stmt 0 discriminator 1
 374 004c 7B68     		ldr	r3, [r7, #4]
 375 004e 1A6B     		ldr	r2, [r3, #48]
 376 0050 7B68     		ldr	r3, [r7, #4]
 377 0052 5B68     		ldr	r3, [r3, #4]
 378 0054 9A42     		cmp	r2, r3
 379 0056 E6DB     		blt	.L18
 380              		.loc 1 54 0 is_stmt 1
 381 0058 0837     		adds	r7, r7, #8
 382 005a BD46     		mov	sp, r7
 383              		@ sp needed
 384 005c 80BD     		pop	{r7, pc}
 385              		.cfi_endproc
 386              	.LFE267:
 387              		.size	_ZN10DataFilter19createArrayInputIIREv, .-_ZN10DataFilter19createArrayInputIIREv
 388 005e 00BF     		.section	.text._ZN10DataFilter9moveArrayEPf,"ax",%progbits
 389              		.align	2
 390              		.p2align 4,,15
 391              		.global	_ZN10DataFilter9moveArrayEPf
 392              		.thumb
 393              		.thumb_func
 394              		.type	_ZN10DataFilter9moveArrayEPf, %function
 395              	_ZN10DataFilter9moveArrayEPf:
 396              	.LFB268:
 397              		.loc 1 70 0
ARM GAS  C:\Users\Luis\AppData\Local\Temp\cc59VBSt.s 			page 8


 398              		.cfi_startproc
 399              		@ args = 0, pretend = 0, frame = 8
 400              		@ frame_needed = 1, uses_anonymous_args = 0
 401              		@ link register save eliminated.
 402 0000 80B4     		push	{r7}
 403              		.cfi_def_cfa_offset 4
 404              		.cfi_offset 7, -4
 405 0002 83B0     		sub	sp, sp, #12
 406              		.cfi_def_cfa_offset 16
 407 0004 00AF     		add	r7, sp, #0
 408              		.cfi_def_cfa_register 7
 409 0006 7860     		str	r0, [r7, #4]
 410 0008 3960     		str	r1, [r7]
 411              		.loc 1 71 0
 412 000a 7B68     		ldr	r3, [r7, #4]
 413 000c 0022     		movs	r2, #0
 414 000e 1A63     		str	r2, [r3, #48]
 415 0010 11E0     		b	.L20
 416              	.L21:
 417              		.loc 1 72 0 discriminator 2
 418 0012 7B68     		ldr	r3, [r7, #4]
 419 0014 1B6B     		ldr	r3, [r3, #48]
 420 0016 9B00     		lsls	r3, r3, #2
 421 0018 3A68     		ldr	r2, [r7]
 422 001a 1344     		add	r3, r3, r2
 423 001c 7A68     		ldr	r2, [r7, #4]
 424 001e 126B     		ldr	r2, [r2, #48]
 425 0020 0A32     		adds	r2, r2, #10
 426 0022 9200     		lsls	r2, r2, #2
 427 0024 3968     		ldr	r1, [r7]
 428 0026 0A44     		add	r2, r2, r1
 429 0028 1268     		ldr	r2, [r2]	@ float
 430 002a 1A60     		str	r2, [r3]	@ float
 431              		.loc 1 71 0 discriminator 2
 432 002c 7B68     		ldr	r3, [r7, #4]
 433 002e 1B6B     		ldr	r3, [r3, #48]
 434 0030 5A1C     		adds	r2, r3, #1
 435 0032 7B68     		ldr	r3, [r7, #4]
 436 0034 1A63     		str	r2, [r3, #48]
 437              	.L20:
 438              		.loc 1 71 0 is_stmt 0 discriminator 1
 439 0036 7B68     		ldr	r3, [r7, #4]
 440 0038 1A6B     		ldr	r2, [r3, #48]
 441 003a 7B68     		ldr	r3, [r7, #4]
 442 003c 5B68     		ldr	r3, [r3, #4]
 443 003e 9A42     		cmp	r2, r3
 444 0040 E7DB     		blt	.L21
 445              		.loc 1 74 0 is_stmt 1
 446 0042 0C37     		adds	r7, r7, #12
 447 0044 BD46     		mov	sp, r7
 448              		@ sp needed
 449 0046 5DF8047B 		ldr	r7, [sp], #4
 450 004a 7047     		bx	lr
 451              		.cfi_endproc
 452              	.LFE268:
 453              		.size	_ZN10DataFilter9moveArrayEPf, .-_ZN10DataFilter9moveArrayEPf
 454 004c AFF30080 		.section	.text._ZNK10DataFilter14getArrayResultEv,"ax",%progbits
ARM GAS  C:\Users\Luis\AppData\Local\Temp\cc59VBSt.s 			page 9


 455              		.align	2
 456              		.p2align 4,,15
 457              		.global	_ZNK10DataFilter14getArrayResultEv
 458              		.thumb
 459              		.thumb_func
 460              		.type	_ZNK10DataFilter14getArrayResultEv, %function
 461              	_ZNK10DataFilter14getArrayResultEv:
 462              	.LFB269:
 463              		.loc 1 83 0
 464              		.cfi_startproc
 465              		@ args = 0, pretend = 0, frame = 8
 466              		@ frame_needed = 1, uses_anonymous_args = 0
 467              		@ link register save eliminated.
 468 0000 80B4     		push	{r7}
 469              		.cfi_def_cfa_offset 4
 470              		.cfi_offset 7, -4
 471 0002 83B0     		sub	sp, sp, #12
 472              		.cfi_def_cfa_offset 16
 473 0004 00AF     		add	r7, sp, #0
 474              		.cfi_def_cfa_register 7
 475 0006 7860     		str	r0, [r7, #4]
 476              		.loc 1 84 0
 477 0008 7B68     		ldr	r3, [r7, #4]
 478 000a 1B6A     		ldr	r3, [r3, #32]
 479              		.loc 1 85 0
 480 000c 1846     		mov	r0, r3
 481 000e 0C37     		adds	r7, r7, #12
 482 0010 BD46     		mov	sp, r7
 483              		@ sp needed
 484 0012 5DF8047B 		ldr	r7, [sp], #4
 485 0016 7047     		bx	lr
 486              		.cfi_endproc
 487              	.LFE269:
 488              		.size	_ZNK10DataFilter14getArrayResultEv, .-_ZNK10DataFilter14getArrayResultEv
 489 0018 AFF30080 		.section	.text._ZN10DataFilter14setArrayResultEPf,"ax",%progbits
 489      AFF30080 
 490              		.align	2
 491              		.p2align 4,,15
 492              		.global	_ZN10DataFilter14setArrayResultEPf
 493              		.thumb
 494              		.thumb_func
 495              		.type	_ZN10DataFilter14setArrayResultEPf, %function
 496              	_ZN10DataFilter14setArrayResultEPf:
 497              	.LFB270:
 498              		.loc 1 87 0
 499              		.cfi_startproc
 500              		@ args = 0, pretend = 0, frame = 8
 501              		@ frame_needed = 1, uses_anonymous_args = 0
 502              		@ link register save eliminated.
 503 0000 80B4     		push	{r7}
 504              		.cfi_def_cfa_offset 4
 505              		.cfi_offset 7, -4
 506 0002 83B0     		sub	sp, sp, #12
 507              		.cfi_def_cfa_offset 16
 508 0004 00AF     		add	r7, sp, #0
 509              		.cfi_def_cfa_register 7
 510 0006 7860     		str	r0, [r7, #4]
ARM GAS  C:\Users\Luis\AppData\Local\Temp\cc59VBSt.s 			page 10


 511 0008 3960     		str	r1, [r7]
 512              		.loc 1 88 0
 513 000a 7B68     		ldr	r3, [r7, #4]
 514 000c 3A68     		ldr	r2, [r7]
 515 000e 1A62     		str	r2, [r3, #32]
 516              		.loc 1 89 0
 517 0010 0C37     		adds	r7, r7, #12
 518 0012 BD46     		mov	sp, r7
 519              		@ sp needed
 520 0014 5DF8047B 		ldr	r7, [sp], #4
 521 0018 7047     		bx	lr
 522              		.cfi_endproc
 523              	.LFE270:
 524              		.size	_ZN10DataFilter14setArrayResultEPf, .-_ZN10DataFilter14setArrayResultEPf
 525 001a 00BFAFF3 		.section	.text._ZNK10DataFilter13getNumbOutputEv,"ax",%progbits
 525      0080
 526              		.align	2
 527              		.p2align 4,,15
 528              		.global	_ZNK10DataFilter13getNumbOutputEv
 529              		.thumb
 530              		.thumb_func
 531              		.type	_ZNK10DataFilter13getNumbOutputEv, %function
 532              	_ZNK10DataFilter13getNumbOutputEv:
 533              	.LFB271:
 534              		.loc 1 91 0
 535              		.cfi_startproc
 536              		@ args = 0, pretend = 0, frame = 8
 537              		@ frame_needed = 1, uses_anonymous_args = 0
 538              		@ link register save eliminated.
 539 0000 80B4     		push	{r7}
 540              		.cfi_def_cfa_offset 4
 541              		.cfi_offset 7, -4
 542 0002 83B0     		sub	sp, sp, #12
 543              		.cfi_def_cfa_offset 16
 544 0004 00AF     		add	r7, sp, #0
 545              		.cfi_def_cfa_register 7
 546 0006 7860     		str	r0, [r7, #4]
 547              		.loc 1 92 0
 548 0008 7B68     		ldr	r3, [r7, #4]
 549 000a 9B6A     		ldr	r3, [r3, #40]
 550              		.loc 1 93 0
 551 000c 1846     		mov	r0, r3
 552 000e 0C37     		adds	r7, r7, #12
 553 0010 BD46     		mov	sp, r7
 554              		@ sp needed
 555 0012 5DF8047B 		ldr	r7, [sp], #4
 556 0016 7047     		bx	lr
 557              		.cfi_endproc
 558              	.LFE271:
 559              		.size	_ZNK10DataFilter13getNumbOutputEv, .-_ZNK10DataFilter13getNumbOutputEv
 560 0018 AFF30080 		.section	.text._ZN10DataFilter13setNumbOutputEi,"ax",%progbits
 560      AFF30080 
 561              		.align	2
 562              		.p2align 4,,15
 563              		.global	_ZN10DataFilter13setNumbOutputEi
 564              		.thumb
 565              		.thumb_func
ARM GAS  C:\Users\Luis\AppData\Local\Temp\cc59VBSt.s 			page 11


 566              		.type	_ZN10DataFilter13setNumbOutputEi, %function
 567              	_ZN10DataFilter13setNumbOutputEi:
 568              	.LFB272:
 569              		.loc 1 95 0
 570              		.cfi_startproc
 571              		@ args = 0, pretend = 0, frame = 8
 572              		@ frame_needed = 1, uses_anonymous_args = 0
 573              		@ link register save eliminated.
 574 0000 80B4     		push	{r7}
 575              		.cfi_def_cfa_offset 4
 576              		.cfi_offset 7, -4
 577 0002 83B0     		sub	sp, sp, #12
 578              		.cfi_def_cfa_offset 16
 579 0004 00AF     		add	r7, sp, #0
 580              		.cfi_def_cfa_register 7
 581 0006 7860     		str	r0, [r7, #4]
 582 0008 3960     		str	r1, [r7]
 583              		.loc 1 96 0
 584 000a 7B68     		ldr	r3, [r7, #4]
 585 000c 3A68     		ldr	r2, [r7]
 586 000e 9A62     		str	r2, [r3, #40]
 587              		.loc 1 97 0
 588 0010 0C37     		adds	r7, r7, #12
 589 0012 BD46     		mov	sp, r7
 590              		@ sp needed
 591 0014 5DF8047B 		ldr	r7, [sp], #4
 592 0018 7047     		bx	lr
 593              		.cfi_endproc
 594              	.LFE272:
 595              		.size	_ZN10DataFilter13setNumbOutputEi, .-_ZN10DataFilter13setNumbOutputEi
 596 001a 00BFAFF3 		.section	.text._ZNK10DataFilter21getArrayCoefficientsBEv,"ax",%progbits
 596      0080
 597              		.align	2
 598              		.p2align 4,,15
 599              		.global	_ZNK10DataFilter21getArrayCoefficientsBEv
 600              		.thumb
 601              		.thumb_func
 602              		.type	_ZNK10DataFilter21getArrayCoefficientsBEv, %function
 603              	_ZNK10DataFilter21getArrayCoefficientsBEv:
 604              	.LFB273:
 605              		.loc 1 99 0
 606              		.cfi_startproc
 607              		@ args = 0, pretend = 0, frame = 8
 608              		@ frame_needed = 1, uses_anonymous_args = 0
 609              		@ link register save eliminated.
 610 0000 80B4     		push	{r7}
 611              		.cfi_def_cfa_offset 4
 612              		.cfi_offset 7, -4
 613 0002 83B0     		sub	sp, sp, #12
 614              		.cfi_def_cfa_offset 16
 615 0004 00AF     		add	r7, sp, #0
 616              		.cfi_def_cfa_register 7
 617 0006 7860     		str	r0, [r7, #4]
 618              		.loc 1 100 0
 619 0008 7B68     		ldr	r3, [r7, #4]
 620 000a DB68     		ldr	r3, [r3, #12]
 621              		.loc 1 101 0
ARM GAS  C:\Users\Luis\AppData\Local\Temp\cc59VBSt.s 			page 12


 622 000c 1846     		mov	r0, r3
 623 000e 0C37     		adds	r7, r7, #12
 624 0010 BD46     		mov	sp, r7
 625              		@ sp needed
 626 0012 5DF8047B 		ldr	r7, [sp], #4
 627 0016 7047     		bx	lr
 628              		.cfi_endproc
 629              	.LFE273:
 630              		.size	_ZNK10DataFilter21getArrayCoefficientsBEv, .-_ZNK10DataFilter21getArrayCoefficientsBEv
 631 0018 AFF30080 		.section	.text._ZN10DataFilter21setArrayCoefficientsBEPf,"ax",%progbits
 631      AFF30080 
 632              		.align	2
 633              		.p2align 4,,15
 634              		.global	_ZN10DataFilter21setArrayCoefficientsBEPf
 635              		.thumb
 636              		.thumb_func
 637              		.type	_ZN10DataFilter21setArrayCoefficientsBEPf, %function
 638              	_ZN10DataFilter21setArrayCoefficientsBEPf:
 639              	.LFB274:
 640              		.loc 1 103 0
 641              		.cfi_startproc
 642              		@ args = 0, pretend = 0, frame = 8
 643              		@ frame_needed = 1, uses_anonymous_args = 0
 644              		@ link register save eliminated.
 645 0000 80B4     		push	{r7}
 646              		.cfi_def_cfa_offset 4
 647              		.cfi_offset 7, -4
 648 0002 83B0     		sub	sp, sp, #12
 649              		.cfi_def_cfa_offset 16
 650 0004 00AF     		add	r7, sp, #0
 651              		.cfi_def_cfa_register 7
 652 0006 7860     		str	r0, [r7, #4]
 653 0008 3960     		str	r1, [r7]
 654              		.loc 1 104 0
 655 000a 7B68     		ldr	r3, [r7, #4]
 656 000c 0022     		movs	r2, #0
 657 000e 1A63     		str	r2, [r3, #48]
 658 0010 11E0     		b	.L31
 659              	.L32:
 660              		.loc 1 105 0 discriminator 2
 661 0012 7B68     		ldr	r3, [r7, #4]
 662 0014 DA68     		ldr	r2, [r3, #12]
 663 0016 7B68     		ldr	r3, [r7, #4]
 664 0018 1B6B     		ldr	r3, [r3, #48]
 665 001a 9B00     		lsls	r3, r3, #2
 666 001c 1344     		add	r3, r3, r2
 667 001e 7A68     		ldr	r2, [r7, #4]
 668 0020 126B     		ldr	r2, [r2, #48]
 669 0022 9200     		lsls	r2, r2, #2
 670 0024 3968     		ldr	r1, [r7]
 671 0026 0A44     		add	r2, r2, r1
 672 0028 1268     		ldr	r2, [r2]	@ float
 673 002a 1A60     		str	r2, [r3]	@ float
 674              		.loc 1 104 0 discriminator 2
 675 002c 7B68     		ldr	r3, [r7, #4]
 676 002e 1B6B     		ldr	r3, [r3, #48]
 677 0030 5A1C     		adds	r2, r3, #1
ARM GAS  C:\Users\Luis\AppData\Local\Temp\cc59VBSt.s 			page 13


 678 0032 7B68     		ldr	r3, [r7, #4]
 679 0034 1A63     		str	r2, [r3, #48]
 680              	.L31:
 681              		.loc 1 104 0 is_stmt 0 discriminator 1
 682 0036 7B68     		ldr	r3, [r7, #4]
 683 0038 1A6B     		ldr	r2, [r3, #48]
 684 003a 7B68     		ldr	r3, [r7, #4]
 685 003c 5B68     		ldr	r3, [r3, #4]
 686 003e 0133     		adds	r3, r3, #1
 687 0040 9A42     		cmp	r2, r3
 688 0042 E6DB     		blt	.L32
 689              		.loc 1 107 0 is_stmt 1
 690 0044 0C37     		adds	r7, r7, #12
 691 0046 BD46     		mov	sp, r7
 692              		@ sp needed
 693 0048 5DF8047B 		ldr	r7, [sp], #4
 694 004c 7047     		bx	lr
 695              		.cfi_endproc
 696              	.LFE274:
 697              		.size	_ZN10DataFilter21setArrayCoefficientsBEPf, .-_ZN10DataFilter21setArrayCoefficientsBEPf
 698 004e 00BF     		.section	.text._ZN10DataFilter26setArrayInitialConditionsXEPf,"ax",%progbits
 699              		.align	2
 700              		.p2align 4,,15
 701              		.global	_ZN10DataFilter26setArrayInitialConditionsXEPf
 702              		.thumb
 703              		.thumb_func
 704              		.type	_ZN10DataFilter26setArrayInitialConditionsXEPf, %function
 705              	_ZN10DataFilter26setArrayInitialConditionsXEPf:
 706              	.LFB275:
 707              		.loc 1 109 0
 708              		.cfi_startproc
 709              		@ args = 0, pretend = 0, frame = 8
 710              		@ frame_needed = 1, uses_anonymous_args = 0
 711              		@ link register save eliminated.
 712 0000 80B4     		push	{r7}
 713              		.cfi_def_cfa_offset 4
 714              		.cfi_offset 7, -4
 715 0002 83B0     		sub	sp, sp, #12
 716              		.cfi_def_cfa_offset 16
 717 0004 00AF     		add	r7, sp, #0
 718              		.cfi_def_cfa_register 7
 719 0006 7860     		str	r0, [r7, #4]
 720 0008 3960     		str	r1, [r7]
 721              		.loc 1 110 0
 722 000a 7B68     		ldr	r3, [r7, #4]
 723 000c 0022     		movs	r2, #0
 724 000e 1A63     		str	r2, [r3, #48]
 725 0010 11E0     		b	.L34
 726              	.L35:
 727              		.loc 1 111 0 discriminator 2
 728 0012 7B68     		ldr	r3, [r7, #4]
 729 0014 9A68     		ldr	r2, [r3, #8]
 730 0016 7B68     		ldr	r3, [r7, #4]
 731 0018 1B6B     		ldr	r3, [r3, #48]
 732 001a 9B00     		lsls	r3, r3, #2
 733 001c 1344     		add	r3, r3, r2
 734 001e 7A68     		ldr	r2, [r7, #4]
ARM GAS  C:\Users\Luis\AppData\Local\Temp\cc59VBSt.s 			page 14


 735 0020 126B     		ldr	r2, [r2, #48]
 736 0022 9200     		lsls	r2, r2, #2
 737 0024 3968     		ldr	r1, [r7]
 738 0026 0A44     		add	r2, r2, r1
 739 0028 1268     		ldr	r2, [r2]	@ float
 740 002a 1A60     		str	r2, [r3]	@ float
 741              		.loc 1 110 0 discriminator 2
 742 002c 7B68     		ldr	r3, [r7, #4]
 743 002e 1B6B     		ldr	r3, [r3, #48]
 744 0030 5A1C     		adds	r2, r3, #1
 745 0032 7B68     		ldr	r3, [r7, #4]
 746 0034 1A63     		str	r2, [r3, #48]
 747              	.L34:
 748              		.loc 1 110 0 is_stmt 0 discriminator 1
 749 0036 7B68     		ldr	r3, [r7, #4]
 750 0038 1A6B     		ldr	r2, [r3, #48]
 751 003a 7B68     		ldr	r3, [r7, #4]
 752 003c 5B68     		ldr	r3, [r3, #4]
 753 003e 9A42     		cmp	r2, r3
 754 0040 E7DB     		blt	.L35
 755              		.loc 1 113 0 is_stmt 1
 756 0042 0C37     		adds	r7, r7, #12
 757 0044 BD46     		mov	sp, r7
 758              		@ sp needed
 759 0046 5DF8047B 		ldr	r7, [sp], #4
 760 004a 7047     		bx	lr
 761              		.cfi_endproc
 762              	.LFE275:
 763              		.size	_ZN10DataFilter26setArrayInitialConditionsXEPf, .-_ZN10DataFilter26setArrayInitialConditions
 764 004c AFF30080 		.section	.text._ZNK10DataFilter15getArrayInputsXEv,"ax",%progbits
 765              		.align	2
 766              		.p2align 4,,15
 767              		.global	_ZNK10DataFilter15getArrayInputsXEv
 768              		.thumb
 769              		.thumb_func
 770              		.type	_ZNK10DataFilter15getArrayInputsXEv, %function
 771              	_ZNK10DataFilter15getArrayInputsXEv:
 772              	.LFB276:
 773              		.loc 1 115 0
 774              		.cfi_startproc
 775              		@ args = 0, pretend = 0, frame = 8
 776              		@ frame_needed = 1, uses_anonymous_args = 0
 777              		@ link register save eliminated.
 778 0000 80B4     		push	{r7}
 779              		.cfi_def_cfa_offset 4
 780              		.cfi_offset 7, -4
 781 0002 83B0     		sub	sp, sp, #12
 782              		.cfi_def_cfa_offset 16
 783 0004 00AF     		add	r7, sp, #0
 784              		.cfi_def_cfa_register 7
 785 0006 7860     		str	r0, [r7, #4]
 786              		.loc 1 116 0
 787 0008 7B68     		ldr	r3, [r7, #4]
 788 000a 1B69     		ldr	r3, [r3, #16]
 789              		.loc 1 117 0
 790 000c 1846     		mov	r0, r3
 791 000e 0C37     		adds	r7, r7, #12
ARM GAS  C:\Users\Luis\AppData\Local\Temp\cc59VBSt.s 			page 15


 792 0010 BD46     		mov	sp, r7
 793              		@ sp needed
 794 0012 5DF8047B 		ldr	r7, [sp], #4
 795 0016 7047     		bx	lr
 796              		.cfi_endproc
 797              	.LFE276:
 798              		.size	_ZNK10DataFilter15getArrayInputsXEv, .-_ZNK10DataFilter15getArrayInputsXEv
 799 0018 AFF30080 		.section	.text._ZN10DataFilter15setArrayInputsXEPfi,"ax",%progbits
 799      AFF30080 
 800              		.align	2
 801              		.p2align 4,,15
 802              		.global	_ZN10DataFilter15setArrayInputsXEPfi
 803              		.thumb
 804              		.thumb_func
 805              		.type	_ZN10DataFilter15setArrayInputsXEPfi, %function
 806              	_ZN10DataFilter15setArrayInputsXEPfi:
 807              	.LFB277:
 808              		.loc 1 119 0
 809              		.cfi_startproc
 810              		@ args = 0, pretend = 0, frame = 16
 811              		@ frame_needed = 1, uses_anonymous_args = 0
 812 0000 80B5     		push	{r7, lr}
 813              		.cfi_def_cfa_offset 8
 814              		.cfi_offset 7, -8
 815              		.cfi_offset 14, -4
 816 0002 84B0     		sub	sp, sp, #16
 817              		.cfi_def_cfa_offset 24
 818 0004 00AF     		add	r7, sp, #0
 819              		.cfi_def_cfa_register 7
 820 0006 F860     		str	r0, [r7, #12]
 821 0008 B960     		str	r1, [r7, #8]
 822 000a 7A60     		str	r2, [r7, #4]
 823              		.loc 1 120 0
 824 000c FB68     		ldr	r3, [r7, #12]
 825 000e 7A68     		ldr	r2, [r7, #4]
 826 0010 9A62     		str	r2, [r3, #40]
 827              		.loc 1 121 0
 828 0012 FB68     		ldr	r3, [r7, #12]
 829 0014 5A68     		ldr	r2, [r3, #4]
 830 0016 7B68     		ldr	r3, [r7, #4]
 831 0018 1344     		add	r3, r3, r2
 832 001a 9B00     		lsls	r3, r3, #2
 833 001c 0020     		movs	r0, #0
 834 001e 1946     		mov	r1, r3
 835 0020 FFF7FEFF 		bl	chHeapAlloc
 836 0024 0246     		mov	r2, r0
 837 0026 FB68     		ldr	r3, [r7, #12]
 838 0028 1A61     		str	r2, [r3, #16]
 839              		.loc 1 122 0
 840 002a FB68     		ldr	r3, [r7, #12]
 841 002c 0022     		movs	r2, #0
 842 002e 1A63     		str	r2, [r3, #48]
 843 0030 11E0     		b	.L39
 844              	.L40:
 845              		.loc 1 123 0 discriminator 2
 846 0032 FB68     		ldr	r3, [r7, #12]
 847 0034 1A69     		ldr	r2, [r3, #16]
ARM GAS  C:\Users\Luis\AppData\Local\Temp\cc59VBSt.s 			page 16


 848 0036 FB68     		ldr	r3, [r7, #12]
 849 0038 1B6B     		ldr	r3, [r3, #48]
 850 003a 9B00     		lsls	r3, r3, #2
 851 003c 1344     		add	r3, r3, r2
 852 003e FA68     		ldr	r2, [r7, #12]
 853 0040 126B     		ldr	r2, [r2, #48]
 854 0042 9200     		lsls	r2, r2, #2
 855 0044 B968     		ldr	r1, [r7, #8]
 856 0046 0A44     		add	r2, r2, r1
 857 0048 1268     		ldr	r2, [r2]	@ float
 858 004a 1A60     		str	r2, [r3]	@ float
 859              		.loc 1 122 0 discriminator 2
 860 004c FB68     		ldr	r3, [r7, #12]
 861 004e 1B6B     		ldr	r3, [r3, #48]
 862 0050 5A1C     		adds	r2, r3, #1
 863 0052 FB68     		ldr	r3, [r7, #12]
 864 0054 1A63     		str	r2, [r3, #48]
 865              	.L39:
 866              		.loc 1 122 0 is_stmt 0 discriminator 1
 867 0056 FB68     		ldr	r3, [r7, #12]
 868 0058 1A6B     		ldr	r2, [r3, #48]
 869 005a 7B68     		ldr	r3, [r7, #4]
 870 005c 9A42     		cmp	r2, r3
 871 005e E8DB     		blt	.L40
 872              		.loc 1 125 0 is_stmt 1
 873 0060 FB68     		ldr	r3, [r7, #12]
 874 0062 9B6A     		ldr	r3, [r3, #40]
 875 0064 9B00     		lsls	r3, r3, #2
 876 0066 0020     		movs	r0, #0
 877 0068 1946     		mov	r1, r3
 878 006a FFF7FEFF 		bl	chHeapAlloc
 879 006e 0246     		mov	r2, r0
 880 0070 FB68     		ldr	r3, [r7, #12]
 881 0072 1A62     		str	r2, [r3, #32]
 882              		.loc 1 126 0
 883 0074 1037     		adds	r7, r7, #16
 884 0076 BD46     		mov	sp, r7
 885              		@ sp needed
 886 0078 80BD     		pop	{r7, pc}
 887              		.cfi_endproc
 888              	.LFE277:
 889              		.size	_ZN10DataFilter15setArrayInputsXEPfi, .-_ZN10DataFilter15setArrayInputsXEPfi
 890 007a 00BFAFF3 		.section	.text._ZNK10DataFilter14getFilterOrderEv,"ax",%progbits
 890      0080
 891              		.align	2
 892              		.p2align 4,,15
 893              		.global	_ZNK10DataFilter14getFilterOrderEv
 894              		.thumb
 895              		.thumb_func
 896              		.type	_ZNK10DataFilter14getFilterOrderEv, %function
 897              	_ZNK10DataFilter14getFilterOrderEv:
 898              	.LFB278:
 899              		.loc 1 128 0
 900              		.cfi_startproc
 901              		@ args = 0, pretend = 0, frame = 8
 902              		@ frame_needed = 1, uses_anonymous_args = 0
 903              		@ link register save eliminated.
ARM GAS  C:\Users\Luis\AppData\Local\Temp\cc59VBSt.s 			page 17


 904 0000 80B4     		push	{r7}
 905              		.cfi_def_cfa_offset 4
 906              		.cfi_offset 7, -4
 907 0002 83B0     		sub	sp, sp, #12
 908              		.cfi_def_cfa_offset 16
 909 0004 00AF     		add	r7, sp, #0
 910              		.cfi_def_cfa_register 7
 911 0006 7860     		str	r0, [r7, #4]
 912              		.loc 1 129 0
 913 0008 7B68     		ldr	r3, [r7, #4]
 914 000a 5B68     		ldr	r3, [r3, #4]
 915              		.loc 1 130 0
 916 000c 1846     		mov	r0, r3
 917 000e 0C37     		adds	r7, r7, #12
 918 0010 BD46     		mov	sp, r7
 919              		@ sp needed
 920 0012 5DF8047B 		ldr	r7, [sp], #4
 921 0016 7047     		bx	lr
 922              		.cfi_endproc
 923              	.LFE278:
 924              		.size	_ZNK10DataFilter14getFilterOrderEv, .-_ZNK10DataFilter14getFilterOrderEv
 925 0018 AFF30080 		.section	.text._ZN10DataFilter14setFilterOrderEi,"ax",%progbits
 925      AFF30080 
 926              		.align	2
 927              		.p2align 4,,15
 928              		.global	_ZN10DataFilter14setFilterOrderEi
 929              		.thumb
 930              		.thumb_func
 931              		.type	_ZN10DataFilter14setFilterOrderEi, %function
 932              	_ZN10DataFilter14setFilterOrderEi:
 933              	.LFB279:
 934              		.loc 1 132 0
 935              		.cfi_startproc
 936              		@ args = 0, pretend = 0, frame = 8
 937              		@ frame_needed = 1, uses_anonymous_args = 0
 938              		@ link register save eliminated.
 939 0000 80B4     		push	{r7}
 940              		.cfi_def_cfa_offset 4
 941              		.cfi_offset 7, -4
 942 0002 83B0     		sub	sp, sp, #12
 943              		.cfi_def_cfa_offset 16
 944 0004 00AF     		add	r7, sp, #0
 945              		.cfi_def_cfa_register 7
 946 0006 7860     		str	r0, [r7, #4]
 947 0008 3960     		str	r1, [r7]
 948              		.loc 1 133 0
 949 000a 7B68     		ldr	r3, [r7, #4]
 950 000c 3A68     		ldr	r2, [r7]
 951 000e 5A60     		str	r2, [r3, #4]
 952              		.loc 1 134 0
 953 0010 0C37     		adds	r7, r7, #12
 954 0012 BD46     		mov	sp, r7
 955              		@ sp needed
 956 0014 5DF8047B 		ldr	r7, [sp], #4
 957 0018 7047     		bx	lr
 958              		.cfi_endproc
 959              	.LFE279:
ARM GAS  C:\Users\Luis\AppData\Local\Temp\cc59VBSt.s 			page 18


 960              		.size	_ZN10DataFilter14setFilterOrderEi, .-_ZN10DataFilter14setFilterOrderEi
 961 001a 00BFAFF3 		.section	.text._ZNK10DataFilter21getArrayCoefficientsAEv,"ax",%progbits
 961      0080
 962              		.align	2
 963              		.p2align 4,,15
 964              		.global	_ZNK10DataFilter21getArrayCoefficientsAEv
 965              		.thumb
 966              		.thumb_func
 967              		.type	_ZNK10DataFilter21getArrayCoefficientsAEv, %function
 968              	_ZNK10DataFilter21getArrayCoefficientsAEv:
 969              	.LFB280:
 970              		.loc 1 136 0
 971              		.cfi_startproc
 972              		@ args = 0, pretend = 0, frame = 8
 973              		@ frame_needed = 1, uses_anonymous_args = 0
 974              		@ link register save eliminated.
 975 0000 80B4     		push	{r7}
 976              		.cfi_def_cfa_offset 4
 977              		.cfi_offset 7, -4
 978 0002 83B0     		sub	sp, sp, #12
 979              		.cfi_def_cfa_offset 16
 980 0004 00AF     		add	r7, sp, #0
 981              		.cfi_def_cfa_register 7
 982 0006 7860     		str	r0, [r7, #4]
 983              		.loc 1 137 0
 984 0008 7B68     		ldr	r3, [r7, #4]
 985 000a 9B69     		ldr	r3, [r3, #24]
 986              		.loc 1 138 0
 987 000c 1846     		mov	r0, r3
 988 000e 0C37     		adds	r7, r7, #12
 989 0010 BD46     		mov	sp, r7
 990              		@ sp needed
 991 0012 5DF8047B 		ldr	r7, [sp], #4
 992 0016 7047     		bx	lr
 993              		.cfi_endproc
 994              	.LFE280:
 995              		.size	_ZNK10DataFilter21getArrayCoefficientsAEv, .-_ZNK10DataFilter21getArrayCoefficientsAEv
 996 0018 AFF30080 		.section	.text._ZN10DataFilter21setArrayCoefficientsAEPf,"ax",%progbits
 996      AFF30080 
 997              		.align	2
 998              		.p2align 4,,15
 999              		.global	_ZN10DataFilter21setArrayCoefficientsAEPf
 1000              		.thumb
 1001              		.thumb_func
 1002              		.type	_ZN10DataFilter21setArrayCoefficientsAEPf, %function
 1003              	_ZN10DataFilter21setArrayCoefficientsAEPf:
 1004              	.LFB281:
 1005              		.loc 1 140 0
 1006              		.cfi_startproc
 1007              		@ args = 0, pretend = 0, frame = 8
 1008              		@ frame_needed = 1, uses_anonymous_args = 0
 1009              		@ link register save eliminated.
 1010 0000 80B4     		push	{r7}
 1011              		.cfi_def_cfa_offset 4
 1012              		.cfi_offset 7, -4
 1013 0002 83B0     		sub	sp, sp, #12
 1014              		.cfi_def_cfa_offset 16
ARM GAS  C:\Users\Luis\AppData\Local\Temp\cc59VBSt.s 			page 19


 1015 0004 00AF     		add	r7, sp, #0
 1016              		.cfi_def_cfa_register 7
 1017 0006 7860     		str	r0, [r7, #4]
 1018 0008 3960     		str	r1, [r7]
 1019              		.loc 1 141 0
 1020 000a 7B68     		ldr	r3, [r7, #4]
 1021 000c 3A68     		ldr	r2, [r7]
 1022 000e 9A61     		str	r2, [r3, #24]
 1023              		.loc 1 142 0
 1024 0010 0C37     		adds	r7, r7, #12
 1025 0012 BD46     		mov	sp, r7
 1026              		@ sp needed
 1027 0014 5DF8047B 		ldr	r7, [sp], #4
 1028 0018 7047     		bx	lr
 1029              		.cfi_endproc
 1030              	.LFE281:
 1031              		.size	_ZN10DataFilter21setArrayCoefficientsAEPf, .-_ZN10DataFilter21setArrayCoefficientsAEPf
 1032 001a 00BFAFF3 		.section	.text._ZNK10DataFilter26getArrayInitialConditionsYEv,"ax",%progbits
 1032      0080
 1033              		.align	2
 1034              		.p2align 4,,15
 1035              		.global	_ZNK10DataFilter26getArrayInitialConditionsYEv
 1036              		.thumb
 1037              		.thumb_func
 1038              		.type	_ZNK10DataFilter26getArrayInitialConditionsYEv, %function
 1039              	_ZNK10DataFilter26getArrayInitialConditionsYEv:
 1040              	.LFB282:
 1041              		.loc 1 144 0
 1042              		.cfi_startproc
 1043              		@ args = 0, pretend = 0, frame = 8
 1044              		@ frame_needed = 1, uses_anonymous_args = 0
 1045              		@ link register save eliminated.
 1046 0000 80B4     		push	{r7}
 1047              		.cfi_def_cfa_offset 4
 1048              		.cfi_offset 7, -4
 1049 0002 83B0     		sub	sp, sp, #12
 1050              		.cfi_def_cfa_offset 16
 1051 0004 00AF     		add	r7, sp, #0
 1052              		.cfi_def_cfa_register 7
 1053 0006 7860     		str	r0, [r7, #4]
 1054              		.loc 1 145 0
 1055 0008 7B68     		ldr	r3, [r7, #4]
 1056 000a 5B69     		ldr	r3, [r3, #20]
 1057              		.loc 1 146 0
 1058 000c 1846     		mov	r0, r3
 1059 000e 0C37     		adds	r7, r7, #12
 1060 0010 BD46     		mov	sp, r7
 1061              		@ sp needed
 1062 0012 5DF8047B 		ldr	r7, [sp], #4
 1063 0016 7047     		bx	lr
 1064              		.cfi_endproc
 1065              	.LFE282:
 1066              		.size	_ZNK10DataFilter26getArrayInitialConditionsYEv, .-_ZNK10DataFilter26getArrayInitialCondition
 1067 0018 AFF30080 		.section	.text._ZN10DataFilter26setArrayInitialConditionsYEPf,"ax",%progbits
 1067      AFF30080 
 1068              		.align	2
 1069              		.p2align 4,,15
ARM GAS  C:\Users\Luis\AppData\Local\Temp\cc59VBSt.s 			page 20


 1070              		.global	_ZN10DataFilter26setArrayInitialConditionsYEPf
 1071              		.thumb
 1072              		.thumb_func
 1073              		.type	_ZN10DataFilter26setArrayInitialConditionsYEPf, %function
 1074              	_ZN10DataFilter26setArrayInitialConditionsYEPf:
 1075              	.LFB283:
 1076              		.loc 1 148 0
 1077              		.cfi_startproc
 1078              		@ args = 0, pretend = 0, frame = 8
 1079              		@ frame_needed = 1, uses_anonymous_args = 0
 1080              		@ link register save eliminated.
 1081 0000 80B4     		push	{r7}
 1082              		.cfi_def_cfa_offset 4
 1083              		.cfi_offset 7, -4
 1084 0002 83B0     		sub	sp, sp, #12
 1085              		.cfi_def_cfa_offset 16
 1086 0004 00AF     		add	r7, sp, #0
 1087              		.cfi_def_cfa_register 7
 1088 0006 7860     		str	r0, [r7, #4]
 1089 0008 3960     		str	r1, [r7]
 1090              		.loc 1 149 0
 1091 000a 7B68     		ldr	r3, [r7, #4]
 1092 000c 0022     		movs	r2, #0
 1093 000e 1A63     		str	r2, [r3, #48]
 1094 0010 11E0     		b	.L50
 1095              	.L51:
 1096              		.loc 1 150 0 discriminator 2
 1097 0012 7B68     		ldr	r3, [r7, #4]
 1098 0014 DA69     		ldr	r2, [r3, #28]
 1099 0016 7B68     		ldr	r3, [r7, #4]
 1100 0018 1B6B     		ldr	r3, [r3, #48]
 1101 001a 9B00     		lsls	r3, r3, #2
 1102 001c 1344     		add	r3, r3, r2
 1103 001e 7A68     		ldr	r2, [r7, #4]
 1104 0020 126B     		ldr	r2, [r2, #48]
 1105 0022 9200     		lsls	r2, r2, #2
 1106 0024 3968     		ldr	r1, [r7]
 1107 0026 0A44     		add	r2, r2, r1
 1108 0028 1268     		ldr	r2, [r2]	@ float
 1109 002a 1A60     		str	r2, [r3]	@ float
 1110              		.loc 1 149 0 discriminator 2
 1111 002c 7B68     		ldr	r3, [r7, #4]
 1112 002e 1B6B     		ldr	r3, [r3, #48]
 1113 0030 5A1C     		adds	r2, r3, #1
 1114 0032 7B68     		ldr	r3, [r7, #4]
 1115 0034 1A63     		str	r2, [r3, #48]
 1116              	.L50:
 1117              		.loc 1 149 0 is_stmt 0 discriminator 1
 1118 0036 7B68     		ldr	r3, [r7, #4]
 1119 0038 1A6B     		ldr	r2, [r3, #48]
 1120 003a 7B68     		ldr	r3, [r7, #4]
 1121 003c 5B68     		ldr	r3, [r3, #4]
 1122 003e 9A42     		cmp	r2, r3
 1123 0040 E7DB     		blt	.L51
 1124              		.loc 1 152 0 is_stmt 1
 1125 0042 0C37     		adds	r7, r7, #12
 1126 0044 BD46     		mov	sp, r7
ARM GAS  C:\Users\Luis\AppData\Local\Temp\cc59VBSt.s 			page 21


 1127              		@ sp needed
 1128 0046 5DF8047B 		ldr	r7, [sp], #4
 1129 004a 7047     		bx	lr
 1130              		.cfi_endproc
 1131              	.LFE283:
 1132              		.size	_ZN10DataFilter26setArrayInitialConditionsYEPf, .-_ZN10DataFilter26setArrayInitialConditions
 1133 004c AFF30080 		.section	.text._ZNK10DataFilter15getArrayInputsYEv,"ax",%progbits
 1134              		.align	2
 1135              		.p2align 4,,15
 1136              		.global	_ZNK10DataFilter15getArrayInputsYEv
 1137              		.thumb
 1138              		.thumb_func
 1139              		.type	_ZNK10DataFilter15getArrayInputsYEv, %function
 1140              	_ZNK10DataFilter15getArrayInputsYEv:
 1141              	.LFB284:
 1142              		.loc 1 154 0
 1143              		.cfi_startproc
 1144              		@ args = 0, pretend = 0, frame = 8
 1145              		@ frame_needed = 1, uses_anonymous_args = 0
 1146              		@ link register save eliminated.
 1147 0000 80B4     		push	{r7}
 1148              		.cfi_def_cfa_offset 4
 1149              		.cfi_offset 7, -4
 1150 0002 83B0     		sub	sp, sp, #12
 1151              		.cfi_def_cfa_offset 16
 1152 0004 00AF     		add	r7, sp, #0
 1153              		.cfi_def_cfa_register 7
 1154 0006 7860     		str	r0, [r7, #4]
 1155              		.loc 1 155 0
 1156 0008 7B68     		ldr	r3, [r7, #4]
 1157 000a DB69     		ldr	r3, [r3, #28]
 1158              		.loc 1 156 0
 1159 000c 1846     		mov	r0, r3
 1160 000e 0C37     		adds	r7, r7, #12
 1161 0010 BD46     		mov	sp, r7
 1162              		@ sp needed
 1163 0012 5DF8047B 		ldr	r7, [sp], #4
 1164 0016 7047     		bx	lr
 1165              		.cfi_endproc
 1166              	.LFE284:
 1167              		.size	_ZNK10DataFilter15getArrayInputsYEv, .-_ZNK10DataFilter15getArrayInputsYEv
 1168              		.global	_ZTV10DataFilter
 1169 0018 AFF30080 		.section	.rodata._ZTV10DataFilter,"a",%progbits
 1169      AFF30080 
 1170              		.align	3
 1171              		.type	_ZTV10DataFilter, %object
 1172              		.size	_ZTV10DataFilter, 16
 1173              	_ZTV10DataFilter:
 1174 0000 00000000 		.word	0
 1175 0004 00000000 		.word	0
 1176 0008 00000000 		.word	_ZN10DataFilterD1Ev
 1177 000c 00000000 		.word	_ZN10DataFilterD0Ev
 1178              		.text
 1179              	.Letext0:
 1180              		.file 2 "c:\\emtechesdk\\gcc\\arm-none-eabi\\include\\stdint.h"
 1181              		.file 3 "../../ChibiOS/os/rt/ports/ARMCMx/compilers/GCC/chtypes.h"
 1182              		.file 4 "../../ChibiOS/os/rt/include/chsystypes.h"
ARM GAS  C:\Users\Luis\AppData\Local\Temp\cc59VBSt.s 			page 22


 1183              		.file 5 "../../ChibiOS/os/rt/include/chschd.h"
 1184              		.file 6 "../../ChibiOS/os/rt/ports/ARMCMx/chcore.h"
 1185              		.file 7 "../../ChibiOS/os/rt/ports/ARMCMx/chcore_v7m.h"
 1186              		.file 8 "../../ChibiOS/os/rt/include/chdebug.h"
 1187              		.file 9 "../../ChibiOS/os/rt/include/chtm.h"
 1188              		.file 10 "../../ChibiOS/os/rt/include/chstats.h"
 1189              		.file 11 "../../ChibiOS/os/rt/include/chsem.h"
 1190              		.file 12 "../../ChibiOS/os/rt/include/chmtx.h"
 1191              		.file 13 "header/DataFilter.h"
 1192              		.file 14 "../../ChibiOS/os/ext/CMSIS/include/core_cm4.h"