ARM GAS  C:\Users\Luis\AppData\Local\Temp\ccb1YA0P.s 			page 1


   1              		.syntax unified
   2              		.cpu cortex-m4
   3              		.fpu softvfp
   4              		.eabi_attribute 20, 1
   5              		.eabi_attribute 21, 1
   6              		.eabi_attribute 23, 3
   7              		.eabi_attribute 24, 1
   8              		.eabi_attribute 25, 1
   9              		.eabi_attribute 26, 1
  10              		.eabi_attribute 30, 6
  11              		.eabi_attribute 34, 1
  12              		.eabi_attribute 18, 4
  13              		.thumb
  14              		.file	"DataFilter.cpp"
  15              		.text
  16              	.Ltext0:
  17              		.cfi_sections	.debug_frame
  18              		.section	.text._ZN10DataFilter13newDataFilterEi,"ax",%progbits
  19              		.align	2
  20              		.p2align 4,,15
  21              		.global	_ZN10DataFilter13newDataFilterEi
  22              		.thumb
  23              		.thumb_func
  24              		.type	_ZN10DataFilter13newDataFilterEi, %function
  25              	_ZN10DataFilter13newDataFilterEi:
  26              	.LFB261:
  27              		.file 1 "DataFilter.cpp"
  28              		.loc 1 16 0
  29              		.cfi_startproc
  30              		@ args = 0, pretend = 0, frame = 8
  31              		@ frame_needed = 1, uses_anonymous_args = 0
  32 0000 80B5     		push	{r7, lr}
  33              		.cfi_def_cfa_offset 8
  34              		.cfi_offset 7, -8
  35              		.cfi_offset 14, -4
  36 0002 82B0     		sub	sp, sp, #8
  37              		.cfi_def_cfa_offset 16
  38 0004 00AF     		add	r7, sp, #0
  39              		.cfi_def_cfa_register 7
  40 0006 7860     		str	r0, [r7, #4]
  41 0008 3960     		str	r1, [r7]
  42              		.loc 1 20 0
  43 000a 3B68     		ldr	r3, [r7]
  44 000c 9B00     		lsls	r3, r3, #2
  45 000e 0020     		movs	r0, #0
  46 0010 1946     		mov	r1, r3
  47 0012 FFF7FEFF 		bl	chHeapAlloc
  48 0016 0246     		mov	r2, r0
  49 0018 7B68     		ldr	r3, [r7, #4]
  50 001a 9A60     		str	r2, [r3, #8]
  51              		.loc 1 22 0
  52 001c 3B68     		ldr	r3, [r7]
  53 001e 0133     		adds	r3, r3, #1
  54 0020 9B00     		lsls	r3, r3, #2
  55 0022 0020     		movs	r0, #0
  56 0024 1946     		mov	r1, r3
  57 0026 FFF7FEFF 		bl	chHeapAlloc
ARM GAS  C:\Users\Luis\AppData\Local\Temp\ccb1YA0P.s 			page 2


  58 002a 0246     		mov	r2, r0
  59 002c 7B68     		ldr	r3, [r7, #4]
  60 002e DA60     		str	r2, [r3, #12]
  61              		.loc 1 23 0
  62 0030 0823     		movs	r3, #8
  63 0032 0020     		movs	r0, #0
  64 0034 1946     		mov	r1, r3
  65 0036 FFF7FEFF 		bl	chHeapAlloc
  66 003a 0246     		mov	r2, r0
  67 003c 7B68     		ldr	r3, [r7, #4]
  68 003e 5A62     		str	r2, [r3, #36]
  69              		.loc 1 24 0
  70 0040 3B68     		ldr	r3, [r7]
  71 0042 9B00     		lsls	r3, r3, #2
  72 0044 0020     		movs	r0, #0
  73 0046 1946     		mov	r1, r3
  74 0048 FFF7FEFF 		bl	chHeapAlloc
  75 004c 0246     		mov	r2, r0
  76 004e 7B68     		ldr	r3, [r7, #4]
  77 0050 DA61     		str	r2, [r3, #28]
  78              		.loc 1 26 0
  79 0052 3B68     		ldr	r3, [r7]
  80 0054 0A33     		adds	r3, r3, #10
  81 0056 9B00     		lsls	r3, r3, #2
  82 0058 0020     		movs	r0, #0
  83 005a 1946     		mov	r1, r3
  84 005c FFF7FEFF 		bl	chHeapAlloc
  85 0060 0246     		mov	r2, r0
  86 0062 7B68     		ldr	r3, [r7, #4]
  87 0064 1A62     		str	r2, [r3, #32]
  88              		.loc 1 28 0
  89 0066 7868     		ldr	r0, [r7, #4]
  90 0068 3968     		ldr	r1, [r7]
  91 006a FFF7FEFF 		bl	_ZN10DataFilter14setFilterOrderEi
  92              		.loc 1 29 0
  93 006e 0837     		adds	r7, r7, #8
  94 0070 BD46     		mov	sp, r7
  95              		@ sp needed
  96 0072 80BD     		pop	{r7, pc}
  97              		.cfi_endproc
  98              	.LFE261:
  99              		.size	_ZN10DataFilter13newDataFilterEi, .-_ZN10DataFilter13newDataFilterEi
 100 0074 AFF30080 		.section	.text._ZN10DataFilterD2Ev,"ax",%progbits
 100      AFF30080 
 100      AFF30080 
 101              		.align	2
 102              		.p2align 4,,15
 103              		.global	_ZN10DataFilterD2Ev
 104              		.thumb
 105              		.thumb_func
 106              		.type	_ZN10DataFilterD2Ev, %function
 107              	_ZN10DataFilterD2Ev:
 108              	.LFB263:
 109              		.loc 1 30 0
 110              		.cfi_startproc
 111              		@ args = 0, pretend = 0, frame = 8
 112              		@ frame_needed = 1, uses_anonymous_args = 0
ARM GAS  C:\Users\Luis\AppData\Local\Temp\ccb1YA0P.s 			page 3


 113 0000 80B5     		push	{r7, lr}
 114              		.cfi_def_cfa_offset 8
 115              		.cfi_offset 7, -8
 116              		.cfi_offset 14, -4
 117 0002 82B0     		sub	sp, sp, #8
 118              		.cfi_def_cfa_offset 16
 119 0004 00AF     		add	r7, sp, #0
 120              		.cfi_def_cfa_register 7
 121 0006 7860     		str	r0, [r7, #4]
 122              	.LBB2:
 123              		.loc 1 30 0
 124 0008 7B68     		ldr	r3, [r7, #4]
 125 000a 154A     		ldr	r2, .L6
 126 000c 1A60     		str	r2, [r3]
 127              		.loc 1 32 0
 128 000e 7B68     		ldr	r3, [r7, #4]
 129 0010 9B68     		ldr	r3, [r3, #8]
 130 0012 1846     		mov	r0, r3
 131 0014 FFF7FEFF 		bl	chHeapFree
 132              		.loc 1 33 0
 133 0018 7B68     		ldr	r3, [r7, #4]
 134 001a DB68     		ldr	r3, [r3, #12]
 135 001c 1846     		mov	r0, r3
 136 001e FFF7FEFF 		bl	chHeapFree
 137              		.loc 1 34 0
 138 0022 7B68     		ldr	r3, [r7, #4]
 139 0024 5B6A     		ldr	r3, [r3, #36]
 140 0026 1846     		mov	r0, r3
 141 0028 FFF7FEFF 		bl	chHeapFree
 142              		.loc 1 35 0
 143 002c 7B68     		ldr	r3, [r7, #4]
 144 002e DB69     		ldr	r3, [r3, #28]
 145 0030 1846     		mov	r0, r3
 146 0032 FFF7FEFF 		bl	chHeapFree
 147              		.loc 1 36 0
 148 0036 7B68     		ldr	r3, [r7, #4]
 149 0038 1B69     		ldr	r3, [r3, #16]
 150 003a 1846     		mov	r0, r3
 151 003c FFF7FEFF 		bl	chHeapFree
 152              		.loc 1 37 0
 153 0040 7B68     		ldr	r3, [r7, #4]
 154 0042 1B6A     		ldr	r3, [r3, #32]
 155 0044 1846     		mov	r0, r3
 156 0046 FFF7FEFF 		bl	chHeapFree
 157              	.LBE2:
 158              		.loc 1 38 0
 159 004a 0023     		movs	r3, #0
 160 004c 002B     		cmp	r3, #0
 161 004e 02D0     		beq	.L4
 162              		.loc 1 38 0 is_stmt 0 discriminator 1
 163 0050 7868     		ldr	r0, [r7, #4]
 164 0052 FFF7FEFF 		bl	_ZdlPv
 165              	.L4:
 166              		.loc 1 38 0 discriminator 2
 167 0056 7B68     		ldr	r3, [r7, #4]
 168 0058 1846     		mov	r0, r3
 169 005a 0837     		adds	r7, r7, #8
ARM GAS  C:\Users\Luis\AppData\Local\Temp\ccb1YA0P.s 			page 4


 170 005c BD46     		mov	sp, r7
 171              		@ sp needed
 172 005e 80BD     		pop	{r7, pc}
 173              	.L7:
 174              		.align	2
 175              	.L6:
 176 0060 08000000 		.word	_ZTV10DataFilter+8
 177              		.cfi_endproc
 178              	.LFE263:
 179              		.size	_ZN10DataFilterD2Ev, .-_ZN10DataFilterD2Ev
 180              		.global	_ZN10DataFilterD1Ev
 181              		.thumb_set _ZN10DataFilterD1Ev,_ZN10DataFilterD2Ev
 182 0064 AFF30080 		.section	.text._ZN10DataFilterD0Ev,"ax",%progbits
 182      AFF30080 
 182      AFF30080 
 183              		.align	2
 184              		.p2align 4,,15
 185              		.global	_ZN10DataFilterD0Ev
 186              		.thumb
 187              		.thumb_func
 188              		.type	_ZN10DataFilterD0Ev, %function
 189              	_ZN10DataFilterD0Ev:
 190              	.LFB265:
 191              		.loc 1 30 0 is_stmt 1
 192              		.cfi_startproc
 193              		@ args = 0, pretend = 0, frame = 8
 194              		@ frame_needed = 1, uses_anonymous_args = 0
 195 0000 80B5     		push	{r7, lr}
 196              		.cfi_def_cfa_offset 8
 197              		.cfi_offset 7, -8
 198              		.cfi_offset 14, -4
 199 0002 82B0     		sub	sp, sp, #8
 200              		.cfi_def_cfa_offset 16
 201 0004 00AF     		add	r7, sp, #0
 202              		.cfi_def_cfa_register 7
 203 0006 7860     		str	r0, [r7, #4]
 204              		.loc 1 38 0
 205 0008 7868     		ldr	r0, [r7, #4]
 206 000a FFF7FEFF 		bl	_ZN10DataFilterD1Ev
 207 000e 7868     		ldr	r0, [r7, #4]
 208 0010 FFF7FEFF 		bl	_ZdlPv
 209 0014 7B68     		ldr	r3, [r7, #4]
 210 0016 1846     		mov	r0, r3
 211 0018 0837     		adds	r7, r7, #8
 212 001a BD46     		mov	sp, r7
 213              		@ sp needed
 214 001c 80BD     		pop	{r7, pc}
 215              		.cfi_endproc
 216              	.LFE265:
 217              		.size	_ZN10DataFilterD0Ev, .-_ZN10DataFilterD0Ev
 218 001e 00BF     		.section	.text._ZN10DataFilter19createArrayInputFIREv,"ax",%progbits
 219              		.align	2
 220              		.p2align 4,,15
 221              		.global	_ZN10DataFilter19createArrayInputFIREv
 222              		.thumb
 223              		.thumb_func
 224              		.type	_ZN10DataFilter19createArrayInputFIREv, %function
ARM GAS  C:\Users\Luis\AppData\Local\Temp\ccb1YA0P.s 			page 5


 225              	_ZN10DataFilter19createArrayInputFIREv:
 226              	.LFB266:
 227              		.loc 1 40 0
 228              		.cfi_startproc
 229              		@ args = 0, pretend = 0, frame = 8
 230              		@ frame_needed = 1, uses_anonymous_args = 0
 231              		@ link register save eliminated.
 232 0000 80B4     		push	{r7}
 233              		.cfi_def_cfa_offset 4
 234              		.cfi_offset 7, -4
 235 0002 83B0     		sub	sp, sp, #12
 236              		.cfi_def_cfa_offset 16
 237 0004 00AF     		add	r7, sp, #0
 238              		.cfi_def_cfa_register 7
 239 0006 7860     		str	r0, [r7, #4]
 240              		.loc 1 41 0
 241 0008 7B68     		ldr	r3, [r7, #4]
 242 000a 9B6A     		ldr	r3, [r3, #40]
 243 000c 5A1E     		subs	r2, r3, #1
 244 000e 7B68     		ldr	r3, [r7, #4]
 245 0010 1A63     		str	r2, [r3, #48]
 246 0012 15E0     		b	.L12
 247              	.L13:
 248              		.loc 1 42 0 discriminator 2
 249 0014 7B68     		ldr	r3, [r7, #4]
 250 0016 1A69     		ldr	r2, [r3, #16]
 251 0018 7B68     		ldr	r3, [r7, #4]
 252 001a 196B     		ldr	r1, [r3, #48]
 253 001c 7B68     		ldr	r3, [r7, #4]
 254 001e 5B68     		ldr	r3, [r3, #4]
 255 0020 0B44     		add	r3, r3, r1
 256 0022 9B00     		lsls	r3, r3, #2
 257 0024 1344     		add	r3, r3, r2
 258 0026 7A68     		ldr	r2, [r7, #4]
 259 0028 1169     		ldr	r1, [r2, #16]
 260 002a 7A68     		ldr	r2, [r7, #4]
 261 002c 126B     		ldr	r2, [r2, #48]
 262 002e 9200     		lsls	r2, r2, #2
 263 0030 0A44     		add	r2, r2, r1
 264 0032 1268     		ldr	r2, [r2]	@ float
 265 0034 1A60     		str	r2, [r3]	@ float
 266              		.loc 1 41 0 discriminator 2
 267 0036 7B68     		ldr	r3, [r7, #4]
 268 0038 1B6B     		ldr	r3, [r3, #48]
 269 003a 5A1E     		subs	r2, r3, #1
 270 003c 7B68     		ldr	r3, [r7, #4]
 271 003e 1A63     		str	r2, [r3, #48]
 272              	.L12:
 273              		.loc 1 41 0 is_stmt 0 discriminator 1
 274 0040 7B68     		ldr	r3, [r7, #4]
 275 0042 1B6B     		ldr	r3, [r3, #48]
 276 0044 002B     		cmp	r3, #0
 277 0046 E5DA     		bge	.L13
 278              		.loc 1 45 0 is_stmt 1
 279 0048 7B68     		ldr	r3, [r7, #4]
 280 004a 0022     		movs	r2, #0
 281 004c 1A63     		str	r2, [r3, #48]
ARM GAS  C:\Users\Luis\AppData\Local\Temp\ccb1YA0P.s 			page 6


 282 004e 12E0     		b	.L14
 283              	.L15:
 284              		.loc 1 46 0 discriminator 2
 285 0050 7B68     		ldr	r3, [r7, #4]
 286 0052 1A69     		ldr	r2, [r3, #16]
 287 0054 7B68     		ldr	r3, [r7, #4]
 288 0056 1B6B     		ldr	r3, [r3, #48]
 289 0058 9B00     		lsls	r3, r3, #2
 290 005a 1344     		add	r3, r3, r2
 291 005c 7A68     		ldr	r2, [r7, #4]
 292 005e 9168     		ldr	r1, [r2, #8]
 293 0060 7A68     		ldr	r2, [r7, #4]
 294 0062 126B     		ldr	r2, [r2, #48]
 295 0064 9200     		lsls	r2, r2, #2
 296 0066 0A44     		add	r2, r2, r1
 297 0068 1268     		ldr	r2, [r2]	@ float
 298 006a 1A60     		str	r2, [r3]	@ float
 299              		.loc 1 45 0 discriminator 2
 300 006c 7B68     		ldr	r3, [r7, #4]
 301 006e 1B6B     		ldr	r3, [r3, #48]
 302 0070 5A1C     		adds	r2, r3, #1
 303 0072 7B68     		ldr	r3, [r7, #4]
 304 0074 1A63     		str	r2, [r3, #48]
 305              	.L14:
 306              		.loc 1 45 0 is_stmt 0 discriminator 1
 307 0076 7B68     		ldr	r3, [r7, #4]
 308 0078 1A6B     		ldr	r2, [r3, #48]
 309 007a 7B68     		ldr	r3, [r7, #4]
 310 007c 5B68     		ldr	r3, [r3, #4]
 311 007e 9A42     		cmp	r2, r3
 312 0080 E6DB     		blt	.L15
 313              		.loc 1 48 0 is_stmt 1
 314 0082 0C37     		adds	r7, r7, #12
 315 0084 BD46     		mov	sp, r7
 316              		@ sp needed
 317 0086 5DF8047B 		ldr	r7, [sp], #4
 318 008a 7047     		bx	lr
 319              		.cfi_endproc
 320              	.LFE266:
 321              		.size	_ZN10DataFilter19createArrayInputFIREv, .-_ZN10DataFilter19createArrayInputFIREv
 322 008c AFF30080 		.section	.text._ZN10DataFilter19createArrayInputIIREv,"ax",%progbits
 323              		.align	2
 324              		.p2align 4,,15
 325              		.global	_ZN10DataFilter19createArrayInputIIREv
 326              		.thumb
 327              		.thumb_func
 328              		.type	_ZN10DataFilter19createArrayInputIIREv, %function
 329              	_ZN10DataFilter19createArrayInputIIREv:
 330              	.LFB267:
 331              		.loc 1 50 0
 332              		.cfi_startproc
 333              		@ args = 0, pretend = 0, frame = 8
 334              		@ frame_needed = 1, uses_anonymous_args = 0
 335 0000 80B5     		push	{r7, lr}
 336              		.cfi_def_cfa_offset 8
 337              		.cfi_offset 7, -8
 338              		.cfi_offset 14, -4
ARM GAS  C:\Users\Luis\AppData\Local\Temp\ccb1YA0P.s 			page 7


 339 0002 82B0     		sub	sp, sp, #8
 340              		.cfi_def_cfa_offset 16
 341 0004 00AF     		add	r7, sp, #0
 342              		.cfi_def_cfa_register 7
 343 0006 7860     		str	r0, [r7, #4]
 344              		.loc 1 52 0
 345 0008 7B68     		ldr	r3, [r7, #4]
 346 000a 5B68     		ldr	r3, [r3, #4]
 347 000c 0A33     		adds	r3, r3, #10
 348 000e 9B00     		lsls	r3, r3, #2
 349 0010 0020     		movs	r0, #0
 350 0012 1946     		mov	r1, r3
 351 0014 FFF7FEFF 		bl	chHeapAlloc
 352 0018 0246     		mov	r2, r0
 353 001a 7B68     		ldr	r3, [r7, #4]
 354 001c 1A61     		str	r2, [r3, #16]
 355              		.loc 1 53 0
 356 001e 7B68     		ldr	r3, [r7, #4]
 357 0020 0022     		movs	r2, #0
 358 0022 1A63     		str	r2, [r3, #48]
 359 0024 12E0     		b	.L17
 360              	.L18:
 361              		.loc 1 54 0 discriminator 2
 362 0026 7B68     		ldr	r3, [r7, #4]
 363 0028 1A69     		ldr	r2, [r3, #16]
 364 002a 7B68     		ldr	r3, [r7, #4]
 365 002c 1B6B     		ldr	r3, [r3, #48]
 366 002e 9B00     		lsls	r3, r3, #2
 367 0030 1344     		add	r3, r3, r2
 368 0032 7A68     		ldr	r2, [r7, #4]
 369 0034 9168     		ldr	r1, [r2, #8]
 370 0036 7A68     		ldr	r2, [r7, #4]
 371 0038 126B     		ldr	r2, [r2, #48]
 372 003a 9200     		lsls	r2, r2, #2
 373 003c 0A44     		add	r2, r2, r1
 374 003e 1268     		ldr	r2, [r2]	@ float
 375 0040 1A60     		str	r2, [r3]	@ float
 376              		.loc 1 53 0 discriminator 2
 377 0042 7B68     		ldr	r3, [r7, #4]
 378 0044 1B6B     		ldr	r3, [r3, #48]
 379 0046 5A1C     		adds	r2, r3, #1
 380 0048 7B68     		ldr	r3, [r7, #4]
 381 004a 1A63     		str	r2, [r3, #48]
 382              	.L17:
 383              		.loc 1 53 0 is_stmt 0 discriminator 1
 384 004c 7B68     		ldr	r3, [r7, #4]
 385 004e 1A6B     		ldr	r2, [r3, #48]
 386 0050 7B68     		ldr	r3, [r7, #4]
 387 0052 5B68     		ldr	r3, [r3, #4]
 388 0054 9A42     		cmp	r2, r3
 389 0056 E6DB     		blt	.L18
 390              		.loc 1 56 0 is_stmt 1
 391 0058 0837     		adds	r7, r7, #8
 392 005a BD46     		mov	sp, r7
 393              		@ sp needed
 394 005c 80BD     		pop	{r7, pc}
 395              		.cfi_endproc
ARM GAS  C:\Users\Luis\AppData\Local\Temp\ccb1YA0P.s 			page 8


 396              	.LFE267:
 397              		.size	_ZN10DataFilter19createArrayInputIIREv, .-_ZN10DataFilter19createArrayInputIIREv
 398 005e 00BF     		.section	.text._ZN10DataFilter9moveArrayEPf,"ax",%progbits
 399              		.align	2
 400              		.p2align 4,,15
 401              		.global	_ZN10DataFilter9moveArrayEPf
 402              		.thumb
 403              		.thumb_func
 404              		.type	_ZN10DataFilter9moveArrayEPf, %function
 405              	_ZN10DataFilter9moveArrayEPf:
 406              	.LFB268:
 407              		.loc 1 58 0
 408              		.cfi_startproc
 409              		@ args = 0, pretend = 0, frame = 8
 410              		@ frame_needed = 1, uses_anonymous_args = 0
 411              		@ link register save eliminated.
 412 0000 80B4     		push	{r7}
 413              		.cfi_def_cfa_offset 4
 414              		.cfi_offset 7, -4
 415 0002 83B0     		sub	sp, sp, #12
 416              		.cfi_def_cfa_offset 16
 417 0004 00AF     		add	r7, sp, #0
 418              		.cfi_def_cfa_register 7
 419 0006 7860     		str	r0, [r7, #4]
 420 0008 3960     		str	r1, [r7]
 421              		.loc 1 59 0
 422 000a 7B68     		ldr	r3, [r7, #4]
 423 000c 0022     		movs	r2, #0
 424 000e 1A63     		str	r2, [r3, #48]
 425 0010 11E0     		b	.L20
 426              	.L21:
 427              		.loc 1 60 0 discriminator 2
 428 0012 7B68     		ldr	r3, [r7, #4]
 429 0014 1B6B     		ldr	r3, [r3, #48]
 430 0016 9B00     		lsls	r3, r3, #2
 431 0018 3A68     		ldr	r2, [r7]
 432 001a 1344     		add	r3, r3, r2
 433 001c 7A68     		ldr	r2, [r7, #4]
 434 001e 126B     		ldr	r2, [r2, #48]
 435 0020 0A32     		adds	r2, r2, #10
 436 0022 9200     		lsls	r2, r2, #2
 437 0024 3968     		ldr	r1, [r7]
 438 0026 0A44     		add	r2, r2, r1
 439 0028 1268     		ldr	r2, [r2]	@ float
 440 002a 1A60     		str	r2, [r3]	@ float
 441              		.loc 1 59 0 discriminator 2
 442 002c 7B68     		ldr	r3, [r7, #4]
 443 002e 1B6B     		ldr	r3, [r3, #48]
 444 0030 5A1C     		adds	r2, r3, #1
 445 0032 7B68     		ldr	r3, [r7, #4]
 446 0034 1A63     		str	r2, [r3, #48]
 447              	.L20:
 448              		.loc 1 59 0 is_stmt 0 discriminator 1
 449 0036 7B68     		ldr	r3, [r7, #4]
 450 0038 1A6B     		ldr	r2, [r3, #48]
 451 003a 7B68     		ldr	r3, [r7, #4]
 452 003c 5B68     		ldr	r3, [r3, #4]
ARM GAS  C:\Users\Luis\AppData\Local\Temp\ccb1YA0P.s 			page 9


 453 003e 9A42     		cmp	r2, r3
 454 0040 E7DB     		blt	.L21
 455              		.loc 1 62 0 is_stmt 1
 456 0042 0C37     		adds	r7, r7, #12
 457 0044 BD46     		mov	sp, r7
 458              		@ sp needed
 459 0046 5DF8047B 		ldr	r7, [sp], #4
 460 004a 7047     		bx	lr
 461              		.cfi_endproc
 462              	.LFE268:
 463              		.size	_ZN10DataFilter9moveArrayEPf, .-_ZN10DataFilter9moveArrayEPf
 464 004c AFF30080 		.section	.text._ZNK10DataFilter14getArrayResultEv,"ax",%progbits
 465              		.align	2
 466              		.p2align 4,,15
 467              		.global	_ZNK10DataFilter14getArrayResultEv
 468              		.thumb
 469              		.thumb_func
 470              		.type	_ZNK10DataFilter14getArrayResultEv, %function
 471              	_ZNK10DataFilter14getArrayResultEv:
 472              	.LFB269:
 473              		.loc 1 64 0
 474              		.cfi_startproc
 475              		@ args = 0, pretend = 0, frame = 8
 476              		@ frame_needed = 1, uses_anonymous_args = 0
 477              		@ link register save eliminated.
 478 0000 80B4     		push	{r7}
 479              		.cfi_def_cfa_offset 4
 480              		.cfi_offset 7, -4
 481 0002 83B0     		sub	sp, sp, #12
 482              		.cfi_def_cfa_offset 16
 483 0004 00AF     		add	r7, sp, #0
 484              		.cfi_def_cfa_register 7
 485 0006 7860     		str	r0, [r7, #4]
 486              		.loc 1 65 0
 487 0008 7B68     		ldr	r3, [r7, #4]
 488 000a 1B6A     		ldr	r3, [r3, #32]
 489              		.loc 1 66 0
 490 000c 1846     		mov	r0, r3
 491 000e 0C37     		adds	r7, r7, #12
 492 0010 BD46     		mov	sp, r7
 493              		@ sp needed
 494 0012 5DF8047B 		ldr	r7, [sp], #4
 495 0016 7047     		bx	lr
 496              		.cfi_endproc
 497              	.LFE269:
 498              		.size	_ZNK10DataFilter14getArrayResultEv, .-_ZNK10DataFilter14getArrayResultEv
 499 0018 AFF30080 		.section	.text._ZN10DataFilter14setArrayResultEPf,"ax",%progbits
 499      AFF30080 
 500              		.align	2
 501              		.p2align 4,,15
 502              		.global	_ZN10DataFilter14setArrayResultEPf
 503              		.thumb
 504              		.thumb_func
 505              		.type	_ZN10DataFilter14setArrayResultEPf, %function
 506              	_ZN10DataFilter14setArrayResultEPf:
 507              	.LFB270:
 508              		.loc 1 68 0
ARM GAS  C:\Users\Luis\AppData\Local\Temp\ccb1YA0P.s 			page 10


 509              		.cfi_startproc
 510              		@ args = 0, pretend = 0, frame = 8
 511              		@ frame_needed = 1, uses_anonymous_args = 0
 512              		@ link register save eliminated.
 513 0000 80B4     		push	{r7}
 514              		.cfi_def_cfa_offset 4
 515              		.cfi_offset 7, -4
 516 0002 83B0     		sub	sp, sp, #12
 517              		.cfi_def_cfa_offset 16
 518 0004 00AF     		add	r7, sp, #0
 519              		.cfi_def_cfa_register 7
 520 0006 7860     		str	r0, [r7, #4]
 521 0008 3960     		str	r1, [r7]
 522              		.loc 1 69 0
 523 000a 7B68     		ldr	r3, [r7, #4]
 524 000c 3A68     		ldr	r2, [r7]
 525 000e 1A62     		str	r2, [r3, #32]
 526              		.loc 1 70 0
 527 0010 0C37     		adds	r7, r7, #12
 528 0012 BD46     		mov	sp, r7
 529              		@ sp needed
 530 0014 5DF8047B 		ldr	r7, [sp], #4
 531 0018 7047     		bx	lr
 532              		.cfi_endproc
 533              	.LFE270:
 534              		.size	_ZN10DataFilter14setArrayResultEPf, .-_ZN10DataFilter14setArrayResultEPf
 535 001a 00BFAFF3 		.section	.text._ZNK10DataFilter13getNumbOutputEv,"ax",%progbits
 535      0080
 536              		.align	2
 537              		.p2align 4,,15
 538              		.global	_ZNK10DataFilter13getNumbOutputEv
 539              		.thumb
 540              		.thumb_func
 541              		.type	_ZNK10DataFilter13getNumbOutputEv, %function
 542              	_ZNK10DataFilter13getNumbOutputEv:
 543              	.LFB271:
 544              		.loc 1 72 0
 545              		.cfi_startproc
 546              		@ args = 0, pretend = 0, frame = 8
 547              		@ frame_needed = 1, uses_anonymous_args = 0
 548              		@ link register save eliminated.
 549 0000 80B4     		push	{r7}
 550              		.cfi_def_cfa_offset 4
 551              		.cfi_offset 7, -4
 552 0002 83B0     		sub	sp, sp, #12
 553              		.cfi_def_cfa_offset 16
 554 0004 00AF     		add	r7, sp, #0
 555              		.cfi_def_cfa_register 7
 556 0006 7860     		str	r0, [r7, #4]
 557              		.loc 1 73 0
 558 0008 7B68     		ldr	r3, [r7, #4]
 559 000a 9B6A     		ldr	r3, [r3, #40]
 560              		.loc 1 74 0
 561 000c 1846     		mov	r0, r3
 562 000e 0C37     		adds	r7, r7, #12
 563 0010 BD46     		mov	sp, r7
 564              		@ sp needed
ARM GAS  C:\Users\Luis\AppData\Local\Temp\ccb1YA0P.s 			page 11


 565 0012 5DF8047B 		ldr	r7, [sp], #4
 566 0016 7047     		bx	lr
 567              		.cfi_endproc
 568              	.LFE271:
 569              		.size	_ZNK10DataFilter13getNumbOutputEv, .-_ZNK10DataFilter13getNumbOutputEv
 570 0018 AFF30080 		.section	.text._ZN10DataFilter13setNumbOutputEi,"ax",%progbits
 570      AFF30080 
 571              		.align	2
 572              		.p2align 4,,15
 573              		.global	_ZN10DataFilter13setNumbOutputEi
 574              		.thumb
 575              		.thumb_func
 576              		.type	_ZN10DataFilter13setNumbOutputEi, %function
 577              	_ZN10DataFilter13setNumbOutputEi:
 578              	.LFB272:
 579              		.loc 1 76 0
 580              		.cfi_startproc
 581              		@ args = 0, pretend = 0, frame = 8
 582              		@ frame_needed = 1, uses_anonymous_args = 0
 583              		@ link register save eliminated.
 584 0000 80B4     		push	{r7}
 585              		.cfi_def_cfa_offset 4
 586              		.cfi_offset 7, -4
 587 0002 83B0     		sub	sp, sp, #12
 588              		.cfi_def_cfa_offset 16
 589 0004 00AF     		add	r7, sp, #0
 590              		.cfi_def_cfa_register 7
 591 0006 7860     		str	r0, [r7, #4]
 592 0008 3960     		str	r1, [r7]
 593              		.loc 1 77 0
 594 000a 7B68     		ldr	r3, [r7, #4]
 595 000c 3A68     		ldr	r2, [r7]
 596 000e 9A62     		str	r2, [r3, #40]
 597              		.loc 1 78 0
 598 0010 0C37     		adds	r7, r7, #12
 599 0012 BD46     		mov	sp, r7
 600              		@ sp needed
 601 0014 5DF8047B 		ldr	r7, [sp], #4
 602 0018 7047     		bx	lr
 603              		.cfi_endproc
 604              	.LFE272:
 605              		.size	_ZN10DataFilter13setNumbOutputEi, .-_ZN10DataFilter13setNumbOutputEi
 606 001a 00BFAFF3 		.section	.text._ZNK10DataFilter21getArrayCoefficientsBEv,"ax",%progbits
 606      0080
 607              		.align	2
 608              		.p2align 4,,15
 609              		.global	_ZNK10DataFilter21getArrayCoefficientsBEv
 610              		.thumb
 611              		.thumb_func
 612              		.type	_ZNK10DataFilter21getArrayCoefficientsBEv, %function
 613              	_ZNK10DataFilter21getArrayCoefficientsBEv:
 614              	.LFB273:
 615              		.loc 1 80 0
 616              		.cfi_startproc
 617              		@ args = 0, pretend = 0, frame = 8
 618              		@ frame_needed = 1, uses_anonymous_args = 0
 619              		@ link register save eliminated.
ARM GAS  C:\Users\Luis\AppData\Local\Temp\ccb1YA0P.s 			page 12


 620 0000 80B4     		push	{r7}
 621              		.cfi_def_cfa_offset 4
 622              		.cfi_offset 7, -4
 623 0002 83B0     		sub	sp, sp, #12
 624              		.cfi_def_cfa_offset 16
 625 0004 00AF     		add	r7, sp, #0
 626              		.cfi_def_cfa_register 7
 627 0006 7860     		str	r0, [r7, #4]
 628              		.loc 1 81 0
 629 0008 7B68     		ldr	r3, [r7, #4]
 630 000a DB68     		ldr	r3, [r3, #12]
 631              		.loc 1 82 0
 632 000c 1846     		mov	r0, r3
 633 000e 0C37     		adds	r7, r7, #12
 634 0010 BD46     		mov	sp, r7
 635              		@ sp needed
 636 0012 5DF8047B 		ldr	r7, [sp], #4
 637 0016 7047     		bx	lr
 638              		.cfi_endproc
 639              	.LFE273:
 640              		.size	_ZNK10DataFilter21getArrayCoefficientsBEv, .-_ZNK10DataFilter21getArrayCoefficientsBEv
 641 0018 AFF30080 		.section	.text._ZN10DataFilter21setArrayCoefficientsBEPf,"ax",%progbits
 641      AFF30080 
 642              		.align	2
 643              		.p2align 4,,15
 644              		.global	_ZN10DataFilter21setArrayCoefficientsBEPf
 645              		.thumb
 646              		.thumb_func
 647              		.type	_ZN10DataFilter21setArrayCoefficientsBEPf, %function
 648              	_ZN10DataFilter21setArrayCoefficientsBEPf:
 649              	.LFB274:
 650              		.loc 1 84 0
 651              		.cfi_startproc
 652              		@ args = 0, pretend = 0, frame = 8
 653              		@ frame_needed = 1, uses_anonymous_args = 0
 654              		@ link register save eliminated.
 655 0000 80B4     		push	{r7}
 656              		.cfi_def_cfa_offset 4
 657              		.cfi_offset 7, -4
 658 0002 83B0     		sub	sp, sp, #12
 659              		.cfi_def_cfa_offset 16
 660 0004 00AF     		add	r7, sp, #0
 661              		.cfi_def_cfa_register 7
 662 0006 7860     		str	r0, [r7, #4]
 663 0008 3960     		str	r1, [r7]
 664              		.loc 1 85 0
 665 000a 7B68     		ldr	r3, [r7, #4]
 666 000c 0022     		movs	r2, #0
 667 000e 1A63     		str	r2, [r3, #48]
 668 0010 11E0     		b	.L31
 669              	.L32:
 670              		.loc 1 86 0 discriminator 2
 671 0012 7B68     		ldr	r3, [r7, #4]
 672 0014 DA68     		ldr	r2, [r3, #12]
 673 0016 7B68     		ldr	r3, [r7, #4]
 674 0018 1B6B     		ldr	r3, [r3, #48]
 675 001a 9B00     		lsls	r3, r3, #2
ARM GAS  C:\Users\Luis\AppData\Local\Temp\ccb1YA0P.s 			page 13


 676 001c 1344     		add	r3, r3, r2
 677 001e 7A68     		ldr	r2, [r7, #4]
 678 0020 126B     		ldr	r2, [r2, #48]
 679 0022 9200     		lsls	r2, r2, #2
 680 0024 3968     		ldr	r1, [r7]
 681 0026 0A44     		add	r2, r2, r1
 682 0028 1268     		ldr	r2, [r2]	@ float
 683 002a 1A60     		str	r2, [r3]	@ float
 684              		.loc 1 85 0 discriminator 2
 685 002c 7B68     		ldr	r3, [r7, #4]
 686 002e 1B6B     		ldr	r3, [r3, #48]
 687 0030 5A1C     		adds	r2, r3, #1
 688 0032 7B68     		ldr	r3, [r7, #4]
 689 0034 1A63     		str	r2, [r3, #48]
 690              	.L31:
 691              		.loc 1 85 0 is_stmt 0 discriminator 1
 692 0036 7B68     		ldr	r3, [r7, #4]
 693 0038 1A6B     		ldr	r2, [r3, #48]
 694 003a 7B68     		ldr	r3, [r7, #4]
 695 003c 5B68     		ldr	r3, [r3, #4]
 696 003e 0133     		adds	r3, r3, #1
 697 0040 9A42     		cmp	r2, r3
 698 0042 E6DB     		blt	.L32
 699              		.loc 1 88 0 is_stmt 1
 700 0044 0C37     		adds	r7, r7, #12
 701 0046 BD46     		mov	sp, r7
 702              		@ sp needed
 703 0048 5DF8047B 		ldr	r7, [sp], #4
 704 004c 7047     		bx	lr
 705              		.cfi_endproc
 706              	.LFE274:
 707              		.size	_ZN10DataFilter21setArrayCoefficientsBEPf, .-_ZN10DataFilter21setArrayCoefficientsBEPf
 708 004e 00BF     		.section	.text._ZN10DataFilter26setArrayInitialConditionsXEPf,"ax",%progbits
 709              		.align	2
 710              		.p2align 4,,15
 711              		.global	_ZN10DataFilter26setArrayInitialConditionsXEPf
 712              		.thumb
 713              		.thumb_func
 714              		.type	_ZN10DataFilter26setArrayInitialConditionsXEPf, %function
 715              	_ZN10DataFilter26setArrayInitialConditionsXEPf:
 716              	.LFB275:
 717              		.loc 1 90 0
 718              		.cfi_startproc
 719              		@ args = 0, pretend = 0, frame = 8
 720              		@ frame_needed = 1, uses_anonymous_args = 0
 721              		@ link register save eliminated.
 722 0000 80B4     		push	{r7}
 723              		.cfi_def_cfa_offset 4
 724              		.cfi_offset 7, -4
 725 0002 83B0     		sub	sp, sp, #12
 726              		.cfi_def_cfa_offset 16
 727 0004 00AF     		add	r7, sp, #0
 728              		.cfi_def_cfa_register 7
 729 0006 7860     		str	r0, [r7, #4]
 730 0008 3960     		str	r1, [r7]
 731              		.loc 1 91 0
 732 000a 7B68     		ldr	r3, [r7, #4]
ARM GAS  C:\Users\Luis\AppData\Local\Temp\ccb1YA0P.s 			page 14


 733 000c 0022     		movs	r2, #0
 734 000e 1A63     		str	r2, [r3, #48]
 735 0010 11E0     		b	.L34
 736              	.L35:
 737              		.loc 1 92 0 discriminator 2
 738 0012 7B68     		ldr	r3, [r7, #4]
 739 0014 9A68     		ldr	r2, [r3, #8]
 740 0016 7B68     		ldr	r3, [r7, #4]
 741 0018 1B6B     		ldr	r3, [r3, #48]
 742 001a 9B00     		lsls	r3, r3, #2
 743 001c 1344     		add	r3, r3, r2
 744 001e 7A68     		ldr	r2, [r7, #4]
 745 0020 126B     		ldr	r2, [r2, #48]
 746 0022 9200     		lsls	r2, r2, #2
 747 0024 3968     		ldr	r1, [r7]
 748 0026 0A44     		add	r2, r2, r1
 749 0028 1268     		ldr	r2, [r2]	@ float
 750 002a 1A60     		str	r2, [r3]	@ float
 751              		.loc 1 91 0 discriminator 2
 752 002c 7B68     		ldr	r3, [r7, #4]
 753 002e 1B6B     		ldr	r3, [r3, #48]
 754 0030 5A1C     		adds	r2, r3, #1
 755 0032 7B68     		ldr	r3, [r7, #4]
 756 0034 1A63     		str	r2, [r3, #48]
 757              	.L34:
 758              		.loc 1 91 0 is_stmt 0 discriminator 1
 759 0036 7B68     		ldr	r3, [r7, #4]
 760 0038 1A6B     		ldr	r2, [r3, #48]
 761 003a 7B68     		ldr	r3, [r7, #4]
 762 003c 5B68     		ldr	r3, [r3, #4]
 763 003e 9A42     		cmp	r2, r3
 764 0040 E7DB     		blt	.L35
 765              		.loc 1 94 0 is_stmt 1
 766 0042 0C37     		adds	r7, r7, #12
 767 0044 BD46     		mov	sp, r7
 768              		@ sp needed
 769 0046 5DF8047B 		ldr	r7, [sp], #4
 770 004a 7047     		bx	lr
 771              		.cfi_endproc
 772              	.LFE275:
 773              		.size	_ZN10DataFilter26setArrayInitialConditionsXEPf, .-_ZN10DataFilter26setArrayInitialConditions
 774 004c AFF30080 		.section	.text._ZNK10DataFilter15getArrayInputsXEv,"ax",%progbits
 775              		.align	2
 776              		.p2align 4,,15
 777              		.global	_ZNK10DataFilter15getArrayInputsXEv
 778              		.thumb
 779              		.thumb_func
 780              		.type	_ZNK10DataFilter15getArrayInputsXEv, %function
 781              	_ZNK10DataFilter15getArrayInputsXEv:
 782              	.LFB276:
 783              		.loc 1 96 0
 784              		.cfi_startproc
 785              		@ args = 0, pretend = 0, frame = 8
 786              		@ frame_needed = 1, uses_anonymous_args = 0
 787              		@ link register save eliminated.
 788 0000 80B4     		push	{r7}
 789              		.cfi_def_cfa_offset 4
ARM GAS  C:\Users\Luis\AppData\Local\Temp\ccb1YA0P.s 			page 15


 790              		.cfi_offset 7, -4
 791 0002 83B0     		sub	sp, sp, #12
 792              		.cfi_def_cfa_offset 16
 793 0004 00AF     		add	r7, sp, #0
 794              		.cfi_def_cfa_register 7
 795 0006 7860     		str	r0, [r7, #4]
 796              		.loc 1 97 0
 797 0008 7B68     		ldr	r3, [r7, #4]
 798 000a 1B69     		ldr	r3, [r3, #16]
 799              		.loc 1 98 0
 800 000c 1846     		mov	r0, r3
 801 000e 0C37     		adds	r7, r7, #12
 802 0010 BD46     		mov	sp, r7
 803              		@ sp needed
 804 0012 5DF8047B 		ldr	r7, [sp], #4
 805 0016 7047     		bx	lr
 806              		.cfi_endproc
 807              	.LFE276:
 808              		.size	_ZNK10DataFilter15getArrayInputsXEv, .-_ZNK10DataFilter15getArrayInputsXEv
 809 0018 AFF30080 		.section	.text._ZN10DataFilter15setArrayInputsXEPfi,"ax",%progbits
 809      AFF30080 
 810              		.align	2
 811              		.p2align 4,,15
 812              		.global	_ZN10DataFilter15setArrayInputsXEPfi
 813              		.thumb
 814              		.thumb_func
 815              		.type	_ZN10DataFilter15setArrayInputsXEPfi, %function
 816              	_ZN10DataFilter15setArrayInputsXEPfi:
 817              	.LFB277:
 818              		.loc 1 100 0
 819              		.cfi_startproc
 820              		@ args = 0, pretend = 0, frame = 16
 821              		@ frame_needed = 1, uses_anonymous_args = 0
 822 0000 80B5     		push	{r7, lr}
 823              		.cfi_def_cfa_offset 8
 824              		.cfi_offset 7, -8
 825              		.cfi_offset 14, -4
 826 0002 84B0     		sub	sp, sp, #16
 827              		.cfi_def_cfa_offset 24
 828 0004 00AF     		add	r7, sp, #0
 829              		.cfi_def_cfa_register 7
 830 0006 F860     		str	r0, [r7, #12]
 831 0008 B960     		str	r1, [r7, #8]
 832 000a 7A60     		str	r2, [r7, #4]
 833              		.loc 1 101 0
 834 000c FB68     		ldr	r3, [r7, #12]
 835 000e 7A68     		ldr	r2, [r7, #4]
 836 0010 9A62     		str	r2, [r3, #40]
 837              		.loc 1 102 0
 838 0012 FB68     		ldr	r3, [r7, #12]
 839 0014 5A68     		ldr	r2, [r3, #4]
 840 0016 7B68     		ldr	r3, [r7, #4]
 841 0018 1344     		add	r3, r3, r2
 842 001a 9B00     		lsls	r3, r3, #2
 843 001c 0020     		movs	r0, #0
 844 001e 1946     		mov	r1, r3
 845 0020 FFF7FEFF 		bl	chHeapAlloc
ARM GAS  C:\Users\Luis\AppData\Local\Temp\ccb1YA0P.s 			page 16


 846 0024 0246     		mov	r2, r0
 847 0026 FB68     		ldr	r3, [r7, #12]
 848 0028 1A61     		str	r2, [r3, #16]
 849              		.loc 1 103 0
 850 002a FB68     		ldr	r3, [r7, #12]
 851 002c 0022     		movs	r2, #0
 852 002e 1A63     		str	r2, [r3, #48]
 853 0030 11E0     		b	.L39
 854              	.L40:
 855              		.loc 1 104 0 discriminator 2
 856 0032 FB68     		ldr	r3, [r7, #12]
 857 0034 1A69     		ldr	r2, [r3, #16]
 858 0036 FB68     		ldr	r3, [r7, #12]
 859 0038 1B6B     		ldr	r3, [r3, #48]
 860 003a 9B00     		lsls	r3, r3, #2
 861 003c 1344     		add	r3, r3, r2
 862 003e FA68     		ldr	r2, [r7, #12]
 863 0040 126B     		ldr	r2, [r2, #48]
 864 0042 9200     		lsls	r2, r2, #2
 865 0044 B968     		ldr	r1, [r7, #8]
 866 0046 0A44     		add	r2, r2, r1
 867 0048 1268     		ldr	r2, [r2]	@ float
 868 004a 1A60     		str	r2, [r3]	@ float
 869              		.loc 1 103 0 discriminator 2
 870 004c FB68     		ldr	r3, [r7, #12]
 871 004e 1B6B     		ldr	r3, [r3, #48]
 872 0050 5A1C     		adds	r2, r3, #1
 873 0052 FB68     		ldr	r3, [r7, #12]
 874 0054 1A63     		str	r2, [r3, #48]
 875              	.L39:
 876              		.loc 1 103 0 is_stmt 0 discriminator 1
 877 0056 FB68     		ldr	r3, [r7, #12]
 878 0058 1A6B     		ldr	r2, [r3, #48]
 879 005a 7B68     		ldr	r3, [r7, #4]
 880 005c 9A42     		cmp	r2, r3
 881 005e E8DB     		blt	.L40
 882              		.loc 1 106 0 is_stmt 1
 883 0060 FB68     		ldr	r3, [r7, #12]
 884 0062 9B6A     		ldr	r3, [r3, #40]
 885 0064 9B00     		lsls	r3, r3, #2
 886 0066 0020     		movs	r0, #0
 887 0068 1946     		mov	r1, r3
 888 006a FFF7FEFF 		bl	chHeapAlloc
 889 006e 0246     		mov	r2, r0
 890 0070 FB68     		ldr	r3, [r7, #12]
 891 0072 1A62     		str	r2, [r3, #32]
 892              		.loc 1 107 0
 893 0074 1037     		adds	r7, r7, #16
 894 0076 BD46     		mov	sp, r7
 895              		@ sp needed
 896 0078 80BD     		pop	{r7, pc}
 897              		.cfi_endproc
 898              	.LFE277:
 899              		.size	_ZN10DataFilter15setArrayInputsXEPfi, .-_ZN10DataFilter15setArrayInputsXEPfi
 900 007a 00BFAFF3 		.section	.text._ZNK10DataFilter14getFilterOrderEv,"ax",%progbits
 900      0080
 901              		.align	2
ARM GAS  C:\Users\Luis\AppData\Local\Temp\ccb1YA0P.s 			page 17


 902              		.p2align 4,,15
 903              		.global	_ZNK10DataFilter14getFilterOrderEv
 904              		.thumb
 905              		.thumb_func
 906              		.type	_ZNK10DataFilter14getFilterOrderEv, %function
 907              	_ZNK10DataFilter14getFilterOrderEv:
 908              	.LFB278:
 909              		.loc 1 109 0
 910              		.cfi_startproc
 911              		@ args = 0, pretend = 0, frame = 8
 912              		@ frame_needed = 1, uses_anonymous_args = 0
 913              		@ link register save eliminated.
 914 0000 80B4     		push	{r7}
 915              		.cfi_def_cfa_offset 4
 916              		.cfi_offset 7, -4
 917 0002 83B0     		sub	sp, sp, #12
 918              		.cfi_def_cfa_offset 16
 919 0004 00AF     		add	r7, sp, #0
 920              		.cfi_def_cfa_register 7
 921 0006 7860     		str	r0, [r7, #4]
 922              		.loc 1 110 0
 923 0008 7B68     		ldr	r3, [r7, #4]
 924 000a 5B68     		ldr	r3, [r3, #4]
 925              		.loc 1 111 0
 926 000c 1846     		mov	r0, r3
 927 000e 0C37     		adds	r7, r7, #12
 928 0010 BD46     		mov	sp, r7
 929              		@ sp needed
 930 0012 5DF8047B 		ldr	r7, [sp], #4
 931 0016 7047     		bx	lr
 932              		.cfi_endproc
 933              	.LFE278:
 934              		.size	_ZNK10DataFilter14getFilterOrderEv, .-_ZNK10DataFilter14getFilterOrderEv
 935 0018 AFF30080 		.section	.text._ZN10DataFilter14setFilterOrderEi,"ax",%progbits
 935      AFF30080 
 936              		.align	2
 937              		.p2align 4,,15
 938              		.global	_ZN10DataFilter14setFilterOrderEi
 939              		.thumb
 940              		.thumb_func
 941              		.type	_ZN10DataFilter14setFilterOrderEi, %function
 942              	_ZN10DataFilter14setFilterOrderEi:
 943              	.LFB279:
 944              		.loc 1 113 0
 945              		.cfi_startproc
 946              		@ args = 0, pretend = 0, frame = 8
 947              		@ frame_needed = 1, uses_anonymous_args = 0
 948              		@ link register save eliminated.
 949 0000 80B4     		push	{r7}
 950              		.cfi_def_cfa_offset 4
 951              		.cfi_offset 7, -4
 952 0002 83B0     		sub	sp, sp, #12
 953              		.cfi_def_cfa_offset 16
 954 0004 00AF     		add	r7, sp, #0
 955              		.cfi_def_cfa_register 7
 956 0006 7860     		str	r0, [r7, #4]
 957 0008 3960     		str	r1, [r7]
ARM GAS  C:\Users\Luis\AppData\Local\Temp\ccb1YA0P.s 			page 18


 958              		.loc 1 114 0
 959 000a 7B68     		ldr	r3, [r7, #4]
 960 000c 3A68     		ldr	r2, [r7]
 961 000e 5A60     		str	r2, [r3, #4]
 962              		.loc 1 115 0
 963 0010 0C37     		adds	r7, r7, #12
 964 0012 BD46     		mov	sp, r7
 965              		@ sp needed
 966 0014 5DF8047B 		ldr	r7, [sp], #4
 967 0018 7047     		bx	lr
 968              		.cfi_endproc
 969              	.LFE279:
 970              		.size	_ZN10DataFilter14setFilterOrderEi, .-_ZN10DataFilter14setFilterOrderEi
 971 001a 00BFAFF3 		.section	.text._ZNK10DataFilter21getArrayCoefficientsAEv,"ax",%progbits
 971      0080
 972              		.align	2
 973              		.p2align 4,,15
 974              		.global	_ZNK10DataFilter21getArrayCoefficientsAEv
 975              		.thumb
 976              		.thumb_func
 977              		.type	_ZNK10DataFilter21getArrayCoefficientsAEv, %function
 978              	_ZNK10DataFilter21getArrayCoefficientsAEv:
 979              	.LFB280:
 980              		.loc 1 117 0
 981              		.cfi_startproc
 982              		@ args = 0, pretend = 0, frame = 8
 983              		@ frame_needed = 1, uses_anonymous_args = 0
 984              		@ link register save eliminated.
 985 0000 80B4     		push	{r7}
 986              		.cfi_def_cfa_offset 4
 987              		.cfi_offset 7, -4
 988 0002 83B0     		sub	sp, sp, #12
 989              		.cfi_def_cfa_offset 16
 990 0004 00AF     		add	r7, sp, #0
 991              		.cfi_def_cfa_register 7
 992 0006 7860     		str	r0, [r7, #4]
 993              		.loc 1 118 0
 994 0008 7B68     		ldr	r3, [r7, #4]
 995 000a 9B69     		ldr	r3, [r3, #24]
 996              		.loc 1 119 0
 997 000c 1846     		mov	r0, r3
 998 000e 0C37     		adds	r7, r7, #12
 999 0010 BD46     		mov	sp, r7
 1000              		@ sp needed
 1001 0012 5DF8047B 		ldr	r7, [sp], #4
 1002 0016 7047     		bx	lr
 1003              		.cfi_endproc
 1004              	.LFE280:
 1005              		.size	_ZNK10DataFilter21getArrayCoefficientsAEv, .-_ZNK10DataFilter21getArrayCoefficientsAEv
 1006 0018 AFF30080 		.section	.text._ZN10DataFilter21setArrayCoefficientsAEPf,"ax",%progbits
 1006      AFF30080 
 1007              		.align	2
 1008              		.p2align 4,,15
 1009              		.global	_ZN10DataFilter21setArrayCoefficientsAEPf
 1010              		.thumb
 1011              		.thumb_func
 1012              		.type	_ZN10DataFilter21setArrayCoefficientsAEPf, %function
ARM GAS  C:\Users\Luis\AppData\Local\Temp\ccb1YA0P.s 			page 19


 1013              	_ZN10DataFilter21setArrayCoefficientsAEPf:
 1014              	.LFB281:
 1015              		.loc 1 121 0
 1016              		.cfi_startproc
 1017              		@ args = 0, pretend = 0, frame = 8
 1018              		@ frame_needed = 1, uses_anonymous_args = 0
 1019              		@ link register save eliminated.
 1020 0000 80B4     		push	{r7}
 1021              		.cfi_def_cfa_offset 4
 1022              		.cfi_offset 7, -4
 1023 0002 83B0     		sub	sp, sp, #12
 1024              		.cfi_def_cfa_offset 16
 1025 0004 00AF     		add	r7, sp, #0
 1026              		.cfi_def_cfa_register 7
 1027 0006 7860     		str	r0, [r7, #4]
 1028 0008 3960     		str	r1, [r7]
 1029              		.loc 1 122 0
 1030 000a 7B68     		ldr	r3, [r7, #4]
 1031 000c 3A68     		ldr	r2, [r7]
 1032 000e 9A61     		str	r2, [r3, #24]
 1033              		.loc 1 123 0
 1034 0010 0C37     		adds	r7, r7, #12
 1035 0012 BD46     		mov	sp, r7
 1036              		@ sp needed
 1037 0014 5DF8047B 		ldr	r7, [sp], #4
 1038 0018 7047     		bx	lr
 1039              		.cfi_endproc
 1040              	.LFE281:
 1041              		.size	_ZN10DataFilter21setArrayCoefficientsAEPf, .-_ZN10DataFilter21setArrayCoefficientsAEPf
 1042 001a 00BFAFF3 		.section	.text._ZNK10DataFilter26getArrayInitialConditionsYEv,"ax",%progbits
 1042      0080
 1043              		.align	2
 1044              		.p2align 4,,15
 1045              		.global	_ZNK10DataFilter26getArrayInitialConditionsYEv
 1046              		.thumb
 1047              		.thumb_func
 1048              		.type	_ZNK10DataFilter26getArrayInitialConditionsYEv, %function
 1049              	_ZNK10DataFilter26getArrayInitialConditionsYEv:
 1050              	.LFB282:
 1051              		.loc 1 125 0
 1052              		.cfi_startproc
 1053              		@ args = 0, pretend = 0, frame = 8
 1054              		@ frame_needed = 1, uses_anonymous_args = 0
 1055              		@ link register save eliminated.
 1056 0000 80B4     		push	{r7}
 1057              		.cfi_def_cfa_offset 4
 1058              		.cfi_offset 7, -4
 1059 0002 83B0     		sub	sp, sp, #12
 1060              		.cfi_def_cfa_offset 16
 1061 0004 00AF     		add	r7, sp, #0
 1062              		.cfi_def_cfa_register 7
 1063 0006 7860     		str	r0, [r7, #4]
 1064              		.loc 1 126 0
 1065 0008 7B68     		ldr	r3, [r7, #4]
 1066 000a 5B69     		ldr	r3, [r3, #20]
 1067              		.loc 1 127 0
 1068 000c 1846     		mov	r0, r3
ARM GAS  C:\Users\Luis\AppData\Local\Temp\ccb1YA0P.s 			page 20


 1069 000e 0C37     		adds	r7, r7, #12
 1070 0010 BD46     		mov	sp, r7
 1071              		@ sp needed
 1072 0012 5DF8047B 		ldr	r7, [sp], #4
 1073 0016 7047     		bx	lr
 1074              		.cfi_endproc
 1075              	.LFE282:
 1076              		.size	_ZNK10DataFilter26getArrayInitialConditionsYEv, .-_ZNK10DataFilter26getArrayInitialCondition
 1077 0018 AFF30080 		.section	.text._ZN10DataFilter26setArrayInitialConditionsYEPf,"ax",%progbits
 1077      AFF30080 
 1078              		.align	2
 1079              		.p2align 4,,15
 1080              		.global	_ZN10DataFilter26setArrayInitialConditionsYEPf
 1081              		.thumb
 1082              		.thumb_func
 1083              		.type	_ZN10DataFilter26setArrayInitialConditionsYEPf, %function
 1084              	_ZN10DataFilter26setArrayInitialConditionsYEPf:
 1085              	.LFB283:
 1086              		.loc 1 129 0
 1087              		.cfi_startproc
 1088              		@ args = 0, pretend = 0, frame = 8
 1089              		@ frame_needed = 1, uses_anonymous_args = 0
 1090              		@ link register save eliminated.
 1091 0000 80B4     		push	{r7}
 1092              		.cfi_def_cfa_offset 4
 1093              		.cfi_offset 7, -4
 1094 0002 83B0     		sub	sp, sp, #12
 1095              		.cfi_def_cfa_offset 16
 1096 0004 00AF     		add	r7, sp, #0
 1097              		.cfi_def_cfa_register 7
 1098 0006 7860     		str	r0, [r7, #4]
 1099 0008 3960     		str	r1, [r7]
 1100              		.loc 1 130 0
 1101 000a 7B68     		ldr	r3, [r7, #4]
 1102 000c 0022     		movs	r2, #0
 1103 000e 1A63     		str	r2, [r3, #48]
 1104 0010 11E0     		b	.L50
 1105              	.L51:
 1106              		.loc 1 131 0 discriminator 2
 1107 0012 7B68     		ldr	r3, [r7, #4]
 1108 0014 DA69     		ldr	r2, [r3, #28]
 1109 0016 7B68     		ldr	r3, [r7, #4]
 1110 0018 1B6B     		ldr	r3, [r3, #48]
 1111 001a 9B00     		lsls	r3, r3, #2
 1112 001c 1344     		add	r3, r3, r2
 1113 001e 7A68     		ldr	r2, [r7, #4]
 1114 0020 126B     		ldr	r2, [r2, #48]
 1115 0022 9200     		lsls	r2, r2, #2
 1116 0024 3968     		ldr	r1, [r7]
 1117 0026 0A44     		add	r2, r2, r1
 1118 0028 1268     		ldr	r2, [r2]	@ float
 1119 002a 1A60     		str	r2, [r3]	@ float
 1120              		.loc 1 130 0 discriminator 2
 1121 002c 7B68     		ldr	r3, [r7, #4]
 1122 002e 1B6B     		ldr	r3, [r3, #48]
 1123 0030 5A1C     		adds	r2, r3, #1
 1124 0032 7B68     		ldr	r3, [r7, #4]
ARM GAS  C:\Users\Luis\AppData\Local\Temp\ccb1YA0P.s 			page 21


 1125 0034 1A63     		str	r2, [r3, #48]
 1126              	.L50:
 1127              		.loc 1 130 0 is_stmt 0 discriminator 1
 1128 0036 7B68     		ldr	r3, [r7, #4]
 1129 0038 1A6B     		ldr	r2, [r3, #48]
 1130 003a 7B68     		ldr	r3, [r7, #4]
 1131 003c 5B68     		ldr	r3, [r3, #4]
 1132 003e 9A42     		cmp	r2, r3
 1133 0040 E7DB     		blt	.L51
 1134              		.loc 1 133 0 is_stmt 1
 1135 0042 0C37     		adds	r7, r7, #12
 1136 0044 BD46     		mov	sp, r7
 1137              		@ sp needed
 1138 0046 5DF8047B 		ldr	r7, [sp], #4
 1139 004a 7047     		bx	lr
 1140              		.cfi_endproc
 1141              	.LFE283:
 1142              		.size	_ZN10DataFilter26setArrayInitialConditionsYEPf, .-_ZN10DataFilter26setArrayInitialConditions
 1143 004c AFF30080 		.section	.text._ZNK10DataFilter15getArrayInputsYEv,"ax",%progbits
 1144              		.align	2
 1145              		.p2align 4,,15
 1146              		.global	_ZNK10DataFilter15getArrayInputsYEv
 1147              		.thumb
 1148              		.thumb_func
 1149              		.type	_ZNK10DataFilter15getArrayInputsYEv, %function
 1150              	_ZNK10DataFilter15getArrayInputsYEv:
 1151              	.LFB284:
 1152              		.loc 1 135 0
 1153              		.cfi_startproc
 1154              		@ args = 0, pretend = 0, frame = 8
 1155              		@ frame_needed = 1, uses_anonymous_args = 0
 1156              		@ link register save eliminated.
 1157 0000 80B4     		push	{r7}
 1158              		.cfi_def_cfa_offset 4
 1159              		.cfi_offset 7, -4
 1160 0002 83B0     		sub	sp, sp, #12
 1161              		.cfi_def_cfa_offset 16
 1162 0004 00AF     		add	r7, sp, #0
 1163              		.cfi_def_cfa_register 7
 1164 0006 7860     		str	r0, [r7, #4]
 1165              		.loc 1 136 0
 1166 0008 7B68     		ldr	r3, [r7, #4]
 1167 000a DB69     		ldr	r3, [r3, #28]
 1168              		.loc 1 137 0
 1169 000c 1846     		mov	r0, r3
 1170 000e 0C37     		adds	r7, r7, #12
 1171 0010 BD46     		mov	sp, r7
 1172              		@ sp needed
 1173 0012 5DF8047B 		ldr	r7, [sp], #4
 1174 0016 7047     		bx	lr
 1175              		.cfi_endproc
 1176              	.LFE284:
 1177              		.size	_ZNK10DataFilter15getArrayInputsYEv, .-_ZNK10DataFilter15getArrayInputsYEv
 1178              		.global	_ZTV10DataFilter
 1179 0018 AFF30080 		.section	.rodata._ZTV10DataFilter,"a",%progbits
 1179      AFF30080 
 1180              		.align	3
ARM GAS  C:\Users\Luis\AppData\Local\Temp\ccb1YA0P.s 			page 22


 1181              		.type	_ZTV10DataFilter, %object
 1182              		.size	_ZTV10DataFilter, 16
 1183              	_ZTV10DataFilter:
 1184 0000 00000000 		.word	0
 1185 0004 00000000 		.word	0
 1186 0008 00000000 		.word	_ZN10DataFilterD1Ev
 1187 000c 00000000 		.word	_ZN10DataFilterD0Ev
 1188              		.text
 1189              	.Letext0:
 1190              		.file 2 "c:\\emtechesdk\\gcc\\arm-none-eabi\\include\\stdint.h"
 1191              		.file 3 "../../ChibiOS/os/rt/ports/ARMCMx/compilers/GCC/chtypes.h"
 1192              		.file 4 "../../ChibiOS/os/rt/include/chsystypes.h"
 1193              		.file 5 "../../ChibiOS/os/rt/include/chschd.h"
 1194              		.file 6 "../../ChibiOS/os/rt/ports/ARMCMx/chcore.h"
 1195              		.file 7 "../../ChibiOS/os/rt/ports/ARMCMx/chcore_v7m.h"
 1196              		.file 8 "../../ChibiOS/os/rt/include/chdebug.h"
 1197              		.file 9 "../../ChibiOS/os/rt/include/chtm.h"
 1198              		.file 10 "../../ChibiOS/os/rt/include/chstats.h"
 1199              		.file 11 "../../ChibiOS/os/rt/include/chsem.h"
 1200              		.file 12 "../../ChibiOS/os/rt/include/chmtx.h"
 1201              		.file 13 "header/DataFilter.h"
 1202              		.file 14 "../../ChibiOS/os/ext/CMSIS/include/core_cm4.h"
 1203              		.section	.debug_info,"",%progbits
 1204              	.Ldebug_info0:
 1205 0000 1D100000 		.4byte	0x101d
 1206 0004 0400     		.2byte	0x4
 1207 0006 00000000 		.4byte	.Ldebug_abbrev0
 1208 000a 04       		.byte	0x4
 1209 000b 01       		.uleb128 0x1
 1210 000c 20080000 		.4byte	.LASF215
 1211 0010 04       		.byte	0x4
 1212 0011 A1070000 		.4byte	.LASF216
 1213 0015 73020000 		.4byte	.LASF217
 1214 0019 00000000 		.4byte	.Ldebug_ranges0+0
 1215 001d 00000000 		.4byte	0
 1216 0021 00000000 		.4byte	.Ldebug_line0
 1217 0025 02       		.uleb128 0x2
 1218 0026 04       		.byte	0x4
 1219 0027 05       		.byte	0x5
 1220 0028 696E7400 		.ascii	"int\000"
 1221 002c 03       		.uleb128 0x3
 1222 002d 04       		.byte	0x4
 1223 002e 07       		.byte	0x7
 1224 002f 83040000 		.4byte	.LASF0
 1225 0033 03       		.uleb128 0x3
 1226 0034 01       		.byte	0x1
 1227 0035 06       		.byte	0x6
 1228 0036 15020000 		.4byte	.LASF1
 1229 003a 04       		.uleb128 0x4
 1230 003b AD0C0000 		.4byte	.LASF5
 1231 003f 02       		.byte	0x2
 1232 0040 2A       		.byte	0x2a
 1233 0041 45000000 		.4byte	0x45
 1234 0045 03       		.uleb128 0x3
 1235 0046 01       		.byte	0x1
 1236 0047 08       		.byte	0x8
 1237 0048 CF0B0000 		.4byte	.LASF2
ARM GAS  C:\Users\Luis\AppData\Local\Temp\ccb1YA0P.s 			page 23


 1238 004c 03       		.uleb128 0x3
 1239 004d 02       		.byte	0x2
 1240 004e 05       		.byte	0x5
 1241 004f E6050000 		.4byte	.LASF3
 1242 0053 03       		.uleb128 0x3
 1243 0054 02       		.byte	0x2
 1244 0055 07       		.byte	0x7
 1245 0056 DE040000 		.4byte	.LASF4
 1246 005a 04       		.uleb128 0x4
 1247 005b 1F090000 		.4byte	.LASF6
 1248 005f 02       		.byte	0x2
 1249 0060 4F       		.byte	0x4f
 1250 0061 65000000 		.4byte	0x65
 1251 0065 03       		.uleb128 0x3
 1252 0066 04       		.byte	0x4
 1253 0067 05       		.byte	0x5
 1254 0068 B6020000 		.4byte	.LASF7
 1255 006c 04       		.uleb128 0x4
 1256 006d 860A0000 		.4byte	.LASF8
 1257 0071 02       		.byte	0x2
 1258 0072 50       		.byte	0x50
 1259 0073 77000000 		.4byte	0x77
 1260 0077 03       		.uleb128 0x3
 1261 0078 04       		.byte	0x4
 1262 0079 07       		.byte	0x7
 1263 007a FF0A0000 		.4byte	.LASF9
 1264 007e 03       		.uleb128 0x3
 1265 007f 08       		.byte	0x8
 1266 0080 05       		.byte	0x5
 1267 0081 07020000 		.4byte	.LASF10
 1268 0085 04       		.uleb128 0x4
 1269 0086 8F000000 		.4byte	.LASF11
 1270 008a 02       		.byte	0x2
 1271 008b 78       		.byte	0x78
 1272 008c 90000000 		.4byte	0x90
 1273 0090 03       		.uleb128 0x3
 1274 0091 08       		.byte	0x8
 1275 0092 07       		.byte	0x7
 1276 0093 FB000000 		.4byte	.LASF12
 1277 0097 05       		.uleb128 0x5
 1278 0098 5A000000 		.4byte	0x5a
 1279 009c 04       		.uleb128 0x4
 1280 009d A2060000 		.4byte	.LASF13
 1281 00a1 03       		.byte	0x3
 1282 00a2 45       		.byte	0x45
 1283 00a3 6C000000 		.4byte	0x6c
 1284 00a7 04       		.uleb128 0x4
 1285 00a8 0A000000 		.4byte	.LASF14
 1286 00ac 03       		.byte	0x3
 1287 00ad 46       		.byte	0x46
 1288 00ae 85000000 		.4byte	0x85
 1289 00b2 04       		.uleb128 0x4
 1290 00b3 8A050000 		.4byte	.LASF15
 1291 00b7 03       		.byte	0x3
 1292 00b8 48       		.byte	0x48
 1293 00b9 3A000000 		.4byte	0x3a
 1294 00bd 04       		.uleb128 0x4
ARM GAS  C:\Users\Luis\AppData\Local\Temp\ccb1YA0P.s 			page 24


 1295 00be 7A030000 		.4byte	.LASF16
 1296 00c2 03       		.byte	0x3
 1297 00c3 49       		.byte	0x49
 1298 00c4 3A000000 		.4byte	0x3a
 1299 00c8 04       		.uleb128 0x4
 1300 00c9 F7070000 		.4byte	.LASF17
 1301 00cd 03       		.byte	0x3
 1302 00ce 4A       		.byte	0x4a
 1303 00cf 3A000000 		.4byte	0x3a
 1304 00d3 04       		.uleb128 0x4
 1305 00d4 0E090000 		.4byte	.LASF18
 1306 00d8 03       		.byte	0x3
 1307 00d9 4C       		.byte	0x4c
 1308 00da 6C000000 		.4byte	0x6c
 1309 00de 04       		.uleb128 0x4
 1310 00df 3E050000 		.4byte	.LASF19
 1311 00e3 03       		.byte	0x3
 1312 00e4 4D       		.byte	0x4d
 1313 00e5 5A000000 		.4byte	0x5a
 1314 00e9 04       		.uleb128 0x4
 1315 00ea DA050000 		.4byte	.LASF20
 1316 00ee 03       		.byte	0x3
 1317 00ef 4F       		.byte	0x4f
 1318 00f0 6C000000 		.4byte	0x6c
 1319 00f4 04       		.uleb128 0x4
 1320 00f5 62040000 		.4byte	.LASF21
 1321 00f9 03       		.byte	0x3
 1322 00fa 51       		.byte	0x51
 1323 00fb 5A000000 		.4byte	0x5a
 1324 00ff 04       		.uleb128 0x4
 1325 0100 49050000 		.4byte	.LASF22
 1326 0104 03       		.byte	0x3
 1327 0105 52       		.byte	0x52
 1328 0106 6C000000 		.4byte	0x6c
 1329 010a 04       		.uleb128 0x4
 1330 010b 350B0000 		.4byte	.LASF23
 1331 010f 04       		.byte	0x4
 1332 0110 33       		.byte	0x33
 1333 0111 6C000000 		.4byte	0x6c
 1334 0115 04       		.uleb128 0x4
 1335 0116 680C0000 		.4byte	.LASF24
 1336 011a 04       		.byte	0x4
 1337 011b 3F       		.byte	0x3f
 1338 011c 20010000 		.4byte	0x120
 1339 0120 06       		.uleb128 0x6
 1340 0121 11050000 		.4byte	.LASF54
 1341 0125 68       		.byte	0x68
 1342 0126 05       		.byte	0x5
 1343 0127 C2       		.byte	0xc2
 1344 0128 90020000 		.4byte	0x290
 1345 012c 07       		.uleb128 0x7
 1346 012d 04       		.byte	0x4
 1347 012e 05       		.byte	0x5
 1348 012f FA       		.byte	0xfa
 1349 0130 89010000 		.4byte	0x189
 1350 0134 08       		.uleb128 0x8
 1351 0135 7C000000 		.4byte	.LASF25
ARM GAS  C:\Users\Luis\AppData\Local\Temp\ccb1YA0P.s 			page 25


 1352 0139 05       		.byte	0x5
 1353 013a 0101     		.2byte	0x101
 1354 013c DE000000 		.4byte	0xde
 1355 0140 08       		.uleb128 0x8
 1356 0141 AC030000 		.4byte	.LASF26
 1357 0145 05       		.byte	0x5
 1358 0146 0801     		.2byte	0x108
 1359 0148 DE000000 		.4byte	0xde
 1360 014c 08       		.uleb128 0x8
 1361 014d A1090000 		.4byte	.LASF27
 1362 0151 05       		.byte	0x5
 1363 0152 0F01     		.2byte	0x10f
 1364 0154 78030000 		.4byte	0x378
 1365 0158 08       		.uleb128 0x8
 1366 0159 4F000000 		.4byte	.LASF28
 1367 015d 05       		.byte	0x5
 1368 015e 1601     		.2byte	0x116
 1369 0160 F7060000 		.4byte	0x6f7
 1370 0164 08       		.uleb128 0x8
 1371 0165 90040000 		.4byte	.LASF29
 1372 0169 05       		.byte	0x5
 1373 016a 1E01     		.2byte	0x11e
 1374 016c 22070000 		.4byte	0x722
 1375 0170 08       		.uleb128 0x8
 1376 0171 8F0A0000 		.4byte	.LASF30
 1377 0175 05       		.byte	0x5
 1378 0176 2701     		.2byte	0x127
 1379 0178 59070000 		.4byte	0x759
 1380 017c 08       		.uleb128 0x8
 1381 017d A8090000 		.4byte	.LASF31
 1382 0181 05       		.byte	0x5
 1383 0182 2F01     		.2byte	0x12f
 1384 0184 E9000000 		.4byte	0xe9
 1385 0188 00       		.byte	0
 1386 0189 09       		.uleb128 0x9
 1387 018a AF090000 		.4byte	.LASF32
 1388 018e 05       		.byte	0x5
 1389 018f C3       		.byte	0xc3
 1390 0190 9B020000 		.4byte	0x29b
 1391 0194 00       		.byte	0
 1392 0195 09       		.uleb128 0x9
 1393 0196 19080000 		.4byte	.LASF33
 1394 019a 05       		.byte	0x5
 1395 019b C5       		.byte	0xc5
 1396 019c 9B020000 		.4byte	0x29b
 1397 01a0 04       		.byte	0x4
 1398 01a1 09       		.uleb128 0x9
 1399 01a2 D1010000 		.4byte	.LASF34
 1400 01a6 05       		.byte	0x5
 1401 01a7 C7       		.byte	0xc7
 1402 01a8 D3000000 		.4byte	0xd3
 1403 01ac 08       		.byte	0x8
 1404 01ad 09       		.uleb128 0x9
 1405 01ae 300E0000 		.4byte	.LASF35
 1406 01b2 05       		.byte	0x5
 1407 01b3 C8       		.byte	0xc8
 1408 01b4 04050000 		.4byte	0x504
ARM GAS  C:\Users\Luis\AppData\Local\Temp\ccb1YA0P.s 			page 26


 1409 01b8 0C       		.byte	0xc
 1410 01b9 09       		.uleb128 0x9
 1411 01ba 9C030000 		.4byte	.LASF36
 1412 01be 05       		.byte	0x5
 1413 01bf CA       		.byte	0xca
 1414 01c0 9B020000 		.4byte	0x29b
 1415 01c4 10       		.byte	0x10
 1416 01c5 09       		.uleb128 0x9
 1417 01c6 35070000 		.4byte	.LASF37
 1418 01ca 05       		.byte	0x5
 1419 01cb CB       		.byte	0xcb
 1420 01cc 9B020000 		.4byte	0x29b
 1421 01d0 14       		.byte	0x14
 1422 01d1 09       		.uleb128 0x9
 1423 01d2 520C0000 		.4byte	.LASF38
 1424 01d6 05       		.byte	0x5
 1425 01d7 D2       		.byte	0xd2
 1426 01d8 5F070000 		.4byte	0x75f
 1427 01dc 18       		.byte	0x18
 1428 01dd 09       		.uleb128 0x9
 1429 01de 78040000 		.4byte	.LASF39
 1430 01e2 05       		.byte	0x5
 1431 01e3 D8       		.byte	0xd8
 1432 01e4 71070000 		.4byte	0x771
 1433 01e8 1C       		.byte	0x1c
 1434 01e9 09       		.uleb128 0x9
 1435 01ea 87090000 		.4byte	.LASF40
 1436 01ee 05       		.byte	0x5
 1437 01ef DD       		.byte	0xdd
 1438 01f0 BD000000 		.4byte	0xbd
 1439 01f4 20       		.byte	0x20
 1440 01f5 09       		.uleb128 0x9
 1441 01f6 3F0D0000 		.4byte	.LASF41
 1442 01fa 05       		.byte	0x5
 1443 01fb E1       		.byte	0xe1
 1444 01fc B2000000 		.4byte	0xb2
 1445 0200 21       		.byte	0x21
 1446 0201 09       		.uleb128 0x9
 1447 0202 590C0000 		.4byte	.LASF42
 1448 0206 05       		.byte	0x5
 1449 0207 E6       		.byte	0xe6
 1450 0208 C8000000 		.4byte	0xc8
 1451 020c 22       		.byte	0x22
 1452 020d 0A       		.uleb128 0xa
 1453 020e 705F7500 		.ascii	"p_u\000"
 1454 0212 05       		.byte	0x5
 1455 0213 3101     		.2byte	0x131
 1456 0215 2C010000 		.4byte	0x12c
 1457 0219 24       		.byte	0x24
 1458 021a 0B       		.uleb128 0xb
 1459 021b 360E0000 		.4byte	.LASF43
 1460 021f 05       		.byte	0x5
 1461 0220 3601     		.2byte	0x136
 1462 0222 A1020000 		.4byte	0x2a1
 1463 0226 28       		.byte	0x28
 1464 0227 0B       		.uleb128 0xb
 1465 0228 EC0B0000 		.4byte	.LASF44
ARM GAS  C:\Users\Luis\AppData\Local\Temp\ccb1YA0P.s 			page 27


 1466 022c 05       		.byte	0x5
 1467 022d 3C01     		.2byte	0x13c
 1468 022f C5020000 		.4byte	0x2c5
 1469 0233 2C       		.byte	0x2c
 1470 0234 0B       		.uleb128 0xb
 1471 0235 580D0000 		.4byte	.LASF45
 1472 0239 05       		.byte	0x5
 1473 023a 4001     		.2byte	0x140
 1474 023c DE000000 		.4byte	0xde
 1475 0240 34       		.byte	0x34
 1476 0241 0B       		.uleb128 0xb
 1477 0242 530A0000 		.4byte	.LASF46
 1478 0246 05       		.byte	0x5
 1479 0247 4601     		.2byte	0x146
 1480 0249 E9000000 		.4byte	0xe9
 1481 024d 38       		.byte	0x38
 1482 024e 0B       		.uleb128 0xb
 1483 024f 5B090000 		.4byte	.LASF47
 1484 0253 05       		.byte	0x5
 1485 0254 4D01     		.2byte	0x14d
 1486 0256 59070000 		.4byte	0x759
 1487 025a 3C       		.byte	0x3c
 1488 025b 0B       		.uleb128 0xb
 1489 025c 3F0B0000 		.4byte	.LASF48
 1490 0260 05       		.byte	0x5
 1491 0261 5101     		.2byte	0x151
 1492 0263 D3000000 		.4byte	0xd3
 1493 0267 40       		.byte	0x40
 1494 0268 0B       		.uleb128 0xb
 1495 0269 35020000 		.4byte	.LASF49
 1496 026d 05       		.byte	0x5
 1497 026e 5801     		.2byte	0x158
 1498 0270 78030000 		.4byte	0x378
 1499 0274 44       		.byte	0x44
 1500 0275 0B       		.uleb128 0xb
 1501 0276 21030000 		.4byte	.LASF50
 1502 027a 05       		.byte	0x5
 1503 027b 5E01     		.2byte	0x15e
 1504 027d A4060000 		.4byte	0x6a4
 1505 0281 48       		.byte	0x48
 1506 0282 0B       		.uleb128 0xb
 1507 0283 CB040000 		.4byte	.LASF51
 1508 0287 05       		.byte	0x5
 1509 0288 6201     		.2byte	0x162
 1510 028a 78030000 		.4byte	0x378
 1511 028e 60       		.byte	0x60
 1512 028f 00       		.byte	0
 1513 0290 04       		.uleb128 0x4
 1514 0291 AA060000 		.4byte	.LASF52
 1515 0295 04       		.byte	0x4
 1516 0296 44       		.byte	0x44
 1517 0297 9B020000 		.4byte	0x29b
 1518 029b 0C       		.uleb128 0xc
 1519 029c 04       		.byte	0x4
 1520 029d 15010000 		.4byte	0x115
 1521 02a1 04       		.uleb128 0x4
 1522 02a2 230D0000 		.4byte	.LASF53
ARM GAS  C:\Users\Luis\AppData\Local\Temp\ccb1YA0P.s 			page 28


 1523 02a6 04       		.byte	0x4
 1524 02a7 49       		.byte	0x49
 1525 02a8 AC020000 		.4byte	0x2ac
 1526 02ac 06       		.uleb128 0x6
 1527 02ad A70A0000 		.4byte	.LASF55
 1528 02b1 04       		.byte	0x4
 1529 02b2 05       		.byte	0x5
 1530 02b3 B0       		.byte	0xb0
 1531 02b4 C5020000 		.4byte	0x2c5
 1532 02b8 09       		.uleb128 0x9
 1533 02b9 AF090000 		.4byte	.LASF32
 1534 02bd 05       		.byte	0x5
 1535 02be B1       		.byte	0xb1
 1536 02bf 9B020000 		.4byte	0x29b
 1537 02c3 00       		.byte	0
 1538 02c4 00       		.byte	0
 1539 02c5 04       		.uleb128 0x4
 1540 02c6 0A0A0000 		.4byte	.LASF56
 1541 02ca 04       		.byte	0x4
 1542 02cb 50       		.byte	0x50
 1543 02cc D0020000 		.4byte	0x2d0
 1544 02d0 06       		.uleb128 0x6
 1545 02d1 A8010000 		.4byte	.LASF57
 1546 02d5 08       		.byte	0x8
 1547 02d6 05       		.byte	0x5
 1548 02d7 B7       		.byte	0xb7
 1549 02d8 F5020000 		.4byte	0x2f5
 1550 02dc 09       		.uleb128 0x9
 1551 02dd AF090000 		.4byte	.LASF32
 1552 02e1 05       		.byte	0x5
 1553 02e2 B8       		.byte	0xb8
 1554 02e3 9B020000 		.4byte	0x29b
 1555 02e7 00       		.byte	0
 1556 02e8 09       		.uleb128 0x9
 1557 02e9 19080000 		.4byte	.LASF33
 1558 02ed 05       		.byte	0x5
 1559 02ee B9       		.byte	0xb9
 1560 02ef 9B020000 		.4byte	0x29b
 1561 02f3 04       		.byte	0x4
 1562 02f4 00       		.byte	0
 1563 02f5 04       		.uleb128 0x4
 1564 02f6 30000000 		.4byte	.LASF58
 1565 02fa 04       		.byte	0x4
 1566 02fb 57       		.byte	0x57
 1567 02fc 00030000 		.4byte	0x300
 1568 0300 0D       		.uleb128 0xd
 1569 0301 CC050000 		.4byte	.LASF59
 1570 0305 1C       		.byte	0x1c
 1571 0306 05       		.byte	0x5
 1572 0307 9001     		.2byte	0x190
 1573 0309 5C030000 		.4byte	0x35c
 1574 030d 0B       		.uleb128 0xb
 1575 030e 960A0000 		.4byte	.LASF60
 1576 0312 05       		.byte	0x5
 1577 0313 9101     		.2byte	0x191
 1578 0315 C5020000 		.4byte	0x2c5
 1579 0319 00       		.byte	0
ARM GAS  C:\Users\Luis\AppData\Local\Temp\ccb1YA0P.s 			page 29


 1580 031a 0B       		.uleb128 0xb
 1581 031b 8F090000 		.4byte	.LASF61
 1582 031f 05       		.byte	0x5
 1583 0320 9201     		.2byte	0x192
 1584 0322 D3000000 		.4byte	0xd3
 1585 0326 08       		.byte	0x8
 1586 0327 0B       		.uleb128 0xb
 1587 0328 3D070000 		.4byte	.LASF62
 1588 032c 05       		.byte	0x5
 1589 032d 9401     		.2byte	0x194
 1590 032f 04050000 		.4byte	0x504
 1591 0333 0C       		.byte	0xc
 1592 0334 0B       		.uleb128 0xb
 1593 0335 CC030000 		.4byte	.LASF63
 1594 0339 05       		.byte	0x5
 1595 033a 9701     		.2byte	0x197
 1596 033c 9B020000 		.4byte	0x29b
 1597 0340 10       		.byte	0x10
 1598 0341 0B       		.uleb128 0xb
 1599 0342 99070000 		.4byte	.LASF64
 1600 0346 05       		.byte	0x5
 1601 0347 9801     		.2byte	0x198
 1602 0349 9B020000 		.4byte	0x29b
 1603 034d 14       		.byte	0x14
 1604 034e 0B       		.uleb128 0xb
 1605 034f 8F070000 		.4byte	.LASF65
 1606 0353 05       		.byte	0x5
 1607 0354 9B01     		.2byte	0x19b
 1608 0356 9B020000 		.4byte	0x29b
 1609 035a 18       		.byte	0x18
 1610 035b 00       		.byte	0
 1611 035c 04       		.uleb128 0x4
 1612 035d 4A0B0000 		.4byte	.LASF66
 1613 0361 04       		.byte	0x4
 1614 0362 5C       		.byte	0x5c
 1615 0363 67030000 		.4byte	0x367
 1616 0367 0C       		.uleb128 0xc
 1617 0368 04       		.byte	0x4
 1618 0369 6D030000 		.4byte	0x36d
 1619 036d 0E       		.uleb128 0xe
 1620 036e 78030000 		.4byte	0x378
 1621 0372 0F       		.uleb128 0xf
 1622 0373 78030000 		.4byte	0x378
 1623 0377 00       		.byte	0
 1624 0378 10       		.uleb128 0x10
 1625 0379 04       		.byte	0x4
 1626 037a 04       		.uleb128 0x4
 1627 037b 09080000 		.4byte	.LASF67
 1628 037f 04       		.byte	0x4
 1629 0380 61       		.byte	0x61
 1630 0381 85030000 		.4byte	0x385
 1631 0385 0D       		.uleb128 0xd
 1632 0386 470D0000 		.4byte	.LASF68
 1633 038a 14       		.byte	0x14
 1634 038b 05       		.byte	0x5
 1635 038c 6B01     		.2byte	0x16b
 1636 038e D4030000 		.4byte	0x3d4
ARM GAS  C:\Users\Luis\AppData\Local\Temp\ccb1YA0P.s 			page 30


 1637 0392 0B       		.uleb128 0xb
 1638 0393 B4040000 		.4byte	.LASF69
 1639 0397 05       		.byte	0x5
 1640 0398 6C01     		.2byte	0x16c
 1641 039a 77070000 		.4byte	0x777
 1642 039e 00       		.byte	0
 1643 039f 0B       		.uleb128 0xb
 1644 03a0 DD030000 		.4byte	.LASF70
 1645 03a4 05       		.byte	0x5
 1646 03a5 6D01     		.2byte	0x16d
 1647 03a7 77070000 		.4byte	0x777
 1648 03ab 04       		.byte	0x4
 1649 03ac 0B       		.uleb128 0xb
 1650 03ad 9E0A0000 		.4byte	.LASF71
 1651 03b1 05       		.byte	0x5
 1652 03b2 6E01     		.2byte	0x16e
 1653 03b4 0A010000 		.4byte	0x10a
 1654 03b8 08       		.byte	0x8
 1655 03b9 0B       		.uleb128 0xb
 1656 03ba 06070000 		.4byte	.LASF72
 1657 03be 05       		.byte	0x5
 1658 03bf 6F01     		.2byte	0x16f
 1659 03c1 5C030000 		.4byte	0x35c
 1660 03c5 0C       		.byte	0xc
 1661 03c6 0B       		.uleb128 0xb
 1662 03c7 B6090000 		.4byte	.LASF73
 1663 03cb 05       		.byte	0x5
 1664 03cc 7101     		.2byte	0x171
 1665 03ce 78030000 		.4byte	0x378
 1666 03d2 10       		.byte	0x10
 1667 03d3 00       		.byte	0
 1668 03d4 04       		.uleb128 0x4
 1669 03d5 85010000 		.4byte	.LASF74
 1670 03d9 04       		.byte	0x4
 1671 03da 66       		.byte	0x66
 1672 03db DF030000 		.4byte	0x3df
 1673 03df 0D       		.uleb128 0xd
 1674 03e0 CE060000 		.4byte	.LASF75
 1675 03e4 10       		.byte	0x10
 1676 03e5 05       		.byte	0x5
 1677 03e6 7B01     		.2byte	0x17b
 1678 03e8 21040000 		.4byte	0x421
 1679 03ec 0B       		.uleb128 0xb
 1680 03ed B4040000 		.4byte	.LASF69
 1681 03f1 05       		.byte	0x5
 1682 03f2 7C01     		.2byte	0x17c
 1683 03f4 77070000 		.4byte	0x777
 1684 03f8 00       		.byte	0
 1685 03f9 0B       		.uleb128 0xb
 1686 03fa DD030000 		.4byte	.LASF70
 1687 03fe 05       		.byte	0x5
 1688 03ff 7E01     		.2byte	0x17e
 1689 0401 77070000 		.4byte	0x777
 1690 0405 04       		.byte	0x4
 1691 0406 0B       		.uleb128 0xb
 1692 0407 9E0A0000 		.4byte	.LASF71
 1693 040b 05       		.byte	0x5
ARM GAS  C:\Users\Luis\AppData\Local\Temp\ccb1YA0P.s 			page 31


 1694 040c 8001     		.2byte	0x180
 1695 040e 0A010000 		.4byte	0x10a
 1696 0412 08       		.byte	0x8
 1697 0413 0B       		.uleb128 0xb
 1698 0414 29070000 		.4byte	.LASF76
 1699 0418 05       		.byte	0x5
 1700 0419 8801     		.2byte	0x188
 1701 041b 0A010000 		.4byte	0x10a
 1702 041f 0C       		.byte	0xc
 1703 0420 00       		.byte	0
 1704 0421 04       		.uleb128 0x4
 1705 0422 A5040000 		.4byte	.LASF77
 1706 0426 04       		.byte	0x4
 1707 0427 6B       		.byte	0x6b
 1708 0428 2C040000 		.4byte	0x42c
 1709 042c 11       		.uleb128 0x11
 1710 042d E5030000 		.4byte	.LASF78
 1711 0431 1404     		.2byte	0x414
 1712 0433 05       		.byte	0x5
 1713 0434 A201     		.2byte	0x1a2
 1714 0436 6F040000 		.4byte	0x46f
 1715 043a 0B       		.uleb128 0xb
 1716 043b B50C0000 		.4byte	.LASF79
 1717 043f 05       		.byte	0x5
 1718 0440 AA01     		.2byte	0x1aa
 1719 0442 7D070000 		.4byte	0x77d
 1720 0446 00       		.byte	0
 1721 0447 0B       		.uleb128 0xb
 1722 0448 600C0000 		.4byte	.LASF80
 1723 044c 05       		.byte	0x5
 1724 044d AF01     		.2byte	0x1af
 1725 044f F4000000 		.4byte	0xf4
 1726 0453 04       		.byte	0x4
 1727 0454 0B       		.uleb128 0xb
 1728 0455 23040000 		.4byte	.LASF81
 1729 0459 05       		.byte	0x5
 1730 045a B301     		.2byte	0x1b3
 1731 045c F4000000 		.4byte	0xf4
 1732 0460 08       		.byte	0x8
 1733 0461 0B       		.uleb128 0xb
 1734 0462 320D0000 		.4byte	.LASF82
 1735 0466 05       		.byte	0x5
 1736 0467 B901     		.2byte	0x1b9
 1737 0469 2E060000 		.4byte	0x62e
 1738 046d 0C       		.byte	0xc
 1739 046e 00       		.byte	0
 1740 046f 04       		.uleb128 0x4
 1741 0470 7E050000 		.4byte	.LASF83
 1742 0474 04       		.byte	0x4
 1743 0475 70       		.byte	0x70
 1744 0476 7A040000 		.4byte	0x47a
 1745 047a 11       		.uleb128 0x11
 1746 047b AC020000 		.4byte	.LASF84
 1747 047f E805     		.2byte	0x5e8
 1748 0481 05       		.byte	0x5
 1749 0482 C201     		.2byte	0x1c2
 1750 0484 E7040000 		.4byte	0x4e7
ARM GAS  C:\Users\Luis\AppData\Local\Temp\ccb1YA0P.s 			page 32


 1751 0488 0B       		.uleb128 0xb
 1752 0489 A70C0000 		.4byte	.LASF85
 1753 048d 05       		.byte	0x5
 1754 048e C601     		.2byte	0x1c6
 1755 0490 F5020000 		.4byte	0x2f5
 1756 0494 00       		.byte	0
 1757 0495 0B       		.uleb128 0xb
 1758 0496 BC000000 		.4byte	.LASF86
 1759 049a 05       		.byte	0x5
 1760 049b CA01     		.2byte	0x1ca
 1761 049d D4030000 		.4byte	0x3d4
 1762 04a1 1C       		.byte	0x1c
 1763 04a2 0A       		.uleb128 0xa
 1764 04a3 64626700 		.ascii	"dbg\000"
 1765 04a7 05       		.byte	0x5
 1766 04a8 CE01     		.2byte	0x1ce
 1767 04aa 21040000 		.4byte	0x421
 1768 04ae 2C       		.byte	0x2c
 1769 04af 12       		.uleb128 0x12
 1770 04b0 1B050000 		.4byte	.LASF87
 1771 04b4 05       		.byte	0x5
 1772 04b5 D201     		.2byte	0x1d2
 1773 04b7 15010000 		.4byte	0x115
 1774 04bb 4004     		.2byte	0x440
 1775 04bd 13       		.uleb128 0x13
 1776 04be 746D00   		.ascii	"tm\000"
 1777 04c1 05       		.byte	0x5
 1778 04c2 D701     		.2byte	0x1d7
 1779 04c4 52060000 		.4byte	0x652
 1780 04c8 A804     		.2byte	0x4a8
 1781 04ca 12       		.uleb128 0x12
 1782 04cb 98000000 		.4byte	.LASF88
 1783 04cf 05       		.byte	0x5
 1784 04d0 DD01     		.2byte	0x1dd
 1785 04d2 EC060000 		.4byte	0x6ec
 1786 04d6 B004     		.2byte	0x4b0
 1787 04d8 12       		.uleb128 0x12
 1788 04d9 BD090000 		.4byte	.LASF89
 1789 04dd 05       		.byte	0x5
 1790 04de E301     		.2byte	0x1e3
 1791 04e0 82070000 		.4byte	0x782
 1792 04e4 E804     		.2byte	0x4e8
 1793 04e6 00       		.byte	0
 1794 04e7 03       		.uleb128 0x3
 1795 04e8 04       		.byte	0x4
 1796 04e9 07       		.byte	0x7
 1797 04ea BF0C0000 		.4byte	.LASF90
 1798 04ee 04       		.uleb128 0x4
 1799 04ef D4030000 		.4byte	.LASF91
 1800 04f3 06       		.byte	0x6
 1801 04f4 65       		.byte	0x65
 1802 04f5 78030000 		.4byte	0x378
 1803 04f9 04       		.uleb128 0x4
 1804 04fa 3B060000 		.4byte	.LASF92
 1805 04fe 06       		.byte	0x6
 1806 04ff 6D       		.byte	0x6d
 1807 0500 85000000 		.4byte	0x85
ARM GAS  C:\Users\Luis\AppData\Local\Temp\ccb1YA0P.s 			page 33


 1808 0504 06       		.uleb128 0x6
 1809 0505 C70B0000 		.4byte	.LASF93
 1810 0509 04       		.byte	0x4
 1811 050a 06       		.byte	0x6
 1812 050b 89       		.byte	0x89
 1813 050c 1D050000 		.4byte	0x51d
 1814 0510 14       		.uleb128 0x14
 1815 0511 72313300 		.ascii	"r13\000"
 1816 0515 06       		.byte	0x6
 1817 0516 8A       		.byte	0x8a
 1818 0517 98050000 		.4byte	0x598
 1819 051b 00       		.byte	0
 1820 051c 00       		.byte	0
 1821 051d 06       		.uleb128 0x6
 1822 051e B0000000 		.4byte	.LASF94
 1823 0522 24       		.byte	0x24
 1824 0523 07       		.byte	0x7
 1825 0524 F4       		.byte	0xf4
 1826 0525 98050000 		.4byte	0x598
 1827 0529 0A       		.uleb128 0xa
 1828 052a 723400   		.ascii	"r4\000"
 1829 052d 07       		.byte	0x7
 1830 052e 0701     		.2byte	0x107
 1831 0530 EE040000 		.4byte	0x4ee
 1832 0534 00       		.byte	0
 1833 0535 0A       		.uleb128 0xa
 1834 0536 723500   		.ascii	"r5\000"
 1835 0539 07       		.byte	0x7
 1836 053a 0801     		.2byte	0x108
 1837 053c EE040000 		.4byte	0x4ee
 1838 0540 04       		.byte	0x4
 1839 0541 0A       		.uleb128 0xa
 1840 0542 723600   		.ascii	"r6\000"
 1841 0545 07       		.byte	0x7
 1842 0546 0901     		.2byte	0x109
 1843 0548 EE040000 		.4byte	0x4ee
 1844 054c 08       		.byte	0x8
 1845 054d 0A       		.uleb128 0xa
 1846 054e 723700   		.ascii	"r7\000"
 1847 0551 07       		.byte	0x7
 1848 0552 0A01     		.2byte	0x10a
 1849 0554 EE040000 		.4byte	0x4ee
 1850 0558 0C       		.byte	0xc
 1851 0559 0A       		.uleb128 0xa
 1852 055a 723800   		.ascii	"r8\000"
 1853 055d 07       		.byte	0x7
 1854 055e 0B01     		.2byte	0x10b
 1855 0560 EE040000 		.4byte	0x4ee
 1856 0564 10       		.byte	0x10
 1857 0565 0A       		.uleb128 0xa
 1858 0566 723900   		.ascii	"r9\000"
 1859 0569 07       		.byte	0x7
 1860 056a 0C01     		.2byte	0x10c
 1861 056c EE040000 		.4byte	0x4ee
 1862 0570 14       		.byte	0x14
 1863 0571 0A       		.uleb128 0xa
 1864 0572 72313000 		.ascii	"r10\000"
ARM GAS  C:\Users\Luis\AppData\Local\Temp\ccb1YA0P.s 			page 34


 1865 0576 07       		.byte	0x7
 1866 0577 0D01     		.2byte	0x10d
 1867 0579 EE040000 		.4byte	0x4ee
 1868 057d 18       		.byte	0x18
 1869 057e 0A       		.uleb128 0xa
 1870 057f 72313100 		.ascii	"r11\000"
 1871 0583 07       		.byte	0x7
 1872 0584 0E01     		.2byte	0x10e
 1873 0586 EE040000 		.4byte	0x4ee
 1874 058a 1C       		.byte	0x1c
 1875 058b 0A       		.uleb128 0xa
 1876 058c 6C7200   		.ascii	"lr\000"
 1877 058f 07       		.byte	0x7
 1878 0590 0F01     		.2byte	0x10f
 1879 0592 EE040000 		.4byte	0x4ee
 1880 0596 20       		.byte	0x20
 1881 0597 00       		.byte	0
 1882 0598 0C       		.uleb128 0xc
 1883 0599 04       		.byte	0x4
 1884 059a 1D050000 		.4byte	0x51d
 1885 059e 15       		.uleb128 0x15
 1886 059f 10       		.byte	0x10
 1887 05a0 08       		.byte	0x8
 1888 05a1 51       		.byte	0x51
 1889 05a2 00050000 		.4byte	.LASF104
 1890 05a6 DB050000 		.4byte	0x5db
 1891 05aa 09       		.uleb128 0x9
 1892 05ab 3D000000 		.4byte	.LASF95
 1893 05af 08       		.byte	0x8
 1894 05b0 55       		.byte	0x55
 1895 05b1 0A010000 		.4byte	0x10a
 1896 05b5 00       		.byte	0
 1897 05b6 09       		.uleb128 0x9
 1898 05b7 29030000 		.4byte	.LASF96
 1899 05bb 08       		.byte	0x8
 1900 05bc 59       		.byte	0x59
 1901 05bd 9B020000 		.4byte	0x29b
 1902 05c1 04       		.byte	0x4
 1903 05c2 09       		.uleb128 0x9
 1904 05c3 260E0000 		.4byte	.LASF97
 1905 05c7 08       		.byte	0x8
 1906 05c8 5D       		.byte	0x5d
 1907 05c9 78030000 		.4byte	0x378
 1908 05cd 08       		.byte	0x8
 1909 05ce 09       		.uleb128 0x9
 1910 05cf 12010000 		.4byte	.LASF98
 1911 05d3 08       		.byte	0x8
 1912 05d4 61       		.byte	0x61
 1913 05d5 3A000000 		.4byte	0x3a
 1914 05d9 0C       		.byte	0xc
 1915 05da 00       		.byte	0
 1916 05db 04       		.uleb128 0x4
 1917 05dc 1A070000 		.4byte	.LASF99
 1918 05e0 08       		.byte	0x8
 1919 05e1 62       		.byte	0x62
 1920 05e2 9E050000 		.4byte	0x59e
 1921 05e6 16       		.uleb128 0x16
ARM GAS  C:\Users\Luis\AppData\Local\Temp\ccb1YA0P.s 			page 35


 1922 05e7 0804     		.2byte	0x408
 1923 05e9 08       		.byte	0x8
 1924 05ea 67       		.byte	0x67
 1925 05eb 08060000 		.4byte	.LASF218
 1926 05ef 18060000 		.4byte	0x618
 1927 05f3 09       		.uleb128 0x9
 1928 05f4 B5030000 		.4byte	.LASF100
 1929 05f8 08       		.byte	0x8
 1930 05f9 6B       		.byte	0x6b
 1931 05fa 2C000000 		.4byte	0x2c
 1932 05fe 00       		.byte	0
 1933 05ff 09       		.uleb128 0x9
 1934 0600 8E060000 		.4byte	.LASF101
 1935 0604 08       		.byte	0x8
 1936 0605 6F       		.byte	0x6f
 1937 0606 18060000 		.4byte	0x618
 1938 060a 04       		.byte	0x4
 1939 060b 09       		.uleb128 0x9
 1940 060c FF070000 		.4byte	.LASF102
 1941 0610 08       		.byte	0x8
 1942 0611 73       		.byte	0x73
 1943 0612 1E060000 		.4byte	0x61e
 1944 0616 08       		.byte	0x8
 1945 0617 00       		.byte	0
 1946 0618 0C       		.uleb128 0xc
 1947 0619 04       		.byte	0x4
 1948 061a DB050000 		.4byte	0x5db
 1949 061e 17       		.uleb128 0x17
 1950 061f DB050000 		.4byte	0x5db
 1951 0623 2E060000 		.4byte	0x62e
 1952 0627 18       		.uleb128 0x18
 1953 0628 E7040000 		.4byte	0x4e7
 1954 062c 3F       		.byte	0x3f
 1955 062d 00       		.byte	0
 1956 062e 04       		.uleb128 0x4
 1957 062f 27090000 		.4byte	.LASF103
 1958 0633 08       		.byte	0x8
 1959 0634 74       		.byte	0x74
 1960 0635 E6050000 		.4byte	0x5e6
 1961 0639 15       		.uleb128 0x15
 1962 063a 04       		.byte	0x4
 1963 063b 09       		.byte	0x9
 1964 063c 38       		.byte	0x38
 1965 063d 160B0000 		.4byte	.LASF105
 1966 0641 52060000 		.4byte	0x652
 1967 0645 09       		.uleb128 0x9
 1968 0646 C00B0000 		.4byte	.LASF106
 1969 064a 09       		.byte	0x9
 1970 064b 3C       		.byte	0x3c
 1971 064c 9C000000 		.4byte	0x9c
 1972 0650 00       		.byte	0
 1973 0651 00       		.byte	0
 1974 0652 04       		.uleb128 0x4
 1975 0653 69070000 		.4byte	.LASF107
 1976 0657 09       		.byte	0x9
 1977 0658 3D       		.byte	0x3d
 1978 0659 39060000 		.4byte	0x639
ARM GAS  C:\Users\Luis\AppData\Local\Temp\ccb1YA0P.s 			page 36


 1979 065d 15       		.uleb128 0x15
 1980 065e 18       		.byte	0x18
 1981 065f 09       		.byte	0x9
 1982 0660 48       		.byte	0x48
 1983 0661 43070000 		.4byte	.LASF108
 1984 0665 A4060000 		.4byte	0x6a4
 1985 0669 09       		.uleb128 0x9
 1986 066a 290B0000 		.4byte	.LASF109
 1987 066e 09       		.byte	0x9
 1988 066f 49       		.byte	0x49
 1989 0670 9C000000 		.4byte	0x9c
 1990 0674 00       		.byte	0
 1991 0675 09       		.uleb128 0x9
 1992 0676 CF000000 		.4byte	.LASF110
 1993 067a 09       		.byte	0x9
 1994 067b 4A       		.byte	0x4a
 1995 067c 9C000000 		.4byte	0x9c
 1996 0680 04       		.byte	0x4
 1997 0681 09       		.uleb128 0x9
 1998 0682 44050000 		.4byte	.LASF111
 1999 0686 09       		.byte	0x9
 2000 0687 4B       		.byte	0x4b
 2001 0688 9C000000 		.4byte	0x9c
 2002 068c 08       		.byte	0x8
 2003 068d 14       		.uleb128 0x14
 2004 068e 6E00     		.ascii	"n\000"
 2005 0690 09       		.byte	0x9
 2006 0691 4C       		.byte	0x4c
 2007 0692 FF000000 		.4byte	0xff
 2008 0696 0C       		.byte	0xc
 2009 0697 09       		.uleb128 0x9
 2010 0698 B0070000 		.4byte	.LASF112
 2011 069c 09       		.byte	0x9
 2012 069d 4D       		.byte	0x4d
 2013 069e A7000000 		.4byte	0xa7
 2014 06a2 10       		.byte	0x10
 2015 06a3 00       		.byte	0
 2016 06a4 04       		.uleb128 0x4
 2017 06a5 D5000000 		.4byte	.LASF113
 2018 06a9 09       		.byte	0x9
 2019 06aa 4E       		.byte	0x4e
 2020 06ab 5D060000 		.4byte	0x65d
 2021 06af 15       		.uleb128 0x15
 2022 06b0 38       		.byte	0x38
 2023 06b1 0A       		.byte	0xa
 2024 06b2 38       		.byte	0x38
 2025 06b3 58070000 		.4byte	.LASF114
 2026 06b7 EC060000 		.4byte	0x6ec
 2027 06bb 09       		.uleb128 0x9
 2028 06bc D2040000 		.4byte	.LASF115
 2029 06c0 0A       		.byte	0xa
 2030 06c1 39       		.byte	0x39
 2031 06c2 FF000000 		.4byte	0xff
 2032 06c6 00       		.byte	0
 2033 06c7 09       		.uleb128 0x9
 2034 06c8 16090000 		.4byte	.LASF116
 2035 06cc 0A       		.byte	0xa
ARM GAS  C:\Users\Luis\AppData\Local\Temp\ccb1YA0P.s 			page 37


 2036 06cd 3A       		.byte	0x3a
 2037 06ce FF000000 		.4byte	0xff
 2038 06d2 04       		.byte	0x4
 2039 06d3 09       		.uleb128 0x9
 2040 06d4 530B0000 		.4byte	.LASF117
 2041 06d8 0A       		.byte	0xa
 2042 06d9 3B       		.byte	0x3b
 2043 06da A4060000 		.4byte	0x6a4
 2044 06de 08       		.byte	0x8
 2045 06df 09       		.uleb128 0x9
 2046 06e0 C1050000 		.4byte	.LASF118
 2047 06e4 0A       		.byte	0xa
 2048 06e5 3D       		.byte	0x3d
 2049 06e6 A4060000 		.4byte	0x6a4
 2050 06ea 20       		.byte	0x20
 2051 06eb 00       		.byte	0
 2052 06ec 04       		.uleb128 0x4
 2053 06ed F1040000 		.4byte	.LASF119
 2054 06f1 0A       		.byte	0xa
 2055 06f2 3F       		.byte	0x3f
 2056 06f3 AF060000 		.4byte	0x6af
 2057 06f7 0C       		.uleb128 0xc
 2058 06f8 04       		.byte	0x4
 2059 06f9 90020000 		.4byte	0x290
 2060 06fd 06       		.uleb128 0x6
 2061 06fe 460A0000 		.4byte	.LASF120
 2062 0702 0C       		.byte	0xc
 2063 0703 0B       		.byte	0xb
 2064 0704 34       		.byte	0x34
 2065 0705 22070000 		.4byte	0x722
 2066 0709 09       		.uleb128 0x9
 2067 070a A4030000 		.4byte	.LASF121
 2068 070e 0B       		.byte	0xb
 2069 070f 35       		.byte	0x35
 2070 0710 C5020000 		.4byte	0x2c5
 2071 0714 00       		.byte	0
 2072 0715 09       		.uleb128 0x9
 2073 0716 D8040000 		.4byte	.LASF122
 2074 071a 0B       		.byte	0xb
 2075 071b 37       		.byte	0x37
 2076 071c F4000000 		.4byte	0xf4
 2077 0720 08       		.byte	0x8
 2078 0721 00       		.byte	0
 2079 0722 0C       		.uleb128 0xc
 2080 0723 04       		.byte	0x4
 2081 0724 FD060000 		.4byte	0x6fd
 2082 0728 06       		.uleb128 0x6
 2083 0729 C80C0000 		.4byte	.LASF123
 2084 072d 10       		.byte	0x10
 2085 072e 0C       		.byte	0xc
 2086 072f 39       		.byte	0x39
 2087 0730 59070000 		.4byte	0x759
 2088 0734 09       		.uleb128 0x9
 2089 0735 4B020000 		.4byte	.LASF124
 2090 0739 0C       		.byte	0xc
 2091 073a 3A       		.byte	0x3a
 2092 073b C5020000 		.4byte	0x2c5
ARM GAS  C:\Users\Luis\AppData\Local\Temp\ccb1YA0P.s 			page 38


 2093 073f 00       		.byte	0
 2094 0740 09       		.uleb128 0x9
 2095 0741 1E0E0000 		.4byte	.LASF125
 2096 0745 0C       		.byte	0xc
 2097 0746 3C       		.byte	0x3c
 2098 0747 9B020000 		.4byte	0x29b
 2099 074b 08       		.byte	0x8
 2100 074c 09       		.uleb128 0x9
 2101 074d 2E0B0000 		.4byte	.LASF126
 2102 0751 0C       		.byte	0xc
 2103 0752 3E       		.byte	0x3e
 2104 0753 9D070000 		.4byte	0x79d
 2105 0757 0C       		.byte	0xc
 2106 0758 00       		.byte	0
 2107 0759 0C       		.uleb128 0xc
 2108 075a 04       		.byte	0x4
 2109 075b 28070000 		.4byte	0x728
 2110 075f 0C       		.uleb128 0xc
 2111 0760 04       		.byte	0x4
 2112 0761 65070000 		.4byte	0x765
 2113 0765 19       		.uleb128 0x19
 2114 0766 6A070000 		.4byte	0x76a
 2115 076a 03       		.uleb128 0x3
 2116 076b 01       		.byte	0x1
 2117 076c 08       		.byte	0x8
 2118 076d 110B0000 		.4byte	.LASF127
 2119 0771 0C       		.uleb128 0xc
 2120 0772 04       		.byte	0x4
 2121 0773 F9040000 		.4byte	0x4f9
 2122 0777 0C       		.uleb128 0xc
 2123 0778 04       		.byte	0x4
 2124 0779 7A030000 		.4byte	0x37a
 2125 077d 05       		.uleb128 0x5
 2126 077e 5F070000 		.4byte	0x75f
 2127 0782 17       		.uleb128 0x17
 2128 0783 90000000 		.4byte	0x90
 2129 0787 92070000 		.4byte	0x792
 2130 078b 18       		.uleb128 0x18
 2131 078c E7040000 		.4byte	0x4e7
 2132 0790 1F       		.byte	0x1f
 2133 0791 00       		.byte	0
 2134 0792 04       		.uleb128 0x4
 2135 0793 14040000 		.4byte	.LASF128
 2136 0797 0C       		.byte	0xc
 2137 0798 34       		.byte	0x34
 2138 0799 28070000 		.4byte	0x728
 2139 079d 0C       		.uleb128 0xc
 2140 079e 04       		.byte	0x4
 2141 079f 92070000 		.4byte	0x792
 2142 07a3 03       		.uleb128 0x3
 2143 07a4 01       		.byte	0x1
 2144 07a5 02       		.byte	0x2
 2145 07a6 92050000 		.4byte	.LASF129
 2146 07aa 1A       		.uleb128 0x1a
 2147 07ab 9C0C0000 		.4byte	.LASF219
 2148 07af 34       		.byte	0x34
 2149 07b0 0D       		.byte	0xd
ARM GAS  C:\Users\Luis\AppData\Local\Temp\ccb1YA0P.s 			page 39


 2150 07b1 0D       		.byte	0xd
 2151 07b2 AA070000 		.4byte	0x7aa
 2152 07b6 E80B0000 		.4byte	0xbe8
 2153 07ba 1B       		.uleb128 0x1b
 2154 07bb BD060000 		.4byte	.LASF130
 2155 07bf F30B0000 		.4byte	0xbf3
 2156 07c3 00       		.byte	0
 2157 07c4 01       		.byte	0x1
 2158 07c5 09       		.uleb128 0x9
 2159 07c6 C3000000 		.4byte	.LASF131
 2160 07ca 0D       		.byte	0xd
 2161 07cb 7F       		.byte	0x7f
 2162 07cc 25000000 		.4byte	0x25
 2163 07d0 04       		.byte	0x4
 2164 07d1 09       		.uleb128 0x9
 2165 07d2 26050000 		.4byte	.LASF132
 2166 07d6 0D       		.byte	0xd
 2167 07d7 82       		.byte	0x82
 2168 07d8 030C0000 		.4byte	0xc03
 2169 07dc 08       		.byte	0x8
 2170 07dd 09       		.uleb128 0x9
 2171 07de 0A0C0000 		.4byte	.LASF133
 2172 07e2 0D       		.byte	0xd
 2173 07e3 83       		.byte	0x83
 2174 07e4 030C0000 		.4byte	0xc03
 2175 07e8 0C       		.byte	0xc
 2176 07e9 09       		.uleb128 0x9
 2177 07ea 380C0000 		.4byte	.LASF134
 2178 07ee 0D       		.byte	0xd
 2179 07ef 84       		.byte	0x84
 2180 07f0 030C0000 		.4byte	0xc03
 2181 07f4 10       		.byte	0x10
 2182 07f5 09       		.uleb128 0x9
 2183 07f6 F0050000 		.4byte	.LASF135
 2184 07fa 0D       		.byte	0xd
 2185 07fb 87       		.byte	0x87
 2186 07fc 030C0000 		.4byte	0xc03
 2187 0800 14       		.byte	0x14
 2188 0801 09       		.uleb128 0x9
 2189 0802 F70B0000 		.4byte	.LASF136
 2190 0806 0D       		.byte	0xd
 2191 0807 88       		.byte	0x88
 2192 0808 030C0000 		.4byte	0xc03
 2193 080c 18       		.byte	0x18
 2194 080d 09       		.uleb128 0x9
 2195 080e 450C0000 		.4byte	.LASF137
 2196 0812 0D       		.byte	0xd
 2197 0813 89       		.byte	0x89
 2198 0814 030C0000 		.4byte	0xc03
 2199 0818 1C       		.byte	0x1c
 2200 0819 09       		.uleb128 0x9
 2201 081a 0E070000 		.4byte	.LASF138
 2202 081e 0D       		.byte	0xd
 2203 081f 8C       		.byte	0x8c
 2204 0820 030C0000 		.4byte	0xc03
 2205 0824 20       		.byte	0x20
 2206 0825 09       		.uleb128 0x9
ARM GAS  C:\Users\Luis\AppData\Local\Temp\ccb1YA0P.s 			page 40


 2207 0826 83030000 		.4byte	.LASF139
 2208 082a 0D       		.byte	0xd
 2209 082b 8D       		.byte	0x8d
 2210 082c 100C0000 		.4byte	0xc10
 2211 0830 24       		.byte	0x24
 2212 0831 09       		.uleb128 0x9
 2213 0832 96090000 		.4byte	.LASF140
 2214 0836 0D       		.byte	0xd
 2215 0837 8E       		.byte	0x8e
 2216 0838 25000000 		.4byte	0x25
 2217 083c 28       		.byte	0x28
 2218 083d 09       		.uleb128 0x9
 2219 083e 1C040000 		.4byte	.LASF141
 2220 0842 0D       		.byte	0xd
 2221 0843 8F       		.byte	0x8f
 2222 0844 090C0000 		.4byte	0xc09
 2223 0848 2C       		.byte	0x2c
 2224 0849 09       		.uleb128 0x9
 2225 084a 810A0000 		.4byte	.LASF142
 2226 084e 0D       		.byte	0xd
 2227 084f 91       		.byte	0x91
 2228 0850 25000000 		.4byte	0x25
 2229 0854 30       		.byte	0x30
 2230 0855 1C       		.uleb128 0x1c
 2231 0856 6F0E0000 		.4byte	.LASF143
 2232 085a 01       		.byte	0x1
 2233 085b 10       		.byte	0x10
 2234 085c E5060000 		.4byte	.LASF145
 2235 0860 01       		.byte	0x1
 2236 0861 69080000 		.4byte	0x869
 2237 0865 74080000 		.4byte	0x874
 2238 0869 1D       		.uleb128 0x1d
 2239 086a 160C0000 		.4byte	0xc16
 2240 086e 0F       		.uleb128 0xf
 2241 086f 25000000 		.4byte	0x25
 2242 0873 00       		.byte	0
 2243 0874 1E       		.uleb128 0x1e
 2244 0875 56040000 		.4byte	.LASF220
 2245 0879 01       		.byte	0x1
 2246 087a 1E       		.byte	0x1e
 2247 087b 78030000 		.4byte	0x378
 2248 087f 01       		.byte	0x1
 2249 0880 AA070000 		.4byte	0x7aa
 2250 0884 01       		.byte	0x1
 2251 0885 8D080000 		.4byte	0x88d
 2252 0889 98080000 		.4byte	0x898
 2253 088d 1D       		.uleb128 0x1d
 2254 088e 160C0000 		.4byte	0xc16
 2255 0892 1D       		.uleb128 0x1d
 2256 0893 25000000 		.4byte	0x25
 2257 0897 00       		.byte	0
 2258 0898 1C       		.uleb128 0x1c
 2259 0899 21020000 		.4byte	.LASF144
 2260 089d 01       		.byte	0x1
 2261 089e 28       		.byte	0x28
 2262 089f 2F030000 		.4byte	.LASF146
 2263 08a3 01       		.byte	0x1
ARM GAS  C:\Users\Luis\AppData\Local\Temp\ccb1YA0P.s 			page 41


 2264 08a4 AC080000 		.4byte	0x8ac
 2265 08a8 B2080000 		.4byte	0x8b2
 2266 08ac 1D       		.uleb128 0x1d
 2267 08ad 160C0000 		.4byte	0xc16
 2268 08b1 00       		.byte	0
 2269 08b2 1C       		.uleb128 0x1c
 2270 08b3 D40D0000 		.4byte	.LASF147
 2271 08b7 01       		.byte	0x1
 2272 08b8 32       		.byte	0x32
 2273 08b9 55000000 		.4byte	.LASF148
 2274 08bd 01       		.byte	0x1
 2275 08be C6080000 		.4byte	0x8c6
 2276 08c2 CC080000 		.4byte	0x8cc
 2277 08c6 1D       		.uleb128 0x1d
 2278 08c7 160C0000 		.4byte	0xc16
 2279 08cb 00       		.byte	0
 2280 08cc 1C       		.uleb128 0x1c
 2281 08cd 49090000 		.4byte	.LASF149
 2282 08d1 0D       		.byte	0xd
 2283 08d2 27       		.byte	0x27
 2284 08d3 B70A0000 		.4byte	.LASF150
 2285 08d7 01       		.byte	0x1
 2286 08d8 E0080000 		.4byte	0x8e0
 2287 08dc E6080000 		.4byte	0x8e6
 2288 08e0 1D       		.uleb128 0x1d
 2289 08e1 160C0000 		.4byte	0xc16
 2290 08e5 00       		.byte	0
 2291 08e6 1C       		.uleb128 0x1c
 2292 08e7 00000000 		.4byte	.LASF151
 2293 08eb 01       		.byte	0x1
 2294 08ec 3A       		.byte	0x3a
 2295 08ed 13000000 		.4byte	.LASF152
 2296 08f1 01       		.byte	0x1
 2297 08f2 FA080000 		.4byte	0x8fa
 2298 08f6 05090000 		.4byte	0x905
 2299 08fa 1D       		.uleb128 0x1d
 2300 08fb 160C0000 		.4byte	0xc16
 2301 08ff 0F       		.uleb128 0xf
 2302 0900 030C0000 		.4byte	0xc03
 2303 0904 00       		.byte	0
 2304 0905 1C       		.uleb128 0x1c
 2305 0906 74050000 		.4byte	.LASF153
 2306 090a 0D       		.byte	0xd
 2307 090b 2E       		.byte	0x2e
 2308 090c CA020000 		.4byte	.LASF154
 2309 0910 01       		.byte	0x1
 2310 0911 19090000 		.4byte	0x919
 2311 0915 29090000 		.4byte	0x929
 2312 0919 1D       		.uleb128 0x1d
 2313 091a 160C0000 		.4byte	0xc16
 2314 091e 0F       		.uleb128 0xf
 2315 091f 030C0000 		.4byte	0xc03
 2316 0923 0F       		.uleb128 0xf
 2317 0924 030C0000 		.4byte	0xc03
 2318 0928 00       		.byte	0
 2319 0929 1F       		.uleb128 0x1f
 2320 092a 300A0000 		.4byte	.LASF157
ARM GAS  C:\Users\Luis\AppData\Local\Temp\ccb1YA0P.s 			page 42


 2321 092e 01       		.byte	0x1
 2322 092f 50       		.byte	0x50
 2323 0930 E0090000 		.4byte	.LASF159
 2324 0934 030C0000 		.4byte	0xc03
 2325 0938 01       		.byte	0x1
 2326 0939 41090000 		.4byte	0x941
 2327 093d 47090000 		.4byte	0x947
 2328 0941 1D       		.uleb128 0x1d
 2329 0942 1C0C0000 		.4byte	0xc1c
 2330 0946 00       		.byte	0
 2331 0947 1C       		.uleb128 0x1c
 2332 0948 6F010000 		.4byte	.LASF155
 2333 094c 01       		.byte	0x1
 2334 094d 54       		.byte	0x54
 2335 094e EA020000 		.4byte	.LASF156
 2336 0952 01       		.byte	0x1
 2337 0953 5B090000 		.4byte	0x95b
 2338 0957 66090000 		.4byte	0x966
 2339 095b 1D       		.uleb128 0x1d
 2340 095c 160C0000 		.4byte	0xc16
 2341 0960 0F       		.uleb128 0xf
 2342 0961 030C0000 		.4byte	0xc03
 2343 0965 00       		.byte	0
 2344 0966 1F       		.uleb128 0x1f
 2345 0967 1D0C0000 		.4byte	.LASF158
 2346 096b 0D       		.byte	0xd
 2347 096c 3F       		.byte	0x3f
 2348 096d F40C0000 		.4byte	.LASF160
 2349 0971 030C0000 		.4byte	0xc03
 2350 0975 01       		.byte	0x1
 2351 0976 7E090000 		.4byte	0x97e
 2352 097a 84090000 		.4byte	0x984
 2353 097e 1D       		.uleb128 0x1d
 2354 097f 1C0C0000 		.4byte	0xc1c
 2355 0983 00       		.byte	0
 2356 0984 1C       		.uleb128 0x1c
 2357 0985 790D0000 		.4byte	.LASF161
 2358 0989 01       		.byte	0x1
 2359 098a 5A       		.byte	0x5a
 2360 098b 1B010000 		.4byte	.LASF162
 2361 098f 01       		.byte	0x1
 2362 0990 98090000 		.4byte	0x998
 2363 0994 A3090000 		.4byte	0x9a3
 2364 0998 1D       		.uleb128 0x1d
 2365 0999 160C0000 		.4byte	0xc16
 2366 099d 0F       		.uleb128 0xf
 2367 099e 030C0000 		.4byte	0xc03
 2368 09a2 00       		.byte	0
 2369 09a3 1F       		.uleb128 0x1f
 2370 09a4 53020000 		.4byte	.LASF163
 2371 09a8 01       		.byte	0x1
 2372 09a9 60       		.byte	0x60
 2373 09aa 50050000 		.4byte	.LASF164
 2374 09ae 030C0000 		.4byte	0xc03
 2375 09b2 01       		.byte	0x1
 2376 09b3 BB090000 		.4byte	0x9bb
 2377 09b7 C1090000 		.4byte	0x9c1
ARM GAS  C:\Users\Luis\AppData\Local\Temp\ccb1YA0P.s 			page 43


 2378 09bb 1D       		.uleb128 0x1d
 2379 09bc 1C0C0000 		.4byte	0xc1c
 2380 09c0 00       		.byte	0
 2381 09c1 1C       		.uleb128 0x1c
 2382 09c2 39090000 		.4byte	.LASF165
 2383 09c6 01       		.byte	0x1
 2384 09c7 64       		.byte	0x64
 2385 09c8 AF0D0000 		.4byte	.LASF166
 2386 09cc 01       		.byte	0x1
 2387 09cd D5090000 		.4byte	0x9d5
 2388 09d1 E5090000 		.4byte	0x9e5
 2389 09d5 1D       		.uleb128 0x1d
 2390 09d6 160C0000 		.4byte	0xc16
 2391 09da 0F       		.uleb128 0xf
 2392 09db 030C0000 		.4byte	0xc03
 2393 09df 0F       		.uleb128 0xf
 2394 09e0 25000000 		.4byte	0x25
 2395 09e4 00       		.byte	0
 2396 09e5 1F       		.uleb128 0x1f
 2397 09e6 4A010000 		.4byte	.LASF167
 2398 09ea 01       		.byte	0x1
 2399 09eb 6D       		.byte	0x6d
 2400 09ec DC0A0000 		.4byte	.LASF168
 2401 09f0 25000000 		.4byte	0x25
 2402 09f4 01       		.byte	0x1
 2403 09f5 FD090000 		.4byte	0x9fd
 2404 09f9 030A0000 		.4byte	0xa03
 2405 09fd 1D       		.uleb128 0x1d
 2406 09fe 1C0C0000 		.4byte	0xc1c
 2407 0a02 00       		.byte	0
 2408 0a03 1C       		.uleb128 0x1c
 2409 0a04 BC040000 		.4byte	.LASF169
 2410 0a08 01       		.byte	0x1
 2411 0a09 71       		.byte	0x71
 2412 0a0a E80D0000 		.4byte	.LASF170
 2413 0a0e 01       		.byte	0x1
 2414 0a0f 170A0000 		.4byte	0xa17
 2415 0a13 220A0000 		.4byte	0xa22
 2416 0a17 1D       		.uleb128 0x1d
 2417 0a18 160C0000 		.4byte	0xc16
 2418 0a1c 0F       		.uleb128 0xf
 2419 0a1d 25000000 		.4byte	0x25
 2420 0a21 00       		.byte	0
 2421 0a22 1F       		.uleb128 0x1f
 2422 0a23 BD030000 		.4byte	.LASF171
 2423 0a27 01       		.byte	0x1
 2424 0a28 40       		.byte	0x40
 2425 0a29 5C060000 		.4byte	.LASF172
 2426 0a2d 030C0000 		.4byte	0xc03
 2427 0a31 01       		.byte	0x1
 2428 0a32 3A0A0000 		.4byte	0xa3a
 2429 0a36 400A0000 		.4byte	0xa40
 2430 0a3a 1D       		.uleb128 0x1d
 2431 0a3b 1C0C0000 		.4byte	0xc1c
 2432 0a3f 00       		.byte	0
 2433 0a40 1C       		.uleb128 0x1c
 2434 0a41 DD0B0000 		.4byte	.LASF173
ARM GAS  C:\Users\Luis\AppData\Local\Temp\ccb1YA0P.s 			page 44


 2435 0a45 01       		.byte	0x1
 2436 0a46 44       		.byte	0x44
 2437 0a47 D10C0000 		.4byte	.LASF174
 2438 0a4b 01       		.byte	0x1
 2439 0a4c 540A0000 		.4byte	0xa54
 2440 0a50 5F0A0000 		.4byte	0xa5f
 2441 0a54 1D       		.uleb128 0x1d
 2442 0a55 160C0000 		.4byte	0xc16
 2443 0a59 0F       		.uleb128 0xf
 2444 0a5a 030C0000 		.4byte	0xc03
 2445 0a5e 00       		.byte	0
 2446 0a5f 1F       		.uleb128 0x1f
 2447 0a60 3D020000 		.4byte	.LASF175
 2448 0a64 01       		.byte	0x1
 2449 0a65 48       		.byte	0x48
 2450 0a66 65090000 		.4byte	.LASF176
 2451 0a6a 25000000 		.4byte	0x25
 2452 0a6e 01       		.byte	0x1
 2453 0a6f 770A0000 		.4byte	0xa77
 2454 0a73 7D0A0000 		.4byte	0xa7d
 2455 0a77 1D       		.uleb128 0x1d
 2456 0a78 1C0C0000 		.4byte	0xc1c
 2457 0a7c 00       		.byte	0
 2458 0a7d 1C       		.uleb128 0x1c
 2459 0a7e 97040000 		.4byte	.LASF177
 2460 0a82 01       		.byte	0x1
 2461 0a83 4C       		.byte	0x4c
 2462 0a84 7D0B0000 		.4byte	.LASF178
 2463 0a88 01       		.byte	0x1
 2464 0a89 910A0000 		.4byte	0xa91
 2465 0a8d 9C0A0000 		.4byte	0xa9c
 2466 0a91 1D       		.uleb128 0x1d
 2467 0a92 160C0000 		.4byte	0xc16
 2468 0a96 0F       		.uleb128 0xf
 2469 0a97 25000000 		.4byte	0x25
 2470 0a9b 00       		.byte	0
 2471 0a9c 1F       		.uleb128 0x1f
 2472 0a9d 1A0A0000 		.4byte	.LASF179
 2473 0aa1 01       		.byte	0x1
 2474 0aa2 75       		.byte	0x75
 2475 0aa3 97050000 		.4byte	.LASF180
 2476 0aa7 030C0000 		.4byte	0xc03
 2477 0aab 01       		.byte	0x1
 2478 0aac B40A0000 		.4byte	0xab4
 2479 0ab0 BA0A0000 		.4byte	0xaba
 2480 0ab4 1D       		.uleb128 0x1d
 2481 0ab5 1C0C0000 		.4byte	0xc1c
 2482 0ab9 00       		.byte	0
 2483 0aba 1C       		.uleb128 0x1c
 2484 0abb 59010000 		.4byte	.LASF181
 2485 0abf 01       		.byte	0x1
 2486 0ac0 79       		.byte	0x79
 2487 0ac1 2C040000 		.4byte	.LASF182
 2488 0ac5 01       		.byte	0x1
 2489 0ac6 CE0A0000 		.4byte	0xace
 2490 0aca D90A0000 		.4byte	0xad9
 2491 0ace 1D       		.uleb128 0x1d
ARM GAS  C:\Users\Luis\AppData\Local\Temp\ccb1YA0P.s 			page 45


 2492 0acf 160C0000 		.4byte	0xc16
 2493 0ad3 0F       		.uleb128 0xf
 2494 0ad4 030C0000 		.4byte	0xc03
 2495 0ad8 00       		.byte	0
 2496 0ad9 1F       		.uleb128 0x1f
 2497 0ada 5E0D0000 		.4byte	.LASF183
 2498 0ade 01       		.byte	0x1
 2499 0adf 7D       		.byte	0x7d
 2500 0ae0 400E0000 		.4byte	.LASF184
 2501 0ae4 030C0000 		.4byte	0xc03
 2502 0ae8 01       		.byte	0x1
 2503 0ae9 F10A0000 		.4byte	0xaf1
 2504 0aed F70A0000 		.4byte	0xaf7
 2505 0af1 1D       		.uleb128 0x1d
 2506 0af2 1C0C0000 		.4byte	0xc1c
 2507 0af6 00       		.byte	0
 2508 0af7 1C       		.uleb128 0x1c
 2509 0af8 940D0000 		.4byte	.LASF185
 2510 0afc 01       		.byte	0x1
 2511 0afd 81       		.byte	0x81
 2512 0afe D8010000 		.4byte	.LASF186
 2513 0b02 01       		.byte	0x1
 2514 0b03 0B0B0000 		.4byte	0xb0b
 2515 0b07 160B0000 		.4byte	0xb16
 2516 0b0b 1D       		.uleb128 0x1d
 2517 0b0c 160C0000 		.4byte	0xc16
 2518 0b10 0F       		.uleb128 0xf
 2519 0b11 030C0000 		.4byte	0xc03
 2520 0b15 00       		.byte	0
 2521 0b16 1F       		.uleb128 0x1f
 2522 0b17 63020000 		.4byte	.LASF187
 2523 0b1b 01       		.byte	0x1
 2524 0b1c 87       		.byte	0x87
 2525 0b1d 56030000 		.4byte	.LASF188
 2526 0b21 030C0000 		.4byte	0xc03
 2527 0b25 01       		.byte	0x1
 2528 0b26 2E0B0000 		.4byte	0xb2e
 2529 0b2a 340B0000 		.4byte	0xb34
 2530 0b2e 1D       		.uleb128 0x1d
 2531 0b2f 1C0C0000 		.4byte	0xc1c
 2532 0b33 00       		.byte	0
 2533 0b34 1F       		.uleb128 0x1f
 2534 0b35 A5000000 		.4byte	.LASF189
 2535 0b39 0D       		.byte	0xd
 2536 0b3a 76       		.byte	0x76
 2537 0b3b 5E0B0000 		.4byte	.LASF190
 2538 0b3f 030C0000 		.4byte	0xc03
 2539 0b43 01       		.byte	0x1
 2540 0b44 4C0B0000 		.4byte	0xb4c
 2541 0b48 520B0000 		.4byte	0xb52
 2542 0b4c 1D       		.uleb128 0x1d
 2543 0b4d 1C0C0000 		.4byte	0xc1c
 2544 0b51 00       		.byte	0
 2545 0b52 1C       		.uleb128 0x1c
 2546 0b53 46060000 		.4byte	.LASF191
 2547 0b57 0D       		.byte	0xd
 2548 0b58 77       		.byte	0x77
ARM GAS  C:\Users\Luis\AppData\Local\Temp\ccb1YA0P.s 			page 46


 2549 0b59 F5030000 		.4byte	.LASF192
 2550 0b5d 01       		.byte	0x1
 2551 0b5e 660B0000 		.4byte	0xb66
 2552 0b62 710B0000 		.4byte	0xb71
 2553 0b66 1D       		.uleb128 0x1d
 2554 0b67 160C0000 		.4byte	0xc16
 2555 0b6b 0F       		.uleb128 0xf
 2556 0b6c 030C0000 		.4byte	0xc03
 2557 0b70 00       		.byte	0
 2558 0b71 1F       		.uleb128 0x1f
 2559 0b72 5E0A0000 		.4byte	.LASF193
 2560 0b76 0D       		.byte	0xd
 2561 0b77 78       		.byte	0x78
 2562 0b78 1C060000 		.4byte	.LASF194
 2563 0b7c 030C0000 		.4byte	0xc03
 2564 0b80 01       		.byte	0x1
 2565 0b81 890B0000 		.4byte	0xb89
 2566 0b85 8F0B0000 		.4byte	0xb8f
 2567 0b89 1D       		.uleb128 0x1d
 2568 0b8a 1C0C0000 		.4byte	0xc1c
 2569 0b8e 00       		.byte	0
 2570 0b8f 1C       		.uleb128 0x1c
 2571 0b90 51060000 		.4byte	.LASF195
 2572 0b94 0D       		.byte	0xd
 2573 0b95 79       		.byte	0x79
 2574 0b96 7D0C0000 		.4byte	.LASF196
 2575 0b9a 01       		.byte	0x1
 2576 0b9b A30B0000 		.4byte	0xba3
 2577 0b9f AE0B0000 		.4byte	0xbae
 2578 0ba3 1D       		.uleb128 0x1d
 2579 0ba4 160C0000 		.4byte	0xc16
 2580 0ba8 0F       		.uleb128 0xf
 2581 0ba9 030C0000 		.4byte	0xc03
 2582 0bad 00       		.byte	0
 2583 0bae 1F       		.uleb128 0x1f
 2584 0baf 7A070000 		.4byte	.LASF197
 2585 0bb3 0D       		.byte	0xd
 2586 0bb4 7A       		.byte	0x7a
 2587 0bb5 D5070000 		.4byte	.LASF198
 2588 0bb9 A3070000 		.4byte	0x7a3
 2589 0bbd 01       		.byte	0x1
 2590 0bbe C60B0000 		.4byte	0xbc6
 2591 0bc2 CC0B0000 		.4byte	0xbcc
 2592 0bc6 1D       		.uleb128 0x1d
 2593 0bc7 1C0C0000 		.4byte	0xc1c
 2594 0bcb 00       		.byte	0
 2595 0bcc 20       		.uleb128 0x20
 2596 0bcd 7F060000 		.4byte	.LASF221
 2597 0bd1 0D       		.byte	0xd
 2598 0bd2 7B       		.byte	0x7b
 2599 0bd3 9E0B0000 		.4byte	.LASF222
 2600 0bd7 01       		.byte	0x1
 2601 0bd8 DC0B0000 		.4byte	0xbdc
 2602 0bdc 1D       		.uleb128 0x1d
 2603 0bdd 160C0000 		.4byte	0xc16
 2604 0be1 0F       		.uleb128 0xf
 2605 0be2 A3070000 		.4byte	0x7a3
ARM GAS  C:\Users\Luis\AppData\Local\Temp\ccb1YA0P.s 			page 47


 2606 0be6 00       		.byte	0
 2607 0be7 00       		.byte	0
 2608 0be8 21       		.uleb128 0x21
 2609 0be9 25000000 		.4byte	0x25
 2610 0bed F30B0000 		.4byte	0xbf3
 2611 0bf1 22       		.uleb128 0x22
 2612 0bf2 00       		.byte	0
 2613 0bf3 0C       		.uleb128 0xc
 2614 0bf4 04       		.byte	0x4
 2615 0bf5 F90B0000 		.4byte	0xbf9
 2616 0bf9 23       		.uleb128 0x23
 2617 0bfa 04       		.byte	0x4
 2618 0bfb 68040000 		.4byte	.LASF223
 2619 0bff E80B0000 		.4byte	0xbe8
 2620 0c03 0C       		.uleb128 0xc
 2621 0c04 04       		.byte	0x4
 2622 0c05 090C0000 		.4byte	0xc09
 2623 0c09 03       		.uleb128 0x3
 2624 0c0a 04       		.byte	0x4
 2625 0c0b 04       		.byte	0x4
 2626 0c0c BB070000 		.4byte	.LASF199
 2627 0c10 0C       		.uleb128 0xc
 2628 0c11 04       		.byte	0x4
 2629 0c12 25000000 		.4byte	0x25
 2630 0c16 0C       		.uleb128 0xc
 2631 0c17 04       		.byte	0x4
 2632 0c18 AA070000 		.4byte	0x7aa
 2633 0c1c 0C       		.uleb128 0xc
 2634 0c1d 04       		.byte	0x4
 2635 0c1e 220C0000 		.4byte	0xc22
 2636 0c22 19       		.uleb128 0x19
 2637 0c23 AA070000 		.4byte	0x7aa
 2638 0c27 24       		.uleb128 0x24
 2639 0c28 55080000 		.4byte	0x855
 2640 0c2c 00000000 		.4byte	.LFB261
 2641 0c30 74000000 		.4byte	.LFE261-.LFB261
 2642 0c34 01       		.uleb128 0x1
 2643 0c35 9C       		.byte	0x9c
 2644 0c36 3E0C0000 		.4byte	0xc3e
 2645 0c3a 590C0000 		.4byte	0xc59
 2646 0c3e 25       		.uleb128 0x25
 2647 0c3f 97030000 		.4byte	.LASF200
 2648 0c43 590C0000 		.4byte	0xc59
 2649 0c47 02       		.uleb128 0x2
 2650 0c48 91       		.byte	0x91
 2651 0c49 74       		.sleb128 -12
 2652 0c4a 26       		.uleb128 0x26
 2653 0c4b 14030000 		.4byte	.LASF204
 2654 0c4f 01       		.byte	0x1
 2655 0c50 10       		.byte	0x10
 2656 0c51 25000000 		.4byte	0x25
 2657 0c55 02       		.uleb128 0x2
 2658 0c56 91       		.byte	0x91
 2659 0c57 70       		.sleb128 -16
 2660 0c58 00       		.byte	0
 2661 0c59 19       		.uleb128 0x19
 2662 0c5a 160C0000 		.4byte	0xc16
ARM GAS  C:\Users\Luis\AppData\Local\Temp\ccb1YA0P.s 			page 48


 2663 0c5e 27       		.uleb128 0x27
 2664 0c5f 74080000 		.4byte	0x874
 2665 0c63 00       		.byte	0
 2666 0c64 6C0C0000 		.4byte	0xc6c
 2667 0c68 7F0C0000 		.4byte	0xc7f
 2668 0c6c 28       		.uleb128 0x28
 2669 0c6d 97030000 		.4byte	.LASF200
 2670 0c71 590C0000 		.4byte	0xc59
 2671 0c75 28       		.uleb128 0x28
 2672 0c76 45000000 		.4byte	.LASF201
 2673 0c7a 7F0C0000 		.4byte	0xc7f
 2674 0c7e 00       		.byte	0
 2675 0c7f 19       		.uleb128 0x19
 2676 0c80 25000000 		.4byte	0x25
 2677 0c84 29       		.uleb128 0x29
 2678 0c85 5E0C0000 		.4byte	0xc5e
 2679 0c89 CC090000 		.4byte	.LASF202
 2680 0c8d 00000000 		.4byte	.LFB263
 2681 0c91 64000000 		.4byte	.LFE263-.LFB263
 2682 0c95 01       		.uleb128 0x1
 2683 0c96 9C       		.byte	0x9c
 2684 0c97 9F0C0000 		.4byte	0xc9f
 2685 0c9b A80C0000 		.4byte	0xca8
 2686 0c9f 2A       		.uleb128 0x2a
 2687 0ca0 6C0C0000 		.4byte	0xc6c
 2688 0ca4 02       		.uleb128 0x2
 2689 0ca5 91       		.byte	0x91
 2690 0ca6 74       		.sleb128 -12
 2691 0ca7 00       		.byte	0
 2692 0ca8 29       		.uleb128 0x29
 2693 0ca9 5E0C0000 		.4byte	0xc5e
 2694 0cad 0A0E0000 		.4byte	.LASF203
 2695 0cb1 00000000 		.4byte	.LFB265
 2696 0cb5 1E000000 		.4byte	.LFE265-.LFB265
 2697 0cb9 01       		.uleb128 0x1
 2698 0cba 9C       		.byte	0x9c
 2699 0cbb C30C0000 		.4byte	0xcc3
 2700 0cbf CC0C0000 		.4byte	0xccc
 2701 0cc3 2A       		.uleb128 0x2a
 2702 0cc4 6C0C0000 		.4byte	0xc6c
 2703 0cc8 02       		.uleb128 0x2
 2704 0cc9 91       		.byte	0x91
 2705 0cca 74       		.sleb128 -12
 2706 0ccb 00       		.byte	0
 2707 0ccc 2B       		.uleb128 0x2b
 2708 0ccd 98080000 		.4byte	0x898
 2709 0cd1 00000000 		.4byte	.LFB266
 2710 0cd5 8C000000 		.4byte	.LFE266-.LFB266
 2711 0cd9 01       		.uleb128 0x1
 2712 0cda 9C       		.byte	0x9c
 2713 0cdb E30C0000 		.4byte	0xce3
 2714 0cdf F00C0000 		.4byte	0xcf0
 2715 0ce3 25       		.uleb128 0x25
 2716 0ce4 97030000 		.4byte	.LASF200
 2717 0ce8 590C0000 		.4byte	0xc59
 2718 0cec 02       		.uleb128 0x2
 2719 0ced 91       		.byte	0x91
ARM GAS  C:\Users\Luis\AppData\Local\Temp\ccb1YA0P.s 			page 49


 2720 0cee 74       		.sleb128 -12
 2721 0cef 00       		.byte	0
 2722 0cf0 24       		.uleb128 0x24
 2723 0cf1 B2080000 		.4byte	0x8b2
 2724 0cf5 00000000 		.4byte	.LFB267
 2725 0cf9 5E000000 		.4byte	.LFE267-.LFB267
 2726 0cfd 01       		.uleb128 0x1
 2727 0cfe 9C       		.byte	0x9c
 2728 0cff 070D0000 		.4byte	0xd07
 2729 0d03 140D0000 		.4byte	0xd14
 2730 0d07 25       		.uleb128 0x25
 2731 0d08 97030000 		.4byte	.LASF200
 2732 0d0c 590C0000 		.4byte	0xc59
 2733 0d10 02       		.uleb128 0x2
 2734 0d11 91       		.byte	0x91
 2735 0d12 74       		.sleb128 -12
 2736 0d13 00       		.byte	0
 2737 0d14 2B       		.uleb128 0x2b
 2738 0d15 E6080000 		.4byte	0x8e6
 2739 0d19 00000000 		.4byte	.LFB268
 2740 0d1d 4C000000 		.4byte	.LFE268-.LFB268
 2741 0d21 01       		.uleb128 0x1
 2742 0d22 9C       		.byte	0x9c
 2743 0d23 2B0D0000 		.4byte	0xd2b
 2744 0d27 460D0000 		.4byte	0xd46
 2745 0d2b 25       		.uleb128 0x25
 2746 0d2c 97030000 		.4byte	.LASF200
 2747 0d30 590C0000 		.4byte	0xc59
 2748 0d34 02       		.uleb128 0x2
 2749 0d35 91       		.byte	0x91
 2750 0d36 74       		.sleb128 -12
 2751 0d37 26       		.uleb128 0x26
 2752 0d38 88070000 		.4byte	.LASF205
 2753 0d3c 01       		.byte	0x1
 2754 0d3d 3A       		.byte	0x3a
 2755 0d3e 030C0000 		.4byte	0xc03
 2756 0d42 02       		.uleb128 0x2
 2757 0d43 91       		.byte	0x91
 2758 0d44 70       		.sleb128 -16
 2759 0d45 00       		.byte	0
 2760 0d46 2B       		.uleb128 0x2b
 2761 0d47 220A0000 		.4byte	0xa22
 2762 0d4b 00000000 		.4byte	.LFB269
 2763 0d4f 18000000 		.4byte	.LFE269-.LFB269
 2764 0d53 01       		.uleb128 0x1
 2765 0d54 9C       		.byte	0x9c
 2766 0d55 5D0D0000 		.4byte	0xd5d
 2767 0d59 6A0D0000 		.4byte	0xd6a
 2768 0d5d 25       		.uleb128 0x25
 2769 0d5e 97030000 		.4byte	.LASF200
 2770 0d62 6A0D0000 		.4byte	0xd6a
 2771 0d66 02       		.uleb128 0x2
 2772 0d67 91       		.byte	0x91
 2773 0d68 74       		.sleb128 -12
 2774 0d69 00       		.byte	0
 2775 0d6a 19       		.uleb128 0x19
 2776 0d6b 1C0C0000 		.4byte	0xc1c
ARM GAS  C:\Users\Luis\AppData\Local\Temp\ccb1YA0P.s 			page 50


 2777 0d6f 2B       		.uleb128 0x2b
 2778 0d70 400A0000 		.4byte	0xa40
 2779 0d74 00000000 		.4byte	.LFB270
 2780 0d78 1A000000 		.4byte	.LFE270-.LFB270
 2781 0d7c 01       		.uleb128 0x1
 2782 0d7d 9C       		.byte	0x9c
 2783 0d7e 860D0000 		.4byte	0xd86
 2784 0d82 A10D0000 		.4byte	0xda1
 2785 0d86 25       		.uleb128 0x25
 2786 0d87 97030000 		.4byte	.LASF200
 2787 0d8b 590C0000 		.4byte	0xc59
 2788 0d8f 02       		.uleb128 0x2
 2789 0d90 91       		.byte	0x91
 2790 0d91 74       		.sleb128 -12
 2791 0d92 26       		.uleb128 0x26
 2792 0d93 710C0000 		.4byte	.LASF206
 2793 0d97 01       		.byte	0x1
 2794 0d98 44       		.byte	0x44
 2795 0d99 030C0000 		.4byte	0xc03
 2796 0d9d 02       		.uleb128 0x2
 2797 0d9e 91       		.byte	0x91
 2798 0d9f 70       		.sleb128 -16
 2799 0da0 00       		.byte	0
 2800 0da1 2B       		.uleb128 0x2b
 2801 0da2 5F0A0000 		.4byte	0xa5f
 2802 0da6 00000000 		.4byte	.LFB271
 2803 0daa 18000000 		.4byte	.LFE271-.LFB271
 2804 0dae 01       		.uleb128 0x1
 2805 0daf 9C       		.byte	0x9c
 2806 0db0 B80D0000 		.4byte	0xdb8
 2807 0db4 C50D0000 		.4byte	0xdc5
 2808 0db8 25       		.uleb128 0x25
 2809 0db9 97030000 		.4byte	.LASF200
 2810 0dbd 6A0D0000 		.4byte	0xd6a
 2811 0dc1 02       		.uleb128 0x2
 2812 0dc2 91       		.byte	0x91
 2813 0dc3 74       		.sleb128 -12
 2814 0dc4 00       		.byte	0
 2815 0dc5 2B       		.uleb128 0x2b
 2816 0dc6 7D0A0000 		.4byte	0xa7d
 2817 0dca 00000000 		.4byte	.LFB272
 2818 0dce 1A000000 		.4byte	.LFE272-.LFB272
 2819 0dd2 01       		.uleb128 0x1
 2820 0dd3 9C       		.byte	0x9c
 2821 0dd4 DC0D0000 		.4byte	0xddc
 2822 0dd8 F70D0000 		.4byte	0xdf7
 2823 0ddc 25       		.uleb128 0x25
 2824 0ddd 97030000 		.4byte	.LASF200
 2825 0de1 590C0000 		.4byte	0xc59
 2826 0de5 02       		.uleb128 0x2
 2827 0de6 91       		.byte	0x91
 2828 0de7 74       		.sleb128 -12
 2829 0de8 26       		.uleb128 0x26
 2830 0de9 BF020000 		.4byte	.LASF207
 2831 0ded 01       		.byte	0x1
 2832 0dee 4C       		.byte	0x4c
 2833 0def 25000000 		.4byte	0x25
ARM GAS  C:\Users\Luis\AppData\Local\Temp\ccb1YA0P.s 			page 51


 2834 0df3 02       		.uleb128 0x2
 2835 0df4 91       		.byte	0x91
 2836 0df5 70       		.sleb128 -16
 2837 0df6 00       		.byte	0
 2838 0df7 2B       		.uleb128 0x2b
 2839 0df8 29090000 		.4byte	0x929
 2840 0dfc 00000000 		.4byte	.LFB273
 2841 0e00 18000000 		.4byte	.LFE273-.LFB273
 2842 0e04 01       		.uleb128 0x1
 2843 0e05 9C       		.byte	0x9c
 2844 0e06 0E0E0000 		.4byte	0xe0e
 2845 0e0a 1B0E0000 		.4byte	0xe1b
 2846 0e0e 25       		.uleb128 0x25
 2847 0e0f 97030000 		.4byte	.LASF200
 2848 0e13 6A0D0000 		.4byte	0xd6a
 2849 0e17 02       		.uleb128 0x2
 2850 0e18 91       		.byte	0x91
 2851 0e19 74       		.sleb128 -12
 2852 0e1a 00       		.byte	0
 2853 0e1b 2B       		.uleb128 0x2b
 2854 0e1c 47090000 		.4byte	0x947
 2855 0e20 00000000 		.4byte	.LFB274
 2856 0e24 4E000000 		.4byte	.LFE274-.LFB274
 2857 0e28 01       		.uleb128 0x1
 2858 0e29 9C       		.byte	0x9c
 2859 0e2a 320E0000 		.4byte	0xe32
 2860 0e2e 4D0E0000 		.4byte	0xe4d
 2861 0e32 25       		.uleb128 0x25
 2862 0e33 97030000 		.4byte	.LASF200
 2863 0e37 590C0000 		.4byte	0xc59
 2864 0e3b 02       		.uleb128 0x2
 2865 0e3c 91       		.byte	0x91
 2866 0e3d 74       		.sleb128 -12
 2867 0e3e 26       		.uleb128 0x26
 2868 0e3f C1070000 		.4byte	.LASF208
 2869 0e43 01       		.byte	0x1
 2870 0e44 54       		.byte	0x54
 2871 0e45 030C0000 		.4byte	0xc03
 2872 0e49 02       		.uleb128 0x2
 2873 0e4a 91       		.byte	0x91
 2874 0e4b 70       		.sleb128 -16
 2875 0e4c 00       		.byte	0
 2876 0e4d 2B       		.uleb128 0x2b
 2877 0e4e 84090000 		.4byte	0x984
 2878 0e52 00000000 		.4byte	.LFB275
 2879 0e56 4C000000 		.4byte	.LFE275-.LFB275
 2880 0e5a 01       		.uleb128 0x1
 2881 0e5b 9C       		.byte	0x9c
 2882 0e5c 640E0000 		.4byte	0xe64
 2883 0e60 7F0E0000 		.4byte	0xe7f
 2884 0e64 25       		.uleb128 0x25
 2885 0e65 97030000 		.4byte	.LASF200
 2886 0e69 590C0000 		.4byte	0xc59
 2887 0e6d 02       		.uleb128 0x2
 2888 0e6e 91       		.byte	0x91
 2889 0e6f 74       		.sleb128 -12
 2890 0e70 26       		.uleb128 0x26
ARM GAS  C:\Users\Luis\AppData\Local\Temp\ccb1YA0P.s 			page 52


 2891 0e71 B9010000 		.4byte	.LASF209
 2892 0e75 01       		.byte	0x1
 2893 0e76 5A       		.byte	0x5a
 2894 0e77 030C0000 		.4byte	0xc03
 2895 0e7b 02       		.uleb128 0x2
 2896 0e7c 91       		.byte	0x91
 2897 0e7d 70       		.sleb128 -16
 2898 0e7e 00       		.byte	0
 2899 0e7f 2B       		.uleb128 0x2b
 2900 0e80 A3090000 		.4byte	0x9a3
 2901 0e84 00000000 		.4byte	.LFB276
 2902 0e88 18000000 		.4byte	.LFE276-.LFB276
 2903 0e8c 01       		.uleb128 0x1
 2904 0e8d 9C       		.byte	0x9c
 2905 0e8e 960E0000 		.4byte	0xe96
 2906 0e92 A30E0000 		.4byte	0xea3
 2907 0e96 25       		.uleb128 0x25
 2908 0e97 97030000 		.4byte	.LASF200
 2909 0e9b 6A0D0000 		.4byte	0xd6a
 2910 0e9f 02       		.uleb128 0x2
 2911 0ea0 91       		.byte	0x91
 2912 0ea1 74       		.sleb128 -12
 2913 0ea2 00       		.byte	0
 2914 0ea3 24       		.uleb128 0x24
 2915 0ea4 C1090000 		.4byte	0x9c1
 2916 0ea8 00000000 		.4byte	.LFB277
 2917 0eac 7A000000 		.4byte	.LFE277-.LFB277
 2918 0eb0 01       		.uleb128 0x1
 2919 0eb1 9C       		.byte	0x9c
 2920 0eb2 BA0E0000 		.4byte	0xeba
 2921 0eb6 E30E0000 		.4byte	0xee3
 2922 0eba 25       		.uleb128 0x25
 2923 0ebb 97030000 		.4byte	.LASF200
 2924 0ebf 590C0000 		.4byte	0xc59
 2925 0ec3 02       		.uleb128 0x2
 2926 0ec4 91       		.byte	0x91
 2927 0ec5 74       		.sleb128 -12
 2928 0ec6 26       		.uleb128 0x26
 2929 0ec7 95060000 		.4byte	.LASF210
 2930 0ecb 01       		.byte	0x1
 2931 0ecc 64       		.byte	0x64
 2932 0ecd 030C0000 		.4byte	0xc03
 2933 0ed1 02       		.uleb128 0x2
 2934 0ed2 91       		.byte	0x91
 2935 0ed3 70       		.sleb128 -16
 2936 0ed4 26       		.uleb128 0x26
 2937 0ed5 83000000 		.4byte	.LASF211
 2938 0ed9 01       		.byte	0x1
 2939 0eda 64       		.byte	0x64
 2940 0edb 25000000 		.4byte	0x25
 2941 0edf 02       		.uleb128 0x2
 2942 0ee0 91       		.byte	0x91
 2943 0ee1 6C       		.sleb128 -20
 2944 0ee2 00       		.byte	0
 2945 0ee3 2B       		.uleb128 0x2b
 2946 0ee4 E5090000 		.4byte	0x9e5
 2947 0ee8 00000000 		.4byte	.LFB278
ARM GAS  C:\Users\Luis\AppData\Local\Temp\ccb1YA0P.s 			page 53


 2948 0eec 18000000 		.4byte	.LFE278-.LFB278
 2949 0ef0 01       		.uleb128 0x1
 2950 0ef1 9C       		.byte	0x9c
 2951 0ef2 FA0E0000 		.4byte	0xefa
 2952 0ef6 070F0000 		.4byte	0xf07
 2953 0efa 25       		.uleb128 0x25
 2954 0efb 97030000 		.4byte	.LASF200
 2955 0eff 6A0D0000 		.4byte	0xd6a
 2956 0f03 02       		.uleb128 0x2
 2957 0f04 91       		.byte	0x91
 2958 0f05 74       		.sleb128 -12
 2959 0f06 00       		.byte	0
 2960 0f07 2B       		.uleb128 0x2b
 2961 0f08 030A0000 		.4byte	0xa03
 2962 0f0c 00000000 		.4byte	.LFB279
 2963 0f10 1A000000 		.4byte	.LFE279-.LFB279
 2964 0f14 01       		.uleb128 0x1
 2965 0f15 9C       		.byte	0x9c
 2966 0f16 1E0F0000 		.4byte	0xf1e
 2967 0f1a 390F0000 		.4byte	0xf39
 2968 0f1e 25       		.uleb128 0x25
 2969 0f1f 97030000 		.4byte	.LASF200
 2970 0f23 590C0000 		.4byte	0xc59
 2971 0f27 02       		.uleb128 0x2
 2972 0f28 91       		.byte	0x91
 2973 0f29 74       		.sleb128 -12
 2974 0f2a 26       		.uleb128 0x26
 2975 0f2b 14030000 		.4byte	.LASF204
 2976 0f2f 01       		.byte	0x1
 2977 0f30 71       		.byte	0x71
 2978 0f31 25000000 		.4byte	0x25
 2979 0f35 02       		.uleb128 0x2
 2980 0f36 91       		.byte	0x91
 2981 0f37 70       		.sleb128 -16
 2982 0f38 00       		.byte	0
 2983 0f39 2B       		.uleb128 0x2b
 2984 0f3a 9C0A0000 		.4byte	0xa9c
 2985 0f3e 00000000 		.4byte	.LFB280
 2986 0f42 18000000 		.4byte	.LFE280-.LFB280
 2987 0f46 01       		.uleb128 0x1
 2988 0f47 9C       		.byte	0x9c
 2989 0f48 500F0000 		.4byte	0xf50
 2990 0f4c 5D0F0000 		.4byte	0xf5d
 2991 0f50 25       		.uleb128 0x25
 2992 0f51 97030000 		.4byte	.LASF200
 2993 0f55 6A0D0000 		.4byte	0xd6a
 2994 0f59 02       		.uleb128 0x2
 2995 0f5a 91       		.byte	0x91
 2996 0f5b 74       		.sleb128 -12
 2997 0f5c 00       		.byte	0
 2998 0f5d 2B       		.uleb128 0x2b
 2999 0f5e BA0A0000 		.4byte	0xaba
 3000 0f62 00000000 		.4byte	.LFB281
 3001 0f66 1A000000 		.4byte	.LFE281-.LFB281
 3002 0f6a 01       		.uleb128 0x1
 3003 0f6b 9C       		.byte	0x9c
 3004 0f6c 740F0000 		.4byte	0xf74
ARM GAS  C:\Users\Luis\AppData\Local\Temp\ccb1YA0P.s 			page 54


 3005 0f70 8F0F0000 		.4byte	0xf8f
 3006 0f74 25       		.uleb128 0x25
 3007 0f75 97030000 		.4byte	.LASF200
 3008 0f79 590C0000 		.4byte	0xc59
 3009 0f7d 02       		.uleb128 0x2
 3010 0f7e 91       		.byte	0x91
 3011 0f7f 74       		.sleb128 -12
 3012 0f80 26       		.uleb128 0x26
 3013 0f81 E8000000 		.4byte	.LASF212
 3014 0f85 01       		.byte	0x1
 3015 0f86 79       		.byte	0x79
 3016 0f87 030C0000 		.4byte	0xc03
 3017 0f8b 02       		.uleb128 0x2
 3018 0f8c 91       		.byte	0x91
 3019 0f8d 70       		.sleb128 -16
 3020 0f8e 00       		.byte	0
 3021 0f8f 2B       		.uleb128 0x2b
 3022 0f90 D90A0000 		.4byte	0xad9
 3023 0f94 00000000 		.4byte	.LFB282
 3024 0f98 18000000 		.4byte	.LFE282-.LFB282
 3025 0f9c 01       		.uleb128 0x1
 3026 0f9d 9C       		.byte	0x9c
 3027 0f9e A60F0000 		.4byte	0xfa6
 3028 0fa2 B30F0000 		.4byte	0xfb3
 3029 0fa6 25       		.uleb128 0x25
 3030 0fa7 97030000 		.4byte	.LASF200
 3031 0fab 6A0D0000 		.4byte	0xd6a
 3032 0faf 02       		.uleb128 0x2
 3033 0fb0 91       		.byte	0x91
 3034 0fb1 74       		.sleb128 -12
 3035 0fb2 00       		.byte	0
 3036 0fb3 2B       		.uleb128 0x2b
 3037 0fb4 F70A0000 		.4byte	0xaf7
 3038 0fb8 00000000 		.4byte	.LFB283
 3039 0fbc 4C000000 		.4byte	.LFE283-.LFB283
 3040 0fc0 01       		.uleb128 0x1
 3041 0fc1 9C       		.byte	0x9c
 3042 0fc2 CA0F0000 		.4byte	0xfca
 3043 0fc6 E50F0000 		.4byte	0xfe5
 3044 0fca 25       		.uleb128 0x25
 3045 0fcb 97030000 		.4byte	.LASF200
 3046 0fcf 590C0000 		.4byte	0xc59
 3047 0fd3 02       		.uleb128 0x2
 3048 0fd4 91       		.byte	0x91
 3049 0fd5 74       		.sleb128 -12
 3050 0fd6 26       		.uleb128 0x26
 3051 0fd7 690A0000 		.4byte	.LASF213
 3052 0fdb 01       		.byte	0x1
 3053 0fdc 81       		.byte	0x81
 3054 0fdd 030C0000 		.4byte	0xc03
 3055 0fe1 02       		.uleb128 0x2
 3056 0fe2 91       		.byte	0x91
 3057 0fe3 70       		.sleb128 -16
 3058 0fe4 00       		.byte	0
 3059 0fe5 2B       		.uleb128 0x2b
 3060 0fe6 160B0000 		.4byte	0xb16
 3061 0fea 00000000 		.4byte	.LFB284
ARM GAS  C:\Users\Luis\AppData\Local\Temp\ccb1YA0P.s 			page 55


 3062 0fee 18000000 		.4byte	.LFE284-.LFB284
 3063 0ff2 01       		.uleb128 0x1
 3064 0ff3 9C       		.byte	0x9c
 3065 0ff4 FC0F0000 		.4byte	0xffc
 3066 0ff8 09100000 		.4byte	0x1009
 3067 0ffc 25       		.uleb128 0x25
 3068 0ffd 97030000 		.4byte	.LASF200
 3069 1001 6A0D0000 		.4byte	0xd6a
 3070 1005 02       		.uleb128 0x2
 3071 1006 91       		.byte	0x91
 3072 1007 74       		.sleb128 -12
 3073 1008 00       		.byte	0
 3074 1009 2C       		.uleb128 0x2c
 3075 100a 9B010000 		.4byte	.LASF214
 3076 100e 0E       		.byte	0xe
 3077 100f A706     		.2byte	0x6a7
 3078 1011 97000000 		.4byte	0x97
 3079 1015 2D       		.uleb128 0x2d
 3080 1016 636800   		.ascii	"ch\000"
 3081 1019 05       		.byte	0x5
 3082 101a 0902     		.2byte	0x209
 3083 101c 6F040000 		.4byte	0x46f
 3084 1020 00       		.byte	0
 3085              		.section	.debug_abbrev,"",%progbits
 3086              	.Ldebug_abbrev0:
 3087 0000 01       		.uleb128 0x1
 3088 0001 11       		.uleb128 0x11
 3089 0002 01       		.byte	0x1
 3090 0003 25       		.uleb128 0x25
 3091 0004 0E       		.uleb128 0xe
 3092 0005 13       		.uleb128 0x13
 3093 0006 0B       		.uleb128 0xb
 3094 0007 03       		.uleb128 0x3
 3095 0008 0E       		.uleb128 0xe
 3096 0009 1B       		.uleb128 0x1b
 3097 000a 0E       		.uleb128 0xe
 3098 000b 55       		.uleb128 0x55
 3099 000c 17       		.uleb128 0x17
 3100 000d 11       		.uleb128 0x11
 3101 000e 01       		.uleb128 0x1
 3102 000f 10       		.uleb128 0x10
 3103 0010 17       		.uleb128 0x17
 3104 0011 00       		.byte	0
 3105 0012 00       		.byte	0
 3106 0013 02       		.uleb128 0x2
 3107 0014 24       		.uleb128 0x24
 3108 0015 00       		.byte	0
 3109 0016 0B       		.uleb128 0xb
 3110 0017 0B       		.uleb128 0xb
 3111 0018 3E       		.uleb128 0x3e
 3112 0019 0B       		.uleb128 0xb
 3113 001a 03       		.uleb128 0x3
 3114 001b 08       		.uleb128 0x8
 3115 001c 00       		.byte	0
 3116 001d 00       		.byte	0
 3117 001e 03       		.uleb128 0x3
 3118 001f 24       		.uleb128 0x24
ARM GAS  C:\Users\Luis\AppData\Local\Temp\ccb1YA0P.s 			page 56


 3119 0020 00       		.byte	0
 3120 0021 0B       		.uleb128 0xb
 3121 0022 0B       		.uleb128 0xb
 3122 0023 3E       		.uleb128 0x3e
 3123 0024 0B       		.uleb128 0xb
 3124 0025 03       		.uleb128 0x3
 3125 0026 0E       		.uleb128 0xe
 3126 0027 00       		.byte	0
 3127 0028 00       		.byte	0
 3128 0029 04       		.uleb128 0x4
 3129 002a 16       		.uleb128 0x16
 3130 002b 00       		.byte	0
 3131 002c 03       		.uleb128 0x3
 3132 002d 0E       		.uleb128 0xe
 3133 002e 3A       		.uleb128 0x3a
 3134 002f 0B       		.uleb128 0xb
 3135 0030 3B       		.uleb128 0x3b
 3136 0031 0B       		.uleb128 0xb
 3137 0032 49       		.uleb128 0x49
 3138 0033 13       		.uleb128 0x13
 3139 0034 00       		.byte	0
 3140 0035 00       		.byte	0
 3141 0036 05       		.uleb128 0x5
 3142 0037 35       		.uleb128 0x35
 3143 0038 00       		.byte	0
 3144 0039 49       		.uleb128 0x49
 3145 003a 13       		.uleb128 0x13
 3146 003b 00       		.byte	0
 3147 003c 00       		.byte	0
 3148 003d 06       		.uleb128 0x6
 3149 003e 13       		.uleb128 0x13
 3150 003f 01       		.byte	0x1
 3151 0040 03       		.uleb128 0x3
 3152 0041 0E       		.uleb128 0xe
 3153 0042 0B       		.uleb128 0xb
 3154 0043 0B       		.uleb128 0xb
 3155 0044 3A       		.uleb128 0x3a
 3156 0045 0B       		.uleb128 0xb
 3157 0046 3B       		.uleb128 0x3b
 3158 0047 0B       		.uleb128 0xb
 3159 0048 01       		.uleb128 0x1
 3160 0049 13       		.uleb128 0x13
 3161 004a 00       		.byte	0
 3162 004b 00       		.byte	0
 3163 004c 07       		.uleb128 0x7
 3164 004d 17       		.uleb128 0x17
 3165 004e 01       		.byte	0x1
 3166 004f 0B       		.uleb128 0xb
 3167 0050 0B       		.uleb128 0xb
 3168 0051 3A       		.uleb128 0x3a
 3169 0052 0B       		.uleb128 0xb
 3170 0053 3B       		.uleb128 0x3b
 3171 0054 0B       		.uleb128 0xb
 3172 0055 01       		.uleb128 0x1
 3173 0056 13       		.uleb128 0x13
 3174 0057 00       		.byte	0
 3175 0058 00       		.byte	0
ARM GAS  C:\Users\Luis\AppData\Local\Temp\ccb1YA0P.s 			page 57


 3176 0059 08       		.uleb128 0x8
 3177 005a 0D       		.uleb128 0xd
 3178 005b 00       		.byte	0
 3179 005c 03       		.uleb128 0x3
 3180 005d 0E       		.uleb128 0xe
 3181 005e 3A       		.uleb128 0x3a
 3182 005f 0B       		.uleb128 0xb
 3183 0060 3B       		.uleb128 0x3b
 3184 0061 05       		.uleb128 0x5
 3185 0062 49       		.uleb128 0x49
 3186 0063 13       		.uleb128 0x13
 3187 0064 00       		.byte	0
 3188 0065 00       		.byte	0
 3189 0066 09       		.uleb128 0x9
 3190 0067 0D       		.uleb128 0xd
 3191 0068 00       		.byte	0
 3192 0069 03       		.uleb128 0x3
 3193 006a 0E       		.uleb128 0xe
 3194 006b 3A       		.uleb128 0x3a
 3195 006c 0B       		.uleb128 0xb
 3196 006d 3B       		.uleb128 0x3b
 3197 006e 0B       		.uleb128 0xb
 3198 006f 49       		.uleb128 0x49
 3199 0070 13       		.uleb128 0x13
 3200 0071 38       		.uleb128 0x38
 3201 0072 0B       		.uleb128 0xb
 3202 0073 00       		.byte	0
 3203 0074 00       		.byte	0
 3204 0075 0A       		.uleb128 0xa
 3205 0076 0D       		.uleb128 0xd
 3206 0077 00       		.byte	0
 3207 0078 03       		.uleb128 0x3
 3208 0079 08       		.uleb128 0x8
 3209 007a 3A       		.uleb128 0x3a
 3210 007b 0B       		.uleb128 0xb
 3211 007c 3B       		.uleb128 0x3b
 3212 007d 05       		.uleb128 0x5
 3213 007e 49       		.uleb128 0x49
 3214 007f 13       		.uleb128 0x13
 3215 0080 38       		.uleb128 0x38
 3216 0081 0B       		.uleb128 0xb
 3217 0082 00       		.byte	0
 3218 0083 00       		.byte	0
 3219 0084 0B       		.uleb128 0xb
 3220 0085 0D       		.uleb128 0xd
 3221 0086 00       		.byte	0
 3222 0087 03       		.uleb128 0x3
 3223 0088 0E       		.uleb128 0xe
 3224 0089 3A       		.uleb128 0x3a
 3225 008a 0B       		.uleb128 0xb
 3226 008b 3B       		.uleb128 0x3b
 3227 008c 05       		.uleb128 0x5
 3228 008d 49       		.uleb128 0x49
 3229 008e 13       		.uleb128 0x13
 3230 008f 38       		.uleb128 0x38
 3231 0090 0B       		.uleb128 0xb
 3232 0091 00       		.byte	0
ARM GAS  C:\Users\Luis\AppData\Local\Temp\ccb1YA0P.s 			page 58


 3233 0092 00       		.byte	0
 3234 0093 0C       		.uleb128 0xc
 3235 0094 0F       		.uleb128 0xf
 3236 0095 00       		.byte	0
 3237 0096 0B       		.uleb128 0xb
 3238 0097 0B       		.uleb128 0xb
 3239 0098 49       		.uleb128 0x49
 3240 0099 13       		.uleb128 0x13
 3241 009a 00       		.byte	0
 3242 009b 00       		.byte	0
 3243 009c 0D       		.uleb128 0xd
 3244 009d 13       		.uleb128 0x13
 3245 009e 01       		.byte	0x1
 3246 009f 03       		.uleb128 0x3
 3247 00a0 0E       		.uleb128 0xe
 3248 00a1 0B       		.uleb128 0xb
 3249 00a2 0B       		.uleb128 0xb
 3250 00a3 3A       		.uleb128 0x3a
 3251 00a4 0B       		.uleb128 0xb
 3252 00a5 3B       		.uleb128 0x3b
 3253 00a6 05       		.uleb128 0x5
 3254 00a7 01       		.uleb128 0x1
 3255 00a8 13       		.uleb128 0x13
 3256 00a9 00       		.byte	0
 3257 00aa 00       		.byte	0
 3258 00ab 0E       		.uleb128 0xe
 3259 00ac 15       		.uleb128 0x15
 3260 00ad 01       		.byte	0x1
 3261 00ae 01       		.uleb128 0x1
 3262 00af 13       		.uleb128 0x13
 3263 00b0 00       		.byte	0
 3264 00b1 00       		.byte	0
 3265 00b2 0F       		.uleb128 0xf
 3266 00b3 05       		.uleb128 0x5
 3267 00b4 00       		.byte	0
 3268 00b5 49       		.uleb128 0x49
 3269 00b6 13       		.uleb128 0x13
 3270 00b7 00       		.byte	0
 3271 00b8 00       		.byte	0
 3272 00b9 10       		.uleb128 0x10
 3273 00ba 0F       		.uleb128 0xf
 3274 00bb 00       		.byte	0
 3275 00bc 0B       		.uleb128 0xb
 3276 00bd 0B       		.uleb128 0xb
 3277 00be 00       		.byte	0
 3278 00bf 00       		.byte	0
 3279 00c0 11       		.uleb128 0x11
 3280 00c1 13       		.uleb128 0x13
 3281 00c2 01       		.byte	0x1
 3282 00c3 03       		.uleb128 0x3
 3283 00c4 0E       		.uleb128 0xe
 3284 00c5 0B       		.uleb128 0xb
 3285 00c6 05       		.uleb128 0x5
 3286 00c7 3A       		.uleb128 0x3a
 3287 00c8 0B       		.uleb128 0xb
 3288 00c9 3B       		.uleb128 0x3b
 3289 00ca 05       		.uleb128 0x5
ARM GAS  C:\Users\Luis\AppData\Local\Temp\ccb1YA0P.s 			page 59


 3290 00cb 01       		.uleb128 0x1
 3291 00cc 13       		.uleb128 0x13
 3292 00cd 00       		.byte	0
 3293 00ce 00       		.byte	0
 3294 00cf 12       		.uleb128 0x12
 3295 00d0 0D       		.uleb128 0xd
 3296 00d1 00       		.byte	0
 3297 00d2 03       		.uleb128 0x3
 3298 00d3 0E       		.uleb128 0xe
 3299 00d4 3A       		.uleb128 0x3a
 3300 00d5 0B       		.uleb128 0xb
 3301 00d6 3B       		.uleb128 0x3b
 3302 00d7 05       		.uleb128 0x5
 3303 00d8 49       		.uleb128 0x49
 3304 00d9 13       		.uleb128 0x13
 3305 00da 38       		.uleb128 0x38
 3306 00db 05       		.uleb128 0x5
 3307 00dc 00       		.byte	0
 3308 00dd 00       		.byte	0
 3309 00de 13       		.uleb128 0x13
 3310 00df 0D       		.uleb128 0xd
 3311 00e0 00       		.byte	0
 3312 00e1 03       		.uleb128 0x3
 3313 00e2 08       		.uleb128 0x8
 3314 00e3 3A       		.uleb128 0x3a
 3315 00e4 0B       		.uleb128 0xb
 3316 00e5 3B       		.uleb128 0x3b
 3317 00e6 05       		.uleb128 0x5
 3318 00e7 49       		.uleb128 0x49
 3319 00e8 13       		.uleb128 0x13
 3320 00e9 38       		.uleb128 0x38
 3321 00ea 05       		.uleb128 0x5
 3322 00eb 00       		.byte	0
 3323 00ec 00       		.byte	0
 3324 00ed 14       		.uleb128 0x14
 3325 00ee 0D       		.uleb128 0xd
 3326 00ef 00       		.byte	0
 3327 00f0 03       		.uleb128 0x3
 3328 00f1 08       		.uleb128 0x8
 3329 00f2 3A       		.uleb128 0x3a
 3330 00f3 0B       		.uleb128 0xb
 3331 00f4 3B       		.uleb128 0x3b
 3332 00f5 0B       		.uleb128 0xb
 3333 00f6 49       		.uleb128 0x49
 3334 00f7 13       		.uleb128 0x13
 3335 00f8 38       		.uleb128 0x38
 3336 00f9 0B       		.uleb128 0xb
 3337 00fa 00       		.byte	0
 3338 00fb 00       		.byte	0
 3339 00fc 15       		.uleb128 0x15
 3340 00fd 13       		.uleb128 0x13
 3341 00fe 01       		.byte	0x1
 3342 00ff 0B       		.uleb128 0xb
 3343 0100 0B       		.uleb128 0xb
 3344 0101 3A       		.uleb128 0x3a
 3345 0102 0B       		.uleb128 0xb
 3346 0103 3B       		.uleb128 0x3b
ARM GAS  C:\Users\Luis\AppData\Local\Temp\ccb1YA0P.s 			page 60


 3347 0104 0B       		.uleb128 0xb
 3348 0105 6E       		.uleb128 0x6e
 3349 0106 0E       		.uleb128 0xe
 3350 0107 01       		.uleb128 0x1
 3351 0108 13       		.uleb128 0x13
 3352 0109 00       		.byte	0
 3353 010a 00       		.byte	0
 3354 010b 16       		.uleb128 0x16
 3355 010c 13       		.uleb128 0x13
 3356 010d 01       		.byte	0x1
 3357 010e 0B       		.uleb128 0xb
 3358 010f 05       		.uleb128 0x5
 3359 0110 3A       		.uleb128 0x3a
 3360 0111 0B       		.uleb128 0xb
 3361 0112 3B       		.uleb128 0x3b
 3362 0113 0B       		.uleb128 0xb
 3363 0114 6E       		.uleb128 0x6e
 3364 0115 0E       		.uleb128 0xe
 3365 0116 01       		.uleb128 0x1
 3366 0117 13       		.uleb128 0x13
 3367 0118 00       		.byte	0
 3368 0119 00       		.byte	0
 3369 011a 17       		.uleb128 0x17
 3370 011b 01       		.uleb128 0x1
 3371 011c 01       		.byte	0x1
 3372 011d 49       		.uleb128 0x49
 3373 011e 13       		.uleb128 0x13
 3374 011f 01       		.uleb128 0x1
 3375 0120 13       		.uleb128 0x13
 3376 0121 00       		.byte	0
 3377 0122 00       		.byte	0
 3378 0123 18       		.uleb128 0x18
 3379 0124 21       		.uleb128 0x21
 3380 0125 00       		.byte	0
 3381 0126 49       		.uleb128 0x49
 3382 0127 13       		.uleb128 0x13
 3383 0128 2F       		.uleb128 0x2f
 3384 0129 0B       		.uleb128 0xb
 3385 012a 00       		.byte	0
 3386 012b 00       		.byte	0
 3387 012c 19       		.uleb128 0x19
 3388 012d 26       		.uleb128 0x26
 3389 012e 00       		.byte	0
 3390 012f 49       		.uleb128 0x49
 3391 0130 13       		.uleb128 0x13
 3392 0131 00       		.byte	0
 3393 0132 00       		.byte	0
 3394 0133 1A       		.uleb128 0x1a
 3395 0134 02       		.uleb128 0x2
 3396 0135 01       		.byte	0x1
 3397 0136 03       		.uleb128 0x3
 3398 0137 0E       		.uleb128 0xe
 3399 0138 0B       		.uleb128 0xb
 3400 0139 0B       		.uleb128 0xb
 3401 013a 3A       		.uleb128 0x3a
 3402 013b 0B       		.uleb128 0xb
 3403 013c 3B       		.uleb128 0x3b
ARM GAS  C:\Users\Luis\AppData\Local\Temp\ccb1YA0P.s 			page 61


 3404 013d 0B       		.uleb128 0xb
 3405 013e 1D       		.uleb128 0x1d
 3406 013f 13       		.uleb128 0x13
 3407 0140 01       		.uleb128 0x1
 3408 0141 13       		.uleb128 0x13
 3409 0142 00       		.byte	0
 3410 0143 00       		.byte	0
 3411 0144 1B       		.uleb128 0x1b
 3412 0145 0D       		.uleb128 0xd
 3413 0146 00       		.byte	0
 3414 0147 03       		.uleb128 0x3
 3415 0148 0E       		.uleb128 0xe
 3416 0149 49       		.uleb128 0x49
 3417 014a 13       		.uleb128 0x13
 3418 014b 38       		.uleb128 0x38
 3419 014c 0B       		.uleb128 0xb
 3420 014d 34       		.uleb128 0x34
 3421 014e 19       		.uleb128 0x19
 3422 014f 32       		.uleb128 0x32
 3423 0150 0B       		.uleb128 0xb
 3424 0151 00       		.byte	0
 3425 0152 00       		.byte	0
 3426 0153 1C       		.uleb128 0x1c
 3427 0154 2E       		.uleb128 0x2e
 3428 0155 01       		.byte	0x1
 3429 0156 3F       		.uleb128 0x3f
 3430 0157 19       		.uleb128 0x19
 3431 0158 03       		.uleb128 0x3
 3432 0159 0E       		.uleb128 0xe
 3433 015a 3A       		.uleb128 0x3a
 3434 015b 0B       		.uleb128 0xb
 3435 015c 3B       		.uleb128 0x3b
 3436 015d 0B       		.uleb128 0xb
 3437 015e 6E       		.uleb128 0x6e
 3438 015f 0E       		.uleb128 0xe
 3439 0160 32       		.uleb128 0x32
 3440 0161 0B       		.uleb128 0xb
 3441 0162 3C       		.uleb128 0x3c
 3442 0163 19       		.uleb128 0x19
 3443 0164 64       		.uleb128 0x64
 3444 0165 13       		.uleb128 0x13
 3445 0166 01       		.uleb128 0x1
 3446 0167 13       		.uleb128 0x13
 3447 0168 00       		.byte	0
 3448 0169 00       		.byte	0
 3449 016a 1D       		.uleb128 0x1d
 3450 016b 05       		.uleb128 0x5
 3451 016c 00       		.byte	0
 3452 016d 49       		.uleb128 0x49
 3453 016e 13       		.uleb128 0x13
 3454 016f 34       		.uleb128 0x34
 3455 0170 19       		.uleb128 0x19
 3456 0171 00       		.byte	0
 3457 0172 00       		.byte	0
 3458 0173 1E       		.uleb128 0x1e
 3459 0174 2E       		.uleb128 0x2e
 3460 0175 01       		.byte	0x1
ARM GAS  C:\Users\Luis\AppData\Local\Temp\ccb1YA0P.s 			page 62


 3461 0176 3F       		.uleb128 0x3f
 3462 0177 19       		.uleb128 0x19
 3463 0178 03       		.uleb128 0x3
 3464 0179 0E       		.uleb128 0xe
 3465 017a 3A       		.uleb128 0x3a
 3466 017b 0B       		.uleb128 0xb
 3467 017c 3B       		.uleb128 0x3b
 3468 017d 0B       		.uleb128 0xb
 3469 017e 49       		.uleb128 0x49
 3470 017f 13       		.uleb128 0x13
 3471 0180 4C       		.uleb128 0x4c
 3472 0181 0B       		.uleb128 0xb
 3473 0182 1D       		.uleb128 0x1d
 3474 0183 13       		.uleb128 0x13
 3475 0184 32       		.uleb128 0x32
 3476 0185 0B       		.uleb128 0xb
 3477 0186 3C       		.uleb128 0x3c
 3478 0187 19       		.uleb128 0x19
 3479 0188 64       		.uleb128 0x64
 3480 0189 13       		.uleb128 0x13
 3481 018a 01       		.uleb128 0x1
 3482 018b 13       		.uleb128 0x13
 3483 018c 00       		.byte	0
 3484 018d 00       		.byte	0
 3485 018e 1F       		.uleb128 0x1f
 3486 018f 2E       		.uleb128 0x2e
 3487 0190 01       		.byte	0x1
 3488 0191 3F       		.uleb128 0x3f
 3489 0192 19       		.uleb128 0x19
 3490 0193 03       		.uleb128 0x3
 3491 0194 0E       		.uleb128 0xe
 3492 0195 3A       		.uleb128 0x3a
 3493 0196 0B       		.uleb128 0xb
 3494 0197 3B       		.uleb128 0x3b
 3495 0198 0B       		.uleb128 0xb
 3496 0199 6E       		.uleb128 0x6e
 3497 019a 0E       		.uleb128 0xe
 3498 019b 49       		.uleb128 0x49
 3499 019c 13       		.uleb128 0x13
 3500 019d 32       		.uleb128 0x32
 3501 019e 0B       		.uleb128 0xb
 3502 019f 3C       		.uleb128 0x3c
 3503 01a0 19       		.uleb128 0x19
 3504 01a1 64       		.uleb128 0x64
 3505 01a2 13       		.uleb128 0x13
 3506 01a3 01       		.uleb128 0x1
 3507 01a4 13       		.uleb128 0x13
 3508 01a5 00       		.byte	0
 3509 01a6 00       		.byte	0
 3510 01a7 20       		.uleb128 0x20
 3511 01a8 2E       		.uleb128 0x2e
 3512 01a9 01       		.byte	0x1
 3513 01aa 3F       		.uleb128 0x3f
 3514 01ab 19       		.uleb128 0x19
 3515 01ac 03       		.uleb128 0x3
 3516 01ad 0E       		.uleb128 0xe
 3517 01ae 3A       		.uleb128 0x3a
ARM GAS  C:\Users\Luis\AppData\Local\Temp\ccb1YA0P.s 			page 63


 3518 01af 0B       		.uleb128 0xb
 3519 01b0 3B       		.uleb128 0x3b
 3520 01b1 0B       		.uleb128 0xb
 3521 01b2 6E       		.uleb128 0x6e
 3522 01b3 0E       		.uleb128 0xe
 3523 01b4 32       		.uleb128 0x32
 3524 01b5 0B       		.uleb128 0xb
 3525 01b6 3C       		.uleb128 0x3c
 3526 01b7 19       		.uleb128 0x19
 3527 01b8 64       		.uleb128 0x64
 3528 01b9 13       		.uleb128 0x13
 3529 01ba 00       		.byte	0
 3530 01bb 00       		.byte	0
 3531 01bc 21       		.uleb128 0x21
 3532 01bd 15       		.uleb128 0x15
 3533 01be 01       		.byte	0x1
 3534 01bf 49       		.uleb128 0x49
 3535 01c0 13       		.uleb128 0x13
 3536 01c1 01       		.uleb128 0x1
 3537 01c2 13       		.uleb128 0x13
 3538 01c3 00       		.byte	0
 3539 01c4 00       		.byte	0
 3540 01c5 22       		.uleb128 0x22
 3541 01c6 18       		.uleb128 0x18
 3542 01c7 00       		.byte	0
 3543 01c8 00       		.byte	0
 3544 01c9 00       		.byte	0
 3545 01ca 23       		.uleb128 0x23
 3546 01cb 0F       		.uleb128 0xf
 3547 01cc 00       		.byte	0
 3548 01cd 0B       		.uleb128 0xb
 3549 01ce 0B       		.uleb128 0xb
 3550 01cf 03       		.uleb128 0x3
 3551 01d0 0E       		.uleb128 0xe
 3552 01d1 49       		.uleb128 0x49
 3553 01d2 13       		.uleb128 0x13
 3554 01d3 00       		.byte	0
 3555 01d4 00       		.byte	0
 3556 01d5 24       		.uleb128 0x24
 3557 01d6 2E       		.uleb128 0x2e
 3558 01d7 01       		.byte	0x1
 3559 01d8 47       		.uleb128 0x47
 3560 01d9 13       		.uleb128 0x13
 3561 01da 11       		.uleb128 0x11
 3562 01db 01       		.uleb128 0x1
 3563 01dc 12       		.uleb128 0x12
 3564 01dd 06       		.uleb128 0x6
 3565 01de 40       		.uleb128 0x40
 3566 01df 18       		.uleb128 0x18
 3567 01e0 64       		.uleb128 0x64
 3568 01e1 13       		.uleb128 0x13
 3569 01e2 9642     		.uleb128 0x2116
 3570 01e4 19       		.uleb128 0x19
 3571 01e5 01       		.uleb128 0x1
 3572 01e6 13       		.uleb128 0x13
 3573 01e7 00       		.byte	0
 3574 01e8 00       		.byte	0
ARM GAS  C:\Users\Luis\AppData\Local\Temp\ccb1YA0P.s 			page 64


 3575 01e9 25       		.uleb128 0x25
 3576 01ea 05       		.uleb128 0x5
 3577 01eb 00       		.byte	0
 3578 01ec 03       		.uleb128 0x3
 3579 01ed 0E       		.uleb128 0xe
 3580 01ee 49       		.uleb128 0x49
 3581 01ef 13       		.uleb128 0x13
 3582 01f0 34       		.uleb128 0x34
 3583 01f1 19       		.uleb128 0x19
 3584 01f2 02       		.uleb128 0x2
 3585 01f3 18       		.uleb128 0x18
 3586 01f4 00       		.byte	0
 3587 01f5 00       		.byte	0
 3588 01f6 26       		.uleb128 0x26
 3589 01f7 05       		.uleb128 0x5
 3590 01f8 00       		.byte	0
 3591 01f9 03       		.uleb128 0x3
 3592 01fa 0E       		.uleb128 0xe
 3593 01fb 3A       		.uleb128 0x3a
 3594 01fc 0B       		.uleb128 0xb
 3595 01fd 3B       		.uleb128 0x3b
 3596 01fe 0B       		.uleb128 0xb
 3597 01ff 49       		.uleb128 0x49
 3598 0200 13       		.uleb128 0x13
 3599 0201 02       		.uleb128 0x2
 3600 0202 18       		.uleb128 0x18
 3601 0203 00       		.byte	0
 3602 0204 00       		.byte	0
 3603 0205 27       		.uleb128 0x27
 3604 0206 2E       		.uleb128 0x2e
 3605 0207 01       		.byte	0x1
 3606 0208 47       		.uleb128 0x47
 3607 0209 13       		.uleb128 0x13
 3608 020a 20       		.uleb128 0x20
 3609 020b 0B       		.uleb128 0xb
 3610 020c 64       		.uleb128 0x64
 3611 020d 13       		.uleb128 0x13
 3612 020e 01       		.uleb128 0x1
 3613 020f 13       		.uleb128 0x13
 3614 0210 00       		.byte	0
 3615 0211 00       		.byte	0
 3616 0212 28       		.uleb128 0x28
 3617 0213 05       		.uleb128 0x5
 3618 0214 00       		.byte	0
 3619 0215 03       		.uleb128 0x3
 3620 0216 0E       		.uleb128 0xe
 3621 0217 49       		.uleb128 0x49
 3622 0218 13       		.uleb128 0x13
 3623 0219 34       		.uleb128 0x34
 3624 021a 19       		.uleb128 0x19
 3625 021b 00       		.byte	0
 3626 021c 00       		.byte	0
 3627 021d 29       		.uleb128 0x29
 3628 021e 2E       		.uleb128 0x2e
 3629 021f 01       		.byte	0x1
 3630 0220 31       		.uleb128 0x31
 3631 0221 13       		.uleb128 0x13
ARM GAS  C:\Users\Luis\AppData\Local\Temp\ccb1YA0P.s 			page 65


 3632 0222 6E       		.uleb128 0x6e
 3633 0223 0E       		.uleb128 0xe
 3634 0224 11       		.uleb128 0x11
 3635 0225 01       		.uleb128 0x1
 3636 0226 12       		.uleb128 0x12
 3637 0227 06       		.uleb128 0x6
 3638 0228 40       		.uleb128 0x40
 3639 0229 18       		.uleb128 0x18
 3640 022a 64       		.uleb128 0x64
 3641 022b 13       		.uleb128 0x13
 3642 022c 9642     		.uleb128 0x2116
 3643 022e 19       		.uleb128 0x19
 3644 022f 01       		.uleb128 0x1
 3645 0230 13       		.uleb128 0x13
 3646 0231 00       		.byte	0
 3647 0232 00       		.byte	0
 3648 0233 2A       		.uleb128 0x2a
 3649 0234 05       		.uleb128 0x5
 3650 0235 00       		.byte	0
 3651 0236 31       		.uleb128 0x31
 3652 0237 13       		.uleb128 0x13
 3653 0238 02       		.uleb128 0x2
 3654 0239 18       		.uleb128 0x18
 3655 023a 00       		.byte	0
 3656 023b 00       		.byte	0
 3657 023c 2B       		.uleb128 0x2b
 3658 023d 2E       		.uleb128 0x2e
 3659 023e 01       		.byte	0x1
 3660 023f 47       		.uleb128 0x47
 3661 0240 13       		.uleb128 0x13
 3662 0241 11       		.uleb128 0x11
 3663 0242 01       		.uleb128 0x1
 3664 0243 12       		.uleb128 0x12
 3665 0244 06       		.uleb128 0x6
 3666 0245 40       		.uleb128 0x40
 3667 0246 18       		.uleb128 0x18
 3668 0247 64       		.uleb128 0x64
 3669 0248 13       		.uleb128 0x13
 3670 0249 9742     		.uleb128 0x2117
 3671 024b 19       		.uleb128 0x19
 3672 024c 01       		.uleb128 0x1
 3673 024d 13       		.uleb128 0x13
 3674 024e 00       		.byte	0
 3675 024f 00       		.byte	0
 3676 0250 2C       		.uleb128 0x2c
 3677 0251 34       		.uleb128 0x34
 3678 0252 00       		.byte	0
 3679 0253 03       		.uleb128 0x3
 3680 0254 0E       		.uleb128 0xe
 3681 0255 3A       		.uleb128 0x3a
 3682 0256 0B       		.uleb128 0xb
 3683 0257 3B       		.uleb128 0x3b
 3684 0258 05       		.uleb128 0x5
 3685 0259 49       		.uleb128 0x49
 3686 025a 13       		.uleb128 0x13
 3687 025b 3F       		.uleb128 0x3f
 3688 025c 19       		.uleb128 0x19
ARM GAS  C:\Users\Luis\AppData\Local\Temp\ccb1YA0P.s 			page 66


 3689 025d 3C       		.uleb128 0x3c
 3690 025e 19       		.uleb128 0x19
 3691 025f 00       		.byte	0
 3692 0260 00       		.byte	0
 3693 0261 2D       		.uleb128 0x2d
 3694 0262 34       		.uleb128 0x34
 3695 0263 00       		.byte	0
 3696 0264 03       		.uleb128 0x3
 3697 0265 08       		.uleb128 0x8
 3698 0266 3A       		.uleb128 0x3a
 3699 0267 0B       		.uleb128 0xb
 3700 0268 3B       		.uleb128 0x3b
 3701 0269 05       		.uleb128 0x5
 3702 026a 49       		.uleb128 0x49
 3703 026b 13       		.uleb128 0x13
 3704 026c 3F       		.uleb128 0x3f
 3705 026d 19       		.uleb128 0x19
 3706 026e 3C       		.uleb128 0x3c
 3707 026f 19       		.uleb128 0x19
 3708 0270 00       		.byte	0
 3709 0271 00       		.byte	0
 3710 0272 00       		.byte	0
 3711              		.section	.debug_aranges,"",%progbits
 3712 0000 C4000000 		.4byte	0xc4
 3713 0004 0200     		.2byte	0x2
 3714 0006 00000000 		.4byte	.Ldebug_info0
 3715 000a 04       		.byte	0x4
 3716 000b 00       		.byte	0
 3717 000c 0000     		.2byte	0
 3718 000e 0000     		.2byte	0
 3719 0010 00000000 		.4byte	.LFB261
 3720 0014 74000000 		.4byte	.LFE261-.LFB261
 3721 0018 00000000 		.4byte	.LFB263
 3722 001c 64000000 		.4byte	.LFE263-.LFB263
 3723 0020 00000000 		.4byte	.LFB265
 3724 0024 1E000000 		.4byte	.LFE265-.LFB265
 3725 0028 00000000 		.4byte	.LFB266
 3726 002c 8C000000 		.4byte	.LFE266-.LFB266
 3727 0030 00000000 		.4byte	.LFB267
 3728 0034 5E000000 		.4byte	.LFE267-.LFB267
 3729 0038 00000000 		.4byte	.LFB268
 3730 003c 4C000000 		.4byte	.LFE268-.LFB268
 3731 0040 00000000 		.4byte	.LFB269
 3732 0044 18000000 		.4byte	.LFE269-.LFB269
 3733 0048 00000000 		.4byte	.LFB270
 3734 004c 1A000000 		.4byte	.LFE270-.LFB270
 3735 0050 00000000 		.4byte	.LFB271
 3736 0054 18000000 		.4byte	.LFE271-.LFB271
 3737 0058 00000000 		.4byte	.LFB272
 3738 005c 1A000000 		.4byte	.LFE272-.LFB272
 3739 0060 00000000 		.4byte	.LFB273
 3740 0064 18000000 		.4byte	.LFE273-.LFB273
 3741 0068 00000000 		.4byte	.LFB274
 3742 006c 4E000000 		.4byte	.LFE274-.LFB274
 3743 0070 00000000 		.4byte	.LFB275
 3744 0074 4C000000 		.4byte	.LFE275-.LFB275
 3745 0078 00000000 		.4byte	.LFB276
ARM GAS  C:\Users\Luis\AppData\Local\Temp\ccb1YA0P.s 			page 67


 3746 007c 18000000 		.4byte	.LFE276-.LFB276
 3747 0080 00000000 		.4byte	.LFB277
 3748 0084 7A000000 		.4byte	.LFE277-.LFB277
 3749 0088 00000000 		.4byte	.LFB278
 3750 008c 18000000 		.4byte	.LFE278-.LFB278
 3751 0090 00000000 		.4byte	.LFB279
 3752 0094 1A000000 		.4byte	.LFE279-.LFB279
 3753 0098 00000000 		.4byte	.LFB280
 3754 009c 18000000 		.4byte	.LFE280-.LFB280
 3755 00a0 00000000 		.4byte	.LFB281
 3756 00a4 1A000000 		.4byte	.LFE281-.LFB281
 3757 00a8 00000000 		.4byte	.LFB282
 3758 00ac 18000000 		.4byte	.LFE282-.LFB282
 3759 00b0 00000000 		.4byte	.LFB283
 3760 00b4 4C000000 		.4byte	.LFE283-.LFB283
 3761 00b8 00000000 		.4byte	.LFB284
 3762 00bc 18000000 		.4byte	.LFE284-.LFB284
 3763 00c0 00000000 		.4byte	0
 3764 00c4 00000000 		.4byte	0
 3765              		.section	.debug_ranges,"",%progbits
 3766              	.Ldebug_ranges0:
 3767 0000 00000000 		.4byte	.LFB261
 3768 0004 74000000 		.4byte	.LFE261
 3769 0008 00000000 		.4byte	.LFB263
 3770 000c 64000000 		.4byte	.LFE263
 3771 0010 00000000 		.4byte	.LFB265
 3772 0014 1E000000 		.4byte	.LFE265
 3773 0018 00000000 		.4byte	.LFB266
 3774 001c 8C000000 		.4byte	.LFE266
 3775 0020 00000000 		.4byte	.LFB267
 3776 0024 5E000000 		.4byte	.LFE267
 3777 0028 00000000 		.4byte	.LFB268
 3778 002c 4C000000 		.4byte	.LFE268
 3779 0030 00000000 		.4byte	.LFB269
 3780 0034 18000000 		.4byte	.LFE269
 3781 0038 00000000 		.4byte	.LFB270
 3782 003c 1A000000 		.4byte	.LFE270
 3783 0040 00000000 		.4byte	.LFB271
 3784 0044 18000000 		.4byte	.LFE271
 3785 0048 00000000 		.4byte	.LFB272
 3786 004c 1A000000 		.4byte	.LFE272
 3787 0050 00000000 		.4byte	.LFB273
 3788 0054 18000000 		.4byte	.LFE273
 3789 0058 00000000 		.4byte	.LFB274
 3790 005c 4E000000 		.4byte	.LFE274
 3791 0060 00000000 		.4byte	.LFB275
 3792 0064 4C000000 		.4byte	.LFE275
 3793 0068 00000000 		.4byte	.LFB276
 3794 006c 18000000 		.4byte	.LFE276
 3795 0070 00000000 		.4byte	.LFB277
 3796 0074 7A000000 		.4byte	.LFE277
 3797 0078 00000000 		.4byte	.LFB278
 3798 007c 18000000 		.4byte	.LFE278
 3799 0080 00000000 		.4byte	.LFB279
 3800 0084 1A000000 		.4byte	.LFE279
 3801 0088 00000000 		.4byte	.LFB280
 3802 008c 18000000 		.4byte	.LFE280
ARM GAS  C:\Users\Luis\AppData\Local\Temp\ccb1YA0P.s 			page 68


 3803 0090 00000000 		.4byte	.LFB281
 3804 0094 1A000000 		.4byte	.LFE281
 3805 0098 00000000 		.4byte	.LFB282
 3806 009c 18000000 		.4byte	.LFE282
 3807 00a0 00000000 		.4byte	.LFB283
 3808 00a4 4C000000 		.4byte	.LFE283
 3809 00a8 00000000 		.4byte	.LFB284
 3810 00ac 18000000 		.4byte	.LFE284
 3811 00b0 00000000 		.4byte	0
 3812 00b4 00000000 		.4byte	0
 3813              		.section	.debug_line,"",%progbits
 3814              	.Ldebug_line0:
 3815 0000 B9030000 		.section	.debug_str,"MS",%progbits,1
 3815      02008C01 
 3815      00000201 
 3815      FB0E0D00 
 3815      01010101 
 3816              	.LASF151:
 3817 0000 6D6F7665 		.ascii	"moveArray\000"
 3817      41727261 
 3817      7900
 3818              	.LASF14:
 3819 000a 72747469 		.ascii	"rttime_t\000"
 3819      6D655F74 
 3819      00
 3820              	.LASF152:
 3821 0013 5F5A4E31 		.ascii	"_ZN10DataFilter9moveArrayEPf\000"
 3821      30446174 
 3821      6146696C 
 3821      74657239 
 3821      6D6F7665 
 3822              	.LASF58:
 3823 0030 72656164 		.ascii	"ready_list_t\000"
 3823      795F6C69 
 3823      73745F74 
 3823      00
 3824              	.LASF95:
 3825 003d 73655F74 		.ascii	"se_time\000"
 3825      696D6500 
 3826              	.LASF201:
 3827 0045 5F5F696E 		.ascii	"__in_chrg\000"
 3827      5F636872 
 3827      6700
 3828              	.LASF28:
 3829 004f 77747472 		.ascii	"wttrp\000"
 3829      7000
 3830              	.LASF148:
 3831 0055 5F5A4E31 		.ascii	"_ZN10DataFilter19createArrayInputIIREv\000"
 3831      30446174 
 3831      6146696C 
 3831      74657231 
 3831      39637265 
 3832              	.LASF25:
 3833 007c 7264796D 		.ascii	"rdymsg\000"
 3833      736700
 3834              	.LASF211:
 3835 0083 7053697A 		.ascii	"pSizeInputs\000"
ARM GAS  C:\Users\Luis\AppData\Local\Temp\ccb1YA0P.s 			page 69


 3835      65496E70 
 3835      75747300 
 3836              	.LASF11:
 3837 008f 75696E74 		.ascii	"uint64_t\000"
 3837      36345F74 
 3837      00
 3838              	.LASF88:
 3839 0098 6B65726E 		.ascii	"kernel_stats\000"
 3839      656C5F73 
 3839      74617473 
 3839      00
 3840              	.LASF189:
 3841 00a5 67657442 		.ascii	"getBuffer1\000"
 3841      75666665 
 3841      723100
 3842              	.LASF94:
 3843 00b0 706F7274 		.ascii	"port_intctx\000"
 3843      5F696E74 
 3843      63747800 
 3844              	.LASF86:
 3845 00bc 76746C69 		.ascii	"vtlist\000"
 3845      737400
 3846              	.LASF131:
 3847 00c3 46696C74 		.ascii	"FilterOrder\000"
 3847      65724F72 
 3847      64657200 
 3848              	.LASF110:
 3849 00cf 776F7273 		.ascii	"worst\000"
 3849      7400
 3850              	.LASF113:
 3851 00d5 74696D65 		.ascii	"time_measurement_t\000"
 3851      5F6D6561 
 3851      73757265 
 3851      6D656E74 
 3851      5F7400
 3852              	.LASF212:
 3853 00e8 61727261 		.ascii	"arrayCoefficientsA\000"
 3853      79436F65 
 3853      66666963 
 3853      69656E74 
 3853      734100
 3854              	.LASF12:
 3855 00fb 6C6F6E67 		.ascii	"long long unsigned int\000"
 3855      206C6F6E 
 3855      6720756E 
 3855      7369676E 
 3855      65642069 
 3856              	.LASF98:
 3857 0112 73655F73 		.ascii	"se_state\000"
 3857      74617465 
 3857      00
 3858              	.LASF162:
 3859 011b 5F5A4E31 		.ascii	"_ZN10DataFilter26setArrayInitialConditionsXEPf\000"
 3859      30446174 
 3859      6146696C 
 3859      74657232 
 3859      36736574 
ARM GAS  C:\Users\Luis\AppData\Local\Temp\ccb1YA0P.s 			page 70


 3860              	.LASF167:
 3861 014a 67657446 		.ascii	"getFilterOrder\000"
 3861      696C7465 
 3861      724F7264 
 3861      657200
 3862              	.LASF181:
 3863 0159 73657441 		.ascii	"setArrayCoefficientsA\000"
 3863      72726179 
 3863      436F6566 
 3863      66696369 
 3863      656E7473 
 3864              	.LASF155:
 3865 016f 73657441 		.ascii	"setArrayCoefficientsB\000"
 3865      72726179 
 3865      436F6566 
 3865      66696369 
 3865      656E7473 
 3866              	.LASF74:
 3867 0185 76697274 		.ascii	"virtual_timers_list_t\000"
 3867      75616C5F 
 3867      74696D65 
 3867      72735F6C 
 3867      6973745F 
 3868              	.LASF214:
 3869 019b 49544D5F 		.ascii	"ITM_RxBuffer\000"
 3869      52784275 
 3869      66666572 
 3869      00
 3870              	.LASF57:
 3871 01a8 63685F74 		.ascii	"ch_threads_queue\000"
 3871      68726561 
 3871      64735F71 
 3871      75657565 
 3871      00
 3872              	.LASF209:
 3873 01b9 70417272 		.ascii	"pArrayInitialConditions\000"
 3873      6179496E 
 3873      69746961 
 3873      6C436F6E 
 3873      64697469 
 3874              	.LASF34:
 3875 01d1 705F7072 		.ascii	"p_prio\000"
 3875      696F00
 3876              	.LASF186:
 3877 01d8 5F5A4E31 		.ascii	"_ZN10DataFilter26setArrayInitialConditionsYEPf\000"
 3877      30446174 
 3877      6146696C 
 3877      74657232 
 3877      36736574 
 3878              	.LASF10:
 3879 0207 6C6F6E67 		.ascii	"long long int\000"
 3879      206C6F6E 
 3879      6720696E 
 3879      7400
 3880              	.LASF1:
 3881 0215 7369676E 		.ascii	"signed char\000"
 3881      65642063 
ARM GAS  C:\Users\Luis\AppData\Local\Temp\ccb1YA0P.s 			page 71


 3881      68617200 
 3882              	.LASF144:
 3883 0221 63726561 		.ascii	"createArrayInputFIR\000"
 3883      74654172 
 3883      72617949 
 3883      6E707574 
 3883      46495200 
 3884              	.LASF49:
 3885 0235 705F6D70 		.ascii	"p_mpool\000"
 3885      6F6F6C00 
 3886              	.LASF175:
 3887 023d 6765744E 		.ascii	"getNumbOutput\000"
 3887      756D624F 
 3887      75747075 
 3887      7400
 3888              	.LASF124:
 3889 024b 6D5F7175 		.ascii	"m_queue\000"
 3889      65756500 
 3890              	.LASF163:
 3891 0253 67657441 		.ascii	"getArrayInputsX\000"
 3891      72726179 
 3891      496E7075 
 3891      74735800 
 3892              	.LASF187:
 3893 0263 67657441 		.ascii	"getArrayInputsY\000"
 3893      72726179 
 3893      496E7075 
 3893      74735900 
 3894              	.LASF217:
 3895 0273 433A5C55 		.ascii	"C:\\Users\\Luis\\git\\DSP-Library-Lanin\\examples\\"
 3895      73657273 
 3895      5C4C7569 
 3895      735C6769 
 3895      745C4453 
 3896 02a0 4453502D 		.ascii	"DSP-Library\000"
 3896      4C696272 
 3896      61727900 
 3897              	.LASF84:
 3898 02ac 63685F73 		.ascii	"ch_system\000"
 3898      79737465 
 3898      6D00
 3899              	.LASF7:
 3900 02b6 6C6F6E67 		.ascii	"long int\000"
 3900      20696E74 
 3900      00
 3901              	.LASF207:
 3902 02bf 6E756D62 		.ascii	"numbOutput\000"
 3902      4F757470 
 3902      757400
 3903              	.LASF154:
 3904 02ca 5F5A4E31 		.ascii	"_ZN10DataFilter9copyArrayEPfS0_\000"
 3904      30446174 
 3904      6146696C 
 3904      74657239 
 3904      636F7079 
 3905              	.LASF156:
 3906 02ea 5F5A4E31 		.ascii	"_ZN10DataFilter21setArrayCoefficientsBEPf\000"
ARM GAS  C:\Users\Luis\AppData\Local\Temp\ccb1YA0P.s 			page 72


 3906      30446174 
 3906      6146696C 
 3906      74657232 
 3906      31736574 
 3907              	.LASF204:
 3908 0314 7046696C 		.ascii	"pFilterOrder\000"
 3908      7465724F 
 3908      72646572 
 3908      00
 3909              	.LASF50:
 3910 0321 705F7374 		.ascii	"p_stats\000"
 3910      61747300 
 3911              	.LASF96:
 3912 0329 73655F74 		.ascii	"se_tp\000"
 3912      7000
 3913              	.LASF146:
 3914 032f 5F5A4E31 		.ascii	"_ZN10DataFilter19createArrayInputFIREv\000"
 3914      30446174 
 3914      6146696C 
 3914      74657231 
 3914      39637265 
 3915              	.LASF188:
 3916 0356 5F5A4E4B 		.ascii	"_ZNK10DataFilter15getArrayInputsYEv\000"
 3916      31304461 
 3916      74614669 
 3916      6C746572 
 3916      31356765 
 3917              	.LASF16:
 3918 037a 74737461 		.ascii	"tstate_t\000"
 3918      74655F74 
 3918      00
 3919              	.LASF139:
 3920 0383 41727261 		.ascii	"ArrayIntervalOutput\000"
 3920      79496E74 
 3920      65727661 
 3920      6C4F7574 
 3920      70757400 
 3921              	.LASF200:
 3922 0397 74686973 		.ascii	"this\000"
 3922      00
 3923              	.LASF36:
 3924 039c 705F6E65 		.ascii	"p_newer\000"
 3924      77657200 
 3925              	.LASF121:
 3926 03a4 735F7175 		.ascii	"s_queue\000"
 3926      65756500 
 3927              	.LASF26:
 3928 03ac 65786974 		.ascii	"exitcode\000"
 3928      636F6465 
 3928      00
 3929              	.LASF100:
 3930 03b5 74625F73 		.ascii	"tb_size\000"
 3930      697A6500 
 3931              	.LASF171:
 3932 03bd 67657441 		.ascii	"getArrayResult\000"
 3932      72726179 
 3932      52657375 
ARM GAS  C:\Users\Luis\AppData\Local\Temp\ccb1YA0P.s 			page 73


 3932      6C7400
 3933              	.LASF63:
 3934 03cc 725F6E65 		.ascii	"r_newer\000"
 3934      77657200 
 3935              	.LASF91:
 3936 03d4 72656761 		.ascii	"regarm_t\000"
 3936      726D5F74 
 3936      00
 3937              	.LASF70:
 3938 03dd 76745F70 		.ascii	"vt_prev\000"
 3938      72657600 
 3939              	.LASF78:
 3940 03e5 63685F73 		.ascii	"ch_system_debug\000"
 3940      79737465 
 3940      6D5F6465 
 3940      62756700 
 3941              	.LASF192:
 3942 03f5 5F5A4E31 		.ascii	"_ZN10DataFilter10setBuffer1EPf\000"
 3942      30446174 
 3942      6146696C 
 3942      74657231 
 3942      30736574 
 3943              	.LASF128:
 3944 0414 6D757465 		.ascii	"mutex_t\000"
 3944      785F7400 
 3945              	.LASF141:
 3946 041c 52657375 		.ascii	"Result\000"
 3946      6C7400
 3947              	.LASF81:
 3948 0423 6C6F636B 		.ascii	"lock_cnt\000"
 3948      5F636E74 
 3948      00
 3949              	.LASF182:
 3950 042c 5F5A4E31 		.ascii	"_ZN10DataFilter21setArrayCoefficientsAEPf\000"
 3950      30446174 
 3950      6146696C 
 3950      74657232 
 3950      31736574 
 3951              	.LASF220:
 3952 0456 7E446174 		.ascii	"~DataFilter\000"
 3952      6146696C 
 3952      74657200 
 3953              	.LASF21:
 3954 0462 636E745F 		.ascii	"cnt_t\000"
 3954      7400
 3955              	.LASF223:
 3956 0468 5F5F7674 		.ascii	"__vtbl_ptr_type\000"
 3956      626C5F70 
 3956      74725F74 
 3956      79706500 
 3957              	.LASF39:
 3958 0478 705F7374 		.ascii	"p_stklimit\000"
 3958      6B6C696D 
 3958      697400
 3959              	.LASF0:
 3960 0483 756E7369 		.ascii	"unsigned int\000"
 3960      676E6564 
ARM GAS  C:\Users\Luis\AppData\Local\Temp\ccb1YA0P.s 			page 74


 3960      20696E74 
 3960      00
 3961              	.LASF29:
 3962 0490 77747365 		.ascii	"wtsemp\000"
 3962      6D7000
 3963              	.LASF177:
 3964 0497 7365744E 		.ascii	"setNumbOutput\000"
 3964      756D624F 
 3964      75747075 
 3964      7400
 3965              	.LASF77:
 3966 04a5 73797374 		.ascii	"system_debug_t\000"
 3966      656D5F64 
 3966      65627567 
 3966      5F7400
 3967              	.LASF69:
 3968 04b4 76745F6E 		.ascii	"vt_next\000"
 3968      65787400 
 3969              	.LASF169:
 3970 04bc 73657446 		.ascii	"setFilterOrder\000"
 3970      696C7465 
 3970      724F7264 
 3970      657200
 3971              	.LASF51:
 3972 04cb 746C7350 		.ascii	"tlsPtr\000"
 3972      747200
 3973              	.LASF115:
 3974 04d2 6E5F6972 		.ascii	"n_irq\000"
 3974      7100
 3975              	.LASF122:
 3976 04d8 735F636E 		.ascii	"s_cnt\000"
 3976      7400
 3977              	.LASF4:
 3978 04de 73686F72 		.ascii	"short unsigned int\000"
 3978      7420756E 
 3978      7369676E 
 3978      65642069 
 3978      6E7400
 3979              	.LASF119:
 3980 04f1 6B65726E 		.ascii	"kernel_stats_t\000"
 3980      656C5F73 
 3980      74617473 
 3980      5F7400
 3981              	.LASF104:
 3982 0500 31346368 		.ascii	"14ch_swc_event_t\000"
 3982      5F737763 
 3982      5F657665 
 3982      6E745F74 
 3982      00
 3983              	.LASF54:
 3984 0511 63685F74 		.ascii	"ch_thread\000"
 3984      68726561 
 3984      6400
 3985              	.LASF87:
 3986 051b 6D61696E 		.ascii	"mainthread\000"
 3986      74687265 
 3986      616400
ARM GAS  C:\Users\Luis\AppData\Local\Temp\ccb1YA0P.s 			page 75


 3987              	.LASF132:
 3988 0526 41727261 		.ascii	"ArrayInitialConditionsX\000"
 3988      79496E69 
 3988      7469616C 
 3988      436F6E64 
 3988      6974696F 
 3989              	.LASF19:
 3990 053e 6D73675F 		.ascii	"msg_t\000"
 3990      7400
 3991              	.LASF111:
 3992 0544 6C617374 		.ascii	"last\000"
 3992      00
 3993              	.LASF22:
 3994 0549 75636E74 		.ascii	"ucnt_t\000"
 3994      5F7400
 3995              	.LASF164:
 3996 0550 5F5A4E4B 		.ascii	"_ZNK10DataFilter15getArrayInputsXEv\000"
 3996      31304461 
 3996      74614669 
 3996      6C746572 
 3996      31356765 
 3997              	.LASF153:
 3998 0574 636F7079 		.ascii	"copyArray\000"
 3998      41727261 
 3998      7900
 3999              	.LASF83:
 4000 057e 63685F73 		.ascii	"ch_system_t\000"
 4000      79737465 
 4000      6D5F7400 
 4001              	.LASF15:
 4002 058a 746D6F64 		.ascii	"tmode_t\000"
 4002      655F7400 
 4003              	.LASF129:
 4004 0592 626F6F6C 		.ascii	"bool\000"
 4004      00
 4005              	.LASF180:
 4006 0597 5F5A4E4B 		.ascii	"_ZNK10DataFilter21getArrayCoefficientsAEv\000"
 4006      31304461 
 4006      74614669 
 4006      6C746572 
 4006      32316765 
 4007              	.LASF118:
 4008 05c1 6D5F6372 		.ascii	"m_crit_isr\000"
 4008      69745F69 
 4008      737200
 4009              	.LASF59:
 4010 05cc 63685F72 		.ascii	"ch_ready_list\000"
 4010      65616479 
 4010      5F6C6973 
 4010      7400
 4011              	.LASF20:
 4012 05da 6576656E 		.ascii	"eventmask_t\000"
 4012      746D6173 
 4012      6B5F7400 
 4013              	.LASF3:
 4014 05e6 73686F72 		.ascii	"short int\000"
 4014      7420696E 
ARM GAS  C:\Users\Luis\AppData\Local\Temp\ccb1YA0P.s 			page 76


 4014      7400
 4015              	.LASF135:
 4016 05f0 41727261 		.ascii	"ArrayInitialConditionsY\000"
 4016      79496E69 
 4016      7469616C 
 4016      436F6E64 
 4016      6974696F 
 4017              	.LASF218:
 4018 0608 31376368 		.ascii	"17ch_trace_buffer_t\000"
 4018      5F747261 
 4018      63655F62 
 4018      75666665 
 4018      725F7400 
 4019              	.LASF194:
 4020 061c 5F5A4E4B 		.ascii	"_ZNK10DataFilter10getBuffer2Ev\000"
 4020      31304461 
 4020      74614669 
 4020      6C746572 
 4020      31306765 
 4021              	.LASF92:
 4022 063b 73746B61 		.ascii	"stkalign_t\000"
 4022      6C69676E 
 4022      5F7400
 4023              	.LASF191:
 4024 0646 73657442 		.ascii	"setBuffer1\000"
 4024      75666665 
 4024      723100
 4025              	.LASF195:
 4026 0651 73657442 		.ascii	"setBuffer2\000"
 4026      75666665 
 4026      723200
 4027              	.LASF172:
 4028 065c 5F5A4E4B 		.ascii	"_ZNK10DataFilter14getArrayResultEv\000"
 4028      31304461 
 4028      74614669 
 4028      6C746572 
 4028      31346765 
 4029              	.LASF221:
 4030 067f 73657442 		.ascii	"setBufferReady\000"
 4030      75666665 
 4030      72526561 
 4030      647900
 4031              	.LASF101:
 4032 068e 74625F70 		.ascii	"tb_ptr\000"
 4032      747200
 4033              	.LASF210:
 4034 0695 70417272 		.ascii	"pArrayInputs\000"
 4034      6179496E 
 4034      70757473 
 4034      00
 4035              	.LASF13:
 4036 06a2 7274636E 		.ascii	"rtcnt_t\000"
 4036      745F7400 
 4037              	.LASF52:
 4038 06aa 74687265 		.ascii	"thread_reference_t\000"
 4038      61645F72 
 4038      65666572 
ARM GAS  C:\Users\Luis\AppData\Local\Temp\ccb1YA0P.s 			page 77


 4038      656E6365 
 4038      5F7400
 4039              	.LASF130:
 4040 06bd 5F767074 		.ascii	"_vptr.DataFilter\000"
 4040      722E4461 
 4040      74614669 
 4040      6C746572 
 4040      00
 4041              	.LASF75:
 4042 06ce 63685F76 		.ascii	"ch_virtual_timers_list\000"
 4042      69727475 
 4042      616C5F74 
 4042      696D6572 
 4042      735F6C69 
 4043              	.LASF145:
 4044 06e5 5F5A4E31 		.ascii	"_ZN10DataFilter13newDataFilterEi\000"
 4044      30446174 
 4044      6146696C 
 4044      74657231 
 4044      336E6577 
 4045              	.LASF72:
 4046 0706 76745F66 		.ascii	"vt_func\000"
 4046      756E6300 
 4047              	.LASF138:
 4048 070e 41727261 		.ascii	"ArrayResult\000"
 4048      79526573 
 4048      756C7400 
 4049              	.LASF99:
 4050 071a 63685F73 		.ascii	"ch_swc_event_t\000"
 4050      77635F65 
 4050      76656E74 
 4050      5F7400
 4051              	.LASF76:
 4052 0729 76745F6C 		.ascii	"vt_lasttime\000"
 4052      61737474 
 4052      696D6500 
 4053              	.LASF37:
 4054 0735 705F6F6C 		.ascii	"p_older\000"
 4054      64657200 
 4055              	.LASF62:
 4056 073d 725F6374 		.ascii	"r_ctx\000"
 4056      7800
 4057              	.LASF108:
 4058 0743 31387469 		.ascii	"18time_measurement_t\000"
 4058      6D655F6D 
 4058      65617375 
 4058      72656D65 
 4058      6E745F74 
 4059              	.LASF114:
 4060 0758 31346B65 		.ascii	"14kernel_stats_t\000"
 4060      726E656C 
 4060      5F737461 
 4060      74735F74 
 4060      00
 4061              	.LASF107:
 4062 0769 746D5F63 		.ascii	"tm_calibration_t\000"
 4062      616C6962 
ARM GAS  C:\Users\Luis\AppData\Local\Temp\ccb1YA0P.s 			page 78


 4062      72617469 
 4062      6F6E5F74 
 4062      00
 4063              	.LASF197:
 4064 077a 69734275 		.ascii	"isBufferReady\000"
 4064      66666572 
 4064      52656164 
 4064      7900
 4065              	.LASF205:
 4066 0788 70417272 		.ascii	"pArray\000"
 4066      617900
 4067              	.LASF65:
 4068 078f 725F6375 		.ascii	"r_current\000"
 4068      7272656E 
 4068      7400
 4069              	.LASF64:
 4070 0799 725F6F6C 		.ascii	"r_older\000"
 4070      64657200 
 4071              	.LASF216:
 4072 07a1 44617461 		.ascii	"DataFilter.cpp\000"
 4072      46696C74 
 4072      65722E63 
 4072      707000
 4073              	.LASF112:
 4074 07b0 63756D75 		.ascii	"cumulative\000"
 4074      6C617469 
 4074      766500
 4075              	.LASF199:
 4076 07bb 666C6F61 		.ascii	"float\000"
 4076      7400
 4077              	.LASF208:
 4078 07c1 70417272 		.ascii	"pArrayCoefficientsB\000"
 4078      6179436F 
 4078      65666669 
 4078      6369656E 
 4078      74734200 
 4079              	.LASF198:
 4080 07d5 5F5A4E4B 		.ascii	"_ZNK10DataFilter13isBufferReadyEv\000"
 4080      31304461 
 4080      74614669 
 4080      6C746572 
 4080      31336973 
 4081              	.LASF17:
 4082 07f7 74726566 		.ascii	"trefs_t\000"
 4082      735F7400 
 4083              	.LASF102:
 4084 07ff 74625F62 		.ascii	"tb_buffer\000"
 4084      75666665 
 4084      7200
 4085              	.LASF67:
 4086 0809 76697274 		.ascii	"virtual_timer_t\000"
 4086      75616C5F 
 4086      74696D65 
 4086      725F7400 
 4087              	.LASF33:
 4088 0819 705F7072 		.ascii	"p_prev\000"
 4088      657600
ARM GAS  C:\Users\Luis\AppData\Local\Temp\ccb1YA0P.s 			page 79


 4089              	.LASF215:
 4090 0820 474E5520 		.ascii	"GNU C++ 4.8.3 20131129 (release) [ARM/embedded-4_8-"
 4090      432B2B20 
 4090      342E382E 
 4090      33203230 
 4090      31333131 
 4091 0853 6272616E 		.ascii	"branch revision 205641] -mcpu=cortex-m4 -mapcs-fram"
 4091      63682072 
 4091      65766973 
 4091      696F6E20 
 4091      32303536 
 4092 0886 65202D6D 		.ascii	"e -mno-thumb-interwork -mthumb -ggdb -O0 -falign-fu"
 4092      6E6F2D74 
 4092      68756D62 
 4092      2D696E74 
 4092      6572776F 
 4093 08b9 6E637469 		.ascii	"nctions=16 -ffunction-sections -fdata-sections -fno"
 4093      6F6E733D 
 4093      3136202D 
 4093      6666756E 
 4093      6374696F 
 4094 08ec 2D636F6D 		.ascii	"-common -fno-rtti -fno-exceptions\000"
 4094      6D6F6E20 
 4094      2D666E6F 
 4094      2D727474 
 4094      69202D66 
 4095              	.LASF18:
 4096 090e 74707269 		.ascii	"tprio_t\000"
 4096      6F5F7400 
 4097              	.LASF116:
 4098 0916 6E5F6374 		.ascii	"n_ctxswc\000"
 4098      78737763 
 4098      00
 4099              	.LASF6:
 4100 091f 696E7433 		.ascii	"int32_t\000"
 4100      325F7400 
 4101              	.LASF103:
 4102 0927 63685F74 		.ascii	"ch_trace_buffer_t\000"
 4102      72616365 
 4102      5F627566 
 4102      6665725F 
 4102      7400
 4103              	.LASF165:
 4104 0939 73657441 		.ascii	"setArrayInputsX\000"
 4104      72726179 
 4104      496E7075 
 4104      74735800 
 4105              	.LASF149:
 4106 0949 63726561 		.ascii	"createArrayInputY\000"
 4106      74654172 
 4106      72617949 
 4106      6E707574 
 4106      5900
 4107              	.LASF47:
 4108 095b 705F6D74 		.ascii	"p_mtxlist\000"
 4108      786C6973 
 4108      7400
ARM GAS  C:\Users\Luis\AppData\Local\Temp\ccb1YA0P.s 			page 80


 4109              	.LASF176:
 4110 0965 5F5A4E4B 		.ascii	"_ZNK10DataFilter13getNumbOutputEv\000"
 4110      31304461 
 4110      74614669 
 4110      6C746572 
 4110      31336765 
 4111              	.LASF40:
 4112 0987 705F7374 		.ascii	"p_state\000"
 4112      61746500 
 4113              	.LASF61:
 4114 098f 725F7072 		.ascii	"r_prio\000"
 4114      696F00
 4115              	.LASF140:
 4116 0996 4E756D62 		.ascii	"NumbOutput\000"
 4116      4F757470 
 4116      757400
 4117              	.LASF27:
 4118 09a1 77746F62 		.ascii	"wtobjp\000"
 4118      6A7000
 4119              	.LASF31:
 4120 09a8 65776D61 		.ascii	"ewmask\000"
 4120      736B00
 4121              	.LASF32:
 4122 09af 705F6E65 		.ascii	"p_next\000"
 4122      787400
 4123              	.LASF73:
 4124 09b6 76745F70 		.ascii	"vt_par\000"
 4124      617200
 4125              	.LASF89:
 4126 09bd 69646C65 		.ascii	"idle_thread_wa\000"
 4126      5F746872 
 4126      6561645F 
 4126      776100
 4127              	.LASF202:
 4128 09cc 5F5A4E31 		.ascii	"_ZN10DataFilterD2Ev\000"
 4128      30446174 
 4128      6146696C 
 4128      74657244 
 4128      32457600 
 4129              	.LASF159:
 4130 09e0 5F5A4E4B 		.ascii	"_ZNK10DataFilter21getArrayCoefficientsBEv\000"
 4130      31304461 
 4130      74614669 
 4130      6C746572 
 4130      32316765 
 4131              	.LASF56:
 4132 0a0a 74687265 		.ascii	"threads_queue_t\000"
 4132      6164735F 
 4132      71756575 
 4132      655F7400 
 4133              	.LASF179:
 4134 0a1a 67657441 		.ascii	"getArrayCoefficientsA\000"
 4134      72726179 
 4134      436F6566 
 4134      66696369 
 4134      656E7473 
 4135              	.LASF157:
ARM GAS  C:\Users\Luis\AppData\Local\Temp\ccb1YA0P.s 			page 81


 4136 0a30 67657441 		.ascii	"getArrayCoefficientsB\000"
 4136      72726179 
 4136      436F6566 
 4136      66696369 
 4136      656E7473 
 4137              	.LASF120:
 4138 0a46 63685F73 		.ascii	"ch_semaphore\000"
 4138      656D6170 
 4138      686F7265 
 4138      00
 4139              	.LASF46:
 4140 0a53 705F6570 		.ascii	"p_epending\000"
 4140      656E6469 
 4140      6E6700
 4141              	.LASF193:
 4142 0a5e 67657442 		.ascii	"getBuffer2\000"
 4142      75666665 
 4142      723200
 4143              	.LASF213:
 4144 0a69 61727261 		.ascii	"arrayInitialConditionsY\000"
 4144      79496E69 
 4144      7469616C 
 4144      436F6E64 
 4144      6974696F 
 4145              	.LASF142:
 4146 0a81 436F6E74 		.ascii	"Cont\000"
 4146      00
 4147              	.LASF8:
 4148 0a86 75696E74 		.ascii	"uint32_t\000"
 4148      33325F74 
 4148      00
 4149              	.LASF30:
 4150 0a8f 77746D74 		.ascii	"wtmtxp\000"
 4150      787000
 4151              	.LASF60:
 4152 0a96 725F7175 		.ascii	"r_queue\000"
 4152      65756500 
 4153              	.LASF71:
 4154 0a9e 76745F64 		.ascii	"vt_delta\000"
 4154      656C7461 
 4154      00
 4155              	.LASF55:
 4156 0aa7 63685F74 		.ascii	"ch_threads_list\000"
 4156      68726561 
 4156      64735F6C 
 4156      69737400 
 4157              	.LASF150:
 4158 0ab7 5F5A4E31 		.ascii	"_ZN10DataFilter17createArrayInputYEv\000"
 4158      30446174 
 4158      6146696C 
 4158      74657231 
 4158      37637265 
 4159              	.LASF168:
 4160 0adc 5F5A4E4B 		.ascii	"_ZNK10DataFilter14getFilterOrderEv\000"
 4160      31304461 
 4160      74614669 
 4160      6C746572 
ARM GAS  C:\Users\Luis\AppData\Local\Temp\ccb1YA0P.s 			page 82


 4160      31346765 
 4161              	.LASF9:
 4162 0aff 6C6F6E67 		.ascii	"long unsigned int\000"
 4162      20756E73 
 4162      69676E65 
 4162      6420696E 
 4162      7400
 4163              	.LASF127:
 4164 0b11 63686172 		.ascii	"char\000"
 4164      00
 4165              	.LASF105:
 4166 0b16 3136746D 		.ascii	"16tm_calibration_t\000"
 4166      5F63616C 
 4166      69627261 
 4166      74696F6E 
 4166      5F7400
 4167              	.LASF109:
 4168 0b29 62657374 		.ascii	"best\000"
 4168      00
 4169              	.LASF126:
 4170 0b2e 6D5F6E65 		.ascii	"m_next\000"
 4170      787400
 4171              	.LASF23:
 4172 0b35 73797374 		.ascii	"systime_t\000"
 4172      696D655F 
 4172      7400
 4173              	.LASF48:
 4174 0b3f 705F7265 		.ascii	"p_realprio\000"
 4174      616C7072 
 4174      696F00
 4175              	.LASF66:
 4176 0b4a 76746675 		.ascii	"vtfunc_t\000"
 4176      6E635F74 
 4176      00
 4177              	.LASF117:
 4178 0b53 6D5F6372 		.ascii	"m_crit_thd\000"
 4178      69745F74 
 4178      686400
 4179              	.LASF190:
 4180 0b5e 5F5A4E4B 		.ascii	"_ZNK10DataFilter10getBuffer1Ev\000"
 4180      31304461 
 4180      74614669 
 4180      6C746572 
 4180      31306765 
 4181              	.LASF178:
 4182 0b7d 5F5A4E31 		.ascii	"_ZN10DataFilter13setNumbOutputEi\000"
 4182      30446174 
 4182      6146696C 
 4182      74657231 
 4182      33736574 
 4183              	.LASF222:
 4184 0b9e 5F5A4E31 		.ascii	"_ZN10DataFilter14setBufferReadyEb\000"
 4184      30446174 
 4184      6146696C 
 4184      74657231 
 4184      34736574 
 4185              	.LASF106:
ARM GAS  C:\Users\Luis\AppData\Local\Temp\ccb1YA0P.s 			page 83


 4186 0bc0 6F666673 		.ascii	"offset\000"
 4186      657400
 4187              	.LASF93:
 4188 0bc7 636F6E74 		.ascii	"context\000"
 4188      65787400 
 4189              	.LASF2:
 4190 0bcf 756E7369 		.ascii	"unsigned char\000"
 4190      676E6564 
 4190      20636861 
 4190      7200
 4191              	.LASF173:
 4192 0bdd 73657441 		.ascii	"setArrayResult\000"
 4192      72726179 
 4192      52657375 
 4192      6C7400
 4193              	.LASF44:
 4194 0bec 705F6D73 		.ascii	"p_msgqueue\000"
 4194      67717565 
 4194      756500
 4195              	.LASF136:
 4196 0bf7 41727261 		.ascii	"ArrayCoefficientsA\000"
 4196      79436F65 
 4196      66666963 
 4196      69656E74 
 4196      734100
 4197              	.LASF133:
 4198 0c0a 41727261 		.ascii	"ArrayCoefficientsB\000"
 4198      79436F65 
 4198      66666963 
 4198      69656E74 
 4198      734200
 4199              	.LASF158:
 4200 0c1d 67657441 		.ascii	"getArrayInitialConditionsX\000"
 4200      72726179 
 4200      496E6974 
 4200      69616C43 
 4200      6F6E6469 
 4201              	.LASF134:
 4202 0c38 41727261 		.ascii	"ArrayInputsX\000"
 4202      79496E70 
 4202      75747358 
 4202      00
 4203              	.LASF137:
 4204 0c45 41727261 		.ascii	"ArrayInputsY\000"
 4204      79496E70 
 4204      75747359 
 4204      00
 4205              	.LASF38:
 4206 0c52 705F6E61 		.ascii	"p_name\000"
 4206      6D6500
 4207              	.LASF42:
 4208 0c59 705F7265 		.ascii	"p_refs\000"
 4208      667300
 4209              	.LASF80:
 4210 0c60 6973725F 		.ascii	"isr_cnt\000"
 4210      636E7400 
 4211              	.LASF24:
ARM GAS  C:\Users\Luis\AppData\Local\Temp\ccb1YA0P.s 			page 84


 4212 0c68 74687265 		.ascii	"thread_t\000"
 4212      61645F74 
 4212      00
 4213              	.LASF206:
 4214 0c71 61727261 		.ascii	"arrayResult\000"
 4214      79526573 
 4214      756C7400 
 4215              	.LASF196:
 4216 0c7d 5F5A4E31 		.ascii	"_ZN10DataFilter10setBuffer2EPf\000"
 4216      30446174 
 4216      6146696C 
 4216      74657231 
 4216      30736574 
 4217              	.LASF219:
 4218 0c9c 44617461 		.ascii	"DataFilter\000"
 4218      46696C74 
 4218      657200
 4219              	.LASF85:
 4220 0ca7 726C6973 		.ascii	"rlist\000"
 4220      7400
 4221              	.LASF5:
 4222 0cad 75696E74 		.ascii	"uint8_t\000"
 4222      385F7400 
 4223              	.LASF79:
 4224 0cb5 70616E69 		.ascii	"panic_msg\000"
 4224      635F6D73 
 4224      6700
 4225              	.LASF90:
 4226 0cbf 73697A65 		.ascii	"sizetype\000"
 4226      74797065 
 4226      00
 4227              	.LASF123:
 4228 0cc8 63685F6D 		.ascii	"ch_mutex\000"
 4228      75746578 
 4228      00
 4229              	.LASF174:
 4230 0cd1 5F5A4E31 		.ascii	"_ZN10DataFilter14setArrayResultEPf\000"
 4230      30446174 
 4230      6146696C 
 4230      74657231 
 4230      34736574 
 4231              	.LASF160:
 4232 0cf4 5F5A4E4B 		.ascii	"_ZNK10DataFilter26getArrayInitialConditionsXEv\000"
 4232      31304461 
 4232      74614669 
 4232      6C746572 
 4232      32366765 
 4233              	.LASF53:
 4234 0d23 74687265 		.ascii	"threads_list_t\000"
 4234      6164735F 
 4234      6C697374 
 4234      5F7400
 4235              	.LASF82:
 4236 0d32 74726163 		.ascii	"trace_buffer\000"
 4236      655F6275 
 4236      66666572 
 4236      00
ARM GAS  C:\Users\Luis\AppData\Local\Temp\ccb1YA0P.s 			page 85


 4237              	.LASF41:
 4238 0d3f 705F666C 		.ascii	"p_flags\000"
 4238      61677300 
 4239              	.LASF68:
 4240 0d47 63685F76 		.ascii	"ch_virtual_timer\000"
 4240      69727475 
 4240      616C5F74 
 4240      696D6572 
 4240      00
 4241              	.LASF45:
 4242 0d58 705F6D73 		.ascii	"p_msg\000"
 4242      6700
 4243              	.LASF183:
 4244 0d5e 67657441 		.ascii	"getArrayInitialConditionsY\000"
 4244      72726179 
 4244      496E6974 
 4244      69616C43 
 4244      6F6E6469 
 4245              	.LASF161:
 4246 0d79 73657441 		.ascii	"setArrayInitialConditionsX\000"
 4246      72726179 
 4246      496E6974 
 4246      69616C43 
 4246      6F6E6469 
 4247              	.LASF185:
 4248 0d94 73657441 		.ascii	"setArrayInitialConditionsY\000"
 4248      72726179 
 4248      496E6974 
 4248      69616C43 
 4248      6F6E6469 
 4249              	.LASF166:
 4250 0daf 5F5A4E31 		.ascii	"_ZN10DataFilter15setArrayInputsXEPfi\000"
 4250      30446174 
 4250      6146696C 
 4250      74657231 
 4250      35736574 
 4251              	.LASF147:
 4252 0dd4 63726561 		.ascii	"createArrayInputIIR\000"
 4252      74654172 
 4252      72617949 
 4252      6E707574 
 4252      49495200 
 4253              	.LASF170:
 4254 0de8 5F5A4E31 		.ascii	"_ZN10DataFilter14setFilterOrderEi\000"
 4254      30446174 
 4254      6146696C 
 4254      74657231 
 4254      34736574 
 4255              	.LASF203:
 4256 0e0a 5F5A4E31 		.ascii	"_ZN10DataFilterD0Ev\000"
 4256      30446174 
 4256      6146696C 
 4256      74657244 
 4256      30457600 
 4257              	.LASF125:
 4258 0e1e 6D5F6F77 		.ascii	"m_owner\000"
 4258      6E657200 
ARM GAS  C:\Users\Luis\AppData\Local\Temp\ccb1YA0P.s 			page 86


 4259              	.LASF97:
 4260 0e26 73655F77 		.ascii	"se_wtobjp\000"
 4260      746F626A 
 4260      7000
 4261              	.LASF35:
 4262 0e30 705F6374 		.ascii	"p_ctx\000"
 4262      7800
 4263              	.LASF43:
 4264 0e36 705F7761 		.ascii	"p_waiting\000"
 4264      6974696E 
 4264      6700
 4265              	.LASF184:
 4266 0e40 5F5A4E4B 		.ascii	"_ZNK10DataFilter26getArrayInitialConditionsYEv\000"
 4266      31304461 
 4266      74614669 
 4266      6C746572 
 4266      32366765 
 4267              	.LASF143:
 4268 0e6f 6E657744 		.ascii	"newDataFilter\000"
 4268      61746146 
 4268      696C7465 
 4268      7200
 4269              		.ident	"GCC: (GNU Tools for ARM Embedded Processors) 4.8.3 20131129 (release) [ARM/embedded-4_8-br
ARM GAS  C:\Users\Luis\AppData\Local\Temp\ccb1YA0P.s 			page 87


DEFINED SYMBOLS
                            *ABS*:00000000 DataFilter.cpp
C:\Users\Luis\AppData\Local\Temp\ccb1YA0P.s:19     .text._ZN10DataFilter13newDataFilterEi:00000000 $t
C:\Users\Luis\AppData\Local\Temp\ccb1YA0P.s:25     .text._ZN10DataFilter13newDataFilterEi:00000000 _ZN10DataFilter13newDataFilterEi
C:\Users\Luis\AppData\Local\Temp\ccb1YA0P.s:942    .text._ZN10DataFilter14setFilterOrderEi:00000000 _ZN10DataFilter14setFilterOrderEi
C:\Users\Luis\AppData\Local\Temp\ccb1YA0P.s:101    .text._ZN10DataFilterD2Ev:00000000 $t
C:\Users\Luis\AppData\Local\Temp\ccb1YA0P.s:107    .text._ZN10DataFilterD2Ev:00000000 _ZN10DataFilterD2Ev
C:\Users\Luis\AppData\Local\Temp\ccb1YA0P.s:176    .text._ZN10DataFilterD2Ev:00000060 $d
C:\Users\Luis\AppData\Local\Temp\ccb1YA0P.s:1183   .rodata._ZTV10DataFilter:00000000 _ZTV10DataFilter
C:\Users\Luis\AppData\Local\Temp\ccb1YA0P.s:107    .text._ZN10DataFilterD2Ev:00000000 _ZN10DataFilterD1Ev
C:\Users\Luis\AppData\Local\Temp\ccb1YA0P.s:183    .text._ZN10DataFilterD0Ev:00000000 $t
C:\Users\Luis\AppData\Local\Temp\ccb1YA0P.s:189    .text._ZN10DataFilterD0Ev:00000000 _ZN10DataFilterD0Ev
C:\Users\Luis\AppData\Local\Temp\ccb1YA0P.s:219    .text._ZN10DataFilter19createArrayInputFIREv:00000000 $t
C:\Users\Luis\AppData\Local\Temp\ccb1YA0P.s:225    .text._ZN10DataFilter19createArrayInputFIREv:00000000 _ZN10DataFilter19createArrayInputFIREv
C:\Users\Luis\AppData\Local\Temp\ccb1YA0P.s:323    .text._ZN10DataFilter19createArrayInputIIREv:00000000 $t
C:\Users\Luis\AppData\Local\Temp\ccb1YA0P.s:329    .text._ZN10DataFilter19createArrayInputIIREv:00000000 _ZN10DataFilter19createArrayInputIIREv
C:\Users\Luis\AppData\Local\Temp\ccb1YA0P.s:399    .text._ZN10DataFilter9moveArrayEPf:00000000 $t
C:\Users\Luis\AppData\Local\Temp\ccb1YA0P.s:405    .text._ZN10DataFilter9moveArrayEPf:00000000 _ZN10DataFilter9moveArrayEPf
C:\Users\Luis\AppData\Local\Temp\ccb1YA0P.s:465    .text._ZNK10DataFilter14getArrayResultEv:00000000 $t
C:\Users\Luis\AppData\Local\Temp\ccb1YA0P.s:471    .text._ZNK10DataFilter14getArrayResultEv:00000000 _ZNK10DataFilter14getArrayResultEv
C:\Users\Luis\AppData\Local\Temp\ccb1YA0P.s:500    .text._ZN10DataFilter14setArrayResultEPf:00000000 $t
C:\Users\Luis\AppData\Local\Temp\ccb1YA0P.s:506    .text._ZN10DataFilter14setArrayResultEPf:00000000 _ZN10DataFilter14setArrayResultEPf
C:\Users\Luis\AppData\Local\Temp\ccb1YA0P.s:536    .text._ZNK10DataFilter13getNumbOutputEv:00000000 $t
C:\Users\Luis\AppData\Local\Temp\ccb1YA0P.s:542    .text._ZNK10DataFilter13getNumbOutputEv:00000000 _ZNK10DataFilter13getNumbOutputEv
C:\Users\Luis\AppData\Local\Temp\ccb1YA0P.s:571    .text._ZN10DataFilter13setNumbOutputEi:00000000 $t
C:\Users\Luis\AppData\Local\Temp\ccb1YA0P.s:577    .text._ZN10DataFilter13setNumbOutputEi:00000000 _ZN10DataFilter13setNumbOutputEi
C:\Users\Luis\AppData\Local\Temp\ccb1YA0P.s:607    .text._ZNK10DataFilter21getArrayCoefficientsBEv:00000000 $t
C:\Users\Luis\AppData\Local\Temp\ccb1YA0P.s:613    .text._ZNK10DataFilter21getArrayCoefficientsBEv:00000000 _ZNK10DataFilter21getArrayCoefficientsBEv
C:\Users\Luis\AppData\Local\Temp\ccb1YA0P.s:642    .text._ZN10DataFilter21setArrayCoefficientsBEPf:00000000 $t
C:\Users\Luis\AppData\Local\Temp\ccb1YA0P.s:648    .text._ZN10DataFilter21setArrayCoefficientsBEPf:00000000 _ZN10DataFilter21setArrayCoefficientsBEPf
C:\Users\Luis\AppData\Local\Temp\ccb1YA0P.s:709    .text._ZN10DataFilter26setArrayInitialConditionsXEPf:00000000 $t
C:\Users\Luis\AppData\Local\Temp\ccb1YA0P.s:715    .text._ZN10DataFilter26setArrayInitialConditionsXEPf:00000000 _ZN10DataFilter26setArrayInitialConditionsXEPf
C:\Users\Luis\AppData\Local\Temp\ccb1YA0P.s:775    .text._ZNK10DataFilter15getArrayInputsXEv:00000000 $t
C:\Users\Luis\AppData\Local\Temp\ccb1YA0P.s:781    .text._ZNK10DataFilter15getArrayInputsXEv:00000000 _ZNK10DataFilter15getArrayInputsXEv
C:\Users\Luis\AppData\Local\Temp\ccb1YA0P.s:810    .text._ZN10DataFilter15setArrayInputsXEPfi:00000000 $t
C:\Users\Luis\AppData\Local\Temp\ccb1YA0P.s:816    .text._ZN10DataFilter15setArrayInputsXEPfi:00000000 _ZN10DataFilter15setArrayInputsXEPfi
C:\Users\Luis\AppData\Local\Temp\ccb1YA0P.s:901    .text._ZNK10DataFilter14getFilterOrderEv:00000000 $t
C:\Users\Luis\AppData\Local\Temp\ccb1YA0P.s:907    .text._ZNK10DataFilter14getFilterOrderEv:00000000 _ZNK10DataFilter14getFilterOrderEv
C:\Users\Luis\AppData\Local\Temp\ccb1YA0P.s:936    .text._ZN10DataFilter14setFilterOrderEi:00000000 $t
C:\Users\Luis\AppData\Local\Temp\ccb1YA0P.s:972    .text._ZNK10DataFilter21getArrayCoefficientsAEv:00000000 $t
C:\Users\Luis\AppData\Local\Temp\ccb1YA0P.s:978    .text._ZNK10DataFilter21getArrayCoefficientsAEv:00000000 _ZNK10DataFilter21getArrayCoefficientsAEv
C:\Users\Luis\AppData\Local\Temp\ccb1YA0P.s:1007   .text._ZN10DataFilter21setArrayCoefficientsAEPf:00000000 $t
C:\Users\Luis\AppData\Local\Temp\ccb1YA0P.s:1013   .text._ZN10DataFilter21setArrayCoefficientsAEPf:00000000 _ZN10DataFilter21setArrayCoefficientsAEPf
C:\Users\Luis\AppData\Local\Temp\ccb1YA0P.s:1043   .text._ZNK10DataFilter26getArrayInitialConditionsYEv:00000000 $t
C:\Users\Luis\AppData\Local\Temp\ccb1YA0P.s:1049   .text._ZNK10DataFilter26getArrayInitialConditionsYEv:00000000 _ZNK10DataFilter26getArrayInitialConditionsYEv
C:\Users\Luis\AppData\Local\Temp\ccb1YA0P.s:1078   .text._ZN10DataFilter26setArrayInitialConditionsYEPf:00000000 $t
C:\Users\Luis\AppData\Local\Temp\ccb1YA0P.s:1084   .text._ZN10DataFilter26setArrayInitialConditionsYEPf:00000000 _ZN10DataFilter26setArrayInitialConditionsYEPf
C:\Users\Luis\AppData\Local\Temp\ccb1YA0P.s:1144   .text._ZNK10DataFilter15getArrayInputsYEv:00000000 $t
C:\Users\Luis\AppData\Local\Temp\ccb1YA0P.s:1150   .text._ZNK10DataFilter15getArrayInputsYEv:00000000 _ZNK10DataFilter15getArrayInputsYEv
C:\Users\Luis\AppData\Local\Temp\ccb1YA0P.s:1180   .rodata._ZTV10DataFilter:00000000 $d
                     .debug_frame:00000010 $d
C:\Users\Luis\AppData\Local\Temp\ccb1YA0P.s:182    .text._ZN10DataFilterD2Ev:00000064 $t

UNDEFINED SYMBOLS
chHeapAlloc
chHeapFree
_ZdlPv
ARM GAS  C:\Users\Luis\AppData\Local\Temp\ccb1YA0P.s 			page 88


