ARM GAS  C:\Users\Luis\AppData\Local\Temp\ccRWYsM4.s 			page 1


   1              		.syntax unified
   2              		.cpu cortex-m4
   3              		.fpu softvfp
   4              		.eabi_attribute 20, 1
   5              		.eabi_attribute 21, 1
   6              		.eabi_attribute 23, 3
   7              		.eabi_attribute 24, 1
   8              		.eabi_attribute 25, 1
   9              		.eabi_attribute 26, 1
  10              		.eabi_attribute 30, 6
  11              		.eabi_attribute 34, 1
  12              		.eabi_attribute 18, 4
  13              		.thumb
  14              		.file	"DataFilter.cpp"
  15              		.text
  16              	.Ltext0:
  17              		.cfi_sections	.debug_frame
  18              		.section	.text._ZN10DataFilter13newDataFilterEiPfS0_,"ax",%progbits
  19              		.align	2
  20              		.p2align 4,,15
  21              		.global	_ZN10DataFilter13newDataFilterEiPfS0_
  22              		.thumb
  23              		.thumb_func
  24              		.type	_ZN10DataFilter13newDataFilterEiPfS0_, %function
  25              	_ZN10DataFilter13newDataFilterEiPfS0_:
  26              	.LFB260:
  27              		.file 1 "DataFilter.cpp"
  28              		.loc 1 4 0
  29              		.cfi_startproc
  30              		@ args = 0, pretend = 0, frame = 16
  31              		@ frame_needed = 1, uses_anonymous_args = 0
  32 0000 80B5     		push	{r7, lr}
  33              		.cfi_def_cfa_offset 8
  34              		.cfi_offset 7, -8
  35              		.cfi_offset 14, -4
  36 0002 84B0     		sub	sp, sp, #16
  37              		.cfi_def_cfa_offset 24
  38 0004 00AF     		add	r7, sp, #0
  39              		.cfi_def_cfa_register 7
  40 0006 F860     		str	r0, [r7, #12]
  41 0008 B960     		str	r1, [r7, #8]
  42 000a 7A60     		str	r2, [r7, #4]
  43 000c 3B60     		str	r3, [r7]
  44              		.loc 1 8 0
  45 000e BB68     		ldr	r3, [r7, #8]
  46 0010 0133     		adds	r3, r3, #1
  47 0012 9B00     		lsls	r3, r3, #2
  48 0014 0020     		movs	r0, #0
  49 0016 1946     		mov	r1, r3
  50 0018 FFF7FEFF 		bl	chHeapAlloc
  51 001c 0246     		mov	r2, r0
  52 001e FB68     		ldr	r3, [r7, #12]
  53 0020 9A60     		str	r2, [r3, #8]
  54              		.loc 1 10 0
  55 0022 FB68     		ldr	r3, [r7, #12]
  56 0024 5B68     		ldr	r3, [r3, #4]
  57 0026 0A33     		adds	r3, r3, #10
ARM GAS  C:\Users\Luis\AppData\Local\Temp\ccRWYsM4.s 			page 2


  58 0028 9B00     		lsls	r3, r3, #2
  59 002a 0020     		movs	r0, #0
  60 002c 1946     		mov	r1, r3
  61 002e FFF7FEFF 		bl	chHeapAlloc
  62 0032 0246     		mov	r2, r0
  63 0034 FB68     		ldr	r3, [r7, #12]
  64 0036 DA60     		str	r2, [r3, #12]
  65              		.loc 1 12 0
  66 0038 F868     		ldr	r0, [r7, #12]
  67 003a B968     		ldr	r1, [r7, #8]
  68 003c FFF7FEFF 		bl	_ZN10DataFilter14setFilterOrderEi
  69              		.loc 1 13 0
  70 0040 F868     		ldr	r0, [r7, #12]
  71 0042 7968     		ldr	r1, [r7, #4]
  72 0044 FFF7FEFF 		bl	_ZN10DataFilter26setArrayInitialConditionsXEPf
  73              		.loc 1 14 0
  74 0048 F868     		ldr	r0, [r7, #12]
  75 004a 3968     		ldr	r1, [r7]
  76 004c FFF7FEFF 		bl	_ZN10DataFilter21setArrayCoefficientsBEPf
  77              		.loc 1 16 0
  78 0050 1037     		adds	r7, r7, #16
  79 0052 BD46     		mov	sp, r7
  80              		@ sp needed
  81 0054 80BD     		pop	{r7, pc}
  82              		.cfi_endproc
  83              	.LFE260:
  84              		.size	_ZN10DataFilter13newDataFilterEiPfS0_, .-_ZN10DataFilter13newDataFilterEiPfS0_
  85 0056 00BFAFF3 		.section	.text._ZN10DataFilter13newDataFilterEiPfS0_S0_S0_,"ax",%progbits
  85      0080AFF3 
  85      0080
  86              		.align	2
  87              		.p2align 4,,15
  88              		.global	_ZN10DataFilter13newDataFilterEiPfS0_S0_S0_
  89              		.thumb
  90              		.thumb_func
  91              		.type	_ZN10DataFilter13newDataFilterEiPfS0_S0_S0_, %function
  92              	_ZN10DataFilter13newDataFilterEiPfS0_S0_S0_:
  93              	.LFB261:
  94              		.loc 1 20 0
  95              		.cfi_startproc
  96              		@ args = 8, pretend = 0, frame = 16
  97              		@ frame_needed = 1, uses_anonymous_args = 0
  98 0000 80B5     		push	{r7, lr}
  99              		.cfi_def_cfa_offset 8
 100              		.cfi_offset 7, -8
 101              		.cfi_offset 14, -4
 102 0002 84B0     		sub	sp, sp, #16
 103              		.cfi_def_cfa_offset 24
 104 0004 00AF     		add	r7, sp, #0
 105              		.cfi_def_cfa_register 7
 106 0006 F860     		str	r0, [r7, #12]
 107 0008 B960     		str	r1, [r7, #8]
 108 000a 7A60     		str	r2, [r7, #4]
 109 000c 3B60     		str	r3, [r7]
 110              		.loc 1 24 0
 111 000e BB68     		ldr	r3, [r7, #8]
 112 0010 0133     		adds	r3, r3, #1
ARM GAS  C:\Users\Luis\AppData\Local\Temp\ccRWYsM4.s 			page 3


 113 0012 9B00     		lsls	r3, r3, #2
 114 0014 0020     		movs	r0, #0
 115 0016 1946     		mov	r1, r3
 116 0018 FFF7FEFF 		bl	chHeapAlloc
 117 001c 0246     		mov	r2, r0
 118 001e FB68     		ldr	r3, [r7, #12]
 119 0020 9A60     		str	r2, [r3, #8]
 120              		.loc 1 26 0
 121 0022 FB68     		ldr	r3, [r7, #12]
 122 0024 5B68     		ldr	r3, [r3, #4]
 123 0026 0A33     		adds	r3, r3, #10
 124 0028 9B00     		lsls	r3, r3, #2
 125 002a 0020     		movs	r0, #0
 126 002c 1946     		mov	r1, r3
 127 002e FFF7FEFF 		bl	chHeapAlloc
 128 0032 0246     		mov	r2, r0
 129 0034 FB68     		ldr	r3, [r7, #12]
 130 0036 DA60     		str	r2, [r3, #12]
 131              		.loc 1 28 0
 132 0038 BB68     		ldr	r3, [r7, #8]
 133 003a 9B00     		lsls	r3, r3, #2
 134 003c 0020     		movs	r0, #0
 135 003e 1946     		mov	r1, r3
 136 0040 FFF7FEFF 		bl	chHeapAlloc
 137 0044 0246     		mov	r2, r0
 138 0046 FB68     		ldr	r3, [r7, #12]
 139 0048 1A61     		str	r2, [r3, #16]
 140              		.loc 1 30 0
 141 004a FB68     		ldr	r3, [r7, #12]
 142 004c 5B68     		ldr	r3, [r3, #4]
 143 004e 0A33     		adds	r3, r3, #10
 144 0050 9B00     		lsls	r3, r3, #2
 145 0052 0020     		movs	r0, #0
 146 0054 1946     		mov	r1, r3
 147 0056 FFF7FEFF 		bl	chHeapAlloc
 148 005a 0246     		mov	r2, r0
 149 005c FB68     		ldr	r3, [r7, #12]
 150 005e 5A61     		str	r2, [r3, #20]
 151              		.loc 1 33 0
 152 0060 F868     		ldr	r0, [r7, #12]
 153 0062 B968     		ldr	r1, [r7, #8]
 154 0064 FFF7FEFF 		bl	_ZN10DataFilter14setFilterOrderEi
 155              		.loc 1 34 0
 156 0068 F868     		ldr	r0, [r7, #12]
 157 006a 7968     		ldr	r1, [r7, #4]
 158 006c FFF7FEFF 		bl	_ZN10DataFilter26setArrayInitialConditionsXEPf
 159              		.loc 1 35 0
 160 0070 F868     		ldr	r0, [r7, #12]
 161 0072 3968     		ldr	r1, [r7]
 162 0074 FFF7FEFF 		bl	_ZN10DataFilter21setArrayCoefficientsBEPf
 163              		.loc 1 36 0
 164 0078 F868     		ldr	r0, [r7, #12]
 165 007a B969     		ldr	r1, [r7, #24]
 166 007c FFF7FEFF 		bl	_ZN10DataFilter26setArrayInitialConditionsYEPf
 167              		.loc 1 37 0
 168 0080 F868     		ldr	r0, [r7, #12]
 169 0082 F969     		ldr	r1, [r7, #28]
ARM GAS  C:\Users\Luis\AppData\Local\Temp\ccRWYsM4.s 			page 4


 170 0084 FFF7FEFF 		bl	_ZN10DataFilter21setArrayCoefficientsAEPf
 171              		.loc 1 38 0
 172 0088 1037     		adds	r7, r7, #16
 173 008a BD46     		mov	sp, r7
 174              		@ sp needed
 175 008c 80BD     		pop	{r7, pc}
 176              		.cfi_endproc
 177              	.LFE261:
 178              		.size	_ZN10DataFilter13newDataFilterEiPfS0_S0_S0_, .-_ZN10DataFilter13newDataFilterEiPfS0_S0_S0_
 179 008e 00BF     		.section	.text._ZN10DataFilter13newDataFilterEiPfS0_S0_,"ax",%progbits
 180              		.align	2
 181              		.p2align 4,,15
 182              		.global	_ZN10DataFilter13newDataFilterEiPfS0_S0_
 183              		.thumb
 184              		.thumb_func
 185              		.type	_ZN10DataFilter13newDataFilterEiPfS0_S0_, %function
 186              	_ZN10DataFilter13newDataFilterEiPfS0_S0_:
 187              	.LFB262:
 188              		.loc 1 41 0
 189              		.cfi_startproc
 190              		@ args = 4, pretend = 0, frame = 16
 191              		@ frame_needed = 1, uses_anonymous_args = 0
 192 0000 80B5     		push	{r7, lr}
 193              		.cfi_def_cfa_offset 8
 194              		.cfi_offset 7, -8
 195              		.cfi_offset 14, -4
 196 0002 84B0     		sub	sp, sp, #16
 197              		.cfi_def_cfa_offset 24
 198 0004 00AF     		add	r7, sp, #0
 199              		.cfi_def_cfa_register 7
 200 0006 F860     		str	r0, [r7, #12]
 201 0008 B960     		str	r1, [r7, #8]
 202 000a 7A60     		str	r2, [r7, #4]
 203 000c 3B60     		str	r3, [r7]
 204              		.loc 1 45 0
 205 000e BB68     		ldr	r3, [r7, #8]
 206 0010 0133     		adds	r3, r3, #1
 207 0012 9B00     		lsls	r3, r3, #2
 208 0014 0020     		movs	r0, #0
 209 0016 1946     		mov	r1, r3
 210 0018 FFF7FEFF 		bl	chHeapAlloc
 211 001c 0246     		mov	r2, r0
 212 001e FB68     		ldr	r3, [r7, #12]
 213 0020 9A60     		str	r2, [r3, #8]
 214              		.loc 1 47 0
 215 0022 FB68     		ldr	r3, [r7, #12]
 216 0024 5B68     		ldr	r3, [r3, #4]
 217 0026 0A33     		adds	r3, r3, #10
 218 0028 9B00     		lsls	r3, r3, #2
 219 002a 0020     		movs	r0, #0
 220 002c 1946     		mov	r1, r3
 221 002e FFF7FEFF 		bl	chHeapAlloc
 222 0032 0246     		mov	r2, r0
 223 0034 FB68     		ldr	r3, [r7, #12]
 224 0036 DA60     		str	r2, [r3, #12]
 225              		.loc 1 49 0
 226 0038 BB68     		ldr	r3, [r7, #8]
ARM GAS  C:\Users\Luis\AppData\Local\Temp\ccRWYsM4.s 			page 5


 227 003a 9B00     		lsls	r3, r3, #2
 228 003c 0020     		movs	r0, #0
 229 003e 1946     		mov	r1, r3
 230 0040 FFF7FEFF 		bl	chHeapAlloc
 231 0044 0246     		mov	r2, r0
 232 0046 FB68     		ldr	r3, [r7, #12]
 233 0048 1A61     		str	r2, [r3, #16]
 234              		.loc 1 51 0
 235 004a FB68     		ldr	r3, [r7, #12]
 236 004c 5B68     		ldr	r3, [r3, #4]
 237 004e 0A33     		adds	r3, r3, #10
 238 0050 9B00     		lsls	r3, r3, #2
 239 0052 0020     		movs	r0, #0
 240 0054 1946     		mov	r1, r3
 241 0056 FFF7FEFF 		bl	chHeapAlloc
 242 005a 0246     		mov	r2, r0
 243 005c FB68     		ldr	r3, [r7, #12]
 244 005e 5A61     		str	r2, [r3, #20]
 245              		.loc 1 53 0
 246 0060 F868     		ldr	r0, [r7, #12]
 247 0062 B968     		ldr	r1, [r7, #8]
 248 0064 FFF7FEFF 		bl	_ZN10DataFilter14setFilterOrderEi
 249              		.loc 1 54 0
 250 0068 F868     		ldr	r0, [r7, #12]
 251 006a 7968     		ldr	r1, [r7, #4]
 252 006c FFF7FEFF 		bl	_ZN10DataFilter26setArrayInitialConditionsXEPf
 253              		.loc 1 55 0
 254 0070 F868     		ldr	r0, [r7, #12]
 255 0072 3968     		ldr	r1, [r7]
 256 0074 FFF7FEFF 		bl	_ZN10DataFilter21setArrayCoefficientsBEPf
 257              		.loc 1 56 0
 258 0078 F868     		ldr	r0, [r7, #12]
 259 007a B969     		ldr	r1, [r7, #24]
 260 007c FFF7FEFF 		bl	_ZN10DataFilter21setArrayCoefficientsAEPf
 261              		.loc 1 58 0
 262 0080 F868     		ldr	r0, [r7, #12]
 263 0082 FFF7FEFF 		bl	_ZN10DataFilter14createArrayAuxEv
 264              		.loc 1 59 0
 265 0086 1037     		adds	r7, r7, #16
 266 0088 BD46     		mov	sp, r7
 267              		@ sp needed
 268 008a 80BD     		pop	{r7, pc}
 269              		.cfi_endproc
 270              	.LFE262:
 271              		.size	_ZN10DataFilter13newDataFilterEiPfS0_S0_, .-_ZN10DataFilter13newDataFilterEiPfS0_S0_
 272 008c AFF30080 		.section	.text._ZN10DataFilterD2Ev,"ax",%progbits
 273              		.align	2
 274              		.p2align 4,,15
 275              		.global	_ZN10DataFilterD2Ev
 276              		.thumb
 277              		.thumb_func
 278              		.type	_ZN10DataFilterD2Ev, %function
 279              	_ZN10DataFilterD2Ev:
 280              	.LFB264:
 281              		.loc 1 61 0
 282              		.cfi_startproc
 283              		@ args = 0, pretend = 0, frame = 8
ARM GAS  C:\Users\Luis\AppData\Local\Temp\ccRWYsM4.s 			page 6


 284              		@ frame_needed = 1, uses_anonymous_args = 0
 285 0000 80B5     		push	{r7, lr}
 286              		.cfi_def_cfa_offset 8
 287              		.cfi_offset 7, -8
 288              		.cfi_offset 14, -4
 289 0002 82B0     		sub	sp, sp, #8
 290              		.cfi_def_cfa_offset 16
 291 0004 00AF     		add	r7, sp, #0
 292              		.cfi_def_cfa_register 7
 293 0006 7860     		str	r0, [r7, #4]
 294              	.LBB2:
 295              		.loc 1 61 0
 296 0008 7B68     		ldr	r3, [r7, #4]
 297 000a 104A     		ldr	r2, .L8
 298 000c 1A60     		str	r2, [r3]
 299              		.loc 1 63 0
 300 000e 7B68     		ldr	r3, [r7, #4]
 301 0010 9B68     		ldr	r3, [r3, #8]
 302 0012 1846     		mov	r0, r3
 303 0014 FFF7FEFF 		bl	chHeapFree
 304              		.loc 1 64 0
 305 0018 7B68     		ldr	r3, [r7, #4]
 306 001a 1B69     		ldr	r3, [r3, #16]
 307 001c 1846     		mov	r0, r3
 308 001e FFF7FEFF 		bl	chHeapFree
 309              		.loc 1 65 0
 310 0022 7B68     		ldr	r3, [r7, #4]
 311 0024 5B69     		ldr	r3, [r3, #20]
 312 0026 1846     		mov	r0, r3
 313 0028 FFF7FEFF 		bl	chHeapFree
 314              		.loc 1 66 0
 315 002c 7B68     		ldr	r3, [r7, #4]
 316 002e DB68     		ldr	r3, [r3, #12]
 317 0030 1846     		mov	r0, r3
 318 0032 FFF7FEFF 		bl	chHeapFree
 319              	.LBE2:
 320              		.loc 1 67 0
 321 0036 0023     		movs	r3, #0
 322 0038 002B     		cmp	r3, #0
 323 003a 02D0     		beq	.L6
 324              		.loc 1 67 0 is_stmt 0 discriminator 1
 325 003c 7868     		ldr	r0, [r7, #4]
 326 003e FFF7FEFF 		bl	_ZdlPv
 327              	.L6:
 328              		.loc 1 67 0 discriminator 2
 329 0042 7B68     		ldr	r3, [r7, #4]
 330 0044 1846     		mov	r0, r3
 331 0046 0837     		adds	r7, r7, #8
 332 0048 BD46     		mov	sp, r7
 333              		@ sp needed
 334 004a 80BD     		pop	{r7, pc}
 335              	.L9:
 336              		.align	2
 337              	.L8:
 338 004c 08000000 		.word	_ZTV10DataFilter+8
 339              		.cfi_endproc
 340              	.LFE264:
ARM GAS  C:\Users\Luis\AppData\Local\Temp\ccRWYsM4.s 			page 7


 341              		.size	_ZN10DataFilterD2Ev, .-_ZN10DataFilterD2Ev
 342              		.global	_ZN10DataFilterD1Ev
 343              		.thumb_set _ZN10DataFilterD1Ev,_ZN10DataFilterD2Ev
 344              		.section	.text._ZN10DataFilterD0Ev,"ax",%progbits
 345              		.align	2
 346              		.p2align 4,,15
 347              		.global	_ZN10DataFilterD0Ev
 348              		.thumb
 349              		.thumb_func
 350              		.type	_ZN10DataFilterD0Ev, %function
 351              	_ZN10DataFilterD0Ev:
 352              	.LFB266:
 353              		.loc 1 61 0 is_stmt 1
 354              		.cfi_startproc
 355              		@ args = 0, pretend = 0, frame = 8
 356              		@ frame_needed = 1, uses_anonymous_args = 0
 357 0000 80B5     		push	{r7, lr}
 358              		.cfi_def_cfa_offset 8
 359              		.cfi_offset 7, -8
 360              		.cfi_offset 14, -4
 361 0002 82B0     		sub	sp, sp, #8
 362              		.cfi_def_cfa_offset 16
 363 0004 00AF     		add	r7, sp, #0
 364              		.cfi_def_cfa_register 7
 365 0006 7860     		str	r0, [r7, #4]
 366              		.loc 1 67 0
 367 0008 7868     		ldr	r0, [r7, #4]
 368 000a FFF7FEFF 		bl	_ZN10DataFilterD1Ev
 369 000e 7868     		ldr	r0, [r7, #4]
 370 0010 FFF7FEFF 		bl	_ZdlPv
 371 0014 7B68     		ldr	r3, [r7, #4]
 372 0016 1846     		mov	r0, r3
 373 0018 0837     		adds	r7, r7, #8
 374 001a BD46     		mov	sp, r7
 375              		@ sp needed
 376 001c 80BD     		pop	{r7, pc}
 377              		.cfi_endproc
 378              	.LFE266:
 379              		.size	_ZN10DataFilterD0Ev, .-_ZN10DataFilterD0Ev
 380              		.global	__aeabi_fsub
 381 001e 00BF     		.section	.text._ZN10DataFilter14createArrayAuxEv,"ax",%progbits
 382              		.align	2
 383              		.p2align 4,,15
 384              		.global	_ZN10DataFilter14createArrayAuxEv
 385              		.thumb
 386              		.thumb_func
 387              		.type	_ZN10DataFilter14createArrayAuxEv, %function
 388              	_ZN10DataFilter14createArrayAuxEv:
 389              	.LFB267:
 390              		.loc 1 69 0
 391              		.cfi_startproc
 392              		@ args = 0, pretend = 0, frame = 24
 393              		@ frame_needed = 1, uses_anonymous_args = 0
 394 0000 80B5     		push	{r7, lr}
 395              		.cfi_def_cfa_offset 8
 396              		.cfi_offset 7, -8
 397              		.cfi_offset 14, -4
ARM GAS  C:\Users\Luis\AppData\Local\Temp\ccRWYsM4.s 			page 8


 398 0002 88B0     		sub	sp, sp, #32
 399              		.cfi_def_cfa_offset 40
 400 0004 02AF     		add	r7, sp, #8
 401              		.cfi_def_cfa 7, 32
 402 0006 7860     		str	r0, [r7, #4]
 403              	.LBB3:
 404              		.loc 1 71 0
 405 0008 0020     		movs	r0, #0
 406 000a 0421     		movs	r1, #4
 407 000c FFF7FEFF 		bl	chHeapAlloc
 408 0010 0246     		mov	r2, r0
 409 0012 7B68     		ldr	r3, [r7, #4]
 410 0014 1A62     		str	r2, [r3, #32]
 411              		.loc 1 77 0
 412 0016 7B68     		ldr	r3, [r7, #4]
 413 0018 5B69     		ldr	r3, [r3, #20]
 414 001a 7A68     		ldr	r2, [r7, #4]
 415 001c D268     		ldr	r2, [r2, #12]
 416 001e 1268     		ldr	r2, [r2]	@ float
 417 0020 1A60     		str	r2, [r3]	@ float
 418              		.loc 1 79 0
 419 0022 7B68     		ldr	r3, [r7, #4]
 420 0024 0022     		movs	r2, #0
 421 0026 DA61     		str	r2, [r3, #28]
 422 0028 2DE0     		b	.L14
 423              	.L15:
 424              		.loc 1 81 0 discriminator 2
 425 002a 7B68     		ldr	r3, [r7, #4]
 426 002c 196A     		ldr	r1, [r3, #32]
 427 002e 7B68     		ldr	r3, [r7, #4]
 428 0030 DA69     		ldr	r2, [r3, #28]
 429 0032 7B68     		ldr	r3, [r7, #4]
 430 0034 1B69     		ldr	r3, [r3, #16]
 431 0036 7868     		ldr	r0, [r7, #4]
 432 0038 4069     		ldr	r0, [r0, #20]
 433 003a 0090     		str	r0, [sp]
 434 003c 0020     		movs	r0, #0
 435 003e 0190     		str	r0, [sp, #4]
 436 0040 0846     		mov	r0, r1
 437 0042 1146     		mov	r1, r2
 438 0044 0022     		movs	r2, #0
 439 0046 FFF7FEFF 		bl	_ZN12FuntionsMath3sumEiiPfS0_i
 440 004a 7861     		str	r0, [r7, #20]	@ float
 441              		.loc 1 82 0 discriminator 2
 442 004c 7B68     		ldr	r3, [r7, #4]
 443 004e DA68     		ldr	r2, [r3, #12]
 444 0050 7B68     		ldr	r3, [r7, #4]
 445 0052 DB69     		ldr	r3, [r3, #28]
 446 0054 0133     		adds	r3, r3, #1
 447 0056 9B00     		lsls	r3, r3, #2
 448 0058 1344     		add	r3, r3, r2
 449 005a 1B68     		ldr	r3, [r3]	@ float
 450 005c 3B61     		str	r3, [r7, #16]	@ float
 451              		.loc 1 83 0 discriminator 2
 452 005e 3869     		ldr	r0, [r7, #16]	@ float
 453 0060 7969     		ldr	r1, [r7, #20]	@ float
 454 0062 FFF7FEFF 		bl	__aeabi_fsub
ARM GAS  C:\Users\Luis\AppData\Local\Temp\ccRWYsM4.s 			page 9


 455 0066 0346     		mov	r3, r0
 456 0068 FB60     		str	r3, [r7, #12]	@ float
 457              		.loc 1 84 0 discriminator 2
 458 006a 7B68     		ldr	r3, [r7, #4]
 459 006c 5A69     		ldr	r2, [r3, #20]
 460 006e 7B68     		ldr	r3, [r7, #4]
 461 0070 DB69     		ldr	r3, [r3, #28]
 462 0072 0133     		adds	r3, r3, #1
 463 0074 9B00     		lsls	r3, r3, #2
 464 0076 1344     		add	r3, r3, r2
 465 0078 FA68     		ldr	r2, [r7, #12]	@ float
 466 007a 1A60     		str	r2, [r3]	@ float
 467              		.loc 1 79 0 discriminator 2
 468 007c 7B68     		ldr	r3, [r7, #4]
 469 007e DB69     		ldr	r3, [r3, #28]
 470 0080 5A1C     		adds	r2, r3, #1
 471 0082 7B68     		ldr	r3, [r7, #4]
 472 0084 DA61     		str	r2, [r3, #28]
 473              	.L14:
 474              		.loc 1 79 0 is_stmt 0 discriminator 1
 475 0086 7B68     		ldr	r3, [r7, #4]
 476 0088 DA69     		ldr	r2, [r3, #28]
 477 008a 7B68     		ldr	r3, [r7, #4]
 478 008c 5B68     		ldr	r3, [r3, #4]
 479 008e 013B     		subs	r3, r3, #1
 480 0090 9A42     		cmp	r2, r3
 481 0092 CADB     		blt	.L15
 482              	.LBE3:
 483              		.loc 1 86 0 is_stmt 1
 484 0094 1837     		adds	r7, r7, #24
 485 0096 BD46     		mov	sp, r7
 486              		@ sp needed
 487 0098 80BD     		pop	{r7, pc}
 488              		.cfi_endproc
 489              	.LFE267:
 490              		.size	_ZN10DataFilter14createArrayAuxEv, .-_ZN10DataFilter14createArrayAuxEv
 491 009a 00BFAFF3 		.section	.text._ZN10DataFilter9moveArrayEPf,"ax",%progbits
 491      0080
 492              		.align	2
 493              		.p2align 4,,15
 494              		.global	_ZN10DataFilter9moveArrayEPf
 495              		.thumb
 496              		.thumb_func
 497              		.type	_ZN10DataFilter9moveArrayEPf, %function
 498              	_ZN10DataFilter9moveArrayEPf:
 499              	.LFB268:
 500              		.loc 1 88 0
 501              		.cfi_startproc
 502              		@ args = 0, pretend = 0, frame = 8
 503              		@ frame_needed = 1, uses_anonymous_args = 0
 504              		@ link register save eliminated.
 505 0000 80B4     		push	{r7}
 506              		.cfi_def_cfa_offset 4
 507              		.cfi_offset 7, -4
 508 0002 83B0     		sub	sp, sp, #12
 509              		.cfi_def_cfa_offset 16
 510 0004 00AF     		add	r7, sp, #0
ARM GAS  C:\Users\Luis\AppData\Local\Temp\ccRWYsM4.s 			page 10


 511              		.cfi_def_cfa_register 7
 512 0006 7860     		str	r0, [r7, #4]
 513 0008 3960     		str	r1, [r7]
 514              		.loc 1 89 0
 515 000a 7B68     		ldr	r3, [r7, #4]
 516 000c 0022     		movs	r2, #0
 517 000e DA61     		str	r2, [r3, #28]
 518 0010 11E0     		b	.L17
 519              	.L18:
 520              		.loc 1 90 0 discriminator 2
 521 0012 7B68     		ldr	r3, [r7, #4]
 522 0014 DB69     		ldr	r3, [r3, #28]
 523 0016 9B00     		lsls	r3, r3, #2
 524 0018 3A68     		ldr	r2, [r7]
 525 001a 1344     		add	r3, r3, r2
 526 001c 7A68     		ldr	r2, [r7, #4]
 527 001e D269     		ldr	r2, [r2, #28]
 528 0020 0A32     		adds	r2, r2, #10
 529 0022 9200     		lsls	r2, r2, #2
 530 0024 3968     		ldr	r1, [r7]
 531 0026 0A44     		add	r2, r2, r1
 532 0028 1268     		ldr	r2, [r2]	@ float
 533 002a 1A60     		str	r2, [r3]	@ float
 534              		.loc 1 89 0 discriminator 2
 535 002c 7B68     		ldr	r3, [r7, #4]
 536 002e DB69     		ldr	r3, [r3, #28]
 537 0030 5A1C     		adds	r2, r3, #1
 538 0032 7B68     		ldr	r3, [r7, #4]
 539 0034 DA61     		str	r2, [r3, #28]
 540              	.L17:
 541              		.loc 1 89 0 is_stmt 0 discriminator 1
 542 0036 7B68     		ldr	r3, [r7, #4]
 543 0038 DA69     		ldr	r2, [r3, #28]
 544 003a 7B68     		ldr	r3, [r7, #4]
 545 003c 5B68     		ldr	r3, [r3, #4]
 546 003e 9A42     		cmp	r2, r3
 547 0040 E7DB     		blt	.L18
 548              		.loc 1 92 0 is_stmt 1
 549 0042 0C37     		adds	r7, r7, #12
 550 0044 BD46     		mov	sp, r7
 551              		@ sp needed
 552 0046 5DF8047B 		ldr	r7, [sp], #4
 553 004a 7047     		bx	lr
 554              		.cfi_endproc
 555              	.LFE268:
 556              		.size	_ZN10DataFilter9moveArrayEPf, .-_ZN10DataFilter9moveArrayEPf
 557 004c AFF30080 		.section	.text._ZNK10DataFilter21getArrayCoefficientsBEv,"ax",%progbits
 558              		.align	2
 559              		.p2align 4,,15
 560              		.global	_ZNK10DataFilter21getArrayCoefficientsBEv
 561              		.thumb
 562              		.thumb_func
 563              		.type	_ZNK10DataFilter21getArrayCoefficientsBEv, %function
 564              	_ZNK10DataFilter21getArrayCoefficientsBEv:
 565              	.LFB269:
 566              		.loc 1 94 0
 567              		.cfi_startproc
ARM GAS  C:\Users\Luis\AppData\Local\Temp\ccRWYsM4.s 			page 11


 568              		@ args = 0, pretend = 0, frame = 8
 569              		@ frame_needed = 1, uses_anonymous_args = 0
 570              		@ link register save eliminated.
 571 0000 80B4     		push	{r7}
 572              		.cfi_def_cfa_offset 4
 573              		.cfi_offset 7, -4
 574 0002 83B0     		sub	sp, sp, #12
 575              		.cfi_def_cfa_offset 16
 576 0004 00AF     		add	r7, sp, #0
 577              		.cfi_def_cfa_register 7
 578 0006 7860     		str	r0, [r7, #4]
 579              		.loc 1 95 0
 580 0008 7B68     		ldr	r3, [r7, #4]
 581 000a 9B68     		ldr	r3, [r3, #8]
 582              		.loc 1 96 0
 583 000c 1846     		mov	r0, r3
 584 000e 0C37     		adds	r7, r7, #12
 585 0010 BD46     		mov	sp, r7
 586              		@ sp needed
 587 0012 5DF8047B 		ldr	r7, [sp], #4
 588 0016 7047     		bx	lr
 589              		.cfi_endproc
 590              	.LFE269:
 591              		.size	_ZNK10DataFilter21getArrayCoefficientsBEv, .-_ZNK10DataFilter21getArrayCoefficientsBEv
 592 0018 AFF30080 		.section	.text._ZN10DataFilter21setArrayCoefficientsBEPf,"ax",%progbits
 592      AFF30080 
 593              		.align	2
 594              		.p2align 4,,15
 595              		.global	_ZN10DataFilter21setArrayCoefficientsBEPf
 596              		.thumb
 597              		.thumb_func
 598              		.type	_ZN10DataFilter21setArrayCoefficientsBEPf, %function
 599              	_ZN10DataFilter21setArrayCoefficientsBEPf:
 600              	.LFB270:
 601              		.loc 1 98 0
 602              		.cfi_startproc
 603              		@ args = 0, pretend = 0, frame = 8
 604              		@ frame_needed = 1, uses_anonymous_args = 0
 605              		@ link register save eliminated.
 606 0000 80B4     		push	{r7}
 607              		.cfi_def_cfa_offset 4
 608              		.cfi_offset 7, -4
 609 0002 83B0     		sub	sp, sp, #12
 610              		.cfi_def_cfa_offset 16
 611 0004 00AF     		add	r7, sp, #0
 612              		.cfi_def_cfa_register 7
 613 0006 7860     		str	r0, [r7, #4]
 614 0008 3960     		str	r1, [r7]
 615              		.loc 1 99 0
 616 000a 7B68     		ldr	r3, [r7, #4]
 617 000c 0022     		movs	r2, #0
 618 000e DA61     		str	r2, [r3, #28]
 619 0010 11E0     		b	.L22
 620              	.L23:
 621              		.loc 1 100 0 discriminator 2
 622 0012 7B68     		ldr	r3, [r7, #4]
 623 0014 9A68     		ldr	r2, [r3, #8]
ARM GAS  C:\Users\Luis\AppData\Local\Temp\ccRWYsM4.s 			page 12


 624 0016 7B68     		ldr	r3, [r7, #4]
 625 0018 DB69     		ldr	r3, [r3, #28]
 626 001a 9B00     		lsls	r3, r3, #2
 627 001c 1344     		add	r3, r3, r2
 628 001e 7A68     		ldr	r2, [r7, #4]
 629 0020 D269     		ldr	r2, [r2, #28]
 630 0022 9200     		lsls	r2, r2, #2
 631 0024 3968     		ldr	r1, [r7]
 632 0026 0A44     		add	r2, r2, r1
 633 0028 1268     		ldr	r2, [r2]	@ float
 634 002a 1A60     		str	r2, [r3]	@ float
 635              		.loc 1 99 0 discriminator 2
 636 002c 7B68     		ldr	r3, [r7, #4]
 637 002e DB69     		ldr	r3, [r3, #28]
 638 0030 5A1C     		adds	r2, r3, #1
 639 0032 7B68     		ldr	r3, [r7, #4]
 640 0034 DA61     		str	r2, [r3, #28]
 641              	.L22:
 642              		.loc 1 99 0 is_stmt 0 discriminator 1
 643 0036 7B68     		ldr	r3, [r7, #4]
 644 0038 DA69     		ldr	r2, [r3, #28]
 645 003a 7B68     		ldr	r3, [r7, #4]
 646 003c 5B68     		ldr	r3, [r3, #4]
 647 003e 0133     		adds	r3, r3, #1
 648 0040 9A42     		cmp	r2, r3
 649 0042 E6DB     		blt	.L23
 650              		.loc 1 102 0 is_stmt 1
 651 0044 0C37     		adds	r7, r7, #12
 652 0046 BD46     		mov	sp, r7
 653              		@ sp needed
 654 0048 5DF8047B 		ldr	r7, [sp], #4
 655 004c 7047     		bx	lr
 656              		.cfi_endproc
 657              	.LFE270:
 658              		.size	_ZN10DataFilter21setArrayCoefficientsBEPf, .-_ZN10DataFilter21setArrayCoefficientsBEPf
 659 004e 00BF     		.section	.text._ZN10DataFilter26setArrayInitialConditionsXEPf,"ax",%progbits
 660              		.align	2
 661              		.p2align 4,,15
 662              		.global	_ZN10DataFilter26setArrayInitialConditionsXEPf
 663              		.thumb
 664              		.thumb_func
 665              		.type	_ZN10DataFilter26setArrayInitialConditionsXEPf, %function
 666              	_ZN10DataFilter26setArrayInitialConditionsXEPf:
 667              	.LFB271:
 668              		.loc 1 104 0
 669              		.cfi_startproc
 670              		@ args = 0, pretend = 0, frame = 8
 671              		@ frame_needed = 1, uses_anonymous_args = 0
 672              		@ link register save eliminated.
 673 0000 80B4     		push	{r7}
 674              		.cfi_def_cfa_offset 4
 675              		.cfi_offset 7, -4
 676 0002 83B0     		sub	sp, sp, #12
 677              		.cfi_def_cfa_offset 16
 678 0004 00AF     		add	r7, sp, #0
 679              		.cfi_def_cfa_register 7
 680 0006 7860     		str	r0, [r7, #4]
ARM GAS  C:\Users\Luis\AppData\Local\Temp\ccRWYsM4.s 			page 13


 681 0008 3960     		str	r1, [r7]
 682              		.loc 1 105 0
 683 000a 7B68     		ldr	r3, [r7, #4]
 684 000c 0022     		movs	r2, #0
 685 000e DA61     		str	r2, [r3, #28]
 686 0010 11E0     		b	.L25
 687              	.L26:
 688              		.loc 1 106 0 discriminator 2
 689 0012 7B68     		ldr	r3, [r7, #4]
 690 0014 DA68     		ldr	r2, [r3, #12]
 691 0016 7B68     		ldr	r3, [r7, #4]
 692 0018 DB69     		ldr	r3, [r3, #28]
 693 001a 9B00     		lsls	r3, r3, #2
 694 001c 1344     		add	r3, r3, r2
 695 001e 7A68     		ldr	r2, [r7, #4]
 696 0020 D269     		ldr	r2, [r2, #28]
 697 0022 9200     		lsls	r2, r2, #2
 698 0024 3968     		ldr	r1, [r7]
 699 0026 0A44     		add	r2, r2, r1
 700 0028 1268     		ldr	r2, [r2]	@ float
 701 002a 1A60     		str	r2, [r3]	@ float
 702              		.loc 1 105 0 discriminator 2
 703 002c 7B68     		ldr	r3, [r7, #4]
 704 002e DB69     		ldr	r3, [r3, #28]
 705 0030 5A1C     		adds	r2, r3, #1
 706 0032 7B68     		ldr	r3, [r7, #4]
 707 0034 DA61     		str	r2, [r3, #28]
 708              	.L25:
 709              		.loc 1 105 0 is_stmt 0 discriminator 1
 710 0036 7B68     		ldr	r3, [r7, #4]
 711 0038 DA69     		ldr	r2, [r3, #28]
 712 003a 7B68     		ldr	r3, [r7, #4]
 713 003c 5B68     		ldr	r3, [r3, #4]
 714 003e 9A42     		cmp	r2, r3
 715 0040 E7DB     		blt	.L26
 716              		.loc 1 108 0 is_stmt 1
 717 0042 0C37     		adds	r7, r7, #12
 718 0044 BD46     		mov	sp, r7
 719              		@ sp needed
 720 0046 5DF8047B 		ldr	r7, [sp], #4
 721 004a 7047     		bx	lr
 722              		.cfi_endproc
 723              	.LFE271:
 724              		.size	_ZN10DataFilter26setArrayInitialConditionsXEPf, .-_ZN10DataFilter26setArrayInitialConditions
 725 004c AFF30080 		.section	.text._ZNK10DataFilter15getArrayInputsXEv,"ax",%progbits
 726              		.align	2
 727              		.p2align 4,,15
 728              		.global	_ZNK10DataFilter15getArrayInputsXEv
 729              		.thumb
 730              		.thumb_func
 731              		.type	_ZNK10DataFilter15getArrayInputsXEv, %function
 732              	_ZNK10DataFilter15getArrayInputsXEv:
 733              	.LFB272:
 734              		.loc 1 110 0
 735              		.cfi_startproc
 736              		@ args = 0, pretend = 0, frame = 8
 737              		@ frame_needed = 1, uses_anonymous_args = 0
ARM GAS  C:\Users\Luis\AppData\Local\Temp\ccRWYsM4.s 			page 14


 738              		@ link register save eliminated.
 739 0000 80B4     		push	{r7}
 740              		.cfi_def_cfa_offset 4
 741              		.cfi_offset 7, -4
 742 0002 83B0     		sub	sp, sp, #12
 743              		.cfi_def_cfa_offset 16
 744 0004 00AF     		add	r7, sp, #0
 745              		.cfi_def_cfa_register 7
 746 0006 7860     		str	r0, [r7, #4]
 747              		.loc 1 111 0
 748 0008 7B68     		ldr	r3, [r7, #4]
 749 000a DB68     		ldr	r3, [r3, #12]
 750              		.loc 1 112 0
 751 000c 1846     		mov	r0, r3
 752 000e 0C37     		adds	r7, r7, #12
 753 0010 BD46     		mov	sp, r7
 754              		@ sp needed
 755 0012 5DF8047B 		ldr	r7, [sp], #4
 756 0016 7047     		bx	lr
 757              		.cfi_endproc
 758              	.LFE272:
 759              		.size	_ZNK10DataFilter15getArrayInputsXEv, .-_ZNK10DataFilter15getArrayInputsXEv
 760 0018 AFF30080 		.section	.text._ZNK10DataFilter14getFilterOrderEv,"ax",%progbits
 760      AFF30080 
 761              		.align	2
 762              		.p2align 4,,15
 763              		.global	_ZNK10DataFilter14getFilterOrderEv
 764              		.thumb
 765              		.thumb_func
 766              		.type	_ZNK10DataFilter14getFilterOrderEv, %function
 767              	_ZNK10DataFilter14getFilterOrderEv:
 768              	.LFB273:
 769              		.loc 1 114 0
 770              		.cfi_startproc
 771              		@ args = 0, pretend = 0, frame = 8
 772              		@ frame_needed = 1, uses_anonymous_args = 0
 773              		@ link register save eliminated.
 774 0000 80B4     		push	{r7}
 775              		.cfi_def_cfa_offset 4
 776              		.cfi_offset 7, -4
 777 0002 83B0     		sub	sp, sp, #12
 778              		.cfi_def_cfa_offset 16
 779 0004 00AF     		add	r7, sp, #0
 780              		.cfi_def_cfa_register 7
 781 0006 7860     		str	r0, [r7, #4]
 782              		.loc 1 115 0
 783 0008 7B68     		ldr	r3, [r7, #4]
 784 000a 5B68     		ldr	r3, [r3, #4]
 785              		.loc 1 116 0
 786 000c 1846     		mov	r0, r3
 787 000e 0C37     		adds	r7, r7, #12
 788 0010 BD46     		mov	sp, r7
 789              		@ sp needed
 790 0012 5DF8047B 		ldr	r7, [sp], #4
 791 0016 7047     		bx	lr
 792              		.cfi_endproc
 793              	.LFE273:
ARM GAS  C:\Users\Luis\AppData\Local\Temp\ccRWYsM4.s 			page 15


 794              		.size	_ZNK10DataFilter14getFilterOrderEv, .-_ZNK10DataFilter14getFilterOrderEv
 795 0018 AFF30080 		.section	.text._ZN10DataFilter14setFilterOrderEi,"ax",%progbits
 795      AFF30080 
 796              		.align	2
 797              		.p2align 4,,15
 798              		.global	_ZN10DataFilter14setFilterOrderEi
 799              		.thumb
 800              		.thumb_func
 801              		.type	_ZN10DataFilter14setFilterOrderEi, %function
 802              	_ZN10DataFilter14setFilterOrderEi:
 803              	.LFB274:
 804              		.loc 1 118 0
 805              		.cfi_startproc
 806              		@ args = 0, pretend = 0, frame = 8
 807              		@ frame_needed = 1, uses_anonymous_args = 0
 808              		@ link register save eliminated.
 809 0000 80B4     		push	{r7}
 810              		.cfi_def_cfa_offset 4
 811              		.cfi_offset 7, -4
 812 0002 83B0     		sub	sp, sp, #12
 813              		.cfi_def_cfa_offset 16
 814 0004 00AF     		add	r7, sp, #0
 815              		.cfi_def_cfa_register 7
 816 0006 7860     		str	r0, [r7, #4]
 817 0008 3960     		str	r1, [r7]
 818              		.loc 1 119 0
 819 000a 7B68     		ldr	r3, [r7, #4]
 820 000c 3A68     		ldr	r2, [r7]
 821 000e 5A60     		str	r2, [r3, #4]
 822              		.loc 1 120 0
 823 0010 0C37     		adds	r7, r7, #12
 824 0012 BD46     		mov	sp, r7
 825              		@ sp needed
 826 0014 5DF8047B 		ldr	r7, [sp], #4
 827 0018 7047     		bx	lr
 828              		.cfi_endproc
 829              	.LFE274:
 830              		.size	_ZN10DataFilter14setFilterOrderEi, .-_ZN10DataFilter14setFilterOrderEi
 831 001a 00BFAFF3 		.section	.text._ZNK10DataFilter21getArrayCoefficientsAEv,"ax",%progbits
 831      0080
 832              		.align	2
 833              		.p2align 4,,15
 834              		.global	_ZNK10DataFilter21getArrayCoefficientsAEv
 835              		.thumb
 836              		.thumb_func
 837              		.type	_ZNK10DataFilter21getArrayCoefficientsAEv, %function
 838              	_ZNK10DataFilter21getArrayCoefficientsAEv:
 839              	.LFB275:
 840              		.loc 1 122 0
 841              		.cfi_startproc
 842              		@ args = 0, pretend = 0, frame = 8
 843              		@ frame_needed = 1, uses_anonymous_args = 0
 844              		@ link register save eliminated.
 845 0000 80B4     		push	{r7}
 846              		.cfi_def_cfa_offset 4
 847              		.cfi_offset 7, -4
 848 0002 83B0     		sub	sp, sp, #12
ARM GAS  C:\Users\Luis\AppData\Local\Temp\ccRWYsM4.s 			page 16


 849              		.cfi_def_cfa_offset 16
 850 0004 00AF     		add	r7, sp, #0
 851              		.cfi_def_cfa_register 7
 852 0006 7860     		str	r0, [r7, #4]
 853              		.loc 1 123 0
 854 0008 7B68     		ldr	r3, [r7, #4]
 855 000a 1B69     		ldr	r3, [r3, #16]
 856              		.loc 1 124 0
 857 000c 1846     		mov	r0, r3
 858 000e 0C37     		adds	r7, r7, #12
 859 0010 BD46     		mov	sp, r7
 860              		@ sp needed
 861 0012 5DF8047B 		ldr	r7, [sp], #4
 862 0016 7047     		bx	lr
 863              		.cfi_endproc
 864              	.LFE275:
 865              		.size	_ZNK10DataFilter21getArrayCoefficientsAEv, .-_ZNK10DataFilter21getArrayCoefficientsAEv
 866 0018 AFF30080 		.section	.text._ZN10DataFilter21setArrayCoefficientsAEPf,"ax",%progbits
 866      AFF30080 
 867              		.align	2
 868              		.p2align 4,,15
 869              		.global	_ZN10DataFilter21setArrayCoefficientsAEPf
 870              		.thumb
 871              		.thumb_func
 872              		.type	_ZN10DataFilter21setArrayCoefficientsAEPf, %function
 873              	_ZN10DataFilter21setArrayCoefficientsAEPf:
 874              	.LFB276:
 875              		.loc 1 126 0
 876              		.cfi_startproc
 877              		@ args = 0, pretend = 0, frame = 8
 878              		@ frame_needed = 1, uses_anonymous_args = 0
 879              		@ link register save eliminated.
 880 0000 80B4     		push	{r7}
 881              		.cfi_def_cfa_offset 4
 882              		.cfi_offset 7, -4
 883 0002 83B0     		sub	sp, sp, #12
 884              		.cfi_def_cfa_offset 16
 885 0004 00AF     		add	r7, sp, #0
 886              		.cfi_def_cfa_register 7
 887 0006 7860     		str	r0, [r7, #4]
 888 0008 3960     		str	r1, [r7]
 889              		.loc 1 127 0
 890 000a 7B68     		ldr	r3, [r7, #4]
 891 000c 0022     		movs	r2, #0
 892 000e DA61     		str	r2, [r3, #28]
 893 0010 12E0     		b	.L35
 894              	.L36:
 895              		.loc 1 128 0 discriminator 2
 896 0012 7B68     		ldr	r3, [r7, #4]
 897 0014 1A69     		ldr	r2, [r3, #16]
 898 0016 7B68     		ldr	r3, [r7, #4]
 899 0018 DB69     		ldr	r3, [r3, #28]
 900 001a 9B00     		lsls	r3, r3, #2
 901 001c 1344     		add	r3, r3, r2
 902 001e 7A68     		ldr	r2, [r7, #4]
 903 0020 D269     		ldr	r2, [r2, #28]
 904 0022 0132     		adds	r2, r2, #1
ARM GAS  C:\Users\Luis\AppData\Local\Temp\ccRWYsM4.s 			page 17


 905 0024 9200     		lsls	r2, r2, #2
 906 0026 3968     		ldr	r1, [r7]
 907 0028 0A44     		add	r2, r2, r1
 908 002a 1268     		ldr	r2, [r2]	@ float
 909 002c 1A60     		str	r2, [r3]	@ float
 910              		.loc 1 127 0 discriminator 2
 911 002e 7B68     		ldr	r3, [r7, #4]
 912 0030 DB69     		ldr	r3, [r3, #28]
 913 0032 5A1C     		adds	r2, r3, #1
 914 0034 7B68     		ldr	r3, [r7, #4]
 915 0036 DA61     		str	r2, [r3, #28]
 916              	.L35:
 917              		.loc 1 127 0 is_stmt 0 discriminator 1
 918 0038 7B68     		ldr	r3, [r7, #4]
 919 003a DA69     		ldr	r2, [r3, #28]
 920 003c 7B68     		ldr	r3, [r7, #4]
 921 003e 5B68     		ldr	r3, [r3, #4]
 922 0040 9A42     		cmp	r2, r3
 923 0042 E6DB     		blt	.L36
 924              		.loc 1 130 0 is_stmt 1
 925 0044 0C37     		adds	r7, r7, #12
 926 0046 BD46     		mov	sp, r7
 927              		@ sp needed
 928 0048 5DF8047B 		ldr	r7, [sp], #4
 929 004c 7047     		bx	lr
 930              		.cfi_endproc
 931              	.LFE276:
 932              		.size	_ZN10DataFilter21setArrayCoefficientsAEPf, .-_ZN10DataFilter21setArrayCoefficientsAEPf
 933 004e 00BF     		.section	.text._ZN10DataFilter26setArrayInitialConditionsYEPf,"ax",%progbits
 934              		.align	2
 935              		.p2align 4,,15
 936              		.global	_ZN10DataFilter26setArrayInitialConditionsYEPf
 937              		.thumb
 938              		.thumb_func
 939              		.type	_ZN10DataFilter26setArrayInitialConditionsYEPf, %function
 940              	_ZN10DataFilter26setArrayInitialConditionsYEPf:
 941              	.LFB277:
 942              		.loc 1 132 0
 943              		.cfi_startproc
 944              		@ args = 0, pretend = 0, frame = 8
 945              		@ frame_needed = 1, uses_anonymous_args = 0
 946              		@ link register save eliminated.
 947 0000 80B4     		push	{r7}
 948              		.cfi_def_cfa_offset 4
 949              		.cfi_offset 7, -4
 950 0002 83B0     		sub	sp, sp, #12
 951              		.cfi_def_cfa_offset 16
 952 0004 00AF     		add	r7, sp, #0
 953              		.cfi_def_cfa_register 7
 954 0006 7860     		str	r0, [r7, #4]
 955 0008 3960     		str	r1, [r7]
 956              		.loc 1 133 0
 957 000a 7B68     		ldr	r3, [r7, #4]
 958 000c 0022     		movs	r2, #0
 959 000e DA61     		str	r2, [r3, #28]
 960 0010 11E0     		b	.L38
 961              	.L39:
ARM GAS  C:\Users\Luis\AppData\Local\Temp\ccRWYsM4.s 			page 18


 962              		.loc 1 134 0 discriminator 2
 963 0012 7B68     		ldr	r3, [r7, #4]
 964 0014 5A69     		ldr	r2, [r3, #20]
 965 0016 7B68     		ldr	r3, [r7, #4]
 966 0018 DB69     		ldr	r3, [r3, #28]
 967 001a 9B00     		lsls	r3, r3, #2
 968 001c 1344     		add	r3, r3, r2
 969 001e 7A68     		ldr	r2, [r7, #4]
 970 0020 D269     		ldr	r2, [r2, #28]
 971 0022 9200     		lsls	r2, r2, #2
 972 0024 3968     		ldr	r1, [r7]
 973 0026 0A44     		add	r2, r2, r1
 974 0028 1268     		ldr	r2, [r2]	@ float
 975 002a 1A60     		str	r2, [r3]	@ float
 976              		.loc 1 133 0 discriminator 2
 977 002c 7B68     		ldr	r3, [r7, #4]
 978 002e DB69     		ldr	r3, [r3, #28]
 979 0030 5A1C     		adds	r2, r3, #1
 980 0032 7B68     		ldr	r3, [r7, #4]
 981 0034 DA61     		str	r2, [r3, #28]
 982              	.L38:
 983              		.loc 1 133 0 is_stmt 0 discriminator 1
 984 0036 7B68     		ldr	r3, [r7, #4]
 985 0038 DA69     		ldr	r2, [r3, #28]
 986 003a 7B68     		ldr	r3, [r7, #4]
 987 003c 5B68     		ldr	r3, [r3, #4]
 988 003e 9A42     		cmp	r2, r3
 989 0040 E7DB     		blt	.L39
 990              		.loc 1 136 0 is_stmt 1
 991 0042 0C37     		adds	r7, r7, #12
 992 0044 BD46     		mov	sp, r7
 993              		@ sp needed
 994 0046 5DF8047B 		ldr	r7, [sp], #4
 995 004a 7047     		bx	lr
 996              		.cfi_endproc
 997              	.LFE277:
 998              		.size	_ZN10DataFilter26setArrayInitialConditionsYEPf, .-_ZN10DataFilter26setArrayInitialConditions
 999 004c AFF30080 		.section	.text._ZNK10DataFilter15getArrayInputsYEv,"ax",%progbits
 1000              		.align	2
 1001              		.p2align 4,,15
 1002              		.global	_ZNK10DataFilter15getArrayInputsYEv
 1003              		.thumb
 1004              		.thumb_func
 1005              		.type	_ZNK10DataFilter15getArrayInputsYEv, %function
 1006              	_ZNK10DataFilter15getArrayInputsYEv:
 1007              	.LFB278:
 1008              		.loc 1 138 0
 1009              		.cfi_startproc
 1010              		@ args = 0, pretend = 0, frame = 8
 1011              		@ frame_needed = 1, uses_anonymous_args = 0
 1012              		@ link register save eliminated.
 1013 0000 80B4     		push	{r7}
 1014              		.cfi_def_cfa_offset 4
 1015              		.cfi_offset 7, -4
 1016 0002 83B0     		sub	sp, sp, #12
 1017              		.cfi_def_cfa_offset 16
 1018 0004 00AF     		add	r7, sp, #0
ARM GAS  C:\Users\Luis\AppData\Local\Temp\ccRWYsM4.s 			page 19


 1019              		.cfi_def_cfa_register 7
 1020 0006 7860     		str	r0, [r7, #4]
 1021              		.loc 1 139 0
 1022 0008 7B68     		ldr	r3, [r7, #4]
 1023 000a 5B69     		ldr	r3, [r3, #20]
 1024              		.loc 1 140 0
 1025 000c 1846     		mov	r0, r3
 1026 000e 0C37     		adds	r7, r7, #12
 1027 0010 BD46     		mov	sp, r7
 1028              		@ sp needed
 1029 0012 5DF8047B 		ldr	r7, [sp], #4
 1030 0016 7047     		bx	lr
 1031              		.cfi_endproc
 1032              	.LFE278:
 1033              		.size	_ZNK10DataFilter15getArrayInputsYEv, .-_ZNK10DataFilter15getArrayInputsYEv
 1034              		.global	_ZTV10DataFilter
 1035 0018 AFF30080 		.section	.rodata._ZTV10DataFilter,"a",%progbits
 1035      AFF30080 
 1036              		.align	3
 1037              		.type	_ZTV10DataFilter, %object
 1038              		.size	_ZTV10DataFilter, 16
 1039              	_ZTV10DataFilter:
 1040 0000 00000000 		.word	0
 1041 0004 00000000 		.word	0
 1042 0008 00000000 		.word	_ZN10DataFilterD1Ev
 1043 000c 00000000 		.word	_ZN10DataFilterD0Ev
 1044              		.text
 1045              	.Letext0:
 1046              		.file 2 "c:\\emtechesdk\\gcc\\arm-none-eabi\\include\\stdint.h"
 1047              		.file 3 "../../ChibiOS/os/rt/ports/ARMCMx/compilers/GCC/chtypes.h"
 1048              		.file 4 "../../ChibiOS/os/rt/include/chsystypes.h"
 1049              		.file 5 "../../ChibiOS/os/rt/include/chschd.h"
 1050              		.file 6 "../../ChibiOS/os/rt/ports/ARMCMx/chcore.h"
 1051              		.file 7 "../../ChibiOS/os/rt/ports/ARMCMx/chcore_v7m.h"
 1052              		.file 8 "../../ChibiOS/os/rt/include/chdebug.h"
 1053              		.file 9 "../../ChibiOS/os/rt/include/chtm.h"
 1054              		.file 10 "../../ChibiOS/os/rt/include/chstats.h"
 1055              		.file 11 "../../ChibiOS/os/rt/include/chsem.h"
 1056              		.file 12 "../../ChibiOS/os/rt/include/chmtx.h"
 1057              		.file 13 "header/FuntionsMath.h"
 1058              		.file 14 "header/DataFilter.h"
 1059              		.file 15 "../../ChibiOS/os/ext/CMSIS/include/core_cm4.h"
 1060              		.section	.debug_info,"",%progbits
 1061              	.Ldebug_info0:
 1062 0000 C10E0000 		.4byte	0xec1
 1063 0004 0400     		.2byte	0x4
 1064 0006 00000000 		.4byte	.Ldebug_abbrev0
 1065 000a 04       		.byte	0x4
 1066 000b 01       		.uleb128 0x1
 1067 000c 62060000 		.4byte	.LASF187
 1068 0010 04       		.byte	0x4
 1069 0011 72070000 		.4byte	.LASF188
 1070 0015 93020000 		.4byte	.LASF189
 1071 0019 00000000 		.4byte	.Ldebug_ranges0+0
 1072 001d 00000000 		.4byte	0
 1073 0021 00000000 		.4byte	.Ldebug_line0
 1074 0025 02       		.uleb128 0x2
ARM GAS  C:\Users\Luis\AppData\Local\Temp\ccRWYsM4.s 			page 20


 1075 0026 04       		.byte	0x4
 1076 0027 05       		.byte	0x5
 1077 0028 696E7400 		.ascii	"int\000"
 1078 002c 03       		.uleb128 0x3
 1079 002d 04       		.byte	0x4
 1080 002e 07       		.byte	0x7
 1081 002f F2030000 		.4byte	.LASF0
 1082 0033 03       		.uleb128 0x3
 1083 0034 01       		.byte	0x1
 1084 0035 06       		.byte	0x6
 1085 0036 1F020000 		.4byte	.LASF1
 1086 003a 04       		.uleb128 0x4
 1087 003b DD0A0000 		.4byte	.LASF5
 1088 003f 02       		.byte	0x2
 1089 0040 2A       		.byte	0x2a
 1090 0041 45000000 		.4byte	0x45
 1091 0045 03       		.uleb128 0x3
 1092 0046 01       		.byte	0x1
 1093 0047 08       		.byte	0x8
 1094 0048 480A0000 		.4byte	.LASF2
 1095 004c 03       		.uleb128 0x3
 1096 004d 02       		.byte	0x2
 1097 004e 05       		.byte	0x5
 1098 004f 91080000 		.4byte	.LASF3
 1099 0053 03       		.uleb128 0x3
 1100 0054 02       		.byte	0x2
 1101 0055 07       		.byte	0x7
 1102 0056 45040000 		.4byte	.LASF4
 1103 005a 04       		.uleb128 0x4
 1104 005b 1C080000 		.4byte	.LASF6
 1105 005f 02       		.byte	0x2
 1106 0060 4F       		.byte	0x4f
 1107 0061 65000000 		.4byte	0x65
 1108 0065 03       		.uleb128 0x3
 1109 0066 04       		.byte	0x4
 1110 0067 05       		.byte	0x5
 1111 0068 DC020000 		.4byte	.LASF7
 1112 006c 04       		.uleb128 0x4
 1113 006d 5E090000 		.4byte	.LASF8
 1114 0071 02       		.byte	0x2
 1115 0072 50       		.byte	0x50
 1116 0073 77000000 		.4byte	0x77
 1117 0077 03       		.uleb128 0x3
 1118 0078 04       		.byte	0x4
 1119 0079 07       		.byte	0x7
 1120 007a D1090000 		.4byte	.LASF9
 1121 007e 03       		.uleb128 0x3
 1122 007f 08       		.byte	0x8
 1123 0080 05       		.byte	0x5
 1124 0081 11020000 		.4byte	.LASF10
 1125 0085 04       		.uleb128 0x4
 1126 0086 76000000 		.4byte	.LASF11
 1127 008a 02       		.byte	0x2
 1128 008b 78       		.byte	0x78
 1129 008c 90000000 		.4byte	0x90
 1130 0090 03       		.uleb128 0x3
 1131 0091 08       		.byte	0x8
ARM GAS  C:\Users\Luis\AppData\Local\Temp\ccRWYsM4.s 			page 21


 1132 0092 07       		.byte	0x7
 1133 0093 FA000000 		.4byte	.LASF12
 1134 0097 05       		.uleb128 0x5
 1135 0098 5A000000 		.4byte	0x5a
 1136 009c 04       		.uleb128 0x4
 1137 009d 670A0000 		.4byte	.LASF13
 1138 00a1 03       		.byte	0x3
 1139 00a2 45       		.byte	0x45
 1140 00a3 6C000000 		.4byte	0x6c
 1141 00a7 04       		.uleb128 0x4
 1142 00a8 BA010000 		.4byte	.LASF14
 1143 00ac 03       		.byte	0x3
 1144 00ad 46       		.byte	0x46
 1145 00ae 85000000 		.4byte	0x85
 1146 00b2 04       		.uleb128 0x4
 1147 00b3 CF040000 		.4byte	.LASF15
 1148 00b7 03       		.byte	0x3
 1149 00b8 48       		.byte	0x48
 1150 00b9 3A000000 		.4byte	0x3a
 1151 00bd 04       		.uleb128 0x4
 1152 00be E5020000 		.4byte	.LASF16
 1153 00c2 03       		.byte	0x3
 1154 00c3 49       		.byte	0x49
 1155 00c4 3A000000 		.4byte	0x3a
 1156 00c8 04       		.uleb128 0x4
 1157 00c9 BA070000 		.4byte	.LASF17
 1158 00cd 03       		.byte	0x3
 1159 00ce 4A       		.byte	0x4a
 1160 00cf 3A000000 		.4byte	0x3a
 1161 00d3 04       		.uleb128 0x4
 1162 00d4 0B080000 		.4byte	.LASF18
 1163 00d8 03       		.byte	0x3
 1164 00d9 4C       		.byte	0x4c
 1165 00da 6C000000 		.4byte	0x6c
 1166 00de 04       		.uleb128 0x4
 1167 00df 8D040000 		.4byte	.LASF19
 1168 00e3 03       		.byte	0x3
 1169 00e4 4D       		.byte	0x4d
 1170 00e5 5A000000 		.4byte	0x5a
 1171 00e9 04       		.uleb128 0x4
 1172 00ea 18050000 		.4byte	.LASF20
 1173 00ee 03       		.byte	0x3
 1174 00ef 4F       		.byte	0x4f
 1175 00f0 6C000000 		.4byte	0x6c
 1176 00f4 04       		.uleb128 0x4
 1177 00f5 D1030000 		.4byte	.LASF21
 1178 00f9 03       		.byte	0x3
 1179 00fa 51       		.byte	0x51
 1180 00fb 5A000000 		.4byte	0x5a
 1181 00ff 04       		.uleb128 0x4
 1182 0100 98040000 		.4byte	.LASF22
 1183 0104 03       		.byte	0x3
 1184 0105 52       		.byte	0x52
 1185 0106 6C000000 		.4byte	0x6c
 1186 010a 04       		.uleb128 0x4
 1187 010b FD090000 		.4byte	.LASF23
 1188 010f 04       		.byte	0x4
ARM GAS  C:\Users\Luis\AppData\Local\Temp\ccRWYsM4.s 			page 22


 1189 0110 33       		.byte	0x33
 1190 0111 6C000000 		.4byte	0x6c
 1191 0115 04       		.uleb128 0x4
 1192 0116 E8090000 		.4byte	.LASF24
 1193 011a 04       		.byte	0x4
 1194 011b 3F       		.byte	0x3f
 1195 011c 20010000 		.4byte	0x120
 1196 0120 06       		.uleb128 0x6
 1197 0121 78040000 		.4byte	.LASF54
 1198 0125 68       		.byte	0x68
 1199 0126 05       		.byte	0x5
 1200 0127 C2       		.byte	0xc2
 1201 0128 90020000 		.4byte	0x290
 1202 012c 07       		.uleb128 0x7
 1203 012d 04       		.byte	0x4
 1204 012e 05       		.byte	0x5
 1205 012f FA       		.byte	0xfa
 1206 0130 89010000 		.4byte	0x189
 1207 0134 08       		.uleb128 0x8
 1208 0135 6F000000 		.4byte	.LASF25
 1209 0139 05       		.byte	0x5
 1210 013a 0101     		.2byte	0x101
 1211 013c DE000000 		.4byte	0xde
 1212 0140 08       		.uleb128 0x8
 1213 0141 5B010000 		.4byte	.LASF26
 1214 0145 05       		.byte	0x5
 1215 0146 0801     		.2byte	0x108
 1216 0148 DE000000 		.4byte	0xde
 1217 014c 08       		.uleb128 0x8
 1218 014d 0B0B0000 		.4byte	.LASF27
 1219 0151 05       		.byte	0x5
 1220 0152 0F01     		.2byte	0x10f
 1221 0154 78030000 		.4byte	0x378
 1222 0158 08       		.uleb128 0x8
 1223 0159 CC020000 		.4byte	.LASF28
 1224 015d 05       		.byte	0x5
 1225 015e 1601     		.2byte	0x116
 1226 0160 F7060000 		.4byte	0x6f7
 1227 0164 08       		.uleb128 0x8
 1228 0165 07040000 		.4byte	.LASF29
 1229 0169 05       		.byte	0x5
 1230 016a 1E01     		.2byte	0x11e
 1231 016c 22070000 		.4byte	0x722
 1232 0170 08       		.uleb128 0x8
 1233 0171 67090000 		.4byte	.LASF30
 1234 0175 05       		.byte	0x5
 1235 0176 2701     		.2byte	0x127
 1236 0178 59070000 		.4byte	0x759
 1237 017c 08       		.uleb128 0x8
 1238 017d CE080000 		.4byte	.LASF31
 1239 0181 05       		.byte	0x5
 1240 0182 2F01     		.2byte	0x12f
 1241 0184 E9000000 		.4byte	0xe9
 1242 0188 00       		.byte	0
 1243 0189 09       		.uleb128 0x9
 1244 018a D5080000 		.4byte	.LASF32
 1245 018e 05       		.byte	0x5
ARM GAS  C:\Users\Luis\AppData\Local\Temp\ccRWYsM4.s 			page 23


 1246 018f C3       		.byte	0xc3
 1247 0190 9B020000 		.4byte	0x29b
 1248 0194 00       		.byte	0
 1249 0195 09       		.uleb128 0x9
 1250 0196 E8070000 		.4byte	.LASF33
 1251 019a 05       		.byte	0x5
 1252 019b C5       		.byte	0xc5
 1253 019c 9B020000 		.4byte	0x29b
 1254 01a0 04       		.byte	0x4
 1255 01a1 09       		.uleb128 0x9
 1256 01a2 DB010000 		.4byte	.LASF34
 1257 01a6 05       		.byte	0x5
 1258 01a7 C7       		.byte	0xc7
 1259 01a8 D3000000 		.4byte	0xd3
 1260 01ac 08       		.byte	0x8
 1261 01ad 09       		.uleb128 0x9
 1262 01ae AD0B0000 		.4byte	.LASF35
 1263 01b2 05       		.byte	0x5
 1264 01b3 C8       		.byte	0xc8
 1265 01b4 04050000 		.4byte	0x504
 1266 01b8 0C       		.byte	0xc
 1267 01b9 09       		.uleb128 0x9
 1268 01ba 23030000 		.4byte	.LASF36
 1269 01be 05       		.byte	0x5
 1270 01bf CA       		.byte	0xca
 1271 01c0 9B020000 		.4byte	0x29b
 1272 01c4 10       		.byte	0x10
 1273 01c5 09       		.uleb128 0x9
 1274 01c6 F1050000 		.4byte	.LASF37
 1275 01ca 05       		.byte	0x5
 1276 01cb CB       		.byte	0xcb
 1277 01cc 9B020000 		.4byte	0x29b
 1278 01d0 14       		.byte	0x14
 1279 01d1 09       		.uleb128 0x9
 1280 01d2 120B0000 		.4byte	.LASF38
 1281 01d6 05       		.byte	0x5
 1282 01d7 D2       		.byte	0xd2
 1283 01d8 5F070000 		.4byte	0x75f
 1284 01dc 18       		.byte	0x18
 1285 01dd 09       		.uleb128 0x9
 1286 01de E7030000 		.4byte	.LASF39
 1287 01e2 05       		.byte	0x5
 1288 01e3 D8       		.byte	0xd8
 1289 01e4 71070000 		.4byte	0x771
 1290 01e8 1C       		.byte	0x1c
 1291 01e9 09       		.uleb128 0x9
 1292 01ea 9B080000 		.4byte	.LASF40
 1293 01ee 05       		.byte	0x5
 1294 01ef DD       		.byte	0xdd
 1295 01f0 BD000000 		.4byte	0xbd
 1296 01f4 20       		.byte	0x20
 1297 01f5 09       		.uleb128 0x9
 1298 01f6 3B0B0000 		.4byte	.LASF41
 1299 01fa 05       		.byte	0x5
 1300 01fb E1       		.byte	0xe1
 1301 01fc B2000000 		.4byte	0xb2
 1302 0200 21       		.byte	0x21
ARM GAS  C:\Users\Luis\AppData\Local\Temp\ccRWYsM4.s 			page 24


 1303 0201 09       		.uleb128 0x9
 1304 0202 AF0A0000 		.4byte	.LASF42
 1305 0206 05       		.byte	0x5
 1306 0207 E6       		.byte	0xe6
 1307 0208 C8000000 		.4byte	0xc8
 1308 020c 22       		.byte	0x22
 1309 020d 0A       		.uleb128 0xa
 1310 020e 705F7500 		.ascii	"p_u\000"
 1311 0212 05       		.byte	0x5
 1312 0213 3101     		.2byte	0x131
 1313 0215 2C010000 		.4byte	0x12c
 1314 0219 24       		.byte	0x24
 1315 021a 0B       		.uleb128 0xb
 1316 021b 50050000 		.4byte	.LASF43
 1317 021f 05       		.byte	0x5
 1318 0220 3601     		.2byte	0x136
 1319 0222 A1020000 		.4byte	0x2a1
 1320 0226 28       		.byte	0x28
 1321 0227 0B       		.uleb128 0xb
 1322 0228 0E040000 		.4byte	.LASF44
 1323 022c 05       		.byte	0x5
 1324 022d 3C01     		.2byte	0x13c
 1325 022f C5020000 		.4byte	0x2c5
 1326 0233 2C       		.byte	0x2c
 1327 0234 0B       		.uleb128 0xb
 1328 0235 430B0000 		.4byte	.LASF45
 1329 0239 05       		.byte	0x5
 1330 023a 4001     		.2byte	0x140
 1331 023c DE000000 		.4byte	0xde
 1332 0240 34       		.byte	0x34
 1333 0241 0B       		.uleb128 0xb
 1334 0242 3E090000 		.4byte	.LASF46
 1335 0246 05       		.byte	0x5
 1336 0247 4601     		.2byte	0x146
 1337 0249 E9000000 		.4byte	0xe9
 1338 024d 38       		.byte	0x38
 1339 024e 0B       		.uleb128 0xb
 1340 024f 87080000 		.4byte	.LASF47
 1341 0253 05       		.byte	0x5
 1342 0254 4D01     		.2byte	0x14d
 1343 0256 59070000 		.4byte	0x759
 1344 025a 3C       		.byte	0x3c
 1345 025b 0B       		.uleb128 0xb
 1346 025c 070A0000 		.4byte	.LASF48
 1347 0260 05       		.byte	0x5
 1348 0261 5101     		.2byte	0x151
 1349 0263 D3000000 		.4byte	0xd3
 1350 0267 40       		.byte	0x40
 1351 0268 0B       		.uleb128 0xb
 1352 0269 46020000 		.4byte	.LASF49
 1353 026d 05       		.byte	0x5
 1354 026e 5801     		.2byte	0x158
 1355 0270 78030000 		.4byte	0x378
 1356 0274 44       		.byte	0x44
 1357 0275 0B       		.uleb128 0xb
 1358 0276 DC080000 		.4byte	.LASF50
 1359 027a 05       		.byte	0x5
ARM GAS  C:\Users\Luis\AppData\Local\Temp\ccRWYsM4.s 			page 25


 1360 027b 5E01     		.2byte	0x15e
 1361 027d A4060000 		.4byte	0x6a4
 1362 0281 48       		.byte	0x48
 1363 0282 0B       		.uleb128 0xb
 1364 0283 28040000 		.4byte	.LASF51
 1365 0287 05       		.byte	0x5
 1366 0288 6201     		.2byte	0x162
 1367 028a 78030000 		.4byte	0x378
 1368 028e 60       		.byte	0x60
 1369 028f 00       		.byte	0
 1370 0290 04       		.uleb128 0x4
 1371 0291 63050000 		.4byte	.LASF52
 1372 0295 04       		.byte	0x4
 1373 0296 44       		.byte	0x44
 1374 0297 9B020000 		.4byte	0x29b
 1375 029b 0C       		.uleb128 0xc
 1376 029c 04       		.byte	0x4
 1377 029d 15010000 		.4byte	0x115
 1378 02a1 04       		.uleb128 0x4
 1379 02a2 1F0B0000 		.4byte	.LASF53
 1380 02a6 04       		.byte	0x4
 1381 02a7 49       		.byte	0x49
 1382 02a8 AC020000 		.4byte	0x2ac
 1383 02ac 06       		.uleb128 0x6
 1384 02ad 7F090000 		.4byte	.LASF55
 1385 02b1 04       		.byte	0x4
 1386 02b2 05       		.byte	0x5
 1387 02b3 B0       		.byte	0xb0
 1388 02b4 C5020000 		.4byte	0x2c5
 1389 02b8 09       		.uleb128 0x9
 1390 02b9 D5080000 		.4byte	.LASF32
 1391 02bd 05       		.byte	0x5
 1392 02be B1       		.byte	0xb1
 1393 02bf 9B020000 		.4byte	0x29b
 1394 02c3 00       		.byte	0
 1395 02c4 00       		.byte	0
 1396 02c5 04       		.uleb128 0x4
 1397 02c6 960A0000 		.4byte	.LASF56
 1398 02ca 04       		.byte	0x4
 1399 02cb 50       		.byte	0x50
 1400 02cc D0020000 		.4byte	0x2d0
 1401 02d0 06       		.uleb128 0x6
 1402 02d1 93000000 		.4byte	.LASF57
 1403 02d5 08       		.byte	0x8
 1404 02d6 05       		.byte	0x5
 1405 02d7 B7       		.byte	0xb7
 1406 02d8 F5020000 		.4byte	0x2f5
 1407 02dc 09       		.uleb128 0x9
 1408 02dd D5080000 		.4byte	.LASF32
 1409 02e1 05       		.byte	0x5
 1410 02e2 B8       		.byte	0xb8
 1411 02e3 9B020000 		.4byte	0x29b
 1412 02e7 00       		.byte	0
 1413 02e8 09       		.uleb128 0x9
 1414 02e9 E8070000 		.4byte	.LASF33
 1415 02ed 05       		.byte	0x5
 1416 02ee B9       		.byte	0xb9
ARM GAS  C:\Users\Luis\AppData\Local\Temp\ccRWYsM4.s 			page 26


 1417 02ef 9B020000 		.4byte	0x29b
 1418 02f3 04       		.byte	0x4
 1419 02f4 00       		.byte	0
 1420 02f5 04       		.uleb128 0x4
 1421 02f6 2E000000 		.4byte	.LASF58
 1422 02fa 04       		.byte	0x4
 1423 02fb 57       		.byte	0x57
 1424 02fc 00030000 		.4byte	0x300
 1425 0300 0D       		.uleb128 0xd
 1426 0301 0A050000 		.4byte	.LASF59
 1427 0305 1C       		.byte	0x1c
 1428 0306 05       		.byte	0x5
 1429 0307 9001     		.2byte	0x190
 1430 0309 5C030000 		.4byte	0x35c
 1431 030d 0B       		.uleb128 0xb
 1432 030e 6E090000 		.4byte	.LASF60
 1433 0312 05       		.byte	0x5
 1434 0313 9101     		.2byte	0x191
 1435 0315 C5020000 		.4byte	0x2c5
 1436 0319 00       		.byte	0
 1437 031a 0B       		.uleb128 0xb
 1438 031b C7080000 		.4byte	.LASF61
 1439 031f 05       		.byte	0x5
 1440 0320 9201     		.2byte	0x192
 1441 0322 D3000000 		.4byte	0xd3
 1442 0326 08       		.byte	0x8
 1443 0327 0B       		.uleb128 0xb
 1444 0328 F9050000 		.4byte	.LASF62
 1445 032c 05       		.byte	0x5
 1446 032d 9401     		.2byte	0x194
 1447 032f 04050000 		.4byte	0x504
 1448 0333 0C       		.byte	0xc
 1449 0334 0B       		.uleb128 0xb
 1450 0335 6D030000 		.4byte	.LASF63
 1451 0339 05       		.byte	0x5
 1452 033a 9701     		.2byte	0x197
 1453 033c 9B020000 		.4byte	0x29b
 1454 0340 10       		.byte	0x10
 1455 0341 0B       		.uleb128 0xb
 1456 0342 5A070000 		.4byte	.LASF64
 1457 0346 05       		.byte	0x5
 1458 0347 9801     		.2byte	0x198
 1459 0349 9B020000 		.4byte	0x29b
 1460 034d 14       		.byte	0x14
 1461 034e 0B       		.uleb128 0xb
 1462 034f 50070000 		.4byte	.LASF65
 1463 0353 05       		.byte	0x5
 1464 0354 9B01     		.2byte	0x19b
 1465 0356 9B020000 		.4byte	0x29b
 1466 035a 18       		.byte	0x18
 1467 035b 00       		.byte	0
 1468 035c 04       		.uleb128 0x4
 1469 035d 120A0000 		.4byte	.LASF66
 1470 0361 04       		.byte	0x4
 1471 0362 5C       		.byte	0x5c
 1472 0363 67030000 		.4byte	0x367
 1473 0367 0C       		.uleb128 0xc
ARM GAS  C:\Users\Luis\AppData\Local\Temp\ccRWYsM4.s 			page 27


 1474 0368 04       		.byte	0x4
 1475 0369 6D030000 		.4byte	0x36d
 1476 036d 0E       		.uleb128 0xe
 1477 036e 78030000 		.4byte	0x378
 1478 0372 0F       		.uleb128 0xf
 1479 0373 78030000 		.4byte	0x378
 1480 0377 00       		.byte	0
 1481 0378 10       		.uleb128 0x10
 1482 0379 04       		.byte	0x4
 1483 037a 04       		.uleb128 0x4
 1484 037b D8070000 		.4byte	.LASF67
 1485 037f 04       		.byte	0x4
 1486 0380 61       		.byte	0x61
 1487 0381 85030000 		.4byte	0x385
 1488 0385 0D       		.uleb128 0xd
 1489 0386 560A0000 		.4byte	.LASF68
 1490 038a 14       		.byte	0x14
 1491 038b 05       		.byte	0x5
 1492 038c 6B01     		.2byte	0x16b
 1493 038e D4030000 		.4byte	0x3d4
 1494 0392 0B       		.uleb128 0xb
 1495 0393 FF030000 		.4byte	.LASF69
 1496 0397 05       		.byte	0x5
 1497 0398 6C01     		.2byte	0x16c
 1498 039a 77070000 		.4byte	0x777
 1499 039e 00       		.byte	0
 1500 039f 0B       		.uleb128 0xb
 1501 03a0 7E030000 		.4byte	.LASF70
 1502 03a4 05       		.byte	0x5
 1503 03a5 6D01     		.2byte	0x16d
 1504 03a7 77070000 		.4byte	0x777
 1505 03ab 04       		.byte	0x4
 1506 03ac 0B       		.uleb128 0xb
 1507 03ad 76090000 		.4byte	.LASF71
 1508 03b1 05       		.byte	0x5
 1509 03b2 6E01     		.2byte	0x16e
 1510 03b4 0A010000 		.4byte	0x10a
 1511 03b8 08       		.byte	0x8
 1512 03b9 0B       		.uleb128 0xb
 1513 03ba B30B0000 		.4byte	.LASF72
 1514 03be 05       		.byte	0x5
 1515 03bf 6F01     		.2byte	0x16f
 1516 03c1 5C030000 		.4byte	0x35c
 1517 03c5 0C       		.byte	0xc
 1518 03c6 0B       		.uleb128 0xb
 1519 03c7 820A0000 		.4byte	.LASF73
 1520 03cb 05       		.byte	0x5
 1521 03cc 7101     		.2byte	0x171
 1522 03ce 78030000 		.4byte	0x378
 1523 03d2 10       		.byte	0x10
 1524 03d3 00       		.byte	0
 1525 03d4 04       		.uleb128 0x4
 1526 03d5 90010000 		.4byte	.LASF74
 1527 03d9 04       		.byte	0x4
 1528 03da 66       		.byte	0x66
 1529 03db DF030000 		.4byte	0x3df
 1530 03df 0D       		.uleb128 0xd
ARM GAS  C:\Users\Luis\AppData\Local\Temp\ccRWYsM4.s 			page 28


 1531 03e0 87050000 		.4byte	.LASF75
 1532 03e4 10       		.byte	0x10
 1533 03e5 05       		.byte	0x5
 1534 03e6 7B01     		.2byte	0x17b
 1535 03e8 21040000 		.4byte	0x421
 1536 03ec 0B       		.uleb128 0xb
 1537 03ed FF030000 		.4byte	.LASF69
 1538 03f1 05       		.byte	0x5
 1539 03f2 7C01     		.2byte	0x17c
 1540 03f4 77070000 		.4byte	0x777
 1541 03f8 00       		.byte	0
 1542 03f9 0B       		.uleb128 0xb
 1543 03fa 7E030000 		.4byte	.LASF70
 1544 03fe 05       		.byte	0x5
 1545 03ff 7E01     		.2byte	0x17e
 1546 0401 77070000 		.4byte	0x777
 1547 0405 04       		.byte	0x4
 1548 0406 0B       		.uleb128 0xb
 1549 0407 76090000 		.4byte	.LASF71
 1550 040b 05       		.byte	0x5
 1551 040c 8001     		.2byte	0x180
 1552 040e 0A010000 		.4byte	0x10a
 1553 0412 08       		.byte	0x8
 1554 0413 0B       		.uleb128 0xb
 1555 0414 E5050000 		.4byte	.LASF76
 1556 0418 05       		.byte	0x5
 1557 0419 8801     		.2byte	0x188
 1558 041b 0A010000 		.4byte	0x10a
 1559 041f 0C       		.byte	0xc
 1560 0420 00       		.byte	0
 1561 0421 04       		.uleb128 0x4
 1562 0422 A4000000 		.4byte	.LASF77
 1563 0426 04       		.byte	0x4
 1564 0427 6B       		.byte	0x6b
 1565 0428 2C040000 		.4byte	0x42c
 1566 042c 11       		.uleb128 0x11
 1567 042d 86030000 		.4byte	.LASF78
 1568 0431 1404     		.2byte	0x414
 1569 0433 05       		.byte	0x5
 1570 0434 A201     		.2byte	0x1a2
 1571 0436 6F040000 		.4byte	0x46f
 1572 043a 0B       		.uleb128 0xb
 1573 043b 1B0A0000 		.4byte	.LASF79
 1574 043f 05       		.byte	0x5
 1575 0440 AA01     		.2byte	0x1aa
 1576 0442 7D070000 		.4byte	0x77d
 1577 0446 00       		.byte	0
 1578 0447 0B       		.uleb128 0xb
 1579 0448 B60A0000 		.4byte	.LASF80
 1580 044c 05       		.byte	0x5
 1581 044d AF01     		.2byte	0x1af
 1582 044f F4000000 		.4byte	0xf4
 1583 0453 04       		.byte	0x4
 1584 0454 0B       		.uleb128 0xb
 1585 0455 9E030000 		.4byte	.LASF81
 1586 0459 05       		.byte	0x5
 1587 045a B301     		.2byte	0x1b3
ARM GAS  C:\Users\Luis\AppData\Local\Temp\ccRWYsM4.s 			page 29


 1588 045c F4000000 		.4byte	0xf4
 1589 0460 08       		.byte	0x8
 1590 0461 0B       		.uleb128 0xb
 1591 0462 2E0B0000 		.4byte	.LASF82
 1592 0466 05       		.byte	0x5
 1593 0467 B901     		.2byte	0x1b9
 1594 0469 2E060000 		.4byte	0x62e
 1595 046d 0C       		.byte	0xc
 1596 046e 00       		.byte	0
 1597 046f 04       		.uleb128 0x4
 1598 0470 C3040000 		.4byte	.LASF83
 1599 0474 04       		.byte	0x4
 1600 0475 70       		.byte	0x70
 1601 0476 7A040000 		.4byte	0x47a
 1602 047a 11       		.uleb128 0x11
 1603 047b D2020000 		.4byte	.LASF84
 1604 047f E805     		.2byte	0x5e8
 1605 0481 05       		.byte	0x5
 1606 0482 C201     		.2byte	0x1c2
 1607 0484 E7040000 		.4byte	0x4e7
 1608 0488 0B       		.uleb128 0xb
 1609 0489 D70A0000 		.4byte	.LASF85
 1610 048d 05       		.byte	0x5
 1611 048e C601     		.2byte	0x1c6
 1612 0490 F5020000 		.4byte	0x2f5
 1613 0494 00       		.byte	0
 1614 0495 0B       		.uleb128 0xb
 1615 0496 56020000 		.4byte	.LASF86
 1616 049a 05       		.byte	0x5
 1617 049b CA01     		.2byte	0x1ca
 1618 049d D4030000 		.4byte	0x3d4
 1619 04a1 1C       		.byte	0x1c
 1620 04a2 0A       		.uleb128 0xa
 1621 04a3 64626700 		.ascii	"dbg\000"
 1622 04a7 05       		.byte	0x5
 1623 04a8 CE01     		.2byte	0x1ce
 1624 04aa 21040000 		.4byte	0x421
 1625 04ae 2C       		.byte	0x2c
 1626 04af 12       		.uleb128 0x12
 1627 04b0 82040000 		.4byte	.LASF87
 1628 04b4 05       		.byte	0x5
 1629 04b5 D201     		.2byte	0x1d2
 1630 04b7 15010000 		.4byte	0x115
 1631 04bb 4004     		.2byte	0x440
 1632 04bd 13       		.uleb128 0x13
 1633 04be 746D00   		.ascii	"tm\000"
 1634 04c1 05       		.byte	0x5
 1635 04c2 D701     		.2byte	0x1d7
 1636 04c4 52060000 		.4byte	0x652
 1637 04c8 A804     		.2byte	0x4a8
 1638 04ca 12       		.uleb128 0x12
 1639 04cb 7F000000 		.4byte	.LASF88
 1640 04cf 05       		.byte	0x5
 1641 04d0 DD01     		.2byte	0x1dd
 1642 04d2 EC060000 		.4byte	0x6ec
 1643 04d6 B004     		.2byte	0x4b0
 1644 04d8 12       		.uleb128 0x12
ARM GAS  C:\Users\Luis\AppData\Local\Temp\ccRWYsM4.s 			page 30


 1645 04d9 BF000000 		.4byte	.LASF89
 1646 04dd 05       		.byte	0x5
 1647 04de E301     		.2byte	0x1e3
 1648 04e0 82070000 		.4byte	0x782
 1649 04e4 E804     		.2byte	0x4e8
 1650 04e6 00       		.byte	0
 1651 04e7 03       		.uleb128 0x3
 1652 04e8 04       		.byte	0x4
 1653 04e9 07       		.byte	0x7
 1654 04ea 5A050000 		.4byte	.LASF90
 1655 04ee 04       		.uleb128 0x4
 1656 04ef 75030000 		.4byte	.LASF91
 1657 04f3 06       		.byte	0x6
 1658 04f4 65       		.byte	0x65
 1659 04f5 78030000 		.4byte	0x378
 1660 04f9 04       		.uleb128 0x4
 1661 04fa 45050000 		.4byte	.LASF92
 1662 04fe 06       		.byte	0x6
 1663 04ff 6D       		.byte	0x6d
 1664 0500 85000000 		.4byte	0x85
 1665 0504 06       		.uleb128 0x6
 1666 0505 400A0000 		.4byte	.LASF93
 1667 0509 04       		.byte	0x4
 1668 050a 06       		.byte	0x6
 1669 050b 89       		.byte	0x89
 1670 050c 1D050000 		.4byte	0x51d
 1671 0510 14       		.uleb128 0x14
 1672 0511 72313300 		.ascii	"r13\000"
 1673 0515 06       		.byte	0x6
 1674 0516 8A       		.byte	0x8a
 1675 0517 98050000 		.4byte	0x598
 1676 051b 00       		.byte	0
 1677 051c 00       		.byte	0
 1678 051d 06       		.uleb128 0x6
 1679 051e CC070000 		.4byte	.LASF94
 1680 0522 24       		.byte	0x24
 1681 0523 07       		.byte	0x7
 1682 0524 F4       		.byte	0xf4
 1683 0525 98050000 		.4byte	0x598
 1684 0529 0A       		.uleb128 0xa
 1685 052a 723400   		.ascii	"r4\000"
 1686 052d 07       		.byte	0x7
 1687 052e 0701     		.2byte	0x107
 1688 0530 EE040000 		.4byte	0x4ee
 1689 0534 00       		.byte	0
 1690 0535 0A       		.uleb128 0xa
 1691 0536 723500   		.ascii	"r5\000"
 1692 0539 07       		.byte	0x7
 1693 053a 0801     		.2byte	0x108
 1694 053c EE040000 		.4byte	0x4ee
 1695 0540 04       		.byte	0x4
 1696 0541 0A       		.uleb128 0xa
 1697 0542 723600   		.ascii	"r6\000"
 1698 0545 07       		.byte	0x7
 1699 0546 0901     		.2byte	0x109
 1700 0548 EE040000 		.4byte	0x4ee
 1701 054c 08       		.byte	0x8
ARM GAS  C:\Users\Luis\AppData\Local\Temp\ccRWYsM4.s 			page 31


 1702 054d 0A       		.uleb128 0xa
 1703 054e 723700   		.ascii	"r7\000"
 1704 0551 07       		.byte	0x7
 1705 0552 0A01     		.2byte	0x10a
 1706 0554 EE040000 		.4byte	0x4ee
 1707 0558 0C       		.byte	0xc
 1708 0559 0A       		.uleb128 0xa
 1709 055a 723800   		.ascii	"r8\000"
 1710 055d 07       		.byte	0x7
 1711 055e 0B01     		.2byte	0x10b
 1712 0560 EE040000 		.4byte	0x4ee
 1713 0564 10       		.byte	0x10
 1714 0565 0A       		.uleb128 0xa
 1715 0566 723900   		.ascii	"r9\000"
 1716 0569 07       		.byte	0x7
 1717 056a 0C01     		.2byte	0x10c
 1718 056c EE040000 		.4byte	0x4ee
 1719 0570 14       		.byte	0x14
 1720 0571 0A       		.uleb128 0xa
 1721 0572 72313000 		.ascii	"r10\000"
 1722 0576 07       		.byte	0x7
 1723 0577 0D01     		.2byte	0x10d
 1724 0579 EE040000 		.4byte	0x4ee
 1725 057d 18       		.byte	0x18
 1726 057e 0A       		.uleb128 0xa
 1727 057f 72313100 		.ascii	"r11\000"
 1728 0583 07       		.byte	0x7
 1729 0584 0E01     		.2byte	0x10e
 1730 0586 EE040000 		.4byte	0x4ee
 1731 058a 1C       		.byte	0x1c
 1732 058b 0A       		.uleb128 0xa
 1733 058c 6C7200   		.ascii	"lr\000"
 1734 058f 07       		.byte	0x7
 1735 0590 0F01     		.2byte	0x10f
 1736 0592 EE040000 		.4byte	0x4ee
 1737 0596 20       		.byte	0x20
 1738 0597 00       		.byte	0
 1739 0598 0C       		.uleb128 0xc
 1740 0599 04       		.byte	0x4
 1741 059a 1D050000 		.4byte	0x51d
 1742 059e 15       		.uleb128 0x15
 1743 059f 10       		.byte	0x10
 1744 05a0 08       		.byte	0x8
 1745 05a1 51       		.byte	0x51
 1746 05a2 67040000 		.4byte	.LASF104
 1747 05a6 DB050000 		.4byte	0x5db
 1748 05aa 09       		.uleb128 0x9
 1749 05ab 3B000000 		.4byte	.LASF95
 1750 05af 08       		.byte	0x8
 1751 05b0 55       		.byte	0x55
 1752 05b1 0A010000 		.4byte	0x10a
 1753 05b5 00       		.byte	0
 1754 05b6 09       		.uleb128 0x9
 1755 05b7 EE020000 		.4byte	.LASF96
 1756 05bb 08       		.byte	0x8
 1757 05bc 59       		.byte	0x59
 1758 05bd 9B020000 		.4byte	0x29b
ARM GAS  C:\Users\Luis\AppData\Local\Temp\ccRWYsM4.s 			page 32


 1759 05c1 04       		.byte	0x4
 1760 05c2 09       		.uleb128 0x9
 1761 05c3 35040000 		.4byte	.LASF97
 1762 05c7 08       		.byte	0x8
 1763 05c8 5D       		.byte	0x5d
 1764 05c9 78030000 		.4byte	0x378
 1765 05cd 08       		.byte	0x8
 1766 05ce 09       		.uleb128 0x9
 1767 05cf 23010000 		.4byte	.LASF98
 1768 05d3 08       		.byte	0x8
 1769 05d4 61       		.byte	0x61
 1770 05d5 3A000000 		.4byte	0x3a
 1771 05d9 0C       		.byte	0xc
 1772 05da 00       		.byte	0
 1773 05db 04       		.uleb128 0x4
 1774 05dc B1050000 		.4byte	.LASF99
 1775 05e0 08       		.byte	0x8
 1776 05e1 62       		.byte	0x62
 1777 05e2 9E050000 		.4byte	0x59e
 1778 05e6 16       		.uleb128 0x16
 1779 05e7 0804     		.2byte	0x408
 1780 05e9 08       		.byte	0x8
 1781 05ea 67       		.byte	0x67
 1782 05eb 31050000 		.4byte	.LASF190
 1783 05ef 18060000 		.4byte	0x618
 1784 05f3 09       		.uleb128 0x9
 1785 05f4 65030000 		.4byte	.LASF100
 1786 05f8 08       		.byte	0x8
 1787 05f9 6B       		.byte	0x6b
 1788 05fa 2C000000 		.4byte	0x2c
 1789 05fe 00       		.byte	0
 1790 05ff 09       		.uleb128 0x9
 1791 0600 0A000000 		.4byte	.LASF101
 1792 0604 08       		.byte	0x8
 1793 0605 6F       		.byte	0x6f
 1794 0606 18060000 		.4byte	0x618
 1795 060a 04       		.byte	0x4
 1796 060b 09       		.uleb128 0x9
 1797 060c C2070000 		.4byte	.LASF102
 1798 0610 08       		.byte	0x8
 1799 0611 73       		.byte	0x73
 1800 0612 1E060000 		.4byte	0x61e
 1801 0616 08       		.byte	0x8
 1802 0617 00       		.byte	0
 1803 0618 0C       		.uleb128 0xc
 1804 0619 04       		.byte	0x4
 1805 061a DB050000 		.4byte	0x5db
 1806 061e 17       		.uleb128 0x17
 1807 061f DB050000 		.4byte	0x5db
 1808 0623 2E060000 		.4byte	0x62e
 1809 0627 18       		.uleb128 0x18
 1810 0628 E7040000 		.4byte	0x4e7
 1811 062c 3F       		.byte	0x3f
 1812 062d 00       		.byte	0
 1813 062e 04       		.uleb128 0x4
 1814 062f 11010000 		.4byte	.LASF103
 1815 0633 08       		.byte	0x8
ARM GAS  C:\Users\Luis\AppData\Local\Temp\ccRWYsM4.s 			page 33


 1816 0634 74       		.byte	0x74
 1817 0635 E6050000 		.4byte	0x5e6
 1818 0639 15       		.uleb128 0x15
 1819 063a 04       		.byte	0x4
 1820 063b 09       		.byte	0x9
 1821 063c 38       		.byte	0x38
 1822 063d 490B0000 		.4byte	.LASF105
 1823 0641 52060000 		.4byte	0x652
 1824 0645 09       		.uleb128 0x9
 1825 0646 390A0000 		.4byte	.LASF106
 1826 064a 09       		.byte	0x9
 1827 064b 3C       		.byte	0x3c
 1828 064c 9C000000 		.4byte	0x9c
 1829 0650 00       		.byte	0
 1830 0651 00       		.byte	0
 1831 0652 04       		.uleb128 0x4
 1832 0653 25060000 		.4byte	.LASF107
 1833 0657 09       		.byte	0x9
 1834 0658 3D       		.byte	0x3d
 1835 0659 39060000 		.4byte	0x639
 1836 065d 15       		.uleb128 0x15
 1837 065e 18       		.byte	0x18
 1838 065f 09       		.byte	0x9
 1839 0660 48       		.byte	0x48
 1840 0661 FF050000 		.4byte	.LASF108
 1841 0665 A4060000 		.4byte	0x6a4
 1842 0669 09       		.uleb128 0x9
 1843 066a F1090000 		.4byte	.LASF109
 1844 066e 09       		.byte	0x9
 1845 066f 49       		.byte	0x49
 1846 0670 9C000000 		.4byte	0x9c
 1847 0674 00       		.byte	0
 1848 0675 09       		.uleb128 0x9
 1849 0676 CE000000 		.4byte	.LASF110
 1850 067a 09       		.byte	0x9
 1851 067b 4A       		.byte	0x4a
 1852 067c 9C000000 		.4byte	0x9c
 1853 0680 04       		.byte	0x4
 1854 0681 09       		.uleb128 0x9
 1855 0682 93040000 		.4byte	.LASF111
 1856 0686 09       		.byte	0x9
 1857 0687 4B       		.byte	0x4b
 1858 0688 9C000000 		.4byte	0x9c
 1859 068c 08       		.byte	0x8
 1860 068d 14       		.uleb128 0x14
 1861 068e 6E00     		.ascii	"n\000"
 1862 0690 09       		.byte	0x9
 1863 0691 4C       		.byte	0x4c
 1864 0692 FF000000 		.4byte	0xff
 1865 0696 0C       		.byte	0xc
 1866 0697 09       		.uleb128 0x9
 1867 0698 81070000 		.4byte	.LASF112
 1868 069c 09       		.byte	0x9
 1869 069d 4D       		.byte	0x4d
 1870 069e A7000000 		.4byte	0xa7
 1871 06a2 10       		.byte	0x10
 1872 06a3 00       		.byte	0
ARM GAS  C:\Users\Luis\AppData\Local\Temp\ccRWYsM4.s 			page 34


 1873 06a4 04       		.uleb128 0x4
 1874 06a5 D4000000 		.4byte	.LASF113
 1875 06a9 09       		.byte	0x9
 1876 06aa 4E       		.byte	0x4e
 1877 06ab 5D060000 		.4byte	0x65d
 1878 06af 15       		.uleb128 0x15
 1879 06b0 38       		.byte	0x38
 1880 06b1 0A       		.byte	0xa
 1881 06b2 38       		.byte	0x38
 1882 06b3 14060000 		.4byte	.LASF114
 1883 06b7 EC060000 		.4byte	0x6ec
 1884 06bb 09       		.uleb128 0x9
 1885 06bc 2F040000 		.4byte	.LASF115
 1886 06c0 0A       		.byte	0xa
 1887 06c1 39       		.byte	0x39
 1888 06c2 FF000000 		.4byte	0xff
 1889 06c6 00       		.byte	0
 1890 06c7 09       		.uleb128 0x9
 1891 06c8 13080000 		.4byte	.LASF116
 1892 06cc 0A       		.byte	0xa
 1893 06cd 3A       		.byte	0x3a
 1894 06ce FF000000 		.4byte	0xff
 1895 06d2 04       		.byte	0x4
 1896 06d3 09       		.uleb128 0x9
 1897 06d4 7E0B0000 		.4byte	.LASF117
 1898 06d8 0A       		.byte	0xa
 1899 06d9 3B       		.byte	0x3b
 1900 06da A4060000 		.4byte	0x6a4
 1901 06de 08       		.byte	0x8
 1902 06df 09       		.uleb128 0x9
 1903 06e0 FF040000 		.4byte	.LASF118
 1904 06e4 0A       		.byte	0xa
 1905 06e5 3D       		.byte	0x3d
 1906 06e6 A4060000 		.4byte	0x6a4
 1907 06ea 20       		.byte	0x20
 1908 06eb 00       		.byte	0
 1909 06ec 04       		.uleb128 0x4
 1910 06ed 58040000 		.4byte	.LASF119
 1911 06f1 0A       		.byte	0xa
 1912 06f2 3F       		.byte	0x3f
 1913 06f3 AF060000 		.4byte	0x6af
 1914 06f7 0C       		.uleb128 0xc
 1915 06f8 04       		.byte	0x4
 1916 06f9 90020000 		.4byte	0x290
 1917 06fd 06       		.uleb128 0x6
 1918 06fe 31090000 		.4byte	.LASF120
 1919 0702 0C       		.byte	0xc
 1920 0703 0B       		.byte	0xb
 1921 0704 34       		.byte	0x34
 1922 0705 22070000 		.4byte	0x722
 1923 0709 09       		.uleb128 0x9
 1924 070a 2B030000 		.4byte	.LASF121
 1925 070e 0B       		.byte	0xb
 1926 070f 35       		.byte	0x35
 1927 0710 C5020000 		.4byte	0x2c5
 1928 0714 00       		.byte	0
 1929 0715 09       		.uleb128 0x9
ARM GAS  C:\Users\Luis\AppData\Local\Temp\ccRWYsM4.s 			page 35


 1930 0716 3F040000 		.4byte	.LASF122
 1931 071a 0B       		.byte	0xb
 1932 071b 37       		.byte	0x37
 1933 071c F4000000 		.4byte	0xf4
 1934 0720 08       		.byte	0x8
 1935 0721 00       		.byte	0
 1936 0722 0C       		.uleb128 0xc
 1937 0723 04       		.byte	0x4
 1938 0724 FD060000 		.4byte	0x6fd
 1939 0728 06       		.uleb128 0x6
 1940 0729 A60A0000 		.4byte	.LASF123
 1941 072d 10       		.byte	0x10
 1942 072e 0C       		.byte	0xc
 1943 072f 39       		.byte	0x39
 1944 0730 59070000 		.4byte	0x759
 1945 0734 09       		.uleb128 0x9
 1946 0735 4E020000 		.4byte	.LASF124
 1947 0739 0C       		.byte	0xc
 1948 073a 3A       		.byte	0x3a
 1949 073b C5020000 		.4byte	0x2c5
 1950 073f 00       		.byte	0
 1951 0740 09       		.uleb128 0x9
 1952 0741 890B0000 		.4byte	.LASF125
 1953 0745 0C       		.byte	0xc
 1954 0746 3C       		.byte	0x3c
 1955 0747 9B020000 		.4byte	0x29b
 1956 074b 08       		.byte	0x8
 1957 074c 09       		.uleb128 0x9
 1958 074d F6090000 		.4byte	.LASF126
 1959 0751 0C       		.byte	0xc
 1960 0752 3E       		.byte	0x3e
 1961 0753 9D070000 		.4byte	0x79d
 1962 0757 0C       		.byte	0xc
 1963 0758 00       		.byte	0
 1964 0759 0C       		.uleb128 0xc
 1965 075a 04       		.byte	0x4
 1966 075b 28070000 		.4byte	0x728
 1967 075f 0C       		.uleb128 0xc
 1968 0760 04       		.byte	0x4
 1969 0761 65070000 		.4byte	0x765
 1970 0765 19       		.uleb128 0x19
 1971 0766 6A070000 		.4byte	0x76a
 1972 076a 03       		.uleb128 0x3
 1973 076b 01       		.byte	0x1
 1974 076c 08       		.byte	0x8
 1975 076d E3090000 		.4byte	.LASF127
 1976 0771 0C       		.uleb128 0xc
 1977 0772 04       		.byte	0x4
 1978 0773 F9040000 		.4byte	0x4f9
 1979 0777 0C       		.uleb128 0xc
 1980 0778 04       		.byte	0x4
 1981 0779 7A030000 		.4byte	0x37a
 1982 077d 05       		.uleb128 0x5
 1983 077e 5F070000 		.4byte	0x75f
 1984 0782 17       		.uleb128 0x17
 1985 0783 90000000 		.4byte	0x90
 1986 0787 92070000 		.4byte	0x792
ARM GAS  C:\Users\Luis\AppData\Local\Temp\ccRWYsM4.s 			page 36


 1987 078b 18       		.uleb128 0x18
 1988 078c E7040000 		.4byte	0x4e7
 1989 0790 1F       		.byte	0x1f
 1990 0791 00       		.byte	0
 1991 0792 04       		.uleb128 0x4
 1992 0793 96030000 		.4byte	.LASF128
 1993 0797 0C       		.byte	0xc
 1994 0798 34       		.byte	0x34
 1995 0799 28070000 		.4byte	0x728
 1996 079d 0C       		.uleb128 0xc
 1997 079e 04       		.byte	0x4
 1998 079f 92070000 		.4byte	0x792
 1999 07a3 03       		.uleb128 0x3
 2000 07a4 01       		.byte	0x1
 2001 07a5 02       		.byte	0x2
 2002 07a6 E2040000 		.4byte	.LASF129
 2003 07aa 1A       		.uleb128 0x1a
 2004 07ab 24050000 		.4byte	.LASF191
 2005 07af 04       		.byte	0x4
 2006 07b0 0D       		.byte	0xd
 2007 07b1 0B       		.byte	0xb
 2008 07b2 F6070000 		.4byte	0x7f6
 2009 07b6 09       		.uleb128 0x9
 2010 07b7 59090000 		.4byte	.LASF130
 2011 07bb 0D       		.byte	0xd
 2012 07bc 1C       		.byte	0x1c
 2013 07bd 25000000 		.4byte	0x25
 2014 07c1 00       		.byte	0
 2015 07c2 1B       		.uleb128 0x1b
 2016 07c3 73756D00 		.ascii	"sum\000"
 2017 07c7 0D       		.byte	0xd
 2018 07c8 17       		.byte	0x17
 2019 07c9 B2090000 		.4byte	.LASF192
 2020 07cd F6070000 		.4byte	0x7f6
 2021 07d1 01       		.byte	0x1
 2022 07d2 D6070000 		.4byte	0x7d6
 2023 07d6 1C       		.uleb128 0x1c
 2024 07d7 FD070000 		.4byte	0x7fd
 2025 07db 0F       		.uleb128 0xf
 2026 07dc 25000000 		.4byte	0x25
 2027 07e0 0F       		.uleb128 0xf
 2028 07e1 25000000 		.4byte	0x25
 2029 07e5 0F       		.uleb128 0xf
 2030 07e6 03080000 		.4byte	0x803
 2031 07ea 0F       		.uleb128 0xf
 2032 07eb 03080000 		.4byte	0x803
 2033 07ef 0F       		.uleb128 0xf
 2034 07f0 25000000 		.4byte	0x25
 2035 07f4 00       		.byte	0
 2036 07f5 00       		.byte	0
 2037 07f6 03       		.uleb128 0x3
 2038 07f7 04       		.byte	0x4
 2039 07f8 04       		.byte	0x4
 2040 07f9 8C070000 		.4byte	.LASF131
 2041 07fd 0C       		.uleb128 0xc
 2042 07fe 04       		.byte	0x4
 2043 07ff AA070000 		.4byte	0x7aa
ARM GAS  C:\Users\Luis\AppData\Local\Temp\ccRWYsM4.s 			page 37


 2044 0803 0C       		.uleb128 0xc
 2045 0804 04       		.byte	0x4
 2046 0805 F6070000 		.4byte	0x7f6
 2047 0809 1D       		.uleb128 0x1d
 2048 080a CC0A0000 		.4byte	.LASF193
 2049 080e 24       		.byte	0x24
 2050 080f 0E       		.byte	0xe
 2051 0810 11       		.byte	0x11
 2052 0811 09080000 		.4byte	0x809
 2053 0815 BD0A0000 		.4byte	0xabd
 2054 0819 1E       		.uleb128 0x1e
 2055 081a 76050000 		.4byte	.LASF132
 2056 081e C80A0000 		.4byte	0xac8
 2057 0822 00       		.byte	0
 2058 0823 01       		.byte	0x1
 2059 0824 09       		.uleb128 0x9
 2060 0825 B3000000 		.4byte	.LASF133
 2061 0829 0E       		.byte	0xe
 2062 082a 81       		.byte	0x81
 2063 082b 25000000 		.4byte	0x25
 2064 082f 04       		.byte	0x4
 2065 0830 09       		.uleb128 0x9
 2066 0831 9E050000 		.4byte	.LASF134
 2067 0835 0E       		.byte	0xe
 2068 0836 84       		.byte	0x84
 2069 0837 03080000 		.4byte	0x803
 2070 083b 08       		.byte	0x8
 2071 083c 09       		.uleb128 0x9
 2072 083d 890A0000 		.4byte	.LASF135
 2073 0841 0E       		.byte	0xe
 2074 0842 85       		.byte	0x85
 2075 0843 03080000 		.4byte	0x803
 2076 0847 0C       		.byte	0xc
 2077 0848 09       		.uleb128 0x9
 2078 0849 6F0A0000 		.4byte	.LASF136
 2079 084d 0E       		.byte	0xe
 2080 084e 88       		.byte	0x88
 2081 084f 03080000 		.4byte	0x803
 2082 0853 10       		.byte	0x10
 2083 0854 09       		.uleb128 0x9
 2084 0855 F8080000 		.4byte	.LASF137
 2085 0859 0E       		.byte	0xe
 2086 085a 89       		.byte	0x89
 2087 085b 03080000 		.4byte	0x803
 2088 085f 14       		.byte	0x14
 2089 0860 09       		.uleb128 0x9
 2090 0861 8C000000 		.4byte	.LASF138
 2091 0865 0E       		.byte	0xe
 2092 0866 8C       		.byte	0x8c
 2093 0867 F6070000 		.4byte	0x7f6
 2094 086b 18       		.byte	0x18
 2095 086c 09       		.uleb128 0x9
 2096 086d 59090000 		.4byte	.LASF130
 2097 0871 0E       		.byte	0xe
 2098 0872 8E       		.byte	0x8e
 2099 0873 25000000 		.4byte	0x25
 2100 0877 1C       		.byte	0x1c
ARM GAS  C:\Users\Luis\AppData\Local\Temp\ccRWYsM4.s 			page 38


 2101 0878 09       		.uleb128 0x9
 2102 0879 BE0A0000 		.4byte	.LASF139
 2103 087d 0E       		.byte	0xe
 2104 087e 90       		.byte	0x90
 2105 087f FD070000 		.4byte	0x7fd
 2106 0883 20       		.byte	0x20
 2107 0884 1F       		.uleb128 0x1f
 2108 0885 BB0B0000 		.4byte	.LASF140
 2109 0889 01       		.byte	0x1
 2110 088a 03       		.byte	0x3
 2111 088b E50A0000 		.4byte	.LASF141
 2112 088f 01       		.byte	0x1
 2113 0890 98080000 		.4byte	0x898
 2114 0894 AD080000 		.4byte	0x8ad
 2115 0898 1C       		.uleb128 0x1c
 2116 0899 D80A0000 		.4byte	0xad8
 2117 089d 0F       		.uleb128 0xf
 2118 089e 25000000 		.4byte	0x25
 2119 08a2 0F       		.uleb128 0xf
 2120 08a3 03080000 		.4byte	0x803
 2121 08a7 0F       		.uleb128 0xf
 2122 08a8 03080000 		.4byte	0x803
 2123 08ac 00       		.byte	0
 2124 08ad 1F       		.uleb128 0x1f
 2125 08ae BB0B0000 		.4byte	.LASF140
 2126 08b2 01       		.byte	0x1
 2127 08b3 12       		.byte	0x12
 2128 08b4 36060000 		.4byte	.LASF142
 2129 08b8 01       		.byte	0x1
 2130 08b9 C1080000 		.4byte	0x8c1
 2131 08bd E0080000 		.4byte	0x8e0
 2132 08c1 1C       		.uleb128 0x1c
 2133 08c2 D80A0000 		.4byte	0xad8
 2134 08c6 0F       		.uleb128 0xf
 2135 08c7 25000000 		.4byte	0x25
 2136 08cb 0F       		.uleb128 0xf
 2137 08cc 03080000 		.4byte	0x803
 2138 08d0 0F       		.uleb128 0xf
 2139 08d1 03080000 		.4byte	0x803
 2140 08d5 0F       		.uleb128 0xf
 2141 08d6 03080000 		.4byte	0x803
 2142 08da 0F       		.uleb128 0xf
 2143 08db 03080000 		.4byte	0x803
 2144 08df 00       		.byte	0
 2145 08e0 1F       		.uleb128 0x1f
 2146 08e1 BB0B0000 		.4byte	.LASF140
 2147 08e5 01       		.byte	0x1
 2148 08e6 28       		.byte	0x28
 2149 08e7 5E080000 		.4byte	.LASF143
 2150 08eb 01       		.byte	0x1
 2151 08ec F4080000 		.4byte	0x8f4
 2152 08f0 0E090000 		.4byte	0x90e
 2153 08f4 1C       		.uleb128 0x1c
 2154 08f5 D80A0000 		.4byte	0xad8
 2155 08f9 0F       		.uleb128 0xf
 2156 08fa 25000000 		.4byte	0x25
 2157 08fe 0F       		.uleb128 0xf
ARM GAS  C:\Users\Luis\AppData\Local\Temp\ccRWYsM4.s 			page 39


 2158 08ff 03080000 		.4byte	0x803
 2159 0903 0F       		.uleb128 0xf
 2160 0904 03080000 		.4byte	0x803
 2161 0908 0F       		.uleb128 0xf
 2162 0909 03080000 		.4byte	0x803
 2163 090d 00       		.byte	0
 2164 090e 20       		.uleb128 0x20
 2165 090f 3A020000 		.4byte	.LASF194
 2166 0913 01       		.byte	0x1
 2167 0914 3D       		.byte	0x3d
 2168 0915 78030000 		.4byte	0x378
 2169 0919 01       		.byte	0x1
 2170 091a 09080000 		.4byte	0x809
 2171 091e 01       		.byte	0x1
 2172 091f 27090000 		.4byte	0x927
 2173 0923 32090000 		.4byte	0x932
 2174 0927 1C       		.uleb128 0x1c
 2175 0928 D80A0000 		.4byte	0xad8
 2176 092c 1C       		.uleb128 0x1c
 2177 092d 25000000 		.4byte	0x25
 2178 0931 00       		.byte	0
 2179 0932 1F       		.uleb128 0x1f
 2180 0933 00000000 		.4byte	.LASF144
 2181 0937 01       		.byte	0x1
 2182 0938 58       		.byte	0x58
 2183 0939 11000000 		.4byte	.LASF145
 2184 093d 01       		.byte	0x1
 2185 093e 46090000 		.4byte	0x946
 2186 0942 51090000 		.4byte	0x951
 2187 0946 1C       		.uleb128 0x1c
 2188 0947 D80A0000 		.4byte	0xad8
 2189 094b 0F       		.uleb128 0xf
 2190 094c 03080000 		.4byte	0x803
 2191 0950 00       		.byte	0
 2192 0951 1F       		.uleb128 0x1f
 2193 0952 910B0000 		.4byte	.LASF146
 2194 0956 01       		.byte	0x1
 2195 0957 45       		.byte	0x45
 2196 0958 4D000000 		.4byte	.LASF147
 2197 095c 01       		.byte	0x1
 2198 095d 65090000 		.4byte	0x965
 2199 0961 6B090000 		.4byte	0x96b
 2200 0965 1C       		.uleb128 0x1c
 2201 0966 D80A0000 		.4byte	0xad8
 2202 096a 00       		.byte	0
 2203 096b 21       		.uleb128 0x21
 2204 096c 1B090000 		.4byte	.LASF152
 2205 0970 01       		.byte	0x1
 2206 0971 5E       		.byte	0x5e
 2207 0972 24080000 		.4byte	.LASF154
 2208 0976 03080000 		.4byte	0x803
 2209 097a 01       		.byte	0x1
 2210 097b 83090000 		.4byte	0x983
 2211 097f 89090000 		.4byte	0x989
 2212 0983 1C       		.uleb128 0x1c
 2213 0984 DE0A0000 		.4byte	0xade
 2214 0988 00       		.byte	0
ARM GAS  C:\Users\Luis\AppData\Local\Temp\ccRWYsM4.s 			page 40


 2215 0989 1F       		.uleb128 0x1f
 2216 098a 7A010000 		.4byte	.LASF148
 2217 098e 01       		.byte	0x1
 2218 098f 62       		.byte	0x62
 2219 0990 3B030000 		.4byte	.LASF149
 2220 0994 01       		.byte	0x1
 2221 0995 9D090000 		.4byte	0x99d
 2222 0999 A8090000 		.4byte	0x9a8
 2223 099d 1C       		.uleb128 0x1c
 2224 099e D80A0000 		.4byte	0xad8
 2225 09a2 0F       		.uleb128 0xf
 2226 09a3 03080000 		.4byte	0x803
 2227 09a7 00       		.byte	0
 2228 09a8 1F       		.uleb128 0x1f
 2229 09a9 5D020000 		.4byte	.LASF150
 2230 09ad 01       		.byte	0x1
 2231 09ae 68       		.byte	0x68
 2232 09af 2C010000 		.4byte	.LASF151
 2233 09b3 01       		.byte	0x1
 2234 09b4 BC090000 		.4byte	0x9bc
 2235 09b8 C7090000 		.4byte	0x9c7
 2236 09bc 1C       		.uleb128 0x1c
 2237 09bd D80A0000 		.4byte	0xad8
 2238 09c1 0F       		.uleb128 0xf
 2239 09c2 03080000 		.4byte	0x803
 2240 09c6 00       		.byte	0
 2241 09c7 21       		.uleb128 0x21
 2242 09c8 62070000 		.4byte	.LASF153
 2243 09cc 01       		.byte	0x1
 2244 09cd 6E       		.byte	0x6e
 2245 09ce 9F040000 		.4byte	.LASF155
 2246 09d2 03080000 		.4byte	0x803
 2247 09d6 01       		.byte	0x1
 2248 09d7 DF090000 		.4byte	0x9df
 2249 09db E5090000 		.4byte	0x9e5
 2250 09df 1C       		.uleb128 0x1c
 2251 09e0 DE0A0000 		.4byte	0xade
 2252 09e4 00       		.byte	0
 2253 09e5 1F       		.uleb128 0x1f
 2254 09e6 4E080000 		.4byte	.LASF156
 2255 09ea 0E       		.byte	0xe
 2256 09eb 5C       		.byte	0x5c
 2257 09ec C0050000 		.4byte	.LASF157
 2258 09f0 01       		.byte	0x1
 2259 09f1 F9090000 		.4byte	0x9f9
 2260 09f5 090A0000 		.4byte	0xa09
 2261 09f9 1C       		.uleb128 0x1c
 2262 09fa D80A0000 		.4byte	0xad8
 2263 09fe 0F       		.uleb128 0xf
 2264 09ff 03080000 		.4byte	0x803
 2265 0a03 0F       		.uleb128 0xf
 2266 0a04 25000000 		.4byte	0x25
 2267 0a08 00       		.byte	0
 2268 0a09 21       		.uleb128 0x21
 2269 0a0a 2B020000 		.4byte	.LASF158
 2270 0a0e 01       		.byte	0x1
 2271 0a0f 72       		.byte	0x72
ARM GAS  C:\Users\Luis\AppData\Local\Temp\ccRWYsM4.s 			page 41


 2272 0a10 8F090000 		.4byte	.LASF159
 2273 0a14 25000000 		.4byte	0x25
 2274 0a18 01       		.byte	0x1
 2275 0a19 210A0000 		.4byte	0xa21
 2276 0a1d 270A0000 		.4byte	0xa27
 2277 0a21 1C       		.uleb128 0x1c
 2278 0a22 DE0A0000 		.4byte	0xade
 2279 0a26 00       		.byte	0
 2280 0a27 1F       		.uleb128 0x1f
 2281 0a28 19040000 		.4byte	.LASF160
 2282 0a2c 01       		.byte	0x1
 2283 0a2d 76       		.byte	0x76
 2284 0a2e 5C0B0000 		.4byte	.LASF161
 2285 0a32 01       		.byte	0x1
 2286 0a33 3B0A0000 		.4byte	0xa3b
 2287 0a37 460A0000 		.4byte	0xa46
 2288 0a3b 1C       		.uleb128 0x1c
 2289 0a3c D80A0000 		.4byte	0xad8
 2290 0a40 0F       		.uleb128 0xf
 2291 0a41 25000000 		.4byte	0x25
 2292 0a45 00       		.byte	0
 2293 0a46 21       		.uleb128 0x21
 2294 0a47 05090000 		.4byte	.LASF162
 2295 0a4b 01       		.byte	0x1
 2296 0a4c 7A       		.byte	0x7a
 2297 0a4d F4020000 		.4byte	.LASF163
 2298 0a51 03080000 		.4byte	0x803
 2299 0a55 01       		.byte	0x1
 2300 0a56 5E0A0000 		.4byte	0xa5e
 2301 0a5a 640A0000 		.4byte	0xa64
 2302 0a5e 1C       		.uleb128 0x1c
 2303 0a5f DE0A0000 		.4byte	0xade
 2304 0a63 00       		.byte	0
 2305 0a64 1F       		.uleb128 0x1f
 2306 0a65 64010000 		.4byte	.LASF164
 2307 0a69 01       		.byte	0x1
 2308 0a6a 7E       		.byte	0x7e
 2309 0a6b A7030000 		.4byte	.LASF165
 2310 0a6f 01       		.byte	0x1
 2311 0a70 780A0000 		.4byte	0xa78
 2312 0a74 830A0000 		.4byte	0xa83
 2313 0a78 1C       		.uleb128 0x1c
 2314 0a79 D80A0000 		.4byte	0xad8
 2315 0a7d 0F       		.uleb128 0xf
 2316 0a7e 03080000 		.4byte	0x803
 2317 0a82 00       		.byte	0
 2318 0a83 1F       		.uleb128 0x1f
 2319 0a84 78020000 		.4byte	.LASF166
 2320 0a88 01       		.byte	0x1
 2321 0a89 84       		.byte	0x84
 2322 0a8a E2010000 		.4byte	.LASF167
 2323 0a8e 01       		.byte	0x1
 2324 0a8f 970A0000 		.4byte	0xa97
 2325 0a93 A20A0000 		.4byte	0xaa2
 2326 0a97 1C       		.uleb128 0x1c
 2327 0a98 D80A0000 		.4byte	0xad8
 2328 0a9c 0F       		.uleb128 0xf
ARM GAS  C:\Users\Luis\AppData\Local\Temp\ccRWYsM4.s 			page 42


 2329 0a9d 03080000 		.4byte	0x803
 2330 0aa1 00       		.byte	0
 2331 0aa2 22       		.uleb128 0x22
 2332 0aa3 49090000 		.4byte	.LASF168
 2333 0aa7 01       		.byte	0x1
 2334 0aa8 8A       		.byte	0x8a
 2335 0aa9 A3080000 		.4byte	.LASF169
 2336 0aad 03080000 		.4byte	0x803
 2337 0ab1 01       		.byte	0x1
 2338 0ab2 B60A0000 		.4byte	0xab6
 2339 0ab6 1C       		.uleb128 0x1c
 2340 0ab7 DE0A0000 		.4byte	0xade
 2341 0abb 00       		.byte	0
 2342 0abc 00       		.byte	0
 2343 0abd 23       		.uleb128 0x23
 2344 0abe 25000000 		.4byte	0x25
 2345 0ac2 C80A0000 		.4byte	0xac8
 2346 0ac6 24       		.uleb128 0x24
 2347 0ac7 00       		.byte	0
 2348 0ac8 0C       		.uleb128 0xc
 2349 0ac9 04       		.byte	0x4
 2350 0aca CE0A0000 		.4byte	0xace
 2351 0ace 25       		.uleb128 0x25
 2352 0acf 04       		.byte	0x4
 2353 0ad0 D7030000 		.4byte	.LASF195
 2354 0ad4 BD0A0000 		.4byte	0xabd
 2355 0ad8 0C       		.uleb128 0xc
 2356 0ad9 04       		.byte	0x4
 2357 0ada 09080000 		.4byte	0x809
 2358 0ade 0C       		.uleb128 0xc
 2359 0adf 04       		.byte	0x4
 2360 0ae0 E40A0000 		.4byte	0xae4
 2361 0ae4 19       		.uleb128 0x19
 2362 0ae5 09080000 		.4byte	0x809
 2363 0ae9 26       		.uleb128 0x26
 2364 0aea 84080000 		.4byte	0x884
 2365 0aee 00000000 		.4byte	.LFB260
 2366 0af2 56000000 		.4byte	.LFE260-.LFB260
 2367 0af6 01       		.uleb128 0x1
 2368 0af7 9C       		.byte	0x9c
 2369 0af8 000B0000 		.4byte	0xb00
 2370 0afc 370B0000 		.4byte	0xb37
 2371 0b00 27       		.uleb128 0x27
 2372 0b01 1E030000 		.4byte	.LASF173
 2373 0b05 370B0000 		.4byte	0xb37
 2374 0b09 02       		.uleb128 0x2
 2375 0b0a 91       		.byte	0x91
 2376 0b0b 74       		.sleb128 -12
 2377 0b0c 28       		.uleb128 0x28
 2378 0b0d A00B0000 		.4byte	.LASF170
 2379 0b11 01       		.byte	0x1
 2380 0b12 03       		.byte	0x3
 2381 0b13 25000000 		.4byte	0x25
 2382 0b17 02       		.uleb128 0x2
 2383 0b18 91       		.byte	0x91
 2384 0b19 70       		.sleb128 -16
 2385 0b1a 28       		.uleb128 0x28
ARM GAS  C:\Users\Luis\AppData\Local\Temp\ccRWYsM4.s 			page 43


 2386 0b1b EF070000 		.4byte	.LASF171
 2387 0b1f 01       		.byte	0x1
 2388 0b20 03       		.byte	0x3
 2389 0b21 03080000 		.4byte	0x803
 2390 0b25 02       		.uleb128 0x2
 2391 0b26 91       		.byte	0x91
 2392 0b27 6C       		.sleb128 -20
 2393 0b28 28       		.uleb128 0x28
 2394 0b29 A6070000 		.4byte	.LASF172
 2395 0b2d 01       		.byte	0x1
 2396 0b2e 04       		.byte	0x4
 2397 0b2f 03080000 		.4byte	0x803
 2398 0b33 02       		.uleb128 0x2
 2399 0b34 91       		.byte	0x91
 2400 0b35 68       		.sleb128 -24
 2401 0b36 00       		.byte	0
 2402 0b37 19       		.uleb128 0x19
 2403 0b38 D80A0000 		.4byte	0xad8
 2404 0b3c 26       		.uleb128 0x26
 2405 0b3d AD080000 		.4byte	0x8ad
 2406 0b41 00000000 		.4byte	.LFB261
 2407 0b45 8E000000 		.4byte	.LFE261-.LFB261
 2408 0b49 01       		.uleb128 0x1
 2409 0b4a 9C       		.byte	0x9c
 2410 0b4b 530B0000 		.4byte	0xb53
 2411 0b4f A60B0000 		.4byte	0xba6
 2412 0b53 27       		.uleb128 0x27
 2413 0b54 1E030000 		.4byte	.LASF173
 2414 0b58 370B0000 		.4byte	0xb37
 2415 0b5c 02       		.uleb128 0x2
 2416 0b5d 91       		.byte	0x91
 2417 0b5e 74       		.sleb128 -12
 2418 0b5f 28       		.uleb128 0x28
 2419 0b60 A00B0000 		.4byte	.LASF170
 2420 0b64 01       		.byte	0x1
 2421 0b65 12       		.byte	0x12
 2422 0b66 25000000 		.4byte	0x25
 2423 0b6a 02       		.uleb128 0x2
 2424 0b6b 91       		.byte	0x91
 2425 0b6c 70       		.sleb128 -16
 2426 0b6d 28       		.uleb128 0x28
 2427 0b6e EF070000 		.4byte	.LASF171
 2428 0b72 01       		.byte	0x1
 2429 0b73 12       		.byte	0x12
 2430 0b74 03080000 		.4byte	0x803
 2431 0b78 02       		.uleb128 0x2
 2432 0b79 91       		.byte	0x91
 2433 0b7a 6C       		.sleb128 -20
 2434 0b7b 28       		.uleb128 0x28
 2435 0b7c A6070000 		.4byte	.LASF172
 2436 0b80 01       		.byte	0x1
 2437 0b81 13       		.byte	0x13
 2438 0b82 03080000 		.4byte	0x803
 2439 0b86 02       		.uleb128 0x2
 2440 0b87 91       		.byte	0x91
 2441 0b88 68       		.sleb128 -24
 2442 0b89 28       		.uleb128 0x28
ARM GAS  C:\Users\Luis\AppData\Local\Temp\ccRWYsM4.s 			page 44


 2443 0b8a FD070000 		.4byte	.LASF174
 2444 0b8e 01       		.byte	0x1
 2445 0b8f 13       		.byte	0x13
 2446 0b90 03080000 		.4byte	0x803
 2447 0b94 02       		.uleb128 0x2
 2448 0b95 91       		.byte	0x91
 2449 0b96 00       		.sleb128 0
 2450 0b97 28       		.uleb128 0x28
 2451 0b98 92070000 		.4byte	.LASF175
 2452 0b9c 01       		.byte	0x1
 2453 0b9d 14       		.byte	0x14
 2454 0b9e 03080000 		.4byte	0x803
 2455 0ba2 02       		.uleb128 0x2
 2456 0ba3 91       		.byte	0x91
 2457 0ba4 04       		.sleb128 4
 2458 0ba5 00       		.byte	0
 2459 0ba6 26       		.uleb128 0x26
 2460 0ba7 E0080000 		.4byte	0x8e0
 2461 0bab 00000000 		.4byte	.LFB262
 2462 0baf 8C000000 		.4byte	.LFE262-.LFB262
 2463 0bb3 01       		.uleb128 0x1
 2464 0bb4 9C       		.byte	0x9c
 2465 0bb5 BD0B0000 		.4byte	0xbbd
 2466 0bb9 020C0000 		.4byte	0xc02
 2467 0bbd 27       		.uleb128 0x27
 2468 0bbe 1E030000 		.4byte	.LASF173
 2469 0bc2 370B0000 		.4byte	0xb37
 2470 0bc6 02       		.uleb128 0x2
 2471 0bc7 91       		.byte	0x91
 2472 0bc8 74       		.sleb128 -12
 2473 0bc9 28       		.uleb128 0x28
 2474 0bca A00B0000 		.4byte	.LASF170
 2475 0bce 01       		.byte	0x1
 2476 0bcf 28       		.byte	0x28
 2477 0bd0 25000000 		.4byte	0x25
 2478 0bd4 02       		.uleb128 0x2
 2479 0bd5 91       		.byte	0x91
 2480 0bd6 70       		.sleb128 -16
 2481 0bd7 28       		.uleb128 0x28
 2482 0bd8 EF070000 		.4byte	.LASF171
 2483 0bdc 01       		.byte	0x1
 2484 0bdd 28       		.byte	0x28
 2485 0bde 03080000 		.4byte	0x803
 2486 0be2 02       		.uleb128 0x2
 2487 0be3 91       		.byte	0x91
 2488 0be4 6C       		.sleb128 -20
 2489 0be5 28       		.uleb128 0x28
 2490 0be6 A6070000 		.4byte	.LASF172
 2491 0bea 01       		.byte	0x1
 2492 0beb 29       		.byte	0x29
 2493 0bec 03080000 		.4byte	0x803
 2494 0bf0 02       		.uleb128 0x2
 2495 0bf1 91       		.byte	0x91
 2496 0bf2 68       		.sleb128 -24
 2497 0bf3 28       		.uleb128 0x28
 2498 0bf4 92070000 		.4byte	.LASF175
 2499 0bf8 01       		.byte	0x1
ARM GAS  C:\Users\Luis\AppData\Local\Temp\ccRWYsM4.s 			page 45


 2500 0bf9 29       		.byte	0x29
 2501 0bfa 03080000 		.4byte	0x803
 2502 0bfe 02       		.uleb128 0x2
 2503 0bff 91       		.byte	0x91
 2504 0c00 00       		.sleb128 0
 2505 0c01 00       		.byte	0
 2506 0c02 29       		.uleb128 0x29
 2507 0c03 0E090000 		.4byte	0x90e
 2508 0c07 00       		.byte	0
 2509 0c08 100C0000 		.4byte	0xc10
 2510 0c0c 230C0000 		.4byte	0xc23
 2511 0c10 2A       		.uleb128 0x2a
 2512 0c11 1E030000 		.4byte	.LASF173
 2513 0c15 370B0000 		.4byte	0xb37
 2514 0c19 2A       		.uleb128 0x2a
 2515 0c1a 43000000 		.4byte	.LASF176
 2516 0c1e 230C0000 		.4byte	0xc23
 2517 0c22 00       		.byte	0
 2518 0c23 19       		.uleb128 0x19
 2519 0c24 25000000 		.4byte	0x25
 2520 0c28 2B       		.uleb128 0x2b
 2521 0c29 020C0000 		.4byte	0xc02
 2522 0c2d E4080000 		.4byte	.LASF177
 2523 0c31 00000000 		.4byte	.LFB264
 2524 0c35 50000000 		.4byte	.LFE264-.LFB264
 2525 0c39 01       		.uleb128 0x1
 2526 0c3a 9C       		.byte	0x9c
 2527 0c3b 430C0000 		.4byte	0xc43
 2528 0c3f 4C0C0000 		.4byte	0xc4c
 2529 0c43 2C       		.uleb128 0x2c
 2530 0c44 100C0000 		.4byte	0xc10
 2531 0c48 02       		.uleb128 0x2
 2532 0c49 91       		.byte	0x91
 2533 0c4a 74       		.sleb128 -12
 2534 0c4b 00       		.byte	0
 2535 0c4c 2B       		.uleb128 0x2b
 2536 0c4d 020C0000 		.4byte	0xc02
 2537 0c51 250A0000 		.4byte	.LASF178
 2538 0c55 00000000 		.4byte	.LFB266
 2539 0c59 1E000000 		.4byte	.LFE266-.LFB266
 2540 0c5d 01       		.uleb128 0x1
 2541 0c5e 9C       		.byte	0x9c
 2542 0c5f 670C0000 		.4byte	0xc67
 2543 0c63 700C0000 		.4byte	0xc70
 2544 0c67 2C       		.uleb128 0x2c
 2545 0c68 100C0000 		.4byte	0xc10
 2546 0c6c 02       		.uleb128 0x2
 2547 0c6d 91       		.byte	0x91
 2548 0c6e 74       		.sleb128 -12
 2549 0c6f 00       		.byte	0
 2550 0c70 26       		.uleb128 0x26
 2551 0c71 51090000 		.4byte	0x951
 2552 0c75 00000000 		.4byte	.LFB267
 2553 0c79 9A000000 		.4byte	.LFE267-.LFB267
 2554 0c7d 01       		.uleb128 0x1
 2555 0c7e 9C       		.byte	0x9c
 2556 0c7f 870C0000 		.4byte	0xc87
ARM GAS  C:\Users\Luis\AppData\Local\Temp\ccRWYsM4.s 			page 46


 2557 0c83 C80C0000 		.4byte	0xcc8
 2558 0c87 27       		.uleb128 0x27
 2559 0c88 1E030000 		.4byte	.LASF173
 2560 0c8c 370B0000 		.4byte	0xb37
 2561 0c90 02       		.uleb128 0x2
 2562 0c91 91       		.byte	0x91
 2563 0c92 64       		.sleb128 -28
 2564 0c93 2D       		.uleb128 0x2d
 2565 0c94 08000000 		.4byte	.LBB3
 2566 0c98 8C000000 		.4byte	.LBE3-.LBB3
 2567 0c9c 2E       		.uleb128 0x2e
 2568 0c9d 33030000 		.4byte	.LASF179
 2569 0ca1 01       		.byte	0x1
 2570 0ca2 49       		.byte	0x49
 2571 0ca3 F6070000 		.4byte	0x7f6
 2572 0ca7 02       		.uleb128 0x2
 2573 0ca8 91       		.byte	0x91
 2574 0ca9 74       		.sleb128 -12
 2575 0caa 2E       		.uleb128 0x2e
 2576 0cab 190B0000 		.4byte	.LASF180
 2577 0caf 01       		.byte	0x1
 2578 0cb0 4A       		.byte	0x4a
 2579 0cb1 F6070000 		.4byte	0x7f6
 2580 0cb5 02       		.uleb128 0x2
 2581 0cb6 91       		.byte	0x91
 2582 0cb7 70       		.sleb128 -16
 2583 0cb8 2E       		.uleb128 0x2e
 2584 0cb9 D7040000 		.4byte	.LASF181
 2585 0cbd 01       		.byte	0x1
 2586 0cbe 4B       		.byte	0x4b
 2587 0cbf F6070000 		.4byte	0x7f6
 2588 0cc3 02       		.uleb128 0x2
 2589 0cc4 91       		.byte	0x91
 2590 0cc5 6C       		.sleb128 -20
 2591 0cc6 00       		.byte	0
 2592 0cc7 00       		.byte	0
 2593 0cc8 2F       		.uleb128 0x2f
 2594 0cc9 32090000 		.4byte	0x932
 2595 0ccd 00000000 		.4byte	.LFB268
 2596 0cd1 4C000000 		.4byte	.LFE268-.LFB268
 2597 0cd5 01       		.uleb128 0x1
 2598 0cd6 9C       		.byte	0x9c
 2599 0cd7 DF0C0000 		.4byte	0xcdf
 2600 0cdb FA0C0000 		.4byte	0xcfa
 2601 0cdf 27       		.uleb128 0x27
 2602 0ce0 1E030000 		.4byte	.LASF173
 2603 0ce4 370B0000 		.4byte	0xb37
 2604 0ce8 02       		.uleb128 0x2
 2605 0ce9 91       		.byte	0x91
 2606 0cea 74       		.sleb128 -12
 2607 0ceb 28       		.uleb128 0x28
 2608 0cec A6010000 		.4byte	.LASF182
 2609 0cf0 01       		.byte	0x1
 2610 0cf1 58       		.byte	0x58
 2611 0cf2 03080000 		.4byte	0x803
 2612 0cf6 02       		.uleb128 0x2
 2613 0cf7 91       		.byte	0x91
ARM GAS  C:\Users\Luis\AppData\Local\Temp\ccRWYsM4.s 			page 47


 2614 0cf8 70       		.sleb128 -16
 2615 0cf9 00       		.byte	0
 2616 0cfa 2F       		.uleb128 0x2f
 2617 0cfb 6B090000 		.4byte	0x96b
 2618 0cff 00000000 		.4byte	.LFB269
 2619 0d03 18000000 		.4byte	.LFE269-.LFB269
 2620 0d07 01       		.uleb128 0x1
 2621 0d08 9C       		.byte	0x9c
 2622 0d09 110D0000 		.4byte	0xd11
 2623 0d0d 1E0D0000 		.4byte	0xd1e
 2624 0d11 27       		.uleb128 0x27
 2625 0d12 1E030000 		.4byte	.LASF173
 2626 0d16 1E0D0000 		.4byte	0xd1e
 2627 0d1a 02       		.uleb128 0x2
 2628 0d1b 91       		.byte	0x91
 2629 0d1c 74       		.sleb128 -12
 2630 0d1d 00       		.byte	0
 2631 0d1e 19       		.uleb128 0x19
 2632 0d1f DE0A0000 		.4byte	0xade
 2633 0d23 2F       		.uleb128 0x2f
 2634 0d24 89090000 		.4byte	0x989
 2635 0d28 00000000 		.4byte	.LFB270
 2636 0d2c 4E000000 		.4byte	.LFE270-.LFB270
 2637 0d30 01       		.uleb128 0x1
 2638 0d31 9C       		.byte	0x9c
 2639 0d32 3A0D0000 		.4byte	0xd3a
 2640 0d36 550D0000 		.4byte	0xd55
 2641 0d3a 27       		.uleb128 0x27
 2642 0d3b 1E030000 		.4byte	.LASF173
 2643 0d3f 370B0000 		.4byte	0xb37
 2644 0d43 02       		.uleb128 0x2
 2645 0d44 91       		.byte	0x91
 2646 0d45 74       		.sleb128 -12
 2647 0d46 28       		.uleb128 0x28
 2648 0d47 A6070000 		.4byte	.LASF172
 2649 0d4b 01       		.byte	0x1
 2650 0d4c 62       		.byte	0x62
 2651 0d4d 03080000 		.4byte	0x803
 2652 0d51 02       		.uleb128 0x2
 2653 0d52 91       		.byte	0x91
 2654 0d53 70       		.sleb128 -16
 2655 0d54 00       		.byte	0
 2656 0d55 2F       		.uleb128 0x2f
 2657 0d56 A8090000 		.4byte	0x9a8
 2658 0d5a 00000000 		.4byte	.LFB271
 2659 0d5e 4C000000 		.4byte	.LFE271-.LFB271
 2660 0d62 01       		.uleb128 0x1
 2661 0d63 9C       		.byte	0x9c
 2662 0d64 6C0D0000 		.4byte	0xd6c
 2663 0d68 870D0000 		.4byte	0xd87
 2664 0d6c 27       		.uleb128 0x27
 2665 0d6d 1E030000 		.4byte	.LASF173
 2666 0d71 370B0000 		.4byte	0xb37
 2667 0d75 02       		.uleb128 0x2
 2668 0d76 91       		.byte	0x91
 2669 0d77 74       		.sleb128 -12
 2670 0d78 28       		.uleb128 0x28
ARM GAS  C:\Users\Luis\AppData\Local\Temp\ccRWYsM4.s 			page 48


 2671 0d79 C3010000 		.4byte	.LASF183
 2672 0d7d 01       		.byte	0x1
 2673 0d7e 68       		.byte	0x68
 2674 0d7f 03080000 		.4byte	0x803
 2675 0d83 02       		.uleb128 0x2
 2676 0d84 91       		.byte	0x91
 2677 0d85 70       		.sleb128 -16
 2678 0d86 00       		.byte	0
 2679 0d87 2F       		.uleb128 0x2f
 2680 0d88 C7090000 		.4byte	0x9c7
 2681 0d8c 00000000 		.4byte	.LFB272
 2682 0d90 18000000 		.4byte	.LFE272-.LFB272
 2683 0d94 01       		.uleb128 0x1
 2684 0d95 9C       		.byte	0x9c
 2685 0d96 9E0D0000 		.4byte	0xd9e
 2686 0d9a AB0D0000 		.4byte	0xdab
 2687 0d9e 27       		.uleb128 0x27
 2688 0d9f 1E030000 		.4byte	.LASF173
 2689 0da3 1E0D0000 		.4byte	0xd1e
 2690 0da7 02       		.uleb128 0x2
 2691 0da8 91       		.byte	0x91
 2692 0da9 74       		.sleb128 -12
 2693 0daa 00       		.byte	0
 2694 0dab 2F       		.uleb128 0x2f
 2695 0dac 090A0000 		.4byte	0xa09
 2696 0db0 00000000 		.4byte	.LFB273
 2697 0db4 18000000 		.4byte	.LFE273-.LFB273
 2698 0db8 01       		.uleb128 0x1
 2699 0db9 9C       		.byte	0x9c
 2700 0dba C20D0000 		.4byte	0xdc2
 2701 0dbe CF0D0000 		.4byte	0xdcf
 2702 0dc2 27       		.uleb128 0x27
 2703 0dc3 1E030000 		.4byte	.LASF173
 2704 0dc7 1E0D0000 		.4byte	0xd1e
 2705 0dcb 02       		.uleb128 0x2
 2706 0dcc 91       		.byte	0x91
 2707 0dcd 74       		.sleb128 -12
 2708 0dce 00       		.byte	0
 2709 0dcf 2F       		.uleb128 0x2f
 2710 0dd0 270A0000 		.4byte	0xa27
 2711 0dd4 00000000 		.4byte	.LFB274
 2712 0dd8 1A000000 		.4byte	.LFE274-.LFB274
 2713 0ddc 01       		.uleb128 0x1
 2714 0ddd 9C       		.byte	0x9c
 2715 0dde E60D0000 		.4byte	0xde6
 2716 0de2 010E0000 		.4byte	0xe01
 2717 0de6 27       		.uleb128 0x27
 2718 0de7 1E030000 		.4byte	.LASF173
 2719 0deb 370B0000 		.4byte	0xb37
 2720 0def 02       		.uleb128 0x2
 2721 0df0 91       		.byte	0x91
 2722 0df1 74       		.sleb128 -12
 2723 0df2 28       		.uleb128 0x28
 2724 0df3 A00B0000 		.4byte	.LASF170
 2725 0df7 01       		.byte	0x1
 2726 0df8 76       		.byte	0x76
 2727 0df9 25000000 		.4byte	0x25
ARM GAS  C:\Users\Luis\AppData\Local\Temp\ccRWYsM4.s 			page 49


 2728 0dfd 02       		.uleb128 0x2
 2729 0dfe 91       		.byte	0x91
 2730 0dff 70       		.sleb128 -16
 2731 0e00 00       		.byte	0
 2732 0e01 2F       		.uleb128 0x2f
 2733 0e02 460A0000 		.4byte	0xa46
 2734 0e06 00000000 		.4byte	.LFB275
 2735 0e0a 18000000 		.4byte	.LFE275-.LFB275
 2736 0e0e 01       		.uleb128 0x1
 2737 0e0f 9C       		.byte	0x9c
 2738 0e10 180E0000 		.4byte	0xe18
 2739 0e14 250E0000 		.4byte	0xe25
 2740 0e18 27       		.uleb128 0x27
 2741 0e19 1E030000 		.4byte	.LASF173
 2742 0e1d 1E0D0000 		.4byte	0xd1e
 2743 0e21 02       		.uleb128 0x2
 2744 0e22 91       		.byte	0x91
 2745 0e23 74       		.sleb128 -12
 2746 0e24 00       		.byte	0
 2747 0e25 2F       		.uleb128 0x2f
 2748 0e26 640A0000 		.4byte	0xa64
 2749 0e2a 00000000 		.4byte	.LFB276
 2750 0e2e 4E000000 		.4byte	.LFE276-.LFB276
 2751 0e32 01       		.uleb128 0x1
 2752 0e33 9C       		.byte	0x9c
 2753 0e34 3C0E0000 		.4byte	0xe3c
 2754 0e38 570E0000 		.4byte	0xe57
 2755 0e3c 27       		.uleb128 0x27
 2756 0e3d 1E030000 		.4byte	.LASF173
 2757 0e41 370B0000 		.4byte	0xb37
 2758 0e45 02       		.uleb128 0x2
 2759 0e46 91       		.byte	0x91
 2760 0e47 74       		.sleb128 -12
 2761 0e48 28       		.uleb128 0x28
 2762 0e49 E7000000 		.4byte	.LASF184
 2763 0e4d 01       		.byte	0x1
 2764 0e4e 7E       		.byte	0x7e
 2765 0e4f 03080000 		.4byte	0x803
 2766 0e53 02       		.uleb128 0x2
 2767 0e54 91       		.byte	0x91
 2768 0e55 70       		.sleb128 -16
 2769 0e56 00       		.byte	0
 2770 0e57 2F       		.uleb128 0x2f
 2771 0e58 830A0000 		.4byte	0xa83
 2772 0e5c 00000000 		.4byte	.LFB277
 2773 0e60 4C000000 		.4byte	.LFE277-.LFB277
 2774 0e64 01       		.uleb128 0x1
 2775 0e65 9C       		.byte	0x9c
 2776 0e66 6E0E0000 		.4byte	0xe6e
 2777 0e6a 890E0000 		.4byte	0xe89
 2778 0e6e 27       		.uleb128 0x27
 2779 0e6f 1E030000 		.4byte	.LASF173
 2780 0e73 370B0000 		.4byte	0xb37
 2781 0e77 02       		.uleb128 0x2
 2782 0e78 91       		.byte	0x91
 2783 0e79 74       		.sleb128 -12
 2784 0e7a 28       		.uleb128 0x28
ARM GAS  C:\Users\Luis\AppData\Local\Temp\ccRWYsM4.s 			page 50


 2785 0e7b E7040000 		.4byte	.LASF185
 2786 0e7f 01       		.byte	0x1
 2787 0e80 84       		.byte	0x84
 2788 0e81 03080000 		.4byte	0x803
 2789 0e85 02       		.uleb128 0x2
 2790 0e86 91       		.byte	0x91
 2791 0e87 70       		.sleb128 -16
 2792 0e88 00       		.byte	0
 2793 0e89 2F       		.uleb128 0x2f
 2794 0e8a A20A0000 		.4byte	0xaa2
 2795 0e8e 00000000 		.4byte	.LFB278
 2796 0e92 18000000 		.4byte	.LFE278-.LFB278
 2797 0e96 01       		.uleb128 0x1
 2798 0e97 9C       		.byte	0x9c
 2799 0e98 A00E0000 		.4byte	0xea0
 2800 0e9c AD0E0000 		.4byte	0xead
 2801 0ea0 27       		.uleb128 0x27
 2802 0ea1 1E030000 		.4byte	.LASF173
 2803 0ea5 1E0D0000 		.4byte	0xd1e
 2804 0ea9 02       		.uleb128 0x2
 2805 0eaa 91       		.byte	0x91
 2806 0eab 74       		.sleb128 -12
 2807 0eac 00       		.byte	0
 2808 0ead 30       		.uleb128 0x30
 2809 0eae AD010000 		.4byte	.LASF186
 2810 0eb2 0F       		.byte	0xf
 2811 0eb3 A706     		.2byte	0x6a7
 2812 0eb5 97000000 		.4byte	0x97
 2813 0eb9 31       		.uleb128 0x31
 2814 0eba 636800   		.ascii	"ch\000"
 2815 0ebd 05       		.byte	0x5
 2816 0ebe 0902     		.2byte	0x209
 2817 0ec0 6F040000 		.4byte	0x46f
 2818 0ec4 00       		.byte	0
 2819              		.section	.debug_abbrev,"",%progbits
 2820              	.Ldebug_abbrev0:
 2821 0000 01       		.uleb128 0x1
 2822 0001 11       		.uleb128 0x11
 2823 0002 01       		.byte	0x1
 2824 0003 25       		.uleb128 0x25
 2825 0004 0E       		.uleb128 0xe
 2826 0005 13       		.uleb128 0x13
 2827 0006 0B       		.uleb128 0xb
 2828 0007 03       		.uleb128 0x3
 2829 0008 0E       		.uleb128 0xe
 2830 0009 1B       		.uleb128 0x1b
 2831 000a 0E       		.uleb128 0xe
 2832 000b 55       		.uleb128 0x55
 2833 000c 17       		.uleb128 0x17
 2834 000d 11       		.uleb128 0x11
 2835 000e 01       		.uleb128 0x1
 2836 000f 10       		.uleb128 0x10
 2837 0010 17       		.uleb128 0x17
 2838 0011 00       		.byte	0
 2839 0012 00       		.byte	0
 2840 0013 02       		.uleb128 0x2
 2841 0014 24       		.uleb128 0x24
ARM GAS  C:\Users\Luis\AppData\Local\Temp\ccRWYsM4.s 			page 51


 2842 0015 00       		.byte	0
 2843 0016 0B       		.uleb128 0xb
 2844 0017 0B       		.uleb128 0xb
 2845 0018 3E       		.uleb128 0x3e
 2846 0019 0B       		.uleb128 0xb
 2847 001a 03       		.uleb128 0x3
 2848 001b 08       		.uleb128 0x8
 2849 001c 00       		.byte	0
 2850 001d 00       		.byte	0
 2851 001e 03       		.uleb128 0x3
 2852 001f 24       		.uleb128 0x24
 2853 0020 00       		.byte	0
 2854 0021 0B       		.uleb128 0xb
 2855 0022 0B       		.uleb128 0xb
 2856 0023 3E       		.uleb128 0x3e
 2857 0024 0B       		.uleb128 0xb
 2858 0025 03       		.uleb128 0x3
 2859 0026 0E       		.uleb128 0xe
 2860 0027 00       		.byte	0
 2861 0028 00       		.byte	0
 2862 0029 04       		.uleb128 0x4
 2863 002a 16       		.uleb128 0x16
 2864 002b 00       		.byte	0
 2865 002c 03       		.uleb128 0x3
 2866 002d 0E       		.uleb128 0xe
 2867 002e 3A       		.uleb128 0x3a
 2868 002f 0B       		.uleb128 0xb
 2869 0030 3B       		.uleb128 0x3b
 2870 0031 0B       		.uleb128 0xb
 2871 0032 49       		.uleb128 0x49
 2872 0033 13       		.uleb128 0x13
 2873 0034 00       		.byte	0
 2874 0035 00       		.byte	0
 2875 0036 05       		.uleb128 0x5
 2876 0037 35       		.uleb128 0x35
 2877 0038 00       		.byte	0
 2878 0039 49       		.uleb128 0x49
 2879 003a 13       		.uleb128 0x13
 2880 003b 00       		.byte	0
 2881 003c 00       		.byte	0
 2882 003d 06       		.uleb128 0x6
 2883 003e 13       		.uleb128 0x13
 2884 003f 01       		.byte	0x1
 2885 0040 03       		.uleb128 0x3
 2886 0041 0E       		.uleb128 0xe
 2887 0042 0B       		.uleb128 0xb
 2888 0043 0B       		.uleb128 0xb
 2889 0044 3A       		.uleb128 0x3a
 2890 0045 0B       		.uleb128 0xb
 2891 0046 3B       		.uleb128 0x3b
 2892 0047 0B       		.uleb128 0xb
 2893 0048 01       		.uleb128 0x1
 2894 0049 13       		.uleb128 0x13
 2895 004a 00       		.byte	0
 2896 004b 00       		.byte	0
 2897 004c 07       		.uleb128 0x7
 2898 004d 17       		.uleb128 0x17
ARM GAS  C:\Users\Luis\AppData\Local\Temp\ccRWYsM4.s 			page 52


 2899 004e 01       		.byte	0x1
 2900 004f 0B       		.uleb128 0xb
 2901 0050 0B       		.uleb128 0xb
 2902 0051 3A       		.uleb128 0x3a
 2903 0052 0B       		.uleb128 0xb
 2904 0053 3B       		.uleb128 0x3b
 2905 0054 0B       		.uleb128 0xb
 2906 0055 01       		.uleb128 0x1
 2907 0056 13       		.uleb128 0x13
 2908 0057 00       		.byte	0
 2909 0058 00       		.byte	0
 2910 0059 08       		.uleb128 0x8
 2911 005a 0D       		.uleb128 0xd
 2912 005b 00       		.byte	0
 2913 005c 03       		.uleb128 0x3
 2914 005d 0E       		.uleb128 0xe
 2915 005e 3A       		.uleb128 0x3a
 2916 005f 0B       		.uleb128 0xb
 2917 0060 3B       		.uleb128 0x3b
 2918 0061 05       		.uleb128 0x5
 2919 0062 49       		.uleb128 0x49
 2920 0063 13       		.uleb128 0x13
 2921 0064 00       		.byte	0
 2922 0065 00       		.byte	0
 2923 0066 09       		.uleb128 0x9
 2924 0067 0D       		.uleb128 0xd
 2925 0068 00       		.byte	0
 2926 0069 03       		.uleb128 0x3
 2927 006a 0E       		.uleb128 0xe
 2928 006b 3A       		.uleb128 0x3a
 2929 006c 0B       		.uleb128 0xb
 2930 006d 3B       		.uleb128 0x3b
 2931 006e 0B       		.uleb128 0xb
 2932 006f 49       		.uleb128 0x49
 2933 0070 13       		.uleb128 0x13
 2934 0071 38       		.uleb128 0x38
 2935 0072 0B       		.uleb128 0xb
 2936 0073 00       		.byte	0
 2937 0074 00       		.byte	0
 2938 0075 0A       		.uleb128 0xa
 2939 0076 0D       		.uleb128 0xd
 2940 0077 00       		.byte	0
 2941 0078 03       		.uleb128 0x3
 2942 0079 08       		.uleb128 0x8
 2943 007a 3A       		.uleb128 0x3a
 2944 007b 0B       		.uleb128 0xb
 2945 007c 3B       		.uleb128 0x3b
 2946 007d 05       		.uleb128 0x5
 2947 007e 49       		.uleb128 0x49
 2948 007f 13       		.uleb128 0x13
 2949 0080 38       		.uleb128 0x38
 2950 0081 0B       		.uleb128 0xb
 2951 0082 00       		.byte	0
 2952 0083 00       		.byte	0
 2953 0084 0B       		.uleb128 0xb
 2954 0085 0D       		.uleb128 0xd
 2955 0086 00       		.byte	0
ARM GAS  C:\Users\Luis\AppData\Local\Temp\ccRWYsM4.s 			page 53


 2956 0087 03       		.uleb128 0x3
 2957 0088 0E       		.uleb128 0xe
 2958 0089 3A       		.uleb128 0x3a
 2959 008a 0B       		.uleb128 0xb
 2960 008b 3B       		.uleb128 0x3b
 2961 008c 05       		.uleb128 0x5
 2962 008d 49       		.uleb128 0x49
 2963 008e 13       		.uleb128 0x13
 2964 008f 38       		.uleb128 0x38
 2965 0090 0B       		.uleb128 0xb
 2966 0091 00       		.byte	0
 2967 0092 00       		.byte	0
 2968 0093 0C       		.uleb128 0xc
 2969 0094 0F       		.uleb128 0xf
 2970 0095 00       		.byte	0
 2971 0096 0B       		.uleb128 0xb
 2972 0097 0B       		.uleb128 0xb
 2973 0098 49       		.uleb128 0x49
 2974 0099 13       		.uleb128 0x13
 2975 009a 00       		.byte	0
 2976 009b 00       		.byte	0
 2977 009c 0D       		.uleb128 0xd
 2978 009d 13       		.uleb128 0x13
 2979 009e 01       		.byte	0x1
 2980 009f 03       		.uleb128 0x3
 2981 00a0 0E       		.uleb128 0xe
 2982 00a1 0B       		.uleb128 0xb
 2983 00a2 0B       		.uleb128 0xb
 2984 00a3 3A       		.uleb128 0x3a
 2985 00a4 0B       		.uleb128 0xb
 2986 00a5 3B       		.uleb128 0x3b
 2987 00a6 05       		.uleb128 0x5
 2988 00a7 01       		.uleb128 0x1
 2989 00a8 13       		.uleb128 0x13
 2990 00a9 00       		.byte	0
 2991 00aa 00       		.byte	0
 2992 00ab 0E       		.uleb128 0xe
 2993 00ac 15       		.uleb128 0x15
 2994 00ad 01       		.byte	0x1
 2995 00ae 01       		.uleb128 0x1
 2996 00af 13       		.uleb128 0x13
 2997 00b0 00       		.byte	0
 2998 00b1 00       		.byte	0
 2999 00b2 0F       		.uleb128 0xf
 3000 00b3 05       		.uleb128 0x5
 3001 00b4 00       		.byte	0
 3002 00b5 49       		.uleb128 0x49
 3003 00b6 13       		.uleb128 0x13
 3004 00b7 00       		.byte	0
 3005 00b8 00       		.byte	0
 3006 00b9 10       		.uleb128 0x10
 3007 00ba 0F       		.uleb128 0xf
 3008 00bb 00       		.byte	0
 3009 00bc 0B       		.uleb128 0xb
 3010 00bd 0B       		.uleb128 0xb
 3011 00be 00       		.byte	0
 3012 00bf 00       		.byte	0
ARM GAS  C:\Users\Luis\AppData\Local\Temp\ccRWYsM4.s 			page 54


 3013 00c0 11       		.uleb128 0x11
 3014 00c1 13       		.uleb128 0x13
 3015 00c2 01       		.byte	0x1
 3016 00c3 03       		.uleb128 0x3
 3017 00c4 0E       		.uleb128 0xe
 3018 00c5 0B       		.uleb128 0xb
 3019 00c6 05       		.uleb128 0x5
 3020 00c7 3A       		.uleb128 0x3a
 3021 00c8 0B       		.uleb128 0xb
 3022 00c9 3B       		.uleb128 0x3b
 3023 00ca 05       		.uleb128 0x5
 3024 00cb 01       		.uleb128 0x1
 3025 00cc 13       		.uleb128 0x13
 3026 00cd 00       		.byte	0
 3027 00ce 00       		.byte	0
 3028 00cf 12       		.uleb128 0x12
 3029 00d0 0D       		.uleb128 0xd
 3030 00d1 00       		.byte	0
 3031 00d2 03       		.uleb128 0x3
 3032 00d3 0E       		.uleb128 0xe
 3033 00d4 3A       		.uleb128 0x3a
 3034 00d5 0B       		.uleb128 0xb
 3035 00d6 3B       		.uleb128 0x3b
 3036 00d7 05       		.uleb128 0x5
 3037 00d8 49       		.uleb128 0x49
 3038 00d9 13       		.uleb128 0x13
 3039 00da 38       		.uleb128 0x38
 3040 00db 05       		.uleb128 0x5
 3041 00dc 00       		.byte	0
 3042 00dd 00       		.byte	0
 3043 00de 13       		.uleb128 0x13
 3044 00df 0D       		.uleb128 0xd
 3045 00e0 00       		.byte	0
 3046 00e1 03       		.uleb128 0x3
 3047 00e2 08       		.uleb128 0x8
 3048 00e3 3A       		.uleb128 0x3a
 3049 00e4 0B       		.uleb128 0xb
 3050 00e5 3B       		.uleb128 0x3b
 3051 00e6 05       		.uleb128 0x5
 3052 00e7 49       		.uleb128 0x49
 3053 00e8 13       		.uleb128 0x13
 3054 00e9 38       		.uleb128 0x38
 3055 00ea 05       		.uleb128 0x5
 3056 00eb 00       		.byte	0
 3057 00ec 00       		.byte	0
 3058 00ed 14       		.uleb128 0x14
 3059 00ee 0D       		.uleb128 0xd
 3060 00ef 00       		.byte	0
 3061 00f0 03       		.uleb128 0x3
 3062 00f1 08       		.uleb128 0x8
 3063 00f2 3A       		.uleb128 0x3a
 3064 00f3 0B       		.uleb128 0xb
 3065 00f4 3B       		.uleb128 0x3b
 3066 00f5 0B       		.uleb128 0xb
 3067 00f6 49       		.uleb128 0x49
 3068 00f7 13       		.uleb128 0x13
 3069 00f8 38       		.uleb128 0x38
ARM GAS  C:\Users\Luis\AppData\Local\Temp\ccRWYsM4.s 			page 55


 3070 00f9 0B       		.uleb128 0xb
 3071 00fa 00       		.byte	0
 3072 00fb 00       		.byte	0
 3073 00fc 15       		.uleb128 0x15
 3074 00fd 13       		.uleb128 0x13
 3075 00fe 01       		.byte	0x1
 3076 00ff 0B       		.uleb128 0xb
 3077 0100 0B       		.uleb128 0xb
 3078 0101 3A       		.uleb128 0x3a
 3079 0102 0B       		.uleb128 0xb
 3080 0103 3B       		.uleb128 0x3b
 3081 0104 0B       		.uleb128 0xb
 3082 0105 6E       		.uleb128 0x6e
 3083 0106 0E       		.uleb128 0xe
 3084 0107 01       		.uleb128 0x1
 3085 0108 13       		.uleb128 0x13
 3086 0109 00       		.byte	0
 3087 010a 00       		.byte	0
 3088 010b 16       		.uleb128 0x16
 3089 010c 13       		.uleb128 0x13
 3090 010d 01       		.byte	0x1
 3091 010e 0B       		.uleb128 0xb
 3092 010f 05       		.uleb128 0x5
 3093 0110 3A       		.uleb128 0x3a
 3094 0111 0B       		.uleb128 0xb
 3095 0112 3B       		.uleb128 0x3b
 3096 0113 0B       		.uleb128 0xb
 3097 0114 6E       		.uleb128 0x6e
 3098 0115 0E       		.uleb128 0xe
 3099 0116 01       		.uleb128 0x1
 3100 0117 13       		.uleb128 0x13
 3101 0118 00       		.byte	0
 3102 0119 00       		.byte	0
 3103 011a 17       		.uleb128 0x17
 3104 011b 01       		.uleb128 0x1
 3105 011c 01       		.byte	0x1
 3106 011d 49       		.uleb128 0x49
 3107 011e 13       		.uleb128 0x13
 3108 011f 01       		.uleb128 0x1
 3109 0120 13       		.uleb128 0x13
 3110 0121 00       		.byte	0
 3111 0122 00       		.byte	0
 3112 0123 18       		.uleb128 0x18
 3113 0124 21       		.uleb128 0x21
 3114 0125 00       		.byte	0
 3115 0126 49       		.uleb128 0x49
 3116 0127 13       		.uleb128 0x13
 3117 0128 2F       		.uleb128 0x2f
 3118 0129 0B       		.uleb128 0xb
 3119 012a 00       		.byte	0
 3120 012b 00       		.byte	0
 3121 012c 19       		.uleb128 0x19
 3122 012d 26       		.uleb128 0x26
 3123 012e 00       		.byte	0
 3124 012f 49       		.uleb128 0x49
 3125 0130 13       		.uleb128 0x13
 3126 0131 00       		.byte	0
ARM GAS  C:\Users\Luis\AppData\Local\Temp\ccRWYsM4.s 			page 56


 3127 0132 00       		.byte	0
 3128 0133 1A       		.uleb128 0x1a
 3129 0134 02       		.uleb128 0x2
 3130 0135 01       		.byte	0x1
 3131 0136 03       		.uleb128 0x3
 3132 0137 0E       		.uleb128 0xe
 3133 0138 0B       		.uleb128 0xb
 3134 0139 0B       		.uleb128 0xb
 3135 013a 3A       		.uleb128 0x3a
 3136 013b 0B       		.uleb128 0xb
 3137 013c 3B       		.uleb128 0x3b
 3138 013d 0B       		.uleb128 0xb
 3139 013e 01       		.uleb128 0x1
 3140 013f 13       		.uleb128 0x13
 3141 0140 00       		.byte	0
 3142 0141 00       		.byte	0
 3143 0142 1B       		.uleb128 0x1b
 3144 0143 2E       		.uleb128 0x2e
 3145 0144 01       		.byte	0x1
 3146 0145 3F       		.uleb128 0x3f
 3147 0146 19       		.uleb128 0x19
 3148 0147 03       		.uleb128 0x3
 3149 0148 08       		.uleb128 0x8
 3150 0149 3A       		.uleb128 0x3a
 3151 014a 0B       		.uleb128 0xb
 3152 014b 3B       		.uleb128 0x3b
 3153 014c 0B       		.uleb128 0xb
 3154 014d 6E       		.uleb128 0x6e
 3155 014e 0E       		.uleb128 0xe
 3156 014f 49       		.uleb128 0x49
 3157 0150 13       		.uleb128 0x13
 3158 0151 32       		.uleb128 0x32
 3159 0152 0B       		.uleb128 0xb
 3160 0153 3C       		.uleb128 0x3c
 3161 0154 19       		.uleb128 0x19
 3162 0155 64       		.uleb128 0x64
 3163 0156 13       		.uleb128 0x13
 3164 0157 00       		.byte	0
 3165 0158 00       		.byte	0
 3166 0159 1C       		.uleb128 0x1c
 3167 015a 05       		.uleb128 0x5
 3168 015b 00       		.byte	0
 3169 015c 49       		.uleb128 0x49
 3170 015d 13       		.uleb128 0x13
 3171 015e 34       		.uleb128 0x34
 3172 015f 19       		.uleb128 0x19
 3173 0160 00       		.byte	0
 3174 0161 00       		.byte	0
 3175 0162 1D       		.uleb128 0x1d
 3176 0163 02       		.uleb128 0x2
 3177 0164 01       		.byte	0x1
 3178 0165 03       		.uleb128 0x3
 3179 0166 0E       		.uleb128 0xe
 3180 0167 0B       		.uleb128 0xb
 3181 0168 0B       		.uleb128 0xb
 3182 0169 3A       		.uleb128 0x3a
 3183 016a 0B       		.uleb128 0xb
ARM GAS  C:\Users\Luis\AppData\Local\Temp\ccRWYsM4.s 			page 57


 3184 016b 3B       		.uleb128 0x3b
 3185 016c 0B       		.uleb128 0xb
 3186 016d 1D       		.uleb128 0x1d
 3187 016e 13       		.uleb128 0x13
 3188 016f 01       		.uleb128 0x1
 3189 0170 13       		.uleb128 0x13
 3190 0171 00       		.byte	0
 3191 0172 00       		.byte	0
 3192 0173 1E       		.uleb128 0x1e
 3193 0174 0D       		.uleb128 0xd
 3194 0175 00       		.byte	0
 3195 0176 03       		.uleb128 0x3
 3196 0177 0E       		.uleb128 0xe
 3197 0178 49       		.uleb128 0x49
 3198 0179 13       		.uleb128 0x13
 3199 017a 38       		.uleb128 0x38
 3200 017b 0B       		.uleb128 0xb
 3201 017c 34       		.uleb128 0x34
 3202 017d 19       		.uleb128 0x19
 3203 017e 32       		.uleb128 0x32
 3204 017f 0B       		.uleb128 0xb
 3205 0180 00       		.byte	0
 3206 0181 00       		.byte	0
 3207 0182 1F       		.uleb128 0x1f
 3208 0183 2E       		.uleb128 0x2e
 3209 0184 01       		.byte	0x1
 3210 0185 3F       		.uleb128 0x3f
 3211 0186 19       		.uleb128 0x19
 3212 0187 03       		.uleb128 0x3
 3213 0188 0E       		.uleb128 0xe
 3214 0189 3A       		.uleb128 0x3a
 3215 018a 0B       		.uleb128 0xb
 3216 018b 3B       		.uleb128 0x3b
 3217 018c 0B       		.uleb128 0xb
 3218 018d 6E       		.uleb128 0x6e
 3219 018e 0E       		.uleb128 0xe
 3220 018f 32       		.uleb128 0x32
 3221 0190 0B       		.uleb128 0xb
 3222 0191 3C       		.uleb128 0x3c
 3223 0192 19       		.uleb128 0x19
 3224 0193 64       		.uleb128 0x64
 3225 0194 13       		.uleb128 0x13
 3226 0195 01       		.uleb128 0x1
 3227 0196 13       		.uleb128 0x13
 3228 0197 00       		.byte	0
 3229 0198 00       		.byte	0
 3230 0199 20       		.uleb128 0x20
 3231 019a 2E       		.uleb128 0x2e
 3232 019b 01       		.byte	0x1
 3233 019c 3F       		.uleb128 0x3f
 3234 019d 19       		.uleb128 0x19
 3235 019e 03       		.uleb128 0x3
 3236 019f 0E       		.uleb128 0xe
 3237 01a0 3A       		.uleb128 0x3a
 3238 01a1 0B       		.uleb128 0xb
 3239 01a2 3B       		.uleb128 0x3b
 3240 01a3 0B       		.uleb128 0xb
ARM GAS  C:\Users\Luis\AppData\Local\Temp\ccRWYsM4.s 			page 58


 3241 01a4 49       		.uleb128 0x49
 3242 01a5 13       		.uleb128 0x13
 3243 01a6 4C       		.uleb128 0x4c
 3244 01a7 0B       		.uleb128 0xb
 3245 01a8 1D       		.uleb128 0x1d
 3246 01a9 13       		.uleb128 0x13
 3247 01aa 32       		.uleb128 0x32
 3248 01ab 0B       		.uleb128 0xb
 3249 01ac 3C       		.uleb128 0x3c
 3250 01ad 19       		.uleb128 0x19
 3251 01ae 64       		.uleb128 0x64
 3252 01af 13       		.uleb128 0x13
 3253 01b0 01       		.uleb128 0x1
 3254 01b1 13       		.uleb128 0x13
 3255 01b2 00       		.byte	0
 3256 01b3 00       		.byte	0
 3257 01b4 21       		.uleb128 0x21
 3258 01b5 2E       		.uleb128 0x2e
 3259 01b6 01       		.byte	0x1
 3260 01b7 3F       		.uleb128 0x3f
 3261 01b8 19       		.uleb128 0x19
 3262 01b9 03       		.uleb128 0x3
 3263 01ba 0E       		.uleb128 0xe
 3264 01bb 3A       		.uleb128 0x3a
 3265 01bc 0B       		.uleb128 0xb
 3266 01bd 3B       		.uleb128 0x3b
 3267 01be 0B       		.uleb128 0xb
 3268 01bf 6E       		.uleb128 0x6e
 3269 01c0 0E       		.uleb128 0xe
 3270 01c1 49       		.uleb128 0x49
 3271 01c2 13       		.uleb128 0x13
 3272 01c3 32       		.uleb128 0x32
 3273 01c4 0B       		.uleb128 0xb
 3274 01c5 3C       		.uleb128 0x3c
 3275 01c6 19       		.uleb128 0x19
 3276 01c7 64       		.uleb128 0x64
 3277 01c8 13       		.uleb128 0x13
 3278 01c9 01       		.uleb128 0x1
 3279 01ca 13       		.uleb128 0x13
 3280 01cb 00       		.byte	0
 3281 01cc 00       		.byte	0
 3282 01cd 22       		.uleb128 0x22
 3283 01ce 2E       		.uleb128 0x2e
 3284 01cf 01       		.byte	0x1
 3285 01d0 3F       		.uleb128 0x3f
 3286 01d1 19       		.uleb128 0x19
 3287 01d2 03       		.uleb128 0x3
 3288 01d3 0E       		.uleb128 0xe
 3289 01d4 3A       		.uleb128 0x3a
 3290 01d5 0B       		.uleb128 0xb
 3291 01d6 3B       		.uleb128 0x3b
 3292 01d7 0B       		.uleb128 0xb
 3293 01d8 6E       		.uleb128 0x6e
 3294 01d9 0E       		.uleb128 0xe
 3295 01da 49       		.uleb128 0x49
 3296 01db 13       		.uleb128 0x13
 3297 01dc 32       		.uleb128 0x32
ARM GAS  C:\Users\Luis\AppData\Local\Temp\ccRWYsM4.s 			page 59


 3298 01dd 0B       		.uleb128 0xb
 3299 01de 3C       		.uleb128 0x3c
 3300 01df 19       		.uleb128 0x19
 3301 01e0 64       		.uleb128 0x64
 3302 01e1 13       		.uleb128 0x13
 3303 01e2 00       		.byte	0
 3304 01e3 00       		.byte	0
 3305 01e4 23       		.uleb128 0x23
 3306 01e5 15       		.uleb128 0x15
 3307 01e6 01       		.byte	0x1
 3308 01e7 49       		.uleb128 0x49
 3309 01e8 13       		.uleb128 0x13
 3310 01e9 01       		.uleb128 0x1
 3311 01ea 13       		.uleb128 0x13
 3312 01eb 00       		.byte	0
 3313 01ec 00       		.byte	0
 3314 01ed 24       		.uleb128 0x24
 3315 01ee 18       		.uleb128 0x18
 3316 01ef 00       		.byte	0
 3317 01f0 00       		.byte	0
 3318 01f1 00       		.byte	0
 3319 01f2 25       		.uleb128 0x25
 3320 01f3 0F       		.uleb128 0xf
 3321 01f4 00       		.byte	0
 3322 01f5 0B       		.uleb128 0xb
 3323 01f6 0B       		.uleb128 0xb
 3324 01f7 03       		.uleb128 0x3
 3325 01f8 0E       		.uleb128 0xe
 3326 01f9 49       		.uleb128 0x49
 3327 01fa 13       		.uleb128 0x13
 3328 01fb 00       		.byte	0
 3329 01fc 00       		.byte	0
 3330 01fd 26       		.uleb128 0x26
 3331 01fe 2E       		.uleb128 0x2e
 3332 01ff 01       		.byte	0x1
 3333 0200 47       		.uleb128 0x47
 3334 0201 13       		.uleb128 0x13
 3335 0202 11       		.uleb128 0x11
 3336 0203 01       		.uleb128 0x1
 3337 0204 12       		.uleb128 0x12
 3338 0205 06       		.uleb128 0x6
 3339 0206 40       		.uleb128 0x40
 3340 0207 18       		.uleb128 0x18
 3341 0208 64       		.uleb128 0x64
 3342 0209 13       		.uleb128 0x13
 3343 020a 9642     		.uleb128 0x2116
 3344 020c 19       		.uleb128 0x19
 3345 020d 01       		.uleb128 0x1
 3346 020e 13       		.uleb128 0x13
 3347 020f 00       		.byte	0
 3348 0210 00       		.byte	0
 3349 0211 27       		.uleb128 0x27
 3350 0212 05       		.uleb128 0x5
 3351 0213 00       		.byte	0
 3352 0214 03       		.uleb128 0x3
 3353 0215 0E       		.uleb128 0xe
 3354 0216 49       		.uleb128 0x49
ARM GAS  C:\Users\Luis\AppData\Local\Temp\ccRWYsM4.s 			page 60


 3355 0217 13       		.uleb128 0x13
 3356 0218 34       		.uleb128 0x34
 3357 0219 19       		.uleb128 0x19
 3358 021a 02       		.uleb128 0x2
 3359 021b 18       		.uleb128 0x18
 3360 021c 00       		.byte	0
 3361 021d 00       		.byte	0
 3362 021e 28       		.uleb128 0x28
 3363 021f 05       		.uleb128 0x5
 3364 0220 00       		.byte	0
 3365 0221 03       		.uleb128 0x3
 3366 0222 0E       		.uleb128 0xe
 3367 0223 3A       		.uleb128 0x3a
 3368 0224 0B       		.uleb128 0xb
 3369 0225 3B       		.uleb128 0x3b
 3370 0226 0B       		.uleb128 0xb
 3371 0227 49       		.uleb128 0x49
 3372 0228 13       		.uleb128 0x13
 3373 0229 02       		.uleb128 0x2
 3374 022a 18       		.uleb128 0x18
 3375 022b 00       		.byte	0
 3376 022c 00       		.byte	0
 3377 022d 29       		.uleb128 0x29
 3378 022e 2E       		.uleb128 0x2e
 3379 022f 01       		.byte	0x1
 3380 0230 47       		.uleb128 0x47
 3381 0231 13       		.uleb128 0x13
 3382 0232 20       		.uleb128 0x20
 3383 0233 0B       		.uleb128 0xb
 3384 0234 64       		.uleb128 0x64
 3385 0235 13       		.uleb128 0x13
 3386 0236 01       		.uleb128 0x1
 3387 0237 13       		.uleb128 0x13
 3388 0238 00       		.byte	0
 3389 0239 00       		.byte	0
 3390 023a 2A       		.uleb128 0x2a
 3391 023b 05       		.uleb128 0x5
 3392 023c 00       		.byte	0
 3393 023d 03       		.uleb128 0x3
 3394 023e 0E       		.uleb128 0xe
 3395 023f 49       		.uleb128 0x49
 3396 0240 13       		.uleb128 0x13
 3397 0241 34       		.uleb128 0x34
 3398 0242 19       		.uleb128 0x19
 3399 0243 00       		.byte	0
 3400 0244 00       		.byte	0
 3401 0245 2B       		.uleb128 0x2b
 3402 0246 2E       		.uleb128 0x2e
 3403 0247 01       		.byte	0x1
 3404 0248 31       		.uleb128 0x31
 3405 0249 13       		.uleb128 0x13
 3406 024a 6E       		.uleb128 0x6e
 3407 024b 0E       		.uleb128 0xe
 3408 024c 11       		.uleb128 0x11
 3409 024d 01       		.uleb128 0x1
 3410 024e 12       		.uleb128 0x12
 3411 024f 06       		.uleb128 0x6
ARM GAS  C:\Users\Luis\AppData\Local\Temp\ccRWYsM4.s 			page 61


 3412 0250 40       		.uleb128 0x40
 3413 0251 18       		.uleb128 0x18
 3414 0252 64       		.uleb128 0x64
 3415 0253 13       		.uleb128 0x13
 3416 0254 9642     		.uleb128 0x2116
 3417 0256 19       		.uleb128 0x19
 3418 0257 01       		.uleb128 0x1
 3419 0258 13       		.uleb128 0x13
 3420 0259 00       		.byte	0
 3421 025a 00       		.byte	0
 3422 025b 2C       		.uleb128 0x2c
 3423 025c 05       		.uleb128 0x5
 3424 025d 00       		.byte	0
 3425 025e 31       		.uleb128 0x31
 3426 025f 13       		.uleb128 0x13
 3427 0260 02       		.uleb128 0x2
 3428 0261 18       		.uleb128 0x18
 3429 0262 00       		.byte	0
 3430 0263 00       		.byte	0
 3431 0264 2D       		.uleb128 0x2d
 3432 0265 0B       		.uleb128 0xb
 3433 0266 01       		.byte	0x1
 3434 0267 11       		.uleb128 0x11
 3435 0268 01       		.uleb128 0x1
 3436 0269 12       		.uleb128 0x12
 3437 026a 06       		.uleb128 0x6
 3438 026b 00       		.byte	0
 3439 026c 00       		.byte	0
 3440 026d 2E       		.uleb128 0x2e
 3441 026e 34       		.uleb128 0x34
 3442 026f 00       		.byte	0
 3443 0270 03       		.uleb128 0x3
 3444 0271 0E       		.uleb128 0xe
 3445 0272 3A       		.uleb128 0x3a
 3446 0273 0B       		.uleb128 0xb
 3447 0274 3B       		.uleb128 0x3b
 3448 0275 0B       		.uleb128 0xb
 3449 0276 49       		.uleb128 0x49
 3450 0277 13       		.uleb128 0x13
 3451 0278 02       		.uleb128 0x2
 3452 0279 18       		.uleb128 0x18
 3453 027a 00       		.byte	0
 3454 027b 00       		.byte	0
 3455 027c 2F       		.uleb128 0x2f
 3456 027d 2E       		.uleb128 0x2e
 3457 027e 01       		.byte	0x1
 3458 027f 47       		.uleb128 0x47
 3459 0280 13       		.uleb128 0x13
 3460 0281 11       		.uleb128 0x11
 3461 0282 01       		.uleb128 0x1
 3462 0283 12       		.uleb128 0x12
 3463 0284 06       		.uleb128 0x6
 3464 0285 40       		.uleb128 0x40
 3465 0286 18       		.uleb128 0x18
 3466 0287 64       		.uleb128 0x64
 3467 0288 13       		.uleb128 0x13
 3468 0289 9742     		.uleb128 0x2117
ARM GAS  C:\Users\Luis\AppData\Local\Temp\ccRWYsM4.s 			page 62


 3469 028b 19       		.uleb128 0x19
 3470 028c 01       		.uleb128 0x1
 3471 028d 13       		.uleb128 0x13
 3472 028e 00       		.byte	0
 3473 028f 00       		.byte	0
 3474 0290 30       		.uleb128 0x30
 3475 0291 34       		.uleb128 0x34
 3476 0292 00       		.byte	0
 3477 0293 03       		.uleb128 0x3
 3478 0294 0E       		.uleb128 0xe
 3479 0295 3A       		.uleb128 0x3a
 3480 0296 0B       		.uleb128 0xb
 3481 0297 3B       		.uleb128 0x3b
 3482 0298 05       		.uleb128 0x5
 3483 0299 49       		.uleb128 0x49
 3484 029a 13       		.uleb128 0x13
 3485 029b 3F       		.uleb128 0x3f
 3486 029c 19       		.uleb128 0x19
 3487 029d 3C       		.uleb128 0x3c
 3488 029e 19       		.uleb128 0x19
 3489 029f 00       		.byte	0
 3490 02a0 00       		.byte	0
 3491 02a1 31       		.uleb128 0x31
 3492 02a2 34       		.uleb128 0x34
 3493 02a3 00       		.byte	0
 3494 02a4 03       		.uleb128 0x3
 3495 02a5 08       		.uleb128 0x8
 3496 02a6 3A       		.uleb128 0x3a
 3497 02a7 0B       		.uleb128 0xb
 3498 02a8 3B       		.uleb128 0x3b
 3499 02a9 05       		.uleb128 0x5
 3500 02aa 49       		.uleb128 0x49
 3501 02ab 13       		.uleb128 0x13
 3502 02ac 3F       		.uleb128 0x3f
 3503 02ad 19       		.uleb128 0x19
 3504 02ae 3C       		.uleb128 0x3c
 3505 02af 19       		.uleb128 0x19
 3506 02b0 00       		.byte	0
 3507 02b1 00       		.byte	0
 3508 02b2 00       		.byte	0
 3509              		.section	.debug_aranges,"",%progbits
 3510 0000 9C000000 		.4byte	0x9c
 3511 0004 0200     		.2byte	0x2
 3512 0006 00000000 		.4byte	.Ldebug_info0
 3513 000a 04       		.byte	0x4
 3514 000b 00       		.byte	0
 3515 000c 0000     		.2byte	0
 3516 000e 0000     		.2byte	0
 3517 0010 00000000 		.4byte	.LFB260
 3518 0014 56000000 		.4byte	.LFE260-.LFB260
 3519 0018 00000000 		.4byte	.LFB261
 3520 001c 8E000000 		.4byte	.LFE261-.LFB261
 3521 0020 00000000 		.4byte	.LFB262
 3522 0024 8C000000 		.4byte	.LFE262-.LFB262
 3523 0028 00000000 		.4byte	.LFB264
 3524 002c 50000000 		.4byte	.LFE264-.LFB264
 3525 0030 00000000 		.4byte	.LFB266
ARM GAS  C:\Users\Luis\AppData\Local\Temp\ccRWYsM4.s 			page 63


 3526 0034 1E000000 		.4byte	.LFE266-.LFB266
 3527 0038 00000000 		.4byte	.LFB267
 3528 003c 9A000000 		.4byte	.LFE267-.LFB267
 3529 0040 00000000 		.4byte	.LFB268
 3530 0044 4C000000 		.4byte	.LFE268-.LFB268
 3531 0048 00000000 		.4byte	.LFB269
 3532 004c 18000000 		.4byte	.LFE269-.LFB269
 3533 0050 00000000 		.4byte	.LFB270
 3534 0054 4E000000 		.4byte	.LFE270-.LFB270
 3535 0058 00000000 		.4byte	.LFB271
 3536 005c 4C000000 		.4byte	.LFE271-.LFB271
 3537 0060 00000000 		.4byte	.LFB272
 3538 0064 18000000 		.4byte	.LFE272-.LFB272
 3539 0068 00000000 		.4byte	.LFB273
 3540 006c 18000000 		.4byte	.LFE273-.LFB273
 3541 0070 00000000 		.4byte	.LFB274
 3542 0074 1A000000 		.4byte	.LFE274-.LFB274
 3543 0078 00000000 		.4byte	.LFB275
 3544 007c 18000000 		.4byte	.LFE275-.LFB275
 3545 0080 00000000 		.4byte	.LFB276
 3546 0084 4E000000 		.4byte	.LFE276-.LFB276
 3547 0088 00000000 		.4byte	.LFB277
 3548 008c 4C000000 		.4byte	.LFE277-.LFB277
 3549 0090 00000000 		.4byte	.LFB278
 3550 0094 18000000 		.4byte	.LFE278-.LFB278
 3551 0098 00000000 		.4byte	0
 3552 009c 00000000 		.4byte	0
 3553              		.section	.debug_ranges,"",%progbits
 3554              	.Ldebug_ranges0:
 3555 0000 00000000 		.4byte	.LFB260
 3556 0004 56000000 		.4byte	.LFE260
 3557 0008 00000000 		.4byte	.LFB261
 3558 000c 8E000000 		.4byte	.LFE261
 3559 0010 00000000 		.4byte	.LFB262
 3560 0014 8C000000 		.4byte	.LFE262
 3561 0018 00000000 		.4byte	.LFB264
 3562 001c 50000000 		.4byte	.LFE264
 3563 0020 00000000 		.4byte	.LFB266
 3564 0024 1E000000 		.4byte	.LFE266
 3565 0028 00000000 		.4byte	.LFB267
 3566 002c 9A000000 		.4byte	.LFE267
 3567 0030 00000000 		.4byte	.LFB268
 3568 0034 4C000000 		.4byte	.LFE268
 3569 0038 00000000 		.4byte	.LFB269
 3570 003c 18000000 		.4byte	.LFE269
 3571 0040 00000000 		.4byte	.LFB270
 3572 0044 4E000000 		.4byte	.LFE270
 3573 0048 00000000 		.4byte	.LFB271
 3574 004c 4C000000 		.4byte	.LFE271
 3575 0050 00000000 		.4byte	.LFB272
 3576 0054 18000000 		.4byte	.LFE272
 3577 0058 00000000 		.4byte	.LFB273
 3578 005c 18000000 		.4byte	.LFE273
 3579 0060 00000000 		.4byte	.LFB274
 3580 0064 1A000000 		.4byte	.LFE274
 3581 0068 00000000 		.4byte	.LFB275
 3582 006c 18000000 		.4byte	.LFE275
ARM GAS  C:\Users\Luis\AppData\Local\Temp\ccRWYsM4.s 			page 64


 3583 0070 00000000 		.4byte	.LFB276
 3584 0074 4E000000 		.4byte	.LFE276
 3585 0078 00000000 		.4byte	.LFB277
 3586 007c 4C000000 		.4byte	.LFE277
 3587 0080 00000000 		.4byte	.LFB278
 3588 0084 18000000 		.4byte	.LFE278
 3589 0088 00000000 		.4byte	0
 3590 008c 00000000 		.4byte	0
 3591              		.section	.debug_line,"",%progbits
 3592              	.Ldebug_line0:
 3593 0000 69030000 		.section	.debug_str,"MS",%progbits,1
 3593      02009E01 
 3593      00000201 
 3593      FB0E0D00 
 3593      01010101 
 3594              	.LASF144:
 3595 0000 6D6F7665 		.ascii	"moveArray\000"
 3595      41727261 
 3595      7900
 3596              	.LASF101:
 3597 000a 74625F70 		.ascii	"tb_ptr\000"
 3597      747200
 3598              	.LASF145:
 3599 0011 5F5A4E31 		.ascii	"_ZN10DataFilter9moveArrayEPf\000"
 3599      30446174 
 3599      6146696C 
 3599      74657239 
 3599      6D6F7665 
 3600              	.LASF58:
 3601 002e 72656164 		.ascii	"ready_list_t\000"
 3601      795F6C69 
 3601      73745F74 
 3601      00
 3602              	.LASF95:
 3603 003b 73655F74 		.ascii	"se_time\000"
 3603      696D6500 
 3604              	.LASF176:
 3605 0043 5F5F696E 		.ascii	"__in_chrg\000"
 3605      5F636872 
 3605      6700
 3606              	.LASF147:
 3607 004d 5F5A4E31 		.ascii	"_ZN10DataFilter14createArrayAuxEv\000"
 3607      30446174 
 3607      6146696C 
 3607      74657231 
 3607      34637265 
 3608              	.LASF25:
 3609 006f 7264796D 		.ascii	"rdymsg\000"
 3609      736700
 3610              	.LASF11:
 3611 0076 75696E74 		.ascii	"uint64_t\000"
 3611      36345F74 
 3611      00
 3612              	.LASF88:
 3613 007f 6B65726E 		.ascii	"kernel_stats\000"
 3613      656C5F73 
 3613      74617473 
ARM GAS  C:\Users\Luis\AppData\Local\Temp\ccRWYsM4.s 			page 65


 3613      00
 3614              	.LASF138:
 3615 008c 52657375 		.ascii	"Result\000"
 3615      6C7400
 3616              	.LASF57:
 3617 0093 63685F74 		.ascii	"ch_threads_queue\000"
 3617      68726561 
 3617      64735F71 
 3617      75657565 
 3617      00
 3618              	.LASF77:
 3619 00a4 73797374 		.ascii	"system_debug_t\000"
 3619      656D5F64 
 3619      65627567 
 3619      5F7400
 3620              	.LASF133:
 3621 00b3 46696C74 		.ascii	"FilterOrder\000"
 3621      65724F72 
 3621      64657200 
 3622              	.LASF89:
 3623 00bf 69646C65 		.ascii	"idle_thread_wa\000"
 3623      5F746872 
 3623      6561645F 
 3623      776100
 3624              	.LASF110:
 3625 00ce 776F7273 		.ascii	"worst\000"
 3625      7400
 3626              	.LASF113:
 3627 00d4 74696D65 		.ascii	"time_measurement_t\000"
 3627      5F6D6561 
 3627      73757265 
 3627      6D656E74 
 3627      5F7400
 3628              	.LASF184:
 3629 00e7 61727261 		.ascii	"arrayCoefficientsA\000"
 3629      79436F65 
 3629      66666963 
 3629      69656E74 
 3629      734100
 3630              	.LASF12:
 3631 00fa 6C6F6E67 		.ascii	"long long unsigned int\000"
 3631      206C6F6E 
 3631      6720756E 
 3631      7369676E 
 3631      65642069 
 3632              	.LASF103:
 3633 0111 63685F74 		.ascii	"ch_trace_buffer_t\000"
 3633      72616365 
 3633      5F627566 
 3633      6665725F 
 3633      7400
 3634              	.LASF98:
 3635 0123 73655F73 		.ascii	"se_state\000"
 3635      74617465 
 3635      00
 3636              	.LASF151:
 3637 012c 5F5A4E31 		.ascii	"_ZN10DataFilter26setArrayInitialConditionsXEPf\000"
ARM GAS  C:\Users\Luis\AppData\Local\Temp\ccRWYsM4.s 			page 66


 3637      30446174 
 3637      6146696C 
 3637      74657232 
 3637      36736574 
 3638              	.LASF26:
 3639 015b 65786974 		.ascii	"exitcode\000"
 3639      636F6465 
 3639      00
 3640              	.LASF164:
 3641 0164 73657441 		.ascii	"setArrayCoefficientsA\000"
 3641      72726179 
 3641      436F6566 
 3641      66696369 
 3641      656E7473 
 3642              	.LASF148:
 3643 017a 73657441 		.ascii	"setArrayCoefficientsB\000"
 3643      72726179 
 3643      436F6566 
 3643      66696369 
 3643      656E7473 
 3644              	.LASF74:
 3645 0190 76697274 		.ascii	"virtual_timers_list_t\000"
 3645      75616C5F 
 3645      74696D65 
 3645      72735F6C 
 3645      6973745F 
 3646              	.LASF182:
 3647 01a6 70417272 		.ascii	"pArray\000"
 3647      617900
 3648              	.LASF186:
 3649 01ad 49544D5F 		.ascii	"ITM_RxBuffer\000"
 3649      52784275 
 3649      66666572 
 3649      00
 3650              	.LASF14:
 3651 01ba 72747469 		.ascii	"rttime_t\000"
 3651      6D655F74 
 3651      00
 3652              	.LASF183:
 3653 01c3 70417272 		.ascii	"pArrayInitialConditions\000"
 3653      6179496E 
 3653      69746961 
 3653      6C436F6E 
 3653      64697469 
 3654              	.LASF34:
 3655 01db 705F7072 		.ascii	"p_prio\000"
 3655      696F00
 3656              	.LASF167:
 3657 01e2 5F5A4E31 		.ascii	"_ZN10DataFilter26setArrayInitialConditionsYEPf\000"
 3657      30446174 
 3657      6146696C 
 3657      74657232 
 3657      36736574 
 3658              	.LASF10:
 3659 0211 6C6F6E67 		.ascii	"long long int\000"
 3659      206C6F6E 
 3659      6720696E 
ARM GAS  C:\Users\Luis\AppData\Local\Temp\ccRWYsM4.s 			page 67


 3659      7400
 3660              	.LASF1:
 3661 021f 7369676E 		.ascii	"signed char\000"
 3661      65642063 
 3661      68617200 
 3662              	.LASF158:
 3663 022b 67657446 		.ascii	"getFilterOrder\000"
 3663      696C7465 
 3663      724F7264 
 3663      657200
 3664              	.LASF194:
 3665 023a 7E446174 		.ascii	"~DataFilter\000"
 3665      6146696C 
 3665      74657200 
 3666              	.LASF49:
 3667 0246 705F6D70 		.ascii	"p_mpool\000"
 3667      6F6F6C00 
 3668              	.LASF124:
 3669 024e 6D5F7175 		.ascii	"m_queue\000"
 3669      65756500 
 3670              	.LASF86:
 3671 0256 76746C69 		.ascii	"vtlist\000"
 3671      737400
 3672              	.LASF150:
 3673 025d 73657441 		.ascii	"setArrayInitialConditionsX\000"
 3673      72726179 
 3673      496E6974 
 3673      69616C43 
 3673      6F6E6469 
 3674              	.LASF166:
 3675 0278 73657441 		.ascii	"setArrayInitialConditionsY\000"
 3675      72726179 
 3675      496E6974 
 3675      69616C43 
 3675      6F6E6469 
 3676              	.LASF189:
 3677 0293 433A5C55 		.ascii	"C:\\Users\\Luis\\git\\DSP-Library-Lanin\\examples\\"
 3677      73657273 
 3677      5C4C7569 
 3677      735C6769 
 3677      745C4453 
 3678 02c0 4453502D 		.ascii	"DSP-Library\000"
 3678      4C696272 
 3678      61727900 
 3679              	.LASF28:
 3680 02cc 77747472 		.ascii	"wttrp\000"
 3680      7000
 3681              	.LASF84:
 3682 02d2 63685F73 		.ascii	"ch_system\000"
 3682      79737465 
 3682      6D00
 3683              	.LASF7:
 3684 02dc 6C6F6E67 		.ascii	"long int\000"
 3684      20696E74 
 3684      00
 3685              	.LASF16:
 3686 02e5 74737461 		.ascii	"tstate_t\000"
ARM GAS  C:\Users\Luis\AppData\Local\Temp\ccRWYsM4.s 			page 68


 3686      74655F74 
 3686      00
 3687              	.LASF96:
 3688 02ee 73655F74 		.ascii	"se_tp\000"
 3688      7000
 3689              	.LASF163:
 3690 02f4 5F5A4E4B 		.ascii	"_ZNK10DataFilter21getArrayCoefficientsAEv\000"
 3690      31304461 
 3690      74614669 
 3690      6C746572 
 3690      32316765 
 3691              	.LASF173:
 3692 031e 74686973 		.ascii	"this\000"
 3692      00
 3693              	.LASF36:
 3694 0323 705F6E65 		.ascii	"p_newer\000"
 3694      77657200 
 3695              	.LASF121:
 3696 032b 735F7175 		.ascii	"s_queue\000"
 3696      65756500 
 3697              	.LASF179:
 3698 0333 5F4E756D 		.ascii	"_NumSum\000"
 3698      53756D00 
 3699              	.LASF149:
 3700 033b 5F5A4E31 		.ascii	"_ZN10DataFilter21setArrayCoefficientsBEPf\000"
 3700      30446174 
 3700      6146696C 
 3700      74657232 
 3700      31736574 
 3701              	.LASF100:
 3702 0365 74625F73 		.ascii	"tb_size\000"
 3702      697A6500 
 3703              	.LASF63:
 3704 036d 725F6E65 		.ascii	"r_newer\000"
 3704      77657200 
 3705              	.LASF91:
 3706 0375 72656761 		.ascii	"regarm_t\000"
 3706      726D5F74 
 3706      00
 3707              	.LASF70:
 3708 037e 76745F70 		.ascii	"vt_prev\000"
 3708      72657600 
 3709              	.LASF78:
 3710 0386 63685F73 		.ascii	"ch_system_debug\000"
 3710      79737465 
 3710      6D5F6465 
 3710      62756700 
 3711              	.LASF128:
 3712 0396 6D757465 		.ascii	"mutex_t\000"
 3712      785F7400 
 3713              	.LASF81:
 3714 039e 6C6F636B 		.ascii	"lock_cnt\000"
 3714      5F636E74 
 3714      00
 3715              	.LASF165:
 3716 03a7 5F5A4E31 		.ascii	"_ZN10DataFilter21setArrayCoefficientsAEPf\000"
 3716      30446174 
ARM GAS  C:\Users\Luis\AppData\Local\Temp\ccRWYsM4.s 			page 69


 3716      6146696C 
 3716      74657232 
 3716      31736574 
 3717              	.LASF21:
 3718 03d1 636E745F 		.ascii	"cnt_t\000"
 3718      7400
 3719              	.LASF195:
 3720 03d7 5F5F7674 		.ascii	"__vtbl_ptr_type\000"
 3720      626C5F70 
 3720      74725F74 
 3720      79706500 
 3721              	.LASF39:
 3722 03e7 705F7374 		.ascii	"p_stklimit\000"
 3722      6B6C696D 
 3722      697400
 3723              	.LASF0:
 3724 03f2 756E7369 		.ascii	"unsigned int\000"
 3724      676E6564 
 3724      20696E74 
 3724      00
 3725              	.LASF69:
 3726 03ff 76745F6E 		.ascii	"vt_next\000"
 3726      65787400 
 3727              	.LASF29:
 3728 0407 77747365 		.ascii	"wtsemp\000"
 3728      6D7000
 3729              	.LASF44:
 3730 040e 705F6D73 		.ascii	"p_msgqueue\000"
 3730      67717565 
 3730      756500
 3731              	.LASF160:
 3732 0419 73657446 		.ascii	"setFilterOrder\000"
 3732      696C7465 
 3732      724F7264 
 3732      657200
 3733              	.LASF51:
 3734 0428 746C7350 		.ascii	"tlsPtr\000"
 3734      747200
 3735              	.LASF115:
 3736 042f 6E5F6972 		.ascii	"n_irq\000"
 3736      7100
 3737              	.LASF97:
 3738 0435 73655F77 		.ascii	"se_wtobjp\000"
 3738      746F626A 
 3738      7000
 3739              	.LASF122:
 3740 043f 735F636E 		.ascii	"s_cnt\000"
 3740      7400
 3741              	.LASF4:
 3742 0445 73686F72 		.ascii	"short unsigned int\000"
 3742      7420756E 
 3742      7369676E 
 3742      65642069 
 3742      6E7400
 3743              	.LASF119:
 3744 0458 6B65726E 		.ascii	"kernel_stats_t\000"
 3744      656C5F73 
ARM GAS  C:\Users\Luis\AppData\Local\Temp\ccRWYsM4.s 			page 70


 3744      74617473 
 3744      5F7400
 3745              	.LASF104:
 3746 0467 31346368 		.ascii	"14ch_swc_event_t\000"
 3746      5F737763 
 3746      5F657665 
 3746      6E745F74 
 3746      00
 3747              	.LASF54:
 3748 0478 63685F74 		.ascii	"ch_thread\000"
 3748      68726561 
 3748      6400
 3749              	.LASF87:
 3750 0482 6D61696E 		.ascii	"mainthread\000"
 3750      74687265 
 3750      616400
 3751              	.LASF19:
 3752 048d 6D73675F 		.ascii	"msg_t\000"
 3752      7400
 3753              	.LASF111:
 3754 0493 6C617374 		.ascii	"last\000"
 3754      00
 3755              	.LASF22:
 3756 0498 75636E74 		.ascii	"ucnt_t\000"
 3756      5F7400
 3757              	.LASF155:
 3758 049f 5F5A4E4B 		.ascii	"_ZNK10DataFilter15getArrayInputsXEv\000"
 3758      31304461 
 3758      74614669 
 3758      6C746572 
 3758      31356765 
 3759              	.LASF83:
 3760 04c3 63685F73 		.ascii	"ch_system_t\000"
 3760      79737465 
 3760      6D5F7400 
 3761              	.LASF15:
 3762 04cf 746D6F64 		.ascii	"tmode_t\000"
 3762      655F7400 
 3763              	.LASF181:
 3764 04d7 5F4E756D 		.ascii	"_NumResult\000"
 3764      52657375 
 3764      6C7400
 3765              	.LASF129:
 3766 04e2 626F6F6C 		.ascii	"bool\000"
 3766      00
 3767              	.LASF185:
 3768 04e7 61727261 		.ascii	"arrayInitialConditionsY\000"
 3768      79496E69 
 3768      7469616C 
 3768      436F6E64 
 3768      6974696F 
 3769              	.LASF118:
 3770 04ff 6D5F6372 		.ascii	"m_crit_isr\000"
 3770      69745F69 
 3770      737200
 3771              	.LASF59:
 3772 050a 63685F72 		.ascii	"ch_ready_list\000"
ARM GAS  C:\Users\Luis\AppData\Local\Temp\ccRWYsM4.s 			page 71


 3772      65616479 
 3772      5F6C6973 
 3772      7400
 3773              	.LASF20:
 3774 0518 6576656E 		.ascii	"eventmask_t\000"
 3774      746D6173 
 3774      6B5F7400 
 3775              	.LASF191:
 3776 0524 46756E74 		.ascii	"FuntionsMath\000"
 3776      696F6E73 
 3776      4D617468 
 3776      00
 3777              	.LASF190:
 3778 0531 31376368 		.ascii	"17ch_trace_buffer_t\000"
 3778      5F747261 
 3778      63655F62 
 3778      75666665 
 3778      725F7400 
 3779              	.LASF92:
 3780 0545 73746B61 		.ascii	"stkalign_t\000"
 3780      6C69676E 
 3780      5F7400
 3781              	.LASF43:
 3782 0550 705F7761 		.ascii	"p_waiting\000"
 3782      6974696E 
 3782      6700
 3783              	.LASF90:
 3784 055a 73697A65 		.ascii	"sizetype\000"
 3784      74797065 
 3784      00
 3785              	.LASF52:
 3786 0563 74687265 		.ascii	"thread_reference_t\000"
 3786      61645F72 
 3786      65666572 
 3786      656E6365 
 3786      5F7400
 3787              	.LASF132:
 3788 0576 5F767074 		.ascii	"_vptr.DataFilter\000"
 3788      722E4461 
 3788      74614669 
 3788      6C746572 
 3788      00
 3789              	.LASF75:
 3790 0587 63685F76 		.ascii	"ch_virtual_timers_list\000"
 3790      69727475 
 3790      616C5F74 
 3790      696D6572 
 3790      735F6C69 
 3791              	.LASF134:
 3792 059e 41727261 		.ascii	"ArrayCoefficientsB\000"
 3792      79436F65 
 3792      66666963 
 3792      69656E74 
 3792      734200
 3793              	.LASF99:
 3794 05b1 63685F73 		.ascii	"ch_swc_event_t\000"
 3794      77635F65 
ARM GAS  C:\Users\Luis\AppData\Local\Temp\ccRWYsM4.s 			page 72


 3794      76656E74 
 3794      5F7400
 3795              	.LASF157:
 3796 05c0 5F5A4E31 		.ascii	"_ZN10DataFilter15setArrayInputsXEPfi\000"
 3796      30446174 
 3796      6146696C 
 3796      74657231 
 3796      35736574 
 3797              	.LASF76:
 3798 05e5 76745F6C 		.ascii	"vt_lasttime\000"
 3798      61737474 
 3798      696D6500 
 3799              	.LASF37:
 3800 05f1 705F6F6C 		.ascii	"p_older\000"
 3800      64657200 
 3801              	.LASF62:
 3802 05f9 725F6374 		.ascii	"r_ctx\000"
 3802      7800
 3803              	.LASF108:
 3804 05ff 31387469 		.ascii	"18time_measurement_t\000"
 3804      6D655F6D 
 3804      65617375 
 3804      72656D65 
 3804      6E745F74 
 3805              	.LASF114:
 3806 0614 31346B65 		.ascii	"14kernel_stats_t\000"
 3806      726E656C 
 3806      5F737461 
 3806      74735F74 
 3806      00
 3807              	.LASF107:
 3808 0625 746D5F63 		.ascii	"tm_calibration_t\000"
 3808      616C6962 
 3808      72617469 
 3808      6F6E5F74 
 3808      00
 3809              	.LASF142:
 3810 0636 5F5A4E31 		.ascii	"_ZN10DataFilter13newDataFilterEiPfS0_S0_S0_\000"
 3810      30446174 
 3810      6146696C 
 3810      74657231 
 3810      336E6577 
 3811              	.LASF187:
 3812 0662 474E5520 		.ascii	"GNU C++ 4.8.3 20131129 (release) [ARM/embedded-4_8-"
 3812      432B2B20 
 3812      342E382E 
 3812      33203230 
 3812      31333131 
 3813 0695 6272616E 		.ascii	"branch revision 205641] -mcpu=cortex-m4 -mapcs-fram"
 3813      63682072 
 3813      65766973 
 3813      696F6E20 
 3813      32303536 
 3814 06c8 65202D6D 		.ascii	"e -mno-thumb-interwork -mthumb -ggdb -O0 -falign-fu"
 3814      6E6F2D74 
 3814      68756D62 
 3814      2D696E74 
ARM GAS  C:\Users\Luis\AppData\Local\Temp\ccRWYsM4.s 			page 73


 3814      6572776F 
 3815 06fb 6E637469 		.ascii	"nctions=16 -ffunction-sections -fdata-sections -fno"
 3815      6F6E733D 
 3815      3136202D 
 3815      6666756E 
 3815      6374696F 
 3816 072e 2D636F6D 		.ascii	"-common -fno-rtti -fno-exceptions\000"
 3816      6D6F6E20 
 3816      2D666E6F 
 3816      2D727474 
 3816      69202D66 
 3817              	.LASF65:
 3818 0750 725F6375 		.ascii	"r_current\000"
 3818      7272656E 
 3818      7400
 3819              	.LASF64:
 3820 075a 725F6F6C 		.ascii	"r_older\000"
 3820      64657200 
 3821              	.LASF153:
 3822 0762 67657441 		.ascii	"getArrayInputsX\000"
 3822      72726179 
 3822      496E7075 
 3822      74735800 
 3823              	.LASF188:
 3824 0772 44617461 		.ascii	"DataFilter.cpp\000"
 3824      46696C74 
 3824      65722E63 
 3824      707000
 3825              	.LASF112:
 3826 0781 63756D75 		.ascii	"cumulative\000"
 3826      6C617469 
 3826      766500
 3827              	.LASF131:
 3828 078c 666C6F61 		.ascii	"float\000"
 3828      7400
 3829              	.LASF175:
 3830 0792 70417272 		.ascii	"pArrayCoefficientsA\000"
 3830      6179436F 
 3830      65666669 
 3830      6369656E 
 3830      74734100 
 3831              	.LASF172:
 3832 07a6 70417272 		.ascii	"pArrayCoefficientsB\000"
 3832      6179436F 
 3832      65666669 
 3832      6369656E 
 3832      74734200 
 3833              	.LASF17:
 3834 07ba 74726566 		.ascii	"trefs_t\000"
 3834      735F7400 
 3835              	.LASF102:
 3836 07c2 74625F62 		.ascii	"tb_buffer\000"
 3836      75666665 
 3836      7200
 3837              	.LASF94:
 3838 07cc 706F7274 		.ascii	"port_intctx\000"
 3838      5F696E74 
ARM GAS  C:\Users\Luis\AppData\Local\Temp\ccRWYsM4.s 			page 74


 3838      63747800 
 3839              	.LASF67:
 3840 07d8 76697274 		.ascii	"virtual_timer_t\000"
 3840      75616C5F 
 3840      74696D65 
 3840      725F7400 
 3841              	.LASF33:
 3842 07e8 705F7072 		.ascii	"p_prev\000"
 3842      657600
 3843              	.LASF171:
 3844 07ef 70417272 		.ascii	"pArrayInputsX\000"
 3844      6179496E 
 3844      70757473 
 3844      5800
 3845              	.LASF174:
 3846 07fd 70417272 		.ascii	"pArrayInputsY\000"
 3846      6179496E 
 3846      70757473 
 3846      5900
 3847              	.LASF18:
 3848 080b 74707269 		.ascii	"tprio_t\000"
 3848      6F5F7400 
 3849              	.LASF116:
 3850 0813 6E5F6374 		.ascii	"n_ctxswc\000"
 3850      78737763 
 3850      00
 3851              	.LASF6:
 3852 081c 696E7433 		.ascii	"int32_t\000"
 3852      325F7400 
 3853              	.LASF154:
 3854 0824 5F5A4E4B 		.ascii	"_ZNK10DataFilter21getArrayCoefficientsBEv\000"
 3854      31304461 
 3854      74614669 
 3854      6C746572 
 3854      32316765 
 3855              	.LASF156:
 3856 084e 73657441 		.ascii	"setArrayInputsX\000"
 3856      72726179 
 3856      496E7075 
 3856      74735800 
 3857              	.LASF143:
 3858 085e 5F5A4E31 		.ascii	"_ZN10DataFilter13newDataFilterEiPfS0_S0_\000"
 3858      30446174 
 3858      6146696C 
 3858      74657231 
 3858      336E6577 
 3859              	.LASF47:
 3860 0887 705F6D74 		.ascii	"p_mtxlist\000"
 3860      786C6973 
 3860      7400
 3861              	.LASF3:
 3862 0891 73686F72 		.ascii	"short int\000"
 3862      7420696E 
 3862      7400
 3863              	.LASF40:
 3864 089b 705F7374 		.ascii	"p_state\000"
 3864      61746500 
ARM GAS  C:\Users\Luis\AppData\Local\Temp\ccRWYsM4.s 			page 75


 3865              	.LASF169:
 3866 08a3 5F5A4E4B 		.ascii	"_ZNK10DataFilter15getArrayInputsYEv\000"
 3866      31304461 
 3866      74614669 
 3866      6C746572 
 3866      31356765 
 3867              	.LASF61:
 3868 08c7 725F7072 		.ascii	"r_prio\000"
 3868      696F00
 3869              	.LASF31:
 3870 08ce 65776D61 		.ascii	"ewmask\000"
 3870      736B00
 3871              	.LASF32:
 3872 08d5 705F6E65 		.ascii	"p_next\000"
 3872      787400
 3873              	.LASF50:
 3874 08dc 705F7374 		.ascii	"p_stats\000"
 3874      61747300 
 3875              	.LASF177:
 3876 08e4 5F5A4E31 		.ascii	"_ZN10DataFilterD2Ev\000"
 3876      30446174 
 3876      6146696C 
 3876      74657244 
 3876      32457600 
 3877              	.LASF137:
 3878 08f8 41727261 		.ascii	"ArrayInputsY\000"
 3878      79496E70 
 3878      75747359 
 3878      00
 3879              	.LASF162:
 3880 0905 67657441 		.ascii	"getArrayCoefficientsA\000"
 3880      72726179 
 3880      436F6566 
 3880      66696369 
 3880      656E7473 
 3881              	.LASF152:
 3882 091b 67657441 		.ascii	"getArrayCoefficientsB\000"
 3882      72726179 
 3882      436F6566 
 3882      66696369 
 3882      656E7473 
 3883              	.LASF120:
 3884 0931 63685F73 		.ascii	"ch_semaphore\000"
 3884      656D6170 
 3884      686F7265 
 3884      00
 3885              	.LASF46:
 3886 093e 705F6570 		.ascii	"p_epending\000"
 3886      656E6469 
 3886      6E6700
 3887              	.LASF168:
 3888 0949 67657441 		.ascii	"getArrayInputsY\000"
 3888      72726179 
 3888      496E7075 
 3888      74735900 
 3889              	.LASF130:
 3890 0959 436F6E74 		.ascii	"Cont\000"
ARM GAS  C:\Users\Luis\AppData\Local\Temp\ccRWYsM4.s 			page 76


 3890      00
 3891              	.LASF8:
 3892 095e 75696E74 		.ascii	"uint32_t\000"
 3892      33325F74 
 3892      00
 3893              	.LASF30:
 3894 0967 77746D74 		.ascii	"wtmtxp\000"
 3894      787000
 3895              	.LASF60:
 3896 096e 725F7175 		.ascii	"r_queue\000"
 3896      65756500 
 3897              	.LASF71:
 3898 0976 76745F64 		.ascii	"vt_delta\000"
 3898      656C7461 
 3898      00
 3899              	.LASF55:
 3900 097f 63685F74 		.ascii	"ch_threads_list\000"
 3900      68726561 
 3900      64735F6C 
 3900      69737400 
 3901              	.LASF159:
 3902 098f 5F5A4E4B 		.ascii	"_ZNK10DataFilter14getFilterOrderEv\000"
 3902      31304461 
 3902      74614669 
 3902      6C746572 
 3902      31346765 
 3903              	.LASF192:
 3904 09b2 5F5A4E31 		.ascii	"_ZN12FuntionsMath3sumEiiPfS0_i\000"
 3904      3246756E 
 3904      74696F6E 
 3904      734D6174 
 3904      68337375 
 3905              	.LASF9:
 3906 09d1 6C6F6E67 		.ascii	"long unsigned int\000"
 3906      20756E73 
 3906      69676E65 
 3906      6420696E 
 3906      7400
 3907              	.LASF127:
 3908 09e3 63686172 		.ascii	"char\000"
 3908      00
 3909              	.LASF24:
 3910 09e8 74687265 		.ascii	"thread_t\000"
 3910      61645F74 
 3910      00
 3911              	.LASF109:
 3912 09f1 62657374 		.ascii	"best\000"
 3912      00
 3913              	.LASF126:
 3914 09f6 6D5F6E65 		.ascii	"m_next\000"
 3914      787400
 3915              	.LASF23:
 3916 09fd 73797374 		.ascii	"systime_t\000"
 3916      696D655F 
 3916      7400
 3917              	.LASF48:
 3918 0a07 705F7265 		.ascii	"p_realprio\000"
ARM GAS  C:\Users\Luis\AppData\Local\Temp\ccRWYsM4.s 			page 77


 3918      616C7072 
 3918      696F00
 3919              	.LASF66:
 3920 0a12 76746675 		.ascii	"vtfunc_t\000"
 3920      6E635F74 
 3920      00
 3921              	.LASF79:
 3922 0a1b 70616E69 		.ascii	"panic_msg\000"
 3922      635F6D73 
 3922      6700
 3923              	.LASF178:
 3924 0a25 5F5A4E31 		.ascii	"_ZN10DataFilterD0Ev\000"
 3924      30446174 
 3924      6146696C 
 3924      74657244 
 3924      30457600 
 3925              	.LASF106:
 3926 0a39 6F666673 		.ascii	"offset\000"
 3926      657400
 3927              	.LASF93:
 3928 0a40 636F6E74 		.ascii	"context\000"
 3928      65787400 
 3929              	.LASF2:
 3930 0a48 756E7369 		.ascii	"unsigned char\000"
 3930      676E6564 
 3930      20636861 
 3930      7200
 3931              	.LASF68:
 3932 0a56 63685F76 		.ascii	"ch_virtual_timer\000"
 3932      69727475 
 3932      616C5F74 
 3932      696D6572 
 3932      00
 3933              	.LASF13:
 3934 0a67 7274636E 		.ascii	"rtcnt_t\000"
 3934      745F7400 
 3935              	.LASF136:
 3936 0a6f 41727261 		.ascii	"ArrayCoefficientsA\000"
 3936      79436F65 
 3936      66666963 
 3936      69656E74 
 3936      734100
 3937              	.LASF73:
 3938 0a82 76745F70 		.ascii	"vt_par\000"
 3938      617200
 3939              	.LASF135:
 3940 0a89 41727261 		.ascii	"ArrayInputsX\000"
 3940      79496E70 
 3940      75747358 
 3940      00
 3941              	.LASF56:
 3942 0a96 74687265 		.ascii	"threads_queue_t\000"
 3942      6164735F 
 3942      71756575 
 3942      655F7400 
 3943              	.LASF123:
 3944 0aa6 63685F6D 		.ascii	"ch_mutex\000"
ARM GAS  C:\Users\Luis\AppData\Local\Temp\ccRWYsM4.s 			page 78


 3944      75746578 
 3944      00
 3945              	.LASF42:
 3946 0aaf 705F7265 		.ascii	"p_refs\000"
 3946      667300
 3947              	.LASF80:
 3948 0ab6 6973725F 		.ascii	"isr_cnt\000"
 3948      636E7400 
 3949              	.LASF139:
 3950 0abe 4D617468 		.ascii	"MathOperation\000"
 3950      4F706572 
 3950      6174696F 
 3950      6E00
 3951              	.LASF193:
 3952 0acc 44617461 		.ascii	"DataFilter\000"
 3952      46696C74 
 3952      657200
 3953              	.LASF85:
 3954 0ad7 726C6973 		.ascii	"rlist\000"
 3954      7400
 3955              	.LASF5:
 3956 0add 75696E74 		.ascii	"uint8_t\000"
 3956      385F7400 
 3957              	.LASF141:
 3958 0ae5 5F5A4E31 		.ascii	"_ZN10DataFilter13newDataFilterEiPfS0_\000"
 3958      30446174 
 3958      6146696C 
 3958      74657231 
 3958      336E6577 
 3959              	.LASF27:
 3960 0b0b 77746F62 		.ascii	"wtobjp\000"
 3960      6A7000
 3961              	.LASF38:
 3962 0b12 705F6E61 		.ascii	"p_name\000"
 3962      6D6500
 3963              	.LASF180:
 3964 0b19 5F4E756D 		.ascii	"_NumX\000"
 3964      5800
 3965              	.LASF53:
 3966 0b1f 74687265 		.ascii	"threads_list_t\000"
 3966      6164735F 
 3966      6C697374 
 3966      5F7400
 3967              	.LASF82:
 3968 0b2e 74726163 		.ascii	"trace_buffer\000"
 3968      655F6275 
 3968      66666572 
 3968      00
 3969              	.LASF41:
 3970 0b3b 705F666C 		.ascii	"p_flags\000"
 3970      61677300 
 3971              	.LASF45:
 3972 0b43 705F6D73 		.ascii	"p_msg\000"
 3972      6700
 3973              	.LASF105:
 3974 0b49 3136746D 		.ascii	"16tm_calibration_t\000"
 3974      5F63616C 
ARM GAS  C:\Users\Luis\AppData\Local\Temp\ccRWYsM4.s 			page 79


 3974      69627261 
 3974      74696F6E 
 3974      5F7400
 3975              	.LASF161:
 3976 0b5c 5F5A4E31 		.ascii	"_ZN10DataFilter14setFilterOrderEi\000"
 3976      30446174 
 3976      6146696C 
 3976      74657231 
 3976      34736574 
 3977              	.LASF117:
 3978 0b7e 6D5F6372 		.ascii	"m_crit_thd\000"
 3978      69745F74 
 3978      686400
 3979              	.LASF125:
 3980 0b89 6D5F6F77 		.ascii	"m_owner\000"
 3980      6E657200 
 3981              	.LASF146:
 3982 0b91 63726561 		.ascii	"createArrayAux\000"
 3982      74654172 
 3982      72617941 
 3982      757800
 3983              	.LASF170:
 3984 0ba0 7046696C 		.ascii	"pFilterOrder\000"
 3984      7465724F 
 3984      72646572 
 3984      00
 3985              	.LASF35:
 3986 0bad 705F6374 		.ascii	"p_ctx\000"
 3986      7800
 3987              	.LASF72:
 3988 0bb3 76745F66 		.ascii	"vt_func\000"
 3988      756E6300 
 3989              	.LASF140:
 3990 0bbb 6E657744 		.ascii	"newDataFilter\000"
 3990      61746146 
 3990      696C7465 
 3990      7200
 3991              		.ident	"GCC: (GNU Tools for ARM Embedded Processors) 4.8.3 20131129 (release) [ARM/embedded-4_8-br
ARM GAS  C:\Users\Luis\AppData\Local\Temp\ccRWYsM4.s 			page 80


DEFINED SYMBOLS
                            *ABS*:00000000 DataFilter.cpp
C:\Users\Luis\AppData\Local\Temp\ccRWYsM4.s:19     .text._ZN10DataFilter13newDataFilterEiPfS0_:00000000 $t
C:\Users\Luis\AppData\Local\Temp\ccRWYsM4.s:25     .text._ZN10DataFilter13newDataFilterEiPfS0_:00000000 _ZN10DataFilter13newDataFilterEiPfS0_
C:\Users\Luis\AppData\Local\Temp\ccRWYsM4.s:802    .text._ZN10DataFilter14setFilterOrderEi:00000000 _ZN10DataFilter14setFilterOrderEi
C:\Users\Luis\AppData\Local\Temp\ccRWYsM4.s:666    .text._ZN10DataFilter26setArrayInitialConditionsXEPf:00000000 _ZN10DataFilter26setArrayInitialConditionsXEPf
C:\Users\Luis\AppData\Local\Temp\ccRWYsM4.s:599    .text._ZN10DataFilter21setArrayCoefficientsBEPf:00000000 _ZN10DataFilter21setArrayCoefficientsBEPf
C:\Users\Luis\AppData\Local\Temp\ccRWYsM4.s:86     .text._ZN10DataFilter13newDataFilterEiPfS0_S0_S0_:00000000 $t
C:\Users\Luis\AppData\Local\Temp\ccRWYsM4.s:92     .text._ZN10DataFilter13newDataFilterEiPfS0_S0_S0_:00000000 _ZN10DataFilter13newDataFilterEiPfS0_S0_S0_
C:\Users\Luis\AppData\Local\Temp\ccRWYsM4.s:940    .text._ZN10DataFilter26setArrayInitialConditionsYEPf:00000000 _ZN10DataFilter26setArrayInitialConditionsYEPf
C:\Users\Luis\AppData\Local\Temp\ccRWYsM4.s:873    .text._ZN10DataFilter21setArrayCoefficientsAEPf:00000000 _ZN10DataFilter21setArrayCoefficientsAEPf
C:\Users\Luis\AppData\Local\Temp\ccRWYsM4.s:180    .text._ZN10DataFilter13newDataFilterEiPfS0_S0_:00000000 $t
C:\Users\Luis\AppData\Local\Temp\ccRWYsM4.s:186    .text._ZN10DataFilter13newDataFilterEiPfS0_S0_:00000000 _ZN10DataFilter13newDataFilterEiPfS0_S0_
C:\Users\Luis\AppData\Local\Temp\ccRWYsM4.s:388    .text._ZN10DataFilter14createArrayAuxEv:00000000 _ZN10DataFilter14createArrayAuxEv
C:\Users\Luis\AppData\Local\Temp\ccRWYsM4.s:273    .text._ZN10DataFilterD2Ev:00000000 $t
C:\Users\Luis\AppData\Local\Temp\ccRWYsM4.s:279    .text._ZN10DataFilterD2Ev:00000000 _ZN10DataFilterD2Ev
C:\Users\Luis\AppData\Local\Temp\ccRWYsM4.s:338    .text._ZN10DataFilterD2Ev:0000004c $d
C:\Users\Luis\AppData\Local\Temp\ccRWYsM4.s:1039   .rodata._ZTV10DataFilter:00000000 _ZTV10DataFilter
C:\Users\Luis\AppData\Local\Temp\ccRWYsM4.s:279    .text._ZN10DataFilterD2Ev:00000000 _ZN10DataFilterD1Ev
C:\Users\Luis\AppData\Local\Temp\ccRWYsM4.s:345    .text._ZN10DataFilterD0Ev:00000000 $t
C:\Users\Luis\AppData\Local\Temp\ccRWYsM4.s:351    .text._ZN10DataFilterD0Ev:00000000 _ZN10DataFilterD0Ev
C:\Users\Luis\AppData\Local\Temp\ccRWYsM4.s:382    .text._ZN10DataFilter14createArrayAuxEv:00000000 $t
C:\Users\Luis\AppData\Local\Temp\ccRWYsM4.s:492    .text._ZN10DataFilter9moveArrayEPf:00000000 $t
C:\Users\Luis\AppData\Local\Temp\ccRWYsM4.s:498    .text._ZN10DataFilter9moveArrayEPf:00000000 _ZN10DataFilter9moveArrayEPf
C:\Users\Luis\AppData\Local\Temp\ccRWYsM4.s:558    .text._ZNK10DataFilter21getArrayCoefficientsBEv:00000000 $t
C:\Users\Luis\AppData\Local\Temp\ccRWYsM4.s:564    .text._ZNK10DataFilter21getArrayCoefficientsBEv:00000000 _ZNK10DataFilter21getArrayCoefficientsBEv
C:\Users\Luis\AppData\Local\Temp\ccRWYsM4.s:593    .text._ZN10DataFilter21setArrayCoefficientsBEPf:00000000 $t
C:\Users\Luis\AppData\Local\Temp\ccRWYsM4.s:660    .text._ZN10DataFilter26setArrayInitialConditionsXEPf:00000000 $t
C:\Users\Luis\AppData\Local\Temp\ccRWYsM4.s:726    .text._ZNK10DataFilter15getArrayInputsXEv:00000000 $t
C:\Users\Luis\AppData\Local\Temp\ccRWYsM4.s:732    .text._ZNK10DataFilter15getArrayInputsXEv:00000000 _ZNK10DataFilter15getArrayInputsXEv
C:\Users\Luis\AppData\Local\Temp\ccRWYsM4.s:761    .text._ZNK10DataFilter14getFilterOrderEv:00000000 $t
C:\Users\Luis\AppData\Local\Temp\ccRWYsM4.s:767    .text._ZNK10DataFilter14getFilterOrderEv:00000000 _ZNK10DataFilter14getFilterOrderEv
C:\Users\Luis\AppData\Local\Temp\ccRWYsM4.s:796    .text._ZN10DataFilter14setFilterOrderEi:00000000 $t
C:\Users\Luis\AppData\Local\Temp\ccRWYsM4.s:832    .text._ZNK10DataFilter21getArrayCoefficientsAEv:00000000 $t
C:\Users\Luis\AppData\Local\Temp\ccRWYsM4.s:838    .text._ZNK10DataFilter21getArrayCoefficientsAEv:00000000 _ZNK10DataFilter21getArrayCoefficientsAEv
C:\Users\Luis\AppData\Local\Temp\ccRWYsM4.s:867    .text._ZN10DataFilter21setArrayCoefficientsAEPf:00000000 $t
C:\Users\Luis\AppData\Local\Temp\ccRWYsM4.s:934    .text._ZN10DataFilter26setArrayInitialConditionsYEPf:00000000 $t
C:\Users\Luis\AppData\Local\Temp\ccRWYsM4.s:1000   .text._ZNK10DataFilter15getArrayInputsYEv:00000000 $t
C:\Users\Luis\AppData\Local\Temp\ccRWYsM4.s:1006   .text._ZNK10DataFilter15getArrayInputsYEv:00000000 _ZNK10DataFilter15getArrayInputsYEv
C:\Users\Luis\AppData\Local\Temp\ccRWYsM4.s:1036   .rodata._ZTV10DataFilter:00000000 $d
                     .debug_frame:00000010 $d

UNDEFINED SYMBOLS
chHeapAlloc
chHeapFree
_ZdlPv
__aeabi_fsub
_ZN12FuntionsMath3sumEiiPfS0_i
