ARM GAS  C:\Users\Luis\AppData\Local\Temp\cccNgnvr.s 			page 1


   1              		.syntax unified
   2              		.cpu cortex-m4
   3              		.fpu softvfp
   4              		.eabi_attribute 20, 1
   5              		.eabi_attribute 21, 1
   6              		.eabi_attribute 23, 3
   7              		.eabi_attribute 24, 1
   8              		.eabi_attribute 25, 1
   9              		.eabi_attribute 26, 1
  10              		.eabi_attribute 30, 6
  11              		.eabi_attribute 34, 1
  12              		.eabi_attribute 18, 4
  13              		.thumb
  14              		.file	"DataFilterIIR.cpp"
  15              		.text
  16              	.Ltext0:
  17              		.cfi_sections	.debug_frame
  18              		.section	.text._ZN13DataFilterIIRD2Ev,"ax",%progbits
  19              		.align	2
  20              		.p2align 4,,15
  21              		.global	_ZN13DataFilterIIRD2Ev
  22              		.thumb
  23              		.thumb_func
  24              		.type	_ZN13DataFilterIIRD2Ev, %function
  25              	_ZN13DataFilterIIRD2Ev:
  26              	.LFB261:
  27              		.file 1 "DataFilterIIR.cpp"
  28              		.loc 1 10 0
  29              		.cfi_startproc
  30              		@ args = 0, pretend = 0, frame = 8
  31              		@ frame_needed = 1, uses_anonymous_args = 0
  32 0000 80B5     		push	{r7, lr}
  33              		.cfi_def_cfa_offset 8
  34              		.cfi_offset 7, -8
  35              		.cfi_offset 14, -4
  36 0002 82B0     		sub	sp, sp, #8
  37              		.cfi_def_cfa_offset 16
  38 0004 00AF     		add	r7, sp, #0
  39              		.cfi_def_cfa_register 7
  40 0006 7860     		str	r0, [r7, #4]
  41              	.LBB2:
  42              		.loc 1 10 0
  43 0008 7B68     		ldr	r3, [r7, #4]
  44 000a 124A     		ldr	r2, .L5
  45 000c 1A60     		str	r2, [r3]
  46              		.loc 1 12 0
  47 000e 7B68     		ldr	r3, [r7, #4]
  48 0010 9B68     		ldr	r3, [r3, #8]
  49 0012 1846     		mov	r0, r3
  50 0014 FFF7FEFF 		bl	chHeapFree
  51              		.loc 1 13 0
  52 0018 7B68     		ldr	r3, [r7, #4]
  53 001a 9B69     		ldr	r3, [r3, #24]
  54 001c 1846     		mov	r0, r3
  55 001e FFF7FEFF 		bl	chHeapFree
  56              		.loc 1 14 0
  57 0022 7B68     		ldr	r3, [r7, #4]
ARM GAS  C:\Users\Luis\AppData\Local\Temp\cccNgnvr.s 			page 2


  58 0024 DB69     		ldr	r3, [r3, #28]
  59 0026 1846     		mov	r0, r3
  60 0028 FFF7FEFF 		bl	chHeapFree
  61              		.loc 1 15 0
  62 002c 7B68     		ldr	r3, [r7, #4]
  63 002e DB68     		ldr	r3, [r3, #12]
  64 0030 1846     		mov	r0, r3
  65 0032 FFF7FEFF 		bl	chHeapFree
  66              		.loc 1 10 0
  67 0036 7B68     		ldr	r3, [r7, #4]
  68              		.loc 1 16 0
  69 0038 1846     		mov	r0, r3
  70 003a FFF7FEFF 		bl	_ZN10DataFilterD2Ev
  71              	.LBE2:
  72 003e 0023     		movs	r3, #0
  73 0040 002B     		cmp	r3, #0
  74 0042 02D0     		beq	.L3
  75              		.loc 1 16 0 is_stmt 0 discriminator 1
  76 0044 7868     		ldr	r0, [r7, #4]
  77 0046 FFF7FEFF 		bl	_ZdlPv
  78              	.L3:
  79              		.loc 1 16 0 discriminator 2
  80 004a 7B68     		ldr	r3, [r7, #4]
  81 004c 1846     		mov	r0, r3
  82 004e 0837     		adds	r7, r7, #8
  83 0050 BD46     		mov	sp, r7
  84              		@ sp needed
  85 0052 80BD     		pop	{r7, pc}
  86              	.L6:
  87              		.align	2
  88              	.L5:
  89 0054 08000000 		.word	_ZTV13DataFilterIIR+8
  90              		.cfi_endproc
  91              	.LFE261:
  92              		.size	_ZN13DataFilterIIRD2Ev, .-_ZN13DataFilterIIRD2Ev
  93              		.global	_ZN13DataFilterIIRD1Ev
  94              		.thumb_set _ZN13DataFilterIIRD1Ev,_ZN13DataFilterIIRD2Ev
  95 0058 AFF30080 		.section	.text._ZN13DataFilterIIRD0Ev,"ax",%progbits
  95      AFF30080 
  96              		.align	2
  97              		.p2align 4,,15
  98              		.global	_ZN13DataFilterIIRD0Ev
  99              		.thumb
 100              		.thumb_func
 101              		.type	_ZN13DataFilterIIRD0Ev, %function
 102              	_ZN13DataFilterIIRD0Ev:
 103              	.LFB263:
 104              		.loc 1 10 0 is_stmt 1
 105              		.cfi_startproc
 106              		@ args = 0, pretend = 0, frame = 8
 107              		@ frame_needed = 1, uses_anonymous_args = 0
 108 0000 80B5     		push	{r7, lr}
 109              		.cfi_def_cfa_offset 8
 110              		.cfi_offset 7, -8
 111              		.cfi_offset 14, -4
 112 0002 82B0     		sub	sp, sp, #8
 113              		.cfi_def_cfa_offset 16
ARM GAS  C:\Users\Luis\AppData\Local\Temp\cccNgnvr.s 			page 3


 114 0004 00AF     		add	r7, sp, #0
 115              		.cfi_def_cfa_register 7
 116 0006 7860     		str	r0, [r7, #4]
 117              		.loc 1 16 0
 118 0008 7868     		ldr	r0, [r7, #4]
 119 000a FFF7FEFF 		bl	_ZN13DataFilterIIRD1Ev
 120 000e 7868     		ldr	r0, [r7, #4]
 121 0010 FFF7FEFF 		bl	_ZdlPv
 122 0014 7B68     		ldr	r3, [r7, #4]
 123 0016 1846     		mov	r0, r3
 124 0018 0837     		adds	r7, r7, #8
 125 001a BD46     		mov	sp, r7
 126              		@ sp needed
 127 001c 80BD     		pop	{r7, pc}
 128              		.cfi_endproc
 129              	.LFE263:
 130              		.size	_ZN13DataFilterIIRD0Ev, .-_ZN13DataFilterIIRD0Ev
 131 001e 00BF     		.section	.text._ZN13DataFilterIIR13newDataFilterEi,"ax",%progbits
 132              		.align	2
 133              		.p2align 4,,15
 134              		.global	_ZN13DataFilterIIR13newDataFilterEi
 135              		.thumb
 136              		.thumb_func
 137              		.type	_ZN13DataFilterIIR13newDataFilterEi, %function
 138              	_ZN13DataFilterIIR13newDataFilterEi:
 139              	.LFB264:
 140              		.loc 1 18 0
 141              		.cfi_startproc
 142              		@ args = 0, pretend = 0, frame = 8
 143              		@ frame_needed = 1, uses_anonymous_args = 0
 144 0000 80B5     		push	{r7, lr}
 145              		.cfi_def_cfa_offset 8
 146              		.cfi_offset 7, -8
 147              		.cfi_offset 14, -4
 148 0002 82B0     		sub	sp, sp, #8
 149              		.cfi_def_cfa_offset 16
 150 0004 00AF     		add	r7, sp, #0
 151              		.cfi_def_cfa_register 7
 152 0006 7860     		str	r0, [r7, #4]
 153 0008 3960     		str	r1, [r7]
 154              		.loc 1 22 0
 155 000a 3B68     		ldr	r3, [r7]
 156 000c 0133     		adds	r3, r3, #1
 157 000e 9B00     		lsls	r3, r3, #2
 158 0010 0020     		movs	r0, #0
 159 0012 1946     		mov	r1, r3
 160 0014 FFF7FEFF 		bl	chHeapAlloc
 161 0018 0246     		mov	r2, r0
 162 001a 7B68     		ldr	r3, [r7, #4]
 163 001c 9A60     		str	r2, [r3, #8]
 164              		.loc 1 24 0
 165 001e 7B68     		ldr	r3, [r7, #4]
 166 0020 5B68     		ldr	r3, [r3, #4]
 167 0022 0A33     		adds	r3, r3, #10
 168 0024 9B00     		lsls	r3, r3, #2
 169 0026 0020     		movs	r0, #0
 170 0028 1946     		mov	r1, r3
ARM GAS  C:\Users\Luis\AppData\Local\Temp\cccNgnvr.s 			page 4


 171 002a FFF7FEFF 		bl	chHeapAlloc
 172 002e 0246     		mov	r2, r0
 173 0030 7B68     		ldr	r3, [r7, #4]
 174 0032 DA60     		str	r2, [r3, #12]
 175              		.loc 1 26 0
 176 0034 3B68     		ldr	r3, [r7]
 177 0036 9B00     		lsls	r3, r3, #2
 178 0038 0020     		movs	r0, #0
 179 003a 1946     		mov	r1, r3
 180 003c FFF7FEFF 		bl	chHeapAlloc
 181 0040 0246     		mov	r2, r0
 182 0042 7B68     		ldr	r3, [r7, #4]
 183 0044 9A61     		str	r2, [r3, #24]
 184              		.loc 1 28 0
 185 0046 7B68     		ldr	r3, [r7, #4]
 186 0048 5B68     		ldr	r3, [r3, #4]
 187 004a 0A33     		adds	r3, r3, #10
 188 004c 9B00     		lsls	r3, r3, #2
 189 004e 0020     		movs	r0, #0
 190 0050 1946     		mov	r1, r3
 191 0052 FFF7FEFF 		bl	chHeapAlloc
 192 0056 0246     		mov	r2, r0
 193 0058 7B68     		ldr	r3, [r7, #4]
 194 005a DA61     		str	r2, [r3, #28]
 195              		.loc 1 29 0
 196 005c 7B68     		ldr	r3, [r7, #4]
 197 005e 1846     		mov	r0, r3
 198 0060 3968     		ldr	r1, [r7]
 199 0062 FFF7FEFF 		bl	_ZN10DataFilter14setFilterOrderEi
 200              		.loc 1 30 0
 201 0066 0837     		adds	r7, r7, #8
 202 0068 BD46     		mov	sp, r7
 203              		@ sp needed
 204 006a 80BD     		pop	{r7, pc}
 205              		.cfi_endproc
 206              	.LFE264:
 207              		.size	_ZN13DataFilterIIR13newDataFilterEi, .-_ZN13DataFilterIIR13newDataFilterEi
 208              		.global	_ZTV13DataFilterIIR
 209 006c AFF30080 		.section	.rodata._ZTV13DataFilterIIR,"a",%progbits
 210              		.align	3
 211              		.type	_ZTV13DataFilterIIR, %object
 212              		.size	_ZTV13DataFilterIIR, 16
 213              	_ZTV13DataFilterIIR:
 214 0000 00000000 		.word	0
 215 0004 00000000 		.word	0
 216 0008 00000000 		.word	_ZN13DataFilterIIRD1Ev
 217 000c 00000000 		.word	_ZN13DataFilterIIRD0Ev
 218              		.text
 219              	.Letext0:
 220              		.file 2 "c:\\emtechesdk\\gcc\\arm-none-eabi\\include\\stdint.h"
 221              		.file 3 "../../ChibiOS/os/rt/ports/ARMCMx/compilers/GCC/chtypes.h"
 222              		.file 4 "../../ChibiOS/os/rt/include/chsystypes.h"
 223              		.file 5 "../../ChibiOS/os/rt/include/chschd.h"
 224              		.file 6 "../../ChibiOS/os/rt/ports/ARMCMx/chcore.h"
 225              		.file 7 "../../ChibiOS/os/rt/ports/ARMCMx/chcore_v7m.h"
 226              		.file 8 "../../ChibiOS/os/rt/include/chdebug.h"
 227              		.file 9 "../../ChibiOS/os/rt/include/chtm.h"
ARM GAS  C:\Users\Luis\AppData\Local\Temp\cccNgnvr.s 			page 5


 228              		.file 10 "../../ChibiOS/os/rt/include/chstats.h"
 229              		.file 11 "../../ChibiOS/os/rt/include/chsem.h"
 230              		.file 12 "../../ChibiOS/os/rt/include/chmtx.h"
 231              		.file 13 "header/DataFilterIIR.h"
 232              		.file 14 "../../ChibiOS/os/ext/CMSIS/include/core_cm4.h"