ARM GAS  C:\Users\Luis\AppData\Local\Temp\ccjBqsxj.s 			page 1


   1              		.syntax unified
   2              		.cpu cortex-m4
   3              		.fpu softvfp
   4              		.eabi_attribute 20, 1
   5              		.eabi_attribute 21, 1
   6              		.eabi_attribute 23, 3
   7              		.eabi_attribute 24, 1
   8              		.eabi_attribute 25, 1
   9              		.eabi_attribute 26, 1
  10              		.eabi_attribute 30, 6
  11              		.eabi_attribute 34, 1
  12              		.eabi_attribute 18, 4
  13              		.thumb
  14              		.file	"DataFilter.cpp"
  15              		.text
  16              	.Ltext0:
  17              		.cfi_sections	.debug_frame
  18              		.section	.text._ZN10DataFilter13newDataFilterEi,"ax",%progbits
  19              		.align	2
  20              		.p2align 4,,15
  21              		.global	_ZN10DataFilter13newDataFilterEi
  22              		.thumb
  23              		.thumb_func
  24              		.type	_ZN10DataFilter13newDataFilterEi, %function
  25              	_ZN10DataFilter13newDataFilterEi:
  26              	.LFB261:
  27              		.file 1 "DataFilter.cpp"
  28              		.loc 1 16 0
  29              		.cfi_startproc
  30              		@ args = 0, pretend = 0, frame = 8
  31              		@ frame_needed = 1, uses_anonymous_args = 0
  32 0000 80B5     		push	{r7, lr}
  33              		.cfi_def_cfa_offset 8
  34              		.cfi_offset 7, -8
  35              		.cfi_offset 14, -4
  36 0002 82B0     		sub	sp, sp, #8
  37              		.cfi_def_cfa_offset 16
  38 0004 00AF     		add	r7, sp, #0
  39              		.cfi_def_cfa_register 7
  40 0006 7860     		str	r0, [r7, #4]
  41 0008 3960     		str	r1, [r7]
  42              		.loc 1 20 0
  43 000a 3B68     		ldr	r3, [r7]
  44 000c 9B00     		lsls	r3, r3, #2
  45 000e 0020     		movs	r0, #0
  46 0010 1946     		mov	r1, r3
  47 0012 FFF7FEFF 		bl	chHeapAlloc
  48 0016 0246     		mov	r2, r0
  49 0018 7B68     		ldr	r3, [r7, #4]
  50 001a 9A60     		str	r2, [r3, #8]
  51              		.loc 1 22 0
  52 001c 3B68     		ldr	r3, [r7]
  53 001e 0133     		adds	r3, r3, #1
  54 0020 9B00     		lsls	r3, r3, #2
  55 0022 0020     		movs	r0, #0
  56 0024 1946     		mov	r1, r3
  57 0026 FFF7FEFF 		bl	chHeapAlloc
ARM GAS  C:\Users\Luis\AppData\Local\Temp\ccjBqsxj.s 			page 2


  58 002a 0246     		mov	r2, r0
  59 002c 7B68     		ldr	r3, [r7, #4]
  60 002e DA60     		str	r2, [r3, #12]
  61              		.loc 1 23 0
  62 0030 0823     		movs	r3, #8
  63 0032 0020     		movs	r0, #0
  64 0034 1946     		mov	r1, r3
  65 0036 FFF7FEFF 		bl	chHeapAlloc
  66 003a 0246     		mov	r2, r0
  67 003c 7B68     		ldr	r3, [r7, #4]
  68 003e 5A62     		str	r2, [r3, #36]
  69              		.loc 1 25 0
  70 0040 3B68     		ldr	r3, [r7]
  71 0042 9B00     		lsls	r3, r3, #2
  72 0044 0020     		movs	r0, #0
  73 0046 1946     		mov	r1, r3
  74 0048 FFF7FEFF 		bl	chHeapAlloc
  75 004c 0246     		mov	r2, r0
  76 004e 7B68     		ldr	r3, [r7, #4]
  77 0050 DA61     		str	r2, [r3, #28]
  78              		.loc 1 27 0
  79 0052 3B68     		ldr	r3, [r7]
  80 0054 0A33     		adds	r3, r3, #10
  81 0056 9B00     		lsls	r3, r3, #2
  82 0058 0020     		movs	r0, #0
  83 005a 1946     		mov	r1, r3
  84 005c FFF7FEFF 		bl	chHeapAlloc
  85 0060 0246     		mov	r2, r0
  86 0062 7B68     		ldr	r3, [r7, #4]
  87 0064 1A61     		str	r2, [r3, #16]
  88              		.loc 1 29 0
  89 0066 3B68     		ldr	r3, [r7]
  90 0068 0A33     		adds	r3, r3, #10
  91 006a 9B00     		lsls	r3, r3, #2
  92 006c 0020     		movs	r0, #0
  93 006e 1946     		mov	r1, r3
  94 0070 FFF7FEFF 		bl	chHeapAlloc
  95 0074 0246     		mov	r2, r0
  96 0076 7B68     		ldr	r3, [r7, #4]
  97 0078 1A62     		str	r2, [r3, #32]
  98              		.loc 1 31 0
  99 007a 7868     		ldr	r0, [r7, #4]
 100 007c 3968     		ldr	r1, [r7]
 101 007e FFF7FEFF 		bl	_ZN10DataFilter14setFilterOrderEi
 102              		.loc 1 32 0
 103 0082 0837     		adds	r7, r7, #8
 104 0084 BD46     		mov	sp, r7
 105              		@ sp needed
 106 0086 80BD     		pop	{r7, pc}
 107              		.cfi_endproc
 108              	.LFE261:
 109              		.size	_ZN10DataFilter13newDataFilterEi, .-_ZN10DataFilter13newDataFilterEi
 110 0088 AFF30080 		.section	.text._ZN10DataFilterD2Ev,"ax",%progbits
 110      AFF30080 
 111              		.align	2
 112              		.p2align 4,,15
 113              		.global	_ZN10DataFilterD2Ev
ARM GAS  C:\Users\Luis\AppData\Local\Temp\ccjBqsxj.s 			page 3


 114              		.thumb
 115              		.thumb_func
 116              		.type	_ZN10DataFilterD2Ev, %function
 117              	_ZN10DataFilterD2Ev:
 118              	.LFB263:
 119              		.loc 1 33 0
 120              		.cfi_startproc
 121              		@ args = 0, pretend = 0, frame = 8
 122              		@ frame_needed = 1, uses_anonymous_args = 0
 123 0000 80B5     		push	{r7, lr}
 124              		.cfi_def_cfa_offset 8
 125              		.cfi_offset 7, -8
 126              		.cfi_offset 14, -4
 127 0002 82B0     		sub	sp, sp, #8
 128              		.cfi_def_cfa_offset 16
 129 0004 00AF     		add	r7, sp, #0
 130              		.cfi_def_cfa_register 7
 131 0006 7860     		str	r0, [r7, #4]
 132              	.LBB2:
 133              		.loc 1 33 0
 134 0008 7B68     		ldr	r3, [r7, #4]
 135 000a 154A     		ldr	r2, .L6
 136 000c 1A60     		str	r2, [r3]
 137              		.loc 1 35 0
 138 000e 7B68     		ldr	r3, [r7, #4]
 139 0010 9B68     		ldr	r3, [r3, #8]
 140 0012 1846     		mov	r0, r3
 141 0014 FFF7FEFF 		bl	chHeapFree
 142              		.loc 1 36 0
 143 0018 7B68     		ldr	r3, [r7, #4]
 144 001a DB68     		ldr	r3, [r3, #12]
 145 001c 1846     		mov	r0, r3
 146 001e FFF7FEFF 		bl	chHeapFree
 147              		.loc 1 37 0
 148 0022 7B68     		ldr	r3, [r7, #4]
 149 0024 5B6A     		ldr	r3, [r3, #36]
 150 0026 1846     		mov	r0, r3
 151 0028 FFF7FEFF 		bl	chHeapFree
 152              		.loc 1 38 0
 153 002c 7B68     		ldr	r3, [r7, #4]
 154 002e DB69     		ldr	r3, [r3, #28]
 155 0030 1846     		mov	r0, r3
 156 0032 FFF7FEFF 		bl	chHeapFree
 157              		.loc 1 39 0
 158 0036 7B68     		ldr	r3, [r7, #4]
 159 0038 1B69     		ldr	r3, [r3, #16]
 160 003a 1846     		mov	r0, r3
 161 003c FFF7FEFF 		bl	chHeapFree
 162              		.loc 1 40 0
 163 0040 7B68     		ldr	r3, [r7, #4]
 164 0042 1B6A     		ldr	r3, [r3, #32]
 165 0044 1846     		mov	r0, r3
 166 0046 FFF7FEFF 		bl	chHeapFree
 167              	.LBE2:
 168              		.loc 1 41 0
 169 004a 0023     		movs	r3, #0
 170 004c 002B     		cmp	r3, #0
ARM GAS  C:\Users\Luis\AppData\Local\Temp\ccjBqsxj.s 			page 4


 171 004e 02D0     		beq	.L4
 172              		.loc 1 41 0 is_stmt 0 discriminator 1
 173 0050 7868     		ldr	r0, [r7, #4]
 174 0052 FFF7FEFF 		bl	_ZdlPv
 175              	.L4:
 176              		.loc 1 41 0 discriminator 2
 177 0056 7B68     		ldr	r3, [r7, #4]
 178 0058 1846     		mov	r0, r3
 179 005a 0837     		adds	r7, r7, #8
 180 005c BD46     		mov	sp, r7
 181              		@ sp needed
 182 005e 80BD     		pop	{r7, pc}
 183              	.L7:
 184              		.align	2
 185              	.L6:
 186 0060 08000000 		.word	_ZTV10DataFilter+8
 187              		.cfi_endproc
 188              	.LFE263:
 189              		.size	_ZN10DataFilterD2Ev, .-_ZN10DataFilterD2Ev
 190              		.global	_ZN10DataFilterD1Ev
 191              		.thumb_set _ZN10DataFilterD1Ev,_ZN10DataFilterD2Ev
 192 0064 AFF30080 		.section	.text._ZN10DataFilterD0Ev,"ax",%progbits
 192      AFF30080 
 192      AFF30080 
 193              		.align	2
 194              		.p2align 4,,15
 195              		.global	_ZN10DataFilterD0Ev
 196              		.thumb
 197              		.thumb_func
 198              		.type	_ZN10DataFilterD0Ev, %function
 199              	_ZN10DataFilterD0Ev:
 200              	.LFB265:
 201              		.loc 1 33 0 is_stmt 1
 202              		.cfi_startproc
 203              		@ args = 0, pretend = 0, frame = 8
 204              		@ frame_needed = 1, uses_anonymous_args = 0
 205 0000 80B5     		push	{r7, lr}
 206              		.cfi_def_cfa_offset 8
 207              		.cfi_offset 7, -8
 208              		.cfi_offset 14, -4
 209 0002 82B0     		sub	sp, sp, #8
 210              		.cfi_def_cfa_offset 16
 211 0004 00AF     		add	r7, sp, #0
 212              		.cfi_def_cfa_register 7
 213 0006 7860     		str	r0, [r7, #4]
 214              		.loc 1 41 0
 215 0008 7868     		ldr	r0, [r7, #4]
 216 000a FFF7FEFF 		bl	_ZN10DataFilterD1Ev
 217 000e 7868     		ldr	r0, [r7, #4]
 218 0010 FFF7FEFF 		bl	_ZdlPv
 219 0014 7B68     		ldr	r3, [r7, #4]
 220 0016 1846     		mov	r0, r3
 221 0018 0837     		adds	r7, r7, #8
 222 001a BD46     		mov	sp, r7
 223              		@ sp needed
 224 001c 80BD     		pop	{r7, pc}
 225              		.cfi_endproc
ARM GAS  C:\Users\Luis\AppData\Local\Temp\ccjBqsxj.s 			page 5


 226              	.LFE265:
 227              		.size	_ZN10DataFilterD0Ev, .-_ZN10DataFilterD0Ev
 228 001e 00BF     		.section	.text._ZN10DataFilter19createArrayInputFIREv,"ax",%progbits
 229              		.align	2
 230              		.p2align 4,,15
 231              		.global	_ZN10DataFilter19createArrayInputFIREv
 232              		.thumb
 233              		.thumb_func
 234              		.type	_ZN10DataFilter19createArrayInputFIREv, %function
 235              	_ZN10DataFilter19createArrayInputFIREv:
 236              	.LFB266:
 237              		.loc 1 43 0
 238              		.cfi_startproc
 239              		@ args = 0, pretend = 0, frame = 8
 240              		@ frame_needed = 1, uses_anonymous_args = 0
 241              		@ link register save eliminated.
 242 0000 80B4     		push	{r7}
 243              		.cfi_def_cfa_offset 4
 244              		.cfi_offset 7, -4
 245 0002 83B0     		sub	sp, sp, #12
 246              		.cfi_def_cfa_offset 16
 247 0004 00AF     		add	r7, sp, #0
 248              		.cfi_def_cfa_register 7
 249 0006 7860     		str	r0, [r7, #4]
 250              		.loc 1 44 0
 251 0008 7B68     		ldr	r3, [r7, #4]
 252 000a 0922     		movs	r2, #9
 253 000c 1A63     		str	r2, [r3, #48]
 254 000e 15E0     		b	.L12
 255              	.L13:
 256              		.loc 1 45 0 discriminator 2
 257 0010 7B68     		ldr	r3, [r7, #4]
 258 0012 1A69     		ldr	r2, [r3, #16]
 259 0014 7B68     		ldr	r3, [r7, #4]
 260 0016 196B     		ldr	r1, [r3, #48]
 261 0018 7B68     		ldr	r3, [r7, #4]
 262 001a 5B68     		ldr	r3, [r3, #4]
 263 001c 0B44     		add	r3, r3, r1
 264 001e 9B00     		lsls	r3, r3, #2
 265 0020 1344     		add	r3, r3, r2
 266 0022 7A68     		ldr	r2, [r7, #4]
 267 0024 1169     		ldr	r1, [r2, #16]
 268 0026 7A68     		ldr	r2, [r7, #4]
 269 0028 126B     		ldr	r2, [r2, #48]
 270 002a 9200     		lsls	r2, r2, #2
 271 002c 0A44     		add	r2, r2, r1
 272 002e 1268     		ldr	r2, [r2]	@ float
 273 0030 1A60     		str	r2, [r3]	@ float
 274              		.loc 1 44 0 discriminator 2
 275 0032 7B68     		ldr	r3, [r7, #4]
 276 0034 1B6B     		ldr	r3, [r3, #48]
 277 0036 5A1E     		subs	r2, r3, #1
 278 0038 7B68     		ldr	r3, [r7, #4]
 279 003a 1A63     		str	r2, [r3, #48]
 280              	.L12:
 281              		.loc 1 44 0 is_stmt 0 discriminator 1
 282 003c 7B68     		ldr	r3, [r7, #4]
ARM GAS  C:\Users\Luis\AppData\Local\Temp\ccjBqsxj.s 			page 6


 283 003e 1B6B     		ldr	r3, [r3, #48]
 284 0040 002B     		cmp	r3, #0
 285 0042 E5DA     		bge	.L13
 286              		.loc 1 48 0 is_stmt 1
 287 0044 7B68     		ldr	r3, [r7, #4]
 288 0046 0022     		movs	r2, #0
 289 0048 1A63     		str	r2, [r3, #48]
 290 004a 12E0     		b	.L14
 291              	.L15:
 292              		.loc 1 49 0 discriminator 2
 293 004c 7B68     		ldr	r3, [r7, #4]
 294 004e 1A69     		ldr	r2, [r3, #16]
 295 0050 7B68     		ldr	r3, [r7, #4]
 296 0052 1B6B     		ldr	r3, [r3, #48]
 297 0054 9B00     		lsls	r3, r3, #2
 298 0056 1344     		add	r3, r3, r2
 299 0058 7A68     		ldr	r2, [r7, #4]
 300 005a 9168     		ldr	r1, [r2, #8]
 301 005c 7A68     		ldr	r2, [r7, #4]
 302 005e 126B     		ldr	r2, [r2, #48]
 303 0060 9200     		lsls	r2, r2, #2
 304 0062 0A44     		add	r2, r2, r1
 305 0064 1268     		ldr	r2, [r2]	@ float
 306 0066 1A60     		str	r2, [r3]	@ float
 307              		.loc 1 48 0 discriminator 2
 308 0068 7B68     		ldr	r3, [r7, #4]
 309 006a 1B6B     		ldr	r3, [r3, #48]
 310 006c 5A1C     		adds	r2, r3, #1
 311 006e 7B68     		ldr	r3, [r7, #4]
 312 0070 1A63     		str	r2, [r3, #48]
 313              	.L14:
 314              		.loc 1 48 0 is_stmt 0 discriminator 1
 315 0072 7B68     		ldr	r3, [r7, #4]
 316 0074 1A6B     		ldr	r2, [r3, #48]
 317 0076 7B68     		ldr	r3, [r7, #4]
 318 0078 5B68     		ldr	r3, [r3, #4]
 319 007a 9A42     		cmp	r2, r3
 320 007c E6DB     		blt	.L15
 321              		.loc 1 51 0 is_stmt 1
 322 007e 0C37     		adds	r7, r7, #12
 323 0080 BD46     		mov	sp, r7
 324              		@ sp needed
 325 0082 5DF8047B 		ldr	r7, [sp], #4
 326 0086 7047     		bx	lr
 327              		.cfi_endproc
 328              	.LFE266:
 329              		.size	_ZN10DataFilter19createArrayInputFIREv, .-_ZN10DataFilter19createArrayInputFIREv
 330 0088 AFF30080 		.section	.text._ZN10DataFilter19createArrayInputIIREv,"ax",%progbits
 330      AFF30080 
 331              		.align	2
 332              		.p2align 4,,15
 333              		.global	_ZN10DataFilter19createArrayInputIIREv
 334              		.thumb
 335              		.thumb_func
 336              		.type	_ZN10DataFilter19createArrayInputIIREv, %function
 337              	_ZN10DataFilter19createArrayInputIIREv:
 338              	.LFB267:
ARM GAS  C:\Users\Luis\AppData\Local\Temp\ccjBqsxj.s 			page 7


 339              		.loc 1 53 0
 340              		.cfi_startproc
 341              		@ args = 0, pretend = 0, frame = 8
 342              		@ frame_needed = 1, uses_anonymous_args = 0
 343              		@ link register save eliminated.
 344 0000 80B4     		push	{r7}
 345              		.cfi_def_cfa_offset 4
 346              		.cfi_offset 7, -4
 347 0002 83B0     		sub	sp, sp, #12
 348              		.cfi_def_cfa_offset 16
 349 0004 00AF     		add	r7, sp, #0
 350              		.cfi_def_cfa_register 7
 351 0006 7860     		str	r0, [r7, #4]
 352              		.loc 1 54 0
 353 0008 7B68     		ldr	r3, [r7, #4]
 354 000a 0022     		movs	r2, #0
 355 000c 1A63     		str	r2, [r3, #48]
 356 000e 12E0     		b	.L17
 357              	.L18:
 358              		.loc 1 55 0 discriminator 2
 359 0010 7B68     		ldr	r3, [r7, #4]
 360 0012 1A69     		ldr	r2, [r3, #16]
 361 0014 7B68     		ldr	r3, [r7, #4]
 362 0016 1B6B     		ldr	r3, [r3, #48]
 363 0018 9B00     		lsls	r3, r3, #2
 364 001a 1344     		add	r3, r3, r2
 365 001c 7A68     		ldr	r2, [r7, #4]
 366 001e 9168     		ldr	r1, [r2, #8]
 367 0020 7A68     		ldr	r2, [r7, #4]
 368 0022 126B     		ldr	r2, [r2, #48]
 369 0024 9200     		lsls	r2, r2, #2
 370 0026 0A44     		add	r2, r2, r1
 371 0028 1268     		ldr	r2, [r2]	@ float
 372 002a 1A60     		str	r2, [r3]	@ float
 373              		.loc 1 54 0 discriminator 2
 374 002c 7B68     		ldr	r3, [r7, #4]
 375 002e 1B6B     		ldr	r3, [r3, #48]
 376 0030 5A1C     		adds	r2, r3, #1
 377 0032 7B68     		ldr	r3, [r7, #4]
 378 0034 1A63     		str	r2, [r3, #48]
 379              	.L17:
 380              		.loc 1 54 0 is_stmt 0 discriminator 1
 381 0036 7B68     		ldr	r3, [r7, #4]
 382 0038 1A6B     		ldr	r2, [r3, #48]
 383 003a 7B68     		ldr	r3, [r7, #4]
 384 003c 5B68     		ldr	r3, [r3, #4]
 385 003e 9A42     		cmp	r2, r3
 386 0040 E6DB     		blt	.L18
 387              		.loc 1 57 0 is_stmt 1
 388 0042 0C37     		adds	r7, r7, #12
 389 0044 BD46     		mov	sp, r7
 390              		@ sp needed
 391 0046 5DF8047B 		ldr	r7, [sp], #4
 392 004a 7047     		bx	lr
 393              		.cfi_endproc
 394              	.LFE267:
 395              		.size	_ZN10DataFilter19createArrayInputIIREv, .-_ZN10DataFilter19createArrayInputIIREv
ARM GAS  C:\Users\Luis\AppData\Local\Temp\ccjBqsxj.s 			page 8


 396 004c AFF30080 		.section	.text._ZN10DataFilter9moveArrayEPf,"ax",%progbits
 397              		.align	2
 398              		.p2align 4,,15
 399              		.global	_ZN10DataFilter9moveArrayEPf
 400              		.thumb
 401              		.thumb_func
 402              		.type	_ZN10DataFilter9moveArrayEPf, %function
 403              	_ZN10DataFilter9moveArrayEPf:
 404              	.LFB268:
 405              		.loc 1 73 0
 406              		.cfi_startproc
 407              		@ args = 0, pretend = 0, frame = 8
 408              		@ frame_needed = 1, uses_anonymous_args = 0
 409              		@ link register save eliminated.
 410 0000 80B4     		push	{r7}
 411              		.cfi_def_cfa_offset 4
 412              		.cfi_offset 7, -4
 413 0002 83B0     		sub	sp, sp, #12
 414              		.cfi_def_cfa_offset 16
 415 0004 00AF     		add	r7, sp, #0
 416              		.cfi_def_cfa_register 7
 417 0006 7860     		str	r0, [r7, #4]
 418 0008 3960     		str	r1, [r7]
 419              		.loc 1 74 0
 420 000a 7B68     		ldr	r3, [r7, #4]
 421 000c 0022     		movs	r2, #0
 422 000e 1A63     		str	r2, [r3, #48]
 423 0010 11E0     		b	.L20
 424              	.L21:
 425              		.loc 1 75 0 discriminator 2
 426 0012 7B68     		ldr	r3, [r7, #4]
 427 0014 1B6B     		ldr	r3, [r3, #48]
 428 0016 9B00     		lsls	r3, r3, #2
 429 0018 3A68     		ldr	r2, [r7]
 430 001a 1344     		add	r3, r3, r2
 431 001c 7A68     		ldr	r2, [r7, #4]
 432 001e 126B     		ldr	r2, [r2, #48]
 433 0020 0A32     		adds	r2, r2, #10
 434 0022 9200     		lsls	r2, r2, #2
 435 0024 3968     		ldr	r1, [r7]
 436 0026 0A44     		add	r2, r2, r1
 437 0028 1268     		ldr	r2, [r2]	@ float
 438 002a 1A60     		str	r2, [r3]	@ float
 439              		.loc 1 74 0 discriminator 2
 440 002c 7B68     		ldr	r3, [r7, #4]
 441 002e 1B6B     		ldr	r3, [r3, #48]
 442 0030 5A1C     		adds	r2, r3, #1
 443 0032 7B68     		ldr	r3, [r7, #4]
 444 0034 1A63     		str	r2, [r3, #48]
 445              	.L20:
 446              		.loc 1 74 0 is_stmt 0 discriminator 1
 447 0036 7B68     		ldr	r3, [r7, #4]
 448 0038 1A6B     		ldr	r2, [r3, #48]
 449 003a 7B68     		ldr	r3, [r7, #4]
 450 003c 5B68     		ldr	r3, [r3, #4]
 451 003e 9A42     		cmp	r2, r3
 452 0040 E7DB     		blt	.L21
ARM GAS  C:\Users\Luis\AppData\Local\Temp\ccjBqsxj.s 			page 9


 453              		.loc 1 77 0 is_stmt 1
 454 0042 0C37     		adds	r7, r7, #12
 455 0044 BD46     		mov	sp, r7
 456              		@ sp needed
 457 0046 5DF8047B 		ldr	r7, [sp], #4
 458 004a 7047     		bx	lr
 459              		.cfi_endproc
 460              	.LFE268:
 461              		.size	_ZN10DataFilter9moveArrayEPf, .-_ZN10DataFilter9moveArrayEPf
 462 004c AFF30080 		.section	.text._ZNK10DataFilter14getArrayResultEv,"ax",%progbits
 463              		.align	2
 464              		.p2align 4,,15
 465              		.global	_ZNK10DataFilter14getArrayResultEv
 466              		.thumb
 467              		.thumb_func
 468              		.type	_ZNK10DataFilter14getArrayResultEv, %function
 469              	_ZNK10DataFilter14getArrayResultEv:
 470              	.LFB269:
 471              		.loc 1 86 0
 472              		.cfi_startproc
 473              		@ args = 0, pretend = 0, frame = 8
 474              		@ frame_needed = 1, uses_anonymous_args = 0
 475              		@ link register save eliminated.
 476 0000 80B4     		push	{r7}
 477              		.cfi_def_cfa_offset 4
 478              		.cfi_offset 7, -4
 479 0002 83B0     		sub	sp, sp, #12
 480              		.cfi_def_cfa_offset 16
 481 0004 00AF     		add	r7, sp, #0
 482              		.cfi_def_cfa_register 7
 483 0006 7860     		str	r0, [r7, #4]
 484              		.loc 1 87 0
 485 0008 7B68     		ldr	r3, [r7, #4]
 486 000a 1B6A     		ldr	r3, [r3, #32]
 487              		.loc 1 88 0
 488 000c 1846     		mov	r0, r3
 489 000e 0C37     		adds	r7, r7, #12
 490 0010 BD46     		mov	sp, r7
 491              		@ sp needed
 492 0012 5DF8047B 		ldr	r7, [sp], #4
 493 0016 7047     		bx	lr
 494              		.cfi_endproc
 495              	.LFE269:
 496              		.size	_ZNK10DataFilter14getArrayResultEv, .-_ZNK10DataFilter14getArrayResultEv
 497 0018 AFF30080 		.section	.text._ZN10DataFilter14setArrayResultEPf,"ax",%progbits
 497      AFF30080 
 498              		.align	2
 499              		.p2align 4,,15
 500              		.global	_ZN10DataFilter14setArrayResultEPf
 501              		.thumb
 502              		.thumb_func
 503              		.type	_ZN10DataFilter14setArrayResultEPf, %function
 504              	_ZN10DataFilter14setArrayResultEPf:
 505              	.LFB270:
 506              		.loc 1 90 0
 507              		.cfi_startproc
 508              		@ args = 0, pretend = 0, frame = 8
ARM GAS  C:\Users\Luis\AppData\Local\Temp\ccjBqsxj.s 			page 10


 509              		@ frame_needed = 1, uses_anonymous_args = 0
 510              		@ link register save eliminated.
 511 0000 80B4     		push	{r7}
 512              		.cfi_def_cfa_offset 4
 513              		.cfi_offset 7, -4
 514 0002 83B0     		sub	sp, sp, #12
 515              		.cfi_def_cfa_offset 16
 516 0004 00AF     		add	r7, sp, #0
 517              		.cfi_def_cfa_register 7
 518 0006 7860     		str	r0, [r7, #4]
 519 0008 3960     		str	r1, [r7]
 520              		.loc 1 91 0
 521 000a 7B68     		ldr	r3, [r7, #4]
 522 000c 3A68     		ldr	r2, [r7]
 523 000e 1A62     		str	r2, [r3, #32]
 524              		.loc 1 92 0
 525 0010 0C37     		adds	r7, r7, #12
 526 0012 BD46     		mov	sp, r7
 527              		@ sp needed
 528 0014 5DF8047B 		ldr	r7, [sp], #4
 529 0018 7047     		bx	lr
 530              		.cfi_endproc
 531              	.LFE270:
 532              		.size	_ZN10DataFilter14setArrayResultEPf, .-_ZN10DataFilter14setArrayResultEPf
 533 001a 00BFAFF3 		.section	.text._ZNK10DataFilter13getNumbOutputEv,"ax",%progbits
 533      0080
 534              		.align	2
 535              		.p2align 4,,15
 536              		.global	_ZNK10DataFilter13getNumbOutputEv
 537              		.thumb
 538              		.thumb_func
 539              		.type	_ZNK10DataFilter13getNumbOutputEv, %function
 540              	_ZNK10DataFilter13getNumbOutputEv:
 541              	.LFB271:
 542              		.loc 1 94 0
 543              		.cfi_startproc
 544              		@ args = 0, pretend = 0, frame = 8
 545              		@ frame_needed = 1, uses_anonymous_args = 0
 546              		@ link register save eliminated.
 547 0000 80B4     		push	{r7}
 548              		.cfi_def_cfa_offset 4
 549              		.cfi_offset 7, -4
 550 0002 83B0     		sub	sp, sp, #12
 551              		.cfi_def_cfa_offset 16
 552 0004 00AF     		add	r7, sp, #0
 553              		.cfi_def_cfa_register 7
 554 0006 7860     		str	r0, [r7, #4]
 555              		.loc 1 95 0
 556 0008 7B68     		ldr	r3, [r7, #4]
 557 000a 9B6A     		ldr	r3, [r3, #40]
 558              		.loc 1 96 0
 559 000c 1846     		mov	r0, r3
 560 000e 0C37     		adds	r7, r7, #12
 561 0010 BD46     		mov	sp, r7
 562              		@ sp needed
 563 0012 5DF8047B 		ldr	r7, [sp], #4
 564 0016 7047     		bx	lr
ARM GAS  C:\Users\Luis\AppData\Local\Temp\ccjBqsxj.s 			page 11


 565              		.cfi_endproc
 566              	.LFE271:
 567              		.size	_ZNK10DataFilter13getNumbOutputEv, .-_ZNK10DataFilter13getNumbOutputEv
 568 0018 AFF30080 		.section	.text._ZN10DataFilter13setNumbOutputEi,"ax",%progbits
 568      AFF30080 
 569              		.align	2
 570              		.p2align 4,,15
 571              		.global	_ZN10DataFilter13setNumbOutputEi
 572              		.thumb
 573              		.thumb_func
 574              		.type	_ZN10DataFilter13setNumbOutputEi, %function
 575              	_ZN10DataFilter13setNumbOutputEi:
 576              	.LFB272:
 577              		.loc 1 98 0
 578              		.cfi_startproc
 579              		@ args = 0, pretend = 0, frame = 8
 580              		@ frame_needed = 1, uses_anonymous_args = 0
 581              		@ link register save eliminated.
 582 0000 80B4     		push	{r7}
 583              		.cfi_def_cfa_offset 4
 584              		.cfi_offset 7, -4
 585 0002 83B0     		sub	sp, sp, #12
 586              		.cfi_def_cfa_offset 16
 587 0004 00AF     		add	r7, sp, #0
 588              		.cfi_def_cfa_register 7
 589 0006 7860     		str	r0, [r7, #4]
 590 0008 3960     		str	r1, [r7]
 591              		.loc 1 99 0
 592 000a 7B68     		ldr	r3, [r7, #4]
 593 000c 3A68     		ldr	r2, [r7]
 594 000e 9A62     		str	r2, [r3, #40]
 595              		.loc 1 100 0
 596 0010 0C37     		adds	r7, r7, #12
 597 0012 BD46     		mov	sp, r7
 598              		@ sp needed
 599 0014 5DF8047B 		ldr	r7, [sp], #4
 600 0018 7047     		bx	lr
 601              		.cfi_endproc
 602              	.LFE272:
 603              		.size	_ZN10DataFilter13setNumbOutputEi, .-_ZN10DataFilter13setNumbOutputEi
 604 001a 00BFAFF3 		.section	.text._ZN10DataFilter10numbOutputEPi,"ax",%progbits
 604      0080
 605              		.align	2
 606              		.p2align 4,,15
 607              		.global	_ZN10DataFilter10numbOutputEPi
 608              		.thumb
 609              		.thumb_func
 610              		.type	_ZN10DataFilter10numbOutputEPi, %function
 611              	_ZN10DataFilter10numbOutputEPi:
 612              	.LFB273:
 613              		.loc 1 102 0
 614              		.cfi_startproc
 615              		@ args = 0, pretend = 0, frame = 8
 616              		@ frame_needed = 1, uses_anonymous_args = 0
 617 0000 80B5     		push	{r7, lr}
 618              		.cfi_def_cfa_offset 8
 619              		.cfi_offset 7, -8
ARM GAS  C:\Users\Luis\AppData\Local\Temp\ccjBqsxj.s 			page 12


 620              		.cfi_offset 14, -4
 621 0002 82B0     		sub	sp, sp, #8
 622              		.cfi_def_cfa_offset 16
 623 0004 00AF     		add	r7, sp, #0
 624              		.cfi_def_cfa_register 7
 625 0006 7860     		str	r0, [r7, #4]
 626 0008 3960     		str	r1, [r7]
 627              		.loc 1 103 0
 628 000a 3B68     		ldr	r3, [r7]
 629 000c 0433     		adds	r3, r3, #4
 630 000e 1A68     		ldr	r2, [r3]
 631 0010 3B68     		ldr	r3, [r7]
 632 0012 1B68     		ldr	r3, [r3]
 633 0014 D31A     		subs	r3, r2, r3
 634 0016 5A1C     		adds	r2, r3, #1
 635 0018 7B68     		ldr	r3, [r7, #4]
 636 001a 9A62     		str	r2, [r3, #40]
 637              		.loc 1 104 0
 638 001c 7B68     		ldr	r3, [r7, #4]
 639 001e 9B6A     		ldr	r3, [r3, #40]
 640 0020 9B00     		lsls	r3, r3, #2
 641 0022 0020     		movs	r0, #0
 642 0024 1946     		mov	r1, r3
 643 0026 FFF7FEFF 		bl	chHeapAlloc
 644 002a 0246     		mov	r2, r0
 645 002c 7B68     		ldr	r3, [r7, #4]
 646 002e 1A62     		str	r2, [r3, #32]
 647              		.loc 1 106 0
 648 0030 0837     		adds	r7, r7, #8
 649 0032 BD46     		mov	sp, r7
 650              		@ sp needed
 651 0034 80BD     		pop	{r7, pc}
 652              		.cfi_endproc
 653              	.LFE273:
 654              		.size	_ZN10DataFilter10numbOutputEPi, .-_ZN10DataFilter10numbOutputEPi
 655 0036 00BFAFF3 		.section	.text._ZNK10DataFilter21getArrayCoefficientsBEv,"ax",%progbits
 655      0080AFF3 
 655      0080
 656              		.align	2
 657              		.p2align 4,,15
 658              		.global	_ZNK10DataFilter21getArrayCoefficientsBEv
 659              		.thumb
 660              		.thumb_func
 661              		.type	_ZNK10DataFilter21getArrayCoefficientsBEv, %function
 662              	_ZNK10DataFilter21getArrayCoefficientsBEv:
 663              	.LFB274:
 664              		.loc 1 108 0
 665              		.cfi_startproc
 666              		@ args = 0, pretend = 0, frame = 8
 667              		@ frame_needed = 1, uses_anonymous_args = 0
 668              		@ link register save eliminated.
 669 0000 80B4     		push	{r7}
 670              		.cfi_def_cfa_offset 4
 671              		.cfi_offset 7, -4
 672 0002 83B0     		sub	sp, sp, #12
 673              		.cfi_def_cfa_offset 16
 674 0004 00AF     		add	r7, sp, #0
ARM GAS  C:\Users\Luis\AppData\Local\Temp\ccjBqsxj.s 			page 13


 675              		.cfi_def_cfa_register 7
 676 0006 7860     		str	r0, [r7, #4]
 677              		.loc 1 109 0
 678 0008 7B68     		ldr	r3, [r7, #4]
 679 000a DB68     		ldr	r3, [r3, #12]
 680              		.loc 1 110 0
 681 000c 1846     		mov	r0, r3
 682 000e 0C37     		adds	r7, r7, #12
 683 0010 BD46     		mov	sp, r7
 684              		@ sp needed
 685 0012 5DF8047B 		ldr	r7, [sp], #4
 686 0016 7047     		bx	lr
 687              		.cfi_endproc
 688              	.LFE274:
 689              		.size	_ZNK10DataFilter21getArrayCoefficientsBEv, .-_ZNK10DataFilter21getArrayCoefficientsBEv
 690 0018 AFF30080 		.section	.text._ZN10DataFilter21setArrayCoefficientsBEPf,"ax",%progbits
 690      AFF30080 
 691              		.align	2
 692              		.p2align 4,,15
 693              		.global	_ZN10DataFilter21setArrayCoefficientsBEPf
 694              		.thumb
 695              		.thumb_func
 696              		.type	_ZN10DataFilter21setArrayCoefficientsBEPf, %function
 697              	_ZN10DataFilter21setArrayCoefficientsBEPf:
 698              	.LFB275:
 699              		.loc 1 112 0
 700              		.cfi_startproc
 701              		@ args = 0, pretend = 0, frame = 8
 702              		@ frame_needed = 1, uses_anonymous_args = 0
 703              		@ link register save eliminated.
 704 0000 80B4     		push	{r7}
 705              		.cfi_def_cfa_offset 4
 706              		.cfi_offset 7, -4
 707 0002 83B0     		sub	sp, sp, #12
 708              		.cfi_def_cfa_offset 16
 709 0004 00AF     		add	r7, sp, #0
 710              		.cfi_def_cfa_register 7
 711 0006 7860     		str	r0, [r7, #4]
 712 0008 3960     		str	r1, [r7]
 713              		.loc 1 113 0
 714 000a 7B68     		ldr	r3, [r7, #4]
 715 000c 0022     		movs	r2, #0
 716 000e 1A63     		str	r2, [r3, #48]
 717 0010 11E0     		b	.L32
 718              	.L33:
 719              		.loc 1 114 0 discriminator 2
 720 0012 7B68     		ldr	r3, [r7, #4]
 721 0014 DA68     		ldr	r2, [r3, #12]
 722 0016 7B68     		ldr	r3, [r7, #4]
 723 0018 1B6B     		ldr	r3, [r3, #48]
 724 001a 9B00     		lsls	r3, r3, #2
 725 001c 1344     		add	r3, r3, r2
 726 001e 7A68     		ldr	r2, [r7, #4]
 727 0020 126B     		ldr	r2, [r2, #48]
 728 0022 9200     		lsls	r2, r2, #2
 729 0024 3968     		ldr	r1, [r7]
 730 0026 0A44     		add	r2, r2, r1
ARM GAS  C:\Users\Luis\AppData\Local\Temp\ccjBqsxj.s 			page 14


 731 0028 1268     		ldr	r2, [r2]	@ float
 732 002a 1A60     		str	r2, [r3]	@ float
 733              		.loc 1 113 0 discriminator 2
 734 002c 7B68     		ldr	r3, [r7, #4]
 735 002e 1B6B     		ldr	r3, [r3, #48]
 736 0030 5A1C     		adds	r2, r3, #1
 737 0032 7B68     		ldr	r3, [r7, #4]
 738 0034 1A63     		str	r2, [r3, #48]
 739              	.L32:
 740              		.loc 1 113 0 is_stmt 0 discriminator 1
 741 0036 7B68     		ldr	r3, [r7, #4]
 742 0038 1A6B     		ldr	r2, [r3, #48]
 743 003a 7B68     		ldr	r3, [r7, #4]
 744 003c 5B68     		ldr	r3, [r3, #4]
 745 003e 0133     		adds	r3, r3, #1
 746 0040 9A42     		cmp	r2, r3
 747 0042 E6DB     		blt	.L33
 748              		.loc 1 116 0 is_stmt 1
 749 0044 0C37     		adds	r7, r7, #12
 750 0046 BD46     		mov	sp, r7
 751              		@ sp needed
 752 0048 5DF8047B 		ldr	r7, [sp], #4
 753 004c 7047     		bx	lr
 754              		.cfi_endproc
 755              	.LFE275:
 756              		.size	_ZN10DataFilter21setArrayCoefficientsBEPf, .-_ZN10DataFilter21setArrayCoefficientsBEPf
 757 004e 00BF     		.section	.text._ZN10DataFilter26setArrayInitialConditionsXEPf,"ax",%progbits
 758              		.align	2
 759              		.p2align 4,,15
 760              		.global	_ZN10DataFilter26setArrayInitialConditionsXEPf
 761              		.thumb
 762              		.thumb_func
 763              		.type	_ZN10DataFilter26setArrayInitialConditionsXEPf, %function
 764              	_ZN10DataFilter26setArrayInitialConditionsXEPf:
 765              	.LFB276:
 766              		.loc 1 118 0
 767              		.cfi_startproc
 768              		@ args = 0, pretend = 0, frame = 8
 769              		@ frame_needed = 1, uses_anonymous_args = 0
 770              		@ link register save eliminated.
 771 0000 80B4     		push	{r7}
 772              		.cfi_def_cfa_offset 4
 773              		.cfi_offset 7, -4
 774 0002 83B0     		sub	sp, sp, #12
 775              		.cfi_def_cfa_offset 16
 776 0004 00AF     		add	r7, sp, #0
 777              		.cfi_def_cfa_register 7
 778 0006 7860     		str	r0, [r7, #4]
 779 0008 3960     		str	r1, [r7]
 780              		.loc 1 119 0
 781 000a 7B68     		ldr	r3, [r7, #4]
 782 000c 0022     		movs	r2, #0
 783 000e 1A63     		str	r2, [r3, #48]
 784 0010 11E0     		b	.L35
 785              	.L36:
 786              		.loc 1 120 0 discriminator 2
 787 0012 7B68     		ldr	r3, [r7, #4]
ARM GAS  C:\Users\Luis\AppData\Local\Temp\ccjBqsxj.s 			page 15


 788 0014 9A68     		ldr	r2, [r3, #8]
 789 0016 7B68     		ldr	r3, [r7, #4]
 790 0018 1B6B     		ldr	r3, [r3, #48]
 791 001a 9B00     		lsls	r3, r3, #2
 792 001c 1344     		add	r3, r3, r2
 793 001e 7A68     		ldr	r2, [r7, #4]
 794 0020 126B     		ldr	r2, [r2, #48]
 795 0022 9200     		lsls	r2, r2, #2
 796 0024 3968     		ldr	r1, [r7]
 797 0026 0A44     		add	r2, r2, r1
 798 0028 1268     		ldr	r2, [r2]	@ float
 799 002a 1A60     		str	r2, [r3]	@ float
 800              		.loc 1 119 0 discriminator 2
 801 002c 7B68     		ldr	r3, [r7, #4]
 802 002e 1B6B     		ldr	r3, [r3, #48]
 803 0030 5A1C     		adds	r2, r3, #1
 804 0032 7B68     		ldr	r3, [r7, #4]
 805 0034 1A63     		str	r2, [r3, #48]
 806              	.L35:
 807              		.loc 1 119 0 is_stmt 0 discriminator 1
 808 0036 7B68     		ldr	r3, [r7, #4]
 809 0038 1A6B     		ldr	r2, [r3, #48]
 810 003a 7B68     		ldr	r3, [r7, #4]
 811 003c 5B68     		ldr	r3, [r3, #4]
 812 003e 9A42     		cmp	r2, r3
 813 0040 E7DB     		blt	.L36
 814              		.loc 1 122 0 is_stmt 1
 815 0042 0C37     		adds	r7, r7, #12
 816 0044 BD46     		mov	sp, r7
 817              		@ sp needed
 818 0046 5DF8047B 		ldr	r7, [sp], #4
 819 004a 7047     		bx	lr
 820              		.cfi_endproc
 821              	.LFE276:
 822              		.size	_ZN10DataFilter26setArrayInitialConditionsXEPf, .-_ZN10DataFilter26setArrayInitialConditions
 823 004c AFF30080 		.section	.text._ZNK10DataFilter15getArrayInputsXEv,"ax",%progbits
 824              		.align	2
 825              		.p2align 4,,15
 826              		.global	_ZNK10DataFilter15getArrayInputsXEv
 827              		.thumb
 828              		.thumb_func
 829              		.type	_ZNK10DataFilter15getArrayInputsXEv, %function
 830              	_ZNK10DataFilter15getArrayInputsXEv:
 831              	.LFB277:
 832              		.loc 1 124 0
 833              		.cfi_startproc
 834              		@ args = 0, pretend = 0, frame = 8
 835              		@ frame_needed = 1, uses_anonymous_args = 0
 836              		@ link register save eliminated.
 837 0000 80B4     		push	{r7}
 838              		.cfi_def_cfa_offset 4
 839              		.cfi_offset 7, -4
 840 0002 83B0     		sub	sp, sp, #12
 841              		.cfi_def_cfa_offset 16
 842 0004 00AF     		add	r7, sp, #0
 843              		.cfi_def_cfa_register 7
 844 0006 7860     		str	r0, [r7, #4]
ARM GAS  C:\Users\Luis\AppData\Local\Temp\ccjBqsxj.s 			page 16


 845              		.loc 1 125 0
 846 0008 7B68     		ldr	r3, [r7, #4]
 847 000a 1B69     		ldr	r3, [r3, #16]
 848              		.loc 1 126 0
 849 000c 1846     		mov	r0, r3
 850 000e 0C37     		adds	r7, r7, #12
 851 0010 BD46     		mov	sp, r7
 852              		@ sp needed
 853 0012 5DF8047B 		ldr	r7, [sp], #4
 854 0016 7047     		bx	lr
 855              		.cfi_endproc
 856              	.LFE277:
 857              		.size	_ZNK10DataFilter15getArrayInputsXEv, .-_ZNK10DataFilter15getArrayInputsXEv
 858 0018 AFF30080 		.section	.text._ZN10DataFilter15setArrayInputsXEPf,"ax",%progbits
 858      AFF30080 
 859              		.align	2
 860              		.p2align 4,,15
 861              		.global	_ZN10DataFilter15setArrayInputsXEPf
 862              		.thumb
 863              		.thumb_func
 864              		.type	_ZN10DataFilter15setArrayInputsXEPf, %function
 865              	_ZN10DataFilter15setArrayInputsXEPf:
 866              	.LFB278:
 867              		.loc 1 128 0
 868              		.cfi_startproc
 869              		@ args = 0, pretend = 0, frame = 8
 870              		@ frame_needed = 1, uses_anonymous_args = 0
 871              		@ link register save eliminated.
 872 0000 80B4     		push	{r7}
 873              		.cfi_def_cfa_offset 4
 874              		.cfi_offset 7, -4
 875 0002 83B0     		sub	sp, sp, #12
 876              		.cfi_def_cfa_offset 16
 877 0004 00AF     		add	r7, sp, #0
 878              		.cfi_def_cfa_register 7
 879 0006 7860     		str	r0, [r7, #4]
 880 0008 3960     		str	r1, [r7]
 881              		.loc 1 129 0
 882 000a 7B68     		ldr	r3, [r7, #4]
 883 000c 0022     		movs	r2, #0
 884 000e 1A63     		str	r2, [r3, #48]
 885 0010 11E0     		b	.L40
 886              	.L41:
 887              		.loc 1 130 0 discriminator 2
 888 0012 7B68     		ldr	r3, [r7, #4]
 889 0014 1A69     		ldr	r2, [r3, #16]
 890 0016 7B68     		ldr	r3, [r7, #4]
 891 0018 1B6B     		ldr	r3, [r3, #48]
 892 001a 9B00     		lsls	r3, r3, #2
 893 001c 1344     		add	r3, r3, r2
 894 001e 7A68     		ldr	r2, [r7, #4]
 895 0020 126B     		ldr	r2, [r2, #48]
 896 0022 9200     		lsls	r2, r2, #2
 897 0024 3968     		ldr	r1, [r7]
 898 0026 0A44     		add	r2, r2, r1
 899 0028 1268     		ldr	r2, [r2]	@ float
 900 002a 1A60     		str	r2, [r3]	@ float
ARM GAS  C:\Users\Luis\AppData\Local\Temp\ccjBqsxj.s 			page 17


 901              		.loc 1 129 0 discriminator 2
 902 002c 7B68     		ldr	r3, [r7, #4]
 903 002e 1B6B     		ldr	r3, [r3, #48]
 904 0030 5A1C     		adds	r2, r3, #1
 905 0032 7B68     		ldr	r3, [r7, #4]
 906 0034 1A63     		str	r2, [r3, #48]
 907              	.L40:
 908              		.loc 1 129 0 is_stmt 0 discriminator 1
 909 0036 7B68     		ldr	r3, [r7, #4]
 910 0038 1B6B     		ldr	r3, [r3, #48]
 911 003a 092B     		cmp	r3, #9
 912 003c E9DD     		ble	.L41
 913              		.loc 1 132 0 is_stmt 1
 914 003e 0C37     		adds	r7, r7, #12
 915 0040 BD46     		mov	sp, r7
 916              		@ sp needed
 917 0042 5DF8047B 		ldr	r7, [sp], #4
 918 0046 7047     		bx	lr
 919              		.cfi_endproc
 920              	.LFE278:
 921              		.size	_ZN10DataFilter15setArrayInputsXEPf, .-_ZN10DataFilter15setArrayInputsXEPf
 922 0048 AFF30080 		.section	.text._ZNK10DataFilter22getArrayIntervalOutputEv,"ax",%progbits
 922      AFF30080 
 923              		.align	2
 924              		.p2align 4,,15
 925              		.global	_ZNK10DataFilter22getArrayIntervalOutputEv
 926              		.thumb
 927              		.thumb_func
 928              		.type	_ZNK10DataFilter22getArrayIntervalOutputEv, %function
 929              	_ZNK10DataFilter22getArrayIntervalOutputEv:
 930              	.LFB279:
 931              		.loc 1 134 0
 932              		.cfi_startproc
 933              		@ args = 0, pretend = 0, frame = 8
 934              		@ frame_needed = 1, uses_anonymous_args = 0
 935              		@ link register save eliminated.
 936 0000 80B4     		push	{r7}
 937              		.cfi_def_cfa_offset 4
 938              		.cfi_offset 7, -4
 939 0002 83B0     		sub	sp, sp, #12
 940              		.cfi_def_cfa_offset 16
 941 0004 00AF     		add	r7, sp, #0
 942              		.cfi_def_cfa_register 7
 943 0006 7860     		str	r0, [r7, #4]
 944              		.loc 1 135 0
 945 0008 7B68     		ldr	r3, [r7, #4]
 946 000a 5B6A     		ldr	r3, [r3, #36]
 947              		.loc 1 136 0
 948 000c 1846     		mov	r0, r3
 949 000e 0C37     		adds	r7, r7, #12
 950 0010 BD46     		mov	sp, r7
 951              		@ sp needed
 952 0012 5DF8047B 		ldr	r7, [sp], #4
 953 0016 7047     		bx	lr
 954              		.cfi_endproc
 955              	.LFE279:
 956              		.size	_ZNK10DataFilter22getArrayIntervalOutputEv, .-_ZNK10DataFilter22getArrayIntervalOutputEv
ARM GAS  C:\Users\Luis\AppData\Local\Temp\ccjBqsxj.s 			page 18


 957 0018 AFF30080 		.section	.text._ZN10DataFilter22setArrayIntervalOutputEPi,"ax",%progbits
 957      AFF30080 
 958              		.align	2
 959              		.p2align 4,,15
 960              		.global	_ZN10DataFilter22setArrayIntervalOutputEPi
 961              		.thumb
 962              		.thumb_func
 963              		.type	_ZN10DataFilter22setArrayIntervalOutputEPi, %function
 964              	_ZN10DataFilter22setArrayIntervalOutputEPi:
 965              	.LFB280:
 966              		.loc 1 138 0
 967              		.cfi_startproc
 968              		@ args = 0, pretend = 0, frame = 8
 969              		@ frame_needed = 1, uses_anonymous_args = 0
 970 0000 80B5     		push	{r7, lr}
 971              		.cfi_def_cfa_offset 8
 972              		.cfi_offset 7, -8
 973              		.cfi_offset 14, -4
 974 0002 82B0     		sub	sp, sp, #8
 975              		.cfi_def_cfa_offset 16
 976 0004 00AF     		add	r7, sp, #0
 977              		.cfi_def_cfa_register 7
 978 0006 7860     		str	r0, [r7, #4]
 979 0008 3960     		str	r1, [r7]
 980              		.loc 1 139 0
 981 000a 7B68     		ldr	r3, [r7, #4]
 982 000c 0022     		movs	r2, #0
 983 000e 1A63     		str	r2, [r3, #48]
 984 0010 11E0     		b	.L45
 985              	.L46:
 986              		.loc 1 140 0 discriminator 2
 987 0012 7B68     		ldr	r3, [r7, #4]
 988 0014 5A6A     		ldr	r2, [r3, #36]
 989 0016 7B68     		ldr	r3, [r7, #4]
 990 0018 1B6B     		ldr	r3, [r3, #48]
 991 001a 9B00     		lsls	r3, r3, #2
 992 001c 1344     		add	r3, r3, r2
 993 001e 7A68     		ldr	r2, [r7, #4]
 994 0020 126B     		ldr	r2, [r2, #48]
 995 0022 9200     		lsls	r2, r2, #2
 996 0024 3968     		ldr	r1, [r7]
 997 0026 0A44     		add	r2, r2, r1
 998 0028 1268     		ldr	r2, [r2]
 999 002a 1A60     		str	r2, [r3]
 1000              		.loc 1 139 0 discriminator 2
 1001 002c 7B68     		ldr	r3, [r7, #4]
 1002 002e 1B6B     		ldr	r3, [r3, #48]
 1003 0030 5A1C     		adds	r2, r3, #1
 1004 0032 7B68     		ldr	r3, [r7, #4]
 1005 0034 1A63     		str	r2, [r3, #48]
 1006              	.L45:
 1007              		.loc 1 139 0 is_stmt 0 discriminator 1
 1008 0036 7B68     		ldr	r3, [r7, #4]
 1009 0038 1B6B     		ldr	r3, [r3, #48]
 1010 003a 012B     		cmp	r3, #1
 1011 003c E9DD     		ble	.L46
 1012              		.loc 1 142 0 is_stmt 1
ARM GAS  C:\Users\Luis\AppData\Local\Temp\ccjBqsxj.s 			page 19


 1013 003e 7868     		ldr	r0, [r7, #4]
 1014 0040 3968     		ldr	r1, [r7]
 1015 0042 FFF7FEFF 		bl	_ZN10DataFilter10numbOutputEPi
 1016              		.loc 1 143 0
 1017 0046 0837     		adds	r7, r7, #8
 1018 0048 BD46     		mov	sp, r7
 1019              		@ sp needed
 1020 004a 80BD     		pop	{r7, pc}
 1021              		.cfi_endproc
 1022              	.LFE280:
 1023              		.size	_ZN10DataFilter22setArrayIntervalOutputEPi, .-_ZN10DataFilter22setArrayIntervalOutputEPi
 1024 004c AFF30080 		.section	.text._ZNK10DataFilter14getFilterOrderEv,"ax",%progbits
 1025              		.align	2
 1026              		.p2align 4,,15
 1027              		.global	_ZNK10DataFilter14getFilterOrderEv
 1028              		.thumb
 1029              		.thumb_func
 1030              		.type	_ZNK10DataFilter14getFilterOrderEv, %function
 1031              	_ZNK10DataFilter14getFilterOrderEv:
 1032              	.LFB281:
 1033              		.loc 1 145 0
 1034              		.cfi_startproc
 1035              		@ args = 0, pretend = 0, frame = 8
 1036              		@ frame_needed = 1, uses_anonymous_args = 0
 1037              		@ link register save eliminated.
 1038 0000 80B4     		push	{r7}
 1039              		.cfi_def_cfa_offset 4
 1040              		.cfi_offset 7, -4
 1041 0002 83B0     		sub	sp, sp, #12
 1042              		.cfi_def_cfa_offset 16
 1043 0004 00AF     		add	r7, sp, #0
 1044              		.cfi_def_cfa_register 7
 1045 0006 7860     		str	r0, [r7, #4]
 1046              		.loc 1 146 0
 1047 0008 7B68     		ldr	r3, [r7, #4]
 1048 000a 5B68     		ldr	r3, [r3, #4]
 1049              		.loc 1 147 0
 1050 000c 1846     		mov	r0, r3
 1051 000e 0C37     		adds	r7, r7, #12
 1052 0010 BD46     		mov	sp, r7
 1053              		@ sp needed
 1054 0012 5DF8047B 		ldr	r7, [sp], #4
 1055 0016 7047     		bx	lr
 1056              		.cfi_endproc
 1057              	.LFE281:
 1058              		.size	_ZNK10DataFilter14getFilterOrderEv, .-_ZNK10DataFilter14getFilterOrderEv
 1059 0018 AFF30080 		.section	.text._ZN10DataFilter14setFilterOrderEi,"ax",%progbits
 1059      AFF30080 
 1060              		.align	2
 1061              		.p2align 4,,15
 1062              		.global	_ZN10DataFilter14setFilterOrderEi
 1063              		.thumb
 1064              		.thumb_func
 1065              		.type	_ZN10DataFilter14setFilterOrderEi, %function
 1066              	_ZN10DataFilter14setFilterOrderEi:
 1067              	.LFB282:
 1068              		.loc 1 149 0
ARM GAS  C:\Users\Luis\AppData\Local\Temp\ccjBqsxj.s 			page 20


 1069              		.cfi_startproc
 1070              		@ args = 0, pretend = 0, frame = 8
 1071              		@ frame_needed = 1, uses_anonymous_args = 0
 1072              		@ link register save eliminated.
 1073 0000 80B4     		push	{r7}
 1074              		.cfi_def_cfa_offset 4
 1075              		.cfi_offset 7, -4
 1076 0002 83B0     		sub	sp, sp, #12
 1077              		.cfi_def_cfa_offset 16
 1078 0004 00AF     		add	r7, sp, #0
 1079              		.cfi_def_cfa_register 7
 1080 0006 7860     		str	r0, [r7, #4]
 1081 0008 3960     		str	r1, [r7]
 1082              		.loc 1 150 0
 1083 000a 7B68     		ldr	r3, [r7, #4]
 1084 000c 3A68     		ldr	r2, [r7]
 1085 000e 5A60     		str	r2, [r3, #4]
 1086              		.loc 1 151 0
 1087 0010 0C37     		adds	r7, r7, #12
 1088 0012 BD46     		mov	sp, r7
 1089              		@ sp needed
 1090 0014 5DF8047B 		ldr	r7, [sp], #4
 1091 0018 7047     		bx	lr
 1092              		.cfi_endproc
 1093              	.LFE282:
 1094              		.size	_ZN10DataFilter14setFilterOrderEi, .-_ZN10DataFilter14setFilterOrderEi
 1095 001a 00BFAFF3 		.section	.text._ZNK10DataFilter21getArrayCoefficientsAEv,"ax",%progbits
 1095      0080
 1096              		.align	2
 1097              		.p2align 4,,15
 1098              		.global	_ZNK10DataFilter21getArrayCoefficientsAEv
 1099              		.thumb
 1100              		.thumb_func
 1101              		.type	_ZNK10DataFilter21getArrayCoefficientsAEv, %function
 1102              	_ZNK10DataFilter21getArrayCoefficientsAEv:
 1103              	.LFB283:
 1104              		.loc 1 153 0
 1105              		.cfi_startproc
 1106              		@ args = 0, pretend = 0, frame = 8
 1107              		@ frame_needed = 1, uses_anonymous_args = 0
 1108              		@ link register save eliminated.
 1109 0000 80B4     		push	{r7}
 1110              		.cfi_def_cfa_offset 4
 1111              		.cfi_offset 7, -4
 1112 0002 83B0     		sub	sp, sp, #12
 1113              		.cfi_def_cfa_offset 16
 1114 0004 00AF     		add	r7, sp, #0
 1115              		.cfi_def_cfa_register 7
 1116 0006 7860     		str	r0, [r7, #4]
 1117              		.loc 1 154 0
 1118 0008 7B68     		ldr	r3, [r7, #4]
 1119 000a 9B69     		ldr	r3, [r3, #24]
 1120              		.loc 1 155 0
 1121 000c 1846     		mov	r0, r3
 1122 000e 0C37     		adds	r7, r7, #12
 1123 0010 BD46     		mov	sp, r7
 1124              		@ sp needed
ARM GAS  C:\Users\Luis\AppData\Local\Temp\ccjBqsxj.s 			page 21


 1125 0012 5DF8047B 		ldr	r7, [sp], #4
 1126 0016 7047     		bx	lr
 1127              		.cfi_endproc
 1128              	.LFE283:
 1129              		.size	_ZNK10DataFilter21getArrayCoefficientsAEv, .-_ZNK10DataFilter21getArrayCoefficientsAEv
 1130 0018 AFF30080 		.section	.text._ZN10DataFilter21setArrayCoefficientsAEPf,"ax",%progbits
 1130      AFF30080 
 1131              		.align	2
 1132              		.p2align 4,,15
 1133              		.global	_ZN10DataFilter21setArrayCoefficientsAEPf
 1134              		.thumb
 1135              		.thumb_func
 1136              		.type	_ZN10DataFilter21setArrayCoefficientsAEPf, %function
 1137              	_ZN10DataFilter21setArrayCoefficientsAEPf:
 1138              	.LFB284:
 1139              		.loc 1 157 0
 1140              		.cfi_startproc
 1141              		@ args = 0, pretend = 0, frame = 8
 1142              		@ frame_needed = 1, uses_anonymous_args = 0
 1143              		@ link register save eliminated.
 1144 0000 80B4     		push	{r7}
 1145              		.cfi_def_cfa_offset 4
 1146              		.cfi_offset 7, -4
 1147 0002 83B0     		sub	sp, sp, #12
 1148              		.cfi_def_cfa_offset 16
 1149 0004 00AF     		add	r7, sp, #0
 1150              		.cfi_def_cfa_register 7
 1151 0006 7860     		str	r0, [r7, #4]
 1152 0008 3960     		str	r1, [r7]
 1153              		.loc 1 158 0
 1154 000a 7B68     		ldr	r3, [r7, #4]
 1155 000c 3A68     		ldr	r2, [r7]
 1156 000e 9A61     		str	r2, [r3, #24]
 1157              		.loc 1 159 0
 1158 0010 0C37     		adds	r7, r7, #12
 1159 0012 BD46     		mov	sp, r7
 1160              		@ sp needed
 1161 0014 5DF8047B 		ldr	r7, [sp], #4
 1162 0018 7047     		bx	lr
 1163              		.cfi_endproc
 1164              	.LFE284:
 1165              		.size	_ZN10DataFilter21setArrayCoefficientsAEPf, .-_ZN10DataFilter21setArrayCoefficientsAEPf
 1166 001a 00BFAFF3 		.section	.text._ZNK10DataFilter26getArrayInitialConditionsYEv,"ax",%progbits
 1166      0080
 1167              		.align	2
 1168              		.p2align 4,,15
 1169              		.global	_ZNK10DataFilter26getArrayInitialConditionsYEv
 1170              		.thumb
 1171              		.thumb_func
 1172              		.type	_ZNK10DataFilter26getArrayInitialConditionsYEv, %function
 1173              	_ZNK10DataFilter26getArrayInitialConditionsYEv:
 1174              	.LFB285:
 1175              		.loc 1 161 0
 1176              		.cfi_startproc
 1177              		@ args = 0, pretend = 0, frame = 8
 1178              		@ frame_needed = 1, uses_anonymous_args = 0
 1179              		@ link register save eliminated.
ARM GAS  C:\Users\Luis\AppData\Local\Temp\ccjBqsxj.s 			page 22


 1180 0000 80B4     		push	{r7}
 1181              		.cfi_def_cfa_offset 4
 1182              		.cfi_offset 7, -4
 1183 0002 83B0     		sub	sp, sp, #12
 1184              		.cfi_def_cfa_offset 16
 1185 0004 00AF     		add	r7, sp, #0
 1186              		.cfi_def_cfa_register 7
 1187 0006 7860     		str	r0, [r7, #4]
 1188              		.loc 1 162 0
 1189 0008 7B68     		ldr	r3, [r7, #4]
 1190 000a 5B69     		ldr	r3, [r3, #20]
 1191              		.loc 1 163 0
 1192 000c 1846     		mov	r0, r3
 1193 000e 0C37     		adds	r7, r7, #12
 1194 0010 BD46     		mov	sp, r7
 1195              		@ sp needed
 1196 0012 5DF8047B 		ldr	r7, [sp], #4
 1197 0016 7047     		bx	lr
 1198              		.cfi_endproc
 1199              	.LFE285:
 1200              		.size	_ZNK10DataFilter26getArrayInitialConditionsYEv, .-_ZNK10DataFilter26getArrayInitialCondition
 1201 0018 AFF30080 		.section	.text._ZN10DataFilter26setArrayInitialConditionsYEPf,"ax",%progbits
 1201      AFF30080 
 1202              		.align	2
 1203              		.p2align 4,,15
 1204              		.global	_ZN10DataFilter26setArrayInitialConditionsYEPf
 1205              		.thumb
 1206              		.thumb_func
 1207              		.type	_ZN10DataFilter26setArrayInitialConditionsYEPf, %function
 1208              	_ZN10DataFilter26setArrayInitialConditionsYEPf:
 1209              	.LFB286:
 1210              		.loc 1 165 0
 1211              		.cfi_startproc
 1212              		@ args = 0, pretend = 0, frame = 8
 1213              		@ frame_needed = 1, uses_anonymous_args = 0
 1214              		@ link register save eliminated.
 1215 0000 80B4     		push	{r7}
 1216              		.cfi_def_cfa_offset 4
 1217              		.cfi_offset 7, -4
 1218 0002 83B0     		sub	sp, sp, #12
 1219              		.cfi_def_cfa_offset 16
 1220 0004 00AF     		add	r7, sp, #0
 1221              		.cfi_def_cfa_register 7
 1222 0006 7860     		str	r0, [r7, #4]
 1223 0008 3960     		str	r1, [r7]
 1224              		.loc 1 166 0
 1225 000a 7B68     		ldr	r3, [r7, #4]
 1226 000c 0022     		movs	r2, #0
 1227 000e 1A63     		str	r2, [r3, #48]
 1228 0010 11E0     		b	.L56
 1229              	.L57:
 1230              		.loc 1 167 0 discriminator 2
 1231 0012 7B68     		ldr	r3, [r7, #4]
 1232 0014 DA69     		ldr	r2, [r3, #28]
 1233 0016 7B68     		ldr	r3, [r7, #4]
 1234 0018 1B6B     		ldr	r3, [r3, #48]
 1235 001a 9B00     		lsls	r3, r3, #2
ARM GAS  C:\Users\Luis\AppData\Local\Temp\ccjBqsxj.s 			page 23


 1236 001c 1344     		add	r3, r3, r2
 1237 001e 7A68     		ldr	r2, [r7, #4]
 1238 0020 126B     		ldr	r2, [r2, #48]
 1239 0022 9200     		lsls	r2, r2, #2
 1240 0024 3968     		ldr	r1, [r7]
 1241 0026 0A44     		add	r2, r2, r1
 1242 0028 1268     		ldr	r2, [r2]	@ float
 1243 002a 1A60     		str	r2, [r3]	@ float
 1244              		.loc 1 166 0 discriminator 2
 1245 002c 7B68     		ldr	r3, [r7, #4]
 1246 002e 1B6B     		ldr	r3, [r3, #48]
 1247 0030 5A1C     		adds	r2, r3, #1
 1248 0032 7B68     		ldr	r3, [r7, #4]
 1249 0034 1A63     		str	r2, [r3, #48]
 1250              	.L56:
 1251              		.loc 1 166 0 is_stmt 0 discriminator 1
 1252 0036 7B68     		ldr	r3, [r7, #4]
 1253 0038 1A6B     		ldr	r2, [r3, #48]
 1254 003a 7B68     		ldr	r3, [r7, #4]
 1255 003c 5B68     		ldr	r3, [r3, #4]
 1256 003e 9A42     		cmp	r2, r3
 1257 0040 E7DB     		blt	.L57
 1258              		.loc 1 169 0 is_stmt 1
 1259 0042 0C37     		adds	r7, r7, #12
 1260 0044 BD46     		mov	sp, r7
 1261              		@ sp needed
 1262 0046 5DF8047B 		ldr	r7, [sp], #4
 1263 004a 7047     		bx	lr
 1264              		.cfi_endproc
 1265              	.LFE286:
 1266              		.size	_ZN10DataFilter26setArrayInitialConditionsYEPf, .-_ZN10DataFilter26setArrayInitialConditions
 1267 004c AFF30080 		.section	.text._ZNK10DataFilter15getArrayInputsYEv,"ax",%progbits
 1268              		.align	2
 1269              		.p2align 4,,15
 1270              		.global	_ZNK10DataFilter15getArrayInputsYEv
 1271              		.thumb
 1272              		.thumb_func
 1273              		.type	_ZNK10DataFilter15getArrayInputsYEv, %function
 1274              	_ZNK10DataFilter15getArrayInputsYEv:
 1275              	.LFB287:
 1276              		.loc 1 171 0
 1277              		.cfi_startproc
 1278              		@ args = 0, pretend = 0, frame = 8
 1279              		@ frame_needed = 1, uses_anonymous_args = 0
 1280              		@ link register save eliminated.
 1281 0000 80B4     		push	{r7}
 1282              		.cfi_def_cfa_offset 4
 1283              		.cfi_offset 7, -4
 1284 0002 83B0     		sub	sp, sp, #12
 1285              		.cfi_def_cfa_offset 16
 1286 0004 00AF     		add	r7, sp, #0
 1287              		.cfi_def_cfa_register 7
 1288 0006 7860     		str	r0, [r7, #4]
 1289              		.loc 1 172 0
 1290 0008 7B68     		ldr	r3, [r7, #4]
 1291 000a DB69     		ldr	r3, [r3, #28]
 1292              		.loc 1 173 0
ARM GAS  C:\Users\Luis\AppData\Local\Temp\ccjBqsxj.s 			page 24


 1293 000c 1846     		mov	r0, r3
 1294 000e 0C37     		adds	r7, r7, #12
 1295 0010 BD46     		mov	sp, r7
 1296              		@ sp needed
 1297 0012 5DF8047B 		ldr	r7, [sp], #4
 1298 0016 7047     		bx	lr
 1299              		.cfi_endproc
 1300              	.LFE287:
 1301              		.size	_ZNK10DataFilter15getArrayInputsYEv, .-_ZNK10DataFilter15getArrayInputsYEv
 1302              		.global	_ZTV10DataFilter
 1303 0018 AFF30080 		.section	.rodata._ZTV10DataFilter,"a",%progbits
 1303      AFF30080 
 1304              		.align	3
 1305              		.type	_ZTV10DataFilter, %object
 1306              		.size	_ZTV10DataFilter, 16
 1307              	_ZTV10DataFilter:
 1308 0000 00000000 		.word	0
 1309 0004 00000000 		.word	0
 1310 0008 00000000 		.word	_ZN10DataFilterD1Ev
 1311 000c 00000000 		.word	_ZN10DataFilterD0Ev
 1312              		.text
 1313              	.Letext0:
 1314              		.file 2 "c:\\emtechesdk\\gcc\\arm-none-eabi\\include\\stdint.h"
 1315              		.file 3 "../../ChibiOS/os/rt/ports/ARMCMx/compilers/GCC/chtypes.h"
 1316              		.file 4 "../../ChibiOS/os/rt/include/chsystypes.h"
 1317              		.file 5 "../../ChibiOS/os/rt/include/chschd.h"
 1318              		.file 6 "../../ChibiOS/os/rt/ports/ARMCMx/chcore.h"
 1319              		.file 7 "../../ChibiOS/os/rt/ports/ARMCMx/chcore_v7m.h"
 1320              		.file 8 "../../ChibiOS/os/rt/include/chdebug.h"
 1321              		.file 9 "../../ChibiOS/os/rt/include/chtm.h"
 1322              		.file 10 "../../ChibiOS/os/rt/include/chstats.h"
 1323              		.file 11 "../../ChibiOS/os/rt/include/chsem.h"
 1324              		.file 12 "../../ChibiOS/os/rt/include/chmtx.h"
 1325              		.file 13 "header/DataFilter.h"
 1326              		.file 14 "../../ChibiOS/os/ext/CMSIS/include/core_cm4.h"
 1327              		.section	.debug_info,"",%progbits
 1328              	.Ldebug_info0:
 1329 0000 ED100000 		.4byte	0x10ed
 1330 0004 0400     		.2byte	0x4
 1331 0006 00000000 		.4byte	.Ldebug_abbrev0
 1332 000a 04       		.byte	0x4
 1333 000b 01       		.uleb128 0x1
 1334 000c 91080000 		.4byte	.LASF222
 1335 0010 04       		.byte	0x4
 1336 0011 F3070000 		.4byte	.LASF223
 1337 0015 8F020000 		.4byte	.LASF224
 1338 0019 00000000 		.4byte	.Ldebug_ranges0+0
 1339 001d 00000000 		.4byte	0
 1340 0021 00000000 		.4byte	.Ldebug_line0
 1341 0025 02       		.uleb128 0x2
 1342 0026 04       		.byte	0x4
 1343 0027 05       		.byte	0x5
 1344 0028 696E7400 		.ascii	"int\000"
 1345 002c 03       		.uleb128 0x3
 1346 002d 04       		.byte	0x4
 1347 002e 07       		.byte	0x7
 1348 002f CA040000 		.4byte	.LASF0
ARM GAS  C:\Users\Luis\AppData\Local\Temp\ccjBqsxj.s 			page 25


 1349 0033 03       		.uleb128 0x3
 1350 0034 01       		.byte	0x1
 1351 0035 06       		.byte	0x6
 1352 0036 31020000 		.4byte	.LASF1
 1353 003a 04       		.uleb128 0x4
 1354 003b 8E0D0000 		.4byte	.LASF5
 1355 003f 02       		.byte	0x2
 1356 0040 2A       		.byte	0x2a
 1357 0041 45000000 		.4byte	0x45
 1358 0045 03       		.uleb128 0x3
 1359 0046 01       		.byte	0x1
 1360 0047 08       		.byte	0x8
 1361 0048 B00C0000 		.4byte	.LASF2
 1362 004c 03       		.uleb128 0x3
 1363 004d 02       		.byte	0x2
 1364 004e 05       		.byte	0x5
 1365 004f 38060000 		.4byte	.LASF3
 1366 0053 03       		.uleb128 0x3
 1367 0054 02       		.byte	0x2
 1368 0055 07       		.byte	0x7
 1369 0056 30050000 		.4byte	.LASF4
 1370 005a 04       		.uleb128 0x4
 1371 005b BB090000 		.4byte	.LASF6
 1372 005f 02       		.byte	0x2
 1373 0060 4F       		.byte	0x4f
 1374 0061 65000000 		.4byte	0x65
 1375 0065 03       		.uleb128 0x3
 1376 0066 04       		.byte	0x4
 1377 0067 05       		.byte	0x5
 1378 0068 FD020000 		.4byte	.LASF7
 1379 006c 04       		.uleb128 0x4
 1380 006d 430B0000 		.4byte	.LASF8
 1381 0071 02       		.byte	0x2
 1382 0072 50       		.byte	0x50
 1383 0073 77000000 		.4byte	0x77
 1384 0077 03       		.uleb128 0x3
 1385 0078 04       		.byte	0x4
 1386 0079 07       		.byte	0x7
 1387 007a BC0B0000 		.4byte	.LASF9
 1388 007e 03       		.uleb128 0x3
 1389 007f 08       		.byte	0x8
 1390 0080 05       		.byte	0x5
 1391 0081 23020000 		.4byte	.LASF10
 1392 0085 04       		.uleb128 0x4
 1393 0086 83000000 		.4byte	.LASF11
 1394 008a 02       		.byte	0x2
 1395 008b 78       		.byte	0x78
 1396 008c 90000000 		.4byte	0x90
 1397 0090 03       		.uleb128 0x3
 1398 0091 08       		.byte	0x8
 1399 0092 07       		.byte	0x7
 1400 0093 EF000000 		.4byte	.LASF12
 1401 0097 05       		.uleb128 0x5
 1402 0098 5A000000 		.4byte	0x5a
 1403 009c 04       		.uleb128 0x4
 1404 009d F4060000 		.4byte	.LASF13
 1405 00a1 03       		.byte	0x3
ARM GAS  C:\Users\Luis\AppData\Local\Temp\ccjBqsxj.s 			page 26


 1406 00a2 45       		.byte	0x45
 1407 00a3 6C000000 		.4byte	0x6c
 1408 00a7 04       		.uleb128 0x4
 1409 00a8 0A000000 		.4byte	.LASF14
 1410 00ac 03       		.byte	0x3
 1411 00ad 46       		.byte	0x46
 1412 00ae 85000000 		.4byte	0x85
 1413 00b2 04       		.uleb128 0x4
 1414 00b3 DC050000 		.4byte	.LASF15
 1415 00b7 03       		.byte	0x3
 1416 00b8 48       		.byte	0x48
 1417 00b9 3A000000 		.4byte	0x3a
 1418 00bd 04       		.uleb128 0x4
 1419 00be C1030000 		.4byte	.LASF16
 1420 00c2 03       		.byte	0x3
 1421 00c3 49       		.byte	0x49
 1422 00c4 3A000000 		.4byte	0x3a
 1423 00c8 04       		.uleb128 0x4
 1424 00c9 68080000 		.4byte	.LASF17
 1425 00cd 03       		.byte	0x3
 1426 00ce 4A       		.byte	0x4a
 1427 00cf 3A000000 		.4byte	0x3a
 1428 00d3 04       		.uleb128 0x4
 1429 00d4 7F090000 		.4byte	.LASF18
 1430 00d8 03       		.byte	0x3
 1431 00d9 4C       		.byte	0x4c
 1432 00da 6C000000 		.4byte	0x6c
 1433 00de 04       		.uleb128 0x4
 1434 00df 90050000 		.4byte	.LASF19
 1435 00e3 03       		.byte	0x3
 1436 00e4 4D       		.byte	0x4d
 1437 00e5 5A000000 		.4byte	0x5a
 1438 00e9 04       		.uleb128 0x4
 1439 00ea 2C060000 		.4byte	.LASF20
 1440 00ee 03       		.byte	0x3
 1441 00ef 4F       		.byte	0x4f
 1442 00f0 6C000000 		.4byte	0x6c
 1443 00f4 04       		.uleb128 0x4
 1444 00f5 A9040000 		.4byte	.LASF21
 1445 00f9 03       		.byte	0x3
 1446 00fa 51       		.byte	0x51
 1447 00fb 5A000000 		.4byte	0x5a
 1448 00ff 04       		.uleb128 0x4
 1449 0100 9B050000 		.4byte	.LASF22
 1450 0104 03       		.byte	0x3
 1451 0105 52       		.byte	0x52
 1452 0106 6C000000 		.4byte	0x6c
 1453 010a 04       		.uleb128 0x4
 1454 010b 160C0000 		.4byte	.LASF23
 1455 010f 04       		.byte	0x4
 1456 0110 33       		.byte	0x33
 1457 0111 6C000000 		.4byte	0x6c
 1458 0115 04       		.uleb128 0x4
 1459 0116 490D0000 		.4byte	.LASF24
 1460 011a 04       		.byte	0x4
 1461 011b 3F       		.byte	0x3f
 1462 011c 20010000 		.4byte	0x120
ARM GAS  C:\Users\Luis\AppData\Local\Temp\ccjBqsxj.s 			page 27


 1463 0120 06       		.uleb128 0x6
 1464 0121 63050000 		.4byte	.LASF54
 1465 0125 68       		.byte	0x68
 1466 0126 05       		.byte	0x5
 1467 0127 C2       		.byte	0xc2
 1468 0128 90020000 		.4byte	0x290
 1469 012c 07       		.uleb128 0x7
 1470 012d 04       		.byte	0x4
 1471 012e 05       		.byte	0x5
 1472 012f FA       		.byte	0xfa
 1473 0130 89010000 		.4byte	0x189
 1474 0134 08       		.uleb128 0x8
 1475 0135 7C000000 		.4byte	.LASF25
 1476 0139 05       		.byte	0x5
 1477 013a 0101     		.2byte	0x101
 1478 013c DE000000 		.4byte	0xde
 1479 0140 08       		.uleb128 0x8
 1480 0141 F3030000 		.4byte	.LASF26
 1481 0145 05       		.byte	0x5
 1482 0146 0801     		.2byte	0x108
 1483 0148 DE000000 		.4byte	0xde
 1484 014c 08       		.uleb128 0x8
 1485 014d 3D0A0000 		.4byte	.LASF27
 1486 0151 05       		.byte	0x5
 1487 0152 0F01     		.2byte	0x10f
 1488 0154 78030000 		.4byte	0x378
 1489 0158 08       		.uleb128 0x8
 1490 0159 4F000000 		.4byte	.LASF28
 1491 015d 05       		.byte	0x5
 1492 015e 1601     		.2byte	0x116
 1493 0160 F7060000 		.4byte	0x6f7
 1494 0164 08       		.uleb128 0x8
 1495 0165 D7040000 		.4byte	.LASF29
 1496 0169 05       		.byte	0x5
 1497 016a 1E01     		.2byte	0x11e
 1498 016c 22070000 		.4byte	0x722
 1499 0170 08       		.uleb128 0x8
 1500 0171 4C0B0000 		.4byte	.LASF30
 1501 0175 05       		.byte	0x5
 1502 0176 2701     		.2byte	0x127
 1503 0178 59070000 		.4byte	0x759
 1504 017c 08       		.uleb128 0x8
 1505 017d 440A0000 		.4byte	.LASF31
 1506 0181 05       		.byte	0x5
 1507 0182 2F01     		.2byte	0x12f
 1508 0184 E9000000 		.4byte	0xe9
 1509 0188 00       		.byte	0
 1510 0189 09       		.uleb128 0x9
 1511 018a 4B0A0000 		.4byte	.LASF32
 1512 018e 05       		.byte	0x5
 1513 018f C3       		.byte	0xc3
 1514 0190 9B020000 		.4byte	0x29b
 1515 0194 00       		.byte	0
 1516 0195 09       		.uleb128 0x9
 1517 0196 8A080000 		.4byte	.LASF33
 1518 019a 05       		.byte	0x5
 1519 019b C5       		.byte	0xc5
ARM GAS  C:\Users\Luis\AppData\Local\Temp\ccjBqsxj.s 			page 28


 1520 019c 9B020000 		.4byte	0x29b
 1521 01a0 04       		.byte	0x4
 1522 01a1 09       		.uleb128 0x9
 1523 01a2 C5010000 		.4byte	.LASF34
 1524 01a6 05       		.byte	0x5
 1525 01a7 C7       		.byte	0xc7
 1526 01a8 D3000000 		.4byte	0xd3
 1527 01ac 08       		.byte	0x8
 1528 01ad 09       		.uleb128 0x9
 1529 01ae EC0E0000 		.4byte	.LASF35
 1530 01b2 05       		.byte	0x5
 1531 01b3 C8       		.byte	0xc8
 1532 01b4 04050000 		.4byte	0x504
 1533 01b8 0C       		.byte	0xc
 1534 01b9 09       		.uleb128 0x9
 1535 01ba E3030000 		.4byte	.LASF36
 1536 01be 05       		.byte	0x5
 1537 01bf CA       		.byte	0xca
 1538 01c0 9B020000 		.4byte	0x29b
 1539 01c4 10       		.byte	0x10
 1540 01c5 09       		.uleb128 0x9
 1541 01c6 87070000 		.4byte	.LASF37
 1542 01ca 05       		.byte	0x5
 1543 01cb CB       		.byte	0xcb
 1544 01cc 9B020000 		.4byte	0x29b
 1545 01d0 14       		.byte	0x14
 1546 01d1 09       		.uleb128 0x9
 1547 01d2 330D0000 		.4byte	.LASF38
 1548 01d6 05       		.byte	0x5
 1549 01d7 D2       		.byte	0xd2
 1550 01d8 5F070000 		.4byte	0x75f
 1551 01dc 18       		.byte	0x18
 1552 01dd 09       		.uleb128 0x9
 1553 01de BF040000 		.4byte	.LASF39
 1554 01e2 05       		.byte	0x5
 1555 01e3 D8       		.byte	0xd8
 1556 01e4 71070000 		.4byte	0x771
 1557 01e8 1C       		.byte	0x1c
 1558 01e9 09       		.uleb128 0x9
 1559 01ea 230A0000 		.4byte	.LASF40
 1560 01ee 05       		.byte	0x5
 1561 01ef DD       		.byte	0xdd
 1562 01f0 BD000000 		.4byte	0xbd
 1563 01f4 20       		.byte	0x20
 1564 01f5 09       		.uleb128 0x9
 1565 01f6 200E0000 		.4byte	.LASF41
 1566 01fa 05       		.byte	0x5
 1567 01fb E1       		.byte	0xe1
 1568 01fc B2000000 		.4byte	0xb2
 1569 0200 21       		.byte	0x21
 1570 0201 09       		.uleb128 0x9
 1571 0202 3A0D0000 		.4byte	.LASF42
 1572 0206 05       		.byte	0x5
 1573 0207 E6       		.byte	0xe6
 1574 0208 C8000000 		.4byte	0xc8
 1575 020c 22       		.byte	0x22
 1576 020d 0A       		.uleb128 0xa
ARM GAS  C:\Users\Luis\AppData\Local\Temp\ccjBqsxj.s 			page 29


 1577 020e 705F7500 		.ascii	"p_u\000"
 1578 0212 05       		.byte	0x5
 1579 0213 3101     		.2byte	0x131
 1580 0215 2C010000 		.4byte	0x12c
 1581 0219 24       		.byte	0x24
 1582 021a 0B       		.uleb128 0xb
 1583 021b F20E0000 		.4byte	.LASF43
 1584 021f 05       		.byte	0x5
 1585 0220 3601     		.2byte	0x136
 1586 0222 A1020000 		.4byte	0x2a1
 1587 0226 28       		.byte	0x28
 1588 0227 0B       		.uleb128 0xb
 1589 0228 CD0C0000 		.4byte	.LASF44
 1590 022c 05       		.byte	0x5
 1591 022d 3C01     		.2byte	0x13c
 1592 022f C5020000 		.4byte	0x2c5
 1593 0233 2C       		.byte	0x2c
 1594 0234 0B       		.uleb128 0xb
 1595 0235 390E0000 		.4byte	.LASF45
 1596 0239 05       		.byte	0x5
 1597 023a 4001     		.2byte	0x140
 1598 023c DE000000 		.4byte	0xde
 1599 0240 34       		.byte	0x34
 1600 0241 0B       		.uleb128 0xb
 1601 0242 DE040000 		.4byte	.LASF46
 1602 0246 05       		.byte	0x5
 1603 0247 4601     		.2byte	0x146
 1604 0249 E9000000 		.4byte	0xe9
 1605 024d 38       		.byte	0x38
 1606 024e 0B       		.uleb128 0xb
 1607 024f F7090000 		.4byte	.LASF47
 1608 0253 05       		.byte	0x5
 1609 0254 4D01     		.2byte	0x14d
 1610 0256 59070000 		.4byte	0x759
 1611 025a 3C       		.byte	0x3c
 1612 025b 0B       		.uleb128 0xb
 1613 025c 200C0000 		.4byte	.LASF48
 1614 0260 05       		.byte	0x5
 1615 0261 5101     		.2byte	0x151
 1616 0263 D3000000 		.4byte	0xd3
 1617 0267 40       		.byte	0x40
 1618 0268 0B       		.uleb128 0xb
 1619 0269 51020000 		.4byte	.LASF49
 1620 026d 05       		.byte	0x5
 1621 026e 5801     		.2byte	0x158
 1622 0270 78030000 		.4byte	0x378
 1623 0274 44       		.byte	0x44
 1624 0275 0B       		.uleb128 0xb
 1625 0276 68030000 		.4byte	.LASF50
 1626 027a 05       		.byte	0x5
 1627 027b 5E01     		.2byte	0x15e
 1628 027d A4060000 		.4byte	0x6a4
 1629 0281 48       		.byte	0x48
 1630 0282 0B       		.uleb128 0xb
 1631 0283 1D050000 		.4byte	.LASF51
 1632 0287 05       		.byte	0x5
 1633 0288 6201     		.2byte	0x162
ARM GAS  C:\Users\Luis\AppData\Local\Temp\ccjBqsxj.s 			page 30


 1634 028a 78030000 		.4byte	0x378
 1635 028e 60       		.byte	0x60
 1636 028f 00       		.byte	0
 1637 0290 04       		.uleb128 0x4
 1638 0291 FC060000 		.4byte	.LASF52
 1639 0295 04       		.byte	0x4
 1640 0296 44       		.byte	0x44
 1641 0297 9B020000 		.4byte	0x29b
 1642 029b 0C       		.uleb128 0xc
 1643 029c 04       		.byte	0x4
 1644 029d 15010000 		.4byte	0x115
 1645 02a1 04       		.uleb128 0x4
 1646 02a2 040E0000 		.4byte	.LASF53
 1647 02a6 04       		.byte	0x4
 1648 02a7 49       		.byte	0x49
 1649 02a8 AC020000 		.4byte	0x2ac
 1650 02ac 06       		.uleb128 0x6
 1651 02ad 640B0000 		.4byte	.LASF55
 1652 02b1 04       		.byte	0x4
 1653 02b2 05       		.byte	0x5
 1654 02b3 B0       		.byte	0xb0
 1655 02b4 C5020000 		.4byte	0x2c5
 1656 02b8 09       		.uleb128 0x9
 1657 02b9 4B0A0000 		.4byte	.LASF32
 1658 02bd 05       		.byte	0x5
 1659 02be B1       		.byte	0xb1
 1660 02bf 9B020000 		.4byte	0x29b
 1661 02c3 00       		.byte	0
 1662 02c4 00       		.byte	0
 1663 02c5 04       		.uleb128 0x4
 1664 02c6 BB0A0000 		.4byte	.LASF56
 1665 02ca 04       		.byte	0x4
 1666 02cb 50       		.byte	0x50
 1667 02cc D0020000 		.4byte	0x2d0
 1668 02d0 06       		.uleb128 0x6
 1669 02d1 9C010000 		.4byte	.LASF57
 1670 02d5 08       		.byte	0x8
 1671 02d6 05       		.byte	0x5
 1672 02d7 B7       		.byte	0xb7
 1673 02d8 F5020000 		.4byte	0x2f5
 1674 02dc 09       		.uleb128 0x9
 1675 02dd 4B0A0000 		.4byte	.LASF32
 1676 02e1 05       		.byte	0x5
 1677 02e2 B8       		.byte	0xb8
 1678 02e3 9B020000 		.4byte	0x29b
 1679 02e7 00       		.byte	0
 1680 02e8 09       		.uleb128 0x9
 1681 02e9 8A080000 		.4byte	.LASF33
 1682 02ed 05       		.byte	0x5
 1683 02ee B9       		.byte	0xb9
 1684 02ef 9B020000 		.4byte	0x29b
 1685 02f3 04       		.byte	0x4
 1686 02f4 00       		.byte	0
 1687 02f5 04       		.uleb128 0x4
 1688 02f6 30000000 		.4byte	.LASF58
 1689 02fa 04       		.byte	0x4
 1690 02fb 57       		.byte	0x57
ARM GAS  C:\Users\Luis\AppData\Local\Temp\ccjBqsxj.s 			page 31


 1691 02fc 00030000 		.4byte	0x300
 1692 0300 0D       		.uleb128 0xd
 1693 0301 1E060000 		.4byte	.LASF59
 1694 0305 1C       		.byte	0x1c
 1695 0306 05       		.byte	0x5
 1696 0307 9001     		.2byte	0x190
 1697 0309 5C030000 		.4byte	0x35c
 1698 030d 0B       		.uleb128 0xb
 1699 030e 530B0000 		.4byte	.LASF60
 1700 0312 05       		.byte	0x5
 1701 0313 9101     		.2byte	0x191
 1702 0315 C5020000 		.4byte	0x2c5
 1703 0319 00       		.byte	0
 1704 031a 0B       		.uleb128 0xb
 1705 031b 2B0A0000 		.4byte	.LASF61
 1706 031f 05       		.byte	0x5
 1707 0320 9201     		.2byte	0x192
 1708 0322 D3000000 		.4byte	0xd3
 1709 0326 08       		.byte	0x8
 1710 0327 0B       		.uleb128 0xb
 1711 0328 8F070000 		.4byte	.LASF62
 1712 032c 05       		.byte	0x5
 1713 032d 9401     		.2byte	0x194
 1714 032f 04050000 		.4byte	0x504
 1715 0333 0C       		.byte	0xc
 1716 0334 0B       		.uleb128 0xb
 1717 0335 13040000 		.4byte	.LASF63
 1718 0339 05       		.byte	0x5
 1719 033a 9701     		.2byte	0x197
 1720 033c 9B020000 		.4byte	0x29b
 1721 0340 10       		.byte	0x10
 1722 0341 0B       		.uleb128 0xb
 1723 0342 EB070000 		.4byte	.LASF64
 1724 0346 05       		.byte	0x5
 1725 0347 9801     		.2byte	0x198
 1726 0349 9B020000 		.4byte	0x29b
 1727 034d 14       		.byte	0x14
 1728 034e 0B       		.uleb128 0xb
 1729 034f E1070000 		.4byte	.LASF65
 1730 0353 05       		.byte	0x5
 1731 0354 9B01     		.2byte	0x19b
 1732 0356 9B020000 		.4byte	0x29b
 1733 035a 18       		.byte	0x18
 1734 035b 00       		.byte	0
 1735 035c 04       		.uleb128 0x4
 1736 035d 2B0C0000 		.4byte	.LASF66
 1737 0361 04       		.byte	0x4
 1738 0362 5C       		.byte	0x5c
 1739 0363 67030000 		.4byte	0x367
 1740 0367 0C       		.uleb128 0xc
 1741 0368 04       		.byte	0x4
 1742 0369 6D030000 		.4byte	0x36d
 1743 036d 0E       		.uleb128 0xe
 1744 036e 78030000 		.4byte	0x378
 1745 0372 0F       		.uleb128 0xf
 1746 0373 78030000 		.4byte	0x378
 1747 0377 00       		.byte	0
ARM GAS  C:\Users\Luis\AppData\Local\Temp\ccjBqsxj.s 			page 32


 1748 0378 10       		.uleb128 0x10
 1749 0379 04       		.byte	0x4
 1750 037a 04       		.uleb128 0x4
 1751 037b 7A080000 		.4byte	.LASF67
 1752 037f 04       		.byte	0x4
 1753 0380 61       		.byte	0x61
 1754 0381 85030000 		.4byte	0x385
 1755 0385 0D       		.uleb128 0xd
 1756 0386 280E0000 		.4byte	.LASF68
 1757 038a 14       		.byte	0x14
 1758 038b 05       		.byte	0x5
 1759 038c 6B01     		.2byte	0x16b
 1760 038e D4030000 		.4byte	0x3d4
 1761 0392 0B       		.uleb128 0xb
 1762 0393 06050000 		.4byte	.LASF69
 1763 0397 05       		.byte	0x5
 1764 0398 6C01     		.2byte	0x16c
 1765 039a 77070000 		.4byte	0x777
 1766 039e 00       		.byte	0
 1767 039f 0B       		.uleb128 0xb
 1768 03a0 24040000 		.4byte	.LASF70
 1769 03a4 05       		.byte	0x5
 1770 03a5 6D01     		.2byte	0x16d
 1771 03a7 77070000 		.4byte	0x777
 1772 03ab 04       		.byte	0x4
 1773 03ac 0B       		.uleb128 0xb
 1774 03ad 5B0B0000 		.4byte	.LASF71
 1775 03b1 05       		.byte	0x5
 1776 03b2 6E01     		.2byte	0x16e
 1777 03b4 0A010000 		.4byte	0x10a
 1778 03b8 08       		.byte	0x8
 1779 03b9 0B       		.uleb128 0xb
 1780 03ba 58070000 		.4byte	.LASF72
 1781 03be 05       		.byte	0x5
 1782 03bf 6F01     		.2byte	0x16f
 1783 03c1 5C030000 		.4byte	0x35c
 1784 03c5 0C       		.byte	0xc
 1785 03c6 0B       		.uleb128 0xb
 1786 03c7 520A0000 		.4byte	.LASF73
 1787 03cb 05       		.byte	0x5
 1788 03cc 7101     		.2byte	0x171
 1789 03ce 78030000 		.4byte	0x378
 1790 03d2 10       		.byte	0x10
 1791 03d3 00       		.byte	0
 1792 03d4 04       		.uleb128 0x4
 1793 03d5 79010000 		.4byte	.LASF74
 1794 03d9 04       		.byte	0x4
 1795 03da 66       		.byte	0x66
 1796 03db DF030000 		.4byte	0x3df
 1797 03df 0D       		.uleb128 0xd
 1798 03e0 20070000 		.4byte	.LASF75
 1799 03e4 10       		.byte	0x10
 1800 03e5 05       		.byte	0x5
 1801 03e6 7B01     		.2byte	0x17b
 1802 03e8 21040000 		.4byte	0x421
 1803 03ec 0B       		.uleb128 0xb
 1804 03ed 06050000 		.4byte	.LASF69
ARM GAS  C:\Users\Luis\AppData\Local\Temp\ccjBqsxj.s 			page 33


 1805 03f1 05       		.byte	0x5
 1806 03f2 7C01     		.2byte	0x17c
 1807 03f4 77070000 		.4byte	0x777
 1808 03f8 00       		.byte	0
 1809 03f9 0B       		.uleb128 0xb
 1810 03fa 24040000 		.4byte	.LASF70
 1811 03fe 05       		.byte	0x5
 1812 03ff 7E01     		.2byte	0x17e
 1813 0401 77070000 		.4byte	0x777
 1814 0405 04       		.byte	0x4
 1815 0406 0B       		.uleb128 0xb
 1816 0407 5B0B0000 		.4byte	.LASF71
 1817 040b 05       		.byte	0x5
 1818 040c 8001     		.2byte	0x180
 1819 040e 0A010000 		.4byte	0x10a
 1820 0412 08       		.byte	0x8
 1821 0413 0B       		.uleb128 0xb
 1822 0414 7B070000 		.4byte	.LASF76
 1823 0418 05       		.byte	0x5
 1824 0419 8801     		.2byte	0x188
 1825 041b 0A010000 		.4byte	0x10a
 1826 041f 0C       		.byte	0xc
 1827 0420 00       		.byte	0
 1828 0421 04       		.uleb128 0x4
 1829 0422 F7040000 		.4byte	.LASF77
 1830 0426 04       		.byte	0x4
 1831 0427 6B       		.byte	0x6b
 1832 0428 2C040000 		.4byte	0x42c
 1833 042c 11       		.uleb128 0x11
 1834 042d 2C040000 		.4byte	.LASF78
 1835 0431 1404     		.2byte	0x414
 1836 0433 05       		.byte	0x5
 1837 0434 A201     		.2byte	0x1a2
 1838 0436 6F040000 		.4byte	0x46f
 1839 043a 0B       		.uleb128 0xb
 1840 043b 960D0000 		.4byte	.LASF79
 1841 043f 05       		.byte	0x5
 1842 0440 AA01     		.2byte	0x1aa
 1843 0442 7D070000 		.4byte	0x77d
 1844 0446 00       		.byte	0
 1845 0447 0B       		.uleb128 0xb
 1846 0448 410D0000 		.4byte	.LASF80
 1847 044c 05       		.byte	0x5
 1848 044d AF01     		.2byte	0x1af
 1849 044f F4000000 		.4byte	0xf4
 1850 0453 04       		.byte	0x4
 1851 0454 0B       		.uleb128 0xb
 1852 0455 6A040000 		.4byte	.LASF81
 1853 0459 05       		.byte	0x5
 1854 045a B301     		.2byte	0x1b3
 1855 045c F4000000 		.4byte	0xf4
 1856 0460 08       		.byte	0x8
 1857 0461 0B       		.uleb128 0xb
 1858 0462 130E0000 		.4byte	.LASF82
 1859 0466 05       		.byte	0x5
 1860 0467 B901     		.2byte	0x1b9
 1861 0469 2E060000 		.4byte	0x62e
ARM GAS  C:\Users\Luis\AppData\Local\Temp\ccjBqsxj.s 			page 34


 1862 046d 0C       		.byte	0xc
 1863 046e 00       		.byte	0
 1864 046f 04       		.uleb128 0x4
 1865 0470 D0050000 		.4byte	.LASF83
 1866 0474 04       		.byte	0x4
 1867 0475 70       		.byte	0x70
 1868 0476 7A040000 		.4byte	0x47a
 1869 047a 11       		.uleb128 0x11
 1870 047b F3020000 		.4byte	.LASF84
 1871 047f E805     		.2byte	0x5e8
 1872 0481 05       		.byte	0x5
 1873 0482 C201     		.2byte	0x1c2
 1874 0484 E7040000 		.4byte	0x4e7
 1875 0488 0B       		.uleb128 0xb
 1876 0489 880D0000 		.4byte	.LASF85
 1877 048d 05       		.byte	0x5
 1878 048e C601     		.2byte	0x1c6
 1879 0490 F5020000 		.4byte	0x2f5
 1880 0494 00       		.byte	0
 1881 0495 0B       		.uleb128 0xb
 1882 0496 B0000000 		.4byte	.LASF86
 1883 049a 05       		.byte	0x5
 1884 049b CA01     		.2byte	0x1ca
 1885 049d D4030000 		.4byte	0x3d4
 1886 04a1 1C       		.byte	0x1c
 1887 04a2 0A       		.uleb128 0xa
 1888 04a3 64626700 		.ascii	"dbg\000"
 1889 04a7 05       		.byte	0x5
 1890 04a8 CE01     		.2byte	0x1ce
 1891 04aa 21040000 		.4byte	0x421
 1892 04ae 2C       		.byte	0x2c
 1893 04af 12       		.uleb128 0x12
 1894 04b0 6D050000 		.4byte	.LASF87
 1895 04b4 05       		.byte	0x5
 1896 04b5 D201     		.2byte	0x1d2
 1897 04b7 15010000 		.4byte	0x115
 1898 04bb 4004     		.2byte	0x440
 1899 04bd 13       		.uleb128 0x13
 1900 04be 746D00   		.ascii	"tm\000"
 1901 04c1 05       		.byte	0x5
 1902 04c2 D701     		.2byte	0x1d7
 1903 04c4 52060000 		.4byte	0x652
 1904 04c8 A804     		.2byte	0x4a8
 1905 04ca 12       		.uleb128 0x12
 1906 04cb 8C000000 		.4byte	.LASF88
 1907 04cf 05       		.byte	0x5
 1908 04d0 DD01     		.2byte	0x1dd
 1909 04d2 EC060000 		.4byte	0x6ec
 1910 04d6 B004     		.2byte	0x4b0
 1911 04d8 12       		.uleb128 0x12
 1912 04d9 590A0000 		.4byte	.LASF89
 1913 04dd 05       		.byte	0x5
 1914 04de E301     		.2byte	0x1e3
 1915 04e0 82070000 		.4byte	0x782
 1916 04e4 E804     		.2byte	0x4e8
 1917 04e6 00       		.byte	0
 1918 04e7 03       		.uleb128 0x3
ARM GAS  C:\Users\Luis\AppData\Local\Temp\ccjBqsxj.s 			page 35


 1919 04e8 04       		.byte	0x4
 1920 04e9 07       		.byte	0x7
 1921 04ea A00D0000 		.4byte	.LASF90
 1922 04ee 04       		.uleb128 0x4
 1923 04ef 1B040000 		.4byte	.LASF91
 1924 04f3 06       		.byte	0x6
 1925 04f4 65       		.byte	0x65
 1926 04f5 78030000 		.4byte	0x378
 1927 04f9 04       		.uleb128 0x4
 1928 04fa 8D060000 		.4byte	.LASF92
 1929 04fe 06       		.byte	0x6
 1930 04ff 6D       		.byte	0x6d
 1931 0500 85000000 		.4byte	0x85
 1932 0504 06       		.uleb128 0x6
 1933 0505 A80C0000 		.4byte	.LASF93
 1934 0509 04       		.byte	0x4
 1935 050a 06       		.byte	0x6
 1936 050b 89       		.byte	0x89
 1937 050c 1D050000 		.4byte	0x51d
 1938 0510 14       		.uleb128 0x14
 1939 0511 72313300 		.ascii	"r13\000"
 1940 0515 06       		.byte	0x6
 1941 0516 8A       		.byte	0x8a
 1942 0517 98050000 		.4byte	0x598
 1943 051b 00       		.byte	0
 1944 051c 00       		.byte	0
 1945 051d 06       		.uleb128 0x6
 1946 051e A4000000 		.4byte	.LASF94
 1947 0522 24       		.byte	0x24
 1948 0523 07       		.byte	0x7
 1949 0524 F4       		.byte	0xf4
 1950 0525 98050000 		.4byte	0x598
 1951 0529 0A       		.uleb128 0xa
 1952 052a 723400   		.ascii	"r4\000"
 1953 052d 07       		.byte	0x7
 1954 052e 0701     		.2byte	0x107
 1955 0530 EE040000 		.4byte	0x4ee
 1956 0534 00       		.byte	0
 1957 0535 0A       		.uleb128 0xa
 1958 0536 723500   		.ascii	"r5\000"
 1959 0539 07       		.byte	0x7
 1960 053a 0801     		.2byte	0x108
 1961 053c EE040000 		.4byte	0x4ee
 1962 0540 04       		.byte	0x4
 1963 0541 0A       		.uleb128 0xa
 1964 0542 723600   		.ascii	"r6\000"
 1965 0545 07       		.byte	0x7
 1966 0546 0901     		.2byte	0x109
 1967 0548 EE040000 		.4byte	0x4ee
 1968 054c 08       		.byte	0x8
 1969 054d 0A       		.uleb128 0xa
 1970 054e 723700   		.ascii	"r7\000"
 1971 0551 07       		.byte	0x7
 1972 0552 0A01     		.2byte	0x10a
 1973 0554 EE040000 		.4byte	0x4ee
 1974 0558 0C       		.byte	0xc
 1975 0559 0A       		.uleb128 0xa
ARM GAS  C:\Users\Luis\AppData\Local\Temp\ccjBqsxj.s 			page 36


 1976 055a 723800   		.ascii	"r8\000"
 1977 055d 07       		.byte	0x7
 1978 055e 0B01     		.2byte	0x10b
 1979 0560 EE040000 		.4byte	0x4ee
 1980 0564 10       		.byte	0x10
 1981 0565 0A       		.uleb128 0xa
 1982 0566 723900   		.ascii	"r9\000"
 1983 0569 07       		.byte	0x7
 1984 056a 0C01     		.2byte	0x10c
 1985 056c EE040000 		.4byte	0x4ee
 1986 0570 14       		.byte	0x14
 1987 0571 0A       		.uleb128 0xa
 1988 0572 72313000 		.ascii	"r10\000"
 1989 0576 07       		.byte	0x7
 1990 0577 0D01     		.2byte	0x10d
 1991 0579 EE040000 		.4byte	0x4ee
 1992 057d 18       		.byte	0x18
 1993 057e 0A       		.uleb128 0xa
 1994 057f 72313100 		.ascii	"r11\000"
 1995 0583 07       		.byte	0x7
 1996 0584 0E01     		.2byte	0x10e
 1997 0586 EE040000 		.4byte	0x4ee
 1998 058a 1C       		.byte	0x1c
 1999 058b 0A       		.uleb128 0xa
 2000 058c 6C7200   		.ascii	"lr\000"
 2001 058f 07       		.byte	0x7
 2002 0590 0F01     		.2byte	0x10f
 2003 0592 EE040000 		.4byte	0x4ee
 2004 0596 20       		.byte	0x20
 2005 0597 00       		.byte	0
 2006 0598 0C       		.uleb128 0xc
 2007 0599 04       		.byte	0x4
 2008 059a 1D050000 		.4byte	0x51d
 2009 059e 15       		.uleb128 0x15
 2010 059f 10       		.byte	0x10
 2011 05a0 08       		.byte	0x8
 2012 05a1 51       		.byte	0x51
 2013 05a2 52050000 		.4byte	.LASF104
 2014 05a6 DB050000 		.4byte	0x5db
 2015 05aa 09       		.uleb128 0x9
 2016 05ab 3D000000 		.4byte	.LASF95
 2017 05af 08       		.byte	0x8
 2018 05b0 55       		.byte	0x55
 2019 05b1 0A010000 		.4byte	0x10a
 2020 05b5 00       		.byte	0
 2021 05b6 09       		.uleb128 0x9
 2022 05b7 70030000 		.4byte	.LASF96
 2023 05bb 08       		.byte	0x8
 2024 05bc 59       		.byte	0x59
 2025 05bd 9B020000 		.4byte	0x29b
 2026 05c1 04       		.byte	0x4
 2027 05c2 09       		.uleb128 0x9
 2028 05c3 E20E0000 		.4byte	.LASF97
 2029 05c7 08       		.byte	0x8
 2030 05c8 5D       		.byte	0x5d
 2031 05c9 78030000 		.4byte	0x378
 2032 05cd 08       		.byte	0x8
ARM GAS  C:\Users\Luis\AppData\Local\Temp\ccjBqsxj.s 			page 37


 2033 05ce 09       		.uleb128 0x9
 2034 05cf 06010000 		.4byte	.LASF98
 2035 05d3 08       		.byte	0x8
 2036 05d4 61       		.byte	0x61
 2037 05d5 3A000000 		.4byte	0x3a
 2038 05d9 0C       		.byte	0xc
 2039 05da 00       		.byte	0
 2040 05db 04       		.uleb128 0x4
 2041 05dc 6C070000 		.4byte	.LASF99
 2042 05e0 08       		.byte	0x8
 2043 05e1 62       		.byte	0x62
 2044 05e2 9E050000 		.4byte	0x59e
 2045 05e6 16       		.uleb128 0x16
 2046 05e7 0804     		.2byte	0x408
 2047 05e9 08       		.byte	0x8
 2048 05ea 67       		.byte	0x67
 2049 05eb 5A060000 		.4byte	.LASF225
 2050 05ef 18060000 		.4byte	0x618
 2051 05f3 09       		.uleb128 0x9
 2052 05f4 FC030000 		.4byte	.LASF100
 2053 05f8 08       		.byte	0x8
 2054 05f9 6B       		.byte	0x6b
 2055 05fa 2C000000 		.4byte	0x2c
 2056 05fe 00       		.byte	0
 2057 05ff 09       		.uleb128 0x9
 2058 0600 E0060000 		.4byte	.LASF101
 2059 0604 08       		.byte	0x8
 2060 0605 6F       		.byte	0x6f
 2061 0606 18060000 		.4byte	0x618
 2062 060a 04       		.byte	0x4
 2063 060b 09       		.uleb128 0x9
 2064 060c 70080000 		.4byte	.LASF102
 2065 0610 08       		.byte	0x8
 2066 0611 73       		.byte	0x73
 2067 0612 1E060000 		.4byte	0x61e
 2068 0616 08       		.byte	0x8
 2069 0617 00       		.byte	0
 2070 0618 0C       		.uleb128 0xc
 2071 0619 04       		.byte	0x4
 2072 061a DB050000 		.4byte	0x5db
 2073 061e 17       		.uleb128 0x17
 2074 061f DB050000 		.4byte	0x5db
 2075 0623 2E060000 		.4byte	0x62e
 2076 0627 18       		.uleb128 0x18
 2077 0628 E7040000 		.4byte	0x4e7
 2078 062c 3F       		.byte	0x3f
 2079 062d 00       		.byte	0
 2080 062e 04       		.uleb128 0x4
 2081 062f C3090000 		.4byte	.LASF103
 2082 0633 08       		.byte	0x8
 2083 0634 74       		.byte	0x74
 2084 0635 E6050000 		.4byte	0x5e6
 2085 0639 15       		.uleb128 0x15
 2086 063a 04       		.byte	0x4
 2087 063b 09       		.byte	0x9
 2088 063c 38       		.byte	0x38
 2089 063d F70B0000 		.4byte	.LASF105
ARM GAS  C:\Users\Luis\AppData\Local\Temp\ccjBqsxj.s 			page 38


 2090 0641 52060000 		.4byte	0x652
 2091 0645 09       		.uleb128 0x9
 2092 0646 A10C0000 		.4byte	.LASF106
 2093 064a 09       		.byte	0x9
 2094 064b 3C       		.byte	0x3c
 2095 064c 9C000000 		.4byte	0x9c
 2096 0650 00       		.byte	0
 2097 0651 00       		.byte	0
 2098 0652 04       		.uleb128 0x4
 2099 0653 BB070000 		.4byte	.LASF107
 2100 0657 09       		.byte	0x9
 2101 0658 3D       		.byte	0x3d
 2102 0659 39060000 		.4byte	0x639
 2103 065d 15       		.uleb128 0x15
 2104 065e 18       		.byte	0x18
 2105 065f 09       		.byte	0x9
 2106 0660 48       		.byte	0x48
 2107 0661 95070000 		.4byte	.LASF108
 2108 0665 A4060000 		.4byte	0x6a4
 2109 0669 09       		.uleb128 0x9
 2110 066a 0A0C0000 		.4byte	.LASF109
 2111 066e 09       		.byte	0x9
 2112 066f 49       		.byte	0x49
 2113 0670 9C000000 		.4byte	0x9c
 2114 0674 00       		.byte	0
 2115 0675 09       		.uleb128 0x9
 2116 0676 C3000000 		.4byte	.LASF110
 2117 067a 09       		.byte	0x9
 2118 067b 4A       		.byte	0x4a
 2119 067c 9C000000 		.4byte	0x9c
 2120 0680 04       		.byte	0x4
 2121 0681 09       		.uleb128 0x9
 2122 0682 96050000 		.4byte	.LASF111
 2123 0686 09       		.byte	0x9
 2124 0687 4B       		.byte	0x4b
 2125 0688 9C000000 		.4byte	0x9c
 2126 068c 08       		.byte	0x8
 2127 068d 14       		.uleb128 0x14
 2128 068e 6E00     		.ascii	"n\000"
 2129 0690 09       		.byte	0x9
 2130 0691 4C       		.byte	0x4c
 2131 0692 FF000000 		.4byte	0xff
 2132 0696 0C       		.byte	0xc
 2133 0697 09       		.uleb128 0x9
 2134 0698 02080000 		.4byte	.LASF112
 2135 069c 09       		.byte	0x9
 2136 069d 4D       		.byte	0x4d
 2137 069e A7000000 		.4byte	0xa7
 2138 06a2 10       		.byte	0x10
 2139 06a3 00       		.byte	0
 2140 06a4 04       		.uleb128 0x4
 2141 06a5 C9000000 		.4byte	.LASF113
 2142 06a9 09       		.byte	0x9
 2143 06aa 4E       		.byte	0x4e
 2144 06ab 5D060000 		.4byte	0x65d
 2145 06af 15       		.uleb128 0x15
 2146 06b0 38       		.byte	0x38
ARM GAS  C:\Users\Luis\AppData\Local\Temp\ccjBqsxj.s 			page 39


 2147 06b1 0A       		.byte	0xa
 2148 06b2 38       		.byte	0x38
 2149 06b3 AA070000 		.4byte	.LASF114
 2150 06b7 EC060000 		.4byte	0x6ec
 2151 06bb 09       		.uleb128 0x9
 2152 06bc 24050000 		.4byte	.LASF115
 2153 06c0 0A       		.byte	0xa
 2154 06c1 39       		.byte	0x39
 2155 06c2 FF000000 		.4byte	0xff
 2156 06c6 00       		.byte	0
 2157 06c7 09       		.uleb128 0x9
 2158 06c8 B2090000 		.4byte	.LASF116
 2159 06cc 0A       		.byte	0xa
 2160 06cd 3A       		.byte	0x3a
 2161 06ce FF000000 		.4byte	0xff
 2162 06d2 04       		.byte	0x4
 2163 06d3 09       		.uleb128 0x9
 2164 06d4 340C0000 		.4byte	.LASF117
 2165 06d8 0A       		.byte	0xa
 2166 06d9 3B       		.byte	0x3b
 2167 06da A4060000 		.4byte	0x6a4
 2168 06de 08       		.byte	0x8
 2169 06df 09       		.uleb128 0x9
 2170 06e0 13060000 		.4byte	.LASF118
 2171 06e4 0A       		.byte	0xa
 2172 06e5 3D       		.byte	0x3d
 2173 06e6 A4060000 		.4byte	0x6a4
 2174 06ea 20       		.byte	0x20
 2175 06eb 00       		.byte	0
 2176 06ec 04       		.uleb128 0x4
 2177 06ed 43050000 		.4byte	.LASF119
 2178 06f1 0A       		.byte	0xa
 2179 06f2 3F       		.byte	0x3f
 2180 06f3 AF060000 		.4byte	0x6af
 2181 06f7 0C       		.uleb128 0xc
 2182 06f8 04       		.byte	0x4
 2183 06f9 90020000 		.4byte	0x290
 2184 06fd 06       		.uleb128 0x6
 2185 06fe F70A0000 		.4byte	.LASF120
 2186 0702 0C       		.byte	0xc
 2187 0703 0B       		.byte	0xb
 2188 0704 34       		.byte	0x34
 2189 0705 22070000 		.4byte	0x722
 2190 0709 09       		.uleb128 0x9
 2191 070a EB030000 		.4byte	.LASF121
 2192 070e 0B       		.byte	0xb
 2193 070f 35       		.byte	0x35
 2194 0710 C5020000 		.4byte	0x2c5
 2195 0714 00       		.byte	0
 2196 0715 09       		.uleb128 0x9
 2197 0716 2A050000 		.4byte	.LASF122
 2198 071a 0B       		.byte	0xb
 2199 071b 37       		.byte	0x37
 2200 071c F4000000 		.4byte	0xf4
 2201 0720 08       		.byte	0x8
 2202 0721 00       		.byte	0
 2203 0722 0C       		.uleb128 0xc
ARM GAS  C:\Users\Luis\AppData\Local\Temp\ccjBqsxj.s 			page 40


 2204 0723 04       		.byte	0x4
 2205 0724 FD060000 		.4byte	0x6fd
 2206 0728 06       		.uleb128 0x6
 2207 0729 A90D0000 		.4byte	.LASF123
 2208 072d 10       		.byte	0x10
 2209 072e 0C       		.byte	0xc
 2210 072f 39       		.byte	0x39
 2211 0730 59070000 		.4byte	0x759
 2212 0734 09       		.uleb128 0x9
 2213 0735 67020000 		.4byte	.LASF124
 2214 0739 0C       		.byte	0xc
 2215 073a 3A       		.byte	0x3a
 2216 073b C5020000 		.4byte	0x2c5
 2217 073f 00       		.byte	0
 2218 0740 09       		.uleb128 0x9
 2219 0741 DA0E0000 		.4byte	.LASF125
 2220 0745 0C       		.byte	0xc
 2221 0746 3C       		.byte	0x3c
 2222 0747 9B020000 		.4byte	0x29b
 2223 074b 08       		.byte	0x8
 2224 074c 09       		.uleb128 0x9
 2225 074d 0F0C0000 		.4byte	.LASF126
 2226 0751 0C       		.byte	0xc
 2227 0752 3E       		.byte	0x3e
 2228 0753 9D070000 		.4byte	0x79d
 2229 0757 0C       		.byte	0xc
 2230 0758 00       		.byte	0
 2231 0759 0C       		.uleb128 0xc
 2232 075a 04       		.byte	0x4
 2233 075b 28070000 		.4byte	0x728
 2234 075f 0C       		.uleb128 0xc
 2235 0760 04       		.byte	0x4
 2236 0761 65070000 		.4byte	0x765
 2237 0765 19       		.uleb128 0x19
 2238 0766 6A070000 		.4byte	0x76a
 2239 076a 03       		.uleb128 0x3
 2240 076b 01       		.byte	0x1
 2241 076c 08       		.byte	0x8
 2242 076d CE0B0000 		.4byte	.LASF127
 2243 0771 0C       		.uleb128 0xc
 2244 0772 04       		.byte	0x4
 2245 0773 F9040000 		.4byte	0x4f9
 2246 0777 0C       		.uleb128 0xc
 2247 0778 04       		.byte	0x4
 2248 0779 7A030000 		.4byte	0x37a
 2249 077d 05       		.uleb128 0x5
 2250 077e 5F070000 		.4byte	0x75f
 2251 0782 17       		.uleb128 0x17
 2252 0783 90000000 		.4byte	0x90
 2253 0787 92070000 		.4byte	0x792
 2254 078b 18       		.uleb128 0x18
 2255 078c E7040000 		.4byte	0x4e7
 2256 0790 1F       		.byte	0x1f
 2257 0791 00       		.byte	0
 2258 0792 04       		.uleb128 0x4
 2259 0793 5B040000 		.4byte	.LASF128
 2260 0797 0C       		.byte	0xc
ARM GAS  C:\Users\Luis\AppData\Local\Temp\ccjBqsxj.s 			page 41


 2261 0798 34       		.byte	0x34
 2262 0799 28070000 		.4byte	0x728
 2263 079d 0C       		.uleb128 0xc
 2264 079e 04       		.byte	0x4
 2265 079f 92070000 		.4byte	0x792
 2266 07a3 03       		.uleb128 0x3
 2267 07a4 01       		.byte	0x1
 2268 07a5 02       		.byte	0x2
 2269 07a6 E4050000 		.4byte	.LASF129
 2270 07aa 1A       		.uleb128 0x1a
 2271 07ab 7D0D0000 		.4byte	.LASF226
 2272 07af 34       		.byte	0x34
 2273 07b0 0D       		.byte	0xd
 2274 07b1 0D       		.byte	0xd
 2275 07b2 AA070000 		.4byte	0x7aa
 2276 07b6 3E0C0000 		.4byte	0xc3e
 2277 07ba 1B       		.uleb128 0x1b
 2278 07bb 0F070000 		.4byte	.LASF130
 2279 07bf 490C0000 		.4byte	0xc49
 2280 07c3 00       		.byte	0
 2281 07c4 01       		.byte	0x1
 2282 07c5 09       		.uleb128 0x9
 2283 07c6 B7000000 		.4byte	.LASF131
 2284 07ca 0D       		.byte	0xd
 2285 07cb 8A       		.byte	0x8a
 2286 07cc 25000000 		.4byte	0x25
 2287 07d0 04       		.byte	0x4
 2288 07d1 09       		.uleb128 0x9
 2289 07d2 78050000 		.4byte	.LASF132
 2290 07d6 0D       		.byte	0xd
 2291 07d7 8D       		.byte	0x8d
 2292 07d8 590C0000 		.4byte	0xc59
 2293 07dc 08       		.byte	0x8
 2294 07dd 09       		.uleb128 0x9
 2295 07de EB0C0000 		.4byte	.LASF133
 2296 07e2 0D       		.byte	0xd
 2297 07e3 8E       		.byte	0x8e
 2298 07e4 590C0000 		.4byte	0xc59
 2299 07e8 0C       		.byte	0xc
 2300 07e9 09       		.uleb128 0x9
 2301 07ea 190D0000 		.4byte	.LASF134
 2302 07ee 0D       		.byte	0xd
 2303 07ef 8F       		.byte	0x8f
 2304 07f0 590C0000 		.4byte	0xc59
 2305 07f4 10       		.byte	0x10
 2306 07f5 09       		.uleb128 0x9
 2307 07f6 42060000 		.4byte	.LASF135
 2308 07fa 0D       		.byte	0xd
 2309 07fb 92       		.byte	0x92
 2310 07fc 590C0000 		.4byte	0xc59
 2311 0800 14       		.byte	0x14
 2312 0801 09       		.uleb128 0x9
 2313 0802 D80C0000 		.4byte	.LASF136
 2314 0806 0D       		.byte	0xd
 2315 0807 93       		.byte	0x93
 2316 0808 590C0000 		.4byte	0xc59
 2317 080c 18       		.byte	0x18
ARM GAS  C:\Users\Luis\AppData\Local\Temp\ccjBqsxj.s 			page 42


 2318 080d 09       		.uleb128 0x9
 2319 080e 260D0000 		.4byte	.LASF137
 2320 0812 0D       		.byte	0xd
 2321 0813 94       		.byte	0x94
 2322 0814 590C0000 		.4byte	0xc59
 2323 0818 1C       		.byte	0x1c
 2324 0819 09       		.uleb128 0x9
 2325 081a 60070000 		.4byte	.LASF138
 2326 081e 0D       		.byte	0xd
 2327 081f 97       		.byte	0x97
 2328 0820 590C0000 		.4byte	0xc59
 2329 0824 20       		.byte	0x20
 2330 0825 09       		.uleb128 0x9
 2331 0826 CA030000 		.4byte	.LASF139
 2332 082a 0D       		.byte	0xd
 2333 082b 98       		.byte	0x98
 2334 082c 660C0000 		.4byte	0xc66
 2335 0830 24       		.byte	0x24
 2336 0831 09       		.uleb128 0x9
 2337 0832 320A0000 		.4byte	.LASF140
 2338 0836 0D       		.byte	0xd
 2339 0837 99       		.byte	0x99
 2340 0838 25000000 		.4byte	0x25
 2341 083c 28       		.byte	0x28
 2342 083d 09       		.uleb128 0x9
 2343 083e 63040000 		.4byte	.LASF141
 2344 0842 0D       		.byte	0xd
 2345 0843 9A       		.byte	0x9a
 2346 0844 5F0C0000 		.4byte	0xc5f
 2347 0848 2C       		.byte	0x2c
 2348 0849 09       		.uleb128 0x9
 2349 084a 3E0B0000 		.4byte	.LASF142
 2350 084e 0D       		.byte	0xd
 2351 084f 9C       		.byte	0x9c
 2352 0850 25000000 		.4byte	0x25
 2353 0854 30       		.byte	0x30
 2354 0855 1C       		.uleb128 0x1c
 2355 0856 2B0F0000 		.4byte	.LASF143
 2356 085a 01       		.byte	0x1
 2357 085b 10       		.byte	0x10
 2358 085c 37070000 		.4byte	.LASF145
 2359 0860 01       		.byte	0x1
 2360 0861 69080000 		.4byte	0x869
 2361 0865 74080000 		.4byte	0x874
 2362 0869 1D       		.uleb128 0x1d
 2363 086a 6C0C0000 		.4byte	0xc6c
 2364 086e 0F       		.uleb128 0xf
 2365 086f 25000000 		.4byte	0x25
 2366 0873 00       		.byte	0
 2367 0874 1E       		.uleb128 0x1e
 2368 0875 9D040000 		.4byte	.LASF227
 2369 0879 01       		.byte	0x1
 2370 087a 21       		.byte	0x21
 2371 087b 78030000 		.4byte	0x378
 2372 087f 01       		.byte	0x1
 2373 0880 AA070000 		.4byte	0x7aa
 2374 0884 01       		.byte	0x1
ARM GAS  C:\Users\Luis\AppData\Local\Temp\ccjBqsxj.s 			page 43


 2375 0885 8D080000 		.4byte	0x88d
 2376 0889 98080000 		.4byte	0x898
 2377 088d 1D       		.uleb128 0x1d
 2378 088e 6C0C0000 		.4byte	0xc6c
 2379 0892 1D       		.uleb128 0x1d
 2380 0893 25000000 		.4byte	0x25
 2381 0897 00       		.byte	0
 2382 0898 1C       		.uleb128 0x1c
 2383 0899 3D020000 		.4byte	.LASF144
 2384 089d 01       		.byte	0x1
 2385 089e 2B       		.byte	0x2b
 2386 089f 76030000 		.4byte	.LASF146
 2387 08a3 01       		.byte	0x1
 2388 08a4 AC080000 		.4byte	0x8ac
 2389 08a8 B2080000 		.4byte	0x8b2
 2390 08ac 1D       		.uleb128 0x1d
 2391 08ad 6C0C0000 		.4byte	0xc6c
 2392 08b1 00       		.byte	0
 2393 08b2 1C       		.uleb128 0x1c
 2394 08b3 900E0000 		.4byte	.LASF147
 2395 08b7 01       		.byte	0x1
 2396 08b8 35       		.byte	0x35
 2397 08b9 55000000 		.4byte	.LASF148
 2398 08bd 01       		.byte	0x1
 2399 08be C6080000 		.4byte	0x8c6
 2400 08c2 CC080000 		.4byte	0x8cc
 2401 08c6 1D       		.uleb128 0x1d
 2402 08c7 6C0C0000 		.4byte	0xc6c
 2403 08cb 00       		.byte	0
 2404 08cc 1C       		.uleb128 0x1c
 2405 08cd E5090000 		.4byte	.LASF149
 2406 08d1 0D       		.byte	0xd
 2407 08d2 27       		.byte	0x27
 2408 08d3 740B0000 		.4byte	.LASF150
 2409 08d7 01       		.byte	0x1
 2410 08d8 E0080000 		.4byte	0x8e0
 2411 08dc E6080000 		.4byte	0x8e6
 2412 08e0 1D       		.uleb128 0x1d
 2413 08e1 6C0C0000 		.4byte	0xc6c
 2414 08e5 00       		.byte	0
 2415 08e6 1C       		.uleb128 0x1c
 2416 08e7 00000000 		.4byte	.LASF151
 2417 08eb 01       		.byte	0x1
 2418 08ec 49       		.byte	0x49
 2419 08ed 13000000 		.4byte	.LASF152
 2420 08f1 01       		.byte	0x1
 2421 08f2 FA080000 		.4byte	0x8fa
 2422 08f6 05090000 		.4byte	0x905
 2423 08fa 1D       		.uleb128 0x1d
 2424 08fb 6C0C0000 		.4byte	0xc6c
 2425 08ff 0F       		.uleb128 0xf
 2426 0900 590C0000 		.4byte	0xc59
 2427 0904 00       		.byte	0
 2428 0905 1C       		.uleb128 0x1c
 2429 0906 C6050000 		.4byte	.LASF153
 2430 090a 0D       		.byte	0xd
 2431 090b 2E       		.byte	0x2e
ARM GAS  C:\Users\Luis\AppData\Local\Temp\ccjBqsxj.s 			page 44


 2432 090c 11030000 		.4byte	.LASF154
 2433 0910 01       		.byte	0x1
 2434 0911 19090000 		.4byte	0x919
 2435 0915 29090000 		.4byte	0x929
 2436 0919 1D       		.uleb128 0x1d
 2437 091a 6C0C0000 		.4byte	0xc6c
 2438 091e 0F       		.uleb128 0xf
 2439 091f 590C0000 		.4byte	0xc59
 2440 0923 0F       		.uleb128 0xf
 2441 0924 590C0000 		.4byte	0xc59
 2442 0928 00       		.byte	0
 2443 0929 1F       		.uleb128 0x1f
 2444 092a E10A0000 		.4byte	.LASF157
 2445 092e 01       		.byte	0x1
 2446 092f 6C       		.byte	0x6c
 2447 0930 7C0A0000 		.4byte	.LASF159
 2448 0934 590C0000 		.4byte	0xc59
 2449 0938 01       		.byte	0x1
 2450 0939 41090000 		.4byte	0x941
 2451 093d 47090000 		.4byte	0x947
 2452 0941 1D       		.uleb128 0x1d
 2453 0942 720C0000 		.4byte	0xc72
 2454 0946 00       		.byte	0
 2455 0947 1C       		.uleb128 0x1c
 2456 0948 63010000 		.4byte	.LASF155
 2457 094c 01       		.byte	0x1
 2458 094d 70       		.byte	0x70
 2459 094e 31030000 		.4byte	.LASF156
 2460 0952 01       		.byte	0x1
 2461 0953 5B090000 		.4byte	0x95b
 2462 0957 66090000 		.4byte	0x966
 2463 095b 1D       		.uleb128 0x1d
 2464 095c 6C0C0000 		.4byte	0xc6c
 2465 0960 0F       		.uleb128 0xf
 2466 0961 590C0000 		.4byte	0xc59
 2467 0965 00       		.byte	0
 2468 0966 1F       		.uleb128 0x1f
 2469 0967 FE0C0000 		.4byte	.LASF158
 2470 096b 0D       		.byte	0xd
 2471 096c 3F       		.byte	0x3f
 2472 096d D50D0000 		.4byte	.LASF160
 2473 0971 590C0000 		.4byte	0xc59
 2474 0975 01       		.byte	0x1
 2475 0976 7E090000 		.4byte	0x97e
 2476 097a 84090000 		.4byte	0x984
 2477 097e 1D       		.uleb128 0x1d
 2478 097f 720C0000 		.4byte	0xc72
 2479 0983 00       		.byte	0
 2480 0984 1C       		.uleb128 0x1c
 2481 0985 5A0E0000 		.4byte	.LASF161
 2482 0989 01       		.byte	0x1
 2483 098a 76       		.byte	0x76
 2484 098b 0F010000 		.4byte	.LASF162
 2485 098f 01       		.byte	0x1
 2486 0990 98090000 		.4byte	0x998
 2487 0994 A3090000 		.4byte	0x9a3
 2488 0998 1D       		.uleb128 0x1d
ARM GAS  C:\Users\Luis\AppData\Local\Temp\ccjBqsxj.s 			page 45


 2489 0999 6C0C0000 		.4byte	0xc6c
 2490 099d 0F       		.uleb128 0xf
 2491 099e 590C0000 		.4byte	0xc59
 2492 09a2 00       		.byte	0
 2493 09a3 1F       		.uleb128 0x1f
 2494 09a4 6F020000 		.4byte	.LASF163
 2495 09a8 01       		.byte	0x1
 2496 09a9 7C       		.byte	0x7c
 2497 09aa A2050000 		.4byte	.LASF164
 2498 09ae 590C0000 		.4byte	0xc59
 2499 09b2 01       		.byte	0x1
 2500 09b3 BB090000 		.4byte	0x9bb
 2501 09b7 C1090000 		.4byte	0x9c1
 2502 09bb 1D       		.uleb128 0x1d
 2503 09bc 720C0000 		.4byte	0xc72
 2504 09c0 00       		.byte	0
 2505 09c1 1C       		.uleb128 0x1c
 2506 09c2 D5090000 		.4byte	.LASF165
 2507 09c6 01       		.byte	0x1
 2508 09c7 80       		.byte	0x80
 2509 09c8 D30B0000 		.4byte	.LASF166
 2510 09cc 01       		.byte	0x1
 2511 09cd D5090000 		.4byte	0x9d5
 2512 09d1 E0090000 		.4byte	0x9e0
 2513 09d5 1D       		.uleb128 0x1d
 2514 09d6 6C0C0000 		.4byte	0xc6c
 2515 09da 0F       		.uleb128 0xf
 2516 09db 590C0000 		.4byte	0xc59
 2517 09df 00       		.byte	0
 2518 09e0 1F       		.uleb128 0x1f
 2519 09e1 DD010000 		.4byte	.LASF167
 2520 09e5 01       		.byte	0x1
 2521 09e6 86       		.byte	0x86
 2522 09e7 C8020000 		.4byte	.LASF168
 2523 09eb 660C0000 		.4byte	0xc66
 2524 09ef 01       		.byte	0x1
 2525 09f0 F8090000 		.4byte	0x9f8
 2526 09f4 FE090000 		.4byte	0x9fe
 2527 09f8 1D       		.uleb128 0x1d
 2528 09f9 720C0000 		.4byte	0xc72
 2529 09fd 00       		.byte	0
 2530 09fe 1C       		.uleb128 0x1c
 2531 09ff 040B0000 		.4byte	.LASF169
 2532 0a03 01       		.byte	0x1
 2533 0a04 8A       		.byte	0x8a
 2534 0a05 87090000 		.4byte	.LASF170
 2535 0a09 01       		.byte	0x1
 2536 0a0a 120A0000 		.4byte	0xa12
 2537 0a0e 1D0A0000 		.4byte	0xa1d
 2538 0a12 1D       		.uleb128 0x1d
 2539 0a13 6C0C0000 		.4byte	0xc6c
 2540 0a17 0F       		.uleb128 0xf
 2541 0a18 660C0000 		.4byte	0xc66
 2542 0a1c 00       		.byte	0
 2543 0a1d 1F       		.uleb128 0x1f
 2544 0a1e 3E010000 		.4byte	.LASF171
 2545 0a22 01       		.byte	0x1
ARM GAS  C:\Users\Luis\AppData\Local\Temp\ccjBqsxj.s 			page 46


 2546 0a23 91       		.byte	0x91
 2547 0a24 990B0000 		.4byte	.LASF172
 2548 0a28 25000000 		.4byte	0x25
 2549 0a2c 01       		.byte	0x1
 2550 0a2d 350A0000 		.4byte	0xa35
 2551 0a31 3B0A0000 		.4byte	0xa3b
 2552 0a35 1D       		.uleb128 0x1d
 2553 0a36 720C0000 		.4byte	0xc72
 2554 0a3a 00       		.byte	0
 2555 0a3b 1C       		.uleb128 0x1c
 2556 0a3c 0E050000 		.4byte	.LASF173
 2557 0a40 01       		.byte	0x1
 2558 0a41 95       		.byte	0x95
 2559 0a42 A40E0000 		.4byte	.LASF174
 2560 0a46 01       		.byte	0x1
 2561 0a47 4F0A0000 		.4byte	0xa4f
 2562 0a4b 5A0A0000 		.4byte	0xa5a
 2563 0a4f 1D       		.uleb128 0x1d
 2564 0a50 6C0C0000 		.4byte	0xc6c
 2565 0a54 0F       		.uleb128 0xf
 2566 0a55 25000000 		.4byte	0x25
 2567 0a59 00       		.byte	0
 2568 0a5a 1F       		.uleb128 0x1f
 2569 0a5b 04040000 		.4byte	.LASF175
 2570 0a5f 01       		.byte	0x1
 2571 0a60 56       		.byte	0x56
 2572 0a61 AE060000 		.4byte	.LASF176
 2573 0a65 590C0000 		.4byte	0xc59
 2574 0a69 01       		.byte	0x1
 2575 0a6a 720A0000 		.4byte	0xa72
 2576 0a6e 780A0000 		.4byte	0xa78
 2577 0a72 1D       		.uleb128 0x1d
 2578 0a73 720C0000 		.4byte	0xc72
 2579 0a77 00       		.byte	0
 2580 0a78 1C       		.uleb128 0x1c
 2581 0a79 BE0C0000 		.4byte	.LASF177
 2582 0a7d 01       		.byte	0x1
 2583 0a7e 5A       		.byte	0x5a
 2584 0a7f B20D0000 		.4byte	.LASF178
 2585 0a83 01       		.byte	0x1
 2586 0a84 8C0A0000 		.4byte	0xa8c
 2587 0a88 970A0000 		.4byte	0xa97
 2588 0a8c 1D       		.uleb128 0x1d
 2589 0a8d 6C0C0000 		.4byte	0xc6c
 2590 0a91 0F       		.uleb128 0xf
 2591 0a92 590C0000 		.4byte	0xc59
 2592 0a96 00       		.byte	0
 2593 0a97 1F       		.uleb128 0x1f
 2594 0a98 59020000 		.4byte	.LASF179
 2595 0a9c 01       		.byte	0x1
 2596 0a9d 5E       		.byte	0x5e
 2597 0a9e 010A0000 		.4byte	.LASF180
 2598 0aa2 25000000 		.4byte	0x25
 2599 0aa6 01       		.byte	0x1
 2600 0aa7 AF0A0000 		.4byte	0xaaf
 2601 0aab B50A0000 		.4byte	0xab5
 2602 0aaf 1D       		.uleb128 0x1d
ARM GAS  C:\Users\Luis\AppData\Local\Temp\ccjBqsxj.s 			page 47


 2603 0ab0 720C0000 		.4byte	0xc72
 2604 0ab4 00       		.byte	0
 2605 0ab5 1C       		.uleb128 0x1c
 2606 0ab6 E9040000 		.4byte	.LASF181
 2607 0aba 01       		.byte	0x1
 2608 0abb 62       		.byte	0x62
 2609 0abc 5E0C0000 		.4byte	.LASF182
 2610 0ac0 01       		.byte	0x1
 2611 0ac1 C90A0000 		.4byte	0xac9
 2612 0ac5 D40A0000 		.4byte	0xad4
 2613 0ac9 1D       		.uleb128 0x1d
 2614 0aca 6C0C0000 		.4byte	0xc6c
 2615 0ace 0F       		.uleb128 0xf
 2616 0acf 25000000 		.4byte	0x25
 2617 0ad3 00       		.byte	0
 2618 0ad4 1F       		.uleb128 0x1f
 2619 0ad5 CB0A0000 		.4byte	.LASF183
 2620 0ad9 01       		.byte	0x1
 2621 0ada 99       		.byte	0x99
 2622 0adb E9050000 		.4byte	.LASF184
 2623 0adf 590C0000 		.4byte	0xc59
 2624 0ae3 01       		.byte	0x1
 2625 0ae4 EC0A0000 		.4byte	0xaec
 2626 0ae8 F20A0000 		.4byte	0xaf2
 2627 0aec 1D       		.uleb128 0x1d
 2628 0aed 720C0000 		.4byte	0xc72
 2629 0af1 00       		.byte	0
 2630 0af2 1C       		.uleb128 0x1c
 2631 0af3 4D010000 		.4byte	.LASF185
 2632 0af7 01       		.byte	0x1
 2633 0af8 9D       		.byte	0x9d
 2634 0af9 73040000 		.4byte	.LASF186
 2635 0afd 01       		.byte	0x1
 2636 0afe 060B0000 		.4byte	0xb06
 2637 0b02 110B0000 		.4byte	0xb11
 2638 0b06 1D       		.uleb128 0x1d
 2639 0b07 6C0C0000 		.4byte	0xc6c
 2640 0b0b 0F       		.uleb128 0xf
 2641 0b0c 590C0000 		.4byte	0xc59
 2642 0b10 00       		.byte	0
 2643 0b11 1F       		.uleb128 0x1f
 2644 0b12 3F0E0000 		.4byte	.LASF187
 2645 0b16 01       		.byte	0x1
 2646 0b17 A1       		.byte	0xa1
 2647 0b18 FC0E0000 		.4byte	.LASF188
 2648 0b1c 590C0000 		.4byte	0xc59
 2649 0b20 01       		.byte	0x1
 2650 0b21 290B0000 		.4byte	0xb29
 2651 0b25 2F0B0000 		.4byte	0xb2f
 2652 0b29 1D       		.uleb128 0x1d
 2653 0b2a 720C0000 		.4byte	0xc72
 2654 0b2e 00       		.byte	0
 2655 0b2f 1C       		.uleb128 0x1c
 2656 0b30 750E0000 		.4byte	.LASF189
 2657 0b34 01       		.byte	0x1
 2658 0b35 A5       		.byte	0xa5
 2659 0b36 F4010000 		.4byte	.LASF190
ARM GAS  C:\Users\Luis\AppData\Local\Temp\ccjBqsxj.s 			page 48


 2660 0b3a 01       		.byte	0x1
 2661 0b3b 430B0000 		.4byte	0xb43
 2662 0b3f 4E0B0000 		.4byte	0xb4e
 2663 0b43 1D       		.uleb128 0x1d
 2664 0b44 6C0C0000 		.4byte	0xc6c
 2665 0b48 0F       		.uleb128 0xf
 2666 0b49 590C0000 		.4byte	0xc59
 2667 0b4d 00       		.byte	0
 2668 0b4e 1F       		.uleb128 0x1f
 2669 0b4f 7F020000 		.4byte	.LASF191
 2670 0b53 01       		.byte	0x1
 2671 0b54 AB       		.byte	0xab
 2672 0b55 9D030000 		.4byte	.LASF192
 2673 0b59 590C0000 		.4byte	0xc59
 2674 0b5d 01       		.byte	0x1
 2675 0b5e 660B0000 		.4byte	0xb66
 2676 0b62 6C0B0000 		.4byte	0xb6c
 2677 0b66 1D       		.uleb128 0x1d
 2678 0b67 720C0000 		.4byte	0xc72
 2679 0b6b 00       		.byte	0
 2680 0b6c 1F       		.uleb128 0x1f
 2681 0b6d 99000000 		.4byte	.LASF193
 2682 0b71 0D       		.byte	0xd
 2683 0b72 81       		.byte	0x81
 2684 0b73 3F0C0000 		.4byte	.LASF194
 2685 0b77 590C0000 		.4byte	0xc59
 2686 0b7b 01       		.byte	0x1
 2687 0b7c 840B0000 		.4byte	0xb84
 2688 0b80 8A0B0000 		.4byte	0xb8a
 2689 0b84 1D       		.uleb128 0x1d
 2690 0b85 720C0000 		.4byte	0xc72
 2691 0b89 00       		.byte	0
 2692 0b8a 1C       		.uleb128 0x1c
 2693 0b8b 98060000 		.4byte	.LASF195
 2694 0b8f 0D       		.byte	0xd
 2695 0b90 82       		.byte	0x82
 2696 0b91 3C040000 		.4byte	.LASF196
 2697 0b95 01       		.byte	0x1
 2698 0b96 9E0B0000 		.4byte	0xb9e
 2699 0b9a A90B0000 		.4byte	0xba9
 2700 0b9e 1D       		.uleb128 0x1d
 2701 0b9f 6C0C0000 		.4byte	0xc6c
 2702 0ba3 0F       		.uleb128 0xf
 2703 0ba4 590C0000 		.4byte	0xc59
 2704 0ba8 00       		.byte	0
 2705 0ba9 1F       		.uleb128 0x1f
 2706 0baa 1B0B0000 		.4byte	.LASF197
 2707 0bae 0D       		.byte	0xd
 2708 0baf 83       		.byte	0x83
 2709 0bb0 6E060000 		.4byte	.LASF198
 2710 0bb4 590C0000 		.4byte	0xc59
 2711 0bb8 01       		.byte	0x1
 2712 0bb9 C10B0000 		.4byte	0xbc1
 2713 0bbd C70B0000 		.4byte	0xbc7
 2714 0bc1 1D       		.uleb128 0x1d
 2715 0bc2 720C0000 		.4byte	0xc72
 2716 0bc6 00       		.byte	0
ARM GAS  C:\Users\Luis\AppData\Local\Temp\ccjBqsxj.s 			page 49


 2717 0bc7 1C       		.uleb128 0x1c
 2718 0bc8 A3060000 		.4byte	.LASF199
 2719 0bcc 0D       		.byte	0xd
 2720 0bcd 84       		.byte	0x84
 2721 0bce 5E0D0000 		.4byte	.LASF200
 2722 0bd2 01       		.byte	0x1
 2723 0bd3 DB0B0000 		.4byte	0xbdb
 2724 0bd7 E60B0000 		.4byte	0xbe6
 2725 0bdb 1D       		.uleb128 0x1d
 2726 0bdc 6C0C0000 		.4byte	0xc6c
 2727 0be0 0F       		.uleb128 0xf
 2728 0be1 590C0000 		.4byte	0xc59
 2729 0be5 00       		.byte	0
 2730 0be6 1F       		.uleb128 0x1f
 2731 0be7 CC070000 		.4byte	.LASF201
 2732 0beb 0D       		.byte	0xd
 2733 0bec 85       		.byte	0x85
 2734 0bed 46080000 		.4byte	.LASF202
 2735 0bf1 A3070000 		.4byte	0x7a3
 2736 0bf5 01       		.byte	0x1
 2737 0bf6 FE0B0000 		.4byte	0xbfe
 2738 0bfa 040C0000 		.4byte	0xc04
 2739 0bfe 1D       		.uleb128 0x1d
 2740 0bff 720C0000 		.4byte	0xc72
 2741 0c03 00       		.byte	0
 2742 0c04 1C       		.uleb128 0x1c
 2743 0c05 D1060000 		.4byte	.LASF203
 2744 0c09 0D       		.byte	0xd
 2745 0c0a 86       		.byte	0x86
 2746 0c0b 7F0C0000 		.4byte	.LASF204
 2747 0c0f 01       		.byte	0x1
 2748 0c10 180C0000 		.4byte	0xc18
 2749 0c14 230C0000 		.4byte	0xc23
 2750 0c18 1D       		.uleb128 0x1d
 2751 0c19 6C0C0000 		.4byte	0xc6c
 2752 0c1d 0F       		.uleb128 0xf
 2753 0c1e A3070000 		.4byte	0x7a3
 2754 0c22 00       		.byte	0
 2755 0c23 20       		.uleb128 0x20
 2756 0c24 06030000 		.4byte	.LASF213
 2757 0c28 01       		.byte	0x1
 2758 0c29 66       		.byte	0x66
 2759 0c2a 13080000 		.4byte	.LASF228
 2760 0c2e 320C0000 		.4byte	0xc32
 2761 0c32 1D       		.uleb128 0x1d
 2762 0c33 6C0C0000 		.4byte	0xc6c
 2763 0c37 0F       		.uleb128 0xf
 2764 0c38 660C0000 		.4byte	0xc66
 2765 0c3c 00       		.byte	0
 2766 0c3d 00       		.byte	0
 2767 0c3e 21       		.uleb128 0x21
 2768 0c3f 25000000 		.4byte	0x25
 2769 0c43 490C0000 		.4byte	0xc49
 2770 0c47 22       		.uleb128 0x22
 2771 0c48 00       		.byte	0
 2772 0c49 0C       		.uleb128 0xc
 2773 0c4a 04       		.byte	0x4
ARM GAS  C:\Users\Luis\AppData\Local\Temp\ccjBqsxj.s 			page 50


 2774 0c4b 4F0C0000 		.4byte	0xc4f
 2775 0c4f 23       		.uleb128 0x23
 2776 0c50 04       		.byte	0x4
 2777 0c51 AF040000 		.4byte	.LASF229
 2778 0c55 3E0C0000 		.4byte	0xc3e
 2779 0c59 0C       		.uleb128 0xc
 2780 0c5a 04       		.byte	0x4
 2781 0c5b 5F0C0000 		.4byte	0xc5f
 2782 0c5f 03       		.uleb128 0x3
 2783 0c60 04       		.byte	0x4
 2784 0c61 04       		.byte	0x4
 2785 0c62 0D080000 		.4byte	.LASF205
 2786 0c66 0C       		.uleb128 0xc
 2787 0c67 04       		.byte	0x4
 2788 0c68 25000000 		.4byte	0x25
 2789 0c6c 0C       		.uleb128 0xc
 2790 0c6d 04       		.byte	0x4
 2791 0c6e AA070000 		.4byte	0x7aa
 2792 0c72 0C       		.uleb128 0xc
 2793 0c73 04       		.byte	0x4
 2794 0c74 780C0000 		.4byte	0xc78
 2795 0c78 19       		.uleb128 0x19
 2796 0c79 AA070000 		.4byte	0x7aa
 2797 0c7d 24       		.uleb128 0x24
 2798 0c7e 55080000 		.4byte	0x855
 2799 0c82 00000000 		.4byte	.LFB261
 2800 0c86 88000000 		.4byte	.LFE261-.LFB261
 2801 0c8a 01       		.uleb128 0x1
 2802 0c8b 9C       		.byte	0x9c
 2803 0c8c 940C0000 		.4byte	0xc94
 2804 0c90 AF0C0000 		.4byte	0xcaf
 2805 0c94 25       		.uleb128 0x25
 2806 0c95 DE030000 		.4byte	.LASF206
 2807 0c99 AF0C0000 		.4byte	0xcaf
 2808 0c9d 02       		.uleb128 0x2
 2809 0c9e 91       		.byte	0x91
 2810 0c9f 74       		.sleb128 -12
 2811 0ca0 26       		.uleb128 0x26
 2812 0ca1 5B030000 		.4byte	.LASF210
 2813 0ca5 01       		.byte	0x1
 2814 0ca6 10       		.byte	0x10
 2815 0ca7 25000000 		.4byte	0x25
 2816 0cab 02       		.uleb128 0x2
 2817 0cac 91       		.byte	0x91
 2818 0cad 70       		.sleb128 -16
 2819 0cae 00       		.byte	0
 2820 0caf 19       		.uleb128 0x19
 2821 0cb0 6C0C0000 		.4byte	0xc6c
 2822 0cb4 27       		.uleb128 0x27
 2823 0cb5 74080000 		.4byte	0x874
 2824 0cb9 00       		.byte	0
 2825 0cba C20C0000 		.4byte	0xcc2
 2826 0cbe D50C0000 		.4byte	0xcd5
 2827 0cc2 28       		.uleb128 0x28
 2828 0cc3 DE030000 		.4byte	.LASF206
 2829 0cc7 AF0C0000 		.4byte	0xcaf
 2830 0ccb 28       		.uleb128 0x28
ARM GAS  C:\Users\Luis\AppData\Local\Temp\ccjBqsxj.s 			page 51


 2831 0ccc 45000000 		.4byte	.LASF207
 2832 0cd0 D50C0000 		.4byte	0xcd5
 2833 0cd4 00       		.byte	0
 2834 0cd5 19       		.uleb128 0x19
 2835 0cd6 25000000 		.4byte	0x25
 2836 0cda 29       		.uleb128 0x29
 2837 0cdb B40C0000 		.4byte	0xcb4
 2838 0cdf 680A0000 		.4byte	.LASF208
 2839 0ce3 00000000 		.4byte	.LFB263
 2840 0ce7 64000000 		.4byte	.LFE263-.LFB263
 2841 0ceb 01       		.uleb128 0x1
 2842 0cec 9C       		.byte	0x9c
 2843 0ced F50C0000 		.4byte	0xcf5
 2844 0cf1 FE0C0000 		.4byte	0xcfe
 2845 0cf5 2A       		.uleb128 0x2a
 2846 0cf6 C20C0000 		.4byte	0xcc2
 2847 0cfa 02       		.uleb128 0x2
 2848 0cfb 91       		.byte	0x91
 2849 0cfc 74       		.sleb128 -12
 2850 0cfd 00       		.byte	0
 2851 0cfe 29       		.uleb128 0x29
 2852 0cff B40C0000 		.4byte	0xcb4
 2853 0d03 C60E0000 		.4byte	.LASF209
 2854 0d07 00000000 		.4byte	.LFB265
 2855 0d0b 1E000000 		.4byte	.LFE265-.LFB265
 2856 0d0f 01       		.uleb128 0x1
 2857 0d10 9C       		.byte	0x9c
 2858 0d11 190D0000 		.4byte	0xd19
 2859 0d15 220D0000 		.4byte	0xd22
 2860 0d19 2A       		.uleb128 0x2a
 2861 0d1a C20C0000 		.4byte	0xcc2
 2862 0d1e 02       		.uleb128 0x2
 2863 0d1f 91       		.byte	0x91
 2864 0d20 74       		.sleb128 -12
 2865 0d21 00       		.byte	0
 2866 0d22 2B       		.uleb128 0x2b
 2867 0d23 98080000 		.4byte	0x898
 2868 0d27 00000000 		.4byte	.LFB266
 2869 0d2b 88000000 		.4byte	.LFE266-.LFB266
 2870 0d2f 01       		.uleb128 0x1
 2871 0d30 9C       		.byte	0x9c
 2872 0d31 390D0000 		.4byte	0xd39
 2873 0d35 460D0000 		.4byte	0xd46
 2874 0d39 25       		.uleb128 0x25
 2875 0d3a DE030000 		.4byte	.LASF206
 2876 0d3e AF0C0000 		.4byte	0xcaf
 2877 0d42 02       		.uleb128 0x2
 2878 0d43 91       		.byte	0x91
 2879 0d44 74       		.sleb128 -12
 2880 0d45 00       		.byte	0
 2881 0d46 2B       		.uleb128 0x2b
 2882 0d47 B2080000 		.4byte	0x8b2
 2883 0d4b 00000000 		.4byte	.LFB267
 2884 0d4f 4C000000 		.4byte	.LFE267-.LFB267
 2885 0d53 01       		.uleb128 0x1
 2886 0d54 9C       		.byte	0x9c
 2887 0d55 5D0D0000 		.4byte	0xd5d
ARM GAS  C:\Users\Luis\AppData\Local\Temp\ccjBqsxj.s 			page 52


 2888 0d59 6A0D0000 		.4byte	0xd6a
 2889 0d5d 25       		.uleb128 0x25
 2890 0d5e DE030000 		.4byte	.LASF206
 2891 0d62 AF0C0000 		.4byte	0xcaf
 2892 0d66 02       		.uleb128 0x2
 2893 0d67 91       		.byte	0x91
 2894 0d68 74       		.sleb128 -12
 2895 0d69 00       		.byte	0
 2896 0d6a 2B       		.uleb128 0x2b
 2897 0d6b E6080000 		.4byte	0x8e6
 2898 0d6f 00000000 		.4byte	.LFB268
 2899 0d73 4C000000 		.4byte	.LFE268-.LFB268
 2900 0d77 01       		.uleb128 0x1
 2901 0d78 9C       		.byte	0x9c
 2902 0d79 810D0000 		.4byte	0xd81
 2903 0d7d 9C0D0000 		.4byte	0xd9c
 2904 0d81 25       		.uleb128 0x25
 2905 0d82 DE030000 		.4byte	.LASF206
 2906 0d86 AF0C0000 		.4byte	0xcaf
 2907 0d8a 02       		.uleb128 0x2
 2908 0d8b 91       		.byte	0x91
 2909 0d8c 74       		.sleb128 -12
 2910 0d8d 26       		.uleb128 0x26
 2911 0d8e DA070000 		.4byte	.LASF211
 2912 0d92 01       		.byte	0x1
 2913 0d93 49       		.byte	0x49
 2914 0d94 590C0000 		.4byte	0xc59
 2915 0d98 02       		.uleb128 0x2
 2916 0d99 91       		.byte	0x91
 2917 0d9a 70       		.sleb128 -16
 2918 0d9b 00       		.byte	0
 2919 0d9c 2B       		.uleb128 0x2b
 2920 0d9d 5A0A0000 		.4byte	0xa5a
 2921 0da1 00000000 		.4byte	.LFB269
 2922 0da5 18000000 		.4byte	.LFE269-.LFB269
 2923 0da9 01       		.uleb128 0x1
 2924 0daa 9C       		.byte	0x9c
 2925 0dab B30D0000 		.4byte	0xdb3
 2926 0daf C00D0000 		.4byte	0xdc0
 2927 0db3 25       		.uleb128 0x25
 2928 0db4 DE030000 		.4byte	.LASF206
 2929 0db8 C00D0000 		.4byte	0xdc0
 2930 0dbc 02       		.uleb128 0x2
 2931 0dbd 91       		.byte	0x91
 2932 0dbe 74       		.sleb128 -12
 2933 0dbf 00       		.byte	0
 2934 0dc0 19       		.uleb128 0x19
 2935 0dc1 720C0000 		.4byte	0xc72
 2936 0dc5 2B       		.uleb128 0x2b
 2937 0dc6 780A0000 		.4byte	0xa78
 2938 0dca 00000000 		.4byte	.LFB270
 2939 0dce 1A000000 		.4byte	.LFE270-.LFB270
 2940 0dd2 01       		.uleb128 0x1
 2941 0dd3 9C       		.byte	0x9c
 2942 0dd4 DC0D0000 		.4byte	0xddc
 2943 0dd8 F70D0000 		.4byte	0xdf7
 2944 0ddc 25       		.uleb128 0x25
ARM GAS  C:\Users\Luis\AppData\Local\Temp\ccjBqsxj.s 			page 53


 2945 0ddd DE030000 		.4byte	.LASF206
 2946 0de1 AF0C0000 		.4byte	0xcaf
 2947 0de5 02       		.uleb128 0x2
 2948 0de6 91       		.byte	0x91
 2949 0de7 74       		.sleb128 -12
 2950 0de8 26       		.uleb128 0x26
 2951 0de9 520D0000 		.4byte	.LASF212
 2952 0ded 01       		.byte	0x1
 2953 0dee 5A       		.byte	0x5a
 2954 0def 590C0000 		.4byte	0xc59
 2955 0df3 02       		.uleb128 0x2
 2956 0df4 91       		.byte	0x91
 2957 0df5 70       		.sleb128 -16
 2958 0df6 00       		.byte	0
 2959 0df7 2B       		.uleb128 0x2b
 2960 0df8 970A0000 		.4byte	0xa97
 2961 0dfc 00000000 		.4byte	.LFB271
 2962 0e00 18000000 		.4byte	.LFE271-.LFB271
 2963 0e04 01       		.uleb128 0x1
 2964 0e05 9C       		.byte	0x9c
 2965 0e06 0E0E0000 		.4byte	0xe0e
 2966 0e0a 1B0E0000 		.4byte	0xe1b
 2967 0e0e 25       		.uleb128 0x25
 2968 0e0f DE030000 		.4byte	.LASF206
 2969 0e13 C00D0000 		.4byte	0xdc0
 2970 0e17 02       		.uleb128 0x2
 2971 0e18 91       		.byte	0x91
 2972 0e19 74       		.sleb128 -12
 2973 0e1a 00       		.byte	0
 2974 0e1b 2B       		.uleb128 0x2b
 2975 0e1c B50A0000 		.4byte	0xab5
 2976 0e20 00000000 		.4byte	.LFB272
 2977 0e24 1A000000 		.4byte	.LFE272-.LFB272
 2978 0e28 01       		.uleb128 0x1
 2979 0e29 9C       		.byte	0x9c
 2980 0e2a 320E0000 		.4byte	0xe32
 2981 0e2e 4D0E0000 		.4byte	0xe4d
 2982 0e32 25       		.uleb128 0x25
 2983 0e33 DE030000 		.4byte	.LASF206
 2984 0e37 AF0C0000 		.4byte	0xcaf
 2985 0e3b 02       		.uleb128 0x2
 2986 0e3c 91       		.byte	0x91
 2987 0e3d 74       		.sleb128 -12
 2988 0e3e 26       		.uleb128 0x26
 2989 0e3f 06030000 		.4byte	.LASF213
 2990 0e43 01       		.byte	0x1
 2991 0e44 62       		.byte	0x62
 2992 0e45 25000000 		.4byte	0x25
 2993 0e49 02       		.uleb128 0x2
 2994 0e4a 91       		.byte	0x91
 2995 0e4b 70       		.sleb128 -16
 2996 0e4c 00       		.byte	0
 2997 0e4d 24       		.uleb128 0x24
 2998 0e4e 230C0000 		.4byte	0xc23
 2999 0e52 00000000 		.4byte	.LFB273
 3000 0e56 36000000 		.4byte	.LFE273-.LFB273
 3001 0e5a 01       		.uleb128 0x1
ARM GAS  C:\Users\Luis\AppData\Local\Temp\ccjBqsxj.s 			page 54


 3002 0e5b 9C       		.byte	0x9c
 3003 0e5c 640E0000 		.4byte	0xe64
 3004 0e60 7F0E0000 		.4byte	0xe7f
 3005 0e64 25       		.uleb128 0x25
 3006 0e65 DE030000 		.4byte	.LASF206
 3007 0e69 AF0C0000 		.4byte	0xcaf
 3008 0e6d 02       		.uleb128 0x2
 3009 0e6e 91       		.byte	0x91
 3010 0e6f 74       		.sleb128 -12
 3011 0e70 26       		.uleb128 0x26
 3012 0e71 CC010000 		.4byte	.LASF214
 3013 0e75 01       		.byte	0x1
 3014 0e76 66       		.byte	0x66
 3015 0e77 660C0000 		.4byte	0xc66
 3016 0e7b 02       		.uleb128 0x2
 3017 0e7c 91       		.byte	0x91
 3018 0e7d 70       		.sleb128 -16
 3019 0e7e 00       		.byte	0
 3020 0e7f 2B       		.uleb128 0x2b
 3021 0e80 29090000 		.4byte	0x929
 3022 0e84 00000000 		.4byte	.LFB274
 3023 0e88 18000000 		.4byte	.LFE274-.LFB274
 3024 0e8c 01       		.uleb128 0x1
 3025 0e8d 9C       		.byte	0x9c
 3026 0e8e 960E0000 		.4byte	0xe96
 3027 0e92 A30E0000 		.4byte	0xea3
 3028 0e96 25       		.uleb128 0x25
 3029 0e97 DE030000 		.4byte	.LASF206
 3030 0e9b C00D0000 		.4byte	0xdc0
 3031 0e9f 02       		.uleb128 0x2
 3032 0ea0 91       		.byte	0x91
 3033 0ea1 74       		.sleb128 -12
 3034 0ea2 00       		.byte	0
 3035 0ea3 2B       		.uleb128 0x2b
 3036 0ea4 47090000 		.4byte	0x947
 3037 0ea8 00000000 		.4byte	.LFB275
 3038 0eac 4E000000 		.4byte	.LFE275-.LFB275
 3039 0eb0 01       		.uleb128 0x1
 3040 0eb1 9C       		.byte	0x9c
 3041 0eb2 BA0E0000 		.4byte	0xeba
 3042 0eb6 D50E0000 		.4byte	0xed5
 3043 0eba 25       		.uleb128 0x25
 3044 0ebb DE030000 		.4byte	.LASF206
 3045 0ebf AF0C0000 		.4byte	0xcaf
 3046 0ec3 02       		.uleb128 0x2
 3047 0ec4 91       		.byte	0x91
 3048 0ec5 74       		.sleb128 -12
 3049 0ec6 26       		.uleb128 0x26
 3050 0ec7 32080000 		.4byte	.LASF215
 3051 0ecb 01       		.byte	0x1
 3052 0ecc 70       		.byte	0x70
 3053 0ecd 590C0000 		.4byte	0xc59
 3054 0ed1 02       		.uleb128 0x2
 3055 0ed2 91       		.byte	0x91
 3056 0ed3 70       		.sleb128 -16
 3057 0ed4 00       		.byte	0
 3058 0ed5 2B       		.uleb128 0x2b
ARM GAS  C:\Users\Luis\AppData\Local\Temp\ccjBqsxj.s 			page 55


 3059 0ed6 84090000 		.4byte	0x984
 3060 0eda 00000000 		.4byte	.LFB276
 3061 0ede 4C000000 		.4byte	.LFE276-.LFB276
 3062 0ee2 01       		.uleb128 0x1
 3063 0ee3 9C       		.byte	0x9c
 3064 0ee4 EC0E0000 		.4byte	0xeec
 3065 0ee8 070F0000 		.4byte	0xf07
 3066 0eec 25       		.uleb128 0x25
 3067 0eed DE030000 		.4byte	.LASF206
 3068 0ef1 AF0C0000 		.4byte	0xcaf
 3069 0ef5 02       		.uleb128 0x2
 3070 0ef6 91       		.byte	0x91
 3071 0ef7 74       		.sleb128 -12
 3072 0ef8 26       		.uleb128 0x26
 3073 0ef9 AD010000 		.4byte	.LASF216
 3074 0efd 01       		.byte	0x1
 3075 0efe 76       		.byte	0x76
 3076 0eff 590C0000 		.4byte	0xc59
 3077 0f03 02       		.uleb128 0x2
 3078 0f04 91       		.byte	0x91
 3079 0f05 70       		.sleb128 -16
 3080 0f06 00       		.byte	0
 3081 0f07 2B       		.uleb128 0x2b
 3082 0f08 A3090000 		.4byte	0x9a3
 3083 0f0c 00000000 		.4byte	.LFB277
 3084 0f10 18000000 		.4byte	.LFE277-.LFB277
 3085 0f14 01       		.uleb128 0x1
 3086 0f15 9C       		.byte	0x9c
 3087 0f16 1E0F0000 		.4byte	0xf1e
 3088 0f1a 2B0F0000 		.4byte	0xf2b
 3089 0f1e 25       		.uleb128 0x25
 3090 0f1f DE030000 		.4byte	.LASF206
 3091 0f23 C00D0000 		.4byte	0xdc0
 3092 0f27 02       		.uleb128 0x2
 3093 0f28 91       		.byte	0x91
 3094 0f29 74       		.sleb128 -12
 3095 0f2a 00       		.byte	0
 3096 0f2b 2B       		.uleb128 0x2b
 3097 0f2c C1090000 		.4byte	0x9c1
 3098 0f30 00000000 		.4byte	.LFB278
 3099 0f34 48000000 		.4byte	.LFE278-.LFB278
 3100 0f38 01       		.uleb128 0x1
 3101 0f39 9C       		.byte	0x9c
 3102 0f3a 420F0000 		.4byte	0xf42
 3103 0f3e 5D0F0000 		.4byte	0xf5d
 3104 0f42 25       		.uleb128 0x25
 3105 0f43 DE030000 		.4byte	.LASF206
 3106 0f47 AF0C0000 		.4byte	0xcaf
 3107 0f4b 02       		.uleb128 0x2
 3108 0f4c 91       		.byte	0x91
 3109 0f4d 74       		.sleb128 -12
 3110 0f4e 26       		.uleb128 0x26
 3111 0f4f E7060000 		.4byte	.LASF217
 3112 0f53 01       		.byte	0x1
 3113 0f54 80       		.byte	0x80
 3114 0f55 590C0000 		.4byte	0xc59
 3115 0f59 02       		.uleb128 0x2
ARM GAS  C:\Users\Luis\AppData\Local\Temp\ccjBqsxj.s 			page 56


 3116 0f5a 91       		.byte	0x91
 3117 0f5b 70       		.sleb128 -16
 3118 0f5c 00       		.byte	0
 3119 0f5d 2B       		.uleb128 0x2b
 3120 0f5e E0090000 		.4byte	0x9e0
 3121 0f62 00000000 		.4byte	.LFB279
 3122 0f66 18000000 		.4byte	.LFE279-.LFB279
 3123 0f6a 01       		.uleb128 0x1
 3124 0f6b 9C       		.byte	0x9c
 3125 0f6c 740F0000 		.4byte	0xf74
 3126 0f70 810F0000 		.4byte	0xf81
 3127 0f74 25       		.uleb128 0x25
 3128 0f75 DE030000 		.4byte	.LASF206
 3129 0f79 C00D0000 		.4byte	0xdc0
 3130 0f7d 02       		.uleb128 0x2
 3131 0f7e 91       		.byte	0x91
 3132 0f7f 74       		.sleb128 -12
 3133 0f80 00       		.byte	0
 3134 0f81 24       		.uleb128 0x24
 3135 0f82 FE090000 		.4byte	0x9fe
 3136 0f86 00000000 		.4byte	.LFB280
 3137 0f8a 4C000000 		.4byte	.LFE280-.LFB280
 3138 0f8e 01       		.uleb128 0x1
 3139 0f8f 9C       		.byte	0x9c
 3140 0f90 980F0000 		.4byte	0xf98
 3141 0f94 B30F0000 		.4byte	0xfb3
 3142 0f98 25       		.uleb128 0x25
 3143 0f99 DE030000 		.4byte	.LASF206
 3144 0f9d AF0C0000 		.4byte	0xcaf
 3145 0fa1 02       		.uleb128 0x2
 3146 0fa2 91       		.byte	0x91
 3147 0fa3 74       		.sleb128 -12
 3148 0fa4 26       		.uleb128 0x26
 3149 0fa5 A60A0000 		.4byte	.LASF218
 3150 0fa9 01       		.byte	0x1
 3151 0faa 8A       		.byte	0x8a
 3152 0fab 660C0000 		.4byte	0xc66
 3153 0faf 02       		.uleb128 0x2
 3154 0fb0 91       		.byte	0x91
 3155 0fb1 70       		.sleb128 -16
 3156 0fb2 00       		.byte	0
 3157 0fb3 2B       		.uleb128 0x2b
 3158 0fb4 1D0A0000 		.4byte	0xa1d
 3159 0fb8 00000000 		.4byte	.LFB281
 3160 0fbc 18000000 		.4byte	.LFE281-.LFB281
 3161 0fc0 01       		.uleb128 0x1
 3162 0fc1 9C       		.byte	0x9c
 3163 0fc2 CA0F0000 		.4byte	0xfca
 3164 0fc6 D70F0000 		.4byte	0xfd7
 3165 0fca 25       		.uleb128 0x25
 3166 0fcb DE030000 		.4byte	.LASF206
 3167 0fcf C00D0000 		.4byte	0xdc0
 3168 0fd3 02       		.uleb128 0x2
 3169 0fd4 91       		.byte	0x91
 3170 0fd5 74       		.sleb128 -12
 3171 0fd6 00       		.byte	0
 3172 0fd7 2B       		.uleb128 0x2b
ARM GAS  C:\Users\Luis\AppData\Local\Temp\ccjBqsxj.s 			page 57


 3173 0fd8 3B0A0000 		.4byte	0xa3b
 3174 0fdc 00000000 		.4byte	.LFB282
 3175 0fe0 1A000000 		.4byte	.LFE282-.LFB282
 3176 0fe4 01       		.uleb128 0x1
 3177 0fe5 9C       		.byte	0x9c
 3178 0fe6 EE0F0000 		.4byte	0xfee
 3179 0fea 09100000 		.4byte	0x1009
 3180 0fee 25       		.uleb128 0x25
 3181 0fef DE030000 		.4byte	.LASF206
 3182 0ff3 AF0C0000 		.4byte	0xcaf
 3183 0ff7 02       		.uleb128 0x2
 3184 0ff8 91       		.byte	0x91
 3185 0ff9 74       		.sleb128 -12
 3186 0ffa 26       		.uleb128 0x26
 3187 0ffb 5B030000 		.4byte	.LASF210
 3188 0fff 01       		.byte	0x1
 3189 1000 95       		.byte	0x95
 3190 1001 25000000 		.4byte	0x25
 3191 1005 02       		.uleb128 0x2
 3192 1006 91       		.byte	0x91
 3193 1007 70       		.sleb128 -16
 3194 1008 00       		.byte	0
 3195 1009 2B       		.uleb128 0x2b
 3196 100a D40A0000 		.4byte	0xad4
 3197 100e 00000000 		.4byte	.LFB283
 3198 1012 18000000 		.4byte	.LFE283-.LFB283
 3199 1016 01       		.uleb128 0x1
 3200 1017 9C       		.byte	0x9c
 3201 1018 20100000 		.4byte	0x1020
 3202 101c 2D100000 		.4byte	0x102d
 3203 1020 25       		.uleb128 0x25
 3204 1021 DE030000 		.4byte	.LASF206
 3205 1025 C00D0000 		.4byte	0xdc0
 3206 1029 02       		.uleb128 0x2
 3207 102a 91       		.byte	0x91
 3208 102b 74       		.sleb128 -12
 3209 102c 00       		.byte	0
 3210 102d 2B       		.uleb128 0x2b
 3211 102e F20A0000 		.4byte	0xaf2
 3212 1032 00000000 		.4byte	.LFB284
 3213 1036 1A000000 		.4byte	.LFE284-.LFB284
 3214 103a 01       		.uleb128 0x1
 3215 103b 9C       		.byte	0x9c
 3216 103c 44100000 		.4byte	0x1044
 3217 1040 5F100000 		.4byte	0x105f
 3218 1044 25       		.uleb128 0x25
 3219 1045 DE030000 		.4byte	.LASF206
 3220 1049 AF0C0000 		.4byte	0xcaf
 3221 104d 02       		.uleb128 0x2
 3222 104e 91       		.byte	0x91
 3223 104f 74       		.sleb128 -12
 3224 1050 26       		.uleb128 0x26
 3225 1051 DC000000 		.4byte	.LASF219
 3226 1055 01       		.byte	0x1
 3227 1056 9D       		.byte	0x9d
 3228 1057 590C0000 		.4byte	0xc59
 3229 105b 02       		.uleb128 0x2
ARM GAS  C:\Users\Luis\AppData\Local\Temp\ccjBqsxj.s 			page 58


 3230 105c 91       		.byte	0x91
 3231 105d 70       		.sleb128 -16
 3232 105e 00       		.byte	0
 3233 105f 2B       		.uleb128 0x2b
 3234 1060 110B0000 		.4byte	0xb11
 3235 1064 00000000 		.4byte	.LFB285
 3236 1068 18000000 		.4byte	.LFE285-.LFB285
 3237 106c 01       		.uleb128 0x1
 3238 106d 9C       		.byte	0x9c
 3239 106e 76100000 		.4byte	0x1076
 3240 1072 83100000 		.4byte	0x1083
 3241 1076 25       		.uleb128 0x25
 3242 1077 DE030000 		.4byte	.LASF206
 3243 107b C00D0000 		.4byte	0xdc0
 3244 107f 02       		.uleb128 0x2
 3245 1080 91       		.byte	0x91
 3246 1081 74       		.sleb128 -12
 3247 1082 00       		.byte	0
 3248 1083 2B       		.uleb128 0x2b
 3249 1084 2F0B0000 		.4byte	0xb2f
 3250 1088 00000000 		.4byte	.LFB286
 3251 108c 4C000000 		.4byte	.LFE286-.LFB286
 3252 1090 01       		.uleb128 0x1
 3253 1091 9C       		.byte	0x9c
 3254 1092 9A100000 		.4byte	0x109a
 3255 1096 B5100000 		.4byte	0x10b5
 3256 109a 25       		.uleb128 0x25
 3257 109b DE030000 		.4byte	.LASF206
 3258 109f AF0C0000 		.4byte	0xcaf
 3259 10a3 02       		.uleb128 0x2
 3260 10a4 91       		.byte	0x91
 3261 10a5 74       		.sleb128 -12
 3262 10a6 26       		.uleb128 0x26
 3263 10a7 260B0000 		.4byte	.LASF220
 3264 10ab 01       		.byte	0x1
 3265 10ac A5       		.byte	0xa5
 3266 10ad 590C0000 		.4byte	0xc59
 3267 10b1 02       		.uleb128 0x2
 3268 10b2 91       		.byte	0x91
 3269 10b3 70       		.sleb128 -16
 3270 10b4 00       		.byte	0
 3271 10b5 2B       		.uleb128 0x2b
 3272 10b6 4E0B0000 		.4byte	0xb4e
 3273 10ba 00000000 		.4byte	.LFB287
 3274 10be 18000000 		.4byte	.LFE287-.LFB287
 3275 10c2 01       		.uleb128 0x1
 3276 10c3 9C       		.byte	0x9c
 3277 10c4 CC100000 		.4byte	0x10cc
 3278 10c8 D9100000 		.4byte	0x10d9
 3279 10cc 25       		.uleb128 0x25
 3280 10cd DE030000 		.4byte	.LASF206
 3281 10d1 C00D0000 		.4byte	0xdc0
 3282 10d5 02       		.uleb128 0x2
 3283 10d6 91       		.byte	0x91
 3284 10d7 74       		.sleb128 -12
 3285 10d8 00       		.byte	0
 3286 10d9 2C       		.uleb128 0x2c
ARM GAS  C:\Users\Luis\AppData\Local\Temp\ccjBqsxj.s 			page 59


 3287 10da 8F010000 		.4byte	.LASF221
 3288 10de 0E       		.byte	0xe
 3289 10df A706     		.2byte	0x6a7
 3290 10e1 97000000 		.4byte	0x97
 3291 10e5 2D       		.uleb128 0x2d
 3292 10e6 636800   		.ascii	"ch\000"
 3293 10e9 05       		.byte	0x5
 3294 10ea 0902     		.2byte	0x209
 3295 10ec 6F040000 		.4byte	0x46f
 3296 10f0 00       		.byte	0
 3297              		.section	.debug_abbrev,"",%progbits
 3298              	.Ldebug_abbrev0:
 3299 0000 01       		.uleb128 0x1
 3300 0001 11       		.uleb128 0x11
 3301 0002 01       		.byte	0x1
 3302 0003 25       		.uleb128 0x25
 3303 0004 0E       		.uleb128 0xe
 3304 0005 13       		.uleb128 0x13
 3305 0006 0B       		.uleb128 0xb
 3306 0007 03       		.uleb128 0x3
 3307 0008 0E       		.uleb128 0xe
 3308 0009 1B       		.uleb128 0x1b
 3309 000a 0E       		.uleb128 0xe
 3310 000b 55       		.uleb128 0x55
 3311 000c 17       		.uleb128 0x17
 3312 000d 11       		.uleb128 0x11
 3313 000e 01       		.uleb128 0x1
 3314 000f 10       		.uleb128 0x10
 3315 0010 17       		.uleb128 0x17
 3316 0011 00       		.byte	0
 3317 0012 00       		.byte	0
 3318 0013 02       		.uleb128 0x2
 3319 0014 24       		.uleb128 0x24
 3320 0015 00       		.byte	0
 3321 0016 0B       		.uleb128 0xb
 3322 0017 0B       		.uleb128 0xb
 3323 0018 3E       		.uleb128 0x3e
 3324 0019 0B       		.uleb128 0xb
 3325 001a 03       		.uleb128 0x3
 3326 001b 08       		.uleb128 0x8
 3327 001c 00       		.byte	0
 3328 001d 00       		.byte	0
 3329 001e 03       		.uleb128 0x3
 3330 001f 24       		.uleb128 0x24
 3331 0020 00       		.byte	0
 3332 0021 0B       		.uleb128 0xb
 3333 0022 0B       		.uleb128 0xb
 3334 0023 3E       		.uleb128 0x3e
 3335 0024 0B       		.uleb128 0xb
 3336 0025 03       		.uleb128 0x3
 3337 0026 0E       		.uleb128 0xe
 3338 0027 00       		.byte	0
 3339 0028 00       		.byte	0
 3340 0029 04       		.uleb128 0x4
 3341 002a 16       		.uleb128 0x16
 3342 002b 00       		.byte	0
 3343 002c 03       		.uleb128 0x3
ARM GAS  C:\Users\Luis\AppData\Local\Temp\ccjBqsxj.s 			page 60


 3344 002d 0E       		.uleb128 0xe
 3345 002e 3A       		.uleb128 0x3a
 3346 002f 0B       		.uleb128 0xb
 3347 0030 3B       		.uleb128 0x3b
 3348 0031 0B       		.uleb128 0xb
 3349 0032 49       		.uleb128 0x49
 3350 0033 13       		.uleb128 0x13
 3351 0034 00       		.byte	0
 3352 0035 00       		.byte	0
 3353 0036 05       		.uleb128 0x5
 3354 0037 35       		.uleb128 0x35
 3355 0038 00       		.byte	0
 3356 0039 49       		.uleb128 0x49
 3357 003a 13       		.uleb128 0x13
 3358 003b 00       		.byte	0
 3359 003c 00       		.byte	0
 3360 003d 06       		.uleb128 0x6
 3361 003e 13       		.uleb128 0x13
 3362 003f 01       		.byte	0x1
 3363 0040 03       		.uleb128 0x3
 3364 0041 0E       		.uleb128 0xe
 3365 0042 0B       		.uleb128 0xb
 3366 0043 0B       		.uleb128 0xb
 3367 0044 3A       		.uleb128 0x3a
 3368 0045 0B       		.uleb128 0xb
 3369 0046 3B       		.uleb128 0x3b
 3370 0047 0B       		.uleb128 0xb
 3371 0048 01       		.uleb128 0x1
 3372 0049 13       		.uleb128 0x13
 3373 004a 00       		.byte	0
 3374 004b 00       		.byte	0
 3375 004c 07       		.uleb128 0x7
 3376 004d 17       		.uleb128 0x17
 3377 004e 01       		.byte	0x1
 3378 004f 0B       		.uleb128 0xb
 3379 0050 0B       		.uleb128 0xb
 3380 0051 3A       		.uleb128 0x3a
 3381 0052 0B       		.uleb128 0xb
 3382 0053 3B       		.uleb128 0x3b
 3383 0054 0B       		.uleb128 0xb
 3384 0055 01       		.uleb128 0x1
 3385 0056 13       		.uleb128 0x13
 3386 0057 00       		.byte	0
 3387 0058 00       		.byte	0
 3388 0059 08       		.uleb128 0x8
 3389 005a 0D       		.uleb128 0xd
 3390 005b 00       		.byte	0
 3391 005c 03       		.uleb128 0x3
 3392 005d 0E       		.uleb128 0xe
 3393 005e 3A       		.uleb128 0x3a
 3394 005f 0B       		.uleb128 0xb
 3395 0060 3B       		.uleb128 0x3b
 3396 0061 05       		.uleb128 0x5
 3397 0062 49       		.uleb128 0x49
 3398 0063 13       		.uleb128 0x13
 3399 0064 00       		.byte	0
 3400 0065 00       		.byte	0
ARM GAS  C:\Users\Luis\AppData\Local\Temp\ccjBqsxj.s 			page 61


 3401 0066 09       		.uleb128 0x9
 3402 0067 0D       		.uleb128 0xd
 3403 0068 00       		.byte	0
 3404 0069 03       		.uleb128 0x3
 3405 006a 0E       		.uleb128 0xe
 3406 006b 3A       		.uleb128 0x3a
 3407 006c 0B       		.uleb128 0xb
 3408 006d 3B       		.uleb128 0x3b
 3409 006e 0B       		.uleb128 0xb
 3410 006f 49       		.uleb128 0x49
 3411 0070 13       		.uleb128 0x13
 3412 0071 38       		.uleb128 0x38
 3413 0072 0B       		.uleb128 0xb
 3414 0073 00       		.byte	0
 3415 0074 00       		.byte	0
 3416 0075 0A       		.uleb128 0xa
 3417 0076 0D       		.uleb128 0xd
 3418 0077 00       		.byte	0
 3419 0078 03       		.uleb128 0x3
 3420 0079 08       		.uleb128 0x8
 3421 007a 3A       		.uleb128 0x3a
 3422 007b 0B       		.uleb128 0xb
 3423 007c 3B       		.uleb128 0x3b
 3424 007d 05       		.uleb128 0x5
 3425 007e 49       		.uleb128 0x49
 3426 007f 13       		.uleb128 0x13
 3427 0080 38       		.uleb128 0x38
 3428 0081 0B       		.uleb128 0xb
 3429 0082 00       		.byte	0
 3430 0083 00       		.byte	0
 3431 0084 0B       		.uleb128 0xb
 3432 0085 0D       		.uleb128 0xd
 3433 0086 00       		.byte	0
 3434 0087 03       		.uleb128 0x3
 3435 0088 0E       		.uleb128 0xe
 3436 0089 3A       		.uleb128 0x3a
 3437 008a 0B       		.uleb128 0xb
 3438 008b 3B       		.uleb128 0x3b
 3439 008c 05       		.uleb128 0x5
 3440 008d 49       		.uleb128 0x49
 3441 008e 13       		.uleb128 0x13
 3442 008f 38       		.uleb128 0x38
 3443 0090 0B       		.uleb128 0xb
 3444 0091 00       		.byte	0
 3445 0092 00       		.byte	0
 3446 0093 0C       		.uleb128 0xc
 3447 0094 0F       		.uleb128 0xf
 3448 0095 00       		.byte	0
 3449 0096 0B       		.uleb128 0xb
 3450 0097 0B       		.uleb128 0xb
 3451 0098 49       		.uleb128 0x49
 3452 0099 13       		.uleb128 0x13
 3453 009a 00       		.byte	0
 3454 009b 00       		.byte	0
 3455 009c 0D       		.uleb128 0xd
 3456 009d 13       		.uleb128 0x13
 3457 009e 01       		.byte	0x1
ARM GAS  C:\Users\Luis\AppData\Local\Temp\ccjBqsxj.s 			page 62


 3458 009f 03       		.uleb128 0x3
 3459 00a0 0E       		.uleb128 0xe
 3460 00a1 0B       		.uleb128 0xb
 3461 00a2 0B       		.uleb128 0xb
 3462 00a3 3A       		.uleb128 0x3a
 3463 00a4 0B       		.uleb128 0xb
 3464 00a5 3B       		.uleb128 0x3b
 3465 00a6 05       		.uleb128 0x5
 3466 00a7 01       		.uleb128 0x1
 3467 00a8 13       		.uleb128 0x13
 3468 00a9 00       		.byte	0
 3469 00aa 00       		.byte	0
 3470 00ab 0E       		.uleb128 0xe
 3471 00ac 15       		.uleb128 0x15
 3472 00ad 01       		.byte	0x1
 3473 00ae 01       		.uleb128 0x1
 3474 00af 13       		.uleb128 0x13
 3475 00b0 00       		.byte	0
 3476 00b1 00       		.byte	0
 3477 00b2 0F       		.uleb128 0xf
 3478 00b3 05       		.uleb128 0x5
 3479 00b4 00       		.byte	0
 3480 00b5 49       		.uleb128 0x49
 3481 00b6 13       		.uleb128 0x13
 3482 00b7 00       		.byte	0
 3483 00b8 00       		.byte	0
 3484 00b9 10       		.uleb128 0x10
 3485 00ba 0F       		.uleb128 0xf
 3486 00bb 00       		.byte	0
 3487 00bc 0B       		.uleb128 0xb
 3488 00bd 0B       		.uleb128 0xb
 3489 00be 00       		.byte	0
 3490 00bf 00       		.byte	0
 3491 00c0 11       		.uleb128 0x11
 3492 00c1 13       		.uleb128 0x13
 3493 00c2 01       		.byte	0x1
 3494 00c3 03       		.uleb128 0x3
 3495 00c4 0E       		.uleb128 0xe
 3496 00c5 0B       		.uleb128 0xb
 3497 00c6 05       		.uleb128 0x5
 3498 00c7 3A       		.uleb128 0x3a
 3499 00c8 0B       		.uleb128 0xb
 3500 00c9 3B       		.uleb128 0x3b
 3501 00ca 05       		.uleb128 0x5
 3502 00cb 01       		.uleb128 0x1
 3503 00cc 13       		.uleb128 0x13
 3504 00cd 00       		.byte	0
 3505 00ce 00       		.byte	0
 3506 00cf 12       		.uleb128 0x12
 3507 00d0 0D       		.uleb128 0xd
 3508 00d1 00       		.byte	0
 3509 00d2 03       		.uleb128 0x3
 3510 00d3 0E       		.uleb128 0xe
 3511 00d4 3A       		.uleb128 0x3a
 3512 00d5 0B       		.uleb128 0xb
 3513 00d6 3B       		.uleb128 0x3b
 3514 00d7 05       		.uleb128 0x5
ARM GAS  C:\Users\Luis\AppData\Local\Temp\ccjBqsxj.s 			page 63


 3515 00d8 49       		.uleb128 0x49
 3516 00d9 13       		.uleb128 0x13
 3517 00da 38       		.uleb128 0x38
 3518 00db 05       		.uleb128 0x5
 3519 00dc 00       		.byte	0
 3520 00dd 00       		.byte	0
 3521 00de 13       		.uleb128 0x13
 3522 00df 0D       		.uleb128 0xd
 3523 00e0 00       		.byte	0
 3524 00e1 03       		.uleb128 0x3
 3525 00e2 08       		.uleb128 0x8
 3526 00e3 3A       		.uleb128 0x3a
 3527 00e4 0B       		.uleb128 0xb
 3528 00e5 3B       		.uleb128 0x3b
 3529 00e6 05       		.uleb128 0x5
 3530 00e7 49       		.uleb128 0x49
 3531 00e8 13       		.uleb128 0x13
 3532 00e9 38       		.uleb128 0x38
 3533 00ea 05       		.uleb128 0x5
 3534 00eb 00       		.byte	0
 3535 00ec 00       		.byte	0
 3536 00ed 14       		.uleb128 0x14
 3537 00ee 0D       		.uleb128 0xd
 3538 00ef 00       		.byte	0
 3539 00f0 03       		.uleb128 0x3
 3540 00f1 08       		.uleb128 0x8
 3541 00f2 3A       		.uleb128 0x3a
 3542 00f3 0B       		.uleb128 0xb
 3543 00f4 3B       		.uleb128 0x3b
 3544 00f5 0B       		.uleb128 0xb
 3545 00f6 49       		.uleb128 0x49
 3546 00f7 13       		.uleb128 0x13
 3547 00f8 38       		.uleb128 0x38
 3548 00f9 0B       		.uleb128 0xb
 3549 00fa 00       		.byte	0
 3550 00fb 00       		.byte	0
 3551 00fc 15       		.uleb128 0x15
 3552 00fd 13       		.uleb128 0x13
 3553 00fe 01       		.byte	0x1
 3554 00ff 0B       		.uleb128 0xb
 3555 0100 0B       		.uleb128 0xb
 3556 0101 3A       		.uleb128 0x3a
 3557 0102 0B       		.uleb128 0xb
 3558 0103 3B       		.uleb128 0x3b
 3559 0104 0B       		.uleb128 0xb
 3560 0105 6E       		.uleb128 0x6e
 3561 0106 0E       		.uleb128 0xe
 3562 0107 01       		.uleb128 0x1
 3563 0108 13       		.uleb128 0x13
 3564 0109 00       		.byte	0
 3565 010a 00       		.byte	0
 3566 010b 16       		.uleb128 0x16
 3567 010c 13       		.uleb128 0x13
 3568 010d 01       		.byte	0x1
 3569 010e 0B       		.uleb128 0xb
 3570 010f 05       		.uleb128 0x5
 3571 0110 3A       		.uleb128 0x3a
ARM GAS  C:\Users\Luis\AppData\Local\Temp\ccjBqsxj.s 			page 64


 3572 0111 0B       		.uleb128 0xb
 3573 0112 3B       		.uleb128 0x3b
 3574 0113 0B       		.uleb128 0xb
 3575 0114 6E       		.uleb128 0x6e
 3576 0115 0E       		.uleb128 0xe
 3577 0116 01       		.uleb128 0x1
 3578 0117 13       		.uleb128 0x13
 3579 0118 00       		.byte	0
 3580 0119 00       		.byte	0
 3581 011a 17       		.uleb128 0x17
 3582 011b 01       		.uleb128 0x1
 3583 011c 01       		.byte	0x1
 3584 011d 49       		.uleb128 0x49
 3585 011e 13       		.uleb128 0x13
 3586 011f 01       		.uleb128 0x1
 3587 0120 13       		.uleb128 0x13
 3588 0121 00       		.byte	0
 3589 0122 00       		.byte	0
 3590 0123 18       		.uleb128 0x18
 3591 0124 21       		.uleb128 0x21
 3592 0125 00       		.byte	0
 3593 0126 49       		.uleb128 0x49
 3594 0127 13       		.uleb128 0x13
 3595 0128 2F       		.uleb128 0x2f
 3596 0129 0B       		.uleb128 0xb
 3597 012a 00       		.byte	0
 3598 012b 00       		.byte	0
 3599 012c 19       		.uleb128 0x19
 3600 012d 26       		.uleb128 0x26
 3601 012e 00       		.byte	0
 3602 012f 49       		.uleb128 0x49
 3603 0130 13       		.uleb128 0x13
 3604 0131 00       		.byte	0
 3605 0132 00       		.byte	0
 3606 0133 1A       		.uleb128 0x1a
 3607 0134 02       		.uleb128 0x2
 3608 0135 01       		.byte	0x1
 3609 0136 03       		.uleb128 0x3
 3610 0137 0E       		.uleb128 0xe
 3611 0138 0B       		.uleb128 0xb
 3612 0139 0B       		.uleb128 0xb
 3613 013a 3A       		.uleb128 0x3a
 3614 013b 0B       		.uleb128 0xb
 3615 013c 3B       		.uleb128 0x3b
 3616 013d 0B       		.uleb128 0xb
 3617 013e 1D       		.uleb128 0x1d
 3618 013f 13       		.uleb128 0x13
 3619 0140 01       		.uleb128 0x1
 3620 0141 13       		.uleb128 0x13
 3621 0142 00       		.byte	0
 3622 0143 00       		.byte	0
 3623 0144 1B       		.uleb128 0x1b
 3624 0145 0D       		.uleb128 0xd
 3625 0146 00       		.byte	0
 3626 0147 03       		.uleb128 0x3
 3627 0148 0E       		.uleb128 0xe
 3628 0149 49       		.uleb128 0x49
ARM GAS  C:\Users\Luis\AppData\Local\Temp\ccjBqsxj.s 			page 65


 3629 014a 13       		.uleb128 0x13
 3630 014b 38       		.uleb128 0x38
 3631 014c 0B       		.uleb128 0xb
 3632 014d 34       		.uleb128 0x34
 3633 014e 19       		.uleb128 0x19
 3634 014f 32       		.uleb128 0x32
 3635 0150 0B       		.uleb128 0xb
 3636 0151 00       		.byte	0
 3637 0152 00       		.byte	0
 3638 0153 1C       		.uleb128 0x1c
 3639 0154 2E       		.uleb128 0x2e
 3640 0155 01       		.byte	0x1
 3641 0156 3F       		.uleb128 0x3f
 3642 0157 19       		.uleb128 0x19
 3643 0158 03       		.uleb128 0x3
 3644 0159 0E       		.uleb128 0xe
 3645 015a 3A       		.uleb128 0x3a
 3646 015b 0B       		.uleb128 0xb
 3647 015c 3B       		.uleb128 0x3b
 3648 015d 0B       		.uleb128 0xb
 3649 015e 6E       		.uleb128 0x6e
 3650 015f 0E       		.uleb128 0xe
 3651 0160 32       		.uleb128 0x32
 3652 0161 0B       		.uleb128 0xb
 3653 0162 3C       		.uleb128 0x3c
 3654 0163 19       		.uleb128 0x19
 3655 0164 64       		.uleb128 0x64
 3656 0165 13       		.uleb128 0x13
 3657 0166 01       		.uleb128 0x1
 3658 0167 13       		.uleb128 0x13
 3659 0168 00       		.byte	0
 3660 0169 00       		.byte	0
 3661 016a 1D       		.uleb128 0x1d
 3662 016b 05       		.uleb128 0x5
 3663 016c 00       		.byte	0
 3664 016d 49       		.uleb128 0x49
 3665 016e 13       		.uleb128 0x13
 3666 016f 34       		.uleb128 0x34
 3667 0170 19       		.uleb128 0x19
 3668 0171 00       		.byte	0
 3669 0172 00       		.byte	0
 3670 0173 1E       		.uleb128 0x1e
 3671 0174 2E       		.uleb128 0x2e
 3672 0175 01       		.byte	0x1
 3673 0176 3F       		.uleb128 0x3f
 3674 0177 19       		.uleb128 0x19
 3675 0178 03       		.uleb128 0x3
 3676 0179 0E       		.uleb128 0xe
 3677 017a 3A       		.uleb128 0x3a
 3678 017b 0B       		.uleb128 0xb
 3679 017c 3B       		.uleb128 0x3b
 3680 017d 0B       		.uleb128 0xb
 3681 017e 49       		.uleb128 0x49
 3682 017f 13       		.uleb128 0x13
 3683 0180 4C       		.uleb128 0x4c
 3684 0181 0B       		.uleb128 0xb
 3685 0182 1D       		.uleb128 0x1d
ARM GAS  C:\Users\Luis\AppData\Local\Temp\ccjBqsxj.s 			page 66


 3686 0183 13       		.uleb128 0x13
 3687 0184 32       		.uleb128 0x32
 3688 0185 0B       		.uleb128 0xb
 3689 0186 3C       		.uleb128 0x3c
 3690 0187 19       		.uleb128 0x19
 3691 0188 64       		.uleb128 0x64
 3692 0189 13       		.uleb128 0x13
 3693 018a 01       		.uleb128 0x1
 3694 018b 13       		.uleb128 0x13
 3695 018c 00       		.byte	0
 3696 018d 00       		.byte	0
 3697 018e 1F       		.uleb128 0x1f
 3698 018f 2E       		.uleb128 0x2e
 3699 0190 01       		.byte	0x1
 3700 0191 3F       		.uleb128 0x3f
 3701 0192 19       		.uleb128 0x19
 3702 0193 03       		.uleb128 0x3
 3703 0194 0E       		.uleb128 0xe
 3704 0195 3A       		.uleb128 0x3a
 3705 0196 0B       		.uleb128 0xb
 3706 0197 3B       		.uleb128 0x3b
 3707 0198 0B       		.uleb128 0xb
 3708 0199 6E       		.uleb128 0x6e
 3709 019a 0E       		.uleb128 0xe
 3710 019b 49       		.uleb128 0x49
 3711 019c 13       		.uleb128 0x13
 3712 019d 32       		.uleb128 0x32
 3713 019e 0B       		.uleb128 0xb
 3714 019f 3C       		.uleb128 0x3c
 3715 01a0 19       		.uleb128 0x19
 3716 01a1 64       		.uleb128 0x64
 3717 01a2 13       		.uleb128 0x13
 3718 01a3 01       		.uleb128 0x1
 3719 01a4 13       		.uleb128 0x13
 3720 01a5 00       		.byte	0
 3721 01a6 00       		.byte	0
 3722 01a7 20       		.uleb128 0x20
 3723 01a8 2E       		.uleb128 0x2e
 3724 01a9 01       		.byte	0x1
 3725 01aa 3F       		.uleb128 0x3f
 3726 01ab 19       		.uleb128 0x19
 3727 01ac 03       		.uleb128 0x3
 3728 01ad 0E       		.uleb128 0xe
 3729 01ae 3A       		.uleb128 0x3a
 3730 01af 0B       		.uleb128 0xb
 3731 01b0 3B       		.uleb128 0x3b
 3732 01b1 0B       		.uleb128 0xb
 3733 01b2 6E       		.uleb128 0x6e
 3734 01b3 0E       		.uleb128 0xe
 3735 01b4 3C       		.uleb128 0x3c
 3736 01b5 19       		.uleb128 0x19
 3737 01b6 64       		.uleb128 0x64
 3738 01b7 13       		.uleb128 0x13
 3739 01b8 00       		.byte	0
 3740 01b9 00       		.byte	0
 3741 01ba 21       		.uleb128 0x21
 3742 01bb 15       		.uleb128 0x15
ARM GAS  C:\Users\Luis\AppData\Local\Temp\ccjBqsxj.s 			page 67


 3743 01bc 01       		.byte	0x1
 3744 01bd 49       		.uleb128 0x49
 3745 01be 13       		.uleb128 0x13
 3746 01bf 01       		.uleb128 0x1
 3747 01c0 13       		.uleb128 0x13
 3748 01c1 00       		.byte	0
 3749 01c2 00       		.byte	0
 3750 01c3 22       		.uleb128 0x22
 3751 01c4 18       		.uleb128 0x18
 3752 01c5 00       		.byte	0
 3753 01c6 00       		.byte	0
 3754 01c7 00       		.byte	0
 3755 01c8 23       		.uleb128 0x23
 3756 01c9 0F       		.uleb128 0xf
 3757 01ca 00       		.byte	0
 3758 01cb 0B       		.uleb128 0xb
 3759 01cc 0B       		.uleb128 0xb
 3760 01cd 03       		.uleb128 0x3
 3761 01ce 0E       		.uleb128 0xe
 3762 01cf 49       		.uleb128 0x49
 3763 01d0 13       		.uleb128 0x13
 3764 01d1 00       		.byte	0
 3765 01d2 00       		.byte	0
 3766 01d3 24       		.uleb128 0x24
 3767 01d4 2E       		.uleb128 0x2e
 3768 01d5 01       		.byte	0x1
 3769 01d6 47       		.uleb128 0x47
 3770 01d7 13       		.uleb128 0x13
 3771 01d8 11       		.uleb128 0x11
 3772 01d9 01       		.uleb128 0x1
 3773 01da 12       		.uleb128 0x12
 3774 01db 06       		.uleb128 0x6
 3775 01dc 40       		.uleb128 0x40
 3776 01dd 18       		.uleb128 0x18
 3777 01de 64       		.uleb128 0x64
 3778 01df 13       		.uleb128 0x13
 3779 01e0 9642     		.uleb128 0x2116
 3780 01e2 19       		.uleb128 0x19
 3781 01e3 01       		.uleb128 0x1
 3782 01e4 13       		.uleb128 0x13
 3783 01e5 00       		.byte	0
 3784 01e6 00       		.byte	0
 3785 01e7 25       		.uleb128 0x25
 3786 01e8 05       		.uleb128 0x5
 3787 01e9 00       		.byte	0
 3788 01ea 03       		.uleb128 0x3
 3789 01eb 0E       		.uleb128 0xe
 3790 01ec 49       		.uleb128 0x49
 3791 01ed 13       		.uleb128 0x13
 3792 01ee 34       		.uleb128 0x34
 3793 01ef 19       		.uleb128 0x19
 3794 01f0 02       		.uleb128 0x2
 3795 01f1 18       		.uleb128 0x18
 3796 01f2 00       		.byte	0
 3797 01f3 00       		.byte	0
 3798 01f4 26       		.uleb128 0x26
 3799 01f5 05       		.uleb128 0x5
ARM GAS  C:\Users\Luis\AppData\Local\Temp\ccjBqsxj.s 			page 68


 3800 01f6 00       		.byte	0
 3801 01f7 03       		.uleb128 0x3
 3802 01f8 0E       		.uleb128 0xe
 3803 01f9 3A       		.uleb128 0x3a
 3804 01fa 0B       		.uleb128 0xb
 3805 01fb 3B       		.uleb128 0x3b
 3806 01fc 0B       		.uleb128 0xb
 3807 01fd 49       		.uleb128 0x49
 3808 01fe 13       		.uleb128 0x13
 3809 01ff 02       		.uleb128 0x2
 3810 0200 18       		.uleb128 0x18
 3811 0201 00       		.byte	0
 3812 0202 00       		.byte	0
 3813 0203 27       		.uleb128 0x27
 3814 0204 2E       		.uleb128 0x2e
 3815 0205 01       		.byte	0x1
 3816 0206 47       		.uleb128 0x47
 3817 0207 13       		.uleb128 0x13
 3818 0208 20       		.uleb128 0x20
 3819 0209 0B       		.uleb128 0xb
 3820 020a 64       		.uleb128 0x64
 3821 020b 13       		.uleb128 0x13
 3822 020c 01       		.uleb128 0x1
 3823 020d 13       		.uleb128 0x13
 3824 020e 00       		.byte	0
 3825 020f 00       		.byte	0
 3826 0210 28       		.uleb128 0x28
 3827 0211 05       		.uleb128 0x5
 3828 0212 00       		.byte	0
 3829 0213 03       		.uleb128 0x3
 3830 0214 0E       		.uleb128 0xe
 3831 0215 49       		.uleb128 0x49
 3832 0216 13       		.uleb128 0x13
 3833 0217 34       		.uleb128 0x34
 3834 0218 19       		.uleb128 0x19
 3835 0219 00       		.byte	0
 3836 021a 00       		.byte	0
 3837 021b 29       		.uleb128 0x29
 3838 021c 2E       		.uleb128 0x2e
 3839 021d 01       		.byte	0x1
 3840 021e 31       		.uleb128 0x31
 3841 021f 13       		.uleb128 0x13
 3842 0220 6E       		.uleb128 0x6e
 3843 0221 0E       		.uleb128 0xe
 3844 0222 11       		.uleb128 0x11
 3845 0223 01       		.uleb128 0x1
 3846 0224 12       		.uleb128 0x12
 3847 0225 06       		.uleb128 0x6
 3848 0226 40       		.uleb128 0x40
 3849 0227 18       		.uleb128 0x18
 3850 0228 64       		.uleb128 0x64
 3851 0229 13       		.uleb128 0x13
 3852 022a 9642     		.uleb128 0x2116
 3853 022c 19       		.uleb128 0x19
 3854 022d 01       		.uleb128 0x1
 3855 022e 13       		.uleb128 0x13
 3856 022f 00       		.byte	0
ARM GAS  C:\Users\Luis\AppData\Local\Temp\ccjBqsxj.s 			page 69


 3857 0230 00       		.byte	0
 3858 0231 2A       		.uleb128 0x2a
 3859 0232 05       		.uleb128 0x5
 3860 0233 00       		.byte	0
 3861 0234 31       		.uleb128 0x31
 3862 0235 13       		.uleb128 0x13
 3863 0236 02       		.uleb128 0x2
 3864 0237 18       		.uleb128 0x18
 3865 0238 00       		.byte	0
 3866 0239 00       		.byte	0
 3867 023a 2B       		.uleb128 0x2b
 3868 023b 2E       		.uleb128 0x2e
 3869 023c 01       		.byte	0x1
 3870 023d 47       		.uleb128 0x47
 3871 023e 13       		.uleb128 0x13
 3872 023f 11       		.uleb128 0x11
 3873 0240 01       		.uleb128 0x1
 3874 0241 12       		.uleb128 0x12
 3875 0242 06       		.uleb128 0x6
 3876 0243 40       		.uleb128 0x40
 3877 0244 18       		.uleb128 0x18
 3878 0245 64       		.uleb128 0x64
 3879 0246 13       		.uleb128 0x13
 3880 0247 9742     		.uleb128 0x2117
 3881 0249 19       		.uleb128 0x19
 3882 024a 01       		.uleb128 0x1
 3883 024b 13       		.uleb128 0x13
 3884 024c 00       		.byte	0
 3885 024d 00       		.byte	0
 3886 024e 2C       		.uleb128 0x2c
 3887 024f 34       		.uleb128 0x34
 3888 0250 00       		.byte	0
 3889 0251 03       		.uleb128 0x3
 3890 0252 0E       		.uleb128 0xe
 3891 0253 3A       		.uleb128 0x3a
 3892 0254 0B       		.uleb128 0xb
 3893 0255 3B       		.uleb128 0x3b
 3894 0256 05       		.uleb128 0x5
 3895 0257 49       		.uleb128 0x49
 3896 0258 13       		.uleb128 0x13
 3897 0259 3F       		.uleb128 0x3f
 3898 025a 19       		.uleb128 0x19
 3899 025b 3C       		.uleb128 0x3c
 3900 025c 19       		.uleb128 0x19
 3901 025d 00       		.byte	0
 3902 025e 00       		.byte	0
 3903 025f 2D       		.uleb128 0x2d
 3904 0260 34       		.uleb128 0x34
 3905 0261 00       		.byte	0
 3906 0262 03       		.uleb128 0x3
 3907 0263 08       		.uleb128 0x8
 3908 0264 3A       		.uleb128 0x3a
 3909 0265 0B       		.uleb128 0xb
 3910 0266 3B       		.uleb128 0x3b
 3911 0267 05       		.uleb128 0x5
 3912 0268 49       		.uleb128 0x49
 3913 0269 13       		.uleb128 0x13
ARM GAS  C:\Users\Luis\AppData\Local\Temp\ccjBqsxj.s 			page 70


 3914 026a 3F       		.uleb128 0x3f
 3915 026b 19       		.uleb128 0x19
 3916 026c 3C       		.uleb128 0x3c
 3917 026d 19       		.uleb128 0x19
 3918 026e 00       		.byte	0
 3919 026f 00       		.byte	0
 3920 0270 00       		.byte	0
 3921              		.section	.debug_aranges,"",%progbits
 3922 0000 DC000000 		.4byte	0xdc
 3923 0004 0200     		.2byte	0x2
 3924 0006 00000000 		.4byte	.Ldebug_info0
 3925 000a 04       		.byte	0x4
 3926 000b 00       		.byte	0
 3927 000c 0000     		.2byte	0
 3928 000e 0000     		.2byte	0
 3929 0010 00000000 		.4byte	.LFB261
 3930 0014 88000000 		.4byte	.LFE261-.LFB261
 3931 0018 00000000 		.4byte	.LFB263
 3932 001c 64000000 		.4byte	.LFE263-.LFB263
 3933 0020 00000000 		.4byte	.LFB265
 3934 0024 1E000000 		.4byte	.LFE265-.LFB265
 3935 0028 00000000 		.4byte	.LFB266
 3936 002c 88000000 		.4byte	.LFE266-.LFB266
 3937 0030 00000000 		.4byte	.LFB267
 3938 0034 4C000000 		.4byte	.LFE267-.LFB267
 3939 0038 00000000 		.4byte	.LFB268
 3940 003c 4C000000 		.4byte	.LFE268-.LFB268
 3941 0040 00000000 		.4byte	.LFB269
 3942 0044 18000000 		.4byte	.LFE269-.LFB269
 3943 0048 00000000 		.4byte	.LFB270
 3944 004c 1A000000 		.4byte	.LFE270-.LFB270
 3945 0050 00000000 		.4byte	.LFB271
 3946 0054 18000000 		.4byte	.LFE271-.LFB271
 3947 0058 00000000 		.4byte	.LFB272
 3948 005c 1A000000 		.4byte	.LFE272-.LFB272
 3949 0060 00000000 		.4byte	.LFB273
 3950 0064 36000000 		.4byte	.LFE273-.LFB273
 3951 0068 00000000 		.4byte	.LFB274
 3952 006c 18000000 		.4byte	.LFE274-.LFB274
 3953 0070 00000000 		.4byte	.LFB275
 3954 0074 4E000000 		.4byte	.LFE275-.LFB275
 3955 0078 00000000 		.4byte	.LFB276
 3956 007c 4C000000 		.4byte	.LFE276-.LFB276
 3957 0080 00000000 		.4byte	.LFB277
 3958 0084 18000000 		.4byte	.LFE277-.LFB277
 3959 0088 00000000 		.4byte	.LFB278
 3960 008c 48000000 		.4byte	.LFE278-.LFB278
 3961 0090 00000000 		.4byte	.LFB279
 3962 0094 18000000 		.4byte	.LFE279-.LFB279
 3963 0098 00000000 		.4byte	.LFB280
 3964 009c 4C000000 		.4byte	.LFE280-.LFB280
 3965 00a0 00000000 		.4byte	.LFB281
 3966 00a4 18000000 		.4byte	.LFE281-.LFB281
 3967 00a8 00000000 		.4byte	.LFB282
 3968 00ac 1A000000 		.4byte	.LFE282-.LFB282
 3969 00b0 00000000 		.4byte	.LFB283
 3970 00b4 18000000 		.4byte	.LFE283-.LFB283
ARM GAS  C:\Users\Luis\AppData\Local\Temp\ccjBqsxj.s 			page 71


 3971 00b8 00000000 		.4byte	.LFB284
 3972 00bc 1A000000 		.4byte	.LFE284-.LFB284
 3973 00c0 00000000 		.4byte	.LFB285
 3974 00c4 18000000 		.4byte	.LFE285-.LFB285
 3975 00c8 00000000 		.4byte	.LFB286
 3976 00cc 4C000000 		.4byte	.LFE286-.LFB286
 3977 00d0 00000000 		.4byte	.LFB287
 3978 00d4 18000000 		.4byte	.LFE287-.LFB287
 3979 00d8 00000000 		.4byte	0
 3980 00dc 00000000 		.4byte	0
 3981              		.section	.debug_ranges,"",%progbits
 3982              	.Ldebug_ranges0:
 3983 0000 00000000 		.4byte	.LFB261
 3984 0004 88000000 		.4byte	.LFE261
 3985 0008 00000000 		.4byte	.LFB263
 3986 000c 64000000 		.4byte	.LFE263
 3987 0010 00000000 		.4byte	.LFB265
 3988 0014 1E000000 		.4byte	.LFE265
 3989 0018 00000000 		.4byte	.LFB266
 3990 001c 88000000 		.4byte	.LFE266
 3991 0020 00000000 		.4byte	.LFB267
 3992 0024 4C000000 		.4byte	.LFE267
 3993 0028 00000000 		.4byte	.LFB268
 3994 002c 4C000000 		.4byte	.LFE268
 3995 0030 00000000 		.4byte	.LFB269
 3996 0034 18000000 		.4byte	.LFE269
 3997 0038 00000000 		.4byte	.LFB270
 3998 003c 1A000000 		.4byte	.LFE270
 3999 0040 00000000 		.4byte	.LFB271
 4000 0044 18000000 		.4byte	.LFE271
 4001 0048 00000000 		.4byte	.LFB272
 4002 004c 1A000000 		.4byte	.LFE272
 4003 0050 00000000 		.4byte	.LFB273
 4004 0054 36000000 		.4byte	.LFE273
 4005 0058 00000000 		.4byte	.LFB274
 4006 005c 18000000 		.4byte	.LFE274
 4007 0060 00000000 		.4byte	.LFB275
 4008 0064 4E000000 		.4byte	.LFE275
 4009 0068 00000000 		.4byte	.LFB276
 4010 006c 4C000000 		.4byte	.LFE276
 4011 0070 00000000 		.4byte	.LFB277
 4012 0074 18000000 		.4byte	.LFE277
 4013 0078 00000000 		.4byte	.LFB278
 4014 007c 48000000 		.4byte	.LFE278
 4015 0080 00000000 		.4byte	.LFB279
 4016 0084 18000000 		.4byte	.LFE279
 4017 0088 00000000 		.4byte	.LFB280
 4018 008c 4C000000 		.4byte	.LFE280
 4019 0090 00000000 		.4byte	.LFB281
 4020 0094 18000000 		.4byte	.LFE281
 4021 0098 00000000 		.4byte	.LFB282
 4022 009c 1A000000 		.4byte	.LFE282
 4023 00a0 00000000 		.4byte	.LFB283
 4024 00a4 18000000 		.4byte	.LFE283
 4025 00a8 00000000 		.4byte	.LFB284
 4026 00ac 1A000000 		.4byte	.LFE284
 4027 00b0 00000000 		.4byte	.LFB285
ARM GAS  C:\Users\Luis\AppData\Local\Temp\ccjBqsxj.s 			page 72


 4028 00b4 18000000 		.4byte	.LFE285
 4029 00b8 00000000 		.4byte	.LFB286
 4030 00bc 4C000000 		.4byte	.LFE286
 4031 00c0 00000000 		.4byte	.LFB287
 4032 00c4 18000000 		.4byte	.LFE287
 4033 00c8 00000000 		.4byte	0
 4034 00cc 00000000 		.4byte	0
 4035              		.section	.debug_line,"",%progbits
 4036              	.Ldebug_line0:
 4037 0000 01040000 		.section	.debug_str,"MS",%progbits,1
 4037      02008C01 
 4037      00000201 
 4037      FB0E0D00 
 4037      01010101 
 4038              	.LASF151:
 4039 0000 6D6F7665 		.ascii	"moveArray\000"
 4039      41727261 
 4039      7900
 4040              	.LASF14:
 4041 000a 72747469 		.ascii	"rttime_t\000"
 4041      6D655F74 
 4041      00
 4042              	.LASF152:
 4043 0013 5F5A4E31 		.ascii	"_ZN10DataFilter9moveArrayEPf\000"
 4043      30446174 
 4043      6146696C 
 4043      74657239 
 4043      6D6F7665 
 4044              	.LASF58:
 4045 0030 72656164 		.ascii	"ready_list_t\000"
 4045      795F6C69 
 4045      73745F74 
 4045      00
 4046              	.LASF95:
 4047 003d 73655F74 		.ascii	"se_time\000"
 4047      696D6500 
 4048              	.LASF207:
 4049 0045 5F5F696E 		.ascii	"__in_chrg\000"
 4049      5F636872 
 4049      6700
 4050              	.LASF28:
 4051 004f 77747472 		.ascii	"wttrp\000"
 4051      7000
 4052              	.LASF148:
 4053 0055 5F5A4E31 		.ascii	"_ZN10DataFilter19createArrayInputIIREv\000"
 4053      30446174 
 4053      6146696C 
 4053      74657231 
 4053      39637265 
 4054              	.LASF25:
 4055 007c 7264796D 		.ascii	"rdymsg\000"
 4055      736700
 4056              	.LASF11:
 4057 0083 75696E74 		.ascii	"uint64_t\000"
 4057      36345F74 
 4057      00
 4058              	.LASF88:
ARM GAS  C:\Users\Luis\AppData\Local\Temp\ccjBqsxj.s 			page 73


 4059 008c 6B65726E 		.ascii	"kernel_stats\000"
 4059      656C5F73 
 4059      74617473 
 4059      00
 4060              	.LASF193:
 4061 0099 67657442 		.ascii	"getBuffer1\000"
 4061      75666665 
 4061      723100
 4062              	.LASF94:
 4063 00a4 706F7274 		.ascii	"port_intctx\000"
 4063      5F696E74 
 4063      63747800 
 4064              	.LASF86:
 4065 00b0 76746C69 		.ascii	"vtlist\000"
 4065      737400
 4066              	.LASF131:
 4067 00b7 46696C74 		.ascii	"FilterOrder\000"
 4067      65724F72 
 4067      64657200 
 4068              	.LASF110:
 4069 00c3 776F7273 		.ascii	"worst\000"
 4069      7400
 4070              	.LASF113:
 4071 00c9 74696D65 		.ascii	"time_measurement_t\000"
 4071      5F6D6561 
 4071      73757265 
 4071      6D656E74 
 4071      5F7400
 4072              	.LASF219:
 4073 00dc 61727261 		.ascii	"arrayCoefficientsA\000"
 4073      79436F65 
 4073      66666963 
 4073      69656E74 
 4073      734100
 4074              	.LASF12:
 4075 00ef 6C6F6E67 		.ascii	"long long unsigned int\000"
 4075      206C6F6E 
 4075      6720756E 
 4075      7369676E 
 4075      65642069 
 4076              	.LASF98:
 4077 0106 73655F73 		.ascii	"se_state\000"
 4077      74617465 
 4077      00
 4078              	.LASF162:
 4079 010f 5F5A4E31 		.ascii	"_ZN10DataFilter26setArrayInitialConditionsXEPf\000"
 4079      30446174 
 4079      6146696C 
 4079      74657232 
 4079      36736574 
 4080              	.LASF171:
 4081 013e 67657446 		.ascii	"getFilterOrder\000"
 4081      696C7465 
 4081      724F7264 
 4081      657200
 4082              	.LASF185:
 4083 014d 73657441 		.ascii	"setArrayCoefficientsA\000"
ARM GAS  C:\Users\Luis\AppData\Local\Temp\ccjBqsxj.s 			page 74


 4083      72726179 
 4083      436F6566 
 4083      66696369 
 4083      656E7473 
 4084              	.LASF155:
 4085 0163 73657441 		.ascii	"setArrayCoefficientsB\000"
 4085      72726179 
 4085      436F6566 
 4085      66696369 
 4085      656E7473 
 4086              	.LASF74:
 4087 0179 76697274 		.ascii	"virtual_timers_list_t\000"
 4087      75616C5F 
 4087      74696D65 
 4087      72735F6C 
 4087      6973745F 
 4088              	.LASF221:
 4089 018f 49544D5F 		.ascii	"ITM_RxBuffer\000"
 4089      52784275 
 4089      66666572 
 4089      00
 4090              	.LASF57:
 4091 019c 63685F74 		.ascii	"ch_threads_queue\000"
 4091      68726561 
 4091      64735F71 
 4091      75657565 
 4091      00
 4092              	.LASF216:
 4093 01ad 70417272 		.ascii	"pArrayInitialConditions\000"
 4093      6179496E 
 4093      69746961 
 4093      6C436F6E 
 4093      64697469 
 4094              	.LASF34:
 4095 01c5 705F7072 		.ascii	"p_prio\000"
 4095      696F00
 4096              	.LASF214:
 4097 01cc 70417272 		.ascii	"pArrayOfInterval\000"
 4097      61794F66 
 4097      496E7465 
 4097      7276616C 
 4097      00
 4098              	.LASF167:
 4099 01dd 67657441 		.ascii	"getArrayIntervalOutput\000"
 4099      72726179 
 4099      496E7465 
 4099      7276616C 
 4099      4F757470 
 4100              	.LASF190:
 4101 01f4 5F5A4E31 		.ascii	"_ZN10DataFilter26setArrayInitialConditionsYEPf\000"
 4101      30446174 
 4101      6146696C 
 4101      74657232 
 4101      36736574 
 4102              	.LASF10:
 4103 0223 6C6F6E67 		.ascii	"long long int\000"
 4103      206C6F6E 
ARM GAS  C:\Users\Luis\AppData\Local\Temp\ccjBqsxj.s 			page 75


 4103      6720696E 
 4103      7400
 4104              	.LASF1:
 4105 0231 7369676E 		.ascii	"signed char\000"
 4105      65642063 
 4105      68617200 
 4106              	.LASF144:
 4107 023d 63726561 		.ascii	"createArrayInputFIR\000"
 4107      74654172 
 4107      72617949 
 4107      6E707574 
 4107      46495200 
 4108              	.LASF49:
 4109 0251 705F6D70 		.ascii	"p_mpool\000"
 4109      6F6F6C00 
 4110              	.LASF179:
 4111 0259 6765744E 		.ascii	"getNumbOutput\000"
 4111      756D624F 
 4111      75747075 
 4111      7400
 4112              	.LASF124:
 4113 0267 6D5F7175 		.ascii	"m_queue\000"
 4113      65756500 
 4114              	.LASF163:
 4115 026f 67657441 		.ascii	"getArrayInputsX\000"
 4115      72726179 
 4115      496E7075 
 4115      74735800 
 4116              	.LASF191:
 4117 027f 67657441 		.ascii	"getArrayInputsY\000"
 4117      72726179 
 4117      496E7075 
 4117      74735900 
 4118              	.LASF224:
 4119 028f 433A5C55 		.ascii	"C:\\Users\\Luis\\git\\DSP-Library-Lanin\\examples\\"
 4119      73657273 
 4119      5C4C7569 
 4119      735C6769 
 4119      745C4453 
 4120 02bc 4453502D 		.ascii	"DSP-Library\000"
 4120      4C696272 
 4120      61727900 
 4121              	.LASF168:
 4122 02c8 5F5A4E4B 		.ascii	"_ZNK10DataFilter22getArrayIntervalOutputEv\000"
 4122      31304461 
 4122      74614669 
 4122      6C746572 
 4122      32326765 
 4123              	.LASF84:
 4124 02f3 63685F73 		.ascii	"ch_system\000"
 4124      79737465 
 4124      6D00
 4125              	.LASF7:
 4126 02fd 6C6F6E67 		.ascii	"long int\000"
 4126      20696E74 
 4126      00
 4127              	.LASF213:
ARM GAS  C:\Users\Luis\AppData\Local\Temp\ccjBqsxj.s 			page 76


 4128 0306 6E756D62 		.ascii	"numbOutput\000"
 4128      4F757470 
 4128      757400
 4129              	.LASF154:
 4130 0311 5F5A4E31 		.ascii	"_ZN10DataFilter9copyArrayEPfS0_\000"
 4130      30446174 
 4130      6146696C 
 4130      74657239 
 4130      636F7079 
 4131              	.LASF156:
 4132 0331 5F5A4E31 		.ascii	"_ZN10DataFilter21setArrayCoefficientsBEPf\000"
 4132      30446174 
 4132      6146696C 
 4132      74657232 
 4132      31736574 
 4133              	.LASF210:
 4134 035b 7046696C 		.ascii	"pFilterOrder\000"
 4134      7465724F 
 4134      72646572 
 4134      00
 4135              	.LASF50:
 4136 0368 705F7374 		.ascii	"p_stats\000"
 4136      61747300 
 4137              	.LASF96:
 4138 0370 73655F74 		.ascii	"se_tp\000"
 4138      7000
 4139              	.LASF146:
 4140 0376 5F5A4E31 		.ascii	"_ZN10DataFilter19createArrayInputFIREv\000"
 4140      30446174 
 4140      6146696C 
 4140      74657231 
 4140      39637265 
 4141              	.LASF192:
 4142 039d 5F5A4E4B 		.ascii	"_ZNK10DataFilter15getArrayInputsYEv\000"
 4142      31304461 
 4142      74614669 
 4142      6C746572 
 4142      31356765 
 4143              	.LASF16:
 4144 03c1 74737461 		.ascii	"tstate_t\000"
 4144      74655F74 
 4144      00
 4145              	.LASF139:
 4146 03ca 41727261 		.ascii	"ArrayIntervalOutput\000"
 4146      79496E74 
 4146      65727661 
 4146      6C4F7574 
 4146      70757400 
 4147              	.LASF206:
 4148 03de 74686973 		.ascii	"this\000"
 4148      00
 4149              	.LASF36:
 4150 03e3 705F6E65 		.ascii	"p_newer\000"
 4150      77657200 
 4151              	.LASF121:
 4152 03eb 735F7175 		.ascii	"s_queue\000"
 4152      65756500 
ARM GAS  C:\Users\Luis\AppData\Local\Temp\ccjBqsxj.s 			page 77


 4153              	.LASF26:
 4154 03f3 65786974 		.ascii	"exitcode\000"
 4154      636F6465 
 4154      00
 4155              	.LASF100:
 4156 03fc 74625F73 		.ascii	"tb_size\000"
 4156      697A6500 
 4157              	.LASF175:
 4158 0404 67657441 		.ascii	"getArrayResult\000"
 4158      72726179 
 4158      52657375 
 4158      6C7400
 4159              	.LASF63:
 4160 0413 725F6E65 		.ascii	"r_newer\000"
 4160      77657200 
 4161              	.LASF91:
 4162 041b 72656761 		.ascii	"regarm_t\000"
 4162      726D5F74 
 4162      00
 4163              	.LASF70:
 4164 0424 76745F70 		.ascii	"vt_prev\000"
 4164      72657600 
 4165              	.LASF78:
 4166 042c 63685F73 		.ascii	"ch_system_debug\000"
 4166      79737465 
 4166      6D5F6465 
 4166      62756700 
 4167              	.LASF196:
 4168 043c 5F5A4E31 		.ascii	"_ZN10DataFilter10setBuffer1EPf\000"
 4168      30446174 
 4168      6146696C 
 4168      74657231 
 4168      30736574 
 4169              	.LASF128:
 4170 045b 6D757465 		.ascii	"mutex_t\000"
 4170      785F7400 
 4171              	.LASF141:
 4172 0463 52657375 		.ascii	"Result\000"
 4172      6C7400
 4173              	.LASF81:
 4174 046a 6C6F636B 		.ascii	"lock_cnt\000"
 4174      5F636E74 
 4174      00
 4175              	.LASF186:
 4176 0473 5F5A4E31 		.ascii	"_ZN10DataFilter21setArrayCoefficientsAEPf\000"
 4176      30446174 
 4176      6146696C 
 4176      74657232 
 4176      31736574 
 4177              	.LASF227:
 4178 049d 7E446174 		.ascii	"~DataFilter\000"
 4178      6146696C 
 4178      74657200 
 4179              	.LASF21:
 4180 04a9 636E745F 		.ascii	"cnt_t\000"
 4180      7400
 4181              	.LASF229:
ARM GAS  C:\Users\Luis\AppData\Local\Temp\ccjBqsxj.s 			page 78


 4182 04af 5F5F7674 		.ascii	"__vtbl_ptr_type\000"
 4182      626C5F70 
 4182      74725F74 
 4182      79706500 
 4183              	.LASF39:
 4184 04bf 705F7374 		.ascii	"p_stklimit\000"
 4184      6B6C696D 
 4184      697400
 4185              	.LASF0:
 4186 04ca 756E7369 		.ascii	"unsigned int\000"
 4186      676E6564 
 4186      20696E74 
 4186      00
 4187              	.LASF29:
 4188 04d7 77747365 		.ascii	"wtsemp\000"
 4188      6D7000
 4189              	.LASF46:
 4190 04de 705F6570 		.ascii	"p_epending\000"
 4190      656E6469 
 4190      6E6700
 4191              	.LASF181:
 4192 04e9 7365744E 		.ascii	"setNumbOutput\000"
 4192      756D624F 
 4192      75747075 
 4192      7400
 4193              	.LASF77:
 4194 04f7 73797374 		.ascii	"system_debug_t\000"
 4194      656D5F64 
 4194      65627567 
 4194      5F7400
 4195              	.LASF69:
 4196 0506 76745F6E 		.ascii	"vt_next\000"
 4196      65787400 
 4197              	.LASF173:
 4198 050e 73657446 		.ascii	"setFilterOrder\000"
 4198      696C7465 
 4198      724F7264 
 4198      657200
 4199              	.LASF51:
 4200 051d 746C7350 		.ascii	"tlsPtr\000"
 4200      747200
 4201              	.LASF115:
 4202 0524 6E5F6972 		.ascii	"n_irq\000"
 4202      7100
 4203              	.LASF122:
 4204 052a 735F636E 		.ascii	"s_cnt\000"
 4204      7400
 4205              	.LASF4:
 4206 0530 73686F72 		.ascii	"short unsigned int\000"
 4206      7420756E 
 4206      7369676E 
 4206      65642069 
 4206      6E7400
 4207              	.LASF119:
 4208 0543 6B65726E 		.ascii	"kernel_stats_t\000"
 4208      656C5F73 
 4208      74617473 
ARM GAS  C:\Users\Luis\AppData\Local\Temp\ccjBqsxj.s 			page 79


 4208      5F7400
 4209              	.LASF104:
 4210 0552 31346368 		.ascii	"14ch_swc_event_t\000"
 4210      5F737763 
 4210      5F657665 
 4210      6E745F74 
 4210      00
 4211              	.LASF54:
 4212 0563 63685F74 		.ascii	"ch_thread\000"
 4212      68726561 
 4212      6400
 4213              	.LASF87:
 4214 056d 6D61696E 		.ascii	"mainthread\000"
 4214      74687265 
 4214      616400
 4215              	.LASF132:
 4216 0578 41727261 		.ascii	"ArrayInitialConditionsX\000"
 4216      79496E69 
 4216      7469616C 
 4216      436F6E64 
 4216      6974696F 
 4217              	.LASF19:
 4218 0590 6D73675F 		.ascii	"msg_t\000"
 4218      7400
 4219              	.LASF111:
 4220 0596 6C617374 		.ascii	"last\000"
 4220      00
 4221              	.LASF22:
 4222 059b 75636E74 		.ascii	"ucnt_t\000"
 4222      5F7400
 4223              	.LASF164:
 4224 05a2 5F5A4E4B 		.ascii	"_ZNK10DataFilter15getArrayInputsXEv\000"
 4224      31304461 
 4224      74614669 
 4224      6C746572 
 4224      31356765 
 4225              	.LASF153:
 4226 05c6 636F7079 		.ascii	"copyArray\000"
 4226      41727261 
 4226      7900
 4227              	.LASF83:
 4228 05d0 63685F73 		.ascii	"ch_system_t\000"
 4228      79737465 
 4228      6D5F7400 
 4229              	.LASF15:
 4230 05dc 746D6F64 		.ascii	"tmode_t\000"
 4230      655F7400 
 4231              	.LASF129:
 4232 05e4 626F6F6C 		.ascii	"bool\000"
 4232      00
 4233              	.LASF184:
 4234 05e9 5F5A4E4B 		.ascii	"_ZNK10DataFilter21getArrayCoefficientsAEv\000"
 4234      31304461 
 4234      74614669 
 4234      6C746572 
 4234      32316765 
 4235              	.LASF118:
ARM GAS  C:\Users\Luis\AppData\Local\Temp\ccjBqsxj.s 			page 80


 4236 0613 6D5F6372 		.ascii	"m_crit_isr\000"
 4236      69745F69 
 4236      737200
 4237              	.LASF59:
 4238 061e 63685F72 		.ascii	"ch_ready_list\000"
 4238      65616479 
 4238      5F6C6973 
 4238      7400
 4239              	.LASF20:
 4240 062c 6576656E 		.ascii	"eventmask_t\000"
 4240      746D6173 
 4240      6B5F7400 
 4241              	.LASF3:
 4242 0638 73686F72 		.ascii	"short int\000"
 4242      7420696E 
 4242      7400
 4243              	.LASF135:
 4244 0642 41727261 		.ascii	"ArrayInitialConditionsY\000"
 4244      79496E69 
 4244      7469616C 
 4244      436F6E64 
 4244      6974696F 
 4245              	.LASF225:
 4246 065a 31376368 		.ascii	"17ch_trace_buffer_t\000"
 4246      5F747261 
 4246      63655F62 
 4246      75666665 
 4246      725F7400 
 4247              	.LASF198:
 4248 066e 5F5A4E4B 		.ascii	"_ZNK10DataFilter10getBuffer2Ev\000"
 4248      31304461 
 4248      74614669 
 4248      6C746572 
 4248      31306765 
 4249              	.LASF92:
 4250 068d 73746B61 		.ascii	"stkalign_t\000"
 4250      6C69676E 
 4250      5F7400
 4251              	.LASF195:
 4252 0698 73657442 		.ascii	"setBuffer1\000"
 4252      75666665 
 4252      723100
 4253              	.LASF199:
 4254 06a3 73657442 		.ascii	"setBuffer2\000"
 4254      75666665 
 4254      723200
 4255              	.LASF176:
 4256 06ae 5F5A4E4B 		.ascii	"_ZNK10DataFilter14getArrayResultEv\000"
 4256      31304461 
 4256      74614669 
 4256      6C746572 
 4256      31346765 
 4257              	.LASF203:
 4258 06d1 73657442 		.ascii	"setBufferReady\000"
 4258      75666665 
 4258      72526561 
 4258      647900
ARM GAS  C:\Users\Luis\AppData\Local\Temp\ccjBqsxj.s 			page 81


 4259              	.LASF101:
 4260 06e0 74625F70 		.ascii	"tb_ptr\000"
 4260      747200
 4261              	.LASF217:
 4262 06e7 70417272 		.ascii	"pArrayInputs\000"
 4262      6179496E 
 4262      70757473 
 4262      00
 4263              	.LASF13:
 4264 06f4 7274636E 		.ascii	"rtcnt_t\000"
 4264      745F7400 
 4265              	.LASF52:
 4266 06fc 74687265 		.ascii	"thread_reference_t\000"
 4266      61645F72 
 4266      65666572 
 4266      656E6365 
 4266      5F7400
 4267              	.LASF130:
 4268 070f 5F767074 		.ascii	"_vptr.DataFilter\000"
 4268      722E4461 
 4268      74614669 
 4268      6C746572 
 4268      00
 4269              	.LASF75:
 4270 0720 63685F76 		.ascii	"ch_virtual_timers_list\000"
 4270      69727475 
 4270      616C5F74 
 4270      696D6572 
 4270      735F6C69 
 4271              	.LASF145:
 4272 0737 5F5A4E31 		.ascii	"_ZN10DataFilter13newDataFilterEi\000"
 4272      30446174 
 4272      6146696C 
 4272      74657231 
 4272      336E6577 
 4273              	.LASF72:
 4274 0758 76745F66 		.ascii	"vt_func\000"
 4274      756E6300 
 4275              	.LASF138:
 4276 0760 41727261 		.ascii	"ArrayResult\000"
 4276      79526573 
 4276      756C7400 
 4277              	.LASF99:
 4278 076c 63685F73 		.ascii	"ch_swc_event_t\000"
 4278      77635F65 
 4278      76656E74 
 4278      5F7400
 4279              	.LASF76:
 4280 077b 76745F6C 		.ascii	"vt_lasttime\000"
 4280      61737474 
 4280      696D6500 
 4281              	.LASF37:
 4282 0787 705F6F6C 		.ascii	"p_older\000"
 4282      64657200 
 4283              	.LASF62:
 4284 078f 725F6374 		.ascii	"r_ctx\000"
 4284      7800
ARM GAS  C:\Users\Luis\AppData\Local\Temp\ccjBqsxj.s 			page 82


 4285              	.LASF108:
 4286 0795 31387469 		.ascii	"18time_measurement_t\000"
 4286      6D655F6D 
 4286      65617375 
 4286      72656D65 
 4286      6E745F74 
 4287              	.LASF114:
 4288 07aa 31346B65 		.ascii	"14kernel_stats_t\000"
 4288      726E656C 
 4288      5F737461 
 4288      74735F74 
 4288      00
 4289              	.LASF107:
 4290 07bb 746D5F63 		.ascii	"tm_calibration_t\000"
 4290      616C6962 
 4290      72617469 
 4290      6F6E5F74 
 4290      00
 4291              	.LASF201:
 4292 07cc 69734275 		.ascii	"isBufferReady\000"
 4292      66666572 
 4292      52656164 
 4292      7900
 4293              	.LASF211:
 4294 07da 70417272 		.ascii	"pArray\000"
 4294      617900
 4295              	.LASF65:
 4296 07e1 725F6375 		.ascii	"r_current\000"
 4296      7272656E 
 4296      7400
 4297              	.LASF64:
 4298 07eb 725F6F6C 		.ascii	"r_older\000"
 4298      64657200 
 4299              	.LASF223:
 4300 07f3 44617461 		.ascii	"DataFilter.cpp\000"
 4300      46696C74 
 4300      65722E63 
 4300      707000
 4301              	.LASF112:
 4302 0802 63756D75 		.ascii	"cumulative\000"
 4302      6C617469 
 4302      766500
 4303              	.LASF205:
 4304 080d 666C6F61 		.ascii	"float\000"
 4304      7400
 4305              	.LASF228:
 4306 0813 5F5A4E31 		.ascii	"_ZN10DataFilter10numbOutputEPi\000"
 4306      30446174 
 4306      6146696C 
 4306      74657231 
 4306      306E756D 
 4307              	.LASF215:
 4308 0832 70417272 		.ascii	"pArrayCoefficientsB\000"
 4308      6179436F 
 4308      65666669 
 4308      6369656E 
 4308      74734200 
ARM GAS  C:\Users\Luis\AppData\Local\Temp\ccjBqsxj.s 			page 83


 4309              	.LASF202:
 4310 0846 5F5A4E4B 		.ascii	"_ZNK10DataFilter13isBufferReadyEv\000"
 4310      31304461 
 4310      74614669 
 4310      6C746572 
 4310      31336973 
 4311              	.LASF17:
 4312 0868 74726566 		.ascii	"trefs_t\000"
 4312      735F7400 
 4313              	.LASF102:
 4314 0870 74625F62 		.ascii	"tb_buffer\000"
 4314      75666665 
 4314      7200
 4315              	.LASF67:
 4316 087a 76697274 		.ascii	"virtual_timer_t\000"
 4316      75616C5F 
 4316      74696D65 
 4316      725F7400 
 4317              	.LASF33:
 4318 088a 705F7072 		.ascii	"p_prev\000"
 4318      657600
 4319              	.LASF222:
 4320 0891 474E5520 		.ascii	"GNU C++ 4.8.3 20131129 (release) [ARM/embedded-4_8-"
 4320      432B2B20 
 4320      342E382E 
 4320      33203230 
 4320      31333131 
 4321 08c4 6272616E 		.ascii	"branch revision 205641] -mcpu=cortex-m4 -mapcs-fram"
 4321      63682072 
 4321      65766973 
 4321      696F6E20 
 4321      32303536 
 4322 08f7 65202D6D 		.ascii	"e -mno-thumb-interwork -mthumb -ggdb -O0 -falign-fu"
 4322      6E6F2D74 
 4322      68756D62 
 4322      2D696E74 
 4322      6572776F 
 4323 092a 6E637469 		.ascii	"nctions=16 -ffunction-sections -fdata-sections -fno"
 4323      6F6E733D 
 4323      3136202D 
 4323      6666756E 
 4323      6374696F 
 4324 095d 2D636F6D 		.ascii	"-common -fno-rtti -fno-exceptions\000"
 4324      6D6F6E20 
 4324      2D666E6F 
 4324      2D727474 
 4324      69202D66 
 4325              	.LASF18:
 4326 097f 74707269 		.ascii	"tprio_t\000"
 4326      6F5F7400 
 4327              	.LASF170:
 4328 0987 5F5A4E31 		.ascii	"_ZN10DataFilter22setArrayIntervalOutputEPi\000"
 4328      30446174 
 4328      6146696C 
 4328      74657232 
 4328      32736574 
 4329              	.LASF116:
ARM GAS  C:\Users\Luis\AppData\Local\Temp\ccjBqsxj.s 			page 84


 4330 09b2 6E5F6374 		.ascii	"n_ctxswc\000"
 4330      78737763 
 4330      00
 4331              	.LASF6:
 4332 09bb 696E7433 		.ascii	"int32_t\000"
 4332      325F7400 
 4333              	.LASF103:
 4334 09c3 63685F74 		.ascii	"ch_trace_buffer_t\000"
 4334      72616365 
 4334      5F627566 
 4334      6665725F 
 4334      7400
 4335              	.LASF165:
 4336 09d5 73657441 		.ascii	"setArrayInputsX\000"
 4336      72726179 
 4336      496E7075 
 4336      74735800 
 4337              	.LASF149:
 4338 09e5 63726561 		.ascii	"createArrayInputY\000"
 4338      74654172 
 4338      72617949 
 4338      6E707574 
 4338      5900
 4339              	.LASF47:
 4340 09f7 705F6D74 		.ascii	"p_mtxlist\000"
 4340      786C6973 
 4340      7400
 4341              	.LASF180:
 4342 0a01 5F5A4E4B 		.ascii	"_ZNK10DataFilter13getNumbOutputEv\000"
 4342      31304461 
 4342      74614669 
 4342      6C746572 
 4342      31336765 
 4343              	.LASF40:
 4344 0a23 705F7374 		.ascii	"p_state\000"
 4344      61746500 
 4345              	.LASF61:
 4346 0a2b 725F7072 		.ascii	"r_prio\000"
 4346      696F00
 4347              	.LASF140:
 4348 0a32 4E756D62 		.ascii	"NumbOutput\000"
 4348      4F757470 
 4348      757400
 4349              	.LASF27:
 4350 0a3d 77746F62 		.ascii	"wtobjp\000"
 4350      6A7000
 4351              	.LASF31:
 4352 0a44 65776D61 		.ascii	"ewmask\000"
 4352      736B00
 4353              	.LASF32:
 4354 0a4b 705F6E65 		.ascii	"p_next\000"
 4354      787400
 4355              	.LASF73:
 4356 0a52 76745F70 		.ascii	"vt_par\000"
 4356      617200
 4357              	.LASF89:
 4358 0a59 69646C65 		.ascii	"idle_thread_wa\000"
ARM GAS  C:\Users\Luis\AppData\Local\Temp\ccjBqsxj.s 			page 85


 4358      5F746872 
 4358      6561645F 
 4358      776100
 4359              	.LASF208:
 4360 0a68 5F5A4E31 		.ascii	"_ZN10DataFilterD2Ev\000"
 4360      30446174 
 4360      6146696C 
 4360      74657244 
 4360      32457600 
 4361              	.LASF159:
 4362 0a7c 5F5A4E4B 		.ascii	"_ZNK10DataFilter21getArrayCoefficientsBEv\000"
 4362      31304461 
 4362      74614669 
 4362      6C746572 
 4362      32316765 
 4363              	.LASF218:
 4364 0aa6 70417272 		.ascii	"pArrayIntervalOutput\000"
 4364      6179496E 
 4364      74657276 
 4364      616C4F75 
 4364      74707574 
 4365              	.LASF56:
 4366 0abb 74687265 		.ascii	"threads_queue_t\000"
 4366      6164735F 
 4366      71756575 
 4366      655F7400 
 4367              	.LASF183:
 4368 0acb 67657441 		.ascii	"getArrayCoefficientsA\000"
 4368      72726179 
 4368      436F6566 
 4368      66696369 
 4368      656E7473 
 4369              	.LASF157:
 4370 0ae1 67657441 		.ascii	"getArrayCoefficientsB\000"
 4370      72726179 
 4370      436F6566 
 4370      66696369 
 4370      656E7473 
 4371              	.LASF120:
 4372 0af7 63685F73 		.ascii	"ch_semaphore\000"
 4372      656D6170 
 4372      686F7265 
 4372      00
 4373              	.LASF169:
 4374 0b04 73657441 		.ascii	"setArrayIntervalOutput\000"
 4374      72726179 
 4374      496E7465 
 4374      7276616C 
 4374      4F757470 
 4375              	.LASF197:
 4376 0b1b 67657442 		.ascii	"getBuffer2\000"
 4376      75666665 
 4376      723200
 4377              	.LASF220:
 4378 0b26 61727261 		.ascii	"arrayInitialConditionsY\000"
 4378      79496E69 
 4378      7469616C 
ARM GAS  C:\Users\Luis\AppData\Local\Temp\ccjBqsxj.s 			page 86


 4378      436F6E64 
 4378      6974696F 
 4379              	.LASF142:
 4380 0b3e 436F6E74 		.ascii	"Cont\000"
 4380      00
 4381              	.LASF8:
 4382 0b43 75696E74 		.ascii	"uint32_t\000"
 4382      33325F74 
 4382      00
 4383              	.LASF30:
 4384 0b4c 77746D74 		.ascii	"wtmtxp\000"
 4384      787000
 4385              	.LASF60:
 4386 0b53 725F7175 		.ascii	"r_queue\000"
 4386      65756500 
 4387              	.LASF71:
 4388 0b5b 76745F64 		.ascii	"vt_delta\000"
 4388      656C7461 
 4388      00
 4389              	.LASF55:
 4390 0b64 63685F74 		.ascii	"ch_threads_list\000"
 4390      68726561 
 4390      64735F6C 
 4390      69737400 
 4391              	.LASF150:
 4392 0b74 5F5A4E31 		.ascii	"_ZN10DataFilter17createArrayInputYEv\000"
 4392      30446174 
 4392      6146696C 
 4392      74657231 
 4392      37637265 
 4393              	.LASF172:
 4394 0b99 5F5A4E4B 		.ascii	"_ZNK10DataFilter14getFilterOrderEv\000"
 4394      31304461 
 4394      74614669 
 4394      6C746572 
 4394      31346765 
 4395              	.LASF9:
 4396 0bbc 6C6F6E67 		.ascii	"long unsigned int\000"
 4396      20756E73 
 4396      69676E65 
 4396      6420696E 
 4396      7400
 4397              	.LASF127:
 4398 0bce 63686172 		.ascii	"char\000"
 4398      00
 4399              	.LASF166:
 4400 0bd3 5F5A4E31 		.ascii	"_ZN10DataFilter15setArrayInputsXEPf\000"
 4400      30446174 
 4400      6146696C 
 4400      74657231 
 4400      35736574 
 4401              	.LASF105:
 4402 0bf7 3136746D 		.ascii	"16tm_calibration_t\000"
 4402      5F63616C 
 4402      69627261 
 4402      74696F6E 
 4402      5F7400
ARM GAS  C:\Users\Luis\AppData\Local\Temp\ccjBqsxj.s 			page 87


 4403              	.LASF109:
 4404 0c0a 62657374 		.ascii	"best\000"
 4404      00
 4405              	.LASF126:
 4406 0c0f 6D5F6E65 		.ascii	"m_next\000"
 4406      787400
 4407              	.LASF23:
 4408 0c16 73797374 		.ascii	"systime_t\000"
 4408      696D655F 
 4408      7400
 4409              	.LASF48:
 4410 0c20 705F7265 		.ascii	"p_realprio\000"
 4410      616C7072 
 4410      696F00
 4411              	.LASF66:
 4412 0c2b 76746675 		.ascii	"vtfunc_t\000"
 4412      6E635F74 
 4412      00
 4413              	.LASF117:
 4414 0c34 6D5F6372 		.ascii	"m_crit_thd\000"
 4414      69745F74 
 4414      686400
 4415              	.LASF194:
 4416 0c3f 5F5A4E4B 		.ascii	"_ZNK10DataFilter10getBuffer1Ev\000"
 4416      31304461 
 4416      74614669 
 4416      6C746572 
 4416      31306765 
 4417              	.LASF182:
 4418 0c5e 5F5A4E31 		.ascii	"_ZN10DataFilter13setNumbOutputEi\000"
 4418      30446174 
 4418      6146696C 
 4418      74657231 
 4418      33736574 
 4419              	.LASF204:
 4420 0c7f 5F5A4E31 		.ascii	"_ZN10DataFilter14setBufferReadyEb\000"
 4420      30446174 
 4420      6146696C 
 4420      74657231 
 4420      34736574 
 4421              	.LASF106:
 4422 0ca1 6F666673 		.ascii	"offset\000"
 4422      657400
 4423              	.LASF93:
 4424 0ca8 636F6E74 		.ascii	"context\000"
 4424      65787400 
 4425              	.LASF2:
 4426 0cb0 756E7369 		.ascii	"unsigned char\000"
 4426      676E6564 
 4426      20636861 
 4426      7200
 4427              	.LASF177:
 4428 0cbe 73657441 		.ascii	"setArrayResult\000"
 4428      72726179 
 4428      52657375 
 4428      6C7400
 4429              	.LASF44:
ARM GAS  C:\Users\Luis\AppData\Local\Temp\ccjBqsxj.s 			page 88


 4430 0ccd 705F6D73 		.ascii	"p_msgqueue\000"
 4430      67717565 
 4430      756500
 4431              	.LASF136:
 4432 0cd8 41727261 		.ascii	"ArrayCoefficientsA\000"
 4432      79436F65 
 4432      66666963 
 4432      69656E74 
 4432      734100
 4433              	.LASF133:
 4434 0ceb 41727261 		.ascii	"ArrayCoefficientsB\000"
 4434      79436F65 
 4434      66666963 
 4434      69656E74 
 4434      734200
 4435              	.LASF158:
 4436 0cfe 67657441 		.ascii	"getArrayInitialConditionsX\000"
 4436      72726179 
 4436      496E6974 
 4436      69616C43 
 4436      6F6E6469 
 4437              	.LASF134:
 4438 0d19 41727261 		.ascii	"ArrayInputsX\000"
 4438      79496E70 
 4438      75747358 
 4438      00
 4439              	.LASF137:
 4440 0d26 41727261 		.ascii	"ArrayInputsY\000"
 4440      79496E70 
 4440      75747359 
 4440      00
 4441              	.LASF38:
 4442 0d33 705F6E61 		.ascii	"p_name\000"
 4442      6D6500
 4443              	.LASF42:
 4444 0d3a 705F7265 		.ascii	"p_refs\000"
 4444      667300
 4445              	.LASF80:
 4446 0d41 6973725F 		.ascii	"isr_cnt\000"
 4446      636E7400 
 4447              	.LASF24:
 4448 0d49 74687265 		.ascii	"thread_t\000"
 4448      61645F74 
 4448      00
 4449              	.LASF212:
 4450 0d52 61727261 		.ascii	"arrayResult\000"
 4450      79526573 
 4450      756C7400 
 4451              	.LASF200:
 4452 0d5e 5F5A4E31 		.ascii	"_ZN10DataFilter10setBuffer2EPf\000"
 4452      30446174 
 4452      6146696C 
 4452      74657231 
 4452      30736574 
 4453              	.LASF226:
 4454 0d7d 44617461 		.ascii	"DataFilter\000"
 4454      46696C74 
ARM GAS  C:\Users\Luis\AppData\Local\Temp\ccjBqsxj.s 			page 89


 4454      657200
 4455              	.LASF85:
 4456 0d88 726C6973 		.ascii	"rlist\000"
 4456      7400
 4457              	.LASF5:
 4458 0d8e 75696E74 		.ascii	"uint8_t\000"
 4458      385F7400 
 4459              	.LASF79:
 4460 0d96 70616E69 		.ascii	"panic_msg\000"
 4460      635F6D73 
 4460      6700
 4461              	.LASF90:
 4462 0da0 73697A65 		.ascii	"sizetype\000"
 4462      74797065 
 4462      00
 4463              	.LASF123:
 4464 0da9 63685F6D 		.ascii	"ch_mutex\000"
 4464      75746578 
 4464      00
 4465              	.LASF178:
 4466 0db2 5F5A4E31 		.ascii	"_ZN10DataFilter14setArrayResultEPf\000"
 4466      30446174 
 4466      6146696C 
 4466      74657231 
 4466      34736574 
 4467              	.LASF160:
 4468 0dd5 5F5A4E4B 		.ascii	"_ZNK10DataFilter26getArrayInitialConditionsXEv\000"
 4468      31304461 
 4468      74614669 
 4468      6C746572 
 4468      32366765 
 4469              	.LASF53:
 4470 0e04 74687265 		.ascii	"threads_list_t\000"
 4470      6164735F 
 4470      6C697374 
 4470      5F7400
 4471              	.LASF82:
 4472 0e13 74726163 		.ascii	"trace_buffer\000"
 4472      655F6275 
 4472      66666572 
 4472      00
 4473              	.LASF41:
 4474 0e20 705F666C 		.ascii	"p_flags\000"
 4474      61677300 
 4475              	.LASF68:
 4476 0e28 63685F76 		.ascii	"ch_virtual_timer\000"
 4476      69727475 
 4476      616C5F74 
 4476      696D6572 
 4476      00
 4477              	.LASF45:
 4478 0e39 705F6D73 		.ascii	"p_msg\000"
 4478      6700
 4479              	.LASF187:
 4480 0e3f 67657441 		.ascii	"getArrayInitialConditionsY\000"
 4480      72726179 
 4480      496E6974 
ARM GAS  C:\Users\Luis\AppData\Local\Temp\ccjBqsxj.s 			page 90


 4480      69616C43 
 4480      6F6E6469 
 4481              	.LASF161:
 4482 0e5a 73657441 		.ascii	"setArrayInitialConditionsX\000"
 4482      72726179 
 4482      496E6974 
 4482      69616C43 
 4482      6F6E6469 
 4483              	.LASF189:
 4484 0e75 73657441 		.ascii	"setArrayInitialConditionsY\000"
 4484      72726179 
 4484      496E6974 
 4484      69616C43 
 4484      6F6E6469 
 4485              	.LASF147:
 4486 0e90 63726561 		.ascii	"createArrayInputIIR\000"
 4486      74654172 
 4486      72617949 
 4486      6E707574 
 4486      49495200 
 4487              	.LASF174:
 4488 0ea4 5F5A4E31 		.ascii	"_ZN10DataFilter14setFilterOrderEi\000"
 4488      30446174 
 4488      6146696C 
 4488      74657231 
 4488      34736574 
 4489              	.LASF209:
 4490 0ec6 5F5A4E31 		.ascii	"_ZN10DataFilterD0Ev\000"
 4490      30446174 
 4490      6146696C 
 4490      74657244 
 4490      30457600 
 4491              	.LASF125:
 4492 0eda 6D5F6F77 		.ascii	"m_owner\000"
 4492      6E657200 
 4493              	.LASF97:
 4494 0ee2 73655F77 		.ascii	"se_wtobjp\000"
 4494      746F626A 
 4494      7000
 4495              	.LASF35:
 4496 0eec 705F6374 		.ascii	"p_ctx\000"
 4496      7800
 4497              	.LASF43:
 4498 0ef2 705F7761 		.ascii	"p_waiting\000"
 4498      6974696E 
 4498      6700
 4499              	.LASF188:
 4500 0efc 5F5A4E4B 		.ascii	"_ZNK10DataFilter26getArrayInitialConditionsYEv\000"
 4500      31304461 
 4500      74614669 
 4500      6C746572 
 4500      32366765 
 4501              	.LASF143:
 4502 0f2b 6E657744 		.ascii	"newDataFilter\000"
 4502      61746146 
 4502      696C7465 
 4502      7200
ARM GAS  C:\Users\Luis\AppData\Local\Temp\ccjBqsxj.s 			page 91


 4503              		.ident	"GCC: (GNU Tools for ARM Embedded Processors) 4.8.3 20131129 (release) [ARM/embedded-4_8-br
ARM GAS  C:\Users\Luis\AppData\Local\Temp\ccjBqsxj.s 			page 92


DEFINED SYMBOLS
                            *ABS*:00000000 DataFilter.cpp
C:\Users\Luis\AppData\Local\Temp\ccjBqsxj.s:19     .text._ZN10DataFilter13newDataFilterEi:00000000 $t
C:\Users\Luis\AppData\Local\Temp\ccjBqsxj.s:25     .text._ZN10DataFilter13newDataFilterEi:00000000 _ZN10DataFilter13newDataFilterEi
C:\Users\Luis\AppData\Local\Temp\ccjBqsxj.s:1066   .text._ZN10DataFilter14setFilterOrderEi:00000000 _ZN10DataFilter14setFilterOrderEi
C:\Users\Luis\AppData\Local\Temp\ccjBqsxj.s:111    .text._ZN10DataFilterD2Ev:00000000 $t
C:\Users\Luis\AppData\Local\Temp\ccjBqsxj.s:117    .text._ZN10DataFilterD2Ev:00000000 _ZN10DataFilterD2Ev
C:\Users\Luis\AppData\Local\Temp\ccjBqsxj.s:186    .text._ZN10DataFilterD2Ev:00000060 $d
C:\Users\Luis\AppData\Local\Temp\ccjBqsxj.s:1307   .rodata._ZTV10DataFilter:00000000 _ZTV10DataFilter
C:\Users\Luis\AppData\Local\Temp\ccjBqsxj.s:117    .text._ZN10DataFilterD2Ev:00000000 _ZN10DataFilterD1Ev
C:\Users\Luis\AppData\Local\Temp\ccjBqsxj.s:193    .text._ZN10DataFilterD0Ev:00000000 $t
C:\Users\Luis\AppData\Local\Temp\ccjBqsxj.s:199    .text._ZN10DataFilterD0Ev:00000000 _ZN10DataFilterD0Ev
C:\Users\Luis\AppData\Local\Temp\ccjBqsxj.s:229    .text._ZN10DataFilter19createArrayInputFIREv:00000000 $t
C:\Users\Luis\AppData\Local\Temp\ccjBqsxj.s:235    .text._ZN10DataFilter19createArrayInputFIREv:00000000 _ZN10DataFilter19createArrayInputFIREv
C:\Users\Luis\AppData\Local\Temp\ccjBqsxj.s:331    .text._ZN10DataFilter19createArrayInputIIREv:00000000 $t
C:\Users\Luis\AppData\Local\Temp\ccjBqsxj.s:337    .text._ZN10DataFilter19createArrayInputIIREv:00000000 _ZN10DataFilter19createArrayInputIIREv
C:\Users\Luis\AppData\Local\Temp\ccjBqsxj.s:397    .text._ZN10DataFilter9moveArrayEPf:00000000 $t
C:\Users\Luis\AppData\Local\Temp\ccjBqsxj.s:403    .text._ZN10DataFilter9moveArrayEPf:00000000 _ZN10DataFilter9moveArrayEPf
C:\Users\Luis\AppData\Local\Temp\ccjBqsxj.s:463    .text._ZNK10DataFilter14getArrayResultEv:00000000 $t
C:\Users\Luis\AppData\Local\Temp\ccjBqsxj.s:469    .text._ZNK10DataFilter14getArrayResultEv:00000000 _ZNK10DataFilter14getArrayResultEv
C:\Users\Luis\AppData\Local\Temp\ccjBqsxj.s:498    .text._ZN10DataFilter14setArrayResultEPf:00000000 $t
C:\Users\Luis\AppData\Local\Temp\ccjBqsxj.s:504    .text._ZN10DataFilter14setArrayResultEPf:00000000 _ZN10DataFilter14setArrayResultEPf
C:\Users\Luis\AppData\Local\Temp\ccjBqsxj.s:534    .text._ZNK10DataFilter13getNumbOutputEv:00000000 $t
C:\Users\Luis\AppData\Local\Temp\ccjBqsxj.s:540    .text._ZNK10DataFilter13getNumbOutputEv:00000000 _ZNK10DataFilter13getNumbOutputEv
C:\Users\Luis\AppData\Local\Temp\ccjBqsxj.s:569    .text._ZN10DataFilter13setNumbOutputEi:00000000 $t
C:\Users\Luis\AppData\Local\Temp\ccjBqsxj.s:575    .text._ZN10DataFilter13setNumbOutputEi:00000000 _ZN10DataFilter13setNumbOutputEi
C:\Users\Luis\AppData\Local\Temp\ccjBqsxj.s:605    .text._ZN10DataFilter10numbOutputEPi:00000000 $t
C:\Users\Luis\AppData\Local\Temp\ccjBqsxj.s:611    .text._ZN10DataFilter10numbOutputEPi:00000000 _ZN10DataFilter10numbOutputEPi
C:\Users\Luis\AppData\Local\Temp\ccjBqsxj.s:656    .text._ZNK10DataFilter21getArrayCoefficientsBEv:00000000 $t
C:\Users\Luis\AppData\Local\Temp\ccjBqsxj.s:662    .text._ZNK10DataFilter21getArrayCoefficientsBEv:00000000 _ZNK10DataFilter21getArrayCoefficientsBEv
C:\Users\Luis\AppData\Local\Temp\ccjBqsxj.s:691    .text._ZN10DataFilter21setArrayCoefficientsBEPf:00000000 $t
C:\Users\Luis\AppData\Local\Temp\ccjBqsxj.s:697    .text._ZN10DataFilter21setArrayCoefficientsBEPf:00000000 _ZN10DataFilter21setArrayCoefficientsBEPf
C:\Users\Luis\AppData\Local\Temp\ccjBqsxj.s:758    .text._ZN10DataFilter26setArrayInitialConditionsXEPf:00000000 $t
C:\Users\Luis\AppData\Local\Temp\ccjBqsxj.s:764    .text._ZN10DataFilter26setArrayInitialConditionsXEPf:00000000 _ZN10DataFilter26setArrayInitialConditionsXEPf
C:\Users\Luis\AppData\Local\Temp\ccjBqsxj.s:824    .text._ZNK10DataFilter15getArrayInputsXEv:00000000 $t
C:\Users\Luis\AppData\Local\Temp\ccjBqsxj.s:830    .text._ZNK10DataFilter15getArrayInputsXEv:00000000 _ZNK10DataFilter15getArrayInputsXEv
C:\Users\Luis\AppData\Local\Temp\ccjBqsxj.s:859    .text._ZN10DataFilter15setArrayInputsXEPf:00000000 $t
C:\Users\Luis\AppData\Local\Temp\ccjBqsxj.s:865    .text._ZN10DataFilter15setArrayInputsXEPf:00000000 _ZN10DataFilter15setArrayInputsXEPf
C:\Users\Luis\AppData\Local\Temp\ccjBqsxj.s:923    .text._ZNK10DataFilter22getArrayIntervalOutputEv:00000000 $t
C:\Users\Luis\AppData\Local\Temp\ccjBqsxj.s:929    .text._ZNK10DataFilter22getArrayIntervalOutputEv:00000000 _ZNK10DataFilter22getArrayIntervalOutputEv
C:\Users\Luis\AppData\Local\Temp\ccjBqsxj.s:958    .text._ZN10DataFilter22setArrayIntervalOutputEPi:00000000 $t
C:\Users\Luis\AppData\Local\Temp\ccjBqsxj.s:964    .text._ZN10DataFilter22setArrayIntervalOutputEPi:00000000 _ZN10DataFilter22setArrayIntervalOutputEPi
C:\Users\Luis\AppData\Local\Temp\ccjBqsxj.s:1025   .text._ZNK10DataFilter14getFilterOrderEv:00000000 $t
C:\Users\Luis\AppData\Local\Temp\ccjBqsxj.s:1031   .text._ZNK10DataFilter14getFilterOrderEv:00000000 _ZNK10DataFilter14getFilterOrderEv
C:\Users\Luis\AppData\Local\Temp\ccjBqsxj.s:1060   .text._ZN10DataFilter14setFilterOrderEi:00000000 $t
C:\Users\Luis\AppData\Local\Temp\ccjBqsxj.s:1096   .text._ZNK10DataFilter21getArrayCoefficientsAEv:00000000 $t
C:\Users\Luis\AppData\Local\Temp\ccjBqsxj.s:1102   .text._ZNK10DataFilter21getArrayCoefficientsAEv:00000000 _ZNK10DataFilter21getArrayCoefficientsAEv
C:\Users\Luis\AppData\Local\Temp\ccjBqsxj.s:1131   .text._ZN10DataFilter21setArrayCoefficientsAEPf:00000000 $t
C:\Users\Luis\AppData\Local\Temp\ccjBqsxj.s:1137   .text._ZN10DataFilter21setArrayCoefficientsAEPf:00000000 _ZN10DataFilter21setArrayCoefficientsAEPf
C:\Users\Luis\AppData\Local\Temp\ccjBqsxj.s:1167   .text._ZNK10DataFilter26getArrayInitialConditionsYEv:00000000 $t
C:\Users\Luis\AppData\Local\Temp\ccjBqsxj.s:1173   .text._ZNK10DataFilter26getArrayInitialConditionsYEv:00000000 _ZNK10DataFilter26getArrayInitialConditionsYEv
C:\Users\Luis\AppData\Local\Temp\ccjBqsxj.s:1202   .text._ZN10DataFilter26setArrayInitialConditionsYEPf:00000000 $t
C:\Users\Luis\AppData\Local\Temp\ccjBqsxj.s:1208   .text._ZN10DataFilter26setArrayInitialConditionsYEPf:00000000 _ZN10DataFilter26setArrayInitialConditionsYEPf
C:\Users\Luis\AppData\Local\Temp\ccjBqsxj.s:1268   .text._ZNK10DataFilter15getArrayInputsYEv:00000000 $t
C:\Users\Luis\AppData\Local\Temp\ccjBqsxj.s:1274   .text._ZNK10DataFilter15getArrayInputsYEv:00000000 _ZNK10DataFilter15getArrayInputsYEv
C:\Users\Luis\AppData\Local\Temp\ccjBqsxj.s:1304   .rodata._ZTV10DataFilter:00000000 $d
                     .debug_frame:00000010 $d
ARM GAS  C:\Users\Luis\AppData\Local\Temp\ccjBqsxj.s 			page 93


C:\Users\Luis\AppData\Local\Temp\ccjBqsxj.s:192    .text._ZN10DataFilterD2Ev:00000064 $t

UNDEFINED SYMBOLS
chHeapAlloc
chHeapFree
_ZdlPv
