ARM GAS  C:\Users\Luis\AppData\Local\Temp\ccO7oGOU.s 			page 1


   1              		.syntax unified
   2              		.cpu cortex-m4
   3              		.fpu softvfp
   4              		.eabi_attribute 20, 1
   5              		.eabi_attribute 21, 1
   6              		.eabi_attribute 23, 3
   7              		.eabi_attribute 24, 1
   8              		.eabi_attribute 25, 1
   9              		.eabi_attribute 26, 1
  10              		.eabi_attribute 30, 6
  11              		.eabi_attribute 34, 1
  12              		.eabi_attribute 18, 4
  13              		.thumb
  14              		.file	"Filter.cpp"
  15              		.text
  16              	.Ltext0:
  17              		.cfi_sections	.debug_frame
  18              		.section	.text._ZN6FilterD2Ev,"ax",%progbits
  19              		.align	2
  20              		.p2align 4,,15
  21              		.global	_ZN6FilterD2Ev
  22              		.thumb
  23              		.thumb_func
  24              		.type	_ZN6FilterD2Ev, %function
  25              	_ZN6FilterD2Ev:
  26              	.LFB261:
  27              		.file 1 "Filter.cpp"
  28              		.loc 1 10 0
  29              		.cfi_startproc
  30              		@ args = 0, pretend = 0, frame = 8
  31              		@ frame_needed = 1, uses_anonymous_args = 0
  32 0000 80B5     		push	{r7, lr}
  33              		.cfi_def_cfa_offset 8
  34              		.cfi_offset 7, -8
  35              		.cfi_offset 14, -4
  36 0002 82B0     		sub	sp, sp, #8
  37              		.cfi_def_cfa_offset 16
  38 0004 00AF     		add	r7, sp, #0
  39              		.cfi_def_cfa_register 7
  40 0006 7860     		str	r0, [r7, #4]
  41              	.LBB2:
  42              		.loc 1 10 0
  43 0008 7B68     		ldr	r3, [r7, #4]
  44 000a 0B4A     		ldr	r2, .L5
  45 000c 1A60     		str	r2, [r3]
  46              		.loc 1 11 0
  47 000e 7B68     		ldr	r3, [r7, #4]
  48 0010 5B68     		ldr	r3, [r3, #4]
  49 0012 1846     		mov	r0, r3
  50 0014 FFF7FEFF 		bl	chHeapFree
  51              		.loc 1 12 0
  52 0018 7B68     		ldr	r3, [r7, #4]
  53 001a 9B68     		ldr	r3, [r3, #8]
  54 001c 1846     		mov	r0, r3
  55 001e FFF7FEFF 		bl	chHeapFree
  56              	.LBE2:
  57              		.loc 1 13 0
ARM GAS  C:\Users\Luis\AppData\Local\Temp\ccO7oGOU.s 			page 2


  58 0022 0023     		movs	r3, #0
  59 0024 002B     		cmp	r3, #0
  60 0026 02D0     		beq	.L3
  61              		.loc 1 13 0 is_stmt 0 discriminator 1
  62 0028 7868     		ldr	r0, [r7, #4]
  63 002a FFF7FEFF 		bl	_ZdlPv
  64              	.L3:
  65              		.loc 1 13 0 discriminator 2
  66 002e 7B68     		ldr	r3, [r7, #4]
  67 0030 1846     		mov	r0, r3
  68 0032 0837     		adds	r7, r7, #8
  69 0034 BD46     		mov	sp, r7
  70              		@ sp needed
  71 0036 80BD     		pop	{r7, pc}
  72              	.L6:
  73              		.align	2
  74              	.L5:
  75 0038 08000000 		.word	_ZTV6Filter+8
  76              		.cfi_endproc
  77              	.LFE261:
  78              		.size	_ZN6FilterD2Ev, .-_ZN6FilterD2Ev
  79              		.global	_ZN6FilterD1Ev
  80              		.thumb_set _ZN6FilterD1Ev,_ZN6FilterD2Ev
  81 003c AFF30080 		.section	.text._ZN6FilterD0Ev,"ax",%progbits
  82              		.align	2
  83              		.p2align 4,,15
  84              		.global	_ZN6FilterD0Ev
  85              		.thumb
  86              		.thumb_func
  87              		.type	_ZN6FilterD0Ev, %function
  88              	_ZN6FilterD0Ev:
  89              	.LFB263:
  90              		.loc 1 10 0 is_stmt 1
  91              		.cfi_startproc
  92              		@ args = 0, pretend = 0, frame = 8
  93              		@ frame_needed = 1, uses_anonymous_args = 0
  94 0000 80B5     		push	{r7, lr}
  95              		.cfi_def_cfa_offset 8
  96              		.cfi_offset 7, -8
  97              		.cfi_offset 14, -4
  98 0002 82B0     		sub	sp, sp, #8
  99              		.cfi_def_cfa_offset 16
 100 0004 00AF     		add	r7, sp, #0
 101              		.cfi_def_cfa_register 7
 102 0006 7860     		str	r0, [r7, #4]
 103              		.loc 1 13 0
 104 0008 7868     		ldr	r0, [r7, #4]
 105 000a FFF7FEFF 		bl	_ZN6FilterD1Ev
 106 000e 7868     		ldr	r0, [r7, #4]
 107 0010 FFF7FEFF 		bl	_ZdlPv
 108 0014 7B68     		ldr	r3, [r7, #4]
 109 0016 1846     		mov	r0, r3
 110 0018 0837     		adds	r7, r7, #8
 111 001a BD46     		mov	sp, r7
 112              		@ sp needed
 113 001c 80BD     		pop	{r7, pc}
 114              		.cfi_endproc
ARM GAS  C:\Users\Luis\AppData\Local\Temp\ccO7oGOU.s 			page 3


 115              	.LFE263:
 116              		.size	_ZN6FilterD0Ev, .-_ZN6FilterD0Ev
 117 001e 00BF     		.section	.text._ZN6Filter20setInitialDataFilterEP10DataFilter,"ax",%progbits
 118              		.align	2
 119              		.p2align 4,,15
 120              		.global	_ZN6Filter20setInitialDataFilterEP10DataFilter
 121              		.thumb
 122              		.thumb_func
 123              		.type	_ZN6Filter20setInitialDataFilterEP10DataFilter, %function
 124              	_ZN6Filter20setInitialDataFilterEP10DataFilter:
 125              	.LFB264:
 126              		.loc 1 15 0
 127              		.cfi_startproc
 128              		@ args = 0, pretend = 0, frame = 8
 129              		@ frame_needed = 1, uses_anonymous_args = 0
 130 0000 80B5     		push	{r7, lr}
 131              		.cfi_def_cfa_offset 8
 132              		.cfi_offset 7, -8
 133              		.cfi_offset 14, -4
 134 0002 82B0     		sub	sp, sp, #8
 135              		.cfi_def_cfa_offset 16
 136 0004 00AF     		add	r7, sp, #0
 137              		.cfi_def_cfa_register 7
 138 0006 7860     		str	r0, [r7, #4]
 139 0008 3960     		str	r1, [r7]
 140              		.loc 1 17 0
 141 000a 0020     		movs	r0, #0
 142 000c 0421     		movs	r1, #4
 143 000e FFF7FEFF 		bl	chHeapAlloc
 144 0012 0246     		mov	r2, r0
 145 0014 7B68     		ldr	r3, [r7, #4]
 146 0016 5A60     		str	r2, [r3, #4]
 147              		.loc 1 18 0
 148 0018 7B68     		ldr	r3, [r7, #4]
 149 001a 3A68     		ldr	r2, [r7]
 150 001c 9A60     		str	r2, [r3, #8]
 151              		.loc 1 19 0
 152 001e 7B68     		ldr	r3, [r7, #4]
 153 0020 0022     		movs	r2, #0
 154 0022 DA60     		str	r2, [r3, #12]
 155              		.loc 1 20 0
 156 0024 0837     		adds	r7, r7, #8
 157 0026 BD46     		mov	sp, r7
 158              		@ sp needed
 159 0028 80BD     		pop	{r7, pc}
 160              		.cfi_endproc
 161              	.LFE264:
 162              		.size	_ZN6Filter20setInitialDataFilterEP10DataFilter, .-_ZN6Filter20setInitialDataFilterEP10DataFi
 163              		.global	_ZTV6Filter
 164 002a 00BFAFF3 		.section	.rodata._ZTV6Filter,"a",%progbits
 164      0080
 165              		.align	3
 166              		.type	_ZTV6Filter, %object
 167              		.size	_ZTV6Filter, 16
 168              	_ZTV6Filter:
 169 0000 00000000 		.word	0
 170 0004 00000000 		.word	0
ARM GAS  C:\Users\Luis\AppData\Local\Temp\ccO7oGOU.s 			page 4


 171 0008 00000000 		.word	_ZN6FilterD1Ev
 172 000c 00000000 		.word	_ZN6FilterD0Ev
 173              		.text
 174              	.Letext0:
 175              		.file 2 "c:\\emtechesdk\\gcc\\arm-none-eabi\\include\\stdint.h"
 176              		.file 3 "../../ChibiOS/os/rt/ports/ARMCMx/compilers/GCC/chtypes.h"
 177              		.file 4 "../../ChibiOS/os/rt/include/chsystypes.h"
 178              		.file 5 "../../ChibiOS/os/rt/include/chschd.h"
 179              		.file 6 "../../ChibiOS/os/rt/ports/ARMCMx/chcore.h"
 180              		.file 7 "../../ChibiOS/os/rt/ports/ARMCMx/chcore_v7m.h"
 181              		.file 8 "../../ChibiOS/os/rt/include/chdebug.h"
 182              		.file 9 "../../ChibiOS/os/rt/include/chtm.h"
 183              		.file 10 "../../ChibiOS/os/rt/include/chstats.h"
 184              		.file 11 "../../ChibiOS/os/rt/include/chsem.h"
 185              		.file 12 "../../ChibiOS/os/rt/include/chmtx.h"
 186              		.file 13 "header/FuntionsMath.h"
 187              		.file 14 "header/Filter.h"
 188              		.file 15 "../../ChibiOS/os/ext/CMSIS/include/core_cm4.h"