ARM GAS  C:\Users\Luis\AppData\Local\Temp\ccxMeQrH.s 			page 1


   1              		.syntax unified
   2              		.cpu cortex-m4
   3              		.fpu softvfp
   4              		.eabi_attribute 20, 1
   5              		.eabi_attribute 21, 1
   6              		.eabi_attribute 23, 3
   7              		.eabi_attribute 24, 1
   8              		.eabi_attribute 25, 1
   9              		.eabi_attribute 26, 1
  10              		.eabi_attribute 30, 6
  11              		.eabi_attribute 34, 1
  12              		.eabi_attribute 18, 4
  13              		.thumb
  14              		.file	"FIR.cpp"
  15              		.text
  16              	.Ltext0:
  17              		.cfi_sections	.debug_frame
  18              		.section	.text._ZN3FIRD2Ev,"ax",%progbits
  19              		.align	2
  20              		.p2align 4,,15
  21              		.global	_ZN3FIRD2Ev
  22              		.thumb
  23              		.thumb_func
  24              		.type	_ZN3FIRD2Ev, %function
  25              	_ZN3FIRD2Ev:
  26              	.LFB262:
  27              		.file 1 "FIR.cpp"
  28              		.loc 1 17 0
  29              		.cfi_startproc
  30              		@ args = 0, pretend = 0, frame = 8
  31              		@ frame_needed = 1, uses_anonymous_args = 0
  32 0000 80B5     		push	{r7, lr}
  33              		.cfi_def_cfa_offset 8
  34              		.cfi_offset 7, -8
  35              		.cfi_offset 14, -4
  36 0002 82B0     		sub	sp, sp, #8
  37              		.cfi_def_cfa_offset 16
  38 0004 00AF     		add	r7, sp, #0
  39              		.cfi_def_cfa_register 7
  40 0006 7860     		str	r0, [r7, #4]
  41              	.LBB2:
  42              		.loc 1 17 0
  43 0008 7B68     		ldr	r3, [r7, #4]
  44 000a 064A     		ldr	r2, .L5
  45 000c 1A60     		str	r2, [r3]
  46              	.LBE2:
  47              		.loc 1 19 0
  48 000e 0023     		movs	r3, #0
  49 0010 002B     		cmp	r3, #0
  50 0012 02D0     		beq	.L3
  51              		.loc 1 19 0 is_stmt 0 discriminator 1
  52 0014 7868     		ldr	r0, [r7, #4]
  53 0016 FFF7FEFF 		bl	_ZdlPv
  54              	.L3:
  55              		.loc 1 19 0 discriminator 2
  56 001a 7B68     		ldr	r3, [r7, #4]
  57 001c 1846     		mov	r0, r3
ARM GAS  C:\Users\Luis\AppData\Local\Temp\ccxMeQrH.s 			page 2


  58 001e 0837     		adds	r7, r7, #8
  59 0020 BD46     		mov	sp, r7
  60              		@ sp needed
  61 0022 80BD     		pop	{r7, pc}
  62              	.L6:
  63              		.align	2
  64              	.L5:
  65 0024 08000000 		.word	_ZTV3FIR+8
  66              		.cfi_endproc
  67              	.LFE262:
  68              		.size	_ZN3FIRD2Ev, .-_ZN3FIRD2Ev
  69              		.global	_ZN3FIRD1Ev
  70              		.thumb_set _ZN3FIRD1Ev,_ZN3FIRD2Ev
  71 0028 AFF30080 		.section	.text._ZN3FIRD0Ev,"ax",%progbits
  71      AFF30080 
  72              		.align	2
  73              		.p2align 4,,15
  74              		.global	_ZN3FIRD0Ev
  75              		.thumb
  76              		.thumb_func
  77              		.type	_ZN3FIRD0Ev, %function
  78              	_ZN3FIRD0Ev:
  79              	.LFB264:
  80              		.loc 1 17 0 is_stmt 1
  81              		.cfi_startproc
  82              		@ args = 0, pretend = 0, frame = 8
  83              		@ frame_needed = 1, uses_anonymous_args = 0
  84 0000 80B5     		push	{r7, lr}
  85              		.cfi_def_cfa_offset 8
  86              		.cfi_offset 7, -8
  87              		.cfi_offset 14, -4
  88 0002 82B0     		sub	sp, sp, #8
  89              		.cfi_def_cfa_offset 16
  90 0004 00AF     		add	r7, sp, #0
  91              		.cfi_def_cfa_register 7
  92 0006 7860     		str	r0, [r7, #4]
  93              		.loc 1 19 0
  94 0008 7868     		ldr	r0, [r7, #4]
  95 000a FFF7FEFF 		bl	_ZN3FIRD1Ev
  96 000e 7868     		ldr	r0, [r7, #4]
  97 0010 FFF7FEFF 		bl	_ZdlPv
  98 0014 7B68     		ldr	r3, [r7, #4]
  99 0016 1846     		mov	r0, r3
 100 0018 0837     		adds	r7, r7, #8
 101 001a BD46     		mov	sp, r7
 102              		@ sp needed
 103 001c 80BD     		pop	{r7, pc}
 104              		.cfi_endproc
 105              	.LFE264:
 106              		.size	_ZN3FIRD0Ev, .-_ZN3FIRD0Ev
 107 001e 00BF     		.section	.text._ZN3FIR11directFormIEf,"ax",%progbits
 108              		.align	2
 109              		.p2align 4,,15
 110              		.global	_ZN3FIR11directFormIEf
 111              		.thumb
 112              		.thumb_func
 113              		.type	_ZN3FIR11directFormIEf, %function
ARM GAS  C:\Users\Luis\AppData\Local\Temp\ccxMeQrH.s 			page 3


 114              	_ZN3FIR11directFormIEf:
 115              	.LFB265:
 116              		.loc 1 21 0
 117              		.cfi_startproc
 118              		@ args = 0, pretend = 0, frame = 32
 119              		@ frame_needed = 1, uses_anonymous_args = 0
 120 0000 80B5     		push	{r7, lr}
 121              		.cfi_def_cfa_offset 8
 122              		.cfi_offset 7, -8
 123              		.cfi_offset 14, -4
 124 0002 8AB0     		sub	sp, sp, #40
 125              		.cfi_def_cfa_offset 48
 126 0004 02AF     		add	r7, sp, #8
 127              		.cfi_def_cfa 7, 40
 128 0006 7860     		str	r0, [r7, #4]
 129 0008 3960     		str	r1, [r7]	@ float
 130              	.LBB3:
 131              		.loc 1 24 0
 132 000a 7B68     		ldr	r3, [r7, #4]
 133 000c 9B68     		ldr	r3, [r3, #8]
 134 000e 1846     		mov	r0, r3
 135 0010 FFF7FEFF 		bl	_ZNK10DataFilter15getArrayInputsXEv
 136 0014 F861     		str	r0, [r7, #28]
 137              		.loc 1 26 0
 138 0016 7B68     		ldr	r3, [r7, #4]
 139 0018 9B68     		ldr	r3, [r3, #8]
 140 001a 1846     		mov	r0, r3
 141 001c FFF7FEFF 		bl	_ZNK10DataFilter14getFilterOrderEv
 142 0020 B861     		str	r0, [r7, #24]
 143              		.loc 1 29 0
 144 0022 7B68     		ldr	r3, [r7, #4]
 145 0024 9B68     		ldr	r3, [r3, #8]
 146 0026 1846     		mov	r0, r3
 147 0028 FFF7FEFF 		bl	_ZNK10DataFilter21getArrayCoefficientsBEv
 148 002c 7861     		str	r0, [r7, #20]
 149              		.loc 1 34 0
 150 002e 7B68     		ldr	r3, [r7, #4]
 151 0030 DB68     		ldr	r3, [r3, #12]
 152 0032 0A2B     		cmp	r3, #10
 153 0034 08D1     		bne	.L11
 154              		.loc 1 35 0
 155 0036 7B68     		ldr	r3, [r7, #4]
 156 0038 9B68     		ldr	r3, [r3, #8]
 157 003a 1846     		mov	r0, r3
 158 003c F969     		ldr	r1, [r7, #28]
 159 003e FFF7FEFF 		bl	_ZN10DataFilter9moveArrayEPf
 160              		.loc 1 36 0
 161 0042 7B68     		ldr	r3, [r7, #4]
 162 0044 0022     		movs	r2, #0
 163 0046 DA60     		str	r2, [r3, #12]
 164              	.L11:
 165              		.loc 1 39 0
 166 0048 7B68     		ldr	r3, [r7, #4]
 167 004a DA68     		ldr	r2, [r3, #12]
 168 004c BB69     		ldr	r3, [r7, #24]
 169 004e 1344     		add	r3, r3, r2
 170 0050 3B61     		str	r3, [r7, #16]
ARM GAS  C:\Users\Luis\AppData\Local\Temp\ccxMeQrH.s 			page 4


 171              		.loc 1 42 0
 172 0052 3B69     		ldr	r3, [r7, #16]
 173 0054 9B00     		lsls	r3, r3, #2
 174 0056 FA69     		ldr	r2, [r7, #28]
 175 0058 1344     		add	r3, r3, r2
 176 005a 3A68     		ldr	r2, [r7]	@ float
 177 005c 1A60     		str	r2, [r3]	@ float
 178              		.loc 1 46 0
 179 005e 7B68     		ldr	r3, [r7, #4]
 180 0060 5B68     		ldr	r3, [r3, #4]
 181 0062 7A68     		ldr	r2, [r7, #4]
 182 0064 D268     		ldr	r2, [r2, #12]
 183 0066 F969     		ldr	r1, [r7, #28]
 184 0068 0091     		str	r1, [sp]
 185 006a 0192     		str	r2, [sp, #4]
 186 006c 1846     		mov	r0, r3
 187 006e B969     		ldr	r1, [r7, #24]
 188 0070 0022     		movs	r2, #0
 189 0072 7B69     		ldr	r3, [r7, #20]
 190 0074 FFF7FEFF 		bl	_ZN12FuntionsMath3sumEiiPfS0_i
 191 0078 F860     		str	r0, [r7, #12]	@ float
 192              		.loc 1 48 0
 193 007a 7B68     		ldr	r3, [r7, #4]
 194 007c DB68     		ldr	r3, [r3, #12]
 195 007e 5A1C     		adds	r2, r3, #1
 196 0080 7B68     		ldr	r3, [r7, #4]
 197 0082 DA60     		str	r2, [r3, #12]
 198              		.loc 1 50 0
 199 0084 FB68     		ldr	r3, [r7, #12]	@ float
 200              	.LBE3:
 201              		.loc 1 51 0
 202 0086 1846     		mov	r0, r3
 203 0088 2037     		adds	r7, r7, #32
 204 008a BD46     		mov	sp, r7
 205              		@ sp needed
 206 008c 80BD     		pop	{r7, pc}
 207              		.cfi_endproc
 208              	.LFE265:
 209              		.size	_ZN3FIR11directFormIEf, .-_ZN3FIR11directFormIEf
 210 008e 00BF     		.section	.text._ZN3FIR20setInitialDataFilterEP10DataFilter,"ax",%progbits
 211              		.align	2
 212              		.p2align 4,,15
 213              		.global	_ZN3FIR20setInitialDataFilterEP10DataFilter
 214              		.thumb
 215              		.thumb_func
 216              		.type	_ZN3FIR20setInitialDataFilterEP10DataFilter, %function
 217              	_ZN3FIR20setInitialDataFilterEP10DataFilter:
 218              	.LFB266:
 219              		.loc 1 53 0
 220              		.cfi_startproc
 221              		@ args = 0, pretend = 0, frame = 8
 222              		@ frame_needed = 1, uses_anonymous_args = 0
 223 0000 80B5     		push	{r7, lr}
 224              		.cfi_def_cfa_offset 8
 225              		.cfi_offset 7, -8
 226              		.cfi_offset 14, -4
 227 0002 82B0     		sub	sp, sp, #8
ARM GAS  C:\Users\Luis\AppData\Local\Temp\ccxMeQrH.s 			page 5


 228              		.cfi_def_cfa_offset 16
 229 0004 00AF     		add	r7, sp, #0
 230              		.cfi_def_cfa_register 7
 231 0006 7860     		str	r0, [r7, #4]
 232 0008 3960     		str	r1, [r7]
 233              		.loc 1 55 0
 234 000a 0020     		movs	r0, #0
 235 000c 0421     		movs	r1, #4
 236 000e FFF7FEFF 		bl	chHeapAlloc
 237 0012 0246     		mov	r2, r0
 238 0014 7B68     		ldr	r3, [r7, #4]
 239 0016 5A60     		str	r2, [r3, #4]
 240              		.loc 1 56 0
 241 0018 7B68     		ldr	r3, [r7, #4]
 242 001a 3A68     		ldr	r2, [r7]
 243 001c 9A60     		str	r2, [r3, #8]
 244              		.loc 1 57 0
 245 001e 7B68     		ldr	r3, [r7, #4]
 246 0020 0022     		movs	r2, #0
 247 0022 DA60     		str	r2, [r3, #12]
 248              		.loc 1 58 0
 249 0024 7B68     		ldr	r3, [r7, #4]
 250 0026 9B68     		ldr	r3, [r3, #8]
 251 0028 1846     		mov	r0, r3
 252 002a FFF7FEFF 		bl	_ZN10DataFilter16createArrayInputEv
 253              		.loc 1 59 0
 254 002e 0837     		adds	r7, r7, #8
 255 0030 BD46     		mov	sp, r7
 256              		@ sp needed
 257 0032 80BD     		pop	{r7, pc}
 258              		.cfi_endproc
 259              	.LFE266:
 260              		.size	_ZN3FIR20setInitialDataFilterEP10DataFilter, .-_ZN3FIR20setInitialDataFilterEP10DataFilter
 261              		.global	_ZTV3FIR
 262 0034 AFF30080 		.section	.rodata._ZTV3FIR,"a",%progbits
 262      AFF30080 
 262      AFF30080 
 263              		.align	3
 264              		.type	_ZTV3FIR, %object
 265              		.size	_ZTV3FIR, 16
 266              	_ZTV3FIR:
 267 0000 00000000 		.word	0
 268 0004 00000000 		.word	0
 269 0008 00000000 		.word	_ZN3FIRD1Ev
 270 000c 00000000 		.word	_ZN3FIRD0Ev
 271              		.text
 272              	.Letext0:
 273              		.file 2 "c:\\emtechesdk\\gcc\\arm-none-eabi\\include\\stdint.h"
 274              		.file 3 "../../ChibiOS/os/rt/ports/ARMCMx/compilers/GCC/chtypes.h"
 275              		.file 4 "../../ChibiOS/os/rt/include/chsystypes.h"
 276              		.file 5 "../../ChibiOS/os/rt/include/chschd.h"
 277              		.file 6 "../../ChibiOS/os/rt/ports/ARMCMx/chcore.h"
 278              		.file 7 "../../ChibiOS/os/rt/ports/ARMCMx/chcore_v7m.h"
 279              		.file 8 "../../ChibiOS/os/rt/include/chdebug.h"
 280              		.file 9 "../../ChibiOS/os/rt/include/chtm.h"
 281              		.file 10 "../../ChibiOS/os/rt/include/chstats.h"
 282              		.file 11 "../../ChibiOS/os/rt/include/chsem.h"
ARM GAS  C:\Users\Luis\AppData\Local\Temp\ccxMeQrH.s 			page 6


 283              		.file 12 "../../ChibiOS/os/rt/include/chmtx.h"
 284              		.file 13 "header/FIR.h"
 285              		.file 14 "../../ChibiOS/os/ext/CMSIS/include/core_cm4.h"