ARM GAS  C:\Users\Luis\AppData\Local\Temp\ccthZE7v.s 			page 1


   1              		.syntax unified
   2              		.cpu cortex-m4
   3              		.fpu softvfp
   4              		.eabi_attribute 20, 1
   5              		.eabi_attribute 21, 1
   6              		.eabi_attribute 23, 3
   7              		.eabi_attribute 24, 1
   8              		.eabi_attribute 25, 1
   9              		.eabi_attribute 26, 1
  10              		.eabi_attribute 30, 6
  11              		.eabi_attribute 34, 1
  12              		.eabi_attribute 18, 4
  13              		.thumb
  14              		.file	"FuntionsMath.cpp"
  15              		.text
  16              	.Ltext0:
  17              		.cfi_sections	.debug_frame
  18              		.section	.text._ZN12FuntionsMathC2Ev,"ax",%progbits
  19              		.align	2
  20              		.p2align 4,,15
  21              		.global	_ZN12FuntionsMathC2Ev
  22              		.thumb
  23              		.thumb_func
  24              		.type	_ZN12FuntionsMathC2Ev, %function
  25              	_ZN12FuntionsMathC2Ev:
  26              	.LFB1:
  27              		.file 1 "FuntionsMath.cpp"
  28              		.loc 1 11 0
  29              		.cfi_startproc
  30              		@ args = 0, pretend = 0, frame = 8
  31              		@ frame_needed = 1, uses_anonymous_args = 0
  32              		@ link register save eliminated.
  33 0000 80B4     		push	{r7}
  34              		.cfi_def_cfa_offset 4
  35              		.cfi_offset 7, -4
  36 0002 83B0     		sub	sp, sp, #12
  37              		.cfi_def_cfa_offset 16
  38 0004 00AF     		add	r7, sp, #0
  39              		.cfi_def_cfa_register 7
  40 0006 7860     		str	r0, [r7, #4]
  41              	.LBB2:
  42              		.loc 1 11 0
  43 0008 7B68     		ldr	r3, [r7, #4]
  44 000a 044A     		ldr	r2, .L4
  45 000c 1A60     		str	r2, [r3]
  46              	.LBE2:
  47              		.loc 1 13 0
  48 000e 7B68     		ldr	r3, [r7, #4]
  49 0010 1846     		mov	r0, r3
  50 0012 0C37     		adds	r7, r7, #12
  51 0014 BD46     		mov	sp, r7
  52              		@ sp needed
  53 0016 5DF8047B 		ldr	r7, [sp], #4
  54 001a 7047     		bx	lr
  55              	.L5:
  56              		.align	2
  57              	.L4:
ARM GAS  C:\Users\Luis\AppData\Local\Temp\ccthZE7v.s 			page 2


  58 001c 08000000 		.word	_ZTV12FuntionsMath+8
  59              		.cfi_endproc
  60              	.LFE1:
  61              		.size	_ZN12FuntionsMathC2Ev, .-_ZN12FuntionsMathC2Ev
  62              		.global	_ZN12FuntionsMathC1Ev
  63              		.thumb_set _ZN12FuntionsMathC1Ev,_ZN12FuntionsMathC2Ev
  64              		.global	__aeabi_fmul
  65              		.global	__aeabi_fadd
  66              		.section	.text._ZN12FuntionsMath3sumEiiPfS0_i,"ax",%progbits
  67              		.align	2
  68              		.p2align 4,,15
  69              		.global	_ZN12FuntionsMath3sumEiiPfS0_i
  70              		.thumb
  71              		.thumb_func
  72              		.type	_ZN12FuntionsMath3sumEiiPfS0_i, %function
  73              	_ZN12FuntionsMath3sumEiiPfS0_i:
  74              	.LFB3:
  75              		.loc 1 16 0
  76              		.cfi_startproc
  77              		@ args = 8, pretend = 0, frame = 24
  78              		@ frame_needed = 1, uses_anonymous_args = 0
  79 0000 80B5     		push	{r7, lr}
  80              		.cfi_def_cfa_offset 8
  81              		.cfi_offset 7, -8
  82              		.cfi_offset 14, -4
  83 0002 86B0     		sub	sp, sp, #24
  84              		.cfi_def_cfa_offset 32
  85 0004 00AF     		add	r7, sp, #0
  86              		.cfi_def_cfa_register 7
  87 0006 F860     		str	r0, [r7, #12]
  88 0008 B960     		str	r1, [r7, #8]
  89 000a 7A60     		str	r2, [r7, #4]
  90 000c 3B60     		str	r3, [r7]
  91              	.LBB3:
  92              		.loc 1 18 0
  93 000e 4FF00003 		mov	r3, #0
  94 0012 7B61     		str	r3, [r7, #20]	@ float
  95              		.loc 1 19 0
  96 0014 0023     		movs	r3, #0
  97 0016 3B61     		str	r3, [r7, #16]
  98              		.loc 1 21 0
  99 0018 FB68     		ldr	r3, [r7, #12]
 100 001a 7A68     		ldr	r2, [r7, #4]
 101 001c 5A60     		str	r2, [r3, #4]
 102 001e 21E0     		b	.L7
 103              	.L8:
 104              		.loc 1 23 0 discriminator 2
 105 0020 7A6A     		ldr	r2, [r7, #36]
 106 0022 BB68     		ldr	r3, [r7, #8]
 107 0024 1344     		add	r3, r3, r2
 108 0026 3B61     		str	r3, [r7, #16]
 109              		.loc 1 24 0 discriminator 2
 110 0028 FB68     		ldr	r3, [r7, #12]
 111 002a 5B68     		ldr	r3, [r3, #4]
 112 002c 9B00     		lsls	r3, r3, #2
 113 002e 3A68     		ldr	r2, [r7]
 114 0030 1344     		add	r3, r3, r2
ARM GAS  C:\Users\Luis\AppData\Local\Temp\ccthZE7v.s 			page 3


 115 0032 1A68     		ldr	r2, [r3]	@ float
 116 0034 3B69     		ldr	r3, [r7, #16]
 117 0036 9B00     		lsls	r3, r3, #2
 118 0038 396A     		ldr	r1, [r7, #32]
 119 003a 0B44     		add	r3, r3, r1
 120 003c 1B68     		ldr	r3, [r3]	@ float
 121 003e 1046     		mov	r0, r2
 122 0040 1946     		mov	r1, r3
 123 0042 FFF7FEFF 		bl	__aeabi_fmul
 124 0046 0346     		mov	r3, r0
 125 0048 7869     		ldr	r0, [r7, #20]	@ float
 126 004a 1946     		mov	r1, r3
 127 004c FFF7FEFF 		bl	__aeabi_fadd
 128 0050 0346     		mov	r3, r0
 129 0052 7B61     		str	r3, [r7, #20]	@ float
 130              		.loc 1 26 0 discriminator 2
 131 0054 7B6A     		ldr	r3, [r7, #36]
 132 0056 013B     		subs	r3, r3, #1
 133 0058 7B62     		str	r3, [r7, #36]
 134              		.loc 1 21 0 discriminator 2
 135 005a FB68     		ldr	r3, [r7, #12]
 136 005c 5B68     		ldr	r3, [r3, #4]
 137 005e 5A1C     		adds	r2, r3, #1
 138 0060 FB68     		ldr	r3, [r7, #12]
 139 0062 5A60     		str	r2, [r3, #4]
 140              	.L7:
 141              		.loc 1 21 0 is_stmt 0 discriminator 1
 142 0064 FB68     		ldr	r3, [r7, #12]
 143 0066 5A68     		ldr	r2, [r3, #4]
 144 0068 BB68     		ldr	r3, [r7, #8]
 145 006a 9A42     		cmp	r2, r3
 146 006c D8DD     		ble	.L8
 147              		.loc 1 28 0 is_stmt 1
 148 006e 7B69     		ldr	r3, [r7, #20]	@ float
 149              	.LBE3:
 150              		.loc 1 29 0
 151 0070 1846     		mov	r0, r3
 152 0072 1837     		adds	r7, r7, #24
 153 0074 BD46     		mov	sp, r7
 154              		@ sp needed
 155 0076 80BD     		pop	{r7, pc}
 156              		.cfi_endproc
 157              	.LFE3:
 158              		.size	_ZN12FuntionsMath3sumEiiPfS0_i, .-_ZN12FuntionsMath3sumEiiPfS0_i
 159 0078 AFF30080 		.section	.text._ZN12FuntionsMathD2Ev,"ax",%progbits
 159      AFF30080 
 160              		.align	2
 161              		.p2align 4,,15
 162              		.global	_ZN12FuntionsMathD2Ev
 163              		.thumb
 164              		.thumb_func
 165              		.type	_ZN12FuntionsMathD2Ev, %function
 166              	_ZN12FuntionsMathD2Ev:
 167              	.LFB5:
 168              		.loc 1 32 0
 169              		.cfi_startproc
 170              		@ args = 0, pretend = 0, frame = 8
ARM GAS  C:\Users\Luis\AppData\Local\Temp\ccthZE7v.s 			page 4


 171              		@ frame_needed = 1, uses_anonymous_args = 0
 172 0000 80B5     		push	{r7, lr}
 173              		.cfi_def_cfa_offset 8
 174              		.cfi_offset 7, -8
 175              		.cfi_offset 14, -4
 176 0002 82B0     		sub	sp, sp, #8
 177              		.cfi_def_cfa_offset 16
 178 0004 00AF     		add	r7, sp, #0
 179              		.cfi_def_cfa_register 7
 180 0006 7860     		str	r0, [r7, #4]
 181              	.LBB4:
 182              		.loc 1 32 0
 183 0008 7B68     		ldr	r3, [r7, #4]
 184 000a 064A     		ldr	r2, .L14
 185 000c 1A60     		str	r2, [r3]
 186              	.LBE4:
 187              		.loc 1 34 0
 188 000e 0023     		movs	r3, #0
 189 0010 002B     		cmp	r3, #0
 190 0012 02D0     		beq	.L12
 191              		.loc 1 34 0 is_stmt 0 discriminator 1
 192 0014 7868     		ldr	r0, [r7, #4]
 193 0016 FFF7FEFF 		bl	_ZdlPv
 194              	.L12:
 195              		.loc 1 34 0 discriminator 2
 196 001a 7B68     		ldr	r3, [r7, #4]
 197 001c 1846     		mov	r0, r3
 198 001e 0837     		adds	r7, r7, #8
 199 0020 BD46     		mov	sp, r7
 200              		@ sp needed
 201 0022 80BD     		pop	{r7, pc}
 202              	.L15:
 203              		.align	2
 204              	.L14:
 205 0024 08000000 		.word	_ZTV12FuntionsMath+8
 206              		.cfi_endproc
 207              	.LFE5:
 208              		.size	_ZN12FuntionsMathD2Ev, .-_ZN12FuntionsMathD2Ev
 209              		.global	_ZN12FuntionsMathD1Ev
 210              		.thumb_set _ZN12FuntionsMathD1Ev,_ZN12FuntionsMathD2Ev
 211 0028 AFF30080 		.section	.text._ZN12FuntionsMathD0Ev,"ax",%progbits
 211      AFF30080 
 212              		.align	2
 213              		.p2align 4,,15
 214              		.global	_ZN12FuntionsMathD0Ev
 215              		.thumb
 216              		.thumb_func
 217              		.type	_ZN12FuntionsMathD0Ev, %function
 218              	_ZN12FuntionsMathD0Ev:
 219              	.LFB7:
 220              		.loc 1 32 0 is_stmt 1
 221              		.cfi_startproc
 222              		@ args = 0, pretend = 0, frame = 8
 223              		@ frame_needed = 1, uses_anonymous_args = 0
 224 0000 80B5     		push	{r7, lr}
 225              		.cfi_def_cfa_offset 8
 226              		.cfi_offset 7, -8
ARM GAS  C:\Users\Luis\AppData\Local\Temp\ccthZE7v.s 			page 5


 227              		.cfi_offset 14, -4
 228 0002 82B0     		sub	sp, sp, #8
 229              		.cfi_def_cfa_offset 16
 230 0004 00AF     		add	r7, sp, #0
 231              		.cfi_def_cfa_register 7
 232 0006 7860     		str	r0, [r7, #4]
 233              		.loc 1 34 0
 234 0008 7868     		ldr	r0, [r7, #4]
 235 000a FFF7FEFF 		bl	_ZN12FuntionsMathD1Ev
 236 000e 7868     		ldr	r0, [r7, #4]
 237 0010 FFF7FEFF 		bl	_ZdlPv
 238 0014 7B68     		ldr	r3, [r7, #4]
 239 0016 1846     		mov	r0, r3
 240 0018 0837     		adds	r7, r7, #8
 241 001a BD46     		mov	sp, r7
 242              		@ sp needed
 243 001c 80BD     		pop	{r7, pc}
 244              		.cfi_endproc
 245              	.LFE7:
 246              		.size	_ZN12FuntionsMathD0Ev, .-_ZN12FuntionsMathD0Ev
 247              		.global	_ZTV12FuntionsMath
 248 001e 00BF     		.section	.rodata._ZTV12FuntionsMath,"a",%progbits
 249              		.align	3
 250              		.type	_ZTV12FuntionsMath, %object
 251              		.size	_ZTV12FuntionsMath, 16
 252              	_ZTV12FuntionsMath:
 253 0000 00000000 		.word	0
 254 0004 00000000 		.word	0
 255 0008 00000000 		.word	_ZN12FuntionsMathD1Ev
 256 000c 00000000 		.word	_ZN12FuntionsMathD0Ev
 257              		.text
 258              	.Letext0:
 259              		.file 2 "header/FuntionsMath.h"