ARM GAS  C:\Users\Luis\AppData\Local\Temp\cc7KJw2g.s 			page 1


   1              		.syntax unified
   2              		.cpu cortex-m4
   3              		.fpu softvfp
   4              		.eabi_attribute 20, 1
   5              		.eabi_attribute 21, 1
   6              		.eabi_attribute 23, 3
   7              		.eabi_attribute 24, 1
   8              		.eabi_attribute 25, 1
   9              		.eabi_attribute 26, 1
  10              		.eabi_attribute 30, 6
  11              		.eabi_attribute 34, 1
  12              		.eabi_attribute 18, 4
  13              		.thumb
  14              		.file	"FuntionsMath.cpp"
  15              		.text
  16              	.Ltext0:
  17              		.cfi_sections	.debug_frame
  18              		.section	.text._ZN12FuntionsMathC2Ev,"ax",%progbits
  19              		.align	2
  20              		.p2align 4,,15
  21              		.global	_ZN12FuntionsMathC2Ev
  22              		.thumb
  23              		.thumb_func
  24              		.type	_ZN12FuntionsMathC2Ev, %function
  25              	_ZN12FuntionsMathC2Ev:
  26              	.LFB1:
  27              		.file 1 "FuntionsMath.cpp"
  28              		.loc 1 11 0
  29              		.cfi_startproc
  30              		@ args = 0, pretend = 0, frame = 8
  31              		@ frame_needed = 1, uses_anonymous_args = 0
  32              		@ link register save eliminated.
  33 0000 80B4     		push	{r7}
  34              		.cfi_def_cfa_offset 4
  35              		.cfi_offset 7, -4
  36 0002 83B0     		sub	sp, sp, #12
  37              		.cfi_def_cfa_offset 16
  38 0004 00AF     		add	r7, sp, #0
  39              		.cfi_def_cfa_register 7
  40 0006 7860     		str	r0, [r7, #4]
  41              	.LBB2:
  42              		.loc 1 11 0
  43 0008 7B68     		ldr	r3, [r7, #4]
  44 000a 044A     		ldr	r2, .L4
  45 000c 1A60     		str	r2, [r3]
  46              	.LBE2:
  47              		.loc 1 13 0
  48 000e 7B68     		ldr	r3, [r7, #4]
  49 0010 1846     		mov	r0, r3
  50 0012 0C37     		adds	r7, r7, #12
  51 0014 BD46     		mov	sp, r7
  52              		@ sp needed
  53 0016 5DF8047B 		ldr	r7, [sp], #4
  54 001a 7047     		bx	lr
  55              	.L5:
  56              		.align	2
  57              	.L4:
ARM GAS  C:\Users\Luis\AppData\Local\Temp\cc7KJw2g.s 			page 2


  58 001c 08000000 		.word	_ZTV12FuntionsMath+8
  59              		.cfi_endproc
  60              	.LFE1:
  61              		.size	_ZN12FuntionsMathC2Ev, .-_ZN12FuntionsMathC2Ev
  62              		.global	_ZN12FuntionsMathC1Ev
  63              		.thumb_set _ZN12FuntionsMathC1Ev,_ZN12FuntionsMathC2Ev
  64              		.global	__aeabi_fmul
  65              		.global	__aeabi_fadd
  66              		.section	.text._ZN12FuntionsMath3sumEiiPfS0_i,"ax",%progbits
  67              		.align	2
  68              		.p2align 4,,15
  69              		.global	_ZN12FuntionsMath3sumEiiPfS0_i
  70              		.thumb
  71              		.thumb_func
  72              		.type	_ZN12FuntionsMath3sumEiiPfS0_i, %function
  73              	_ZN12FuntionsMath3sumEiiPfS0_i:
  74              	.LFB3:
  75              		.loc 1 16 0
  76              		.cfi_startproc
  77              		@ args = 8, pretend = 0, frame = 32
  78              		@ frame_needed = 1, uses_anonymous_args = 0
  79 0000 80B5     		push	{r7, lr}
  80              		.cfi_def_cfa_offset 8
  81              		.cfi_offset 7, -8
  82              		.cfi_offset 14, -4
  83 0002 88B0     		sub	sp, sp, #32
  84              		.cfi_def_cfa_offset 40
  85 0004 00AF     		add	r7, sp, #0
  86              		.cfi_def_cfa_register 7
  87 0006 F860     		str	r0, [r7, #12]
  88 0008 B960     		str	r1, [r7, #8]
  89 000a 7A60     		str	r2, [r7, #4]
  90 000c 3B60     		str	r3, [r7]
  91              	.LBB3:
  92              		.loc 1 18 0
  93 000e 4FF00003 		mov	r3, #0
  94 0012 FB61     		str	r3, [r7, #28]	@ float
  95              		.loc 1 19 0
  96 0014 0023     		movs	r3, #0
  97 0016 7B61     		str	r3, [r7, #20]
  98              		.loc 1 22 0
  99 0018 7B68     		ldr	r3, [r7, #4]
 100 001a BB61     		str	r3, [r7, #24]
 101 001c 1EE0     		b	.L7
 102              	.L8:
 103              		.loc 1 24 0 discriminator 2
 104 001e FA6A     		ldr	r2, [r7, #44]
 105 0020 BB68     		ldr	r3, [r7, #8]
 106 0022 1344     		add	r3, r3, r2
 107 0024 7B61     		str	r3, [r7, #20]
 108              		.loc 1 25 0 discriminator 2
 109 0026 BB69     		ldr	r3, [r7, #24]
 110 0028 9B00     		lsls	r3, r3, #2
 111 002a 3A68     		ldr	r2, [r7]
 112 002c 1344     		add	r3, r3, r2
 113 002e 1A68     		ldr	r2, [r3]	@ float
 114 0030 7B69     		ldr	r3, [r7, #20]
ARM GAS  C:\Users\Luis\AppData\Local\Temp\cc7KJw2g.s 			page 3


 115 0032 9B00     		lsls	r3, r3, #2
 116 0034 B96A     		ldr	r1, [r7, #40]
 117 0036 0B44     		add	r3, r3, r1
 118 0038 1B68     		ldr	r3, [r3]	@ float
 119 003a 1046     		mov	r0, r2
 120 003c 1946     		mov	r1, r3
 121 003e FFF7FEFF 		bl	__aeabi_fmul
 122 0042 0346     		mov	r3, r0
 123 0044 F869     		ldr	r0, [r7, #28]	@ float
 124 0046 1946     		mov	r1, r3
 125 0048 FFF7FEFF 		bl	__aeabi_fadd
 126 004c 0346     		mov	r3, r0
 127 004e FB61     		str	r3, [r7, #28]	@ float
 128              		.loc 1 27 0 discriminator 2
 129 0050 FB6A     		ldr	r3, [r7, #44]
 130 0052 013B     		subs	r3, r3, #1
 131 0054 FB62     		str	r3, [r7, #44]
 132              		.loc 1 22 0 discriminator 2
 133 0056 BB69     		ldr	r3, [r7, #24]
 134 0058 0133     		adds	r3, r3, #1
 135 005a BB61     		str	r3, [r7, #24]
 136              	.L7:
 137              		.loc 1 22 0 is_stmt 0 discriminator 1
 138 005c BA69     		ldr	r2, [r7, #24]
 139 005e BB68     		ldr	r3, [r7, #8]
 140 0060 9A42     		cmp	r2, r3
 141 0062 DCDD     		ble	.L8
 142              		.loc 1 29 0 is_stmt 1
 143 0064 FB69     		ldr	r3, [r7, #28]	@ float
 144              	.LBE3:
 145              		.loc 1 30 0
 146 0066 1846     		mov	r0, r3
 147 0068 2037     		adds	r7, r7, #32
 148 006a BD46     		mov	sp, r7
 149              		@ sp needed
 150 006c 80BD     		pop	{r7, pc}
 151              		.cfi_endproc
 152              	.LFE3:
 153              		.size	_ZN12FuntionsMath3sumEiiPfS0_i, .-_ZN12FuntionsMath3sumEiiPfS0_i
 154 006e 00BF     		.section	.text._ZN12FuntionsMathD2Ev,"ax",%progbits
 155              		.align	2
 156              		.p2align 4,,15
 157              		.global	_ZN12FuntionsMathD2Ev
 158              		.thumb
 159              		.thumb_func
 160              		.type	_ZN12FuntionsMathD2Ev, %function
 161              	_ZN12FuntionsMathD2Ev:
 162              	.LFB5:
 163              		.loc 1 33 0
 164              		.cfi_startproc
 165              		@ args = 0, pretend = 0, frame = 8
 166              		@ frame_needed = 1, uses_anonymous_args = 0
 167 0000 80B5     		push	{r7, lr}
 168              		.cfi_def_cfa_offset 8
 169              		.cfi_offset 7, -8
 170              		.cfi_offset 14, -4
 171 0002 82B0     		sub	sp, sp, #8
ARM GAS  C:\Users\Luis\AppData\Local\Temp\cc7KJw2g.s 			page 4


 172              		.cfi_def_cfa_offset 16
 173 0004 00AF     		add	r7, sp, #0
 174              		.cfi_def_cfa_register 7
 175 0006 7860     		str	r0, [r7, #4]
 176              	.LBB4:
 177              		.loc 1 33 0
 178 0008 7B68     		ldr	r3, [r7, #4]
 179 000a 064A     		ldr	r2, .L14
 180 000c 1A60     		str	r2, [r3]
 181              	.LBE4:
 182              		.loc 1 35 0
 183 000e 0023     		movs	r3, #0
 184 0010 002B     		cmp	r3, #0
 185 0012 02D0     		beq	.L12
 186              		.loc 1 35 0 is_stmt 0 discriminator 1
 187 0014 7868     		ldr	r0, [r7, #4]
 188 0016 FFF7FEFF 		bl	_ZdlPv
 189              	.L12:
 190              		.loc 1 35 0 discriminator 2
 191 001a 7B68     		ldr	r3, [r7, #4]
 192 001c 1846     		mov	r0, r3
 193 001e 0837     		adds	r7, r7, #8
 194 0020 BD46     		mov	sp, r7
 195              		@ sp needed
 196 0022 80BD     		pop	{r7, pc}
 197              	.L15:
 198              		.align	2
 199              	.L14:
 200 0024 08000000 		.word	_ZTV12FuntionsMath+8
 201              		.cfi_endproc
 202              	.LFE5:
 203              		.size	_ZN12FuntionsMathD2Ev, .-_ZN12FuntionsMathD2Ev
 204              		.global	_ZN12FuntionsMathD1Ev
 205              		.thumb_set _ZN12FuntionsMathD1Ev,_ZN12FuntionsMathD2Ev
 206 0028 AFF30080 		.section	.text._ZN12FuntionsMathD0Ev,"ax",%progbits
 206      AFF30080 
 207              		.align	2
 208              		.p2align 4,,15
 209              		.global	_ZN12FuntionsMathD0Ev
 210              		.thumb
 211              		.thumb_func
 212              		.type	_ZN12FuntionsMathD0Ev, %function
 213              	_ZN12FuntionsMathD0Ev:
 214              	.LFB7:
 215              		.loc 1 33 0 is_stmt 1
 216              		.cfi_startproc
 217              		@ args = 0, pretend = 0, frame = 8
 218              		@ frame_needed = 1, uses_anonymous_args = 0
 219 0000 80B5     		push	{r7, lr}
 220              		.cfi_def_cfa_offset 8
 221              		.cfi_offset 7, -8
 222              		.cfi_offset 14, -4
 223 0002 82B0     		sub	sp, sp, #8
 224              		.cfi_def_cfa_offset 16
 225 0004 00AF     		add	r7, sp, #0
 226              		.cfi_def_cfa_register 7
 227 0006 7860     		str	r0, [r7, #4]
ARM GAS  C:\Users\Luis\AppData\Local\Temp\cc7KJw2g.s 			page 5


 228              		.loc 1 35 0
 229 0008 7868     		ldr	r0, [r7, #4]
 230 000a FFF7FEFF 		bl	_ZN12FuntionsMathD1Ev
 231 000e 7868     		ldr	r0, [r7, #4]
 232 0010 FFF7FEFF 		bl	_ZdlPv
 233 0014 7B68     		ldr	r3, [r7, #4]
 234 0016 1846     		mov	r0, r3
 235 0018 0837     		adds	r7, r7, #8
 236 001a BD46     		mov	sp, r7
 237              		@ sp needed
 238 001c 80BD     		pop	{r7, pc}
 239              		.cfi_endproc
 240              	.LFE7:
 241              		.size	_ZN12FuntionsMathD0Ev, .-_ZN12FuntionsMathD0Ev
 242              		.global	_ZTV12FuntionsMath
 243 001e 00BF     		.section	.rodata._ZTV12FuntionsMath,"a",%progbits
 244              		.align	3
 245              		.type	_ZTV12FuntionsMath, %object
 246              		.size	_ZTV12FuntionsMath, 16
 247              	_ZTV12FuntionsMath:
 248 0000 00000000 		.word	0
 249 0004 00000000 		.word	0
 250 0008 00000000 		.word	_ZN12FuntionsMathD1Ev
 251 000c 00000000 		.word	_ZN12FuntionsMathD0Ev
 252              		.text
 253              	.Letext0:
 254              		.file 2 "header/FuntionsMath.h"
 255              		.section	.debug_info,"",%progbits
 256              	.Ldebug_info0:
 257 0000 57020000 		.4byte	0x257
 258 0004 0400     		.2byte	0x4
 259 0006 00000000 		.4byte	.Ldebug_abbrev0
 260 000a 04       		.byte	0x4
 261 000b 01       		.uleb128 0x1
 262 000c 00000000 		.4byte	.LASF14
 263 0010 04       		.byte	0x4
 264 0011 29020000 		.4byte	.LASF15
 265 0015 E2010000 		.4byte	.LASF16
 266 0019 00000000 		.4byte	.Ldebug_ranges0+0
 267 001d 00000000 		.4byte	0
 268 0021 00000000 		.4byte	.Ldebug_line0
 269 0025 02       		.uleb128 0x2
 270 0026 C9010000 		.4byte	.LASF17
 271 002a 04       		.byte	0x4
 272 002b 02       		.byte	0x2
 273 002c 0B       		.byte	0xb
 274 002d 25000000 		.4byte	0x25
 275 0031 CF000000 		.4byte	0xcf
 276 0035 03       		.uleb128 0x3
 277 0036 EE000000 		.4byte	.LASF18
 278 003a E1000000 		.4byte	0xe1
 279 003e 00       		.byte	0
 280 003f 01       		.byte	0x1
 281 0040 04       		.uleb128 0x4
 282 0041 C9010000 		.4byte	.LASF17
 283 0045 F1000000 		.4byte	0xf1
 284 0049 01       		.byte	0x1
ARM GAS  C:\Users\Luis\AppData\Local\Temp\cc7KJw2g.s 			page 6


 285 004a 52000000 		.4byte	0x52
 286 004e 5D000000 		.4byte	0x5d
 287 0052 05       		.uleb128 0x5
 288 0053 F1000000 		.4byte	0xf1
 289 0057 06       		.uleb128 0x6
 290 0058 F7000000 		.4byte	0xf7
 291 005c 00       		.byte	0
 292 005d 07       		.uleb128 0x7
 293 005e C9010000 		.4byte	.LASF17
 294 0062 01       		.byte	0x1
 295 0063 0B       		.byte	0xb
 296 0064 F1000000 		.4byte	0xf1
 297 0068 01       		.byte	0x1
 298 0069 71000000 		.4byte	0x71
 299 006d 77000000 		.4byte	0x77
 300 0071 05       		.uleb128 0x5
 301 0072 F1000000 		.4byte	0xf1
 302 0076 00       		.byte	0
 303 0077 08       		.uleb128 0x8
 304 0078 73756D00 		.ascii	"sum\000"
 305 007c 01       		.byte	0x1
 306 007d 0F       		.byte	0xf
 307 007e 2D010000 		.4byte	.LASF19
 308 0082 02010000 		.4byte	0x102
 309 0086 01       		.byte	0x1
 310 0087 8F000000 		.4byte	0x8f
 311 008b AE000000 		.4byte	0xae
 312 008f 05       		.uleb128 0x5
 313 0090 F1000000 		.4byte	0xf1
 314 0094 06       		.uleb128 0x6
 315 0095 DA000000 		.4byte	0xda
 316 0099 06       		.uleb128 0x6
 317 009a DA000000 		.4byte	0xda
 318 009e 06       		.uleb128 0x6
 319 009f 09010000 		.4byte	0x109
 320 00a3 06       		.uleb128 0x6
 321 00a4 09010000 		.4byte	0x109
 322 00a8 06       		.uleb128 0x6
 323 00a9 DA000000 		.4byte	0xda
 324 00ad 00       		.byte	0
 325 00ae 09       		.uleb128 0x9
 326 00af BB010000 		.4byte	.LASF0
 327 00b3 01       		.byte	0x1
 328 00b4 21       		.byte	0x21
 329 00b5 0F010000 		.4byte	0x10f
 330 00b9 01       		.byte	0x1
 331 00ba 25000000 		.4byte	0x25
 332 00be 01       		.byte	0x1
 333 00bf C3000000 		.4byte	0xc3
 334 00c3 05       		.uleb128 0x5
 335 00c4 F1000000 		.4byte	0xf1
 336 00c8 05       		.uleb128 0x5
 337 00c9 DA000000 		.4byte	0xda
 338 00cd 00       		.byte	0
 339 00ce 00       		.byte	0
 340 00cf 0A       		.uleb128 0xa
 341 00d0 DA000000 		.4byte	0xda
ARM GAS  C:\Users\Luis\AppData\Local\Temp\cc7KJw2g.s 			page 7


 342 00d4 DA000000 		.4byte	0xda
 343 00d8 0B       		.uleb128 0xb
 344 00d9 00       		.byte	0
 345 00da 0C       		.uleb128 0xc
 346 00db 04       		.byte	0x4
 347 00dc 05       		.byte	0x5
 348 00dd 696E7400 		.ascii	"int\000"
 349 00e1 0D       		.uleb128 0xd
 350 00e2 04       		.byte	0x4
 351 00e3 E7000000 		.4byte	0xe7
 352 00e7 0E       		.uleb128 0xe
 353 00e8 04       		.byte	0x4
 354 00e9 59010000 		.4byte	.LASF20
 355 00ed CF000000 		.4byte	0xcf
 356 00f1 0D       		.uleb128 0xd
 357 00f2 04       		.byte	0x4
 358 00f3 25000000 		.4byte	0x25
 359 00f7 0F       		.uleb128 0xf
 360 00f8 04       		.byte	0x4
 361 00f9 FD000000 		.4byte	0xfd
 362 00fd 10       		.uleb128 0x10
 363 00fe 25000000 		.4byte	0x25
 364 0102 11       		.uleb128 0x11
 365 0103 04       		.byte	0x4
 366 0104 04       		.byte	0x4
 367 0105 69010000 		.4byte	.LASF1
 368 0109 0D       		.uleb128 0xd
 369 010a 04       		.byte	0x4
 370 010b 02010000 		.4byte	0x102
 371 010f 12       		.uleb128 0x12
 372 0110 04       		.byte	0x4
 373 0111 13       		.uleb128 0x13
 374 0112 5D000000 		.4byte	0x5d
 375 0116 00       		.byte	0
 376 0117 1F010000 		.4byte	0x11f
 377 011b 29010000 		.4byte	0x129
 378 011f 14       		.uleb128 0x14
 379 0120 87010000 		.4byte	.LASF10
 380 0124 29010000 		.4byte	0x129
 381 0128 00       		.byte	0
 382 0129 10       		.uleb128 0x10
 383 012a F1000000 		.4byte	0xf1
 384 012e 15       		.uleb128 0x15
 385 012f 11010000 		.4byte	0x111
 386 0133 01010000 		.4byte	.LASF12
 387 0137 00000000 		.4byte	.LFB1
 388 013b 20000000 		.4byte	.LFE1-.LFB1
 389 013f 01       		.uleb128 0x1
 390 0140 9C       		.byte	0x9c
 391 0141 49010000 		.4byte	0x149
 392 0145 52010000 		.4byte	0x152
 393 0149 16       		.uleb128 0x16
 394 014a 1F010000 		.4byte	0x11f
 395 014e 02       		.uleb128 0x2
 396 014f 91       		.byte	0x91
 397 0150 74       		.sleb128 -12
 398 0151 00       		.byte	0
ARM GAS  C:\Users\Luis\AppData\Local\Temp\cc7KJw2g.s 			page 8


 399 0152 17       		.uleb128 0x17
 400 0153 77000000 		.4byte	0x77
 401 0157 00000000 		.4byte	.LFB3
 402 015b 6E000000 		.4byte	.LFE3-.LFB3
 403 015f 01       		.uleb128 0x1
 404 0160 9C       		.byte	0x9c
 405 0161 69010000 		.4byte	0x169
 406 0165 F0010000 		.4byte	0x1f0
 407 0169 18       		.uleb128 0x18
 408 016a 87010000 		.4byte	.LASF10
 409 016e 29010000 		.4byte	0x129
 410 0172 02       		.uleb128 0x2
 411 0173 91       		.byte	0x91
 412 0174 64       		.sleb128 -28
 413 0175 19       		.uleb128 0x19
 414 0176 99010000 		.4byte	.LASF2
 415 017a 01       		.byte	0x1
 416 017b 0F       		.byte	0xf
 417 017c DA000000 		.4byte	0xda
 418 0180 02       		.uleb128 0x2
 419 0181 91       		.byte	0x91
 420 0182 60       		.sleb128 -32
 421 0183 19       		.uleb128 0x19
 422 0184 D6010000 		.4byte	.LASF3
 423 0188 01       		.byte	0x1
 424 0189 0F       		.byte	0xf
 425 018a DA000000 		.4byte	0xda
 426 018e 02       		.uleb128 0x2
 427 018f 91       		.byte	0x91
 428 0190 5C       		.sleb128 -36
 429 0191 19       		.uleb128 0x19
 430 0192 1B020000 		.4byte	.LASF4
 431 0196 01       		.byte	0x1
 432 0197 0F       		.byte	0xf
 433 0198 09010000 		.4byte	0x109
 434 019c 02       		.uleb128 0x2
 435 019d 91       		.byte	0x91
 436 019e 58       		.sleb128 -40
 437 019f 19       		.uleb128 0x19
 438 01a0 4C010000 		.4byte	.LASF5
 439 01a4 01       		.byte	0x1
 440 01a5 10       		.byte	0x10
 441 01a6 09010000 		.4byte	0x109
 442 01aa 02       		.uleb128 0x2
 443 01ab 91       		.byte	0x91
 444 01ac 00       		.sleb128 0
 445 01ad 19       		.uleb128 0x19
 446 01ae 6F010000 		.4byte	.LASF6
 447 01b2 01       		.byte	0x1
 448 01b3 10       		.byte	0x10
 449 01b4 DA000000 		.4byte	0xda
 450 01b8 02       		.uleb128 0x2
 451 01b9 91       		.byte	0x91
 452 01ba 04       		.sleb128 4
 453 01bb 1A       		.uleb128 0x1a
 454 01bc 0E000000 		.4byte	.LBB3
 455 01c0 58000000 		.4byte	.LBE3-.LBB3
ARM GAS  C:\Users\Luis\AppData\Local\Temp\cc7KJw2g.s 			page 9


 456 01c4 1B       		.uleb128 0x1b
 457 01c5 75010000 		.4byte	.LASF7
 458 01c9 01       		.byte	0x1
 459 01ca 12       		.byte	0x12
 460 01cb 02010000 		.4byte	0x102
 461 01cf 02       		.uleb128 0x2
 462 01d0 91       		.byte	0x91
 463 01d1 74       		.sleb128 -12
 464 01d2 1B       		.uleb128 0x1b
 465 01d3 8C010000 		.4byte	.LASF8
 466 01d7 01       		.byte	0x1
 467 01d8 13       		.byte	0x13
 468 01d9 DA000000 		.4byte	0xda
 469 01dd 02       		.uleb128 0x2
 470 01de 91       		.byte	0x91
 471 01df 6C       		.sleb128 -20
 472 01e0 1B       		.uleb128 0x1b
 473 01e1 53010000 		.4byte	.LASF9
 474 01e5 01       		.byte	0x1
 475 01e6 14       		.byte	0x14
 476 01e7 DA000000 		.4byte	0xda
 477 01eb 02       		.uleb128 0x2
 478 01ec 91       		.byte	0x91
 479 01ed 70       		.sleb128 -16
 480 01ee 00       		.byte	0
 481 01ef 00       		.byte	0
 482 01f0 13       		.uleb128 0x13
 483 01f1 AE000000 		.4byte	0xae
 484 01f5 00       		.byte	0
 485 01f6 FE010000 		.4byte	0x1fe
 486 01fa 11020000 		.4byte	0x211
 487 01fe 14       		.uleb128 0x14
 488 01ff 87010000 		.4byte	.LASF10
 489 0203 29010000 		.4byte	0x129
 490 0207 14       		.uleb128 0x14
 491 0208 7D010000 		.4byte	.LASF11
 492 020c 11020000 		.4byte	0x211
 493 0210 00       		.byte	0
 494 0211 10       		.uleb128 0x10
 495 0212 DA000000 		.4byte	0xda
 496 0216 1C       		.uleb128 0x1c
 497 0217 F0010000 		.4byte	0x1f0
 498 021b A5010000 		.4byte	.LASF13
 499 021f 00000000 		.4byte	.LFB5
 500 0223 28000000 		.4byte	.LFE5-.LFB5
 501 0227 01       		.uleb128 0x1
 502 0228 9C       		.byte	0x9c
 503 0229 31020000 		.4byte	0x231
 504 022d 3A020000 		.4byte	0x23a
 505 0231 16       		.uleb128 0x16
 506 0232 FE010000 		.4byte	0x1fe
 507 0236 02       		.uleb128 0x2
 508 0237 91       		.byte	0x91
 509 0238 74       		.sleb128 -12
 510 0239 00       		.byte	0
 511 023a 1D       		.uleb128 0x1d
 512 023b F0010000 		.4byte	0x1f0
ARM GAS  C:\Users\Luis\AppData\Local\Temp\cc7KJw2g.s 			page 10


 513 023f 17010000 		.4byte	.LASF21
 514 0243 00000000 		.4byte	.LFB7
 515 0247 1E000000 		.4byte	.LFE7-.LFB7
 516 024b 01       		.uleb128 0x1
 517 024c 9C       		.byte	0x9c
 518 024d 51020000 		.4byte	0x251
 519 0251 16       		.uleb128 0x16
 520 0252 FE010000 		.4byte	0x1fe
 521 0256 02       		.uleb128 0x2
 522 0257 91       		.byte	0x91
 523 0258 74       		.sleb128 -12
 524 0259 00       		.byte	0
 525 025a 00       		.byte	0
 526              		.section	.debug_abbrev,"",%progbits
 527              	.Ldebug_abbrev0:
 528 0000 01       		.uleb128 0x1
 529 0001 11       		.uleb128 0x11
 530 0002 01       		.byte	0x1
 531 0003 25       		.uleb128 0x25
 532 0004 0E       		.uleb128 0xe
 533 0005 13       		.uleb128 0x13
 534 0006 0B       		.uleb128 0xb
 535 0007 03       		.uleb128 0x3
 536 0008 0E       		.uleb128 0xe
 537 0009 1B       		.uleb128 0x1b
 538 000a 0E       		.uleb128 0xe
 539 000b 55       		.uleb128 0x55
 540 000c 17       		.uleb128 0x17
 541 000d 11       		.uleb128 0x11
 542 000e 01       		.uleb128 0x1
 543 000f 10       		.uleb128 0x10
 544 0010 17       		.uleb128 0x17
 545 0011 00       		.byte	0
 546 0012 00       		.byte	0
 547 0013 02       		.uleb128 0x2
 548 0014 02       		.uleb128 0x2
 549 0015 01       		.byte	0x1
 550 0016 03       		.uleb128 0x3
 551 0017 0E       		.uleb128 0xe
 552 0018 0B       		.uleb128 0xb
 553 0019 0B       		.uleb128 0xb
 554 001a 3A       		.uleb128 0x3a
 555 001b 0B       		.uleb128 0xb
 556 001c 3B       		.uleb128 0x3b
 557 001d 0B       		.uleb128 0xb
 558 001e 1D       		.uleb128 0x1d
 559 001f 13       		.uleb128 0x13
 560 0020 01       		.uleb128 0x1
 561 0021 13       		.uleb128 0x13
 562 0022 00       		.byte	0
 563 0023 00       		.byte	0
 564 0024 03       		.uleb128 0x3
 565 0025 0D       		.uleb128 0xd
 566 0026 00       		.byte	0
 567 0027 03       		.uleb128 0x3
 568 0028 0E       		.uleb128 0xe
 569 0029 49       		.uleb128 0x49
ARM GAS  C:\Users\Luis\AppData\Local\Temp\cc7KJw2g.s 			page 11


 570 002a 13       		.uleb128 0x13
 571 002b 38       		.uleb128 0x38
 572 002c 0B       		.uleb128 0xb
 573 002d 34       		.uleb128 0x34
 574 002e 19       		.uleb128 0x19
 575 002f 32       		.uleb128 0x32
 576 0030 0B       		.uleb128 0xb
 577 0031 00       		.byte	0
 578 0032 00       		.byte	0
 579 0033 04       		.uleb128 0x4
 580 0034 2E       		.uleb128 0x2e
 581 0035 01       		.byte	0x1
 582 0036 3F       		.uleb128 0x3f
 583 0037 19       		.uleb128 0x19
 584 0038 03       		.uleb128 0x3
 585 0039 0E       		.uleb128 0xe
 586 003a 49       		.uleb128 0x49
 587 003b 13       		.uleb128 0x13
 588 003c 34       		.uleb128 0x34
 589 003d 19       		.uleb128 0x19
 590 003e 32       		.uleb128 0x32
 591 003f 0B       		.uleb128 0xb
 592 0040 3C       		.uleb128 0x3c
 593 0041 19       		.uleb128 0x19
 594 0042 64       		.uleb128 0x64
 595 0043 13       		.uleb128 0x13
 596 0044 01       		.uleb128 0x1
 597 0045 13       		.uleb128 0x13
 598 0046 00       		.byte	0
 599 0047 00       		.byte	0
 600 0048 05       		.uleb128 0x5
 601 0049 05       		.uleb128 0x5
 602 004a 00       		.byte	0
 603 004b 49       		.uleb128 0x49
 604 004c 13       		.uleb128 0x13
 605 004d 34       		.uleb128 0x34
 606 004e 19       		.uleb128 0x19
 607 004f 00       		.byte	0
 608 0050 00       		.byte	0
 609 0051 06       		.uleb128 0x6
 610 0052 05       		.uleb128 0x5
 611 0053 00       		.byte	0
 612 0054 49       		.uleb128 0x49
 613 0055 13       		.uleb128 0x13
 614 0056 00       		.byte	0
 615 0057 00       		.byte	0
 616 0058 07       		.uleb128 0x7
 617 0059 2E       		.uleb128 0x2e
 618 005a 01       		.byte	0x1
 619 005b 3F       		.uleb128 0x3f
 620 005c 19       		.uleb128 0x19
 621 005d 03       		.uleb128 0x3
 622 005e 0E       		.uleb128 0xe
 623 005f 3A       		.uleb128 0x3a
 624 0060 0B       		.uleb128 0xb
 625 0061 3B       		.uleb128 0x3b
 626 0062 0B       		.uleb128 0xb
ARM GAS  C:\Users\Luis\AppData\Local\Temp\cc7KJw2g.s 			page 12


 627 0063 49       		.uleb128 0x49
 628 0064 13       		.uleb128 0x13
 629 0065 32       		.uleb128 0x32
 630 0066 0B       		.uleb128 0xb
 631 0067 3C       		.uleb128 0x3c
 632 0068 19       		.uleb128 0x19
 633 0069 64       		.uleb128 0x64
 634 006a 13       		.uleb128 0x13
 635 006b 01       		.uleb128 0x1
 636 006c 13       		.uleb128 0x13
 637 006d 00       		.byte	0
 638 006e 00       		.byte	0
 639 006f 08       		.uleb128 0x8
 640 0070 2E       		.uleb128 0x2e
 641 0071 01       		.byte	0x1
 642 0072 3F       		.uleb128 0x3f
 643 0073 19       		.uleb128 0x19
 644 0074 03       		.uleb128 0x3
 645 0075 08       		.uleb128 0x8
 646 0076 3A       		.uleb128 0x3a
 647 0077 0B       		.uleb128 0xb
 648 0078 3B       		.uleb128 0x3b
 649 0079 0B       		.uleb128 0xb
 650 007a 6E       		.uleb128 0x6e
 651 007b 0E       		.uleb128 0xe
 652 007c 49       		.uleb128 0x49
 653 007d 13       		.uleb128 0x13
 654 007e 32       		.uleb128 0x32
 655 007f 0B       		.uleb128 0xb
 656 0080 3C       		.uleb128 0x3c
 657 0081 19       		.uleb128 0x19
 658 0082 64       		.uleb128 0x64
 659 0083 13       		.uleb128 0x13
 660 0084 01       		.uleb128 0x1
 661 0085 13       		.uleb128 0x13
 662 0086 00       		.byte	0
 663 0087 00       		.byte	0
 664 0088 09       		.uleb128 0x9
 665 0089 2E       		.uleb128 0x2e
 666 008a 01       		.byte	0x1
 667 008b 3F       		.uleb128 0x3f
 668 008c 19       		.uleb128 0x19
 669 008d 03       		.uleb128 0x3
 670 008e 0E       		.uleb128 0xe
 671 008f 3A       		.uleb128 0x3a
 672 0090 0B       		.uleb128 0xb
 673 0091 3B       		.uleb128 0x3b
 674 0092 0B       		.uleb128 0xb
 675 0093 49       		.uleb128 0x49
 676 0094 13       		.uleb128 0x13
 677 0095 4C       		.uleb128 0x4c
 678 0096 0B       		.uleb128 0xb
 679 0097 1D       		.uleb128 0x1d
 680 0098 13       		.uleb128 0x13
 681 0099 32       		.uleb128 0x32
 682 009a 0B       		.uleb128 0xb
 683 009b 3C       		.uleb128 0x3c
ARM GAS  C:\Users\Luis\AppData\Local\Temp\cc7KJw2g.s 			page 13


 684 009c 19       		.uleb128 0x19
 685 009d 64       		.uleb128 0x64
 686 009e 13       		.uleb128 0x13
 687 009f 00       		.byte	0
 688 00a0 00       		.byte	0
 689 00a1 0A       		.uleb128 0xa
 690 00a2 15       		.uleb128 0x15
 691 00a3 01       		.byte	0x1
 692 00a4 49       		.uleb128 0x49
 693 00a5 13       		.uleb128 0x13
 694 00a6 01       		.uleb128 0x1
 695 00a7 13       		.uleb128 0x13
 696 00a8 00       		.byte	0
 697 00a9 00       		.byte	0
 698 00aa 0B       		.uleb128 0xb
 699 00ab 18       		.uleb128 0x18
 700 00ac 00       		.byte	0
 701 00ad 00       		.byte	0
 702 00ae 00       		.byte	0
 703 00af 0C       		.uleb128 0xc
 704 00b0 24       		.uleb128 0x24
 705 00b1 00       		.byte	0
 706 00b2 0B       		.uleb128 0xb
 707 00b3 0B       		.uleb128 0xb
 708 00b4 3E       		.uleb128 0x3e
 709 00b5 0B       		.uleb128 0xb
 710 00b6 03       		.uleb128 0x3
 711 00b7 08       		.uleb128 0x8
 712 00b8 00       		.byte	0
 713 00b9 00       		.byte	0
 714 00ba 0D       		.uleb128 0xd
 715 00bb 0F       		.uleb128 0xf
 716 00bc 00       		.byte	0
 717 00bd 0B       		.uleb128 0xb
 718 00be 0B       		.uleb128 0xb
 719 00bf 49       		.uleb128 0x49
 720 00c0 13       		.uleb128 0x13
 721 00c1 00       		.byte	0
 722 00c2 00       		.byte	0
 723 00c3 0E       		.uleb128 0xe
 724 00c4 0F       		.uleb128 0xf
 725 00c5 00       		.byte	0
 726 00c6 0B       		.uleb128 0xb
 727 00c7 0B       		.uleb128 0xb
 728 00c8 03       		.uleb128 0x3
 729 00c9 0E       		.uleb128 0xe
 730 00ca 49       		.uleb128 0x49
 731 00cb 13       		.uleb128 0x13
 732 00cc 00       		.byte	0
 733 00cd 00       		.byte	0
 734 00ce 0F       		.uleb128 0xf
 735 00cf 10       		.uleb128 0x10
 736 00d0 00       		.byte	0
 737 00d1 0B       		.uleb128 0xb
 738 00d2 0B       		.uleb128 0xb
 739 00d3 49       		.uleb128 0x49
 740 00d4 13       		.uleb128 0x13
ARM GAS  C:\Users\Luis\AppData\Local\Temp\cc7KJw2g.s 			page 14


 741 00d5 00       		.byte	0
 742 00d6 00       		.byte	0
 743 00d7 10       		.uleb128 0x10
 744 00d8 26       		.uleb128 0x26
 745 00d9 00       		.byte	0
 746 00da 49       		.uleb128 0x49
 747 00db 13       		.uleb128 0x13
 748 00dc 00       		.byte	0
 749 00dd 00       		.byte	0
 750 00de 11       		.uleb128 0x11
 751 00df 24       		.uleb128 0x24
 752 00e0 00       		.byte	0
 753 00e1 0B       		.uleb128 0xb
 754 00e2 0B       		.uleb128 0xb
 755 00e3 3E       		.uleb128 0x3e
 756 00e4 0B       		.uleb128 0xb
 757 00e5 03       		.uleb128 0x3
 758 00e6 0E       		.uleb128 0xe
 759 00e7 00       		.byte	0
 760 00e8 00       		.byte	0
 761 00e9 12       		.uleb128 0x12
 762 00ea 0F       		.uleb128 0xf
 763 00eb 00       		.byte	0
 764 00ec 0B       		.uleb128 0xb
 765 00ed 0B       		.uleb128 0xb
 766 00ee 00       		.byte	0
 767 00ef 00       		.byte	0
 768 00f0 13       		.uleb128 0x13
 769 00f1 2E       		.uleb128 0x2e
 770 00f2 01       		.byte	0x1
 771 00f3 47       		.uleb128 0x47
 772 00f4 13       		.uleb128 0x13
 773 00f5 20       		.uleb128 0x20
 774 00f6 0B       		.uleb128 0xb
 775 00f7 64       		.uleb128 0x64
 776 00f8 13       		.uleb128 0x13
 777 00f9 01       		.uleb128 0x1
 778 00fa 13       		.uleb128 0x13
 779 00fb 00       		.byte	0
 780 00fc 00       		.byte	0
 781 00fd 14       		.uleb128 0x14
 782 00fe 05       		.uleb128 0x5
 783 00ff 00       		.byte	0
 784 0100 03       		.uleb128 0x3
 785 0101 0E       		.uleb128 0xe
 786 0102 49       		.uleb128 0x49
 787 0103 13       		.uleb128 0x13
 788 0104 34       		.uleb128 0x34
 789 0105 19       		.uleb128 0x19
 790 0106 00       		.byte	0
 791 0107 00       		.byte	0
 792 0108 15       		.uleb128 0x15
 793 0109 2E       		.uleb128 0x2e
 794 010a 01       		.byte	0x1
 795 010b 31       		.uleb128 0x31
 796 010c 13       		.uleb128 0x13
 797 010d 6E       		.uleb128 0x6e
ARM GAS  C:\Users\Luis\AppData\Local\Temp\cc7KJw2g.s 			page 15


 798 010e 0E       		.uleb128 0xe
 799 010f 11       		.uleb128 0x11
 800 0110 01       		.uleb128 0x1
 801 0111 12       		.uleb128 0x12
 802 0112 06       		.uleb128 0x6
 803 0113 40       		.uleb128 0x40
 804 0114 18       		.uleb128 0x18
 805 0115 64       		.uleb128 0x64
 806 0116 13       		.uleb128 0x13
 807 0117 9742     		.uleb128 0x2117
 808 0119 19       		.uleb128 0x19
 809 011a 01       		.uleb128 0x1
 810 011b 13       		.uleb128 0x13
 811 011c 00       		.byte	0
 812 011d 00       		.byte	0
 813 011e 16       		.uleb128 0x16
 814 011f 05       		.uleb128 0x5
 815 0120 00       		.byte	0
 816 0121 31       		.uleb128 0x31
 817 0122 13       		.uleb128 0x13
 818 0123 02       		.uleb128 0x2
 819 0124 18       		.uleb128 0x18
 820 0125 00       		.byte	0
 821 0126 00       		.byte	0
 822 0127 17       		.uleb128 0x17
 823 0128 2E       		.uleb128 0x2e
 824 0129 01       		.byte	0x1
 825 012a 47       		.uleb128 0x47
 826 012b 13       		.uleb128 0x13
 827 012c 11       		.uleb128 0x11
 828 012d 01       		.uleb128 0x1
 829 012e 12       		.uleb128 0x12
 830 012f 06       		.uleb128 0x6
 831 0130 40       		.uleb128 0x40
 832 0131 18       		.uleb128 0x18
 833 0132 64       		.uleb128 0x64
 834 0133 13       		.uleb128 0x13
 835 0134 9642     		.uleb128 0x2116
 836 0136 19       		.uleb128 0x19
 837 0137 01       		.uleb128 0x1
 838 0138 13       		.uleb128 0x13
 839 0139 00       		.byte	0
 840 013a 00       		.byte	0
 841 013b 18       		.uleb128 0x18
 842 013c 05       		.uleb128 0x5
 843 013d 00       		.byte	0
 844 013e 03       		.uleb128 0x3
 845 013f 0E       		.uleb128 0xe
 846 0140 49       		.uleb128 0x49
 847 0141 13       		.uleb128 0x13
 848 0142 34       		.uleb128 0x34
 849 0143 19       		.uleb128 0x19
 850 0144 02       		.uleb128 0x2
 851 0145 18       		.uleb128 0x18
 852 0146 00       		.byte	0
 853 0147 00       		.byte	0
 854 0148 19       		.uleb128 0x19
ARM GAS  C:\Users\Luis\AppData\Local\Temp\cc7KJw2g.s 			page 16


 855 0149 05       		.uleb128 0x5
 856 014a 00       		.byte	0
 857 014b 03       		.uleb128 0x3
 858 014c 0E       		.uleb128 0xe
 859 014d 3A       		.uleb128 0x3a
 860 014e 0B       		.uleb128 0xb
 861 014f 3B       		.uleb128 0x3b
 862 0150 0B       		.uleb128 0xb
 863 0151 49       		.uleb128 0x49
 864 0152 13       		.uleb128 0x13
 865 0153 02       		.uleb128 0x2
 866 0154 18       		.uleb128 0x18
 867 0155 00       		.byte	0
 868 0156 00       		.byte	0
 869 0157 1A       		.uleb128 0x1a
 870 0158 0B       		.uleb128 0xb
 871 0159 01       		.byte	0x1
 872 015a 11       		.uleb128 0x11
 873 015b 01       		.uleb128 0x1
 874 015c 12       		.uleb128 0x12
 875 015d 06       		.uleb128 0x6
 876 015e 00       		.byte	0
 877 015f 00       		.byte	0
 878 0160 1B       		.uleb128 0x1b
 879 0161 34       		.uleb128 0x34
 880 0162 00       		.byte	0
 881 0163 03       		.uleb128 0x3
 882 0164 0E       		.uleb128 0xe
 883 0165 3A       		.uleb128 0x3a
 884 0166 0B       		.uleb128 0xb
 885 0167 3B       		.uleb128 0x3b
 886 0168 0B       		.uleb128 0xb
 887 0169 49       		.uleb128 0x49
 888 016a 13       		.uleb128 0x13
 889 016b 02       		.uleb128 0x2
 890 016c 18       		.uleb128 0x18
 891 016d 00       		.byte	0
 892 016e 00       		.byte	0
 893 016f 1C       		.uleb128 0x1c
 894 0170 2E       		.uleb128 0x2e
 895 0171 01       		.byte	0x1
 896 0172 31       		.uleb128 0x31
 897 0173 13       		.uleb128 0x13
 898 0174 6E       		.uleb128 0x6e
 899 0175 0E       		.uleb128 0xe
 900 0176 11       		.uleb128 0x11
 901 0177 01       		.uleb128 0x1
 902 0178 12       		.uleb128 0x12
 903 0179 06       		.uleb128 0x6
 904 017a 40       		.uleb128 0x40
 905 017b 18       		.uleb128 0x18
 906 017c 64       		.uleb128 0x64
 907 017d 13       		.uleb128 0x13
 908 017e 9642     		.uleb128 0x2116
 909 0180 19       		.uleb128 0x19
 910 0181 01       		.uleb128 0x1
 911 0182 13       		.uleb128 0x13
ARM GAS  C:\Users\Luis\AppData\Local\Temp\cc7KJw2g.s 			page 17


 912 0183 00       		.byte	0
 913 0184 00       		.byte	0
 914 0185 1D       		.uleb128 0x1d
 915 0186 2E       		.uleb128 0x2e
 916 0187 01       		.byte	0x1
 917 0188 31       		.uleb128 0x31
 918 0189 13       		.uleb128 0x13
 919 018a 6E       		.uleb128 0x6e
 920 018b 0E       		.uleb128 0xe
 921 018c 11       		.uleb128 0x11
 922 018d 01       		.uleb128 0x1
 923 018e 12       		.uleb128 0x12
 924 018f 06       		.uleb128 0x6
 925 0190 40       		.uleb128 0x40
 926 0191 18       		.uleb128 0x18
 927 0192 64       		.uleb128 0x64
 928 0193 13       		.uleb128 0x13
 929 0194 9642     		.uleb128 0x2116
 930 0196 19       		.uleb128 0x19
 931 0197 00       		.byte	0
 932 0198 00       		.byte	0
 933 0199 00       		.byte	0
 934              		.section	.debug_aranges,"",%progbits
 935 0000 34000000 		.4byte	0x34
 936 0004 0200     		.2byte	0x2
 937 0006 00000000 		.4byte	.Ldebug_info0
 938 000a 04       		.byte	0x4
 939 000b 00       		.byte	0
 940 000c 0000     		.2byte	0
 941 000e 0000     		.2byte	0
 942 0010 00000000 		.4byte	.LFB1
 943 0014 20000000 		.4byte	.LFE1-.LFB1
 944 0018 00000000 		.4byte	.LFB3
 945 001c 6E000000 		.4byte	.LFE3-.LFB3
 946 0020 00000000 		.4byte	.LFB5
 947 0024 28000000 		.4byte	.LFE5-.LFB5
 948 0028 00000000 		.4byte	.LFB7
 949 002c 1E000000 		.4byte	.LFE7-.LFB7
 950 0030 00000000 		.4byte	0
 951 0034 00000000 		.4byte	0
 952              		.section	.debug_ranges,"",%progbits
 953              	.Ldebug_ranges0:
 954 0000 00000000 		.4byte	.LFB1
 955 0004 20000000 		.4byte	.LFE1
 956 0008 00000000 		.4byte	.LFB3
 957 000c 6E000000 		.4byte	.LFE3
 958 0010 00000000 		.4byte	.LFB5
 959 0014 28000000 		.4byte	.LFE5
 960 0018 00000000 		.4byte	.LFB7
 961 001c 1E000000 		.4byte	.LFE7
 962 0020 00000000 		.4byte	0
 963 0024 00000000 		.4byte	0
 964              		.section	.debug_line,"",%progbits
 965              	.Ldebug_line0:
 966 0000 B3000000 		.section	.debug_str,"MS",%progbits,1
 966      02004000 
 966      00000201 
ARM GAS  C:\Users\Luis\AppData\Local\Temp\cc7KJw2g.s 			page 18


 966      FB0E0D00 
 966      01010101 
 967              	.LASF14:
 968 0000 474E5520 		.ascii	"GNU C++ 4.8.3 20131129 (release) [ARM/embedded-4_8-"
 968      432B2B20 
 968      342E382E 
 968      33203230 
 968      31333131 
 969 0033 6272616E 		.ascii	"branch revision 205641] -mcpu=cortex-m4 -mapcs-fram"
 969      63682072 
 969      65766973 
 969      696F6E20 
 969      32303536 
 970 0066 65202D6D 		.ascii	"e -mno-thumb-interwork -mthumb -ggdb -O0 -falign-fu"
 970      6E6F2D74 
 970      68756D62 
 970      2D696E74 
 970      6572776F 
 971 0099 6E637469 		.ascii	"nctions=16 -ffunction-sections -fdata-sections -fno"
 971      6F6E733D 
 971      3136202D 
 971      6666756E 
 971      6374696F 
 972 00cc 2D636F6D 		.ascii	"-common -fno-rtti -fno-exceptions\000"
 972      6D6F6E20 
 972      2D666E6F 
 972      2D727474 
 972      69202D66 
 973              	.LASF18:
 974 00ee 5F767074 		.ascii	"_vptr.FuntionsMath\000"
 974      722E4675 
 974      6E74696F 
 974      6E734D61 
 974      746800
 975              	.LASF12:
 976 0101 5F5A4E31 		.ascii	"_ZN12FuntionsMathC2Ev\000"
 976      3246756E 
 976      74696F6E 
 976      734D6174 
 976      68433245 
 977              	.LASF21:
 978 0117 5F5A4E31 		.ascii	"_ZN12FuntionsMathD0Ev\000"
 978      3246756E 
 978      74696F6E 
 978      734D6174 
 978      68443045 
 979              	.LASF19:
 980 012d 5F5A4E31 		.ascii	"_ZN12FuntionsMath3sumEiiPfS0_i\000"
 980      3246756E 
 980      74696F6E 
 980      734D6174 
 980      68337375 
 981              	.LASF5:
 982 014c 70417272 		.ascii	"pArray\000"
 982      617900
 983              	.LASF9:
 984 0153 5F436F6E 		.ascii	"_Cont\000"
ARM GAS  C:\Users\Luis\AppData\Local\Temp\cc7KJw2g.s 			page 19


 984      7400
 985              	.LASF20:
 986 0159 5F5F7674 		.ascii	"__vtbl_ptr_type\000"
 986      626C5F70 
 986      74725F74 
 986      79706500 
 987              	.LASF1:
 988 0169 666C6F61 		.ascii	"float\000"
 988      7400
 989              	.LASF6:
 990 016f 70436F6E 		.ascii	"pCont\000"
 990      7400
 991              	.LASF7:
 992 0175 5F526573 		.ascii	"_Result\000"
 992      756C7400 
 993              	.LASF11:
 994 017d 5F5F696E 		.ascii	"__in_chrg\000"
 994      5F636872 
 994      6700
 995              	.LASF10:
 996 0187 74686973 		.ascii	"this\000"
 996      00
 997              	.LASF8:
 998 018c 5F506F73 		.ascii	"_PosInitCond\000"
 998      496E6974 
 998      436F6E64 
 998      00
 999              	.LASF2:
 1000 0199 70557070 		.ascii	"pUpperLimit\000"
 1000      65724C69 
 1000      6D697400 
 1001              	.LASF13:
 1002 01a5 5F5A4E31 		.ascii	"_ZN12FuntionsMathD2Ev\000"
 1002      3246756E 
 1002      74696F6E 
 1002      734D6174 
 1002      68443245 
 1003              	.LASF0:
 1004 01bb 7E46756E 		.ascii	"~FuntionsMath\000"
 1004      74696F6E 
 1004      734D6174 
 1004      6800
 1005              	.LASF17:
 1006 01c9 46756E74 		.ascii	"FuntionsMath\000"
 1006      696F6E73 
 1006      4D617468 
 1006      00
 1007              	.LASF3:
 1008 01d6 704C6F77 		.ascii	"pLowerLimit\000"
 1008      65724C69 
 1008      6D697400 
 1009              	.LASF16:
 1010 01e2 433A5C55 		.ascii	"C:\\Users\\Luis\\git\\DSP-Library-Lanin\\examples\\"
 1010      73657273 
 1010      5C4C7569 
 1010      735C6769 
 1010      745C4453 
ARM GAS  C:\Users\Luis\AppData\Local\Temp\cc7KJw2g.s 			page 20


 1011 020f 4453502D 		.ascii	"DSP-Library\000"
 1011      4C696272 
 1011      61727900 
 1012              	.LASF4:
 1013 021b 70436F65 		.ascii	"pCoefficients\000"
 1013      66666963 
 1013      69656E74 
 1013      7300
 1014              	.LASF15:
 1015 0229 46756E74 		.ascii	"FuntionsMath.cpp\000"
 1015      696F6E73 
 1015      4D617468 
 1015      2E637070 
 1015      00
 1016              		.ident	"GCC: (GNU Tools for ARM Embedded Processors) 4.8.3 20131129 (release) [ARM/embedded-4_8-br
ARM GAS  C:\Users\Luis\AppData\Local\Temp\cc7KJw2g.s 			page 21


DEFINED SYMBOLS
                            *ABS*:00000000 FuntionsMath.cpp
C:\Users\Luis\AppData\Local\Temp\cc7KJw2g.s:19     .text._ZN12FuntionsMathC2Ev:00000000 $t
C:\Users\Luis\AppData\Local\Temp\cc7KJw2g.s:25     .text._ZN12FuntionsMathC2Ev:00000000 _ZN12FuntionsMathC2Ev
C:\Users\Luis\AppData\Local\Temp\cc7KJw2g.s:58     .text._ZN12FuntionsMathC2Ev:0000001c $d
C:\Users\Luis\AppData\Local\Temp\cc7KJw2g.s:247    .rodata._ZTV12FuntionsMath:00000000 _ZTV12FuntionsMath
C:\Users\Luis\AppData\Local\Temp\cc7KJw2g.s:25     .text._ZN12FuntionsMathC2Ev:00000000 _ZN12FuntionsMathC1Ev
C:\Users\Luis\AppData\Local\Temp\cc7KJw2g.s:67     .text._ZN12FuntionsMath3sumEiiPfS0_i:00000000 $t
C:\Users\Luis\AppData\Local\Temp\cc7KJw2g.s:73     .text._ZN12FuntionsMath3sumEiiPfS0_i:00000000 _ZN12FuntionsMath3sumEiiPfS0_i
C:\Users\Luis\AppData\Local\Temp\cc7KJw2g.s:155    .text._ZN12FuntionsMathD2Ev:00000000 $t
C:\Users\Luis\AppData\Local\Temp\cc7KJw2g.s:161    .text._ZN12FuntionsMathD2Ev:00000000 _ZN12FuntionsMathD2Ev
C:\Users\Luis\AppData\Local\Temp\cc7KJw2g.s:200    .text._ZN12FuntionsMathD2Ev:00000024 $d
C:\Users\Luis\AppData\Local\Temp\cc7KJw2g.s:161    .text._ZN12FuntionsMathD2Ev:00000000 _ZN12FuntionsMathD1Ev
C:\Users\Luis\AppData\Local\Temp\cc7KJw2g.s:207    .text._ZN12FuntionsMathD0Ev:00000000 $t
C:\Users\Luis\AppData\Local\Temp\cc7KJw2g.s:213    .text._ZN12FuntionsMathD0Ev:00000000 _ZN12FuntionsMathD0Ev
C:\Users\Luis\AppData\Local\Temp\cc7KJw2g.s:244    .rodata._ZTV12FuntionsMath:00000000 $d
                     .debug_frame:00000010 $d
C:\Users\Luis\AppData\Local\Temp\cc7KJw2g.s:206    .text._ZN12FuntionsMathD2Ev:00000028 $t

UNDEFINED SYMBOLS
__aeabi_fmul
__aeabi_fadd
_ZdlPv
