ARM GAS  C:\Users\Luis\AppData\Local\Temp\ccWLSAeG.s 			page 1


   1              		.syntax unified
   2              		.cpu cortex-m4
   3              		.fpu softvfp
   4              		.eabi_attribute 20, 1
   5              		.eabi_attribute 21, 1
   6              		.eabi_attribute 23, 3
   7              		.eabi_attribute 24, 1
   8              		.eabi_attribute 25, 1
   9              		.eabi_attribute 26, 1
  10              		.eabi_attribute 30, 6
  11              		.eabi_attribute 34, 1
  12              		.eabi_attribute 18, 4
  13              		.thumb
  14              		.file	"FuntionsMath.cpp"
  15              		.text
  16              	.Ltext0:
  17              		.cfi_sections	.debug_frame
  18              		.global	__aeabi_fmul
  19              		.global	__aeabi_fadd
  20              		.section	.text._ZN12FuntionsMath3sumEiiPfS0_i,"ax",%progbits
  21              		.align	2
  22              		.p2align 4,,15
  23              		.global	_ZN12FuntionsMath3sumEiiPfS0_i
  24              		.thumb
  25              		.thumb_func
  26              		.type	_ZN12FuntionsMath3sumEiiPfS0_i, %function
  27              	_ZN12FuntionsMath3sumEiiPfS0_i:
  28              	.LFB0:
  29              		.file 1 "FuntionsMath.cpp"
  30              		.loc 1 13 0
  31              		.cfi_startproc
  32              		@ args = 8, pretend = 0, frame = 24
  33              		@ frame_needed = 1, uses_anonymous_args = 0
  34 0000 80B5     		push	{r7, lr}
  35              		.cfi_def_cfa_offset 8
  36              		.cfi_offset 7, -8
  37              		.cfi_offset 14, -4
  38 0002 86B0     		sub	sp, sp, #24
  39              		.cfi_def_cfa_offset 32
  40 0004 00AF     		add	r7, sp, #0
  41              		.cfi_def_cfa_register 7
  42 0006 F860     		str	r0, [r7, #12]
  43 0008 B960     		str	r1, [r7, #8]
  44 000a 7A60     		str	r2, [r7, #4]
  45 000c 3B60     		str	r3, [r7]
  46              	.LBB2:
  47              		.loc 1 15 0
  48 000e 4FF00003 		mov	r3, #0
  49 0012 7B61     		str	r3, [r7, #20]	@ float
  50              		.loc 1 16 0
  51 0014 0023     		movs	r3, #0
  52 0016 3B61     		str	r3, [r7, #16]
  53              		.loc 1 18 0
  54 0018 FB68     		ldr	r3, [r7, #12]
  55 001a 7A68     		ldr	r2, [r7, #4]
  56 001c 1A60     		str	r2, [r3]
  57 001e 21E0     		b	.L2
ARM GAS  C:\Users\Luis\AppData\Local\Temp\ccWLSAeG.s 			page 2


  58              	.L3:
  59              		.loc 1 20 0 discriminator 2
  60 0020 7A6A     		ldr	r2, [r7, #36]
  61 0022 BB68     		ldr	r3, [r7, #8]
  62 0024 1344     		add	r3, r3, r2
  63 0026 3B61     		str	r3, [r7, #16]
  64              		.loc 1 22 0 discriminator 2
  65 0028 FB68     		ldr	r3, [r7, #12]
  66 002a 1B68     		ldr	r3, [r3]
  67 002c 9B00     		lsls	r3, r3, #2
  68 002e 3A68     		ldr	r2, [r7]
  69 0030 1344     		add	r3, r3, r2
  70 0032 1A68     		ldr	r2, [r3]	@ float
  71 0034 3B69     		ldr	r3, [r7, #16]
  72 0036 9B00     		lsls	r3, r3, #2
  73 0038 396A     		ldr	r1, [r7, #32]
  74 003a 0B44     		add	r3, r3, r1
  75 003c 1B68     		ldr	r3, [r3]	@ float
  76 003e 1046     		mov	r0, r2
  77 0040 1946     		mov	r1, r3
  78 0042 FFF7FEFF 		bl	__aeabi_fmul
  79 0046 0346     		mov	r3, r0
  80 0048 7869     		ldr	r0, [r7, #20]	@ float
  81 004a 1946     		mov	r1, r3
  82 004c FFF7FEFF 		bl	__aeabi_fadd
  83 0050 0346     		mov	r3, r0
  84 0052 7B61     		str	r3, [r7, #20]	@ float
  85              		.loc 1 24 0 discriminator 2
  86 0054 7B6A     		ldr	r3, [r7, #36]
  87 0056 013B     		subs	r3, r3, #1
  88 0058 7B62     		str	r3, [r7, #36]
  89              		.loc 1 18 0 discriminator 2
  90 005a FB68     		ldr	r3, [r7, #12]
  91 005c 1B68     		ldr	r3, [r3]
  92 005e 5A1C     		adds	r2, r3, #1
  93 0060 FB68     		ldr	r3, [r7, #12]
  94 0062 1A60     		str	r2, [r3]
  95              	.L2:
  96              		.loc 1 18 0 is_stmt 0 discriminator 1
  97 0064 FB68     		ldr	r3, [r7, #12]
  98 0066 1A68     		ldr	r2, [r3]
  99 0068 BB68     		ldr	r3, [r7, #8]
 100 006a 9A42     		cmp	r2, r3
 101 006c D8DD     		ble	.L3
 102              		.loc 1 26 0 is_stmt 1
 103 006e 7B69     		ldr	r3, [r7, #20]	@ float
 104              	.LBE2:
 105              		.loc 1 27 0
 106 0070 1846     		mov	r0, r3
 107 0072 1837     		adds	r7, r7, #24
 108 0074 BD46     		mov	sp, r7
 109              		@ sp needed
 110 0076 80BD     		pop	{r7, pc}
 111              		.cfi_endproc
 112              	.LFE0:
 113              		.size	_ZN12FuntionsMath3sumEiiPfS0_i, .-_ZN12FuntionsMath3sumEiiPfS0_i
 114 0078 AFF30080 		.text
ARM GAS  C:\Users\Luis\AppData\Local\Temp\ccWLSAeG.s 			page 3


 114      AFF30080 
 115              	.Letext0:
 116              		.file 2 "header/FuntionsMath.h"
 117              		.section	.debug_info,"",%progbits
 118              	.Ldebug_info0:
 119 0000 1F010000 		.4byte	0x11f
 120 0004 0400     		.2byte	0x4
 121 0006 00000000 		.4byte	.Ldebug_abbrev0
 122 000a 04       		.byte	0x4
 123 000b 01       		.uleb128 0x1
 124 000c 2D000000 		.4byte	.LASF8
 125 0010 04       		.byte	0x4
 126 0011 57010000 		.4byte	.LASF9
 127 0015 6D010000 		.4byte	.LASF10
 128 0019 00000000 		.4byte	.Ldebug_ranges0+0
 129 001d 00000000 		.4byte	0
 130 0021 00000000 		.4byte	.Ldebug_line0
 131 0025 02       		.uleb128 0x2
 132 0026 06000000 		.4byte	.LASF11
 133 002a 04       		.byte	0x4
 134 002b 02       		.byte	0x2
 135 002c 0B       		.byte	0xb
 136 002d 71000000 		.4byte	0x71
 137 0031 03       		.uleb128 0x3
 138 0032 27010000 		.4byte	.LASF12
 139 0036 02       		.byte	0x2
 140 0037 1C       		.byte	0x1c
 141 0038 71000000 		.4byte	0x71
 142 003c 00       		.byte	0
 143 003d 04       		.uleb128 0x4
 144 003e 73756D00 		.ascii	"sum\000"
 145 0042 02       		.byte	0x2
 146 0043 17       		.byte	0x17
 147 0044 38010000 		.4byte	.LASF13
 148 0048 78000000 		.4byte	0x78
 149 004c 01       		.byte	0x1
 150 004d 51000000 		.4byte	0x51
 151 0051 05       		.uleb128 0x5
 152 0052 7F000000 		.4byte	0x7f
 153 0056 06       		.uleb128 0x6
 154 0057 71000000 		.4byte	0x71
 155 005b 06       		.uleb128 0x6
 156 005c 71000000 		.4byte	0x71
 157 0060 06       		.uleb128 0x6
 158 0061 85000000 		.4byte	0x85
 159 0065 06       		.uleb128 0x6
 160 0066 85000000 		.4byte	0x85
 161 006a 06       		.uleb128 0x6
 162 006b 71000000 		.4byte	0x71
 163 006f 00       		.byte	0
 164 0070 00       		.byte	0
 165 0071 07       		.uleb128 0x7
 166 0072 04       		.byte	0x4
 167 0073 05       		.byte	0x5
 168 0074 696E7400 		.ascii	"int\000"
 169 0078 08       		.uleb128 0x8
 170 0079 04       		.byte	0x4
ARM GAS  C:\Users\Luis\AppData\Local\Temp\ccWLSAeG.s 			page 4


 171 007a 04       		.byte	0x4
 172 007b 13000000 		.4byte	.LASF0
 173 007f 09       		.uleb128 0x9
 174 0080 04       		.byte	0x4
 175 0081 25000000 		.4byte	0x25
 176 0085 09       		.uleb128 0x9
 177 0086 04       		.byte	0x4
 178 0087 78000000 		.4byte	0x78
 179 008b 0A       		.uleb128 0xa
 180 008c 3D000000 		.4byte	0x3d
 181 0090 01       		.byte	0x1
 182 0091 0C       		.byte	0xc
 183 0092 00000000 		.4byte	.LFB0
 184 0096 78000000 		.4byte	.LFE0-.LFB0
 185 009a 01       		.uleb128 0x1
 186 009b 9C       		.byte	0x9c
 187 009c A4000000 		.4byte	0xa4
 188 00a0 1D010000 		.4byte	0x11d
 189 00a4 0B       		.uleb128 0xb
 190 00a5 68010000 		.4byte	.LASF14
 191 00a9 1D010000 		.4byte	0x11d
 192 00ad 02       		.uleb128 0x2
 193 00ae 91       		.byte	0x91
 194 00af 6C       		.sleb128 -20
 195 00b0 0C       		.uleb128 0xc
 196 00b1 1B010000 		.4byte	.LASF1
 197 00b5 01       		.byte	0x1
 198 00b6 0C       		.byte	0xc
 199 00b7 71000000 		.4byte	0x71
 200 00bb 02       		.uleb128 0x2
 201 00bc 91       		.byte	0x91
 202 00bd 68       		.sleb128 -24
 203 00be 0C       		.uleb128 0xc
 204 00bf 2C010000 		.4byte	.LASF2
 205 00c3 01       		.byte	0x1
 206 00c4 0C       		.byte	0xc
 207 00c5 71000000 		.4byte	0x71
 208 00c9 02       		.uleb128 0x2
 209 00ca 91       		.byte	0x91
 210 00cb 64       		.sleb128 -28
 211 00cc 0C       		.uleb128 0xc
 212 00cd AE010000 		.4byte	.LASF3
 213 00d1 01       		.byte	0x1
 214 00d2 0C       		.byte	0xc
 215 00d3 85000000 		.4byte	0x85
 216 00d7 02       		.uleb128 0x2
 217 00d8 91       		.byte	0x91
 218 00d9 60       		.sleb128 -32
 219 00da 0C       		.uleb128 0xc
 220 00db 19000000 		.4byte	.LASF4
 221 00df 01       		.byte	0x1
 222 00e0 0D       		.byte	0xd
 223 00e1 85000000 		.4byte	0x85
 224 00e5 02       		.uleb128 0x2
 225 00e6 91       		.byte	0x91
 226 00e7 00       		.sleb128 0
 227 00e8 0C       		.uleb128 0xc
ARM GAS  C:\Users\Luis\AppData\Local\Temp\ccWLSAeG.s 			page 5


 228 00e9 00000000 		.4byte	.LASF5
 229 00ed 01       		.byte	0x1
 230 00ee 0D       		.byte	0xd
 231 00ef 71000000 		.4byte	0x71
 232 00f3 02       		.uleb128 0x2
 233 00f4 91       		.byte	0x91
 234 00f5 04       		.sleb128 4
 235 00f6 0D       		.uleb128 0xd
 236 00f7 0E000000 		.4byte	.LBB2
 237 00fb 62000000 		.4byte	.LBE2-.LBB2
 238 00ff 0E       		.uleb128 0xe
 239 0100 A6010000 		.4byte	.LASF6
 240 0104 01       		.byte	0x1
 241 0105 0F       		.byte	0xf
 242 0106 78000000 		.4byte	0x78
 243 010a 02       		.uleb128 0x2
 244 010b 91       		.byte	0x91
 245 010c 74       		.sleb128 -12
 246 010d 0E       		.uleb128 0xe
 247 010e 20000000 		.4byte	.LASF7
 248 0112 01       		.byte	0x1
 249 0113 10       		.byte	0x10
 250 0114 71000000 		.4byte	0x71
 251 0118 02       		.uleb128 0x2
 252 0119 91       		.byte	0x91
 253 011a 70       		.sleb128 -16
 254 011b 00       		.byte	0
 255 011c 00       		.byte	0
 256 011d 0F       		.uleb128 0xf
 257 011e 7F000000 		.4byte	0x7f
 258 0122 00       		.byte	0
 259              		.section	.debug_abbrev,"",%progbits
 260              	.Ldebug_abbrev0:
 261 0000 01       		.uleb128 0x1
 262 0001 11       		.uleb128 0x11
 263 0002 01       		.byte	0x1
 264 0003 25       		.uleb128 0x25
 265 0004 0E       		.uleb128 0xe
 266 0005 13       		.uleb128 0x13
 267 0006 0B       		.uleb128 0xb
 268 0007 03       		.uleb128 0x3
 269 0008 0E       		.uleb128 0xe
 270 0009 1B       		.uleb128 0x1b
 271 000a 0E       		.uleb128 0xe
 272 000b 55       		.uleb128 0x55
 273 000c 17       		.uleb128 0x17
 274 000d 11       		.uleb128 0x11
 275 000e 01       		.uleb128 0x1
 276 000f 10       		.uleb128 0x10
 277 0010 17       		.uleb128 0x17
 278 0011 00       		.byte	0
 279 0012 00       		.byte	0
 280 0013 02       		.uleb128 0x2
 281 0014 02       		.uleb128 0x2
 282 0015 01       		.byte	0x1
 283 0016 03       		.uleb128 0x3
 284 0017 0E       		.uleb128 0xe
ARM GAS  C:\Users\Luis\AppData\Local\Temp\ccWLSAeG.s 			page 6


 285 0018 0B       		.uleb128 0xb
 286 0019 0B       		.uleb128 0xb
 287 001a 3A       		.uleb128 0x3a
 288 001b 0B       		.uleb128 0xb
 289 001c 3B       		.uleb128 0x3b
 290 001d 0B       		.uleb128 0xb
 291 001e 01       		.uleb128 0x1
 292 001f 13       		.uleb128 0x13
 293 0020 00       		.byte	0
 294 0021 00       		.byte	0
 295 0022 03       		.uleb128 0x3
 296 0023 0D       		.uleb128 0xd
 297 0024 00       		.byte	0
 298 0025 03       		.uleb128 0x3
 299 0026 0E       		.uleb128 0xe
 300 0027 3A       		.uleb128 0x3a
 301 0028 0B       		.uleb128 0xb
 302 0029 3B       		.uleb128 0x3b
 303 002a 0B       		.uleb128 0xb
 304 002b 49       		.uleb128 0x49
 305 002c 13       		.uleb128 0x13
 306 002d 38       		.uleb128 0x38
 307 002e 0B       		.uleb128 0xb
 308 002f 00       		.byte	0
 309 0030 00       		.byte	0
 310 0031 04       		.uleb128 0x4
 311 0032 2E       		.uleb128 0x2e
 312 0033 01       		.byte	0x1
 313 0034 3F       		.uleb128 0x3f
 314 0035 19       		.uleb128 0x19
 315 0036 03       		.uleb128 0x3
 316 0037 08       		.uleb128 0x8
 317 0038 3A       		.uleb128 0x3a
 318 0039 0B       		.uleb128 0xb
 319 003a 3B       		.uleb128 0x3b
 320 003b 0B       		.uleb128 0xb
 321 003c 6E       		.uleb128 0x6e
 322 003d 0E       		.uleb128 0xe
 323 003e 49       		.uleb128 0x49
 324 003f 13       		.uleb128 0x13
 325 0040 32       		.uleb128 0x32
 326 0041 0B       		.uleb128 0xb
 327 0042 3C       		.uleb128 0x3c
 328 0043 19       		.uleb128 0x19
 329 0044 64       		.uleb128 0x64
 330 0045 13       		.uleb128 0x13
 331 0046 00       		.byte	0
 332 0047 00       		.byte	0
 333 0048 05       		.uleb128 0x5
 334 0049 05       		.uleb128 0x5
 335 004a 00       		.byte	0
 336 004b 49       		.uleb128 0x49
 337 004c 13       		.uleb128 0x13
 338 004d 34       		.uleb128 0x34
 339 004e 19       		.uleb128 0x19
 340 004f 00       		.byte	0
 341 0050 00       		.byte	0
ARM GAS  C:\Users\Luis\AppData\Local\Temp\ccWLSAeG.s 			page 7


 342 0051 06       		.uleb128 0x6
 343 0052 05       		.uleb128 0x5
 344 0053 00       		.byte	0
 345 0054 49       		.uleb128 0x49
 346 0055 13       		.uleb128 0x13
 347 0056 00       		.byte	0
 348 0057 00       		.byte	0
 349 0058 07       		.uleb128 0x7
 350 0059 24       		.uleb128 0x24
 351 005a 00       		.byte	0
 352 005b 0B       		.uleb128 0xb
 353 005c 0B       		.uleb128 0xb
 354 005d 3E       		.uleb128 0x3e
 355 005e 0B       		.uleb128 0xb
 356 005f 03       		.uleb128 0x3
 357 0060 08       		.uleb128 0x8
 358 0061 00       		.byte	0
 359 0062 00       		.byte	0
 360 0063 08       		.uleb128 0x8
 361 0064 24       		.uleb128 0x24
 362 0065 00       		.byte	0
 363 0066 0B       		.uleb128 0xb
 364 0067 0B       		.uleb128 0xb
 365 0068 3E       		.uleb128 0x3e
 366 0069 0B       		.uleb128 0xb
 367 006a 03       		.uleb128 0x3
 368 006b 0E       		.uleb128 0xe
 369 006c 00       		.byte	0
 370 006d 00       		.byte	0
 371 006e 09       		.uleb128 0x9
 372 006f 0F       		.uleb128 0xf
 373 0070 00       		.byte	0
 374 0071 0B       		.uleb128 0xb
 375 0072 0B       		.uleb128 0xb
 376 0073 49       		.uleb128 0x49
 377 0074 13       		.uleb128 0x13
 378 0075 00       		.byte	0
 379 0076 00       		.byte	0
 380 0077 0A       		.uleb128 0xa
 381 0078 2E       		.uleb128 0x2e
 382 0079 01       		.byte	0x1
 383 007a 47       		.uleb128 0x47
 384 007b 13       		.uleb128 0x13
 385 007c 3A       		.uleb128 0x3a
 386 007d 0B       		.uleb128 0xb
 387 007e 3B       		.uleb128 0x3b
 388 007f 0B       		.uleb128 0xb
 389 0080 11       		.uleb128 0x11
 390 0081 01       		.uleb128 0x1
 391 0082 12       		.uleb128 0x12
 392 0083 06       		.uleb128 0x6
 393 0084 40       		.uleb128 0x40
 394 0085 18       		.uleb128 0x18
 395 0086 64       		.uleb128 0x64
 396 0087 13       		.uleb128 0x13
 397 0088 9642     		.uleb128 0x2116
 398 008a 19       		.uleb128 0x19
ARM GAS  C:\Users\Luis\AppData\Local\Temp\ccWLSAeG.s 			page 8


 399 008b 01       		.uleb128 0x1
 400 008c 13       		.uleb128 0x13
 401 008d 00       		.byte	0
 402 008e 00       		.byte	0
 403 008f 0B       		.uleb128 0xb
 404 0090 05       		.uleb128 0x5
 405 0091 00       		.byte	0
 406 0092 03       		.uleb128 0x3
 407 0093 0E       		.uleb128 0xe
 408 0094 49       		.uleb128 0x49
 409 0095 13       		.uleb128 0x13
 410 0096 34       		.uleb128 0x34
 411 0097 19       		.uleb128 0x19
 412 0098 02       		.uleb128 0x2
 413 0099 18       		.uleb128 0x18
 414 009a 00       		.byte	0
 415 009b 00       		.byte	0
 416 009c 0C       		.uleb128 0xc
 417 009d 05       		.uleb128 0x5
 418 009e 00       		.byte	0
 419 009f 03       		.uleb128 0x3
 420 00a0 0E       		.uleb128 0xe
 421 00a1 3A       		.uleb128 0x3a
 422 00a2 0B       		.uleb128 0xb
 423 00a3 3B       		.uleb128 0x3b
 424 00a4 0B       		.uleb128 0xb
 425 00a5 49       		.uleb128 0x49
 426 00a6 13       		.uleb128 0x13
 427 00a7 02       		.uleb128 0x2
 428 00a8 18       		.uleb128 0x18
 429 00a9 00       		.byte	0
 430 00aa 00       		.byte	0
 431 00ab 0D       		.uleb128 0xd
 432 00ac 0B       		.uleb128 0xb
 433 00ad 01       		.byte	0x1
 434 00ae 11       		.uleb128 0x11
 435 00af 01       		.uleb128 0x1
 436 00b0 12       		.uleb128 0x12
 437 00b1 06       		.uleb128 0x6
 438 00b2 00       		.byte	0
 439 00b3 00       		.byte	0
 440 00b4 0E       		.uleb128 0xe
 441 00b5 34       		.uleb128 0x34
 442 00b6 00       		.byte	0
 443 00b7 03       		.uleb128 0x3
 444 00b8 0E       		.uleb128 0xe
 445 00b9 3A       		.uleb128 0x3a
 446 00ba 0B       		.uleb128 0xb
 447 00bb 3B       		.uleb128 0x3b
 448 00bc 0B       		.uleb128 0xb
 449 00bd 49       		.uleb128 0x49
 450 00be 13       		.uleb128 0x13
 451 00bf 02       		.uleb128 0x2
 452 00c0 18       		.uleb128 0x18
 453 00c1 00       		.byte	0
 454 00c2 00       		.byte	0
 455 00c3 0F       		.uleb128 0xf
ARM GAS  C:\Users\Luis\AppData\Local\Temp\ccWLSAeG.s 			page 9


 456 00c4 26       		.uleb128 0x26
 457 00c5 00       		.byte	0
 458 00c6 49       		.uleb128 0x49
 459 00c7 13       		.uleb128 0x13
 460 00c8 00       		.byte	0
 461 00c9 00       		.byte	0
 462 00ca 00       		.byte	0
 463              		.section	.debug_aranges,"",%progbits
 464 0000 1C000000 		.4byte	0x1c
 465 0004 0200     		.2byte	0x2
 466 0006 00000000 		.4byte	.Ldebug_info0
 467 000a 04       		.byte	0x4
 468 000b 00       		.byte	0
 469 000c 0000     		.2byte	0
 470 000e 0000     		.2byte	0
 471 0010 00000000 		.4byte	.LFB0
 472 0014 78000000 		.4byte	.LFE0-.LFB0
 473 0018 00000000 		.4byte	0
 474 001c 00000000 		.4byte	0
 475              		.section	.debug_ranges,"",%progbits
 476              	.Ldebug_ranges0:
 477 0000 00000000 		.4byte	.LFB0
 478 0004 78000000 		.4byte	.LFE0
 479 0008 00000000 		.4byte	0
 480 000c 00000000 		.4byte	0
 481              		.section	.debug_line,"",%progbits
 482              	.Ldebug_line0:
 483 0000 78000000 		.section	.debug_str,"MS",%progbits,1
 483      02004000 
 483      00000201 
 483      FB0E0D00 
 483      01010101 
 484              	.LASF5:
 485 0000 70436F6E 		.ascii	"pCont\000"
 485      7400
 486              	.LASF11:
 487 0006 46756E74 		.ascii	"FuntionsMath\000"
 487      696F6E73 
 487      4D617468 
 487      00
 488              	.LASF0:
 489 0013 666C6F61 		.ascii	"float\000"
 489      7400
 490              	.LASF4:
 491 0019 70417272 		.ascii	"pArray\000"
 491      617900
 492              	.LASF7:
 493 0020 5F506F73 		.ascii	"_PosInitCond\000"
 493      496E6974 
 493      436F6E64 
 493      00
 494              	.LASF8:
 495 002d 474E5520 		.ascii	"GNU C++ 4.8.3 20131129 (release) [ARM/embedded-4_8-"
 495      432B2B20 
 495      342E382E 
 495      33203230 
 495      31333131 
ARM GAS  C:\Users\Luis\AppData\Local\Temp\ccWLSAeG.s 			page 10


 496 0060 6272616E 		.ascii	"branch revision 205641] -mcpu=cortex-m4 -mapcs-fram"
 496      63682072 
 496      65766973 
 496      696F6E20 
 496      32303536 
 497 0093 65202D6D 		.ascii	"e -mno-thumb-interwork -mthumb -ggdb -O0 -falign-fu"
 497      6E6F2D74 
 497      68756D62 
 497      2D696E74 
 497      6572776F 
 498 00c6 6E637469 		.ascii	"nctions=16 -ffunction-sections -fdata-sections -fno"
 498      6F6E733D 
 498      3136202D 
 498      6666756E 
 498      6374696F 
 499 00f9 2D636F6D 		.ascii	"-common -fno-rtti -fno-exceptions\000"
 499      6D6F6E20 
 499      2D666E6F 
 499      2D727474 
 499      69202D66 
 500              	.LASF1:
 501 011b 70557070 		.ascii	"pUpperLimit\000"
 501      65724C69 
 501      6D697400 
 502              	.LASF12:
 503 0127 436F6E74 		.ascii	"Cont\000"
 503      00
 504              	.LASF2:
 505 012c 704C6F77 		.ascii	"pLowerLimit\000"
 505      65724C69 
 505      6D697400 
 506              	.LASF13:
 507 0138 5F5A4E31 		.ascii	"_ZN12FuntionsMath3sumEiiPfS0_i\000"
 507      3246756E 
 507      74696F6E 
 507      734D6174 
 507      68337375 
 508              	.LASF9:
 509 0157 46756E74 		.ascii	"FuntionsMath.cpp\000"
 509      696F6E73 
 509      4D617468 
 509      2E637070 
 509      00
 510              	.LASF14:
 511 0168 74686973 		.ascii	"this\000"
 511      00
 512              	.LASF10:
 513 016d 433A5C55 		.ascii	"C:\\Users\\Luis\\git\\DSP-Library-Lanin\\examples\\"
 513      73657273 
 513      5C4C7569 
 513      735C6769 
 513      745C4453 
 514 019a 4453502D 		.ascii	"DSP-Library\000"
 514      4C696272 
 514      61727900 
 515              	.LASF6:
 516 01a6 5F526573 		.ascii	"_Result\000"
ARM GAS  C:\Users\Luis\AppData\Local\Temp\ccWLSAeG.s 			page 11


 516      756C7400 
 517              	.LASF3:
 518 01ae 70436F65 		.ascii	"pCoefficients\000"
 518      66666963 
 518      69656E74 
 518      7300
 519              		.ident	"GCC: (GNU Tools for ARM Embedded Processors) 4.8.3 20131129 (release) [ARM/embedded-4_8-br
ARM GAS  C:\Users\Luis\AppData\Local\Temp\ccWLSAeG.s 			page 12


DEFINED SYMBOLS
                            *ABS*:00000000 FuntionsMath.cpp
C:\Users\Luis\AppData\Local\Temp\ccWLSAeG.s:21     .text._ZN12FuntionsMath3sumEiiPfS0_i:00000000 $t
C:\Users\Luis\AppData\Local\Temp\ccWLSAeG.s:27     .text._ZN12FuntionsMath3sumEiiPfS0_i:00000000 _ZN12FuntionsMath3sumEiiPfS0_i
                     .debug_frame:00000010 $d

UNDEFINED SYMBOLS
__aeabi_fmul
__aeabi_fadd
