ARM GAS  C:\Users\Luis\AppData\Local\Temp\cc23RfwK.s 			page 1


   1              		.syntax unified
   2              		.cpu cortex-m4
   3              		.fpu softvfp
   4              		.eabi_attribute 20, 1
   5              		.eabi_attribute 21, 1
   6              		.eabi_attribute 23, 3
   7              		.eabi_attribute 24, 1
   8              		.eabi_attribute 25, 1
   9              		.eabi_attribute 26, 1
  10              		.eabi_attribute 30, 6
  11              		.eabi_attribute 34, 1
  12              		.eabi_attribute 18, 4
  13              		.thumb
  14              		.file	"hal_mmcsd.c"
  15              		.text
  16              	.Ltext0:
  17              		.cfi_sections	.debug_frame
  18              		.section	.text._mmcsd_get_slice,"ax",%progbits
  19              		.align	2
  20              		.p2align 4,,15
  21              		.global	_mmcsd_get_slice
  22              		.thumb
  23              		.thumb_func
  24              		.type	_mmcsd_get_slice, %function
  25              	_mmcsd_get_slice:
  26              	.LFB260:
  27              		.file 1 "../../ChibiOS/os/hal/src/hal_mmcsd.c"
  28              		.loc 1 63 0
  29              		.cfi_startproc
  30              		@ args = 0, pretend = 0, frame = 32
  31              		@ frame_needed = 1, uses_anonymous_args = 0
  32 0000 80B5     		push	{r7, lr}
  33              		.cfi_def_cfa_offset 8
  34              		.cfi_offset 7, -8
  35              		.cfi_offset 14, -4
  36 0002 88B0     		sub	sp, sp, #32
  37              		.cfi_def_cfa_offset 40
  38 0004 00AF     		add	r7, sp, #0
  39              		.cfi_def_cfa_register 7
  40 0006 F860     		str	r0, [r7, #12]
  41 0008 B960     		str	r1, [r7, #8]
  42 000a 7A60     		str	r2, [r7, #4]
  43              		.loc 1 67 0
  44 000c BA68     		ldr	r2, [r7, #8]
  45 000e 7B68     		ldr	r3, [r7, #4]
  46 0010 9A42     		cmp	r2, r3
  47 0012 04D3     		bcc	.L2
  48              		.loc 1 67 0 is_stmt 0 discriminator 2
  49 0014 BA68     		ldr	r2, [r7, #8]
  50 0016 7B68     		ldr	r3, [r7, #4]
  51 0018 D31A     		subs	r3, r2, r3
  52 001a 1F2B     		cmp	r3, #31
  53 001c 02D9     		bls	.L3
  54              	.L2:
  55              		.loc 1 67 0 discriminator 1
  56 001e 1E48     		ldr	r0, .L6
  57 0020 FFF7FEFF 		bl	chSysHalt
ARM GAS  C:\Users\Luis\AppData\Local\Temp\cc23RfwK.s 			page 2


  58              	.L3:
  59              		.loc 1 69 0 is_stmt 1
  60 0024 7B68     		ldr	r3, [r7, #4]
  61 0026 5B09     		lsrs	r3, r3, #5
  62 0028 FB61     		str	r3, [r7, #28]
  63              		.loc 1 70 0
  64 002a 7B68     		ldr	r3, [r7, #4]
  65 002c 03F01F03 		and	r3, r3, #31
  66 0030 BB61     		str	r3, [r7, #24]
  67              		.loc 1 71 0
  68 0032 BB68     		ldr	r3, [r7, #8]
  69 0034 5B09     		lsrs	r3, r3, #5
  70 0036 7B61     		str	r3, [r7, #20]
  71              		.loc 1 72 0
  72 0038 BB68     		ldr	r3, [r7, #8]
  73 003a 03F01F03 		and	r3, r3, #31
  74 003e 0133     		adds	r3, r3, #1
  75 0040 0122     		movs	r2, #1
  76 0042 02FA03F3 		lsl	r3, r2, r3
  77 0046 013B     		subs	r3, r3, #1
  78 0048 3B61     		str	r3, [r7, #16]
  79              		.loc 1 75 0
  80 004a FA69     		ldr	r2, [r7, #28]
  81 004c 7B69     		ldr	r3, [r7, #20]
  82 004e 9A42     		cmp	r2, r3
  83 0050 14D2     		bcs	.L4
  84              		.loc 1 76 0
  85 0052 FB69     		ldr	r3, [r7, #28]
  86 0054 9B00     		lsls	r3, r3, #2
  87 0056 FA68     		ldr	r2, [r7, #12]
  88 0058 1344     		add	r3, r3, r2
  89 005a 1A68     		ldr	r2, [r3]
  90 005c BB69     		ldr	r3, [r7, #24]
  91 005e DA40     		lsrs	r2, r2, r3
  92              		.loc 1 77 0
  93 0060 7B69     		ldr	r3, [r7, #20]
  94 0062 9B00     		lsls	r3, r3, #2
  95 0064 F968     		ldr	r1, [r7, #12]
  96 0066 0B44     		add	r3, r3, r1
  97 0068 1968     		ldr	r1, [r3]
  98 006a 3B69     		ldr	r3, [r7, #16]
  99 006c 1940     		ands	r1, r1, r3
 100 006e BB69     		ldr	r3, [r7, #24]
 101 0070 C3F12003 		rsb	r3, r3, #32
 102 0074 01FA03F3 		lsl	r3, r1, r3
 103              		.loc 1 76 0
 104 0078 1343     		orrs	r3, r3, r2
 105 007a 09E0     		b	.L5
 106              	.L4:
 107              		.loc 1 79 0
 108 007c FB69     		ldr	r3, [r7, #28]
 109 007e 9B00     		lsls	r3, r3, #2
 110 0080 FA68     		ldr	r2, [r7, #12]
 111 0082 1344     		add	r3, r3, r2
 112 0084 1A68     		ldr	r2, [r3]
 113 0086 3B69     		ldr	r3, [r7, #16]
 114 0088 1A40     		ands	r2, r2, r3
ARM GAS  C:\Users\Luis\AppData\Local\Temp\cc23RfwK.s 			page 3


 115 008a BB69     		ldr	r3, [r7, #24]
 116 008c 22FA03F3 		lsr	r3, r2, r3
 117              	.L5:
 118              		.loc 1 80 0
 119 0090 1846     		mov	r0, r3
 120 0092 2037     		adds	r7, r7, #32
 121 0094 BD46     		mov	sp, r7
 122              		@ sp needed
 123 0096 80BD     		pop	{r7, pc}
 124              	.L7:
 125              		.align	2
 126              	.L6:
 127 0098 00000000 		.word	__func__.7912
 128              		.cfi_endproc
 129              	.LFE260:
 130              		.size	_mmcsd_get_slice, .-_mmcsd_get_slice
 131 009c AFF30080 		.section	.text._mmcsd_get_capacity,"ax",%progbits
 132              		.align	2
 133              		.p2align 4,,15
 134              		.global	_mmcsd_get_capacity
 135              		.thumb
 136              		.thumb_func
 137              		.type	_mmcsd_get_capacity, %function
 138              	_mmcsd_get_capacity:
 139              	.LFB261:
 140              		.loc 1 93 0
 141              		.cfi_startproc
 142              		@ args = 0, pretend = 0, frame = 24
 143              		@ frame_needed = 1, uses_anonymous_args = 0
 144 0000 80B5     		push	{r7, lr}
 145              		.cfi_def_cfa_offset 8
 146              		.cfi_offset 7, -8
 147              		.cfi_offset 14, -4
 148 0002 86B0     		sub	sp, sp, #24
 149              		.cfi_def_cfa_offset 32
 150 0004 00AF     		add	r7, sp, #0
 151              		.cfi_def_cfa_register 7
 152 0006 7860     		str	r0, [r7, #4]
 153              		.loc 1 96 0
 154 0008 7B68     		ldr	r3, [r7, #4]
 155 000a 002B     		cmp	r3, #0
 156 000c 02D1     		bne	.L9
 157              		.loc 1 96 0 is_stmt 0 discriminator 1
 158 000e 1C48     		ldr	r0, .L15
 159 0010 FFF7FEFF 		bl	chSysHalt
 160              	.L9:
 161              		.loc 1 98 0 is_stmt 1
 162 0014 7868     		ldr	r0, [r7, #4]
 163 0016 7F21     		movs	r1, #127
 164 0018 7E22     		movs	r2, #126
 165 001a FFF7FEFF 		bl	_mmcsd_get_slice
 166 001e 0346     		mov	r3, r0
 167 0020 002B     		cmp	r3, #0
 168 0022 04D0     		beq	.L11
 169 0024 012B     		cmp	r3, #1
 170 0026 1ED0     		beq	.L12
 171              		.loc 1 110 0
ARM GAS  C:\Users\Luis\AppData\Local\Temp\cc23RfwK.s 			page 4


 172 0028 00BF     		nop
 173              		.loc 1 112 0
 174 002a 0023     		movs	r3, #0
 175 002c 23E0     		b	.L13
 176              	.L11:
 177              		.loc 1 101 0
 178 002e 7868     		ldr	r0, [r7, #4]
 179 0030 4921     		movs	r1, #73
 180 0032 3E22     		movs	r2, #62
 181 0034 FFF7FEFF 		bl	_mmcsd_get_slice
 182 0038 7861     		str	r0, [r7, #20]
 183              		.loc 1 102 0
 184 003a 7868     		ldr	r0, [r7, #4]
 185 003c 3121     		movs	r1, #49
 186 003e 2F22     		movs	r2, #47
 187 0040 FFF7FEFF 		bl	_mmcsd_get_slice
 188 0044 3861     		str	r0, [r7, #16]
 189              		.loc 1 103 0
 190 0046 7868     		ldr	r0, [r7, #4]
 191 0048 5321     		movs	r1, #83
 192 004a 5022     		movs	r2, #80
 193 004c FFF7FEFF 		bl	_mmcsd_get_slice
 194 0050 F860     		str	r0, [r7, #12]
 195              		.loc 1 104 0
 196 0052 7B69     		ldr	r3, [r7, #20]
 197 0054 5A1C     		adds	r2, r3, #1
 198 0056 3B69     		ldr	r3, [r7, #16]
 199 0058 0233     		adds	r3, r3, #2
 200 005a 9A40     		lsls	r2, r2, r3
 201 005c FB68     		ldr	r3, [r7, #12]
 202 005e 093B     		subs	r3, r3, #9
 203 0060 02FA03F3 		lsl	r3, r2, r3
 204 0064 07E0     		b	.L13
 205              	.L12:
 206              		.loc 1 107 0
 207 0066 7868     		ldr	r0, [r7, #4]
 208 0068 4521     		movs	r1, #69
 209 006a 3022     		movs	r2, #48
 210 006c FFF7FEFF 		bl	_mmcsd_get_slice
 211 0070 0346     		mov	r3, r0
 212 0072 0133     		adds	r3, r3, #1
 213 0074 9B02     		lsls	r3, r3, #10
 214              	.L13:
 215              		.loc 1 113 0
 216 0076 1846     		mov	r0, r3
 217 0078 1837     		adds	r7, r7, #24
 218 007a BD46     		mov	sp, r7
 219              		@ sp needed
 220 007c 80BD     		pop	{r7, pc}
 221              	.L16:
 222 007e 00BF     		.align	2
 223              	.L15:
 224 0080 00000000 		.word	__func__.7919
 225              		.cfi_endproc
 226              	.LFE261:
 227              		.size	_mmcsd_get_capacity, .-_mmcsd_get_capacity
 228 0084 AFF30080 		.section	.text._mmcsd_get_capacity_ext,"ax",%progbits
ARM GAS  C:\Users\Luis\AppData\Local\Temp\cc23RfwK.s 			page 5


 228      AFF30080 
 228      AFF30080 
 229              		.align	2
 230              		.p2align 4,,15
 231              		.global	_mmcsd_get_capacity_ext
 232              		.thumb
 233              		.thumb_func
 234              		.type	_mmcsd_get_capacity_ext, %function
 235              	_mmcsd_get_capacity_ext:
 236              	.LFB262:
 237              		.loc 1 125 0
 238              		.cfi_startproc
 239              		@ args = 0, pretend = 0, frame = 8
 240              		@ frame_needed = 1, uses_anonymous_args = 0
 241 0000 80B5     		push	{r7, lr}
 242              		.cfi_def_cfa_offset 8
 243              		.cfi_offset 7, -8
 244              		.cfi_offset 14, -4
 245 0002 82B0     		sub	sp, sp, #8
 246              		.cfi_def_cfa_offset 16
 247 0004 00AF     		add	r7, sp, #0
 248              		.cfi_def_cfa_register 7
 249 0006 7860     		str	r0, [r7, #4]
 250              		.loc 1 127 0
 251 0008 7B68     		ldr	r3, [r7, #4]
 252 000a 002B     		cmp	r3, #0
 253 000c 02D1     		bne	.L18
 254              		.loc 1 127 0 is_stmt 0 discriminator 1
 255 000e 0C48     		ldr	r0, .L20
 256 0010 FFF7FEFF 		bl	chSysHalt
 257              	.L18:
 258              		.loc 1 129 0 is_stmt 1
 259 0014 7B68     		ldr	r3, [r7, #4]
 260 0016 D733     		adds	r3, r3, #215
 261 0018 1B78     		ldrb	r3, [r3]	@ zero_extendqisi2
 262 001a 1A06     		lsls	r2, r3, #24
 263              		.loc 1 130 0
 264 001c 7B68     		ldr	r3, [r7, #4]
 265 001e D633     		adds	r3, r3, #214
 266 0020 1B78     		ldrb	r3, [r3]	@ zero_extendqisi2
 267 0022 1B04     		lsls	r3, r3, #16
 268              		.loc 1 129 0
 269 0024 1A44     		add	r2, r2, r3
 270              		.loc 1 131 0
 271 0026 7B68     		ldr	r3, [r7, #4]
 272 0028 D533     		adds	r3, r3, #213
 273 002a 1B78     		ldrb	r3, [r3]	@ zero_extendqisi2
 274 002c 1B02     		lsls	r3, r3, #8
 275              		.loc 1 130 0
 276 002e 1A44     		add	r2, r2, r3
 277              		.loc 1 132 0
 278 0030 7B68     		ldr	r3, [r7, #4]
 279 0032 D433     		adds	r3, r3, #212
 280 0034 1B78     		ldrb	r3, [r3]	@ zero_extendqisi2
 281              		.loc 1 129 0
 282 0036 1344     		add	r3, r3, r2
 283              		.loc 1 133 0
ARM GAS  C:\Users\Luis\AppData\Local\Temp\cc23RfwK.s 			page 6


 284 0038 1846     		mov	r0, r3
 285 003a 0837     		adds	r7, r7, #8
 286 003c BD46     		mov	sp, r7
 287              		@ sp needed
 288 003e 80BD     		pop	{r7, pc}
 289              	.L21:
 290              		.align	2
 291              	.L20:
 292 0040 00000000 		.word	__func__.7927
 293              		.cfi_endproc
 294              	.LFE262:
 295              		.size	_mmcsd_get_capacity_ext, .-_mmcsd_get_capacity_ext
 296 0044 AFF30080 		.section	.text._mmcsd_unpack_sdc_cid,"ax",%progbits
 296      AFF30080 
 296      AFF30080 
 297              		.align	2
 298              		.p2align 4,,15
 299              		.global	_mmcsd_unpack_sdc_cid
 300              		.thumb
 301              		.thumb_func
 302              		.type	_mmcsd_unpack_sdc_cid, %function
 303              	_mmcsd_unpack_sdc_cid:
 304              	.LFB263:
 305              		.loc 1 144 0
 306              		.cfi_startproc
 307              		@ args = 0, pretend = 0, frame = 16
 308              		@ frame_needed = 1, uses_anonymous_args = 0
 309 0000 80B5     		push	{r7, lr}
 310              		.cfi_def_cfa_offset 8
 311              		.cfi_offset 7, -8
 312              		.cfi_offset 14, -4
 313 0002 84B0     		sub	sp, sp, #16
 314              		.cfi_def_cfa_offset 24
 315 0004 00AF     		add	r7, sp, #0
 316              		.cfi_def_cfa_register 7
 317 0006 7860     		str	r0, [r7, #4]
 318 0008 3960     		str	r1, [r7]
 319              		.loc 1 147 0
 320 000a 7B68     		ldr	r3, [r7, #4]
 321 000c 002B     		cmp	r3, #0
 322 000e 02D0     		beq	.L23
 323              		.loc 1 147 0 is_stmt 0 discriminator 2
 324 0010 3B68     		ldr	r3, [r7]
 325 0012 002B     		cmp	r3, #0
 326 0014 02D1     		bne	.L24
 327              	.L23:
 328              		.loc 1 147 0 discriminator 1
 329 0016 4048     		ldr	r0, .L25
 330 0018 FFF7FEFF 		bl	chSysHalt
 331              	.L24:
 332              		.loc 1 149 0 is_stmt 1
 333 001c 7B68     		ldr	r3, [r7, #4]
 334 001e 0833     		adds	r3, r3, #8
 335 0020 FB60     		str	r3, [r7, #12]
 336              		.loc 1 150 0
 337 0022 F868     		ldr	r0, [r7, #12]
 338 0024 0721     		movs	r1, #7
ARM GAS  C:\Users\Luis\AppData\Local\Temp\cc23RfwK.s 			page 7


 339 0026 0122     		movs	r2, #1
 340 0028 FFF7FEFF 		bl	_mmcsd_get_slice
 341 002c 0346     		mov	r3, r0
 342 002e DAB2     		uxtb	r2, r3
 343 0030 3B68     		ldr	r3, [r7]
 344 0032 1A75     		strb	r2, [r3, #20]
 345              		.loc 1 151 0
 346 0034 F868     		ldr	r0, [r7, #12]
 347 0036 1321     		movs	r1, #19
 348 0038 0C22     		movs	r2, #12
 349 003a FFF7FEFF 		bl	_mmcsd_get_slice
 350 003e 0346     		mov	r3, r0
 351 0040 9BB2     		uxth	r3, r3
 352 0042 03F5FA63 		add	r3, r3, #2000
 353 0046 9AB2     		uxth	r2, r3
 354 0048 3B68     		ldr	r3, [r7]
 355 004a 5A82     		strh	r2, [r3, #18]	@ movhi
 356              		.loc 1 153 0
 357 004c F868     		ldr	r0, [r7, #12]
 358 004e 0B21     		movs	r1, #11
 359 0050 0822     		movs	r2, #8
 360 0052 FFF7FEFF 		bl	_mmcsd_get_slice
 361 0056 0346     		mov	r3, r0
 362 0058 DAB2     		uxtb	r2, r3
 363 005a 3B68     		ldr	r3, [r7]
 364 005c 1A74     		strb	r2, [r3, #16]
 365              		.loc 1 154 0
 366 005e F868     		ldr	r0, [r7, #12]
 367 0060 7F21     		movs	r1, #127
 368 0062 7822     		movs	r2, #120
 369 0064 FFF7FEFF 		bl	_mmcsd_get_slice
 370 0068 0346     		mov	r3, r0
 371 006a DAB2     		uxtb	r2, r3
 372 006c 3B68     		ldr	r3, [r7]
 373 006e 1A70     		strb	r2, [r3]
 374              		.loc 1 155 0
 375 0070 F868     		ldr	r0, [r7, #12]
 376 0072 7721     		movs	r1, #119
 377 0074 6822     		movs	r2, #104
 378 0076 FFF7FEFF 		bl	_mmcsd_get_slice
 379 007a 0346     		mov	r3, r0
 380 007c 9AB2     		uxth	r2, r3
 381 007e 3B68     		ldr	r3, [r7]
 382 0080 5A80     		strh	r2, [r3, #2]	@ movhi
 383              		.loc 1 156 0
 384 0082 F868     		ldr	r0, [r7, #12]
 385 0084 4721     		movs	r1, #71
 386 0086 4022     		movs	r2, #64
 387 0088 FFF7FEFF 		bl	_mmcsd_get_slice
 388 008c 0346     		mov	r3, r0
 389 008e DAB2     		uxtb	r2, r3
 390 0090 3B68     		ldr	r3, [r7]
 391 0092 1A72     		strb	r2, [r3, #8]
 392              		.loc 1 157 0
 393 0094 F868     		ldr	r0, [r7, #12]
 394 0096 4F21     		movs	r1, #79
 395 0098 4822     		movs	r2, #72
ARM GAS  C:\Users\Luis\AppData\Local\Temp\cc23RfwK.s 			page 8


 396 009a FFF7FEFF 		bl	_mmcsd_get_slice
 397 009e 0346     		mov	r3, r0
 398 00a0 DAB2     		uxtb	r2, r3
 399 00a2 3B68     		ldr	r3, [r7]
 400 00a4 DA71     		strb	r2, [r3, #7]
 401              		.loc 1 158 0
 402 00a6 F868     		ldr	r0, [r7, #12]
 403 00a8 5721     		movs	r1, #87
 404 00aa 5022     		movs	r2, #80
 405 00ac FFF7FEFF 		bl	_mmcsd_get_slice
 406 00b0 0346     		mov	r3, r0
 407 00b2 DAB2     		uxtb	r2, r3
 408 00b4 3B68     		ldr	r3, [r7]
 409 00b6 9A71     		strb	r2, [r3, #6]
 410              		.loc 1 159 0
 411 00b8 F868     		ldr	r0, [r7, #12]
 412 00ba 5F21     		movs	r1, #95
 413 00bc 5822     		movs	r2, #88
 414 00be FFF7FEFF 		bl	_mmcsd_get_slice
 415 00c2 0346     		mov	r3, r0
 416 00c4 DAB2     		uxtb	r2, r3
 417 00c6 3B68     		ldr	r3, [r7]
 418 00c8 5A71     		strb	r2, [r3, #5]
 419              		.loc 1 160 0
 420 00ca F868     		ldr	r0, [r7, #12]
 421 00cc 6721     		movs	r1, #103
 422 00ce 6022     		movs	r2, #96
 423 00d0 FFF7FEFF 		bl	_mmcsd_get_slice
 424 00d4 0346     		mov	r3, r0
 425 00d6 DAB2     		uxtb	r2, r3
 426 00d8 3B68     		ldr	r3, [r7]
 427 00da 1A71     		strb	r2, [r3, #4]
 428              		.loc 1 161 0
 429 00dc F868     		ldr	r0, [r7, #12]
 430 00de 3F21     		movs	r1, #63
 431 00e0 3C22     		movs	r2, #60
 432 00e2 FFF7FEFF 		bl	_mmcsd_get_slice
 433 00e6 0346     		mov	r3, r0
 434 00e8 DAB2     		uxtb	r2, r3
 435 00ea 3B68     		ldr	r3, [r7]
 436 00ec 5A72     		strb	r2, [r3, #9]
 437              		.loc 1 162 0
 438 00ee F868     		ldr	r0, [r7, #12]
 439 00f0 3B21     		movs	r1, #59
 440 00f2 3822     		movs	r2, #56
 441 00f4 FFF7FEFF 		bl	_mmcsd_get_slice
 442 00f8 0346     		mov	r3, r0
 443 00fa DAB2     		uxtb	r2, r3
 444 00fc 3B68     		ldr	r3, [r7]
 445 00fe 9A72     		strb	r2, [r3, #10]
 446              		.loc 1 163 0
 447 0100 F868     		ldr	r0, [r7, #12]
 448 0102 3721     		movs	r1, #55
 449 0104 1822     		movs	r2, #24
 450 0106 FFF7FEFF 		bl	_mmcsd_get_slice
 451 010a 0246     		mov	r2, r0
 452 010c 3B68     		ldr	r3, [r7]
ARM GAS  C:\Users\Luis\AppData\Local\Temp\cc23RfwK.s 			page 9


 453 010e DA60     		str	r2, [r3, #12]
 454              		.loc 1 164 0
 455 0110 1037     		adds	r7, r7, #16
 456 0112 BD46     		mov	sp, r7
 457              		@ sp needed
 458 0114 80BD     		pop	{r7, pc}
 459              	.L26:
 460 0116 00BF     		.align	2
 461              	.L25:
 462 0118 00000000 		.word	__func__.7933
 463              		.cfi_endproc
 464              	.LFE263:
 465              		.size	_mmcsd_unpack_sdc_cid, .-_mmcsd_unpack_sdc_cid
 466 011c AFF30080 		.section	.text._mmcsd_unpack_mmc_cid,"ax",%progbits
 467              		.align	2
 468              		.p2align 4,,15
 469              		.global	_mmcsd_unpack_mmc_cid
 470              		.thumb
 471              		.thumb_func
 472              		.type	_mmcsd_unpack_mmc_cid, %function
 473              	_mmcsd_unpack_mmc_cid:
 474              	.LFB264:
 475              		.loc 1 175 0
 476              		.cfi_startproc
 477              		@ args = 0, pretend = 0, frame = 16
 478              		@ frame_needed = 1, uses_anonymous_args = 0
 479 0000 80B5     		push	{r7, lr}
 480              		.cfi_def_cfa_offset 8
 481              		.cfi_offset 7, -8
 482              		.cfi_offset 14, -4
 483 0002 84B0     		sub	sp, sp, #16
 484              		.cfi_def_cfa_offset 24
 485 0004 00AF     		add	r7, sp, #0
 486              		.cfi_def_cfa_register 7
 487 0006 7860     		str	r0, [r7, #4]
 488 0008 3960     		str	r1, [r7]
 489              		.loc 1 178 0
 490 000a 7B68     		ldr	r3, [r7, #4]
 491 000c 002B     		cmp	r3, #0
 492 000e 02D0     		beq	.L28
 493              		.loc 1 178 0 is_stmt 0 discriminator 2
 494 0010 3B68     		ldr	r3, [r7]
 495 0012 002B     		cmp	r3, #0
 496 0014 02D1     		bne	.L29
 497              	.L28:
 498              		.loc 1 178 0 discriminator 1
 499 0016 4448     		ldr	r0, .L30
 500 0018 FFF7FEFF 		bl	chSysHalt
 501              	.L29:
 502              		.loc 1 180 0 is_stmt 1
 503 001c 7B68     		ldr	r3, [r7, #4]
 504 001e 0833     		adds	r3, r3, #8
 505 0020 FB60     		str	r3, [r7, #12]
 506              		.loc 1 181 0
 507 0022 F868     		ldr	r0, [r7, #12]
 508 0024 0721     		movs	r1, #7
 509 0026 0122     		movs	r2, #1
ARM GAS  C:\Users\Luis\AppData\Local\Temp\cc23RfwK.s 			page 10


 510 0028 FFF7FEFF 		bl	_mmcsd_get_slice
 511 002c 0346     		mov	r3, r0
 512 002e DAB2     		uxtb	r2, r3
 513 0030 3B68     		ldr	r3, [r7]
 514 0032 1A75     		strb	r2, [r3, #20]
 515              		.loc 1 182 0
 516 0034 F868     		ldr	r0, [r7, #12]
 517 0036 0B21     		movs	r1, #11
 518 0038 0822     		movs	r2, #8
 519 003a FFF7FEFF 		bl	_mmcsd_get_slice
 520 003e 0346     		mov	r3, r0
 521 0040 9BB2     		uxth	r3, r3
 522 0042 03F2CD73 		addw	r3, r3, #1997
 523 0046 9AB2     		uxth	r2, r3
 524 0048 3B68     		ldr	r3, [r7]
 525 004a 5A82     		strh	r2, [r3, #18]	@ movhi
 526              		.loc 1 184 0
 527 004c F868     		ldr	r0, [r7, #12]
 528 004e 0F21     		movs	r1, #15
 529 0050 0C22     		movs	r2, #12
 530 0052 FFF7FEFF 		bl	_mmcsd_get_slice
 531 0056 0346     		mov	r3, r0
 532 0058 DAB2     		uxtb	r2, r3
 533 005a 3B68     		ldr	r3, [r7]
 534 005c 1A74     		strb	r2, [r3, #16]
 535              		.loc 1 185 0
 536 005e F868     		ldr	r0, [r7, #12]
 537 0060 7F21     		movs	r1, #127
 538 0062 7822     		movs	r2, #120
 539 0064 FFF7FEFF 		bl	_mmcsd_get_slice
 540 0068 0346     		mov	r3, r0
 541 006a DAB2     		uxtb	r2, r3
 542 006c 3B68     		ldr	r3, [r7]
 543 006e 1A70     		strb	r2, [r3]
 544              		.loc 1 186 0
 545 0070 F868     		ldr	r0, [r7, #12]
 546 0072 7721     		movs	r1, #119
 547 0074 6822     		movs	r2, #104
 548 0076 FFF7FEFF 		bl	_mmcsd_get_slice
 549 007a 0346     		mov	r3, r0
 550 007c 9AB2     		uxth	r2, r3
 551 007e 3B68     		ldr	r3, [r7]
 552 0080 5A80     		strh	r2, [r3, #2]	@ movhi
 553              		.loc 1 187 0
 554 0082 F868     		ldr	r0, [r7, #12]
 555 0084 3F21     		movs	r1, #63
 556 0086 3822     		movs	r2, #56
 557 0088 FFF7FEFF 		bl	_mmcsd_get_slice
 558 008c 0346     		mov	r3, r0
 559 008e DAB2     		uxtb	r2, r3
 560 0090 3B68     		ldr	r3, [r7]
 561 0092 5A72     		strb	r2, [r3, #9]
 562              		.loc 1 188 0
 563 0094 F868     		ldr	r0, [r7, #12]
 564 0096 4721     		movs	r1, #71
 565 0098 4022     		movs	r2, #64
 566 009a FFF7FEFF 		bl	_mmcsd_get_slice
ARM GAS  C:\Users\Luis\AppData\Local\Temp\cc23RfwK.s 			page 11


 567 009e 0346     		mov	r3, r0
 568 00a0 DAB2     		uxtb	r2, r3
 569 00a2 3B68     		ldr	r3, [r7]
 570 00a4 1A72     		strb	r2, [r3, #8]
 571              		.loc 1 189 0
 572 00a6 F868     		ldr	r0, [r7, #12]
 573 00a8 4F21     		movs	r1, #79
 574 00aa 4822     		movs	r2, #72
 575 00ac FFF7FEFF 		bl	_mmcsd_get_slice
 576 00b0 0346     		mov	r3, r0
 577 00b2 DAB2     		uxtb	r2, r3
 578 00b4 3B68     		ldr	r3, [r7]
 579 00b6 DA71     		strb	r2, [r3, #7]
 580              		.loc 1 190 0
 581 00b8 F868     		ldr	r0, [r7, #12]
 582 00ba 5721     		movs	r1, #87
 583 00bc 5022     		movs	r2, #80
 584 00be FFF7FEFF 		bl	_mmcsd_get_slice
 585 00c2 0346     		mov	r3, r0
 586 00c4 DAB2     		uxtb	r2, r3
 587 00c6 3B68     		ldr	r3, [r7]
 588 00c8 9A71     		strb	r2, [r3, #6]
 589              		.loc 1 191 0
 590 00ca F868     		ldr	r0, [r7, #12]
 591 00cc 5F21     		movs	r1, #95
 592 00ce 5822     		movs	r2, #88
 593 00d0 FFF7FEFF 		bl	_mmcsd_get_slice
 594 00d4 0346     		mov	r3, r0
 595 00d6 DAB2     		uxtb	r2, r3
 596 00d8 3B68     		ldr	r3, [r7]
 597 00da 5A71     		strb	r2, [r3, #5]
 598              		.loc 1 192 0
 599 00dc F868     		ldr	r0, [r7, #12]
 600 00de 6721     		movs	r1, #103
 601 00e0 6022     		movs	r2, #96
 602 00e2 FFF7FEFF 		bl	_mmcsd_get_slice
 603 00e6 0346     		mov	r3, r0
 604 00e8 DAB2     		uxtb	r2, r3
 605 00ea 3B68     		ldr	r3, [r7]
 606 00ec 1A71     		strb	r2, [r3, #4]
 607              		.loc 1 193 0
 608 00ee F868     		ldr	r0, [r7, #12]
 609 00f0 3721     		movs	r1, #55
 610 00f2 3422     		movs	r2, #52
 611 00f4 FFF7FEFF 		bl	_mmcsd_get_slice
 612 00f8 0346     		mov	r3, r0
 613 00fa DAB2     		uxtb	r2, r3
 614 00fc 3B68     		ldr	r3, [r7]
 615 00fe 9A72     		strb	r2, [r3, #10]
 616              		.loc 1 194 0
 617 0100 F868     		ldr	r0, [r7, #12]
 618 0102 3321     		movs	r1, #51
 619 0104 3022     		movs	r2, #48
 620 0106 FFF7FEFF 		bl	_mmcsd_get_slice
 621 010a 0346     		mov	r3, r0
 622 010c DAB2     		uxtb	r2, r3
 623 010e 3B68     		ldr	r3, [r7]
ARM GAS  C:\Users\Luis\AppData\Local\Temp\cc23RfwK.s 			page 12


 624 0110 DA72     		strb	r2, [r3, #11]
 625              		.loc 1 195 0
 626 0112 F868     		ldr	r0, [r7, #12]
 627 0114 2F21     		movs	r1, #47
 628 0116 1022     		movs	r2, #16
 629 0118 FFF7FEFF 		bl	_mmcsd_get_slice
 630 011c 0246     		mov	r2, r0
 631 011e 3B68     		ldr	r3, [r7]
 632 0120 DA60     		str	r2, [r3, #12]
 633              		.loc 1 196 0
 634 0122 1037     		adds	r7, r7, #16
 635 0124 BD46     		mov	sp, r7
 636              		@ sp needed
 637 0126 80BD     		pop	{r7, pc}
 638              	.L31:
 639              		.align	2
 640              	.L30:
 641 0128 00000000 		.word	__func__.7939
 642              		.cfi_endproc
 643              	.LFE264:
 644              		.size	_mmcsd_unpack_mmc_cid, .-_mmcsd_unpack_mmc_cid
 645 012c AFF30080 		.section	.text._mmcsd_unpack_csd_mmc,"ax",%progbits
 646              		.align	2
 647              		.p2align 4,,15
 648              		.global	_mmcsd_unpack_csd_mmc
 649              		.thumb
 650              		.thumb_func
 651              		.type	_mmcsd_unpack_csd_mmc, %function
 652              	_mmcsd_unpack_csd_mmc:
 653              	.LFB265:
 654              		.loc 1 207 0
 655              		.cfi_startproc
 656              		@ args = 0, pretend = 0, frame = 16
 657              		@ frame_needed = 1, uses_anonymous_args = 0
 658 0000 80B5     		push	{r7, lr}
 659              		.cfi_def_cfa_offset 8
 660              		.cfi_offset 7, -8
 661              		.cfi_offset 14, -4
 662 0002 84B0     		sub	sp, sp, #16
 663              		.cfi_def_cfa_offset 24
 664 0004 00AF     		add	r7, sp, #0
 665              		.cfi_def_cfa_register 7
 666 0006 7860     		str	r0, [r7, #4]
 667 0008 3960     		str	r1, [r7]
 668              		.loc 1 210 0
 669 000a 7B68     		ldr	r3, [r7, #4]
 670 000c 002B     		cmp	r3, #0
 671 000e 02D0     		beq	.L33
 672              		.loc 1 210 0 is_stmt 0 discriminator 2
 673 0010 3B68     		ldr	r3, [r7]
 674 0012 002B     		cmp	r3, #0
 675 0014 02D1     		bne	.L34
 676              	.L33:
 677              		.loc 1 210 0 discriminator 1
 678 0016 9248     		ldr	r0, .L35
 679 0018 FFF7FEFF 		bl	chSysHalt
 680              	.L34:
ARM GAS  C:\Users\Luis\AppData\Local\Temp\cc23RfwK.s 			page 13


 681              		.loc 1 212 0 is_stmt 1
 682 001c 7B68     		ldr	r3, [r7, #4]
 683 001e 1833     		adds	r3, r3, #24
 684 0020 FB60     		str	r3, [r7, #12]
 685              		.loc 1 213 0
 686 0022 F868     		ldr	r0, [r7, #12]
 687 0024 4921     		movs	r1, #73
 688 0026 3E22     		movs	r2, #62
 689 0028 FFF7FEFF 		bl	_mmcsd_get_slice
 690 002c 0346     		mov	r3, r0
 691 002e 9AB2     		uxth	r2, r3
 692 0030 3B68     		ldr	r3, [r7]
 693 0032 DA81     		strh	r2, [r3, #14]	@ movhi
 694              		.loc 1 214 0
 695 0034 F868     		ldr	r0, [r7, #12]
 696 0036 3121     		movs	r1, #49
 697 0038 2F22     		movs	r2, #47
 698 003a FFF7FEFF 		bl	_mmcsd_get_slice
 699 003e 0346     		mov	r3, r0
 700 0040 DAB2     		uxtb	r2, r3
 701 0042 3B68     		ldr	r3, [r7]
 702 0044 1A75     		strb	r2, [r3, #20]
 703              		.loc 1 215 0
 704 0046 F868     		ldr	r0, [r7, #12]
 705 0048 5F21     		movs	r1, #95
 706 004a 5422     		movs	r2, #84
 707 004c FFF7FEFF 		bl	_mmcsd_get_slice
 708 0050 0346     		mov	r3, r0
 709 0052 9AB2     		uxth	r2, r3
 710 0054 3B68     		ldr	r3, [r7]
 711 0056 DA80     		strh	r2, [r3, #6]	@ movhi
 712              		.loc 1 216 0
 713 0058 F868     		ldr	r0, [r7, #12]
 714 005a 0E21     		movs	r1, #14
 715 005c 0E22     		movs	r2, #14
 716 005e FFF7FEFF 		bl	_mmcsd_get_slice
 717 0062 0346     		mov	r3, r0
 718 0064 DAB2     		uxtb	r2, r3
 719 0066 3B68     		ldr	r3, [r7]
 720 0068 DA77     		strb	r2, [r3, #31]
 721              		.loc 1 217 0
 722 006a F868     		ldr	r0, [r7, #12]
 723 006c 0721     		movs	r1, #7
 724 006e 0122     		movs	r2, #1
 725 0070 FFF7FEFF 		bl	_mmcsd_get_slice
 726 0074 0346     		mov	r3, r0
 727 0076 DAB2     		uxtb	r2, r3
 728 0078 3B68     		ldr	r3, [r7]
 729 007a 83F82420 		strb	r2, [r3, #36]
 730              		.loc 1 218 0
 731 007e F868     		ldr	r0, [r7, #12]
 732 0080 7F21     		movs	r1, #127
 733 0082 7E22     		movs	r2, #126
 734 0084 FFF7FEFF 		bl	_mmcsd_get_slice
 735 0088 0346     		mov	r3, r0
 736 008a DAB2     		uxtb	r2, r3
 737 008c 3B68     		ldr	r3, [r7]
ARM GAS  C:\Users\Luis\AppData\Local\Temp\cc23RfwK.s 			page 14


 738 008e 1A70     		strb	r2, [r3]
 739              		.loc 1 219 0
 740 0090 F868     		ldr	r0, [r7, #12]
 741 0092 4C21     		movs	r1, #76
 742 0094 4C22     		movs	r2, #76
 743 0096 FFF7FEFF 		bl	_mmcsd_get_slice
 744 009a 0346     		mov	r3, r0
 745 009c DAB2     		uxtb	r2, r3
 746 009e 3B68     		ldr	r3, [r7]
 747 00a0 1A73     		strb	r2, [r3, #12]
 748              		.loc 1 220 0
 749 00a2 F868     		ldr	r0, [r7, #12]
 750 00a4 0921     		movs	r1, #9
 751 00a6 0822     		movs	r2, #8
 752 00a8 FFF7FEFF 		bl	_mmcsd_get_slice
 753 00ac 0346     		mov	r3, r0
 754 00ae DAB2     		uxtb	r2, r3
 755 00b0 3B68     		ldr	r3, [r7]
 756 00b2 83F82320 		strb	r2, [r3, #35]
 757              		.loc 1 221 0
 758 00b6 F868     		ldr	r0, [r7, #12]
 759 00b8 2921     		movs	r1, #41
 760 00ba 2522     		movs	r2, #37
 761 00bc FFF7FEFF 		bl	_mmcsd_get_slice
 762 00c0 0346     		mov	r3, r0
 763 00c2 DAB2     		uxtb	r2, r3
 764 00c4 3B68     		ldr	r3, [r7]
 765 00c6 9A75     		strb	r2, [r3, #22]
 766              		.loc 1 222 0
 767 00c8 F868     		ldr	r0, [r7, #12]
 768 00ca 2E21     		movs	r1, #46
 769 00cc 2A22     		movs	r2, #42
 770 00ce FFF7FEFF 		bl	_mmcsd_get_slice
 771 00d2 0346     		mov	r3, r0
 772 00d4 DAB2     		uxtb	r2, r3
 773 00d6 3B68     		ldr	r3, [r7]
 774 00d8 5A75     		strb	r2, [r3, #21]
 775              		.loc 1 223 0
 776 00da F868     		ldr	r0, [r7, #12]
 777 00dc 0B21     		movs	r1, #11
 778 00de 0A22     		movs	r2, #10
 779 00e0 FFF7FEFF 		bl	_mmcsd_get_slice
 780 00e4 0346     		mov	r3, r0
 781 00e6 DAB2     		uxtb	r2, r3
 782 00e8 3B68     		ldr	r3, [r7]
 783 00ea 83F82220 		strb	r2, [r3, #34]
 784              		.loc 1 224 0
 785 00ee F868     		ldr	r0, [r7, #12]
 786 00f0 0F21     		movs	r1, #15
 787 00f2 0F22     		movs	r2, #15
 788 00f4 FFF7FEFF 		bl	_mmcsd_get_slice
 789 00f8 0346     		mov	r3, r0
 790 00fa DAB2     		uxtb	r2, r3
 791 00fc 3B68     		ldr	r3, [r7]
 792 00fe 9A77     		strb	r2, [r3, #30]
 793              		.loc 1 225 0
 794 0100 F868     		ldr	r0, [r7, #12]
ARM GAS  C:\Users\Luis\AppData\Local\Temp\cc23RfwK.s 			page 15


 795 0102 6F21     		movs	r1, #111
 796 0104 6822     		movs	r2, #104
 797 0106 FFF7FEFF 		bl	_mmcsd_get_slice
 798 010a 0346     		mov	r3, r0
 799 010c DAB2     		uxtb	r2, r3
 800 010e 3B68     		ldr	r3, [r7]
 801 0110 DA70     		strb	r2, [r3, #3]
 802              		.loc 1 226 0
 803 0112 F868     		ldr	r0, [r7, #12]
 804 0114 0D21     		movs	r1, #13
 805 0116 0D22     		movs	r2, #13
 806 0118 FFF7FEFF 		bl	_mmcsd_get_slice
 807 011c 0346     		mov	r3, r0
 808 011e DAB2     		uxtb	r2, r3
 809 0120 3B68     		ldr	r3, [r7]
 810 0122 83F82020 		strb	r2, [r3, #32]
 811              		.loc 1 227 0
 812 0126 F868     		ldr	r0, [r7, #12]
 813 0128 1C21     		movs	r1, #28
 814 012a 1A22     		movs	r2, #26
 815 012c FFF7FEFF 		bl	_mmcsd_get_slice
 816 0130 0346     		mov	r3, r0
 817 0132 DAB2     		uxtb	r2, r3
 818 0134 3B68     		ldr	r3, [r7]
 819 0136 9A76     		strb	r2, [r3, #26]
 820              		.loc 1 228 0
 821 0138 F868     		ldr	r0, [r7, #12]
 822 013a 5321     		movs	r1, #83
 823 013c 5022     		movs	r2, #80
 824 013e FFF7FEFF 		bl	_mmcsd_get_slice
 825 0142 0346     		mov	r3, r0
 826 0144 DAB2     		uxtb	r2, r3
 827 0146 3B68     		ldr	r3, [r7]
 828 0148 1A72     		strb	r2, [r3, #8]
 829              		.loc 1 229 0
 830 014a F868     		ldr	r0, [r7, #12]
 831 014c 4F21     		movs	r1, #79
 832 014e 4F22     		movs	r2, #79
 833 0150 FFF7FEFF 		bl	_mmcsd_get_slice
 834 0154 0346     		mov	r3, r0
 835 0156 DAB2     		uxtb	r2, r3
 836 0158 3B68     		ldr	r3, [r7]
 837 015a 5A72     		strb	r2, [r3, #9]
 838              		.loc 1 230 0
 839 015c F868     		ldr	r0, [r7, #12]
 840 015e 4D21     		movs	r1, #77
 841 0160 4D22     		movs	r2, #77
 842 0162 FFF7FEFF 		bl	_mmcsd_get_slice
 843 0166 0346     		mov	r3, r0
 844 0168 DAB2     		uxtb	r2, r3
 845 016a 3B68     		ldr	r3, [r7]
 846 016c DA72     		strb	r2, [r3, #11]
 847              		.loc 1 231 0
 848 016e F868     		ldr	r0, [r7, #12]
 849 0170 7D21     		movs	r1, #125
 850 0172 7A22     		movs	r2, #122
 851 0174 FFF7FEFF 		bl	_mmcsd_get_slice
ARM GAS  C:\Users\Luis\AppData\Local\Temp\cc23RfwK.s 			page 16


 852 0178 0346     		mov	r3, r0
 853 017a DAB2     		uxtb	r2, r3
 854 017c 3B68     		ldr	r3, [r7]
 855 017e 5A70     		strb	r2, [r3, #1]
 856              		.loc 1 232 0
 857 0180 F868     		ldr	r0, [r7, #12]
 858 0182 7721     		movs	r1, #119
 859 0184 7022     		movs	r2, #112
 860 0186 FFF7FEFF 		bl	_mmcsd_get_slice
 861 018a 0346     		mov	r3, r0
 862 018c DAB2     		uxtb	r2, r3
 863 018e 3B68     		ldr	r3, [r7]
 864 0190 9A70     		strb	r2, [r3, #2]
 865              		.loc 1 233 0
 866 0192 F868     		ldr	r0, [r7, #12]
 867 0194 0C21     		movs	r1, #12
 868 0196 0C22     		movs	r2, #12
 869 0198 FFF7FEFF 		bl	_mmcsd_get_slice
 870 019c 0346     		mov	r3, r0
 871 019e DAB2     		uxtb	r2, r3
 872 01a0 3B68     		ldr	r3, [r7]
 873 01a2 83F82120 		strb	r2, [r3, #33]
 874              		.loc 1 234 0
 875 01a6 F868     		ldr	r0, [r7, #12]
 876 01a8 6721     		movs	r1, #103
 877 01aa 6022     		movs	r2, #96
 878 01ac FFF7FEFF 		bl	_mmcsd_get_slice
 879 01b0 0346     		mov	r3, r0
 880 01b2 DAB2     		uxtb	r2, r3
 881 01b4 3B68     		ldr	r3, [r7]
 882 01b6 1A71     		strb	r2, [r3, #4]
 883              		.loc 1 235 0
 884 01b8 F868     		ldr	r0, [r7, #12]
 885 01ba 3A21     		movs	r1, #58
 886 01bc 3822     		movs	r2, #56
 887 01be FFF7FEFF 		bl	_mmcsd_get_slice
 888 01c2 0346     		mov	r3, r0
 889 01c4 DAB2     		uxtb	r2, r3
 890 01c6 3B68     		ldr	r3, [r7]
 891 01c8 5A74     		strb	r2, [r3, #17]
 892              		.loc 1 236 0
 893 01ca F868     		ldr	r0, [r7, #12]
 894 01cc 3D21     		movs	r1, #61
 895 01ce 3B22     		movs	r2, #59
 896 01d0 FFF7FEFF 		bl	_mmcsd_get_slice
 897 01d4 0346     		mov	r3, r0
 898 01d6 DAB2     		uxtb	r2, r3
 899 01d8 3B68     		ldr	r3, [r7]
 900 01da 1A74     		strb	r2, [r3, #16]
 901              		.loc 1 237 0
 902 01dc F868     		ldr	r0, [r7, #12]
 903 01de 3421     		movs	r1, #52
 904 01e0 3222     		movs	r2, #50
 905 01e2 FFF7FEFF 		bl	_mmcsd_get_slice
 906 01e6 0346     		mov	r3, r0
 907 01e8 DAB2     		uxtb	r2, r3
 908 01ea 3B68     		ldr	r3, [r7]
ARM GAS  C:\Users\Luis\AppData\Local\Temp\cc23RfwK.s 			page 17


 909 01ec DA74     		strb	r2, [r3, #19]
 910              		.loc 1 238 0
 911 01ee F868     		ldr	r0, [r7, #12]
 912 01f0 3721     		movs	r1, #55
 913 01f2 3522     		movs	r2, #53
 914 01f4 FFF7FEFF 		bl	_mmcsd_get_slice
 915 01f8 0346     		mov	r3, r0
 916 01fa DAB2     		uxtb	r2, r3
 917 01fc 3B68     		ldr	r3, [r7]
 918 01fe 9A74     		strb	r2, [r3, #18]
 919              		.loc 1 239 0
 920 0200 F868     		ldr	r0, [r7, #12]
 921 0202 1F21     		movs	r1, #31
 922 0204 1F22     		movs	r2, #31
 923 0206 FFF7FEFF 		bl	_mmcsd_get_slice
 924 020a 0346     		mov	r3, r0
 925 020c DAB2     		uxtb	r2, r3
 926 020e 3B68     		ldr	r3, [r7]
 927 0210 1A76     		strb	r2, [r3, #24]
 928              		.loc 1 240 0
 929 0212 F868     		ldr	r0, [r7, #12]
 930 0214 2421     		movs	r1, #36
 931 0216 2022     		movs	r2, #32
 932 0218 FFF7FEFF 		bl	_mmcsd_get_slice
 933 021c 0346     		mov	r3, r0
 934 021e DAB2     		uxtb	r2, r3
 935 0220 3B68     		ldr	r3, [r7]
 936 0222 DA75     		strb	r2, [r3, #23]
 937              		.loc 1 241 0
 938 0224 F868     		ldr	r0, [r7, #12]
 939 0226 1921     		movs	r1, #25
 940 0228 1622     		movs	r2, #22
 941 022a FFF7FEFF 		bl	_mmcsd_get_slice
 942 022e 0346     		mov	r3, r0
 943 0230 DAB2     		uxtb	r2, r3
 944 0232 3B68     		ldr	r3, [r7]
 945 0234 DA76     		strb	r2, [r3, #27]
 946              		.loc 1 242 0
 947 0236 F868     		ldr	r0, [r7, #12]
 948 0238 1521     		movs	r1, #21
 949 023a 1522     		movs	r2, #21
 950 023c FFF7FEFF 		bl	_mmcsd_get_slice
 951 0240 0346     		mov	r3, r0
 952 0242 DAB2     		uxtb	r2, r3
 953 0244 3B68     		ldr	r3, [r7]
 954 0246 1A77     		strb	r2, [r3, #28]
 955              		.loc 1 243 0
 956 0248 F868     		ldr	r0, [r7, #12]
 957 024a 4E21     		movs	r1, #78
 958 024c 4E22     		movs	r2, #78
 959 024e FFF7FEFF 		bl	_mmcsd_get_slice
 960 0252 0346     		mov	r3, r0
 961 0254 DAB2     		uxtb	r2, r3
 962 0256 3B68     		ldr	r3, [r7]
 963 0258 9A72     		strb	r2, [r3, #10]
 964              		.loc 1 244 0
 965 025a 1037     		adds	r7, r7, #16
ARM GAS  C:\Users\Luis\AppData\Local\Temp\cc23RfwK.s 			page 18


 966 025c BD46     		mov	sp, r7
 967              		@ sp needed
 968 025e 80BD     		pop	{r7, pc}
 969              	.L36:
 970              		.align	2
 971              	.L35:
 972 0260 00000000 		.word	__func__.7945
 973              		.cfi_endproc
 974              	.LFE265:
 975              		.size	_mmcsd_unpack_csd_mmc, .-_mmcsd_unpack_csd_mmc
 976 0264 AFF30080 		.section	.text._mmcsd_unpack_csd_v10,"ax",%progbits
 976      AFF30080 
 976      AFF30080 
 977              		.align	2
 978              		.p2align 4,,15
 979              		.global	_mmcsd_unpack_csd_v10
 980              		.thumb
 981              		.thumb_func
 982              		.type	_mmcsd_unpack_csd_v10, %function
 983              	_mmcsd_unpack_csd_v10:
 984              	.LFB266:
 985              		.loc 1 255 0
 986              		.cfi_startproc
 987              		@ args = 0, pretend = 0, frame = 16
 988              		@ frame_needed = 1, uses_anonymous_args = 0
 989 0000 80B5     		push	{r7, lr}
 990              		.cfi_def_cfa_offset 8
 991              		.cfi_offset 7, -8
 992              		.cfi_offset 14, -4
 993 0002 84B0     		sub	sp, sp, #16
 994              		.cfi_def_cfa_offset 24
 995 0004 00AF     		add	r7, sp, #0
 996              		.cfi_def_cfa_register 7
 997 0006 7860     		str	r0, [r7, #4]
 998 0008 3960     		str	r1, [r7]
 999              		.loc 1 258 0
 1000 000a 7B68     		ldr	r3, [r7, #4]
 1001 000c 002B     		cmp	r3, #0
 1002 000e 02D1     		bne	.L38
 1003              		.loc 1 258 0 is_stmt 0 discriminator 1
 1004 0010 7448     		ldr	r0, .L39
 1005 0012 FFF7FEFF 		bl	chSysHalt
 1006              	.L38:
 1007              		.loc 1 260 0 is_stmt 1
 1008 0016 7B68     		ldr	r3, [r7, #4]
 1009 0018 1833     		adds	r3, r3, #24
 1010 001a FB60     		str	r3, [r7, #12]
 1011              		.loc 1 261 0
 1012 001c F868     		ldr	r0, [r7, #12]
 1013 001e 4921     		movs	r1, #73
 1014 0020 3E22     		movs	r2, #62
 1015 0022 FFF7FEFF 		bl	_mmcsd_get_slice
 1016 0026 0346     		mov	r3, r0
 1017 0028 9AB2     		uxth	r2, r3
 1018 002a 3B68     		ldr	r3, [r7]
 1019 002c 9A81     		strh	r2, [r3, #12]	@ movhi
 1020              		.loc 1 262 0
ARM GAS  C:\Users\Luis\AppData\Local\Temp\cc23RfwK.s 			page 19


 1021 002e F868     		ldr	r0, [r7, #12]
 1022 0030 3121     		movs	r1, #49
 1023 0032 2F22     		movs	r2, #47
 1024 0034 FFF7FEFF 		bl	_mmcsd_get_slice
 1025 0038 0346     		mov	r3, r0
 1026 003a DAB2     		uxtb	r2, r3
 1027 003c 3B68     		ldr	r3, [r7]
 1028 003e 9A74     		strb	r2, [r3, #18]
 1029              		.loc 1 263 0
 1030 0040 F868     		ldr	r0, [r7, #12]
 1031 0042 5F21     		movs	r1, #95
 1032 0044 5422     		movs	r2, #84
 1033 0046 FFF7FEFF 		bl	_mmcsd_get_slice
 1034 004a 0346     		mov	r3, r0
 1035 004c 9AB2     		uxth	r2, r3
 1036 004e 3B68     		ldr	r3, [r7]
 1037 0050 9A80     		strh	r2, [r3, #4]	@ movhi
 1038              		.loc 1 264 0
 1039 0052 F868     		ldr	r0, [r7, #12]
 1040 0054 0E21     		movs	r1, #14
 1041 0056 0E22     		movs	r2, #14
 1042 0058 FFF7FEFF 		bl	_mmcsd_get_slice
 1043 005c 0346     		mov	r3, r0
 1044 005e DAB2     		uxtb	r2, r3
 1045 0060 3B68     		ldr	r3, [r7]
 1046 0062 DA76     		strb	r2, [r3, #27]
 1047              		.loc 1 265 0
 1048 0064 F868     		ldr	r0, [r7, #12]
 1049 0066 0721     		movs	r1, #7
 1050 0068 0122     		movs	r2, #1
 1051 006a FFF7FEFF 		bl	_mmcsd_get_slice
 1052 006e 0346     		mov	r3, r0
 1053 0070 DAB2     		uxtb	r2, r3
 1054 0072 3B68     		ldr	r3, [r7]
 1055 0074 DA77     		strb	r2, [r3, #31]
 1056              		.loc 1 266 0
 1057 0076 F868     		ldr	r0, [r7, #12]
 1058 0078 7F21     		movs	r1, #127
 1059 007a 7E22     		movs	r2, #126
 1060 007c FFF7FEFF 		bl	_mmcsd_get_slice
 1061 0080 0346     		mov	r3, r0
 1062 0082 DAB2     		uxtb	r2, r3
 1063 0084 3B68     		ldr	r3, [r7]
 1064 0086 1A70     		strb	r2, [r3]
 1065              		.loc 1 267 0
 1066 0088 F868     		ldr	r0, [r7, #12]
 1067 008a 4C21     		movs	r1, #76
 1068 008c 4C22     		movs	r2, #76
 1069 008e FFF7FEFF 		bl	_mmcsd_get_slice
 1070 0092 0346     		mov	r3, r0
 1071 0094 DAB2     		uxtb	r2, r3
 1072 0096 3B68     		ldr	r3, [r7]
 1073 0098 9A72     		strb	r2, [r3, #10]
 1074              		.loc 1 268 0
 1075 009a F868     		ldr	r0, [r7, #12]
 1076 009c 2E21     		movs	r1, #46
 1077 009e 2E22     		movs	r2, #46
ARM GAS  C:\Users\Luis\AppData\Local\Temp\cc23RfwK.s 			page 20


 1078 00a0 FFF7FEFF 		bl	_mmcsd_get_slice
 1079 00a4 0346     		mov	r3, r0
 1080 00a6 DAB2     		uxtb	r2, r3
 1081 00a8 3B68     		ldr	r3, [r7]
 1082 00aa DA74     		strb	r2, [r3, #19]
 1083              		.loc 1 269 0
 1084 00ac F868     		ldr	r0, [r7, #12]
 1085 00ae 2D21     		movs	r1, #45
 1086 00b0 2722     		movs	r2, #39
 1087 00b2 FFF7FEFF 		bl	_mmcsd_get_slice
 1088 00b6 0346     		mov	r3, r0
 1089 00b8 DAB2     		uxtb	r2, r3
 1090 00ba 3B68     		ldr	r3, [r7]
 1091 00bc 1A75     		strb	r2, [r3, #20]
 1092              		.loc 1 270 0
 1093 00be F868     		ldr	r0, [r7, #12]
 1094 00c0 0B21     		movs	r1, #11
 1095 00c2 0A22     		movs	r2, #10
 1096 00c4 FFF7FEFF 		bl	_mmcsd_get_slice
 1097 00c8 0346     		mov	r3, r0
 1098 00ca DAB2     		uxtb	r2, r3
 1099 00cc 3B68     		ldr	r3, [r7]
 1100 00ce 9A77     		strb	r2, [r3, #30]
 1101              		.loc 1 271 0
 1102 00d0 F868     		ldr	r0, [r7, #12]
 1103 00d2 0F21     		movs	r1, #15
 1104 00d4 0F22     		movs	r2, #15
 1105 00d6 FFF7FEFF 		bl	_mmcsd_get_slice
 1106 00da 0346     		mov	r3, r0
 1107 00dc DAB2     		uxtb	r2, r3
 1108 00de 3B68     		ldr	r3, [r7]
 1109 00e0 9A76     		strb	r2, [r3, #26]
 1110              		.loc 1 272 0
 1111 00e2 F868     		ldr	r0, [r7, #12]
 1112 00e4 6F21     		movs	r1, #111
 1113 00e6 6822     		movs	r2, #104
 1114 00e8 FFF7FEFF 		bl	_mmcsd_get_slice
 1115 00ec 0346     		mov	r3, r0
 1116 00ee DAB2     		uxtb	r2, r3
 1117 00f0 3B68     		ldr	r3, [r7]
 1118 00f2 9A70     		strb	r2, [r3, #2]
 1119              		.loc 1 273 0
 1120 00f4 F868     		ldr	r0, [r7, #12]
 1121 00f6 0D21     		movs	r1, #13
 1122 00f8 0D22     		movs	r2, #13
 1123 00fa FFF7FEFF 		bl	_mmcsd_get_slice
 1124 00fe 0346     		mov	r3, r0
 1125 0100 DAB2     		uxtb	r2, r3
 1126 0102 3B68     		ldr	r3, [r7]
 1127 0104 1A77     		strb	r2, [r3, #28]
 1128              		.loc 1 274 0
 1129 0106 F868     		ldr	r0, [r7, #12]
 1130 0108 1C21     		movs	r1, #28
 1131 010a 1A22     		movs	r2, #26
 1132 010c FFF7FEFF 		bl	_mmcsd_get_slice
 1133 0110 0346     		mov	r3, r0
 1134 0112 DAB2     		uxtb	r2, r3
ARM GAS  C:\Users\Luis\AppData\Local\Temp\cc23RfwK.s 			page 21


 1135 0114 3B68     		ldr	r3, [r7]
 1136 0116 DA75     		strb	r2, [r3, #23]
 1137              		.loc 1 275 0
 1138 0118 F868     		ldr	r0, [r7, #12]
 1139 011a 5321     		movs	r1, #83
 1140 011c 5022     		movs	r2, #80
 1141 011e FFF7FEFF 		bl	_mmcsd_get_slice
 1142 0122 0346     		mov	r3, r0
 1143 0124 DAB2     		uxtb	r2, r3
 1144 0126 3B68     		ldr	r3, [r7]
 1145 0128 9A71     		strb	r2, [r3, #6]
 1146              		.loc 1 276 0
 1147 012a F868     		ldr	r0, [r7, #12]
 1148 012c 4F21     		movs	r1, #79
 1149 012e 4F22     		movs	r2, #79
 1150 0130 FFF7FEFF 		bl	_mmcsd_get_slice
 1151 0134 0346     		mov	r3, r0
 1152 0136 DAB2     		uxtb	r2, r3
 1153 0138 3B68     		ldr	r3, [r7]
 1154 013a DA71     		strb	r2, [r3, #7]
 1155              		.loc 1 277 0
 1156 013c F868     		ldr	r0, [r7, #12]
 1157 013e 4D21     		movs	r1, #77
 1158 0140 4D22     		movs	r2, #77
 1159 0142 FFF7FEFF 		bl	_mmcsd_get_slice
 1160 0146 0346     		mov	r3, r0
 1161 0148 DAB2     		uxtb	r2, r3
 1162 014a 3B68     		ldr	r3, [r7]
 1163 014c 5A72     		strb	r2, [r3, #9]
 1164              		.loc 1 278 0
 1165 014e F868     		ldr	r0, [r7, #12]
 1166 0150 7721     		movs	r1, #119
 1167 0152 7022     		movs	r2, #112
 1168 0154 FFF7FEFF 		bl	_mmcsd_get_slice
 1169 0158 0346     		mov	r3, r0
 1170 015a DAB2     		uxtb	r2, r3
 1171 015c 3B68     		ldr	r3, [r7]
 1172 015e 5A70     		strb	r2, [r3, #1]
 1173              		.loc 1 279 0
 1174 0160 F868     		ldr	r0, [r7, #12]
 1175 0162 0C21     		movs	r1, #12
 1176 0164 0C22     		movs	r2, #12
 1177 0166 FFF7FEFF 		bl	_mmcsd_get_slice
 1178 016a 0346     		mov	r3, r0
 1179 016c DAB2     		uxtb	r2, r3
 1180 016e 3B68     		ldr	r3, [r7]
 1181 0170 5A77     		strb	r2, [r3, #29]
 1182              		.loc 1 280 0
 1183 0172 F868     		ldr	r0, [r7, #12]
 1184 0174 6721     		movs	r1, #103
 1185 0176 6022     		movs	r2, #96
 1186 0178 FFF7FEFF 		bl	_mmcsd_get_slice
 1187 017c 0346     		mov	r3, r0
 1188 017e DAB2     		uxtb	r2, r3
 1189 0180 3B68     		ldr	r3, [r7]
 1190 0182 DA70     		strb	r2, [r3, #3]
 1191              		.loc 1 281 0
ARM GAS  C:\Users\Luis\AppData\Local\Temp\cc23RfwK.s 			page 22


 1192 0184 F868     		ldr	r0, [r7, #12]
 1193 0186 1F21     		movs	r1, #31
 1194 0188 1F22     		movs	r2, #31
 1195 018a FFF7FEFF 		bl	_mmcsd_get_slice
 1196 018e 0346     		mov	r3, r0
 1197 0190 DAB2     		uxtb	r2, r3
 1198 0192 3B68     		ldr	r3, [r7]
 1199 0194 9A75     		strb	r2, [r3, #22]
 1200              		.loc 1 282 0
 1201 0196 F868     		ldr	r0, [r7, #12]
 1202 0198 2621     		movs	r1, #38
 1203 019a 2022     		movs	r2, #32
 1204 019c FFF7FEFF 		bl	_mmcsd_get_slice
 1205 01a0 0346     		mov	r3, r0
 1206 01a2 DAB2     		uxtb	r2, r3
 1207 01a4 3B68     		ldr	r3, [r7]
 1208 01a6 5A75     		strb	r2, [r3, #21]
 1209              		.loc 1 283 0
 1210 01a8 F868     		ldr	r0, [r7, #12]
 1211 01aa 1921     		movs	r1, #25
 1212 01ac 0C22     		movs	r2, #12
 1213 01ae FFF7FEFF 		bl	_mmcsd_get_slice
 1214 01b2 0346     		mov	r3, r0
 1215 01b4 DAB2     		uxtb	r2, r3
 1216 01b6 3B68     		ldr	r3, [r7]
 1217 01b8 1A76     		strb	r2, [r3, #24]
 1218              		.loc 1 284 0
 1219 01ba F868     		ldr	r0, [r7, #12]
 1220 01bc 1521     		movs	r1, #21
 1221 01be 1522     		movs	r2, #21
 1222 01c0 FFF7FEFF 		bl	_mmcsd_get_slice
 1223 01c4 0346     		mov	r3, r0
 1224 01c6 DAB2     		uxtb	r2, r3
 1225 01c8 3B68     		ldr	r3, [r7]
 1226 01ca 5A76     		strb	r2, [r3, #25]
 1227              		.loc 1 285 0
 1228 01cc F868     		ldr	r0, [r7, #12]
 1229 01ce 4E21     		movs	r1, #78
 1230 01d0 4E22     		movs	r2, #78
 1231 01d2 FFF7FEFF 		bl	_mmcsd_get_slice
 1232 01d6 0346     		mov	r3, r0
 1233 01d8 DAB2     		uxtb	r2, r3
 1234 01da 3B68     		ldr	r3, [r7]
 1235 01dc 1A72     		strb	r2, [r3, #8]
 1236              		.loc 1 286 0
 1237 01de 1037     		adds	r7, r7, #16
 1238 01e0 BD46     		mov	sp, r7
 1239              		@ sp needed
 1240 01e2 80BD     		pop	{r7, pc}
 1241              	.L40:
 1242              		.align	2
 1243              	.L39:
 1244 01e4 00000000 		.word	__func__.7951
 1245              		.cfi_endproc
 1246              	.LFE266:
 1247              		.size	_mmcsd_unpack_csd_v10, .-_mmcsd_unpack_csd_v10
 1248 01e8 AFF30080 		.section	.text._mmcsd_unpack_csd_v20,"ax",%progbits
ARM GAS  C:\Users\Luis\AppData\Local\Temp\cc23RfwK.s 			page 23


 1248      AFF30080 
 1249              		.align	2
 1250              		.p2align 4,,15
 1251              		.global	_mmcsd_unpack_csd_v20
 1252              		.thumb
 1253              		.thumb_func
 1254              		.type	_mmcsd_unpack_csd_v20, %function
 1255              	_mmcsd_unpack_csd_v20:
 1256              	.LFB267:
 1257              		.loc 1 297 0
 1258              		.cfi_startproc
 1259              		@ args = 0, pretend = 0, frame = 16
 1260              		@ frame_needed = 1, uses_anonymous_args = 0
 1261 0000 80B5     		push	{r7, lr}
 1262              		.cfi_def_cfa_offset 8
 1263              		.cfi_offset 7, -8
 1264              		.cfi_offset 14, -4
 1265 0002 84B0     		sub	sp, sp, #16
 1266              		.cfi_def_cfa_offset 24
 1267 0004 00AF     		add	r7, sp, #0
 1268              		.cfi_def_cfa_register 7
 1269 0006 7860     		str	r0, [r7, #4]
 1270 0008 3960     		str	r1, [r7]
 1271              		.loc 1 300 0
 1272 000a 7B68     		ldr	r3, [r7, #4]
 1273 000c 002B     		cmp	r3, #0
 1274 000e 02D1     		bne	.L42
 1275              		.loc 1 300 0 is_stmt 0 discriminator 1
 1276 0010 6F48     		ldr	r0, .L43
 1277 0012 FFF7FEFF 		bl	chSysHalt
 1278              	.L42:
 1279              		.loc 1 302 0 is_stmt 1
 1280 0016 7B68     		ldr	r3, [r7, #4]
 1281 0018 1833     		adds	r3, r3, #24
 1282 001a FB60     		str	r3, [r7, #12]
 1283              		.loc 1 303 0
 1284 001c F868     		ldr	r0, [r7, #12]
 1285 001e 4521     		movs	r1, #69
 1286 0020 3022     		movs	r2, #48
 1287 0022 FFF7FEFF 		bl	_mmcsd_get_slice
 1288 0026 0246     		mov	r2, r0
 1289 0028 3B68     		ldr	r3, [r7]
 1290 002a DA60     		str	r2, [r3, #12]
 1291              		.loc 1 304 0
 1292 002c F868     		ldr	r0, [r7, #12]
 1293 002e 0721     		movs	r1, #7
 1294 0030 0122     		movs	r2, #1
 1295 0032 FFF7FEFF 		bl	_mmcsd_get_slice
 1296 0036 0346     		mov	r3, r0
 1297 0038 DAB2     		uxtb	r2, r3
 1298 003a 3B68     		ldr	r3, [r7]
 1299 003c 1A77     		strb	r2, [r3, #28]
 1300              		.loc 1 305 0
 1301 003e F868     		ldr	r0, [r7, #12]
 1302 0040 5F21     		movs	r1, #95
 1303 0042 5422     		movs	r2, #84
 1304 0044 FFF7FEFF 		bl	_mmcsd_get_slice
ARM GAS  C:\Users\Luis\AppData\Local\Temp\cc23RfwK.s 			page 24


 1305 0048 0346     		mov	r3, r0
 1306 004a 9AB2     		uxth	r2, r3
 1307 004c 3B68     		ldr	r3, [r7]
 1308 004e 9A80     		strh	r2, [r3, #4]	@ movhi
 1309              		.loc 1 306 0
 1310 0050 F868     		ldr	r0, [r7, #12]
 1311 0052 0E21     		movs	r1, #14
 1312 0054 0E22     		movs	r2, #14
 1313 0056 FFF7FEFF 		bl	_mmcsd_get_slice
 1314 005a 0346     		mov	r3, r0
 1315 005c DAB2     		uxtb	r2, r3
 1316 005e 3B68     		ldr	r3, [r7]
 1317 0060 1A76     		strb	r2, [r3, #24]
 1318              		.loc 1 307 0
 1319 0062 F868     		ldr	r0, [r7, #12]
 1320 0064 7F21     		movs	r1, #127
 1321 0066 7E22     		movs	r2, #126
 1322 0068 FFF7FEFF 		bl	_mmcsd_get_slice
 1323 006c 0346     		mov	r3, r0
 1324 006e DAB2     		uxtb	r2, r3
 1325 0070 3B68     		ldr	r3, [r7]
 1326 0072 1A70     		strb	r2, [r3]
 1327              		.loc 1 308 0
 1328 0074 F868     		ldr	r0, [r7, #12]
 1329 0076 4C21     		movs	r1, #76
 1330 0078 4C22     		movs	r2, #76
 1331 007a FFF7FEFF 		bl	_mmcsd_get_slice
 1332 007e 0346     		mov	r3, r0
 1333 0080 DAB2     		uxtb	r2, r3
 1334 0082 3B68     		ldr	r3, [r7]
 1335 0084 9A72     		strb	r2, [r3, #10]
 1336              		.loc 1 309 0
 1337 0086 F868     		ldr	r0, [r7, #12]
 1338 0088 2E21     		movs	r1, #46
 1339 008a 2E22     		movs	r2, #46
 1340 008c FFF7FEFF 		bl	_mmcsd_get_slice
 1341 0090 0346     		mov	r3, r0
 1342 0092 DAB2     		uxtb	r2, r3
 1343 0094 3B68     		ldr	r3, [r7]
 1344 0096 1A74     		strb	r2, [r3, #16]
 1345              		.loc 1 310 0
 1346 0098 F868     		ldr	r0, [r7, #12]
 1347 009a 0B21     		movs	r1, #11
 1348 009c 0A22     		movs	r2, #10
 1349 009e FFF7FEFF 		bl	_mmcsd_get_slice
 1350 00a2 0346     		mov	r3, r0
 1351 00a4 DAB2     		uxtb	r2, r3
 1352 00a6 3B68     		ldr	r3, [r7]
 1353 00a8 DA76     		strb	r2, [r3, #27]
 1354              		.loc 1 311 0
 1355 00aa F868     		ldr	r0, [r7, #12]
 1356 00ac 0F21     		movs	r1, #15
 1357 00ae 0F22     		movs	r2, #15
 1358 00b0 FFF7FEFF 		bl	_mmcsd_get_slice
 1359 00b4 0346     		mov	r3, r0
 1360 00b6 DAB2     		uxtb	r2, r3
 1361 00b8 3B68     		ldr	r3, [r7]
ARM GAS  C:\Users\Luis\AppData\Local\Temp\cc23RfwK.s 			page 25


 1362 00ba DA75     		strb	r2, [r3, #23]
 1363              		.loc 1 312 0
 1364 00bc F868     		ldr	r0, [r7, #12]
 1365 00be 6F21     		movs	r1, #111
 1366 00c0 6822     		movs	r2, #104
 1367 00c2 FFF7FEFF 		bl	_mmcsd_get_slice
 1368 00c6 0346     		mov	r3, r0
 1369 00c8 DAB2     		uxtb	r2, r3
 1370 00ca 3B68     		ldr	r3, [r7]
 1371 00cc 9A70     		strb	r2, [r3, #2]
 1372              		.loc 1 313 0
 1373 00ce F868     		ldr	r0, [r7, #12]
 1374 00d0 0D21     		movs	r1, #13
 1375 00d2 0D22     		movs	r2, #13
 1376 00d4 FFF7FEFF 		bl	_mmcsd_get_slice
 1377 00d8 0346     		mov	r3, r0
 1378 00da DAB2     		uxtb	r2, r3
 1379 00dc 3B68     		ldr	r3, [r7]
 1380 00de 5A76     		strb	r2, [r3, #25]
 1381              		.loc 1 314 0
 1382 00e0 F868     		ldr	r0, [r7, #12]
 1383 00e2 1C21     		movs	r1, #28
 1384 00e4 1A22     		movs	r2, #26
 1385 00e6 FFF7FEFF 		bl	_mmcsd_get_slice
 1386 00ea 0346     		mov	r3, r0
 1387 00ec DAB2     		uxtb	r2, r3
 1388 00ee 3B68     		ldr	r3, [r7]
 1389 00f0 1A75     		strb	r2, [r3, #20]
 1390              		.loc 1 315 0
 1391 00f2 F868     		ldr	r0, [r7, #12]
 1392 00f4 5321     		movs	r1, #83
 1393 00f6 5022     		movs	r2, #80
 1394 00f8 FFF7FEFF 		bl	_mmcsd_get_slice
 1395 00fc 0346     		mov	r3, r0
 1396 00fe DAB2     		uxtb	r2, r3
 1397 0100 3B68     		ldr	r3, [r7]
 1398 0102 9A71     		strb	r2, [r3, #6]
 1399              		.loc 1 316 0
 1400 0104 F868     		ldr	r0, [r7, #12]
 1401 0106 4F21     		movs	r1, #79
 1402 0108 4F22     		movs	r2, #79
 1403 010a FFF7FEFF 		bl	_mmcsd_get_slice
 1404 010e 0346     		mov	r3, r0
 1405 0110 DAB2     		uxtb	r2, r3
 1406 0112 3B68     		ldr	r3, [r7]
 1407 0114 DA71     		strb	r2, [r3, #7]
 1408              		.loc 1 317 0
 1409 0116 F868     		ldr	r0, [r7, #12]
 1410 0118 4D21     		movs	r1, #77
 1411 011a 4D22     		movs	r2, #77
 1412 011c FFF7FEFF 		bl	_mmcsd_get_slice
 1413 0120 0346     		mov	r3, r0
 1414 0122 DAB2     		uxtb	r2, r3
 1415 0124 3B68     		ldr	r3, [r7]
 1416 0126 5A72     		strb	r2, [r3, #9]
 1417              		.loc 1 318 0
 1418 0128 F868     		ldr	r0, [r7, #12]
ARM GAS  C:\Users\Luis\AppData\Local\Temp\cc23RfwK.s 			page 26


 1419 012a 2D21     		movs	r1, #45
 1420 012c 2722     		movs	r2, #39
 1421 012e FFF7FEFF 		bl	_mmcsd_get_slice
 1422 0132 0346     		mov	r3, r0
 1423 0134 DAB2     		uxtb	r2, r3
 1424 0136 3B68     		ldr	r3, [r7]
 1425 0138 5A74     		strb	r2, [r3, #17]
 1426              		.loc 1 319 0
 1427 013a F868     		ldr	r0, [r7, #12]
 1428 013c 7721     		movs	r1, #119
 1429 013e 7022     		movs	r2, #112
 1430 0140 FFF7FEFF 		bl	_mmcsd_get_slice
 1431 0144 0346     		mov	r3, r0
 1432 0146 DAB2     		uxtb	r2, r3
 1433 0148 3B68     		ldr	r3, [r7]
 1434 014a 5A70     		strb	r2, [r3, #1]
 1435              		.loc 1 320 0
 1436 014c F868     		ldr	r0, [r7, #12]
 1437 014e 0C21     		movs	r1, #12
 1438 0150 0C22     		movs	r2, #12
 1439 0152 FFF7FEFF 		bl	_mmcsd_get_slice
 1440 0156 0346     		mov	r3, r0
 1441 0158 DAB2     		uxtb	r2, r3
 1442 015a 3B68     		ldr	r3, [r7]
 1443 015c 9A76     		strb	r2, [r3, #26]
 1444              		.loc 1 321 0
 1445 015e F868     		ldr	r0, [r7, #12]
 1446 0160 6721     		movs	r1, #103
 1447 0162 6022     		movs	r2, #96
 1448 0164 FFF7FEFF 		bl	_mmcsd_get_slice
 1449 0168 0346     		mov	r3, r0
 1450 016a DAB2     		uxtb	r2, r3
 1451 016c 3B68     		ldr	r3, [r7]
 1452 016e DA70     		strb	r2, [r3, #3]
 1453              		.loc 1 322 0
 1454 0170 F868     		ldr	r0, [r7, #12]
 1455 0172 1F21     		movs	r1, #31
 1456 0174 1F22     		movs	r2, #31
 1457 0176 FFF7FEFF 		bl	_mmcsd_get_slice
 1458 017a 0346     		mov	r3, r0
 1459 017c DAB2     		uxtb	r2, r3
 1460 017e 3B68     		ldr	r3, [r7]
 1461 0180 DA74     		strb	r2, [r3, #19]
 1462              		.loc 1 323 0
 1463 0182 F868     		ldr	r0, [r7, #12]
 1464 0184 2621     		movs	r1, #38
 1465 0186 2022     		movs	r2, #32
 1466 0188 FFF7FEFF 		bl	_mmcsd_get_slice
 1467 018c 0346     		mov	r3, r0
 1468 018e DAB2     		uxtb	r2, r3
 1469 0190 3B68     		ldr	r3, [r7]
 1470 0192 9A74     		strb	r2, [r3, #18]
 1471              		.loc 1 324 0
 1472 0194 F868     		ldr	r0, [r7, #12]
 1473 0196 1921     		movs	r1, #25
 1474 0198 0C22     		movs	r2, #12
 1475 019a FFF7FEFF 		bl	_mmcsd_get_slice
ARM GAS  C:\Users\Luis\AppData\Local\Temp\cc23RfwK.s 			page 27


 1476 019e 0346     		mov	r3, r0
 1477 01a0 DAB2     		uxtb	r2, r3
 1478 01a2 3B68     		ldr	r3, [r7]
 1479 01a4 5A75     		strb	r2, [r3, #21]
 1480              		.loc 1 325 0
 1481 01a6 F868     		ldr	r0, [r7, #12]
 1482 01a8 1521     		movs	r1, #21
 1483 01aa 1522     		movs	r2, #21
 1484 01ac FFF7FEFF 		bl	_mmcsd_get_slice
 1485 01b0 0346     		mov	r3, r0
 1486 01b2 DAB2     		uxtb	r2, r3
 1487 01b4 3B68     		ldr	r3, [r7]
 1488 01b6 9A75     		strb	r2, [r3, #22]
 1489              		.loc 1 326 0
 1490 01b8 F868     		ldr	r0, [r7, #12]
 1491 01ba 4E21     		movs	r1, #78
 1492 01bc 4E22     		movs	r2, #78
 1493 01be FFF7FEFF 		bl	_mmcsd_get_slice
 1494 01c2 0346     		mov	r3, r0
 1495 01c4 DAB2     		uxtb	r2, r3
 1496 01c6 3B68     		ldr	r3, [r7]
 1497 01c8 1A72     		strb	r2, [r3, #8]
 1498              		.loc 1 327 0
 1499 01ca 1037     		adds	r7, r7, #16
 1500 01cc BD46     		mov	sp, r7
 1501              		@ sp needed
 1502 01ce 80BD     		pop	{r7, pc}
 1503              	.L44:
 1504              		.align	2
 1505              	.L43:
 1506 01d0 00000000 		.word	__func__.7957
 1507              		.cfi_endproc
 1508              	.LFE267:
 1509              		.size	_mmcsd_unpack_csd_v20, .-_mmcsd_unpack_csd_v20
 1510 01d4 AFF30080 		.section	.rodata.__func__.7912,"a",%progbits
 1510      AFF30080 
 1510      AFF30080 
 1511              		.align	2
 1512              		.type	__func__.7912, %object
 1513              		.size	__func__.7912, 17
 1514              	__func__.7912:
 1515 0000 5F6D6D63 		.ascii	"_mmcsd_get_slice\000"
 1515      73645F67 
 1515      65745F73 
 1515      6C696365 
 1515      00
 1516 0011 000000   		.section	.rodata.__func__.7919,"a",%progbits
 1517              		.align	2
 1518              		.type	__func__.7919, %object
 1519              		.size	__func__.7919, 20
 1520              	__func__.7919:
 1521 0000 5F6D6D63 		.ascii	"_mmcsd_get_capacity\000"
 1521      73645F67 
 1521      65745F63 
 1521      61706163 
 1521      69747900 
 1522              		.section	.rodata.__func__.7927,"a",%progbits
ARM GAS  C:\Users\Luis\AppData\Local\Temp\cc23RfwK.s 			page 28


 1523              		.align	2
 1524              		.type	__func__.7927, %object
 1525              		.size	__func__.7927, 24
 1526              	__func__.7927:
 1527 0000 5F6D6D63 		.ascii	"_mmcsd_get_capacity_ext\000"
 1527      73645F67 
 1527      65745F63 
 1527      61706163 
 1527      6974795F 
 1528              		.section	.rodata.__func__.7933,"a",%progbits
 1529              		.align	2
 1530              		.type	__func__.7933, %object
 1531              		.size	__func__.7933, 22
 1532              	__func__.7933:
 1533 0000 5F6D6D63 		.ascii	"_mmcsd_unpack_sdc_cid\000"
 1533      73645F75 
 1533      6E706163 
 1533      6B5F7364 
 1533      635F6369 
 1534 0016 0000     		.section	.rodata.__func__.7939,"a",%progbits
 1535              		.align	2
 1536              		.type	__func__.7939, %object
 1537              		.size	__func__.7939, 22
 1538              	__func__.7939:
 1539 0000 5F6D6D63 		.ascii	"_mmcsd_unpack_mmc_cid\000"
 1539      73645F75 
 1539      6E706163 
 1539      6B5F6D6D 
 1539      635F6369 
 1540 0016 0000     		.section	.rodata.__func__.7945,"a",%progbits
 1541              		.align	2
 1542              		.type	__func__.7945, %object
 1543              		.size	__func__.7945, 22
 1544              	__func__.7945:
 1545 0000 5F6D6D63 		.ascii	"_mmcsd_unpack_csd_mmc\000"
 1545      73645F75 
 1545      6E706163 
 1545      6B5F6373 
 1545      645F6D6D 
 1546 0016 0000     		.section	.rodata.__func__.7951,"a",%progbits
 1547              		.align	2
 1548              		.type	__func__.7951, %object
 1549              		.size	__func__.7951, 22
 1550              	__func__.7951:
 1551 0000 5F6D6D63 		.ascii	"_mmcsd_unpack_csd_v10\000"
 1551      73645F75 
 1551      6E706163 
 1551      6B5F6373 
 1551      645F7631 
 1552 0016 0000     		.section	.rodata.__func__.7957,"a",%progbits
 1553              		.align	2
 1554              		.type	__func__.7957, %object
 1555              		.size	__func__.7957, 22
 1556              	__func__.7957:
 1557 0000 5F6D6D63 		.ascii	"_mmcsd_unpack_csd_v20\000"
 1557      73645F75 
 1557      6E706163 
ARM GAS  C:\Users\Luis\AppData\Local\Temp\cc23RfwK.s 			page 29


 1557      6B5F6373 
 1557      645F7632 
 1558 0016 0000     		.text
 1559              	.Letext0:
 1560              		.file 2 "c:\\emtechesdk\\gcc\\arm-none-eabi\\include\\stdint.h"
 1561              		.file 3 "../../ChibiOS/os/rt/ports/ARMCMx/compilers/GCC/chtypes.h"
 1562              		.file 4 "../../ChibiOS/os/rt/include/chsystypes.h"
 1563              		.file 5 "../../ChibiOS/os/rt/include/chschd.h"
 1564              		.file 6 "../../ChibiOS/os/rt/ports/ARMCMx/chcore.h"
 1565              		.file 7 "../../ChibiOS/os/rt/ports/ARMCMx/chcore_v7m.h"
 1566              		.file 8 "../../ChibiOS/os/rt/include/chdebug.h"
 1567              		.file 9 "../../ChibiOS/os/rt/include/chtm.h"
 1568              		.file 10 "../../ChibiOS/os/rt/include/chstats.h"
 1569              		.file 11 "../../ChibiOS/os/rt/include/chsem.h"
 1570              		.file 12 "../../ChibiOS/os/rt/include/chmtx.h"
 1571              		.file 13 "../../ChibiOS/os/hal/include/hal_ioblock.h"
 1572              		.file 14 "../../ChibiOS/os/hal/include/hal_mmcsd.h"
 1573              		.file 15 "../../ChibiOS/os/ext/CMSIS/include/core_cm4.h"
 1574              		.section	.debug_info,"",%progbits
 1575              	.Ldebug_info0:
 1576 0000 C0120000 		.4byte	0x12c0
 1577 0004 0400     		.2byte	0x4
 1578 0006 00000000 		.4byte	.Ldebug_abbrev0
 1579 000a 04       		.byte	0x4
 1580 000b 01       		.uleb128 0x1
 1581 000c 2C080000 		.4byte	.LASF216
 1582 0010 01       		.byte	0x1
 1583 0011 16040000 		.4byte	.LASF217
 1584 0015 F5010000 		.4byte	.LASF218
 1585 0019 00000000 		.4byte	.Ldebug_ranges0+0
 1586 001d 00000000 		.4byte	0
 1587 0021 00000000 		.4byte	.Ldebug_line0
 1588 0025 02       		.uleb128 0x2
 1589 0026 04       		.byte	0x4
 1590 0027 05       		.byte	0x5
 1591 0028 696E7400 		.ascii	"int\000"
 1592 002c 03       		.uleb128 0x3
 1593 002d 04       		.byte	0x4
 1594 002e 07       		.byte	0x7
 1595 002f 56030000 		.4byte	.LASF0
 1596 0033 03       		.uleb128 0x3
 1597 0034 01       		.byte	0x1
 1598 0035 06       		.byte	0x6
 1599 0036 9C010000 		.4byte	.LASF1
 1600 003a 04       		.uleb128 0x4
 1601 003b F8060000 		.4byte	.LASF4
 1602 003f 02       		.byte	0x2
 1603 0040 2A       		.byte	0x2a
 1604 0041 45000000 		.4byte	0x45
 1605 0045 03       		.uleb128 0x3
 1606 0046 01       		.byte	0x1
 1607 0047 08       		.byte	0x8
 1608 0048 78060000 		.4byte	.LASF2
 1609 004c 03       		.uleb128 0x3
 1610 004d 02       		.byte	0x2
 1611 004e 05       		.byte	0x5
 1612 004f 8C050000 		.4byte	.LASF3
ARM GAS  C:\Users\Luis\AppData\Local\Temp\cc23RfwK.s 			page 30


 1613 0053 04       		.uleb128 0x4
 1614 0054 91020000 		.4byte	.LASF5
 1615 0058 02       		.byte	0x2
 1616 0059 36       		.byte	0x36
 1617 005a 5E000000 		.4byte	0x5e
 1618 005e 03       		.uleb128 0x3
 1619 005f 02       		.byte	0x2
 1620 0060 07       		.byte	0x7
 1621 0061 B7030000 		.4byte	.LASF6
 1622 0065 04       		.uleb128 0x4
 1623 0066 70060000 		.4byte	.LASF7
 1624 006a 02       		.byte	0x2
 1625 006b 4F       		.byte	0x4f
 1626 006c 70000000 		.4byte	0x70
 1627 0070 03       		.uleb128 0x3
 1628 0071 04       		.byte	0x4
 1629 0072 05       		.byte	0x5
 1630 0073 58020000 		.4byte	.LASF8
 1631 0077 04       		.uleb128 0x4
 1632 0078 83090000 		.4byte	.LASF9
 1633 007c 02       		.byte	0x2
 1634 007d 50       		.byte	0x50
 1635 007e 82000000 		.4byte	0x82
 1636 0082 03       		.uleb128 0x3
 1637 0083 04       		.byte	0x4
 1638 0084 07       		.byte	0x7
 1639 0085 F2070000 		.4byte	.LASF10
 1640 0089 03       		.uleb128 0x3
 1641 008a 08       		.byte	0x8
 1642 008b 05       		.byte	0x5
 1643 008c 8E010000 		.4byte	.LASF11
 1644 0090 04       		.uleb128 0x4
 1645 0091 60000000 		.4byte	.LASF12
 1646 0095 02       		.byte	0x2
 1647 0096 78       		.byte	0x78
 1648 0097 9B000000 		.4byte	0x9b
 1649 009b 03       		.uleb128 0x3
 1650 009c 08       		.byte	0x8
 1651 009d 07       		.byte	0x7
 1652 009e D1000000 		.4byte	.LASF13
 1653 00a2 05       		.uleb128 0x5
 1654 00a3 65000000 		.4byte	0x65
 1655 00a7 04       		.uleb128 0x4
 1656 00a8 61090000 		.4byte	.LASF14
 1657 00ac 03       		.byte	0x3
 1658 00ad 45       		.byte	0x45
 1659 00ae 77000000 		.4byte	0x77
 1660 00b2 04       		.uleb128 0x4
 1661 00b3 73010000 		.4byte	.LASF15
 1662 00b7 03       		.byte	0x3
 1663 00b8 46       		.byte	0x46
 1664 00b9 90000000 		.4byte	0x90
 1665 00bd 04       		.uleb128 0x4
 1666 00be 4C040000 		.4byte	.LASF16
 1667 00c2 03       		.byte	0x3
 1668 00c3 48       		.byte	0x48
 1669 00c4 3A000000 		.4byte	0x3a
ARM GAS  C:\Users\Luis\AppData\Local\Temp\cc23RfwK.s 			page 31


 1670 00c8 04       		.uleb128 0x4
 1671 00c9 61020000 		.4byte	.LASF17
 1672 00cd 03       		.byte	0x3
 1673 00ce 49       		.byte	0x49
 1674 00cf 3A000000 		.4byte	0x3a
 1675 00d3 04       		.uleb128 0x4
 1676 00d4 F3050000 		.4byte	.LASF18
 1677 00d8 03       		.byte	0x3
 1678 00d9 4A       		.byte	0x4a
 1679 00da 3A000000 		.4byte	0x3a
 1680 00de 04       		.uleb128 0x4
 1681 00df 2B060000 		.4byte	.LASF19
 1682 00e3 03       		.byte	0x3
 1683 00e4 4C       		.byte	0x4c
 1684 00e5 77000000 		.4byte	0x77
 1685 00e9 04       		.uleb128 0x4
 1686 00ea EE030000 		.4byte	.LASF20
 1687 00ee 03       		.byte	0x3
 1688 00ef 4D       		.byte	0x4d
 1689 00f0 65000000 		.4byte	0x65
 1690 00f4 04       		.uleb128 0x4
 1691 00f5 7A040000 		.4byte	.LASF21
 1692 00f9 03       		.byte	0x3
 1693 00fa 4F       		.byte	0x4f
 1694 00fb 77000000 		.4byte	0x77
 1695 00ff 04       		.uleb128 0x4
 1696 0100 45030000 		.4byte	.LASF22
 1697 0104 03       		.byte	0x3
 1698 0105 51       		.byte	0x51
 1699 0106 65000000 		.4byte	0x65
 1700 010a 04       		.uleb128 0x4
 1701 010b 00040000 		.4byte	.LASF23
 1702 010f 03       		.byte	0x3
 1703 0110 52       		.byte	0x52
 1704 0111 77000000 		.4byte	0x77
 1705 0115 04       		.uleb128 0x4
 1706 0116 0A090000 		.4byte	.LASF24
 1707 011a 04       		.byte	0x4
 1708 011b 33       		.byte	0x33
 1709 011c 77000000 		.4byte	0x77
 1710 0120 04       		.uleb128 0x4
 1711 0121 CF090000 		.4byte	.LASF25
 1712 0125 04       		.byte	0x4
 1713 0126 3F       		.byte	0x3f
 1714 0127 2B010000 		.4byte	0x12b
 1715 012b 06       		.uleb128 0x6
 1716 012c E4030000 		.4byte	.LASF48
 1717 0130 68       		.byte	0x68
 1718 0131 05       		.byte	0x5
 1719 0132 C2       		.byte	0xc2
 1720 0133 3E020000 		.4byte	0x23e
 1721 0137 07       		.uleb128 0x7
 1722 0138 F1060000 		.4byte	.LASF26
 1723 013c 05       		.byte	0x5
 1724 013d C3       		.byte	0xc3
 1725 013e 49020000 		.4byte	0x249
 1726 0142 00       		.byte	0
ARM GAS  C:\Users\Luis\AppData\Local\Temp\cc23RfwK.s 			page 32


 1727 0143 07       		.uleb128 0x7
 1728 0144 1D060000 		.4byte	.LASF27
 1729 0148 05       		.byte	0x5
 1730 0149 C5       		.byte	0xc5
 1731 014a 49020000 		.4byte	0x249
 1732 014e 04       		.byte	0x4
 1733 014f 07       		.uleb128 0x7
 1734 0150 87010000 		.4byte	.LASF28
 1735 0154 05       		.byte	0x5
 1736 0155 C7       		.byte	0xc7
 1737 0156 DE000000 		.4byte	0xde
 1738 015a 08       		.byte	0x8
 1739 015b 07       		.uleb128 0x7
 1740 015c 770A0000 		.4byte	.LASF29
 1741 0160 05       		.byte	0x5
 1742 0161 C8       		.byte	0xc8
 1743 0162 C2040000 		.4byte	0x4c2
 1744 0166 0C       		.byte	0xc
 1745 0167 07       		.uleb128 0x7
 1746 0168 BC020000 		.4byte	.LASF30
 1747 016c 05       		.byte	0x5
 1748 016d CA       		.byte	0xca
 1749 016e 49020000 		.4byte	0x249
 1750 0172 10       		.byte	0x10
 1751 0173 07       		.uleb128 0x7
 1752 0174 55050000 		.4byte	.LASF31
 1753 0178 05       		.byte	0x5
 1754 0179 CB       		.byte	0xcb
 1755 017a 49020000 		.4byte	0x249
 1756 017e 14       		.byte	0x14
 1757 017f 07       		.uleb128 0x7
 1758 0180 1E0A0000 		.4byte	.LASF32
 1759 0184 05       		.byte	0x5
 1760 0185 D2       		.byte	0xd2
 1761 0186 66070000 		.4byte	0x766
 1762 018a 18       		.byte	0x18
 1763 018b 07       		.uleb128 0x7
 1764 018c 4B030000 		.4byte	.LASF33
 1765 0190 05       		.byte	0x5
 1766 0191 D8       		.byte	0xd8
 1767 0192 78070000 		.4byte	0x778
 1768 0196 1C       		.byte	0x1c
 1769 0197 07       		.uleb128 0x7
 1770 0198 86060000 		.4byte	.LASF34
 1771 019c 05       		.byte	0x5
 1772 019d DD       		.byte	0xdd
 1773 019e C8000000 		.4byte	0xc8
 1774 01a2 20       		.byte	0x20
 1775 01a3 07       		.uleb128 0x7
 1776 01a4 4E0A0000 		.4byte	.LASF35
 1777 01a8 05       		.byte	0x5
 1778 01a9 E1       		.byte	0xe1
 1779 01aa BD000000 		.4byte	0xbd
 1780 01ae 21       		.byte	0x21
 1781 01af 07       		.uleb128 0x7
 1782 01b0 B4090000 		.4byte	.LASF36
 1783 01b4 05       		.byte	0x5
ARM GAS  C:\Users\Luis\AppData\Local\Temp\cc23RfwK.s 			page 33


 1784 01b5 E6       		.byte	0xe6
 1785 01b6 D3000000 		.4byte	0xd3
 1786 01ba 22       		.byte	0x22
 1787 01bb 08       		.uleb128 0x8
 1788 01bc 705F7500 		.ascii	"p_u\000"
 1789 01c0 05       		.byte	0x5
 1790 01c1 3101     		.2byte	0x131
 1791 01c3 A1060000 		.4byte	0x6a1
 1792 01c7 24       		.byte	0x24
 1793 01c8 09       		.uleb128 0x9
 1794 01c9 D3040000 		.4byte	.LASF37
 1795 01cd 05       		.byte	0x5
 1796 01ce 3601     		.2byte	0x136
 1797 01d0 4F020000 		.4byte	0x24f
 1798 01d4 28       		.byte	0x28
 1799 01d5 09       		.uleb128 0x9
 1800 01d6 7C030000 		.4byte	.LASF38
 1801 01da 05       		.byte	0x5
 1802 01db 3C01     		.2byte	0x13c
 1803 01dd 73020000 		.4byte	0x273
 1804 01e1 2C       		.byte	0x2c
 1805 01e2 09       		.uleb128 0x9
 1806 01e3 560A0000 		.4byte	.LASF39
 1807 01e7 05       		.byte	0x5
 1808 01e8 4001     		.2byte	0x140
 1809 01ea E9000000 		.4byte	0xe9
 1810 01ee 34       		.byte	0x34
 1811 01ef 09       		.uleb128 0x9
 1812 01f0 72070000 		.4byte	.LASF40
 1813 01f4 05       		.byte	0x5
 1814 01f5 4601     		.2byte	0x146
 1815 01f7 F4000000 		.4byte	0xf4
 1816 01fb 38       		.byte	0x38
 1817 01fc 09       		.uleb128 0x9
 1818 01fd 6A020000 		.4byte	.LASF41
 1819 0201 05       		.byte	0x5
 1820 0202 4D01     		.2byte	0x14d
 1821 0204 60070000 		.4byte	0x760
 1822 0208 3C       		.byte	0x3c
 1823 0209 09       		.uleb128 0x9
 1824 020a 14090000 		.4byte	.LASF42
 1825 020e 05       		.byte	0x5
 1826 020f 5101     		.2byte	0x151
 1827 0211 DE000000 		.4byte	0xde
 1828 0215 40       		.byte	0x40
 1829 0216 09       		.uleb128 0x9
 1830 0217 D3010000 		.4byte	.LASF43
 1831 021b 05       		.byte	0x5
 1832 021c 5801     		.2byte	0x158
 1833 021e 26030000 		.4byte	0x326
 1834 0222 44       		.byte	0x44
 1835 0223 09       		.uleb128 0x9
 1836 0224 09070000 		.4byte	.LASF44
 1837 0228 05       		.byte	0x5
 1838 0229 5E01     		.2byte	0x15e
 1839 022b 52060000 		.4byte	0x652
 1840 022f 48       		.byte	0x48
ARM GAS  C:\Users\Luis\AppData\Local\Temp\cc23RfwK.s 			page 34


 1841 0230 09       		.uleb128 0x9
 1842 0231 87030000 		.4byte	.LASF45
 1843 0235 05       		.byte	0x5
 1844 0236 6201     		.2byte	0x162
 1845 0238 26030000 		.4byte	0x326
 1846 023c 60       		.byte	0x60
 1847 023d 00       		.byte	0
 1848 023e 04       		.uleb128 0x4
 1849 023f F2040000 		.4byte	.LASF46
 1850 0243 04       		.byte	0x4
 1851 0244 44       		.byte	0x44
 1852 0245 49020000 		.4byte	0x249
 1853 0249 0A       		.uleb128 0xa
 1854 024a 04       		.byte	0x4
 1855 024b 20010000 		.4byte	0x120
 1856 024f 04       		.uleb128 0x4
 1857 0250 250A0000 		.4byte	.LASF47
 1858 0254 04       		.byte	0x4
 1859 0255 49       		.byte	0x49
 1860 0256 5A020000 		.4byte	0x25a
 1861 025a 06       		.uleb128 0x6
 1862 025b BB070000 		.4byte	.LASF49
 1863 025f 04       		.byte	0x4
 1864 0260 05       		.byte	0x5
 1865 0261 B0       		.byte	0xb0
 1866 0262 73020000 		.4byte	0x273
 1867 0266 07       		.uleb128 0x7
 1868 0267 F1060000 		.4byte	.LASF26
 1869 026b 05       		.byte	0x5
 1870 026c B1       		.byte	0xb1
 1871 026d 49020000 		.4byte	0x249
 1872 0271 00       		.byte	0
 1873 0272 00       		.byte	0
 1874 0273 04       		.uleb128 0x4
 1875 0274 9B090000 		.4byte	.LASF50
 1876 0278 04       		.byte	0x4
 1877 0279 50       		.byte	0x50
 1878 027a 7E020000 		.4byte	0x27e
 1879 027e 06       		.uleb128 0x6
 1880 027f 82000000 		.4byte	.LASF51
 1881 0283 08       		.byte	0x8
 1882 0284 05       		.byte	0x5
 1883 0285 B7       		.byte	0xb7
 1884 0286 A3020000 		.4byte	0x2a3
 1885 028a 07       		.uleb128 0x7
 1886 028b F1060000 		.4byte	.LASF26
 1887 028f 05       		.byte	0x5
 1888 0290 B8       		.byte	0xb8
 1889 0291 49020000 		.4byte	0x249
 1890 0295 00       		.byte	0
 1891 0296 07       		.uleb128 0x7
 1892 0297 1D060000 		.4byte	.LASF27
 1893 029b 05       		.byte	0x5
 1894 029c B9       		.byte	0xb9
 1895 029d 49020000 		.4byte	0x249
 1896 02a1 04       		.byte	0x4
 1897 02a2 00       		.byte	0
ARM GAS  C:\Users\Luis\AppData\Local\Temp\cc23RfwK.s 			page 35


 1898 02a3 04       		.uleb128 0x4
 1899 02a4 36000000 		.4byte	.LASF52
 1900 02a8 04       		.byte	0x4
 1901 02a9 57       		.byte	0x57
 1902 02aa AE020000 		.4byte	0x2ae
 1903 02ae 0B       		.uleb128 0xb
 1904 02af 8E030000 		.4byte	.LASF53
 1905 02b3 1C       		.byte	0x1c
 1906 02b4 05       		.byte	0x5
 1907 02b5 9001     		.2byte	0x190
 1908 02b7 0A030000 		.4byte	0x30a
 1909 02bb 09       		.uleb128 0x9
 1910 02bc AA070000 		.4byte	.LASF54
 1911 02c0 05       		.byte	0x5
 1912 02c1 9101     		.2byte	0x191
 1913 02c3 73020000 		.4byte	0x273
 1914 02c7 00       		.byte	0
 1915 02c8 09       		.uleb128 0x9
 1916 02c9 CC040000 		.4byte	.LASF55
 1917 02cd 05       		.byte	0x5
 1918 02ce 9201     		.2byte	0x192
 1919 02d0 DE000000 		.4byte	0xde
 1920 02d4 08       		.byte	0x8
 1921 02d5 09       		.uleb128 0x9
 1922 02d6 75050000 		.4byte	.LASF56
 1923 02da 05       		.byte	0x5
 1924 02db 9401     		.2byte	0x194
 1925 02dd C2040000 		.4byte	0x4c2
 1926 02e1 0C       		.byte	0xc
 1927 02e2 09       		.uleb128 0x9
 1928 02e3 DD020000 		.4byte	.LASF57
 1929 02e7 05       		.byte	0x5
 1930 02e8 9701     		.2byte	0x197
 1931 02ea 49020000 		.4byte	0x249
 1932 02ee 10       		.byte	0x10
 1933 02ef 09       		.uleb128 0x9
 1934 02f0 A0050000 		.4byte	.LASF58
 1935 02f4 05       		.byte	0x5
 1936 02f5 9801     		.2byte	0x198
 1937 02f7 49020000 		.4byte	0x249
 1938 02fb 14       		.byte	0x14
 1939 02fc 09       		.uleb128 0x9
 1940 02fd 96050000 		.4byte	.LASF59
 1941 0301 05       		.byte	0x5
 1942 0302 9B01     		.2byte	0x19b
 1943 0304 49020000 		.4byte	0x249
 1944 0308 18       		.byte	0x18
 1945 0309 00       		.byte	0
 1946 030a 04       		.uleb128 0x4
 1947 030b 1F090000 		.4byte	.LASF60
 1948 030f 04       		.byte	0x4
 1949 0310 5C       		.byte	0x5c
 1950 0311 15030000 		.4byte	0x315
 1951 0315 0A       		.uleb128 0xa
 1952 0316 04       		.byte	0x4
 1953 0317 1B030000 		.4byte	0x31b
 1954 031b 0C       		.uleb128 0xc
ARM GAS  C:\Users\Luis\AppData\Local\Temp\cc23RfwK.s 			page 36


 1955 031c 26030000 		.4byte	0x326
 1956 0320 0D       		.uleb128 0xd
 1957 0321 26030000 		.4byte	0x326
 1958 0325 00       		.byte	0
 1959 0326 0E       		.uleb128 0xe
 1960 0327 04       		.byte	0x4
 1961 0328 04       		.uleb128 0x4
 1962 0329 0D060000 		.4byte	.LASF61
 1963 032d 04       		.byte	0x4
 1964 032e 61       		.byte	0x61
 1965 032f 33030000 		.4byte	0x333
 1966 0333 0B       		.uleb128 0xb
 1967 0334 46070000 		.4byte	.LASF62
 1968 0338 14       		.byte	0x14
 1969 0339 05       		.byte	0x5
 1970 033a 6B01     		.2byte	0x16b
 1971 033c 82030000 		.4byte	0x382
 1972 0340 09       		.uleb128 0x9
 1973 0341 63030000 		.4byte	.LASF63
 1974 0345 05       		.byte	0x5
 1975 0346 6C01     		.2byte	0x16c
 1976 0348 7E070000 		.4byte	0x77e
 1977 034c 00       		.byte	0
 1978 034d 09       		.uleb128 0x9
 1979 034e 1D030000 		.4byte	.LASF64
 1980 0352 05       		.byte	0x5
 1981 0353 6D01     		.2byte	0x16d
 1982 0355 7E070000 		.4byte	0x77e
 1983 0359 04       		.byte	0x4
 1984 035a 09       		.uleb128 0x9
 1985 035b B2070000 		.4byte	.LASF65
 1986 035f 05       		.byte	0x5
 1987 0360 6E01     		.2byte	0x16e
 1988 0362 15010000 		.4byte	0x115
 1989 0366 08       		.byte	0x8
 1990 0367 09       		.uleb128 0x9
 1991 0368 7D0A0000 		.4byte	.LASF66
 1992 036c 05       		.byte	0x5
 1993 036d 6F01     		.2byte	0x16f
 1994 036f 0A030000 		.4byte	0x30a
 1995 0373 0C       		.byte	0xc
 1996 0374 09       		.uleb128 0x9
 1997 0375 7C090000 		.4byte	.LASF67
 1998 0379 05       		.byte	0x5
 1999 037a 7101     		.2byte	0x171
 2000 037c 26030000 		.4byte	0x326
 2001 0380 10       		.byte	0x10
 2002 0381 00       		.byte	0
 2003 0382 04       		.uleb128 0x4
 2004 0383 45010000 		.4byte	.LASF68
 2005 0387 04       		.byte	0x4
 2006 0388 66       		.byte	0x66
 2007 0389 8D030000 		.4byte	0x38d
 2008 038d 0B       		.uleb128 0xb
 2009 038e 05050000 		.4byte	.LASF69
 2010 0392 10       		.byte	0x10
 2011 0393 05       		.byte	0x5
ARM GAS  C:\Users\Luis\AppData\Local\Temp\cc23RfwK.s 			page 37


 2012 0394 7B01     		.2byte	0x17b
 2013 0396 CF030000 		.4byte	0x3cf
 2014 039a 09       		.uleb128 0x9
 2015 039b 63030000 		.4byte	.LASF63
 2016 039f 05       		.byte	0x5
 2017 03a0 7C01     		.2byte	0x17c
 2018 03a2 7E070000 		.4byte	0x77e
 2019 03a6 00       		.byte	0
 2020 03a7 09       		.uleb128 0x9
 2021 03a8 1D030000 		.4byte	.LASF64
 2022 03ac 05       		.byte	0x5
 2023 03ad 7E01     		.2byte	0x17e
 2024 03af 7E070000 		.4byte	0x77e
 2025 03b3 04       		.byte	0x4
 2026 03b4 09       		.uleb128 0x9
 2027 03b5 B2070000 		.4byte	.LASF65
 2028 03b9 05       		.byte	0x5
 2029 03ba 8001     		.2byte	0x180
 2030 03bc 15010000 		.4byte	0x115
 2031 03c0 08       		.byte	0x8
 2032 03c1 09       		.uleb128 0x9
 2033 03c2 49050000 		.4byte	.LASF70
 2034 03c6 05       		.byte	0x5
 2035 03c7 8801     		.2byte	0x188
 2036 03c9 15010000 		.4byte	0x115
 2037 03cd 0C       		.byte	0xc
 2038 03ce 00       		.byte	0
 2039 03cf 04       		.uleb128 0x4
 2040 03d0 93000000 		.4byte	.LASF71
 2041 03d4 04       		.byte	0x4
 2042 03d5 6B       		.byte	0x6b
 2043 03d6 DA030000 		.4byte	0x3da
 2044 03da 0F       		.uleb128 0xf
 2045 03db 04030000 		.4byte	.LASF72
 2046 03df 1404     		.2byte	0x414
 2047 03e1 05       		.byte	0x5
 2048 03e2 A201     		.2byte	0x1a2
 2049 03e4 1D040000 		.4byte	0x41d
 2050 03e8 09       		.uleb128 0x9
 2051 03e9 28090000 		.4byte	.LASF73
 2052 03ed 05       		.byte	0x5
 2053 03ee AA01     		.2byte	0x1aa
 2054 03f0 84070000 		.4byte	0x784
 2055 03f4 00       		.byte	0
 2056 03f5 09       		.uleb128 0x9
 2057 03f6 BB090000 		.4byte	.LASF74
 2058 03fa 05       		.byte	0x5
 2059 03fb AF01     		.2byte	0x1af
 2060 03fd FF000000 		.4byte	0xff
 2061 0401 04       		.byte	0x4
 2062 0402 09       		.uleb128 0x9
 2063 0403 2D030000 		.4byte	.LASF75
 2064 0407 05       		.byte	0x5
 2065 0408 B301     		.2byte	0x1b3
 2066 040a FF000000 		.4byte	0xff
 2067 040e 08       		.byte	0x8
 2068 040f 09       		.uleb128 0x9
ARM GAS  C:\Users\Luis\AppData\Local\Temp\cc23RfwK.s 			page 38


 2069 0410 410A0000 		.4byte	.LASF76
 2070 0414 05       		.byte	0x5
 2071 0415 B901     		.2byte	0x1b9
 2072 0417 E4050000 		.4byte	0x5e4
 2073 041b 0C       		.byte	0xc
 2074 041c 00       		.byte	0
 2075 041d 04       		.uleb128 0x4
 2076 041e 3B040000 		.4byte	.LASF77
 2077 0422 04       		.byte	0x4
 2078 0423 70       		.byte	0x70
 2079 0424 28040000 		.4byte	0x428
 2080 0428 0F       		.uleb128 0xf
 2081 0429 4E020000 		.4byte	.LASF78
 2082 042d E805     		.2byte	0x5e8
 2083 042f 05       		.byte	0x5
 2084 0430 C201     		.2byte	0x1c2
 2085 0432 95040000 		.4byte	0x495
 2086 0436 09       		.uleb128 0x9
 2087 0437 F5090000 		.4byte	.LASF79
 2088 043b 05       		.byte	0x5
 2089 043c C601     		.2byte	0x1c6
 2090 043e A3020000 		.4byte	0x2a3
 2091 0442 00       		.byte	0
 2092 0443 09       		.uleb128 0x9
 2093 0444 EE010000 		.4byte	.LASF80
 2094 0448 05       		.byte	0x5
 2095 0449 CA01     		.2byte	0x1ca
 2096 044b 82030000 		.4byte	0x382
 2097 044f 1C       		.byte	0x1c
 2098 0450 08       		.uleb128 0x8
 2099 0451 64626700 		.ascii	"dbg\000"
 2100 0455 05       		.byte	0x5
 2101 0456 CE01     		.2byte	0x1ce
 2102 0458 CF030000 		.4byte	0x3cf
 2103 045c 2C       		.byte	0x2c
 2104 045d 10       		.uleb128 0x10
 2105 045e 3A010000 		.4byte	.LASF81
 2106 0462 05       		.byte	0x5
 2107 0463 D201     		.2byte	0x1d2
 2108 0465 20010000 		.4byte	0x120
 2109 0469 4004     		.2byte	0x440
 2110 046b 11       		.uleb128 0x11
 2111 046c 746D00   		.ascii	"tm\000"
 2112 046f 05       		.byte	0x5
 2113 0470 D701     		.2byte	0x1d7
 2114 0472 04060000 		.4byte	0x604
 2115 0476 A804     		.2byte	0x4a8
 2116 0478 10       		.uleb128 0x10
 2117 0479 340A0000 		.4byte	.LASF82
 2118 047d 05       		.byte	0x5
 2119 047e DD01     		.2byte	0x1dd
 2120 0480 96060000 		.4byte	0x696
 2121 0484 B004     		.2byte	0x4b0
 2122 0486 10       		.uleb128 0x10
 2123 0487 36030000 		.4byte	.LASF83
 2124 048b 05       		.byte	0x5
 2125 048c E301     		.2byte	0x1e3
ARM GAS  C:\Users\Luis\AppData\Local\Temp\cc23RfwK.s 			page 39


 2126 048e 89070000 		.4byte	0x789
 2127 0492 E804     		.2byte	0x4e8
 2128 0494 00       		.byte	0
 2129 0495 03       		.uleb128 0x3
 2130 0496 04       		.byte	0x4
 2131 0497 07       		.byte	0x7
 2132 0498 E9040000 		.4byte	.LASF84
 2133 049c 12       		.uleb128 0x12
 2134 049d 77000000 		.4byte	0x77
 2135 04a1 AC040000 		.4byte	0x4ac
 2136 04a5 13       		.uleb128 0x13
 2137 04a6 95040000 		.4byte	0x495
 2138 04aa 03       		.byte	0x3
 2139 04ab 00       		.byte	0
 2140 04ac 04       		.uleb128 0x4
 2141 04ad E5020000 		.4byte	.LASF85
 2142 04b1 06       		.byte	0x6
 2143 04b2 65       		.byte	0x65
 2144 04b3 26030000 		.4byte	0x326
 2145 04b7 04       		.uleb128 0x4
 2146 04b8 98040000 		.4byte	.LASF86
 2147 04bc 06       		.byte	0x6
 2148 04bd 6D       		.byte	0x6d
 2149 04be 90000000 		.4byte	0x90
 2150 04c2 06       		.uleb128 0x6
 2151 04c3 46090000 		.4byte	.LASF87
 2152 04c7 04       		.byte	0x4
 2153 04c8 06       		.byte	0x6
 2154 04c9 89       		.byte	0x89
 2155 04ca DB040000 		.4byte	0x4db
 2156 04ce 14       		.uleb128 0x14
 2157 04cf 72313300 		.ascii	"r13\000"
 2158 04d3 06       		.byte	0x6
 2159 04d4 8A       		.byte	0x8a
 2160 04d5 56050000 		.4byte	0x556
 2161 04d9 00       		.byte	0
 2162 04da 00       		.byte	0
 2163 04db 06       		.uleb128 0x6
 2164 04dc 76000000 		.4byte	.LASF88
 2165 04e0 24       		.byte	0x24
 2166 04e1 07       		.byte	0x7
 2167 04e2 F4       		.byte	0xf4
 2168 04e3 56050000 		.4byte	0x556
 2169 04e7 08       		.uleb128 0x8
 2170 04e8 723400   		.ascii	"r4\000"
 2171 04eb 07       		.byte	0x7
 2172 04ec 0701     		.2byte	0x107
 2173 04ee AC040000 		.4byte	0x4ac
 2174 04f2 00       		.byte	0
 2175 04f3 08       		.uleb128 0x8
 2176 04f4 723500   		.ascii	"r5\000"
 2177 04f7 07       		.byte	0x7
 2178 04f8 0801     		.2byte	0x108
 2179 04fa AC040000 		.4byte	0x4ac
 2180 04fe 04       		.byte	0x4
 2181 04ff 08       		.uleb128 0x8
 2182 0500 723600   		.ascii	"r6\000"
ARM GAS  C:\Users\Luis\AppData\Local\Temp\cc23RfwK.s 			page 40


 2183 0503 07       		.byte	0x7
 2184 0504 0901     		.2byte	0x109
 2185 0506 AC040000 		.4byte	0x4ac
 2186 050a 08       		.byte	0x8
 2187 050b 08       		.uleb128 0x8
 2188 050c 723700   		.ascii	"r7\000"
 2189 050f 07       		.byte	0x7
 2190 0510 0A01     		.2byte	0x10a
 2191 0512 AC040000 		.4byte	0x4ac
 2192 0516 0C       		.byte	0xc
 2193 0517 08       		.uleb128 0x8
 2194 0518 723800   		.ascii	"r8\000"
 2195 051b 07       		.byte	0x7
 2196 051c 0B01     		.2byte	0x10b
 2197 051e AC040000 		.4byte	0x4ac
 2198 0522 10       		.byte	0x10
 2199 0523 08       		.uleb128 0x8
 2200 0524 723900   		.ascii	"r9\000"
 2201 0527 07       		.byte	0x7
 2202 0528 0C01     		.2byte	0x10c
 2203 052a AC040000 		.4byte	0x4ac
 2204 052e 14       		.byte	0x14
 2205 052f 08       		.uleb128 0x8
 2206 0530 72313000 		.ascii	"r10\000"
 2207 0534 07       		.byte	0x7
 2208 0535 0D01     		.2byte	0x10d
 2209 0537 AC040000 		.4byte	0x4ac
 2210 053b 18       		.byte	0x18
 2211 053c 08       		.uleb128 0x8
 2212 053d 72313100 		.ascii	"r11\000"
 2213 0541 07       		.byte	0x7
 2214 0542 0E01     		.2byte	0x10e
 2215 0544 AC040000 		.4byte	0x4ac
 2216 0548 1C       		.byte	0x1c
 2217 0549 08       		.uleb128 0x8
 2218 054a 6C7200   		.ascii	"lr\000"
 2219 054d 07       		.byte	0x7
 2220 054e 0F01     		.2byte	0x10f
 2221 0550 AC040000 		.4byte	0x4ac
 2222 0554 20       		.byte	0x20
 2223 0555 00       		.byte	0
 2224 0556 0A       		.uleb128 0xa
 2225 0557 04       		.byte	0x4
 2226 0558 DB040000 		.4byte	0x4db
 2227 055c 15       		.uleb128 0x15
 2228 055d 10       		.byte	0x10
 2229 055e 08       		.byte	0x8
 2230 055f 51       		.byte	0x51
 2231 0560 95050000 		.4byte	0x595
 2232 0564 07       		.uleb128 0x7
 2233 0565 B7010000 		.4byte	.LASF89
 2234 0569 08       		.byte	0x8
 2235 056a 55       		.byte	0x55
 2236 056b 15010000 		.4byte	0x115
 2237 056f 00       		.byte	0
 2238 0570 07       		.uleb128 0x7
 2239 0571 74020000 		.4byte	.LASF90
ARM GAS  C:\Users\Luis\AppData\Local\Temp\cc23RfwK.s 			page 41


 2240 0575 08       		.byte	0x8
 2241 0576 59       		.byte	0x59
 2242 0577 49020000 		.4byte	0x249
 2243 057b 04       		.byte	0x4
 2244 057c 07       		.uleb128 0x7
 2245 057d 6D0A0000 		.4byte	.LASF91
 2246 0581 08       		.byte	0x8
 2247 0582 5D       		.byte	0x5d
 2248 0583 26030000 		.4byte	0x326
 2249 0587 08       		.byte	0x8
 2250 0588 07       		.uleb128 0x7
 2251 0589 23010000 		.4byte	.LASF92
 2252 058d 08       		.byte	0x8
 2253 058e 61       		.byte	0x61
 2254 058f 3A000000 		.4byte	0x3a
 2255 0593 0C       		.byte	0xc
 2256 0594 00       		.byte	0
 2257 0595 04       		.uleb128 0x4
 2258 0596 C2000000 		.4byte	.LASF93
 2259 059a 08       		.byte	0x8
 2260 059b 62       		.byte	0x62
 2261 059c 5C050000 		.4byte	0x55c
 2262 05a0 16       		.uleb128 0x16
 2263 05a1 0804     		.2byte	0x408
 2264 05a3 08       		.byte	0x8
 2265 05a4 67       		.byte	0x67
 2266 05a5 CE050000 		.4byte	0x5ce
 2267 05a9 07       		.uleb128 0x7
 2268 05aa D5020000 		.4byte	.LASF94
 2269 05ae 08       		.byte	0x8
 2270 05af 6B       		.byte	0x6b
 2271 05b0 2C000000 		.4byte	0x2c
 2272 05b4 00       		.byte	0
 2273 05b5 07       		.uleb128 0x7
 2274 05b6 19000000 		.4byte	.LASF95
 2275 05ba 08       		.byte	0x8
 2276 05bb 6F       		.byte	0x6f
 2277 05bc CE050000 		.4byte	0x5ce
 2278 05c0 04       		.byte	0x4
 2279 05c1 07       		.uleb128 0x7
 2280 05c2 FB050000 		.4byte	.LASF96
 2281 05c6 08       		.byte	0x8
 2282 05c7 73       		.byte	0x73
 2283 05c8 D4050000 		.4byte	0x5d4
 2284 05cc 08       		.byte	0x8
 2285 05cd 00       		.byte	0
 2286 05ce 0A       		.uleb128 0xa
 2287 05cf 04       		.byte	0x4
 2288 05d0 95050000 		.4byte	0x595
 2289 05d4 12       		.uleb128 0x12
 2290 05d5 95050000 		.4byte	0x595
 2291 05d9 E4050000 		.4byte	0x5e4
 2292 05dd 13       		.uleb128 0x13
 2293 05de 95040000 		.4byte	0x495
 2294 05e2 3F       		.byte	0x3f
 2295 05e3 00       		.byte	0
 2296 05e4 04       		.uleb128 0x4
ARM GAS  C:\Users\Luis\AppData\Local\Temp\cc23RfwK.s 			page 42


 2297 05e5 E8000000 		.4byte	.LASF97
 2298 05e9 08       		.byte	0x8
 2299 05ea 74       		.byte	0x74
 2300 05eb A0050000 		.4byte	0x5a0
 2301 05ef 15       		.uleb128 0x15
 2302 05f0 04       		.byte	0x4
 2303 05f1 09       		.byte	0x9
 2304 05f2 38       		.byte	0x38
 2305 05f3 04060000 		.4byte	0x604
 2306 05f7 07       		.uleb128 0x7
 2307 05f8 3F090000 		.4byte	.LASF98
 2308 05fc 09       		.byte	0x9
 2309 05fd 3C       		.byte	0x3c
 2310 05fe A7000000 		.4byte	0xa7
 2311 0602 00       		.byte	0
 2312 0603 00       		.byte	0
 2313 0604 04       		.uleb128 0x4
 2314 0605 7B050000 		.4byte	.LASF99
 2315 0609 09       		.byte	0x9
 2316 060a 3D       		.byte	0x3d
 2317 060b EF050000 		.4byte	0x5ef
 2318 060f 15       		.uleb128 0x15
 2319 0610 18       		.byte	0x18
 2320 0611 09       		.byte	0x9
 2321 0612 48       		.byte	0x48
 2322 0613 52060000 		.4byte	0x652
 2323 0617 07       		.uleb128 0x7
 2324 0618 FE080000 		.4byte	.LASF100
 2325 061c 09       		.byte	0x9
 2326 061d 49       		.byte	0x49
 2327 061e A7000000 		.4byte	0xa7
 2328 0622 00       		.byte	0
 2329 0623 07       		.uleb128 0x7
 2330 0624 A2000000 		.4byte	.LASF101
 2331 0628 09       		.byte	0x9
 2332 0629 4A       		.byte	0x4a
 2333 062a A7000000 		.4byte	0xa7
 2334 062e 04       		.byte	0x4
 2335 062f 07       		.uleb128 0x7
 2336 0630 F4030000 		.4byte	.LASF102
 2337 0634 09       		.byte	0x9
 2338 0635 4B       		.byte	0x4b
 2339 0636 A7000000 		.4byte	0xa7
 2340 063a 08       		.byte	0x8
 2341 063b 14       		.uleb128 0x14
 2342 063c 6E00     		.ascii	"n\000"
 2343 063e 09       		.byte	0x9
 2344 063f 4C       		.byte	0x4c
 2345 0640 0A010000 		.4byte	0x10a
 2346 0644 0C       		.byte	0xc
 2347 0645 07       		.uleb128 0x7
 2348 0646 B6050000 		.4byte	.LASF103
 2349 064a 09       		.byte	0x9
 2350 064b 4D       		.byte	0x4d
 2351 064c B2000000 		.4byte	0xb2
 2352 0650 10       		.byte	0x10
 2353 0651 00       		.byte	0
ARM GAS  C:\Users\Luis\AppData\Local\Temp\cc23RfwK.s 			page 43


 2354 0652 04       		.uleb128 0x4
 2355 0653 AF000000 		.4byte	.LASF104
 2356 0657 09       		.byte	0x9
 2357 0658 4E       		.byte	0x4e
 2358 0659 0F060000 		.4byte	0x60f
 2359 065d 15       		.uleb128 0x15
 2360 065e 38       		.byte	0x38
 2361 065f 0A       		.byte	0xa
 2362 0660 38       		.byte	0x38
 2363 0661 96060000 		.4byte	0x696
 2364 0665 07       		.uleb128 0x7
 2365 0666 9C030000 		.4byte	.LASF105
 2366 066a 0A       		.byte	0xa
 2367 066b 39       		.byte	0x39
 2368 066c 0A010000 		.4byte	0x10a
 2369 0670 00       		.byte	0
 2370 0671 07       		.uleb128 0x7
 2371 0672 61060000 		.4byte	.LASF106
 2372 0676 0A       		.byte	0xa
 2373 0677 3A       		.byte	0x3a
 2374 0678 0A010000 		.4byte	0x10a
 2375 067c 04       		.byte	0x4
 2376 067d 07       		.uleb128 0x7
 2377 067e 620A0000 		.4byte	.LASF107
 2378 0682 0A       		.byte	0xa
 2379 0683 3B       		.byte	0x3b
 2380 0684 52060000 		.4byte	0x652
 2381 0688 08       		.byte	0x8
 2382 0689 07       		.uleb128 0x7
 2383 068a 5E040000 		.4byte	.LASF108
 2384 068e 0A       		.byte	0xa
 2385 068f 3D       		.byte	0x3d
 2386 0690 52060000 		.4byte	0x652
 2387 0694 20       		.byte	0x20
 2388 0695 00       		.byte	0
 2389 0696 04       		.uleb128 0x4
 2390 0697 CA030000 		.4byte	.LASF109
 2391 069b 0A       		.byte	0xa
 2392 069c 3F       		.byte	0x3f
 2393 069d 5D060000 		.4byte	0x65d
 2394 06a1 17       		.uleb128 0x17
 2395 06a2 04       		.byte	0x4
 2396 06a3 05       		.byte	0x5
 2397 06a4 FA       		.byte	0xfa
 2398 06a5 FE060000 		.4byte	0x6fe
 2399 06a9 18       		.uleb128 0x18
 2400 06aa 59000000 		.4byte	.LASF110
 2401 06ae 05       		.byte	0x5
 2402 06af 0101     		.2byte	0x101
 2403 06b1 E9000000 		.4byte	0xe9
 2404 06b5 18       		.uleb128 0x18
 2405 06b6 31010000 		.4byte	.LASF111
 2406 06ba 05       		.byte	0x5
 2407 06bb 0801     		.2byte	0x108
 2408 06bd E9000000 		.4byte	0xe9
 2409 06c1 18       		.uleb128 0x18
 2410 06c2 170A0000 		.4byte	.LASF112
ARM GAS  C:\Users\Luis\AppData\Local\Temp\cc23RfwK.s 			page 44


 2411 06c6 05       		.byte	0x5
 2412 06c7 0F01     		.2byte	0x10f
 2413 06c9 26030000 		.4byte	0x326
 2414 06cd 18       		.uleb128 0x18
 2415 06ce 4B000000 		.4byte	.LASF113
 2416 06d2 05       		.byte	0x5
 2417 06d3 1601     		.2byte	0x116
 2418 06d5 FE060000 		.4byte	0x6fe
 2419 06d9 18       		.uleb128 0x18
 2420 06da 6B030000 		.4byte	.LASF114
 2421 06de 05       		.byte	0x5
 2422 06df 1E01     		.2byte	0x11e
 2423 06e1 29070000 		.4byte	0x729
 2424 06e5 18       		.uleb128 0x18
 2425 06e6 A3070000 		.4byte	.LASF115
 2426 06ea 05       		.byte	0x5
 2427 06eb 2701     		.2byte	0x127
 2428 06ed 60070000 		.4byte	0x760
 2429 06f1 18       		.uleb128 0x18
 2430 06f2 EA060000 		.4byte	.LASF116
 2431 06f6 05       		.byte	0x5
 2432 06f7 2F01     		.2byte	0x12f
 2433 06f9 F4000000 		.4byte	0xf4
 2434 06fd 00       		.byte	0
 2435 06fe 0A       		.uleb128 0xa
 2436 06ff 04       		.byte	0x4
 2437 0700 3E020000 		.4byte	0x23e
 2438 0704 06       		.uleb128 0x6
 2439 0705 5D070000 		.4byte	.LASF117
 2440 0709 0C       		.byte	0xc
 2441 070a 0B       		.byte	0xb
 2442 070b 34       		.byte	0x34
 2443 070c 29070000 		.4byte	0x729
 2444 0710 07       		.uleb128 0x7
 2445 0711 C4020000 		.4byte	.LASF118
 2446 0715 0B       		.byte	0xb
 2447 0716 35       		.byte	0x35
 2448 0717 73020000 		.4byte	0x273
 2449 071b 00       		.byte	0
 2450 071c 07       		.uleb128 0x7
 2451 071d A2030000 		.4byte	.LASF119
 2452 0721 0B       		.byte	0xb
 2453 0722 37       		.byte	0x37
 2454 0723 FF000000 		.4byte	0xff
 2455 0727 08       		.byte	0x8
 2456 0728 00       		.byte	0
 2457 0729 0A       		.uleb128 0xa
 2458 072a 04       		.byte	0x4
 2459 072b 04070000 		.4byte	0x704
 2460 072f 06       		.uleb128 0x6
 2461 0730 AB090000 		.4byte	.LASF120
 2462 0734 10       		.byte	0x10
 2463 0735 0C       		.byte	0xc
 2464 0736 39       		.byte	0x39
 2465 0737 60070000 		.4byte	0x760
 2466 073b 07       		.uleb128 0x7
 2467 073c DB010000 		.4byte	.LASF121
ARM GAS  C:\Users\Luis\AppData\Local\Temp\cc23RfwK.s 			page 45


 2468 0740 0C       		.byte	0xc
 2469 0741 3A       		.byte	0x3a
 2470 0742 73020000 		.4byte	0x273
 2471 0746 00       		.byte	0
 2472 0747 07       		.uleb128 0x7
 2473 0748 FB090000 		.4byte	.LASF122
 2474 074c 0C       		.byte	0xc
 2475 074d 3C       		.byte	0x3c
 2476 074e 49020000 		.4byte	0x249
 2477 0752 08       		.byte	0x8
 2478 0753 07       		.uleb128 0x7
 2479 0754 03090000 		.4byte	.LASF123
 2480 0758 0C       		.byte	0xc
 2481 0759 3E       		.byte	0x3e
 2482 075a A4070000 		.4byte	0x7a4
 2483 075e 0C       		.byte	0xc
 2484 075f 00       		.byte	0
 2485 0760 0A       		.uleb128 0xa
 2486 0761 04       		.byte	0x4
 2487 0762 2F070000 		.4byte	0x72f
 2488 0766 0A       		.uleb128 0xa
 2489 0767 04       		.byte	0x4
 2490 0768 6C070000 		.4byte	0x76c
 2491 076c 19       		.uleb128 0x19
 2492 076d 71070000 		.4byte	0x771
 2493 0771 03       		.uleb128 0x3
 2494 0772 01       		.byte	0x1
 2495 0773 08       		.byte	0x8
 2496 0774 09080000 		.4byte	.LASF124
 2497 0778 0A       		.uleb128 0xa
 2498 0779 04       		.byte	0x4
 2499 077a B7040000 		.4byte	0x4b7
 2500 077e 0A       		.uleb128 0xa
 2501 077f 04       		.byte	0x4
 2502 0780 28030000 		.4byte	0x328
 2503 0784 05       		.uleb128 0x5
 2504 0785 66070000 		.4byte	0x766
 2505 0789 12       		.uleb128 0x12
 2506 078a B7040000 		.4byte	0x4b7
 2507 078e 99070000 		.4byte	0x799
 2508 0792 13       		.uleb128 0x13
 2509 0793 95040000 		.4byte	0x495
 2510 0797 1F       		.byte	0x1f
 2511 0798 00       		.byte	0
 2512 0799 04       		.uleb128 0x4
 2513 079a 25030000 		.4byte	.LASF125
 2514 079e 0C       		.byte	0xc
 2515 079f 34       		.byte	0x34
 2516 07a0 2F070000 		.4byte	0x72f
 2517 07a4 0A       		.uleb128 0xa
 2518 07a5 04       		.byte	0x4
 2519 07a6 99070000 		.4byte	0x799
 2520 07aa 0A       		.uleb128 0xa
 2521 07ab 04       		.byte	0x4
 2522 07ac 3A000000 		.4byte	0x3a
 2523 07b0 0A       		.uleb128 0xa
 2524 07b1 04       		.byte	0x4
ARM GAS  C:\Users\Luis\AppData\Local\Temp\cc23RfwK.s 			page 46


 2525 07b2 B6070000 		.4byte	0x7b6
 2526 07b6 19       		.uleb128 0x19
 2527 07b7 3A000000 		.4byte	0x3a
 2528 07bb 1A       		.uleb128 0x1a
 2529 07bc 01       		.byte	0x1
 2530 07bd 0D       		.byte	0xd
 2531 07be 28       		.byte	0x28
 2532 07bf FA070000 		.4byte	0x7fa
 2533 07c3 1B       		.uleb128 0x1b
 2534 07c4 3D020000 		.4byte	.LASF126
 2535 07c8 00       		.sleb128 0
 2536 07c9 1B       		.uleb128 0x1b
 2537 07ca 88020000 		.4byte	.LASF127
 2538 07ce 01       		.sleb128 1
 2539 07cf 1B       		.uleb128 0x1b
 2540 07d0 D9030000 		.4byte	.LASF128
 2541 07d4 02       		.sleb128 2
 2542 07d5 1B       		.uleb128 0x1b
 2543 07d6 07040000 		.4byte	.LASF129
 2544 07da 03       		.sleb128 3
 2545 07db 1B       		.uleb128 0x1b
 2546 07dc 1C050000 		.4byte	.LASF130
 2547 07e0 04       		.sleb128 4
 2548 07e1 1B       		.uleb128 0x1b
 2549 07e2 54040000 		.4byte	.LASF131
 2550 07e6 05       		.sleb128 5
 2551 07e7 1B       		.uleb128 0x1b
 2552 07e8 DD040000 		.4byte	.LASF132
 2553 07ec 06       		.sleb128 6
 2554 07ed 1B       		.uleb128 0x1b
 2555 07ee A9060000 		.4byte	.LASF133
 2556 07f2 07       		.sleb128 7
 2557 07f3 1B       		.uleb128 0x1b
 2558 07f4 C3090000 		.4byte	.LASF134
 2559 07f8 08       		.sleb128 8
 2560 07f9 00       		.byte	0
 2561 07fa 04       		.uleb128 0x4
 2562 07fb 68010000 		.4byte	.LASF135
 2563 07ff 0D       		.byte	0xd
 2564 0800 32       		.byte	0x32
 2565 0801 BB070000 		.4byte	0x7bb
 2566 0805 15       		.uleb128 0x15
 2567 0806 08       		.byte	0x8
 2568 0807 0D       		.byte	0xd
 2569 0808 37       		.byte	0x37
 2570 0809 26080000 		.4byte	0x826
 2571 080d 07       		.uleb128 0x7
 2572 080e 14030000 		.4byte	.LASF136
 2573 0812 0D       		.byte	0xd
 2574 0813 38       		.byte	0x38
 2575 0814 77000000 		.4byte	0x77
 2576 0818 00       		.byte	0
 2577 0819 07       		.uleb128 0x7
 2578 081a 51000000 		.4byte	.LASF137
 2579 081e 0D       		.byte	0xd
 2580 081f 39       		.byte	0x39
 2581 0820 77000000 		.4byte	0x77
ARM GAS  C:\Users\Luis\AppData\Local\Temp\cc23RfwK.s 			page 47


 2582 0824 04       		.byte	0x4
 2583 0825 00       		.byte	0
 2584 0826 04       		.uleb128 0x4
 2585 0827 00000000 		.4byte	.LASF138
 2586 082b 0D       		.byte	0xd
 2587 082c 3A       		.byte	0x3a
 2588 082d 05080000 		.4byte	0x805
 2589 0831 1C       		.uleb128 0x1c
 2590 0832 40080000 		.4byte	0x840
 2591 0836 40080000 		.4byte	0x840
 2592 083a 0D       		.uleb128 0xd
 2593 083b 26030000 		.4byte	0x326
 2594 083f 00       		.byte	0
 2595 0840 03       		.uleb128 0x3
 2596 0841 01       		.byte	0x1
 2597 0842 02       		.byte	0x2
 2598 0843 6A060000 		.4byte	.LASF139
 2599 0847 0A       		.uleb128 0xa
 2600 0848 04       		.byte	0x4
 2601 0849 31080000 		.4byte	0x831
 2602 084d 1C       		.uleb128 0x1c
 2603 084e 40080000 		.4byte	0x840
 2604 0852 6B080000 		.4byte	0x86b
 2605 0856 0D       		.uleb128 0xd
 2606 0857 26030000 		.4byte	0x326
 2607 085b 0D       		.uleb128 0xd
 2608 085c 77000000 		.4byte	0x77
 2609 0860 0D       		.uleb128 0xd
 2610 0861 AA070000 		.4byte	0x7aa
 2611 0865 0D       		.uleb128 0xd
 2612 0866 77000000 		.4byte	0x77
 2613 086a 00       		.byte	0
 2614 086b 0A       		.uleb128 0xa
 2615 086c 04       		.byte	0x4
 2616 086d 4D080000 		.4byte	0x84d
 2617 0871 1C       		.uleb128 0x1c
 2618 0872 40080000 		.4byte	0x840
 2619 0876 8F080000 		.4byte	0x88f
 2620 087a 0D       		.uleb128 0xd
 2621 087b 26030000 		.4byte	0x326
 2622 087f 0D       		.uleb128 0xd
 2623 0880 77000000 		.4byte	0x77
 2624 0884 0D       		.uleb128 0xd
 2625 0885 B0070000 		.4byte	0x7b0
 2626 0889 0D       		.uleb128 0xd
 2627 088a 77000000 		.4byte	0x77
 2628 088e 00       		.byte	0
 2629 088f 0A       		.uleb128 0xa
 2630 0890 04       		.byte	0x4
 2631 0891 71080000 		.4byte	0x871
 2632 0895 1C       		.uleb128 0x1c
 2633 0896 40080000 		.4byte	0x840
 2634 089a A9080000 		.4byte	0x8a9
 2635 089e 0D       		.uleb128 0xd
 2636 089f 26030000 		.4byte	0x326
 2637 08a3 0D       		.uleb128 0xd
 2638 08a4 A9080000 		.4byte	0x8a9
ARM GAS  C:\Users\Luis\AppData\Local\Temp\cc23RfwK.s 			page 48


 2639 08a8 00       		.byte	0
 2640 08a9 0A       		.uleb128 0xa
 2641 08aa 04       		.byte	0x4
 2642 08ab 26080000 		.4byte	0x826
 2643 08af 0A       		.uleb128 0xa
 2644 08b0 04       		.byte	0x4
 2645 08b1 95080000 		.4byte	0x895
 2646 08b5 0B       		.uleb128 0xb
 2647 08b6 8F070000 		.4byte	.LASF140
 2648 08ba 20       		.byte	0x20
 2649 08bb 0E       		.byte	0xe
 2650 08bc 1001     		.2byte	0x110
 2651 08be 2B090000 		.4byte	0x92b
 2652 08c2 09       		.uleb128 0x9
 2653 08c3 69090000 		.4byte	.LASF141
 2654 08c7 0E       		.byte	0xe
 2655 08c8 1101     		.2byte	0x111
 2656 08ca 47080000 		.4byte	0x847
 2657 08ce 00       		.byte	0
 2658 08cf 09       		.uleb128 0x9
 2659 08d0 69000000 		.4byte	.LASF142
 2660 08d4 0E       		.byte	0xe
 2661 08d5 1101     		.2byte	0x111
 2662 08d7 47080000 		.4byte	0x847
 2663 08db 04       		.byte	0x4
 2664 08dc 09       		.uleb128 0x9
 2665 08dd 6A070000 		.4byte	.LASF143
 2666 08e1 0E       		.byte	0xe
 2667 08e2 1101     		.2byte	0x111
 2668 08e4 47080000 		.4byte	0x847
 2669 08e8 08       		.byte	0x8
 2670 08e9 09       		.uleb128 0x9
 2671 08ea E3010000 		.4byte	.LASF144
 2672 08ee 0E       		.byte	0xe
 2673 08ef 1101     		.2byte	0x111
 2674 08f1 47080000 		.4byte	0x847
 2675 08f5 0C       		.byte	0xc
 2676 08f6 09       		.uleb128 0x9
 2677 08f7 04080000 		.4byte	.LASF145
 2678 08fb 0E       		.byte	0xe
 2679 08fc 1101     		.2byte	0x111
 2680 08fe 6B080000 		.4byte	0x86b
 2681 0902 10       		.byte	0x10
 2682 0903 09       		.uleb128 0x9
 2683 0904 A9040000 		.4byte	.LASF146
 2684 0908 0E       		.byte	0xe
 2685 0909 1101     		.2byte	0x111
 2686 090b 8F080000 		.4byte	0x88f
 2687 090f 14       		.byte	0x14
 2688 0910 09       		.uleb128 0x9
 2689 0911 120A0000 		.4byte	.LASF147
 2690 0915 0E       		.byte	0xe
 2691 0916 1101     		.2byte	0x111
 2692 0918 47080000 		.4byte	0x847
 2693 091c 18       		.byte	0x18
 2694 091d 09       		.uleb128 0x9
 2695 091e CC020000 		.4byte	.LASF148
ARM GAS  C:\Users\Luis\AppData\Local\Temp\cc23RfwK.s 			page 49


 2696 0922 0E       		.byte	0xe
 2697 0923 1101     		.2byte	0x111
 2698 0925 AF080000 		.4byte	0x8af
 2699 0929 1C       		.byte	0x1c
 2700 092a 00       		.byte	0
 2701 092b 1D       		.uleb128 0x1d
 2702 092c 2C       		.byte	0x2c
 2703 092d 0E       		.byte	0xe
 2704 092e 1A01     		.2byte	0x11a
 2705 0930 76090000 		.4byte	0x976
 2706 0934 08       		.uleb128 0x8
 2707 0935 766D7400 		.ascii	"vmt\000"
 2708 0939 0E       		.byte	0xe
 2709 093a 1C01     		.2byte	0x11c
 2710 093c 76090000 		.4byte	0x976
 2711 0940 00       		.byte	0
 2712 0941 09       		.uleb128 0x9
 2713 0942 48020000 		.4byte	.LASF149
 2714 0946 0E       		.byte	0xe
 2715 0947 1D01     		.2byte	0x11d
 2716 0949 FA070000 		.4byte	0x7fa
 2717 094d 04       		.byte	0x4
 2718 094e 08       		.uleb128 0x8
 2719 094f 63696400 		.ascii	"cid\000"
 2720 0953 0E       		.byte	0xe
 2721 0954 1D01     		.2byte	0x11d
 2722 0956 9C040000 		.4byte	0x49c
 2723 095a 08       		.byte	0x8
 2724 095b 08       		.uleb128 0x8
 2725 095c 63736400 		.ascii	"csd\000"
 2726 0960 0E       		.byte	0xe
 2727 0961 1D01     		.2byte	0x11d
 2728 0963 9C040000 		.4byte	0x49c
 2729 0967 18       		.byte	0x18
 2730 0968 09       		.uleb128 0x9
 2731 0969 10000000 		.4byte	.LASF150
 2732 096d 0E       		.byte	0xe
 2733 096e 1D01     		.2byte	0x11d
 2734 0970 77000000 		.4byte	0x77
 2735 0974 28       		.byte	0x28
 2736 0975 00       		.byte	0
 2737 0976 0A       		.uleb128 0xa
 2738 0977 04       		.byte	0x4
 2739 0978 7C090000 		.4byte	0x97c
 2740 097c 19       		.uleb128 0x19
 2741 097d B5080000 		.4byte	0x8b5
 2742 0981 1E       		.uleb128 0x1e
 2743 0982 E1070000 		.4byte	.LASF151
 2744 0986 0E       		.byte	0xe
 2745 0987 1E01     		.2byte	0x11e
 2746 0989 2B090000 		.4byte	0x92b
 2747 098d 1D       		.uleb128 0x1d
 2748 098e 18       		.byte	0x18
 2749 098f 0E       		.byte	0xe
 2750 0990 2301     		.2byte	0x123
 2751 0992 0C0A0000 		.4byte	0xa0c
 2752 0996 08       		.uleb128 0x8
ARM GAS  C:\Users\Luis\AppData\Local\Temp\cc23RfwK.s 			page 50


 2753 0997 6D696400 		.ascii	"mid\000"
 2754 099b 0E       		.byte	0xe
 2755 099c 2401     		.2byte	0x124
 2756 099e 3A000000 		.4byte	0x3a
 2757 09a2 00       		.byte	0
 2758 09a3 08       		.uleb128 0x8
 2759 09a4 6F696400 		.ascii	"oid\000"
 2760 09a8 0E       		.byte	0xe
 2761 09a9 2501     		.2byte	0x125
 2762 09ab 53000000 		.4byte	0x53
 2763 09af 02       		.byte	0x2
 2764 09b0 08       		.uleb128 0x8
 2765 09b1 706E6D00 		.ascii	"pnm\000"
 2766 09b5 0E       		.byte	0xe
 2767 09b6 2601     		.2byte	0x126
 2768 09b8 0C0A0000 		.4byte	0xa0c
 2769 09bc 04       		.byte	0x4
 2770 09bd 09       		.uleb128 0x9
 2771 09be DE060000 		.4byte	.LASF152
 2772 09c2 0E       		.byte	0xe
 2773 09c3 2701     		.2byte	0x127
 2774 09c5 3A000000 		.4byte	0x3a
 2775 09c9 09       		.byte	0x9
 2776 09ca 09       		.uleb128 0x9
 2777 09cb D8060000 		.4byte	.LASF153
 2778 09cf 0E       		.byte	0xe
 2779 09d0 2801     		.2byte	0x128
 2780 09d2 3A000000 		.4byte	0x3a
 2781 09d6 0A       		.byte	0xa
 2782 09d7 08       		.uleb128 0x8
 2783 09d8 70736E00 		.ascii	"psn\000"
 2784 09dc 0E       		.byte	0xe
 2785 09dd 2901     		.2byte	0x129
 2786 09df 77000000 		.4byte	0x77
 2787 09e3 0C       		.byte	0xc
 2788 09e4 09       		.uleb128 0x9
 2789 09e5 E4060000 		.4byte	.LASF154
 2790 09e9 0E       		.byte	0xe
 2791 09ea 2A01     		.2byte	0x12a
 2792 09ec 3A000000 		.4byte	0x3a
 2793 09f0 10       		.byte	0x10
 2794 09f1 09       		.uleb128 0x9
 2795 09f2 57070000 		.4byte	.LASF155
 2796 09f6 0E       		.byte	0xe
 2797 09f7 2B01     		.2byte	0x12b
 2798 09f9 53000000 		.4byte	0x53
 2799 09fd 12       		.byte	0x12
 2800 09fe 08       		.uleb128 0x8
 2801 09ff 63726300 		.ascii	"crc\000"
 2802 0a03 0E       		.byte	0xe
 2803 0a04 2C01     		.2byte	0x12c
 2804 0a06 3A000000 		.4byte	0x3a
 2805 0a0a 14       		.byte	0x14
 2806 0a0b 00       		.byte	0
 2807 0a0c 12       		.uleb128 0x12
 2808 0a0d 71070000 		.4byte	0x771
 2809 0a11 1C0A0000 		.4byte	0xa1c
ARM GAS  C:\Users\Luis\AppData\Local\Temp\cc23RfwK.s 			page 51


 2810 0a15 13       		.uleb128 0x13
 2811 0a16 95040000 		.4byte	0x495
 2812 0a1a 04       		.byte	0x4
 2813 0a1b 00       		.byte	0
 2814 0a1c 1E       		.uleb128 0x1e
 2815 0a1d 10010000 		.4byte	.LASF156
 2816 0a21 0E       		.byte	0xe
 2817 0a22 2D01     		.2byte	0x12d
 2818 0a24 8D090000 		.4byte	0x98d
 2819 0a28 1D       		.uleb128 0x1d
 2820 0a29 18       		.byte	0x18
 2821 0a2a 0E       		.byte	0xe
 2822 0a2b 3201     		.2byte	0x132
 2823 0a2d A70A0000 		.4byte	0xaa7
 2824 0a31 08       		.uleb128 0x8
 2825 0a32 6D696400 		.ascii	"mid\000"
 2826 0a36 0E       		.byte	0xe
 2827 0a37 3301     		.2byte	0x133
 2828 0a39 3A000000 		.4byte	0x3a
 2829 0a3d 00       		.byte	0
 2830 0a3e 08       		.uleb128 0x8
 2831 0a3f 6F696400 		.ascii	"oid\000"
 2832 0a43 0E       		.byte	0xe
 2833 0a44 3401     		.2byte	0x134
 2834 0a46 53000000 		.4byte	0x53
 2835 0a4a 02       		.byte	0x2
 2836 0a4b 08       		.uleb128 0x8
 2837 0a4c 706E6D00 		.ascii	"pnm\000"
 2838 0a50 0E       		.byte	0xe
 2839 0a51 3501     		.2byte	0x135
 2840 0a53 A70A0000 		.4byte	0xaa7
 2841 0a57 04       		.byte	0x4
 2842 0a58 09       		.uleb128 0x9
 2843 0a59 DE060000 		.4byte	.LASF152
 2844 0a5d 0E       		.byte	0xe
 2845 0a5e 3601     		.2byte	0x136
 2846 0a60 3A000000 		.4byte	0x3a
 2847 0a64 0A       		.byte	0xa
 2848 0a65 09       		.uleb128 0x9
 2849 0a66 D8060000 		.4byte	.LASF153
 2850 0a6a 0E       		.byte	0xe
 2851 0a6b 3701     		.2byte	0x137
 2852 0a6d 3A000000 		.4byte	0x3a
 2853 0a71 0B       		.byte	0xb
 2854 0a72 08       		.uleb128 0x8
 2855 0a73 70736E00 		.ascii	"psn\000"
 2856 0a77 0E       		.byte	0xe
 2857 0a78 3801     		.2byte	0x138
 2858 0a7a 77000000 		.4byte	0x77
 2859 0a7e 0C       		.byte	0xc
 2860 0a7f 09       		.uleb128 0x9
 2861 0a80 E4060000 		.4byte	.LASF154
 2862 0a84 0E       		.byte	0xe
 2863 0a85 3901     		.2byte	0x139
 2864 0a87 3A000000 		.4byte	0x3a
 2865 0a8b 10       		.byte	0x10
 2866 0a8c 09       		.uleb128 0x9
ARM GAS  C:\Users\Luis\AppData\Local\Temp\cc23RfwK.s 			page 52


 2867 0a8d 57070000 		.4byte	.LASF155
 2868 0a91 0E       		.byte	0xe
 2869 0a92 3A01     		.2byte	0x13a
 2870 0a94 53000000 		.4byte	0x53
 2871 0a98 12       		.byte	0x12
 2872 0a99 08       		.uleb128 0x8
 2873 0a9a 63726300 		.ascii	"crc\000"
 2874 0a9e 0E       		.byte	0xe
 2875 0a9f 3B01     		.2byte	0x13b
 2876 0aa1 3A000000 		.4byte	0x3a
 2877 0aa5 14       		.byte	0x14
 2878 0aa6 00       		.byte	0
 2879 0aa7 12       		.uleb128 0x12
 2880 0aa8 71070000 		.4byte	0x771
 2881 0aac B70A0000 		.4byte	0xab7
 2882 0ab0 13       		.uleb128 0x13
 2883 0ab1 95040000 		.4byte	0x495
 2884 0ab5 05       		.byte	0x5
 2885 0ab6 00       		.byte	0
 2886 0ab7 1E       		.uleb128 0x1e
 2887 0ab8 46060000 		.4byte	.LASF157
 2888 0abc 0E       		.byte	0xe
 2889 0abd 3C01     		.2byte	0x13c
 2890 0abf 280A0000 		.4byte	0xa28
 2891 0ac3 1D       		.uleb128 0x1d
 2892 0ac4 20       		.byte	0x20
 2893 0ac5 0E       		.byte	0xe
 2894 0ac6 4101     		.2byte	0x141
 2895 0ac8 460C0000 		.4byte	0xc46
 2896 0acc 09       		.uleb128 0x9
 2897 0acd A8050000 		.4byte	.LASF158
 2898 0ad1 0E       		.byte	0xe
 2899 0ad2 4201     		.2byte	0x142
 2900 0ad4 3A000000 		.4byte	0x3a
 2901 0ad8 00       		.byte	0
 2902 0ad9 09       		.uleb128 0x9
 2903 0ada 47040000 		.4byte	.LASF159
 2904 0ade 0E       		.byte	0xe
 2905 0adf 4301     		.2byte	0x143
 2906 0ae1 3A000000 		.4byte	0x3a
 2907 0ae5 01       		.byte	0x1
 2908 0ae6 09       		.uleb128 0x9
 2909 0ae7 44050000 		.4byte	.LASF160
 2910 0aeb 0E       		.byte	0xe
 2911 0aec 4401     		.2byte	0x144
 2912 0aee 3A000000 		.4byte	0x3a
 2913 0af2 02       		.byte	0x2
 2914 0af3 09       		.uleb128 0x9
 2915 0af4 21080000 		.4byte	.LASF161
 2916 0af8 0E       		.byte	0xe
 2917 0af9 4501     		.2byte	0x145
 2918 0afb 3A000000 		.4byte	0x3a
 2919 0aff 03       		.byte	0x3
 2920 0b00 08       		.uleb128 0x8
 2921 0b01 63636300 		.ascii	"ccc\000"
 2922 0b05 0E       		.byte	0xe
 2923 0b06 4601     		.2byte	0x146
ARM GAS  C:\Users\Luis\AppData\Local\Temp\cc23RfwK.s 			page 53


 2924 0b08 53000000 		.4byte	0x53
 2925 0b0c 04       		.byte	0x4
 2926 0b0d 09       		.uleb128 0x9
 2927 0b0e E9090000 		.4byte	.LASF162
 2928 0b12 0E       		.byte	0xe
 2929 0b13 4701     		.2byte	0x147
 2930 0b15 3A000000 		.4byte	0x3a
 2931 0b19 06       		.byte	0x6
 2932 0b1a 09       		.uleb128 0x9
 2933 0b1b 11070000 		.4byte	.LASF163
 2934 0b1f 0E       		.byte	0xe
 2935 0b20 4801     		.2byte	0x148
 2936 0b22 3A000000 		.4byte	0x3a
 2937 0b26 07       		.byte	0x7
 2938 0b27 09       		.uleb128 0x9
 2939 0b28 B5060000 		.4byte	.LASF164
 2940 0b2c 0E       		.byte	0xe
 2941 0b2d 4901     		.2byte	0x149
 2942 0b2f 3A000000 		.4byte	0x3a
 2943 0b33 08       		.byte	0x8
 2944 0b34 09       		.uleb128 0x9
 2945 0b35 86040000 		.4byte	.LASF165
 2946 0b39 0E       		.byte	0xe
 2947 0b3a 4A01     		.2byte	0x14a
 2948 0b3c 3A000000 		.4byte	0x3a
 2949 0b40 09       		.byte	0x9
 2950 0b41 09       		.uleb128 0x9
 2951 0b42 59060000 		.4byte	.LASF166
 2952 0b46 0E       		.byte	0xe
 2953 0b47 4B01     		.2byte	0x14b
 2954 0b49 3A000000 		.4byte	0x3a
 2955 0b4d 0A       		.byte	0xa
 2956 0b4e 09       		.uleb128 0x9
 2957 0b4f 75090000 		.4byte	.LASF167
 2958 0b53 0E       		.byte	0xe
 2959 0b54 4C01     		.2byte	0x14c
 2960 0b56 53000000 		.4byte	0x53
 2961 0b5a 0C       		.byte	0xc
 2962 0b5b 09       		.uleb128 0x9
 2963 0b5c 2E020000 		.4byte	.LASF168
 2964 0b60 0E       		.byte	0xe
 2965 0b61 4D01     		.2byte	0x14d
 2966 0b63 3A000000 		.4byte	0x3a
 2967 0b67 0E       		.byte	0xe
 2968 0b68 09       		.uleb128 0x9
 2969 0b69 A8010000 		.4byte	.LASF169
 2970 0b6d 0E       		.byte	0xe
 2971 0b6e 4E01     		.2byte	0x14e
 2972 0b70 3A000000 		.4byte	0x3a
 2973 0b74 0F       		.byte	0xf
 2974 0b75 09       		.uleb128 0x9
 2975 0b76 030A0000 		.4byte	.LASF170
 2976 0b7a 0E       		.byte	0xe
 2977 0b7b 4F01     		.2byte	0x14f
 2978 0b7d 3A000000 		.4byte	0x3a
 2979 0b81 10       		.byte	0x10
 2980 0b82 09       		.uleb128 0x9
ARM GAS  C:\Users\Luis\AppData\Local\Temp\cc23RfwK.s 			page 54


 2981 0b83 8C090000 		.4byte	.LASF171
 2982 0b87 0E       		.byte	0xe
 2983 0b88 5001     		.2byte	0x150
 2984 0b8a 3A000000 		.4byte	0x3a
 2985 0b8e 11       		.byte	0x11
 2986 0b8f 09       		.uleb128 0x9
 2987 0b90 0E080000 		.4byte	.LASF172
 2988 0b94 0E       		.byte	0xe
 2989 0b95 5101     		.2byte	0x151
 2990 0b97 3A000000 		.4byte	0x3a
 2991 0b9b 12       		.byte	0x12
 2992 0b9c 09       		.uleb128 0x9
 2993 0b9d 32090000 		.4byte	.LASF173
 2994 0ba1 0E       		.byte	0xe
 2995 0ba2 5201     		.2byte	0x152
 2996 0ba4 3A000000 		.4byte	0x3a
 2997 0ba8 13       		.byte	0x13
 2998 0ba9 09       		.uleb128 0x9
 2999 0baa 7D070000 		.4byte	.LASF174
 3000 0bae 0E       		.byte	0xe
 3001 0baf 5301     		.2byte	0x153
 3002 0bb1 3A000000 		.4byte	0x3a
 3003 0bb5 14       		.byte	0x14
 3004 0bb6 09       		.uleb128 0x9
 3005 0bb7 C0040000 		.4byte	.LASF175
 3006 0bbb 0E       		.byte	0xe
 3007 0bbc 5401     		.2byte	0x154
 3008 0bbe 3A000000 		.4byte	0x3a
 3009 0bc2 15       		.byte	0x15
 3010 0bc3 09       		.uleb128 0x9
 3011 0bc4 7A020000 		.4byte	.LASF176
 3012 0bc8 0E       		.byte	0xe
 3013 0bc9 5501     		.2byte	0x155
 3014 0bcb 3A000000 		.4byte	0x3a
 3015 0bcf 16       		.byte	0x16
 3016 0bd0 09       		.uleb128 0x9
 3017 0bd1 7C010000 		.4byte	.LASF177
 3018 0bd5 0E       		.byte	0xe
 3019 0bd6 5601     		.2byte	0x156
 3020 0bd8 3A000000 		.4byte	0x3a
 3021 0bdc 17       		.byte	0x17
 3022 0bdd 09       		.uleb128 0x9
 3023 0bde 37050000 		.4byte	.LASF178
 3024 0be2 0E       		.byte	0xe
 3025 0be3 5701     		.2byte	0x157
 3026 0be5 3A000000 		.4byte	0x3a
 3027 0be9 18       		.byte	0x18
 3028 0bea 09       		.uleb128 0x9
 3029 0beb 69040000 		.4byte	.LASF179
 3030 0bef 0E       		.byte	0xe
 3031 0bf0 5801     		.2byte	0x158
 3032 0bf2 3A000000 		.4byte	0x3a
 3033 0bf6 19       		.byte	0x19
 3034 0bf7 09       		.uleb128 0x9
 3035 0bf8 C8060000 		.4byte	.LASF180
 3036 0bfc 0E       		.byte	0xe
 3037 0bfd 5901     		.2byte	0x159
ARM GAS  C:\Users\Luis\AppData\Local\Temp\cc23RfwK.s 			page 55


 3038 0bff 3A000000 		.4byte	0x3a
 3039 0c03 1A       		.byte	0x1a
 3040 0c04 09       		.uleb128 0x9
 3041 0c05 BB040000 		.4byte	.LASF181
 3042 0c09 0E       		.byte	0xe
 3043 0c0a 5A01     		.2byte	0x15a
 3044 0c0c 3A000000 		.4byte	0x3a
 3045 0c10 1B       		.byte	0x1b
 3046 0c11 09       		.uleb128 0x9
 3047 0c12 4E090000 		.4byte	.LASF182
 3048 0c16 0E       		.byte	0xe
 3049 0c17 5B01     		.2byte	0x15b
 3050 0c19 3A000000 		.4byte	0x3a
 3051 0c1d 1C       		.byte	0x1c
 3052 0c1e 09       		.uleb128 0x9
 3053 0c1f 8E060000 		.4byte	.LASF183
 3054 0c23 0E       		.byte	0xe
 3055 0c24 5C01     		.2byte	0x15c
 3056 0c26 3A000000 		.4byte	0x3a
 3057 0c2a 1D       		.byte	0x1d
 3058 0c2b 09       		.uleb128 0x9
 3059 0c2c AF040000 		.4byte	.LASF184
 3060 0c30 0E       		.byte	0xe
 3061 0c31 5D01     		.2byte	0x15d
 3062 0c33 3A000000 		.4byte	0x3a
 3063 0c37 1E       		.byte	0x1e
 3064 0c38 08       		.uleb128 0x8
 3065 0c39 63726300 		.ascii	"crc\000"
 3066 0c3d 0E       		.byte	0xe
 3067 0c3e 5E01     		.2byte	0x15e
 3068 0c40 3A000000 		.4byte	0x3a
 3069 0c44 1F       		.byte	0x1f
 3070 0c45 00       		.byte	0
 3071 0c46 1E       		.uleb128 0x1e
 3072 0c47 30070000 		.4byte	.LASF185
 3073 0c4b 0E       		.byte	0xe
 3074 0c4c 5F01     		.2byte	0x15f
 3075 0c4e C30A0000 		.4byte	0xac3
 3076 0c52 1D       		.uleb128 0x1d
 3077 0c53 20       		.byte	0x20
 3078 0c54 0E       		.byte	0xe
 3079 0c55 6401     		.2byte	0x164
 3080 0c57 940D0000 		.4byte	0xd94
 3081 0c5b 09       		.uleb128 0x9
 3082 0c5c A8050000 		.4byte	.LASF158
 3083 0c60 0E       		.byte	0xe
 3084 0c61 6501     		.2byte	0x165
 3085 0c63 3A000000 		.4byte	0x3a
 3086 0c67 00       		.byte	0
 3087 0c68 09       		.uleb128 0x9
 3088 0c69 47040000 		.4byte	.LASF159
 3089 0c6d 0E       		.byte	0xe
 3090 0c6e 6601     		.2byte	0x166
 3091 0c70 3A000000 		.4byte	0x3a
 3092 0c74 01       		.byte	0x1
 3093 0c75 09       		.uleb128 0x9
 3094 0c76 44050000 		.4byte	.LASF160
ARM GAS  C:\Users\Luis\AppData\Local\Temp\cc23RfwK.s 			page 56


 3095 0c7a 0E       		.byte	0xe
 3096 0c7b 6701     		.2byte	0x167
 3097 0c7d 3A000000 		.4byte	0x3a
 3098 0c81 02       		.byte	0x2
 3099 0c82 09       		.uleb128 0x9
 3100 0c83 21080000 		.4byte	.LASF161
 3101 0c87 0E       		.byte	0xe
 3102 0c88 6801     		.2byte	0x168
 3103 0c8a 3A000000 		.4byte	0x3a
 3104 0c8e 03       		.byte	0x3
 3105 0c8f 08       		.uleb128 0x8
 3106 0c90 63636300 		.ascii	"ccc\000"
 3107 0c94 0E       		.byte	0xe
 3108 0c95 6901     		.2byte	0x169
 3109 0c97 53000000 		.4byte	0x53
 3110 0c9b 04       		.byte	0x4
 3111 0c9c 09       		.uleb128 0x9
 3112 0c9d E9090000 		.4byte	.LASF162
 3113 0ca1 0E       		.byte	0xe
 3114 0ca2 6A01     		.2byte	0x16a
 3115 0ca4 3A000000 		.4byte	0x3a
 3116 0ca8 06       		.byte	0x6
 3117 0ca9 09       		.uleb128 0x9
 3118 0caa 11070000 		.4byte	.LASF163
 3119 0cae 0E       		.byte	0xe
 3120 0caf 6B01     		.2byte	0x16b
 3121 0cb1 3A000000 		.4byte	0x3a
 3122 0cb5 07       		.byte	0x7
 3123 0cb6 09       		.uleb128 0x9
 3124 0cb7 B5060000 		.4byte	.LASF164
 3125 0cbb 0E       		.byte	0xe
 3126 0cbc 6C01     		.2byte	0x16c
 3127 0cbe 3A000000 		.4byte	0x3a
 3128 0cc2 08       		.byte	0x8
 3129 0cc3 09       		.uleb128 0x9
 3130 0cc4 86040000 		.4byte	.LASF165
 3131 0cc8 0E       		.byte	0xe
 3132 0cc9 6D01     		.2byte	0x16d
 3133 0ccb 3A000000 		.4byte	0x3a
 3134 0ccf 09       		.byte	0x9
 3135 0cd0 09       		.uleb128 0x9
 3136 0cd1 59060000 		.4byte	.LASF166
 3137 0cd5 0E       		.byte	0xe
 3138 0cd6 6E01     		.2byte	0x16e
 3139 0cd8 3A000000 		.4byte	0x3a
 3140 0cdc 0A       		.byte	0xa
 3141 0cdd 09       		.uleb128 0x9
 3142 0cde 75090000 		.4byte	.LASF167
 3143 0ce2 0E       		.byte	0xe
 3144 0ce3 6F01     		.2byte	0x16f
 3145 0ce5 77000000 		.4byte	0x77
 3146 0ce9 0C       		.byte	0xc
 3147 0cea 09       		.uleb128 0x9
 3148 0ceb 32090000 		.4byte	.LASF173
 3149 0cef 0E       		.byte	0xe
 3150 0cf0 7001     		.2byte	0x170
 3151 0cf2 3A000000 		.4byte	0x3a
ARM GAS  C:\Users\Luis\AppData\Local\Temp\cc23RfwK.s 			page 57


 3152 0cf6 10       		.byte	0x10
 3153 0cf7 09       		.uleb128 0x9
 3154 0cf8 7D070000 		.4byte	.LASF174
 3155 0cfc 0E       		.byte	0xe
 3156 0cfd 7101     		.2byte	0x171
 3157 0cff 3A000000 		.4byte	0x3a
 3158 0d03 11       		.byte	0x11
 3159 0d04 09       		.uleb128 0x9
 3160 0d05 C0040000 		.4byte	.LASF175
 3161 0d09 0E       		.byte	0xe
 3162 0d0a 7201     		.2byte	0x172
 3163 0d0c 3A000000 		.4byte	0x3a
 3164 0d10 12       		.byte	0x12
 3165 0d11 09       		.uleb128 0x9
 3166 0d12 7A020000 		.4byte	.LASF176
 3167 0d16 0E       		.byte	0xe
 3168 0d17 7301     		.2byte	0x173
 3169 0d19 3A000000 		.4byte	0x3a
 3170 0d1d 13       		.byte	0x13
 3171 0d1e 09       		.uleb128 0x9
 3172 0d1f 7C010000 		.4byte	.LASF177
 3173 0d23 0E       		.byte	0xe
 3174 0d24 7401     		.2byte	0x174
 3175 0d26 3A000000 		.4byte	0x3a
 3176 0d2a 14       		.byte	0x14
 3177 0d2b 09       		.uleb128 0x9
 3178 0d2c 37050000 		.4byte	.LASF178
 3179 0d30 0E       		.byte	0xe
 3180 0d31 7501     		.2byte	0x175
 3181 0d33 3A000000 		.4byte	0x3a
 3182 0d37 15       		.byte	0x15
 3183 0d38 09       		.uleb128 0x9
 3184 0d39 69040000 		.4byte	.LASF179
 3185 0d3d 0E       		.byte	0xe
 3186 0d3e 7601     		.2byte	0x176
 3187 0d40 3A000000 		.4byte	0x3a
 3188 0d44 16       		.byte	0x16
 3189 0d45 09       		.uleb128 0x9
 3190 0d46 C8060000 		.4byte	.LASF180
 3191 0d4a 0E       		.byte	0xe
 3192 0d4b 7701     		.2byte	0x177
 3193 0d4d 3A000000 		.4byte	0x3a
 3194 0d51 17       		.byte	0x17
 3195 0d52 09       		.uleb128 0x9
 3196 0d53 BB040000 		.4byte	.LASF181
 3197 0d57 0E       		.byte	0xe
 3198 0d58 7801     		.2byte	0x178
 3199 0d5a 3A000000 		.4byte	0x3a
 3200 0d5e 18       		.byte	0x18
 3201 0d5f 09       		.uleb128 0x9
 3202 0d60 4E090000 		.4byte	.LASF182
 3203 0d64 0E       		.byte	0xe
 3204 0d65 7901     		.2byte	0x179
 3205 0d67 3A000000 		.4byte	0x3a
 3206 0d6b 19       		.byte	0x19
 3207 0d6c 09       		.uleb128 0x9
 3208 0d6d 8E060000 		.4byte	.LASF183
ARM GAS  C:\Users\Luis\AppData\Local\Temp\cc23RfwK.s 			page 58


 3209 0d71 0E       		.byte	0xe
 3210 0d72 7A01     		.2byte	0x17a
 3211 0d74 3A000000 		.4byte	0x3a
 3212 0d78 1A       		.byte	0x1a
 3213 0d79 09       		.uleb128 0x9
 3214 0d7a AF040000 		.4byte	.LASF184
 3215 0d7e 0E       		.byte	0xe
 3216 0d7f 7B01     		.2byte	0x17b
 3217 0d81 3A000000 		.4byte	0x3a
 3218 0d85 1B       		.byte	0x1b
 3219 0d86 08       		.uleb128 0x8
 3220 0d87 63726300 		.ascii	"crc\000"
 3221 0d8b 0E       		.byte	0xe
 3222 0d8c 7C01     		.2byte	0x17c
 3223 0d8e 3A000000 		.4byte	0x3a
 3224 0d92 1C       		.byte	0x1c
 3225 0d93 00       		.byte	0
 3226 0d94 1E       		.uleb128 0x1e
 3227 0d95 D7050000 		.4byte	.LASF186
 3228 0d99 0E       		.byte	0xe
 3229 0d9a 7D01     		.2byte	0x17d
 3230 0d9c 520C0000 		.4byte	0xc52
 3231 0da0 1D       		.uleb128 0x1d
 3232 0da1 26       		.byte	0x26
 3233 0da2 0E       		.byte	0xe
 3234 0da3 8201     		.2byte	0x182
 3235 0da5 570F0000 		.4byte	0xf57
 3236 0da9 09       		.uleb128 0x9
 3237 0daa A8050000 		.4byte	.LASF158
 3238 0dae 0E       		.byte	0xe
 3239 0daf 8301     		.2byte	0x183
 3240 0db1 3A000000 		.4byte	0x3a
 3241 0db5 00       		.byte	0
 3242 0db6 09       		.uleb128 0x9
 3243 0db7 72030000 		.4byte	.LASF187
 3244 0dbb 0E       		.byte	0xe
 3245 0dbc 8401     		.2byte	0x184
 3246 0dbe 3A000000 		.4byte	0x3a
 3247 0dc2 01       		.byte	0x1
 3248 0dc3 09       		.uleb128 0x9
 3249 0dc4 47040000 		.4byte	.LASF159
 3250 0dc8 0E       		.byte	0xe
 3251 0dc9 8501     		.2byte	0x185
 3252 0dcb 3A000000 		.4byte	0x3a
 3253 0dcf 02       		.byte	0x2
 3254 0dd0 09       		.uleb128 0x9
 3255 0dd1 44050000 		.4byte	.LASF160
 3256 0dd5 0E       		.byte	0xe
 3257 0dd6 8601     		.2byte	0x186
 3258 0dd8 3A000000 		.4byte	0x3a
 3259 0ddc 03       		.byte	0x3
 3260 0ddd 09       		.uleb128 0x9
 3261 0dde 21080000 		.4byte	.LASF161
 3262 0de2 0E       		.byte	0xe
 3263 0de3 8701     		.2byte	0x187
 3264 0de5 3A000000 		.4byte	0x3a
 3265 0de9 04       		.byte	0x4
ARM GAS  C:\Users\Luis\AppData\Local\Temp\cc23RfwK.s 			page 59


 3266 0dea 08       		.uleb128 0x8
 3267 0deb 63636300 		.ascii	"ccc\000"
 3268 0def 0E       		.byte	0xe
 3269 0df0 8801     		.2byte	0x188
 3270 0df2 53000000 		.4byte	0x53
 3271 0df6 06       		.byte	0x6
 3272 0df7 09       		.uleb128 0x9
 3273 0df8 E9090000 		.4byte	.LASF162
 3274 0dfc 0E       		.byte	0xe
 3275 0dfd 8901     		.2byte	0x189
 3276 0dff 3A000000 		.4byte	0x3a
 3277 0e03 08       		.byte	0x8
 3278 0e04 09       		.uleb128 0x9
 3279 0e05 11070000 		.4byte	.LASF163
 3280 0e09 0E       		.byte	0xe
 3281 0e0a 8A01     		.2byte	0x18a
 3282 0e0c 3A000000 		.4byte	0x3a
 3283 0e10 09       		.byte	0x9
 3284 0e11 09       		.uleb128 0x9
 3285 0e12 B5060000 		.4byte	.LASF164
 3286 0e16 0E       		.byte	0xe
 3287 0e17 8B01     		.2byte	0x18b
 3288 0e19 3A000000 		.4byte	0x3a
 3289 0e1d 0A       		.byte	0xa
 3290 0e1e 09       		.uleb128 0x9
 3291 0e1f 86040000 		.4byte	.LASF165
 3292 0e23 0E       		.byte	0xe
 3293 0e24 8C01     		.2byte	0x18c
 3294 0e26 3A000000 		.4byte	0x3a
 3295 0e2a 0B       		.byte	0xb
 3296 0e2b 09       		.uleb128 0x9
 3297 0e2c 59060000 		.4byte	.LASF166
 3298 0e30 0E       		.byte	0xe
 3299 0e31 8D01     		.2byte	0x18d
 3300 0e33 3A000000 		.4byte	0x3a
 3301 0e37 0C       		.byte	0xc
 3302 0e38 09       		.uleb128 0x9
 3303 0e39 75090000 		.4byte	.LASF167
 3304 0e3d 0E       		.byte	0xe
 3305 0e3e 8E01     		.2byte	0x18e
 3306 0e40 53000000 		.4byte	0x53
 3307 0e44 0E       		.byte	0xe
 3308 0e45 09       		.uleb128 0x9
 3309 0e46 2E020000 		.4byte	.LASF168
 3310 0e4a 0E       		.byte	0xe
 3311 0e4b 8F01     		.2byte	0x18f
 3312 0e4d 3A000000 		.4byte	0x3a
 3313 0e51 10       		.byte	0x10
 3314 0e52 09       		.uleb128 0x9
 3315 0e53 A8010000 		.4byte	.LASF169
 3316 0e57 0E       		.byte	0xe
 3317 0e58 9001     		.2byte	0x190
 3318 0e5a 3A000000 		.4byte	0x3a
 3319 0e5e 11       		.byte	0x11
 3320 0e5f 09       		.uleb128 0x9
 3321 0e60 030A0000 		.4byte	.LASF170
 3322 0e64 0E       		.byte	0xe
ARM GAS  C:\Users\Luis\AppData\Local\Temp\cc23RfwK.s 			page 60


 3323 0e65 9101     		.2byte	0x191
 3324 0e67 3A000000 		.4byte	0x3a
 3325 0e6b 12       		.byte	0x12
 3326 0e6c 09       		.uleb128 0x9
 3327 0e6d 8C090000 		.4byte	.LASF171
 3328 0e71 0E       		.byte	0xe
 3329 0e72 9201     		.2byte	0x192
 3330 0e74 3A000000 		.4byte	0x3a
 3331 0e78 13       		.byte	0x13
 3332 0e79 09       		.uleb128 0x9
 3333 0e7a 0E080000 		.4byte	.LASF172
 3334 0e7e 0E       		.byte	0xe
 3335 0e7f 9301     		.2byte	0x193
 3336 0e81 3A000000 		.4byte	0x3a
 3337 0e85 14       		.byte	0x14
 3338 0e86 09       		.uleb128 0x9
 3339 0e87 21070000 		.4byte	.LASF188
 3340 0e8b 0E       		.byte	0xe
 3341 0e8c 9401     		.2byte	0x194
 3342 0e8e 3A000000 		.4byte	0x3a
 3343 0e92 15       		.byte	0x15
 3344 0e93 09       		.uleb128 0x9
 3345 0e94 A8030000 		.4byte	.LASF189
 3346 0e98 0E       		.byte	0xe
 3347 0e99 9501     		.2byte	0x195
 3348 0e9b 3A000000 		.4byte	0x3a
 3349 0e9f 16       		.byte	0x16
 3350 0ea0 09       		.uleb128 0x9
 3351 0ea1 C0040000 		.4byte	.LASF175
 3352 0ea5 0E       		.byte	0xe
 3353 0ea6 9601     		.2byte	0x196
 3354 0ea8 3A000000 		.4byte	0x3a
 3355 0eac 17       		.byte	0x17
 3356 0ead 09       		.uleb128 0x9
 3357 0eae 7A020000 		.4byte	.LASF176
 3358 0eb2 0E       		.byte	0xe
 3359 0eb3 9701     		.2byte	0x197
 3360 0eb5 3A000000 		.4byte	0x3a
 3361 0eb9 18       		.byte	0x18
 3362 0eba 09       		.uleb128 0x9
 3363 0ebb 9A020000 		.4byte	.LASF190
 3364 0ebf 0E       		.byte	0xe
 3365 0ec0 9801     		.2byte	0x198
 3366 0ec2 3A000000 		.4byte	0x3a
 3367 0ec6 19       		.byte	0x19
 3368 0ec7 09       		.uleb128 0x9
 3369 0ec8 7C010000 		.4byte	.LASF177
 3370 0ecc 0E       		.byte	0xe
 3371 0ecd 9901     		.2byte	0x199
 3372 0ecf 3A000000 		.4byte	0x3a
 3373 0ed3 1A       		.byte	0x1a
 3374 0ed4 09       		.uleb128 0x9
 3375 0ed5 37050000 		.4byte	.LASF178
 3376 0ed9 0E       		.byte	0xe
 3377 0eda 9A01     		.2byte	0x19a
 3378 0edc 3A000000 		.4byte	0x3a
 3379 0ee0 1B       		.byte	0x1b
ARM GAS  C:\Users\Luis\AppData\Local\Temp\cc23RfwK.s 			page 61


 3380 0ee1 09       		.uleb128 0x9
 3381 0ee2 69040000 		.4byte	.LASF179
 3382 0ee6 0E       		.byte	0xe
 3383 0ee7 9B01     		.2byte	0x19b
 3384 0ee9 3A000000 		.4byte	0x3a
 3385 0eed 1C       		.byte	0x1c
 3386 0eee 09       		.uleb128 0x9
 3387 0eef D8090000 		.4byte	.LASF191
 3388 0ef3 0E       		.byte	0xe
 3389 0ef4 9C01     		.2byte	0x19c
 3390 0ef6 3A000000 		.4byte	0x3a
 3391 0efa 1D       		.byte	0x1d
 3392 0efb 09       		.uleb128 0x9
 3393 0efc C8060000 		.4byte	.LASF180
 3394 0f00 0E       		.byte	0xe
 3395 0f01 9D01     		.2byte	0x19d
 3396 0f03 3A000000 		.4byte	0x3a
 3397 0f07 1E       		.byte	0x1e
 3398 0f08 09       		.uleb128 0x9
 3399 0f09 BB040000 		.4byte	.LASF181
 3400 0f0d 0E       		.byte	0xe
 3401 0f0e 9E01     		.2byte	0x19e
 3402 0f10 3A000000 		.4byte	0x3a
 3403 0f14 1F       		.byte	0x1f
 3404 0f15 09       		.uleb128 0x9
 3405 0f16 4E090000 		.4byte	.LASF182
 3406 0f1a 0E       		.byte	0xe
 3407 0f1b 9F01     		.2byte	0x19f
 3408 0f1d 3A000000 		.4byte	0x3a
 3409 0f21 20       		.byte	0x20
 3410 0f22 09       		.uleb128 0x9
 3411 0f23 8E060000 		.4byte	.LASF183
 3412 0f27 0E       		.byte	0xe
 3413 0f28 A001     		.2byte	0x1a0
 3414 0f2a 3A000000 		.4byte	0x3a
 3415 0f2e 21       		.byte	0x21
 3416 0f2f 09       		.uleb128 0x9
 3417 0f30 AF040000 		.4byte	.LASF184
 3418 0f34 0E       		.byte	0xe
 3419 0f35 A101     		.2byte	0x1a1
 3420 0f37 3A000000 		.4byte	0x3a
 3421 0f3b 22       		.byte	0x22
 3422 0f3c 08       		.uleb128 0x8
 3423 0f3d 65636300 		.ascii	"ecc\000"
 3424 0f41 0E       		.byte	0xe
 3425 0f42 A201     		.2byte	0x1a2
 3426 0f44 3A000000 		.4byte	0x3a
 3427 0f48 23       		.byte	0x23
 3428 0f49 08       		.uleb128 0x8
 3429 0f4a 63726300 		.ascii	"crc\000"
 3430 0f4e 0E       		.byte	0xe
 3431 0f4f A301     		.2byte	0x1a3
 3432 0f51 3A000000 		.4byte	0x3a
 3433 0f55 24       		.byte	0x24
 3434 0f56 00       		.byte	0
 3435 0f57 1E       		.uleb128 0x1e
 3436 0f58 33060000 		.4byte	.LASF192
ARM GAS  C:\Users\Luis\AppData\Local\Temp\cc23RfwK.s 			page 62


 3437 0f5c 0E       		.byte	0xe
 3438 0f5d A401     		.2byte	0x1a4
 3439 0f5f A00D0000 		.4byte	0xda0
 3440 0f63 1F       		.uleb128 0x1f
 3441 0f64 F3020000 		.4byte	.LASF199
 3442 0f68 01       		.byte	0x1
 3443 0f69 3D       		.byte	0x3d
 3444 0f6a 77000000 		.4byte	0x77
 3445 0f6e 00000000 		.4byte	.LFB260
 3446 0f72 9C000000 		.4byte	.LFE260-.LFB260
 3447 0f76 01       		.uleb128 0x1
 3448 0f77 9C       		.byte	0x9c
 3449 0f78 EE0F0000 		.4byte	0xfee
 3450 0f7c 20       		.uleb128 0x20
 3451 0f7d 2C010000 		.4byte	.LASF193
 3452 0f81 01       		.byte	0x1
 3453 0f82 3D       		.byte	0x3d
 3454 0f83 EE0F0000 		.4byte	0xfee
 3455 0f87 02       		.uleb128 0x2
 3456 0f88 91       		.byte	0x91
 3457 0f89 64       		.sleb128 -28
 3458 0f8a 21       		.uleb128 0x21
 3459 0f8b 656E6400 		.ascii	"end\000"
 3460 0f8f 01       		.byte	0x1
 3461 0f90 3E       		.byte	0x3e
 3462 0f91 77000000 		.4byte	0x77
 3463 0f95 02       		.uleb128 0x2
 3464 0f96 91       		.byte	0x91
 3465 0f97 60       		.sleb128 -32
 3466 0f98 20       		.uleb128 0x20
 3467 0f99 5C0A0000 		.4byte	.LASF194
 3468 0f9d 01       		.byte	0x1
 3469 0f9e 3F       		.byte	0x3f
 3470 0f9f 77000000 		.4byte	0x77
 3471 0fa3 02       		.uleb128 0x2
 3472 0fa4 91       		.byte	0x91
 3473 0fa5 5C       		.sleb128 -36
 3474 0fa6 22       		.uleb128 0x22
 3475 0fa7 2E050000 		.4byte	.LASF195
 3476 0fab 01       		.byte	0x1
 3477 0fac 40       		.byte	0x40
 3478 0fad 2C000000 		.4byte	0x2c
 3479 0fb1 02       		.uleb128 0x2
 3480 0fb2 91       		.byte	0x91
 3481 0fb3 74       		.sleb128 -12
 3482 0fb4 22       		.uleb128 0x22
 3483 0fb5 24060000 		.4byte	.LASF196
 3484 0fb9 01       		.byte	0x1
 3485 0fba 40       		.byte	0x40
 3486 0fbb 2C000000 		.4byte	0x2c
 3487 0fbf 02       		.uleb128 0x2
 3488 0fc0 91       		.byte	0x91
 3489 0fc1 6C       		.sleb128 -20
 3490 0fc2 22       		.uleb128 0x22
 3491 0fc3 A0060000 		.4byte	.LASF197
 3492 0fc7 01       		.byte	0x1
 3493 0fc8 40       		.byte	0x40
ARM GAS  C:\Users\Luis\AppData\Local\Temp\cc23RfwK.s 			page 63


 3494 0fc9 2C000000 		.4byte	0x2c
 3495 0fcd 02       		.uleb128 0x2
 3496 0fce 91       		.byte	0x91
 3497 0fcf 70       		.sleb128 -16
 3498 0fd0 22       		.uleb128 0x22
 3499 0fd1 43000000 		.4byte	.LASF198
 3500 0fd5 01       		.byte	0x1
 3501 0fd6 41       		.byte	0x41
 3502 0fd7 77000000 		.4byte	0x77
 3503 0fdb 02       		.uleb128 0x2
 3504 0fdc 91       		.byte	0x91
 3505 0fdd 68       		.sleb128 -24
 3506 0fde 23       		.uleb128 0x23
 3507 0fdf 00070000 		.4byte	.LASF201
 3508 0fe3 09100000 		.4byte	0x1009
 3509 0fe7 05       		.uleb128 0x5
 3510 0fe8 03       		.byte	0x3
 3511 0fe9 00000000 		.4byte	__func__.7912
 3512 0fed 00       		.byte	0
 3513 0fee 0A       		.uleb128 0xa
 3514 0fef 04       		.byte	0x4
 3515 0ff0 F40F0000 		.4byte	0xff4
 3516 0ff4 19       		.uleb128 0x19
 3517 0ff5 77000000 		.4byte	0x77
 3518 0ff9 12       		.uleb128 0x12
 3519 0ffa 71070000 		.4byte	0x771
 3520 0ffe 09100000 		.4byte	0x1009
 3521 1002 13       		.uleb128 0x13
 3522 1003 95040000 		.4byte	0x495
 3523 1007 10       		.byte	0x10
 3524 1008 00       		.byte	0
 3525 1009 19       		.uleb128 0x19
 3526 100a F90F0000 		.4byte	0xff9
 3527 100e 1F       		.uleb128 0x1f
 3528 100f BF010000 		.4byte	.LASF200
 3529 1013 01       		.byte	0x1
 3530 1014 5D       		.byte	0x5d
 3531 1015 77000000 		.4byte	0x77
 3532 1019 00000000 		.4byte	.LFB261
 3533 101d 84000000 		.4byte	.LFE261-.LFB261
 3534 1021 01       		.uleb128 0x1
 3535 1022 9C       		.byte	0x9c
 3536 1023 69100000 		.4byte	0x1069
 3537 1027 21       		.uleb128 0x21
 3538 1028 63736400 		.ascii	"csd\000"
 3539 102c 01       		.byte	0x1
 3540 102d 5D       		.byte	0x5d
 3541 102e EE0F0000 		.4byte	0xfee
 3542 1032 02       		.uleb128 0x2
 3543 1033 91       		.byte	0x91
 3544 1034 64       		.sleb128 -28
 3545 1035 24       		.uleb128 0x24
 3546 1036 6100     		.ascii	"a\000"
 3547 1038 01       		.byte	0x1
 3548 1039 5E       		.byte	0x5e
 3549 103a 77000000 		.4byte	0x77
 3550 103e 02       		.uleb128 0x2
ARM GAS  C:\Users\Luis\AppData\Local\Temp\cc23RfwK.s 			page 64


 3551 103f 91       		.byte	0x91
 3552 1040 74       		.sleb128 -12
 3553 1041 24       		.uleb128 0x24
 3554 1042 6200     		.ascii	"b\000"
 3555 1044 01       		.byte	0x1
 3556 1045 5E       		.byte	0x5e
 3557 1046 77000000 		.4byte	0x77
 3558 104a 02       		.uleb128 0x2
 3559 104b 91       		.byte	0x91
 3560 104c 70       		.sleb128 -16
 3561 104d 24       		.uleb128 0x24
 3562 104e 6300     		.ascii	"c\000"
 3563 1050 01       		.byte	0x1
 3564 1051 5E       		.byte	0x5e
 3565 1052 77000000 		.4byte	0x77
 3566 1056 02       		.uleb128 0x2
 3567 1057 91       		.byte	0x91
 3568 1058 6C       		.sleb128 -20
 3569 1059 23       		.uleb128 0x23
 3570 105a 00070000 		.4byte	.LASF201
 3571 105e 79100000 		.4byte	0x1079
 3572 1062 05       		.uleb128 0x5
 3573 1063 03       		.byte	0x3
 3574 1064 00000000 		.4byte	__func__.7919
 3575 1068 00       		.byte	0
 3576 1069 12       		.uleb128 0x12
 3577 106a 71070000 		.4byte	0x771
 3578 106e 79100000 		.4byte	0x1079
 3579 1072 13       		.uleb128 0x13
 3580 1073 95040000 		.4byte	0x495
 3581 1077 13       		.byte	0x13
 3582 1078 00       		.byte	0
 3583 1079 19       		.uleb128 0x19
 3584 107a 69100000 		.4byte	0x1069
 3585 107e 1F       		.uleb128 0x1f
 3586 107f 5D050000 		.4byte	.LASF202
 3587 1083 01       		.byte	0x1
 3588 1084 7D       		.byte	0x7d
 3589 1085 77000000 		.4byte	0x77
 3590 1089 00000000 		.4byte	.LFB262
 3591 108d 44000000 		.4byte	.LFE262-.LFB262
 3592 1091 01       		.uleb128 0x1
 3593 1092 9C       		.byte	0x9c
 3594 1093 B5100000 		.4byte	0x10b5
 3595 1097 20       		.uleb128 0x20
 3596 1098 05060000 		.4byte	.LASF203
 3597 109c 01       		.byte	0x1
 3598 109d 7D       		.byte	0x7d
 3599 109e B0070000 		.4byte	0x7b0
 3600 10a2 02       		.uleb128 0x2
 3601 10a3 91       		.byte	0x91
 3602 10a4 74       		.sleb128 -12
 3603 10a5 23       		.uleb128 0x23
 3604 10a6 00070000 		.4byte	.LASF201
 3605 10aa C5100000 		.4byte	0x10c5
 3606 10ae 05       		.uleb128 0x5
 3607 10af 03       		.byte	0x3
ARM GAS  C:\Users\Luis\AppData\Local\Temp\cc23RfwK.s 			page 65


 3608 10b0 00000000 		.4byte	__func__.7927
 3609 10b4 00       		.byte	0
 3610 10b5 12       		.uleb128 0x12
 3611 10b6 71070000 		.4byte	0x771
 3612 10ba C5100000 		.4byte	0x10c5
 3613 10be 13       		.uleb128 0x13
 3614 10bf 95040000 		.4byte	0x495
 3615 10c3 17       		.byte	0x17
 3616 10c4 00       		.byte	0
 3617 10c5 19       		.uleb128 0x19
 3618 10c6 B5100000 		.4byte	0x10b5
 3619 10ca 25       		.uleb128 0x25
 3620 10cb FA000000 		.4byte	.LASF206
 3621 10cf 01       		.byte	0x1
 3622 10d0 8F       		.byte	0x8f
 3623 10d1 00000000 		.4byte	.LFB263
 3624 10d5 1C010000 		.4byte	.LFE263-.LFB263
 3625 10d9 01       		.uleb128 0x1
 3626 10da 9C       		.byte	0x9c
 3627 10db 19110000 		.4byte	0x1119
 3628 10df 20       		.uleb128 0x20
 3629 10e0 EE020000 		.4byte	.LASF204
 3630 10e4 01       		.byte	0x1
 3631 10e5 8F       		.byte	0x8f
 3632 10e6 19110000 		.4byte	0x1119
 3633 10ea 02       		.uleb128 0x2
 3634 10eb 91       		.byte	0x91
 3635 10ec 6C       		.sleb128 -20
 3636 10ed 20       		.uleb128 0x20
 3637 10ee A8000000 		.4byte	.LASF205
 3638 10f2 01       		.byte	0x1
 3639 10f3 90       		.byte	0x90
 3640 10f4 24110000 		.4byte	0x1124
 3641 10f8 02       		.uleb128 0x2
 3642 10f9 91       		.byte	0x91
 3643 10fa 68       		.sleb128 -24
 3644 10fb 24       		.uleb128 0x24
 3645 10fc 63696400 		.ascii	"cid\000"
 3646 1100 01       		.byte	0x1
 3647 1101 91       		.byte	0x91
 3648 1102 EE0F0000 		.4byte	0xfee
 3649 1106 02       		.uleb128 0x2
 3650 1107 91       		.byte	0x91
 3651 1108 74       		.sleb128 -12
 3652 1109 23       		.uleb128 0x23
 3653 110a 00070000 		.4byte	.LASF201
 3654 110e 3A110000 		.4byte	0x113a
 3655 1112 05       		.uleb128 0x5
 3656 1113 03       		.byte	0x3
 3657 1114 00000000 		.4byte	__func__.7933
 3658 1118 00       		.byte	0
 3659 1119 0A       		.uleb128 0xa
 3660 111a 04       		.byte	0x4
 3661 111b 1F110000 		.4byte	0x111f
 3662 111f 19       		.uleb128 0x19
 3663 1120 81090000 		.4byte	0x981
 3664 1124 0A       		.uleb128 0xa
ARM GAS  C:\Users\Luis\AppData\Local\Temp\cc23RfwK.s 			page 66


 3665 1125 04       		.byte	0x4
 3666 1126 1C0A0000 		.4byte	0xa1c
 3667 112a 12       		.uleb128 0x12
 3668 112b 71070000 		.4byte	0x771
 3669 112f 3A110000 		.4byte	0x113a
 3670 1133 13       		.uleb128 0x13
 3671 1134 95040000 		.4byte	0x495
 3672 1138 15       		.byte	0x15
 3673 1139 00       		.byte	0
 3674 113a 19       		.uleb128 0x19
 3675 113b 2A110000 		.4byte	0x112a
 3676 113f 25       		.uleb128 0x25
 3677 1140 20000000 		.4byte	.LASF207
 3678 1144 01       		.byte	0x1
 3679 1145 AE       		.byte	0xae
 3680 1146 00000000 		.4byte	.LFB264
 3681 114a 2C010000 		.4byte	.LFE264-.LFB264
 3682 114e 01       		.uleb128 0x1
 3683 114f 9C       		.byte	0x9c
 3684 1150 8E110000 		.4byte	0x118e
 3685 1154 20       		.uleb128 0x20
 3686 1155 EE020000 		.4byte	.LASF204
 3687 1159 01       		.byte	0x1
 3688 115a AE       		.byte	0xae
 3689 115b 19110000 		.4byte	0x1119
 3690 115f 02       		.uleb128 0x2
 3691 1160 91       		.byte	0x91
 3692 1161 6C       		.sleb128 -20
 3693 1162 20       		.uleb128 0x20
 3694 1163 F9030000 		.4byte	.LASF208
 3695 1167 01       		.byte	0x1
 3696 1168 AF       		.byte	0xaf
 3697 1169 8E110000 		.4byte	0x118e
 3698 116d 02       		.uleb128 0x2
 3699 116e 91       		.byte	0x91
 3700 116f 68       		.sleb128 -24
 3701 1170 24       		.uleb128 0x24
 3702 1171 63696400 		.ascii	"cid\000"
 3703 1175 01       		.byte	0x1
 3704 1176 B0       		.byte	0xb0
 3705 1177 EE0F0000 		.4byte	0xfee
 3706 117b 02       		.uleb128 0x2
 3707 117c 91       		.byte	0x91
 3708 117d 74       		.sleb128 -12
 3709 117e 23       		.uleb128 0x23
 3710 117f 00070000 		.4byte	.LASF201
 3711 1183 94110000 		.4byte	0x1194
 3712 1187 05       		.uleb128 0x5
 3713 1188 03       		.byte	0x3
 3714 1189 00000000 		.4byte	__func__.7939
 3715 118d 00       		.byte	0
 3716 118e 0A       		.uleb128 0xa
 3717 118f 04       		.byte	0x4
 3718 1190 B70A0000 		.4byte	0xab7
 3719 1194 19       		.uleb128 0x19
 3720 1195 2A110000 		.4byte	0x112a
 3721 1199 25       		.uleb128 0x25
ARM GAS  C:\Users\Luis\AppData\Local\Temp\cc23RfwK.s 			page 67


 3722 119a A6020000 		.4byte	.LASF209
 3723 119e 01       		.byte	0x1
 3724 119f CE       		.byte	0xce
 3725 11a0 00000000 		.4byte	.LFB265
 3726 11a4 64020000 		.4byte	.LFE265-.LFB265
 3727 11a8 01       		.uleb128 0x1
 3728 11a9 9C       		.byte	0x9c
 3729 11aa E8110000 		.4byte	0x11e8
 3730 11ae 20       		.uleb128 0x20
 3731 11af EE020000 		.4byte	.LASF204
 3732 11b3 01       		.byte	0x1
 3733 11b4 CE       		.byte	0xce
 3734 11b5 19110000 		.4byte	0x1119
 3735 11b9 02       		.uleb128 0x2
 3736 11ba 91       		.byte	0x91
 3737 11bb 6C       		.sleb128 -20
 3738 11bc 20       		.uleb128 0x20
 3739 11bd 1A080000 		.4byte	.LASF210
 3740 11c1 01       		.byte	0x1
 3741 11c2 CF       		.byte	0xcf
 3742 11c3 E8110000 		.4byte	0x11e8
 3743 11c7 02       		.uleb128 0x2
 3744 11c8 91       		.byte	0x91
 3745 11c9 68       		.sleb128 -24
 3746 11ca 24       		.uleb128 0x24
 3747 11cb 63736400 		.ascii	"csd\000"
 3748 11cf 01       		.byte	0x1
 3749 11d0 D0       		.byte	0xd0
 3750 11d1 EE0F0000 		.4byte	0xfee
 3751 11d5 02       		.uleb128 0x2
 3752 11d6 91       		.byte	0x91
 3753 11d7 74       		.sleb128 -12
 3754 11d8 23       		.uleb128 0x23
 3755 11d9 00070000 		.4byte	.LASF201
 3756 11dd EE110000 		.4byte	0x11ee
 3757 11e1 05       		.uleb128 0x5
 3758 11e2 03       		.byte	0x3
 3759 11e3 00000000 		.4byte	__func__.7945
 3760 11e7 00       		.byte	0
 3761 11e8 0A       		.uleb128 0xa
 3762 11e9 04       		.byte	0x4
 3763 11ea 570F0000 		.4byte	0xf57
 3764 11ee 19       		.uleb128 0x19
 3765 11ef 2A110000 		.4byte	0x112a
 3766 11f3 25       		.uleb128 0x25
 3767 11f4 C1050000 		.4byte	.LASF211
 3768 11f8 01       		.byte	0x1
 3769 11f9 FE       		.byte	0xfe
 3770 11fa 00000000 		.4byte	.LFB266
 3771 11fe E8010000 		.4byte	.LFE266-.LFB266
 3772 1202 01       		.uleb128 0x1
 3773 1203 9C       		.byte	0x9c
 3774 1204 43120000 		.4byte	0x1243
 3775 1208 20       		.uleb128 0x20
 3776 1209 EE020000 		.4byte	.LASF204
 3777 120d 01       		.byte	0x1
 3778 120e FE       		.byte	0xfe
ARM GAS  C:\Users\Luis\AppData\Local\Temp\cc23RfwK.s 			page 68


 3779 120f 19110000 		.4byte	0x1119
 3780 1213 02       		.uleb128 0x2
 3781 1214 91       		.byte	0x91
 3782 1215 6C       		.sleb128 -20
 3783 1216 20       		.uleb128 0x20
 3784 1217 A3040000 		.4byte	.LASF212
 3785 121b 01       		.byte	0x1
 3786 121c FF       		.byte	0xff
 3787 121d 43120000 		.4byte	0x1243
 3788 1221 02       		.uleb128 0x2
 3789 1222 91       		.byte	0x91
 3790 1223 68       		.sleb128 -24
 3791 1224 26       		.uleb128 0x26
 3792 1225 63736400 		.ascii	"csd\000"
 3793 1229 01       		.byte	0x1
 3794 122a 0001     		.2byte	0x100
 3795 122c EE0F0000 		.4byte	0xfee
 3796 1230 02       		.uleb128 0x2
 3797 1231 91       		.byte	0x91
 3798 1232 74       		.sleb128 -12
 3799 1233 23       		.uleb128 0x23
 3800 1234 00070000 		.4byte	.LASF201
 3801 1238 49120000 		.4byte	0x1249
 3802 123c 05       		.uleb128 0x5
 3803 123d 03       		.byte	0x3
 3804 123e 00000000 		.4byte	__func__.7951
 3805 1242 00       		.byte	0
 3806 1243 0A       		.uleb128 0xa
 3807 1244 04       		.byte	0x4
 3808 1245 460C0000 		.4byte	0xc46
 3809 1249 19       		.uleb128 0x19
 3810 124a 2A110000 		.4byte	0x112a
 3811 124e 27       		.uleb128 0x27
 3812 124f CB070000 		.4byte	.LASF213
 3813 1253 01       		.byte	0x1
 3814 1254 2801     		.2byte	0x128
 3815 1256 00000000 		.4byte	.LFB267
 3816 125a D4010000 		.4byte	.LFE267-.LFB267
 3817 125e 01       		.uleb128 0x1
 3818 125f 9C       		.byte	0x9c
 3819 1260 A1120000 		.4byte	0x12a1
 3820 1264 28       		.uleb128 0x28
 3821 1265 EE020000 		.4byte	.LASF204
 3822 1269 01       		.byte	0x1
 3823 126a 2801     		.2byte	0x128
 3824 126c 19110000 		.4byte	0x1119
 3825 1270 02       		.uleb128 0x2
 3826 1271 91       		.byte	0x91
 3827 1272 6C       		.sleb128 -20
 3828 1273 28       		.uleb128 0x28
 3829 1274 ED050000 		.4byte	.LASF214
 3830 1278 01       		.byte	0x1
 3831 1279 2901     		.2byte	0x129
 3832 127b A1120000 		.4byte	0x12a1
 3833 127f 02       		.uleb128 0x2
 3834 1280 91       		.byte	0x91
 3835 1281 68       		.sleb128 -24
ARM GAS  C:\Users\Luis\AppData\Local\Temp\cc23RfwK.s 			page 69


 3836 1282 26       		.uleb128 0x26
 3837 1283 63736400 		.ascii	"csd\000"
 3838 1287 01       		.byte	0x1
 3839 1288 2A01     		.2byte	0x12a
 3840 128a EE0F0000 		.4byte	0xfee
 3841 128e 02       		.uleb128 0x2
 3842 128f 91       		.byte	0x91
 3843 1290 74       		.sleb128 -12
 3844 1291 23       		.uleb128 0x23
 3845 1292 00070000 		.4byte	.LASF201
 3846 1296 A7120000 		.4byte	0x12a7
 3847 129a 05       		.uleb128 0x5
 3848 129b 03       		.byte	0x3
 3849 129c 00000000 		.4byte	__func__.7957
 3850 12a0 00       		.byte	0
 3851 12a1 0A       		.uleb128 0xa
 3852 12a2 04       		.byte	0x4
 3853 12a3 940D0000 		.4byte	0xd94
 3854 12a7 19       		.uleb128 0x19
 3855 12a8 2A110000 		.4byte	0x112a
 3856 12ac 29       		.uleb128 0x29
 3857 12ad 5B010000 		.4byte	.LASF215
 3858 12b1 0F       		.byte	0xf
 3859 12b2 A706     		.2byte	0x6a7
 3860 12b4 A2000000 		.4byte	0xa2
 3861 12b8 2A       		.uleb128 0x2a
 3862 12b9 636800   		.ascii	"ch\000"
 3863 12bc 05       		.byte	0x5
 3864 12bd 0902     		.2byte	0x209
 3865 12bf 1D040000 		.4byte	0x41d
 3866 12c3 00       		.byte	0
 3867              		.section	.debug_abbrev,"",%progbits
 3868              	.Ldebug_abbrev0:
 3869 0000 01       		.uleb128 0x1
 3870 0001 11       		.uleb128 0x11
 3871 0002 01       		.byte	0x1
 3872 0003 25       		.uleb128 0x25
 3873 0004 0E       		.uleb128 0xe
 3874 0005 13       		.uleb128 0x13
 3875 0006 0B       		.uleb128 0xb
 3876 0007 03       		.uleb128 0x3
 3877 0008 0E       		.uleb128 0xe
 3878 0009 1B       		.uleb128 0x1b
 3879 000a 0E       		.uleb128 0xe
 3880 000b 55       		.uleb128 0x55
 3881 000c 17       		.uleb128 0x17
 3882 000d 11       		.uleb128 0x11
 3883 000e 01       		.uleb128 0x1
 3884 000f 10       		.uleb128 0x10
 3885 0010 17       		.uleb128 0x17
 3886 0011 00       		.byte	0
 3887 0012 00       		.byte	0
 3888 0013 02       		.uleb128 0x2
 3889 0014 24       		.uleb128 0x24
 3890 0015 00       		.byte	0
 3891 0016 0B       		.uleb128 0xb
 3892 0017 0B       		.uleb128 0xb
ARM GAS  C:\Users\Luis\AppData\Local\Temp\cc23RfwK.s 			page 70


 3893 0018 3E       		.uleb128 0x3e
 3894 0019 0B       		.uleb128 0xb
 3895 001a 03       		.uleb128 0x3
 3896 001b 08       		.uleb128 0x8
 3897 001c 00       		.byte	0
 3898 001d 00       		.byte	0
 3899 001e 03       		.uleb128 0x3
 3900 001f 24       		.uleb128 0x24
 3901 0020 00       		.byte	0
 3902 0021 0B       		.uleb128 0xb
 3903 0022 0B       		.uleb128 0xb
 3904 0023 3E       		.uleb128 0x3e
 3905 0024 0B       		.uleb128 0xb
 3906 0025 03       		.uleb128 0x3
 3907 0026 0E       		.uleb128 0xe
 3908 0027 00       		.byte	0
 3909 0028 00       		.byte	0
 3910 0029 04       		.uleb128 0x4
 3911 002a 16       		.uleb128 0x16
 3912 002b 00       		.byte	0
 3913 002c 03       		.uleb128 0x3
 3914 002d 0E       		.uleb128 0xe
 3915 002e 3A       		.uleb128 0x3a
 3916 002f 0B       		.uleb128 0xb
 3917 0030 3B       		.uleb128 0x3b
 3918 0031 0B       		.uleb128 0xb
 3919 0032 49       		.uleb128 0x49
 3920 0033 13       		.uleb128 0x13
 3921 0034 00       		.byte	0
 3922 0035 00       		.byte	0
 3923 0036 05       		.uleb128 0x5
 3924 0037 35       		.uleb128 0x35
 3925 0038 00       		.byte	0
 3926 0039 49       		.uleb128 0x49
 3927 003a 13       		.uleb128 0x13
 3928 003b 00       		.byte	0
 3929 003c 00       		.byte	0
 3930 003d 06       		.uleb128 0x6
 3931 003e 13       		.uleb128 0x13
 3932 003f 01       		.byte	0x1
 3933 0040 03       		.uleb128 0x3
 3934 0041 0E       		.uleb128 0xe
 3935 0042 0B       		.uleb128 0xb
 3936 0043 0B       		.uleb128 0xb
 3937 0044 3A       		.uleb128 0x3a
 3938 0045 0B       		.uleb128 0xb
 3939 0046 3B       		.uleb128 0x3b
 3940 0047 0B       		.uleb128 0xb
 3941 0048 01       		.uleb128 0x1
 3942 0049 13       		.uleb128 0x13
 3943 004a 00       		.byte	0
 3944 004b 00       		.byte	0
 3945 004c 07       		.uleb128 0x7
 3946 004d 0D       		.uleb128 0xd
 3947 004e 00       		.byte	0
 3948 004f 03       		.uleb128 0x3
 3949 0050 0E       		.uleb128 0xe
ARM GAS  C:\Users\Luis\AppData\Local\Temp\cc23RfwK.s 			page 71


 3950 0051 3A       		.uleb128 0x3a
 3951 0052 0B       		.uleb128 0xb
 3952 0053 3B       		.uleb128 0x3b
 3953 0054 0B       		.uleb128 0xb
 3954 0055 49       		.uleb128 0x49
 3955 0056 13       		.uleb128 0x13
 3956 0057 38       		.uleb128 0x38
 3957 0058 0B       		.uleb128 0xb
 3958 0059 00       		.byte	0
 3959 005a 00       		.byte	0
 3960 005b 08       		.uleb128 0x8
 3961 005c 0D       		.uleb128 0xd
 3962 005d 00       		.byte	0
 3963 005e 03       		.uleb128 0x3
 3964 005f 08       		.uleb128 0x8
 3965 0060 3A       		.uleb128 0x3a
 3966 0061 0B       		.uleb128 0xb
 3967 0062 3B       		.uleb128 0x3b
 3968 0063 05       		.uleb128 0x5
 3969 0064 49       		.uleb128 0x49
 3970 0065 13       		.uleb128 0x13
 3971 0066 38       		.uleb128 0x38
 3972 0067 0B       		.uleb128 0xb
 3973 0068 00       		.byte	0
 3974 0069 00       		.byte	0
 3975 006a 09       		.uleb128 0x9
 3976 006b 0D       		.uleb128 0xd
 3977 006c 00       		.byte	0
 3978 006d 03       		.uleb128 0x3
 3979 006e 0E       		.uleb128 0xe
 3980 006f 3A       		.uleb128 0x3a
 3981 0070 0B       		.uleb128 0xb
 3982 0071 3B       		.uleb128 0x3b
 3983 0072 05       		.uleb128 0x5
 3984 0073 49       		.uleb128 0x49
 3985 0074 13       		.uleb128 0x13
 3986 0075 38       		.uleb128 0x38
 3987 0076 0B       		.uleb128 0xb
 3988 0077 00       		.byte	0
 3989 0078 00       		.byte	0
 3990 0079 0A       		.uleb128 0xa
 3991 007a 0F       		.uleb128 0xf
 3992 007b 00       		.byte	0
 3993 007c 0B       		.uleb128 0xb
 3994 007d 0B       		.uleb128 0xb
 3995 007e 49       		.uleb128 0x49
 3996 007f 13       		.uleb128 0x13
 3997 0080 00       		.byte	0
 3998 0081 00       		.byte	0
 3999 0082 0B       		.uleb128 0xb
 4000 0083 13       		.uleb128 0x13
 4001 0084 01       		.byte	0x1
 4002 0085 03       		.uleb128 0x3
 4003 0086 0E       		.uleb128 0xe
 4004 0087 0B       		.uleb128 0xb
 4005 0088 0B       		.uleb128 0xb
 4006 0089 3A       		.uleb128 0x3a
ARM GAS  C:\Users\Luis\AppData\Local\Temp\cc23RfwK.s 			page 72


 4007 008a 0B       		.uleb128 0xb
 4008 008b 3B       		.uleb128 0x3b
 4009 008c 05       		.uleb128 0x5
 4010 008d 01       		.uleb128 0x1
 4011 008e 13       		.uleb128 0x13
 4012 008f 00       		.byte	0
 4013 0090 00       		.byte	0
 4014 0091 0C       		.uleb128 0xc
 4015 0092 15       		.uleb128 0x15
 4016 0093 01       		.byte	0x1
 4017 0094 27       		.uleb128 0x27
 4018 0095 19       		.uleb128 0x19
 4019 0096 01       		.uleb128 0x1
 4020 0097 13       		.uleb128 0x13
 4021 0098 00       		.byte	0
 4022 0099 00       		.byte	0
 4023 009a 0D       		.uleb128 0xd
 4024 009b 05       		.uleb128 0x5
 4025 009c 00       		.byte	0
 4026 009d 49       		.uleb128 0x49
 4027 009e 13       		.uleb128 0x13
 4028 009f 00       		.byte	0
 4029 00a0 00       		.byte	0
 4030 00a1 0E       		.uleb128 0xe
 4031 00a2 0F       		.uleb128 0xf
 4032 00a3 00       		.byte	0
 4033 00a4 0B       		.uleb128 0xb
 4034 00a5 0B       		.uleb128 0xb
 4035 00a6 00       		.byte	0
 4036 00a7 00       		.byte	0
 4037 00a8 0F       		.uleb128 0xf
 4038 00a9 13       		.uleb128 0x13
 4039 00aa 01       		.byte	0x1
 4040 00ab 03       		.uleb128 0x3
 4041 00ac 0E       		.uleb128 0xe
 4042 00ad 0B       		.uleb128 0xb
 4043 00ae 05       		.uleb128 0x5
 4044 00af 3A       		.uleb128 0x3a
 4045 00b0 0B       		.uleb128 0xb
 4046 00b1 3B       		.uleb128 0x3b
 4047 00b2 05       		.uleb128 0x5
 4048 00b3 01       		.uleb128 0x1
 4049 00b4 13       		.uleb128 0x13
 4050 00b5 00       		.byte	0
 4051 00b6 00       		.byte	0
 4052 00b7 10       		.uleb128 0x10
 4053 00b8 0D       		.uleb128 0xd
 4054 00b9 00       		.byte	0
 4055 00ba 03       		.uleb128 0x3
 4056 00bb 0E       		.uleb128 0xe
 4057 00bc 3A       		.uleb128 0x3a
 4058 00bd 0B       		.uleb128 0xb
 4059 00be 3B       		.uleb128 0x3b
 4060 00bf 05       		.uleb128 0x5
 4061 00c0 49       		.uleb128 0x49
 4062 00c1 13       		.uleb128 0x13
 4063 00c2 38       		.uleb128 0x38
ARM GAS  C:\Users\Luis\AppData\Local\Temp\cc23RfwK.s 			page 73


 4064 00c3 05       		.uleb128 0x5
 4065 00c4 00       		.byte	0
 4066 00c5 00       		.byte	0
 4067 00c6 11       		.uleb128 0x11
 4068 00c7 0D       		.uleb128 0xd
 4069 00c8 00       		.byte	0
 4070 00c9 03       		.uleb128 0x3
 4071 00ca 08       		.uleb128 0x8
 4072 00cb 3A       		.uleb128 0x3a
 4073 00cc 0B       		.uleb128 0xb
 4074 00cd 3B       		.uleb128 0x3b
 4075 00ce 05       		.uleb128 0x5
 4076 00cf 49       		.uleb128 0x49
 4077 00d0 13       		.uleb128 0x13
 4078 00d1 38       		.uleb128 0x38
 4079 00d2 05       		.uleb128 0x5
 4080 00d3 00       		.byte	0
 4081 00d4 00       		.byte	0
 4082 00d5 12       		.uleb128 0x12
 4083 00d6 01       		.uleb128 0x1
 4084 00d7 01       		.byte	0x1
 4085 00d8 49       		.uleb128 0x49
 4086 00d9 13       		.uleb128 0x13
 4087 00da 01       		.uleb128 0x1
 4088 00db 13       		.uleb128 0x13
 4089 00dc 00       		.byte	0
 4090 00dd 00       		.byte	0
 4091 00de 13       		.uleb128 0x13
 4092 00df 21       		.uleb128 0x21
 4093 00e0 00       		.byte	0
 4094 00e1 49       		.uleb128 0x49
 4095 00e2 13       		.uleb128 0x13
 4096 00e3 2F       		.uleb128 0x2f
 4097 00e4 0B       		.uleb128 0xb
 4098 00e5 00       		.byte	0
 4099 00e6 00       		.byte	0
 4100 00e7 14       		.uleb128 0x14
 4101 00e8 0D       		.uleb128 0xd
 4102 00e9 00       		.byte	0
 4103 00ea 03       		.uleb128 0x3
 4104 00eb 08       		.uleb128 0x8
 4105 00ec 3A       		.uleb128 0x3a
 4106 00ed 0B       		.uleb128 0xb
 4107 00ee 3B       		.uleb128 0x3b
 4108 00ef 0B       		.uleb128 0xb
 4109 00f0 49       		.uleb128 0x49
 4110 00f1 13       		.uleb128 0x13
 4111 00f2 38       		.uleb128 0x38
 4112 00f3 0B       		.uleb128 0xb
 4113 00f4 00       		.byte	0
 4114 00f5 00       		.byte	0
 4115 00f6 15       		.uleb128 0x15
 4116 00f7 13       		.uleb128 0x13
 4117 00f8 01       		.byte	0x1
 4118 00f9 0B       		.uleb128 0xb
 4119 00fa 0B       		.uleb128 0xb
 4120 00fb 3A       		.uleb128 0x3a
ARM GAS  C:\Users\Luis\AppData\Local\Temp\cc23RfwK.s 			page 74


 4121 00fc 0B       		.uleb128 0xb
 4122 00fd 3B       		.uleb128 0x3b
 4123 00fe 0B       		.uleb128 0xb
 4124 00ff 01       		.uleb128 0x1
 4125 0100 13       		.uleb128 0x13
 4126 0101 00       		.byte	0
 4127 0102 00       		.byte	0
 4128 0103 16       		.uleb128 0x16
 4129 0104 13       		.uleb128 0x13
 4130 0105 01       		.byte	0x1
 4131 0106 0B       		.uleb128 0xb
 4132 0107 05       		.uleb128 0x5
 4133 0108 3A       		.uleb128 0x3a
 4134 0109 0B       		.uleb128 0xb
 4135 010a 3B       		.uleb128 0x3b
 4136 010b 0B       		.uleb128 0xb
 4137 010c 01       		.uleb128 0x1
 4138 010d 13       		.uleb128 0x13
 4139 010e 00       		.byte	0
 4140 010f 00       		.byte	0
 4141 0110 17       		.uleb128 0x17
 4142 0111 17       		.uleb128 0x17
 4143 0112 01       		.byte	0x1
 4144 0113 0B       		.uleb128 0xb
 4145 0114 0B       		.uleb128 0xb
 4146 0115 3A       		.uleb128 0x3a
 4147 0116 0B       		.uleb128 0xb
 4148 0117 3B       		.uleb128 0x3b
 4149 0118 0B       		.uleb128 0xb
 4150 0119 01       		.uleb128 0x1
 4151 011a 13       		.uleb128 0x13
 4152 011b 00       		.byte	0
 4153 011c 00       		.byte	0
 4154 011d 18       		.uleb128 0x18
 4155 011e 0D       		.uleb128 0xd
 4156 011f 00       		.byte	0
 4157 0120 03       		.uleb128 0x3
 4158 0121 0E       		.uleb128 0xe
 4159 0122 3A       		.uleb128 0x3a
 4160 0123 0B       		.uleb128 0xb
 4161 0124 3B       		.uleb128 0x3b
 4162 0125 05       		.uleb128 0x5
 4163 0126 49       		.uleb128 0x49
 4164 0127 13       		.uleb128 0x13
 4165 0128 00       		.byte	0
 4166 0129 00       		.byte	0
 4167 012a 19       		.uleb128 0x19
 4168 012b 26       		.uleb128 0x26
 4169 012c 00       		.byte	0
 4170 012d 49       		.uleb128 0x49
 4171 012e 13       		.uleb128 0x13
 4172 012f 00       		.byte	0
 4173 0130 00       		.byte	0
 4174 0131 1A       		.uleb128 0x1a
 4175 0132 04       		.uleb128 0x4
 4176 0133 01       		.byte	0x1
 4177 0134 0B       		.uleb128 0xb
ARM GAS  C:\Users\Luis\AppData\Local\Temp\cc23RfwK.s 			page 75


 4178 0135 0B       		.uleb128 0xb
 4179 0136 3A       		.uleb128 0x3a
 4180 0137 0B       		.uleb128 0xb
 4181 0138 3B       		.uleb128 0x3b
 4182 0139 0B       		.uleb128 0xb
 4183 013a 01       		.uleb128 0x1
 4184 013b 13       		.uleb128 0x13
 4185 013c 00       		.byte	0
 4186 013d 00       		.byte	0
 4187 013e 1B       		.uleb128 0x1b
 4188 013f 28       		.uleb128 0x28
 4189 0140 00       		.byte	0
 4190 0141 03       		.uleb128 0x3
 4191 0142 0E       		.uleb128 0xe
 4192 0143 1C       		.uleb128 0x1c
 4193 0144 0D       		.uleb128 0xd
 4194 0145 00       		.byte	0
 4195 0146 00       		.byte	0
 4196 0147 1C       		.uleb128 0x1c
 4197 0148 15       		.uleb128 0x15
 4198 0149 01       		.byte	0x1
 4199 014a 27       		.uleb128 0x27
 4200 014b 19       		.uleb128 0x19
 4201 014c 49       		.uleb128 0x49
 4202 014d 13       		.uleb128 0x13
 4203 014e 01       		.uleb128 0x1
 4204 014f 13       		.uleb128 0x13
 4205 0150 00       		.byte	0
 4206 0151 00       		.byte	0
 4207 0152 1D       		.uleb128 0x1d
 4208 0153 13       		.uleb128 0x13
 4209 0154 01       		.byte	0x1
 4210 0155 0B       		.uleb128 0xb
 4211 0156 0B       		.uleb128 0xb
 4212 0157 3A       		.uleb128 0x3a
 4213 0158 0B       		.uleb128 0xb
 4214 0159 3B       		.uleb128 0x3b
 4215 015a 05       		.uleb128 0x5
 4216 015b 01       		.uleb128 0x1
 4217 015c 13       		.uleb128 0x13
 4218 015d 00       		.byte	0
 4219 015e 00       		.byte	0
 4220 015f 1E       		.uleb128 0x1e
 4221 0160 16       		.uleb128 0x16
 4222 0161 00       		.byte	0
 4223 0162 03       		.uleb128 0x3
 4224 0163 0E       		.uleb128 0xe
 4225 0164 3A       		.uleb128 0x3a
 4226 0165 0B       		.uleb128 0xb
 4227 0166 3B       		.uleb128 0x3b
 4228 0167 05       		.uleb128 0x5
 4229 0168 49       		.uleb128 0x49
 4230 0169 13       		.uleb128 0x13
 4231 016a 00       		.byte	0
 4232 016b 00       		.byte	0
 4233 016c 1F       		.uleb128 0x1f
 4234 016d 2E       		.uleb128 0x2e
ARM GAS  C:\Users\Luis\AppData\Local\Temp\cc23RfwK.s 			page 76


 4235 016e 01       		.byte	0x1
 4236 016f 3F       		.uleb128 0x3f
 4237 0170 19       		.uleb128 0x19
 4238 0171 03       		.uleb128 0x3
 4239 0172 0E       		.uleb128 0xe
 4240 0173 3A       		.uleb128 0x3a
 4241 0174 0B       		.uleb128 0xb
 4242 0175 3B       		.uleb128 0x3b
 4243 0176 0B       		.uleb128 0xb
 4244 0177 27       		.uleb128 0x27
 4245 0178 19       		.uleb128 0x19
 4246 0179 49       		.uleb128 0x49
 4247 017a 13       		.uleb128 0x13
 4248 017b 11       		.uleb128 0x11
 4249 017c 01       		.uleb128 0x1
 4250 017d 12       		.uleb128 0x12
 4251 017e 06       		.uleb128 0x6
 4252 017f 40       		.uleb128 0x40
 4253 0180 18       		.uleb128 0x18
 4254 0181 9642     		.uleb128 0x2116
 4255 0183 19       		.uleb128 0x19
 4256 0184 01       		.uleb128 0x1
 4257 0185 13       		.uleb128 0x13
 4258 0186 00       		.byte	0
 4259 0187 00       		.byte	0
 4260 0188 20       		.uleb128 0x20
 4261 0189 05       		.uleb128 0x5
 4262 018a 00       		.byte	0
 4263 018b 03       		.uleb128 0x3
 4264 018c 0E       		.uleb128 0xe
 4265 018d 3A       		.uleb128 0x3a
 4266 018e 0B       		.uleb128 0xb
 4267 018f 3B       		.uleb128 0x3b
 4268 0190 0B       		.uleb128 0xb
 4269 0191 49       		.uleb128 0x49
 4270 0192 13       		.uleb128 0x13
 4271 0193 02       		.uleb128 0x2
 4272 0194 18       		.uleb128 0x18
 4273 0195 00       		.byte	0
 4274 0196 00       		.byte	0
 4275 0197 21       		.uleb128 0x21
 4276 0198 05       		.uleb128 0x5
 4277 0199 00       		.byte	0
 4278 019a 03       		.uleb128 0x3
 4279 019b 08       		.uleb128 0x8
 4280 019c 3A       		.uleb128 0x3a
 4281 019d 0B       		.uleb128 0xb
 4282 019e 3B       		.uleb128 0x3b
 4283 019f 0B       		.uleb128 0xb
 4284 01a0 49       		.uleb128 0x49
 4285 01a1 13       		.uleb128 0x13
 4286 01a2 02       		.uleb128 0x2
 4287 01a3 18       		.uleb128 0x18
 4288 01a4 00       		.byte	0
 4289 01a5 00       		.byte	0
 4290 01a6 22       		.uleb128 0x22
 4291 01a7 34       		.uleb128 0x34
ARM GAS  C:\Users\Luis\AppData\Local\Temp\cc23RfwK.s 			page 77


 4292 01a8 00       		.byte	0
 4293 01a9 03       		.uleb128 0x3
 4294 01aa 0E       		.uleb128 0xe
 4295 01ab 3A       		.uleb128 0x3a
 4296 01ac 0B       		.uleb128 0xb
 4297 01ad 3B       		.uleb128 0x3b
 4298 01ae 0B       		.uleb128 0xb
 4299 01af 49       		.uleb128 0x49
 4300 01b0 13       		.uleb128 0x13
 4301 01b1 02       		.uleb128 0x2
 4302 01b2 18       		.uleb128 0x18
 4303 01b3 00       		.byte	0
 4304 01b4 00       		.byte	0
 4305 01b5 23       		.uleb128 0x23
 4306 01b6 34       		.uleb128 0x34
 4307 01b7 00       		.byte	0
 4308 01b8 03       		.uleb128 0x3
 4309 01b9 0E       		.uleb128 0xe
 4310 01ba 49       		.uleb128 0x49
 4311 01bb 13       		.uleb128 0x13
 4312 01bc 34       		.uleb128 0x34
 4313 01bd 19       		.uleb128 0x19
 4314 01be 02       		.uleb128 0x2
 4315 01bf 18       		.uleb128 0x18
 4316 01c0 00       		.byte	0
 4317 01c1 00       		.byte	0
 4318 01c2 24       		.uleb128 0x24
 4319 01c3 34       		.uleb128 0x34
 4320 01c4 00       		.byte	0
 4321 01c5 03       		.uleb128 0x3
 4322 01c6 08       		.uleb128 0x8
 4323 01c7 3A       		.uleb128 0x3a
 4324 01c8 0B       		.uleb128 0xb
 4325 01c9 3B       		.uleb128 0x3b
 4326 01ca 0B       		.uleb128 0xb
 4327 01cb 49       		.uleb128 0x49
 4328 01cc 13       		.uleb128 0x13
 4329 01cd 02       		.uleb128 0x2
 4330 01ce 18       		.uleb128 0x18
 4331 01cf 00       		.byte	0
 4332 01d0 00       		.byte	0
 4333 01d1 25       		.uleb128 0x25
 4334 01d2 2E       		.uleb128 0x2e
 4335 01d3 01       		.byte	0x1
 4336 01d4 3F       		.uleb128 0x3f
 4337 01d5 19       		.uleb128 0x19
 4338 01d6 03       		.uleb128 0x3
 4339 01d7 0E       		.uleb128 0xe
 4340 01d8 3A       		.uleb128 0x3a
 4341 01d9 0B       		.uleb128 0xb
 4342 01da 3B       		.uleb128 0x3b
 4343 01db 0B       		.uleb128 0xb
 4344 01dc 27       		.uleb128 0x27
 4345 01dd 19       		.uleb128 0x19
 4346 01de 11       		.uleb128 0x11
 4347 01df 01       		.uleb128 0x1
 4348 01e0 12       		.uleb128 0x12
ARM GAS  C:\Users\Luis\AppData\Local\Temp\cc23RfwK.s 			page 78


 4349 01e1 06       		.uleb128 0x6
 4350 01e2 40       		.uleb128 0x40
 4351 01e3 18       		.uleb128 0x18
 4352 01e4 9642     		.uleb128 0x2116
 4353 01e6 19       		.uleb128 0x19
 4354 01e7 01       		.uleb128 0x1
 4355 01e8 13       		.uleb128 0x13
 4356 01e9 00       		.byte	0
 4357 01ea 00       		.byte	0
 4358 01eb 26       		.uleb128 0x26
 4359 01ec 34       		.uleb128 0x34
 4360 01ed 00       		.byte	0
 4361 01ee 03       		.uleb128 0x3
 4362 01ef 08       		.uleb128 0x8
 4363 01f0 3A       		.uleb128 0x3a
 4364 01f1 0B       		.uleb128 0xb
 4365 01f2 3B       		.uleb128 0x3b
 4366 01f3 05       		.uleb128 0x5
 4367 01f4 49       		.uleb128 0x49
 4368 01f5 13       		.uleb128 0x13
 4369 01f6 02       		.uleb128 0x2
 4370 01f7 18       		.uleb128 0x18
 4371 01f8 00       		.byte	0
 4372 01f9 00       		.byte	0
 4373 01fa 27       		.uleb128 0x27
 4374 01fb 2E       		.uleb128 0x2e
 4375 01fc 01       		.byte	0x1
 4376 01fd 3F       		.uleb128 0x3f
 4377 01fe 19       		.uleb128 0x19
 4378 01ff 03       		.uleb128 0x3
 4379 0200 0E       		.uleb128 0xe
 4380 0201 3A       		.uleb128 0x3a
 4381 0202 0B       		.uleb128 0xb
 4382 0203 3B       		.uleb128 0x3b
 4383 0204 05       		.uleb128 0x5
 4384 0205 27       		.uleb128 0x27
 4385 0206 19       		.uleb128 0x19
 4386 0207 11       		.uleb128 0x11
 4387 0208 01       		.uleb128 0x1
 4388 0209 12       		.uleb128 0x12
 4389 020a 06       		.uleb128 0x6
 4390 020b 40       		.uleb128 0x40
 4391 020c 18       		.uleb128 0x18
 4392 020d 9642     		.uleb128 0x2116
 4393 020f 19       		.uleb128 0x19
 4394 0210 01       		.uleb128 0x1
 4395 0211 13       		.uleb128 0x13
 4396 0212 00       		.byte	0
 4397 0213 00       		.byte	0
 4398 0214 28       		.uleb128 0x28
 4399 0215 05       		.uleb128 0x5
 4400 0216 00       		.byte	0
 4401 0217 03       		.uleb128 0x3
 4402 0218 0E       		.uleb128 0xe
 4403 0219 3A       		.uleb128 0x3a
 4404 021a 0B       		.uleb128 0xb
 4405 021b 3B       		.uleb128 0x3b
ARM GAS  C:\Users\Luis\AppData\Local\Temp\cc23RfwK.s 			page 79


 4406 021c 05       		.uleb128 0x5
 4407 021d 49       		.uleb128 0x49
 4408 021e 13       		.uleb128 0x13
 4409 021f 02       		.uleb128 0x2
 4410 0220 18       		.uleb128 0x18
 4411 0221 00       		.byte	0
 4412 0222 00       		.byte	0
 4413 0223 29       		.uleb128 0x29
 4414 0224 34       		.uleb128 0x34
 4415 0225 00       		.byte	0
 4416 0226 03       		.uleb128 0x3
 4417 0227 0E       		.uleb128 0xe
 4418 0228 3A       		.uleb128 0x3a
 4419 0229 0B       		.uleb128 0xb
 4420 022a 3B       		.uleb128 0x3b
 4421 022b 05       		.uleb128 0x5
 4422 022c 49       		.uleb128 0x49
 4423 022d 13       		.uleb128 0x13
 4424 022e 3F       		.uleb128 0x3f
 4425 022f 19       		.uleb128 0x19
 4426 0230 3C       		.uleb128 0x3c
 4427 0231 19       		.uleb128 0x19
 4428 0232 00       		.byte	0
 4429 0233 00       		.byte	0
 4430 0234 2A       		.uleb128 0x2a
 4431 0235 34       		.uleb128 0x34
 4432 0236 00       		.byte	0
 4433 0237 03       		.uleb128 0x3
 4434 0238 08       		.uleb128 0x8
 4435 0239 3A       		.uleb128 0x3a
 4436 023a 0B       		.uleb128 0xb
 4437 023b 3B       		.uleb128 0x3b
 4438 023c 05       		.uleb128 0x5
 4439 023d 49       		.uleb128 0x49
 4440 023e 13       		.uleb128 0x13
 4441 023f 3F       		.uleb128 0x3f
 4442 0240 19       		.uleb128 0x19
 4443 0241 3C       		.uleb128 0x3c
 4444 0242 19       		.uleb128 0x19
 4445 0243 00       		.byte	0
 4446 0244 00       		.byte	0
 4447 0245 00       		.byte	0
 4448              		.section	.debug_aranges,"",%progbits
 4449 0000 54000000 		.4byte	0x54
 4450 0004 0200     		.2byte	0x2
 4451 0006 00000000 		.4byte	.Ldebug_info0
 4452 000a 04       		.byte	0x4
 4453 000b 00       		.byte	0
 4454 000c 0000     		.2byte	0
 4455 000e 0000     		.2byte	0
 4456 0010 00000000 		.4byte	.LFB260
 4457 0014 9C000000 		.4byte	.LFE260-.LFB260
 4458 0018 00000000 		.4byte	.LFB261
 4459 001c 84000000 		.4byte	.LFE261-.LFB261
 4460 0020 00000000 		.4byte	.LFB262
 4461 0024 44000000 		.4byte	.LFE262-.LFB262
 4462 0028 00000000 		.4byte	.LFB263
ARM GAS  C:\Users\Luis\AppData\Local\Temp\cc23RfwK.s 			page 80


 4463 002c 1C010000 		.4byte	.LFE263-.LFB263
 4464 0030 00000000 		.4byte	.LFB264
 4465 0034 2C010000 		.4byte	.LFE264-.LFB264
 4466 0038 00000000 		.4byte	.LFB265
 4467 003c 64020000 		.4byte	.LFE265-.LFB265
 4468 0040 00000000 		.4byte	.LFB266
 4469 0044 E8010000 		.4byte	.LFE266-.LFB266
 4470 0048 00000000 		.4byte	.LFB267
 4471 004c D4010000 		.4byte	.LFE267-.LFB267
 4472 0050 00000000 		.4byte	0
 4473 0054 00000000 		.4byte	0
 4474              		.section	.debug_ranges,"",%progbits
 4475              	.Ldebug_ranges0:
 4476 0000 00000000 		.4byte	.LFB260
 4477 0004 9C000000 		.4byte	.LFE260
 4478 0008 00000000 		.4byte	.LFB261
 4479 000c 84000000 		.4byte	.LFE261
 4480 0010 00000000 		.4byte	.LFB262
 4481 0014 44000000 		.4byte	.LFE262
 4482 0018 00000000 		.4byte	.LFB263
 4483 001c 1C010000 		.4byte	.LFE263
 4484 0020 00000000 		.4byte	.LFB264
 4485 0024 2C010000 		.4byte	.LFE264
 4486 0028 00000000 		.4byte	.LFB265
 4487 002c 64020000 		.4byte	.LFE265
 4488 0030 00000000 		.4byte	.LFB266
 4489 0034 E8010000 		.4byte	.LFE266
 4490 0038 00000000 		.4byte	.LFB267
 4491 003c D4010000 		.4byte	.LFE267
 4492 0040 00000000 		.4byte	0
 4493 0044 00000000 		.4byte	0
 4494              		.section	.debug_line,"",%progbits
 4495              	.Ldebug_line0:
 4496 0000 35030000 		.section	.debug_str,"MS",%progbits,1
 4496      0200C801 
 4496      00000201 
 4496      FB0E0D00 
 4496      01010101 
 4497              	.LASF138:
 4498 0000 426C6F63 		.ascii	"BlockDeviceInfo\000"
 4498      6B446576 
 4498      69636549 
 4498      6E666F00 
 4499              	.LASF150:
 4500 0010 63617061 		.ascii	"capacity\000"
 4500      63697479 
 4500      00
 4501              	.LASF95:
 4502 0019 74625F70 		.ascii	"tb_ptr\000"
 4502      747200
 4503              	.LASF207:
 4504 0020 5F6D6D63 		.ascii	"_mmcsd_unpack_mmc_cid\000"
 4504      73645F75 
 4504      6E706163 
 4504      6B5F6D6D 
 4504      635F6369 
 4505              	.LASF52:
ARM GAS  C:\Users\Luis\AppData\Local\Temp\cc23RfwK.s 			page 81


 4506 0036 72656164 		.ascii	"ready_list_t\000"
 4506      795F6C69 
 4506      73745F74 
 4506      00
 4507              	.LASF198:
 4508 0043 656E646D 		.ascii	"endmask\000"
 4508      61736B00 
 4509              	.LASF113:
 4510 004b 77747472 		.ascii	"wttrp\000"
 4510      7000
 4511              	.LASF137:
 4512 0051 626C6B5F 		.ascii	"blk_num\000"
 4512      6E756D00 
 4513              	.LASF110:
 4514 0059 7264796D 		.ascii	"rdymsg\000"
 4514      736700
 4515              	.LASF12:
 4516 0060 75696E74 		.ascii	"uint64_t\000"
 4516      36345F74 
 4516      00
 4517              	.LASF142:
 4518 0069 69735F70 		.ascii	"is_protected\000"
 4518      726F7465 
 4518      63746564 
 4518      00
 4519              	.LASF88:
 4520 0076 706F7274 		.ascii	"port_intctx\000"
 4520      5F696E74 
 4520      63747800 
 4521              	.LASF51:
 4522 0082 63685F74 		.ascii	"ch_threads_queue\000"
 4522      68726561 
 4522      64735F71 
 4522      75657565 
 4522      00
 4523              	.LASF71:
 4524 0093 73797374 		.ascii	"system_debug_t\000"
 4524      656D5F64 
 4524      65627567 
 4524      5F7400
 4525              	.LASF101:
 4526 00a2 776F7273 		.ascii	"worst\000"
 4526      7400
 4527              	.LASF205:
 4528 00a8 63696473 		.ascii	"cidsdc\000"
 4528      646300
 4529              	.LASF104:
 4530 00af 74696D65 		.ascii	"time_measurement_t\000"
 4530      5F6D6561 
 4530      73757265 
 4530      6D656E74 
 4530      5F7400
 4531              	.LASF93:
 4532 00c2 63685F73 		.ascii	"ch_swc_event_t\000"
 4532      77635F65 
 4532      76656E74 
 4532      5F7400
ARM GAS  C:\Users\Luis\AppData\Local\Temp\cc23RfwK.s 			page 82


 4533              	.LASF13:
 4534 00d1 6C6F6E67 		.ascii	"long long unsigned int\000"
 4534      206C6F6E 
 4534      6720756E 
 4534      7369676E 
 4534      65642069 
 4535              	.LASF97:
 4536 00e8 63685F74 		.ascii	"ch_trace_buffer_t\000"
 4536      72616365 
 4536      5F627566 
 4536      6665725F 
 4536      7400
 4537              	.LASF206:
 4538 00fa 5F6D6D63 		.ascii	"_mmcsd_unpack_sdc_cid\000"
 4538      73645F75 
 4538      6E706163 
 4538      6B5F7364 
 4538      635F6369 
 4539              	.LASF156:
 4540 0110 756E7061 		.ascii	"unpacked_sdc_cid_t\000"
 4540      636B6564 
 4540      5F736463 
 4540      5F636964 
 4540      5F7400
 4541              	.LASF92:
 4542 0123 73655F73 		.ascii	"se_state\000"
 4542      74617465 
 4542      00
 4543              	.LASF193:
 4544 012c 64617461 		.ascii	"data\000"
 4544      00
 4545              	.LASF111:
 4546 0131 65786974 		.ascii	"exitcode\000"
 4546      636F6465 
 4546      00
 4547              	.LASF81:
 4548 013a 6D61696E 		.ascii	"mainthread\000"
 4548      74687265 
 4548      616400
 4549              	.LASF68:
 4550 0145 76697274 		.ascii	"virtual_timers_list_t\000"
 4550      75616C5F 
 4550      74696D65 
 4550      72735F6C 
 4550      6973745F 
 4551              	.LASF215:
 4552 015b 49544D5F 		.ascii	"ITM_RxBuffer\000"
 4552      52784275 
 4552      66666572 
 4552      00
 4553              	.LASF135:
 4554 0168 626C6B73 		.ascii	"blkstate_t\000"
 4554      74617465 
 4554      5F7400
 4555              	.LASF15:
 4556 0173 72747469 		.ascii	"rttime_t\000"
 4556      6D655F74 
ARM GAS  C:\Users\Luis\AppData\Local\Temp\cc23RfwK.s 			page 83


 4556      00
 4557              	.LASF177:
 4558 017c 7232775F 		.ascii	"r2w_factor\000"
 4558      66616374 
 4558      6F7200
 4559              	.LASF28:
 4560 0187 705F7072 		.ascii	"p_prio\000"
 4560      696F00
 4561              	.LASF11:
 4562 018e 6C6F6E67 		.ascii	"long long int\000"
 4562      206C6F6E 
 4562      6720696E 
 4562      7400
 4563              	.LASF1:
 4564 019c 7369676E 		.ascii	"signed char\000"
 4564      65642063 
 4564      68617200 
 4565              	.LASF169:
 4566 01a8 7664645F 		.ascii	"vdd_r_curr_max\000"
 4566      725F6375 
 4566      72725F6D 
 4566      617800
 4567              	.LASF89:
 4568 01b7 73655F74 		.ascii	"se_time\000"
 4568      696D6500 
 4569              	.LASF200:
 4570 01bf 5F6D6D63 		.ascii	"_mmcsd_get_capacity\000"
 4570      73645F67 
 4570      65745F63 
 4570      61706163 
 4570      69747900 
 4571              	.LASF43:
 4572 01d3 705F6D70 		.ascii	"p_mpool\000"
 4572      6F6F6C00 
 4573              	.LASF121:
 4574 01db 6D5F7175 		.ascii	"m_queue\000"
 4574      65756500 
 4575              	.LASF144:
 4576 01e3 64697363 		.ascii	"disconnect\000"
 4576      6F6E6E65 
 4576      637400
 4577              	.LASF80:
 4578 01ee 76746C69 		.ascii	"vtlist\000"
 4578      737400
 4579              	.LASF218:
 4580 01f5 433A5C55 		.ascii	"C:\\Users\\Luis\\git\\DSP-Library-Lanin\\examples\\"
 4580      73657273 
 4580      5C4C7569 
 4580      735C6769 
 4580      745C4453 
 4581 0222 4453502D 		.ascii	"DSP-Library\000"
 4581      4C696272 
 4581      61727900 
 4582              	.LASF168:
 4583 022e 7664645F 		.ascii	"vdd_r_curr_min\000"
 4583      725F6375 
 4583      72725F6D 
ARM GAS  C:\Users\Luis\AppData\Local\Temp\cc23RfwK.s 			page 84


 4583      696E00
 4584              	.LASF126:
 4585 023d 424C4B5F 		.ascii	"BLK_UNINIT\000"
 4585      554E494E 
 4585      495400
 4586              	.LASF149:
 4587 0248 73746174 		.ascii	"state\000"
 4587      6500
 4588              	.LASF78:
 4589 024e 63685F73 		.ascii	"ch_system\000"
 4589      79737465 
 4589      6D00
 4590              	.LASF8:
 4591 0258 6C6F6E67 		.ascii	"long int\000"
 4591      20696E74 
 4591      00
 4592              	.LASF17:
 4593 0261 74737461 		.ascii	"tstate_t\000"
 4593      74655F74 
 4593      00
 4594              	.LASF41:
 4595 026a 705F6D74 		.ascii	"p_mtxlist\000"
 4595      786C6973 
 4595      7400
 4596              	.LASF90:
 4597 0274 73655F74 		.ascii	"se_tp\000"
 4597      7000
 4598              	.LASF176:
 4599 027a 77705F67 		.ascii	"wp_grp_enable\000"
 4599      72705F65 
 4599      6E61626C 
 4599      6500
 4600              	.LASF127:
 4601 0288 424C4B5F 		.ascii	"BLK_STOP\000"
 4601      53544F50 
 4601      00
 4602              	.LASF5:
 4603 0291 75696E74 		.ascii	"uint16_t\000"
 4603      31365F74 
 4603      00
 4604              	.LASF190:
 4605 029a 64656661 		.ascii	"default_ecc\000"
 4605      756C745F 
 4605      65636300 
 4606              	.LASF209:
 4607 02a6 5F6D6D63 		.ascii	"_mmcsd_unpack_csd_mmc\000"
 4607      73645F75 
 4607      6E706163 
 4607      6B5F6373 
 4607      645F6D6D 
 4608              	.LASF30:
 4609 02bc 705F6E65 		.ascii	"p_newer\000"
 4609      77657200 
 4610              	.LASF118:
 4611 02c4 735F7175 		.ascii	"s_queue\000"
 4611      65756500 
 4612              	.LASF148:
ARM GAS  C:\Users\Luis\AppData\Local\Temp\cc23RfwK.s 			page 85


 4613 02cc 6765745F 		.ascii	"get_info\000"
 4613      696E666F 
 4613      00
 4614              	.LASF94:
 4615 02d5 74625F73 		.ascii	"tb_size\000"
 4615      697A6500 
 4616              	.LASF57:
 4617 02dd 725F6E65 		.ascii	"r_newer\000"
 4617      77657200 
 4618              	.LASF85:
 4619 02e5 72656761 		.ascii	"regarm_t\000"
 4619      726D5F74 
 4619      00
 4620              	.LASF204:
 4621 02ee 73646370 		.ascii	"sdcp\000"
 4621      00
 4622              	.LASF199:
 4623 02f3 5F6D6D63 		.ascii	"_mmcsd_get_slice\000"
 4623      73645F67 
 4623      65745F73 
 4623      6C696365 
 4623      00
 4624              	.LASF72:
 4625 0304 63685F73 		.ascii	"ch_system_debug\000"
 4625      79737465 
 4625      6D5F6465 
 4625      62756700 
 4626              	.LASF136:
 4627 0314 626C6B5F 		.ascii	"blk_size\000"
 4627      73697A65 
 4627      00
 4628              	.LASF64:
 4629 031d 76745F70 		.ascii	"vt_prev\000"
 4629      72657600 
 4630              	.LASF125:
 4631 0325 6D757465 		.ascii	"mutex_t\000"
 4631      785F7400 
 4632              	.LASF75:
 4633 032d 6C6F636B 		.ascii	"lock_cnt\000"
 4633      5F636E74 
 4633      00
 4634              	.LASF83:
 4635 0336 69646C65 		.ascii	"idle_thread_wa\000"
 4635      5F746872 
 4635      6561645F 
 4635      776100
 4636              	.LASF22:
 4637 0345 636E745F 		.ascii	"cnt_t\000"
 4637      7400
 4638              	.LASF33:
 4639 034b 705F7374 		.ascii	"p_stklimit\000"
 4639      6B6C696D 
 4639      697400
 4640              	.LASF0:
 4641 0356 756E7369 		.ascii	"unsigned int\000"
 4641      676E6564 
 4641      20696E74 
ARM GAS  C:\Users\Luis\AppData\Local\Temp\cc23RfwK.s 			page 86


 4641      00
 4642              	.LASF63:
 4643 0363 76745F6E 		.ascii	"vt_next\000"
 4643      65787400 
 4644              	.LASF114:
 4645 036b 77747365 		.ascii	"wtsemp\000"
 4645      6D7000
 4646              	.LASF187:
 4647 0372 73706563 		.ascii	"spec_vers\000"
 4647      5F766572 
 4647      7300
 4648              	.LASF38:
 4649 037c 705F6D73 		.ascii	"p_msgqueue\000"
 4649      67717565 
 4649      756500
 4650              	.LASF45:
 4651 0387 746C7350 		.ascii	"tlsPtr\000"
 4651      747200
 4652              	.LASF53:
 4653 038e 63685F72 		.ascii	"ch_ready_list\000"
 4653      65616479 
 4653      5F6C6973 
 4653      7400
 4654              	.LASF105:
 4655 039c 6E5F6972 		.ascii	"n_irq\000"
 4655      7100
 4656              	.LASF119:
 4657 03a2 735F636E 		.ascii	"s_cnt\000"
 4657      7400
 4658              	.LASF189:
 4659 03a8 65726173 		.ascii	"erase_grp_mult\000"
 4659      655F6772 
 4659      705F6D75 
 4659      6C7400
 4660              	.LASF6:
 4661 03b7 73686F72 		.ascii	"short unsigned int\000"
 4661      7420756E 
 4661      7369676E 
 4661      65642069 
 4661      6E7400
 4662              	.LASF109:
 4663 03ca 6B65726E 		.ascii	"kernel_stats_t\000"
 4663      656C5F73 
 4663      74617473 
 4663      5F7400
 4664              	.LASF128:
 4665 03d9 424C4B5F 		.ascii	"BLK_ACTIVE\000"
 4665      41435449 
 4665      564500
 4666              	.LASF48:
 4667 03e4 63685F74 		.ascii	"ch_thread\000"
 4667      68726561 
 4667      6400
 4668              	.LASF20:
 4669 03ee 6D73675F 		.ascii	"msg_t\000"
 4669      7400
 4670              	.LASF102:
ARM GAS  C:\Users\Luis\AppData\Local\Temp\cc23RfwK.s 			page 87


 4671 03f4 6C617374 		.ascii	"last\000"
 4671      00
 4672              	.LASF208:
 4673 03f9 6369646D 		.ascii	"cidmmc\000"
 4673      6D6300
 4674              	.LASF23:
 4675 0400 75636E74 		.ascii	"ucnt_t\000"
 4675      5F7400
 4676              	.LASF129:
 4677 0407 424C4B5F 		.ascii	"BLK_CONNECTING\000"
 4677      434F4E4E 
 4677      45435449 
 4677      4E4700
 4678              	.LASF217:
 4679 0416 2E2E2F2E 		.ascii	"../../ChibiOS/os/hal/src/hal_mmcsd.c\000"
 4679      2E2F4368 
 4679      6962694F 
 4679      532F6F73 
 4679      2F68616C 
 4680              	.LASF77:
 4681 043b 63685F73 		.ascii	"ch_system_t\000"
 4681      79737465 
 4681      6D5F7400 
 4682              	.LASF159:
 4683 0447 74616163 		.ascii	"taac\000"
 4683      00
 4684              	.LASF16:
 4685 044c 746D6F64 		.ascii	"tmode_t\000"
 4685      655F7400 
 4686              	.LASF131:
 4687 0454 424C4B5F 		.ascii	"BLK_READY\000"
 4687      52454144 
 4687      5900
 4688              	.LASF108:
 4689 045e 6D5F6372 		.ascii	"m_crit_isr\000"
 4689      69745F69 
 4689      737200
 4690              	.LASF179:
 4691 0469 77726974 		.ascii	"write_bl_partial\000"
 4691      655F626C 
 4691      5F706172 
 4691      7469616C 
 4691      00
 4692              	.LASF21:
 4693 047a 6576656E 		.ascii	"eventmask_t\000"
 4693      746D6173 
 4693      6B5F7400 
 4694              	.LASF165:
 4695 0486 72656164 		.ascii	"read_blk_misalign\000"
 4695      5F626C6B 
 4695      5F6D6973 
 4695      616C6967 
 4695      6E00
 4696              	.LASF86:
 4697 0498 73746B61 		.ascii	"stkalign_t\000"
 4697      6C69676E 
 4697      5F7400
ARM GAS  C:\Users\Luis\AppData\Local\Temp\cc23RfwK.s 			page 88


 4698              	.LASF212:
 4699 04a3 63736431 		.ascii	"csd10\000"
 4699      3000
 4700              	.LASF146:
 4701 04a9 77726974 		.ascii	"write\000"
 4701      6500
 4702              	.LASF184:
 4703 04af 66696C65 		.ascii	"file_format\000"
 4703      5F666F72 
 4703      6D617400 
 4704              	.LASF181:
 4705 04bb 636F7079 		.ascii	"copy\000"
 4705      00
 4706              	.LASF175:
 4707 04c0 77705F67 		.ascii	"wp_grp_size\000"
 4707      72705F73 
 4707      697A6500 
 4708              	.LASF55:
 4709 04cc 725F7072 		.ascii	"r_prio\000"
 4709      696F00
 4710              	.LASF37:
 4711 04d3 705F7761 		.ascii	"p_waiting\000"
 4711      6974696E 
 4711      6700
 4712              	.LASF132:
 4713 04dd 424C4B5F 		.ascii	"BLK_READING\000"
 4713      52454144 
 4713      494E4700 
 4714              	.LASF84:
 4715 04e9 73697A65 		.ascii	"sizetype\000"
 4715      74797065 
 4715      00
 4716              	.LASF46:
 4717 04f2 74687265 		.ascii	"thread_reference_t\000"
 4717      61645F72 
 4717      65666572 
 4717      656E6365 
 4717      5F7400
 4718              	.LASF69:
 4719 0505 63685F76 		.ascii	"ch_virtual_timers_list\000"
 4719      69727475 
 4719      616C5F74 
 4719      696D6572 
 4719      735F6C69 
 4720              	.LASF130:
 4721 051c 424C4B5F 		.ascii	"BLK_DISCONNECTING\000"
 4721      44495343 
 4721      4F4E4E45 
 4721      4354494E 
 4721      4700
 4722              	.LASF195:
 4723 052e 73746172 		.ascii	"startidx\000"
 4723      74696478 
 4723      00
 4724              	.LASF178:
 4725 0537 77726974 		.ascii	"write_bl_len\000"
 4725      655F626C 
ARM GAS  C:\Users\Luis\AppData\Local\Temp\cc23RfwK.s 			page 89


 4725      5F6C656E 
 4725      00
 4726              	.LASF160:
 4727 0544 6E736163 		.ascii	"nsac\000"
 4727      00
 4728              	.LASF70:
 4729 0549 76745F6C 		.ascii	"vt_lasttime\000"
 4729      61737474 
 4729      696D6500 
 4730              	.LASF31:
 4731 0555 705F6F6C 		.ascii	"p_older\000"
 4731      64657200 
 4732              	.LASF202:
 4733 055d 5F6D6D63 		.ascii	"_mmcsd_get_capacity_ext\000"
 4733      73645F67 
 4733      65745F63 
 4733      61706163 
 4733      6974795F 
 4734              	.LASF56:
 4735 0575 725F6374 		.ascii	"r_ctx\000"
 4735      7800
 4736              	.LASF99:
 4737 057b 746D5F63 		.ascii	"tm_calibration_t\000"
 4737      616C6962 
 4737      72617469 
 4737      6F6E5F74 
 4737      00
 4738              	.LASF3:
 4739 058c 73686F72 		.ascii	"short int\000"
 4739      7420696E 
 4739      7400
 4740              	.LASF59:
 4741 0596 725F6375 		.ascii	"r_current\000"
 4741      7272656E 
 4741      7400
 4742              	.LASF58:
 4743 05a0 725F6F6C 		.ascii	"r_older\000"
 4743      64657200 
 4744              	.LASF158:
 4745 05a8 6373645F 		.ascii	"csd_structure\000"
 4745      73747275 
 4745      63747572 
 4745      6500
 4746              	.LASF103:
 4747 05b6 63756D75 		.ascii	"cumulative\000"
 4747      6C617469 
 4747      766500
 4748              	.LASF211:
 4749 05c1 5F6D6D63 		.ascii	"_mmcsd_unpack_csd_v10\000"
 4749      73645F75 
 4749      6E706163 
 4749      6B5F6373 
 4749      645F7631 
 4750              	.LASF186:
 4751 05d7 756E7061 		.ascii	"unpacked_sdc_csd_20_t\000"
 4751      636B6564 
 4751      5F736463 
ARM GAS  C:\Users\Luis\AppData\Local\Temp\cc23RfwK.s 			page 90


 4751      5F637364 
 4751      5F32305F 
 4752              	.LASF214:
 4753 05ed 63736432 		.ascii	"csd20\000"
 4753      3000
 4754              	.LASF18:
 4755 05f3 74726566 		.ascii	"trefs_t\000"
 4755      735F7400 
 4756              	.LASF96:
 4757 05fb 74625F62 		.ascii	"tb_buffer\000"
 4757      75666665 
 4757      7200
 4758              	.LASF203:
 4759 0605 6578745F 		.ascii	"ext_csd\000"
 4759      63736400 
 4760              	.LASF61:
 4761 060d 76697274 		.ascii	"virtual_timer_t\000"
 4761      75616C5F 
 4761      74696D65 
 4761      725F7400 
 4762              	.LASF27:
 4763 061d 705F7072 		.ascii	"p_prev\000"
 4763      657600
 4764              	.LASF196:
 4765 0624 656E6469 		.ascii	"endidx\000"
 4765      647800
 4766              	.LASF19:
 4767 062b 74707269 		.ascii	"tprio_t\000"
 4767      6F5F7400 
 4768              	.LASF192:
 4769 0633 756E7061 		.ascii	"unpacked_mmc_csd_t\000"
 4769      636B6564 
 4769      5F6D6D63 
 4769      5F637364 
 4769      5F7400
 4770              	.LASF157:
 4771 0646 756E7061 		.ascii	"unpacked_mmc_cid_t\000"
 4771      636B6564 
 4771      5F6D6D63 
 4771      5F636964 
 4771      5F7400
 4772              	.LASF166:
 4773 0659 6473725F 		.ascii	"dsr_imp\000"
 4773      696D7000 
 4774              	.LASF106:
 4775 0661 6E5F6374 		.ascii	"n_ctxswc\000"
 4775      78737763 
 4775      00
 4776              	.LASF139:
 4777 066a 5F426F6F 		.ascii	"_Bool\000"
 4777      6C00
 4778              	.LASF7:
 4779 0670 696E7433 		.ascii	"int32_t\000"
 4779      325F7400 
 4780              	.LASF2:
 4781 0678 756E7369 		.ascii	"unsigned char\000"
 4781      676E6564 
ARM GAS  C:\Users\Luis\AppData\Local\Temp\cc23RfwK.s 			page 91


 4781      20636861 
 4781      7200
 4782              	.LASF34:
 4783 0686 705F7374 		.ascii	"p_state\000"
 4783      61746500 
 4784              	.LASF183:
 4785 068e 746D705F 		.ascii	"tmp_write_protect\000"
 4785      77726974 
 4785      655F7072 
 4785      6F746563 
 4785      7400
 4786              	.LASF197:
 4787 06a0 73746172 		.ascii	"startoff\000"
 4787      746F6666 
 4787      00
 4788              	.LASF133:
 4789 06a9 424C4B5F 		.ascii	"BLK_WRITING\000"
 4789      57524954 
 4789      494E4700 
 4790              	.LASF164:
 4791 06b5 77726974 		.ascii	"write_blk_misalign\000"
 4791      655F626C 
 4791      6B5F6D69 
 4791      73616C69 
 4791      676E00
 4792              	.LASF180:
 4793 06c8 66696C65 		.ascii	"file_format_grp\000"
 4793      5F666F72 
 4793      6D61745F 
 4793      67727000 
 4794              	.LASF153:
 4795 06d8 7072765F 		.ascii	"prv_m\000"
 4795      6D00
 4796              	.LASF152:
 4797 06de 7072765F 		.ascii	"prv_n\000"
 4797      6E00
 4798              	.LASF154:
 4799 06e4 6D64745F 		.ascii	"mdt_m\000"
 4799      6D00
 4800              	.LASF116:
 4801 06ea 65776D61 		.ascii	"ewmask\000"
 4801      736B00
 4802              	.LASF26:
 4803 06f1 705F6E65 		.ascii	"p_next\000"
 4803      787400
 4804              	.LASF4:
 4805 06f8 75696E74 		.ascii	"uint8_t\000"
 4805      385F7400 
 4806              	.LASF201:
 4807 0700 5F5F6675 		.ascii	"__func__\000"
 4807      6E635F5F 
 4807      00
 4808              	.LASF44:
 4809 0709 705F7374 		.ascii	"p_stats\000"
 4809      61747300 
 4810              	.LASF163:
 4811 0711 72656164 		.ascii	"read_bl_partial\000"
ARM GAS  C:\Users\Luis\AppData\Local\Temp\cc23RfwK.s 			page 92


 4811      5F626C5F 
 4811      70617274 
 4811      69616C00 
 4812              	.LASF188:
 4813 0721 65726173 		.ascii	"erase_grp_size\000"
 4813      655F6772 
 4813      705F7369 
 4813      7A6500
 4814              	.LASF185:
 4815 0730 756E7061 		.ascii	"unpacked_sdc_csd_10_t\000"
 4815      636B6564 
 4815      5F736463 
 4815      5F637364 
 4815      5F31305F 
 4816              	.LASF62:
 4817 0746 63685F76 		.ascii	"ch_virtual_timer\000"
 4817      69727475 
 4817      616C5F74 
 4817      696D6572 
 4817      00
 4818              	.LASF155:
 4819 0757 6D64745F 		.ascii	"mdt_y\000"
 4819      7900
 4820              	.LASF117:
 4821 075d 63685F73 		.ascii	"ch_semaphore\000"
 4821      656D6170 
 4821      686F7265 
 4821      00
 4822              	.LASF143:
 4823 076a 636F6E6E 		.ascii	"connect\000"
 4823      65637400 
 4824              	.LASF40:
 4825 0772 705F6570 		.ascii	"p_epending\000"
 4825      656E6469 
 4825      6E6700
 4826              	.LASF174:
 4827 077d 65726173 		.ascii	"erase_sector_size\000"
 4827      655F7365 
 4827      63746F72 
 4827      5F73697A 
 4827      6500
 4828              	.LASF140:
 4829 078f 4D4D4353 		.ascii	"MMCSDBlockDeviceVMT\000"
 4829      44426C6F 
 4829      636B4465 
 4829      76696365 
 4829      564D5400 
 4830              	.LASF115:
 4831 07a3 77746D74 		.ascii	"wtmtxp\000"
 4831      787000
 4832              	.LASF54:
 4833 07aa 725F7175 		.ascii	"r_queue\000"
 4833      65756500 
 4834              	.LASF65:
 4835 07b2 76745F64 		.ascii	"vt_delta\000"
 4835      656C7461 
 4835      00
ARM GAS  C:\Users\Luis\AppData\Local\Temp\cc23RfwK.s 			page 93


 4836              	.LASF49:
 4837 07bb 63685F74 		.ascii	"ch_threads_list\000"
 4837      68726561 
 4837      64735F6C 
 4837      69737400 
 4838              	.LASF213:
 4839 07cb 5F6D6D63 		.ascii	"_mmcsd_unpack_csd_v20\000"
 4839      73645F75 
 4839      6E706163 
 4839      6B5F6373 
 4839      645F7632 
 4840              	.LASF151:
 4841 07e1 4D4D4353 		.ascii	"MMCSDBlockDevice\000"
 4841      44426C6F 
 4841      636B4465 
 4841      76696365 
 4841      00
 4842              	.LASF10:
 4843 07f2 6C6F6E67 		.ascii	"long unsigned int\000"
 4843      20756E73 
 4843      69676E65 
 4843      6420696E 
 4843      7400
 4844              	.LASF145:
 4845 0804 72656164 		.ascii	"read\000"
 4845      00
 4846              	.LASF124:
 4847 0809 63686172 		.ascii	"char\000"
 4847      00
 4848              	.LASF172:
 4849 080e 635F7369 		.ascii	"c_size_mult\000"
 4849      7A655F6D 
 4849      756C7400 
 4850              	.LASF210:
 4851 081a 6373646D 		.ascii	"csdmmc\000"
 4851      6D6300
 4852              	.LASF161:
 4853 0821 7472616E 		.ascii	"tran_speed\000"
 4853      5F737065 
 4853      656400
 4854              	.LASF216:
 4855 082c 474E5520 		.ascii	"GNU C 4.8.3 20131129 (release) [ARM/embedded-4_8-br"
 4855      4320342E 
 4855      382E3320 
 4855      32303133 
 4855      31313239 
 4856 085f 616E6368 		.ascii	"anch revision 205641] -mcpu=cortex-m4 -mapcs-frame "
 4856      20726576 
 4856      6973696F 
 4856      6E203230 
 4856      35363431 
 4857 0892 2D6D6E6F 		.ascii	"-mno-thumb-interwork -mthumb -ggdb -O0 -falign-func"
 4857      2D746875 
 4857      6D622D69 
 4857      6E746572 
 4857      776F726B 
 4858 08c5 74696F6E 		.ascii	"tions=16 -ffunction-sections -fdata-sections -fno-c"
ARM GAS  C:\Users\Luis\AppData\Local\Temp\cc23RfwK.s 			page 94


 4858      733D3136 
 4858      202D6666 
 4858      756E6374 
 4858      696F6E2D 
 4859 08f8 6F6D6D6F 		.ascii	"ommon\000"
 4859      6E00
 4860              	.LASF100:
 4861 08fe 62657374 		.ascii	"best\000"
 4861      00
 4862              	.LASF123:
 4863 0903 6D5F6E65 		.ascii	"m_next\000"
 4863      787400
 4864              	.LASF24:
 4865 090a 73797374 		.ascii	"systime_t\000"
 4865      696D655F 
 4865      7400
 4866              	.LASF42:
 4867 0914 705F7265 		.ascii	"p_realprio\000"
 4867      616C7072 
 4867      696F00
 4868              	.LASF60:
 4869 091f 76746675 		.ascii	"vtfunc_t\000"
 4869      6E635F74 
 4869      00
 4870              	.LASF73:
 4871 0928 70616E69 		.ascii	"panic_msg\000"
 4871      635F6D73 
 4871      6700
 4872              	.LASF173:
 4873 0932 65726173 		.ascii	"erase_blk_en\000"
 4873      655F626C 
 4873      6B5F656E 
 4873      00
 4874              	.LASF98:
 4875 093f 6F666673 		.ascii	"offset\000"
 4875      657400
 4876              	.LASF87:
 4877 0946 636F6E74 		.ascii	"context\000"
 4877      65787400 
 4878              	.LASF182:
 4879 094e 7065726D 		.ascii	"perm_write_protect\000"
 4879      5F777269 
 4879      74655F70 
 4879      726F7465 
 4879      637400
 4880              	.LASF14:
 4881 0961 7274636E 		.ascii	"rtcnt_t\000"
 4881      745F7400 
 4882              	.LASF141:
 4883 0969 69735F69 		.ascii	"is_inserted\000"
 4883      6E736572 
 4883      74656400 
 4884              	.LASF167:
 4885 0975 635F7369 		.ascii	"c_size\000"
 4885      7A6500
 4886              	.LASF67:
 4887 097c 76745F70 		.ascii	"vt_par\000"
ARM GAS  C:\Users\Luis\AppData\Local\Temp\cc23RfwK.s 			page 95


 4887      617200
 4888              	.LASF9:
 4889 0983 75696E74 		.ascii	"uint32_t\000"
 4889      33325F74 
 4889      00
 4890              	.LASF171:
 4891 098c 7664645F 		.ascii	"vdd_w_curr_max\000"
 4891      775F6375 
 4891      72725F6D 
 4891      617800
 4892              	.LASF50:
 4893 099b 74687265 		.ascii	"threads_queue_t\000"
 4893      6164735F 
 4893      71756575 
 4893      655F7400 
 4894              	.LASF120:
 4895 09ab 63685F6D 		.ascii	"ch_mutex\000"
 4895      75746578 
 4895      00
 4896              	.LASF36:
 4897 09b4 705F7265 		.ascii	"p_refs\000"
 4897      667300
 4898              	.LASF74:
 4899 09bb 6973725F 		.ascii	"isr_cnt\000"
 4899      636E7400 
 4900              	.LASF134:
 4901 09c3 424C4B5F 		.ascii	"BLK_SYNCING\000"
 4901      53594E43 
 4901      494E4700 
 4902              	.LASF25:
 4903 09cf 74687265 		.ascii	"thread_t\000"
 4903      61645F74 
 4903      00
 4904              	.LASF191:
 4905 09d8 636F6E74 		.ascii	"content_prot_app\000"
 4905      656E745F 
 4905      70726F74 
 4905      5F617070 
 4905      00
 4906              	.LASF162:
 4907 09e9 72656164 		.ascii	"read_bl_len\000"
 4907      5F626C5F 
 4907      6C656E00 
 4908              	.LASF79:
 4909 09f5 726C6973 		.ascii	"rlist\000"
 4909      7400
 4910              	.LASF122:
 4911 09fb 6D5F6F77 		.ascii	"m_owner\000"
 4911      6E657200 
 4912              	.LASF170:
 4913 0a03 7664645F 		.ascii	"vdd_w_curr_min\000"
 4913      775F6375 
 4913      72725F6D 
 4913      696E00
 4914              	.LASF147:
 4915 0a12 73796E63 		.ascii	"sync\000"
 4915      00
ARM GAS  C:\Users\Luis\AppData\Local\Temp\cc23RfwK.s 			page 96


 4916              	.LASF112:
 4917 0a17 77746F62 		.ascii	"wtobjp\000"
 4917      6A7000
 4918              	.LASF32:
 4919 0a1e 705F6E61 		.ascii	"p_name\000"
 4919      6D6500
 4920              	.LASF47:
 4921 0a25 74687265 		.ascii	"threads_list_t\000"
 4921      6164735F 
 4921      6C697374 
 4921      5F7400
 4922              	.LASF82:
 4923 0a34 6B65726E 		.ascii	"kernel_stats\000"
 4923      656C5F73 
 4923      74617473 
 4923      00
 4924              	.LASF76:
 4925 0a41 74726163 		.ascii	"trace_buffer\000"
 4925      655F6275 
 4925      66666572 
 4925      00
 4926              	.LASF35:
 4927 0a4e 705F666C 		.ascii	"p_flags\000"
 4927      61677300 
 4928              	.LASF39:
 4929 0a56 705F6D73 		.ascii	"p_msg\000"
 4929      6700
 4930              	.LASF194:
 4931 0a5c 73746172 		.ascii	"start\000"
 4931      7400
 4932              	.LASF107:
 4933 0a62 6D5F6372 		.ascii	"m_crit_thd\000"
 4933      69745F74 
 4933      686400
 4934              	.LASF91:
 4935 0a6d 73655F77 		.ascii	"se_wtobjp\000"
 4935      746F626A 
 4935      7000
 4936              	.LASF29:
 4937 0a77 705F6374 		.ascii	"p_ctx\000"
 4937      7800
 4938              	.LASF66:
 4939 0a7d 76745F66 		.ascii	"vt_func\000"
 4939      756E6300 
 4940              		.ident	"GCC: (GNU Tools for ARM Embedded Processors) 4.8.3 20131129 (release) [ARM/embedded-4_8-br
ARM GAS  C:\Users\Luis\AppData\Local\Temp\cc23RfwK.s 			page 97


DEFINED SYMBOLS
                            *ABS*:00000000 hal_mmcsd.c
C:\Users\Luis\AppData\Local\Temp\cc23RfwK.s:19     .text._mmcsd_get_slice:00000000 $t
C:\Users\Luis\AppData\Local\Temp\cc23RfwK.s:25     .text._mmcsd_get_slice:00000000 _mmcsd_get_slice
C:\Users\Luis\AppData\Local\Temp\cc23RfwK.s:127    .text._mmcsd_get_slice:00000098 $d
C:\Users\Luis\AppData\Local\Temp\cc23RfwK.s:1514   .rodata.__func__.7912:00000000 __func__.7912
C:\Users\Luis\AppData\Local\Temp\cc23RfwK.s:132    .text._mmcsd_get_capacity:00000000 $t
C:\Users\Luis\AppData\Local\Temp\cc23RfwK.s:138    .text._mmcsd_get_capacity:00000000 _mmcsd_get_capacity
C:\Users\Luis\AppData\Local\Temp\cc23RfwK.s:224    .text._mmcsd_get_capacity:00000080 $d
C:\Users\Luis\AppData\Local\Temp\cc23RfwK.s:1520   .rodata.__func__.7919:00000000 __func__.7919
C:\Users\Luis\AppData\Local\Temp\cc23RfwK.s:229    .text._mmcsd_get_capacity_ext:00000000 $t
C:\Users\Luis\AppData\Local\Temp\cc23RfwK.s:235    .text._mmcsd_get_capacity_ext:00000000 _mmcsd_get_capacity_ext
C:\Users\Luis\AppData\Local\Temp\cc23RfwK.s:292    .text._mmcsd_get_capacity_ext:00000040 $d
C:\Users\Luis\AppData\Local\Temp\cc23RfwK.s:1526   .rodata.__func__.7927:00000000 __func__.7927
C:\Users\Luis\AppData\Local\Temp\cc23RfwK.s:297    .text._mmcsd_unpack_sdc_cid:00000000 $t
C:\Users\Luis\AppData\Local\Temp\cc23RfwK.s:303    .text._mmcsd_unpack_sdc_cid:00000000 _mmcsd_unpack_sdc_cid
C:\Users\Luis\AppData\Local\Temp\cc23RfwK.s:462    .text._mmcsd_unpack_sdc_cid:00000118 $d
C:\Users\Luis\AppData\Local\Temp\cc23RfwK.s:1532   .rodata.__func__.7933:00000000 __func__.7933
C:\Users\Luis\AppData\Local\Temp\cc23RfwK.s:467    .text._mmcsd_unpack_mmc_cid:00000000 $t
C:\Users\Luis\AppData\Local\Temp\cc23RfwK.s:473    .text._mmcsd_unpack_mmc_cid:00000000 _mmcsd_unpack_mmc_cid
C:\Users\Luis\AppData\Local\Temp\cc23RfwK.s:641    .text._mmcsd_unpack_mmc_cid:00000128 $d
C:\Users\Luis\AppData\Local\Temp\cc23RfwK.s:1538   .rodata.__func__.7939:00000000 __func__.7939
C:\Users\Luis\AppData\Local\Temp\cc23RfwK.s:646    .text._mmcsd_unpack_csd_mmc:00000000 $t
C:\Users\Luis\AppData\Local\Temp\cc23RfwK.s:652    .text._mmcsd_unpack_csd_mmc:00000000 _mmcsd_unpack_csd_mmc
C:\Users\Luis\AppData\Local\Temp\cc23RfwK.s:972    .text._mmcsd_unpack_csd_mmc:00000260 $d
C:\Users\Luis\AppData\Local\Temp\cc23RfwK.s:1544   .rodata.__func__.7945:00000000 __func__.7945
C:\Users\Luis\AppData\Local\Temp\cc23RfwK.s:977    .text._mmcsd_unpack_csd_v10:00000000 $t
C:\Users\Luis\AppData\Local\Temp\cc23RfwK.s:983    .text._mmcsd_unpack_csd_v10:00000000 _mmcsd_unpack_csd_v10
C:\Users\Luis\AppData\Local\Temp\cc23RfwK.s:1244   .text._mmcsd_unpack_csd_v10:000001e4 $d
C:\Users\Luis\AppData\Local\Temp\cc23RfwK.s:1550   .rodata.__func__.7951:00000000 __func__.7951
C:\Users\Luis\AppData\Local\Temp\cc23RfwK.s:1249   .text._mmcsd_unpack_csd_v20:00000000 $t
C:\Users\Luis\AppData\Local\Temp\cc23RfwK.s:1255   .text._mmcsd_unpack_csd_v20:00000000 _mmcsd_unpack_csd_v20
C:\Users\Luis\AppData\Local\Temp\cc23RfwK.s:1506   .text._mmcsd_unpack_csd_v20:000001d0 $d
C:\Users\Luis\AppData\Local\Temp\cc23RfwK.s:1556   .rodata.__func__.7957:00000000 __func__.7957
C:\Users\Luis\AppData\Local\Temp\cc23RfwK.s:1511   .rodata.__func__.7912:00000000 $d
C:\Users\Luis\AppData\Local\Temp\cc23RfwK.s:1517   .rodata.__func__.7919:00000000 $d
C:\Users\Luis\AppData\Local\Temp\cc23RfwK.s:1523   .rodata.__func__.7927:00000000 $d
C:\Users\Luis\AppData\Local\Temp\cc23RfwK.s:1529   .rodata.__func__.7933:00000000 $d
C:\Users\Luis\AppData\Local\Temp\cc23RfwK.s:1535   .rodata.__func__.7939:00000000 $d
C:\Users\Luis\AppData\Local\Temp\cc23RfwK.s:1541   .rodata.__func__.7945:00000000 $d
C:\Users\Luis\AppData\Local\Temp\cc23RfwK.s:1547   .rodata.__func__.7951:00000000 $d
C:\Users\Luis\AppData\Local\Temp\cc23RfwK.s:1553   .rodata.__func__.7957:00000000 $d
                     .debug_frame:00000010 $d
C:\Users\Luis\AppData\Local\Temp\cc23RfwK.s:131    .text._mmcsd_get_slice:0000009c $t
C:\Users\Luis\AppData\Local\Temp\cc23RfwK.s:228    .text._mmcsd_get_capacity:00000084 $t
C:\Users\Luis\AppData\Local\Temp\cc23RfwK.s:296    .text._mmcsd_get_capacity_ext:00000044 $t
C:\Users\Luis\AppData\Local\Temp\cc23RfwK.s:466    .text._mmcsd_unpack_sdc_cid:0000011c $t
C:\Users\Luis\AppData\Local\Temp\cc23RfwK.s:645    .text._mmcsd_unpack_mmc_cid:0000012c $t
C:\Users\Luis\AppData\Local\Temp\cc23RfwK.s:976    .text._mmcsd_unpack_csd_mmc:00000264 $t
C:\Users\Luis\AppData\Local\Temp\cc23RfwK.s:1248   .text._mmcsd_unpack_csd_v10:000001e8 $t
C:\Users\Luis\AppData\Local\Temp\cc23RfwK.s:1510   .text._mmcsd_unpack_csd_v20:000001d4 $t

UNDEFINED SYMBOLS
chSysHalt
