ARM GAS  C:\Users\Luis\AppData\Local\Temp\ccv6tYHG.s 			page 1


   1              		.syntax unified
   2              		.cpu cortex-m4
   3              		.fpu softvfp
   4              		.eabi_attribute 20, 1
   5              		.eabi_attribute 21, 1
   6              		.eabi_attribute 23, 3
   7              		.eabi_attribute 24, 1
   8              		.eabi_attribute 25, 1
   9              		.eabi_attribute 26, 1
  10              		.eabi_attribute 30, 6
  11              		.eabi_attribute 34, 1
  12              		.eabi_attribute 18, 4
  13              		.thumb
  14              		.file	"hal_lld.c"
  15              		.text
  16              	.Ltext0:
  17              		.cfi_sections	.debug_frame
  18              		.global	SystemCoreClock
  19              		.section	.data.SystemCoreClock,"aw",%progbits
  20              		.align	2
  21              		.type	SystemCoreClock, %object
  22              		.size	SystemCoreClock, 4
  23              	SystemCoreClock:
  24 0000 007A030A 		.word	168000000
  25              		.section	.text.hal_lld_backup_domain_init,"ax",%progbits
  26              		.align	2
  27              		.p2align 4,,15
  28              		.thumb
  29              		.thumb_func
  30              		.type	hal_lld_backup_domain_init, %function
  31              	hal_lld_backup_domain_init:
  32              	.LFB260:
  33              		.file 1 "../../ChibiOS/os/hal/ports/STM32/STM32F4xx/hal_lld.c"
  34              		.loc 1 54 0
  35              		.cfi_startproc
  36              		@ args = 0, pretend = 0, frame = 0
  37              		@ frame_needed = 1, uses_anonymous_args = 0
  38              		@ link register save eliminated.
  39 0000 80B4     		push	{r7}
  40              		.cfi_def_cfa_offset 4
  41              		.cfi_offset 7, -4
  42 0002 00AF     		add	r7, sp, #0
  43              		.cfi_def_cfa_register 7
  44              		.loc 1 57 0
  45 0004 0E4B     		ldr	r3, .L3
  46 0006 0E4A     		ldr	r2, .L3
  47 0008 1268     		ldr	r2, [r2]
  48 000a 42F48072 		orr	r2, r2, #256
  49 000e 1A60     		str	r2, [r3]
  50              		.loc 1 60 0
  51 0010 0C4B     		ldr	r3, .L3+4
  52 0012 1B6F     		ldr	r3, [r3, #112]
  53 0014 03F44073 		and	r3, r3, #768
  54 0018 B3F5007F 		cmp	r3, #512
  55 001c 06D0     		beq	.L2
  56              		.loc 1 62 0
  57 001e 094B     		ldr	r3, .L3+4
ARM GAS  C:\Users\Luis\AppData\Local\Temp\ccv6tYHG.s 			page 2


  58 0020 4FF48032 		mov	r2, #65536
  59 0024 1A67     		str	r2, [r3, #112]
  60              		.loc 1 63 0
  61 0026 074B     		ldr	r3, .L3+4
  62 0028 0022     		movs	r2, #0
  63 002a 1A67     		str	r2, [r3, #112]
  64              	.L2:
  65              		.loc 1 97 0
  66 002c 044B     		ldr	r3, .L3
  67 002e 044A     		ldr	r2, .L3
  68 0030 5268     		ldr	r2, [r2, #4]
  69 0032 22F40072 		bic	r2, r2, #512
  70 0036 5A60     		str	r2, [r3, #4]
  71              		.loc 1 99 0
  72 0038 BD46     		mov	sp, r7
  73              		@ sp needed
  74 003a 5DF8047B 		ldr	r7, [sp], #4
  75 003e 7047     		bx	lr
  76              	.L4:
  77              		.align	2
  78              	.L3:
  79 0040 00700040 		.word	1073770496
  80 0044 00380240 		.word	1073887232
  81              		.cfi_endproc
  82              	.LFE260:
  83              		.size	hal_lld_backup_domain_init, .-hal_lld_backup_domain_init
  84 0048 AFF30080 		.section	.text.hal_lld_init,"ax",%progbits
  84      AFF30080 
  85              		.align	2
  86              		.p2align 4,,15
  87              		.global	hal_lld_init
  88              		.thumb
  89              		.thumb_func
  90              		.type	hal_lld_init, %function
  91              	hal_lld_init:
  92              	.LFB261:
  93              		.loc 1 114 0
  94              		.cfi_startproc
  95              		@ args = 0, pretend = 0, frame = 0
  96              		@ frame_needed = 1, uses_anonymous_args = 0
  97 0000 80B5     		push	{r7, lr}
  98              		.cfi_def_cfa_offset 8
  99              		.cfi_offset 7, -8
 100              		.cfi_offset 14, -4
 101 0002 00AF     		add	r7, sp, #0
 102              		.cfi_def_cfa_register 7
 103              		.loc 1 118 0
 104 0004 174B     		ldr	r3, .L6
 105 0006 1B69     		ldr	r3, [r3, #16]
 106 0008 164B     		ldr	r3, .L6
 107 000a 4FF0FF32 		mov	r2, #-1
 108 000e 1A61     		str	r2, [r3, #16]
 109 0010 144B     		ldr	r3, .L6
 110 0012 0022     		movs	r2, #0
 111 0014 1A61     		str	r2, [r3, #16]
 112              		.loc 1 119 0
 113 0016 134B     		ldr	r3, .L6
ARM GAS  C:\Users\Luis\AppData\Local\Temp\ccv6tYHG.s 			page 3


 114 0018 5B69     		ldr	r3, [r3, #20]
 115 001a 124B     		ldr	r3, .L6
 116 001c 4FF0FF32 		mov	r2, #-1
 117 0020 5A61     		str	r2, [r3, #20]
 118 0022 104B     		ldr	r3, .L6
 119 0024 0022     		movs	r2, #0
 120 0026 5A61     		str	r2, [r3, #20]
 121              		.loc 1 120 0
 122 0028 0E4B     		ldr	r3, .L6
 123 002a 0E4A     		ldr	r2, .L6
 124 002c 126A     		ldr	r2, [r2, #32]
 125 002e 62F08052 		orn	r2, r2, #268435456
 126 0032 1A62     		str	r2, [r3, #32]
 127 0034 0B4B     		ldr	r3, .L6
 128 0036 0022     		movs	r2, #0
 129 0038 1A62     		str	r2, [r3, #32]
 130              		.loc 1 121 0
 131 003a 0A4B     		ldr	r3, .L6
 132 003c 5B6A     		ldr	r3, [r3, #36]
 133 003e 094B     		ldr	r3, .L6
 134 0040 4FF0FF32 		mov	r2, #-1
 135 0044 5A62     		str	r2, [r3, #36]
 136 0046 074B     		ldr	r3, .L6
 137 0048 0022     		movs	r2, #0
 138 004a 5A62     		str	r2, [r3, #36]
 139              		.loc 1 124 0
 140 004c 054B     		ldr	r3, .L6
 141 004e 054A     		ldr	r2, .L6
 142 0050 126C     		ldr	r2, [r2, #64]
 143 0052 42F08052 		orr	r2, r2, #268435456
 144 0056 1A64     		str	r2, [r3, #64]
 145              		.loc 1 127 0
 146 0058 FFF7FEFF 		bl	hal_lld_backup_domain_init
 147              		.loc 1 130 0
 148 005c FFF7FEFF 		bl	dmaInit
 149              		.loc 1 137 0
 150 0060 80BD     		pop	{r7, pc}
 151              	.L7:
 152 0062 00BF     		.align	2
 153              	.L6:
 154 0064 00380240 		.word	1073887232
 155              		.cfi_endproc
 156              	.LFE261:
 157              		.size	hal_lld_init, .-hal_lld_init
 158 0068 AFF30080 		.section	.text.stm32_clock_init,"ax",%progbits
 158      AFF30080 
 159              		.align	2
 160              		.p2align 4,,15
 161              		.global	stm32_clock_init
 162              		.thumb
 163              		.thumb_func
 164              		.type	stm32_clock_init, %function
 165              	stm32_clock_init:
 166              	.LFB262:
 167              		.loc 1 146 0
 168              		.cfi_startproc
 169              		@ args = 0, pretend = 0, frame = 0
ARM GAS  C:\Users\Luis\AppData\Local\Temp\ccv6tYHG.s 			page 4


 170              		@ frame_needed = 1, uses_anonymous_args = 0
 171              		@ link register save eliminated.
 172 0000 80B4     		push	{r7}
 173              		.cfi_def_cfa_offset 4
 174              		.cfi_offset 7, -4
 175 0002 00AF     		add	r7, sp, #0
 176              		.cfi_def_cfa_register 7
 177              		.loc 1 150 0
 178 0004 414B     		ldr	r3, .L16
 179 0006 4FF08052 		mov	r2, #268435456
 180 000a 1A64     		str	r2, [r3, #64]
 181              		.loc 1 154 0
 182 000c 404B     		ldr	r3, .L16+4
 183 000e 4FF44042 		mov	r2, #49152
 184 0012 1A60     		str	r2, [r3]
 185              		.loc 1 161 0
 186 0014 3D4B     		ldr	r3, .L16
 187 0016 3D4A     		ldr	r2, .L16
 188 0018 1268     		ldr	r2, [r2]
 189 001a 42F00102 		orr	r2, r2, #1
 190 001e 1A60     		str	r2, [r3]
 191              		.loc 1 162 0
 192 0020 00BF     		nop
 193              	.L9:
 194              		.loc 1 162 0 is_stmt 0 discriminator 1
 195 0022 3A4B     		ldr	r3, .L16
 196 0024 1B68     		ldr	r3, [r3]
 197 0026 03F00203 		and	r3, r3, #2
 198 002a 002B     		cmp	r3, #0
 199 002c F9D0     		beq	.L9
 200              		.loc 1 168 0 is_stmt 1
 201 002e 374B     		ldr	r3, .L16
 202 0030 364A     		ldr	r2, .L16
 203 0032 9268     		ldr	r2, [r2, #8]
 204 0034 22F00302 		bic	r2, r2, #3
 205 0038 9A60     		str	r2, [r3, #8]
 206              		.loc 1 169 0
 207 003a 344B     		ldr	r3, .L16
 208 003c 334A     		ldr	r2, .L16
 209 003e 9268     		ldr	r2, [r2, #8]
 210 0040 9A60     		str	r2, [r3, #8]
 211              		.loc 1 170 0
 212 0042 00BF     		nop
 213              	.L10:
 214              		.loc 1 170 0 is_stmt 0 discriminator 1
 215 0044 314B     		ldr	r3, .L16
 216 0046 9B68     		ldr	r3, [r3, #8]
 217 0048 03F00C03 		and	r3, r3, #12
 218 004c 002B     		cmp	r3, #0
 219 004e F9D1     		bne	.L10
 220              		.loc 1 174 0 is_stmt 1
 221 0050 2E4B     		ldr	r3, .L16
 222 0052 2E4A     		ldr	r2, .L16
 223 0054 1268     		ldr	r2, [r2]
 224 0056 02F0F902 		and	r2, r2, #249
 225 005a 1A60     		str	r2, [r3]
 226              		.loc 1 175 0
ARM GAS  C:\Users\Luis\AppData\Local\Temp\ccv6tYHG.s 			page 5


 227 005c 2B4B     		ldr	r3, .L16
 228 005e 0022     		movs	r2, #0
 229 0060 9A60     		str	r2, [r3, #8]
 230              		.loc 1 184 0
 231 0062 2A4B     		ldr	r3, .L16
 232 0064 294A     		ldr	r2, .L16
 233 0066 1268     		ldr	r2, [r2]
 234 0068 42F48032 		orr	r2, r2, #65536
 235 006c 1A60     		str	r2, [r3]
 236              		.loc 1 186 0
 237 006e 00BF     		nop
 238              	.L11:
 239              		.loc 1 186 0 is_stmt 0 discriminator 1
 240 0070 264B     		ldr	r3, .L16
 241 0072 1B68     		ldr	r3, [r3]
 242 0074 03F40033 		and	r3, r3, #131072
 243 0078 002B     		cmp	r3, #0
 244 007a F9D0     		beq	.L11
 245              		.loc 1 192 0 is_stmt 1
 246 007c 234B     		ldr	r3, .L16
 247 007e 234A     		ldr	r2, .L16
 248 0080 526F     		ldr	r2, [r2, #116]
 249 0082 42F00102 		orr	r2, r2, #1
 250 0086 5A67     		str	r2, [r3, #116]
 251              		.loc 1 193 0
 252 0088 00BF     		nop
 253              	.L12:
 254              		.loc 1 193 0 is_stmt 0 discriminator 1
 255 008a 204B     		ldr	r3, .L16
 256 008c 5B6F     		ldr	r3, [r3, #116]
 257 008e 03F00203 		and	r3, r3, #2
 258 0092 002B     		cmp	r3, #0
 259 0094 F9D0     		beq	.L12
 260              		.loc 1 199 0 is_stmt 1
 261 0096 1D4B     		ldr	r3, .L16
 262 0098 1E4A     		ldr	r2, .L16+8
 263 009a 5A60     		str	r2, [r3, #4]
 264              		.loc 1 201 0
 265 009c 1B4B     		ldr	r3, .L16
 266 009e 1B4A     		ldr	r2, .L16
 267 00a0 1268     		ldr	r2, [r2]
 268 00a2 42F08072 		orr	r2, r2, #16777216
 269 00a6 1A60     		str	r2, [r3]
 270              		.loc 1 205 0
 271 00a8 00BF     		nop
 272              	.L13:
 273              		.loc 1 205 0 is_stmt 0 discriminator 1
 274 00aa 194B     		ldr	r3, .L16+4
 275 00ac 5B68     		ldr	r3, [r3, #4]
 276 00ae 03F48043 		and	r3, r3, #16384
 277 00b2 002B     		cmp	r3, #0
 278 00b4 F9D0     		beq	.L13
 279              		.loc 1 221 0 is_stmt 1
 280 00b6 00BF     		nop
 281              	.L14:
 282              		.loc 1 221 0 is_stmt 0 discriminator 1
 283 00b8 144B     		ldr	r3, .L16
ARM GAS  C:\Users\Luis\AppData\Local\Temp\ccv6tYHG.s 			page 6


 284 00ba 1B68     		ldr	r3, [r3]
 285 00bc 03F00073 		and	r3, r3, #33554432
 286 00c0 002B     		cmp	r3, #0
 287 00c2 F9D0     		beq	.L14
 288              		.loc 1 247 0 is_stmt 1
 289 00c4 114B     		ldr	r3, .L16
 290 00c6 144A     		ldr	r2, .L16+12
 291 00c8 9A60     		str	r2, [r3, #8]
 292              		.loc 1 260 0
 293 00ca 144B     		ldr	r3, .L16+16
 294 00cc 40F20572 		movw	r2, #1797
 295 00d0 1A60     		str	r2, [r3]
 296              		.loc 1 266 0
 297 00d2 0E4B     		ldr	r3, .L16
 298 00d4 0D4A     		ldr	r2, .L16
 299 00d6 9268     		ldr	r2, [r2, #8]
 300 00d8 42F00202 		orr	r2, r2, #2
 301 00dc 9A60     		str	r2, [r3, #8]
 302              		.loc 1 267 0
 303 00de 00BF     		nop
 304              	.L15:
 305              		.loc 1 267 0 is_stmt 0 discriminator 1
 306 00e0 0A4B     		ldr	r3, .L16
 307 00e2 9B68     		ldr	r3, [r3, #8]
 308 00e4 03F00C03 		and	r3, r3, #12
 309 00e8 082B     		cmp	r3, #8
 310 00ea F9D1     		bne	.L15
 311              		.loc 1 274 0 is_stmt 1
 312 00ec 074B     		ldr	r3, .L16
 313 00ee 074A     		ldr	r2, .L16
 314 00f0 526C     		ldr	r2, [r2, #68]
 315 00f2 42F48042 		orr	r2, r2, #16384
 316 00f6 5A64     		str	r2, [r3, #68]
 317 00f8 044B     		ldr	r3, .L16
 318 00fa 044A     		ldr	r2, .L16
 319 00fc 526E     		ldr	r2, [r2, #100]
 320 00fe 42F48042 		orr	r2, r2, #16384
 321 0102 5A66     		str	r2, [r3, #100]
 322              		.loc 1 275 0
 323 0104 BD46     		mov	sp, r7
 324              		@ sp needed
 325 0106 5DF8047B 		ldr	r7, [sp], #4
 326 010a 7047     		bx	lr
 327              	.L17:
 328              		.align	2
 329              	.L16:
 330 010c 00380240 		.word	1073887232
 331 0110 00700040 		.word	1073770496
 332 0114 0C544007 		.word	121656332
 333 0118 00940838 		.word	940086272
 334 011c 003C0240 		.word	1073888256
 335              		.cfi_endproc
 336              	.LFE262:
 337              		.size	stm32_clock_init, .-stm32_clock_init
 338              		.text
 339              	.Letext0:
 340              		.file 2 "c:\\emtechesdk\\gcc\\lib\\gcc\\arm-none-eabi\\4.8.3\\include\\stddef.h"
ARM GAS  C:\Users\Luis\AppData\Local\Temp\ccv6tYHG.s 			page 7


 341              		.file 3 "c:\\emtechesdk\\gcc\\arm-none-eabi\\include\\stdint.h"
 342              		.file 4 "../../ChibiOS/os/rt/ports/ARMCMx/compilers/GCC/chtypes.h"
 343              		.file 5 "../../ChibiOS/os/rt/include/chsystypes.h"
 344              		.file 6 "../../ChibiOS/os/rt/include/chschd.h"
 345              		.file 7 "../../ChibiOS/os/ext/CMSIS/ST/stm32f407xx.h"
 346              		.file 8 "../../ChibiOS/os/rt/ports/ARMCMx/chcore.h"
 347              		.file 9 "../../ChibiOS/os/rt/ports/ARMCMx/chcore_v7m.h"
 348              		.file 10 "../../ChibiOS/os/rt/include/chdebug.h"
 349              		.file 11 "../../ChibiOS/os/rt/include/chtm.h"
 350              		.file 12 "../../ChibiOS/os/rt/include/chstats.h"
 351              		.file 13 "../../ChibiOS/os/rt/include/chsem.h"
 352              		.file 14 "../../ChibiOS/os/rt/include/chmtx.h"
 353              		.file 15 "../../ChibiOS/os/ext/CMSIS/include/core_cm4.h"