ARM GAS  C:\Users\Luis\AppData\Local\Temp\cc23RfwK.s 			page 1


   1              		.syntax unified
   2              		.cpu cortex-m4
   3              		.fpu softvfp
   4              		.eabi_attribute 20, 1
   5              		.eabi_attribute 21, 1
   6              		.eabi_attribute 23, 3
   7              		.eabi_attribute 24, 1
   8              		.eabi_attribute 25, 1
   9              		.eabi_attribute 26, 1
  10              		.eabi_attribute 30, 6
  11              		.eabi_attribute 34, 1
  12              		.eabi_attribute 18, 4
  13              		.thumb
  14              		.file	"hal_mmcsd.c"
  15              		.text
  16              	.Ltext0:
  17              		.cfi_sections	.debug_frame
  18              		.section	.text._mmcsd_get_slice,"ax",%progbits
  19              		.align	2
  20              		.p2align 4,,15
  21              		.global	_mmcsd_get_slice
  22              		.thumb
  23              		.thumb_func
  24              		.type	_mmcsd_get_slice, %function
  25              	_mmcsd_get_slice:
  26              	.LFB260:
  27              		.file 1 "../../ChibiOS/os/hal/src/hal_mmcsd.c"
  28              		.loc 1 63 0
  29              		.cfi_startproc
  30              		@ args = 0, pretend = 0, frame = 32
  31              		@ frame_needed = 1, uses_anonymous_args = 0
  32 0000 80B5     		push	{r7, lr}
  33              		.cfi_def_cfa_offset 8
  34              		.cfi_offset 7, -8
  35              		.cfi_offset 14, -4
  36 0002 88B0     		sub	sp, sp, #32
  37              		.cfi_def_cfa_offset 40
  38 0004 00AF     		add	r7, sp, #0
  39              		.cfi_def_cfa_register 7
  40 0006 F860     		str	r0, [r7, #12]
  41 0008 B960     		str	r1, [r7, #8]
  42 000a 7A60     		str	r2, [r7, #4]
  43              		.loc 1 67 0
  44 000c BA68     		ldr	r2, [r7, #8]
  45 000e 7B68     		ldr	r3, [r7, #4]
  46 0010 9A42     		cmp	r2, r3
  47 0012 04D3     		bcc	.L2
  48              		.loc 1 67 0 is_stmt 0 discriminator 2
  49 0014 BA68     		ldr	r2, [r7, #8]
  50 0016 7B68     		ldr	r3, [r7, #4]
  51 0018 D31A     		subs	r3, r2, r3
  52 001a 1F2B     		cmp	r3, #31
  53 001c 02D9     		bls	.L3
  54              	.L2:
  55              		.loc 1 67 0 discriminator 1
  56 001e 1E48     		ldr	r0, .L6
  57 0020 FFF7FEFF 		bl	chSysHalt
ARM GAS  C:\Users\Luis\AppData\Local\Temp\cc23RfwK.s 			page 2


  58              	.L3:
  59              		.loc 1 69 0 is_stmt 1
  60 0024 7B68     		ldr	r3, [r7, #4]
  61 0026 5B09     		lsrs	r3, r3, #5
  62 0028 FB61     		str	r3, [r7, #28]
  63              		.loc 1 70 0
  64 002a 7B68     		ldr	r3, [r7, #4]
  65 002c 03F01F03 		and	r3, r3, #31
  66 0030 BB61     		str	r3, [r7, #24]
  67              		.loc 1 71 0
  68 0032 BB68     		ldr	r3, [r7, #8]
  69 0034 5B09     		lsrs	r3, r3, #5
  70 0036 7B61     		str	r3, [r7, #20]
  71              		.loc 1 72 0
  72 0038 BB68     		ldr	r3, [r7, #8]
  73 003a 03F01F03 		and	r3, r3, #31
  74 003e 0133     		adds	r3, r3, #1
  75 0040 0122     		movs	r2, #1
  76 0042 02FA03F3 		lsl	r3, r2, r3
  77 0046 013B     		subs	r3, r3, #1
  78 0048 3B61     		str	r3, [r7, #16]
  79              		.loc 1 75 0
  80 004a FA69     		ldr	r2, [r7, #28]
  81 004c 7B69     		ldr	r3, [r7, #20]
  82 004e 9A42     		cmp	r2, r3
  83 0050 14D2     		bcs	.L4
  84              		.loc 1 76 0
  85 0052 FB69     		ldr	r3, [r7, #28]
  86 0054 9B00     		lsls	r3, r3, #2
  87 0056 FA68     		ldr	r2, [r7, #12]
  88 0058 1344     		add	r3, r3, r2
  89 005a 1A68     		ldr	r2, [r3]
  90 005c BB69     		ldr	r3, [r7, #24]
  91 005e DA40     		lsrs	r2, r2, r3
  92              		.loc 1 77 0
  93 0060 7B69     		ldr	r3, [r7, #20]
  94 0062 9B00     		lsls	r3, r3, #2
  95 0064 F968     		ldr	r1, [r7, #12]
  96 0066 0B44     		add	r3, r3, r1
  97 0068 1968     		ldr	r1, [r3]
  98 006a 3B69     		ldr	r3, [r7, #16]
  99 006c 1940     		ands	r1, r1, r3
 100 006e BB69     		ldr	r3, [r7, #24]
 101 0070 C3F12003 		rsb	r3, r3, #32
 102 0074 01FA03F3 		lsl	r3, r1, r3
 103              		.loc 1 76 0
 104 0078 1343     		orrs	r3, r3, r2
 105 007a 09E0     		b	.L5
 106              	.L4:
 107              		.loc 1 79 0
 108 007c FB69     		ldr	r3, [r7, #28]
 109 007e 9B00     		lsls	r3, r3, #2
 110 0080 FA68     		ldr	r2, [r7, #12]
 111 0082 1344     		add	r3, r3, r2
 112 0084 1A68     		ldr	r2, [r3]
 113 0086 3B69     		ldr	r3, [r7, #16]
 114 0088 1A40     		ands	r2, r2, r3
ARM GAS  C:\Users\Luis\AppData\Local\Temp\cc23RfwK.s 			page 3


 115 008a BB69     		ldr	r3, [r7, #24]
 116 008c 22FA03F3 		lsr	r3, r2, r3
 117              	.L5:
 118              		.loc 1 80 0
 119 0090 1846     		mov	r0, r3
 120 0092 2037     		adds	r7, r7, #32
 121 0094 BD46     		mov	sp, r7
 122              		@ sp needed
 123 0096 80BD     		pop	{r7, pc}
 124              	.L7:
 125              		.align	2
 126              	.L6:
 127 0098 00000000 		.word	__func__.7912
 128              		.cfi_endproc
 129              	.LFE260:
 130              		.size	_mmcsd_get_slice, .-_mmcsd_get_slice
 131 009c AFF30080 		.section	.text._mmcsd_get_capacity,"ax",%progbits
 132              		.align	2
 133              		.p2align 4,,15
 134              		.global	_mmcsd_get_capacity
 135              		.thumb
 136              		.thumb_func
 137              		.type	_mmcsd_get_capacity, %function
 138              	_mmcsd_get_capacity:
 139              	.LFB261:
 140              		.loc 1 93 0
 141              		.cfi_startproc
 142              		@ args = 0, pretend = 0, frame = 24
 143              		@ frame_needed = 1, uses_anonymous_args = 0
 144 0000 80B5     		push	{r7, lr}
 145              		.cfi_def_cfa_offset 8
 146              		.cfi_offset 7, -8
 147              		.cfi_offset 14, -4
 148 0002 86B0     		sub	sp, sp, #24
 149              		.cfi_def_cfa_offset 32
 150 0004 00AF     		add	r7, sp, #0
 151              		.cfi_def_cfa_register 7
 152 0006 7860     		str	r0, [r7, #4]
 153              		.loc 1 96 0
 154 0008 7B68     		ldr	r3, [r7, #4]
 155 000a 002B     		cmp	r3, #0
 156 000c 02D1     		bne	.L9
 157              		.loc 1 96 0 is_stmt 0 discriminator 1
 158 000e 1C48     		ldr	r0, .L15
 159 0010 FFF7FEFF 		bl	chSysHalt
 160              	.L9:
 161              		.loc 1 98 0 is_stmt 1
 162 0014 7868     		ldr	r0, [r7, #4]
 163 0016 7F21     		movs	r1, #127
 164 0018 7E22     		movs	r2, #126
 165 001a FFF7FEFF 		bl	_mmcsd_get_slice
 166 001e 0346     		mov	r3, r0
 167 0020 002B     		cmp	r3, #0
 168 0022 04D0     		beq	.L11
 169 0024 012B     		cmp	r3, #1
 170 0026 1ED0     		beq	.L12
 171              		.loc 1 110 0
ARM GAS  C:\Users\Luis\AppData\Local\Temp\cc23RfwK.s 			page 4


 172 0028 00BF     		nop
 173              		.loc 1 112 0
 174 002a 0023     		movs	r3, #0
 175 002c 23E0     		b	.L13
 176              	.L11:
 177              		.loc 1 101 0
 178 002e 7868     		ldr	r0, [r7, #4]
 179 0030 4921     		movs	r1, #73
 180 0032 3E22     		movs	r2, #62
 181 0034 FFF7FEFF 		bl	_mmcsd_get_slice
 182 0038 7861     		str	r0, [r7, #20]
 183              		.loc 1 102 0
 184 003a 7868     		ldr	r0, [r7, #4]
 185 003c 3121     		movs	r1, #49
 186 003e 2F22     		movs	r2, #47
 187 0040 FFF7FEFF 		bl	_mmcsd_get_slice
 188 0044 3861     		str	r0, [r7, #16]
 189              		.loc 1 103 0
 190 0046 7868     		ldr	r0, [r7, #4]
 191 0048 5321     		movs	r1, #83
 192 004a 5022     		movs	r2, #80
 193 004c FFF7FEFF 		bl	_mmcsd_get_slice
 194 0050 F860     		str	r0, [r7, #12]
 195              		.loc 1 104 0
 196 0052 7B69     		ldr	r3, [r7, #20]
 197 0054 5A1C     		adds	r2, r3, #1
 198 0056 3B69     		ldr	r3, [r7, #16]
 199 0058 0233     		adds	r3, r3, #2
 200 005a 9A40     		lsls	r2, r2, r3
 201 005c FB68     		ldr	r3, [r7, #12]
 202 005e 093B     		subs	r3, r3, #9
 203 0060 02FA03F3 		lsl	r3, r2, r3
 204 0064 07E0     		b	.L13
 205              	.L12:
 206              		.loc 1 107 0
 207 0066 7868     		ldr	r0, [r7, #4]
 208 0068 4521     		movs	r1, #69
 209 006a 3022     		movs	r2, #48
 210 006c FFF7FEFF 		bl	_mmcsd_get_slice
 211 0070 0346     		mov	r3, r0
 212 0072 0133     		adds	r3, r3, #1
 213 0074 9B02     		lsls	r3, r3, #10
 214              	.L13:
 215              		.loc 1 113 0
 216 0076 1846     		mov	r0, r3
 217 0078 1837     		adds	r7, r7, #24
 218 007a BD46     		mov	sp, r7
 219              		@ sp needed
 220 007c 80BD     		pop	{r7, pc}
 221              	.L16:
 222 007e 00BF     		.align	2
 223              	.L15:
 224 0080 00000000 		.word	__func__.7919
 225              		.cfi_endproc
 226              	.LFE261:
 227              		.size	_mmcsd_get_capacity, .-_mmcsd_get_capacity
 228 0084 AFF30080 		.section	.text._mmcsd_get_capacity_ext,"ax",%progbits
ARM GAS  C:\Users\Luis\AppData\Local\Temp\cc23RfwK.s 			page 5


 228      AFF30080 
 228      AFF30080 
 229              		.align	2
 230              		.p2align 4,,15
 231              		.global	_mmcsd_get_capacity_ext
 232              		.thumb
 233              		.thumb_func
 234              		.type	_mmcsd_get_capacity_ext, %function
 235              	_mmcsd_get_capacity_ext:
 236              	.LFB262:
 237              		.loc 1 125 0
 238              		.cfi_startproc
 239              		@ args = 0, pretend = 0, frame = 8
 240              		@ frame_needed = 1, uses_anonymous_args = 0
 241 0000 80B5     		push	{r7, lr}
 242              		.cfi_def_cfa_offset 8
 243              		.cfi_offset 7, -8
 244              		.cfi_offset 14, -4
 245 0002 82B0     		sub	sp, sp, #8
 246              		.cfi_def_cfa_offset 16
 247 0004 00AF     		add	r7, sp, #0
 248              		.cfi_def_cfa_register 7
 249 0006 7860     		str	r0, [r7, #4]
 250              		.loc 1 127 0
 251 0008 7B68     		ldr	r3, [r7, #4]
 252 000a 002B     		cmp	r3, #0
 253 000c 02D1     		bne	.L18
 254              		.loc 1 127 0 is_stmt 0 discriminator 1
 255 000e 0C48     		ldr	r0, .L20
 256 0010 FFF7FEFF 		bl	chSysHalt
 257              	.L18:
 258              		.loc 1 129 0 is_stmt 1
 259 0014 7B68     		ldr	r3, [r7, #4]
 260 0016 D733     		adds	r3, r3, #215
 261 0018 1B78     		ldrb	r3, [r3]	@ zero_extendqisi2
 262 001a 1A06     		lsls	r2, r3, #24
 263              		.loc 1 130 0
 264 001c 7B68     		ldr	r3, [r7, #4]
 265 001e D633     		adds	r3, r3, #214
 266 0020 1B78     		ldrb	r3, [r3]	@ zero_extendqisi2
 267 0022 1B04     		lsls	r3, r3, #16
 268              		.loc 1 129 0
 269 0024 1A44     		add	r2, r2, r3
 270              		.loc 1 131 0
 271 0026 7B68     		ldr	r3, [r7, #4]
 272 0028 D533     		adds	r3, r3, #213
 273 002a 1B78     		ldrb	r3, [r3]	@ zero_extendqisi2
 274 002c 1B02     		lsls	r3, r3, #8
 275              		.loc 1 130 0
 276 002e 1A44     		add	r2, r2, r3
 277              		.loc 1 132 0
 278 0030 7B68     		ldr	r3, [r7, #4]
 279 0032 D433     		adds	r3, r3, #212
 280 0034 1B78     		ldrb	r3, [r3]	@ zero_extendqisi2
 281              		.loc 1 129 0
 282 0036 1344     		add	r3, r3, r2
 283              		.loc 1 133 0
ARM GAS  C:\Users\Luis\AppData\Local\Temp\cc23RfwK.s 			page 6


 284 0038 1846     		mov	r0, r3
 285 003a 0837     		adds	r7, r7, #8
 286 003c BD46     		mov	sp, r7
 287              		@ sp needed
 288 003e 80BD     		pop	{r7, pc}
 289              	.L21:
 290              		.align	2
 291              	.L20:
 292 0040 00000000 		.word	__func__.7927
 293              		.cfi_endproc
 294              	.LFE262:
 295              		.size	_mmcsd_get_capacity_ext, .-_mmcsd_get_capacity_ext
 296 0044 AFF30080 		.section	.text._mmcsd_unpack_sdc_cid,"ax",%progbits
 296      AFF30080 
 296      AFF30080 
 297              		.align	2
 298              		.p2align 4,,15
 299              		.global	_mmcsd_unpack_sdc_cid
 300              		.thumb
 301              		.thumb_func
 302              		.type	_mmcsd_unpack_sdc_cid, %function
 303              	_mmcsd_unpack_sdc_cid:
 304              	.LFB263:
 305              		.loc 1 144 0
 306              		.cfi_startproc
 307              		@ args = 0, pretend = 0, frame = 16
 308              		@ frame_needed = 1, uses_anonymous_args = 0
 309 0000 80B5     		push	{r7, lr}
 310              		.cfi_def_cfa_offset 8
 311              		.cfi_offset 7, -8
 312              		.cfi_offset 14, -4
 313 0002 84B0     		sub	sp, sp, #16
 314              		.cfi_def_cfa_offset 24
 315 0004 00AF     		add	r7, sp, #0
 316              		.cfi_def_cfa_register 7
 317 0006 7860     		str	r0, [r7, #4]
 318 0008 3960     		str	r1, [r7]
 319              		.loc 1 147 0
 320 000a 7B68     		ldr	r3, [r7, #4]
 321 000c 002B     		cmp	r3, #0
 322 000e 02D0     		beq	.L23
 323              		.loc 1 147 0 is_stmt 0 discriminator 2
 324 0010 3B68     		ldr	r3, [r7]
 325 0012 002B     		cmp	r3, #0
 326 0014 02D1     		bne	.L24
 327              	.L23:
 328              		.loc 1 147 0 discriminator 1
 329 0016 4048     		ldr	r0, .L25
 330 0018 FFF7FEFF 		bl	chSysHalt
 331              	.L24:
 332              		.loc 1 149 0 is_stmt 1
 333 001c 7B68     		ldr	r3, [r7, #4]
 334 001e 0833     		adds	r3, r3, #8
 335 0020 FB60     		str	r3, [r7, #12]
 336              		.loc 1 150 0
 337 0022 F868     		ldr	r0, [r7, #12]
 338 0024 0721     		movs	r1, #7
ARM GAS  C:\Users\Luis\AppData\Local\Temp\cc23RfwK.s 			page 7


 339 0026 0122     		movs	r2, #1
 340 0028 FFF7FEFF 		bl	_mmcsd_get_slice
 341 002c 0346     		mov	r3, r0
 342 002e DAB2     		uxtb	r2, r3
 343 0030 3B68     		ldr	r3, [r7]
 344 0032 1A75     		strb	r2, [r3, #20]
 345              		.loc 1 151 0
 346 0034 F868     		ldr	r0, [r7, #12]
 347 0036 1321     		movs	r1, #19
 348 0038 0C22     		movs	r2, #12
 349 003a FFF7FEFF 		bl	_mmcsd_get_slice
 350 003e 0346     		mov	r3, r0
 351 0040 9BB2     		uxth	r3, r3
 352 0042 03F5FA63 		add	r3, r3, #2000
 353 0046 9AB2     		uxth	r2, r3
 354 0048 3B68     		ldr	r3, [r7]
 355 004a 5A82     		strh	r2, [r3, #18]	@ movhi
 356              		.loc 1 153 0
 357 004c F868     		ldr	r0, [r7, #12]
 358 004e 0B21     		movs	r1, #11
 359 0050 0822     		movs	r2, #8
 360 0052 FFF7FEFF 		bl	_mmcsd_get_slice
 361 0056 0346     		mov	r3, r0
 362 0058 DAB2     		uxtb	r2, r3
 363 005a 3B68     		ldr	r3, [r7]
 364 005c 1A74     		strb	r2, [r3, #16]
 365              		.loc 1 154 0
 366 005e F868     		ldr	r0, [r7, #12]
 367 0060 7F21     		movs	r1, #127
 368 0062 7822     		movs	r2, #120
 369 0064 FFF7FEFF 		bl	_mmcsd_get_slice
 370 0068 0346     		mov	r3, r0
 371 006a DAB2     		uxtb	r2, r3
 372 006c 3B68     		ldr	r3, [r7]
 373 006e 1A70     		strb	r2, [r3]
 374              		.loc 1 155 0
 375 0070 F868     		ldr	r0, [r7, #12]
 376 0072 7721     		movs	r1, #119
 377 0074 6822     		movs	r2, #104
 378 0076 FFF7FEFF 		bl	_mmcsd_get_slice
 379 007a 0346     		mov	r3, r0
 380 007c 9AB2     		uxth	r2, r3
 381 007e 3B68     		ldr	r3, [r7]
 382 0080 5A80     		strh	r2, [r3, #2]	@ movhi
 383              		.loc 1 156 0
 384 0082 F868     		ldr	r0, [r7, #12]
 385 0084 4721     		movs	r1, #71
 386 0086 4022     		movs	r2, #64
 387 0088 FFF7FEFF 		bl	_mmcsd_get_slice
 388 008c 0346     		mov	r3, r0
 389 008e DAB2     		uxtb	r2, r3
 390 0090 3B68     		ldr	r3, [r7]
 391 0092 1A72     		strb	r2, [r3, #8]
 392              		.loc 1 157 0
 393 0094 F868     		ldr	r0, [r7, #12]
 394 0096 4F21     		movs	r1, #79
 395 0098 4822     		movs	r2, #72
ARM GAS  C:\Users\Luis\AppData\Local\Temp\cc23RfwK.s 			page 8


 396 009a FFF7FEFF 		bl	_mmcsd_get_slice
 397 009e 0346     		mov	r3, r0
 398 00a0 DAB2     		uxtb	r2, r3
 399 00a2 3B68     		ldr	r3, [r7]
 400 00a4 DA71     		strb	r2, [r3, #7]
 401              		.loc 1 158 0
 402 00a6 F868     		ldr	r0, [r7, #12]
 403 00a8 5721     		movs	r1, #87
 404 00aa 5022     		movs	r2, #80
 405 00ac FFF7FEFF 		bl	_mmcsd_get_slice
 406 00b0 0346     		mov	r3, r0
 407 00b2 DAB2     		uxtb	r2, r3
 408 00b4 3B68     		ldr	r3, [r7]
 409 00b6 9A71     		strb	r2, [r3, #6]
 410              		.loc 1 159 0
 411 00b8 F868     		ldr	r0, [r7, #12]
 412 00ba 5F21     		movs	r1, #95
 413 00bc 5822     		movs	r2, #88
 414 00be FFF7FEFF 		bl	_mmcsd_get_slice
 415 00c2 0346     		mov	r3, r0
 416 00c4 DAB2     		uxtb	r2, r3
 417 00c6 3B68     		ldr	r3, [r7]
 418 00c8 5A71     		strb	r2, [r3, #5]
 419              		.loc 1 160 0
 420 00ca F868     		ldr	r0, [r7, #12]
 421 00cc 6721     		movs	r1, #103
 422 00ce 6022     		movs	r2, #96
 423 00d0 FFF7FEFF 		bl	_mmcsd_get_slice
 424 00d4 0346     		mov	r3, r0
 425 00d6 DAB2     		uxtb	r2, r3
 426 00d8 3B68     		ldr	r3, [r7]
 427 00da 1A71     		strb	r2, [r3, #4]
 428              		.loc 1 161 0
 429 00dc F868     		ldr	r0, [r7, #12]
 430 00de 3F21     		movs	r1, #63
 431 00e0 3C22     		movs	r2, #60
 432 00e2 FFF7FEFF 		bl	_mmcsd_get_slice
 433 00e6 0346     		mov	r3, r0
 434 00e8 DAB2     		uxtb	r2, r3
 435 00ea 3B68     		ldr	r3, [r7]
 436 00ec 5A72     		strb	r2, [r3, #9]
 437              		.loc 1 162 0
 438 00ee F868     		ldr	r0, [r7, #12]
 439 00f0 3B21     		movs	r1, #59
 440 00f2 3822     		movs	r2, #56
 441 00f4 FFF7FEFF 		bl	_mmcsd_get_slice
 442 00f8 0346     		mov	r3, r0
 443 00fa DAB2     		uxtb	r2, r3
 444 00fc 3B68     		ldr	r3, [r7]
 445 00fe 9A72     		strb	r2, [r3, #10]
 446              		.loc 1 163 0
 447 0100 F868     		ldr	r0, [r7, #12]
 448 0102 3721     		movs	r1, #55
 449 0104 1822     		movs	r2, #24
 450 0106 FFF7FEFF 		bl	_mmcsd_get_slice
 451 010a 0246     		mov	r2, r0
 452 010c 3B68     		ldr	r3, [r7]
ARM GAS  C:\Users\Luis\AppData\Local\Temp\cc23RfwK.s 			page 9


 453 010e DA60     		str	r2, [r3, #12]
 454              		.loc 1 164 0
 455 0110 1037     		adds	r7, r7, #16
 456 0112 BD46     		mov	sp, r7
 457              		@ sp needed
 458 0114 80BD     		pop	{r7, pc}
 459              	.L26:
 460 0116 00BF     		.align	2
 461              	.L25:
 462 0118 00000000 		.word	__func__.7933
 463              		.cfi_endproc
 464              	.LFE263:
 465              		.size	_mmcsd_unpack_sdc_cid, .-_mmcsd_unpack_sdc_cid
 466 011c AFF30080 		.section	.text._mmcsd_unpack_mmc_cid,"ax",%progbits
 467              		.align	2
 468              		.p2align 4,,15
 469              		.global	_mmcsd_unpack_mmc_cid
 470              		.thumb
 471              		.thumb_func
 472              		.type	_mmcsd_unpack_mmc_cid, %function
 473              	_mmcsd_unpack_mmc_cid:
 474              	.LFB264:
 475              		.loc 1 175 0
 476              		.cfi_startproc
 477              		@ args = 0, pretend = 0, frame = 16
 478              		@ frame_needed = 1, uses_anonymous_args = 0
 479 0000 80B5     		push	{r7, lr}
 480              		.cfi_def_cfa_offset 8
 481              		.cfi_offset 7, -8
 482              		.cfi_offset 14, -4
 483 0002 84B0     		sub	sp, sp, #16
 484              		.cfi_def_cfa_offset 24
 485 0004 00AF     		add	r7, sp, #0
 486              		.cfi_def_cfa_register 7
 487 0006 7860     		str	r0, [r7, #4]
 488 0008 3960     		str	r1, [r7]
 489              		.loc 1 178 0
 490 000a 7B68     		ldr	r3, [r7, #4]
 491 000c 002B     		cmp	r3, #0
 492 000e 02D0     		beq	.L28
 493              		.loc 1 178 0 is_stmt 0 discriminator 2
 494 0010 3B68     		ldr	r3, [r7]
 495 0012 002B     		cmp	r3, #0
 496 0014 02D1     		bne	.L29
 497              	.L28:
 498              		.loc 1 178 0 discriminator 1
 499 0016 4448     		ldr	r0, .L30
 500 0018 FFF7FEFF 		bl	chSysHalt
 501              	.L29:
 502              		.loc 1 180 0 is_stmt 1
 503 001c 7B68     		ldr	r3, [r7, #4]
 504 001e 0833     		adds	r3, r3, #8
 505 0020 FB60     		str	r3, [r7, #12]
 506              		.loc 1 181 0
 507 0022 F868     		ldr	r0, [r7, #12]
 508 0024 0721     		movs	r1, #7
 509 0026 0122     		movs	r2, #1
ARM GAS  C:\Users\Luis\AppData\Local\Temp\cc23RfwK.s 			page 10


 510 0028 FFF7FEFF 		bl	_mmcsd_get_slice
 511 002c 0346     		mov	r3, r0
 512 002e DAB2     		uxtb	r2, r3
 513 0030 3B68     		ldr	r3, [r7]
 514 0032 1A75     		strb	r2, [r3, #20]
 515              		.loc 1 182 0
 516 0034 F868     		ldr	r0, [r7, #12]
 517 0036 0B21     		movs	r1, #11
 518 0038 0822     		movs	r2, #8
 519 003a FFF7FEFF 		bl	_mmcsd_get_slice
 520 003e 0346     		mov	r3, r0
 521 0040 9BB2     		uxth	r3, r3
 522 0042 03F2CD73 		addw	r3, r3, #1997
 523 0046 9AB2     		uxth	r2, r3
 524 0048 3B68     		ldr	r3, [r7]
 525 004a 5A82     		strh	r2, [r3, #18]	@ movhi
 526              		.loc 1 184 0
 527 004c F868     		ldr	r0, [r7, #12]
 528 004e 0F21     		movs	r1, #15
 529 0050 0C22     		movs	r2, #12
 530 0052 FFF7FEFF 		bl	_mmcsd_get_slice
 531 0056 0346     		mov	r3, r0
 532 0058 DAB2     		uxtb	r2, r3
 533 005a 3B68     		ldr	r3, [r7]
 534 005c 1A74     		strb	r2, [r3, #16]
 535              		.loc 1 185 0
 536 005e F868     		ldr	r0, [r7, #12]
 537 0060 7F21     		movs	r1, #127
 538 0062 7822     		movs	r2, #120
 539 0064 FFF7FEFF 		bl	_mmcsd_get_slice
 540 0068 0346     		mov	r3, r0
 541 006a DAB2     		uxtb	r2, r3
 542 006c 3B68     		ldr	r3, [r7]
 543 006e 1A70     		strb	r2, [r3]
 544              		.loc 1 186 0
 545 0070 F868     		ldr	r0, [r7, #12]
 546 0072 7721     		movs	r1, #119
 547 0074 6822     		movs	r2, #104
 548 0076 FFF7FEFF 		bl	_mmcsd_get_slice
 549 007a 0346     		mov	r3, r0
 550 007c 9AB2     		uxth	r2, r3
 551 007e 3B68     		ldr	r3, [r7]
 552 0080 5A80     		strh	r2, [r3, #2]	@ movhi
 553              		.loc 1 187 0
 554 0082 F868     		ldr	r0, [r7, #12]
 555 0084 3F21     		movs	r1, #63
 556 0086 3822     		movs	r2, #56
 557 0088 FFF7FEFF 		bl	_mmcsd_get_slice
 558 008c 0346     		mov	r3, r0
 559 008e DAB2     		uxtb	r2, r3
 560 0090 3B68     		ldr	r3, [r7]
 561 0092 5A72     		strb	r2, [r3, #9]
 562              		.loc 1 188 0
 563 0094 F868     		ldr	r0, [r7, #12]
 564 0096 4721     		movs	r1, #71
 565 0098 4022     		movs	r2, #64
 566 009a FFF7FEFF 		bl	_mmcsd_get_slice
ARM GAS  C:\Users\Luis\AppData\Local\Temp\cc23RfwK.s 			page 11


 567 009e 0346     		mov	r3, r0
 568 00a0 DAB2     		uxtb	r2, r3
 569 00a2 3B68     		ldr	r3, [r7]
 570 00a4 1A72     		strb	r2, [r3, #8]
 571              		.loc 1 189 0
 572 00a6 F868     		ldr	r0, [r7, #12]
 573 00a8 4F21     		movs	r1, #79
 574 00aa 4822     		movs	r2, #72
 575 00ac FFF7FEFF 		bl	_mmcsd_get_slice
 576 00b0 0346     		mov	r3, r0
 577 00b2 DAB2     		uxtb	r2, r3
 578 00b4 3B68     		ldr	r3, [r7]
 579 00b6 DA71     		strb	r2, [r3, #7]
 580              		.loc 1 190 0
 581 00b8 F868     		ldr	r0, [r7, #12]
 582 00ba 5721     		movs	r1, #87
 583 00bc 5022     		movs	r2, #80
 584 00be FFF7FEFF 		bl	_mmcsd_get_slice
 585 00c2 0346     		mov	r3, r0
 586 00c4 DAB2     		uxtb	r2, r3
 587 00c6 3B68     		ldr	r3, [r7]
 588 00c8 9A71     		strb	r2, [r3, #6]
 589              		.loc 1 191 0
 590 00ca F868     		ldr	r0, [r7, #12]
 591 00cc 5F21     		movs	r1, #95
 592 00ce 5822     		movs	r2, #88
 593 00d0 FFF7FEFF 		bl	_mmcsd_get_slice
 594 00d4 0346     		mov	r3, r0
 595 00d6 DAB2     		uxtb	r2, r3
 596 00d8 3B68     		ldr	r3, [r7]
 597 00da 5A71     		strb	r2, [r3, #5]
 598              		.loc 1 192 0
 599 00dc F868     		ldr	r0, [r7, #12]
 600 00de 6721     		movs	r1, #103
 601 00e0 6022     		movs	r2, #96
 602 00e2 FFF7FEFF 		bl	_mmcsd_get_slice
 603 00e6 0346     		mov	r3, r0
 604 00e8 DAB2     		uxtb	r2, r3
 605 00ea 3B68     		ldr	r3, [r7]
 606 00ec 1A71     		strb	r2, [r3, #4]
 607              		.loc 1 193 0
 608 00ee F868     		ldr	r0, [r7, #12]
 609 00f0 3721     		movs	r1, #55
 610 00f2 3422     		movs	r2, #52
 611 00f4 FFF7FEFF 		bl	_mmcsd_get_slice
 612 00f8 0346     		mov	r3, r0
 613 00fa DAB2     		uxtb	r2, r3
 614 00fc 3B68     		ldr	r3, [r7]
 615 00fe 9A72     		strb	r2, [r3, #10]
 616              		.loc 1 194 0
 617 0100 F868     		ldr	r0, [r7, #12]
 618 0102 3321     		movs	r1, #51
 619 0104 3022     		movs	r2, #48
 620 0106 FFF7FEFF 		bl	_mmcsd_get_slice
 621 010a 0346     		mov	r3, r0
 622 010c DAB2     		uxtb	r2, r3
 623 010e 3B68     		ldr	r3, [r7]
ARM GAS  C:\Users\Luis\AppData\Local\Temp\cc23RfwK.s 			page 12


 624 0110 DA72     		strb	r2, [r3, #11]
 625              		.loc 1 195 0
 626 0112 F868     		ldr	r0, [r7, #12]
 627 0114 2F21     		movs	r1, #47
 628 0116 1022     		movs	r2, #16
 629 0118 FFF7FEFF 		bl	_mmcsd_get_slice
 630 011c 0246     		mov	r2, r0
 631 011e 3B68     		ldr	r3, [r7]
 632 0120 DA60     		str	r2, [r3, #12]
 633              		.loc 1 196 0
 634 0122 1037     		adds	r7, r7, #16
 635 0124 BD46     		mov	sp, r7
 636              		@ sp needed
 637 0126 80BD     		pop	{r7, pc}
 638              	.L31:
 639              		.align	2
 640              	.L30:
 641 0128 00000000 		.word	__func__.7939
 642              		.cfi_endproc
 643              	.LFE264:
 644              		.size	_mmcsd_unpack_mmc_cid, .-_mmcsd_unpack_mmc_cid
 645 012c AFF30080 		.section	.text._mmcsd_unpack_csd_mmc,"ax",%progbits
 646              		.align	2
 647              		.p2align 4,,15
 648              		.global	_mmcsd_unpack_csd_mmc
 649              		.thumb
 650              		.thumb_func
 651              		.type	_mmcsd_unpack_csd_mmc, %function
 652              	_mmcsd_unpack_csd_mmc:
 653              	.LFB265:
 654              		.loc 1 207 0
 655              		.cfi_startproc
 656              		@ args = 0, pretend = 0, frame = 16
 657              		@ frame_needed = 1, uses_anonymous_args = 0
 658 0000 80B5     		push	{r7, lr}
 659              		.cfi_def_cfa_offset 8
 660              		.cfi_offset 7, -8
 661              		.cfi_offset 14, -4
 662 0002 84B0     		sub	sp, sp, #16
 663              		.cfi_def_cfa_offset 24
 664 0004 00AF     		add	r7, sp, #0
 665              		.cfi_def_cfa_register 7
 666 0006 7860     		str	r0, [r7, #4]
 667 0008 3960     		str	r1, [r7]
 668              		.loc 1 210 0
 669 000a 7B68     		ldr	r3, [r7, #4]
 670 000c 002B     		cmp	r3, #0
 671 000e 02D0     		beq	.L33
 672              		.loc 1 210 0 is_stmt 0 discriminator 2
 673 0010 3B68     		ldr	r3, [r7]
 674 0012 002B     		cmp	r3, #0
 675 0014 02D1     		bne	.L34
 676              	.L33:
 677              		.loc 1 210 0 discriminator 1
 678 0016 9248     		ldr	r0, .L35
 679 0018 FFF7FEFF 		bl	chSysHalt
 680              	.L34:
ARM GAS  C:\Users\Luis\AppData\Local\Temp\cc23RfwK.s 			page 13


 681              		.loc 1 212 0 is_stmt 1
 682 001c 7B68     		ldr	r3, [r7, #4]
 683 001e 1833     		adds	r3, r3, #24
 684 0020 FB60     		str	r3, [r7, #12]
 685              		.loc 1 213 0
 686 0022 F868     		ldr	r0, [r7, #12]
 687 0024 4921     		movs	r1, #73
 688 0026 3E22     		movs	r2, #62
 689 0028 FFF7FEFF 		bl	_mmcsd_get_slice
 690 002c 0346     		mov	r3, r0
 691 002e 9AB2     		uxth	r2, r3
 692 0030 3B68     		ldr	r3, [r7]
 693 0032 DA81     		strh	r2, [r3, #14]	@ movhi
 694              		.loc 1 214 0
 695 0034 F868     		ldr	r0, [r7, #12]
 696 0036 3121     		movs	r1, #49
 697 0038 2F22     		movs	r2, #47
 698 003a FFF7FEFF 		bl	_mmcsd_get_slice
 699 003e 0346     		mov	r3, r0
 700 0040 DAB2     		uxtb	r2, r3
 701 0042 3B68     		ldr	r3, [r7]
 702 0044 1A75     		strb	r2, [r3, #20]
 703              		.loc 1 215 0
 704 0046 F868     		ldr	r0, [r7, #12]
 705 0048 5F21     		movs	r1, #95
 706 004a 5422     		movs	r2, #84
 707 004c FFF7FEFF 		bl	_mmcsd_get_slice
 708 0050 0346     		mov	r3, r0
 709 0052 9AB2     		uxth	r2, r3
 710 0054 3B68     		ldr	r3, [r7]
 711 0056 DA80     		strh	r2, [r3, #6]	@ movhi
 712              		.loc 1 216 0
 713 0058 F868     		ldr	r0, [r7, #12]
 714 005a 0E21     		movs	r1, #14
 715 005c 0E22     		movs	r2, #14
 716 005e FFF7FEFF 		bl	_mmcsd_get_slice
 717 0062 0346     		mov	r3, r0
 718 0064 DAB2     		uxtb	r2, r3
 719 0066 3B68     		ldr	r3, [r7]
 720 0068 DA77     		strb	r2, [r3, #31]
 721              		.loc 1 217 0
 722 006a F868     		ldr	r0, [r7, #12]
 723 006c 0721     		movs	r1, #7
 724 006e 0122     		movs	r2, #1
 725 0070 FFF7FEFF 		bl	_mmcsd_get_slice
 726 0074 0346     		mov	r3, r0
 727 0076 DAB2     		uxtb	r2, r3
 728 0078 3B68     		ldr	r3, [r7]
 729 007a 83F82420 		strb	r2, [r3, #36]
 730              		.loc 1 218 0
 731 007e F868     		ldr	r0, [r7, #12]
 732 0080 7F21     		movs	r1, #127
 733 0082 7E22     		movs	r2, #126
 734 0084 FFF7FEFF 		bl	_mmcsd_get_slice
 735 0088 0346     		mov	r3, r0
 736 008a DAB2     		uxtb	r2, r3
 737 008c 3B68     		ldr	r3, [r7]
ARM GAS  C:\Users\Luis\AppData\Local\Temp\cc23RfwK.s 			page 14


 738 008e 1A70     		strb	r2, [r3]
 739              		.loc 1 219 0
 740 0090 F868     		ldr	r0, [r7, #12]
 741 0092 4C21     		movs	r1, #76
 742 0094 4C22     		movs	r2, #76
 743 0096 FFF7FEFF 		bl	_mmcsd_get_slice
 744 009a 0346     		mov	r3, r0
 745 009c DAB2     		uxtb	r2, r3
 746 009e 3B68     		ldr	r3, [r7]
 747 00a0 1A73     		strb	r2, [r3, #12]
 748              		.loc 1 220 0
 749 00a2 F868     		ldr	r0, [r7, #12]
 750 00a4 0921     		movs	r1, #9
 751 00a6 0822     		movs	r2, #8
 752 00a8 FFF7FEFF 		bl	_mmcsd_get_slice
 753 00ac 0346     		mov	r3, r0
 754 00ae DAB2     		uxtb	r2, r3
 755 00b0 3B68     		ldr	r3, [r7]
 756 00b2 83F82320 		strb	r2, [r3, #35]
 757              		.loc 1 221 0
 758 00b6 F868     		ldr	r0, [r7, #12]
 759 00b8 2921     		movs	r1, #41
 760 00ba 2522     		movs	r2, #37
 761 00bc FFF7FEFF 		bl	_mmcsd_get_slice
 762 00c0 0346     		mov	r3, r0
 763 00c2 DAB2     		uxtb	r2, r3
 764 00c4 3B68     		ldr	r3, [r7]
 765 00c6 9A75     		strb	r2, [r3, #22]
 766              		.loc 1 222 0
 767 00c8 F868     		ldr	r0, [r7, #12]
 768 00ca 2E21     		movs	r1, #46
 769 00cc 2A22     		movs	r2, #42
 770 00ce FFF7FEFF 		bl	_mmcsd_get_slice
 771 00d2 0346     		mov	r3, r0
 772 00d4 DAB2     		uxtb	r2, r3
 773 00d6 3B68     		ldr	r3, [r7]
 774 00d8 5A75     		strb	r2, [r3, #21]
 775              		.loc 1 223 0
 776 00da F868     		ldr	r0, [r7, #12]
 777 00dc 0B21     		movs	r1, #11
 778 00de 0A22     		movs	r2, #10
 779 00e0 FFF7FEFF 		bl	_mmcsd_get_slice
 780 00e4 0346     		mov	r3, r0
 781 00e6 DAB2     		uxtb	r2, r3
 782 00e8 3B68     		ldr	r3, [r7]
 783 00ea 83F82220 		strb	r2, [r3, #34]
 784              		.loc 1 224 0
 785 00ee F868     		ldr	r0, [r7, #12]
 786 00f0 0F21     		movs	r1, #15
 787 00f2 0F22     		movs	r2, #15
 788 00f4 FFF7FEFF 		bl	_mmcsd_get_slice
 789 00f8 0346     		mov	r3, r0
 790 00fa DAB2     		uxtb	r2, r3
 791 00fc 3B68     		ldr	r3, [r7]
 792 00fe 9A77     		strb	r2, [r3, #30]
 793              		.loc 1 225 0
 794 0100 F868     		ldr	r0, [r7, #12]
ARM GAS  C:\Users\Luis\AppData\Local\Temp\cc23RfwK.s 			page 15


 795 0102 6F21     		movs	r1, #111
 796 0104 6822     		movs	r2, #104
 797 0106 FFF7FEFF 		bl	_mmcsd_get_slice
 798 010a 0346     		mov	r3, r0
 799 010c DAB2     		uxtb	r2, r3
 800 010e 3B68     		ldr	r3, [r7]
 801 0110 DA70     		strb	r2, [r3, #3]
 802              		.loc 1 226 0
 803 0112 F868     		ldr	r0, [r7, #12]
 804 0114 0D21     		movs	r1, #13
 805 0116 0D22     		movs	r2, #13
 806 0118 FFF7FEFF 		bl	_mmcsd_get_slice
 807 011c 0346     		mov	r3, r0
 808 011e DAB2     		uxtb	r2, r3
 809 0120 3B68     		ldr	r3, [r7]
 810 0122 83F82020 		strb	r2, [r3, #32]
 811              		.loc 1 227 0
 812 0126 F868     		ldr	r0, [r7, #12]
 813 0128 1C21     		movs	r1, #28
 814 012a 1A22     		movs	r2, #26
 815 012c FFF7FEFF 		bl	_mmcsd_get_slice
 816 0130 0346     		mov	r3, r0
 817 0132 DAB2     		uxtb	r2, r3
 818 0134 3B68     		ldr	r3, [r7]
 819 0136 9A76     		strb	r2, [r3, #26]
 820              		.loc 1 228 0
 821 0138 F868     		ldr	r0, [r7, #12]
 822 013a 5321     		movs	r1, #83
 823 013c 5022     		movs	r2, #80
 824 013e FFF7FEFF 		bl	_mmcsd_get_slice
 825 0142 0346     		mov	r3, r0
 826 0144 DAB2     		uxtb	r2, r3
 827 0146 3B68     		ldr	r3, [r7]
 828 0148 1A72     		strb	r2, [r3, #8]
 829              		.loc 1 229 0
 830 014a F868     		ldr	r0, [r7, #12]
 831 014c 4F21     		movs	r1, #79
 832 014e 4F22     		movs	r2, #79
 833 0150 FFF7FEFF 		bl	_mmcsd_get_slice
 834 0154 0346     		mov	r3, r0
 835 0156 DAB2     		uxtb	r2, r3
 836 0158 3B68     		ldr	r3, [r7]
 837 015a 5A72     		strb	r2, [r3, #9]
 838              		.loc 1 230 0
 839 015c F868     		ldr	r0, [r7, #12]
 840 015e 4D21     		movs	r1, #77
 841 0160 4D22     		movs	r2, #77
 842 0162 FFF7FEFF 		bl	_mmcsd_get_slice
 843 0166 0346     		mov	r3, r0
 844 0168 DAB2     		uxtb	r2, r3
 845 016a 3B68     		ldr	r3, [r7]
 846 016c DA72     		strb	r2, [r3, #11]
 847              		.loc 1 231 0
 848 016e F868     		ldr	r0, [r7, #12]
 849 0170 7D21     		movs	r1, #125
 850 0172 7A22     		movs	r2, #122
 851 0174 FFF7FEFF 		bl	_mmcsd_get_slice
ARM GAS  C:\Users\Luis\AppData\Local\Temp\cc23RfwK.s 			page 16


 852 0178 0346     		mov	r3, r0
 853 017a DAB2     		uxtb	r2, r3
 854 017c 3B68     		ldr	r3, [r7]
 855 017e 5A70     		strb	r2, [r3, #1]
 856              		.loc 1 232 0
 857 0180 F868     		ldr	r0, [r7, #12]
 858 0182 7721     		movs	r1, #119
 859 0184 7022     		movs	r2, #112
 860 0186 FFF7FEFF 		bl	_mmcsd_get_slice
 861 018a 0346     		mov	r3, r0
 862 018c DAB2     		uxtb	r2, r3
 863 018e 3B68     		ldr	r3, [r7]
 864 0190 9A70     		strb	r2, [r3, #2]
 865              		.loc 1 233 0
 866 0192 F868     		ldr	r0, [r7, #12]
 867 0194 0C21     		movs	r1, #12
 868 0196 0C22     		movs	r2, #12
 869 0198 FFF7FEFF 		bl	_mmcsd_get_slice
 870 019c 0346     		mov	r3, r0
 871 019e DAB2     		uxtb	r2, r3
 872 01a0 3B68     		ldr	r3, [r7]
 873 01a2 83F82120 		strb	r2, [r3, #33]
 874              		.loc 1 234 0
 875 01a6 F868     		ldr	r0, [r7, #12]
 876 01a8 6721     		movs	r1, #103
 877 01aa 6022     		movs	r2, #96
 878 01ac FFF7FEFF 		bl	_mmcsd_get_slice
 879 01b0 0346     		mov	r3, r0
 880 01b2 DAB2     		uxtb	r2, r3
 881 01b4 3B68     		ldr	r3, [r7]
 882 01b6 1A71     		strb	r2, [r3, #4]
 883              		.loc 1 235 0
 884 01b8 F868     		ldr	r0, [r7, #12]
 885 01ba 3A21     		movs	r1, #58
 886 01bc 3822     		movs	r2, #56
 887 01be FFF7FEFF 		bl	_mmcsd_get_slice
 888 01c2 0346     		mov	r3, r0
 889 01c4 DAB2     		uxtb	r2, r3
 890 01c6 3B68     		ldr	r3, [r7]
 891 01c8 5A74     		strb	r2, [r3, #17]
 892              		.loc 1 236 0
 893 01ca F868     		ldr	r0, [r7, #12]
 894 01cc 3D21     		movs	r1, #61
 895 01ce 3B22     		movs	r2, #59
 896 01d0 FFF7FEFF 		bl	_mmcsd_get_slice
 897 01d4 0346     		mov	r3, r0
 898 01d6 DAB2     		uxtb	r2, r3
 899 01d8 3B68     		ldr	r3, [r7]
 900 01da 1A74     		strb	r2, [r3, #16]
 901              		.loc 1 237 0
 902 01dc F868     		ldr	r0, [r7, #12]
 903 01de 3421     		movs	r1, #52
 904 01e0 3222     		movs	r2, #50
 905 01e2 FFF7FEFF 		bl	_mmcsd_get_slice
 906 01e6 0346     		mov	r3, r0
 907 01e8 DAB2     		uxtb	r2, r3
 908 01ea 3B68     		ldr	r3, [r7]
ARM GAS  C:\Users\Luis\AppData\Local\Temp\cc23RfwK.s 			page 17


 909 01ec DA74     		strb	r2, [r3, #19]
 910              		.loc 1 238 0
 911 01ee F868     		ldr	r0, [r7, #12]
 912 01f0 3721     		movs	r1, #55
 913 01f2 3522     		movs	r2, #53
 914 01f4 FFF7FEFF 		bl	_mmcsd_get_slice
 915 01f8 0346     		mov	r3, r0
 916 01fa DAB2     		uxtb	r2, r3
 917 01fc 3B68     		ldr	r3, [r7]
 918 01fe 9A74     		strb	r2, [r3, #18]
 919              		.loc 1 239 0
 920 0200 F868     		ldr	r0, [r7, #12]
 921 0202 1F21     		movs	r1, #31
 922 0204 1F22     		movs	r2, #31
 923 0206 FFF7FEFF 		bl	_mmcsd_get_slice
 924 020a 0346     		mov	r3, r0
 925 020c DAB2     		uxtb	r2, r3
 926 020e 3B68     		ldr	r3, [r7]
 927 0210 1A76     		strb	r2, [r3, #24]
 928              		.loc 1 240 0
 929 0212 F868     		ldr	r0, [r7, #12]
 930 0214 2421     		movs	r1, #36
 931 0216 2022     		movs	r2, #32
 932 0218 FFF7FEFF 		bl	_mmcsd_get_slice
 933 021c 0346     		mov	r3, r0
 934 021e DAB2     		uxtb	r2, r3
 935 0220 3B68     		ldr	r3, [r7]
 936 0222 DA75     		strb	r2, [r3, #23]
 937              		.loc 1 241 0
 938 0224 F868     		ldr	r0, [r7, #12]
 939 0226 1921     		movs	r1, #25
 940 0228 1622     		movs	r2, #22
 941 022a FFF7FEFF 		bl	_mmcsd_get_slice
 942 022e 0346     		mov	r3, r0
 943 0230 DAB2     		uxtb	r2, r3
 944 0232 3B68     		ldr	r3, [r7]
 945 0234 DA76     		strb	r2, [r3, #27]
 946              		.loc 1 242 0
 947 0236 F868     		ldr	r0, [r7, #12]
 948 0238 1521     		movs	r1, #21
 949 023a 1522     		movs	r2, #21
 950 023c FFF7FEFF 		bl	_mmcsd_get_slice
 951 0240 0346     		mov	r3, r0
 952 0242 DAB2     		uxtb	r2, r3
 953 0244 3B68     		ldr	r3, [r7]
 954 0246 1A77     		strb	r2, [r3, #28]
 955              		.loc 1 243 0
 956 0248 F868     		ldr	r0, [r7, #12]
 957 024a 4E21     		movs	r1, #78
 958 024c 4E22     		movs	r2, #78
 959 024e FFF7FEFF 		bl	_mmcsd_get_slice
 960 0252 0346     		mov	r3, r0
 961 0254 DAB2     		uxtb	r2, r3
 962 0256 3B68     		ldr	r3, [r7]
 963 0258 9A72     		strb	r2, [r3, #10]
 964              		.loc 1 244 0
 965 025a 1037     		adds	r7, r7, #16
ARM GAS  C:\Users\Luis\AppData\Local\Temp\cc23RfwK.s 			page 18


 966 025c BD46     		mov	sp, r7
 967              		@ sp needed
 968 025e 80BD     		pop	{r7, pc}
 969              	.L36:
 970              		.align	2
 971              	.L35:
 972 0260 00000000 		.word	__func__.7945
 973              		.cfi_endproc
 974              	.LFE265:
 975              		.size	_mmcsd_unpack_csd_mmc, .-_mmcsd_unpack_csd_mmc
 976 0264 AFF30080 		.section	.text._mmcsd_unpack_csd_v10,"ax",%progbits
 976      AFF30080 
 976      AFF30080 
 977              		.align	2
 978              		.p2align 4,,15
 979              		.global	_mmcsd_unpack_csd_v10
 980              		.thumb
 981              		.thumb_func
 982              		.type	_mmcsd_unpack_csd_v10, %function
 983              	_mmcsd_unpack_csd_v10:
 984              	.LFB266:
 985              		.loc 1 255 0
 986              		.cfi_startproc
 987              		@ args = 0, pretend = 0, frame = 16
 988              		@ frame_needed = 1, uses_anonymous_args = 0
 989 0000 80B5     		push	{r7, lr}
 990              		.cfi_def_cfa_offset 8
 991              		.cfi_offset 7, -8
 992              		.cfi_offset 14, -4
 993 0002 84B0     		sub	sp, sp, #16
 994              		.cfi_def_cfa_offset 24
 995 0004 00AF     		add	r7, sp, #0
 996              		.cfi_def_cfa_register 7
 997 0006 7860     		str	r0, [r7, #4]
 998 0008 3960     		str	r1, [r7]
 999              		.loc 1 258 0
 1000 000a 7B68     		ldr	r3, [r7, #4]
 1001 000c 002B     		cmp	r3, #0
 1002 000e 02D1     		bne	.L38
 1003              		.loc 1 258 0 is_stmt 0 discriminator 1
 1004 0010 7448     		ldr	r0, .L39
 1005 0012 FFF7FEFF 		bl	chSysHalt
 1006              	.L38:
 1007              		.loc 1 260 0 is_stmt 1
 1008 0016 7B68     		ldr	r3, [r7, #4]
 1009 0018 1833     		adds	r3, r3, #24
 1010 001a FB60     		str	r3, [r7, #12]
 1011              		.loc 1 261 0
 1012 001c F868     		ldr	r0, [r7, #12]
 1013 001e 4921     		movs	r1, #73
 1014 0020 3E22     		movs	r2, #62
 1015 0022 FFF7FEFF 		bl	_mmcsd_get_slice
 1016 0026 0346     		mov	r3, r0
 1017 0028 9AB2     		uxth	r2, r3
 1018 002a 3B68     		ldr	r3, [r7]
 1019 002c 9A81     		strh	r2, [r3, #12]	@ movhi
 1020              		.loc 1 262 0
ARM GAS  C:\Users\Luis\AppData\Local\Temp\cc23RfwK.s 			page 19


 1021 002e F868     		ldr	r0, [r7, #12]
 1022 0030 3121     		movs	r1, #49
 1023 0032 2F22     		movs	r2, #47
 1024 0034 FFF7FEFF 		bl	_mmcsd_get_slice
 1025 0038 0346     		mov	r3, r0
 1026 003a DAB2     		uxtb	r2, r3
 1027 003c 3B68     		ldr	r3, [r7]
 1028 003e 9A74     		strb	r2, [r3, #18]
 1029              		.loc 1 263 0
 1030 0040 F868     		ldr	r0, [r7, #12]
 1031 0042 5F21     		movs	r1, #95
 1032 0044 5422     		movs	r2, #84
 1033 0046 FFF7FEFF 		bl	_mmcsd_get_slice
 1034 004a 0346     		mov	r3, r0
 1035 004c 9AB2     		uxth	r2, r3
 1036 004e 3B68     		ldr	r3, [r7]
 1037 0050 9A80     		strh	r2, [r3, #4]	@ movhi
 1038              		.loc 1 264 0
 1039 0052 F868     		ldr	r0, [r7, #12]
 1040 0054 0E21     		movs	r1, #14
 1041 0056 0E22     		movs	r2, #14
 1042 0058 FFF7FEFF 		bl	_mmcsd_get_slice
 1043 005c 0346     		mov	r3, r0
 1044 005e DAB2     		uxtb	r2, r3
 1045 0060 3B68     		ldr	r3, [r7]
 1046 0062 DA76     		strb	r2, [r3, #27]
 1047              		.loc 1 265 0
 1048 0064 F868     		ldr	r0, [r7, #12]
 1049 0066 0721     		movs	r1, #7
 1050 0068 0122     		movs	r2, #1
 1051 006a FFF7FEFF 		bl	_mmcsd_get_slice
 1052 006e 0346     		mov	r3, r0
 1053 0070 DAB2     		uxtb	r2, r3
 1054 0072 3B68     		ldr	r3, [r7]
 1055 0074 DA77     		strb	r2, [r3, #31]
 1056              		.loc 1 266 0
 1057 0076 F868     		ldr	r0, [r7, #12]
 1058 0078 7F21     		movs	r1, #127
 1059 007a 7E22     		movs	r2, #126
 1060 007c FFF7FEFF 		bl	_mmcsd_get_slice
 1061 0080 0346     		mov	r3, r0
 1062 0082 DAB2     		uxtb	r2, r3
 1063 0084 3B68     		ldr	r3, [r7]
 1064 0086 1A70     		strb	r2, [r3]
 1065              		.loc 1 267 0
 1066 0088 F868     		ldr	r0, [r7, #12]
 1067 008a 4C21     		movs	r1, #76
 1068 008c 4C22     		movs	r2, #76
 1069 008e FFF7FEFF 		bl	_mmcsd_get_slice
 1070 0092 0346     		mov	r3, r0
 1071 0094 DAB2     		uxtb	r2, r3
 1072 0096 3B68     		ldr	r3, [r7]
 1073 0098 9A72     		strb	r2, [r3, #10]
 1074              		.loc 1 268 0
 1075 009a F868     		ldr	r0, [r7, #12]
 1076 009c 2E21     		movs	r1, #46
 1077 009e 2E22     		movs	r2, #46
ARM GAS  C:\Users\Luis\AppData\Local\Temp\cc23RfwK.s 			page 20


 1078 00a0 FFF7FEFF 		bl	_mmcsd_get_slice
 1079 00a4 0346     		mov	r3, r0
 1080 00a6 DAB2     		uxtb	r2, r3
 1081 00a8 3B68     		ldr	r3, [r7]
 1082 00aa DA74     		strb	r2, [r3, #19]
 1083              		.loc 1 269 0
 1084 00ac F868     		ldr	r0, [r7, #12]
 1085 00ae 2D21     		movs	r1, #45
 1086 00b0 2722     		movs	r2, #39
 1087 00b2 FFF7FEFF 		bl	_mmcsd_get_slice
 1088 00b6 0346     		mov	r3, r0
 1089 00b8 DAB2     		uxtb	r2, r3
 1090 00ba 3B68     		ldr	r3, [r7]
 1091 00bc 1A75     		strb	r2, [r3, #20]
 1092              		.loc 1 270 0
 1093 00be F868     		ldr	r0, [r7, #12]
 1094 00c0 0B21     		movs	r1, #11
 1095 00c2 0A22     		movs	r2, #10
 1096 00c4 FFF7FEFF 		bl	_mmcsd_get_slice
 1097 00c8 0346     		mov	r3, r0
 1098 00ca DAB2     		uxtb	r2, r3
 1099 00cc 3B68     		ldr	r3, [r7]
 1100 00ce 9A77     		strb	r2, [r3, #30]
 1101              		.loc 1 271 0
 1102 00d0 F868     		ldr	r0, [r7, #12]
 1103 00d2 0F21     		movs	r1, #15
 1104 00d4 0F22     		movs	r2, #15
 1105 00d6 FFF7FEFF 		bl	_mmcsd_get_slice
 1106 00da 0346     		mov	r3, r0
 1107 00dc DAB2     		uxtb	r2, r3
 1108 00de 3B68     		ldr	r3, [r7]
 1109 00e0 9A76     		strb	r2, [r3, #26]
 1110              		.loc 1 272 0
 1111 00e2 F868     		ldr	r0, [r7, #12]
 1112 00e4 6F21     		movs	r1, #111
 1113 00e6 6822     		movs	r2, #104
 1114 00e8 FFF7FEFF 		bl	_mmcsd_get_slice
 1115 00ec 0346     		mov	r3, r0
 1116 00ee DAB2     		uxtb	r2, r3
 1117 00f0 3B68     		ldr	r3, [r7]
 1118 00f2 9A70     		strb	r2, [r3, #2]
 1119              		.loc 1 273 0
 1120 00f4 F868     		ldr	r0, [r7, #12]
 1121 00f6 0D21     		movs	r1, #13
 1122 00f8 0D22     		movs	r2, #13
 1123 00fa FFF7FEFF 		bl	_mmcsd_get_slice
 1124 00fe 0346     		mov	r3, r0
 1125 0100 DAB2     		uxtb	r2, r3
 1126 0102 3B68     		ldr	r3, [r7]
 1127 0104 1A77     		strb	r2, [r3, #28]
 1128              		.loc 1 274 0
 1129 0106 F868     		ldr	r0, [r7, #12]
 1130 0108 1C21     		movs	r1, #28
 1131 010a 1A22     		movs	r2, #26
 1132 010c FFF7FEFF 		bl	_mmcsd_get_slice
 1133 0110 0346     		mov	r3, r0
 1134 0112 DAB2     		uxtb	r2, r3
ARM GAS  C:\Users\Luis\AppData\Local\Temp\cc23RfwK.s 			page 21


 1135 0114 3B68     		ldr	r3, [r7]
 1136 0116 DA75     		strb	r2, [r3, #23]
 1137              		.loc 1 275 0
 1138 0118 F868     		ldr	r0, [r7, #12]
 1139 011a 5321     		movs	r1, #83
 1140 011c 5022     		movs	r2, #80
 1141 011e FFF7FEFF 		bl	_mmcsd_get_slice
 1142 0122 0346     		mov	r3, r0
 1143 0124 DAB2     		uxtb	r2, r3
 1144 0126 3B68     		ldr	r3, [r7]
 1145 0128 9A71     		strb	r2, [r3, #6]
 1146              		.loc 1 276 0
 1147 012a F868     		ldr	r0, [r7, #12]
 1148 012c 4F21     		movs	r1, #79
 1149 012e 4F22     		movs	r2, #79
 1150 0130 FFF7FEFF 		bl	_mmcsd_get_slice
 1151 0134 0346     		mov	r3, r0
 1152 0136 DAB2     		uxtb	r2, r3
 1153 0138 3B68     		ldr	r3, [r7]
 1154 013a DA71     		strb	r2, [r3, #7]
 1155              		.loc 1 277 0
 1156 013c F868     		ldr	r0, [r7, #12]
 1157 013e 4D21     		movs	r1, #77
 1158 0140 4D22     		movs	r2, #77
 1159 0142 FFF7FEFF 		bl	_mmcsd_get_slice
 1160 0146 0346     		mov	r3, r0
 1161 0148 DAB2     		uxtb	r2, r3
 1162 014a 3B68     		ldr	r3, [r7]
 1163 014c 5A72     		strb	r2, [r3, #9]
 1164              		.loc 1 278 0
 1165 014e F868     		ldr	r0, [r7, #12]
 1166 0150 7721     		movs	r1, #119
 1167 0152 7022     		movs	r2, #112
 1168 0154 FFF7FEFF 		bl	_mmcsd_get_slice
 1169 0158 0346     		mov	r3, r0
 1170 015a DAB2     		uxtb	r2, r3
 1171 015c 3B68     		ldr	r3, [r7]
 1172 015e 5A70     		strb	r2, [r3, #1]
 1173              		.loc 1 279 0
 1174 0160 F868     		ldr	r0, [r7, #12]
 1175 0162 0C21     		movs	r1, #12
 1176 0164 0C22     		movs	r2, #12
 1177 0166 FFF7FEFF 		bl	_mmcsd_get_slice
 1178 016a 0346     		mov	r3, r0
 1179 016c DAB2     		uxtb	r2, r3
 1180 016e 3B68     		ldr	r3, [r7]
 1181 0170 5A77     		strb	r2, [r3, #29]
 1182              		.loc 1 280 0
 1183 0172 F868     		ldr	r0, [r7, #12]
 1184 0174 6721     		movs	r1, #103
 1185 0176 6022     		movs	r2, #96
 1186 0178 FFF7FEFF 		bl	_mmcsd_get_slice
 1187 017c 0346     		mov	r3, r0
 1188 017e DAB2     		uxtb	r2, r3
 1189 0180 3B68     		ldr	r3, [r7]
 1190 0182 DA70     		strb	r2, [r3, #3]
 1191              		.loc 1 281 0
ARM GAS  C:\Users\Luis\AppData\Local\Temp\cc23RfwK.s 			page 22


 1192 0184 F868     		ldr	r0, [r7, #12]
 1193 0186 1F21     		movs	r1, #31
 1194 0188 1F22     		movs	r2, #31
 1195 018a FFF7FEFF 		bl	_mmcsd_get_slice
 1196 018e 0346     		mov	r3, r0
 1197 0190 DAB2     		uxtb	r2, r3
 1198 0192 3B68     		ldr	r3, [r7]
 1199 0194 9A75     		strb	r2, [r3, #22]
 1200              		.loc 1 282 0
 1201 0196 F868     		ldr	r0, [r7, #12]
 1202 0198 2621     		movs	r1, #38
 1203 019a 2022     		movs	r2, #32
 1204 019c FFF7FEFF 		bl	_mmcsd_get_slice
 1205 01a0 0346     		mov	r3, r0
 1206 01a2 DAB2     		uxtb	r2, r3
 1207 01a4 3B68     		ldr	r3, [r7]
 1208 01a6 5A75     		strb	r2, [r3, #21]
 1209              		.loc 1 283 0
 1210 01a8 F868     		ldr	r0, [r7, #12]
 1211 01aa 1921     		movs	r1, #25
 1212 01ac 0C22     		movs	r2, #12
 1213 01ae FFF7FEFF 		bl	_mmcsd_get_slice
 1214 01b2 0346     		mov	r3, r0
 1215 01b4 DAB2     		uxtb	r2, r3
 1216 01b6 3B68     		ldr	r3, [r7]
 1217 01b8 1A76     		strb	r2, [r3, #24]
 1218              		.loc 1 284 0
 1219 01ba F868     		ldr	r0, [r7, #12]
 1220 01bc 1521     		movs	r1, #21
 1221 01be 1522     		movs	r2, #21
 1222 01c0 FFF7FEFF 		bl	_mmcsd_get_slice
 1223 01c4 0346     		mov	r3, r0
 1224 01c6 DAB2     		uxtb	r2, r3
 1225 01c8 3B68     		ldr	r3, [r7]
 1226 01ca 5A76     		strb	r2, [r3, #25]
 1227              		.loc 1 285 0
 1228 01cc F868     		ldr	r0, [r7, #12]
 1229 01ce 4E21     		movs	r1, #78
 1230 01d0 4E22     		movs	r2, #78
 1231 01d2 FFF7FEFF 		bl	_mmcsd_get_slice
 1232 01d6 0346     		mov	r3, r0
 1233 01d8 DAB2     		uxtb	r2, r3
 1234 01da 3B68     		ldr	r3, [r7]
 1235 01dc 1A72     		strb	r2, [r3, #8]
 1236              		.loc 1 286 0
 1237 01de 1037     		adds	r7, r7, #16
 1238 01e0 BD46     		mov	sp, r7
 1239              		@ sp needed
 1240 01e2 80BD     		pop	{r7, pc}
 1241              	.L40:
 1242              		.align	2
 1243              	.L39:
 1244 01e4 00000000 		.word	__func__.7951
 1245              		.cfi_endproc
 1246              	.LFE266:
 1247              		.size	_mmcsd_unpack_csd_v10, .-_mmcsd_unpack_csd_v10
 1248 01e8 AFF30080 		.section	.text._mmcsd_unpack_csd_v20,"ax",%progbits
ARM GAS  C:\Users\Luis\AppData\Local\Temp\cc23RfwK.s 			page 23


 1248      AFF30080 
 1249              		.align	2
 1250              		.p2align 4,,15
 1251              		.global	_mmcsd_unpack_csd_v20
 1252              		.thumb
 1253              		.thumb_func
 1254              		.type	_mmcsd_unpack_csd_v20, %function
 1255              	_mmcsd_unpack_csd_v20:
 1256              	.LFB267:
 1257              		.loc 1 297 0
 1258              		.cfi_startproc
 1259              		@ args = 0, pretend = 0, frame = 16
 1260              		@ frame_needed = 1, uses_anonymous_args = 0
 1261 0000 80B5     		push	{r7, lr}
 1262              		.cfi_def_cfa_offset 8
 1263              		.cfi_offset 7, -8
 1264              		.cfi_offset 14, -4
 1265 0002 84B0     		sub	sp, sp, #16
 1266              		.cfi_def_cfa_offset 24
 1267 0004 00AF     		add	r7, sp, #0
 1268              		.cfi_def_cfa_register 7
 1269 0006 7860     		str	r0, [r7, #4]
 1270 0008 3960     		str	r1, [r7]
 1271              		.loc 1 300 0
 1272 000a 7B68     		ldr	r3, [r7, #4]
 1273 000c 002B     		cmp	r3, #0
 1274 000e 02D1     		bne	.L42
 1275              		.loc 1 300 0 is_stmt 0 discriminator 1
 1276 0010 6F48     		ldr	r0, .L43
 1277 0012 FFF7FEFF 		bl	chSysHalt
 1278              	.L42:
 1279              		.loc 1 302 0 is_stmt 1
 1280 0016 7B68     		ldr	r3, [r7, #4]
 1281 0018 1833     		adds	r3, r3, #24
 1282 001a FB60     		str	r3, [r7, #12]
 1283              		.loc 1 303 0
 1284 001c F868     		ldr	r0, [r7, #12]
 1285 001e 4521     		movs	r1, #69
 1286 0020 3022     		movs	r2, #48
 1287 0022 FFF7FEFF 		bl	_mmcsd_get_slice
 1288 0026 0246     		mov	r2, r0
 1289 0028 3B68     		ldr	r3, [r7]
 1290 002a DA60     		str	r2, [r3, #12]
 1291              		.loc 1 304 0
 1292 002c F868     		ldr	r0, [r7, #12]
 1293 002e 0721     		movs	r1, #7
 1294 0030 0122     		movs	r2, #1
 1295 0032 FFF7FEFF 		bl	_mmcsd_get_slice
 1296 0036 0346     		mov	r3, r0
 1297 0038 DAB2     		uxtb	r2, r3
 1298 003a 3B68     		ldr	r3, [r7]
 1299 003c 1A77     		strb	r2, [r3, #28]
 1300              		.loc 1 305 0
 1301 003e F868     		ldr	r0, [r7, #12]
 1302 0040 5F21     		movs	r1, #95
 1303 0042 5422     		movs	r2, #84
 1304 0044 FFF7FEFF 		bl	_mmcsd_get_slice
ARM GAS  C:\Users\Luis\AppData\Local\Temp\cc23RfwK.s 			page 24


 1305 0048 0346     		mov	r3, r0
 1306 004a 9AB2     		uxth	r2, r3
 1307 004c 3B68     		ldr	r3, [r7]
 1308 004e 9A80     		strh	r2, [r3, #4]	@ movhi
 1309              		.loc 1 306 0
 1310 0050 F868     		ldr	r0, [r7, #12]
 1311 0052 0E21     		movs	r1, #14
 1312 0054 0E22     		movs	r2, #14
 1313 0056 FFF7FEFF 		bl	_mmcsd_get_slice
 1314 005a 0346     		mov	r3, r0
 1315 005c DAB2     		uxtb	r2, r3
 1316 005e 3B68     		ldr	r3, [r7]
 1317 0060 1A76     		strb	r2, [r3, #24]
 1318              		.loc 1 307 0
 1319 0062 F868     		ldr	r0, [r7, #12]
 1320 0064 7F21     		movs	r1, #127
 1321 0066 7E22     		movs	r2, #126
 1322 0068 FFF7FEFF 		bl	_mmcsd_get_slice
 1323 006c 0346     		mov	r3, r0
 1324 006e DAB2     		uxtb	r2, r3
 1325 0070 3B68     		ldr	r3, [r7]
 1326 0072 1A70     		strb	r2, [r3]
 1327              		.loc 1 308 0
 1328 0074 F868     		ldr	r0, [r7, #12]
 1329 0076 4C21     		movs	r1, #76
 1330 0078 4C22     		movs	r2, #76
 1331 007a FFF7FEFF 		bl	_mmcsd_get_slice
 1332 007e 0346     		mov	r3, r0
 1333 0080 DAB2     		uxtb	r2, r3
 1334 0082 3B68     		ldr	r3, [r7]
 1335 0084 9A72     		strb	r2, [r3, #10]
 1336              		.loc 1 309 0
 1337 0086 F868     		ldr	r0, [r7, #12]
 1338 0088 2E21     		movs	r1, #46
 1339 008a 2E22     		movs	r2, #46
 1340 008c FFF7FEFF 		bl	_mmcsd_get_slice
 1341 0090 0346     		mov	r3, r0
 1342 0092 DAB2     		uxtb	r2, r3
 1343 0094 3B68     		ldr	r3, [r7]
 1344 0096 1A74     		strb	r2, [r3, #16]
 1345              		.loc 1 310 0
 1346 0098 F868     		ldr	r0, [r7, #12]
 1347 009a 0B21     		movs	r1, #11
 1348 009c 0A22     		movs	r2, #10
 1349 009e FFF7FEFF 		bl	_mmcsd_get_slice
 1350 00a2 0346     		mov	r3, r0
 1351 00a4 DAB2     		uxtb	r2, r3
 1352 00a6 3B68     		ldr	r3, [r7]
 1353 00a8 DA76     		strb	r2, [r3, #27]
 1354              		.loc 1 311 0
 1355 00aa F868     		ldr	r0, [r7, #12]
 1356 00ac 0F21     		movs	r1, #15
 1357 00ae 0F22     		movs	r2, #15
 1358 00b0 FFF7FEFF 		bl	_mmcsd_get_slice
 1359 00b4 0346     		mov	r3, r0
 1360 00b6 DAB2     		uxtb	r2, r3
 1361 00b8 3B68     		ldr	r3, [r7]
ARM GAS  C:\Users\Luis\AppData\Local\Temp\cc23RfwK.s 			page 25


 1362 00ba DA75     		strb	r2, [r3, #23]
 1363              		.loc 1 312 0
 1364 00bc F868     		ldr	r0, [r7, #12]
 1365 00be 6F21     		movs	r1, #111
 1366 00c0 6822     		movs	r2, #104
 1367 00c2 FFF7FEFF 		bl	_mmcsd_get_slice
 1368 00c6 0346     		mov	r3, r0
 1369 00c8 DAB2     		uxtb	r2, r3
 1370 00ca 3B68     		ldr	r3, [r7]
 1371 00cc 9A70     		strb	r2, [r3, #2]
 1372              		.loc 1 313 0
 1373 00ce F868     		ldr	r0, [r7, #12]
 1374 00d0 0D21     		movs	r1, #13
 1375 00d2 0D22     		movs	r2, #13
 1376 00d4 FFF7FEFF 		bl	_mmcsd_get_slice
 1377 00d8 0346     		mov	r3, r0
 1378 00da DAB2     		uxtb	r2, r3
 1379 00dc 3B68     		ldr	r3, [r7]
 1380 00de 5A76     		strb	r2, [r3, #25]
 1381              		.loc 1 314 0
 1382 00e0 F868     		ldr	r0, [r7, #12]
 1383 00e2 1C21     		movs	r1, #28
 1384 00e4 1A22     		movs	r2, #26
 1385 00e6 FFF7FEFF 		bl	_mmcsd_get_slice
 1386 00ea 0346     		mov	r3, r0
 1387 00ec DAB2     		uxtb	r2, r3
 1388 00ee 3B68     		ldr	r3, [r7]
 1389 00f0 1A75     		strb	r2, [r3, #20]
 1390              		.loc 1 315 0
 1391 00f2 F868     		ldr	r0, [r7, #12]
 1392 00f4 5321     		movs	r1, #83
 1393 00f6 5022     		movs	r2, #80
 1394 00f8 FFF7FEFF 		bl	_mmcsd_get_slice
 1395 00fc 0346     		mov	r3, r0
 1396 00fe DAB2     		uxtb	r2, r3
 1397 0100 3B68     		ldr	r3, [r7]
 1398 0102 9A71     		strb	r2, [r3, #6]
 1399              		.loc 1 316 0
 1400 0104 F868     		ldr	r0, [r7, #12]
 1401 0106 4F21     		movs	r1, #79
 1402 0108 4F22     		movs	r2, #79
 1403 010a FFF7FEFF 		bl	_mmcsd_get_slice
 1404 010e 0346     		mov	r3, r0
 1405 0110 DAB2     		uxtb	r2, r3
 1406 0112 3B68     		ldr	r3, [r7]
 1407 0114 DA71     		strb	r2, [r3, #7]
 1408              		.loc 1 317 0
 1409 0116 F868     		ldr	r0, [r7, #12]
 1410 0118 4D21     		movs	r1, #77
 1411 011a 4D22     		movs	r2, #77
 1412 011c FFF7FEFF 		bl	_mmcsd_get_slice
 1413 0120 0346     		mov	r3, r0
 1414 0122 DAB2     		uxtb	r2, r3
 1415 0124 3B68     		ldr	r3, [r7]
 1416 0126 5A72     		strb	r2, [r3, #9]
 1417              		.loc 1 318 0
 1418 0128 F868     		ldr	r0, [r7, #12]
ARM GAS  C:\Users\Luis\AppData\Local\Temp\cc23RfwK.s 			page 26


 1419 012a 2D21     		movs	r1, #45
 1420 012c 2722     		movs	r2, #39
 1421 012e FFF7FEFF 		bl	_mmcsd_get_slice
 1422 0132 0346     		mov	r3, r0
 1423 0134 DAB2     		uxtb	r2, r3
 1424 0136 3B68     		ldr	r3, [r7]
 1425 0138 5A74     		strb	r2, [r3, #17]
 1426              		.loc 1 319 0
 1427 013a F868     		ldr	r0, [r7, #12]
 1428 013c 7721     		movs	r1, #119
 1429 013e 7022     		movs	r2, #112
 1430 0140 FFF7FEFF 		bl	_mmcsd_get_slice
 1431 0144 0346     		mov	r3, r0
 1432 0146 DAB2     		uxtb	r2, r3
 1433 0148 3B68     		ldr	r3, [r7]
 1434 014a 5A70     		strb	r2, [r3, #1]
 1435              		.loc 1 320 0
 1436 014c F868     		ldr	r0, [r7, #12]
 1437 014e 0C21     		movs	r1, #12
 1438 0150 0C22     		movs	r2, #12
 1439 0152 FFF7FEFF 		bl	_mmcsd_get_slice
 1440 0156 0346     		mov	r3, r0
 1441 0158 DAB2     		uxtb	r2, r3
 1442 015a 3B68     		ldr	r3, [r7]
 1443 015c 9A76     		strb	r2, [r3, #26]
 1444              		.loc 1 321 0
 1445 015e F868     		ldr	r0, [r7, #12]
 1446 0160 6721     		movs	r1, #103
 1447 0162 6022     		movs	r2, #96
 1448 0164 FFF7FEFF 		bl	_mmcsd_get_slice
 1449 0168 0346     		mov	r3, r0
 1450 016a DAB2     		uxtb	r2, r3
 1451 016c 3B68     		ldr	r3, [r7]
 1452 016e DA70     		strb	r2, [r3, #3]
 1453              		.loc 1 322 0
 1454 0170 F868     		ldr	r0, [r7, #12]
 1455 0172 1F21     		movs	r1, #31
 1456 0174 1F22     		movs	r2, #31
 1457 0176 FFF7FEFF 		bl	_mmcsd_get_slice
 1458 017a 0346     		mov	r3, r0
 1459 017c DAB2     		uxtb	r2, r3
 1460 017e 3B68     		ldr	r3, [r7]
 1461 0180 DA74     		strb	r2, [r3, #19]
 1462              		.loc 1 323 0
 1463 0182 F868     		ldr	r0, [r7, #12]
 1464 0184 2621     		movs	r1, #38
 1465 0186 2022     		movs	r2, #32
 1466 0188 FFF7FEFF 		bl	_mmcsd_get_slice
 1467 018c 0346     		mov	r3, r0
 1468 018e DAB2     		uxtb	r2, r3
 1469 0190 3B68     		ldr	r3, [r7]
 1470 0192 9A74     		strb	r2, [r3, #18]
 1471              		.loc 1 324 0
 1472 0194 F868     		ldr	r0, [r7, #12]
 1473 0196 1921     		movs	r1, #25
 1474 0198 0C22     		movs	r2, #12
 1475 019a FFF7FEFF 		bl	_mmcsd_get_slice
ARM GAS  C:\Users\Luis\AppData\Local\Temp\cc23RfwK.s 			page 27


 1476 019e 0346     		mov	r3, r0
 1477 01a0 DAB2     		uxtb	r2, r3
 1478 01a2 3B68     		ldr	r3, [r7]
 1479 01a4 5A75     		strb	r2, [r3, #21]
 1480              		.loc 1 325 0
 1481 01a6 F868     		ldr	r0, [r7, #12]
 1482 01a8 1521     		movs	r1, #21
 1483 01aa 1522     		movs	r2, #21
 1484 01ac FFF7FEFF 		bl	_mmcsd_get_slice
 1485 01b0 0346     		mov	r3, r0
 1486 01b2 DAB2     		uxtb	r2, r3
 1487 01b4 3B68     		ldr	r3, [r7]
 1488 01b6 9A75     		strb	r2, [r3, #22]
 1489              		.loc 1 326 0
 1490 01b8 F868     		ldr	r0, [r7, #12]
 1491 01ba 4E21     		movs	r1, #78
 1492 01bc 4E22     		movs	r2, #78
 1493 01be FFF7FEFF 		bl	_mmcsd_get_slice
 1494 01c2 0346     		mov	r3, r0
 1495 01c4 DAB2     		uxtb	r2, r3
 1496 01c6 3B68     		ldr	r3, [r7]
 1497 01c8 1A72     		strb	r2, [r3, #8]
 1498              		.loc 1 327 0
 1499 01ca 1037     		adds	r7, r7, #16
 1500 01cc BD46     		mov	sp, r7
 1501              		@ sp needed
 1502 01ce 80BD     		pop	{r7, pc}
 1503              	.L44:
 1504              		.align	2
 1505              	.L43:
 1506 01d0 00000000 		.word	__func__.7957
 1507              		.cfi_endproc
 1508              	.LFE267:
 1509              		.size	_mmcsd_unpack_csd_v20, .-_mmcsd_unpack_csd_v20
 1510 01d4 AFF30080 		.section	.rodata.__func__.7912,"a",%progbits
 1510      AFF30080 
 1510      AFF30080 
 1511              		.align	2
 1512              		.type	__func__.7912, %object
 1513              		.size	__func__.7912, 17
 1514              	__func__.7912:
 1515 0000 5F6D6D63 		.ascii	"_mmcsd_get_slice\000"
 1515      73645F67 
 1515      65745F73 
 1515      6C696365 
 1515      00
 1516 0011 000000   		.section	.rodata.__func__.7919,"a",%progbits
 1517              		.align	2
 1518              		.type	__func__.7919, %object
 1519              		.size	__func__.7919, 20
 1520              	__func__.7919:
 1521 0000 5F6D6D63 		.ascii	"_mmcsd_get_capacity\000"
 1521      73645F67 
 1521      65745F63 
 1521      61706163 
 1521      69747900 
 1522              		.section	.rodata.__func__.7927,"a",%progbits
ARM GAS  C:\Users\Luis\AppData\Local\Temp\cc23RfwK.s 			page 28


 1523              		.align	2
 1524              		.type	__func__.7927, %object
 1525              		.size	__func__.7927, 24
 1526              	__func__.7927:
 1527 0000 5F6D6D63 		.ascii	"_mmcsd_get_capacity_ext\000"
 1527      73645F67 
 1527      65745F63 
 1527      61706163 
 1527      6974795F 
 1528              		.section	.rodata.__func__.7933,"a",%progbits
 1529              		.align	2
 1530              		.type	__func__.7933, %object
 1531              		.size	__func__.7933, 22
 1532              	__func__.7933:
 1533 0000 5F6D6D63 		.ascii	"_mmcsd_unpack_sdc_cid\000"
 1533      73645F75 
 1533      6E706163 
 1533      6B5F7364 
 1533      635F6369 
 1534 0016 0000     		.section	.rodata.__func__.7939,"a",%progbits
 1535              		.align	2
 1536              		.type	__func__.7939, %object
 1537              		.size	__func__.7939, 22
 1538              	__func__.7939:
 1539 0000 5F6D6D63 		.ascii	"_mmcsd_unpack_mmc_cid\000"
 1539      73645F75 
 1539      6E706163 
 1539      6B5F6D6D 
 1539      635F6369 
 1540 0016 0000     		.section	.rodata.__func__.7945,"a",%progbits
 1541              		.align	2
 1542              		.type	__func__.7945, %object
 1543              		.size	__func__.7945, 22
 1544              	__func__.7945:
 1545 0000 5F6D6D63 		.ascii	"_mmcsd_unpack_csd_mmc\000"
 1545      73645F75 
 1545      6E706163 
 1545      6B5F6373 
 1545      645F6D6D 
 1546 0016 0000     		.section	.rodata.__func__.7951,"a",%progbits
 1547              		.align	2
 1548              		.type	__func__.7951, %object
 1549              		.size	__func__.7951, 22
 1550              	__func__.7951:
 1551 0000 5F6D6D63 		.ascii	"_mmcsd_unpack_csd_v10\000"
 1551      73645F75 
 1551      6E706163 
 1551      6B5F6373 
 1551      645F7631 
 1552 0016 0000     		.section	.rodata.__func__.7957,"a",%progbits
 1553              		.align	2
 1554              		.type	__func__.7957, %object
 1555              		.size	__func__.7957, 22
 1556              	__func__.7957:
 1557 0000 5F6D6D63 		.ascii	"_mmcsd_unpack_csd_v20\000"
 1557      73645F75 
 1557      6E706163 
ARM GAS  C:\Users\Luis\AppData\Local\Temp\cc23RfwK.s 			page 29


 1557      6B5F6373 
 1557      645F7632 
 1558 0016 0000     		.text
 1559              	.Letext0:
 1560              		.file 2 "c:\\emtechesdk\\gcc\\arm-none-eabi\\include\\stdint.h"
 1561              		.file 3 "../../ChibiOS/os/rt/ports/ARMCMx/compilers/GCC/chtypes.h"
 1562              		.file 4 "../../ChibiOS/os/rt/include/chsystypes.h"
 1563              		.file 5 "../../ChibiOS/os/rt/include/chschd.h"
 1564              		.file 6 "../../ChibiOS/os/rt/ports/ARMCMx/chcore.h"
 1565              		.file 7 "../../ChibiOS/os/rt/ports/ARMCMx/chcore_v7m.h"
 1566              		.file 8 "../../ChibiOS/os/rt/include/chdebug.h"
 1567              		.file 9 "../../ChibiOS/os/rt/include/chtm.h"
 1568              		.file 10 "../../ChibiOS/os/rt/include/chstats.h"
 1569              		.file 11 "../../ChibiOS/os/rt/include/chsem.h"
 1570              		.file 12 "../../ChibiOS/os/rt/include/chmtx.h"
 1571              		.file 13 "../../ChibiOS/os/hal/include/hal_ioblock.h"
 1572              		.file 14 "../../ChibiOS/os/hal/include/hal_mmcsd.h"
 1573              		.file 15 "../../ChibiOS/os/ext/CMSIS/include/core_cm4.h"