ARM GAS  C:\Users\Luis\AppData\Local\Temp\cc9YgjIe.s 			page 1


   1              		.syntax unified
   2              		.cpu cortex-m4
   3              		.fpu softvfp
   4              		.eabi_attribute 20, 1
   5              		.eabi_attribute 21, 1
   6              		.eabi_attribute 23, 3
   7              		.eabi_attribute 24, 1
   8              		.eabi_attribute 25, 1
   9              		.eabi_attribute 26, 1
  10              		.eabi_attribute 30, 6
  11              		.eabi_attribute 34, 1
  12              		.eabi_attribute 18, 4
  13              		.thumb
  14              		.file	"IIR.cpp"
  15              		.text
  16              	.Ltext0:
  17              		.cfi_sections	.debug_frame
  18              		.section	.text._ZN3IIRD2Ev,"ax",%progbits
  19              		.align	2
  20              		.p2align 4,,15
  21              		.global	_ZN3IIRD2Ev
  22              		.thumb
  23              		.thumb_func
  24              		.type	_ZN3IIRD2Ev, %function
  25              	_ZN3IIRD2Ev:
  26              	.LFB262:
  27              		.file 1 "IIR.cpp"
  28              		.loc 1 18 0
  29              		.cfi_startproc
  30              		@ args = 0, pretend = 0, frame = 8
  31              		@ frame_needed = 1, uses_anonymous_args = 0
  32 0000 80B5     		push	{r7, lr}
  33              		.cfi_def_cfa_offset 8
  34              		.cfi_offset 7, -8
  35              		.cfi_offset 14, -4
  36 0002 82B0     		sub	sp, sp, #8
  37              		.cfi_def_cfa_offset 16
  38 0004 00AF     		add	r7, sp, #0
  39              		.cfi_def_cfa_register 7
  40 0006 7860     		str	r0, [r7, #4]
  41              	.LBB2:
  42              		.loc 1 18 0
  43 0008 7B68     		ldr	r3, [r7, #4]
  44 000a 0B4A     		ldr	r2, .L5
  45 000c 1A60     		str	r2, [r3]
  46              		.loc 1 19 0
  47 000e 7B68     		ldr	r3, [r7, #4]
  48 0010 5B68     		ldr	r3, [r3, #4]
  49 0012 1846     		mov	r0, r3
  50 0014 FFF7FEFF 		bl	chHeapFree
  51              		.loc 1 20 0
  52 0018 7B68     		ldr	r3, [r7, #4]
  53 001a 9B68     		ldr	r3, [r3, #8]
  54 001c 1846     		mov	r0, r3
  55 001e FFF7FEFF 		bl	chHeapFree
  56              	.LBE2:
  57              		.loc 1 21 0
ARM GAS  C:\Users\Luis\AppData\Local\Temp\cc9YgjIe.s 			page 2


  58 0022 0023     		movs	r3, #0
  59 0024 002B     		cmp	r3, #0
  60 0026 02D0     		beq	.L3
  61              		.loc 1 21 0 is_stmt 0 discriminator 1
  62 0028 7868     		ldr	r0, [r7, #4]
  63 002a FFF7FEFF 		bl	_ZdlPv
  64              	.L3:
  65              		.loc 1 21 0 discriminator 2
  66 002e 7B68     		ldr	r3, [r7, #4]
  67 0030 1846     		mov	r0, r3
  68 0032 0837     		adds	r7, r7, #8
  69 0034 BD46     		mov	sp, r7
  70              		@ sp needed
  71 0036 80BD     		pop	{r7, pc}
  72              	.L6:
  73              		.align	2
  74              	.L5:
  75 0038 08000000 		.word	_ZTV3IIR+8
  76              		.cfi_endproc
  77              	.LFE262:
  78              		.size	_ZN3IIRD2Ev, .-_ZN3IIRD2Ev
  79              		.global	_ZN3IIRD1Ev
  80              		.thumb_set _ZN3IIRD1Ev,_ZN3IIRD2Ev
  81 003c AFF30080 		.section	.text._ZN3IIRD0Ev,"ax",%progbits
  82              		.align	2
  83              		.p2align 4,,15
  84              		.global	_ZN3IIRD0Ev
  85              		.thumb
  86              		.thumb_func
  87              		.type	_ZN3IIRD0Ev, %function
  88              	_ZN3IIRD0Ev:
  89              	.LFB264:
  90              		.loc 1 18 0 is_stmt 1
  91              		.cfi_startproc
  92              		@ args = 0, pretend = 0, frame = 8
  93              		@ frame_needed = 1, uses_anonymous_args = 0
  94 0000 80B5     		push	{r7, lr}
  95              		.cfi_def_cfa_offset 8
  96              		.cfi_offset 7, -8
  97              		.cfi_offset 14, -4
  98 0002 82B0     		sub	sp, sp, #8
  99              		.cfi_def_cfa_offset 16
 100 0004 00AF     		add	r7, sp, #0
 101              		.cfi_def_cfa_register 7
 102 0006 7860     		str	r0, [r7, #4]
 103              		.loc 1 21 0
 104 0008 7868     		ldr	r0, [r7, #4]
 105 000a FFF7FEFF 		bl	_ZN3IIRD1Ev
 106 000e 7868     		ldr	r0, [r7, #4]
 107 0010 FFF7FEFF 		bl	_ZdlPv
 108 0014 7B68     		ldr	r3, [r7, #4]
 109 0016 1846     		mov	r0, r3
 110 0018 0837     		adds	r7, r7, #8
 111 001a BD46     		mov	sp, r7
 112              		@ sp needed
 113 001c 80BD     		pop	{r7, pc}
 114              		.cfi_endproc
ARM GAS  C:\Users\Luis\AppData\Local\Temp\cc9YgjIe.s 			page 3


 115              	.LFE264:
 116              		.size	_ZN3IIRD0Ev, .-_ZN3IIRD0Ev
 117              		.global	__aeabi_fsub
 118 001e 00BF     		.section	.text._ZN3IIR11directFormIEf,"ax",%progbits
 119              		.align	2
 120              		.p2align 4,,15
 121              		.global	_ZN3IIR11directFormIEf
 122              		.thumb
 123              		.thumb_func
 124              		.type	_ZN3IIR11directFormIEf, %function
 125              	_ZN3IIR11directFormIEf:
 126              	.LFB265:
 127              		.loc 1 23 0
 128              		.cfi_startproc
 129              		@ args = 0, pretend = 0, frame = 48
 130              		@ frame_needed = 1, uses_anonymous_args = 0
 131 0000 80B5     		push	{r7, lr}
 132              		.cfi_def_cfa_offset 8
 133              		.cfi_offset 7, -8
 134              		.cfi_offset 14, -4
 135 0002 8EB0     		sub	sp, sp, #56
 136              		.cfi_def_cfa_offset 64
 137 0004 02AF     		add	r7, sp, #8
 138              		.cfi_def_cfa 7, 56
 139 0006 7860     		str	r0, [r7, #4]
 140 0008 3960     		str	r1, [r7]	@ float
 141              	.LBB3:
 142              		.loc 1 26 0
 143 000a 7B68     		ldr	r3, [r7, #4]
 144 000c 9B68     		ldr	r3, [r3, #8]
 145 000e 1846     		mov	r0, r3
 146 0010 FFF7FEFF 		bl	_ZNK10DataFilter15getArrayInputsXEv
 147 0014 F862     		str	r0, [r7, #44]
 148              		.loc 1 27 0
 149 0016 7B68     		ldr	r3, [r7, #4]
 150 0018 9B68     		ldr	r3, [r3, #8]
 151 001a 1846     		mov	r0, r3
 152 001c FFF7FEFF 		bl	_ZNK10DataFilter15getArrayInputsYEv
 153 0020 B862     		str	r0, [r7, #40]
 154              		.loc 1 29 0
 155 0022 7B68     		ldr	r3, [r7, #4]
 156 0024 9B68     		ldr	r3, [r3, #8]
 157 0026 1846     		mov	r0, r3
 158 0028 FFF7FEFF 		bl	_ZNK10DataFilter14getFilterOrderEv
 159 002c 7862     		str	r0, [r7, #36]
 160              		.loc 1 32 0
 161 002e 4FF00003 		mov	r3, #0
 162 0032 3B62     		str	r3, [r7, #32]	@ float
 163              		.loc 1 33 0
 164 0034 7B68     		ldr	r3, [r7, #4]
 165 0036 9B68     		ldr	r3, [r3, #8]
 166 0038 1846     		mov	r0, r3
 167 003a FFF7FEFF 		bl	_ZNK10DataFilter21getArrayCoefficientsBEv
 168 003e F861     		str	r0, [r7, #28]
 169              		.loc 1 35 0
 170 0040 4FF00003 		mov	r3, #0
 171 0044 BB61     		str	r3, [r7, #24]	@ float
ARM GAS  C:\Users\Luis\AppData\Local\Temp\cc9YgjIe.s 			page 4


 172              		.loc 1 36 0
 173 0046 7B68     		ldr	r3, [r7, #4]
 174 0048 9B68     		ldr	r3, [r3, #8]
 175 004a 1846     		mov	r0, r3
 176 004c FFF7FEFF 		bl	_ZNK10DataFilter21getArrayCoefficientsAEv
 177 0050 7861     		str	r0, [r7, #20]
 178              		.loc 1 41 0
 179 0052 7B68     		ldr	r3, [r7, #4]
 180 0054 DB68     		ldr	r3, [r3, #12]
 181 0056 0A2B     		cmp	r3, #10
 182 0058 0ED1     		bne	.L11
 183              		.loc 1 42 0
 184 005a 7B68     		ldr	r3, [r7, #4]
 185 005c 9B68     		ldr	r3, [r3, #8]
 186 005e 1846     		mov	r0, r3
 187 0060 F96A     		ldr	r1, [r7, #44]
 188 0062 FFF7FEFF 		bl	_ZN10DataFilter9moveArrayEPf
 189              		.loc 1 43 0
 190 0066 7B68     		ldr	r3, [r7, #4]
 191 0068 9B68     		ldr	r3, [r3, #8]
 192 006a 1846     		mov	r0, r3
 193 006c B96A     		ldr	r1, [r7, #40]
 194 006e FFF7FEFF 		bl	_ZN10DataFilter9moveArrayEPf
 195              		.loc 1 44 0
 196 0072 7B68     		ldr	r3, [r7, #4]
 197 0074 0022     		movs	r2, #0
 198 0076 DA60     		str	r2, [r3, #12]
 199              	.L11:
 200              		.loc 1 47 0
 201 0078 7B68     		ldr	r3, [r7, #4]
 202 007a DA68     		ldr	r2, [r3, #12]
 203 007c 7B6A     		ldr	r3, [r7, #36]
 204 007e 1344     		add	r3, r3, r2
 205 0080 3B61     		str	r3, [r7, #16]
 206              		.loc 1 50 0
 207 0082 3B69     		ldr	r3, [r7, #16]
 208 0084 9B00     		lsls	r3, r3, #2
 209 0086 FA6A     		ldr	r2, [r7, #44]
 210 0088 1344     		add	r3, r3, r2
 211 008a 3A68     		ldr	r2, [r7]	@ float
 212 008c 1A60     		str	r2, [r3]	@ float
 213              		.loc 1 54 0
 214 008e 7B68     		ldr	r3, [r7, #4]
 215 0090 5B68     		ldr	r3, [r3, #4]
 216 0092 7A68     		ldr	r2, [r7, #4]
 217 0094 D268     		ldr	r2, [r2, #12]
 218 0096 F96A     		ldr	r1, [r7, #44]
 219 0098 0091     		str	r1, [sp]
 220 009a 0192     		str	r2, [sp, #4]
 221 009c 1846     		mov	r0, r3
 222 009e 796A     		ldr	r1, [r7, #36]
 223 00a0 0022     		movs	r2, #0
 224 00a2 FB69     		ldr	r3, [r7, #28]
 225 00a4 FFF7FEFF 		bl	_ZN12FuntionsMath3sumEiiPfS0_i
 226 00a8 3862     		str	r0, [r7, #32]	@ float
 227              		.loc 1 58 0
 228 00aa 7B68     		ldr	r3, [r7, #4]
ARM GAS  C:\Users\Luis\AppData\Local\Temp\cc9YgjIe.s 			page 5


 229 00ac 5A68     		ldr	r2, [r3, #4]
 230 00ae 7B6A     		ldr	r3, [r7, #36]
 231 00b0 013B     		subs	r3, r3, #1
 232 00b2 7968     		ldr	r1, [r7, #4]
 233 00b4 C968     		ldr	r1, [r1, #12]
 234 00b6 B86A     		ldr	r0, [r7, #40]
 235 00b8 0090     		str	r0, [sp]
 236 00ba 0191     		str	r1, [sp, #4]
 237 00bc 1046     		mov	r0, r2
 238 00be 1946     		mov	r1, r3
 239 00c0 0022     		movs	r2, #0
 240 00c2 7B69     		ldr	r3, [r7, #20]
 241 00c4 FFF7FEFF 		bl	_ZN12FuntionsMath3sumEiiPfS0_i
 242 00c8 B861     		str	r0, [r7, #24]	@ float
 243              		.loc 1 61 0
 244 00ca 386A     		ldr	r0, [r7, #32]	@ float
 245 00cc B969     		ldr	r1, [r7, #24]	@ float
 246 00ce FFF7FEFF 		bl	__aeabi_fsub
 247 00d2 0346     		mov	r3, r0
 248 00d4 FB60     		str	r3, [r7, #12]	@ float
 249              		.loc 1 64 0
 250 00d6 3B69     		ldr	r3, [r7, #16]
 251 00d8 9B00     		lsls	r3, r3, #2
 252 00da BA6A     		ldr	r2, [r7, #40]
 253 00dc 1344     		add	r3, r3, r2
 254 00de FA68     		ldr	r2, [r7, #12]	@ float
 255 00e0 1A60     		str	r2, [r3]	@ float
 256              		.loc 1 66 0
 257 00e2 7B68     		ldr	r3, [r7, #4]
 258 00e4 DB68     		ldr	r3, [r3, #12]
 259 00e6 5A1C     		adds	r2, r3, #1
 260 00e8 7B68     		ldr	r3, [r7, #4]
 261 00ea DA60     		str	r2, [r3, #12]
 262              		.loc 1 68 0
 263 00ec FB68     		ldr	r3, [r7, #12]	@ float
 264              	.LBE3:
 265              		.loc 1 70 0
 266 00ee 1846     		mov	r0, r3
 267 00f0 3037     		adds	r7, r7, #48
 268 00f2 BD46     		mov	sp, r7
 269              		@ sp needed
 270 00f4 80BD     		pop	{r7, pc}
 271              		.cfi_endproc
 272              	.LFE265:
 273              		.size	_ZN3IIR11directFormIEf, .-_ZN3IIR11directFormIEf
 274 00f6 00BFAFF3 		.section	.text._ZN3IIR20setInitialDataFilterEP10DataFilter,"ax",%progbits
 274      0080AFF3 
 274      0080
 275              		.align	2
 276              		.p2align 4,,15
 277              		.global	_ZN3IIR20setInitialDataFilterEP10DataFilter
 278              		.thumb
 279              		.thumb_func
 280              		.type	_ZN3IIR20setInitialDataFilterEP10DataFilter, %function
 281              	_ZN3IIR20setInitialDataFilterEP10DataFilter:
 282              	.LFB266:
 283              		.loc 1 72 0
ARM GAS  C:\Users\Luis\AppData\Local\Temp\cc9YgjIe.s 			page 6


 284              		.cfi_startproc
 285              		@ args = 0, pretend = 0, frame = 8
 286              		@ frame_needed = 1, uses_anonymous_args = 0
 287 0000 80B5     		push	{r7, lr}
 288              		.cfi_def_cfa_offset 8
 289              		.cfi_offset 7, -8
 290              		.cfi_offset 14, -4
 291 0002 82B0     		sub	sp, sp, #8
 292              		.cfi_def_cfa_offset 16
 293 0004 00AF     		add	r7, sp, #0
 294              		.cfi_def_cfa_register 7
 295 0006 7860     		str	r0, [r7, #4]
 296 0008 3960     		str	r1, [r7]
 297              		.loc 1 74 0
 298 000a 0020     		movs	r0, #0
 299 000c 0821     		movs	r1, #8
 300 000e FFF7FEFF 		bl	chHeapAlloc
 301 0012 0246     		mov	r2, r0
 302 0014 7B68     		ldr	r3, [r7, #4]
 303 0016 5A60     		str	r2, [r3, #4]
 304              		.loc 1 75 0
 305 0018 7B68     		ldr	r3, [r7, #4]
 306 001a 3A68     		ldr	r2, [r7]
 307 001c 9A60     		str	r2, [r3, #8]
 308              		.loc 1 76 0
 309 001e 7B68     		ldr	r3, [r7, #4]
 310 0020 0022     		movs	r2, #0
 311 0022 DA60     		str	r2, [r3, #12]
 312              		.loc 1 77 0
 313 0024 7B68     		ldr	r3, [r7, #4]
 314 0026 9B68     		ldr	r3, [r3, #8]
 315 0028 1846     		mov	r0, r3
 316 002a FFF7FEFF 		bl	_ZN10DataFilter16createArrayInputEv
 317              		.loc 1 78 0
 318 002e 0837     		adds	r7, r7, #8
 319 0030 BD46     		mov	sp, r7
 320              		@ sp needed
 321 0032 80BD     		pop	{r7, pc}
 322              		.cfi_endproc
 323              	.LFE266:
 324              		.size	_ZN3IIR20setInitialDataFilterEP10DataFilter, .-_ZN3IIR20setInitialDataFilterEP10DataFilter
 325              		.global	_ZTV3IIR
 326 0034 AFF30080 		.section	.rodata._ZTV3IIR,"a",%progbits
 326      AFF30080 
 326      AFF30080 
 327              		.align	3
 328              		.type	_ZTV3IIR, %object
 329              		.size	_ZTV3IIR, 16
 330              	_ZTV3IIR:
 331 0000 00000000 		.word	0
 332 0004 00000000 		.word	0
 333 0008 00000000 		.word	_ZN3IIRD1Ev
 334 000c 00000000 		.word	_ZN3IIRD0Ev
 335              		.text
 336              	.Letext0:
 337              		.file 2 "c:\\emtechesdk\\gcc\\arm-none-eabi\\include\\stdint.h"
 338              		.file 3 "../../ChibiOS/os/rt/ports/ARMCMx/compilers/GCC/chtypes.h"
ARM GAS  C:\Users\Luis\AppData\Local\Temp\cc9YgjIe.s 			page 7


 339              		.file 4 "../../ChibiOS/os/rt/include/chsystypes.h"
 340              		.file 5 "../../ChibiOS/os/rt/include/chschd.h"
 341              		.file 6 "../../ChibiOS/os/rt/ports/ARMCMx/chcore.h"
 342              		.file 7 "../../ChibiOS/os/rt/ports/ARMCMx/chcore_v7m.h"
 343              		.file 8 "../../ChibiOS/os/rt/include/chdebug.h"
 344              		.file 9 "../../ChibiOS/os/rt/include/chtm.h"
 345              		.file 10 "../../ChibiOS/os/rt/include/chstats.h"
 346              		.file 11 "../../ChibiOS/os/rt/include/chsem.h"
 347              		.file 12 "../../ChibiOS/os/rt/include/chmtx.h"
 348              		.file 13 "header/IIR.h"
 349              		.file 14 "../../ChibiOS/os/ext/CMSIS/include/core_cm4.h"
 350              		.section	.debug_info,"",%progbits
 351              	.Ldebug_info0:
 352 0000 030A0000 		.4byte	0xa03
 353 0004 0400     		.2byte	0x4
 354 0006 00000000 		.4byte	.Ldebug_abbrev0
 355 000a 04       		.byte	0x4
 356 000b 01       		.uleb128 0x1
 357 000c 80040000 		.4byte	.LASF153
 358 0010 04       		.byte	0x4
 359 0011 EE070000 		.4byte	.LASF154
 360 0015 42010000 		.4byte	.LASF155
 361 0019 00000000 		.4byte	.Ldebug_ranges0+0
 362 001d 00000000 		.4byte	0
 363 0021 00000000 		.4byte	.Ldebug_line0
 364 0025 02       		.uleb128 0x2
 365 0026 04       		.byte	0x4
 366 0027 05       		.byte	0x5
 367 0028 696E7400 		.ascii	"int\000"
 368 002c 03       		.uleb128 0x3
 369 002d 04       		.byte	0x4
 370 002e 07       		.byte	0x7
 371 002f 23020000 		.4byte	.LASF0
 372 0033 03       		.uleb128 0x3
 373 0034 01       		.byte	0x1
 374 0035 06       		.byte	0x6
 375 0036 FE000000 		.4byte	.LASF1
 376 003a 04       		.uleb128 0x4
 377 003b 76070000 		.4byte	.LASF5
 378 003f 02       		.byte	0x2
 379 0040 2A       		.byte	0x2a
 380 0041 45000000 		.4byte	0x45
 381 0045 03       		.uleb128 0x3
 382 0046 01       		.byte	0x1
 383 0047 08       		.byte	0x8
 384 0048 F3060000 		.4byte	.LASF2
 385 004c 03       		.uleb128 0x3
 386 004d 02       		.byte	0x2
 387 004e 05       		.byte	0x5
 388 004f B6050000 		.4byte	.LASF3
 389 0053 03       		.uleb128 0x3
 390 0054 02       		.byte	0x2
 391 0055 07       		.byte	0x7
 392 0056 9C020000 		.4byte	.LASF4
 393 005a 04       		.uleb128 0x4
 394 005b 7F050000 		.4byte	.LASF6
 395 005f 02       		.byte	0x2
ARM GAS  C:\Users\Luis\AppData\Local\Temp\cc9YgjIe.s 			page 8


 396 0060 4F       		.byte	0x4f
 397 0061 65000000 		.4byte	0x65
 398 0065 03       		.uleb128 0x3
 399 0066 04       		.byte	0x4
 400 0067 05       		.byte	0x5
 401 0068 85010000 		.4byte	.LASF7
 402 006c 04       		.uleb128 0x4
 403 006d 34060000 		.4byte	.LASF8
 404 0071 02       		.byte	0x2
 405 0072 50       		.byte	0x50
 406 0073 77000000 		.4byte	0x77
 407 0077 03       		.uleb128 0x3
 408 0078 04       		.byte	0x4
 409 0079 07       		.byte	0x7
 410 007a 70060000 		.4byte	.LASF9
 411 007e 03       		.uleb128 0x3
 412 007f 08       		.byte	0x8
 413 0080 05       		.byte	0x5
 414 0081 F0000000 		.4byte	.LASF10
 415 0085 04       		.uleb128 0x4
 416 0086 2D000000 		.4byte	.LASF11
 417 008a 02       		.byte	0x2
 418 008b 78       		.byte	0x78
 419 008c 90000000 		.4byte	0x90
 420 0090 03       		.uleb128 0x3
 421 0091 08       		.byte	0x8
 422 0092 07       		.byte	0x7
 423 0093 6F000000 		.4byte	.LASF12
 424 0097 05       		.uleb128 0x5
 425 0098 5A000000 		.4byte	0x5a
 426 009c 04       		.uleb128 0x4
 427 009d 71030000 		.4byte	.LASF13
 428 00a1 03       		.byte	0x3
 429 00a2 45       		.byte	0x45
 430 00a3 6C000000 		.4byte	0x6c
 431 00a7 04       		.uleb128 0x4
 432 00a8 00000000 		.4byte	.LASF14
 433 00ac 03       		.byte	0x3
 434 00ad 46       		.byte	0x46
 435 00ae 85000000 		.4byte	0x85
 436 00b2 04       		.uleb128 0x4
 437 00b3 F7020000 		.4byte	.LASF15
 438 00b7 03       		.byte	0x3
 439 00b8 48       		.byte	0x48
 440 00b9 3A000000 		.4byte	0x3a
 441 00bd 04       		.uleb128 0x4
 442 00be 8E010000 		.4byte	.LASF16
 443 00c2 03       		.byte	0x3
 444 00c3 49       		.byte	0x49
 445 00c4 3A000000 		.4byte	0x3a
 446 00c8 04       		.uleb128 0x4
 447 00c9 57040000 		.4byte	.LASF17
 448 00cd 03       		.byte	0x3
 449 00ce 4A       		.byte	0x4a
 450 00cf 3A000000 		.4byte	0x3a
 451 00d3 04       		.uleb128 0x4
 452 00d4 6E050000 		.4byte	.LASF18
ARM GAS  C:\Users\Luis\AppData\Local\Temp\cc9YgjIe.s 			page 9


 453 00d8 03       		.byte	0x3
 454 00d9 4C       		.byte	0x4c
 455 00da 6C000000 		.4byte	0x6c
 456 00de 04       		.uleb128 0x4
 457 00df D9020000 		.4byte	.LASF19
 458 00e3 03       		.byte	0x3
 459 00e4 4D       		.byte	0x4d
 460 00e5 5A000000 		.4byte	0x5a
 461 00e9 04       		.uleb128 0x4
 462 00ea 1D030000 		.4byte	.LASF20
 463 00ee 03       		.byte	0x3
 464 00ef 4F       		.byte	0x4f
 465 00f0 6C000000 		.4byte	0x6c
 466 00f4 04       		.uleb128 0x4
 467 00f5 02020000 		.4byte	.LASF21
 468 00f9 03       		.byte	0x3
 469 00fa 51       		.byte	0x51
 470 00fb 5A000000 		.4byte	0x5a
 471 00ff 04       		.uleb128 0x4
 472 0100 E4020000 		.4byte	.LASF22
 473 0104 03       		.byte	0x3
 474 0105 52       		.byte	0x52
 475 0106 6C000000 		.4byte	0x6c
 476 010a 04       		.uleb128 0x4
 477 010b B0060000 		.4byte	.LASF23
 478 010f 04       		.byte	0x4
 479 0110 33       		.byte	0x33
 480 0111 6C000000 		.4byte	0x6c
 481 0115 04       		.uleb128 0x4
 482 0116 51070000 		.4byte	.LASF24
 483 011a 04       		.byte	0x4
 484 011b 3F       		.byte	0x3f
 485 011c 20010000 		.4byte	0x120
 486 0120 06       		.uleb128 0x6
 487 0121 CF020000 		.4byte	.LASF54
 488 0125 68       		.byte	0x68
 489 0126 05       		.byte	0x5
 490 0127 C2       		.byte	0xc2
 491 0128 90020000 		.4byte	0x290
 492 012c 07       		.uleb128 0x7
 493 012d 04       		.byte	0x4
 494 012e 05       		.byte	0x5
 495 012f FA       		.byte	0xfa
 496 0130 89010000 		.4byte	0x189
 497 0134 08       		.uleb128 0x8
 498 0135 26000000 		.4byte	.LASF25
 499 0139 05       		.byte	0x5
 500 013a 0101     		.2byte	0x101
 501 013c DE000000 		.4byte	0xde
 502 0140 08       		.uleb128 0x8
 503 0141 8F000000 		.4byte	.LASF26
 504 0145 05       		.byte	0x5
 505 0146 0801     		.2byte	0x108
 506 0148 DE000000 		.4byte	0xde
 507 014c 08       		.uleb128 0x8
 508 014d 3B010000 		.4byte	.LASF27
 509 0151 05       		.byte	0x5
ARM GAS  C:\Users\Luis\AppData\Local\Temp\cc9YgjIe.s 			page 10


 510 0152 0F01     		.2byte	0x10f
 511 0154 78030000 		.4byte	0x378
 512 0158 08       		.uleb128 0x8
 513 0159 20000000 		.4byte	.LASF28
 514 015d 05       		.byte	0x5
 515 015e 1601     		.2byte	0x116
 516 0160 F7060000 		.4byte	0x6f7
 517 0164 08       		.uleb128 0x8
 518 0165 5C020000 		.4byte	.LASF29
 519 0169 05       		.byte	0x5
 520 016a 1E01     		.2byte	0x11e
 521 016c 22070000 		.4byte	0x722
 522 0170 08       		.uleb128 0x8
 523 0171 3D060000 		.4byte	.LASF30
 524 0175 05       		.byte	0x5
 525 0176 2701     		.2byte	0x127
 526 0178 59070000 		.4byte	0x759
 527 017c 08       		.uleb128 0x8
 528 017d EE050000 		.4byte	.LASF31
 529 0181 05       		.byte	0x5
 530 0182 2F01     		.2byte	0x12f
 531 0184 E9000000 		.4byte	0xe9
 532 0188 00       		.byte	0
 533 0189 09       		.uleb128 0x9
 534 018a F5050000 		.4byte	.LASF32
 535 018e 05       		.byte	0x5
 536 018f C3       		.byte	0xc3
 537 0190 9B020000 		.4byte	0x29b
 538 0194 00       		.byte	0
 539 0195 09       		.uleb128 0x9
 540 0196 79040000 		.4byte	.LASF33
 541 019a 05       		.byte	0x5
 542 019b C5       		.byte	0xc5
 543 019c 9B020000 		.4byte	0x29b
 544 01a0 04       		.byte	0x4
 545 01a1 09       		.uleb128 0x9
 546 01a2 E9000000 		.4byte	.LASF34
 547 01a6 05       		.byte	0x5
 548 01a7 C7       		.byte	0xc7
 549 01a8 D3000000 		.4byte	0xd3
 550 01ac 08       		.byte	0x8
 551 01ad 09       		.uleb128 0x9
 552 01ae 08080000 		.4byte	.LASF35
 553 01b2 05       		.byte	0x5
 554 01b3 C8       		.byte	0xc8
 555 01b4 04050000 		.4byte	0x504
 556 01b8 0C       		.byte	0xc
 557 01b9 09       		.uleb128 0x9
 558 01ba AA010000 		.4byte	.LASF36
 559 01be 05       		.byte	0x5
 560 01bf CA       		.byte	0xca
 561 01c0 9B020000 		.4byte	0x29b
 562 01c4 10       		.byte	0x10
 563 01c5 09       		.uleb128 0x9
 564 01c6 C6030000 		.4byte	.LASF37
 565 01ca 05       		.byte	0x5
 566 01cb CB       		.byte	0xcb
ARM GAS  C:\Users\Luis\AppData\Local\Temp\cc9YgjIe.s 			page 11


 567 01cc 9B020000 		.4byte	0x29b
 568 01d0 14       		.byte	0x14
 569 01d1 09       		.uleb128 0x9
 570 01d2 2D070000 		.4byte	.LASF38
 571 01d6 05       		.byte	0x5
 572 01d7 D2       		.byte	0xd2
 573 01d8 5F070000 		.4byte	0x75f
 574 01dc 18       		.byte	0x18
 575 01dd 09       		.uleb128 0x9
 576 01de 18020000 		.4byte	.LASF39
 577 01e2 05       		.byte	0x5
 578 01e3 D8       		.byte	0xd8
 579 01e4 71070000 		.4byte	0x771
 580 01e8 1C       		.byte	0x1c
 581 01e9 09       		.uleb128 0x9
 582 01ea C0050000 		.4byte	.LASF40
 583 01ee 05       		.byte	0x5
 584 01ef DD       		.byte	0xdd
 585 01f0 BD000000 		.4byte	0xbd
 586 01f4 20       		.byte	0x20
 587 01f5 09       		.uleb128 0x9
 588 01f6 D4070000 		.4byte	.LASF41
 589 01fa 05       		.byte	0x5
 590 01fb E1       		.byte	0xe1
 591 01fc B2000000 		.4byte	0xb2
 592 0200 21       		.byte	0x21
 593 0201 09       		.uleb128 0x9
 594 0202 34070000 		.4byte	.LASF42
 595 0206 05       		.byte	0x5
 596 0207 E6       		.byte	0xe6
 597 0208 C8000000 		.4byte	0xc8
 598 020c 22       		.byte	0x22
 599 020d 0A       		.uleb128 0xa
 600 020e 705F7500 		.ascii	"p_u\000"
 601 0212 05       		.byte	0x5
 602 0213 3101     		.2byte	0x131
 603 0215 2C010000 		.4byte	0x12c
 604 0219 24       		.byte	0x24
 605 021a 0B       		.uleb128 0xb
 606 021b 0E080000 		.4byte	.LASF43
 607 021f 05       		.byte	0x5
 608 0220 3601     		.2byte	0x136
 609 0222 A1020000 		.4byte	0x2a1
 610 0226 28       		.byte	0x28
 611 0227 0B       		.uleb128 0xb
 612 0228 01070000 		.4byte	.LASF44
 613 022c 05       		.byte	0x5
 614 022d 3C01     		.2byte	0x13c
 615 022f C5020000 		.4byte	0x2c5
 616 0233 2C       		.byte	0x2c
 617 0234 0B       		.uleb128 0xb
 618 0235 DC070000 		.4byte	.LASF45
 619 0239 05       		.byte	0x5
 620 023a 4001     		.2byte	0x140
 621 023c DE000000 		.4byte	0xde
 622 0240 34       		.byte	0x34
 623 0241 0B       		.uleb128 0xb
ARM GAS  C:\Users\Luis\AppData\Local\Temp\cc9YgjIe.s 			page 12


 624 0242 29060000 		.4byte	.LASF46
 625 0246 05       		.byte	0x5
 626 0247 4601     		.2byte	0x146
 627 0249 E9000000 		.4byte	0xe9
 628 024d 38       		.byte	0x38
 629 024e 0B       		.uleb128 0xb
 630 024f AC050000 		.4byte	.LASF47
 631 0253 05       		.byte	0x5
 632 0254 4D01     		.2byte	0x14d
 633 0256 59070000 		.4byte	0x759
 634 025a 3C       		.byte	0x3c
 635 025b 0B       		.uleb128 0xb
 636 025c BA060000 		.4byte	.LASF48
 637 0260 05       		.byte	0x5
 638 0261 5101     		.2byte	0x151
 639 0263 D3000000 		.4byte	0xd3
 640 0267 40       		.byte	0x40
 641 0268 0B       		.uleb128 0xb
 642 0269 1F010000 		.4byte	.LASF49
 643 026d 05       		.byte	0x5
 644 026e 5801     		.2byte	0x158
 645 0270 78030000 		.4byte	0x378
 646 0274 44       		.byte	0x44
 647 0275 0B       		.uleb128 0xb
 648 0276 97010000 		.4byte	.LASF50
 649 027a 05       		.byte	0x5
 650 027b 5E01     		.2byte	0x15e
 651 027d A4060000 		.4byte	0x6a4
 652 0281 48       		.byte	0x48
 653 0282 0B       		.uleb128 0xb
 654 0283 7A020000 		.4byte	.LASF51
 655 0287 05       		.byte	0x5
 656 0288 6201     		.2byte	0x162
 657 028a 78030000 		.4byte	0x378
 658 028e 60       		.byte	0x60
 659 028f 00       		.byte	0
 660 0290 04       		.uleb128 0x4
 661 0291 79030000 		.4byte	.LASF52
 662 0295 04       		.byte	0x4
 663 0296 44       		.byte	0x44
 664 0297 9B020000 		.4byte	0x29b
 665 029b 0C       		.uleb128 0xc
 666 029c 04       		.byte	0x4
 667 029d 15010000 		.4byte	0x115
 668 02a1 04       		.uleb128 0x4
 669 02a2 B8070000 		.4byte	.LASF53
 670 02a6 04       		.byte	0x4
 671 02a7 49       		.byte	0x49
 672 02a8 AC020000 		.4byte	0x2ac
 673 02ac 06       		.uleb128 0x6
 674 02ad 55060000 		.4byte	.LASF55
 675 02b1 04       		.byte	0x4
 676 02b2 05       		.byte	0x5
 677 02b3 B0       		.byte	0xb0
 678 02b4 C5020000 		.4byte	0x2c5
 679 02b8 09       		.uleb128 0x9
 680 02b9 F5050000 		.4byte	.LASF32
ARM GAS  C:\Users\Luis\AppData\Local\Temp\cc9YgjIe.s 			page 13


 681 02bd 05       		.byte	0x5
 682 02be B1       		.byte	0xb1
 683 02bf 9B020000 		.4byte	0x29b
 684 02c3 00       		.byte	0
 685 02c4 00       		.byte	0
 686 02c5 04       		.uleb128 0x4
 687 02c6 1D070000 		.4byte	.LASF56
 688 02ca 04       		.byte	0x4
 689 02cb 50       		.byte	0x50
 690 02cc D0020000 		.4byte	0x2d0
 691 02d0 06       		.uleb128 0x6
 692 02d1 D8000000 		.4byte	.LASF57
 693 02d5 08       		.byte	0x8
 694 02d6 05       		.byte	0x5
 695 02d7 B7       		.byte	0xb7
 696 02d8 F5020000 		.4byte	0x2f5
 697 02dc 09       		.uleb128 0x9
 698 02dd F5050000 		.4byte	.LASF32
 699 02e1 05       		.byte	0x5
 700 02e2 B8       		.byte	0xb8
 701 02e3 9B020000 		.4byte	0x29b
 702 02e7 00       		.byte	0
 703 02e8 09       		.uleb128 0x9
 704 02e9 79040000 		.4byte	.LASF33
 705 02ed 05       		.byte	0x5
 706 02ee B9       		.byte	0xb9
 707 02ef 9B020000 		.4byte	0x29b
 708 02f3 04       		.byte	0x4
 709 02f4 00       		.byte	0
 710 02f5 04       		.uleb128 0x4
 711 02f6 09000000 		.4byte	.LASF58
 712 02fa 04       		.byte	0x4
 713 02fb 57       		.byte	0x57
 714 02fc 00030000 		.4byte	0x300
 715 0300 0D       		.uleb128 0xd
 716 0301 0F030000 		.4byte	.LASF59
 717 0305 1C       		.byte	0x1c
 718 0306 05       		.byte	0x5
 719 0307 9001     		.2byte	0x190
 720 0309 5C030000 		.4byte	0x35c
 721 030d 0B       		.uleb128 0xb
 722 030e 44060000 		.4byte	.LASF60
 723 0312 05       		.byte	0x5
 724 0313 9101     		.2byte	0x191
 725 0315 C5020000 		.4byte	0x2c5
 726 0319 00       		.byte	0
 727 031a 0B       		.uleb128 0xb
 728 031b DA050000 		.4byte	.LASF61
 729 031f 05       		.byte	0x5
 730 0320 9201     		.2byte	0x192
 731 0322 D3000000 		.4byte	0xd3
 732 0326 08       		.byte	0x8
 733 0327 0B       		.uleb128 0xb
 734 0328 CE030000 		.4byte	.LASF62
 735 032c 05       		.byte	0x5
 736 032d 9401     		.2byte	0x194
 737 032f 04050000 		.4byte	0x504
ARM GAS  C:\Users\Luis\AppData\Local\Temp\cc9YgjIe.s 			page 14


 738 0333 0C       		.byte	0xc
 739 0334 0B       		.uleb128 0xb
 740 0335 C0010000 		.4byte	.LASF63
 741 0339 05       		.byte	0x5
 742 033a 9701     		.2byte	0x197
 743 033c 9B020000 		.4byte	0x29b
 744 0340 10       		.byte	0x10
 745 0341 0B       		.uleb128 0xb
 746 0342 22040000 		.4byte	.LASF64
 747 0346 05       		.byte	0x5
 748 0347 9801     		.2byte	0x198
 749 0349 9B020000 		.4byte	0x29b
 750 034d 14       		.byte	0x14
 751 034e 0B       		.uleb128 0xb
 752 034f 82060000 		.4byte	.LASF65
 753 0353 05       		.byte	0x5
 754 0354 9B01     		.2byte	0x19b
 755 0356 9B020000 		.4byte	0x29b
 756 035a 18       		.byte	0x18
 757 035b 00       		.byte	0
 758 035c 04       		.uleb128 0x4
 759 035d C5060000 		.4byte	.LASF66
 760 0361 04       		.byte	0x4
 761 0362 5C       		.byte	0x5c
 762 0363 67030000 		.4byte	0x367
 763 0367 0C       		.uleb128 0xc
 764 0368 04       		.byte	0x4
 765 0369 6D030000 		.4byte	0x36d
 766 036d 0E       		.uleb128 0xe
 767 036e 78030000 		.4byte	0x378
 768 0372 0F       		.uleb128 0xf
 769 0373 78030000 		.4byte	0x378
 770 0377 00       		.byte	0
 771 0378 10       		.uleb128 0x10
 772 0379 04       		.byte	0x4
 773 037a 04       		.uleb128 0x4
 774 037b 69040000 		.4byte	.LASF67
 775 037f 04       		.byte	0x4
 776 0380 61       		.byte	0x61
 777 0381 85030000 		.4byte	0x385
 778 0385 0D       		.uleb128 0xd
 779 0386 0B060000 		.4byte	.LASF68
 780 038a 14       		.byte	0x14
 781 038b 05       		.byte	0x5
 782 038c 6B01     		.2byte	0x16b
 783 038e D4030000 		.4byte	0x3d4
 784 0392 0B       		.uleb128 0xb
 785 0393 72020000 		.4byte	.LASF69
 786 0397 05       		.byte	0x5
 787 0398 6C01     		.2byte	0x16c
 788 039a 77070000 		.4byte	0x777
 789 039e 00       		.byte	0
 790 039f 0B       		.uleb128 0xb
 791 03a0 D1010000 		.4byte	.LASF70
 792 03a4 05       		.byte	0x5
 793 03a5 6D01     		.2byte	0x16d
 794 03a7 77070000 		.4byte	0x777
ARM GAS  C:\Users\Luis\AppData\Local\Temp\cc9YgjIe.s 			page 15


 795 03ab 04       		.byte	0x4
 796 03ac 0B       		.uleb128 0xb
 797 03ad 4C060000 		.4byte	.LASF71
 798 03b1 05       		.byte	0x5
 799 03b2 6E01     		.2byte	0x16e
 800 03b4 0A010000 		.4byte	0x10a
 801 03b8 08       		.byte	0x8
 802 03b9 0B       		.uleb128 0xb
 803 03ba A3030000 		.4byte	.LASF72
 804 03be 05       		.byte	0x5
 805 03bf 6F01     		.2byte	0x16f
 806 03c1 5C030000 		.4byte	0x35c
 807 03c5 0C       		.byte	0xc
 808 03c6 0B       		.uleb128 0xb
 809 03c7 0C070000 		.4byte	.LASF73
 810 03cb 05       		.byte	0x5
 811 03cc 7101     		.2byte	0x171
 812 03ce 78030000 		.4byte	0x378
 813 03d2 10       		.byte	0x10
 814 03d3 00       		.byte	0
 815 03d4 04       		.uleb128 0x4
 816 03d5 B5000000 		.4byte	.LASF74
 817 03d9 04       		.byte	0x4
 818 03da 66       		.byte	0x66
 819 03db DF030000 		.4byte	0x3df
 820 03df 0D       		.uleb128 0xd
 821 03e0 8C030000 		.4byte	.LASF75
 822 03e4 10       		.byte	0x10
 823 03e5 05       		.byte	0x5
 824 03e6 7B01     		.2byte	0x17b
 825 03e8 21040000 		.4byte	0x421
 826 03ec 0B       		.uleb128 0xb
 827 03ed 72020000 		.4byte	.LASF69
 828 03f1 05       		.byte	0x5
 829 03f2 7C01     		.2byte	0x17c
 830 03f4 77070000 		.4byte	0x777
 831 03f8 00       		.byte	0
 832 03f9 0B       		.uleb128 0xb
 833 03fa D1010000 		.4byte	.LASF70
 834 03fe 05       		.byte	0x5
 835 03ff 7E01     		.2byte	0x17e
 836 0401 77070000 		.4byte	0x777
 837 0405 04       		.byte	0x4
 838 0406 0B       		.uleb128 0xb
 839 0407 4C060000 		.4byte	.LASF71
 840 040b 05       		.byte	0x5
 841 040c 8001     		.2byte	0x180
 842 040e 0A010000 		.4byte	0x10a
 843 0412 08       		.byte	0x8
 844 0413 0B       		.uleb128 0xb
 845 0414 BA030000 		.4byte	.LASF76
 846 0418 05       		.byte	0x5
 847 0419 8801     		.2byte	0x188
 848 041b 0A010000 		.4byte	0x10a
 849 041f 0C       		.byte	0xc
 850 0420 00       		.byte	0
 851 0421 04       		.uleb128 0x4
ARM GAS  C:\Users\Luis\AppData\Local\Temp\cc9YgjIe.s 			page 16


 852 0422 63020000 		.4byte	.LASF77
 853 0426 04       		.byte	0x4
 854 0427 6B       		.byte	0x6b
 855 0428 2C040000 		.4byte	0x42c
 856 042c 11       		.uleb128 0x11
 857 042d D9010000 		.4byte	.LASF78
 858 0431 1404     		.2byte	0x414
 859 0433 05       		.byte	0x5
 860 0434 A201     		.2byte	0x1a2
 861 0436 6F040000 		.4byte	0x46f
 862 043a 0B       		.uleb128 0xb
 863 043b CE060000 		.4byte	.LASF79
 864 043f 05       		.byte	0x5
 865 0440 AA01     		.2byte	0x1aa
 866 0442 7D070000 		.4byte	0x77d
 867 0446 00       		.byte	0
 868 0447 0B       		.uleb128 0xb
 869 0448 3B070000 		.4byte	.LASF80
 870 044c 05       		.byte	0x5
 871 044d AF01     		.2byte	0x1af
 872 044f F4000000 		.4byte	0xf4
 873 0453 04       		.byte	0x4
 874 0454 0B       		.uleb128 0xb
 875 0455 F1010000 		.4byte	.LASF81
 876 0459 05       		.byte	0x5
 877 045a B301     		.2byte	0x1b3
 878 045c F4000000 		.4byte	0xf4
 879 0460 08       		.byte	0x8
 880 0461 0B       		.uleb128 0xb
 881 0462 C7070000 		.4byte	.LASF82
 882 0466 05       		.byte	0x5
 883 0467 B901     		.2byte	0x1b9
 884 0469 2E060000 		.4byte	0x62e
 885 046d 0C       		.byte	0xc
 886 046e 00       		.byte	0
 887 046f 04       		.uleb128 0x4
 888 0470 EB020000 		.4byte	.LASF83
 889 0474 04       		.byte	0x4
 890 0475 70       		.byte	0x70
 891 0476 7A040000 		.4byte	0x47a
 892 047a 11       		.uleb128 0x11
 893 047b 7B010000 		.4byte	.LASF84
 894 047f E805     		.2byte	0x5e8
 895 0481 05       		.byte	0x5
 896 0482 C201     		.2byte	0x1c2
 897 0484 E7040000 		.4byte	0x4e7
 898 0488 0B       		.uleb128 0xb
 899 0489 70070000 		.4byte	.LASF85
 900 048d 05       		.byte	0x5
 901 048e C601     		.2byte	0x1c6
 902 0490 F5020000 		.4byte	0x2f5
 903 0494 00       		.byte	0
 904 0495 0B       		.uleb128 0xb
 905 0496 4F000000 		.4byte	.LASF86
 906 049a 05       		.byte	0x5
 907 049b CA01     		.2byte	0x1ca
 908 049d D4030000 		.4byte	0x3d4
ARM GAS  C:\Users\Luis\AppData\Local\Temp\cc9YgjIe.s 			page 17


 909 04a1 1C       		.byte	0x1c
 910 04a2 0A       		.uleb128 0xa
 911 04a3 64626700 		.ascii	"dbg\000"
 912 04a7 05       		.byte	0x5
 913 04a8 CE01     		.2byte	0x1ce
 914 04aa 21040000 		.4byte	0x421
 915 04ae 2C       		.byte	0x2c
 916 04af 12       		.uleb128 0x12
 917 04b0 98000000 		.4byte	.LASF87
 918 04b4 05       		.byte	0x5
 919 04b5 D201     		.2byte	0x1d2
 920 04b7 15010000 		.4byte	0x115
 921 04bb 4004     		.2byte	0x440
 922 04bd 13       		.uleb128 0x13
 923 04be 746D00   		.ascii	"tm\000"
 924 04c1 05       		.byte	0x5
 925 04c2 D701     		.2byte	0x1d7
 926 04c4 52060000 		.4byte	0x652
 927 04c8 A804     		.2byte	0x4a8
 928 04ca 12       		.uleb128 0x12
 929 04cb 36000000 		.4byte	.LASF88
 930 04cf 05       		.byte	0x5
 931 04d0 DD01     		.2byte	0x1dd
 932 04d2 EC060000 		.4byte	0x6ec
 933 04d6 B004     		.2byte	0x4b0
 934 04d8 12       		.uleb128 0x12
 935 04d9 FC050000 		.4byte	.LASF89
 936 04dd 05       		.byte	0x5
 937 04de E301     		.2byte	0x1e3
 938 04e0 82070000 		.4byte	0x782
 939 04e4 E804     		.2byte	0x4e8
 940 04e6 00       		.byte	0
 941 04e7 03       		.uleb128 0x3
 942 04e8 04       		.byte	0x4
 943 04e9 07       		.byte	0x7
 944 04ea 7E070000 		.4byte	.LASF90
 945 04ee 04       		.uleb128 0x4
 946 04ef C8010000 		.4byte	.LASF91
 947 04f3 06       		.byte	0x6
 948 04f4 65       		.byte	0x65
 949 04f5 78030000 		.4byte	0x378
 950 04f9 04       		.uleb128 0x4
 951 04fa 4A030000 		.4byte	.LASF92
 952 04fe 06       		.byte	0x6
 953 04ff 6D       		.byte	0x6d
 954 0500 85000000 		.4byte	0x85
 955 0504 06       		.uleb128 0x6
 956 0505 EB060000 		.4byte	.LASF93
 957 0509 04       		.byte	0x4
 958 050a 06       		.byte	0x6
 959 050b 89       		.byte	0x89
 960 050c 1D050000 		.4byte	0x51d
 961 0510 14       		.uleb128 0x14
 962 0511 72313300 		.ascii	"r13\000"
 963 0515 06       		.byte	0x6
 964 0516 8A       		.byte	0x8a
 965 0517 98050000 		.4byte	0x598
ARM GAS  C:\Users\Luis\AppData\Local\Temp\cc9YgjIe.s 			page 18


 966 051b 00       		.byte	0
 967 051c 00       		.byte	0
 968 051d 06       		.uleb128 0x6
 969 051e 43000000 		.4byte	.LASF94
 970 0522 24       		.byte	0x24
 971 0523 07       		.byte	0x7
 972 0524 F4       		.byte	0xf4
 973 0525 98050000 		.4byte	0x598
 974 0529 0A       		.uleb128 0xa
 975 052a 723400   		.ascii	"r4\000"
 976 052d 07       		.byte	0x7
 977 052e 0701     		.2byte	0x107
 978 0530 EE040000 		.4byte	0x4ee
 979 0534 00       		.byte	0
 980 0535 0A       		.uleb128 0xa
 981 0536 723500   		.ascii	"r5\000"
 982 0539 07       		.byte	0x7
 983 053a 0801     		.2byte	0x108
 984 053c EE040000 		.4byte	0x4ee
 985 0540 04       		.byte	0x4
 986 0541 0A       		.uleb128 0xa
 987 0542 723600   		.ascii	"r6\000"
 988 0545 07       		.byte	0x7
 989 0546 0901     		.2byte	0x109
 990 0548 EE040000 		.4byte	0x4ee
 991 054c 08       		.byte	0x8
 992 054d 0A       		.uleb128 0xa
 993 054e 723700   		.ascii	"r7\000"
 994 0551 07       		.byte	0x7
 995 0552 0A01     		.2byte	0x10a
 996 0554 EE040000 		.4byte	0x4ee
 997 0558 0C       		.byte	0xc
 998 0559 0A       		.uleb128 0xa
 999 055a 723800   		.ascii	"r8\000"
 1000 055d 07       		.byte	0x7
 1001 055e 0B01     		.2byte	0x10b
 1002 0560 EE040000 		.4byte	0x4ee
 1003 0564 10       		.byte	0x10
 1004 0565 0A       		.uleb128 0xa
 1005 0566 723900   		.ascii	"r9\000"
 1006 0569 07       		.byte	0x7
 1007 056a 0C01     		.2byte	0x10c
 1008 056c EE040000 		.4byte	0x4ee
 1009 0570 14       		.byte	0x14
 1010 0571 0A       		.uleb128 0xa
 1011 0572 72313000 		.ascii	"r10\000"
 1012 0576 07       		.byte	0x7
 1013 0577 0D01     		.2byte	0x10d
 1014 0579 EE040000 		.4byte	0x4ee
 1015 057d 18       		.byte	0x18
 1016 057e 0A       		.uleb128 0xa
 1017 057f 72313100 		.ascii	"r11\000"
 1018 0583 07       		.byte	0x7
 1019 0584 0E01     		.2byte	0x10e
 1020 0586 EE040000 		.4byte	0x4ee
 1021 058a 1C       		.byte	0x1c
 1022 058b 0A       		.uleb128 0xa
ARM GAS  C:\Users\Luis\AppData\Local\Temp\cc9YgjIe.s 			page 19


 1023 058c 6C7200   		.ascii	"lr\000"
 1024 058f 07       		.byte	0x7
 1025 0590 0F01     		.2byte	0x10f
 1026 0592 EE040000 		.4byte	0x4ee
 1027 0596 20       		.byte	0x20
 1028 0597 00       		.byte	0
 1029 0598 0C       		.uleb128 0xc
 1030 0599 04       		.byte	0x4
 1031 059a 1D050000 		.4byte	0x51d
 1032 059e 15       		.uleb128 0x15
 1033 059f 10       		.byte	0x10
 1034 05a0 08       		.byte	0x8
 1035 05a1 51       		.byte	0x51
 1036 05a2 BE020000 		.4byte	.LASF104
 1037 05a6 DB050000 		.4byte	0x5db
 1038 05aa 09       		.uleb128 0x9
 1039 05ab FA010000 		.4byte	.LASF95
 1040 05af 08       		.byte	0x8
 1041 05b0 55       		.byte	0x55
 1042 05b1 0A010000 		.4byte	0x10a
 1043 05b5 00       		.byte	0
 1044 05b6 09       		.uleb128 0x9
 1045 05b7 9F010000 		.4byte	.LASF96
 1046 05bb 08       		.byte	0x8
 1047 05bc 59       		.byte	0x59
 1048 05bd 9B020000 		.4byte	0x29b
 1049 05c1 04       		.byte	0x4
 1050 05c2 09       		.uleb128 0x9
 1051 05c3 FE070000 		.4byte	.LASF97
 1052 05c7 08       		.byte	0x8
 1053 05c8 5D       		.byte	0x5d
 1054 05c9 78030000 		.4byte	0x378
 1055 05cd 08       		.byte	0x8
 1056 05ce 09       		.uleb128 0x9
 1057 05cf 86000000 		.4byte	.LASF98
 1058 05d3 08       		.byte	0x8
 1059 05d4 61       		.byte	0x61
 1060 05d5 3A000000 		.4byte	0x3a
 1061 05d9 0C       		.byte	0xc
 1062 05da 00       		.byte	0
 1063 05db 04       		.uleb128 0x4
 1064 05dc AB030000 		.4byte	.LASF99
 1065 05e0 08       		.byte	0x8
 1066 05e1 62       		.byte	0x62
 1067 05e2 9E050000 		.4byte	0x59e
 1068 05e6 16       		.uleb128 0x16
 1069 05e7 0804     		.2byte	0x408
 1070 05e9 08       		.byte	0x8
 1071 05ea 67       		.byte	0x67
 1072 05eb 36030000 		.4byte	.LASF156
 1073 05ef 18060000 		.4byte	0x618
 1074 05f3 09       		.uleb128 0x9
 1075 05f4 5A030000 		.4byte	.LASF100
 1076 05f8 08       		.byte	0x8
 1077 05f9 6B       		.byte	0x6b
 1078 05fa 2C000000 		.4byte	0x2c
 1079 05fe 00       		.byte	0
ARM GAS  C:\Users\Luis\AppData\Local\Temp\cc9YgjIe.s 			page 20


 1080 05ff 09       		.uleb128 0x9
 1081 0600 6A030000 		.4byte	.LASF101
 1082 0604 08       		.byte	0x8
 1083 0605 6F       		.byte	0x6f
 1084 0606 18060000 		.4byte	0x618
 1085 060a 04       		.byte	0x4
 1086 060b 09       		.uleb128 0x9
 1087 060c 5F040000 		.4byte	.LASF102
 1088 0610 08       		.byte	0x8
 1089 0611 73       		.byte	0x73
 1090 0612 1E060000 		.4byte	0x61e
 1091 0616 08       		.byte	0x8
 1092 0617 00       		.byte	0
 1093 0618 0C       		.uleb128 0xc
 1094 0619 04       		.byte	0x4
 1095 061a DB050000 		.4byte	0x5db
 1096 061e 17       		.uleb128 0x17
 1097 061f DB050000 		.4byte	0x5db
 1098 0623 2E060000 		.4byte	0x62e
 1099 0627 18       		.uleb128 0x18
 1100 0628 E7040000 		.4byte	0x4e7
 1101 062c 3F       		.byte	0x3f
 1102 062d 00       		.byte	0
 1103 062e 04       		.uleb128 0x4
 1104 062f 87050000 		.4byte	.LASF103
 1105 0633 08       		.byte	0x8
 1106 0634 74       		.byte	0x74
 1107 0635 E6050000 		.4byte	0x5e6
 1108 0639 15       		.uleb128 0x15
 1109 063a 04       		.byte	0x4
 1110 063b 09       		.byte	0x9
 1111 063c 38       		.byte	0x38
 1112 063d 91060000 		.4byte	.LASF105
 1113 0641 52060000 		.4byte	0x652
 1114 0645 09       		.uleb128 0x9
 1115 0646 D8060000 		.4byte	.LASF106
 1116 064a 09       		.byte	0x9
 1117 064b 3C       		.byte	0x3c
 1118 064c 9C000000 		.4byte	0x9c
 1119 0650 00       		.byte	0
 1120 0651 00       		.byte	0
 1121 0652 04       		.uleb128 0x4
 1122 0653 FA030000 		.4byte	.LASF107
 1123 0657 09       		.byte	0x9
 1124 0658 3D       		.byte	0x3d
 1125 0659 39060000 		.4byte	0x639
 1126 065d 15       		.uleb128 0x15
 1127 065e 18       		.byte	0x18
 1128 065f 09       		.byte	0x9
 1129 0660 48       		.byte	0x48
 1130 0661 D4030000 		.4byte	.LASF108
 1131 0665 A4060000 		.4byte	0x6a4
 1132 0669 09       		.uleb128 0x9
 1133 066a A4060000 		.4byte	.LASF109
 1134 066e 09       		.byte	0x9
 1135 066f 49       		.byte	0x49
 1136 0670 9C000000 		.4byte	0x9c
ARM GAS  C:\Users\Luis\AppData\Local\Temp\cc9YgjIe.s 			page 21


 1137 0674 00       		.byte	0
 1138 0675 09       		.uleb128 0x9
 1139 0676 56000000 		.4byte	.LASF110
 1140 067a 09       		.byte	0x9
 1141 067b 4A       		.byte	0x4a
 1142 067c 9C000000 		.4byte	0x9c
 1143 0680 04       		.byte	0x4
 1144 0681 09       		.uleb128 0x9
 1145 0682 DF020000 		.4byte	.LASF111
 1146 0686 09       		.byte	0x9
 1147 0687 4B       		.byte	0x4b
 1148 0688 9C000000 		.4byte	0x9c
 1149 068c 08       		.byte	0x8
 1150 068d 14       		.uleb128 0x14
 1151 068e 6E00     		.ascii	"n\000"
 1152 0690 09       		.byte	0x9
 1153 0691 4C       		.byte	0x4c
 1154 0692 FF000000 		.4byte	0xff
 1155 0696 0C       		.byte	0xc
 1156 0697 09       		.uleb128 0x9
 1157 0698 2A040000 		.4byte	.LASF112
 1158 069c 09       		.byte	0x9
 1159 069d 4D       		.byte	0x4d
 1160 069e A7000000 		.4byte	0xa7
 1161 06a2 10       		.byte	0x10
 1162 06a3 00       		.byte	0
 1163 06a4 04       		.uleb128 0x4
 1164 06a5 5C000000 		.4byte	.LASF113
 1165 06a9 09       		.byte	0x9
 1166 06aa 4E       		.byte	0x4e
 1167 06ab 5D060000 		.4byte	0x65d
 1168 06af 15       		.uleb128 0x15
 1169 06b0 38       		.byte	0x38
 1170 06b1 0A       		.byte	0xa
 1171 06b2 38       		.byte	0x38
 1172 06b3 E9030000 		.4byte	.LASF114
 1173 06b7 EC060000 		.4byte	0x6ec
 1174 06bb 09       		.uleb128 0x9
 1175 06bc 81020000 		.4byte	.LASF115
 1176 06c0 0A       		.byte	0xa
 1177 06c1 39       		.byte	0x39
 1178 06c2 FF000000 		.4byte	0xff
 1179 06c6 00       		.byte	0
 1180 06c7 09       		.uleb128 0x9
 1181 06c8 76050000 		.4byte	.LASF116
 1182 06cc 0A       		.byte	0xa
 1183 06cd 3A       		.byte	0x3a
 1184 06ce FF000000 		.4byte	0xff
 1185 06d2 04       		.byte	0x4
 1186 06d3 09       		.uleb128 0x9
 1187 06d4 5A070000 		.4byte	.LASF117
 1188 06d8 0A       		.byte	0xa
 1189 06d9 3B       		.byte	0x3b
 1190 06da A4060000 		.4byte	0x6a4
 1191 06de 08       		.byte	0x8
 1192 06df 09       		.uleb128 0x9
 1193 06e0 04030000 		.4byte	.LASF118
ARM GAS  C:\Users\Luis\AppData\Local\Temp\cc9YgjIe.s 			page 22


 1194 06e4 0A       		.byte	0xa
 1195 06e5 3D       		.byte	0x3d
 1196 06e6 A4060000 		.4byte	0x6a4
 1197 06ea 20       		.byte	0x20
 1198 06eb 00       		.byte	0
 1199 06ec 04       		.uleb128 0x4
 1200 06ed AF020000 		.4byte	.LASF119
 1201 06f1 0A       		.byte	0xa
 1202 06f2 3F       		.byte	0x3f
 1203 06f3 AF060000 		.4byte	0x6af
 1204 06f7 0C       		.uleb128 0xc
 1205 06f8 04       		.byte	0x4
 1206 06f9 90020000 		.4byte	0x290
 1207 06fd 06       		.uleb128 0x6
 1208 06fe 1C060000 		.4byte	.LASF120
 1209 0702 0C       		.byte	0xc
 1210 0703 0B       		.byte	0xb
 1211 0704 34       		.byte	0x34
 1212 0705 22070000 		.4byte	0x722
 1213 0709 09       		.uleb128 0x9
 1214 070a B2010000 		.4byte	.LASF121
 1215 070e 0B       		.byte	0xb
 1216 070f 35       		.byte	0x35
 1217 0710 C5020000 		.4byte	0x2c5
 1218 0714 00       		.byte	0
 1219 0715 09       		.uleb128 0x9
 1220 0716 96020000 		.4byte	.LASF122
 1221 071a 0B       		.byte	0xb
 1222 071b 37       		.byte	0x37
 1223 071c F4000000 		.4byte	0xf4
 1224 0720 08       		.byte	0x8
 1225 0721 00       		.byte	0
 1226 0722 0C       		.uleb128 0xc
 1227 0723 04       		.byte	0x4
 1228 0724 FD060000 		.4byte	0x6fd
 1229 0728 06       		.uleb128 0x6
 1230 0729 87070000 		.4byte	.LASF123
 1231 072d 10       		.byte	0x10
 1232 072e 0C       		.byte	0xc
 1233 072f 39       		.byte	0x39
 1234 0730 59070000 		.4byte	0x759
 1235 0734 09       		.uleb128 0x9
 1236 0735 27010000 		.4byte	.LASF124
 1237 0739 0C       		.byte	0xc
 1238 073a 3A       		.byte	0x3a
 1239 073b C5020000 		.4byte	0x2c5
 1240 073f 00       		.byte	0
 1241 0740 09       		.uleb128 0x9
 1242 0741 F6070000 		.4byte	.LASF125
 1243 0745 0C       		.byte	0xc
 1244 0746 3C       		.byte	0x3c
 1245 0747 9B020000 		.4byte	0x29b
 1246 074b 08       		.byte	0x8
 1247 074c 09       		.uleb128 0x9
 1248 074d A9060000 		.4byte	.LASF126
 1249 0751 0C       		.byte	0xc
 1250 0752 3E       		.byte	0x3e
ARM GAS  C:\Users\Luis\AppData\Local\Temp\cc9YgjIe.s 			page 23


 1251 0753 9D070000 		.4byte	0x79d
 1252 0757 0C       		.byte	0xc
 1253 0758 00       		.byte	0
 1254 0759 0C       		.uleb128 0xc
 1255 075a 04       		.byte	0x4
 1256 075b 28070000 		.4byte	0x728
 1257 075f 0C       		.uleb128 0xc
 1258 0760 04       		.byte	0x4
 1259 0761 65070000 		.4byte	0x765
 1260 0765 19       		.uleb128 0x19
 1261 0766 6A070000 		.4byte	0x76a
 1262 076a 03       		.uleb128 0x3
 1263 076b 01       		.byte	0x1
 1264 076c 08       		.byte	0x8
 1265 076d 8C060000 		.4byte	.LASF127
 1266 0771 0C       		.uleb128 0xc
 1267 0772 04       		.byte	0x4
 1268 0773 F9040000 		.4byte	0x4f9
 1269 0777 0C       		.uleb128 0xc
 1270 0778 04       		.byte	0x4
 1271 0779 7A030000 		.4byte	0x37a
 1272 077d 05       		.uleb128 0x5
 1273 077e 5F070000 		.4byte	0x75f
 1274 0782 17       		.uleb128 0x17
 1275 0783 90000000 		.4byte	0x90
 1276 0787 92070000 		.4byte	0x792
 1277 078b 18       		.uleb128 0x18
 1278 078c E7040000 		.4byte	0x4e7
 1279 0790 1F       		.byte	0x1f
 1280 0791 00       		.byte	0
 1281 0792 04       		.uleb128 0x4
 1282 0793 E9010000 		.4byte	.LASF128
 1283 0797 0C       		.byte	0xc
 1284 0798 34       		.byte	0x34
 1285 0799 28070000 		.4byte	0x728
 1286 079d 0C       		.uleb128 0xc
 1287 079e 04       		.byte	0x4
 1288 079f 92070000 		.4byte	0x792
 1289 07a3 03       		.uleb128 0x3
 1290 07a4 01       		.byte	0x1
 1291 07a5 02       		.byte	0x2
 1292 07a6 FF020000 		.4byte	.LASF129
 1293 07aa 1A       		.uleb128 0x1a
 1294 07ab 49495200 		.ascii	"IIR\000"
 1295 07af 10       		.byte	0x10
 1296 07b0 0D       		.byte	0xd
 1297 07b1 0E       		.byte	0xe
 1298 07b2 AA070000 		.4byte	0x7aa
 1299 07b6 4C080000 		.4byte	0x84c
 1300 07ba 1B       		.uleb128 0x1b
 1301 07bb 13070000 		.4byte	.LASF130
 1302 07bf 57080000 		.4byte	0x857
 1303 07c3 00       		.byte	0
 1304 07c4 01       		.byte	0x1
 1305 07c5 09       		.uleb128 0x9
 1306 07c6 43070000 		.4byte	.LASF131
 1307 07ca 0D       		.byte	0xd
ARM GAS  C:\Users\Luis\AppData\Local\Temp\cc9YgjIe.s 			page 24


 1308 07cb 24       		.byte	0x24
 1309 07cc 6C080000 		.4byte	0x86c
 1310 07d0 04       		.byte	0x4
 1311 07d1 09       		.uleb128 0x9
 1312 07d2 A3000000 		.4byte	.LASF132
 1313 07d6 0D       		.byte	0xd
 1314 07d7 25       		.byte	0x25
 1315 07d8 77080000 		.4byte	0x877
 1316 07dc 08       		.byte	0x8
 1317 07dd 09       		.uleb128 0x9
 1318 07de 65060000 		.4byte	.LASF133
 1319 07e2 0D       		.byte	0xd
 1320 07e3 26       		.byte	0x26
 1321 07e4 25000000 		.4byte	0x25
 1322 07e8 0C       		.byte	0xc
 1323 07e9 1C       		.uleb128 0x1c
 1324 07ea E2070000 		.4byte	.LASF157
 1325 07ee 01       		.byte	0x1
 1326 07ef 17       		.byte	0x17
 1327 07f0 0B040000 		.4byte	.LASF158
 1328 07f4 7D080000 		.4byte	0x87d
 1329 07f8 01       		.byte	0x1
 1330 07f9 01080000 		.4byte	0x801
 1331 07fd 0C080000 		.4byte	0x80c
 1332 0801 1D       		.uleb128 0x1d
 1333 0802 84080000 		.4byte	0x884
 1334 0806 0F       		.uleb128 0xf
 1335 0807 7D080000 		.4byte	0x87d
 1336 080b 00       		.byte	0
 1337 080c 1E       		.uleb128 0x1e
 1338 080d 55030000 		.4byte	.LASF159
 1339 0811 01       		.byte	0x1
 1340 0812 12       		.byte	0x12
 1341 0813 78030000 		.4byte	0x378
 1342 0817 01       		.byte	0x1
 1343 0818 AA070000 		.4byte	0x7aa
 1344 081c 01       		.byte	0x1
 1345 081d 25080000 		.4byte	0x825
 1346 0821 30080000 		.4byte	0x830
 1347 0825 1D       		.uleb128 0x1d
 1348 0826 84080000 		.4byte	0x884
 1349 082a 1D       		.uleb128 0x1d
 1350 082b 25000000 		.4byte	0x25
 1351 082f 00       		.byte	0
 1352 0830 1F       		.uleb128 0x1f
 1353 0831 0A010000 		.4byte	.LASF160
 1354 0835 01       		.byte	0x1
 1355 0836 48       		.byte	0x48
 1356 0837 30020000 		.4byte	.LASF161
 1357 083b 01       		.byte	0x1
 1358 083c 40080000 		.4byte	0x840
 1359 0840 1D       		.uleb128 0x1d
 1360 0841 84080000 		.4byte	0x884
 1361 0845 0F       		.uleb128 0xf
 1362 0846 77080000 		.4byte	0x877
 1363 084a 00       		.byte	0
 1364 084b 00       		.byte	0
ARM GAS  C:\Users\Luis\AppData\Local\Temp\cc9YgjIe.s 			page 25


 1365 084c 20       		.uleb128 0x20
 1366 084d 25000000 		.4byte	0x25
 1367 0851 57080000 		.4byte	0x857
 1368 0855 21       		.uleb128 0x21
 1369 0856 00       		.byte	0
 1370 0857 0C       		.uleb128 0xc
 1371 0858 04       		.byte	0x4
 1372 0859 5D080000 		.4byte	0x85d
 1373 085d 22       		.uleb128 0x22
 1374 085e 04       		.byte	0x4
 1375 085f 08020000 		.4byte	.LASF162
 1376 0863 4C080000 		.4byte	0x84c
 1377 0867 23       		.uleb128 0x23
 1378 0868 29030000 		.4byte	.LASF134
 1379 086c 0C       		.uleb128 0xc
 1380 086d 04       		.byte	0x4
 1381 086e 67080000 		.4byte	0x867
 1382 0872 23       		.uleb128 0x23
 1383 0873 65070000 		.4byte	.LASF135
 1384 0877 0C       		.uleb128 0xc
 1385 0878 04       		.byte	0x4
 1386 0879 72080000 		.4byte	0x872
 1387 087d 03       		.uleb128 0x3
 1388 087e 04       		.byte	0x4
 1389 087f 04       		.byte	0x4
 1390 0880 35040000 		.4byte	.LASF136
 1391 0884 0C       		.uleb128 0xc
 1392 0885 04       		.byte	0x4
 1393 0886 AA070000 		.4byte	0x7aa
 1394 088a 24       		.uleb128 0x24
 1395 088b 0C080000 		.4byte	0x80c
 1396 088f 00       		.byte	0
 1397 0890 98080000 		.4byte	0x898
 1398 0894 AB080000 		.4byte	0x8ab
 1399 0898 25       		.uleb128 0x25
 1400 0899 A5010000 		.4byte	.LASF137
 1401 089d AB080000 		.4byte	0x8ab
 1402 08a1 25       		.uleb128 0x25
 1403 08a2 16000000 		.4byte	.LASF138
 1404 08a6 B0080000 		.4byte	0x8b0
 1405 08aa 00       		.byte	0
 1406 08ab 19       		.uleb128 0x19
 1407 08ac 84080000 		.4byte	0x884
 1408 08b0 19       		.uleb128 0x19
 1409 08b1 25000000 		.4byte	0x25
 1410 08b5 26       		.uleb128 0x26
 1411 08b6 8A080000 		.4byte	0x88a
 1412 08ba DF060000 		.4byte	.LASF139
 1413 08be 00000000 		.4byte	.LFB262
 1414 08c2 3C000000 		.4byte	.LFE262-.LFB262
 1415 08c6 01       		.uleb128 0x1
 1416 08c7 9C       		.byte	0x9c
 1417 08c8 D0080000 		.4byte	0x8d0
 1418 08cc D9080000 		.4byte	0x8d9
 1419 08d0 27       		.uleb128 0x27
 1420 08d1 98080000 		.4byte	0x898
 1421 08d5 02       		.uleb128 0x2
ARM GAS  C:\Users\Luis\AppData\Local\Temp\cc9YgjIe.s 			page 26


 1422 08d6 91       		.byte	0x91
 1423 08d7 74       		.sleb128 -12
 1424 08d8 00       		.byte	0
 1425 08d9 26       		.uleb128 0x26
 1426 08da 8A080000 		.4byte	0x88a
 1427 08de 2F010000 		.4byte	.LASF140
 1428 08e2 00000000 		.4byte	.LFB264
 1429 08e6 1E000000 		.4byte	.LFE264-.LFB264
 1430 08ea 01       		.uleb128 0x1
 1431 08eb 9C       		.byte	0x9c
 1432 08ec F4080000 		.4byte	0x8f4
 1433 08f0 FD080000 		.4byte	0x8fd
 1434 08f4 27       		.uleb128 0x27
 1435 08f5 98080000 		.4byte	0x898
 1436 08f9 02       		.uleb128 0x2
 1437 08fa 91       		.byte	0x91
 1438 08fb 74       		.sleb128 -12
 1439 08fc 00       		.byte	0
 1440 08fd 28       		.uleb128 0x28
 1441 08fe E9070000 		.4byte	0x7e9
 1442 0902 00000000 		.4byte	.LFB265
 1443 0906 F6000000 		.4byte	.LFE265-.LFB265
 1444 090a 01       		.uleb128 0x1
 1445 090b 9C       		.byte	0x9c
 1446 090c 14090000 		.4byte	0x914
 1447 0910 B7090000 		.4byte	0x9b7
 1448 0914 29       		.uleb128 0x29
 1449 0915 A5010000 		.4byte	.LASF137
 1450 0919 AB080000 		.4byte	0x8ab
 1451 091d 02       		.uleb128 0x2
 1452 091e 91       		.byte	0x91
 1453 091f 4C       		.sleb128 -52
 1454 0920 2A       		.uleb128 0x2a
 1455 0921 BA010000 		.4byte	.LASF150
 1456 0925 01       		.byte	0x1
 1457 0926 17       		.byte	0x17
 1458 0927 7D080000 		.4byte	0x87d
 1459 092b 02       		.uleb128 0x2
 1460 092c 91       		.byte	0x91
 1461 092d 48       		.sleb128 -56
 1462 092e 2B       		.uleb128 0x2b
 1463 092f 0A000000 		.4byte	.LBB3
 1464 0933 E4000000 		.4byte	.LBE3-.LBB3
 1465 0937 2C       		.uleb128 0x2c
 1466 0938 3B040000 		.4byte	.LASF141
 1467 093c 01       		.byte	0x1
 1468 093d 1A       		.byte	0x1a
 1469 093e B7090000 		.4byte	0x9b7
 1470 0942 02       		.uleb128 0x2
 1471 0943 91       		.byte	0x91
 1472 0944 74       		.sleb128 -12
 1473 0945 2C       		.uleb128 0x2c
 1474 0946 49040000 		.4byte	.LASF142
 1475 094a 01       		.byte	0x1
 1476 094b 1B       		.byte	0x1b
 1477 094c B7090000 		.4byte	0x9b7
 1478 0950 02       		.uleb128 0x2
ARM GAS  C:\Users\Luis\AppData\Local\Temp\cc9YgjIe.s 			page 27


 1479 0951 91       		.byte	0x91
 1480 0952 70       		.sleb128 -16
 1481 0953 2C       		.uleb128 0x2c
 1482 0954 E1050000 		.4byte	.LASF143
 1483 0958 01       		.byte	0x1
 1484 0959 1D       		.byte	0x1d
 1485 095a 25000000 		.4byte	0x25
 1486 095e 02       		.uleb128 0x2
 1487 095f 91       		.byte	0x91
 1488 0960 6C       		.sleb128 -20
 1489 0961 2C       		.uleb128 0x2c
 1490 0962 87020000 		.4byte	.LASF144
 1491 0966 01       		.byte	0x1
 1492 0967 1E       		.byte	0x1e
 1493 0968 25000000 		.4byte	0x25
 1494 096c 02       		.uleb128 0x2
 1495 096d 91       		.byte	0x91
 1496 096e 58       		.sleb128 -40
 1497 096f 2C       		.uleb128 0x2c
 1498 0970 C8050000 		.4byte	.LASF145
 1499 0974 01       		.byte	0x1
 1500 0975 20       		.byte	0x20
 1501 0976 7D080000 		.4byte	0x87d
 1502 097a 02       		.uleb128 0x2
 1503 097b 91       		.byte	0x91
 1504 097c 68       		.sleb128 -24
 1505 097d 2C       		.uleb128 0x2c
 1506 097e A4070000 		.4byte	.LASF146
 1507 0982 01       		.byte	0x1
 1508 0983 21       		.byte	0x21
 1509 0984 B7090000 		.4byte	0x9b7
 1510 0988 02       		.uleb128 0x2
 1511 0989 91       		.byte	0x91
 1512 098a 64       		.sleb128 -28
 1513 098b 2C       		.uleb128 0x2c
 1514 098c D1050000 		.4byte	.LASF147
 1515 0990 01       		.byte	0x1
 1516 0991 23       		.byte	0x23
 1517 0992 7D080000 		.4byte	0x87d
 1518 0996 02       		.uleb128 0x2
 1519 0997 91       		.byte	0x91
 1520 0998 60       		.sleb128 -32
 1521 0999 2C       		.uleb128 0x2c
 1522 099a 90070000 		.4byte	.LASF148
 1523 099e 01       		.byte	0x1
 1524 099f 24       		.byte	0x24
 1525 09a0 B7090000 		.4byte	0x9b7
 1526 09a4 02       		.uleb128 0x2
 1527 09a5 91       		.byte	0x91
 1528 09a6 5C       		.sleb128 -36
 1529 09a7 2C       		.uleb128 0x2c
 1530 09a8 62030000 		.4byte	.LASF149
 1531 09ac 01       		.byte	0x1
 1532 09ad 26       		.byte	0x26
 1533 09ae 7D080000 		.4byte	0x87d
 1534 09b2 02       		.uleb128 0x2
 1535 09b3 91       		.byte	0x91
ARM GAS  C:\Users\Luis\AppData\Local\Temp\cc9YgjIe.s 			page 28


 1536 09b4 54       		.sleb128 -44
 1537 09b5 00       		.byte	0
 1538 09b6 00       		.byte	0
 1539 09b7 0C       		.uleb128 0xc
 1540 09b8 04       		.byte	0x4
 1541 09b9 7D080000 		.4byte	0x87d
 1542 09bd 28       		.uleb128 0x28
 1543 09be 30080000 		.4byte	0x830
 1544 09c2 00000000 		.4byte	.LFB266
 1545 09c6 34000000 		.4byte	.LFE266-.LFB266
 1546 09ca 01       		.uleb128 0x1
 1547 09cb 9C       		.byte	0x9c
 1548 09cc D4090000 		.4byte	0x9d4
 1549 09d0 EF090000 		.4byte	0x9ef
 1550 09d4 29       		.uleb128 0x29
 1551 09d5 A5010000 		.4byte	.LASF137
 1552 09d9 AB080000 		.4byte	0x8ab
 1553 09dd 02       		.uleb128 0x2
 1554 09de 91       		.byte	0x91
 1555 09df 74       		.sleb128 -12
 1556 09e0 2A       		.uleb128 0x2a
 1557 09e1 99050000 		.4byte	.LASF151
 1558 09e5 01       		.byte	0x1
 1559 09e6 48       		.byte	0x48
 1560 09e7 77080000 		.4byte	0x877
 1561 09eb 02       		.uleb128 0x2
 1562 09ec 91       		.byte	0x91
 1563 09ed 70       		.sleb128 -16
 1564 09ee 00       		.byte	0
 1565 09ef 2D       		.uleb128 0x2d
 1566 09f0 CB000000 		.4byte	.LASF152
 1567 09f4 0E       		.byte	0xe
 1568 09f5 A706     		.2byte	0x6a7
 1569 09f7 97000000 		.4byte	0x97
 1570 09fb 2E       		.uleb128 0x2e
 1571 09fc 636800   		.ascii	"ch\000"
 1572 09ff 05       		.byte	0x5
 1573 0a00 0902     		.2byte	0x209
 1574 0a02 6F040000 		.4byte	0x46f
 1575 0a06 00       		.byte	0
 1576              		.section	.debug_abbrev,"",%progbits
 1577              	.Ldebug_abbrev0:
 1578 0000 01       		.uleb128 0x1
 1579 0001 11       		.uleb128 0x11
 1580 0002 01       		.byte	0x1
 1581 0003 25       		.uleb128 0x25
 1582 0004 0E       		.uleb128 0xe
 1583 0005 13       		.uleb128 0x13
 1584 0006 0B       		.uleb128 0xb
 1585 0007 03       		.uleb128 0x3
 1586 0008 0E       		.uleb128 0xe
 1587 0009 1B       		.uleb128 0x1b
 1588 000a 0E       		.uleb128 0xe
 1589 000b 55       		.uleb128 0x55
 1590 000c 17       		.uleb128 0x17
 1591 000d 11       		.uleb128 0x11
 1592 000e 01       		.uleb128 0x1
ARM GAS  C:\Users\Luis\AppData\Local\Temp\cc9YgjIe.s 			page 29


 1593 000f 10       		.uleb128 0x10
 1594 0010 17       		.uleb128 0x17
 1595 0011 00       		.byte	0
 1596 0012 00       		.byte	0
 1597 0013 02       		.uleb128 0x2
 1598 0014 24       		.uleb128 0x24
 1599 0015 00       		.byte	0
 1600 0016 0B       		.uleb128 0xb
 1601 0017 0B       		.uleb128 0xb
 1602 0018 3E       		.uleb128 0x3e
 1603 0019 0B       		.uleb128 0xb
 1604 001a 03       		.uleb128 0x3
 1605 001b 08       		.uleb128 0x8
 1606 001c 00       		.byte	0
 1607 001d 00       		.byte	0
 1608 001e 03       		.uleb128 0x3
 1609 001f 24       		.uleb128 0x24
 1610 0020 00       		.byte	0
 1611 0021 0B       		.uleb128 0xb
 1612 0022 0B       		.uleb128 0xb
 1613 0023 3E       		.uleb128 0x3e
 1614 0024 0B       		.uleb128 0xb
 1615 0025 03       		.uleb128 0x3
 1616 0026 0E       		.uleb128 0xe
 1617 0027 00       		.byte	0
 1618 0028 00       		.byte	0
 1619 0029 04       		.uleb128 0x4
 1620 002a 16       		.uleb128 0x16
 1621 002b 00       		.byte	0
 1622 002c 03       		.uleb128 0x3
 1623 002d 0E       		.uleb128 0xe
 1624 002e 3A       		.uleb128 0x3a
 1625 002f 0B       		.uleb128 0xb
 1626 0030 3B       		.uleb128 0x3b
 1627 0031 0B       		.uleb128 0xb
 1628 0032 49       		.uleb128 0x49
 1629 0033 13       		.uleb128 0x13
 1630 0034 00       		.byte	0
 1631 0035 00       		.byte	0
 1632 0036 05       		.uleb128 0x5
 1633 0037 35       		.uleb128 0x35
 1634 0038 00       		.byte	0
 1635 0039 49       		.uleb128 0x49
 1636 003a 13       		.uleb128 0x13
 1637 003b 00       		.byte	0
 1638 003c 00       		.byte	0
 1639 003d 06       		.uleb128 0x6
 1640 003e 13       		.uleb128 0x13
 1641 003f 01       		.byte	0x1
 1642 0040 03       		.uleb128 0x3
 1643 0041 0E       		.uleb128 0xe
 1644 0042 0B       		.uleb128 0xb
 1645 0043 0B       		.uleb128 0xb
 1646 0044 3A       		.uleb128 0x3a
 1647 0045 0B       		.uleb128 0xb
 1648 0046 3B       		.uleb128 0x3b
 1649 0047 0B       		.uleb128 0xb
ARM GAS  C:\Users\Luis\AppData\Local\Temp\cc9YgjIe.s 			page 30


 1650 0048 01       		.uleb128 0x1
 1651 0049 13       		.uleb128 0x13
 1652 004a 00       		.byte	0
 1653 004b 00       		.byte	0
 1654 004c 07       		.uleb128 0x7
 1655 004d 17       		.uleb128 0x17
 1656 004e 01       		.byte	0x1
 1657 004f 0B       		.uleb128 0xb
 1658 0050 0B       		.uleb128 0xb
 1659 0051 3A       		.uleb128 0x3a
 1660 0052 0B       		.uleb128 0xb
 1661 0053 3B       		.uleb128 0x3b
 1662 0054 0B       		.uleb128 0xb
 1663 0055 01       		.uleb128 0x1
 1664 0056 13       		.uleb128 0x13
 1665 0057 00       		.byte	0
 1666 0058 00       		.byte	0
 1667 0059 08       		.uleb128 0x8
 1668 005a 0D       		.uleb128 0xd
 1669 005b 00       		.byte	0
 1670 005c 03       		.uleb128 0x3
 1671 005d 0E       		.uleb128 0xe
 1672 005e 3A       		.uleb128 0x3a
 1673 005f 0B       		.uleb128 0xb
 1674 0060 3B       		.uleb128 0x3b
 1675 0061 05       		.uleb128 0x5
 1676 0062 49       		.uleb128 0x49
 1677 0063 13       		.uleb128 0x13
 1678 0064 00       		.byte	0
 1679 0065 00       		.byte	0
 1680 0066 09       		.uleb128 0x9
 1681 0067 0D       		.uleb128 0xd
 1682 0068 00       		.byte	0
 1683 0069 03       		.uleb128 0x3
 1684 006a 0E       		.uleb128 0xe
 1685 006b 3A       		.uleb128 0x3a
 1686 006c 0B       		.uleb128 0xb
 1687 006d 3B       		.uleb128 0x3b
 1688 006e 0B       		.uleb128 0xb
 1689 006f 49       		.uleb128 0x49
 1690 0070 13       		.uleb128 0x13
 1691 0071 38       		.uleb128 0x38
 1692 0072 0B       		.uleb128 0xb
 1693 0073 00       		.byte	0
 1694 0074 00       		.byte	0
 1695 0075 0A       		.uleb128 0xa
 1696 0076 0D       		.uleb128 0xd
 1697 0077 00       		.byte	0
 1698 0078 03       		.uleb128 0x3
 1699 0079 08       		.uleb128 0x8
 1700 007a 3A       		.uleb128 0x3a
 1701 007b 0B       		.uleb128 0xb
 1702 007c 3B       		.uleb128 0x3b
 1703 007d 05       		.uleb128 0x5
 1704 007e 49       		.uleb128 0x49
 1705 007f 13       		.uleb128 0x13
 1706 0080 38       		.uleb128 0x38
ARM GAS  C:\Users\Luis\AppData\Local\Temp\cc9YgjIe.s 			page 31


 1707 0081 0B       		.uleb128 0xb
 1708 0082 00       		.byte	0
 1709 0083 00       		.byte	0
 1710 0084 0B       		.uleb128 0xb
 1711 0085 0D       		.uleb128 0xd
 1712 0086 00       		.byte	0
 1713 0087 03       		.uleb128 0x3
 1714 0088 0E       		.uleb128 0xe
 1715 0089 3A       		.uleb128 0x3a
 1716 008a 0B       		.uleb128 0xb
 1717 008b 3B       		.uleb128 0x3b
 1718 008c 05       		.uleb128 0x5
 1719 008d 49       		.uleb128 0x49
 1720 008e 13       		.uleb128 0x13
 1721 008f 38       		.uleb128 0x38
 1722 0090 0B       		.uleb128 0xb
 1723 0091 00       		.byte	0
 1724 0092 00       		.byte	0
 1725 0093 0C       		.uleb128 0xc
 1726 0094 0F       		.uleb128 0xf
 1727 0095 00       		.byte	0
 1728 0096 0B       		.uleb128 0xb
 1729 0097 0B       		.uleb128 0xb
 1730 0098 49       		.uleb128 0x49
 1731 0099 13       		.uleb128 0x13
 1732 009a 00       		.byte	0
 1733 009b 00       		.byte	0
 1734 009c 0D       		.uleb128 0xd
 1735 009d 13       		.uleb128 0x13
 1736 009e 01       		.byte	0x1
 1737 009f 03       		.uleb128 0x3
 1738 00a0 0E       		.uleb128 0xe
 1739 00a1 0B       		.uleb128 0xb
 1740 00a2 0B       		.uleb128 0xb
 1741 00a3 3A       		.uleb128 0x3a
 1742 00a4 0B       		.uleb128 0xb
 1743 00a5 3B       		.uleb128 0x3b
 1744 00a6 05       		.uleb128 0x5
 1745 00a7 01       		.uleb128 0x1
 1746 00a8 13       		.uleb128 0x13
 1747 00a9 00       		.byte	0
 1748 00aa 00       		.byte	0
 1749 00ab 0E       		.uleb128 0xe
 1750 00ac 15       		.uleb128 0x15
 1751 00ad 01       		.byte	0x1
 1752 00ae 01       		.uleb128 0x1
 1753 00af 13       		.uleb128 0x13
 1754 00b0 00       		.byte	0
 1755 00b1 00       		.byte	0
 1756 00b2 0F       		.uleb128 0xf
 1757 00b3 05       		.uleb128 0x5
 1758 00b4 00       		.byte	0
 1759 00b5 49       		.uleb128 0x49
 1760 00b6 13       		.uleb128 0x13
 1761 00b7 00       		.byte	0
 1762 00b8 00       		.byte	0
 1763 00b9 10       		.uleb128 0x10
ARM GAS  C:\Users\Luis\AppData\Local\Temp\cc9YgjIe.s 			page 32


 1764 00ba 0F       		.uleb128 0xf
 1765 00bb 00       		.byte	0
 1766 00bc 0B       		.uleb128 0xb
 1767 00bd 0B       		.uleb128 0xb
 1768 00be 00       		.byte	0
 1769 00bf 00       		.byte	0
 1770 00c0 11       		.uleb128 0x11
 1771 00c1 13       		.uleb128 0x13
 1772 00c2 01       		.byte	0x1
 1773 00c3 03       		.uleb128 0x3
 1774 00c4 0E       		.uleb128 0xe
 1775 00c5 0B       		.uleb128 0xb
 1776 00c6 05       		.uleb128 0x5
 1777 00c7 3A       		.uleb128 0x3a
 1778 00c8 0B       		.uleb128 0xb
 1779 00c9 3B       		.uleb128 0x3b
 1780 00ca 05       		.uleb128 0x5
 1781 00cb 01       		.uleb128 0x1
 1782 00cc 13       		.uleb128 0x13
 1783 00cd 00       		.byte	0
 1784 00ce 00       		.byte	0
 1785 00cf 12       		.uleb128 0x12
 1786 00d0 0D       		.uleb128 0xd
 1787 00d1 00       		.byte	0
 1788 00d2 03       		.uleb128 0x3
 1789 00d3 0E       		.uleb128 0xe
 1790 00d4 3A       		.uleb128 0x3a
 1791 00d5 0B       		.uleb128 0xb
 1792 00d6 3B       		.uleb128 0x3b
 1793 00d7 05       		.uleb128 0x5
 1794 00d8 49       		.uleb128 0x49
 1795 00d9 13       		.uleb128 0x13
 1796 00da 38       		.uleb128 0x38
 1797 00db 05       		.uleb128 0x5
 1798 00dc 00       		.byte	0
 1799 00dd 00       		.byte	0
 1800 00de 13       		.uleb128 0x13
 1801 00df 0D       		.uleb128 0xd
 1802 00e0 00       		.byte	0
 1803 00e1 03       		.uleb128 0x3
 1804 00e2 08       		.uleb128 0x8
 1805 00e3 3A       		.uleb128 0x3a
 1806 00e4 0B       		.uleb128 0xb
 1807 00e5 3B       		.uleb128 0x3b
 1808 00e6 05       		.uleb128 0x5
 1809 00e7 49       		.uleb128 0x49
 1810 00e8 13       		.uleb128 0x13
 1811 00e9 38       		.uleb128 0x38
 1812 00ea 05       		.uleb128 0x5
 1813 00eb 00       		.byte	0
 1814 00ec 00       		.byte	0
 1815 00ed 14       		.uleb128 0x14
 1816 00ee 0D       		.uleb128 0xd
 1817 00ef 00       		.byte	0
 1818 00f0 03       		.uleb128 0x3
 1819 00f1 08       		.uleb128 0x8
 1820 00f2 3A       		.uleb128 0x3a
ARM GAS  C:\Users\Luis\AppData\Local\Temp\cc9YgjIe.s 			page 33


 1821 00f3 0B       		.uleb128 0xb
 1822 00f4 3B       		.uleb128 0x3b
 1823 00f5 0B       		.uleb128 0xb
 1824 00f6 49       		.uleb128 0x49
 1825 00f7 13       		.uleb128 0x13
 1826 00f8 38       		.uleb128 0x38
 1827 00f9 0B       		.uleb128 0xb
 1828 00fa 00       		.byte	0
 1829 00fb 00       		.byte	0
 1830 00fc 15       		.uleb128 0x15
 1831 00fd 13       		.uleb128 0x13
 1832 00fe 01       		.byte	0x1
 1833 00ff 0B       		.uleb128 0xb
 1834 0100 0B       		.uleb128 0xb
 1835 0101 3A       		.uleb128 0x3a
 1836 0102 0B       		.uleb128 0xb
 1837 0103 3B       		.uleb128 0x3b
 1838 0104 0B       		.uleb128 0xb
 1839 0105 6E       		.uleb128 0x6e
 1840 0106 0E       		.uleb128 0xe
 1841 0107 01       		.uleb128 0x1
 1842 0108 13       		.uleb128 0x13
 1843 0109 00       		.byte	0
 1844 010a 00       		.byte	0
 1845 010b 16       		.uleb128 0x16
 1846 010c 13       		.uleb128 0x13
 1847 010d 01       		.byte	0x1
 1848 010e 0B       		.uleb128 0xb
 1849 010f 05       		.uleb128 0x5
 1850 0110 3A       		.uleb128 0x3a
 1851 0111 0B       		.uleb128 0xb
 1852 0112 3B       		.uleb128 0x3b
 1853 0113 0B       		.uleb128 0xb
 1854 0114 6E       		.uleb128 0x6e
 1855 0115 0E       		.uleb128 0xe
 1856 0116 01       		.uleb128 0x1
 1857 0117 13       		.uleb128 0x13
 1858 0118 00       		.byte	0
 1859 0119 00       		.byte	0
 1860 011a 17       		.uleb128 0x17
 1861 011b 01       		.uleb128 0x1
 1862 011c 01       		.byte	0x1
 1863 011d 49       		.uleb128 0x49
 1864 011e 13       		.uleb128 0x13
 1865 011f 01       		.uleb128 0x1
 1866 0120 13       		.uleb128 0x13
 1867 0121 00       		.byte	0
 1868 0122 00       		.byte	0
 1869 0123 18       		.uleb128 0x18
 1870 0124 21       		.uleb128 0x21
 1871 0125 00       		.byte	0
 1872 0126 49       		.uleb128 0x49
 1873 0127 13       		.uleb128 0x13
 1874 0128 2F       		.uleb128 0x2f
 1875 0129 0B       		.uleb128 0xb
 1876 012a 00       		.byte	0
 1877 012b 00       		.byte	0
ARM GAS  C:\Users\Luis\AppData\Local\Temp\cc9YgjIe.s 			page 34


 1878 012c 19       		.uleb128 0x19
 1879 012d 26       		.uleb128 0x26
 1880 012e 00       		.byte	0
 1881 012f 49       		.uleb128 0x49
 1882 0130 13       		.uleb128 0x13
 1883 0131 00       		.byte	0
 1884 0132 00       		.byte	0
 1885 0133 1A       		.uleb128 0x1a
 1886 0134 02       		.uleb128 0x2
 1887 0135 01       		.byte	0x1
 1888 0136 03       		.uleb128 0x3
 1889 0137 08       		.uleb128 0x8
 1890 0138 0B       		.uleb128 0xb
 1891 0139 0B       		.uleb128 0xb
 1892 013a 3A       		.uleb128 0x3a
 1893 013b 0B       		.uleb128 0xb
 1894 013c 3B       		.uleb128 0x3b
 1895 013d 0B       		.uleb128 0xb
 1896 013e 1D       		.uleb128 0x1d
 1897 013f 13       		.uleb128 0x13
 1898 0140 01       		.uleb128 0x1
 1899 0141 13       		.uleb128 0x13
 1900 0142 00       		.byte	0
 1901 0143 00       		.byte	0
 1902 0144 1B       		.uleb128 0x1b
 1903 0145 0D       		.uleb128 0xd
 1904 0146 00       		.byte	0
 1905 0147 03       		.uleb128 0x3
 1906 0148 0E       		.uleb128 0xe
 1907 0149 49       		.uleb128 0x49
 1908 014a 13       		.uleb128 0x13
 1909 014b 38       		.uleb128 0x38
 1910 014c 0B       		.uleb128 0xb
 1911 014d 34       		.uleb128 0x34
 1912 014e 19       		.uleb128 0x19
 1913 014f 32       		.uleb128 0x32
 1914 0150 0B       		.uleb128 0xb
 1915 0151 00       		.byte	0
 1916 0152 00       		.byte	0
 1917 0153 1C       		.uleb128 0x1c
 1918 0154 2E       		.uleb128 0x2e
 1919 0155 01       		.byte	0x1
 1920 0156 3F       		.uleb128 0x3f
 1921 0157 19       		.uleb128 0x19
 1922 0158 03       		.uleb128 0x3
 1923 0159 0E       		.uleb128 0xe
 1924 015a 3A       		.uleb128 0x3a
 1925 015b 0B       		.uleb128 0xb
 1926 015c 3B       		.uleb128 0x3b
 1927 015d 0B       		.uleb128 0xb
 1928 015e 6E       		.uleb128 0x6e
 1929 015f 0E       		.uleb128 0xe
 1930 0160 49       		.uleb128 0x49
 1931 0161 13       		.uleb128 0x13
 1932 0162 32       		.uleb128 0x32
 1933 0163 0B       		.uleb128 0xb
 1934 0164 3C       		.uleb128 0x3c
ARM GAS  C:\Users\Luis\AppData\Local\Temp\cc9YgjIe.s 			page 35


 1935 0165 19       		.uleb128 0x19
 1936 0166 64       		.uleb128 0x64
 1937 0167 13       		.uleb128 0x13
 1938 0168 01       		.uleb128 0x1
 1939 0169 13       		.uleb128 0x13
 1940 016a 00       		.byte	0
 1941 016b 00       		.byte	0
 1942 016c 1D       		.uleb128 0x1d
 1943 016d 05       		.uleb128 0x5
 1944 016e 00       		.byte	0
 1945 016f 49       		.uleb128 0x49
 1946 0170 13       		.uleb128 0x13
 1947 0171 34       		.uleb128 0x34
 1948 0172 19       		.uleb128 0x19
 1949 0173 00       		.byte	0
 1950 0174 00       		.byte	0
 1951 0175 1E       		.uleb128 0x1e
 1952 0176 2E       		.uleb128 0x2e
 1953 0177 01       		.byte	0x1
 1954 0178 3F       		.uleb128 0x3f
 1955 0179 19       		.uleb128 0x19
 1956 017a 03       		.uleb128 0x3
 1957 017b 0E       		.uleb128 0xe
 1958 017c 3A       		.uleb128 0x3a
 1959 017d 0B       		.uleb128 0xb
 1960 017e 3B       		.uleb128 0x3b
 1961 017f 0B       		.uleb128 0xb
 1962 0180 49       		.uleb128 0x49
 1963 0181 13       		.uleb128 0x13
 1964 0182 4C       		.uleb128 0x4c
 1965 0183 0B       		.uleb128 0xb
 1966 0184 1D       		.uleb128 0x1d
 1967 0185 13       		.uleb128 0x13
 1968 0186 32       		.uleb128 0x32
 1969 0187 0B       		.uleb128 0xb
 1970 0188 3C       		.uleb128 0x3c
 1971 0189 19       		.uleb128 0x19
 1972 018a 64       		.uleb128 0x64
 1973 018b 13       		.uleb128 0x13
 1974 018c 01       		.uleb128 0x1
 1975 018d 13       		.uleb128 0x13
 1976 018e 00       		.byte	0
 1977 018f 00       		.byte	0
 1978 0190 1F       		.uleb128 0x1f
 1979 0191 2E       		.uleb128 0x2e
 1980 0192 01       		.byte	0x1
 1981 0193 3F       		.uleb128 0x3f
 1982 0194 19       		.uleb128 0x19
 1983 0195 03       		.uleb128 0x3
 1984 0196 0E       		.uleb128 0xe
 1985 0197 3A       		.uleb128 0x3a
 1986 0198 0B       		.uleb128 0xb
 1987 0199 3B       		.uleb128 0x3b
 1988 019a 0B       		.uleb128 0xb
 1989 019b 6E       		.uleb128 0x6e
 1990 019c 0E       		.uleb128 0xe
 1991 019d 32       		.uleb128 0x32
ARM GAS  C:\Users\Luis\AppData\Local\Temp\cc9YgjIe.s 			page 36


 1992 019e 0B       		.uleb128 0xb
 1993 019f 3C       		.uleb128 0x3c
 1994 01a0 19       		.uleb128 0x19
 1995 01a1 64       		.uleb128 0x64
 1996 01a2 13       		.uleb128 0x13
 1997 01a3 00       		.byte	0
 1998 01a4 00       		.byte	0
 1999 01a5 20       		.uleb128 0x20
 2000 01a6 15       		.uleb128 0x15
 2001 01a7 01       		.byte	0x1
 2002 01a8 49       		.uleb128 0x49
 2003 01a9 13       		.uleb128 0x13
 2004 01aa 01       		.uleb128 0x1
 2005 01ab 13       		.uleb128 0x13
 2006 01ac 00       		.byte	0
 2007 01ad 00       		.byte	0
 2008 01ae 21       		.uleb128 0x21
 2009 01af 18       		.uleb128 0x18
 2010 01b0 00       		.byte	0
 2011 01b1 00       		.byte	0
 2012 01b2 00       		.byte	0
 2013 01b3 22       		.uleb128 0x22
 2014 01b4 0F       		.uleb128 0xf
 2015 01b5 00       		.byte	0
 2016 01b6 0B       		.uleb128 0xb
 2017 01b7 0B       		.uleb128 0xb
 2018 01b8 03       		.uleb128 0x3
 2019 01b9 0E       		.uleb128 0xe
 2020 01ba 49       		.uleb128 0x49
 2021 01bb 13       		.uleb128 0x13
 2022 01bc 00       		.byte	0
 2023 01bd 00       		.byte	0
 2024 01be 23       		.uleb128 0x23
 2025 01bf 02       		.uleb128 0x2
 2026 01c0 00       		.byte	0
 2027 01c1 03       		.uleb128 0x3
 2028 01c2 0E       		.uleb128 0xe
 2029 01c3 3C       		.uleb128 0x3c
 2030 01c4 19       		.uleb128 0x19
 2031 01c5 00       		.byte	0
 2032 01c6 00       		.byte	0
 2033 01c7 24       		.uleb128 0x24
 2034 01c8 2E       		.uleb128 0x2e
 2035 01c9 01       		.byte	0x1
 2036 01ca 47       		.uleb128 0x47
 2037 01cb 13       		.uleb128 0x13
 2038 01cc 20       		.uleb128 0x20
 2039 01cd 0B       		.uleb128 0xb
 2040 01ce 64       		.uleb128 0x64
 2041 01cf 13       		.uleb128 0x13
 2042 01d0 01       		.uleb128 0x1
 2043 01d1 13       		.uleb128 0x13
 2044 01d2 00       		.byte	0
 2045 01d3 00       		.byte	0
 2046 01d4 25       		.uleb128 0x25
 2047 01d5 05       		.uleb128 0x5
 2048 01d6 00       		.byte	0
ARM GAS  C:\Users\Luis\AppData\Local\Temp\cc9YgjIe.s 			page 37


 2049 01d7 03       		.uleb128 0x3
 2050 01d8 0E       		.uleb128 0xe
 2051 01d9 49       		.uleb128 0x49
 2052 01da 13       		.uleb128 0x13
 2053 01db 34       		.uleb128 0x34
 2054 01dc 19       		.uleb128 0x19
 2055 01dd 00       		.byte	0
 2056 01de 00       		.byte	0
 2057 01df 26       		.uleb128 0x26
 2058 01e0 2E       		.uleb128 0x2e
 2059 01e1 01       		.byte	0x1
 2060 01e2 31       		.uleb128 0x31
 2061 01e3 13       		.uleb128 0x13
 2062 01e4 6E       		.uleb128 0x6e
 2063 01e5 0E       		.uleb128 0xe
 2064 01e6 11       		.uleb128 0x11
 2065 01e7 01       		.uleb128 0x1
 2066 01e8 12       		.uleb128 0x12
 2067 01e9 06       		.uleb128 0x6
 2068 01ea 40       		.uleb128 0x40
 2069 01eb 18       		.uleb128 0x18
 2070 01ec 64       		.uleb128 0x64
 2071 01ed 13       		.uleb128 0x13
 2072 01ee 9642     		.uleb128 0x2116
 2073 01f0 19       		.uleb128 0x19
 2074 01f1 01       		.uleb128 0x1
 2075 01f2 13       		.uleb128 0x13
 2076 01f3 00       		.byte	0
 2077 01f4 00       		.byte	0
 2078 01f5 27       		.uleb128 0x27
 2079 01f6 05       		.uleb128 0x5
 2080 01f7 00       		.byte	0
 2081 01f8 31       		.uleb128 0x31
 2082 01f9 13       		.uleb128 0x13
 2083 01fa 02       		.uleb128 0x2
 2084 01fb 18       		.uleb128 0x18
 2085 01fc 00       		.byte	0
 2086 01fd 00       		.byte	0
 2087 01fe 28       		.uleb128 0x28
 2088 01ff 2E       		.uleb128 0x2e
 2089 0200 01       		.byte	0x1
 2090 0201 47       		.uleb128 0x47
 2091 0202 13       		.uleb128 0x13
 2092 0203 11       		.uleb128 0x11
 2093 0204 01       		.uleb128 0x1
 2094 0205 12       		.uleb128 0x12
 2095 0206 06       		.uleb128 0x6
 2096 0207 40       		.uleb128 0x40
 2097 0208 18       		.uleb128 0x18
 2098 0209 64       		.uleb128 0x64
 2099 020a 13       		.uleb128 0x13
 2100 020b 9642     		.uleb128 0x2116
 2101 020d 19       		.uleb128 0x19
 2102 020e 01       		.uleb128 0x1
 2103 020f 13       		.uleb128 0x13
 2104 0210 00       		.byte	0
 2105 0211 00       		.byte	0
ARM GAS  C:\Users\Luis\AppData\Local\Temp\cc9YgjIe.s 			page 38


 2106 0212 29       		.uleb128 0x29
 2107 0213 05       		.uleb128 0x5
 2108 0214 00       		.byte	0
 2109 0215 03       		.uleb128 0x3
 2110 0216 0E       		.uleb128 0xe
 2111 0217 49       		.uleb128 0x49
 2112 0218 13       		.uleb128 0x13
 2113 0219 34       		.uleb128 0x34
 2114 021a 19       		.uleb128 0x19
 2115 021b 02       		.uleb128 0x2
 2116 021c 18       		.uleb128 0x18
 2117 021d 00       		.byte	0
 2118 021e 00       		.byte	0
 2119 021f 2A       		.uleb128 0x2a
 2120 0220 05       		.uleb128 0x5
 2121 0221 00       		.byte	0
 2122 0222 03       		.uleb128 0x3
 2123 0223 0E       		.uleb128 0xe
 2124 0224 3A       		.uleb128 0x3a
 2125 0225 0B       		.uleb128 0xb
 2126 0226 3B       		.uleb128 0x3b
 2127 0227 0B       		.uleb128 0xb
 2128 0228 49       		.uleb128 0x49
 2129 0229 13       		.uleb128 0x13
 2130 022a 02       		.uleb128 0x2
 2131 022b 18       		.uleb128 0x18
 2132 022c 00       		.byte	0
 2133 022d 00       		.byte	0
 2134 022e 2B       		.uleb128 0x2b
 2135 022f 0B       		.uleb128 0xb
 2136 0230 01       		.byte	0x1
 2137 0231 11       		.uleb128 0x11
 2138 0232 01       		.uleb128 0x1
 2139 0233 12       		.uleb128 0x12
 2140 0234 06       		.uleb128 0x6
 2141 0235 00       		.byte	0
 2142 0236 00       		.byte	0
 2143 0237 2C       		.uleb128 0x2c
 2144 0238 34       		.uleb128 0x34
 2145 0239 00       		.byte	0
 2146 023a 03       		.uleb128 0x3
 2147 023b 0E       		.uleb128 0xe
 2148 023c 3A       		.uleb128 0x3a
 2149 023d 0B       		.uleb128 0xb
 2150 023e 3B       		.uleb128 0x3b
 2151 023f 0B       		.uleb128 0xb
 2152 0240 49       		.uleb128 0x49
 2153 0241 13       		.uleb128 0x13
 2154 0242 02       		.uleb128 0x2
 2155 0243 18       		.uleb128 0x18
 2156 0244 00       		.byte	0
 2157 0245 00       		.byte	0
 2158 0246 2D       		.uleb128 0x2d
 2159 0247 34       		.uleb128 0x34
 2160 0248 00       		.byte	0
 2161 0249 03       		.uleb128 0x3
 2162 024a 0E       		.uleb128 0xe
ARM GAS  C:\Users\Luis\AppData\Local\Temp\cc9YgjIe.s 			page 39


 2163 024b 3A       		.uleb128 0x3a
 2164 024c 0B       		.uleb128 0xb
 2165 024d 3B       		.uleb128 0x3b
 2166 024e 05       		.uleb128 0x5
 2167 024f 49       		.uleb128 0x49
 2168 0250 13       		.uleb128 0x13
 2169 0251 3F       		.uleb128 0x3f
 2170 0252 19       		.uleb128 0x19
 2171 0253 3C       		.uleb128 0x3c
 2172 0254 19       		.uleb128 0x19
 2173 0255 00       		.byte	0
 2174 0256 00       		.byte	0
 2175 0257 2E       		.uleb128 0x2e
 2176 0258 34       		.uleb128 0x34
 2177 0259 00       		.byte	0
 2178 025a 03       		.uleb128 0x3
 2179 025b 08       		.uleb128 0x8
 2180 025c 3A       		.uleb128 0x3a
 2181 025d 0B       		.uleb128 0xb
 2182 025e 3B       		.uleb128 0x3b
 2183 025f 05       		.uleb128 0x5
 2184 0260 49       		.uleb128 0x49
 2185 0261 13       		.uleb128 0x13
 2186 0262 3F       		.uleb128 0x3f
 2187 0263 19       		.uleb128 0x19
 2188 0264 3C       		.uleb128 0x3c
 2189 0265 19       		.uleb128 0x19
 2190 0266 00       		.byte	0
 2191 0267 00       		.byte	0
 2192 0268 00       		.byte	0
 2193              		.section	.debug_aranges,"",%progbits
 2194 0000 34000000 		.4byte	0x34
 2195 0004 0200     		.2byte	0x2
 2196 0006 00000000 		.4byte	.Ldebug_info0
 2197 000a 04       		.byte	0x4
 2198 000b 00       		.byte	0
 2199 000c 0000     		.2byte	0
 2200 000e 0000     		.2byte	0
 2201 0010 00000000 		.4byte	.LFB262
 2202 0014 3C000000 		.4byte	.LFE262-.LFB262
 2203 0018 00000000 		.4byte	.LFB264
 2204 001c 1E000000 		.4byte	.LFE264-.LFB264
 2205 0020 00000000 		.4byte	.LFB265
 2206 0024 F6000000 		.4byte	.LFE265-.LFB265
 2207 0028 00000000 		.4byte	.LFB266
 2208 002c 34000000 		.4byte	.LFE266-.LFB266
 2209 0030 00000000 		.4byte	0
 2210 0034 00000000 		.4byte	0
 2211              		.section	.debug_ranges,"",%progbits
 2212              	.Ldebug_ranges0:
 2213 0000 00000000 		.4byte	.LFB262
 2214 0004 3C000000 		.4byte	.LFE262
 2215 0008 00000000 		.4byte	.LFB264
 2216 000c 1E000000 		.4byte	.LFE264
 2217 0010 00000000 		.4byte	.LFB265
 2218 0014 F6000000 		.4byte	.LFE265
 2219 0018 00000000 		.4byte	.LFB266
ARM GAS  C:\Users\Luis\AppData\Local\Temp\cc9YgjIe.s 			page 40


 2220 001c 34000000 		.4byte	.LFE266
 2221 0020 00000000 		.4byte	0
 2222 0024 00000000 		.4byte	0
 2223              		.section	.debug_line,"",%progbits
 2224              	.Ldebug_line0:
 2225 0000 EA010000 		.section	.debug_str,"MS",%progbits,1
 2225      02007E01 
 2225      00000201 
 2225      FB0E0D00 
 2225      01010101 
 2226              	.LASF14:
 2227 0000 72747469 		.ascii	"rttime_t\000"
 2227      6D655F74 
 2227      00
 2228              	.LASF58:
 2229 0009 72656164 		.ascii	"ready_list_t\000"
 2229      795F6C69 
 2229      73745F74 
 2229      00
 2230              	.LASF138:
 2231 0016 5F5F696E 		.ascii	"__in_chrg\000"
 2231      5F636872 
 2231      6700
 2232              	.LASF28:
 2233 0020 77747472 		.ascii	"wttrp\000"
 2233      7000
 2234              	.LASF25:
 2235 0026 7264796D 		.ascii	"rdymsg\000"
 2235      736700
 2236              	.LASF11:
 2237 002d 75696E74 		.ascii	"uint64_t\000"
 2237      36345F74 
 2237      00
 2238              	.LASF88:
 2239 0036 6B65726E 		.ascii	"kernel_stats\000"
 2239      656C5F73 
 2239      74617473 
 2239      00
 2240              	.LASF94:
 2241 0043 706F7274 		.ascii	"port_intctx\000"
 2241      5F696E74 
 2241      63747800 
 2242              	.LASF86:
 2243 004f 76746C69 		.ascii	"vtlist\000"
 2243      737400
 2244              	.LASF110:
 2245 0056 776F7273 		.ascii	"worst\000"
 2245      7400
 2246              	.LASF113:
 2247 005c 74696D65 		.ascii	"time_measurement_t\000"
 2247      5F6D6561 
 2247      73757265 
 2247      6D656E74 
 2247      5F7400
 2248              	.LASF12:
 2249 006f 6C6F6E67 		.ascii	"long long unsigned int\000"
 2249      206C6F6E 
ARM GAS  C:\Users\Luis\AppData\Local\Temp\cc9YgjIe.s 			page 41


 2249      6720756E 
 2249      7369676E 
 2249      65642069 
 2250              	.LASF98:
 2251 0086 73655F73 		.ascii	"se_state\000"
 2251      74617465 
 2251      00
 2252              	.LASF26:
 2253 008f 65786974 		.ascii	"exitcode\000"
 2253      636F6465 
 2253      00
 2254              	.LASF87:
 2255 0098 6D61696E 		.ascii	"mainthread\000"
 2255      74687265 
 2255      616400
 2256              	.LASF132:
 2257 00a3 496E6974 		.ascii	"InitialDataFilter\000"
 2257      69616C44 
 2257      61746146 
 2257      696C7465 
 2257      7200
 2258              	.LASF74:
 2259 00b5 76697274 		.ascii	"virtual_timers_list_t\000"
 2259      75616C5F 
 2259      74696D65 
 2259      72735F6C 
 2259      6973745F 
 2260              	.LASF152:
 2261 00cb 49544D5F 		.ascii	"ITM_RxBuffer\000"
 2261      52784275 
 2261      66666572 
 2261      00
 2262              	.LASF57:
 2263 00d8 63685F74 		.ascii	"ch_threads_queue\000"
 2263      68726561 
 2263      64735F71 
 2263      75657565 
 2263      00
 2264              	.LASF34:
 2265 00e9 705F7072 		.ascii	"p_prio\000"
 2265      696F00
 2266              	.LASF10:
 2267 00f0 6C6F6E67 		.ascii	"long long int\000"
 2267      206C6F6E 
 2267      6720696E 
 2267      7400
 2268              	.LASF1:
 2269 00fe 7369676E 		.ascii	"signed char\000"
 2269      65642063 
 2269      68617200 
 2270              	.LASF160:
 2271 010a 73657449 		.ascii	"setInitialDataFilter\000"
 2271      6E697469 
 2271      616C4461 
 2271      74614669 
 2271      6C746572 
 2272              	.LASF49:
ARM GAS  C:\Users\Luis\AppData\Local\Temp\cc9YgjIe.s 			page 42


 2273 011f 705F6D70 		.ascii	"p_mpool\000"
 2273      6F6F6C00 
 2274              	.LASF124:
 2275 0127 6D5F7175 		.ascii	"m_queue\000"
 2275      65756500 
 2276              	.LASF140:
 2277 012f 5F5A4E33 		.ascii	"_ZN3IIRD0Ev\000"
 2277      49495244 
 2277      30457600 
 2278              	.LASF27:
 2279 013b 77746F62 		.ascii	"wtobjp\000"
 2279      6A7000
 2280              	.LASF155:
 2281 0142 433A5C55 		.ascii	"C:\\Users\\Luis\\git\\DSP-Library-Lanin\\examples\\"
 2281      73657273 
 2281      5C4C7569 
 2281      735C6769 
 2281      745C4453 
 2282 016f 4453502D 		.ascii	"DSP-Library\000"
 2282      4C696272 
 2282      61727900 
 2283              	.LASF84:
 2284 017b 63685F73 		.ascii	"ch_system\000"
 2284      79737465 
 2284      6D00
 2285              	.LASF7:
 2286 0185 6C6F6E67 		.ascii	"long int\000"
 2286      20696E74 
 2286      00
 2287              	.LASF16:
 2288 018e 74737461 		.ascii	"tstate_t\000"
 2288      74655F74 
 2288      00
 2289              	.LASF50:
 2290 0197 705F7374 		.ascii	"p_stats\000"
 2290      61747300 
 2291              	.LASF96:
 2292 019f 73655F74 		.ascii	"se_tp\000"
 2292      7000
 2293              	.LASF137:
 2294 01a5 74686973 		.ascii	"this\000"
 2294      00
 2295              	.LASF36:
 2296 01aa 705F6E65 		.ascii	"p_newer\000"
 2296      77657200 
 2297              	.LASF121:
 2298 01b2 735F7175 		.ascii	"s_queue\000"
 2298      65756500 
 2299              	.LASF150:
 2300 01ba 70446174 		.ascii	"pData\000"
 2300      6100
 2301              	.LASF63:
 2302 01c0 725F6E65 		.ascii	"r_newer\000"
 2302      77657200 
 2303              	.LASF91:
 2304 01c8 72656761 		.ascii	"regarm_t\000"
 2304      726D5F74 
ARM GAS  C:\Users\Luis\AppData\Local\Temp\cc9YgjIe.s 			page 43


 2304      00
 2305              	.LASF70:
 2306 01d1 76745F70 		.ascii	"vt_prev\000"
 2306      72657600 
 2307              	.LASF78:
 2308 01d9 63685F73 		.ascii	"ch_system_debug\000"
 2308      79737465 
 2308      6D5F6465 
 2308      62756700 
 2309              	.LASF128:
 2310 01e9 6D757465 		.ascii	"mutex_t\000"
 2310      785F7400 
 2311              	.LASF81:
 2312 01f1 6C6F636B 		.ascii	"lock_cnt\000"
 2312      5F636E74 
 2312      00
 2313              	.LASF95:
 2314 01fa 73655F74 		.ascii	"se_time\000"
 2314      696D6500 
 2315              	.LASF21:
 2316 0202 636E745F 		.ascii	"cnt_t\000"
 2316      7400
 2317              	.LASF162:
 2318 0208 5F5F7674 		.ascii	"__vtbl_ptr_type\000"
 2318      626C5F70 
 2318      74725F74 
 2318      79706500 
 2319              	.LASF39:
 2320 0218 705F7374 		.ascii	"p_stklimit\000"
 2320      6B6C696D 
 2320      697400
 2321              	.LASF0:
 2322 0223 756E7369 		.ascii	"unsigned int\000"
 2322      676E6564 
 2322      20696E74 
 2322      00
 2323              	.LASF161:
 2324 0230 5F5A4E33 		.ascii	"_ZN3IIR20setInitialDataFilterEP10DataFilter\000"
 2324      49495232 
 2324      30736574 
 2324      496E6974 
 2324      69616C44 
 2325              	.LASF29:
 2326 025c 77747365 		.ascii	"wtsemp\000"
 2326      6D7000
 2327              	.LASF77:
 2328 0263 73797374 		.ascii	"system_debug_t\000"
 2328      656D5F64 
 2328      65627567 
 2328      5F7400
 2329              	.LASF69:
 2330 0272 76745F6E 		.ascii	"vt_next\000"
 2330      65787400 
 2331              	.LASF51:
 2332 027a 746C7350 		.ascii	"tlsPtr\000"
 2332      747200
 2333              	.LASF115:
ARM GAS  C:\Users\Luis\AppData\Local\Temp\cc9YgjIe.s 			page 44


 2334 0281 6E5F6972 		.ascii	"n_irq\000"
 2334      7100
 2335              	.LASF144:
 2336 0287 5F436F6E 		.ascii	"_ContInputData\000"
 2336      74496E70 
 2336      75744461 
 2336      746100
 2337              	.LASF122:
 2338 0296 735F636E 		.ascii	"s_cnt\000"
 2338      7400
 2339              	.LASF4:
 2340 029c 73686F72 		.ascii	"short unsigned int\000"
 2340      7420756E 
 2340      7369676E 
 2340      65642069 
 2340      6E7400
 2341              	.LASF119:
 2342 02af 6B65726E 		.ascii	"kernel_stats_t\000"
 2342      656C5F73 
 2342      74617473 
 2342      5F7400
 2343              	.LASF104:
 2344 02be 31346368 		.ascii	"14ch_swc_event_t\000"
 2344      5F737763 
 2344      5F657665 
 2344      6E745F74 
 2344      00
 2345              	.LASF54:
 2346 02cf 63685F74 		.ascii	"ch_thread\000"
 2346      68726561 
 2346      6400
 2347              	.LASF19:
 2348 02d9 6D73675F 		.ascii	"msg_t\000"
 2348      7400
 2349              	.LASF111:
 2350 02df 6C617374 		.ascii	"last\000"
 2350      00
 2351              	.LASF22:
 2352 02e4 75636E74 		.ascii	"ucnt_t\000"
 2352      5F7400
 2353              	.LASF83:
 2354 02eb 63685F73 		.ascii	"ch_system_t\000"
 2354      79737465 
 2354      6D5F7400 
 2355              	.LASF15:
 2356 02f7 746D6F64 		.ascii	"tmode_t\000"
 2356      655F7400 
 2357              	.LASF129:
 2358 02ff 626F6F6C 		.ascii	"bool\000"
 2358      00
 2359              	.LASF118:
 2360 0304 6D5F6372 		.ascii	"m_crit_isr\000"
 2360      69745F69 
 2360      737200
 2361              	.LASF59:
 2362 030f 63685F72 		.ascii	"ch_ready_list\000"
 2362      65616479 
ARM GAS  C:\Users\Luis\AppData\Local\Temp\cc9YgjIe.s 			page 45


 2362      5F6C6973 
 2362      7400
 2363              	.LASF20:
 2364 031d 6576656E 		.ascii	"eventmask_t\000"
 2364      746D6173 
 2364      6B5F7400 
 2365              	.LASF134:
 2366 0329 46756E74 		.ascii	"FuntionsMath\000"
 2366      696F6E73 
 2366      4D617468 
 2366      00
 2367              	.LASF156:
 2368 0336 31376368 		.ascii	"17ch_trace_buffer_t\000"
 2368      5F747261 
 2368      63655F62 
 2368      75666665 
 2368      725F7400 
 2369              	.LASF92:
 2370 034a 73746B61 		.ascii	"stkalign_t\000"
 2370      6C69676E 
 2370      5F7400
 2371              	.LASF159:
 2372 0355 7E494952 		.ascii	"~IIR\000"
 2372      00
 2373              	.LASF100:
 2374 035a 74625F73 		.ascii	"tb_size\000"
 2374      697A6500 
 2375              	.LASF149:
 2376 0362 5F526573 		.ascii	"_Result\000"
 2376      756C7400 
 2377              	.LASF101:
 2378 036a 74625F70 		.ascii	"tb_ptr\000"
 2378      747200
 2379              	.LASF13:
 2380 0371 7274636E 		.ascii	"rtcnt_t\000"
 2380      745F7400 
 2381              	.LASF52:
 2382 0379 74687265 		.ascii	"thread_reference_t\000"
 2382      61645F72 
 2382      65666572 
 2382      656E6365 
 2382      5F7400
 2383              	.LASF75:
 2384 038c 63685F76 		.ascii	"ch_virtual_timers_list\000"
 2384      69727475 
 2384      616C5F74 
 2384      696D6572 
 2384      735F6C69 
 2385              	.LASF72:
 2386 03a3 76745F66 		.ascii	"vt_func\000"
 2386      756E6300 
 2387              	.LASF99:
 2388 03ab 63685F73 		.ascii	"ch_swc_event_t\000"
 2388      77635F65 
 2388      76656E74 
 2388      5F7400
 2389              	.LASF76:
ARM GAS  C:\Users\Luis\AppData\Local\Temp\cc9YgjIe.s 			page 46


 2390 03ba 76745F6C 		.ascii	"vt_lasttime\000"
 2390      61737474 
 2390      696D6500 
 2391              	.LASF37:
 2392 03c6 705F6F6C 		.ascii	"p_older\000"
 2392      64657200 
 2393              	.LASF62:
 2394 03ce 725F6374 		.ascii	"r_ctx\000"
 2394      7800
 2395              	.LASF108:
 2396 03d4 31387469 		.ascii	"18time_measurement_t\000"
 2396      6D655F6D 
 2396      65617375 
 2396      72656D65 
 2396      6E745F74 
 2397              	.LASF114:
 2398 03e9 31346B65 		.ascii	"14kernel_stats_t\000"
 2398      726E656C 
 2398      5F737461 
 2398      74735F74 
 2398      00
 2399              	.LASF107:
 2400 03fa 746D5F63 		.ascii	"tm_calibration_t\000"
 2400      616C6962 
 2400      72617469 
 2400      6F6E5F74 
 2400      00
 2401              	.LASF158:
 2402 040b 5F5A4E33 		.ascii	"_ZN3IIR11directFormIEf\000"
 2402      49495231 
 2402      31646972 
 2402      65637446 
 2402      6F726D49 
 2403              	.LASF64:
 2404 0422 725F6F6C 		.ascii	"r_older\000"
 2404      64657200 
 2405              	.LASF112:
 2406 042a 63756D75 		.ascii	"cumulative\000"
 2406      6C617469 
 2406      766500
 2407              	.LASF136:
 2408 0435 666C6F61 		.ascii	"float\000"
 2408      7400
 2409              	.LASF141:
 2410 043b 5F417272 		.ascii	"_ArrayInputsX\000"
 2410      6179496E 
 2410      70757473 
 2410      5800
 2411              	.LASF142:
 2412 0449 5F417272 		.ascii	"_ArrayInputsY\000"
 2412      6179496E 
 2412      70757473 
 2412      5900
 2413              	.LASF17:
 2414 0457 74726566 		.ascii	"trefs_t\000"
 2414      735F7400 
 2415              	.LASF102:
ARM GAS  C:\Users\Luis\AppData\Local\Temp\cc9YgjIe.s 			page 47


 2416 045f 74625F62 		.ascii	"tb_buffer\000"
 2416      75666665 
 2416      7200
 2417              	.LASF67:
 2418 0469 76697274 		.ascii	"virtual_timer_t\000"
 2418      75616C5F 
 2418      74696D65 
 2418      725F7400 
 2419              	.LASF33:
 2420 0479 705F7072 		.ascii	"p_prev\000"
 2420      657600
 2421              	.LASF153:
 2422 0480 474E5520 		.ascii	"GNU C++ 4.8.3 20131129 (release) [ARM/embedded-4_8-"
 2422      432B2B20 
 2422      342E382E 
 2422      33203230 
 2422      31333131 
 2423 04b3 6272616E 		.ascii	"branch revision 205641] -mcpu=cortex-m4 -mapcs-fram"
 2423      63682072 
 2423      65766973 
 2423      696F6E20 
 2423      32303536 
 2424 04e6 65202D6D 		.ascii	"e -mno-thumb-interwork -mthumb -ggdb -O0 -falign-fu"
 2424      6E6F2D74 
 2424      68756D62 
 2424      2D696E74 
 2424      6572776F 
 2425 0519 6E637469 		.ascii	"nctions=16 -ffunction-sections -fdata-sections -fno"
 2425      6F6E733D 
 2425      3136202D 
 2425      6666756E 
 2425      6374696F 
 2426 054c 2D636F6D 		.ascii	"-common -fno-rtti -fno-exceptions\000"
 2426      6D6F6E20 
 2426      2D666E6F 
 2426      2D727474 
 2426      69202D66 
 2427              	.LASF18:
 2428 056e 74707269 		.ascii	"tprio_t\000"
 2428      6F5F7400 
 2429              	.LASF116:
 2430 0576 6E5F6374 		.ascii	"n_ctxswc\000"
 2430      78737763 
 2430      00
 2431              	.LASF6:
 2432 057f 696E7433 		.ascii	"int32_t\000"
 2432      325F7400 
 2433              	.LASF103:
 2434 0587 63685F74 		.ascii	"ch_trace_buffer_t\000"
 2434      72616365 
 2434      5F627566 
 2434      6665725F 
 2434      7400
 2435              	.LASF151:
 2436 0599 70496E69 		.ascii	"pInitialDataFilter\000"
 2436      7469616C 
 2436      44617461 
ARM GAS  C:\Users\Luis\AppData\Local\Temp\cc9YgjIe.s 			page 48


 2436      46696C74 
 2436      657200
 2437              	.LASF47:
 2438 05ac 705F6D74 		.ascii	"p_mtxlist\000"
 2438      786C6973 
 2438      7400
 2439              	.LASF3:
 2440 05b6 73686F72 		.ascii	"short int\000"
 2440      7420696E 
 2440      7400
 2441              	.LASF40:
 2442 05c0 705F7374 		.ascii	"p_state\000"
 2442      61746500 
 2443              	.LASF145:
 2444 05c8 5F526573 		.ascii	"_ResultX\000"
 2444      756C7458 
 2444      00
 2445              	.LASF147:
 2446 05d1 5F526573 		.ascii	"_ResultY\000"
 2446      756C7459 
 2446      00
 2447              	.LASF61:
 2448 05da 725F7072 		.ascii	"r_prio\000"
 2448      696F00
 2449              	.LASF143:
 2450 05e1 5F46696C 		.ascii	"_FilterOrder\000"
 2450      7465724F 
 2450      72646572 
 2450      00
 2451              	.LASF31:
 2452 05ee 65776D61 		.ascii	"ewmask\000"
 2452      736B00
 2453              	.LASF32:
 2454 05f5 705F6E65 		.ascii	"p_next\000"
 2454      787400
 2455              	.LASF89:
 2456 05fc 69646C65 		.ascii	"idle_thread_wa\000"
 2456      5F746872 
 2456      6561645F 
 2456      776100
 2457              	.LASF68:
 2458 060b 63685F76 		.ascii	"ch_virtual_timer\000"
 2458      69727475 
 2458      616C5F74 
 2458      696D6572 
 2458      00
 2459              	.LASF120:
 2460 061c 63685F73 		.ascii	"ch_semaphore\000"
 2460      656D6170 
 2460      686F7265 
 2460      00
 2461              	.LASF46:
 2462 0629 705F6570 		.ascii	"p_epending\000"
 2462      656E6469 
 2462      6E6700
 2463              	.LASF8:
 2464 0634 75696E74 		.ascii	"uint32_t\000"
ARM GAS  C:\Users\Luis\AppData\Local\Temp\cc9YgjIe.s 			page 49


 2464      33325F74 
 2464      00
 2465              	.LASF30:
 2466 063d 77746D74 		.ascii	"wtmtxp\000"
 2466      787000
 2467              	.LASF60:
 2468 0644 725F7175 		.ascii	"r_queue\000"
 2468      65756500 
 2469              	.LASF71:
 2470 064c 76745F64 		.ascii	"vt_delta\000"
 2470      656C7461 
 2470      00
 2471              	.LASF55:
 2472 0655 63685F74 		.ascii	"ch_threads_list\000"
 2472      68726561 
 2472      64735F6C 
 2472      69737400 
 2473              	.LASF133:
 2474 0665 436F6E74 		.ascii	"ContBuffer\000"
 2474      42756666 
 2474      657200
 2475              	.LASF9:
 2476 0670 6C6F6E67 		.ascii	"long unsigned int\000"
 2476      20756E73 
 2476      69676E65 
 2476      6420696E 
 2476      7400
 2477              	.LASF65:
 2478 0682 725F6375 		.ascii	"r_current\000"
 2478      7272656E 
 2478      7400
 2479              	.LASF127:
 2480 068c 63686172 		.ascii	"char\000"
 2480      00
 2481              	.LASF105:
 2482 0691 3136746D 		.ascii	"16tm_calibration_t\000"
 2482      5F63616C 
 2482      69627261 
 2482      74696F6E 
 2482      5F7400
 2483              	.LASF109:
 2484 06a4 62657374 		.ascii	"best\000"
 2484      00
 2485              	.LASF126:
 2486 06a9 6D5F6E65 		.ascii	"m_next\000"
 2486      787400
 2487              	.LASF23:
 2488 06b0 73797374 		.ascii	"systime_t\000"
 2488      696D655F 
 2488      7400
 2489              	.LASF48:
 2490 06ba 705F7265 		.ascii	"p_realprio\000"
 2490      616C7072 
 2490      696F00
 2491              	.LASF66:
 2492 06c5 76746675 		.ascii	"vtfunc_t\000"
 2492      6E635F74 
ARM GAS  C:\Users\Luis\AppData\Local\Temp\cc9YgjIe.s 			page 50


 2492      00
 2493              	.LASF79:
 2494 06ce 70616E69 		.ascii	"panic_msg\000"
 2494      635F6D73 
 2494      6700
 2495              	.LASF106:
 2496 06d8 6F666673 		.ascii	"offset\000"
 2496      657400
 2497              	.LASF139:
 2498 06df 5F5A4E33 		.ascii	"_ZN3IIRD2Ev\000"
 2498      49495244 
 2498      32457600 
 2499              	.LASF93:
 2500 06eb 636F6E74 		.ascii	"context\000"
 2500      65787400 
 2501              	.LASF2:
 2502 06f3 756E7369 		.ascii	"unsigned char\000"
 2502      676E6564 
 2502      20636861 
 2502      7200
 2503              	.LASF44:
 2504 0701 705F6D73 		.ascii	"p_msgqueue\000"
 2504      67717565 
 2504      756500
 2505              	.LASF73:
 2506 070c 76745F70 		.ascii	"vt_par\000"
 2506      617200
 2507              	.LASF130:
 2508 0713 5F767074 		.ascii	"_vptr.IIR\000"
 2508      722E4949 
 2508      5200
 2509              	.LASF56:
 2510 071d 74687265 		.ascii	"threads_queue_t\000"
 2510      6164735F 
 2510      71756575 
 2510      655F7400 
 2511              	.LASF38:
 2512 072d 705F6E61 		.ascii	"p_name\000"
 2512      6D6500
 2513              	.LASF42:
 2514 0734 705F7265 		.ascii	"p_refs\000"
 2514      667300
 2515              	.LASF80:
 2516 073b 6973725F 		.ascii	"isr_cnt\000"
 2516      636E7400 
 2517              	.LASF131:
 2518 0743 4D617468 		.ascii	"MathOperation\000"
 2518      4F706572 
 2518      6174696F 
 2518      6E00
 2519              	.LASF24:
 2520 0751 74687265 		.ascii	"thread_t\000"
 2520      61645F74 
 2520      00
 2521              	.LASF117:
 2522 075a 6D5F6372 		.ascii	"m_crit_thd\000"
 2522      69745F74 
ARM GAS  C:\Users\Luis\AppData\Local\Temp\cc9YgjIe.s 			page 51


 2522      686400
 2523              	.LASF135:
 2524 0765 44617461 		.ascii	"DataFilter\000"
 2524      46696C74 
 2524      657200
 2525              	.LASF85:
 2526 0770 726C6973 		.ascii	"rlist\000"
 2526      7400
 2527              	.LASF5:
 2528 0776 75696E74 		.ascii	"uint8_t\000"
 2528      385F7400 
 2529              	.LASF90:
 2530 077e 73697A65 		.ascii	"sizetype\000"
 2530      74797065 
 2530      00
 2531              	.LASF123:
 2532 0787 63685F6D 		.ascii	"ch_mutex\000"
 2532      75746578 
 2532      00
 2533              	.LASF148:
 2534 0790 5F417272 		.ascii	"_ArrayCoefficientsA\000"
 2534      6179436F 
 2534      65666669 
 2534      6369656E 
 2534      74734100 
 2535              	.LASF146:
 2536 07a4 5F417272 		.ascii	"_ArrayCoefficientsB\000"
 2536      6179436F 
 2536      65666669 
 2536      6369656E 
 2536      74734200 
 2537              	.LASF53:
 2538 07b8 74687265 		.ascii	"threads_list_t\000"
 2538      6164735F 
 2538      6C697374 
 2538      5F7400
 2539              	.LASF82:
 2540 07c7 74726163 		.ascii	"trace_buffer\000"
 2540      655F6275 
 2540      66666572 
 2540      00
 2541              	.LASF41:
 2542 07d4 705F666C 		.ascii	"p_flags\000"
 2542      61677300 
 2543              	.LASF45:
 2544 07dc 705F6D73 		.ascii	"p_msg\000"
 2544      6700
 2545              	.LASF157:
 2546 07e2 64697265 		.ascii	"directFormI\000"
 2546      6374466F 
 2546      726D4900 
 2547              	.LASF154:
 2548 07ee 4949522E 		.ascii	"IIR.cpp\000"
 2548      63707000 
 2549              	.LASF125:
 2550 07f6 6D5F6F77 		.ascii	"m_owner\000"
 2550      6E657200 
ARM GAS  C:\Users\Luis\AppData\Local\Temp\cc9YgjIe.s 			page 52


 2551              	.LASF97:
 2552 07fe 73655F77 		.ascii	"se_wtobjp\000"
 2552      746F626A 
 2552      7000
 2553              	.LASF35:
 2554 0808 705F6374 		.ascii	"p_ctx\000"
 2554      7800
 2555              	.LASF43:
 2556 080e 705F7761 		.ascii	"p_waiting\000"
 2556      6974696E 
 2556      6700
 2557              		.ident	"GCC: (GNU Tools for ARM Embedded Processors) 4.8.3 20131129 (release) [ARM/embedded-4_8-br
ARM GAS  C:\Users\Luis\AppData\Local\Temp\cc9YgjIe.s 			page 53


DEFINED SYMBOLS
                            *ABS*:00000000 IIR.cpp
C:\Users\Luis\AppData\Local\Temp\cc9YgjIe.s:19     .text._ZN3IIRD2Ev:00000000 $t
C:\Users\Luis\AppData\Local\Temp\cc9YgjIe.s:25     .text._ZN3IIRD2Ev:00000000 _ZN3IIRD2Ev
C:\Users\Luis\AppData\Local\Temp\cc9YgjIe.s:75     .text._ZN3IIRD2Ev:00000038 $d
C:\Users\Luis\AppData\Local\Temp\cc9YgjIe.s:330    .rodata._ZTV3IIR:00000000 _ZTV3IIR
C:\Users\Luis\AppData\Local\Temp\cc9YgjIe.s:25     .text._ZN3IIRD2Ev:00000000 _ZN3IIRD1Ev
C:\Users\Luis\AppData\Local\Temp\cc9YgjIe.s:82     .text._ZN3IIRD0Ev:00000000 $t
C:\Users\Luis\AppData\Local\Temp\cc9YgjIe.s:88     .text._ZN3IIRD0Ev:00000000 _ZN3IIRD0Ev
C:\Users\Luis\AppData\Local\Temp\cc9YgjIe.s:119    .text._ZN3IIR11directFormIEf:00000000 $t
C:\Users\Luis\AppData\Local\Temp\cc9YgjIe.s:125    .text._ZN3IIR11directFormIEf:00000000 _ZN3IIR11directFormIEf
C:\Users\Luis\AppData\Local\Temp\cc9YgjIe.s:275    .text._ZN3IIR20setInitialDataFilterEP10DataFilter:00000000 $t
C:\Users\Luis\AppData\Local\Temp\cc9YgjIe.s:281    .text._ZN3IIR20setInitialDataFilterEP10DataFilter:00000000 _ZN3IIR20setInitialDataFilterEP10DataFilter
C:\Users\Luis\AppData\Local\Temp\cc9YgjIe.s:327    .rodata._ZTV3IIR:00000000 $d
                     .debug_frame:00000010 $d
C:\Users\Luis\AppData\Local\Temp\cc9YgjIe.s:81     .text._ZN3IIRD2Ev:0000003c $t

UNDEFINED SYMBOLS
chHeapFree
_ZdlPv
__aeabi_fsub
_ZNK10DataFilter15getArrayInputsXEv
_ZNK10DataFilter15getArrayInputsYEv
_ZNK10DataFilter14getFilterOrderEv
_ZNK10DataFilter21getArrayCoefficientsBEv
_ZNK10DataFilter21getArrayCoefficientsAEv
_ZN10DataFilter9moveArrayEPf
_ZN12FuntionsMath3sumEiiPfS0_i
chHeapAlloc
_ZN10DataFilter16createArrayInputEv
