ARM GAS  C:\Users\Luis\AppData\Local\Temp\ccGdeljb.s 			page 1


   1              		.syntax unified
   2              		.cpu cortex-m4
   3              		.fpu softvfp
   4              		.eabi_attribute 20, 1
   5              		.eabi_attribute 21, 1
   6              		.eabi_attribute 23, 3
   7              		.eabi_attribute 24, 1
   8              		.eabi_attribute 25, 1
   9              		.eabi_attribute 26, 1
  10              		.eabi_attribute 30, 6
  11              		.eabi_attribute 34, 1
  12              		.eabi_attribute 18, 4
  13              		.thumb
  14              		.file	"IIR.cpp"
  15              		.text
  16              	.Ltext0:
  17              		.cfi_sections	.debug_frame
  18              		.global	__aeabi_fsub
  19              		.section	.text._ZN3IIR11directFormIEf,"ax",%progbits
  20              		.align	2
  21              		.p2align 4,,15
  22              		.global	_ZN3IIR11directFormIEf
  23              		.thumb
  24              		.thumb_func
  25              		.type	_ZN3IIR11directFormIEf, %function
  26              	_ZN3IIR11directFormIEf:
  27              	.LFB260:
  28              		.file 1 "IIR.cpp"
  29              		.loc 1 10 0
  30              		.cfi_startproc
  31              		@ args = 0, pretend = 0, frame = 48
  32              		@ frame_needed = 1, uses_anonymous_args = 0
  33 0000 80B5     		push	{r7, lr}
  34              		.cfi_def_cfa_offset 8
  35              		.cfi_offset 7, -8
  36              		.cfi_offset 14, -4
  37 0002 8EB0     		sub	sp, sp, #56
  38              		.cfi_def_cfa_offset 64
  39 0004 02AF     		add	r7, sp, #8
  40              		.cfi_def_cfa 7, 56
  41 0006 7860     		str	r0, [r7, #4]
  42 0008 3960     		str	r1, [r7]	@ float
  43              	.LBB2:
  44              		.loc 1 13 0
  45 000a 7B68     		ldr	r3, [r7, #4]
  46 000c 9B68     		ldr	r3, [r3, #8]
  47 000e 1846     		mov	r0, r3
  48 0010 FFF7FEFF 		bl	_ZNK10DataFilter15getArrayInputsXEv
  49 0014 F862     		str	r0, [r7, #44]
  50              		.loc 1 14 0
  51 0016 7B68     		ldr	r3, [r7, #4]
  52 0018 9B68     		ldr	r3, [r3, #8]
  53 001a 1846     		mov	r0, r3
  54 001c FFF7FEFF 		bl	_ZNK10DataFilter15getArrayInputsYEv
  55 0020 B862     		str	r0, [r7, #40]
  56              		.loc 1 16 0
  57 0022 7B68     		ldr	r3, [r7, #4]
ARM GAS  C:\Users\Luis\AppData\Local\Temp\ccGdeljb.s 			page 2


  58 0024 9B68     		ldr	r3, [r3, #8]
  59 0026 1846     		mov	r0, r3
  60 0028 FFF7FEFF 		bl	_ZNK10DataFilter14getFilterOrderEv
  61 002c 7862     		str	r0, [r7, #36]
  62              		.loc 1 19 0
  63 002e 4FF00003 		mov	r3, #0
  64 0032 3B62     		str	r3, [r7, #32]	@ float
  65              		.loc 1 20 0
  66 0034 7B68     		ldr	r3, [r7, #4]
  67 0036 9B68     		ldr	r3, [r3, #8]
  68 0038 1846     		mov	r0, r3
  69 003a FFF7FEFF 		bl	_ZNK10DataFilter21getArrayCoefficientsBEv
  70 003e F861     		str	r0, [r7, #28]
  71              		.loc 1 22 0
  72 0040 4FF00003 		mov	r3, #0
  73 0044 BB61     		str	r3, [r7, #24]	@ float
  74              		.loc 1 23 0
  75 0046 7B68     		ldr	r3, [r7, #4]
  76 0048 9B68     		ldr	r3, [r3, #8]
  77 004a 1846     		mov	r0, r3
  78 004c FFF7FEFF 		bl	_ZNK10DataFilter21getArrayCoefficientsAEv
  79 0050 7861     		str	r0, [r7, #20]
  80              		.loc 1 28 0
  81 0052 7B68     		ldr	r3, [r7, #4]
  82 0054 DB68     		ldr	r3, [r3, #12]
  83 0056 0A2B     		cmp	r3, #10
  84 0058 0ED1     		bne	.L2
  85              		.loc 1 29 0
  86 005a 7B68     		ldr	r3, [r7, #4]
  87 005c 9B68     		ldr	r3, [r3, #8]
  88 005e 1846     		mov	r0, r3
  89 0060 F96A     		ldr	r1, [r7, #44]
  90 0062 FFF7FEFF 		bl	_ZN10DataFilter9moveArrayEPf
  91              		.loc 1 30 0
  92 0066 7B68     		ldr	r3, [r7, #4]
  93 0068 9B68     		ldr	r3, [r3, #8]
  94 006a 1846     		mov	r0, r3
  95 006c B96A     		ldr	r1, [r7, #40]
  96 006e FFF7FEFF 		bl	_ZN10DataFilter9moveArrayEPf
  97              		.loc 1 31 0
  98 0072 7B68     		ldr	r3, [r7, #4]
  99 0074 0022     		movs	r2, #0
 100 0076 DA60     		str	r2, [r3, #12]
 101              	.L2:
 102              		.loc 1 34 0
 103 0078 7B68     		ldr	r3, [r7, #4]
 104 007a DA68     		ldr	r2, [r3, #12]
 105 007c 7B6A     		ldr	r3, [r7, #36]
 106 007e 1344     		add	r3, r3, r2
 107 0080 3B61     		str	r3, [r7, #16]
 108              		.loc 1 37 0
 109 0082 3B69     		ldr	r3, [r7, #16]
 110 0084 9B00     		lsls	r3, r3, #2
 111 0086 FA6A     		ldr	r2, [r7, #44]
 112 0088 1344     		add	r3, r3, r2
 113 008a 3A68     		ldr	r2, [r7]	@ float
 114 008c 1A60     		str	r2, [r3]	@ float
ARM GAS  C:\Users\Luis\AppData\Local\Temp\ccGdeljb.s 			page 3


 115              		.loc 1 41 0
 116 008e 7B68     		ldr	r3, [r7, #4]
 117 0090 5B68     		ldr	r3, [r3, #4]
 118 0092 7A68     		ldr	r2, [r7, #4]
 119 0094 D268     		ldr	r2, [r2, #12]
 120 0096 F96A     		ldr	r1, [r7, #44]
 121 0098 0091     		str	r1, [sp]
 122 009a 0192     		str	r2, [sp, #4]
 123 009c 1846     		mov	r0, r3
 124 009e 796A     		ldr	r1, [r7, #36]
 125 00a0 0022     		movs	r2, #0
 126 00a2 FB69     		ldr	r3, [r7, #28]
 127 00a4 FFF7FEFF 		bl	_ZN12FuntionsMath3sumEiiPfS0_i
 128 00a8 3862     		str	r0, [r7, #32]	@ float
 129              		.loc 1 45 0
 130 00aa 7B68     		ldr	r3, [r7, #4]
 131 00ac 5A68     		ldr	r2, [r3, #4]
 132 00ae 7B6A     		ldr	r3, [r7, #36]
 133 00b0 013B     		subs	r3, r3, #1
 134 00b2 7968     		ldr	r1, [r7, #4]
 135 00b4 C968     		ldr	r1, [r1, #12]
 136 00b6 B86A     		ldr	r0, [r7, #40]
 137 00b8 0090     		str	r0, [sp]
 138 00ba 0191     		str	r1, [sp, #4]
 139 00bc 1046     		mov	r0, r2
 140 00be 1946     		mov	r1, r3
 141 00c0 0022     		movs	r2, #0
 142 00c2 7B69     		ldr	r3, [r7, #20]
 143 00c4 FFF7FEFF 		bl	_ZN12FuntionsMath3sumEiiPfS0_i
 144 00c8 B861     		str	r0, [r7, #24]	@ float
 145              		.loc 1 48 0
 146 00ca 386A     		ldr	r0, [r7, #32]	@ float
 147 00cc B969     		ldr	r1, [r7, #24]	@ float
 148 00ce FFF7FEFF 		bl	__aeabi_fsub
 149 00d2 0346     		mov	r3, r0
 150 00d4 FB60     		str	r3, [r7, #12]	@ float
 151              		.loc 1 51 0
 152 00d6 3B69     		ldr	r3, [r7, #16]
 153 00d8 9B00     		lsls	r3, r3, #2
 154 00da BA6A     		ldr	r2, [r7, #40]
 155 00dc 1344     		add	r3, r3, r2
 156 00de FA68     		ldr	r2, [r7, #12]	@ float
 157 00e0 1A60     		str	r2, [r3]	@ float
 158              		.loc 1 53 0
 159 00e2 7B68     		ldr	r3, [r7, #4]
 160 00e4 DB68     		ldr	r3, [r3, #12]
 161 00e6 5A1C     		adds	r2, r3, #1
 162 00e8 7B68     		ldr	r3, [r7, #4]
 163 00ea DA60     		str	r2, [r3, #12]
 164              		.loc 1 55 0
 165 00ec FB68     		ldr	r3, [r7, #12]	@ float
 166              	.LBE2:
 167              		.loc 1 56 0
 168 00ee 1846     		mov	r0, r3
 169 00f0 3037     		adds	r7, r7, #48
 170 00f2 BD46     		mov	sp, r7
 171              		@ sp needed
ARM GAS  C:\Users\Luis\AppData\Local\Temp\ccGdeljb.s 			page 4


 172 00f4 80BD     		pop	{r7, pc}
 173              		.cfi_endproc
 174              	.LFE260:
 175              		.size	_ZN3IIR11directFormIEf, .-_ZN3IIR11directFormIEf
 176 00f6 00BFAFF3 		.section	.text._ZN3IIR12directFormIIEf,"ax",%progbits
 176      0080AFF3 
 176      0080
 177              		.align	2
 178              		.p2align 4,,15
 179              		.global	_ZN3IIR12directFormIIEf
 180              		.thumb
 181              		.thumb_func
 182              		.type	_ZN3IIR12directFormIIEf, %function
 183              	_ZN3IIR12directFormIIEf:
 184              	.LFB261:
 185              		.loc 1 58 0
 186              		.cfi_startproc
 187              		@ args = 0, pretend = 0, frame = 48
 188              		@ frame_needed = 1, uses_anonymous_args = 0
 189 0000 80B5     		push	{r7, lr}
 190              		.cfi_def_cfa_offset 8
 191              		.cfi_offset 7, -8
 192              		.cfi_offset 14, -4
 193 0002 8EB0     		sub	sp, sp, #56
 194              		.cfi_def_cfa_offset 64
 195 0004 02AF     		add	r7, sp, #8
 196              		.cfi_def_cfa 7, 56
 197 0006 7860     		str	r0, [r7, #4]
 198 0008 3960     		str	r1, [r7]	@ float
 199              	.LBB3:
 200              		.loc 1 60 0
 201 000a 7B68     		ldr	r3, [r7, #4]
 202 000c 9B68     		ldr	r3, [r3, #8]
 203 000e 1846     		mov	r0, r3
 204 0010 FFF7FEFF 		bl	_ZNK10DataFilter15getArrayInputsXEv
 205 0014 F862     		str	r0, [r7, #44]
 206              		.loc 1 61 0
 207 0016 7B68     		ldr	r3, [r7, #4]
 208 0018 9B68     		ldr	r3, [r3, #8]
 209 001a 1846     		mov	r0, r3
 210 001c FFF7FEFF 		bl	_ZNK10DataFilter15getArrayInputsYEv
 211 0020 B862     		str	r0, [r7, #40]
 212              		.loc 1 63 0
 213 0022 7B68     		ldr	r3, [r7, #4]
 214 0024 9B68     		ldr	r3, [r3, #8]
 215 0026 1846     		mov	r0, r3
 216 0028 FFF7FEFF 		bl	_ZNK10DataFilter14getFilterOrderEv
 217 002c 7862     		str	r0, [r7, #36]
 218              		.loc 1 66 0
 219 002e 4FF00003 		mov	r3, #0
 220 0032 3B62     		str	r3, [r7, #32]	@ float
 221              		.loc 1 67 0
 222 0034 4FF00003 		mov	r3, #0
 223 0038 FB61     		str	r3, [r7, #28]	@ float
 224              		.loc 1 68 0
 225 003a 7B68     		ldr	r3, [r7, #4]
 226 003c 9B68     		ldr	r3, [r3, #8]
ARM GAS  C:\Users\Luis\AppData\Local\Temp\ccGdeljb.s 			page 5


 227 003e 1846     		mov	r0, r3
 228 0040 FFF7FEFF 		bl	_ZNK10DataFilter21getArrayCoefficientsBEv
 229 0044 B861     		str	r0, [r7, #24]
 230              		.loc 1 70 0
 231 0046 4FF00003 		mov	r3, #0
 232 004a 7B61     		str	r3, [r7, #20]	@ float
 233              		.loc 1 71 0
 234 004c 7B68     		ldr	r3, [r7, #4]
 235 004e 9B68     		ldr	r3, [r3, #8]
 236 0050 1846     		mov	r0, r3
 237 0052 FFF7FEFF 		bl	_ZNK10DataFilter21getArrayCoefficientsAEv
 238 0056 3861     		str	r0, [r7, #16]
 239              		.loc 1 76 0
 240 0058 7B68     		ldr	r3, [r7, #4]
 241 005a DB68     		ldr	r3, [r3, #12]
 242 005c 0A2B     		cmp	r3, #10
 243 005e 0ED1     		bne	.L5
 244              		.loc 1 77 0
 245 0060 7B68     		ldr	r3, [r7, #4]
 246 0062 9B68     		ldr	r3, [r3, #8]
 247 0064 1846     		mov	r0, r3
 248 0066 F96A     		ldr	r1, [r7, #44]
 249 0068 FFF7FEFF 		bl	_ZN10DataFilter9moveArrayEPf
 250              		.loc 1 78 0
 251 006c 7B68     		ldr	r3, [r7, #4]
 252 006e 9B68     		ldr	r3, [r3, #8]
 253 0070 1846     		mov	r0, r3
 254 0072 B96A     		ldr	r1, [r7, #40]
 255 0074 FFF7FEFF 		bl	_ZN10DataFilter9moveArrayEPf
 256              		.loc 1 79 0
 257 0078 7B68     		ldr	r3, [r7, #4]
 258 007a 0022     		movs	r2, #0
 259 007c DA60     		str	r2, [r3, #12]
 260              	.L5:
 261              		.loc 1 82 0
 262 007e 7B68     		ldr	r3, [r7, #4]
 263 0080 DA68     		ldr	r2, [r3, #12]
 264 0082 7B6A     		ldr	r3, [r7, #36]
 265 0084 1344     		add	r3, r3, r2
 266 0086 FB60     		str	r3, [r7, #12]
 267              		.loc 1 85 0
 268 0088 FB68     		ldr	r3, [r7, #12]
 269 008a 9B00     		lsls	r3, r3, #2
 270 008c FA6A     		ldr	r2, [r7, #44]
 271 008e 1344     		add	r3, r3, r2
 272 0090 3A68     		ldr	r2, [r7]	@ float
 273 0092 1A60     		str	r2, [r3]	@ float
 274              		.loc 1 89 0
 275 0094 7B68     		ldr	r3, [r7, #4]
 276 0096 5A68     		ldr	r2, [r3, #4]
 277 0098 7B6A     		ldr	r3, [r7, #36]
 278 009a 013B     		subs	r3, r3, #1
 279 009c 7968     		ldr	r1, [r7, #4]
 280 009e C968     		ldr	r1, [r1, #12]
 281 00a0 B86A     		ldr	r0, [r7, #40]
 282 00a2 0090     		str	r0, [sp]
 283 00a4 0191     		str	r1, [sp, #4]
ARM GAS  C:\Users\Luis\AppData\Local\Temp\ccGdeljb.s 			page 6


 284 00a6 1046     		mov	r0, r2
 285 00a8 1946     		mov	r1, r3
 286 00aa 0022     		movs	r2, #0
 287 00ac 3B69     		ldr	r3, [r7, #16]
 288 00ae FFF7FEFF 		bl	_ZN12FuntionsMath3sumEiiPfS0_i
 289 00b2 3862     		str	r0, [r7, #32]	@ float
 290              		.loc 1 91 0
 291 00b4 3868     		ldr	r0, [r7]	@ float
 292 00b6 396A     		ldr	r1, [r7, #32]	@ float
 293 00b8 FFF7FEFF 		bl	__aeabi_fsub
 294 00bc 0346     		mov	r3, r0
 295 00be FB61     		str	r3, [r7, #28]	@ float
 296              		.loc 1 93 0
 297 00c0 FB68     		ldr	r3, [r7, #12]
 298 00c2 9B00     		lsls	r3, r3, #2
 299 00c4 BA6A     		ldr	r2, [r7, #40]
 300 00c6 1344     		add	r3, r3, r2
 301 00c8 FA69     		ldr	r2, [r7, #28]	@ float
 302 00ca 1A60     		str	r2, [r3]	@ float
 303              		.loc 1 96 0
 304 00cc 7B68     		ldr	r3, [r7, #4]
 305 00ce 5B68     		ldr	r3, [r3, #4]
 306 00d0 7A68     		ldr	r2, [r7, #4]
 307 00d2 D268     		ldr	r2, [r2, #12]
 308 00d4 B96A     		ldr	r1, [r7, #40]
 309 00d6 0091     		str	r1, [sp]
 310 00d8 0192     		str	r2, [sp, #4]
 311 00da 1846     		mov	r0, r3
 312 00dc 796A     		ldr	r1, [r7, #36]
 313 00de 0022     		movs	r2, #0
 314 00e0 BB69     		ldr	r3, [r7, #24]
 315 00e2 FFF7FEFF 		bl	_ZN12FuntionsMath3sumEiiPfS0_i
 316 00e6 B860     		str	r0, [r7, #8]	@ float
 317              		.loc 1 98 0
 318 00e8 7B68     		ldr	r3, [r7, #4]
 319 00ea DB68     		ldr	r3, [r3, #12]
 320 00ec 5A1C     		adds	r2, r3, #1
 321 00ee 7B68     		ldr	r3, [r7, #4]
 322 00f0 DA60     		str	r2, [r3, #12]
 323              		.loc 1 100 0
 324 00f2 BB68     		ldr	r3, [r7, #8]	@ float
 325              	.LBE3:
 326              		.loc 1 101 0
 327 00f4 1846     		mov	r0, r3
 328 00f6 3037     		adds	r7, r7, #48
 329 00f8 BD46     		mov	sp, r7
 330              		@ sp needed
 331 00fa 80BD     		pop	{r7, pc}
 332              		.cfi_endproc
 333              	.LFE261:
 334              		.size	_ZN3IIR12directFormIIEf, .-_ZN3IIR12directFormIIEf
 335 00fc AFF30080 		.text
 336              	.Letext0:
 337              		.file 2 "c:\\emtechesdk\\gcc\\arm-none-eabi\\include\\stdint.h"
 338              		.file 3 "../../ChibiOS/os/rt/ports/ARMCMx/compilers/GCC/chtypes.h"
 339              		.file 4 "../../ChibiOS/os/rt/include/chsystypes.h"
 340              		.file 5 "../../ChibiOS/os/rt/include/chschd.h"
ARM GAS  C:\Users\Luis\AppData\Local\Temp\ccGdeljb.s 			page 7


 341              		.file 6 "../../ChibiOS/os/rt/ports/ARMCMx/chcore.h"
 342              		.file 7 "../../ChibiOS/os/rt/ports/ARMCMx/chcore_v7m.h"
 343              		.file 8 "../../ChibiOS/os/rt/include/chdebug.h"
 344              		.file 9 "../../ChibiOS/os/rt/include/chtm.h"
 345              		.file 10 "../../ChibiOS/os/rt/include/chstats.h"
 346              		.file 11 "../../ChibiOS/os/rt/include/chsem.h"
 347              		.file 12 "../../ChibiOS/os/rt/include/chmtx.h"
 348              		.file 13 "../../ChibiOS/os/ext/CMSIS/include/core_cm4.h"
 349              		.section	.debug_info,"",%progbits
 350              	.Ldebug_info0:
 351 0000 A4090000 		.4byte	0x9a4
 352 0004 0400     		.2byte	0x4
 353 0006 00000000 		.4byte	.Ldebug_abbrev0
 354 000a 04       		.byte	0x4
 355 000b 01       		.uleb128 0x1
 356 000c 35040000 		.4byte	.LASF146
 357 0010 04       		.byte	0x4
 358 0011 5C070000 		.4byte	.LASF147
 359 0015 4B010000 		.4byte	.LASF148
 360 0019 00000000 		.4byte	.Ldebug_ranges0+0
 361 001d 00000000 		.4byte	0
 362 0021 00000000 		.4byte	.Ldebug_line0
 363 0025 02       		.uleb128 0x2
 364 0026 04       		.byte	0x4
 365 0027 05       		.byte	0x5
 366 0028 696E7400 		.ascii	"int\000"
 367 002c 03       		.uleb128 0x3
 368 002d 04       		.byte	0x4
 369 002e 07       		.byte	0x7
 370 002f 23020000 		.4byte	.LASF0
 371 0033 03       		.uleb128 0x3
 372 0034 01       		.byte	0x1
 373 0035 06       		.byte	0x6
 374 0036 28010000 		.4byte	.LASF1
 375 003a 04       		.uleb128 0x4
 376 003b BE060000 		.4byte	.LASF5
 377 003f 02       		.byte	0x2
 378 0040 2A       		.byte	0x2a
 379 0041 45000000 		.4byte	0x45
 380 0045 03       		.uleb128 0x3
 381 0046 01       		.byte	0x1
 382 0047 08       		.byte	0x8
 383 0048 43050000 		.4byte	.LASF2
 384 004c 03       		.uleb128 0x3
 385 004d 02       		.byte	0x2
 386 004e 05       		.byte	0x5
 387 004f 5B050000 		.4byte	.LASF3
 388 0053 03       		.uleb128 0x3
 389 0054 02       		.byte	0x2
 390 0055 07       		.byte	0x7
 391 0056 6C020000 		.4byte	.LASF4
 392 005a 04       		.uleb128 0x4
 393 005b 3B050000 		.4byte	.LASF6
 394 005f 02       		.byte	0x2
 395 0060 4F       		.byte	0x4f
 396 0061 65000000 		.4byte	0x65
 397 0065 03       		.uleb128 0x3
ARM GAS  C:\Users\Luis\AppData\Local\Temp\ccGdeljb.s 			page 8


 398 0066 04       		.byte	0x4
 399 0067 05       		.byte	0x5
 400 0068 8E010000 		.4byte	.LASF7
 401 006c 04       		.uleb128 0x4
 402 006d DB050000 		.4byte	.LASF8
 403 0071 02       		.byte	0x2
 404 0072 50       		.byte	0x50
 405 0073 77000000 		.4byte	0x77
 406 0077 03       		.uleb128 0x3
 407 0078 04       		.byte	0x4
 408 0079 07       		.byte	0x7
 409 007a 0C060000 		.4byte	.LASF9
 410 007e 03       		.uleb128 0x3
 411 007f 08       		.byte	0x8
 412 0080 05       		.byte	0x5
 413 0081 1A010000 		.4byte	.LASF10
 414 0085 04       		.uleb128 0x4
 415 0086 29000000 		.4byte	.LASF11
 416 008a 02       		.byte	0x2
 417 008b 78       		.byte	0x78
 418 008c 90000000 		.4byte	0x90
 419 0090 03       		.uleb128 0x3
 420 0091 08       		.byte	0x8
 421 0092 07       		.byte	0x7
 422 0093 84000000 		.4byte	.LASF12
 423 0097 05       		.uleb128 0x5
 424 0098 5A000000 		.4byte	0x5a
 425 009c 04       		.uleb128 0x4
 426 009d 6F060000 		.4byte	.LASF13
 427 00a1 03       		.byte	0x3
 428 00a2 45       		.byte	0x45
 429 00a3 6C000000 		.4byte	0x6c
 430 00a7 04       		.uleb128 0x4
 431 00a8 0A010000 		.4byte	.LASF14
 432 00ac 03       		.byte	0x3
 433 00ad 46       		.byte	0x46
 434 00ae 85000000 		.4byte	0x85
 435 00b2 04       		.uleb128 0x4
 436 00b3 C7020000 		.4byte	.LASF15
 437 00b7 03       		.byte	0x3
 438 00b8 48       		.byte	0x48
 439 00b9 3A000000 		.4byte	0x3a
 440 00bd 04       		.uleb128 0x4
 441 00be 97010000 		.4byte	.LASF16
 442 00c2 03       		.byte	0x3
 443 00c3 49       		.byte	0x49
 444 00c4 3A000000 		.4byte	0x3a
 445 00c8 04       		.uleb128 0x4
 446 00c9 0C040000 		.4byte	.LASF17
 447 00cd 03       		.byte	0x3
 448 00ce 4A       		.byte	0x4a
 449 00cf 3A000000 		.4byte	0x3a
 450 00d3 04       		.uleb128 0x4
 451 00d4 23050000 		.4byte	.LASF18
 452 00d8 03       		.byte	0x3
 453 00d9 4C       		.byte	0x4c
 454 00da 6C000000 		.4byte	0x6c
ARM GAS  C:\Users\Luis\AppData\Local\Temp\ccGdeljb.s 			page 9


 455 00de 04       		.uleb128 0x4
 456 00df A9020000 		.4byte	.LASF19
 457 00e3 03       		.byte	0x3
 458 00e4 4D       		.byte	0x4d
 459 00e5 5A000000 		.4byte	0x5a
 460 00e9 04       		.uleb128 0x4
 461 00ea F5020000 		.4byte	.LASF20
 462 00ee 03       		.byte	0x3
 463 00ef 4F       		.byte	0x4f
 464 00f0 6C000000 		.4byte	0x6c
 465 00f4 04       		.uleb128 0x4
 466 00f5 12020000 		.4byte	.LASF21
 467 00f9 03       		.byte	0x3
 468 00fa 51       		.byte	0x51
 469 00fb 5A000000 		.4byte	0x5a
 470 00ff 04       		.uleb128 0x4
 471 0100 B4020000 		.4byte	.LASF22
 472 0104 03       		.byte	0x3
 473 0105 52       		.byte	0x52
 474 0106 6C000000 		.4byte	0x6c
 475 010a 04       		.uleb128 0x4
 476 010b 38060000 		.4byte	.LASF23
 477 010f 04       		.byte	0x4
 478 0110 33       		.byte	0x33
 479 0111 6C000000 		.4byte	0x6c
 480 0115 04       		.uleb128 0x4
 481 0116 23060000 		.4byte	.LASF24
 482 011a 04       		.byte	0x4
 483 011b 3F       		.byte	0x3f
 484 011c 20010000 		.4byte	0x120
 485 0120 06       		.uleb128 0x6
 486 0121 9F020000 		.4byte	.LASF54
 487 0125 68       		.byte	0x68
 488 0126 05       		.byte	0x5
 489 0127 C2       		.byte	0xc2
 490 0128 90020000 		.4byte	0x290
 491 012c 07       		.uleb128 0x7
 492 012d 04       		.byte	0x4
 493 012e 05       		.byte	0x5
 494 012f FA       		.byte	0xfa
 495 0130 89010000 		.4byte	0x189
 496 0134 08       		.uleb128 0x8
 497 0135 22000000 		.4byte	.LASF25
 498 0139 05       		.byte	0x5
 499 013a 0101     		.2byte	0x101
 500 013c DE000000 		.4byte	0xde
 501 0140 08       		.uleb128 0x8
 502 0141 B6000000 		.4byte	.LASF26
 503 0145 05       		.byte	0x5
 504 0146 0801     		.2byte	0x108
 505 0148 DE000000 		.4byte	0xde
 506 014c 08       		.uleb128 0x8
 507 014d CC060000 		.4byte	.LASF27
 508 0151 05       		.byte	0x5
 509 0152 0F01     		.2byte	0x10f
 510 0154 78030000 		.4byte	0x378
 511 0158 08       		.uleb128 0x8
ARM GAS  C:\Users\Luis\AppData\Local\Temp\ccGdeljb.s 			page 10


 512 0159 1C000000 		.4byte	.LASF28
 513 015d 05       		.byte	0x5
 514 015e 1601     		.2byte	0x116
 515 0160 F7060000 		.4byte	0x6f7
 516 0164 08       		.uleb128 0x8
 517 0165 38020000 		.4byte	.LASF29
 518 0169 05       		.byte	0x5
 519 016a 1E01     		.2byte	0x11e
 520 016c 22070000 		.4byte	0x722
 521 0170 08       		.uleb128 0x8
 522 0171 E4050000 		.4byte	.LASF30
 523 0175 05       		.byte	0x5
 524 0176 2701     		.2byte	0x127
 525 0178 59070000 		.4byte	0x759
 526 017c 08       		.uleb128 0x8
 527 017d 9C050000 		.4byte	.LASF31
 528 0181 05       		.byte	0x5
 529 0182 2F01     		.2byte	0x12f
 530 0184 E9000000 		.4byte	0xe9
 531 0188 00       		.byte	0
 532 0189 09       		.uleb128 0x9
 533 018a A3050000 		.4byte	.LASF32
 534 018e 05       		.byte	0x5
 535 018f C3       		.byte	0xc3
 536 0190 9B020000 		.4byte	0x29b
 537 0194 00       		.byte	0
 538 0195 09       		.uleb128 0x9
 539 0196 2E040000 		.4byte	.LASF33
 540 019a 05       		.byte	0x5
 541 019b C5       		.byte	0xc5
 542 019c 9B020000 		.4byte	0x29b
 543 01a0 04       		.byte	0x4
 544 01a1 09       		.uleb128 0x9
 545 01a2 13010000 		.4byte	.LASF34
 546 01a6 05       		.byte	0x5
 547 01a7 C7       		.byte	0xc7
 548 01a8 D3000000 		.4byte	0xd3
 549 01ac 08       		.byte	0x8
 550 01ad 09       		.uleb128 0x9
 551 01ae 76070000 		.4byte	.LASF35
 552 01b2 05       		.byte	0x5
 553 01b3 C8       		.byte	0xc8
 554 01b4 04050000 		.4byte	0x504
 555 01b8 0C       		.byte	0xc
 556 01b9 09       		.uleb128 0x9
 557 01ba AB010000 		.4byte	.LASF36
 558 01be 05       		.byte	0x5
 559 01bf CA       		.byte	0xca
 560 01c0 9B020000 		.4byte	0x29b
 561 01c4 10       		.byte	0x10
 562 01c5 09       		.uleb128 0x9
 563 01c6 80030000 		.4byte	.LASF37
 564 01ca 05       		.byte	0x5
 565 01cb CB       		.byte	0xcb
 566 01cc 9B020000 		.4byte	0x29b
 567 01d0 14       		.byte	0x14
 568 01d1 09       		.uleb128 0x9
ARM GAS  C:\Users\Luis\AppData\Local\Temp\ccGdeljb.s 			page 11


 569 01d2 2B050000 		.4byte	.LASF38
 570 01d6 05       		.byte	0x5
 571 01d7 D2       		.byte	0xd2
 572 01d8 5F070000 		.4byte	0x75f
 573 01dc 18       		.byte	0x18
 574 01dd 09       		.uleb128 0x9
 575 01de 18020000 		.4byte	.LASF39
 576 01e2 05       		.byte	0x5
 577 01e3 D8       		.byte	0xd8
 578 01e4 71070000 		.4byte	0x771
 579 01e8 1C       		.byte	0x1c
 580 01e9 09       		.uleb128 0x9
 581 01ea 65050000 		.4byte	.LASF40
 582 01ee 05       		.byte	0x5
 583 01ef DD       		.byte	0xdd
 584 01f0 BD000000 		.4byte	0xbd
 585 01f4 20       		.byte	0x20
 586 01f5 09       		.uleb128 0x9
 587 01f6 2F070000 		.4byte	.LASF41
 588 01fa 05       		.byte	0x5
 589 01fb E1       		.byte	0xe1
 590 01fc B2000000 		.4byte	0xb2
 591 0200 21       		.byte	0x21
 592 0201 09       		.uleb128 0x9
 593 0202 97060000 		.4byte	.LASF42
 594 0206 05       		.byte	0x5
 595 0207 E6       		.byte	0xe6
 596 0208 C8000000 		.4byte	0xc8
 597 020c 22       		.byte	0x22
 598 020d 0A       		.uleb128 0xa
 599 020e 705F7500 		.ascii	"p_u\000"
 600 0212 05       		.byte	0x5
 601 0213 3101     		.2byte	0x131
 602 0215 2C010000 		.4byte	0x12c
 603 0219 24       		.byte	0x24
 604 021a 0B       		.uleb128 0xb
 605 021b 28030000 		.4byte	.LASF43
 606 021f 05       		.byte	0x5
 607 0220 3601     		.2byte	0x136
 608 0222 A1020000 		.4byte	0x2a1
 609 0226 28       		.byte	0x28
 610 0227 0B       		.uleb128 0xb
 611 0228 3F020000 		.4byte	.LASF44
 612 022c 05       		.byte	0x5
 613 022d 3C01     		.2byte	0x13c
 614 022f C5020000 		.4byte	0x2c5
 615 0233 2C       		.byte	0x2c
 616 0234 0B       		.uleb128 0xb
 617 0235 37070000 		.4byte	.LASF45
 618 0239 05       		.byte	0x5
 619 023a 4001     		.2byte	0x140
 620 023c DE000000 		.4byte	0xde
 621 0240 34       		.byte	0x34
 622 0241 0B       		.uleb128 0xb
 623 0242 D0050000 		.4byte	.LASF46
 624 0246 05       		.byte	0x5
 625 0247 4601     		.2byte	0x146
ARM GAS  C:\Users\Luis\AppData\Local\Temp\ccGdeljb.s 			page 12


 626 0249 E9000000 		.4byte	0xe9
 627 024d 38       		.byte	0x38
 628 024e 0B       		.uleb128 0xb
 629 024f 51050000 		.4byte	.LASF47
 630 0253 05       		.byte	0x5
 631 0254 4D01     		.2byte	0x14d
 632 0256 59070000 		.4byte	0x759
 633 025a 3C       		.byte	0x3c
 634 025b 0B       		.uleb128 0xb
 635 025c 42060000 		.4byte	.LASF48
 636 0260 05       		.byte	0x5
 637 0261 5101     		.2byte	0x151
 638 0263 D3000000 		.4byte	0xd3
 639 0267 40       		.byte	0x40
 640 0268 0B       		.uleb128 0xb
 641 0269 34010000 		.4byte	.LASF49
 642 026d 05       		.byte	0x5
 643 026e 5801     		.2byte	0x158
 644 0270 78030000 		.4byte	0x378
 645 0274 44       		.byte	0x44
 646 0275 0B       		.uleb128 0xb
 647 0276 AA050000 		.4byte	.LASF50
 648 027a 05       		.byte	0x5
 649 027b 5E01     		.2byte	0x15e
 650 027d A4060000 		.4byte	0x6a4
 651 0281 48       		.byte	0x48
 652 0282 0B       		.uleb128 0xb
 653 0283 4A020000 		.4byte	.LASF51
 654 0287 05       		.byte	0x5
 655 0288 6201     		.2byte	0x162
 656 028a 78030000 		.4byte	0x378
 657 028e 60       		.byte	0x60
 658 028f 00       		.byte	0
 659 0290 04       		.uleb128 0x4
 660 0291 3B030000 		.4byte	.LASF52
 661 0295 04       		.byte	0x4
 662 0296 44       		.byte	0x44
 663 0297 9B020000 		.4byte	0x29b
 664 029b 0C       		.uleb128 0xc
 665 029c 04       		.byte	0x4
 666 029d 15010000 		.4byte	0x115
 667 02a1 04       		.uleb128 0x4
 668 02a2 13070000 		.4byte	.LASF53
 669 02a6 04       		.byte	0x4
 670 02a7 49       		.byte	0x49
 671 02a8 AC020000 		.4byte	0x2ac
 672 02ac 06       		.uleb128 0x6
 673 02ad FC050000 		.4byte	.LASF55
 674 02b1 04       		.byte	0x4
 675 02b2 05       		.byte	0x5
 676 02b3 B0       		.byte	0xb0
 677 02b4 C5020000 		.4byte	0x2c5
 678 02b8 09       		.uleb128 0x9
 679 02b9 A3050000 		.4byte	.LASF32
 680 02bd 05       		.byte	0x5
 681 02be B1       		.byte	0xb1
 682 02bf 9B020000 		.4byte	0x29b
ARM GAS  C:\Users\Luis\AppData\Local\Temp\ccGdeljb.s 			page 13


 683 02c3 00       		.byte	0
 684 02c4 00       		.byte	0
 685 02c5 04       		.uleb128 0x4
 686 02c6 7E060000 		.4byte	.LASF56
 687 02ca 04       		.byte	0x4
 688 02cb 50       		.byte	0x50
 689 02cc D0020000 		.4byte	0x2d0
 690 02d0 06       		.uleb128 0x6
 691 02d1 4B000000 		.4byte	.LASF57
 692 02d5 08       		.byte	0x8
 693 02d6 05       		.byte	0x5
 694 02d7 B7       		.byte	0xb7
 695 02d8 F5020000 		.4byte	0x2f5
 696 02dc 09       		.uleb128 0x9
 697 02dd A3050000 		.4byte	.LASF32
 698 02e1 05       		.byte	0x5
 699 02e2 B8       		.byte	0xb8
 700 02e3 9B020000 		.4byte	0x29b
 701 02e7 00       		.byte	0
 702 02e8 09       		.uleb128 0x9
 703 02e9 2E040000 		.4byte	.LASF33
 704 02ed 05       		.byte	0x5
 705 02ee B9       		.byte	0xb9
 706 02ef 9B020000 		.4byte	0x29b
 707 02f3 04       		.byte	0x4
 708 02f4 00       		.byte	0
 709 02f5 04       		.uleb128 0x4
 710 02f6 07000000 		.4byte	.LASF58
 711 02fa 04       		.byte	0x4
 712 02fb 57       		.byte	0x57
 713 02fc 00030000 		.4byte	0x300
 714 0300 0D       		.uleb128 0xd
 715 0301 E7020000 		.4byte	.LASF59
 716 0305 1C       		.byte	0x1c
 717 0306 05       		.byte	0x5
 718 0307 9001     		.2byte	0x190
 719 0309 5C030000 		.4byte	0x35c
 720 030d 0B       		.uleb128 0xb
 721 030e EB050000 		.4byte	.LASF60
 722 0312 05       		.byte	0x5
 723 0313 9101     		.2byte	0x191
 724 0315 C5020000 		.4byte	0x2c5
 725 0319 00       		.byte	0
 726 031a 0B       		.uleb128 0xb
 727 031b 88050000 		.4byte	.LASF61
 728 031f 05       		.byte	0x5
 729 0320 9201     		.2byte	0x192
 730 0322 D3000000 		.4byte	0xd3
 731 0326 08       		.byte	0x8
 732 0327 0B       		.uleb128 0xb
 733 0328 88030000 		.4byte	.LASF62
 734 032c 05       		.byte	0x5
 735 032d 9401     		.2byte	0x194
 736 032f 04050000 		.4byte	0x504
 737 0333 0C       		.byte	0xc
 738 0334 0B       		.uleb128 0xb
 739 0335 C3010000 		.4byte	.LASF63
ARM GAS  C:\Users\Luis\AppData\Local\Temp\ccGdeljb.s 			page 14


 740 0339 05       		.byte	0x5
 741 033a 9701     		.2byte	0x197
 742 033c 9B020000 		.4byte	0x29b
 743 0340 10       		.byte	0x10
 744 0341 0B       		.uleb128 0xb
 745 0342 CF030000 		.4byte	.LASF64
 746 0346 05       		.byte	0x5
 747 0347 9801     		.2byte	0x198
 748 0349 9B020000 		.4byte	0x29b
 749 034d 14       		.byte	0x14
 750 034e 0B       		.uleb128 0xb
 751 034f C5030000 		.4byte	.LASF65
 752 0353 05       		.byte	0x5
 753 0354 9B01     		.2byte	0x19b
 754 0356 9B020000 		.4byte	0x29b
 755 035a 18       		.byte	0x18
 756 035b 00       		.byte	0
 757 035c 04       		.uleb128 0x4
 758 035d 4D060000 		.4byte	.LASF66
 759 0361 04       		.byte	0x4
 760 0362 5C       		.byte	0x5c
 761 0363 67030000 		.4byte	0x367
 762 0367 0C       		.uleb128 0xc
 763 0368 04       		.byte	0x4
 764 0369 6D030000 		.4byte	0x36d
 765 036d 0E       		.uleb128 0xe
 766 036e 78030000 		.4byte	0x378
 767 0372 0F       		.uleb128 0xf
 768 0373 78030000 		.4byte	0x378
 769 0377 00       		.byte	0
 770 0378 10       		.uleb128 0x10
 771 0379 04       		.byte	0x4
 772 037a 04       		.uleb128 0x4
 773 037b 1E040000 		.4byte	.LASF67
 774 037f 04       		.byte	0x4
 775 0380 61       		.byte	0x61
 776 0381 85030000 		.4byte	0x385
 777 0385 0D       		.uleb128 0xd
 778 0386 B2050000 		.4byte	.LASF68
 779 038a 14       		.byte	0x14
 780 038b 05       		.byte	0x5
 781 038c 6B01     		.2byte	0x16b
 782 038e D4030000 		.4byte	0x3d4
 783 0392 0B       		.uleb128 0xb
 784 0393 30020000 		.4byte	.LASF69
 785 0397 05       		.byte	0x5
 786 0398 6C01     		.2byte	0x16c
 787 039a 77070000 		.4byte	0x777
 788 039e 00       		.byte	0
 789 039f 0B       		.uleb128 0xb
 790 03a0 D4010000 		.4byte	.LASF70
 791 03a4 05       		.byte	0x5
 792 03a5 6D01     		.2byte	0x16d
 793 03a7 77070000 		.4byte	0x777
 794 03ab 04       		.byte	0x4
 795 03ac 0B       		.uleb128 0xb
 796 03ad F3050000 		.4byte	.LASF71
ARM GAS  C:\Users\Luis\AppData\Local\Temp\ccGdeljb.s 			page 15


 797 03b1 05       		.byte	0x5
 798 03b2 6E01     		.2byte	0x16e
 799 03b4 0A010000 		.4byte	0x10a
 800 03b8 08       		.byte	0x8
 801 03b9 0B       		.uleb128 0xb
 802 03ba 7C070000 		.4byte	.LASF72
 803 03be 05       		.byte	0x5
 804 03bf 6F01     		.2byte	0x16f
 805 03c1 5C030000 		.4byte	0x35c
 806 03c5 0C       		.byte	0xc
 807 03c6 0B       		.uleb128 0xb
 808 03c7 77060000 		.4byte	.LASF73
 809 03cb 05       		.byte	0x5
 810 03cc 7101     		.2byte	0x171
 811 03ce 78030000 		.4byte	0x378
 812 03d2 10       		.byte	0x10
 813 03d3 00       		.byte	0
 814 03d4 04       		.uleb128 0x4
 815 03d5 CA000000 		.4byte	.LASF74
 816 03d9 04       		.byte	0x4
 817 03da 66       		.byte	0x66
 818 03db DF030000 		.4byte	0x3df
 819 03df 0D       		.uleb128 0xd
 820 03e0 4E030000 		.4byte	.LASF75
 821 03e4 10       		.byte	0x10
 822 03e5 05       		.byte	0x5
 823 03e6 7B01     		.2byte	0x17b
 824 03e8 21040000 		.4byte	0x421
 825 03ec 0B       		.uleb128 0xb
 826 03ed 30020000 		.4byte	.LASF69
 827 03f1 05       		.byte	0x5
 828 03f2 7C01     		.2byte	0x17c
 829 03f4 77070000 		.4byte	0x777
 830 03f8 00       		.byte	0
 831 03f9 0B       		.uleb128 0xb
 832 03fa D4010000 		.4byte	.LASF70
 833 03fe 05       		.byte	0x5
 834 03ff 7E01     		.2byte	0x17e
 835 0401 77070000 		.4byte	0x777
 836 0405 04       		.byte	0x4
 837 0406 0B       		.uleb128 0xb
 838 0407 F3050000 		.4byte	.LASF71
 839 040b 05       		.byte	0x5
 840 040c 8001     		.2byte	0x180
 841 040e 0A010000 		.4byte	0x10a
 842 0412 08       		.byte	0x8
 843 0413 0B       		.uleb128 0xb
 844 0414 74030000 		.4byte	.LASF76
 845 0418 05       		.byte	0x5
 846 0419 8801     		.2byte	0x188
 847 041b 0A010000 		.4byte	0x10a
 848 041f 0C       		.byte	0xc
 849 0420 00       		.byte	0
 850 0421 04       		.uleb128 0x4
 851 0422 5C000000 		.4byte	.LASF77
 852 0426 04       		.byte	0x4
 853 0427 6B       		.byte	0x6b
ARM GAS  C:\Users\Luis\AppData\Local\Temp\ccGdeljb.s 			page 16


 854 0428 2C040000 		.4byte	0x42c
 855 042c 11       		.uleb128 0x11
 856 042d DC010000 		.4byte	.LASF78
 857 0431 1404     		.2byte	0x414
 858 0433 05       		.byte	0x5
 859 0434 A201     		.2byte	0x1a2
 860 0436 6F040000 		.4byte	0x46f
 861 043a 0B       		.uleb128 0xb
 862 043b 56060000 		.4byte	.LASF79
 863 043f 05       		.byte	0x5
 864 0440 AA01     		.2byte	0x1aa
 865 0442 7D070000 		.4byte	0x77d
 866 0446 00       		.byte	0
 867 0447 0B       		.uleb128 0xb
 868 0448 9E060000 		.4byte	.LASF80
 869 044c 05       		.byte	0x5
 870 044d AF01     		.2byte	0x1af
 871 044f F4000000 		.4byte	0xf4
 872 0453 04       		.byte	0x4
 873 0454 0B       		.uleb128 0xb
 874 0455 FA010000 		.4byte	.LASF81
 875 0459 05       		.byte	0x5
 876 045a B301     		.2byte	0x1b3
 877 045c F4000000 		.4byte	0xf4
 878 0460 08       		.byte	0x8
 879 0461 0B       		.uleb128 0xb
 880 0462 22070000 		.4byte	.LASF82
 881 0466 05       		.byte	0x5
 882 0467 B901     		.2byte	0x1b9
 883 0469 2E060000 		.4byte	0x62e
 884 046d 0C       		.byte	0xc
 885 046e 00       		.byte	0
 886 046f 04       		.uleb128 0x4
 887 0470 BB020000 		.4byte	.LASF83
 888 0474 04       		.byte	0x4
 889 0475 70       		.byte	0x70
 890 0476 7A040000 		.4byte	0x47a
 891 047a 11       		.uleb128 0x11
 892 047b 84010000 		.4byte	.LASF84
 893 047f E805     		.2byte	0x5e8
 894 0481 05       		.byte	0x5
 895 0482 C201     		.2byte	0x1c2
 896 0484 E7040000 		.4byte	0x4e7
 897 0488 0B       		.uleb128 0xb
 898 0489 EC010000 		.4byte	.LASF85
 899 048d 05       		.byte	0x5
 900 048e C601     		.2byte	0x1c6
 901 0490 F5020000 		.4byte	0x2f5
 902 0494 00       		.byte	0
 903 0495 0B       		.uleb128 0xb
 904 0496 44010000 		.4byte	.LASF86
 905 049a 05       		.byte	0x5
 906 049b CA01     		.2byte	0x1ca
 907 049d D4030000 		.4byte	0x3d4
 908 04a1 1C       		.byte	0x1c
 909 04a2 0A       		.uleb128 0xa
 910 04a3 64626700 		.ascii	"dbg\000"
ARM GAS  C:\Users\Luis\AppData\Local\Temp\ccGdeljb.s 			page 17


 911 04a7 05       		.byte	0x5
 912 04a8 CE01     		.2byte	0x1ce
 913 04aa 21040000 		.4byte	0x421
 914 04ae 2C       		.byte	0x2c
 915 04af 12       		.uleb128 0x12
 916 04b0 BF000000 		.4byte	.LASF87
 917 04b4 05       		.byte	0x5
 918 04b5 D201     		.2byte	0x1d2
 919 04b7 15010000 		.4byte	0x115
 920 04bb 4004     		.2byte	0x440
 921 04bd 13       		.uleb128 0x13
 922 04be 746D00   		.ascii	"tm\000"
 923 04c1 05       		.byte	0x5
 924 04c2 D701     		.2byte	0x1d7
 925 04c4 52060000 		.4byte	0x652
 926 04c8 A804     		.2byte	0x4a8
 927 04ca 12       		.uleb128 0x12
 928 04cb 32000000 		.4byte	.LASF88
 929 04cf 05       		.byte	0x5
 930 04d0 DD01     		.2byte	0x1dd
 931 04d2 EC060000 		.4byte	0x6ec
 932 04d6 B004     		.2byte	0x4b0
 933 04d8 12       		.uleb128 0x12
 934 04d9 03020000 		.4byte	.LASF89
 935 04dd 05       		.byte	0x5
 936 04de E301     		.2byte	0x1e3
 937 04e0 82070000 		.4byte	0x782
 938 04e4 E804     		.2byte	0x4e8
 939 04e6 00       		.byte	0
 940 04e7 03       		.uleb128 0x3
 941 04e8 04       		.byte	0x4
 942 04e9 07       		.byte	0x7
 943 04ea 32030000 		.4byte	.LASF90
 944 04ee 04       		.uleb128 0x4
 945 04ef CB010000 		.4byte	.LASF91
 946 04f3 06       		.byte	0x6
 947 04f4 65       		.byte	0x65
 948 04f5 78030000 		.4byte	0x378
 949 04f9 04       		.uleb128 0x4
 950 04fa 15030000 		.4byte	.LASF92
 951 04fe 06       		.byte	0x6
 952 04ff 6D       		.byte	0x6d
 953 0500 85000000 		.4byte	0x85
 954 0504 06       		.uleb128 0x6
 955 0505 67060000 		.4byte	.LASF93
 956 0509 04       		.byte	0x4
 957 050a 06       		.byte	0x6
 958 050b 89       		.byte	0x89
 959 050c 1D050000 		.4byte	0x51d
 960 0510 14       		.uleb128 0x14
 961 0511 72313300 		.ascii	"r13\000"
 962 0515 06       		.byte	0x6
 963 0516 8A       		.byte	0x8a
 964 0517 98050000 		.4byte	0x598
 965 051b 00       		.byte	0
 966 051c 00       		.byte	0
 967 051d 06       		.uleb128 0x6
ARM GAS  C:\Users\Luis\AppData\Local\Temp\ccGdeljb.s 			page 18


 968 051e 3F000000 		.4byte	.LASF94
 969 0522 24       		.byte	0x24
 970 0523 07       		.byte	0x7
 971 0524 F4       		.byte	0xf4
 972 0525 98050000 		.4byte	0x598
 973 0529 0A       		.uleb128 0xa
 974 052a 723400   		.ascii	"r4\000"
 975 052d 07       		.byte	0x7
 976 052e 0701     		.2byte	0x107
 977 0530 EE040000 		.4byte	0x4ee
 978 0534 00       		.byte	0
 979 0535 0A       		.uleb128 0xa
 980 0536 723500   		.ascii	"r5\000"
 981 0539 07       		.byte	0x7
 982 053a 0801     		.2byte	0x108
 983 053c EE040000 		.4byte	0x4ee
 984 0540 04       		.byte	0x4
 985 0541 0A       		.uleb128 0xa
 986 0542 723600   		.ascii	"r6\000"
 987 0545 07       		.byte	0x7
 988 0546 0901     		.2byte	0x109
 989 0548 EE040000 		.4byte	0x4ee
 990 054c 08       		.byte	0x8
 991 054d 0A       		.uleb128 0xa
 992 054e 723700   		.ascii	"r7\000"
 993 0551 07       		.byte	0x7
 994 0552 0A01     		.2byte	0x10a
 995 0554 EE040000 		.4byte	0x4ee
 996 0558 0C       		.byte	0xc
 997 0559 0A       		.uleb128 0xa
 998 055a 723800   		.ascii	"r8\000"
 999 055d 07       		.byte	0x7
 1000 055e 0B01     		.2byte	0x10b
 1001 0560 EE040000 		.4byte	0x4ee
 1002 0564 10       		.byte	0x10
 1003 0565 0A       		.uleb128 0xa
 1004 0566 723900   		.ascii	"r9\000"
 1005 0569 07       		.byte	0x7
 1006 056a 0C01     		.2byte	0x10c
 1007 056c EE040000 		.4byte	0x4ee
 1008 0570 14       		.byte	0x14
 1009 0571 0A       		.uleb128 0xa
 1010 0572 72313000 		.ascii	"r10\000"
 1011 0576 07       		.byte	0x7
 1012 0577 0D01     		.2byte	0x10d
 1013 0579 EE040000 		.4byte	0x4ee
 1014 057d 18       		.byte	0x18
 1015 057e 0A       		.uleb128 0xa
 1016 057f 72313100 		.ascii	"r11\000"
 1017 0583 07       		.byte	0x7
 1018 0584 0E01     		.2byte	0x10e
 1019 0586 EE040000 		.4byte	0x4ee
 1020 058a 1C       		.byte	0x1c
 1021 058b 0A       		.uleb128 0xa
 1022 058c 6C7200   		.ascii	"lr\000"
 1023 058f 07       		.byte	0x7
 1024 0590 0F01     		.2byte	0x10f
ARM GAS  C:\Users\Luis\AppData\Local\Temp\ccGdeljb.s 			page 19


 1025 0592 EE040000 		.4byte	0x4ee
 1026 0596 20       		.byte	0x20
 1027 0597 00       		.byte	0
 1028 0598 0C       		.uleb128 0xc
 1029 0599 04       		.byte	0x4
 1030 059a 1D050000 		.4byte	0x51d
 1031 059e 15       		.uleb128 0x15
 1032 059f 10       		.byte	0x10
 1033 05a0 08       		.byte	0x8
 1034 05a1 51       		.byte	0x51
 1035 05a2 8E020000 		.4byte	.LASF104
 1036 05a6 DB050000 		.4byte	0x5db
 1037 05aa 09       		.uleb128 0x9
 1038 05ab 14000000 		.4byte	.LASF95
 1039 05af 08       		.byte	0x8
 1040 05b0 55       		.byte	0x55
 1041 05b1 0A010000 		.4byte	0x10a
 1042 05b5 00       		.byte	0
 1043 05b6 09       		.uleb128 0x9
 1044 05b7 A0010000 		.4byte	.LASF96
 1045 05bb 08       		.byte	0x8
 1046 05bc 59       		.byte	0x59
 1047 05bd 9B020000 		.4byte	0x29b
 1048 05c1 04       		.byte	0x4
 1049 05c2 09       		.uleb128 0x9
 1050 05c3 6C070000 		.4byte	.LASF97
 1051 05c7 08       		.byte	0x8
 1052 05c8 5D       		.byte	0x5d
 1053 05c9 78030000 		.4byte	0x378
 1054 05cd 08       		.byte	0x8
 1055 05ce 09       		.uleb128 0x9
 1056 05cf AD000000 		.4byte	.LASF98
 1057 05d3 08       		.byte	0x8
 1058 05d4 61       		.byte	0x61
 1059 05d5 3A000000 		.4byte	0x3a
 1060 05d9 0C       		.byte	0xc
 1061 05da 00       		.byte	0
 1062 05db 04       		.uleb128 0x4
 1063 05dc 65030000 		.4byte	.LASF99
 1064 05e0 08       		.byte	0x8
 1065 05e1 62       		.byte	0x62
 1066 05e2 9E050000 		.4byte	0x59e
 1067 05e6 16       		.uleb128 0x16
 1068 05e7 0804     		.2byte	0x408
 1069 05e9 08       		.byte	0x8
 1070 05ea 67       		.byte	0x67
 1071 05eb 01030000 		.4byte	.LASF149
 1072 05ef 18060000 		.4byte	0x618
 1073 05f3 09       		.uleb128 0x9
 1074 05f4 BB010000 		.4byte	.LASF100
 1075 05f8 08       		.byte	0x8
 1076 05f9 6B       		.byte	0x6b
 1077 05fa 2C000000 		.4byte	0x2c
 1078 05fe 00       		.byte	0
 1079 05ff 09       		.uleb128 0x9
 1080 0600 00000000 		.4byte	.LASF101
 1081 0604 08       		.byte	0x8
ARM GAS  C:\Users\Luis\AppData\Local\Temp\ccGdeljb.s 			page 20


 1082 0605 6F       		.byte	0x6f
 1083 0606 18060000 		.4byte	0x618
 1084 060a 04       		.byte	0x4
 1085 060b 09       		.uleb128 0x9
 1086 060c 14040000 		.4byte	.LASF102
 1087 0610 08       		.byte	0x8
 1088 0611 73       		.byte	0x73
 1089 0612 1E060000 		.4byte	0x61e
 1090 0616 08       		.byte	0x8
 1091 0617 00       		.byte	0
 1092 0618 0C       		.uleb128 0xc
 1093 0619 04       		.byte	0x4
 1094 061a DB050000 		.4byte	0x5db
 1095 061e 17       		.uleb128 0x17
 1096 061f DB050000 		.4byte	0x5db
 1097 0623 2E060000 		.4byte	0x62e
 1098 0627 18       		.uleb128 0x18
 1099 0628 E7040000 		.4byte	0x4e7
 1100 062c 3F       		.byte	0x3f
 1101 062d 00       		.byte	0
 1102 062e 04       		.uleb128 0x4
 1103 062f 9B000000 		.4byte	.LASF103
 1104 0633 08       		.byte	0x8
 1105 0634 74       		.byte	0x74
 1106 0635 E6050000 		.4byte	0x5e6
 1107 0639 15       		.uleb128 0x15
 1108 063a 04       		.byte	0x4
 1109 063b 09       		.byte	0x9
 1110 063c 38       		.byte	0x38
 1111 063d 3D070000 		.4byte	.LASF105
 1112 0641 52060000 		.4byte	0x652
 1113 0645 09       		.uleb128 0x9
 1114 0646 60060000 		.4byte	.LASF106
 1115 064a 09       		.byte	0x9
 1116 064b 3C       		.byte	0x3c
 1117 064c 9C000000 		.4byte	0x9c
 1118 0650 00       		.byte	0
 1119 0651 00       		.byte	0
 1120 0652 04       		.uleb128 0x4
 1121 0653 B4030000 		.4byte	.LASF107
 1122 0657 09       		.byte	0x9
 1123 0658 3D       		.byte	0x3d
 1124 0659 39060000 		.4byte	0x639
 1125 065d 15       		.uleb128 0x15
 1126 065e 18       		.byte	0x18
 1127 065f 09       		.byte	0x9
 1128 0660 48       		.byte	0x48
 1129 0661 8E030000 		.4byte	.LASF108
 1130 0665 A4060000 		.4byte	0x6a4
 1131 0669 09       		.uleb128 0x9
 1132 066a 2C060000 		.4byte	.LASF109
 1133 066e 09       		.byte	0x9
 1134 066f 49       		.byte	0x49
 1135 0670 9C000000 		.4byte	0x9c
 1136 0674 00       		.byte	0
 1137 0675 09       		.uleb128 0x9
 1138 0676 6B000000 		.4byte	.LASF110
ARM GAS  C:\Users\Luis\AppData\Local\Temp\ccGdeljb.s 			page 21


 1139 067a 09       		.byte	0x9
 1140 067b 4A       		.byte	0x4a
 1141 067c 9C000000 		.4byte	0x9c
 1142 0680 04       		.byte	0x4
 1143 0681 09       		.uleb128 0x9
 1144 0682 AF020000 		.4byte	.LASF111
 1145 0686 09       		.byte	0x9
 1146 0687 4B       		.byte	0x4b
 1147 0688 9C000000 		.4byte	0x9c
 1148 068c 08       		.byte	0x8
 1149 068d 14       		.uleb128 0x14
 1150 068e 6E00     		.ascii	"n\000"
 1151 0690 09       		.byte	0x9
 1152 0691 4C       		.byte	0x4c
 1153 0692 FF000000 		.4byte	0xff
 1154 0696 0C       		.byte	0xc
 1155 0697 09       		.uleb128 0x9
 1156 0698 D7030000 		.4byte	.LASF112
 1157 069c 09       		.byte	0x9
 1158 069d 4D       		.byte	0x4d
 1159 069e A7000000 		.4byte	0xa7
 1160 06a2 10       		.byte	0x10
 1161 06a3 00       		.byte	0
 1162 06a4 04       		.uleb128 0x4
 1163 06a5 71000000 		.4byte	.LASF113
 1164 06a9 09       		.byte	0x9
 1165 06aa 4E       		.byte	0x4e
 1166 06ab 5D060000 		.4byte	0x65d
 1167 06af 15       		.uleb128 0x15
 1168 06b0 38       		.byte	0x38
 1169 06b1 0A       		.byte	0xa
 1170 06b2 38       		.byte	0x38
 1171 06b3 A3030000 		.4byte	.LASF114
 1172 06b7 EC060000 		.4byte	0x6ec
 1173 06bb 09       		.uleb128 0x9
 1174 06bc 51020000 		.4byte	.LASF115
 1175 06c0 0A       		.byte	0xa
 1176 06c1 39       		.byte	0x39
 1177 06c2 FF000000 		.4byte	0xff
 1178 06c6 00       		.byte	0
 1179 06c7 09       		.uleb128 0x9
 1180 06c8 32050000 		.4byte	.LASF116
 1181 06cc 0A       		.byte	0xa
 1182 06cd 3A       		.byte	0x3a
 1183 06ce FF000000 		.4byte	0xff
 1184 06d2 04       		.byte	0x4
 1185 06d3 09       		.uleb128 0x9
 1186 06d4 A6060000 		.4byte	.LASF117
 1187 06d8 0A       		.byte	0xa
 1188 06d9 3B       		.byte	0x3b
 1189 06da A4060000 		.4byte	0x6a4
 1190 06de 08       		.byte	0x8
 1191 06df 09       		.uleb128 0x9
 1192 06e0 DC020000 		.4byte	.LASF118
 1193 06e4 0A       		.byte	0xa
 1194 06e5 3D       		.byte	0x3d
 1195 06e6 A4060000 		.4byte	0x6a4
ARM GAS  C:\Users\Luis\AppData\Local\Temp\ccGdeljb.s 			page 22


 1196 06ea 20       		.byte	0x20
 1197 06eb 00       		.byte	0
 1198 06ec 04       		.uleb128 0x4
 1199 06ed 7F020000 		.4byte	.LASF119
 1200 06f1 0A       		.byte	0xa
 1201 06f2 3F       		.byte	0x3f
 1202 06f3 AF060000 		.4byte	0x6af
 1203 06f7 0C       		.uleb128 0xc
 1204 06f8 04       		.byte	0x4
 1205 06f9 90020000 		.4byte	0x290
 1206 06fd 06       		.uleb128 0x6
 1207 06fe C3050000 		.4byte	.LASF120
 1208 0702 0C       		.byte	0xc
 1209 0703 0B       		.byte	0xb
 1210 0704 34       		.byte	0x34
 1211 0705 22070000 		.4byte	0x722
 1212 0709 09       		.uleb128 0x9
 1213 070a B3010000 		.4byte	.LASF121
 1214 070e 0B       		.byte	0xb
 1215 070f 35       		.byte	0x35
 1216 0710 C5020000 		.4byte	0x2c5
 1217 0714 00       		.byte	0
 1218 0715 09       		.uleb128 0x9
 1219 0716 66020000 		.4byte	.LASF122
 1220 071a 0B       		.byte	0xb
 1221 071b 37       		.byte	0x37
 1222 071c F4000000 		.4byte	0xf4
 1223 0720 08       		.byte	0x8
 1224 0721 00       		.byte	0
 1225 0722 0C       		.uleb128 0xc
 1226 0723 04       		.byte	0x4
 1227 0724 FD060000 		.4byte	0x6fd
 1228 0728 06       		.uleb128 0x6
 1229 0729 8E060000 		.4byte	.LASF123
 1230 072d 10       		.byte	0x10
 1231 072e 0C       		.byte	0xc
 1232 072f 39       		.byte	0x39
 1233 0730 59070000 		.4byte	0x759
 1234 0734 09       		.uleb128 0x9
 1235 0735 3C010000 		.4byte	.LASF124
 1236 0739 0C       		.byte	0xc
 1237 073a 3A       		.byte	0x3a
 1238 073b C5020000 		.4byte	0x2c5
 1239 073f 00       		.byte	0
 1240 0740 09       		.uleb128 0x9
 1241 0741 64070000 		.4byte	.LASF125
 1242 0745 0C       		.byte	0xc
 1243 0746 3C       		.byte	0x3c
 1244 0747 9B020000 		.4byte	0x29b
 1245 074b 08       		.byte	0x8
 1246 074c 09       		.uleb128 0x9
 1247 074d 31060000 		.4byte	.LASF126
 1248 0751 0C       		.byte	0xc
 1249 0752 3E       		.byte	0x3e
 1250 0753 9D070000 		.4byte	0x79d
 1251 0757 0C       		.byte	0xc
 1252 0758 00       		.byte	0
ARM GAS  C:\Users\Luis\AppData\Local\Temp\ccGdeljb.s 			page 23


 1253 0759 0C       		.uleb128 0xc
 1254 075a 04       		.byte	0x4
 1255 075b 28070000 		.4byte	0x728
 1256 075f 0C       		.uleb128 0xc
 1257 0760 04       		.byte	0x4
 1258 0761 65070000 		.4byte	0x765
 1259 0765 19       		.uleb128 0x19
 1260 0766 6A070000 		.4byte	0x76a
 1261 076a 03       		.uleb128 0x3
 1262 076b 01       		.byte	0x1
 1263 076c 08       		.byte	0x8
 1264 076d 1E060000 		.4byte	.LASF127
 1265 0771 0C       		.uleb128 0xc
 1266 0772 04       		.byte	0x4
 1267 0773 F9040000 		.4byte	0x4f9
 1268 0777 0C       		.uleb128 0xc
 1269 0778 04       		.byte	0x4
 1270 0779 7A030000 		.4byte	0x37a
 1271 077d 05       		.uleb128 0x5
 1272 077e 5F070000 		.4byte	0x75f
 1273 0782 17       		.uleb128 0x17
 1274 0783 90000000 		.4byte	0x90
 1275 0787 92070000 		.4byte	0x792
 1276 078b 18       		.uleb128 0x18
 1277 078c E7040000 		.4byte	0x4e7
 1278 0790 1F       		.byte	0x1f
 1279 0791 00       		.byte	0
 1280 0792 04       		.uleb128 0x4
 1281 0793 F2010000 		.4byte	.LASF128
 1282 0797 0C       		.byte	0xc
 1283 0798 34       		.byte	0x34
 1284 0799 28070000 		.4byte	0x728
 1285 079d 0C       		.uleb128 0xc
 1286 079e 04       		.byte	0x4
 1287 079f 92070000 		.4byte	0x792
 1288 07a3 03       		.uleb128 0x3
 1289 07a4 01       		.byte	0x1
 1290 07a5 02       		.byte	0x2
 1291 07a6 D7020000 		.4byte	.LASF129
 1292 07aa 03       		.uleb128 0x3
 1293 07ab 04       		.byte	0x4
 1294 07ac 04       		.byte	0x4
 1295 07ad C6060000 		.4byte	.LASF130
 1296 07b1 0C       		.uleb128 0xc
 1297 07b2 04       		.byte	0x4
 1298 07b3 AA070000 		.4byte	0x7aa
 1299 07b7 1A       		.uleb128 0x1a
 1300 07b8 49495200 		.ascii	"IIR\000"
 1301 07bc 03080000 		.4byte	0x803
 1302 07c0 1B       		.uleb128 0x1b
 1303 07c1 50070000 		.4byte	.LASF150
 1304 07c5 01       		.byte	0x1
 1305 07c6 0A       		.byte	0xa
 1306 07c7 F3000000 		.4byte	.LASF151
 1307 07cb AA070000 		.4byte	0x7aa
 1308 07cf 01       		.byte	0x1
 1309 07d0 D8070000 		.4byte	0x7d8
ARM GAS  C:\Users\Luis\AppData\Local\Temp\ccGdeljb.s 			page 24


 1310 07d4 E3070000 		.4byte	0x7e3
 1311 07d8 1C       		.uleb128 0x1c
 1312 07d9 03080000 		.4byte	0x803
 1313 07dd 0F       		.uleb128 0xf
 1314 07de AA070000 		.4byte	0x7aa
 1315 07e2 00       		.byte	0
 1316 07e3 1D       		.uleb128 0x1d
 1317 07e4 B1060000 		.4byte	.LASF152
 1318 07e8 01       		.byte	0x1
 1319 07e9 3A       		.byte	0x3a
 1320 07ea FB060000 		.4byte	.LASF153
 1321 07ee AA070000 		.4byte	0x7aa
 1322 07f2 01       		.byte	0x1
 1323 07f3 F7070000 		.4byte	0x7f7
 1324 07f7 1C       		.uleb128 0x1c
 1325 07f8 03080000 		.4byte	0x803
 1326 07fc 0F       		.uleb128 0xf
 1327 07fd AA070000 		.4byte	0x7aa
 1328 0801 00       		.byte	0
 1329 0802 00       		.byte	0
 1330 0803 0C       		.uleb128 0xc
 1331 0804 04       		.byte	0x4
 1332 0805 B7070000 		.4byte	0x7b7
 1333 0809 1E       		.uleb128 0x1e
 1334 080a C0070000 		.4byte	0x7c0
 1335 080e 00000000 		.4byte	.LFB260
 1336 0812 F6000000 		.4byte	.LFE260-.LFB260
 1337 0816 01       		.uleb128 0x1
 1338 0817 9C       		.byte	0x9c
 1339 0818 20080000 		.4byte	0x820
 1340 081c C3080000 		.4byte	0x8c3
 1341 0820 1F       		.uleb128 0x1f
 1342 0821 A6010000 		.4byte	.LASF140
 1343 0825 C3080000 		.4byte	0x8c3
 1344 0829 02       		.uleb128 0x2
 1345 082a 91       		.byte	0x91
 1346 082b 4C       		.sleb128 -52
 1347 082c 20       		.uleb128 0x20
 1348 082d ED000000 		.4byte	.LASF141
 1349 0831 01       		.byte	0x1
 1350 0832 0A       		.byte	0xa
 1351 0833 AA070000 		.4byte	0x7aa
 1352 0837 02       		.uleb128 0x2
 1353 0838 91       		.byte	0x91
 1354 0839 48       		.sleb128 -56
 1355 083a 21       		.uleb128 0x21
 1356 083b 0A000000 		.4byte	.LBB2
 1357 083f E4000000 		.4byte	.LBE2-.LBB2
 1358 0843 22       		.uleb128 0x22
 1359 0844 F0030000 		.4byte	.LASF131
 1360 0848 01       		.byte	0x1
 1361 0849 0D       		.byte	0xd
 1362 084a B1070000 		.4byte	0x7b1
 1363 084e 02       		.uleb128 0x2
 1364 084f 91       		.byte	0x91
 1365 0850 74       		.sleb128 -12
 1366 0851 22       		.uleb128 0x22
ARM GAS  C:\Users\Luis\AppData\Local\Temp\ccGdeljb.s 			page 25


 1367 0852 FE030000 		.4byte	.LASF132
 1368 0856 01       		.byte	0x1
 1369 0857 0E       		.byte	0xe
 1370 0858 B1070000 		.4byte	0x7b1
 1371 085c 02       		.uleb128 0x2
 1372 085d 91       		.byte	0x91
 1373 085e 70       		.sleb128 -16
 1374 085f 22       		.uleb128 0x22
 1375 0860 8F050000 		.4byte	.LASF133
 1376 0864 01       		.byte	0x1
 1377 0865 10       		.byte	0x10
 1378 0866 25000000 		.4byte	0x25
 1379 086a 02       		.uleb128 0x2
 1380 086b 91       		.byte	0x91
 1381 086c 6C       		.sleb128 -20
 1382 086d 22       		.uleb128 0x22
 1383 086e 57020000 		.4byte	.LASF134
 1384 0872 01       		.byte	0x1
 1385 0873 11       		.byte	0x11
 1386 0874 25000000 		.4byte	0x25
 1387 0878 02       		.uleb128 0x2
 1388 0879 91       		.byte	0x91
 1389 087a 58       		.sleb128 -40
 1390 087b 22       		.uleb128 0x22
 1391 087c 76050000 		.4byte	.LASF135
 1392 0880 01       		.byte	0x1
 1393 0881 13       		.byte	0x13
 1394 0882 AA070000 		.4byte	0x7aa
 1395 0886 02       		.uleb128 0x2
 1396 0887 91       		.byte	0x91
 1397 0888 68       		.sleb128 -24
 1398 0889 22       		.uleb128 0x22
 1399 088a E7060000 		.4byte	.LASF136
 1400 088e 01       		.byte	0x1
 1401 088f 14       		.byte	0x14
 1402 0890 B1070000 		.4byte	0x7b1
 1403 0894 02       		.uleb128 0x2
 1404 0895 91       		.byte	0x91
 1405 0896 64       		.sleb128 -28
 1406 0897 22       		.uleb128 0x22
 1407 0898 7F050000 		.4byte	.LASF137
 1408 089c 01       		.byte	0x1
 1409 089d 16       		.byte	0x16
 1410 089e AA070000 		.4byte	0x7aa
 1411 08a2 02       		.uleb128 0x2
 1412 08a3 91       		.byte	0x91
 1413 08a4 60       		.sleb128 -32
 1414 08a5 22       		.uleb128 0x22
 1415 08a6 D3060000 		.4byte	.LASF138
 1416 08aa 01       		.byte	0x1
 1417 08ab 17       		.byte	0x17
 1418 08ac B1070000 		.4byte	0x7b1
 1419 08b0 02       		.uleb128 0x2
 1420 08b1 91       		.byte	0x91
 1421 08b2 5C       		.sleb128 -36
 1422 08b3 22       		.uleb128 0x22
 1423 08b4 20030000 		.4byte	.LASF139
ARM GAS  C:\Users\Luis\AppData\Local\Temp\ccGdeljb.s 			page 26


 1424 08b8 01       		.byte	0x1
 1425 08b9 19       		.byte	0x19
 1426 08ba AA070000 		.4byte	0x7aa
 1427 08be 02       		.uleb128 0x2
 1428 08bf 91       		.byte	0x91
 1429 08c0 54       		.sleb128 -44
 1430 08c1 00       		.byte	0
 1431 08c2 00       		.byte	0
 1432 08c3 19       		.uleb128 0x19
 1433 08c4 03080000 		.4byte	0x803
 1434 08c8 1E       		.uleb128 0x1e
 1435 08c9 E3070000 		.4byte	0x7e3
 1436 08cd 00000000 		.4byte	.LFB261
 1437 08d1 FC000000 		.4byte	.LFE261-.LFB261
 1438 08d5 01       		.uleb128 0x1
 1439 08d6 9C       		.byte	0x9c
 1440 08d7 DF080000 		.4byte	0x8df
 1441 08db 90090000 		.4byte	0x990
 1442 08df 1F       		.uleb128 0x1f
 1443 08e0 A6010000 		.4byte	.LASF140
 1444 08e4 C3080000 		.4byte	0x8c3
 1445 08e8 02       		.uleb128 0x2
 1446 08e9 91       		.byte	0x91
 1447 08ea 4C       		.sleb128 -52
 1448 08eb 20       		.uleb128 0x20
 1449 08ec ED000000 		.4byte	.LASF141
 1450 08f0 01       		.byte	0x1
 1451 08f1 3A       		.byte	0x3a
 1452 08f2 AA070000 		.4byte	0x7aa
 1453 08f6 02       		.uleb128 0x2
 1454 08f7 91       		.byte	0x91
 1455 08f8 48       		.sleb128 -56
 1456 08f9 21       		.uleb128 0x21
 1457 08fa 0A000000 		.4byte	.LBB3
 1458 08fe EA000000 		.4byte	.LBE3-.LBB3
 1459 0902 22       		.uleb128 0x22
 1460 0903 F0030000 		.4byte	.LASF131
 1461 0907 01       		.byte	0x1
 1462 0908 3C       		.byte	0x3c
 1463 0909 B1070000 		.4byte	0x7b1
 1464 090d 02       		.uleb128 0x2
 1465 090e 91       		.byte	0x91
 1466 090f 74       		.sleb128 -12
 1467 0910 22       		.uleb128 0x22
 1468 0911 E2030000 		.4byte	.LASF142
 1469 0915 01       		.byte	0x1
 1470 0916 3D       		.byte	0x3d
 1471 0917 B1070000 		.4byte	0x7b1
 1472 091b 02       		.uleb128 0x2
 1473 091c 91       		.byte	0x91
 1474 091d 70       		.sleb128 -16
 1475 091e 22       		.uleb128 0x22
 1476 091f 8F050000 		.4byte	.LASF133
 1477 0923 01       		.byte	0x1
 1478 0924 3F       		.byte	0x3f
 1479 0925 25000000 		.4byte	0x25
 1480 0929 02       		.uleb128 0x2
ARM GAS  C:\Users\Luis\AppData\Local\Temp\ccGdeljb.s 			page 27


 1481 092a 91       		.byte	0x91
 1482 092b 6C       		.sleb128 -20
 1483 092c 22       		.uleb128 0x22
 1484 092d 57020000 		.4byte	.LASF134
 1485 0931 01       		.byte	0x1
 1486 0932 40       		.byte	0x40
 1487 0933 25000000 		.4byte	0x25
 1488 0937 02       		.uleb128 0x2
 1489 0938 91       		.byte	0x91
 1490 0939 54       		.sleb128 -44
 1491 093a 22       		.uleb128 0x22
 1492 093b CF020000 		.4byte	.LASF143
 1493 093f 01       		.byte	0x1
 1494 0940 42       		.byte	0x42
 1495 0941 AA070000 		.4byte	0x7aa
 1496 0945 02       		.uleb128 0x2
 1497 0946 91       		.byte	0x91
 1498 0947 68       		.sleb128 -24
 1499 0948 22       		.uleb128 0x22
 1500 0949 6D050000 		.4byte	.LASF144
 1501 094d 01       		.byte	0x1
 1502 094e 43       		.byte	0x43
 1503 094f AA070000 		.4byte	0x7aa
 1504 0953 02       		.uleb128 0x2
 1505 0954 91       		.byte	0x91
 1506 0955 64       		.sleb128 -28
 1507 0956 22       		.uleb128 0x22
 1508 0957 E7060000 		.4byte	.LASF136
 1509 095b 01       		.byte	0x1
 1510 095c 44       		.byte	0x44
 1511 095d B1070000 		.4byte	0x7b1
 1512 0961 02       		.uleb128 0x2
 1513 0962 91       		.byte	0x91
 1514 0963 60       		.sleb128 -32
 1515 0964 22       		.uleb128 0x22
 1516 0965 7F050000 		.4byte	.LASF137
 1517 0969 01       		.byte	0x1
 1518 096a 46       		.byte	0x46
 1519 096b AA070000 		.4byte	0x7aa
 1520 096f 02       		.uleb128 0x2
 1521 0970 91       		.byte	0x91
 1522 0971 5C       		.sleb128 -36
 1523 0972 22       		.uleb128 0x22
 1524 0973 D3060000 		.4byte	.LASF138
 1525 0977 01       		.byte	0x1
 1526 0978 47       		.byte	0x47
 1527 0979 B1070000 		.4byte	0x7b1
 1528 097d 02       		.uleb128 0x2
 1529 097e 91       		.byte	0x91
 1530 097f 58       		.sleb128 -40
 1531 0980 22       		.uleb128 0x22
 1532 0981 20030000 		.4byte	.LASF139
 1533 0985 01       		.byte	0x1
 1534 0986 49       		.byte	0x49
 1535 0987 AA070000 		.4byte	0x7aa
 1536 098b 02       		.uleb128 0x2
 1537 098c 91       		.byte	0x91
ARM GAS  C:\Users\Luis\AppData\Local\Temp\ccGdeljb.s 			page 28


 1538 098d 50       		.sleb128 -48
 1539 098e 00       		.byte	0
 1540 098f 00       		.byte	0
 1541 0990 23       		.uleb128 0x23
 1542 0991 E0000000 		.4byte	.LASF145
 1543 0995 0D       		.byte	0xd
 1544 0996 A706     		.2byte	0x6a7
 1545 0998 97000000 		.4byte	0x97
 1546 099c 24       		.uleb128 0x24
 1547 099d 636800   		.ascii	"ch\000"
 1548 09a0 05       		.byte	0x5
 1549 09a1 0902     		.2byte	0x209
 1550 09a3 6F040000 		.4byte	0x46f
 1551 09a7 00       		.byte	0
 1552              		.section	.debug_abbrev,"",%progbits
 1553              	.Ldebug_abbrev0:
 1554 0000 01       		.uleb128 0x1
 1555 0001 11       		.uleb128 0x11
 1556 0002 01       		.byte	0x1
 1557 0003 25       		.uleb128 0x25
 1558 0004 0E       		.uleb128 0xe
 1559 0005 13       		.uleb128 0x13
 1560 0006 0B       		.uleb128 0xb
 1561 0007 03       		.uleb128 0x3
 1562 0008 0E       		.uleb128 0xe
 1563 0009 1B       		.uleb128 0x1b
 1564 000a 0E       		.uleb128 0xe
 1565 000b 55       		.uleb128 0x55
 1566 000c 17       		.uleb128 0x17
 1567 000d 11       		.uleb128 0x11
 1568 000e 01       		.uleb128 0x1
 1569 000f 10       		.uleb128 0x10
 1570 0010 17       		.uleb128 0x17
 1571 0011 00       		.byte	0
 1572 0012 00       		.byte	0
 1573 0013 02       		.uleb128 0x2
 1574 0014 24       		.uleb128 0x24
 1575 0015 00       		.byte	0
 1576 0016 0B       		.uleb128 0xb
 1577 0017 0B       		.uleb128 0xb
 1578 0018 3E       		.uleb128 0x3e
 1579 0019 0B       		.uleb128 0xb
 1580 001a 03       		.uleb128 0x3
 1581 001b 08       		.uleb128 0x8
 1582 001c 00       		.byte	0
 1583 001d 00       		.byte	0
 1584 001e 03       		.uleb128 0x3
 1585 001f 24       		.uleb128 0x24
 1586 0020 00       		.byte	0
 1587 0021 0B       		.uleb128 0xb
 1588 0022 0B       		.uleb128 0xb
 1589 0023 3E       		.uleb128 0x3e
 1590 0024 0B       		.uleb128 0xb
 1591 0025 03       		.uleb128 0x3
 1592 0026 0E       		.uleb128 0xe
 1593 0027 00       		.byte	0
 1594 0028 00       		.byte	0
ARM GAS  C:\Users\Luis\AppData\Local\Temp\ccGdeljb.s 			page 29


 1595 0029 04       		.uleb128 0x4
 1596 002a 16       		.uleb128 0x16
 1597 002b 00       		.byte	0
 1598 002c 03       		.uleb128 0x3
 1599 002d 0E       		.uleb128 0xe
 1600 002e 3A       		.uleb128 0x3a
 1601 002f 0B       		.uleb128 0xb
 1602 0030 3B       		.uleb128 0x3b
 1603 0031 0B       		.uleb128 0xb
 1604 0032 49       		.uleb128 0x49
 1605 0033 13       		.uleb128 0x13
 1606 0034 00       		.byte	0
 1607 0035 00       		.byte	0
 1608 0036 05       		.uleb128 0x5
 1609 0037 35       		.uleb128 0x35
 1610 0038 00       		.byte	0
 1611 0039 49       		.uleb128 0x49
 1612 003a 13       		.uleb128 0x13
 1613 003b 00       		.byte	0
 1614 003c 00       		.byte	0
 1615 003d 06       		.uleb128 0x6
 1616 003e 13       		.uleb128 0x13
 1617 003f 01       		.byte	0x1
 1618 0040 03       		.uleb128 0x3
 1619 0041 0E       		.uleb128 0xe
 1620 0042 0B       		.uleb128 0xb
 1621 0043 0B       		.uleb128 0xb
 1622 0044 3A       		.uleb128 0x3a
 1623 0045 0B       		.uleb128 0xb
 1624 0046 3B       		.uleb128 0x3b
 1625 0047 0B       		.uleb128 0xb
 1626 0048 01       		.uleb128 0x1
 1627 0049 13       		.uleb128 0x13
 1628 004a 00       		.byte	0
 1629 004b 00       		.byte	0
 1630 004c 07       		.uleb128 0x7
 1631 004d 17       		.uleb128 0x17
 1632 004e 01       		.byte	0x1
 1633 004f 0B       		.uleb128 0xb
 1634 0050 0B       		.uleb128 0xb
 1635 0051 3A       		.uleb128 0x3a
 1636 0052 0B       		.uleb128 0xb
 1637 0053 3B       		.uleb128 0x3b
 1638 0054 0B       		.uleb128 0xb
 1639 0055 01       		.uleb128 0x1
 1640 0056 13       		.uleb128 0x13
 1641 0057 00       		.byte	0
 1642 0058 00       		.byte	0
 1643 0059 08       		.uleb128 0x8
 1644 005a 0D       		.uleb128 0xd
 1645 005b 00       		.byte	0
 1646 005c 03       		.uleb128 0x3
 1647 005d 0E       		.uleb128 0xe
 1648 005e 3A       		.uleb128 0x3a
 1649 005f 0B       		.uleb128 0xb
 1650 0060 3B       		.uleb128 0x3b
 1651 0061 05       		.uleb128 0x5
ARM GAS  C:\Users\Luis\AppData\Local\Temp\ccGdeljb.s 			page 30


 1652 0062 49       		.uleb128 0x49
 1653 0063 13       		.uleb128 0x13
 1654 0064 00       		.byte	0
 1655 0065 00       		.byte	0
 1656 0066 09       		.uleb128 0x9
 1657 0067 0D       		.uleb128 0xd
 1658 0068 00       		.byte	0
 1659 0069 03       		.uleb128 0x3
 1660 006a 0E       		.uleb128 0xe
 1661 006b 3A       		.uleb128 0x3a
 1662 006c 0B       		.uleb128 0xb
 1663 006d 3B       		.uleb128 0x3b
 1664 006e 0B       		.uleb128 0xb
 1665 006f 49       		.uleb128 0x49
 1666 0070 13       		.uleb128 0x13
 1667 0071 38       		.uleb128 0x38
 1668 0072 0B       		.uleb128 0xb
 1669 0073 00       		.byte	0
 1670 0074 00       		.byte	0
 1671 0075 0A       		.uleb128 0xa
 1672 0076 0D       		.uleb128 0xd
 1673 0077 00       		.byte	0
 1674 0078 03       		.uleb128 0x3
 1675 0079 08       		.uleb128 0x8
 1676 007a 3A       		.uleb128 0x3a
 1677 007b 0B       		.uleb128 0xb
 1678 007c 3B       		.uleb128 0x3b
 1679 007d 05       		.uleb128 0x5
 1680 007e 49       		.uleb128 0x49
 1681 007f 13       		.uleb128 0x13
 1682 0080 38       		.uleb128 0x38
 1683 0081 0B       		.uleb128 0xb
 1684 0082 00       		.byte	0
 1685 0083 00       		.byte	0
 1686 0084 0B       		.uleb128 0xb
 1687 0085 0D       		.uleb128 0xd
 1688 0086 00       		.byte	0
 1689 0087 03       		.uleb128 0x3
 1690 0088 0E       		.uleb128 0xe
 1691 0089 3A       		.uleb128 0x3a
 1692 008a 0B       		.uleb128 0xb
 1693 008b 3B       		.uleb128 0x3b
 1694 008c 05       		.uleb128 0x5
 1695 008d 49       		.uleb128 0x49
 1696 008e 13       		.uleb128 0x13
 1697 008f 38       		.uleb128 0x38
 1698 0090 0B       		.uleb128 0xb
 1699 0091 00       		.byte	0
 1700 0092 00       		.byte	0
 1701 0093 0C       		.uleb128 0xc
 1702 0094 0F       		.uleb128 0xf
 1703 0095 00       		.byte	0
 1704 0096 0B       		.uleb128 0xb
 1705 0097 0B       		.uleb128 0xb
 1706 0098 49       		.uleb128 0x49
 1707 0099 13       		.uleb128 0x13
 1708 009a 00       		.byte	0
ARM GAS  C:\Users\Luis\AppData\Local\Temp\ccGdeljb.s 			page 31


 1709 009b 00       		.byte	0
 1710 009c 0D       		.uleb128 0xd
 1711 009d 13       		.uleb128 0x13
 1712 009e 01       		.byte	0x1
 1713 009f 03       		.uleb128 0x3
 1714 00a0 0E       		.uleb128 0xe
 1715 00a1 0B       		.uleb128 0xb
 1716 00a2 0B       		.uleb128 0xb
 1717 00a3 3A       		.uleb128 0x3a
 1718 00a4 0B       		.uleb128 0xb
 1719 00a5 3B       		.uleb128 0x3b
 1720 00a6 05       		.uleb128 0x5
 1721 00a7 01       		.uleb128 0x1
 1722 00a8 13       		.uleb128 0x13
 1723 00a9 00       		.byte	0
 1724 00aa 00       		.byte	0
 1725 00ab 0E       		.uleb128 0xe
 1726 00ac 15       		.uleb128 0x15
 1727 00ad 01       		.byte	0x1
 1728 00ae 01       		.uleb128 0x1
 1729 00af 13       		.uleb128 0x13
 1730 00b0 00       		.byte	0
 1731 00b1 00       		.byte	0
 1732 00b2 0F       		.uleb128 0xf
 1733 00b3 05       		.uleb128 0x5
 1734 00b4 00       		.byte	0
 1735 00b5 49       		.uleb128 0x49
 1736 00b6 13       		.uleb128 0x13
 1737 00b7 00       		.byte	0
 1738 00b8 00       		.byte	0
 1739 00b9 10       		.uleb128 0x10
 1740 00ba 0F       		.uleb128 0xf
 1741 00bb 00       		.byte	0
 1742 00bc 0B       		.uleb128 0xb
 1743 00bd 0B       		.uleb128 0xb
 1744 00be 00       		.byte	0
 1745 00bf 00       		.byte	0
 1746 00c0 11       		.uleb128 0x11
 1747 00c1 13       		.uleb128 0x13
 1748 00c2 01       		.byte	0x1
 1749 00c3 03       		.uleb128 0x3
 1750 00c4 0E       		.uleb128 0xe
 1751 00c5 0B       		.uleb128 0xb
 1752 00c6 05       		.uleb128 0x5
 1753 00c7 3A       		.uleb128 0x3a
 1754 00c8 0B       		.uleb128 0xb
 1755 00c9 3B       		.uleb128 0x3b
 1756 00ca 05       		.uleb128 0x5
 1757 00cb 01       		.uleb128 0x1
 1758 00cc 13       		.uleb128 0x13
 1759 00cd 00       		.byte	0
 1760 00ce 00       		.byte	0
 1761 00cf 12       		.uleb128 0x12
 1762 00d0 0D       		.uleb128 0xd
 1763 00d1 00       		.byte	0
 1764 00d2 03       		.uleb128 0x3
 1765 00d3 0E       		.uleb128 0xe
ARM GAS  C:\Users\Luis\AppData\Local\Temp\ccGdeljb.s 			page 32


 1766 00d4 3A       		.uleb128 0x3a
 1767 00d5 0B       		.uleb128 0xb
 1768 00d6 3B       		.uleb128 0x3b
 1769 00d7 05       		.uleb128 0x5
 1770 00d8 49       		.uleb128 0x49
 1771 00d9 13       		.uleb128 0x13
 1772 00da 38       		.uleb128 0x38
 1773 00db 05       		.uleb128 0x5
 1774 00dc 00       		.byte	0
 1775 00dd 00       		.byte	0
 1776 00de 13       		.uleb128 0x13
 1777 00df 0D       		.uleb128 0xd
 1778 00e0 00       		.byte	0
 1779 00e1 03       		.uleb128 0x3
 1780 00e2 08       		.uleb128 0x8
 1781 00e3 3A       		.uleb128 0x3a
 1782 00e4 0B       		.uleb128 0xb
 1783 00e5 3B       		.uleb128 0x3b
 1784 00e6 05       		.uleb128 0x5
 1785 00e7 49       		.uleb128 0x49
 1786 00e8 13       		.uleb128 0x13
 1787 00e9 38       		.uleb128 0x38
 1788 00ea 05       		.uleb128 0x5
 1789 00eb 00       		.byte	0
 1790 00ec 00       		.byte	0
 1791 00ed 14       		.uleb128 0x14
 1792 00ee 0D       		.uleb128 0xd
 1793 00ef 00       		.byte	0
 1794 00f0 03       		.uleb128 0x3
 1795 00f1 08       		.uleb128 0x8
 1796 00f2 3A       		.uleb128 0x3a
 1797 00f3 0B       		.uleb128 0xb
 1798 00f4 3B       		.uleb128 0x3b
 1799 00f5 0B       		.uleb128 0xb
 1800 00f6 49       		.uleb128 0x49
 1801 00f7 13       		.uleb128 0x13
 1802 00f8 38       		.uleb128 0x38
 1803 00f9 0B       		.uleb128 0xb
 1804 00fa 00       		.byte	0
 1805 00fb 00       		.byte	0
 1806 00fc 15       		.uleb128 0x15
 1807 00fd 13       		.uleb128 0x13
 1808 00fe 01       		.byte	0x1
 1809 00ff 0B       		.uleb128 0xb
 1810 0100 0B       		.uleb128 0xb
 1811 0101 3A       		.uleb128 0x3a
 1812 0102 0B       		.uleb128 0xb
 1813 0103 3B       		.uleb128 0x3b
 1814 0104 0B       		.uleb128 0xb
 1815 0105 6E       		.uleb128 0x6e
 1816 0106 0E       		.uleb128 0xe
 1817 0107 01       		.uleb128 0x1
 1818 0108 13       		.uleb128 0x13
 1819 0109 00       		.byte	0
 1820 010a 00       		.byte	0
 1821 010b 16       		.uleb128 0x16
 1822 010c 13       		.uleb128 0x13
ARM GAS  C:\Users\Luis\AppData\Local\Temp\ccGdeljb.s 			page 33


 1823 010d 01       		.byte	0x1
 1824 010e 0B       		.uleb128 0xb
 1825 010f 05       		.uleb128 0x5
 1826 0110 3A       		.uleb128 0x3a
 1827 0111 0B       		.uleb128 0xb
 1828 0112 3B       		.uleb128 0x3b
 1829 0113 0B       		.uleb128 0xb
 1830 0114 6E       		.uleb128 0x6e
 1831 0115 0E       		.uleb128 0xe
 1832 0116 01       		.uleb128 0x1
 1833 0117 13       		.uleb128 0x13
 1834 0118 00       		.byte	0
 1835 0119 00       		.byte	0
 1836 011a 17       		.uleb128 0x17
 1837 011b 01       		.uleb128 0x1
 1838 011c 01       		.byte	0x1
 1839 011d 49       		.uleb128 0x49
 1840 011e 13       		.uleb128 0x13
 1841 011f 01       		.uleb128 0x1
 1842 0120 13       		.uleb128 0x13
 1843 0121 00       		.byte	0
 1844 0122 00       		.byte	0
 1845 0123 18       		.uleb128 0x18
 1846 0124 21       		.uleb128 0x21
 1847 0125 00       		.byte	0
 1848 0126 49       		.uleb128 0x49
 1849 0127 13       		.uleb128 0x13
 1850 0128 2F       		.uleb128 0x2f
 1851 0129 0B       		.uleb128 0xb
 1852 012a 00       		.byte	0
 1853 012b 00       		.byte	0
 1854 012c 19       		.uleb128 0x19
 1855 012d 26       		.uleb128 0x26
 1856 012e 00       		.byte	0
 1857 012f 49       		.uleb128 0x49
 1858 0130 13       		.uleb128 0x13
 1859 0131 00       		.byte	0
 1860 0132 00       		.byte	0
 1861 0133 1A       		.uleb128 0x1a
 1862 0134 02       		.uleb128 0x2
 1863 0135 01       		.byte	0x1
 1864 0136 03       		.uleb128 0x3
 1865 0137 08       		.uleb128 0x8
 1866 0138 3C       		.uleb128 0x3c
 1867 0139 19       		.uleb128 0x19
 1868 013a 01       		.uleb128 0x1
 1869 013b 13       		.uleb128 0x13
 1870 013c 00       		.byte	0
 1871 013d 00       		.byte	0
 1872 013e 1B       		.uleb128 0x1b
 1873 013f 2E       		.uleb128 0x2e
 1874 0140 01       		.byte	0x1
 1875 0141 3F       		.uleb128 0x3f
 1876 0142 19       		.uleb128 0x19
 1877 0143 03       		.uleb128 0x3
 1878 0144 0E       		.uleb128 0xe
 1879 0145 3A       		.uleb128 0x3a
ARM GAS  C:\Users\Luis\AppData\Local\Temp\ccGdeljb.s 			page 34


 1880 0146 0B       		.uleb128 0xb
 1881 0147 3B       		.uleb128 0x3b
 1882 0148 0B       		.uleb128 0xb
 1883 0149 6E       		.uleb128 0x6e
 1884 014a 0E       		.uleb128 0xe
 1885 014b 49       		.uleb128 0x49
 1886 014c 13       		.uleb128 0x13
 1887 014d 32       		.uleb128 0x32
 1888 014e 0B       		.uleb128 0xb
 1889 014f 3C       		.uleb128 0x3c
 1890 0150 19       		.uleb128 0x19
 1891 0151 64       		.uleb128 0x64
 1892 0152 13       		.uleb128 0x13
 1893 0153 01       		.uleb128 0x1
 1894 0154 13       		.uleb128 0x13
 1895 0155 00       		.byte	0
 1896 0156 00       		.byte	0
 1897 0157 1C       		.uleb128 0x1c
 1898 0158 05       		.uleb128 0x5
 1899 0159 00       		.byte	0
 1900 015a 49       		.uleb128 0x49
 1901 015b 13       		.uleb128 0x13
 1902 015c 34       		.uleb128 0x34
 1903 015d 19       		.uleb128 0x19
 1904 015e 00       		.byte	0
 1905 015f 00       		.byte	0
 1906 0160 1D       		.uleb128 0x1d
 1907 0161 2E       		.uleb128 0x2e
 1908 0162 01       		.byte	0x1
 1909 0163 3F       		.uleb128 0x3f
 1910 0164 19       		.uleb128 0x19
 1911 0165 03       		.uleb128 0x3
 1912 0166 0E       		.uleb128 0xe
 1913 0167 3A       		.uleb128 0x3a
 1914 0168 0B       		.uleb128 0xb
 1915 0169 3B       		.uleb128 0x3b
 1916 016a 0B       		.uleb128 0xb
 1917 016b 6E       		.uleb128 0x6e
 1918 016c 0E       		.uleb128 0xe
 1919 016d 49       		.uleb128 0x49
 1920 016e 13       		.uleb128 0x13
 1921 016f 32       		.uleb128 0x32
 1922 0170 0B       		.uleb128 0xb
 1923 0171 3C       		.uleb128 0x3c
 1924 0172 19       		.uleb128 0x19
 1925 0173 64       		.uleb128 0x64
 1926 0174 13       		.uleb128 0x13
 1927 0175 00       		.byte	0
 1928 0176 00       		.byte	0
 1929 0177 1E       		.uleb128 0x1e
 1930 0178 2E       		.uleb128 0x2e
 1931 0179 01       		.byte	0x1
 1932 017a 47       		.uleb128 0x47
 1933 017b 13       		.uleb128 0x13
 1934 017c 11       		.uleb128 0x11
 1935 017d 01       		.uleb128 0x1
 1936 017e 12       		.uleb128 0x12
ARM GAS  C:\Users\Luis\AppData\Local\Temp\ccGdeljb.s 			page 35


 1937 017f 06       		.uleb128 0x6
 1938 0180 40       		.uleb128 0x40
 1939 0181 18       		.uleb128 0x18
 1940 0182 64       		.uleb128 0x64
 1941 0183 13       		.uleb128 0x13
 1942 0184 9642     		.uleb128 0x2116
 1943 0186 19       		.uleb128 0x19
 1944 0187 01       		.uleb128 0x1
 1945 0188 13       		.uleb128 0x13
 1946 0189 00       		.byte	0
 1947 018a 00       		.byte	0
 1948 018b 1F       		.uleb128 0x1f
 1949 018c 05       		.uleb128 0x5
 1950 018d 00       		.byte	0
 1951 018e 03       		.uleb128 0x3
 1952 018f 0E       		.uleb128 0xe
 1953 0190 49       		.uleb128 0x49
 1954 0191 13       		.uleb128 0x13
 1955 0192 34       		.uleb128 0x34
 1956 0193 19       		.uleb128 0x19
 1957 0194 02       		.uleb128 0x2
 1958 0195 18       		.uleb128 0x18
 1959 0196 00       		.byte	0
 1960 0197 00       		.byte	0
 1961 0198 20       		.uleb128 0x20
 1962 0199 05       		.uleb128 0x5
 1963 019a 00       		.byte	0
 1964 019b 03       		.uleb128 0x3
 1965 019c 0E       		.uleb128 0xe
 1966 019d 3A       		.uleb128 0x3a
 1967 019e 0B       		.uleb128 0xb
 1968 019f 3B       		.uleb128 0x3b
 1969 01a0 0B       		.uleb128 0xb
 1970 01a1 49       		.uleb128 0x49
 1971 01a2 13       		.uleb128 0x13
 1972 01a3 02       		.uleb128 0x2
 1973 01a4 18       		.uleb128 0x18
 1974 01a5 00       		.byte	0
 1975 01a6 00       		.byte	0
 1976 01a7 21       		.uleb128 0x21
 1977 01a8 0B       		.uleb128 0xb
 1978 01a9 01       		.byte	0x1
 1979 01aa 11       		.uleb128 0x11
 1980 01ab 01       		.uleb128 0x1
 1981 01ac 12       		.uleb128 0x12
 1982 01ad 06       		.uleb128 0x6
 1983 01ae 00       		.byte	0
 1984 01af 00       		.byte	0
 1985 01b0 22       		.uleb128 0x22
 1986 01b1 34       		.uleb128 0x34
 1987 01b2 00       		.byte	0
 1988 01b3 03       		.uleb128 0x3
 1989 01b4 0E       		.uleb128 0xe
 1990 01b5 3A       		.uleb128 0x3a
 1991 01b6 0B       		.uleb128 0xb
 1992 01b7 3B       		.uleb128 0x3b
 1993 01b8 0B       		.uleb128 0xb
ARM GAS  C:\Users\Luis\AppData\Local\Temp\ccGdeljb.s 			page 36


 1994 01b9 49       		.uleb128 0x49
 1995 01ba 13       		.uleb128 0x13
 1996 01bb 02       		.uleb128 0x2
 1997 01bc 18       		.uleb128 0x18
 1998 01bd 00       		.byte	0
 1999 01be 00       		.byte	0
 2000 01bf 23       		.uleb128 0x23
 2001 01c0 34       		.uleb128 0x34
 2002 01c1 00       		.byte	0
 2003 01c2 03       		.uleb128 0x3
 2004 01c3 0E       		.uleb128 0xe
 2005 01c4 3A       		.uleb128 0x3a
 2006 01c5 0B       		.uleb128 0xb
 2007 01c6 3B       		.uleb128 0x3b
 2008 01c7 05       		.uleb128 0x5
 2009 01c8 49       		.uleb128 0x49
 2010 01c9 13       		.uleb128 0x13
 2011 01ca 3F       		.uleb128 0x3f
 2012 01cb 19       		.uleb128 0x19
 2013 01cc 3C       		.uleb128 0x3c
 2014 01cd 19       		.uleb128 0x19
 2015 01ce 00       		.byte	0
 2016 01cf 00       		.byte	0
 2017 01d0 24       		.uleb128 0x24
 2018 01d1 34       		.uleb128 0x34
 2019 01d2 00       		.byte	0
 2020 01d3 03       		.uleb128 0x3
 2021 01d4 08       		.uleb128 0x8
 2022 01d5 3A       		.uleb128 0x3a
 2023 01d6 0B       		.uleb128 0xb
 2024 01d7 3B       		.uleb128 0x3b
 2025 01d8 05       		.uleb128 0x5
 2026 01d9 49       		.uleb128 0x49
 2027 01da 13       		.uleb128 0x13
 2028 01db 3F       		.uleb128 0x3f
 2029 01dc 19       		.uleb128 0x19
 2030 01dd 3C       		.uleb128 0x3c
 2031 01de 19       		.uleb128 0x19
 2032 01df 00       		.byte	0
 2033 01e0 00       		.byte	0
 2034 01e1 00       		.byte	0
 2035              		.section	.debug_aranges,"",%progbits
 2036 0000 24000000 		.4byte	0x24
 2037 0004 0200     		.2byte	0x2
 2038 0006 00000000 		.4byte	.Ldebug_info0
 2039 000a 04       		.byte	0x4
 2040 000b 00       		.byte	0
 2041 000c 0000     		.2byte	0
 2042 000e 0000     		.2byte	0
 2043 0010 00000000 		.4byte	.LFB260
 2044 0014 F6000000 		.4byte	.LFE260-.LFB260
 2045 0018 00000000 		.4byte	.LFB261
 2046 001c FC000000 		.4byte	.LFE261-.LFB261
 2047 0020 00000000 		.4byte	0
 2048 0024 00000000 		.4byte	0
 2049              		.section	.debug_ranges,"",%progbits
 2050              	.Ldebug_ranges0:
ARM GAS  C:\Users\Luis\AppData\Local\Temp\ccGdeljb.s 			page 37


 2051 0000 00000000 		.4byte	.LFB260
 2052 0004 F6000000 		.4byte	.LFE260
 2053 0008 00000000 		.4byte	.LFB261
 2054 000c FC000000 		.4byte	.LFE261
 2055 0010 00000000 		.4byte	0
 2056 0014 00000000 		.4byte	0
 2057              		.section	.debug_line,"",%progbits
 2058              	.Ldebug_line0:
 2059 0000 BB010000 		.section	.debug_str,"MS",%progbits,1
 2059      02006E01 
 2059      00000201 
 2059      FB0E0D00 
 2059      01010101 
 2060              	.LASF101:
 2061 0000 74625F70 		.ascii	"tb_ptr\000"
 2061      747200
 2062              	.LASF58:
 2063 0007 72656164 		.ascii	"ready_list_t\000"
 2063      795F6C69 
 2063      73745F74 
 2063      00
 2064              	.LASF95:
 2065 0014 73655F74 		.ascii	"se_time\000"
 2065      696D6500 
 2066              	.LASF28:
 2067 001c 77747472 		.ascii	"wttrp\000"
 2067      7000
 2068              	.LASF25:
 2069 0022 7264796D 		.ascii	"rdymsg\000"
 2069      736700
 2070              	.LASF11:
 2071 0029 75696E74 		.ascii	"uint64_t\000"
 2071      36345F74 
 2071      00
 2072              	.LASF88:
 2073 0032 6B65726E 		.ascii	"kernel_stats\000"
 2073      656C5F73 
 2073      74617473 
 2073      00
 2074              	.LASF94:
 2075 003f 706F7274 		.ascii	"port_intctx\000"
 2075      5F696E74 
 2075      63747800 
 2076              	.LASF57:
 2077 004b 63685F74 		.ascii	"ch_threads_queue\000"
 2077      68726561 
 2077      64735F71 
 2077      75657565 
 2077      00
 2078              	.LASF77:
 2079 005c 73797374 		.ascii	"system_debug_t\000"
 2079      656D5F64 
 2079      65627567 
 2079      5F7400
 2080              	.LASF110:
 2081 006b 776F7273 		.ascii	"worst\000"
 2081      7400
ARM GAS  C:\Users\Luis\AppData\Local\Temp\ccGdeljb.s 			page 38


 2082              	.LASF113:
 2083 0071 74696D65 		.ascii	"time_measurement_t\000"
 2083      5F6D6561 
 2083      73757265 
 2083      6D656E74 
 2083      5F7400
 2084              	.LASF12:
 2085 0084 6C6F6E67 		.ascii	"long long unsigned int\000"
 2085      206C6F6E 
 2085      6720756E 
 2085      7369676E 
 2085      65642069 
 2086              	.LASF103:
 2087 009b 63685F74 		.ascii	"ch_trace_buffer_t\000"
 2087      72616365 
 2087      5F627566 
 2087      6665725F 
 2087      7400
 2088              	.LASF98:
 2089 00ad 73655F73 		.ascii	"se_state\000"
 2089      74617465 
 2089      00
 2090              	.LASF26:
 2091 00b6 65786974 		.ascii	"exitcode\000"
 2091      636F6465 
 2091      00
 2092              	.LASF87:
 2093 00bf 6D61696E 		.ascii	"mainthread\000"
 2093      74687265 
 2093      616400
 2094              	.LASF74:
 2095 00ca 76697274 		.ascii	"virtual_timers_list_t\000"
 2095      75616C5F 
 2095      74696D65 
 2095      72735F6C 
 2095      6973745F 
 2096              	.LASF145:
 2097 00e0 49544D5F 		.ascii	"ITM_RxBuffer\000"
 2097      52784275 
 2097      66666572 
 2097      00
 2098              	.LASF141:
 2099 00ed 70446174 		.ascii	"pData\000"
 2099      6100
 2100              	.LASF151:
 2101 00f3 5F5A4E33 		.ascii	"_ZN3IIR11directFormIEf\000"
 2101      49495231 
 2101      31646972 
 2101      65637446 
 2101      6F726D49 
 2102              	.LASF14:
 2103 010a 72747469 		.ascii	"rttime_t\000"
 2103      6D655F74 
 2103      00
 2104              	.LASF34:
 2105 0113 705F7072 		.ascii	"p_prio\000"
 2105      696F00
ARM GAS  C:\Users\Luis\AppData\Local\Temp\ccGdeljb.s 			page 39


 2106              	.LASF10:
 2107 011a 6C6F6E67 		.ascii	"long long int\000"
 2107      206C6F6E 
 2107      6720696E 
 2107      7400
 2108              	.LASF1:
 2109 0128 7369676E 		.ascii	"signed char\000"
 2109      65642063 
 2109      68617200 
 2110              	.LASF49:
 2111 0134 705F6D70 		.ascii	"p_mpool\000"
 2111      6F6F6C00 
 2112              	.LASF124:
 2113 013c 6D5F7175 		.ascii	"m_queue\000"
 2113      65756500 
 2114              	.LASF86:
 2115 0144 76746C69 		.ascii	"vtlist\000"
 2115      737400
 2116              	.LASF148:
 2117 014b 433A5C55 		.ascii	"C:\\Users\\Luis\\git\\DSP-Library-Lanin\\examples\\"
 2117      73657273 
 2117      5C4C7569 
 2117      735C6769 
 2117      745C4453 
 2118 0178 4453502D 		.ascii	"DSP-Library\000"
 2118      4C696272 
 2118      61727900 
 2119              	.LASF84:
 2120 0184 63685F73 		.ascii	"ch_system\000"
 2120      79737465 
 2120      6D00
 2121              	.LASF7:
 2122 018e 6C6F6E67 		.ascii	"long int\000"
 2122      20696E74 
 2122      00
 2123              	.LASF16:
 2124 0197 74737461 		.ascii	"tstate_t\000"
 2124      74655F74 
 2124      00
 2125              	.LASF96:
 2126 01a0 73655F74 		.ascii	"se_tp\000"
 2126      7000
 2127              	.LASF140:
 2128 01a6 74686973 		.ascii	"this\000"
 2128      00
 2129              	.LASF36:
 2130 01ab 705F6E65 		.ascii	"p_newer\000"
 2130      77657200 
 2131              	.LASF121:
 2132 01b3 735F7175 		.ascii	"s_queue\000"
 2132      65756500 
 2133              	.LASF100:
 2134 01bb 74625F73 		.ascii	"tb_size\000"
 2134      697A6500 
 2135              	.LASF63:
 2136 01c3 725F6E65 		.ascii	"r_newer\000"
 2136      77657200 
ARM GAS  C:\Users\Luis\AppData\Local\Temp\ccGdeljb.s 			page 40


 2137              	.LASF91:
 2138 01cb 72656761 		.ascii	"regarm_t\000"
 2138      726D5F74 
 2138      00
 2139              	.LASF70:
 2140 01d4 76745F70 		.ascii	"vt_prev\000"
 2140      72657600 
 2141              	.LASF78:
 2142 01dc 63685F73 		.ascii	"ch_system_debug\000"
 2142      79737465 
 2142      6D5F6465 
 2142      62756700 
 2143              	.LASF85:
 2144 01ec 726C6973 		.ascii	"rlist\000"
 2144      7400
 2145              	.LASF128:
 2146 01f2 6D757465 		.ascii	"mutex_t\000"
 2146      785F7400 
 2147              	.LASF81:
 2148 01fa 6C6F636B 		.ascii	"lock_cnt\000"
 2148      5F636E74 
 2148      00
 2149              	.LASF89:
 2150 0203 69646C65 		.ascii	"idle_thread_wa\000"
 2150      5F746872 
 2150      6561645F 
 2150      776100
 2151              	.LASF21:
 2152 0212 636E745F 		.ascii	"cnt_t\000"
 2152      7400
 2153              	.LASF39:
 2154 0218 705F7374 		.ascii	"p_stklimit\000"
 2154      6B6C696D 
 2154      697400
 2155              	.LASF0:
 2156 0223 756E7369 		.ascii	"unsigned int\000"
 2156      676E6564 
 2156      20696E74 
 2156      00
 2157              	.LASF69:
 2158 0230 76745F6E 		.ascii	"vt_next\000"
 2158      65787400 
 2159              	.LASF29:
 2160 0238 77747365 		.ascii	"wtsemp\000"
 2160      6D7000
 2161              	.LASF44:
 2162 023f 705F6D73 		.ascii	"p_msgqueue\000"
 2162      67717565 
 2162      756500
 2163              	.LASF51:
 2164 024a 746C7350 		.ascii	"tlsPtr\000"
 2164      747200
 2165              	.LASF115:
 2166 0251 6E5F6972 		.ascii	"n_irq\000"
 2166      7100
 2167              	.LASF134:
 2168 0257 5F436F6E 		.ascii	"_ContInputData\000"
ARM GAS  C:\Users\Luis\AppData\Local\Temp\ccGdeljb.s 			page 41


 2168      74496E70 
 2168      75744461 
 2168      746100
 2169              	.LASF122:
 2170 0266 735F636E 		.ascii	"s_cnt\000"
 2170      7400
 2171              	.LASF4:
 2172 026c 73686F72 		.ascii	"short unsigned int\000"
 2172      7420756E 
 2172      7369676E 
 2172      65642069 
 2172      6E7400
 2173              	.LASF119:
 2174 027f 6B65726E 		.ascii	"kernel_stats_t\000"
 2174      656C5F73 
 2174      74617473 
 2174      5F7400
 2175              	.LASF104:
 2176 028e 31346368 		.ascii	"14ch_swc_event_t\000"
 2176      5F737763 
 2176      5F657665 
 2176      6E745F74 
 2176      00
 2177              	.LASF54:
 2178 029f 63685F74 		.ascii	"ch_thread\000"
 2178      68726561 
 2178      6400
 2179              	.LASF19:
 2180 02a9 6D73675F 		.ascii	"msg_t\000"
 2180      7400
 2181              	.LASF111:
 2182 02af 6C617374 		.ascii	"last\000"
 2182      00
 2183              	.LASF22:
 2184 02b4 75636E74 		.ascii	"ucnt_t\000"
 2184      5F7400
 2185              	.LASF83:
 2186 02bb 63685F73 		.ascii	"ch_system_t\000"
 2186      79737465 
 2186      6D5F7400 
 2187              	.LASF15:
 2188 02c7 746D6F64 		.ascii	"tmode_t\000"
 2188      655F7400 
 2189              	.LASF143:
 2190 02cf 5F4E756D 		.ascii	"_NumSum\000"
 2190      53756D00 
 2191              	.LASF129:
 2192 02d7 626F6F6C 		.ascii	"bool\000"
 2192      00
 2193              	.LASF118:
 2194 02dc 6D5F6372 		.ascii	"m_crit_isr\000"
 2194      69745F69 
 2194      737200
 2195              	.LASF59:
 2196 02e7 63685F72 		.ascii	"ch_ready_list\000"
 2196      65616479 
 2196      5F6C6973 
ARM GAS  C:\Users\Luis\AppData\Local\Temp\ccGdeljb.s 			page 42


 2196      7400
 2197              	.LASF20:
 2198 02f5 6576656E 		.ascii	"eventmask_t\000"
 2198      746D6173 
 2198      6B5F7400 
 2199              	.LASF149:
 2200 0301 31376368 		.ascii	"17ch_trace_buffer_t\000"
 2200      5F747261 
 2200      63655F62 
 2200      75666665 
 2200      725F7400 
 2201              	.LASF92:
 2202 0315 73746B61 		.ascii	"stkalign_t\000"
 2202      6C69676E 
 2202      5F7400
 2203              	.LASF139:
 2204 0320 5F526573 		.ascii	"_Result\000"
 2204      756C7400 
 2205              	.LASF43:
 2206 0328 705F7761 		.ascii	"p_waiting\000"
 2206      6974696E 
 2206      6700
 2207              	.LASF90:
 2208 0332 73697A65 		.ascii	"sizetype\000"
 2208      74797065 
 2208      00
 2209              	.LASF52:
 2210 033b 74687265 		.ascii	"thread_reference_t\000"
 2210      61645F72 
 2210      65666572 
 2210      656E6365 
 2210      5F7400
 2211              	.LASF75:
 2212 034e 63685F76 		.ascii	"ch_virtual_timers_list\000"
 2212      69727475 
 2212      616C5F74 
 2212      696D6572 
 2212      735F6C69 
 2213              	.LASF99:
 2214 0365 63685F73 		.ascii	"ch_swc_event_t\000"
 2214      77635F65 
 2214      76656E74 
 2214      5F7400
 2215              	.LASF76:
 2216 0374 76745F6C 		.ascii	"vt_lasttime\000"
 2216      61737474 
 2216      696D6500 
 2217              	.LASF37:
 2218 0380 705F6F6C 		.ascii	"p_older\000"
 2218      64657200 
 2219              	.LASF62:
 2220 0388 725F6374 		.ascii	"r_ctx\000"
 2220      7800
 2221              	.LASF108:
 2222 038e 31387469 		.ascii	"18time_measurement_t\000"
 2222      6D655F6D 
 2222      65617375 
ARM GAS  C:\Users\Luis\AppData\Local\Temp\ccGdeljb.s 			page 43


 2222      72656D65 
 2222      6E745F74 
 2223              	.LASF114:
 2224 03a3 31346B65 		.ascii	"14kernel_stats_t\000"
 2224      726E656C 
 2224      5F737461 
 2224      74735F74 
 2224      00
 2225              	.LASF107:
 2226 03b4 746D5F63 		.ascii	"tm_calibration_t\000"
 2226      616C6962 
 2226      72617469 
 2226      6F6E5F74 
 2226      00
 2227              	.LASF65:
 2228 03c5 725F6375 		.ascii	"r_current\000"
 2228      7272656E 
 2228      7400
 2229              	.LASF64:
 2230 03cf 725F6F6C 		.ascii	"r_older\000"
 2230      64657200 
 2231              	.LASF112:
 2232 03d7 63756D75 		.ascii	"cumulative\000"
 2232      6C617469 
 2232      766500
 2233              	.LASF142:
 2234 03e2 5F417272 		.ascii	"_ArrayInputsV\000"
 2234      6179496E 
 2234      70757473 
 2234      5600
 2235              	.LASF131:
 2236 03f0 5F417272 		.ascii	"_ArrayInputsX\000"
 2236      6179496E 
 2236      70757473 
 2236      5800
 2237              	.LASF132:
 2238 03fe 5F417272 		.ascii	"_ArrayInputsY\000"
 2238      6179496E 
 2238      70757473 
 2238      5900
 2239              	.LASF17:
 2240 040c 74726566 		.ascii	"trefs_t\000"
 2240      735F7400 
 2241              	.LASF102:
 2242 0414 74625F62 		.ascii	"tb_buffer\000"
 2242      75666665 
 2242      7200
 2243              	.LASF67:
 2244 041e 76697274 		.ascii	"virtual_timer_t\000"
 2244      75616C5F 
 2244      74696D65 
 2244      725F7400 
 2245              	.LASF33:
 2246 042e 705F7072 		.ascii	"p_prev\000"
 2246      657600
 2247              	.LASF146:
 2248 0435 474E5520 		.ascii	"GNU C++ 4.8.3 20131129 (release) [ARM/embedded-4_8-"
ARM GAS  C:\Users\Luis\AppData\Local\Temp\ccGdeljb.s 			page 44


 2248      432B2B20 
 2248      342E382E 
 2248      33203230 
 2248      31333131 
 2249 0468 6272616E 		.ascii	"branch revision 205641] -mcpu=cortex-m4 -mapcs-fram"
 2249      63682072 
 2249      65766973 
 2249      696F6E20 
 2249      32303536 
 2250 049b 65202D6D 		.ascii	"e -mno-thumb-interwork -mthumb -ggdb -O0 -falign-fu"
 2250      6E6F2D74 
 2250      68756D62 
 2250      2D696E74 
 2250      6572776F 
 2251 04ce 6E637469 		.ascii	"nctions=16 -ffunction-sections -fdata-sections -fno"
 2251      6F6E733D 
 2251      3136202D 
 2251      6666756E 
 2251      6374696F 
 2252 0501 2D636F6D 		.ascii	"-common -fno-rtti -fno-exceptions\000"
 2252      6D6F6E20 
 2252      2D666E6F 
 2252      2D727474 
 2252      69202D66 
 2253              	.LASF18:
 2254 0523 74707269 		.ascii	"tprio_t\000"
 2254      6F5F7400 
 2255              	.LASF38:
 2256 052b 705F6E61 		.ascii	"p_name\000"
 2256      6D6500
 2257              	.LASF116:
 2258 0532 6E5F6374 		.ascii	"n_ctxswc\000"
 2258      78737763 
 2258      00
 2259              	.LASF6:
 2260 053b 696E7433 		.ascii	"int32_t\000"
 2260      325F7400 
 2261              	.LASF2:
 2262 0543 756E7369 		.ascii	"unsigned char\000"
 2262      676E6564 
 2262      20636861 
 2262      7200
 2263              	.LASF47:
 2264 0551 705F6D74 		.ascii	"p_mtxlist\000"
 2264      786C6973 
 2264      7400
 2265              	.LASF3:
 2266 055b 73686F72 		.ascii	"short int\000"
 2266      7420696E 
 2266      7400
 2267              	.LASF40:
 2268 0565 705F7374 		.ascii	"p_state\000"
 2268      61746500 
 2269              	.LASF144:
 2270 056d 5F526573 		.ascii	"_ResultV\000"
 2270      756C7456 
 2270      00
ARM GAS  C:\Users\Luis\AppData\Local\Temp\ccGdeljb.s 			page 45


 2271              	.LASF135:
 2272 0576 5F526573 		.ascii	"_ResultX\000"
 2272      756C7458 
 2272      00
 2273              	.LASF137:
 2274 057f 5F526573 		.ascii	"_ResultY\000"
 2274      756C7459 
 2274      00
 2275              	.LASF61:
 2276 0588 725F7072 		.ascii	"r_prio\000"
 2276      696F00
 2277              	.LASF133:
 2278 058f 5F46696C 		.ascii	"_FilterOrder\000"
 2278      7465724F 
 2278      72646572 
 2278      00
 2279              	.LASF31:
 2280 059c 65776D61 		.ascii	"ewmask\000"
 2280      736B00
 2281              	.LASF32:
 2282 05a3 705F6E65 		.ascii	"p_next\000"
 2282      787400
 2283              	.LASF50:
 2284 05aa 705F7374 		.ascii	"p_stats\000"
 2284      61747300 
 2285              	.LASF68:
 2286 05b2 63685F76 		.ascii	"ch_virtual_timer\000"
 2286      69727475 
 2286      616C5F74 
 2286      696D6572 
 2286      00
 2287              	.LASF120:
 2288 05c3 63685F73 		.ascii	"ch_semaphore\000"
 2288      656D6170 
 2288      686F7265 
 2288      00
 2289              	.LASF46:
 2290 05d0 705F6570 		.ascii	"p_epending\000"
 2290      656E6469 
 2290      6E6700
 2291              	.LASF8:
 2292 05db 75696E74 		.ascii	"uint32_t\000"
 2292      33325F74 
 2292      00
 2293              	.LASF30:
 2294 05e4 77746D74 		.ascii	"wtmtxp\000"
 2294      787000
 2295              	.LASF60:
 2296 05eb 725F7175 		.ascii	"r_queue\000"
 2296      65756500 
 2297              	.LASF71:
 2298 05f3 76745F64 		.ascii	"vt_delta\000"
 2298      656C7461 
 2298      00
 2299              	.LASF55:
 2300 05fc 63685F74 		.ascii	"ch_threads_list\000"
 2300      68726561 
ARM GAS  C:\Users\Luis\AppData\Local\Temp\ccGdeljb.s 			page 46


 2300      64735F6C 
 2300      69737400 
 2301              	.LASF9:
 2302 060c 6C6F6E67 		.ascii	"long unsigned int\000"
 2302      20756E73 
 2302      69676E65 
 2302      6420696E 
 2302      7400
 2303              	.LASF127:
 2304 061e 63686172 		.ascii	"char\000"
 2304      00
 2305              	.LASF24:
 2306 0623 74687265 		.ascii	"thread_t\000"
 2306      61645F74 
 2306      00
 2307              	.LASF109:
 2308 062c 62657374 		.ascii	"best\000"
 2308      00
 2309              	.LASF126:
 2310 0631 6D5F6E65 		.ascii	"m_next\000"
 2310      787400
 2311              	.LASF23:
 2312 0638 73797374 		.ascii	"systime_t\000"
 2312      696D655F 
 2312      7400
 2313              	.LASF48:
 2314 0642 705F7265 		.ascii	"p_realprio\000"
 2314      616C7072 
 2314      696F00
 2315              	.LASF66:
 2316 064d 76746675 		.ascii	"vtfunc_t\000"
 2316      6E635F74 
 2316      00
 2317              	.LASF79:
 2318 0656 70616E69 		.ascii	"panic_msg\000"
 2318      635F6D73 
 2318      6700
 2319              	.LASF106:
 2320 0660 6F666673 		.ascii	"offset\000"
 2320      657400
 2321              	.LASF93:
 2322 0667 636F6E74 		.ascii	"context\000"
 2322      65787400 
 2323              	.LASF13:
 2324 066f 7274636E 		.ascii	"rtcnt_t\000"
 2324      745F7400 
 2325              	.LASF73:
 2326 0677 76745F70 		.ascii	"vt_par\000"
 2326      617200
 2327              	.LASF56:
 2328 067e 74687265 		.ascii	"threads_queue_t\000"
 2328      6164735F 
 2328      71756575 
 2328      655F7400 
 2329              	.LASF123:
 2330 068e 63685F6D 		.ascii	"ch_mutex\000"
 2330      75746578 
ARM GAS  C:\Users\Luis\AppData\Local\Temp\ccGdeljb.s 			page 47


 2330      00
 2331              	.LASF42:
 2332 0697 705F7265 		.ascii	"p_refs\000"
 2332      667300
 2333              	.LASF80:
 2334 069e 6973725F 		.ascii	"isr_cnt\000"
 2334      636E7400 
 2335              	.LASF117:
 2336 06a6 6D5F6372 		.ascii	"m_crit_thd\000"
 2336      69745F74 
 2336      686400
 2337              	.LASF152:
 2338 06b1 64697265 		.ascii	"directFormII\000"
 2338      6374466F 
 2338      726D4949 
 2338      00
 2339              	.LASF5:
 2340 06be 75696E74 		.ascii	"uint8_t\000"
 2340      385F7400 
 2341              	.LASF130:
 2342 06c6 666C6F61 		.ascii	"float\000"
 2342      7400
 2343              	.LASF27:
 2344 06cc 77746F62 		.ascii	"wtobjp\000"
 2344      6A7000
 2345              	.LASF138:
 2346 06d3 5F417272 		.ascii	"_ArrayCoefficientsA\000"
 2346      6179436F 
 2346      65666669 
 2346      6369656E 
 2346      74734100 
 2347              	.LASF136:
 2348 06e7 5F417272 		.ascii	"_ArrayCoefficientsB\000"
 2348      6179436F 
 2348      65666669 
 2348      6369656E 
 2348      74734200 
 2349              	.LASF153:
 2350 06fb 5F5A4E33 		.ascii	"_ZN3IIR12directFormIIEf\000"
 2350      49495231 
 2350      32646972 
 2350      65637446 
 2350      6F726D49 
 2351              	.LASF53:
 2352 0713 74687265 		.ascii	"threads_list_t\000"
 2352      6164735F 
 2352      6C697374 
 2352      5F7400
 2353              	.LASF82:
 2354 0722 74726163 		.ascii	"trace_buffer\000"
 2354      655F6275 
 2354      66666572 
 2354      00
 2355              	.LASF41:
 2356 072f 705F666C 		.ascii	"p_flags\000"
 2356      61677300 
 2357              	.LASF45:
ARM GAS  C:\Users\Luis\AppData\Local\Temp\ccGdeljb.s 			page 48


 2358 0737 705F6D73 		.ascii	"p_msg\000"
 2358      6700
 2359              	.LASF105:
 2360 073d 3136746D 		.ascii	"16tm_calibration_t\000"
 2360      5F63616C 
 2360      69627261 
 2360      74696F6E 
 2360      5F7400
 2361              	.LASF150:
 2362 0750 64697265 		.ascii	"directFormI\000"
 2362      6374466F 
 2362      726D4900 
 2363              	.LASF147:
 2364 075c 4949522E 		.ascii	"IIR.cpp\000"
 2364      63707000 
 2365              	.LASF125:
 2366 0764 6D5F6F77 		.ascii	"m_owner\000"
 2366      6E657200 
 2367              	.LASF97:
 2368 076c 73655F77 		.ascii	"se_wtobjp\000"
 2368      746F626A 
 2368      7000
 2369              	.LASF35:
 2370 0776 705F6374 		.ascii	"p_ctx\000"
 2370      7800
 2371              	.LASF72:
 2372 077c 76745F66 		.ascii	"vt_func\000"
 2372      756E6300 
 2373              		.ident	"GCC: (GNU Tools for ARM Embedded Processors) 4.8.3 20131129 (release) [ARM/embedded-4_8-br
ARM GAS  C:\Users\Luis\AppData\Local\Temp\ccGdeljb.s 			page 49


DEFINED SYMBOLS
                            *ABS*:00000000 IIR.cpp
C:\Users\Luis\AppData\Local\Temp\ccGdeljb.s:20     .text._ZN3IIR11directFormIEf:00000000 $t
C:\Users\Luis\AppData\Local\Temp\ccGdeljb.s:26     .text._ZN3IIR11directFormIEf:00000000 _ZN3IIR11directFormIEf
C:\Users\Luis\AppData\Local\Temp\ccGdeljb.s:177    .text._ZN3IIR12directFormIIEf:00000000 $t
C:\Users\Luis\AppData\Local\Temp\ccGdeljb.s:183    .text._ZN3IIR12directFormIIEf:00000000 _ZN3IIR12directFormIIEf
                     .debug_frame:00000010 $d

UNDEFINED SYMBOLS
__aeabi_fsub
_ZNK10DataFilter15getArrayInputsXEv
_ZNK10DataFilter15getArrayInputsYEv
_ZNK10DataFilter14getFilterOrderEv
_ZNK10DataFilter21getArrayCoefficientsBEv
_ZNK10DataFilter21getArrayCoefficientsAEv
_ZN10DataFilter9moveArrayEPf
_ZN12FuntionsMath3sumEiiPfS0_i
