ARM GAS  C:\Users\Luis\AppData\Local\Temp\cc0p0Q9k.s 			page 1


   1              		.syntax unified
   2              		.cpu cortex-m4
   3              		.fpu softvfp
   4              		.eabi_attribute 20, 1
   5              		.eabi_attribute 21, 1
   6              		.eabi_attribute 23, 3
   7              		.eabi_attribute 24, 1
   8              		.eabi_attribute 25, 1
   9              		.eabi_attribute 26, 1
  10              		.eabi_attribute 30, 6
  11              		.eabi_attribute 34, 1
  12              		.eabi_attribute 18, 4
  13              		.thumb
  14              		.file	"IIR.cpp"
  15              		.text
  16              	.Ltext0:
  17              		.cfi_sections	.debug_frame
  18              		.section	.text._ZL8chprintfP20BaseSequentialStreamPKcz,"ax",%progbits
  19              		.align	2
  20              		.p2align 4,,15
  21              		.thumb
  22              		.thumb_func
  23              		.type	_ZL8chprintfP20BaseSequentialStreamPKcz, %function
  24              	_ZL8chprintfP20BaseSequentialStreamPKcz:
  25              	.LFB260:
  26              		.file 1 "../../ChibiOS/os/hal/lib/streams/chprintf.h"
  27              		.loc 1 69 0
  28              		.cfi_startproc
  29              		@ args = 4, pretend = 12, frame = 16
  30              		@ frame_needed = 1, uses_anonymous_args = 1
  31 0000 0EB4     		push	{r1, r2, r3}
  32              		.cfi_def_cfa_offset 12
  33              		.cfi_offset 1, -12
  34              		.cfi_offset 2, -8
  35              		.cfi_offset 3, -4
  36 0002 80B5     		push	{r7, lr}
  37              		.cfi_def_cfa_offset 20
  38              		.cfi_offset 7, -20
  39              		.cfi_offset 14, -16
  40 0004 85B0     		sub	sp, sp, #20
  41              		.cfi_def_cfa_offset 40
  42 0006 00AF     		add	r7, sp, #0
  43              		.cfi_def_cfa_register 7
  44 0008 7860     		str	r0, [r7, #4]
  45              	.LBB2:
  46              		.loc 1 73 0
  47 000a 07F12003 		add	r3, r7, #32
  48 000e BB60     		str	r3, [r7, #8]
  49              		.loc 1 74 0
  50 0010 7868     		ldr	r0, [r7, #4]
  51 0012 F969     		ldr	r1, [r7, #28]
  52 0014 BA68     		ldr	r2, [r7, #8]
  53 0016 FFF7FEFF 		bl	chvprintf
  54 001a F860     		str	r0, [r7, #12]
  55              		.loc 1 77 0
  56 001c FB68     		ldr	r3, [r7, #12]
  57              	.LBE2:
ARM GAS  C:\Users\Luis\AppData\Local\Temp\cc0p0Q9k.s 			page 2


  58              		.loc 1 78 0
  59 001e 1846     		mov	r0, r3
  60 0020 1437     		adds	r7, r7, #20
  61 0022 BD46     		mov	sp, r7
  62              		@ sp needed
  63 0024 BDE88040 		pop	{r7, lr}
  64 0028 03B0     		add	sp, sp, #12
  65 002a 7047     		bx	lr
  66              		.cfi_endproc
  67              	.LFE260:
  68              		.size	_ZL8chprintfP20BaseSequentialStreamPKcz, .-_ZL8chprintfP20BaseSequentialStreamPKcz
  69 002c AFF30080 		.section	.text._ZN3IIRC2Ev,"ax",%progbits
  70              		.align	2
  71              		.p2align 4,,15
  72              		.global	_ZN3IIRC2Ev
  73              		.thumb
  74              		.thumb_func
  75              		.type	_ZN3IIRC2Ev, %function
  76              	_ZN3IIRC2Ev:
  77              	.LFB262:
  78              		.file 2 "IIR.cpp"
  79              		.loc 2 19 0
  80              		.cfi_startproc
  81              		@ args = 0, pretend = 0, frame = 8
  82              		@ frame_needed = 1, uses_anonymous_args = 0
  83              		@ link register save eliminated.
  84 0000 80B4     		push	{r7}
  85              		.cfi_def_cfa_offset 4
  86              		.cfi_offset 7, -4
  87 0002 83B0     		sub	sp, sp, #12
  88              		.cfi_def_cfa_offset 16
  89 0004 00AF     		add	r7, sp, #0
  90              		.cfi_def_cfa_register 7
  91 0006 7860     		str	r0, [r7, #4]
  92              	.LBB3:
  93              		.loc 2 19 0
  94 0008 7B68     		ldr	r3, [r7, #4]
  95 000a 044A     		ldr	r2, .L6
  96 000c 1A60     		str	r2, [r3]
  97              	.LBE3:
  98              		.loc 2 22 0
  99 000e 7B68     		ldr	r3, [r7, #4]
 100 0010 1846     		mov	r0, r3
 101 0012 0C37     		adds	r7, r7, #12
 102 0014 BD46     		mov	sp, r7
 103              		@ sp needed
 104 0016 5DF8047B 		ldr	r7, [sp], #4
 105 001a 7047     		bx	lr
 106              	.L7:
 107              		.align	2
 108              	.L6:
 109 001c 08000000 		.word	_ZTV3IIR+8
 110              		.cfi_endproc
 111              	.LFE262:
 112              		.size	_ZN3IIRC2Ev, .-_ZN3IIRC2Ev
 113              		.global	_ZN3IIRC1Ev
 114              		.thumb_set _ZN3IIRC1Ev,_ZN3IIRC2Ev
ARM GAS  C:\Users\Luis\AppData\Local\Temp\cc0p0Q9k.s 			page 3


 115              		.section	.text._ZN3IIRD2Ev,"ax",%progbits
 116              		.align	2
 117              		.p2align 4,,15
 118              		.global	_ZN3IIRD2Ev
 119              		.thumb
 120              		.thumb_func
 121              		.type	_ZN3IIRD2Ev, %function
 122              	_ZN3IIRD2Ev:
 123              	.LFB265:
 124              		.loc 2 24 0
 125              		.cfi_startproc
 126              		@ args = 0, pretend = 0, frame = 8
 127              		@ frame_needed = 1, uses_anonymous_args = 0
 128 0000 80B5     		push	{r7, lr}
 129              		.cfi_def_cfa_offset 8
 130              		.cfi_offset 7, -8
 131              		.cfi_offset 14, -4
 132 0002 82B0     		sub	sp, sp, #8
 133              		.cfi_def_cfa_offset 16
 134 0004 00AF     		add	r7, sp, #0
 135              		.cfi_def_cfa_register 7
 136 0006 7860     		str	r0, [r7, #4]
 137              	.LBB4:
 138              		.loc 2 24 0
 139 0008 7B68     		ldr	r3, [r7, #4]
 140 000a 064A     		ldr	r2, .L12
 141 000c 1A60     		str	r2, [r3]
 142              	.LBE4:
 143              		.loc 2 26 0
 144 000e 0023     		movs	r3, #0
 145 0010 002B     		cmp	r3, #0
 146 0012 02D0     		beq	.L10
 147              		.loc 2 26 0 is_stmt 0 discriminator 1
 148 0014 7868     		ldr	r0, [r7, #4]
 149 0016 FFF7FEFF 		bl	_ZdlPv
 150              	.L10:
 151              		.loc 2 26 0 discriminator 2
 152 001a 7B68     		ldr	r3, [r7, #4]
 153 001c 1846     		mov	r0, r3
 154 001e 0837     		adds	r7, r7, #8
 155 0020 BD46     		mov	sp, r7
 156              		@ sp needed
 157 0022 80BD     		pop	{r7, pc}
 158              	.L13:
 159              		.align	2
 160              	.L12:
 161 0024 08000000 		.word	_ZTV3IIR+8
 162              		.cfi_endproc
 163              	.LFE265:
 164              		.size	_ZN3IIRD2Ev, .-_ZN3IIRD2Ev
 165              		.global	_ZN3IIRD1Ev
 166              		.thumb_set _ZN3IIRD1Ev,_ZN3IIRD2Ev
 167 0028 AFF30080 		.section	.text._ZN3IIRD0Ev,"ax",%progbits
 167      AFF30080 
 168              		.align	2
 169              		.p2align 4,,15
 170              		.global	_ZN3IIRD0Ev
ARM GAS  C:\Users\Luis\AppData\Local\Temp\cc0p0Q9k.s 			page 4


 171              		.thumb
 172              		.thumb_func
 173              		.type	_ZN3IIRD0Ev, %function
 174              	_ZN3IIRD0Ev:
 175              	.LFB267:
 176              		.loc 2 24 0 is_stmt 1
 177              		.cfi_startproc
 178              		@ args = 0, pretend = 0, frame = 8
 179              		@ frame_needed = 1, uses_anonymous_args = 0
 180 0000 80B5     		push	{r7, lr}
 181              		.cfi_def_cfa_offset 8
 182              		.cfi_offset 7, -8
 183              		.cfi_offset 14, -4
 184 0002 82B0     		sub	sp, sp, #8
 185              		.cfi_def_cfa_offset 16
 186 0004 00AF     		add	r7, sp, #0
 187              		.cfi_def_cfa_register 7
 188 0006 7860     		str	r0, [r7, #4]
 189              		.loc 2 26 0
 190 0008 7868     		ldr	r0, [r7, #4]
 191 000a FFF7FEFF 		bl	_ZN3IIRD1Ev
 192 000e 7868     		ldr	r0, [r7, #4]
 193 0010 FFF7FEFF 		bl	_ZdlPv
 194 0014 7B68     		ldr	r3, [r7, #4]
 195 0016 1846     		mov	r0, r3
 196 0018 0837     		adds	r7, r7, #8
 197 001a BD46     		mov	sp, r7
 198              		@ sp needed
 199 001c 80BD     		pop	{r7, pc}
 200              		.cfi_endproc
 201              	.LFE267:
 202              		.size	_ZN3IIRD0Ev, .-_ZN3IIRD0Ev
 203 001e 00BF     		.section	.rodata
 204              		.align	2
 205              	.LC0:
 206 0000 456E7472 		.ascii	"Entro directFormI\015\012\000"
 206      6F206469 
 206      72656374 
 206      466F726D 
 206      490D0A00 
 207              		.align	2
 208              	.LC1:
 209 0014 795B6E5D 		.ascii	"y[n]:\000"
 209      3A00
 210              		.global	__aeabi_fsub
 211              		.global	__aeabi_f2d
 212 001a 0000     		.align	2
 213              	.LC2:
 214 001c 25662000 		.ascii	"%f \000"
 215              		.align	2
 216              	.LC3:
 217 0020 0A0A0A00 		.ascii	"\012\012\012\000"
 218              		.section	.text._ZN3IIR11directFormIEP10DataFilter,"ax",%progbits
 219              		.align	2
 220              		.p2align 4,,15
 221              		.global	_ZN3IIR11directFormIEP10DataFilter
 222              		.thumb
ARM GAS  C:\Users\Luis\AppData\Local\Temp\cc0p0Q9k.s 			page 5


 223              		.thumb_func
 224              		.type	_ZN3IIR11directFormIEP10DataFilter, %function
 225              	_ZN3IIR11directFormIEP10DataFilter:
 226              	.LFB268:
 227              		.loc 2 28 0
 228              		.cfi_startproc
 229              		@ args = 0, pretend = 0, frame = 64
 230              		@ frame_needed = 1, uses_anonymous_args = 0
 231 0000 90B5     		push	{r4, r7, lr}
 232              		.cfi_def_cfa_offset 12
 233              		.cfi_offset 4, -12
 234              		.cfi_offset 7, -8
 235              		.cfi_offset 14, -4
 236 0002 93B0     		sub	sp, sp, #76
 237              		.cfi_def_cfa_offset 88
 238 0004 02AF     		add	r7, sp, #8
 239              		.cfi_def_cfa 7, 80
 240 0006 7860     		str	r0, [r7, #4]
 241 0008 3960     		str	r1, [r7]
 242              	.LBB5:
 243              		.loc 2 31 0
 244 000a 0020     		movs	r0, #0
 245 000c 0421     		movs	r1, #4
 246 000e FFF7FEFF 		bl	chHeapAlloc
 247 0012 3863     		str	r0, [r7, #48]
 248              		.loc 2 33 0
 249 0014 5D48     		ldr	r0, .L23
 250 0016 5E49     		ldr	r1, .L23+4
 251 0018 FFF7FEFF 		bl	_ZL8chprintfP20BaseSequentialStreamPKcz
 252              		.loc 2 35 0
 253 001c 3868     		ldr	r0, [r7]
 254 001e FFF7FEFF 		bl	_ZN10DataFilter17createArrayInputXEv
 255              		.loc 2 39 0
 256 0022 3868     		ldr	r0, [r7]
 257 0024 FFF7FEFF 		bl	_ZNK10DataFilter14getFilterOrderEv
 258 0028 F862     		str	r0, [r7, #44]
 259              		.loc 2 40 0
 260 002a 3868     		ldr	r0, [r7]
 261 002c FFF7FEFF 		bl	_ZNK10DataFilter13getNumbOutputEv
 262 0030 B862     		str	r0, [r7, #40]
 263              		.loc 2 42 0
 264 0032 4FF00003 		mov	r3, #0
 265 0036 7B62     		str	r3, [r7, #36]	@ float
 266              		.loc 2 43 0
 267 0038 3868     		ldr	r0, [r7]
 268 003a FFF7FEFF 		bl	_ZNK10DataFilter21getArrayCoefficientsBEv
 269 003e 3862     		str	r0, [r7, #32]
 270              		.loc 2 44 0
 271 0040 3868     		ldr	r0, [r7]
 272 0042 FFF7FEFF 		bl	_ZNK10DataFilter15getArrayInputsXEv
 273 0046 F861     		str	r0, [r7, #28]
 274              		.loc 2 46 0
 275 0048 4FF00003 		mov	r3, #0
 276 004c BB61     		str	r3, [r7, #24]	@ float
 277              		.loc 2 47 0
 278 004e 3868     		ldr	r0, [r7]
 279 0050 FFF7FEFF 		bl	_ZNK10DataFilter21getArrayCoefficientsAEv
ARM GAS  C:\Users\Luis\AppData\Local\Temp\cc0p0Q9k.s 			page 6


 280 0054 7861     		str	r0, [r7, #20]
 281              		.loc 2 48 0
 282 0056 3868     		ldr	r0, [r7]
 283 0058 FFF7FEFF 		bl	_ZNK10DataFilter15getArrayInputsYEv
 284 005c 3861     		str	r0, [r7, #16]
 285              		.loc 2 50 0
 286 005e 3868     		ldr	r0, [r7]
 287 0060 FFF7FEFF 		bl	_ZNK10DataFilter14getArrayResultEv
 288 0064 F860     		str	r0, [r7, #12]
 289              		.loc 2 52 0
 290 0066 0023     		movs	r3, #0
 291 0068 BB63     		str	r3, [r7, #56]
 292              		.loc 2 53 0
 293 006a 0123     		movs	r3, #1
 294 006c 87F83730 		strb	r3, [r7, #55]
 295              		.loc 2 55 0
 296 0070 4648     		ldr	r0, .L23
 297 0072 4849     		ldr	r1, .L23+8
 298 0074 FFF7FEFF 		bl	_ZL8chprintfP20BaseSequentialStreamPKcz
 299              		.loc 2 58 0
 300 0078 0023     		movs	r3, #0
 301 007a FB63     		str	r3, [r7, #60]
 302 007c 7AE0     		b	.L18
 303              	.L22:
 304              		.loc 2 59 0
 305 007e BB6B     		ldr	r3, [r7, #56]
 306 0080 0A2B     		cmp	r3, #10
 307 0082 35D1     		bne	.L19
 308              		.loc 2 60 0
 309 0084 97F83730 		ldrb	r3, [r7, #55]
 310 0088 83F00103 		eor	r3, r3, #1
 311 008c DBB2     		uxtb	r3, r3
 312 008e 002B     		cmp	r3, #0
 313 0090 14D0     		beq	.L20
 314              		.loc 2 61 0
 315 0092 3868     		ldr	r0, [r7]
 316 0094 F969     		ldr	r1, [r7, #28]
 317 0096 FFF7FEFF 		bl	_ZN10DataFilter9moveArrayEPf
 318              		.loc 2 62 0
 319 009a 3868     		ldr	r0, [r7]
 320 009c 3969     		ldr	r1, [r7, #16]
 321 009e FFF7FEFF 		bl	_ZN10DataFilter9moveArrayEPf
 322              		.loc 2 64 0
 323 00a2 3868     		ldr	r0, [r7]
 324 00a4 FFF7FEFF 		bl	_ZNK10DataFilter10getBuffer1Ev
 325 00a8 0346     		mov	r3, r0
 326 00aa 3868     		ldr	r0, [r7]
 327 00ac F969     		ldr	r1, [r7, #28]
 328 00ae 1A46     		mov	r2, r3
 329 00b0 FFF7FEFF 		bl	_ZN10DataFilter9copyArrayEPfS0_
 330              		.loc 2 65 0
 331 00b4 0123     		movs	r3, #1
 332 00b6 87F83730 		strb	r3, [r7, #55]
 333 00ba 17E0     		b	.L21
 334              	.L20:
 335              		.loc 2 66 0
 336 00bc 97F83730 		ldrb	r3, [r7, #55]	@ zero_extendqisi2
ARM GAS  C:\Users\Luis\AppData\Local\Temp\cc0p0Q9k.s 			page 7


 337 00c0 002B     		cmp	r3, #0
 338 00c2 13D0     		beq	.L21
 339              		.loc 2 67 0
 340 00c4 3868     		ldr	r0, [r7]
 341 00c6 F969     		ldr	r1, [r7, #28]
 342 00c8 FFF7FEFF 		bl	_ZN10DataFilter9moveArrayEPf
 343              		.loc 2 68 0
 344 00cc 3868     		ldr	r0, [r7]
 345 00ce 3969     		ldr	r1, [r7, #16]
 346 00d0 FFF7FEFF 		bl	_ZN10DataFilter9moveArrayEPf
 347              		.loc 2 70 0
 348 00d4 3868     		ldr	r0, [r7]
 349 00d6 FFF7FEFF 		bl	_ZNK10DataFilter10getBuffer2Ev
 350 00da 0346     		mov	r3, r0
 351 00dc 3868     		ldr	r0, [r7]
 352 00de F969     		ldr	r1, [r7, #28]
 353 00e0 1A46     		mov	r2, r3
 354 00e2 FFF7FEFF 		bl	_ZN10DataFilter9copyArrayEPfS0_
 355              		.loc 2 71 0
 356 00e6 0023     		movs	r3, #0
 357 00e8 87F83730 		strb	r3, [r7, #55]
 358              	.L21:
 359              		.loc 2 74 0 discriminator 1
 360 00ec 0023     		movs	r3, #0
 361 00ee BB63     		str	r3, [r7, #56]
 362              	.L19:
 363              		.loc 2 78 0
 364 00f0 FB69     		ldr	r3, [r7, #28]
 365 00f2 0093     		str	r3, [sp]
 366 00f4 BB6B     		ldr	r3, [r7, #56]
 367 00f6 0193     		str	r3, [sp, #4]
 368 00f8 386B     		ldr	r0, [r7, #48]
 369 00fa F96A     		ldr	r1, [r7, #44]
 370 00fc 0022     		movs	r2, #0
 371 00fe 3B6A     		ldr	r3, [r7, #32]
 372 0100 FFF7FEFF 		bl	_ZN12FuntionsMath3sumEiiPfS0_i
 373 0104 7862     		str	r0, [r7, #36]	@ float
 374              		.loc 2 81 0
 375 0106 FB6A     		ldr	r3, [r7, #44]
 376 0108 013B     		subs	r3, r3, #1
 377 010a 3A69     		ldr	r2, [r7, #16]
 378 010c 0092     		str	r2, [sp]
 379 010e BA6B     		ldr	r2, [r7, #56]
 380 0110 0192     		str	r2, [sp, #4]
 381 0112 386B     		ldr	r0, [r7, #48]
 382 0114 1946     		mov	r1, r3
 383 0116 0022     		movs	r2, #0
 384 0118 7B69     		ldr	r3, [r7, #20]
 385 011a FFF7FEFF 		bl	_ZN12FuntionsMath3sumEiiPfS0_i
 386 011e B861     		str	r0, [r7, #24]	@ float
 387              		.loc 2 83 0
 388 0120 FB6B     		ldr	r3, [r7, #60]
 389 0122 9B00     		lsls	r3, r3, #2
 390 0124 FA68     		ldr	r2, [r7, #12]
 391 0126 D418     		adds	r4, r2, r3
 392 0128 786A     		ldr	r0, [r7, #36]	@ float
 393 012a B969     		ldr	r1, [r7, #24]	@ float
ARM GAS  C:\Users\Luis\AppData\Local\Temp\cc0p0Q9k.s 			page 8


 394 012c FFF7FEFF 		bl	__aeabi_fsub
 395 0130 0346     		mov	r3, r0
 396 0132 2360     		str	r3, [r4]	@ float
 397              		.loc 2 84 0
 398 0134 FA6A     		ldr	r2, [r7, #44]
 399 0136 BB6B     		ldr	r3, [r7, #56]
 400 0138 1344     		add	r3, r3, r2
 401 013a 9B00     		lsls	r3, r3, #2
 402 013c 3A69     		ldr	r2, [r7, #16]
 403 013e 1344     		add	r3, r3, r2
 404 0140 FA6B     		ldr	r2, [r7, #60]
 405 0142 9200     		lsls	r2, r2, #2
 406 0144 F968     		ldr	r1, [r7, #12]
 407 0146 0A44     		add	r2, r2, r1
 408 0148 1268     		ldr	r2, [r2]	@ float
 409 014a 1A60     		str	r2, [r3]	@ float
 410              		.loc 2 86 0
 411 014c BB6B     		ldr	r3, [r7, #56]
 412 014e 0133     		adds	r3, r3, #1
 413 0150 BB63     		str	r3, [r7, #56]
 414              		.loc 2 88 0
 415 0152 FB6B     		ldr	r3, [r7, #60]
 416 0154 9B00     		lsls	r3, r3, #2
 417 0156 FA68     		ldr	r2, [r7, #12]
 418 0158 1344     		add	r3, r3, r2
 419 015a 1B68     		ldr	r3, [r3]	@ float
 420 015c 1846     		mov	r0, r3
 421 015e FFF7FEFF 		bl	__aeabi_f2d
 422 0162 0246     		mov	r2, r0
 423 0164 0B46     		mov	r3, r1
 424 0166 0948     		ldr	r0, .L23
 425 0168 0B49     		ldr	r1, .L23+12
 426 016a FFF7FEFF 		bl	_ZL8chprintfP20BaseSequentialStreamPKcz
 427              		.loc 2 58 0
 428 016e FB6B     		ldr	r3, [r7, #60]
 429 0170 0133     		adds	r3, r3, #1
 430 0172 FB63     		str	r3, [r7, #60]
 431              	.L18:
 432              		.loc 2 58 0 is_stmt 0 discriminator 1
 433 0174 FA6B     		ldr	r2, [r7, #60]
 434 0176 BB6A     		ldr	r3, [r7, #40]
 435 0178 9A42     		cmp	r2, r3
 436 017a 80DB     		blt	.L22
 437              		.loc 2 92 0 is_stmt 1
 438 017c 0348     		ldr	r0, .L23
 439 017e 0749     		ldr	r1, .L23+16
 440 0180 FFF7FEFF 		bl	_ZL8chprintfP20BaseSequentialStreamPKcz
 441              	.LBE5:
 442              		.loc 2 95 0
 443 0184 4437     		adds	r7, r7, #68
 444 0186 BD46     		mov	sp, r7
 445              		@ sp needed
 446 0188 90BD     		pop	{r4, r7, pc}
 447              	.L24:
 448 018a 00BF     		.align	2
 449              	.L23:
 450 018c 00000000 		.word	SD1
ARM GAS  C:\Users\Luis\AppData\Local\Temp\cc0p0Q9k.s 			page 9


 451 0190 00000000 		.word	.LC0
 452 0194 14000000 		.word	.LC1
 453 0198 1C000000 		.word	.LC2
 454 019c 20000000 		.word	.LC3
 455              		.cfi_endproc
 456              	.LFE268:
 457              		.size	_ZN3IIR11directFormIEP10DataFilter, .-_ZN3IIR11directFormIEP10DataFilter
 458              		.global	_ZTV3IIR
 459              		.section	.rodata._ZTV3IIR,"a",%progbits
 460              		.align	3
 461              		.type	_ZTV3IIR, %object
 462              		.size	_ZTV3IIR, 16
 463              	_ZTV3IIR:
 464 0000 00000000 		.word	0
 465 0004 00000000 		.word	0
 466 0008 00000000 		.word	_ZN3IIRD1Ev
 467 000c 00000000 		.word	_ZN3IIRD0Ev
 468              		.text
 469              	.Letext0:
 470              		.file 3 "c:\\emtechesdk\\gcc\\lib\\gcc\\arm-none-eabi\\4.8.3\\include\\stddef.h"
 471              		.file 4 "c:\\emtechesdk\\gcc\\arm-none-eabi\\include\\stdint.h"
 472              		.file 5 "../../ChibiOS/os/rt/ports/ARMCMx/compilers/GCC/chtypes.h"
 473              		.file 6 "../../ChibiOS/os/rt/include/chsystypes.h"
 474              		.file 7 "../../ChibiOS/os/rt/include/chschd.h"
 475              		.file 8 "../../ChibiOS/os/ext/CMSIS/ST/stm32f407xx.h"
 476              		.file 9 "../../ChibiOS/os/rt/ports/ARMCMx/chcore.h"
 477              		.file 10 "../../ChibiOS/os/rt/ports/ARMCMx/chcore_v7m.h"
 478              		.file 11 "../../ChibiOS/os/rt/include/chdebug.h"
 479              		.file 12 "../../ChibiOS/os/rt/include/chtm.h"
 480              		.file 13 "../../ChibiOS/os/rt/include/chstats.h"
 481              		.file 14 "../../ChibiOS/os/rt/include/chsem.h"
 482              		.file 15 "../../ChibiOS/os/rt/include/chmtx.h"
 483              		.file 16 "../../ChibiOS/os/rt/include/chevents.h"
 484              		.file 17 "../../ChibiOS/os/rt/include/chqueues.h"
 485              		.file 18 "../../ChibiOS/os/rt/include/chstreams.h"
 486              		.file 19 "../../ChibiOS/os/hal/include/serial.h"
 487              		.file 20 "c:\\emtechesdk\\gcc\\lib\\gcc\\arm-none-eabi\\4.8.3\\include\\stdarg.h"
 488              		.file 21 "<built-in>"
 489              		.file 22 "../../ChibiOS/os/hal/ports/STM32/LLD/USARTv1/serial_lld.h"
 490              		.file 23 "header/IIR.h"
 491              		.file 24 "../../ChibiOS/os/ext/CMSIS/include/core_cm4.h"
 492              		.section	.debug_info,"",%progbits
 493              	.Ldebug_info0:
 494 0000 730F0000 		.4byte	0xf73
 495 0004 0400     		.2byte	0x4
 496 0006 00000000 		.4byte	.Ldebug_abbrev0
 497 000a 04       		.byte	0x4
 498 000b 01       		.uleb128 0x1
 499 000c B5050000 		.4byte	.LASF208
 500 0010 04       		.byte	0x4
 501 0011 010A0000 		.4byte	.LASF209
 502 0015 F7040000 		.4byte	.LASF210
 503 0019 00000000 		.4byte	.Ldebug_ranges0+0
 504 001d 00000000 		.4byte	0
 505 0021 00000000 		.4byte	.Ldebug_line0
 506 0025 02       		.uleb128 0x2
 507 0026 04       		.byte	0x4
ARM GAS  C:\Users\Luis\AppData\Local\Temp\cc0p0Q9k.s 			page 10


 508 0027 05       		.byte	0x5
 509 0028 696E7400 		.ascii	"int\000"
 510 002c 03       		.uleb128 0x3
 511 002d 20000000 		.4byte	.LASF2
 512 0031 03       		.byte	0x3
 513 0032 D4       		.byte	0xd4
 514 0033 37000000 		.4byte	0x37
 515 0037 04       		.uleb128 0x4
 516 0038 04       		.byte	0x4
 517 0039 07       		.byte	0x7
 518 003a A5020000 		.4byte	.LASF0
 519 003e 04       		.uleb128 0x4
 520 003f 01       		.byte	0x1
 521 0040 06       		.byte	0x6
 522 0041 4C010000 		.4byte	.LASF1
 523 0045 03       		.uleb128 0x3
 524 0046 73090000 		.4byte	.LASF3
 525 004a 04       		.byte	0x4
 526 004b 2A       		.byte	0x2a
 527 004c 50000000 		.4byte	0x50
 528 0050 04       		.uleb128 0x4
 529 0051 01       		.byte	0x1
 530 0052 08       		.byte	0x8
 531 0053 AC080000 		.4byte	.LASF4
 532 0057 04       		.uleb128 0x4
 533 0058 02       		.byte	0x2
 534 0059 05       		.byte	0x5
 535 005a 0F070000 		.4byte	.LASF5
 536 005e 04       		.uleb128 0x4
 537 005f 02       		.byte	0x2
 538 0060 07       		.byte	0x7
 539 0061 05030000 		.4byte	.LASF6
 540 0065 03       		.uleb128 0x3
 541 0066 CE060000 		.4byte	.LASF7
 542 006a 04       		.byte	0x4
 543 006b 4F       		.byte	0x4f
 544 006c 70000000 		.4byte	0x70
 545 0070 04       		.uleb128 0x4
 546 0071 04       		.byte	0x4
 547 0072 05       		.byte	0x5
 548 0073 CF010000 		.4byte	.LASF8
 549 0077 03       		.uleb128 0x3
 550 0078 A5070000 		.4byte	.LASF9
 551 007c 04       		.byte	0x4
 552 007d 50       		.byte	0x50
 553 007e 82000000 		.4byte	0x82
 554 0082 04       		.uleb128 0x4
 555 0083 04       		.byte	0x4
 556 0084 07       		.byte	0x7
 557 0085 DA040000 		.4byte	.LASF10
 558 0089 04       		.uleb128 0x4
 559 008a 08       		.byte	0x8
 560 008b 05       		.byte	0x5
 561 008c 3E010000 		.4byte	.LASF11
 562 0090 03       		.uleb128 0x3
 563 0091 39000000 		.4byte	.LASF12
 564 0095 04       		.byte	0x4
ARM GAS  C:\Users\Luis\AppData\Local\Temp\cc0p0Q9k.s 			page 11


 565 0096 78       		.byte	0x78
 566 0097 9B000000 		.4byte	0x9b
 567 009b 04       		.uleb128 0x4
 568 009c 08       		.byte	0x8
 569 009d 07       		.byte	0x7
 570 009e 98000000 		.4byte	.LASF13
 571 00a2 05       		.uleb128 0x5
 572 00a3 65000000 		.4byte	0x65
 573 00a7 05       		.uleb128 0x5
 574 00a8 77000000 		.4byte	0x77
 575 00ac 03       		.uleb128 0x3
 576 00ad 34040000 		.4byte	.LASF14
 577 00b1 05       		.byte	0x5
 578 00b2 45       		.byte	0x45
 579 00b3 77000000 		.4byte	0x77
 580 00b7 03       		.uleb128 0x3
 581 00b8 00000000 		.4byte	.LASF15
 582 00bc 05       		.byte	0x5
 583 00bd 46       		.byte	0x46
 584 00be 90000000 		.4byte	0x90
 585 00c2 03       		.uleb128 0x3
 586 00c3 8F030000 		.4byte	.LASF16
 587 00c7 05       		.byte	0x5
 588 00c8 48       		.byte	0x48
 589 00c9 45000000 		.4byte	0x45
 590 00cd 03       		.uleb128 0x3
 591 00ce D8010000 		.4byte	.LASF17
 592 00d2 05       		.byte	0x5
 593 00d3 49       		.byte	0x49
 594 00d4 45000000 		.4byte	0x45
 595 00d8 03       		.uleb128 0x3
 596 00d9 7B050000 		.4byte	.LASF18
 597 00dd 05       		.byte	0x5
 598 00de 4A       		.byte	0x4a
 599 00df 45000000 		.4byte	0x45
 600 00e3 03       		.uleb128 0x3
 601 00e4 AE060000 		.4byte	.LASF19
 602 00e8 05       		.byte	0x5
 603 00e9 4C       		.byte	0x4c
 604 00ea 77000000 		.4byte	0x77
 605 00ee 03       		.uleb128 0x3
 606 00ef 4C030000 		.4byte	.LASF20
 607 00f3 05       		.byte	0x5
 608 00f4 4D       		.byte	0x4d
 609 00f5 65000000 		.4byte	0x65
 610 00f9 03       		.uleb128 0x3
 611 00fa B5030000 		.4byte	.LASF21
 612 00fe 05       		.byte	0x5
 613 00ff 4F       		.byte	0x4f
 614 0100 77000000 		.4byte	0x77
 615 0104 03       		.uleb128 0x3
 616 0105 E1010000 		.4byte	.LASF22
 617 0109 05       		.byte	0x5
 618 010a 50       		.byte	0x50
 619 010b 77000000 		.4byte	0x77
 620 010f 03       		.uleb128 0x3
 621 0110 89020000 		.4byte	.LASF23
ARM GAS  C:\Users\Luis\AppData\Local\Temp\cc0p0Q9k.s 			page 12


 622 0114 05       		.byte	0x5
 623 0115 51       		.byte	0x51
 624 0116 65000000 		.4byte	0x65
 625 011a 03       		.uleb128 0x3
 626 011b 59030000 		.4byte	.LASF24
 627 011f 05       		.byte	0x5
 628 0120 52       		.byte	0x52
 629 0121 77000000 		.4byte	0x77
 630 0125 03       		.uleb128 0x3
 631 0126 4B080000 		.4byte	.LASF25
 632 012a 06       		.byte	0x6
 633 012b 33       		.byte	0x33
 634 012c 77000000 		.4byte	0x77
 635 0130 03       		.uleb128 0x3
 636 0131 43090000 		.4byte	.LASF26
 637 0135 06       		.byte	0x6
 638 0136 3F       		.byte	0x3f
 639 0137 3B010000 		.4byte	0x13b
 640 013b 06       		.uleb128 0x6
 641 013c 38030000 		.4byte	.LASF56
 642 0140 68       		.byte	0x68
 643 0141 07       		.byte	0x7
 644 0142 C2       		.byte	0xc2
 645 0143 AB020000 		.4byte	0x2ab
 646 0147 07       		.uleb128 0x7
 647 0148 04       		.byte	0x4
 648 0149 07       		.byte	0x7
 649 014a FA       		.byte	0xfa
 650 014b A4010000 		.4byte	0x1a4
 651 014f 08       		.uleb128 0x8
 652 0150 32000000 		.4byte	.LASF27
 653 0154 07       		.byte	0x7
 654 0155 0101     		.2byte	0x101
 655 0157 EE000000 		.4byte	0xee
 656 015b 08       		.uleb128 0x8
 657 015c C8000000 		.4byte	.LASF28
 658 0160 07       		.byte	0x7
 659 0161 0801     		.2byte	0x108
 660 0163 EE000000 		.4byte	0xee
 661 0167 08       		.uleb128 0x8
 662 0168 95010000 		.4byte	.LASF29
 663 016c 07       		.byte	0x7
 664 016d 0F01     		.2byte	0x10f
 665 016f 93030000 		.4byte	0x393
 666 0173 08       		.uleb128 0x8
 667 0174 6E040000 		.4byte	.LASF30
 668 0178 07       		.byte	0x7
 669 0179 1601     		.2byte	0x116
 670 017b 85070000 		.4byte	0x785
 671 017f 08       		.uleb128 0x8
 672 0180 C2020000 		.4byte	.LASF31
 673 0184 07       		.byte	0x7
 674 0185 1E01     		.2byte	0x11e
 675 0187 B0070000 		.4byte	0x7b0
 676 018b 08       		.uleb128 0x8
 677 018c AE070000 		.4byte	.LASF32
 678 0190 07       		.byte	0x7
ARM GAS  C:\Users\Luis\AppData\Local\Temp\cc0p0Q9k.s 			page 13


 679 0191 2701     		.2byte	0x127
 680 0193 E7070000 		.4byte	0x7e7
 681 0197 08       		.uleb128 0x8
 682 0198 3A070000 		.4byte	.LASF33
 683 019c 07       		.byte	0x7
 684 019d 2F01     		.2byte	0x12f
 685 019f F9000000 		.4byte	0xf9
 686 01a3 00       		.byte	0
 687 01a4 09       		.uleb128 0x9
 688 01a5 41070000 		.4byte	.LASF34
 689 01a9 07       		.byte	0x7
 690 01aa C3       		.byte	0xc3
 691 01ab B6020000 		.4byte	0x2b6
 692 01af 00       		.byte	0
 693 01b0 09       		.uleb128 0x9
 694 01b1 24040000 		.4byte	.LASF35
 695 01b5 07       		.byte	0x7
 696 01b6 C5       		.byte	0xc5
 697 01b7 B6020000 		.4byte	0x2b6
 698 01bb 04       		.byte	0x4
 699 01bc 09       		.uleb128 0x9
 700 01bd 27010000 		.4byte	.LASF36
 701 01c1 07       		.byte	0x7
 702 01c2 C7       		.byte	0xc7
 703 01c3 E3000000 		.4byte	0xe3
 704 01c7 08       		.byte	0x8
 705 01c8 09       		.uleb128 0x9
 706 01c9 1B0A0000 		.4byte	.LASF37
 707 01cd 07       		.byte	0x7
 708 01ce C8       		.byte	0xc8
 709 01cf 92050000 		.4byte	0x592
 710 01d3 0C       		.byte	0xc
 711 01d4 09       		.uleb128 0x9
 712 01d5 20020000 		.4byte	.LASF38
 713 01d9 07       		.byte	0x7
 714 01da CA       		.byte	0xca
 715 01db B6020000 		.4byte	0x2b6
 716 01df 10       		.byte	0x10
 717 01e0 09       		.uleb128 0x9
 718 01e1 9E040000 		.4byte	.LASF39
 719 01e5 07       		.byte	0x7
 720 01e6 CB       		.byte	0xcb
 721 01e7 B6020000 		.4byte	0x2b6
 722 01eb 14       		.byte	0x14
 723 01ec 09       		.uleb128 0x9
 724 01ed BE060000 		.4byte	.LASF40
 725 01f1 07       		.byte	0x7
 726 01f2 D2       		.byte	0xd2
 727 01f3 ED070000 		.4byte	0x7ed
 728 01f7 18       		.byte	0x18
 729 01f8 09       		.uleb128 0x9
 730 01f9 EC040000 		.4byte	.LASF41
 731 01fd 07       		.byte	0x7
 732 01fe D8       		.byte	0xd8
 733 01ff FF070000 		.4byte	0x7ff
 734 0203 1C       		.byte	0x1c
 735 0204 09       		.uleb128 0x9
ARM GAS  C:\Users\Luis\AppData\Local\Temp\cc0p0Q9k.s 			page 14


 736 0205 19070000 		.4byte	.LASF42
 737 0209 07       		.byte	0x7
 738 020a DD       		.byte	0xdd
 739 020b CD000000 		.4byte	0xcd
 740 020f 20       		.byte	0x20
 741 0210 09       		.uleb128 0x9
 742 0211 E0090000 		.4byte	.LASF43
 743 0215 07       		.byte	0x7
 744 0216 E1       		.byte	0xe1
 745 0217 C2000000 		.4byte	0xc2
 746 021b 21       		.byte	0x21
 747 021c 09       		.uleb128 0x9
 748 021d 24090000 		.4byte	.LASF44
 749 0221 07       		.byte	0x7
 750 0222 E6       		.byte	0xe6
 751 0223 D8000000 		.4byte	0xd8
 752 0227 22       		.byte	0x22
 753 0228 0A       		.uleb128 0xa
 754 0229 705F7500 		.ascii	"p_u\000"
 755 022d 07       		.byte	0x7
 756 022e 3101     		.2byte	0x131
 757 0230 47010000 		.4byte	0x147
 758 0234 24       		.byte	0x24
 759 0235 0B       		.uleb128 0xb
 760 0236 210A0000 		.4byte	.LASF45
 761 023a 07       		.byte	0x7
 762 023b 3601     		.2byte	0x136
 763 023d BC020000 		.4byte	0x2bc
 764 0241 28       		.byte	0x28
 765 0242 0B       		.uleb128 0xb
 766 0243 CB080000 		.4byte	.LASF46
 767 0247 07       		.byte	0x7
 768 0248 3C01     		.2byte	0x13c
 769 024a E0020000 		.4byte	0x2e0
 770 024e 2C       		.byte	0x2c
 771 024f 0B       		.uleb128 0xb
 772 0250 E8090000 		.4byte	.LASF47
 773 0254 07       		.byte	0x7
 774 0255 4001     		.2byte	0x140
 775 0257 EE000000 		.4byte	0xee
 776 025b 34       		.byte	0x34
 777 025c 0B       		.uleb128 0xb
 778 025d 90070000 		.4byte	.LASF48
 779 0261 07       		.byte	0x7
 780 0262 4601     		.2byte	0x146
 781 0264 F9000000 		.4byte	0xf9
 782 0268 38       		.byte	0x38
 783 0269 0B       		.uleb128 0xb
 784 026a 05070000 		.4byte	.LASF49
 785 026e 07       		.byte	0x7
 786 026f 4D01     		.2byte	0x14d
 787 0271 E7070000 		.4byte	0x7e7
 788 0275 3C       		.byte	0x3c
 789 0276 0B       		.uleb128 0xb
 790 0277 55080000 		.4byte	.LASF50
 791 027b 07       		.byte	0x7
 792 027c 5101     		.2byte	0x151
ARM GAS  C:\Users\Luis\AppData\Local\Temp\cc0p0Q9k.s 			page 15


 793 027e E3000000 		.4byte	0xe3
 794 0282 40       		.byte	0x40
 795 0283 0B       		.uleb128 0xb
 796 0284 6A010000 		.4byte	.LASF51
 797 0288 07       		.byte	0x7
 798 0289 5801     		.2byte	0x158
 799 028b 93030000 		.4byte	0x393
 800 028f 44       		.byte	0x44
 801 0290 0B       		.uleb128 0xb
 802 0291 D6070000 		.4byte	.LASF52
 803 0295 07       		.byte	0x7
 804 0296 5E01     		.2byte	0x15e
 805 0298 32070000 		.4byte	0x732
 806 029c 48       		.byte	0x48
 807 029d 0B       		.uleb128 0xb
 808 029e E7020000 		.4byte	.LASF53
 809 02a2 07       		.byte	0x7
 810 02a3 6201     		.2byte	0x162
 811 02a5 93030000 		.4byte	0x393
 812 02a9 60       		.byte	0x60
 813 02aa 00       		.byte	0
 814 02ab 03       		.uleb128 0x3
 815 02ac 84090000 		.4byte	.LASF54
 816 02b0 06       		.byte	0x6
 817 02b1 44       		.byte	0x44
 818 02b2 B6020000 		.4byte	0x2b6
 819 02b6 0C       		.uleb128 0xc
 820 02b7 04       		.byte	0x4
 821 02b8 30010000 		.4byte	0x130
 822 02bc 03       		.uleb128 0x3
 823 02bd BC090000 		.4byte	.LASF55
 824 02c1 06       		.byte	0x6
 825 02c2 49       		.byte	0x49
 826 02c3 C7020000 		.4byte	0x2c7
 827 02c7 06       		.uleb128 0x6
 828 02c8 C6070000 		.4byte	.LASF57
 829 02cc 04       		.byte	0x4
 830 02cd 07       		.byte	0x7
 831 02ce B0       		.byte	0xb0
 832 02cf E0020000 		.4byte	0x2e0
 833 02d3 09       		.uleb128 0x9
 834 02d4 41070000 		.4byte	.LASF34
 835 02d8 07       		.byte	0x7
 836 02d9 B1       		.byte	0xb1
 837 02da B6020000 		.4byte	0x2b6
 838 02de 00       		.byte	0
 839 02df 00       		.byte	0
 840 02e0 03       		.uleb128 0x3
 841 02e1 73070000 		.4byte	.LASF58
 842 02e5 06       		.byte	0x6
 843 02e6 50       		.byte	0x50
 844 02e7 EB020000 		.4byte	0x2eb
 845 02eb 06       		.uleb128 0x6
 846 02ec 16010000 		.4byte	.LASF59
 847 02f0 08       		.byte	0x8
 848 02f1 07       		.byte	0x7
 849 02f2 B7       		.byte	0xb7
ARM GAS  C:\Users\Luis\AppData\Local\Temp\cc0p0Q9k.s 			page 16


 850 02f3 10030000 		.4byte	0x310
 851 02f7 09       		.uleb128 0x9
 852 02f8 41070000 		.4byte	.LASF34
 853 02fc 07       		.byte	0x7
 854 02fd B8       		.byte	0xb8
 855 02fe B6020000 		.4byte	0x2b6
 856 0302 00       		.byte	0
 857 0303 09       		.uleb128 0x9
 858 0304 24040000 		.4byte	.LASF35
 859 0308 07       		.byte	0x7
 860 0309 B9       		.byte	0xb9
 861 030a B6020000 		.4byte	0x2b6
 862 030e 04       		.byte	0x4
 863 030f 00       		.byte	0
 864 0310 03       		.uleb128 0x3
 865 0311 09000000 		.4byte	.LASF60
 866 0315 06       		.byte	0x6
 867 0316 57       		.byte	0x57
 868 0317 1B030000 		.4byte	0x31b
 869 031b 0D       		.uleb128 0xd
 870 031c A7030000 		.4byte	.LASF61
 871 0320 1C       		.byte	0x1c
 872 0321 07       		.byte	0x7
 873 0322 9001     		.2byte	0x190
 874 0324 77030000 		.4byte	0x377
 875 0328 0B       		.uleb128 0xb
 876 0329 B5070000 		.4byte	.LASF62
 877 032d 07       		.byte	0x7
 878 032e 9101     		.2byte	0x191
 879 0330 E0020000 		.4byte	0x2e0
 880 0334 00       		.byte	0
 881 0335 0B       		.uleb128 0xb
 882 0336 16040000 		.4byte	.LASF63
 883 033a 07       		.byte	0x7
 884 033b 9201     		.2byte	0x192
 885 033d E3000000 		.4byte	0xe3
 886 0341 08       		.byte	0x8
 887 0342 0B       		.uleb128 0xb
 888 0343 A6040000 		.4byte	.LASF64
 889 0347 07       		.byte	0x7
 890 0348 9401     		.2byte	0x194
 891 034a 92050000 		.4byte	0x592
 892 034e 0C       		.byte	0xc
 893 034f 0B       		.uleb128 0xb
 894 0350 38020000 		.4byte	.LASF65
 895 0354 07       		.byte	0x7
 896 0355 9701     		.2byte	0x197
 897 0357 B6020000 		.4byte	0x2b6
 898 035b 10       		.byte	0x10
 899 035c 0B       		.uleb128 0xb
 900 035d 3C050000 		.4byte	.LASF66
 901 0361 07       		.byte	0x7
 902 0362 9801     		.2byte	0x198
 903 0364 B6020000 		.4byte	0x2b6
 904 0368 14       		.byte	0x14
 905 0369 0B       		.uleb128 0xb
 906 036a 32050000 		.4byte	.LASF67
ARM GAS  C:\Users\Luis\AppData\Local\Temp\cc0p0Q9k.s 			page 17


 907 036e 07       		.byte	0x7
 908 036f 9B01     		.2byte	0x19b
 909 0371 B6020000 		.4byte	0x2b6
 910 0375 18       		.byte	0x18
 911 0376 00       		.byte	0
 912 0377 03       		.uleb128 0x3
 913 0378 60080000 		.4byte	.LASF68
 914 037c 06       		.byte	0x6
 915 037d 5C       		.byte	0x5c
 916 037e 82030000 		.4byte	0x382
 917 0382 0C       		.uleb128 0xc
 918 0383 04       		.byte	0x4
 919 0384 88030000 		.4byte	0x388
 920 0388 0E       		.uleb128 0xe
 921 0389 93030000 		.4byte	0x393
 922 038d 0F       		.uleb128 0xf
 923 038e 93030000 		.4byte	0x393
 924 0392 00       		.byte	0
 925 0393 10       		.uleb128 0x10
 926 0394 04       		.byte	0x4
 927 0395 03       		.uleb128 0x3
 928 0396 9D050000 		.4byte	.LASF69
 929 039a 06       		.byte	0x6
 930 039b 61       		.byte	0x61
 931 039c A0030000 		.4byte	0x3a0
 932 03a0 0D       		.uleb128 0xd
 933 03a1 BA080000 		.4byte	.LASF70
 934 03a5 14       		.byte	0x14
 935 03a6 07       		.byte	0x7
 936 03a7 6B01     		.2byte	0x16b
 937 03a9 EF030000 		.4byte	0x3ef
 938 03ad 0B       		.uleb128 0xb
 939 03ae DF020000 		.4byte	.LASF71
 940 03b2 07       		.byte	0x7
 941 03b3 6C01     		.2byte	0x16c
 942 03b5 05080000 		.4byte	0x805
 943 03b9 00       		.byte	0
 944 03ba 0B       		.uleb128 0xb
 945 03bb 49020000 		.4byte	.LASF72
 946 03bf 07       		.byte	0x7
 947 03c0 6D01     		.2byte	0x16d
 948 03c2 05080000 		.4byte	0x805
 949 03c6 04       		.byte	0x4
 950 03c7 0B       		.uleb128 0xb
 951 03c8 BD070000 		.4byte	.LASF73
 952 03cc 07       		.byte	0x7
 953 03cd 6E01     		.2byte	0x16e
 954 03cf 25010000 		.4byte	0x125
 955 03d3 08       		.byte	0x8
 956 03d4 0B       		.uleb128 0xb
 957 03d5 D2040000 		.4byte	.LASF74
 958 03d9 07       		.byte	0x7
 959 03da 6F01     		.2byte	0x16f
 960 03dc 77030000 		.4byte	0x377
 961 03e0 0C       		.byte	0xc
 962 03e1 0B       		.uleb128 0xb
 963 03e2 DF080000 		.4byte	.LASF75
ARM GAS  C:\Users\Luis\AppData\Local\Temp\cc0p0Q9k.s 			page 18


 964 03e6 07       		.byte	0x7
 965 03e7 7101     		.2byte	0x171
 966 03e9 93030000 		.4byte	0x393
 967 03ed 10       		.byte	0x10
 968 03ee 00       		.byte	0
 969 03ef 03       		.uleb128 0x3
 970 03f0 E8000000 		.4byte	.LASF76
 971 03f4 06       		.byte	0x6
 972 03f5 66       		.byte	0x66
 973 03f6 FA030000 		.4byte	0x3fa
 974 03fa 0D       		.uleb128 0xd
 975 03fb 4D040000 		.4byte	.LASF77
 976 03ff 10       		.byte	0x10
 977 0400 07       		.byte	0x7
 978 0401 7B01     		.2byte	0x17b
 979 0403 3C040000 		.4byte	0x43c
 980 0407 0B       		.uleb128 0xb
 981 0408 DF020000 		.4byte	.LASF71
 982 040c 07       		.byte	0x7
 983 040d 7C01     		.2byte	0x17c
 984 040f 05080000 		.4byte	0x805
 985 0413 00       		.byte	0
 986 0414 0B       		.uleb128 0xb
 987 0415 49020000 		.4byte	.LASF72
 988 0419 07       		.byte	0x7
 989 041a 7E01     		.2byte	0x17e
 990 041c 05080000 		.4byte	0x805
 991 0420 04       		.byte	0x4
 992 0421 0B       		.uleb128 0xb
 993 0422 BD070000 		.4byte	.LASF73
 994 0426 07       		.byte	0x7
 995 0427 8001     		.2byte	0x180
 996 0429 25010000 		.4byte	0x125
 997 042d 08       		.byte	0x8
 998 042e 0B       		.uleb128 0xb
 999 042f 92040000 		.4byte	.LASF78
 1000 0433 07       		.byte	0x7
 1001 0434 8801     		.2byte	0x188
 1002 0436 25010000 		.4byte	0x125
 1003 043a 0C       		.byte	0xc
 1004 043b 00       		.byte	0
 1005 043c 03       		.uleb128 0x3
 1006 043d C9020000 		.4byte	.LASF79
 1007 0441 06       		.byte	0x6
 1008 0442 6B       		.byte	0x6b
 1009 0443 47040000 		.4byte	0x447
 1010 0447 11       		.uleb128 0x11
 1011 0448 51020000 		.4byte	.LASF80
 1012 044c 1404     		.2byte	0x414
 1013 044e 07       		.byte	0x7
 1014 044f A201     		.2byte	0x1a2
 1015 0451 8A040000 		.4byte	0x48a
 1016 0455 0B       		.uleb128 0xb
 1017 0456 6E080000 		.4byte	.LASF81
 1018 045a 07       		.byte	0x7
 1019 045b AA01     		.2byte	0x1aa
 1020 045d 0B080000 		.4byte	0x80b
ARM GAS  C:\Users\Luis\AppData\Local\Temp\cc0p0Q9k.s 			page 19


 1021 0461 00       		.byte	0
 1022 0462 0B       		.uleb128 0xb
 1023 0463 2B090000 		.4byte	.LASF82
 1024 0467 07       		.byte	0x7
 1025 0468 AF01     		.2byte	0x1af
 1026 046a 0F010000 		.4byte	0x10f
 1027 046e 04       		.byte	0x4
 1028 046f 0B       		.uleb128 0xb
 1029 0470 69020000 		.4byte	.LASF83
 1030 0474 07       		.byte	0x7
 1031 0475 B301     		.2byte	0x1b3
 1032 0477 0F010000 		.4byte	0x10f
 1033 047b 08       		.byte	0x8
 1034 047c 0B       		.uleb128 0xb
 1035 047d D3090000 		.4byte	.LASF84
 1036 0481 07       		.byte	0x7
 1037 0482 B901     		.2byte	0x1b9
 1038 0484 BC060000 		.4byte	0x6bc
 1039 0488 0C       		.byte	0xc
 1040 0489 00       		.byte	0
 1041 048a 03       		.uleb128 0x3
 1042 048b 6E030000 		.4byte	.LASF85
 1043 048f 06       		.byte	0x6
 1044 0490 70       		.byte	0x70
 1045 0491 95040000 		.4byte	0x495
 1046 0495 11       		.uleb128 0x11
 1047 0496 C5010000 		.4byte	.LASF86
 1048 049a E805     		.2byte	0x5e8
 1049 049c 07       		.byte	0x7
 1050 049d C201     		.2byte	0x1c2
 1051 049f 02050000 		.4byte	0x502
 1052 04a3 0B       		.uleb128 0xb
 1053 04a4 60090000 		.4byte	.LASF87
 1054 04a8 07       		.byte	0x7
 1055 04a9 C601     		.2byte	0x1c6
 1056 04ab 10030000 		.4byte	0x310
 1057 04af 00       		.byte	0
 1058 04b0 0B       		.uleb128 0xb
 1059 04b1 63000000 		.4byte	.LASF88
 1060 04b5 07       		.byte	0x7
 1061 04b6 CA01     		.2byte	0x1ca
 1062 04b8 EF030000 		.4byte	0x3ef
 1063 04bc 1C       		.byte	0x1c
 1064 04bd 0A       		.uleb128 0xa
 1065 04be 64626700 		.ascii	"dbg\000"
 1066 04c2 07       		.byte	0x7
 1067 04c3 CE01     		.2byte	0x1ce
 1068 04c5 3C040000 		.4byte	0x43c
 1069 04c9 2C       		.byte	0x2c
 1070 04ca 12       		.uleb128 0x12
 1071 04cb DD000000 		.4byte	.LASF89
 1072 04cf 07       		.byte	0x7
 1073 04d0 D201     		.2byte	0x1d2
 1074 04d2 30010000 		.4byte	0x130
 1075 04d6 4004     		.2byte	0x440
 1076 04d8 13       		.uleb128 0x13
 1077 04d9 746D00   		.ascii	"tm\000"
ARM GAS  C:\Users\Luis\AppData\Local\Temp\cc0p0Q9k.s 			page 20


 1078 04dc 07       		.byte	0x7
 1079 04dd D701     		.2byte	0x1d7
 1080 04df E0060000 		.4byte	0x6e0
 1081 04e3 A804     		.2byte	0x4a8
 1082 04e5 12       		.uleb128 0x12
 1083 04e6 42000000 		.4byte	.LASF90
 1084 04ea 07       		.byte	0x7
 1085 04eb DD01     		.2byte	0x1dd
 1086 04ed 7A070000 		.4byte	0x77a
 1087 04f1 B004     		.2byte	0x4b0
 1088 04f3 12       		.uleb128 0x12
 1089 04f4 64070000 		.4byte	.LASF91
 1090 04f8 07       		.byte	0x7
 1091 04f9 E301     		.2byte	0x1e3
 1092 04fb 10080000 		.4byte	0x810
 1093 04ff E804     		.2byte	0x4e8
 1094 0501 00       		.byte	0
 1095 0502 04       		.uleb128 0x4
 1096 0503 04       		.byte	0x4
 1097 0504 07       		.byte	0x7
 1098 0505 7B090000 		.4byte	.LASF92
 1099 0509 14       		.uleb128 0x14
 1100 050a 1C       		.byte	0x1c
 1101 050b 08       		.byte	0x8
 1102 050c 0A03     		.2byte	0x30a
 1103 050e 33090000 		.4byte	.LASF211
 1104 0512 70050000 		.4byte	0x570
 1105 0516 0A       		.uleb128 0xa
 1106 0517 535200   		.ascii	"SR\000"
 1107 051a 08       		.byte	0x8
 1108 051b 0B03     		.2byte	0x30b
 1109 051d A7000000 		.4byte	0xa7
 1110 0521 00       		.byte	0
 1111 0522 0A       		.uleb128 0xa
 1112 0523 445200   		.ascii	"DR\000"
 1113 0526 08       		.byte	0x8
 1114 0527 0C03     		.2byte	0x30c
 1115 0529 A7000000 		.4byte	0xa7
 1116 052d 04       		.byte	0x4
 1117 052e 0A       		.uleb128 0xa
 1118 052f 42525200 		.ascii	"BRR\000"
 1119 0533 08       		.byte	0x8
 1120 0534 0D03     		.2byte	0x30d
 1121 0536 A7000000 		.4byte	0xa7
 1122 053a 08       		.byte	0x8
 1123 053b 0A       		.uleb128 0xa
 1124 053c 43523100 		.ascii	"CR1\000"
 1125 0540 08       		.byte	0x8
 1126 0541 0E03     		.2byte	0x30e
 1127 0543 A7000000 		.4byte	0xa7
 1128 0547 0C       		.byte	0xc
 1129 0548 0A       		.uleb128 0xa
 1130 0549 43523200 		.ascii	"CR2\000"
 1131 054d 08       		.byte	0x8
 1132 054e 0F03     		.2byte	0x30f
 1133 0550 A7000000 		.4byte	0xa7
 1134 0554 10       		.byte	0x10
ARM GAS  C:\Users\Luis\AppData\Local\Temp\cc0p0Q9k.s 			page 21


 1135 0555 0A       		.uleb128 0xa
 1136 0556 43523300 		.ascii	"CR3\000"
 1137 055a 08       		.byte	0x8
 1138 055b 1003     		.2byte	0x310
 1139 055d A7000000 		.4byte	0xa7
 1140 0561 14       		.byte	0x14
 1141 0562 0B       		.uleb128 0xb
 1142 0563 58010000 		.4byte	.LASF93
 1143 0567 08       		.byte	0x8
 1144 0568 1103     		.2byte	0x311
 1145 056a A7000000 		.4byte	0xa7
 1146 056e 18       		.byte	0x18
 1147 056f 00       		.byte	0
 1148 0570 15       		.uleb128 0x15
 1149 0571 7A030000 		.4byte	.LASF94
 1150 0575 08       		.byte	0x8
 1151 0576 1203     		.2byte	0x312
 1152 0578 09050000 		.4byte	0x509
 1153 057c 03       		.uleb128 0x3
 1154 057d 40020000 		.4byte	.LASF95
 1155 0581 09       		.byte	0x9
 1156 0582 65       		.byte	0x65
 1157 0583 93030000 		.4byte	0x393
 1158 0587 03       		.uleb128 0x3
 1159 0588 E2030000 		.4byte	.LASF96
 1160 058c 09       		.byte	0x9
 1161 058d 6D       		.byte	0x6d
 1162 058e 90000000 		.4byte	0x90
 1163 0592 06       		.uleb128 0x6
 1164 0593 A4080000 		.4byte	.LASF97
 1165 0597 04       		.byte	0x4
 1166 0598 09       		.byte	0x9
 1167 0599 89       		.byte	0x89
 1168 059a AB050000 		.4byte	0x5ab
 1169 059e 16       		.uleb128 0x16
 1170 059f 72313300 		.ascii	"r13\000"
 1171 05a3 09       		.byte	0x9
 1172 05a4 8A       		.byte	0x8a
 1173 05a5 26060000 		.4byte	0x626
 1174 05a9 00       		.byte	0
 1175 05aa 00       		.byte	0
 1176 05ab 06       		.uleb128 0x6
 1177 05ac 4F000000 		.4byte	.LASF98
 1178 05b0 24       		.byte	0x24
 1179 05b1 0A       		.byte	0xa
 1180 05b2 F4       		.byte	0xf4
 1181 05b3 26060000 		.4byte	0x626
 1182 05b7 0A       		.uleb128 0xa
 1183 05b8 723400   		.ascii	"r4\000"
 1184 05bb 0A       		.byte	0xa
 1185 05bc 0701     		.2byte	0x107
 1186 05be 7C050000 		.4byte	0x57c
 1187 05c2 00       		.byte	0
 1188 05c3 0A       		.uleb128 0xa
 1189 05c4 723500   		.ascii	"r5\000"
 1190 05c7 0A       		.byte	0xa
 1191 05c8 0801     		.2byte	0x108
ARM GAS  C:\Users\Luis\AppData\Local\Temp\cc0p0Q9k.s 			page 22


 1192 05ca 7C050000 		.4byte	0x57c
 1193 05ce 04       		.byte	0x4
 1194 05cf 0A       		.uleb128 0xa
 1195 05d0 723600   		.ascii	"r6\000"
 1196 05d3 0A       		.byte	0xa
 1197 05d4 0901     		.2byte	0x109
 1198 05d6 7C050000 		.4byte	0x57c
 1199 05da 08       		.byte	0x8
 1200 05db 0A       		.uleb128 0xa
 1201 05dc 723700   		.ascii	"r7\000"
 1202 05df 0A       		.byte	0xa
 1203 05e0 0A01     		.2byte	0x10a
 1204 05e2 7C050000 		.4byte	0x57c
 1205 05e6 0C       		.byte	0xc
 1206 05e7 0A       		.uleb128 0xa
 1207 05e8 723800   		.ascii	"r8\000"
 1208 05eb 0A       		.byte	0xa
 1209 05ec 0B01     		.2byte	0x10b
 1210 05ee 7C050000 		.4byte	0x57c
 1211 05f2 10       		.byte	0x10
 1212 05f3 0A       		.uleb128 0xa
 1213 05f4 723900   		.ascii	"r9\000"
 1214 05f7 0A       		.byte	0xa
 1215 05f8 0C01     		.2byte	0x10c
 1216 05fa 7C050000 		.4byte	0x57c
 1217 05fe 14       		.byte	0x14
 1218 05ff 0A       		.uleb128 0xa
 1219 0600 72313000 		.ascii	"r10\000"
 1220 0604 0A       		.byte	0xa
 1221 0605 0D01     		.2byte	0x10d
 1222 0607 7C050000 		.4byte	0x57c
 1223 060b 18       		.byte	0x18
 1224 060c 0A       		.uleb128 0xa
 1225 060d 72313100 		.ascii	"r11\000"
 1226 0611 0A       		.byte	0xa
 1227 0612 0E01     		.2byte	0x10e
 1228 0614 7C050000 		.4byte	0x57c
 1229 0618 1C       		.byte	0x1c
 1230 0619 0A       		.uleb128 0xa
 1231 061a 6C7200   		.ascii	"lr\000"
 1232 061d 0A       		.byte	0xa
 1233 061e 0F01     		.2byte	0x10f
 1234 0620 7C050000 		.4byte	0x57c
 1235 0624 20       		.byte	0x20
 1236 0625 00       		.byte	0
 1237 0626 0C       		.uleb128 0xc
 1238 0627 04       		.byte	0x4
 1239 0628 AB050000 		.4byte	0x5ab
 1240 062c 17       		.uleb128 0x17
 1241 062d 10       		.byte	0x10
 1242 062e 0B       		.byte	0xb
 1243 062f 51       		.byte	0x51
 1244 0630 27030000 		.4byte	.LASF108
 1245 0634 69060000 		.4byte	0x669
 1246 0638 09       		.uleb128 0x9
 1247 0639 81020000 		.4byte	.LASF99
 1248 063d 0B       		.byte	0xb
ARM GAS  C:\Users\Luis\AppData\Local\Temp\cc0p0Q9k.s 			page 23


 1249 063e 55       		.byte	0x55
 1250 063f 25010000 		.4byte	0x125
 1251 0643 00       		.byte	0
 1252 0644 09       		.uleb128 0x9
 1253 0645 04020000 		.4byte	.LASF100
 1254 0649 0B       		.byte	0xb
 1255 064a 59       		.byte	0x59
 1256 064b B6020000 		.4byte	0x2b6
 1257 064f 04       		.byte	0x4
 1258 0650 09       		.uleb128 0x9
 1259 0651 110A0000 		.4byte	.LASF101
 1260 0655 0B       		.byte	0xb
 1261 0656 5D       		.byte	0x5d
 1262 0657 93030000 		.4byte	0x393
 1263 065b 08       		.byte	0x8
 1264 065c 09       		.uleb128 0x9
 1265 065d BF000000 		.4byte	.LASF102
 1266 0661 0B       		.byte	0xb
 1267 0662 61       		.byte	0x61
 1268 0663 45000000 		.4byte	0x45
 1269 0667 0C       		.byte	0xc
 1270 0668 00       		.byte	0
 1271 0669 03       		.uleb128 0x3
 1272 066a 83040000 		.4byte	.LASF103
 1273 066e 0B       		.byte	0xb
 1274 066f 62       		.byte	0x62
 1275 0670 2C060000 		.4byte	0x62c
 1276 0674 18       		.uleb128 0x18
 1277 0675 0804     		.2byte	0x408
 1278 0677 0B       		.byte	0xb
 1279 0678 67       		.byte	0x67
 1280 0679 CE030000 		.4byte	.LASF212
 1281 067d A6060000 		.4byte	0x6a6
 1282 0681 09       		.uleb128 0x9
 1283 0682 30020000 		.4byte	.LASF104
 1284 0686 0B       		.byte	0xb
 1285 0687 6B       		.byte	0x6b
 1286 0688 37000000 		.4byte	0x37
 1287 068c 00       		.byte	0
 1288 068d 09       		.uleb128 0x9
 1289 068e 1D040000 		.4byte	.LASF105
 1290 0692 0B       		.byte	0xb
 1291 0693 6F       		.byte	0x6f
 1292 0694 A6060000 		.4byte	0x6a6
 1293 0698 04       		.byte	0x4
 1294 0699 09       		.uleb128 0x9
 1295 069a 83050000 		.4byte	.LASF106
 1296 069e 0B       		.byte	0xb
 1297 069f 73       		.byte	0x73
 1298 06a0 AC060000 		.4byte	0x6ac
 1299 06a4 08       		.byte	0x8
 1300 06a5 00       		.byte	0
 1301 06a6 0C       		.uleb128 0xc
 1302 06a7 04       		.byte	0x4
 1303 06a8 69060000 		.4byte	0x669
 1304 06ac 19       		.uleb128 0x19
 1305 06ad 69060000 		.4byte	0x669
ARM GAS  C:\Users\Luis\AppData\Local\Temp\cc0p0Q9k.s 			page 24


 1306 06b1 BC060000 		.4byte	0x6bc
 1307 06b5 1A       		.uleb128 0x1a
 1308 06b6 02050000 		.4byte	0x502
 1309 06ba 3F       		.byte	0x3f
 1310 06bb 00       		.byte	0
 1311 06bc 03       		.uleb128 0x3
 1312 06bd D6060000 		.4byte	.LASF107
 1313 06c1 0B       		.byte	0xb
 1314 06c2 74       		.byte	0x74
 1315 06c3 74060000 		.4byte	0x674
 1316 06c7 17       		.uleb128 0x17
 1317 06c8 04       		.byte	0x4
 1318 06c9 0C       		.byte	0xc
 1319 06ca 38       		.byte	0x38
 1320 06cb 2C080000 		.4byte	.LASF109
 1321 06cf E0060000 		.4byte	0x6e0
 1322 06d3 09       		.uleb128 0x9
 1323 06d4 78080000 		.4byte	.LASF110
 1324 06d8 0C       		.byte	0xc
 1325 06d9 3C       		.byte	0x3c
 1326 06da AC000000 		.4byte	0xac
 1327 06de 00       		.byte	0
 1328 06df 00       		.byte	0
 1329 06e0 03       		.uleb128 0x3
 1330 06e1 3C040000 		.4byte	.LASF111
 1331 06e5 0C       		.byte	0xc
 1332 06e6 3D       		.byte	0x3d
 1333 06e7 C7060000 		.4byte	0x6c7
 1334 06eb 17       		.uleb128 0x17
 1335 06ec 18       		.byte	0x18
 1336 06ed 0C       		.byte	0xc
 1337 06ee 48       		.byte	0x48
 1338 06ef AC040000 		.4byte	.LASF112
 1339 06f3 32070000 		.4byte	0x732
 1340 06f7 09       		.uleb128 0x9
 1341 06f8 3F080000 		.4byte	.LASF113
 1342 06fc 0C       		.byte	0xc
 1343 06fd 49       		.byte	0x49
 1344 06fe AC000000 		.4byte	0xac
 1345 0702 00       		.byte	0
 1346 0703 09       		.uleb128 0x9
 1347 0704 7F000000 		.4byte	.LASF114
 1348 0708 0C       		.byte	0xc
 1349 0709 4A       		.byte	0x4a
 1350 070a AC000000 		.4byte	0xac
 1351 070e 04       		.byte	0x4
 1352 070f 09       		.uleb128 0x9
 1353 0710 69080000 		.4byte	.LASF115
 1354 0714 0C       		.byte	0xc
 1355 0715 4B       		.byte	0x4b
 1356 0716 AC000000 		.4byte	0xac
 1357 071a 08       		.byte	0x8
 1358 071b 16       		.uleb128 0x16
 1359 071c 6E00     		.ascii	"n\000"
 1360 071e 0C       		.byte	0xc
 1361 071f 4C       		.byte	0x4c
 1362 0720 1A010000 		.4byte	0x11a
ARM GAS  C:\Users\Luis\AppData\Local\Temp\cc0p0Q9k.s 			page 25


 1363 0724 0C       		.byte	0xc
 1364 0725 09       		.uleb128 0x9
 1365 0726 4E050000 		.4byte	.LASF116
 1366 072a 0C       		.byte	0xc
 1367 072b 4D       		.byte	0x4d
 1368 072c B7000000 		.4byte	0xb7
 1369 0730 10       		.byte	0x10
 1370 0731 00       		.byte	0
 1371 0732 03       		.uleb128 0x3
 1372 0733 85000000 		.4byte	.LASF117
 1373 0737 0C       		.byte	0xc
 1374 0738 4E       		.byte	0x4e
 1375 0739 EB060000 		.4byte	0x6eb
 1376 073d 17       		.uleb128 0x17
 1377 073e 38       		.byte	0x38
 1378 073f 0D       		.byte	0xd
 1379 0740 38       		.byte	0x38
 1380 0741 C1040000 		.4byte	.LASF118
 1381 0745 7A070000 		.4byte	0x77a
 1382 0749 09       		.uleb128 0x9
 1383 074a F3020000 		.4byte	.LASF119
 1384 074e 0D       		.byte	0xd
 1385 074f 39       		.byte	0x39
 1386 0750 1A010000 		.4byte	0x11a
 1387 0754 00       		.byte	0
 1388 0755 09       		.uleb128 0x9
 1389 0756 C5060000 		.4byte	.LASF120
 1390 075a 0D       		.byte	0xd
 1391 075b 3A       		.byte	0x3a
 1392 075c 1A010000 		.4byte	0x11a
 1393 0760 04       		.byte	0x4
 1394 0761 09       		.uleb128 0x9
 1395 0762 A3060000 		.4byte	.LASF121
 1396 0766 0D       		.byte	0xd
 1397 0767 3B       		.byte	0x3b
 1398 0768 32070000 		.4byte	0x732
 1399 076c 08       		.byte	0x8
 1400 076d 09       		.uleb128 0x9
 1401 076e 9C030000 		.4byte	.LASF122
 1402 0772 0D       		.byte	0xd
 1403 0773 3D       		.byte	0x3d
 1404 0774 32070000 		.4byte	0x732
 1405 0778 20       		.byte	0x20
 1406 0779 00       		.byte	0
 1407 077a 03       		.uleb128 0x3
 1408 077b 18030000 		.4byte	.LASF123
 1409 077f 0D       		.byte	0xd
 1410 0780 3F       		.byte	0x3f
 1411 0781 3D070000 		.4byte	0x73d
 1412 0785 0C       		.uleb128 0xc
 1413 0786 04       		.byte	0x4
 1414 0787 AB020000 		.4byte	0x2ab
 1415 078b 06       		.uleb128 0x6
 1416 078c 83070000 		.4byte	.LASF124
 1417 0790 0C       		.byte	0xc
 1418 0791 0E       		.byte	0xe
 1419 0792 34       		.byte	0x34
ARM GAS  C:\Users\Luis\AppData\Local\Temp\cc0p0Q9k.s 			page 26


 1420 0793 B0070000 		.4byte	0x7b0
 1421 0797 09       		.uleb128 0x9
 1422 0798 28020000 		.4byte	.LASF125
 1423 079c 0E       		.byte	0xe
 1424 079d 35       		.byte	0x35
 1425 079e E0020000 		.4byte	0x2e0
 1426 07a2 00       		.byte	0
 1427 07a3 09       		.uleb128 0x9
 1428 07a4 F9020000 		.4byte	.LASF126
 1429 07a8 0E       		.byte	0xe
 1430 07a9 37       		.byte	0x37
 1431 07aa 0F010000 		.4byte	0x10f
 1432 07ae 08       		.byte	0x8
 1433 07af 00       		.byte	0
 1434 07b0 0C       		.uleb128 0xc
 1435 07b1 04       		.byte	0x4
 1436 07b2 8B070000 		.4byte	0x78b
 1437 07b6 06       		.uleb128 0x6
 1438 07b7 1B090000 		.4byte	.LASF127
 1439 07bb 10       		.byte	0x10
 1440 07bc 0F       		.byte	0xf
 1441 07bd 39       		.byte	0x39
 1442 07be E7070000 		.4byte	0x7e7
 1443 07c2 09       		.uleb128 0x9
 1444 07c3 E8060000 		.4byte	.LASF128
 1445 07c7 0F       		.byte	0xf
 1446 07c8 3A       		.byte	0x3a
 1447 07c9 E0020000 		.4byte	0x2e0
 1448 07cd 00       		.byte	0
 1449 07ce 09       		.uleb128 0x9
 1450 07cf 090A0000 		.4byte	.LASF129
 1451 07d3 0F       		.byte	0xf
 1452 07d4 3C       		.byte	0x3c
 1453 07d5 B6020000 		.4byte	0x2b6
 1454 07d9 08       		.byte	0x8
 1455 07da 09       		.uleb128 0x9
 1456 07db 44080000 		.4byte	.LASF130
 1457 07df 0F       		.byte	0xf
 1458 07e0 3E       		.byte	0x3e
 1459 07e1 2B080000 		.4byte	0x82b
 1460 07e5 0C       		.byte	0xc
 1461 07e6 00       		.byte	0
 1462 07e7 0C       		.uleb128 0xc
 1463 07e8 04       		.byte	0x4
 1464 07e9 B6070000 		.4byte	0x7b6
 1465 07ed 0C       		.uleb128 0xc
 1466 07ee 04       		.byte	0x4
 1467 07ef F3070000 		.4byte	0x7f3
 1468 07f3 1B       		.uleb128 0x1b
 1469 07f4 F8070000 		.4byte	0x7f8
 1470 07f8 04       		.uleb128 0x4
 1471 07f9 01       		.byte	0x1
 1472 07fa 08       		.byte	0x8
 1473 07fb FA070000 		.4byte	.LASF131
 1474 07ff 0C       		.uleb128 0xc
 1475 0800 04       		.byte	0x4
 1476 0801 87050000 		.4byte	0x587
ARM GAS  C:\Users\Luis\AppData\Local\Temp\cc0p0Q9k.s 			page 27


 1477 0805 0C       		.uleb128 0xc
 1478 0806 04       		.byte	0x4
 1479 0807 95030000 		.4byte	0x395
 1480 080b 05       		.uleb128 0x5
 1481 080c ED070000 		.4byte	0x7ed
 1482 0810 19       		.uleb128 0x19
 1483 0811 9B000000 		.4byte	0x9b
 1484 0815 20080000 		.4byte	0x820
 1485 0819 1A       		.uleb128 0x1a
 1486 081a 02050000 		.4byte	0x502
 1487 081e 1F       		.byte	0x1f
 1488 081f 00       		.byte	0
 1489 0820 03       		.uleb128 0x3
 1490 0821 61020000 		.4byte	.LASF132
 1491 0825 0F       		.byte	0xf
 1492 0826 34       		.byte	0x34
 1493 0827 B6070000 		.4byte	0x7b6
 1494 082b 0C       		.uleb128 0xc
 1495 082c 04       		.byte	0x4
 1496 082d 20080000 		.4byte	0x820
 1497 0831 03       		.uleb128 0x3
 1498 0832 F2030000 		.4byte	.LASF133
 1499 0836 10       		.byte	0x10
 1500 0837 34       		.byte	0x34
 1501 0838 3C080000 		.4byte	0x83c
 1502 083c 06       		.uleb128 0x6
 1503 083d 2B0A0000 		.4byte	.LASF134
 1504 0841 14       		.byte	0x14
 1505 0842 10       		.byte	0x10
 1506 0843 39       		.byte	0x39
 1507 0844 85080000 		.4byte	0x885
 1508 0848 09       		.uleb128 0x9
 1509 0849 66030000 		.4byte	.LASF135
 1510 084d 10       		.byte	0x10
 1511 084e 3A       		.byte	0x3a
 1512 084f 85080000 		.4byte	0x885
 1513 0853 00       		.byte	0
 1514 0854 09       		.uleb128 0x9
 1515 0855 F0060000 		.4byte	.LASF136
 1516 0859 10       		.byte	0x10
 1517 085a 3D       		.byte	0x3d
 1518 085b B6020000 		.4byte	0x2b6
 1519 085f 04       		.byte	0x4
 1520 0860 09       		.uleb128 0x9
 1521 0861 44050000 		.4byte	.LASF137
 1522 0865 10       		.byte	0x10
 1523 0866 3F       		.byte	0x3f
 1524 0867 F9000000 		.4byte	0xf9
 1525 086b 08       		.byte	0x8
 1526 086c 09       		.uleb128 0x9
 1527 086d FC060000 		.4byte	.LASF138
 1528 0871 10       		.byte	0x10
 1529 0872 41       		.byte	0x41
 1530 0873 04010000 		.4byte	0x104
 1531 0877 0C       		.byte	0xc
 1532 0878 09       		.uleb128 0x9
 1533 0879 42030000 		.4byte	.LASF139
ARM GAS  C:\Users\Luis\AppData\Local\Temp\cc0p0Q9k.s 			page 28


 1534 087d 10       		.byte	0x10
 1535 087e 43       		.byte	0x43
 1536 087f 04010000 		.4byte	0x104
 1537 0883 10       		.byte	0x10
 1538 0884 00       		.byte	0
 1539 0885 0C       		.uleb128 0xc
 1540 0886 04       		.byte	0x4
 1541 0887 31080000 		.4byte	0x831
 1542 088b 06       		.uleb128 0x6
 1543 088c 66090000 		.4byte	.LASF140
 1544 0890 04       		.byte	0x4
 1545 0891 10       		.byte	0x10
 1546 0892 4A       		.byte	0x4a
 1547 0893 A4080000 		.4byte	0x8a4
 1548 0897 09       		.uleb128 0x9
 1549 0898 CB090000 		.4byte	.LASF141
 1550 089c 10       		.byte	0x10
 1551 089d 4B       		.byte	0x4b
 1552 089e 85080000 		.4byte	0x885
 1553 08a2 00       		.byte	0
 1554 08a3 00       		.byte	0
 1555 08a4 03       		.uleb128 0x3
 1556 08a5 72020000 		.4byte	.LASF142
 1557 08a9 10       		.byte	0x10
 1558 08aa 4E       		.byte	0x4e
 1559 08ab 8B080000 		.4byte	0x88b
 1560 08af 03       		.uleb128 0x3
 1561 08b0 0B010000 		.4byte	.LASF143
 1562 08b4 11       		.byte	0x11
 1563 08b5 3F       		.byte	0x3f
 1564 08b6 BA080000 		.4byte	0x8ba
 1565 08ba 06       		.uleb128 0x6
 1566 08bb 2B040000 		.4byte	.LASF144
 1567 08bf 24       		.byte	0x24
 1568 08c0 11       		.byte	0x11
 1569 08c1 4D       		.byte	0x4d
 1570 08c2 27090000 		.4byte	0x927
 1571 08c6 09       		.uleb128 0x9
 1572 08c7 34010000 		.4byte	.LASF145
 1573 08cb 11       		.byte	0x11
 1574 08cc 4E       		.byte	0x4e
 1575 08cd E0020000 		.4byte	0x2e0
 1576 08d1 00       		.byte	0
 1577 08d2 09       		.uleb128 0x9
 1578 08d3 64040000 		.4byte	.LASF146
 1579 08d7 11       		.byte	0x11
 1580 08d8 4F       		.byte	0x4f
 1581 08d9 49090000 		.4byte	0x949
 1582 08dd 08       		.byte	0x8
 1583 08de 09       		.uleb128 0x9
 1584 08df 0A020000 		.4byte	.LASF147
 1585 08e3 11       		.byte	0x11
 1586 08e4 50       		.byte	0x50
 1587 08e5 4E090000 		.4byte	0x94e
 1588 08e9 0C       		.byte	0xc
 1589 08ea 09       		.uleb128 0x9
 1590 08eb 15090000 		.4byte	.LASF148
ARM GAS  C:\Users\Luis\AppData\Local\Temp\cc0p0Q9k.s 			page 29


 1591 08ef 11       		.byte	0x11
 1592 08f0 51       		.byte	0x51
 1593 08f1 4E090000 		.4byte	0x94e
 1594 08f5 10       		.byte	0x10
 1595 08f6 09       		.uleb128 0x9
 1596 08f7 13020000 		.4byte	.LASF149
 1597 08fb 11       		.byte	0x11
 1598 08fc 53       		.byte	0x53
 1599 08fd 4E090000 		.4byte	0x94e
 1600 0901 14       		.byte	0x14
 1601 0902 09       		.uleb128 0x9
 1602 0903 B6060000 		.4byte	.LASF150
 1603 0907 11       		.byte	0x11
 1604 0908 54       		.byte	0x54
 1605 0909 4E090000 		.4byte	0x94e
 1606 090d 18       		.byte	0x18
 1607 090e 09       		.uleb128 0x9
 1608 090f 4C090000 		.4byte	.LASF151
 1609 0913 11       		.byte	0x11
 1610 0914 55       		.byte	0x55
 1611 0915 27090000 		.4byte	0x927
 1612 0919 1C       		.byte	0x1c
 1613 091a 09       		.uleb128 0x9
 1614 091b EE090000 		.4byte	.LASF152
 1615 091f 11       		.byte	0x11
 1616 0920 56       		.byte	0x56
 1617 0921 93030000 		.4byte	0x393
 1618 0925 20       		.byte	0x20
 1619 0926 00       		.byte	0
 1620 0927 03       		.uleb128 0x3
 1621 0928 93050000 		.4byte	.LASF153
 1622 092c 11       		.byte	0x11
 1623 092d 42       		.byte	0x42
 1624 092e 32090000 		.4byte	0x932
 1625 0932 0C       		.uleb128 0xc
 1626 0933 04       		.byte	0x4
 1627 0934 38090000 		.4byte	0x938
 1628 0938 0E       		.uleb128 0xe
 1629 0939 43090000 		.4byte	0x943
 1630 093d 0F       		.uleb128 0xf
 1631 093e 43090000 		.4byte	0x943
 1632 0942 00       		.byte	0
 1633 0943 0C       		.uleb128 0xc
 1634 0944 04       		.byte	0x4
 1635 0945 AF080000 		.4byte	0x8af
 1636 0949 05       		.uleb128 0x5
 1637 094a 2C000000 		.4byte	0x2c
 1638 094e 0C       		.uleb128 0xc
 1639 094f 04       		.byte	0x4
 1640 0950 45000000 		.4byte	0x45
 1641 0954 03       		.uleb128 0x3
 1642 0955 03040000 		.4byte	.LASF154
 1643 0959 11       		.byte	0x11
 1644 095a 64       		.byte	0x64
 1645 095b AF080000 		.4byte	0x8af
 1646 095f 03       		.uleb128 0x3
 1647 0960 FC080000 		.4byte	.LASF155
ARM GAS  C:\Users\Luis\AppData\Local\Temp\cc0p0Q9k.s 			page 30


 1648 0964 11       		.byte	0x11
 1649 0965 71       		.byte	0x71
 1650 0966 AF080000 		.4byte	0x8af
 1651 096a 06       		.uleb128 0x6
 1652 096b 14080000 		.4byte	.LASF156
 1653 096f 10       		.byte	0x10
 1654 0970 12       		.byte	0x12
 1655 0971 40       		.byte	0x40
 1656 0972 A7090000 		.4byte	0x9a7
 1657 0976 09       		.uleb128 0x9
 1658 0977 8D050000 		.4byte	.LASF157
 1659 097b 12       		.byte	0x12
 1660 097c 41       		.byte	0x41
 1661 097d CB090000 		.4byte	0x9cb
 1662 0981 00       		.byte	0
 1663 0982 09       		.uleb128 0x9
 1664 0983 A3090000 		.4byte	.LASF158
 1665 0987 12       		.byte	0x12
 1666 0988 41       		.byte	0x41
 1667 0989 EA090000 		.4byte	0x9ea
 1668 098d 04       		.byte	0x4
 1669 098e 16       		.uleb128 0x16
 1670 098f 70757400 		.ascii	"put\000"
 1671 0993 12       		.byte	0x12
 1672 0994 41       		.byte	0x41
 1673 0995 040A0000 		.4byte	0xa04
 1674 0999 08       		.byte	0x8
 1675 099a 16       		.uleb128 0x16
 1676 099b 67657400 		.ascii	"get\000"
 1677 099f 12       		.byte	0x12
 1678 09a0 41       		.byte	0x41
 1679 09a1 190A0000 		.4byte	0xa19
 1680 09a5 0C       		.byte	0xc
 1681 09a6 00       		.byte	0
 1682 09a7 1C       		.uleb128 0x1c
 1683 09a8 2C000000 		.4byte	0x2c
 1684 09ac C0090000 		.4byte	0x9c0
 1685 09b0 0F       		.uleb128 0xf
 1686 09b1 93030000 		.4byte	0x393
 1687 09b5 0F       		.uleb128 0xf
 1688 09b6 C0090000 		.4byte	0x9c0
 1689 09ba 0F       		.uleb128 0xf
 1690 09bb 2C000000 		.4byte	0x2c
 1691 09bf 00       		.byte	0
 1692 09c0 0C       		.uleb128 0xc
 1693 09c1 04       		.byte	0x4
 1694 09c2 C6090000 		.4byte	0x9c6
 1695 09c6 1B       		.uleb128 0x1b
 1696 09c7 45000000 		.4byte	0x45
 1697 09cb 0C       		.uleb128 0xc
 1698 09cc 04       		.byte	0x4
 1699 09cd A7090000 		.4byte	0x9a7
 1700 09d1 1C       		.uleb128 0x1c
 1701 09d2 2C000000 		.4byte	0x2c
 1702 09d6 EA090000 		.4byte	0x9ea
 1703 09da 0F       		.uleb128 0xf
 1704 09db 93030000 		.4byte	0x393
ARM GAS  C:\Users\Luis\AppData\Local\Temp\cc0p0Q9k.s 			page 31


 1705 09df 0F       		.uleb128 0xf
 1706 09e0 4E090000 		.4byte	0x94e
 1707 09e4 0F       		.uleb128 0xf
 1708 09e5 2C000000 		.4byte	0x2c
 1709 09e9 00       		.byte	0
 1710 09ea 0C       		.uleb128 0xc
 1711 09eb 04       		.byte	0x4
 1712 09ec D1090000 		.4byte	0x9d1
 1713 09f0 1C       		.uleb128 0x1c
 1714 09f1 EE000000 		.4byte	0xee
 1715 09f5 040A0000 		.4byte	0xa04
 1716 09f9 0F       		.uleb128 0xf
 1717 09fa 93030000 		.4byte	0x393
 1718 09fe 0F       		.uleb128 0xf
 1719 09ff 45000000 		.4byte	0x45
 1720 0a03 00       		.byte	0
 1721 0a04 0C       		.uleb128 0xc
 1722 0a05 04       		.byte	0x4
 1723 0a06 F0090000 		.4byte	0x9f0
 1724 0a0a 1C       		.uleb128 0x1c
 1725 0a0b EE000000 		.4byte	0xee
 1726 0a0f 190A0000 		.4byte	0xa19
 1727 0a13 0F       		.uleb128 0xf
 1728 0a14 93030000 		.4byte	0x393
 1729 0a18 00       		.byte	0
 1730 0a19 0C       		.uleb128 0xc
 1731 0a1a 04       		.byte	0x4
 1732 0a1b 0A0A0000 		.4byte	0xa0a
 1733 0a1f 17       		.uleb128 0x17
 1734 0a20 04       		.byte	0x4
 1735 0a21 12       		.byte	0x12
 1736 0a22 49       		.byte	0x49
 1737 0a23 72010000 		.4byte	.LASF159
 1738 0a27 380A0000 		.4byte	0xa38
 1739 0a2b 16       		.uleb128 0x16
 1740 0a2c 766D7400 		.ascii	"vmt\000"
 1741 0a30 12       		.byte	0x12
 1742 0a31 4B       		.byte	0x4b
 1743 0a32 380A0000 		.4byte	0xa38
 1744 0a36 00       		.byte	0
 1745 0a37 00       		.byte	0
 1746 0a38 0C       		.uleb128 0xc
 1747 0a39 04       		.byte	0x4
 1748 0a3a 3E0A0000 		.4byte	0xa3e
 1749 0a3e 1B       		.uleb128 0x1b
 1750 0a3f 6A090000 		.4byte	0x96a
 1751 0a43 03       		.uleb128 0x3
 1752 0a44 FF070000 		.4byte	.LASF160
 1753 0a48 12       		.byte	0x12
 1754 0a49 4D       		.byte	0x4d
 1755 0a4a 1F0A0000 		.4byte	0xa1f
 1756 0a4e 1C       		.uleb128 0x1c
 1757 0a4f EE000000 		.4byte	0xee
 1758 0a53 670A0000 		.4byte	0xa67
 1759 0a57 0F       		.uleb128 0xf
 1760 0a58 93030000 		.4byte	0x393
 1761 0a5c 0F       		.uleb128 0xf
ARM GAS  C:\Users\Luis\AppData\Local\Temp\cc0p0Q9k.s 			page 32


 1762 0a5d 45000000 		.4byte	0x45
 1763 0a61 0F       		.uleb128 0xf
 1764 0a62 25010000 		.4byte	0x125
 1765 0a66 00       		.byte	0
 1766 0a67 0C       		.uleb128 0xc
 1767 0a68 04       		.byte	0x4
 1768 0a69 4E0A0000 		.4byte	0xa4e
 1769 0a6d 1C       		.uleb128 0x1c
 1770 0a6e EE000000 		.4byte	0xee
 1771 0a72 810A0000 		.4byte	0xa81
 1772 0a76 0F       		.uleb128 0xf
 1773 0a77 93030000 		.4byte	0x393
 1774 0a7b 0F       		.uleb128 0xf
 1775 0a7c 25010000 		.4byte	0x125
 1776 0a80 00       		.byte	0
 1777 0a81 0C       		.uleb128 0xc
 1778 0a82 04       		.byte	0x4
 1779 0a83 6D0A0000 		.4byte	0xa6d
 1780 0a87 1C       		.uleb128 0x1c
 1781 0a88 2C000000 		.4byte	0x2c
 1782 0a8c A50A0000 		.4byte	0xaa5
 1783 0a90 0F       		.uleb128 0xf
 1784 0a91 93030000 		.4byte	0x393
 1785 0a95 0F       		.uleb128 0xf
 1786 0a96 C0090000 		.4byte	0x9c0
 1787 0a9a 0F       		.uleb128 0xf
 1788 0a9b 2C000000 		.4byte	0x2c
 1789 0a9f 0F       		.uleb128 0xf
 1790 0aa0 25010000 		.4byte	0x125
 1791 0aa4 00       		.byte	0
 1792 0aa5 0C       		.uleb128 0xc
 1793 0aa6 04       		.byte	0x4
 1794 0aa7 870A0000 		.4byte	0xa87
 1795 0aab 1C       		.uleb128 0x1c
 1796 0aac 2C000000 		.4byte	0x2c
 1797 0ab0 C90A0000 		.4byte	0xac9
 1798 0ab4 0F       		.uleb128 0xf
 1799 0ab5 93030000 		.4byte	0x393
 1800 0ab9 0F       		.uleb128 0xf
 1801 0aba 4E090000 		.4byte	0x94e
 1802 0abe 0F       		.uleb128 0xf
 1803 0abf 2C000000 		.4byte	0x2c
 1804 0ac3 0F       		.uleb128 0xf
 1805 0ac4 25010000 		.4byte	0x125
 1806 0ac8 00       		.byte	0
 1807 0ac9 0C       		.uleb128 0xc
 1808 0aca 04       		.byte	0x4
 1809 0acb AB0A0000 		.4byte	0xaab
 1810 0acf 04       		.uleb128 0x4
 1811 0ad0 01       		.byte	0x1
 1812 0ad1 02       		.byte	0x2
 1813 0ad2 97030000 		.4byte	.LASF161
 1814 0ad6 1D       		.uleb128 0x1d
 1815 0ad7 01       		.byte	0x1
 1816 0ad8 13       		.byte	0x13
 1817 0ad9 55       		.byte	0x55
 1818 0ada 27000000 		.4byte	.LASF213
ARM GAS  C:\Users\Luis\AppData\Local\Temp\cc0p0Q9k.s 			page 33


 1819 0ade F50A0000 		.4byte	0xaf5
 1820 0ae2 1E       		.uleb128 0x1e
 1821 0ae3 9B070000 		.4byte	.LASF162
 1822 0ae7 00       		.sleb128 0
 1823 0ae8 1E       		.uleb128 0x1e
 1824 0ae9 AD050000 		.4byte	.LASF163
 1825 0aed 01       		.sleb128 1
 1826 0aee 1E       		.uleb128 0x1e
 1827 0aef D6080000 		.4byte	.LASF164
 1828 0af3 02       		.sleb128 2
 1829 0af4 00       		.byte	0
 1830 0af5 03       		.uleb128 0x3
 1831 0af6 0B090000 		.4byte	.LASF165
 1832 0afa 13       		.byte	0x13
 1833 0afb 59       		.byte	0x59
 1834 0afc D60A0000 		.4byte	0xad6
 1835 0b00 03       		.uleb128 0x3
 1836 0b01 DE070000 		.4byte	.LASF166
 1837 0b05 13       		.byte	0x13
 1838 0b06 5E       		.byte	0x5e
 1839 0b07 0B0B0000 		.4byte	0xb0b
 1840 0b0b 1F       		.uleb128 0x1f
 1841 0b0c DE070000 		.4byte	.LASF166
 1842 0b10 5820     		.2byte	0x2058
 1843 0b12 13       		.byte	0x13
 1844 0b13 78       		.byte	0x78
 1845 0b14 790B0000 		.4byte	0xb79
 1846 0b18 16       		.uleb128 0x16
 1847 0b19 766D7400 		.ascii	"vmt\000"
 1848 0b1d 13       		.byte	0x13
 1849 0b1e 7A       		.byte	0x7a
 1850 0b1f E60B0000 		.4byte	0xbe6
 1851 0b23 00       		.byte	0
 1852 0b24 09       		.uleb128 0x9
 1853 0b25 FF020000 		.4byte	.LASF167
 1854 0b29 13       		.byte	0x13
 1855 0b2a 7B       		.byte	0x7b
 1856 0b2b A4080000 		.4byte	0x8a4
 1857 0b2f 04       		.byte	0x4
 1858 0b30 09       		.uleb128 0x9
 1859 0b31 BF010000 		.4byte	.LASF168
 1860 0b35 13       		.byte	0x13
 1861 0b36 7B       		.byte	0x7b
 1862 0b37 F50A0000 		.4byte	0xaf5
 1863 0b3b 08       		.byte	0x8
 1864 0b3c 09       		.uleb128 0x9
 1865 0b3d D8020000 		.4byte	.LASF169
 1866 0b41 13       		.byte	0x13
 1867 0b42 7B       		.byte	0x7b
 1868 0b43 54090000 		.4byte	0x954
 1869 0b47 0C       		.byte	0xc
 1870 0b48 09       		.uleb128 0x9
 1871 0b49 52030000 		.4byte	.LASF170
 1872 0b4d 13       		.byte	0x13
 1873 0b4e 7B       		.byte	0x7b
 1874 0b4f 5F090000 		.4byte	0x95f
 1875 0b53 30       		.byte	0x30
ARM GAS  C:\Users\Luis\AppData\Local\Temp\cc0p0Q9k.s 			page 34


 1876 0b54 16       		.uleb128 0x16
 1877 0b55 696200   		.ascii	"ib\000"
 1878 0b58 13       		.byte	0x13
 1879 0b59 7B       		.byte	0x7b
 1880 0b5a F10B0000 		.4byte	0xbf1
 1881 0b5e 54       		.byte	0x54
 1882 0b5f 20       		.uleb128 0x20
 1883 0b60 6F6200   		.ascii	"ob\000"
 1884 0b63 13       		.byte	0x13
 1885 0b64 7B       		.byte	0x7b
 1886 0b65 F10B0000 		.4byte	0xbf1
 1887 0b69 5410     		.2byte	0x1054
 1888 0b6b 21       		.uleb128 0x21
 1889 0b6c 9F020000 		.4byte	.LASF171
 1890 0b70 13       		.byte	0x13
 1891 0b71 7B       		.byte	0x7b
 1892 0b72 020C0000 		.4byte	0xc02
 1893 0b76 5420     		.2byte	0x2054
 1894 0b78 00       		.byte	0
 1895 0b79 06       		.uleb128 0x6
 1896 0b7a B2020000 		.4byte	.LASF172
 1897 0b7e 20       		.byte	0x20
 1898 0b7f 13       		.byte	0x13
 1899 0b80 6D       		.byte	0x6d
 1900 0b81 E60B0000 		.4byte	0xbe6
 1901 0b85 09       		.uleb128 0x9
 1902 0b86 8D050000 		.4byte	.LASF157
 1903 0b8a 13       		.byte	0x13
 1904 0b8b 6E       		.byte	0x6e
 1905 0b8c CB090000 		.4byte	0x9cb
 1906 0b90 00       		.byte	0
 1907 0b91 09       		.uleb128 0x9
 1908 0b92 A3090000 		.4byte	.LASF158
 1909 0b96 13       		.byte	0x13
 1910 0b97 6E       		.byte	0x6e
 1911 0b98 EA090000 		.4byte	0x9ea
 1912 0b9c 04       		.byte	0x4
 1913 0b9d 16       		.uleb128 0x16
 1914 0b9e 70757400 		.ascii	"put\000"
 1915 0ba2 13       		.byte	0x13
 1916 0ba3 6E       		.byte	0x6e
 1917 0ba4 040A0000 		.4byte	0xa04
 1918 0ba8 08       		.byte	0x8
 1919 0ba9 16       		.uleb128 0x16
 1920 0baa 67657400 		.ascii	"get\000"
 1921 0bae 13       		.byte	0x13
 1922 0baf 6E       		.byte	0x6e
 1923 0bb0 190A0000 		.4byte	0xa19
 1924 0bb4 0C       		.byte	0xc
 1925 0bb5 09       		.uleb128 0x9
 1926 0bb6 11040000 		.4byte	.LASF173
 1927 0bba 13       		.byte	0x13
 1928 0bbb 6E       		.byte	0x6e
 1929 0bbc 670A0000 		.4byte	0xa67
 1930 0bc0 10       		.byte	0x10
 1931 0bc1 09       		.uleb128 0x9
 1932 0bc2 EE020000 		.4byte	.LASF174
ARM GAS  C:\Users\Luis\AppData\Local\Temp\cc0p0Q9k.s 			page 35


 1933 0bc6 13       		.byte	0x13
 1934 0bc7 6E       		.byte	0x6e
 1935 0bc8 810A0000 		.4byte	0xa81
 1936 0bcc 14       		.byte	0x14
 1937 0bcd 09       		.uleb128 0x9
 1938 0bce 88030000 		.4byte	.LASF175
 1939 0bd2 13       		.byte	0x13
 1940 0bd3 6E       		.byte	0x6e
 1941 0bd4 A50A0000 		.4byte	0xaa5
 1942 0bd8 18       		.byte	0x18
 1943 0bd9 09       		.uleb128 0x9
 1944 0bda 2E010000 		.4byte	.LASF176
 1945 0bde 13       		.byte	0x13
 1946 0bdf 6E       		.byte	0x6e
 1947 0be0 C90A0000 		.4byte	0xac9
 1948 0be4 1C       		.byte	0x1c
 1949 0be5 00       		.byte	0
 1950 0be6 0C       		.uleb128 0xc
 1951 0be7 04       		.byte	0x4
 1952 0be8 EC0B0000 		.4byte	0xbec
 1953 0bec 1B       		.uleb128 0x1b
 1954 0bed 790B0000 		.4byte	0xb79
 1955 0bf1 19       		.uleb128 0x19
 1956 0bf2 50000000 		.4byte	0x50
 1957 0bf6 020C0000 		.4byte	0xc02
 1958 0bfa 22       		.uleb128 0x22
 1959 0bfb 02050000 		.4byte	0x502
 1960 0bff FF0F     		.2byte	0xfff
 1961 0c01 00       		.byte	0
 1962 0c02 0C       		.uleb128 0xc
 1963 0c03 04       		.byte	0x4
 1964 0c04 70050000 		.4byte	0x570
 1965 0c08 03       		.uleb128 0x3
 1966 0c09 74040000 		.4byte	.LASF177
 1967 0c0d 14       		.byte	0x14
 1968 0c0e 28       		.byte	0x28
 1969 0c0f 130C0000 		.4byte	0xc13
 1970 0c13 06       		.uleb128 0x6
 1971 0c14 EE010000 		.4byte	.LASF178
 1972 0c18 04       		.byte	0x4
 1973 0c19 15       		.byte	0x15
 1974 0c1a 00       		.byte	0
 1975 0c1b 2A0C0000 		.4byte	0xc2a
 1976 0c1f 23       		.uleb128 0x23
 1977 0c20 9F080000 		.4byte	.LASF179
 1978 0c24 93030000 		.4byte	0x393
 1979 0c28 00       		.byte	0
 1980 0c29 00       		.byte	0
 1981 0c2a 03       		.uleb128 0x3
 1982 0c2b 5B000000 		.4byte	.LASF180
 1983 0c2f 14       		.byte	0x14
 1984 0c30 62       		.byte	0x62
 1985 0c31 080C0000 		.4byte	0xc08
 1986 0c35 24       		.uleb128 0x24
 1987 0c36 49495200 		.ascii	"IIR\000"
 1988 0c3a 04       		.byte	0x4
 1989 0c3b 17       		.byte	0x17
ARM GAS  C:\Users\Luis\AppData\Local\Temp\cc0p0Q9k.s 			page 36


 1990 0c3c 0D       		.byte	0xd
 1991 0c3d 350C0000 		.4byte	0xc35
 1992 0c41 FE0C0000 		.4byte	0xcfe
 1993 0c45 25       		.uleb128 0x25
 1994 0c46 E6080000 		.4byte	.LASF181
 1995 0c4a 090D0000 		.4byte	0xd09
 1996 0c4e 00       		.byte	0
 1997 0c4f 01       		.byte	0x1
 1998 0c50 26       		.uleb128 0x26
 1999 0c51 49495200 		.ascii	"IIR\000"
 2000 0c55 190D0000 		.4byte	0xd19
 2001 0c59 01       		.byte	0x1
 2002 0c5a 620C0000 		.4byte	0xc62
 2003 0c5e 6D0C0000 		.4byte	0xc6d
 2004 0c62 27       		.uleb128 0x27
 2005 0c63 190D0000 		.4byte	0xd19
 2006 0c67 0F       		.uleb128 0xf
 2007 0c68 1F0D0000 		.4byte	0xd1f
 2008 0c6c 00       		.byte	0
 2009 0c6d 28       		.uleb128 0x28
 2010 0c6e 49495200 		.ascii	"IIR\000"
 2011 0c72 02       		.byte	0x2
 2012 0c73 13       		.byte	0x13
 2013 0c74 190D0000 		.4byte	0xd19
 2014 0c78 01       		.byte	0x1
 2015 0c79 810C0000 		.4byte	0xc81
 2016 0c7d 870C0000 		.4byte	0xc87
 2017 0c81 27       		.uleb128 0x27
 2018 0c82 190D0000 		.4byte	0xd19
 2019 0c86 00       		.byte	0
 2020 0c87 29       		.uleb128 0x29
 2021 0c88 F5090000 		.4byte	.LASF182
 2022 0c8c 02       		.byte	0x2
 2023 0c8d 1C       		.byte	0x1c
 2024 0c8e 9C010000 		.4byte	.LASF214
 2025 0c92 01       		.byte	0x1
 2026 0c93 9B0C0000 		.4byte	0xc9b
 2027 0c97 A60C0000 		.4byte	0xca6
 2028 0c9b 27       		.uleb128 0x27
 2029 0c9c 190D0000 		.4byte	0xd19
 2030 0ca0 0F       		.uleb128 0xf
 2031 0ca1 2A0D0000 		.4byte	0xd2a
 2032 0ca5 00       		.byte	0
 2033 0ca6 2A       		.uleb128 0x2a
 2034 0ca7 73756D00 		.ascii	"sum\000"
 2035 0cab 17       		.byte	0x17
 2036 0cac 24       		.byte	0x24
 2037 0cad 6A000000 		.4byte	.LASF215
 2038 0cb1 350D0000 		.4byte	0xd35
 2039 0cb5 01       		.byte	0x1
 2040 0cb6 BE0C0000 		.4byte	0xcbe
 2041 0cba DD0C0000 		.4byte	0xcdd
 2042 0cbe 27       		.uleb128 0x27
 2043 0cbf 190D0000 		.4byte	0xd19
 2044 0cc3 0F       		.uleb128 0xf
 2045 0cc4 25000000 		.4byte	0x25
 2046 0cc8 0F       		.uleb128 0xf
ARM GAS  C:\Users\Luis\AppData\Local\Temp\cc0p0Q9k.s 			page 37


 2047 0cc9 25000000 		.4byte	0x25
 2048 0ccd 0F       		.uleb128 0xf
 2049 0cce 3C0D0000 		.4byte	0xd3c
 2050 0cd2 0F       		.uleb128 0xf
 2051 0cd3 3C0D0000 		.4byte	0xd3c
 2052 0cd7 0F       		.uleb128 0xf
 2053 0cd8 25000000 		.4byte	0x25
 2054 0cdc 00       		.byte	0
 2055 0cdd 2B       		.uleb128 0x2b
 2056 0cde ED030000 		.4byte	.LASF183
 2057 0ce2 02       		.byte	0x2
 2058 0ce3 18       		.byte	0x18
 2059 0ce4 93030000 		.4byte	0x393
 2060 0ce8 01       		.byte	0x1
 2061 0ce9 350C0000 		.4byte	0xc35
 2062 0ced 01       		.byte	0x1
 2063 0cee F20C0000 		.4byte	0xcf2
 2064 0cf2 27       		.uleb128 0x27
 2065 0cf3 190D0000 		.4byte	0xd19
 2066 0cf7 27       		.uleb128 0x27
 2067 0cf8 25000000 		.4byte	0x25
 2068 0cfc 00       		.byte	0
 2069 0cfd 00       		.byte	0
 2070 0cfe 1C       		.uleb128 0x1c
 2071 0cff 25000000 		.4byte	0x25
 2072 0d03 090D0000 		.4byte	0xd09
 2073 0d07 2C       		.uleb128 0x2c
 2074 0d08 00       		.byte	0
 2075 0d09 0C       		.uleb128 0xc
 2076 0d0a 04       		.byte	0x4
 2077 0d0b 0F0D0000 		.4byte	0xd0f
 2078 0d0f 2D       		.uleb128 0x2d
 2079 0d10 04       		.byte	0x4
 2080 0d11 8F020000 		.4byte	.LASF216
 2081 0d15 FE0C0000 		.4byte	0xcfe
 2082 0d19 0C       		.uleb128 0xc
 2083 0d1a 04       		.byte	0x4
 2084 0d1b 350C0000 		.4byte	0xc35
 2085 0d1f 2E       		.uleb128 0x2e
 2086 0d20 04       		.byte	0x4
 2087 0d21 250D0000 		.4byte	0xd25
 2088 0d25 1B       		.uleb128 0x1b
 2089 0d26 350C0000 		.4byte	0xc35
 2090 0d2a 0C       		.uleb128 0xc
 2091 0d2b 04       		.byte	0x4
 2092 0d2c 300D0000 		.4byte	0xd30
 2093 0d30 2F       		.uleb128 0x2f
 2094 0d31 55090000 		.4byte	.LASF205
 2095 0d35 04       		.uleb128 0x4
 2096 0d36 04       		.byte	0x4
 2097 0d37 04       		.byte	0x4
 2098 0d38 59050000 		.4byte	.LASF184
 2099 0d3c 0C       		.uleb128 0xc
 2100 0d3d 04       		.byte	0x4
 2101 0d3e 350D0000 		.4byte	0xd35
 2102 0d42 30       		.uleb128 0x30
 2103 0d43 3A0A0000 		.4byte	.LASF217
ARM GAS  C:\Users\Luis\AppData\Local\Temp\cc0p0Q9k.s 			page 38


 2104 0d47 01       		.byte	0x1
 2105 0d48 45       		.byte	0x45
 2106 0d49 25000000 		.4byte	0x25
 2107 0d4d 00000000 		.4byte	.LFB260
 2108 0d51 2C000000 		.4byte	.LFE260-.LFB260
 2109 0d55 01       		.uleb128 0x1
 2110 0d56 9C       		.byte	0x9c
 2111 0d57 9E0D0000 		.4byte	0xd9e
 2112 0d5b 31       		.uleb128 0x31
 2113 0d5c 63687000 		.ascii	"chp\000"
 2114 0d60 01       		.byte	0x1
 2115 0d61 45       		.byte	0x45
 2116 0d62 9E0D0000 		.4byte	0xd9e
 2117 0d66 02       		.uleb128 0x2
 2118 0d67 91       		.byte	0x91
 2119 0d68 5C       		.sleb128 -36
 2120 0d69 31       		.uleb128 0x31
 2121 0d6a 666D7400 		.ascii	"fmt\000"
 2122 0d6e 01       		.byte	0x1
 2123 0d6f 45       		.byte	0x45
 2124 0d70 ED070000 		.4byte	0x7ed
 2125 0d74 02       		.uleb128 0x2
 2126 0d75 91       		.byte	0x91
 2127 0d76 74       		.sleb128 -12
 2128 0d77 2C       		.uleb128 0x2c
 2129 0d78 32       		.uleb128 0x32
 2130 0d79 0A000000 		.4byte	.LBB2
 2131 0d7d 14000000 		.4byte	.LBE2-.LBB2
 2132 0d81 33       		.uleb128 0x33
 2133 0d82 617000   		.ascii	"ap\000"
 2134 0d85 01       		.byte	0x1
 2135 0d86 46       		.byte	0x46
 2136 0d87 2A0C0000 		.4byte	0xc2a
 2137 0d8b 02       		.uleb128 0x2
 2138 0d8c 91       		.byte	0x91
 2139 0d8d 60       		.sleb128 -32
 2140 0d8e 34       		.uleb128 0x34
 2141 0d8f AF000000 		.4byte	.LASF185
 2142 0d93 01       		.byte	0x1
 2143 0d94 47       		.byte	0x47
 2144 0d95 25000000 		.4byte	0x25
 2145 0d99 02       		.uleb128 0x2
 2146 0d9a 91       		.byte	0x91
 2147 0d9b 64       		.sleb128 -28
 2148 0d9c 00       		.byte	0
 2149 0d9d 00       		.byte	0
 2150 0d9e 0C       		.uleb128 0xc
 2151 0d9f 04       		.byte	0x4
 2152 0da0 430A0000 		.4byte	0xa43
 2153 0da4 35       		.uleb128 0x35
 2154 0da5 6D0C0000 		.4byte	0xc6d
 2155 0da9 00       		.byte	0
 2156 0daa B20D0000 		.4byte	0xdb2
 2157 0dae BC0D0000 		.4byte	0xdbc
 2158 0db2 36       		.uleb128 0x36
 2159 0db3 1B020000 		.4byte	.LASF186
 2160 0db7 BC0D0000 		.4byte	0xdbc
ARM GAS  C:\Users\Luis\AppData\Local\Temp\cc0p0Q9k.s 			page 39


 2161 0dbb 00       		.byte	0
 2162 0dbc 1B       		.uleb128 0x1b
 2163 0dbd 190D0000 		.4byte	0xd19
 2164 0dc1 37       		.uleb128 0x37
 2165 0dc2 A40D0000 		.4byte	0xda4
 2166 0dc6 97090000 		.4byte	.LASF188
 2167 0dca 00000000 		.4byte	.LFB262
 2168 0dce 20000000 		.4byte	.LFE262-.LFB262
 2169 0dd2 01       		.uleb128 0x1
 2170 0dd3 9C       		.byte	0x9c
 2171 0dd4 DC0D0000 		.4byte	0xddc
 2172 0dd8 E50D0000 		.4byte	0xde5
 2173 0ddc 38       		.uleb128 0x38
 2174 0ddd B20D0000 		.4byte	0xdb2
 2175 0de1 02       		.uleb128 0x2
 2176 0de2 91       		.byte	0x91
 2177 0de3 74       		.sleb128 -12
 2178 0de4 00       		.byte	0
 2179 0de5 35       		.uleb128 0x35
 2180 0de6 DD0C0000 		.4byte	0xcdd
 2181 0dea 00       		.byte	0
 2182 0deb F30D0000 		.4byte	0xdf3
 2183 0def 060E0000 		.4byte	0xe06
 2184 0df3 36       		.uleb128 0x36
 2185 0df4 1B020000 		.4byte	.LASF186
 2186 0df8 BC0D0000 		.4byte	0xdbc
 2187 0dfc 36       		.uleb128 0x36
 2188 0dfd 16000000 		.4byte	.LASF187
 2189 0e01 060E0000 		.4byte	0xe06
 2190 0e05 00       		.byte	0
 2191 0e06 1B       		.uleb128 0x1b
 2192 0e07 25000000 		.4byte	0x25
 2193 0e0b 39       		.uleb128 0x39
 2194 0e0c E50D0000 		.4byte	0xde5
 2195 0e10 7F080000 		.4byte	.LASF189
 2196 0e14 00000000 		.4byte	.LFB265
 2197 0e18 28000000 		.4byte	.LFE265-.LFB265
 2198 0e1c 01       		.uleb128 0x1
 2199 0e1d 9C       		.byte	0x9c
 2200 0e1e 260E0000 		.4byte	0xe26
 2201 0e22 2F0E0000 		.4byte	0xe2f
 2202 0e26 38       		.uleb128 0x38
 2203 0e27 F30D0000 		.4byte	0xdf3
 2204 0e2b 02       		.uleb128 0x2
 2205 0e2c 91       		.byte	0x91
 2206 0e2d 74       		.sleb128 -12
 2207 0e2e 00       		.byte	0
 2208 0e2f 39       		.uleb128 0x39
 2209 0e30 E50D0000 		.4byte	0xde5
 2210 0e34 89010000 		.4byte	.LASF190
 2211 0e38 00000000 		.4byte	.LFB267
 2212 0e3c 1E000000 		.4byte	.LFE267-.LFB267
 2213 0e40 01       		.uleb128 0x1
 2214 0e41 9C       		.byte	0x9c
 2215 0e42 4A0E0000 		.4byte	0xe4a
 2216 0e46 530E0000 		.4byte	0xe53
 2217 0e4a 38       		.uleb128 0x38
ARM GAS  C:\Users\Luis\AppData\Local\Temp\cc0p0Q9k.s 			page 40


 2218 0e4b F30D0000 		.4byte	0xdf3
 2219 0e4f 02       		.uleb128 0x2
 2220 0e50 91       		.byte	0x91
 2221 0e51 74       		.sleb128 -12
 2222 0e52 00       		.byte	0
 2223 0e53 3A       		.uleb128 0x3a
 2224 0e54 870C0000 		.4byte	0xc87
 2225 0e58 00000000 		.4byte	.LFB268
 2226 0e5c A0010000 		.4byte	.LFE268-.LFB268
 2227 0e60 01       		.uleb128 0x1
 2228 0e61 9C       		.byte	0x9c
 2229 0e62 6A0E0000 		.4byte	0xe6a
 2230 0e66 480F0000 		.4byte	0xf48
 2231 0e6a 3B       		.uleb128 0x3b
 2232 0e6b 1B020000 		.4byte	.LASF186
 2233 0e6f BC0D0000 		.4byte	0xdbc
 2234 0e73 03       		.uleb128 0x3
 2235 0e74 91       		.byte	0x91
 2236 0e75 B47F     		.sleb128 -76
 2237 0e77 3C       		.uleb128 0x3c
 2238 0e78 21070000 		.4byte	.LASF191
 2239 0e7c 02       		.byte	0x2
 2240 0e7d 1C       		.byte	0x1c
 2241 0e7e 2A0D0000 		.4byte	0xd2a
 2242 0e82 03       		.uleb128 0x3
 2243 0e83 91       		.byte	0x91
 2244 0e84 B07F     		.sleb128 -80
 2245 0e86 32       		.uleb128 0x32
 2246 0e87 0A000000 		.4byte	.LBB5
 2247 0e8b 7A010000 		.4byte	.LBE5-.LBB5
 2248 0e8f 34       		.uleb128 0x34
 2249 0e90 EB070000 		.4byte	.LASF192
 2250 0e94 02       		.byte	0x2
 2251 0e95 1E       		.byte	0x1e
 2252 0e96 4D0F0000 		.4byte	0xf4d
 2253 0e9a 02       		.uleb128 0x2
 2254 0e9b 91       		.byte	0x91
 2255 0e9c 60       		.sleb128 -32
 2256 0e9d 34       		.uleb128 0x34
 2257 0e9e 60030000 		.4byte	.LASF193
 2258 0ea2 02       		.byte	0x2
 2259 0ea3 25       		.byte	0x25
 2260 0ea4 25000000 		.4byte	0x25
 2261 0ea8 02       		.uleb128 0x2
 2262 0ea9 91       		.byte	0x91
 2263 0eaa 6C       		.sleb128 -20
 2264 0eab 34       		.uleb128 0x34
 2265 0eac 2D070000 		.4byte	.LASF194
 2266 0eb0 02       		.byte	0x2
 2267 0eb1 27       		.byte	0x27
 2268 0eb2 25000000 		.4byte	0x25
 2269 0eb6 02       		.uleb128 0x2
 2270 0eb7 91       		.byte	0x91
 2271 0eb8 5C       		.sleb128 -36
 2272 0eb9 34       		.uleb128 0x34
 2273 0eba D1000000 		.4byte	.LASF195
 2274 0ebe 02       		.byte	0x2
ARM GAS  C:\Users\Luis\AppData\Local\Temp\cc0p0Q9k.s 			page 41


 2275 0ebf 28       		.byte	0x28
 2276 0ec0 25000000 		.4byte	0x25
 2277 0ec4 02       		.uleb128 0x2
 2278 0ec5 91       		.byte	0x91
 2279 0ec6 58       		.sleb128 -40
 2280 0ec7 34       		.uleb128 0x34
 2281 0ec8 48070000 		.4byte	.LASF196
 2282 0ecc 02       		.byte	0x2
 2283 0ecd 2A       		.byte	0x2a
 2284 0ece 350D0000 		.4byte	0xd35
 2285 0ed2 02       		.uleb128 0x2
 2286 0ed3 91       		.byte	0x91
 2287 0ed4 54       		.sleb128 -44
 2288 0ed5 34       		.uleb128 0x34
 2289 0ed6 A8090000 		.4byte	.LASF197
 2290 0eda 02       		.byte	0x2
 2291 0edb 2B       		.byte	0x2b
 2292 0edc 3C0D0000 		.4byte	0xd3c
 2293 0ee0 02       		.uleb128 0x2
 2294 0ee1 91       		.byte	0x91
 2295 0ee2 50       		.sleb128 -48
 2296 0ee3 34       		.uleb128 0x34
 2297 0ee4 5F050000 		.4byte	.LASF198
 2298 0ee8 02       		.byte	0x2
 2299 0ee9 2C       		.byte	0x2c
 2300 0eea 3C0D0000 		.4byte	0xd3c
 2301 0eee 02       		.uleb128 0x2
 2302 0eef 91       		.byte	0x91
 2303 0ef0 4C       		.sleb128 -52
 2304 0ef1 34       		.uleb128 0x34
 2305 0ef2 56070000 		.4byte	.LASF199
 2306 0ef6 02       		.byte	0x2
 2307 0ef7 2E       		.byte	0x2e
 2308 0ef8 350D0000 		.4byte	0xd35
 2309 0efc 02       		.uleb128 0x2
 2310 0efd 91       		.byte	0x91
 2311 0efe 48       		.sleb128 -56
 2312 0eff 34       		.uleb128 0x34
 2313 0f00 8B080000 		.4byte	.LASF200
 2314 0f04 02       		.byte	0x2
 2315 0f05 2F       		.byte	0x2f
 2316 0f06 3C0D0000 		.4byte	0xd3c
 2317 0f0a 02       		.uleb128 0x2
 2318 0f0b 91       		.byte	0x91
 2319 0f0c 44       		.sleb128 -60
 2320 0f0d 34       		.uleb128 0x34
 2321 0f0e 6D050000 		.4byte	.LASF201
 2322 0f12 02       		.byte	0x2
 2323 0f13 30       		.byte	0x30
 2324 0f14 3C0D0000 		.4byte	0xd3c
 2325 0f18 02       		.uleb128 0x2
 2326 0f19 91       		.byte	0x91
 2327 0f1a 40       		.sleb128 -64
 2328 0f1b 34       		.uleb128 0x34
 2329 0f1c 5D010000 		.4byte	.LASF202
 2330 0f20 02       		.byte	0x2
 2331 0f21 32       		.byte	0x32
ARM GAS  C:\Users\Luis\AppData\Local\Temp\cc0p0Q9k.s 			page 42


 2332 0f22 3C0D0000 		.4byte	0xd3c
 2333 0f26 03       		.uleb128 0x3
 2334 0f27 91       		.byte	0x91
 2335 0f28 BC7F     		.sleb128 -68
 2336 0f2a 34       		.uleb128 0x34
 2337 0f2b F0080000 		.4byte	.LASF203
 2338 0f2f 02       		.byte	0x2
 2339 0f30 34       		.byte	0x34
 2340 0f31 25000000 		.4byte	0x25
 2341 0f35 02       		.uleb128 0x2
 2342 0f36 91       		.byte	0x91
 2343 0f37 68       		.sleb128 -24
 2344 0f38 34       		.uleb128 0x34
 2345 0f39 F8010000 		.4byte	.LASF204
 2346 0f3d 02       		.byte	0x2
 2347 0f3e 35       		.byte	0x35
 2348 0f3f CF0A0000 		.4byte	0xacf
 2349 0f43 02       		.uleb128 0x2
 2350 0f44 91       		.byte	0x91
 2351 0f45 67       		.sleb128 -25
 2352 0f46 00       		.byte	0
 2353 0f47 00       		.byte	0
 2354 0f48 2F       		.uleb128 0x2f
 2355 0f49 C1030000 		.4byte	.LASF206
 2356 0f4d 0C       		.uleb128 0xc
 2357 0f4e 04       		.byte	0x4
 2358 0f4f 480F0000 		.4byte	0xf48
 2359 0f53 3D       		.uleb128 0x3d
 2360 0f54 FE000000 		.4byte	.LASF207
 2361 0f58 18       		.byte	0x18
 2362 0f59 A706     		.2byte	0x6a7
 2363 0f5b A2000000 		.4byte	0xa2
 2364 0f5f 3E       		.uleb128 0x3e
 2365 0f60 636800   		.ascii	"ch\000"
 2366 0f63 07       		.byte	0x7
 2367 0f64 0902     		.2byte	0x209
 2368 0f66 8A040000 		.4byte	0x48a
 2369 0f6a 3E       		.uleb128 0x3e
 2370 0f6b 53443100 		.ascii	"SD1\000"
 2371 0f6f 16       		.byte	0x16
 2372 0f70 0F01     		.2byte	0x10f
 2373 0f72 000B0000 		.4byte	0xb00
 2374 0f76 00       		.byte	0
 2375              		.section	.debug_abbrev,"",%progbits
 2376              	.Ldebug_abbrev0:
 2377 0000 01       		.uleb128 0x1
 2378 0001 11       		.uleb128 0x11
 2379 0002 01       		.byte	0x1
 2380 0003 25       		.uleb128 0x25
 2381 0004 0E       		.uleb128 0xe
 2382 0005 13       		.uleb128 0x13
 2383 0006 0B       		.uleb128 0xb
 2384 0007 03       		.uleb128 0x3
 2385 0008 0E       		.uleb128 0xe
 2386 0009 1B       		.uleb128 0x1b
 2387 000a 0E       		.uleb128 0xe
 2388 000b 55       		.uleb128 0x55
ARM GAS  C:\Users\Luis\AppData\Local\Temp\cc0p0Q9k.s 			page 43


 2389 000c 17       		.uleb128 0x17
 2390 000d 11       		.uleb128 0x11
 2391 000e 01       		.uleb128 0x1
 2392 000f 10       		.uleb128 0x10
 2393 0010 17       		.uleb128 0x17
 2394 0011 00       		.byte	0
 2395 0012 00       		.byte	0
 2396 0013 02       		.uleb128 0x2
 2397 0014 24       		.uleb128 0x24
 2398 0015 00       		.byte	0
 2399 0016 0B       		.uleb128 0xb
 2400 0017 0B       		.uleb128 0xb
 2401 0018 3E       		.uleb128 0x3e
 2402 0019 0B       		.uleb128 0xb
 2403 001a 03       		.uleb128 0x3
 2404 001b 08       		.uleb128 0x8
 2405 001c 00       		.byte	0
 2406 001d 00       		.byte	0
 2407 001e 03       		.uleb128 0x3
 2408 001f 16       		.uleb128 0x16
 2409 0020 00       		.byte	0
 2410 0021 03       		.uleb128 0x3
 2411 0022 0E       		.uleb128 0xe
 2412 0023 3A       		.uleb128 0x3a
 2413 0024 0B       		.uleb128 0xb
 2414 0025 3B       		.uleb128 0x3b
 2415 0026 0B       		.uleb128 0xb
 2416 0027 49       		.uleb128 0x49
 2417 0028 13       		.uleb128 0x13
 2418 0029 00       		.byte	0
 2419 002a 00       		.byte	0
 2420 002b 04       		.uleb128 0x4
 2421 002c 24       		.uleb128 0x24
 2422 002d 00       		.byte	0
 2423 002e 0B       		.uleb128 0xb
 2424 002f 0B       		.uleb128 0xb
 2425 0030 3E       		.uleb128 0x3e
 2426 0031 0B       		.uleb128 0xb
 2427 0032 03       		.uleb128 0x3
 2428 0033 0E       		.uleb128 0xe
 2429 0034 00       		.byte	0
 2430 0035 00       		.byte	0
 2431 0036 05       		.uleb128 0x5
 2432 0037 35       		.uleb128 0x35
 2433 0038 00       		.byte	0
 2434 0039 49       		.uleb128 0x49
 2435 003a 13       		.uleb128 0x13
 2436 003b 00       		.byte	0
 2437 003c 00       		.byte	0
 2438 003d 06       		.uleb128 0x6
 2439 003e 13       		.uleb128 0x13
 2440 003f 01       		.byte	0x1
 2441 0040 03       		.uleb128 0x3
 2442 0041 0E       		.uleb128 0xe
 2443 0042 0B       		.uleb128 0xb
 2444 0043 0B       		.uleb128 0xb
 2445 0044 3A       		.uleb128 0x3a
ARM GAS  C:\Users\Luis\AppData\Local\Temp\cc0p0Q9k.s 			page 44


 2446 0045 0B       		.uleb128 0xb
 2447 0046 3B       		.uleb128 0x3b
 2448 0047 0B       		.uleb128 0xb
 2449 0048 01       		.uleb128 0x1
 2450 0049 13       		.uleb128 0x13
 2451 004a 00       		.byte	0
 2452 004b 00       		.byte	0
 2453 004c 07       		.uleb128 0x7
 2454 004d 17       		.uleb128 0x17
 2455 004e 01       		.byte	0x1
 2456 004f 0B       		.uleb128 0xb
 2457 0050 0B       		.uleb128 0xb
 2458 0051 3A       		.uleb128 0x3a
 2459 0052 0B       		.uleb128 0xb
 2460 0053 3B       		.uleb128 0x3b
 2461 0054 0B       		.uleb128 0xb
 2462 0055 01       		.uleb128 0x1
 2463 0056 13       		.uleb128 0x13
 2464 0057 00       		.byte	0
 2465 0058 00       		.byte	0
 2466 0059 08       		.uleb128 0x8
 2467 005a 0D       		.uleb128 0xd
 2468 005b 00       		.byte	0
 2469 005c 03       		.uleb128 0x3
 2470 005d 0E       		.uleb128 0xe
 2471 005e 3A       		.uleb128 0x3a
 2472 005f 0B       		.uleb128 0xb
 2473 0060 3B       		.uleb128 0x3b
 2474 0061 05       		.uleb128 0x5
 2475 0062 49       		.uleb128 0x49
 2476 0063 13       		.uleb128 0x13
 2477 0064 00       		.byte	0
 2478 0065 00       		.byte	0
 2479 0066 09       		.uleb128 0x9
 2480 0067 0D       		.uleb128 0xd
 2481 0068 00       		.byte	0
 2482 0069 03       		.uleb128 0x3
 2483 006a 0E       		.uleb128 0xe
 2484 006b 3A       		.uleb128 0x3a
 2485 006c 0B       		.uleb128 0xb
 2486 006d 3B       		.uleb128 0x3b
 2487 006e 0B       		.uleb128 0xb
 2488 006f 49       		.uleb128 0x49
 2489 0070 13       		.uleb128 0x13
 2490 0071 38       		.uleb128 0x38
 2491 0072 0B       		.uleb128 0xb
 2492 0073 00       		.byte	0
 2493 0074 00       		.byte	0
 2494 0075 0A       		.uleb128 0xa
 2495 0076 0D       		.uleb128 0xd
 2496 0077 00       		.byte	0
 2497 0078 03       		.uleb128 0x3
 2498 0079 08       		.uleb128 0x8
 2499 007a 3A       		.uleb128 0x3a
 2500 007b 0B       		.uleb128 0xb
 2501 007c 3B       		.uleb128 0x3b
 2502 007d 05       		.uleb128 0x5
ARM GAS  C:\Users\Luis\AppData\Local\Temp\cc0p0Q9k.s 			page 45


 2503 007e 49       		.uleb128 0x49
 2504 007f 13       		.uleb128 0x13
 2505 0080 38       		.uleb128 0x38
 2506 0081 0B       		.uleb128 0xb
 2507 0082 00       		.byte	0
 2508 0083 00       		.byte	0
 2509 0084 0B       		.uleb128 0xb
 2510 0085 0D       		.uleb128 0xd
 2511 0086 00       		.byte	0
 2512 0087 03       		.uleb128 0x3
 2513 0088 0E       		.uleb128 0xe
 2514 0089 3A       		.uleb128 0x3a
 2515 008a 0B       		.uleb128 0xb
 2516 008b 3B       		.uleb128 0x3b
 2517 008c 05       		.uleb128 0x5
 2518 008d 49       		.uleb128 0x49
 2519 008e 13       		.uleb128 0x13
 2520 008f 38       		.uleb128 0x38
 2521 0090 0B       		.uleb128 0xb
 2522 0091 00       		.byte	0
 2523 0092 00       		.byte	0
 2524 0093 0C       		.uleb128 0xc
 2525 0094 0F       		.uleb128 0xf
 2526 0095 00       		.byte	0
 2527 0096 0B       		.uleb128 0xb
 2528 0097 0B       		.uleb128 0xb
 2529 0098 49       		.uleb128 0x49
 2530 0099 13       		.uleb128 0x13
 2531 009a 00       		.byte	0
 2532 009b 00       		.byte	0
 2533 009c 0D       		.uleb128 0xd
 2534 009d 13       		.uleb128 0x13
 2535 009e 01       		.byte	0x1
 2536 009f 03       		.uleb128 0x3
 2537 00a0 0E       		.uleb128 0xe
 2538 00a1 0B       		.uleb128 0xb
 2539 00a2 0B       		.uleb128 0xb
 2540 00a3 3A       		.uleb128 0x3a
 2541 00a4 0B       		.uleb128 0xb
 2542 00a5 3B       		.uleb128 0x3b
 2543 00a6 05       		.uleb128 0x5
 2544 00a7 01       		.uleb128 0x1
 2545 00a8 13       		.uleb128 0x13
 2546 00a9 00       		.byte	0
 2547 00aa 00       		.byte	0
 2548 00ab 0E       		.uleb128 0xe
 2549 00ac 15       		.uleb128 0x15
 2550 00ad 01       		.byte	0x1
 2551 00ae 01       		.uleb128 0x1
 2552 00af 13       		.uleb128 0x13
 2553 00b0 00       		.byte	0
 2554 00b1 00       		.byte	0
 2555 00b2 0F       		.uleb128 0xf
 2556 00b3 05       		.uleb128 0x5
 2557 00b4 00       		.byte	0
 2558 00b5 49       		.uleb128 0x49
 2559 00b6 13       		.uleb128 0x13
ARM GAS  C:\Users\Luis\AppData\Local\Temp\cc0p0Q9k.s 			page 46


 2560 00b7 00       		.byte	0
 2561 00b8 00       		.byte	0
 2562 00b9 10       		.uleb128 0x10
 2563 00ba 0F       		.uleb128 0xf
 2564 00bb 00       		.byte	0
 2565 00bc 0B       		.uleb128 0xb
 2566 00bd 0B       		.uleb128 0xb
 2567 00be 00       		.byte	0
 2568 00bf 00       		.byte	0
 2569 00c0 11       		.uleb128 0x11
 2570 00c1 13       		.uleb128 0x13
 2571 00c2 01       		.byte	0x1
 2572 00c3 03       		.uleb128 0x3
 2573 00c4 0E       		.uleb128 0xe
 2574 00c5 0B       		.uleb128 0xb
 2575 00c6 05       		.uleb128 0x5
 2576 00c7 3A       		.uleb128 0x3a
 2577 00c8 0B       		.uleb128 0xb
 2578 00c9 3B       		.uleb128 0x3b
 2579 00ca 05       		.uleb128 0x5
 2580 00cb 01       		.uleb128 0x1
 2581 00cc 13       		.uleb128 0x13
 2582 00cd 00       		.byte	0
 2583 00ce 00       		.byte	0
 2584 00cf 12       		.uleb128 0x12
 2585 00d0 0D       		.uleb128 0xd
 2586 00d1 00       		.byte	0
 2587 00d2 03       		.uleb128 0x3
 2588 00d3 0E       		.uleb128 0xe
 2589 00d4 3A       		.uleb128 0x3a
 2590 00d5 0B       		.uleb128 0xb
 2591 00d6 3B       		.uleb128 0x3b
 2592 00d7 05       		.uleb128 0x5
 2593 00d8 49       		.uleb128 0x49
 2594 00d9 13       		.uleb128 0x13
 2595 00da 38       		.uleb128 0x38
 2596 00db 05       		.uleb128 0x5
 2597 00dc 00       		.byte	0
 2598 00dd 00       		.byte	0
 2599 00de 13       		.uleb128 0x13
 2600 00df 0D       		.uleb128 0xd
 2601 00e0 00       		.byte	0
 2602 00e1 03       		.uleb128 0x3
 2603 00e2 08       		.uleb128 0x8
 2604 00e3 3A       		.uleb128 0x3a
 2605 00e4 0B       		.uleb128 0xb
 2606 00e5 3B       		.uleb128 0x3b
 2607 00e6 05       		.uleb128 0x5
 2608 00e7 49       		.uleb128 0x49
 2609 00e8 13       		.uleb128 0x13
 2610 00e9 38       		.uleb128 0x38
 2611 00ea 05       		.uleb128 0x5
 2612 00eb 00       		.byte	0
 2613 00ec 00       		.byte	0
 2614 00ed 14       		.uleb128 0x14
 2615 00ee 13       		.uleb128 0x13
 2616 00ef 01       		.byte	0x1
ARM GAS  C:\Users\Luis\AppData\Local\Temp\cc0p0Q9k.s 			page 47


 2617 00f0 0B       		.uleb128 0xb
 2618 00f1 0B       		.uleb128 0xb
 2619 00f2 3A       		.uleb128 0x3a
 2620 00f3 0B       		.uleb128 0xb
 2621 00f4 3B       		.uleb128 0x3b
 2622 00f5 05       		.uleb128 0x5
 2623 00f6 6E       		.uleb128 0x6e
 2624 00f7 0E       		.uleb128 0xe
 2625 00f8 01       		.uleb128 0x1
 2626 00f9 13       		.uleb128 0x13
 2627 00fa 00       		.byte	0
 2628 00fb 00       		.byte	0
 2629 00fc 15       		.uleb128 0x15
 2630 00fd 16       		.uleb128 0x16
 2631 00fe 00       		.byte	0
 2632 00ff 03       		.uleb128 0x3
 2633 0100 0E       		.uleb128 0xe
 2634 0101 3A       		.uleb128 0x3a
 2635 0102 0B       		.uleb128 0xb
 2636 0103 3B       		.uleb128 0x3b
 2637 0104 05       		.uleb128 0x5
 2638 0105 49       		.uleb128 0x49
 2639 0106 13       		.uleb128 0x13
 2640 0107 00       		.byte	0
 2641 0108 00       		.byte	0
 2642 0109 16       		.uleb128 0x16
 2643 010a 0D       		.uleb128 0xd
 2644 010b 00       		.byte	0
 2645 010c 03       		.uleb128 0x3
 2646 010d 08       		.uleb128 0x8
 2647 010e 3A       		.uleb128 0x3a
 2648 010f 0B       		.uleb128 0xb
 2649 0110 3B       		.uleb128 0x3b
 2650 0111 0B       		.uleb128 0xb
 2651 0112 49       		.uleb128 0x49
 2652 0113 13       		.uleb128 0x13
 2653 0114 38       		.uleb128 0x38
 2654 0115 0B       		.uleb128 0xb
 2655 0116 00       		.byte	0
 2656 0117 00       		.byte	0
 2657 0118 17       		.uleb128 0x17
 2658 0119 13       		.uleb128 0x13
 2659 011a 01       		.byte	0x1
 2660 011b 0B       		.uleb128 0xb
 2661 011c 0B       		.uleb128 0xb
 2662 011d 3A       		.uleb128 0x3a
 2663 011e 0B       		.uleb128 0xb
 2664 011f 3B       		.uleb128 0x3b
 2665 0120 0B       		.uleb128 0xb
 2666 0121 6E       		.uleb128 0x6e
 2667 0122 0E       		.uleb128 0xe
 2668 0123 01       		.uleb128 0x1
 2669 0124 13       		.uleb128 0x13
 2670 0125 00       		.byte	0
 2671 0126 00       		.byte	0
 2672 0127 18       		.uleb128 0x18
 2673 0128 13       		.uleb128 0x13
ARM GAS  C:\Users\Luis\AppData\Local\Temp\cc0p0Q9k.s 			page 48


 2674 0129 01       		.byte	0x1
 2675 012a 0B       		.uleb128 0xb
 2676 012b 05       		.uleb128 0x5
 2677 012c 3A       		.uleb128 0x3a
 2678 012d 0B       		.uleb128 0xb
 2679 012e 3B       		.uleb128 0x3b
 2680 012f 0B       		.uleb128 0xb
 2681 0130 6E       		.uleb128 0x6e
 2682 0131 0E       		.uleb128 0xe
 2683 0132 01       		.uleb128 0x1
 2684 0133 13       		.uleb128 0x13
 2685 0134 00       		.byte	0
 2686 0135 00       		.byte	0
 2687 0136 19       		.uleb128 0x19
 2688 0137 01       		.uleb128 0x1
 2689 0138 01       		.byte	0x1
 2690 0139 49       		.uleb128 0x49
 2691 013a 13       		.uleb128 0x13
 2692 013b 01       		.uleb128 0x1
 2693 013c 13       		.uleb128 0x13
 2694 013d 00       		.byte	0
 2695 013e 00       		.byte	0
 2696 013f 1A       		.uleb128 0x1a
 2697 0140 21       		.uleb128 0x21
 2698 0141 00       		.byte	0
 2699 0142 49       		.uleb128 0x49
 2700 0143 13       		.uleb128 0x13
 2701 0144 2F       		.uleb128 0x2f
 2702 0145 0B       		.uleb128 0xb
 2703 0146 00       		.byte	0
 2704 0147 00       		.byte	0
 2705 0148 1B       		.uleb128 0x1b
 2706 0149 26       		.uleb128 0x26
 2707 014a 00       		.byte	0
 2708 014b 49       		.uleb128 0x49
 2709 014c 13       		.uleb128 0x13
 2710 014d 00       		.byte	0
 2711 014e 00       		.byte	0
 2712 014f 1C       		.uleb128 0x1c
 2713 0150 15       		.uleb128 0x15
 2714 0151 01       		.byte	0x1
 2715 0152 49       		.uleb128 0x49
 2716 0153 13       		.uleb128 0x13
 2717 0154 01       		.uleb128 0x1
 2718 0155 13       		.uleb128 0x13
 2719 0156 00       		.byte	0
 2720 0157 00       		.byte	0
 2721 0158 1D       		.uleb128 0x1d
 2722 0159 04       		.uleb128 0x4
 2723 015a 01       		.byte	0x1
 2724 015b 0B       		.uleb128 0xb
 2725 015c 0B       		.uleb128 0xb
 2726 015d 3A       		.uleb128 0x3a
 2727 015e 0B       		.uleb128 0xb
 2728 015f 3B       		.uleb128 0x3b
 2729 0160 0B       		.uleb128 0xb
 2730 0161 6E       		.uleb128 0x6e
ARM GAS  C:\Users\Luis\AppData\Local\Temp\cc0p0Q9k.s 			page 49


 2731 0162 0E       		.uleb128 0xe
 2732 0163 01       		.uleb128 0x1
 2733 0164 13       		.uleb128 0x13
 2734 0165 00       		.byte	0
 2735 0166 00       		.byte	0
 2736 0167 1E       		.uleb128 0x1e
 2737 0168 28       		.uleb128 0x28
 2738 0169 00       		.byte	0
 2739 016a 03       		.uleb128 0x3
 2740 016b 0E       		.uleb128 0xe
 2741 016c 1C       		.uleb128 0x1c
 2742 016d 0D       		.uleb128 0xd
 2743 016e 00       		.byte	0
 2744 016f 00       		.byte	0
 2745 0170 1F       		.uleb128 0x1f
 2746 0171 13       		.uleb128 0x13
 2747 0172 01       		.byte	0x1
 2748 0173 03       		.uleb128 0x3
 2749 0174 0E       		.uleb128 0xe
 2750 0175 0B       		.uleb128 0xb
 2751 0176 05       		.uleb128 0x5
 2752 0177 3A       		.uleb128 0x3a
 2753 0178 0B       		.uleb128 0xb
 2754 0179 3B       		.uleb128 0x3b
 2755 017a 0B       		.uleb128 0xb
 2756 017b 01       		.uleb128 0x1
 2757 017c 13       		.uleb128 0x13
 2758 017d 00       		.byte	0
 2759 017e 00       		.byte	0
 2760 017f 20       		.uleb128 0x20
 2761 0180 0D       		.uleb128 0xd
 2762 0181 00       		.byte	0
 2763 0182 03       		.uleb128 0x3
 2764 0183 08       		.uleb128 0x8
 2765 0184 3A       		.uleb128 0x3a
 2766 0185 0B       		.uleb128 0xb
 2767 0186 3B       		.uleb128 0x3b
 2768 0187 0B       		.uleb128 0xb
 2769 0188 49       		.uleb128 0x49
 2770 0189 13       		.uleb128 0x13
 2771 018a 38       		.uleb128 0x38
 2772 018b 05       		.uleb128 0x5
 2773 018c 00       		.byte	0
 2774 018d 00       		.byte	0
 2775 018e 21       		.uleb128 0x21
 2776 018f 0D       		.uleb128 0xd
 2777 0190 00       		.byte	0
 2778 0191 03       		.uleb128 0x3
 2779 0192 0E       		.uleb128 0xe
 2780 0193 3A       		.uleb128 0x3a
 2781 0194 0B       		.uleb128 0xb
 2782 0195 3B       		.uleb128 0x3b
 2783 0196 0B       		.uleb128 0xb
 2784 0197 49       		.uleb128 0x49
 2785 0198 13       		.uleb128 0x13
 2786 0199 38       		.uleb128 0x38
 2787 019a 05       		.uleb128 0x5
ARM GAS  C:\Users\Luis\AppData\Local\Temp\cc0p0Q9k.s 			page 50


 2788 019b 00       		.byte	0
 2789 019c 00       		.byte	0
 2790 019d 22       		.uleb128 0x22
 2791 019e 21       		.uleb128 0x21
 2792 019f 00       		.byte	0
 2793 01a0 49       		.uleb128 0x49
 2794 01a1 13       		.uleb128 0x13
 2795 01a2 2F       		.uleb128 0x2f
 2796 01a3 05       		.uleb128 0x5
 2797 01a4 00       		.byte	0
 2798 01a5 00       		.byte	0
 2799 01a6 23       		.uleb128 0x23
 2800 01a7 0D       		.uleb128 0xd
 2801 01a8 00       		.byte	0
 2802 01a9 03       		.uleb128 0x3
 2803 01aa 0E       		.uleb128 0xe
 2804 01ab 49       		.uleb128 0x49
 2805 01ac 13       		.uleb128 0x13
 2806 01ad 38       		.uleb128 0x38
 2807 01ae 0B       		.uleb128 0xb
 2808 01af 34       		.uleb128 0x34
 2809 01b0 19       		.uleb128 0x19
 2810 01b1 00       		.byte	0
 2811 01b2 00       		.byte	0
 2812 01b3 24       		.uleb128 0x24
 2813 01b4 02       		.uleb128 0x2
 2814 01b5 01       		.byte	0x1
 2815 01b6 03       		.uleb128 0x3
 2816 01b7 08       		.uleb128 0x8
 2817 01b8 0B       		.uleb128 0xb
 2818 01b9 0B       		.uleb128 0xb
 2819 01ba 3A       		.uleb128 0x3a
 2820 01bb 0B       		.uleb128 0xb
 2821 01bc 3B       		.uleb128 0x3b
 2822 01bd 0B       		.uleb128 0xb
 2823 01be 1D       		.uleb128 0x1d
 2824 01bf 13       		.uleb128 0x13
 2825 01c0 01       		.uleb128 0x1
 2826 01c1 13       		.uleb128 0x13
 2827 01c2 00       		.byte	0
 2828 01c3 00       		.byte	0
 2829 01c4 25       		.uleb128 0x25
 2830 01c5 0D       		.uleb128 0xd
 2831 01c6 00       		.byte	0
 2832 01c7 03       		.uleb128 0x3
 2833 01c8 0E       		.uleb128 0xe
 2834 01c9 49       		.uleb128 0x49
 2835 01ca 13       		.uleb128 0x13
 2836 01cb 38       		.uleb128 0x38
 2837 01cc 0B       		.uleb128 0xb
 2838 01cd 34       		.uleb128 0x34
 2839 01ce 19       		.uleb128 0x19
 2840 01cf 32       		.uleb128 0x32
 2841 01d0 0B       		.uleb128 0xb
 2842 01d1 00       		.byte	0
 2843 01d2 00       		.byte	0
 2844 01d3 26       		.uleb128 0x26
ARM GAS  C:\Users\Luis\AppData\Local\Temp\cc0p0Q9k.s 			page 51


 2845 01d4 2E       		.uleb128 0x2e
 2846 01d5 01       		.byte	0x1
 2847 01d6 3F       		.uleb128 0x3f
 2848 01d7 19       		.uleb128 0x19
 2849 01d8 03       		.uleb128 0x3
 2850 01d9 08       		.uleb128 0x8
 2851 01da 49       		.uleb128 0x49
 2852 01db 13       		.uleb128 0x13
 2853 01dc 34       		.uleb128 0x34
 2854 01dd 19       		.uleb128 0x19
 2855 01de 32       		.uleb128 0x32
 2856 01df 0B       		.uleb128 0xb
 2857 01e0 3C       		.uleb128 0x3c
 2858 01e1 19       		.uleb128 0x19
 2859 01e2 64       		.uleb128 0x64
 2860 01e3 13       		.uleb128 0x13
 2861 01e4 01       		.uleb128 0x1
 2862 01e5 13       		.uleb128 0x13
 2863 01e6 00       		.byte	0
 2864 01e7 00       		.byte	0
 2865 01e8 27       		.uleb128 0x27
 2866 01e9 05       		.uleb128 0x5
 2867 01ea 00       		.byte	0
 2868 01eb 49       		.uleb128 0x49
 2869 01ec 13       		.uleb128 0x13
 2870 01ed 34       		.uleb128 0x34
 2871 01ee 19       		.uleb128 0x19
 2872 01ef 00       		.byte	0
 2873 01f0 00       		.byte	0
 2874 01f1 28       		.uleb128 0x28
 2875 01f2 2E       		.uleb128 0x2e
 2876 01f3 01       		.byte	0x1
 2877 01f4 3F       		.uleb128 0x3f
 2878 01f5 19       		.uleb128 0x19
 2879 01f6 03       		.uleb128 0x3
 2880 01f7 08       		.uleb128 0x8
 2881 01f8 3A       		.uleb128 0x3a
 2882 01f9 0B       		.uleb128 0xb
 2883 01fa 3B       		.uleb128 0x3b
 2884 01fb 0B       		.uleb128 0xb
 2885 01fc 49       		.uleb128 0x49
 2886 01fd 13       		.uleb128 0x13
 2887 01fe 32       		.uleb128 0x32
 2888 01ff 0B       		.uleb128 0xb
 2889 0200 3C       		.uleb128 0x3c
 2890 0201 19       		.uleb128 0x19
 2891 0202 64       		.uleb128 0x64
 2892 0203 13       		.uleb128 0x13
 2893 0204 01       		.uleb128 0x1
 2894 0205 13       		.uleb128 0x13
 2895 0206 00       		.byte	0
 2896 0207 00       		.byte	0
 2897 0208 29       		.uleb128 0x29
 2898 0209 2E       		.uleb128 0x2e
 2899 020a 01       		.byte	0x1
 2900 020b 3F       		.uleb128 0x3f
 2901 020c 19       		.uleb128 0x19
ARM GAS  C:\Users\Luis\AppData\Local\Temp\cc0p0Q9k.s 			page 52


 2902 020d 03       		.uleb128 0x3
 2903 020e 0E       		.uleb128 0xe
 2904 020f 3A       		.uleb128 0x3a
 2905 0210 0B       		.uleb128 0xb
 2906 0211 3B       		.uleb128 0x3b
 2907 0212 0B       		.uleb128 0xb
 2908 0213 6E       		.uleb128 0x6e
 2909 0214 0E       		.uleb128 0xe
 2910 0215 32       		.uleb128 0x32
 2911 0216 0B       		.uleb128 0xb
 2912 0217 3C       		.uleb128 0x3c
 2913 0218 19       		.uleb128 0x19
 2914 0219 64       		.uleb128 0x64
 2915 021a 13       		.uleb128 0x13
 2916 021b 01       		.uleb128 0x1
 2917 021c 13       		.uleb128 0x13
 2918 021d 00       		.byte	0
 2919 021e 00       		.byte	0
 2920 021f 2A       		.uleb128 0x2a
 2921 0220 2E       		.uleb128 0x2e
 2922 0221 01       		.byte	0x1
 2923 0222 3F       		.uleb128 0x3f
 2924 0223 19       		.uleb128 0x19
 2925 0224 03       		.uleb128 0x3
 2926 0225 08       		.uleb128 0x8
 2927 0226 3A       		.uleb128 0x3a
 2928 0227 0B       		.uleb128 0xb
 2929 0228 3B       		.uleb128 0x3b
 2930 0229 0B       		.uleb128 0xb
 2931 022a 6E       		.uleb128 0x6e
 2932 022b 0E       		.uleb128 0xe
 2933 022c 49       		.uleb128 0x49
 2934 022d 13       		.uleb128 0x13
 2935 022e 32       		.uleb128 0x32
 2936 022f 0B       		.uleb128 0xb
 2937 0230 3C       		.uleb128 0x3c
 2938 0231 19       		.uleb128 0x19
 2939 0232 64       		.uleb128 0x64
 2940 0233 13       		.uleb128 0x13
 2941 0234 01       		.uleb128 0x1
 2942 0235 13       		.uleb128 0x13
 2943 0236 00       		.byte	0
 2944 0237 00       		.byte	0
 2945 0238 2B       		.uleb128 0x2b
 2946 0239 2E       		.uleb128 0x2e
 2947 023a 01       		.byte	0x1
 2948 023b 3F       		.uleb128 0x3f
 2949 023c 19       		.uleb128 0x19
 2950 023d 03       		.uleb128 0x3
 2951 023e 0E       		.uleb128 0xe
 2952 023f 3A       		.uleb128 0x3a
 2953 0240 0B       		.uleb128 0xb
 2954 0241 3B       		.uleb128 0x3b
 2955 0242 0B       		.uleb128 0xb
 2956 0243 49       		.uleb128 0x49
 2957 0244 13       		.uleb128 0x13
 2958 0245 4C       		.uleb128 0x4c
ARM GAS  C:\Users\Luis\AppData\Local\Temp\cc0p0Q9k.s 			page 53


 2959 0246 0B       		.uleb128 0xb
 2960 0247 1D       		.uleb128 0x1d
 2961 0248 13       		.uleb128 0x13
 2962 0249 32       		.uleb128 0x32
 2963 024a 0B       		.uleb128 0xb
 2964 024b 3C       		.uleb128 0x3c
 2965 024c 19       		.uleb128 0x19
 2966 024d 64       		.uleb128 0x64
 2967 024e 13       		.uleb128 0x13
 2968 024f 00       		.byte	0
 2969 0250 00       		.byte	0
 2970 0251 2C       		.uleb128 0x2c
 2971 0252 18       		.uleb128 0x18
 2972 0253 00       		.byte	0
 2973 0254 00       		.byte	0
 2974 0255 00       		.byte	0
 2975 0256 2D       		.uleb128 0x2d
 2976 0257 0F       		.uleb128 0xf
 2977 0258 00       		.byte	0
 2978 0259 0B       		.uleb128 0xb
 2979 025a 0B       		.uleb128 0xb
 2980 025b 03       		.uleb128 0x3
 2981 025c 0E       		.uleb128 0xe
 2982 025d 49       		.uleb128 0x49
 2983 025e 13       		.uleb128 0x13
 2984 025f 00       		.byte	0
 2985 0260 00       		.byte	0
 2986 0261 2E       		.uleb128 0x2e
 2987 0262 10       		.uleb128 0x10
 2988 0263 00       		.byte	0
 2989 0264 0B       		.uleb128 0xb
 2990 0265 0B       		.uleb128 0xb
 2991 0266 49       		.uleb128 0x49
 2992 0267 13       		.uleb128 0x13
 2993 0268 00       		.byte	0
 2994 0269 00       		.byte	0
 2995 026a 2F       		.uleb128 0x2f
 2996 026b 02       		.uleb128 0x2
 2997 026c 00       		.byte	0
 2998 026d 03       		.uleb128 0x3
 2999 026e 0E       		.uleb128 0xe
 3000 026f 3C       		.uleb128 0x3c
 3001 0270 19       		.uleb128 0x19
 3002 0271 00       		.byte	0
 3003 0272 00       		.byte	0
 3004 0273 30       		.uleb128 0x30
 3005 0274 2E       		.uleb128 0x2e
 3006 0275 01       		.byte	0x1
 3007 0276 03       		.uleb128 0x3
 3008 0277 0E       		.uleb128 0xe
 3009 0278 3A       		.uleb128 0x3a
 3010 0279 0B       		.uleb128 0xb
 3011 027a 3B       		.uleb128 0x3b
 3012 027b 0B       		.uleb128 0xb
 3013 027c 49       		.uleb128 0x49
 3014 027d 13       		.uleb128 0x13
 3015 027e 11       		.uleb128 0x11
ARM GAS  C:\Users\Luis\AppData\Local\Temp\cc0p0Q9k.s 			page 54


 3016 027f 01       		.uleb128 0x1
 3017 0280 12       		.uleb128 0x12
 3018 0281 06       		.uleb128 0x6
 3019 0282 40       		.uleb128 0x40
 3020 0283 18       		.uleb128 0x18
 3021 0284 9642     		.uleb128 0x2116
 3022 0286 19       		.uleb128 0x19
 3023 0287 01       		.uleb128 0x1
 3024 0288 13       		.uleb128 0x13
 3025 0289 00       		.byte	0
 3026 028a 00       		.byte	0
 3027 028b 31       		.uleb128 0x31
 3028 028c 05       		.uleb128 0x5
 3029 028d 00       		.byte	0
 3030 028e 03       		.uleb128 0x3
 3031 028f 08       		.uleb128 0x8
 3032 0290 3A       		.uleb128 0x3a
 3033 0291 0B       		.uleb128 0xb
 3034 0292 3B       		.uleb128 0x3b
 3035 0293 0B       		.uleb128 0xb
 3036 0294 49       		.uleb128 0x49
 3037 0295 13       		.uleb128 0x13
 3038 0296 02       		.uleb128 0x2
 3039 0297 18       		.uleb128 0x18
 3040 0298 00       		.byte	0
 3041 0299 00       		.byte	0
 3042 029a 32       		.uleb128 0x32
 3043 029b 0B       		.uleb128 0xb
 3044 029c 01       		.byte	0x1
 3045 029d 11       		.uleb128 0x11
 3046 029e 01       		.uleb128 0x1
 3047 029f 12       		.uleb128 0x12
 3048 02a0 06       		.uleb128 0x6
 3049 02a1 00       		.byte	0
 3050 02a2 00       		.byte	0
 3051 02a3 33       		.uleb128 0x33
 3052 02a4 34       		.uleb128 0x34
 3053 02a5 00       		.byte	0
 3054 02a6 03       		.uleb128 0x3
 3055 02a7 08       		.uleb128 0x8
 3056 02a8 3A       		.uleb128 0x3a
 3057 02a9 0B       		.uleb128 0xb
 3058 02aa 3B       		.uleb128 0x3b
 3059 02ab 0B       		.uleb128 0xb
 3060 02ac 49       		.uleb128 0x49
 3061 02ad 13       		.uleb128 0x13
 3062 02ae 02       		.uleb128 0x2
 3063 02af 18       		.uleb128 0x18
 3064 02b0 00       		.byte	0
 3065 02b1 00       		.byte	0
 3066 02b2 34       		.uleb128 0x34
 3067 02b3 34       		.uleb128 0x34
 3068 02b4 00       		.byte	0
 3069 02b5 03       		.uleb128 0x3
 3070 02b6 0E       		.uleb128 0xe
 3071 02b7 3A       		.uleb128 0x3a
 3072 02b8 0B       		.uleb128 0xb
ARM GAS  C:\Users\Luis\AppData\Local\Temp\cc0p0Q9k.s 			page 55


 3073 02b9 3B       		.uleb128 0x3b
 3074 02ba 0B       		.uleb128 0xb
 3075 02bb 49       		.uleb128 0x49
 3076 02bc 13       		.uleb128 0x13
 3077 02bd 02       		.uleb128 0x2
 3078 02be 18       		.uleb128 0x18
 3079 02bf 00       		.byte	0
 3080 02c0 00       		.byte	0
 3081 02c1 35       		.uleb128 0x35
 3082 02c2 2E       		.uleb128 0x2e
 3083 02c3 01       		.byte	0x1
 3084 02c4 47       		.uleb128 0x47
 3085 02c5 13       		.uleb128 0x13
 3086 02c6 20       		.uleb128 0x20
 3087 02c7 0B       		.uleb128 0xb
 3088 02c8 64       		.uleb128 0x64
 3089 02c9 13       		.uleb128 0x13
 3090 02ca 01       		.uleb128 0x1
 3091 02cb 13       		.uleb128 0x13
 3092 02cc 00       		.byte	0
 3093 02cd 00       		.byte	0
 3094 02ce 36       		.uleb128 0x36
 3095 02cf 05       		.uleb128 0x5
 3096 02d0 00       		.byte	0
 3097 02d1 03       		.uleb128 0x3
 3098 02d2 0E       		.uleb128 0xe
 3099 02d3 49       		.uleb128 0x49
 3100 02d4 13       		.uleb128 0x13
 3101 02d5 34       		.uleb128 0x34
 3102 02d6 19       		.uleb128 0x19
 3103 02d7 00       		.byte	0
 3104 02d8 00       		.byte	0
 3105 02d9 37       		.uleb128 0x37
 3106 02da 2E       		.uleb128 0x2e
 3107 02db 01       		.byte	0x1
 3108 02dc 31       		.uleb128 0x31
 3109 02dd 13       		.uleb128 0x13
 3110 02de 6E       		.uleb128 0x6e
 3111 02df 0E       		.uleb128 0xe
 3112 02e0 11       		.uleb128 0x11
 3113 02e1 01       		.uleb128 0x1
 3114 02e2 12       		.uleb128 0x12
 3115 02e3 06       		.uleb128 0x6
 3116 02e4 40       		.uleb128 0x40
 3117 02e5 18       		.uleb128 0x18
 3118 02e6 64       		.uleb128 0x64
 3119 02e7 13       		.uleb128 0x13
 3120 02e8 9742     		.uleb128 0x2117
 3121 02ea 19       		.uleb128 0x19
 3122 02eb 01       		.uleb128 0x1
 3123 02ec 13       		.uleb128 0x13
 3124 02ed 00       		.byte	0
 3125 02ee 00       		.byte	0
 3126 02ef 38       		.uleb128 0x38
 3127 02f0 05       		.uleb128 0x5
 3128 02f1 00       		.byte	0
 3129 02f2 31       		.uleb128 0x31
ARM GAS  C:\Users\Luis\AppData\Local\Temp\cc0p0Q9k.s 			page 56


 3130 02f3 13       		.uleb128 0x13
 3131 02f4 02       		.uleb128 0x2
 3132 02f5 18       		.uleb128 0x18
 3133 02f6 00       		.byte	0
 3134 02f7 00       		.byte	0
 3135 02f8 39       		.uleb128 0x39
 3136 02f9 2E       		.uleb128 0x2e
 3137 02fa 01       		.byte	0x1
 3138 02fb 31       		.uleb128 0x31
 3139 02fc 13       		.uleb128 0x13
 3140 02fd 6E       		.uleb128 0x6e
 3141 02fe 0E       		.uleb128 0xe
 3142 02ff 11       		.uleb128 0x11
 3143 0300 01       		.uleb128 0x1
 3144 0301 12       		.uleb128 0x12
 3145 0302 06       		.uleb128 0x6
 3146 0303 40       		.uleb128 0x40
 3147 0304 18       		.uleb128 0x18
 3148 0305 64       		.uleb128 0x64
 3149 0306 13       		.uleb128 0x13
 3150 0307 9642     		.uleb128 0x2116
 3151 0309 19       		.uleb128 0x19
 3152 030a 01       		.uleb128 0x1
 3153 030b 13       		.uleb128 0x13
 3154 030c 00       		.byte	0
 3155 030d 00       		.byte	0
 3156 030e 3A       		.uleb128 0x3a
 3157 030f 2E       		.uleb128 0x2e
 3158 0310 01       		.byte	0x1
 3159 0311 47       		.uleb128 0x47
 3160 0312 13       		.uleb128 0x13
 3161 0313 11       		.uleb128 0x11
 3162 0314 01       		.uleb128 0x1
 3163 0315 12       		.uleb128 0x12
 3164 0316 06       		.uleb128 0x6
 3165 0317 40       		.uleb128 0x40
 3166 0318 18       		.uleb128 0x18
 3167 0319 64       		.uleb128 0x64
 3168 031a 13       		.uleb128 0x13
 3169 031b 9642     		.uleb128 0x2116
 3170 031d 19       		.uleb128 0x19
 3171 031e 01       		.uleb128 0x1
 3172 031f 13       		.uleb128 0x13
 3173 0320 00       		.byte	0
 3174 0321 00       		.byte	0
 3175 0322 3B       		.uleb128 0x3b
 3176 0323 05       		.uleb128 0x5
 3177 0324 00       		.byte	0
 3178 0325 03       		.uleb128 0x3
 3179 0326 0E       		.uleb128 0xe
 3180 0327 49       		.uleb128 0x49
 3181 0328 13       		.uleb128 0x13
 3182 0329 34       		.uleb128 0x34
 3183 032a 19       		.uleb128 0x19
 3184 032b 02       		.uleb128 0x2
 3185 032c 18       		.uleb128 0x18
 3186 032d 00       		.byte	0
ARM GAS  C:\Users\Luis\AppData\Local\Temp\cc0p0Q9k.s 			page 57


 3187 032e 00       		.byte	0
 3188 032f 3C       		.uleb128 0x3c
 3189 0330 05       		.uleb128 0x5
 3190 0331 00       		.byte	0
 3191 0332 03       		.uleb128 0x3
 3192 0333 0E       		.uleb128 0xe
 3193 0334 3A       		.uleb128 0x3a
 3194 0335 0B       		.uleb128 0xb
 3195 0336 3B       		.uleb128 0x3b
 3196 0337 0B       		.uleb128 0xb
 3197 0338 49       		.uleb128 0x49
 3198 0339 13       		.uleb128 0x13
 3199 033a 02       		.uleb128 0x2
 3200 033b 18       		.uleb128 0x18
 3201 033c 00       		.byte	0
 3202 033d 00       		.byte	0
 3203 033e 3D       		.uleb128 0x3d
 3204 033f 34       		.uleb128 0x34
 3205 0340 00       		.byte	0
 3206 0341 03       		.uleb128 0x3
 3207 0342 0E       		.uleb128 0xe
 3208 0343 3A       		.uleb128 0x3a
 3209 0344 0B       		.uleb128 0xb
 3210 0345 3B       		.uleb128 0x3b
 3211 0346 05       		.uleb128 0x5
 3212 0347 49       		.uleb128 0x49
 3213 0348 13       		.uleb128 0x13
 3214 0349 3F       		.uleb128 0x3f
 3215 034a 19       		.uleb128 0x19
 3216 034b 3C       		.uleb128 0x3c
 3217 034c 19       		.uleb128 0x19
 3218 034d 00       		.byte	0
 3219 034e 00       		.byte	0
 3220 034f 3E       		.uleb128 0x3e
 3221 0350 34       		.uleb128 0x34
 3222 0351 00       		.byte	0
 3223 0352 03       		.uleb128 0x3
 3224 0353 08       		.uleb128 0x8
 3225 0354 3A       		.uleb128 0x3a
 3226 0355 0B       		.uleb128 0xb
 3227 0356 3B       		.uleb128 0x3b
 3228 0357 05       		.uleb128 0x5
 3229 0358 49       		.uleb128 0x49
 3230 0359 13       		.uleb128 0x13
 3231 035a 3F       		.uleb128 0x3f
 3232 035b 19       		.uleb128 0x19
 3233 035c 3C       		.uleb128 0x3c
 3234 035d 19       		.uleb128 0x19
 3235 035e 00       		.byte	0
 3236 035f 00       		.byte	0
 3237 0360 00       		.byte	0
 3238              		.section	.debug_aranges,"",%progbits
 3239 0000 3C000000 		.4byte	0x3c
 3240 0004 0200     		.2byte	0x2
 3241 0006 00000000 		.4byte	.Ldebug_info0
 3242 000a 04       		.byte	0x4
 3243 000b 00       		.byte	0
ARM GAS  C:\Users\Luis\AppData\Local\Temp\cc0p0Q9k.s 			page 58


 3244 000c 0000     		.2byte	0
 3245 000e 0000     		.2byte	0
 3246 0010 00000000 		.4byte	.LFB260
 3247 0014 2C000000 		.4byte	.LFE260-.LFB260
 3248 0018 00000000 		.4byte	.LFB262
 3249 001c 20000000 		.4byte	.LFE262-.LFB262
 3250 0020 00000000 		.4byte	.LFB265
 3251 0024 28000000 		.4byte	.LFE265-.LFB265
 3252 0028 00000000 		.4byte	.LFB267
 3253 002c 1E000000 		.4byte	.LFE267-.LFB267
 3254 0030 00000000 		.4byte	.LFB268
 3255 0034 A0010000 		.4byte	.LFE268-.LFB268
 3256 0038 00000000 		.4byte	0
 3257 003c 00000000 		.4byte	0
 3258              		.section	.debug_ranges,"",%progbits
 3259              	.Ldebug_ranges0:
 3260 0000 00000000 		.4byte	.LFB260
 3261 0004 2C000000 		.4byte	.LFE260
 3262 0008 00000000 		.4byte	.LFB262
 3263 000c 20000000 		.4byte	.LFE262
 3264 0010 00000000 		.4byte	.LFB265
 3265 0014 28000000 		.4byte	.LFE265
 3266 0018 00000000 		.4byte	.LFB267
 3267 001c 1E000000 		.4byte	.LFE267
 3268 0020 00000000 		.4byte	.LFB268
 3269 0024 A0010000 		.4byte	.LFE268
 3270 0028 00000000 		.4byte	0
 3271 002c 00000000 		.4byte	0
 3272              		.section	.debug_line,"",%progbits
 3273              	.Ldebug_line0:
 3274 0000 6B030000 		.section	.debug_str,"MS",%progbits,1
 3274      0200C902 
 3274      00000201 
 3274      FB0E0D00 
 3274      01010101 
 3275              	.LASF15:
 3276 0000 72747469 		.ascii	"rttime_t\000"
 3276      6D655F74 
 3276      00
 3277              	.LASF60:
 3278 0009 72656164 		.ascii	"ready_list_t\000"
 3278      795F6C69 
 3278      73745F74 
 3278      00
 3279              	.LASF187:
 3280 0016 5F5F696E 		.ascii	"__in_chrg\000"
 3280      5F636872 
 3280      6700
 3281              	.LASF2:
 3282 0020 73697A65 		.ascii	"size_t\000"
 3282      5F7400
 3283              	.LASF213:
 3284 0027 39736473 		.ascii	"9sdstate_t\000"
 3284      74617465 
 3284      5F7400
 3285              	.LASF27:
 3286 0032 7264796D 		.ascii	"rdymsg\000"
ARM GAS  C:\Users\Luis\AppData\Local\Temp\cc0p0Q9k.s 			page 59


 3286      736700
 3287              	.LASF12:
 3288 0039 75696E74 		.ascii	"uint64_t\000"
 3288      36345F74 
 3288      00
 3289              	.LASF90:
 3290 0042 6B65726E 		.ascii	"kernel_stats\000"
 3290      656C5F73 
 3290      74617473 
 3290      00
 3291              	.LASF98:
 3292 004f 706F7274 		.ascii	"port_intctx\000"
 3292      5F696E74 
 3292      63747800 
 3293              	.LASF180:
 3294 005b 76615F6C 		.ascii	"va_list\000"
 3294      69737400 
 3295              	.LASF88:
 3296 0063 76746C69 		.ascii	"vtlist\000"
 3296      737400
 3297              	.LASF215:
 3298 006a 5F5A4E33 		.ascii	"_ZN3IIR3sumEiiPfS0_i\000"
 3298      49495233 
 3298      73756D45 
 3298      69695066 
 3298      53305F69 
 3299              	.LASF114:
 3300 007f 776F7273 		.ascii	"worst\000"
 3300      7400
 3301              	.LASF117:
 3302 0085 74696D65 		.ascii	"time_measurement_t\000"
 3302      5F6D6561 
 3302      73757265 
 3302      6D656E74 
 3302      5F7400
 3303              	.LASF13:
 3304 0098 6C6F6E67 		.ascii	"long long unsigned int\000"
 3304      206C6F6E 
 3304      6720756E 
 3304      7369676E 
 3304      65642069 
 3305              	.LASF185:
 3306 00af 666F726D 		.ascii	"formatted_bytes\000"
 3306      61747465 
 3306      645F6279 
 3306      74657300 
 3307              	.LASF102:
 3308 00bf 73655F73 		.ascii	"se_state\000"
 3308      74617465 
 3308      00
 3309              	.LASF28:
 3310 00c8 65786974 		.ascii	"exitcode\000"
 3310      636F6465 
 3310      00
 3311              	.LASF195:
 3312 00d1 5F4E756D 		.ascii	"_NumbOutput\000"
 3312      624F7574 
ARM GAS  C:\Users\Luis\AppData\Local\Temp\cc0p0Q9k.s 			page 60


 3312      70757400 
 3313              	.LASF89:
 3314 00dd 6D61696E 		.ascii	"mainthread\000"
 3314      74687265 
 3314      616400
 3315              	.LASF76:
 3316 00e8 76697274 		.ascii	"virtual_timers_list_t\000"
 3316      75616C5F 
 3316      74696D65 
 3316      72735F6C 
 3316      6973745F 
 3317              	.LASF207:
 3318 00fe 49544D5F 		.ascii	"ITM_RxBuffer\000"
 3318      52784275 
 3318      66666572 
 3318      00
 3319              	.LASF143:
 3320 010b 696F5F71 		.ascii	"io_queue_t\000"
 3320      75657565 
 3320      5F7400
 3321              	.LASF59:
 3322 0116 63685F74 		.ascii	"ch_threads_queue\000"
 3322      68726561 
 3322      64735F71 
 3322      75657565 
 3322      00
 3323              	.LASF36:
 3324 0127 705F7072 		.ascii	"p_prio\000"
 3324      696F00
 3325              	.LASF176:
 3326 012e 72656164 		.ascii	"readt\000"
 3326      7400
 3327              	.LASF145:
 3328 0134 715F7761 		.ascii	"q_waiting\000"
 3328      6974696E 
 3328      6700
 3329              	.LASF11:
 3330 013e 6C6F6E67 		.ascii	"long long int\000"
 3330      206C6F6E 
 3330      6720696E 
 3330      7400
 3331              	.LASF1:
 3332 014c 7369676E 		.ascii	"signed char\000"
 3332      65642063 
 3332      68617200 
 3333              	.LASF93:
 3334 0158 47545052 		.ascii	"GTPR\000"
 3334      00
 3335              	.LASF202:
 3336 015d 5F417272 		.ascii	"_ArrayResult\000"
 3336      61795265 
 3336      73756C74 
 3336      00
 3337              	.LASF51:
 3338 016a 705F6D70 		.ascii	"p_mpool\000"
 3338      6F6F6C00 
 3339              	.LASF159:
ARM GAS  C:\Users\Luis\AppData\Local\Temp\cc0p0Q9k.s 			page 61


 3340 0172 32304261 		.ascii	"20BaseSequentialStream\000"
 3340      73655365 
 3340      7175656E 
 3340      7469616C 
 3340      53747265 
 3341              	.LASF190:
 3342 0189 5F5A4E33 		.ascii	"_ZN3IIRD0Ev\000"
 3342      49495244 
 3342      30457600 
 3343              	.LASF29:
 3344 0195 77746F62 		.ascii	"wtobjp\000"
 3344      6A7000
 3345              	.LASF214:
 3346 019c 5F5A4E33 		.ascii	"_ZN3IIR11directFormIEP10DataFilter\000"
 3346      49495231 
 3346      31646972 
 3346      65637446 
 3346      6F726D49 
 3347              	.LASF168:
 3348 01bf 73746174 		.ascii	"state\000"
 3348      6500
 3349              	.LASF86:
 3350 01c5 63685F73 		.ascii	"ch_system\000"
 3350      79737465 
 3350      6D00
 3351              	.LASF8:
 3352 01cf 6C6F6E67 		.ascii	"long int\000"
 3352      20696E74 
 3352      00
 3353              	.LASF17:
 3354 01d8 74737461 		.ascii	"tstate_t\000"
 3354      74655F74 
 3354      00
 3355              	.LASF22:
 3356 01e1 6576656E 		.ascii	"eventflags_t\000"
 3356      74666C61 
 3356      67735F74 
 3356      00
 3357              	.LASF178:
 3358 01ee 5F5F7661 		.ascii	"__va_list\000"
 3358      5F6C6973 
 3358      7400
 3359              	.LASF204:
 3360 01f8 5F4E756D 		.ascii	"_NumbBuffer\000"
 3360      62427566 
 3360      66657200 
 3361              	.LASF100:
 3362 0204 73655F74 		.ascii	"se_tp\000"
 3362      7000
 3363              	.LASF147:
 3364 020a 715F6275 		.ascii	"q_buffer\000"
 3364      66666572 
 3364      00
 3365              	.LASF149:
 3366 0213 715F7772 		.ascii	"q_wrptr\000"
 3366      70747200 
 3367              	.LASF186:
ARM GAS  C:\Users\Luis\AppData\Local\Temp\cc0p0Q9k.s 			page 62


 3368 021b 74686973 		.ascii	"this\000"
 3368      00
 3369              	.LASF38:
 3370 0220 705F6E65 		.ascii	"p_newer\000"
 3370      77657200 
 3371              	.LASF125:
 3372 0228 735F7175 		.ascii	"s_queue\000"
 3372      65756500 
 3373              	.LASF104:
 3374 0230 74625F73 		.ascii	"tb_size\000"
 3374      697A6500 
 3375              	.LASF65:
 3376 0238 725F6E65 		.ascii	"r_newer\000"
 3376      77657200 
 3377              	.LASF95:
 3378 0240 72656761 		.ascii	"regarm_t\000"
 3378      726D5F74 
 3378      00
 3379              	.LASF72:
 3380 0249 76745F70 		.ascii	"vt_prev\000"
 3380      72657600 
 3381              	.LASF80:
 3382 0251 63685F73 		.ascii	"ch_system_debug\000"
 3382      79737465 
 3382      6D5F6465 
 3382      62756700 
 3383              	.LASF132:
 3384 0261 6D757465 		.ascii	"mutex_t\000"
 3384      785F7400 
 3385              	.LASF83:
 3386 0269 6C6F636B 		.ascii	"lock_cnt\000"
 3386      5F636E74 
 3386      00
 3387              	.LASF142:
 3388 0272 6576656E 		.ascii	"event_source_t\000"
 3388      745F736F 
 3388      75726365 
 3388      5F7400
 3389              	.LASF99:
 3390 0281 73655F74 		.ascii	"se_time\000"
 3390      696D6500 
 3391              	.LASF23:
 3392 0289 636E745F 		.ascii	"cnt_t\000"
 3392      7400
 3393              	.LASF216:
 3394 028f 5F5F7674 		.ascii	"__vtbl_ptr_type\000"
 3394      626C5F70 
 3394      74725F74 
 3394      79706500 
 3395              	.LASF171:
 3396 029f 75736172 		.ascii	"usart\000"
 3396      7400
 3397              	.LASF0:
 3398 02a5 756E7369 		.ascii	"unsigned int\000"
 3398      676E6564 
 3398      20696E74 
 3398      00
ARM GAS  C:\Users\Luis\AppData\Local\Temp\cc0p0Q9k.s 			page 63


 3399              	.LASF172:
 3400 02b2 53657269 		.ascii	"SerialDriverVMT\000"
 3400      616C4472 
 3400      69766572 
 3400      564D5400 
 3401              	.LASF31:
 3402 02c2 77747365 		.ascii	"wtsemp\000"
 3402      6D7000
 3403              	.LASF79:
 3404 02c9 73797374 		.ascii	"system_debug_t\000"
 3404      656D5F64 
 3404      65627567 
 3404      5F7400
 3405              	.LASF169:
 3406 02d8 69717565 		.ascii	"iqueue\000"
 3406      756500
 3407              	.LASF71:
 3408 02df 76745F6E 		.ascii	"vt_next\000"
 3408      65787400 
 3409              	.LASF53:
 3410 02e7 746C7350 		.ascii	"tlsPtr\000"
 3410      747200
 3411              	.LASF174:
 3412 02ee 67657474 		.ascii	"gett\000"
 3412      00
 3413              	.LASF119:
 3414 02f3 6E5F6972 		.ascii	"n_irq\000"
 3414      7100
 3415              	.LASF126:
 3416 02f9 735F636E 		.ascii	"s_cnt\000"
 3416      7400
 3417              	.LASF167:
 3418 02ff 6576656E 		.ascii	"event\000"
 3418      7400
 3419              	.LASF6:
 3420 0305 73686F72 		.ascii	"short unsigned int\000"
 3420      7420756E 
 3420      7369676E 
 3420      65642069 
 3420      6E7400
 3421              	.LASF123:
 3422 0318 6B65726E 		.ascii	"kernel_stats_t\000"
 3422      656C5F73 
 3422      74617473 
 3422      5F7400
 3423              	.LASF108:
 3424 0327 31346368 		.ascii	"14ch_swc_event_t\000"
 3424      5F737763 
 3424      5F657665 
 3424      6E745F74 
 3424      00
 3425              	.LASF56:
 3426 0338 63685F74 		.ascii	"ch_thread\000"
 3426      68726561 
 3426      6400
 3427              	.LASF139:
 3428 0342 656C5F77 		.ascii	"el_wflags\000"
ARM GAS  C:\Users\Luis\AppData\Local\Temp\cc0p0Q9k.s 			page 64


 3428      666C6167 
 3428      7300
 3429              	.LASF20:
 3430 034c 6D73675F 		.ascii	"msg_t\000"
 3430      7400
 3431              	.LASF170:
 3432 0352 6F717565 		.ascii	"oqueue\000"
 3432      756500
 3433              	.LASF24:
 3434 0359 75636E74 		.ascii	"ucnt_t\000"
 3434      5F7400
 3435              	.LASF193:
 3436 0360 5F436F6E 		.ascii	"_Cont\000"
 3436      7400
 3437              	.LASF135:
 3438 0366 656C5F6E 		.ascii	"el_next\000"
 3438      65787400 
 3439              	.LASF85:
 3440 036e 63685F73 		.ascii	"ch_system_t\000"
 3440      79737465 
 3440      6D5F7400 
 3441              	.LASF94:
 3442 037a 55534152 		.ascii	"USART_TypeDef\000"
 3442      545F5479 
 3442      70654465 
 3442      6600
 3443              	.LASF175:
 3444 0388 77726974 		.ascii	"writet\000"
 3444      657400
 3445              	.LASF16:
 3446 038f 746D6F64 		.ascii	"tmode_t\000"
 3446      655F7400 
 3447              	.LASF161:
 3448 0397 626F6F6C 		.ascii	"bool\000"
 3448      00
 3449              	.LASF122:
 3450 039c 6D5F6372 		.ascii	"m_crit_isr\000"
 3450      69745F69 
 3450      737200
 3451              	.LASF61:
 3452 03a7 63685F72 		.ascii	"ch_ready_list\000"
 3452      65616479 
 3452      5F6C6973 
 3452      7400
 3453              	.LASF21:
 3454 03b5 6576656E 		.ascii	"eventmask_t\000"
 3454      746D6173 
 3454      6B5F7400 
 3455              	.LASF206:
 3456 03c1 46756E74 		.ascii	"FuntionsMath\000"
 3456      696F6E73 
 3456      4D617468 
 3456      00
 3457              	.LASF212:
 3458 03ce 31376368 		.ascii	"17ch_trace_buffer_t\000"
 3458      5F747261 
 3458      63655F62 
ARM GAS  C:\Users\Luis\AppData\Local\Temp\cc0p0Q9k.s 			page 65


 3458      75666665 
 3458      725F7400 
 3459              	.LASF96:
 3460 03e2 73746B61 		.ascii	"stkalign_t\000"
 3460      6C69676E 
 3460      5F7400
 3461              	.LASF183:
 3462 03ed 7E494952 		.ascii	"~IIR\000"
 3462      00
 3463              	.LASF133:
 3464 03f2 6576656E 		.ascii	"event_listener_t\000"
 3464      745F6C69 
 3464      7374656E 
 3464      65725F74 
 3464      00
 3465              	.LASF154:
 3466 0403 696E7075 		.ascii	"input_queue_t\000"
 3466      745F7175 
 3466      6575655F 
 3466      7400
 3467              	.LASF173:
 3468 0411 70757474 		.ascii	"putt\000"
 3468      00
 3469              	.LASF63:
 3470 0416 725F7072 		.ascii	"r_prio\000"
 3470      696F00
 3471              	.LASF105:
 3472 041d 74625F70 		.ascii	"tb_ptr\000"
 3472      747200
 3473              	.LASF35:
 3474 0424 705F7072 		.ascii	"p_prev\000"
 3474      657600
 3475              	.LASF144:
 3476 042b 696F5F71 		.ascii	"io_queue\000"
 3476      75657565 
 3476      00
 3477              	.LASF14:
 3478 0434 7274636E 		.ascii	"rtcnt_t\000"
 3478      745F7400 
 3479              	.LASF111:
 3480 043c 746D5F63 		.ascii	"tm_calibration_t\000"
 3480      616C6962 
 3480      72617469 
 3480      6F6E5F74 
 3480      00
 3481              	.LASF77:
 3482 044d 63685F76 		.ascii	"ch_virtual_timers_list\000"
 3482      69727475 
 3482      616C5F74 
 3482      696D6572 
 3482      735F6C69 
 3483              	.LASF146:
 3484 0464 715F636F 		.ascii	"q_counter\000"
 3484      756E7465 
 3484      7200
 3485              	.LASF30:
 3486 046e 77747472 		.ascii	"wttrp\000"
ARM GAS  C:\Users\Luis\AppData\Local\Temp\cc0p0Q9k.s 			page 66


 3486      7000
 3487              	.LASF177:
 3488 0474 5F5F676E 		.ascii	"__gnuc_va_list\000"
 3488      75635F76 
 3488      615F6C69 
 3488      737400
 3489              	.LASF103:
 3490 0483 63685F73 		.ascii	"ch_swc_event_t\000"
 3490      77635F65 
 3490      76656E74 
 3490      5F7400
 3491              	.LASF78:
 3492 0492 76745F6C 		.ascii	"vt_lasttime\000"
 3492      61737474 
 3492      696D6500 
 3493              	.LASF39:
 3494 049e 705F6F6C 		.ascii	"p_older\000"
 3494      64657200 
 3495              	.LASF64:
 3496 04a6 725F6374 		.ascii	"r_ctx\000"
 3496      7800
 3497              	.LASF112:
 3498 04ac 31387469 		.ascii	"18time_measurement_t\000"
 3498      6D655F6D 
 3498      65617375 
 3498      72656D65 
 3498      6E745F74 
 3499              	.LASF118:
 3500 04c1 31346B65 		.ascii	"14kernel_stats_t\000"
 3500      726E656C 
 3500      5F737461 
 3500      74735F74 
 3500      00
 3501              	.LASF74:
 3502 04d2 76745F66 		.ascii	"vt_func\000"
 3502      756E6300 
 3503              	.LASF10:
 3504 04da 6C6F6E67 		.ascii	"long unsigned int\000"
 3504      20756E73 
 3504      69676E65 
 3504      6420696E 
 3504      7400
 3505              	.LASF41:
 3506 04ec 705F7374 		.ascii	"p_stklimit\000"
 3506      6B6C696D 
 3506      697400
 3507              	.LASF210:
 3508 04f7 433A5C55 		.ascii	"C:\\Users\\Luis\\workspace\\ChibiOS 3.0.2\\examples"
 3508      73657273 
 3508      5C4C7569 
 3508      735C776F 
 3508      726B7370 
 3509 0525 5C445350 		.ascii	"\\DSP-Library\000"
 3509      2D4C6962 
 3509      72617279 
 3509      00
 3510              	.LASF67:
ARM GAS  C:\Users\Luis\AppData\Local\Temp\cc0p0Q9k.s 			page 67


 3511 0532 725F6375 		.ascii	"r_current\000"
 3511      7272656E 
 3511      7400
 3512              	.LASF66:
 3513 053c 725F6F6C 		.ascii	"r_older\000"
 3513      64657200 
 3514              	.LASF137:
 3515 0544 656C5F65 		.ascii	"el_events\000"
 3515      76656E74 
 3515      7300
 3516              	.LASF116:
 3517 054e 63756D75 		.ascii	"cumulative\000"
 3517      6C617469 
 3517      766500
 3518              	.LASF184:
 3519 0559 666C6F61 		.ascii	"float\000"
 3519      7400
 3520              	.LASF198:
 3521 055f 5F417272 		.ascii	"_ArrayInputsX\000"
 3521      6179496E 
 3521      70757473 
 3521      5800
 3522              	.LASF201:
 3523 056d 5F417272 		.ascii	"_ArrayInputsY\000"
 3523      6179496E 
 3523      70757473 
 3523      5900
 3524              	.LASF18:
 3525 057b 74726566 		.ascii	"trefs_t\000"
 3525      735F7400 
 3526              	.LASF106:
 3527 0583 74625F62 		.ascii	"tb_buffer\000"
 3527      75666665 
 3527      7200
 3528              	.LASF157:
 3529 058d 77726974 		.ascii	"write\000"
 3529      6500
 3530              	.LASF153:
 3531 0593 716E6F74 		.ascii	"qnotify_t\000"
 3531      6966795F 
 3531      7400
 3532              	.LASF69:
 3533 059d 76697274 		.ascii	"virtual_timer_t\000"
 3533      75616C5F 
 3533      74696D65 
 3533      725F7400 
 3534              	.LASF163:
 3535 05ad 53445F53 		.ascii	"SD_STOP\000"
 3535      544F5000 
 3536              	.LASF208:
 3537 05b5 474E5520 		.ascii	"GNU C++ 4.8.3 20131129 (release) [ARM/embedded-4_8-"
 3537      432B2B20 
 3537      342E382E 
 3537      33203230 
 3537      31333131 
 3538 05e8 6272616E 		.ascii	"branch revision 205641] -mcpu=cortex-m4 -mapcs-fram"
 3538      63682072 
ARM GAS  C:\Users\Luis\AppData\Local\Temp\cc0p0Q9k.s 			page 68


 3538      65766973 
 3538      696F6E20 
 3538      32303536 
 3539 061b 65202D6D 		.ascii	"e -mno-thumb-interwork -mthumb -ggdb -O0 -falign-fu"
 3539      6E6F2D74 
 3539      68756D62 
 3539      2D696E74 
 3539      6572776F 
 3540 064e 6E637469 		.ascii	"nctions=16 -ffunction-sections -fdata-sections -fno"
 3540      6F6E733D 
 3540      3136202D 
 3540      6666756E 
 3540      6374696F 
 3541 0681 2D636F6D 		.ascii	"-common -fno-rtti -fno-exceptions\000"
 3541      6D6F6E20 
 3541      2D666E6F 
 3541      2D727474 
 3541      69202D66 
 3542              	.LASF121:
 3543 06a3 6D5F6372 		.ascii	"m_crit_thd\000"
 3543      69745F74 
 3543      686400
 3544              	.LASF19:
 3545 06ae 74707269 		.ascii	"tprio_t\000"
 3545      6F5F7400 
 3546              	.LASF150:
 3547 06b6 715F7264 		.ascii	"q_rdptr\000"
 3547      70747200 
 3548              	.LASF40:
 3549 06be 705F6E61 		.ascii	"p_name\000"
 3549      6D6500
 3550              	.LASF120:
 3551 06c5 6E5F6374 		.ascii	"n_ctxswc\000"
 3551      78737763 
 3551      00
 3552              	.LASF7:
 3553 06ce 696E7433 		.ascii	"int32_t\000"
 3553      325F7400 
 3554              	.LASF107:
 3555 06d6 63685F74 		.ascii	"ch_trace_buffer_t\000"
 3555      72616365 
 3555      5F627566 
 3555      6665725F 
 3555      7400
 3556              	.LASF128:
 3557 06e8 6D5F7175 		.ascii	"m_queue\000"
 3557      65756500 
 3558              	.LASF136:
 3559 06f0 656C5F6C 		.ascii	"el_listener\000"
 3559      69737465 
 3559      6E657200 
 3560              	.LASF138:
 3561 06fc 656C5F66 		.ascii	"el_flags\000"
 3561      6C616773 
 3561      00
 3562              	.LASF49:
 3563 0705 705F6D74 		.ascii	"p_mtxlist\000"
ARM GAS  C:\Users\Luis\AppData\Local\Temp\cc0p0Q9k.s 			page 69


 3563      786C6973 
 3563      7400
 3564              	.LASF5:
 3565 070f 73686F72 		.ascii	"short int\000"
 3565      7420696E 
 3565      7400
 3566              	.LASF42:
 3567 0719 705F7374 		.ascii	"p_state\000"
 3567      61746500 
 3568              	.LASF191:
 3569 0721 70446174 		.ascii	"pDataFilter\000"
 3569      6146696C 
 3569      74657200 
 3570              	.LASF194:
 3571 072d 5F46696C 		.ascii	"_FilterOrder\000"
 3571      7465724F 
 3571      72646572 
 3571      00
 3572              	.LASF33:
 3573 073a 65776D61 		.ascii	"ewmask\000"
 3573      736B00
 3574              	.LASF34:
 3575 0741 705F6E65 		.ascii	"p_next\000"
 3575      787400
 3576              	.LASF196:
 3577 0748 5F417272 		.ascii	"_ArrayResultX\000"
 3577      61795265 
 3577      73756C74 
 3577      5800
 3578              	.LASF199:
 3579 0756 5F417272 		.ascii	"_ArrayResultY\000"
 3579      61795265 
 3579      73756C74 
 3579      5900
 3580              	.LASF91:
 3581 0764 69646C65 		.ascii	"idle_thread_wa\000"
 3581      5F746872 
 3581      6561645F 
 3581      776100
 3582              	.LASF58:
 3583 0773 74687265 		.ascii	"threads_queue_t\000"
 3583      6164735F 
 3583      71756575 
 3583      655F7400 
 3584              	.LASF124:
 3585 0783 63685F73 		.ascii	"ch_semaphore\000"
 3585      656D6170 
 3585      686F7265 
 3585      00
 3586              	.LASF48:
 3587 0790 705F6570 		.ascii	"p_epending\000"
 3587      656E6469 
 3587      6E6700
 3588              	.LASF162:
 3589 079b 53445F55 		.ascii	"SD_UNINIT\000"
 3589      4E494E49 
 3589      5400
ARM GAS  C:\Users\Luis\AppData\Local\Temp\cc0p0Q9k.s 			page 70


 3590              	.LASF9:
 3591 07a5 75696E74 		.ascii	"uint32_t\000"
 3591      33325F74 
 3591      00
 3592              	.LASF32:
 3593 07ae 77746D74 		.ascii	"wtmtxp\000"
 3593      787000
 3594              	.LASF62:
 3595 07b5 725F7175 		.ascii	"r_queue\000"
 3595      65756500 
 3596              	.LASF73:
 3597 07bd 76745F64 		.ascii	"vt_delta\000"
 3597      656C7461 
 3597      00
 3598              	.LASF57:
 3599 07c6 63685F74 		.ascii	"ch_threads_list\000"
 3599      68726561 
 3599      64735F6C 
 3599      69737400 
 3600              	.LASF52:
 3601 07d6 705F7374 		.ascii	"p_stats\000"
 3601      61747300 
 3602              	.LASF166:
 3603 07de 53657269 		.ascii	"SerialDriver\000"
 3603      616C4472 
 3603      69766572 
 3603      00
 3604              	.LASF192:
 3605 07eb 5F4D6174 		.ascii	"_MathOperation\000"
 3605      684F7065 
 3605      72617469 
 3605      6F6E00
 3606              	.LASF131:
 3607 07fa 63686172 		.ascii	"char\000"
 3607      00
 3608              	.LASF160:
 3609 07ff 42617365 		.ascii	"BaseSequentialStream\000"
 3609      53657175 
 3609      656E7469 
 3609      616C5374 
 3609      7265616D 
 3610              	.LASF156:
 3611 0814 42617365 		.ascii	"BaseSequentialStreamVMT\000"
 3611      53657175 
 3611      656E7469 
 3611      616C5374 
 3611      7265616D 
 3612              	.LASF109:
 3613 082c 3136746D 		.ascii	"16tm_calibration_t\000"
 3613      5F63616C 
 3613      69627261 
 3613      74696F6E 
 3613      5F7400
 3614              	.LASF113:
 3615 083f 62657374 		.ascii	"best\000"
 3615      00
 3616              	.LASF130:
ARM GAS  C:\Users\Luis\AppData\Local\Temp\cc0p0Q9k.s 			page 71


 3617 0844 6D5F6E65 		.ascii	"m_next\000"
 3617      787400
 3618              	.LASF25:
 3619 084b 73797374 		.ascii	"systime_t\000"
 3619      696D655F 
 3619      7400
 3620              	.LASF50:
 3621 0855 705F7265 		.ascii	"p_realprio\000"
 3621      616C7072 
 3621      696F00
 3622              	.LASF68:
 3623 0860 76746675 		.ascii	"vtfunc_t\000"
 3623      6E635F74 
 3623      00
 3624              	.LASF115:
 3625 0869 6C617374 		.ascii	"last\000"
 3625      00
 3626              	.LASF81:
 3627 086e 70616E69 		.ascii	"panic_msg\000"
 3627      635F6D73 
 3627      6700
 3628              	.LASF110:
 3629 0878 6F666673 		.ascii	"offset\000"
 3629      657400
 3630              	.LASF189:
 3631 087f 5F5A4E33 		.ascii	"_ZN3IIRD2Ev\000"
 3631      49495244 
 3631      32457600 
 3632              	.LASF200:
 3633 088b 5F417272 		.ascii	"_ArrayCoefficientsA\000"
 3633      6179436F 
 3633      65666669 
 3633      6369656E 
 3633      74734100 
 3634              	.LASF179:
 3635 089f 5F5F6170 		.ascii	"__ap\000"
 3635      00
 3636              	.LASF97:
 3637 08a4 636F6E74 		.ascii	"context\000"
 3637      65787400 
 3638              	.LASF4:
 3639 08ac 756E7369 		.ascii	"unsigned char\000"
 3639      676E6564 
 3639      20636861 
 3639      7200
 3640              	.LASF70:
 3641 08ba 63685F76 		.ascii	"ch_virtual_timer\000"
 3641      69727475 
 3641      616C5F74 
 3641      696D6572 
 3641      00
 3642              	.LASF46:
 3643 08cb 705F6D73 		.ascii	"p_msgqueue\000"
 3643      67717565 
 3643      756500
 3644              	.LASF164:
 3645 08d6 53445F52 		.ascii	"SD_READY\000"
ARM GAS  C:\Users\Luis\AppData\Local\Temp\cc0p0Q9k.s 			page 72


 3645      45414459 
 3645      00
 3646              	.LASF75:
 3647 08df 76745F70 		.ascii	"vt_par\000"
 3647      617200
 3648              	.LASF181:
 3649 08e6 5F767074 		.ascii	"_vptr.IIR\000"
 3649      722E4949 
 3649      5200
 3650              	.LASF203:
 3651 08f0 5F436F6E 		.ascii	"_ContBuffer\000"
 3651      74427566 
 3651      66657200 
 3652              	.LASF155:
 3653 08fc 6F757470 		.ascii	"output_queue_t\000"
 3653      75745F71 
 3653      75657565 
 3653      5F7400
 3654              	.LASF165:
 3655 090b 73647374 		.ascii	"sdstate_t\000"
 3655      6174655F 
 3655      7400
 3656              	.LASF148:
 3657 0915 715F746F 		.ascii	"q_top\000"
 3657      7000
 3658              	.LASF127:
 3659 091b 63685F6D 		.ascii	"ch_mutex\000"
 3659      75746578 
 3659      00
 3660              	.LASF44:
 3661 0924 705F7265 		.ascii	"p_refs\000"
 3661      667300
 3662              	.LASF82:
 3663 092b 6973725F 		.ascii	"isr_cnt\000"
 3663      636E7400 
 3664              	.LASF211:
 3665 0933 31335553 		.ascii	"13USART_TypeDef\000"
 3665      4152545F 
 3665      54797065 
 3665      44656600 
 3666              	.LASF26:
 3667 0943 74687265 		.ascii	"thread_t\000"
 3667      61645F74 
 3667      00
 3668              	.LASF151:
 3669 094c 715F6E6F 		.ascii	"q_notify\000"
 3669      74696679 
 3669      00
 3670              	.LASF205:
 3671 0955 44617461 		.ascii	"DataFilter\000"
 3671      46696C74 
 3671      657200
 3672              	.LASF87:
 3673 0960 726C6973 		.ascii	"rlist\000"
 3673      7400
 3674              	.LASF140:
 3675 0966 6576656E 		.ascii	"event_source\000"
ARM GAS  C:\Users\Luis\AppData\Local\Temp\cc0p0Q9k.s 			page 73


 3675      745F736F 
 3675      75726365 
 3675      00
 3676              	.LASF3:
 3677 0973 75696E74 		.ascii	"uint8_t\000"
 3677      385F7400 
 3678              	.LASF92:
 3679 097b 73697A65 		.ascii	"sizetype\000"
 3679      74797065 
 3679      00
 3680              	.LASF54:
 3681 0984 74687265 		.ascii	"thread_reference_t\000"
 3681      61645F72 
 3681      65666572 
 3681      656E6365 
 3681      5F7400
 3682              	.LASF188:
 3683 0997 5F5A4E33 		.ascii	"_ZN3IIRC2Ev\000"
 3683      49495243 
 3683      32457600 
 3684              	.LASF158:
 3685 09a3 72656164 		.ascii	"read\000"
 3685      00
 3686              	.LASF197:
 3687 09a8 5F417272 		.ascii	"_ArrayCoefficientsB\000"
 3687      6179436F 
 3687      65666669 
 3687      6369656E 
 3687      74734200 
 3688              	.LASF55:
 3689 09bc 74687265 		.ascii	"threads_list_t\000"
 3689      6164735F 
 3689      6C697374 
 3689      5F7400
 3690              	.LASF141:
 3691 09cb 65735F6E 		.ascii	"es_next\000"
 3691      65787400 
 3692              	.LASF84:
 3693 09d3 74726163 		.ascii	"trace_buffer\000"
 3693      655F6275 
 3693      66666572 
 3693      00
 3694              	.LASF43:
 3695 09e0 705F666C 		.ascii	"p_flags\000"
 3695      61677300 
 3696              	.LASF47:
 3697 09e8 705F6D73 		.ascii	"p_msg\000"
 3697      6700
 3698              	.LASF152:
 3699 09ee 715F6C69 		.ascii	"q_link\000"
 3699      6E6B00
 3700              	.LASF182:
 3701 09f5 64697265 		.ascii	"directFormI\000"
 3701      6374466F 
 3701      726D4900 
 3702              	.LASF209:
 3703 0a01 4949522E 		.ascii	"IIR.cpp\000"
ARM GAS  C:\Users\Luis\AppData\Local\Temp\cc0p0Q9k.s 			page 74


 3703      63707000 
 3704              	.LASF129:
 3705 0a09 6D5F6F77 		.ascii	"m_owner\000"
 3705      6E657200 
 3706              	.LASF101:
 3707 0a11 73655F77 		.ascii	"se_wtobjp\000"
 3707      746F626A 
 3707      7000
 3708              	.LASF37:
 3709 0a1b 705F6374 		.ascii	"p_ctx\000"
 3709      7800
 3710              	.LASF45:
 3711 0a21 705F7761 		.ascii	"p_waiting\000"
 3711      6974696E 
 3711      6700
 3712              	.LASF134:
 3713 0a2b 6576656E 		.ascii	"event_listener\000"
 3713      745F6C69 
 3713      7374656E 
 3713      657200
 3714              	.LASF217:
 3715 0a3a 63687072 		.ascii	"chprintf\000"
 3715      696E7466 
 3715      00
 3716              		.ident	"GCC: (GNU Tools for ARM Embedded Processors) 4.8.3 20131129 (release) [ARM/embedded-4_8-br
ARM GAS  C:\Users\Luis\AppData\Local\Temp\cc0p0Q9k.s 			page 75


DEFINED SYMBOLS
                            *ABS*:00000000 IIR.cpp
C:\Users\Luis\AppData\Local\Temp\cc0p0Q9k.s:19     .text._ZL8chprintfP20BaseSequentialStreamPKcz:00000000 $t
C:\Users\Luis\AppData\Local\Temp\cc0p0Q9k.s:24     .text._ZL8chprintfP20BaseSequentialStreamPKcz:00000000 _ZL8chprintfP20BaseSequentialStreamPKcz
C:\Users\Luis\AppData\Local\Temp\cc0p0Q9k.s:70     .text._ZN3IIRC2Ev:00000000 $t
C:\Users\Luis\AppData\Local\Temp\cc0p0Q9k.s:76     .text._ZN3IIRC2Ev:00000000 _ZN3IIRC2Ev
C:\Users\Luis\AppData\Local\Temp\cc0p0Q9k.s:109    .text._ZN3IIRC2Ev:0000001c $d
C:\Users\Luis\AppData\Local\Temp\cc0p0Q9k.s:463    .rodata._ZTV3IIR:00000000 _ZTV3IIR
C:\Users\Luis\AppData\Local\Temp\cc0p0Q9k.s:76     .text._ZN3IIRC2Ev:00000000 _ZN3IIRC1Ev
C:\Users\Luis\AppData\Local\Temp\cc0p0Q9k.s:116    .text._ZN3IIRD2Ev:00000000 $t
C:\Users\Luis\AppData\Local\Temp\cc0p0Q9k.s:122    .text._ZN3IIRD2Ev:00000000 _ZN3IIRD2Ev
C:\Users\Luis\AppData\Local\Temp\cc0p0Q9k.s:161    .text._ZN3IIRD2Ev:00000024 $d
C:\Users\Luis\AppData\Local\Temp\cc0p0Q9k.s:122    .text._ZN3IIRD2Ev:00000000 _ZN3IIRD1Ev
C:\Users\Luis\AppData\Local\Temp\cc0p0Q9k.s:168    .text._ZN3IIRD0Ev:00000000 $t
C:\Users\Luis\AppData\Local\Temp\cc0p0Q9k.s:174    .text._ZN3IIRD0Ev:00000000 _ZN3IIRD0Ev
C:\Users\Luis\AppData\Local\Temp\cc0p0Q9k.s:204    .rodata:00000000 $d
C:\Users\Luis\AppData\Local\Temp\cc0p0Q9k.s:219    .text._ZN3IIR11directFormIEP10DataFilter:00000000 $t
C:\Users\Luis\AppData\Local\Temp\cc0p0Q9k.s:225    .text._ZN3IIR11directFormIEP10DataFilter:00000000 _ZN3IIR11directFormIEP10DataFilter
C:\Users\Luis\AppData\Local\Temp\cc0p0Q9k.s:450    .text._ZN3IIR11directFormIEP10DataFilter:0000018c $d
C:\Users\Luis\AppData\Local\Temp\cc0p0Q9k.s:460    .rodata._ZTV3IIR:00000000 $d
                     .debug_frame:00000010 $d
C:\Users\Luis\AppData\Local\Temp\cc0p0Q9k.s:167    .text._ZN3IIRD2Ev:00000028 $t

UNDEFINED SYMBOLS
chvprintf
_ZdlPv
__aeabi_fsub
__aeabi_f2d
chHeapAlloc
_ZN10DataFilter17createArrayInputXEv
_ZNK10DataFilter14getFilterOrderEv
_ZNK10DataFilter13getNumbOutputEv
_ZNK10DataFilter21getArrayCoefficientsBEv
_ZNK10DataFilter15getArrayInputsXEv
_ZNK10DataFilter21getArrayCoefficientsAEv
_ZNK10DataFilter15getArrayInputsYEv
_ZNK10DataFilter14getArrayResultEv
_ZN10DataFilter9moveArrayEPf
_ZNK10DataFilter10getBuffer1Ev
_ZN10DataFilter9copyArrayEPfS0_
_ZNK10DataFilter10getBuffer2Ev
_ZN12FuntionsMath3sumEiiPfS0_i
SD1
