ARM GAS  C:\Users\Luis\AppData\Local\Temp\ccSqLEWf.s 			page 1


   1              		.syntax unified
   2              		.cpu cortex-m4
   3              		.fpu softvfp
   4              		.eabi_attribute 20, 1
   5              		.eabi_attribute 21, 1
   6              		.eabi_attribute 23, 3
   7              		.eabi_attribute 24, 1
   8              		.eabi_attribute 25, 1
   9              		.eabi_attribute 26, 1
  10              		.eabi_attribute 30, 6
  11              		.eabi_attribute 34, 1
  12              		.eabi_attribute 18, 4
  13              		.thumb
  14              		.file	"IIR.cpp"
  15              		.text
  16              	.Ltext0:
  17              		.cfi_sections	.debug_frame
  18              		.section	.text._ZL8chprintfP20BaseSequentialStreamPKcz,"ax",%progbits
  19              		.align	2
  20              		.p2align 4,,15
  21              		.thumb
  22              		.thumb_func
  23              		.type	_ZL8chprintfP20BaseSequentialStreamPKcz, %function
  24              	_ZL8chprintfP20BaseSequentialStreamPKcz:
  25              	.LFB260:
  26              		.file 1 "../../ChibiOS/os/hal/lib/streams/chprintf.h"
  27              		.loc 1 69 0
  28              		.cfi_startproc
  29              		@ args = 4, pretend = 12, frame = 16
  30              		@ frame_needed = 1, uses_anonymous_args = 1
  31 0000 0EB4     		push	{r1, r2, r3}
  32              		.cfi_def_cfa_offset 12
  33              		.cfi_offset 1, -12
  34              		.cfi_offset 2, -8
  35              		.cfi_offset 3, -4
  36 0002 80B5     		push	{r7, lr}
  37              		.cfi_def_cfa_offset 20
  38              		.cfi_offset 7, -20
  39              		.cfi_offset 14, -16
  40 0004 85B0     		sub	sp, sp, #20
  41              		.cfi_def_cfa_offset 40
  42 0006 00AF     		add	r7, sp, #0
  43              		.cfi_def_cfa_register 7
  44 0008 7860     		str	r0, [r7, #4]
  45              	.LBB2:
  46              		.loc 1 73 0
  47 000a 07F12003 		add	r3, r7, #32
  48 000e BB60     		str	r3, [r7, #8]
  49              		.loc 1 74 0
  50 0010 7868     		ldr	r0, [r7, #4]
  51 0012 F969     		ldr	r1, [r7, #28]
  52 0014 BA68     		ldr	r2, [r7, #8]
  53 0016 FFF7FEFF 		bl	chvprintf
  54 001a F860     		str	r0, [r7, #12]
  55              		.loc 1 77 0
  56 001c FB68     		ldr	r3, [r7, #12]
  57              	.LBE2:
ARM GAS  C:\Users\Luis\AppData\Local\Temp\ccSqLEWf.s 			page 2


  58              		.loc 1 78 0
  59 001e 1846     		mov	r0, r3
  60 0020 1437     		adds	r7, r7, #20
  61 0022 BD46     		mov	sp, r7
  62              		@ sp needed
  63 0024 BDE88040 		pop	{r7, lr}
  64 0028 03B0     		add	sp, sp, #12
  65 002a 7047     		bx	lr
  66              		.cfi_endproc
  67              	.LFE260:
  68              		.size	_ZL8chprintfP20BaseSequentialStreamPKcz, .-_ZL8chprintfP20BaseSequentialStreamPKcz
  69 002c AFF30080 		.section	.text._ZN3IIRD2Ev,"ax",%progbits
  70              		.align	2
  71              		.p2align 4,,15
  72              		.global	_ZN3IIRD2Ev
  73              		.thumb
  74              		.thumb_func
  75              		.type	_ZN3IIRD2Ev, %function
  76              	_ZN3IIRD2Ev:
  77              	.LFB262:
  78              		.file 2 "IIR.cpp"
  79              		.loc 2 18 0
  80              		.cfi_startproc
  81              		@ args = 0, pretend = 0, frame = 8
  82              		@ frame_needed = 1, uses_anonymous_args = 0
  83 0000 80B5     		push	{r7, lr}
  84              		.cfi_def_cfa_offset 8
  85              		.cfi_offset 7, -8
  86              		.cfi_offset 14, -4
  87 0002 82B0     		sub	sp, sp, #8
  88              		.cfi_def_cfa_offset 16
  89 0004 00AF     		add	r7, sp, #0
  90              		.cfi_def_cfa_register 7
  91 0006 7860     		str	r0, [r7, #4]
  92              	.LBB3:
  93              		.loc 2 18 0
  94 0008 7B68     		ldr	r3, [r7, #4]
  95 000a 064A     		ldr	r2, .L7
  96 000c 1A60     		str	r2, [r3]
  97              	.LBE3:
  98              		.loc 2 20 0
  99 000e 0023     		movs	r3, #0
 100 0010 002B     		cmp	r3, #0
 101 0012 02D0     		beq	.L5
 102              		.loc 2 20 0 is_stmt 0 discriminator 1
 103 0014 7868     		ldr	r0, [r7, #4]
 104 0016 FFF7FEFF 		bl	_ZdlPv
 105              	.L5:
 106              		.loc 2 20 0 discriminator 2
 107 001a 7B68     		ldr	r3, [r7, #4]
 108 001c 1846     		mov	r0, r3
 109 001e 0837     		adds	r7, r7, #8
 110 0020 BD46     		mov	sp, r7
 111              		@ sp needed
 112 0022 80BD     		pop	{r7, pc}
 113              	.L8:
 114              		.align	2
ARM GAS  C:\Users\Luis\AppData\Local\Temp\ccSqLEWf.s 			page 3


 115              	.L7:
 116 0024 08000000 		.word	_ZTV3IIR+8
 117              		.cfi_endproc
 118              	.LFE262:
 119              		.size	_ZN3IIRD2Ev, .-_ZN3IIRD2Ev
 120              		.global	_ZN3IIRD1Ev
 121              		.thumb_set _ZN3IIRD1Ev,_ZN3IIRD2Ev
 122 0028 AFF30080 		.section	.text._ZN3IIRD0Ev,"ax",%progbits
 122      AFF30080 
 123              		.align	2
 124              		.p2align 4,,15
 125              		.global	_ZN3IIRD0Ev
 126              		.thumb
 127              		.thumb_func
 128              		.type	_ZN3IIRD0Ev, %function
 129              	_ZN3IIRD0Ev:
 130              	.LFB264:
 131              		.loc 2 18 0 is_stmt 1
 132              		.cfi_startproc
 133              		@ args = 0, pretend = 0, frame = 8
 134              		@ frame_needed = 1, uses_anonymous_args = 0
 135 0000 80B5     		push	{r7, lr}
 136              		.cfi_def_cfa_offset 8
 137              		.cfi_offset 7, -8
 138              		.cfi_offset 14, -4
 139 0002 82B0     		sub	sp, sp, #8
 140              		.cfi_def_cfa_offset 16
 141 0004 00AF     		add	r7, sp, #0
 142              		.cfi_def_cfa_register 7
 143 0006 7860     		str	r0, [r7, #4]
 144              		.loc 2 20 0
 145 0008 7868     		ldr	r0, [r7, #4]
 146 000a FFF7FEFF 		bl	_ZN3IIRD1Ev
 147 000e 7868     		ldr	r0, [r7, #4]
 148 0010 FFF7FEFF 		bl	_ZdlPv
 149 0014 7B68     		ldr	r3, [r7, #4]
 150 0016 1846     		mov	r0, r3
 151 0018 0837     		adds	r7, r7, #8
 152 001a BD46     		mov	sp, r7
 153              		@ sp needed
 154 001c 80BD     		pop	{r7, pc}
 155              		.cfi_endproc
 156              	.LFE264:
 157              		.size	_ZN3IIRD0Ev, .-_ZN3IIRD0Ev
 158 001e 00BF     		.section	.rodata
 159              		.align	2
 160              	.LC0:
 161 0000 0D0A456E 		.ascii	"\015\012Entro buffer\015\012\000"
 161      74726F20 
 161      62756666 
 161      65720D0A 
 161      00
 162              		.global	__aeabi_fsub
 163 0011 000000   		.section	.text._ZN3IIR11directFormIEf,"ax",%progbits
 164              		.align	2
 165              		.p2align 4,,15
 166              		.global	_ZN3IIR11directFormIEf
ARM GAS  C:\Users\Luis\AppData\Local\Temp\ccSqLEWf.s 			page 4


 167              		.thumb
 168              		.thumb_func
 169              		.type	_ZN3IIR11directFormIEf, %function
 170              	_ZN3IIR11directFormIEf:
 171              	.LFB265:
 172              		.loc 2 22 0
 173              		.cfi_startproc
 174              		@ args = 0, pretend = 0, frame = 48
 175              		@ frame_needed = 1, uses_anonymous_args = 0
 176 0000 80B5     		push	{r7, lr}
 177              		.cfi_def_cfa_offset 8
 178              		.cfi_offset 7, -8
 179              		.cfi_offset 14, -4
 180 0002 8EB0     		sub	sp, sp, #56
 181              		.cfi_def_cfa_offset 64
 182 0004 02AF     		add	r7, sp, #8
 183              		.cfi_def_cfa 7, 56
 184 0006 7860     		str	r0, [r7, #4]
 185 0008 3960     		str	r1, [r7]	@ float
 186              	.LBB4:
 187              		.loc 2 26 0
 188 000a 0020     		movs	r0, #0
 189 000c 0421     		movs	r1, #4
 190 000e FFF7FEFF 		bl	chHeapAlloc
 191 0012 F862     		str	r0, [r7, #44]
 192              		.loc 2 29 0
 193 0014 7B68     		ldr	r3, [r7, #4]
 194 0016 5B68     		ldr	r3, [r3, #4]
 195 0018 1846     		mov	r0, r3
 196 001a FFF7FEFF 		bl	_ZNK10DataFilter15getArrayInputsXEv
 197 001e B862     		str	r0, [r7, #40]
 198              		.loc 2 30 0
 199 0020 7B68     		ldr	r3, [r7, #4]
 200 0022 5B68     		ldr	r3, [r3, #4]
 201 0024 1846     		mov	r0, r3
 202 0026 FFF7FEFF 		bl	_ZNK10DataFilter15getArrayInputsYEv
 203 002a 7862     		str	r0, [r7, #36]
 204              		.loc 2 32 0
 205 002c 7B68     		ldr	r3, [r7, #4]
 206 002e 5B68     		ldr	r3, [r3, #4]
 207 0030 1846     		mov	r0, r3
 208 0032 FFF7FEFF 		bl	_ZNK10DataFilter14getFilterOrderEv
 209 0036 3862     		str	r0, [r7, #32]
 210              		.loc 2 35 0
 211 0038 4FF00003 		mov	r3, #0
 212 003c FB61     		str	r3, [r7, #28]	@ float
 213              		.loc 2 36 0
 214 003e 7B68     		ldr	r3, [r7, #4]
 215 0040 5B68     		ldr	r3, [r3, #4]
 216 0042 1846     		mov	r0, r3
 217 0044 FFF7FEFF 		bl	_ZNK10DataFilter21getArrayCoefficientsBEv
 218 0048 B861     		str	r0, [r7, #24]
 219              		.loc 2 38 0
 220 004a 4FF00003 		mov	r3, #0
 221 004e 7B61     		str	r3, [r7, #20]	@ float
 222              		.loc 2 39 0
 223 0050 7B68     		ldr	r3, [r7, #4]
ARM GAS  C:\Users\Luis\AppData\Local\Temp\ccSqLEWf.s 			page 5


 224 0052 5B68     		ldr	r3, [r3, #4]
 225 0054 1846     		mov	r0, r3
 226 0056 FFF7FEFF 		bl	_ZNK10DataFilter21getArrayCoefficientsAEv
 227 005a 3861     		str	r0, [r7, #16]
 228              		.loc 2 44 0
 229 005c 7B68     		ldr	r3, [r7, #4]
 230 005e 9B68     		ldr	r3, [r3, #8]
 231 0060 0A2B     		cmp	r3, #10
 232 0062 12D1     		bne	.L13
 233              		.loc 2 45 0
 234 0064 2648     		ldr	r0, .L15
 235 0066 2749     		ldr	r1, .L15+4
 236 0068 FFF7FEFF 		bl	_ZL8chprintfP20BaseSequentialStreamPKcz
 237              		.loc 2 46 0
 238 006c 7B68     		ldr	r3, [r7, #4]
 239 006e 5B68     		ldr	r3, [r3, #4]
 240 0070 1846     		mov	r0, r3
 241 0072 B96A     		ldr	r1, [r7, #40]
 242 0074 FFF7FEFF 		bl	_ZN10DataFilter9moveArrayEPf
 243              		.loc 2 47 0
 244 0078 7B68     		ldr	r3, [r7, #4]
 245 007a 5B68     		ldr	r3, [r3, #4]
 246 007c 1846     		mov	r0, r3
 247 007e 796A     		ldr	r1, [r7, #36]
 248 0080 FFF7FEFF 		bl	_ZN10DataFilter9moveArrayEPf
 249              		.loc 2 48 0
 250 0084 7B68     		ldr	r3, [r7, #4]
 251 0086 0022     		movs	r2, #0
 252 0088 9A60     		str	r2, [r3, #8]
 253              	.L13:
 254              		.loc 2 51 0
 255 008a 7B68     		ldr	r3, [r7, #4]
 256 008c 9A68     		ldr	r2, [r3, #8]
 257 008e 3B6A     		ldr	r3, [r7, #32]
 258 0090 1344     		add	r3, r3, r2
 259 0092 FB60     		str	r3, [r7, #12]
 260              		.loc 2 54 0
 261 0094 FB68     		ldr	r3, [r7, #12]
 262 0096 9B00     		lsls	r3, r3, #2
 263 0098 BA6A     		ldr	r2, [r7, #40]
 264 009a 1344     		add	r3, r3, r2
 265 009c 3A68     		ldr	r2, [r7]	@ float
 266 009e 1A60     		str	r2, [r3]	@ float
 267              		.loc 2 58 0
 268 00a0 7B68     		ldr	r3, [r7, #4]
 269 00a2 9B68     		ldr	r3, [r3, #8]
 270 00a4 BA6A     		ldr	r2, [r7, #40]
 271 00a6 0092     		str	r2, [sp]
 272 00a8 0193     		str	r3, [sp, #4]
 273 00aa F86A     		ldr	r0, [r7, #44]
 274 00ac 396A     		ldr	r1, [r7, #32]
 275 00ae 0022     		movs	r2, #0
 276 00b0 BB69     		ldr	r3, [r7, #24]
 277 00b2 FFF7FEFF 		bl	_ZN12FuntionsMath3sumEiiPfS0_i
 278 00b6 F861     		str	r0, [r7, #28]	@ float
 279              		.loc 2 62 0
 280 00b8 3B6A     		ldr	r3, [r7, #32]
ARM GAS  C:\Users\Luis\AppData\Local\Temp\ccSqLEWf.s 			page 6


 281 00ba 013B     		subs	r3, r3, #1
 282 00bc 7A68     		ldr	r2, [r7, #4]
 283 00be 9268     		ldr	r2, [r2, #8]
 284 00c0 796A     		ldr	r1, [r7, #36]
 285 00c2 0091     		str	r1, [sp]
 286 00c4 0192     		str	r2, [sp, #4]
 287 00c6 F86A     		ldr	r0, [r7, #44]
 288 00c8 1946     		mov	r1, r3
 289 00ca 0022     		movs	r2, #0
 290 00cc 3B69     		ldr	r3, [r7, #16]
 291 00ce FFF7FEFF 		bl	_ZN12FuntionsMath3sumEiiPfS0_i
 292 00d2 7861     		str	r0, [r7, #20]	@ float
 293              		.loc 2 65 0
 294 00d4 F869     		ldr	r0, [r7, #28]	@ float
 295 00d6 7969     		ldr	r1, [r7, #20]	@ float
 296 00d8 FFF7FEFF 		bl	__aeabi_fsub
 297 00dc 0346     		mov	r3, r0
 298 00de BB60     		str	r3, [r7, #8]	@ float
 299              		.loc 2 68 0
 300 00e0 FB68     		ldr	r3, [r7, #12]
 301 00e2 9B00     		lsls	r3, r3, #2
 302 00e4 7A6A     		ldr	r2, [r7, #36]
 303 00e6 1344     		add	r3, r3, r2
 304 00e8 BA68     		ldr	r2, [r7, #8]	@ float
 305 00ea 1A60     		str	r2, [r3]	@ float
 306              		.loc 2 70 0
 307 00ec 7B68     		ldr	r3, [r7, #4]
 308 00ee 9B68     		ldr	r3, [r3, #8]
 309 00f0 5A1C     		adds	r2, r3, #1
 310 00f2 7B68     		ldr	r3, [r7, #4]
 311 00f4 9A60     		str	r2, [r3, #8]
 312              		.loc 2 72 0
 313 00f6 BB68     		ldr	r3, [r7, #8]	@ float
 314              	.LBE4:
 315              		.loc 2 74 0
 316 00f8 1846     		mov	r0, r3
 317 00fa 3037     		adds	r7, r7, #48
 318 00fc BD46     		mov	sp, r7
 319              		@ sp needed
 320 00fe 80BD     		pop	{r7, pc}
 321              	.L16:
 322              		.align	2
 323              	.L15:
 324 0100 00000000 		.word	SD1
 325 0104 00000000 		.word	.LC0
 326              		.cfi_endproc
 327              	.LFE265:
 328              		.size	_ZN3IIR11directFormIEf, .-_ZN3IIR11directFormIEf
 329 0108 AFF30080 		.section	.text._ZN3IIR20setInitialDataFilterEP10DataFilter,"ax",%progbits
 329      AFF30080 
 330              		.align	2
 331              		.p2align 4,,15
 332              		.global	_ZN3IIR20setInitialDataFilterEP10DataFilter
 333              		.thumb
 334              		.thumb_func
 335              		.type	_ZN3IIR20setInitialDataFilterEP10DataFilter, %function
 336              	_ZN3IIR20setInitialDataFilterEP10DataFilter:
ARM GAS  C:\Users\Luis\AppData\Local\Temp\ccSqLEWf.s 			page 7


 337              	.LFB266:
 338              		.loc 2 76 0
 339              		.cfi_startproc
 340              		@ args = 0, pretend = 0, frame = 8
 341              		@ frame_needed = 1, uses_anonymous_args = 0
 342 0000 80B5     		push	{r7, lr}
 343              		.cfi_def_cfa_offset 8
 344              		.cfi_offset 7, -8
 345              		.cfi_offset 14, -4
 346 0002 82B0     		sub	sp, sp, #8
 347              		.cfi_def_cfa_offset 16
 348 0004 00AF     		add	r7, sp, #0
 349              		.cfi_def_cfa_register 7
 350 0006 7860     		str	r0, [r7, #4]
 351 0008 3960     		str	r1, [r7]
 352              		.loc 2 77 0
 353 000a 7B68     		ldr	r3, [r7, #4]
 354 000c 3A68     		ldr	r2, [r7]
 355 000e 5A60     		str	r2, [r3, #4]
 356              		.loc 2 78 0
 357 0010 7B68     		ldr	r3, [r7, #4]
 358 0012 0022     		movs	r2, #0
 359 0014 9A60     		str	r2, [r3, #8]
 360              		.loc 2 79 0
 361 0016 7B68     		ldr	r3, [r7, #4]
 362 0018 5B68     		ldr	r3, [r3, #4]
 363 001a 1846     		mov	r0, r3
 364 001c FFF7FEFF 		bl	_ZN10DataFilter19createArrayInputIIREv
 365              		.loc 2 80 0
 366 0020 0837     		adds	r7, r7, #8
 367 0022 BD46     		mov	sp, r7
 368              		@ sp needed
 369 0024 80BD     		pop	{r7, pc}
 370              		.cfi_endproc
 371              	.LFE266:
 372              		.size	_ZN3IIR20setInitialDataFilterEP10DataFilter, .-_ZN3IIR20setInitialDataFilterEP10DataFilter
 373              		.global	_ZTV3IIR
 374              		.section	.rodata._ZTV3IIR,"a",%progbits
 375              		.align	3
 376              		.type	_ZTV3IIR, %object
 377              		.size	_ZTV3IIR, 16
 378              	_ZTV3IIR:
 379 0000 00000000 		.word	0
 380 0004 00000000 		.word	0
 381 0008 00000000 		.word	_ZN3IIRD1Ev
 382 000c 00000000 		.word	_ZN3IIRD0Ev
 383              		.text
 384              	.Letext0:
 385              		.file 3 "c:\\emtechesdk\\gcc\\lib\\gcc\\arm-none-eabi\\4.8.3\\include\\stddef.h"
 386              		.file 4 "c:\\emtechesdk\\gcc\\arm-none-eabi\\include\\stdint.h"
 387              		.file 5 "../../ChibiOS/os/rt/ports/ARMCMx/compilers/GCC/chtypes.h"
 388              		.file 6 "../../ChibiOS/os/rt/include/chsystypes.h"
 389              		.file 7 "../../ChibiOS/os/rt/include/chschd.h"
 390              		.file 8 "../../ChibiOS/os/ext/CMSIS/ST/stm32f407xx.h"
 391              		.file 9 "../../ChibiOS/os/rt/ports/ARMCMx/chcore.h"
 392              		.file 10 "../../ChibiOS/os/rt/ports/ARMCMx/chcore_v7m.h"
 393              		.file 11 "../../ChibiOS/os/rt/include/chdebug.h"
ARM GAS  C:\Users\Luis\AppData\Local\Temp\ccSqLEWf.s 			page 8


 394              		.file 12 "../../ChibiOS/os/rt/include/chtm.h"
 395              		.file 13 "../../ChibiOS/os/rt/include/chstats.h"
 396              		.file 14 "../../ChibiOS/os/rt/include/chsem.h"
 397              		.file 15 "../../ChibiOS/os/rt/include/chmtx.h"
 398              		.file 16 "../../ChibiOS/os/rt/include/chevents.h"
 399              		.file 17 "../../ChibiOS/os/rt/include/chqueues.h"
 400              		.file 18 "../../ChibiOS/os/rt/include/chstreams.h"
 401              		.file 19 "../../ChibiOS/os/hal/include/serial.h"
 402              		.file 20 "c:\\emtechesdk\\gcc\\lib\\gcc\\arm-none-eabi\\4.8.3\\include\\stdarg.h"
 403              		.file 21 "<built-in>"
 404              		.file 22 "header/IIR.h"
 405              		.file 23 "../../ChibiOS/os/hal/ports/STM32/LLD/USARTv1/serial_lld.h"
 406              		.file 24 "../../ChibiOS/os/ext/CMSIS/include/core_cm4.h"
 407              		.section	.debug_info,"",%progbits
 408              	.Ldebug_info0:
 409 0000 FE0E0000 		.4byte	0xefe
 410 0004 0400     		.2byte	0x4
 411 0006 00000000 		.4byte	.Ldebug_abbrev0
 412 000a 04       		.byte	0x4
 413 000b 01       		.uleb128 0x1
 414 000c CE050000 		.4byte	.LASF205
 415 0010 04       		.byte	0x4
 416 0011 130A0000 		.4byte	.LASF206
 417 0015 A7010000 		.4byte	.LASF207
 418 0019 00000000 		.4byte	.Ldebug_ranges0+0
 419 001d 00000000 		.4byte	0
 420 0021 00000000 		.4byte	.Ldebug_line0
 421 0025 02       		.uleb128 0x2
 422 0026 04       		.byte	0x4
 423 0027 05       		.byte	0x5
 424 0028 696E7400 		.ascii	"int\000"
 425 002c 03       		.uleb128 0x3
 426 002d 20000000 		.4byte	.LASF2
 427 0031 03       		.byte	0x3
 428 0032 D4       		.byte	0xd4
 429 0033 37000000 		.4byte	0x37
 430 0037 04       		.uleb128 0x4
 431 0038 04       		.byte	0x4
 432 0039 07       		.byte	0x7
 433 003a C0020000 		.4byte	.LASF0
 434 003e 04       		.uleb128 0x4
 435 003f 01       		.byte	0x1
 436 0040 06       		.byte	0x6
 437 0041 3D010000 		.4byte	.LASF1
 438 0045 03       		.uleb128 0x3
 439 0046 91090000 		.4byte	.LASF3
 440 004a 04       		.byte	0x4
 441 004b 2A       		.byte	0x2a
 442 004c 50000000 		.4byte	0x50
 443 0050 04       		.uleb128 0x4
 444 0051 01       		.byte	0x1
 445 0052 08       		.byte	0x8
 446 0053 D6080000 		.4byte	.LASF4
 447 0057 04       		.uleb128 0x4
 448 0058 02       		.byte	0x2
 449 0059 05       		.byte	0x5
 450 005a 3B070000 		.4byte	.LASF5
ARM GAS  C:\Users\Luis\AppData\Local\Temp\ccSqLEWf.s 			page 9


 451 005e 04       		.uleb128 0x4
 452 005f 02       		.byte	0x2
 453 0060 07       		.byte	0x7
 454 0061 5B030000 		.4byte	.LASF6
 455 0065 03       		.uleb128 0x3
 456 0066 E7060000 		.4byte	.LASF7
 457 006a 04       		.byte	0x4
 458 006b 4F       		.byte	0x4f
 459 006c 70000000 		.4byte	0x70
 460 0070 04       		.uleb128 0x4
 461 0071 04       		.byte	0x4
 462 0072 05       		.byte	0x5
 463 0073 F0010000 		.4byte	.LASF8
 464 0077 03       		.uleb128 0x3
 465 0078 DA070000 		.4byte	.LASF9
 466 007c 04       		.byte	0x4
 467 007d 50       		.byte	0x50
 468 007e 82000000 		.4byte	0x82
 469 0082 04       		.uleb128 0x4
 470 0083 04       		.byte	0x4
 471 0084 07       		.byte	0x7
 472 0085 63010000 		.4byte	.LASF10
 473 0089 04       		.uleb128 0x4
 474 008a 08       		.byte	0x8
 475 008b 05       		.byte	0x5
 476 008c 2F010000 		.4byte	.LASF11
 477 0090 03       		.uleb128 0x3
 478 0091 39000000 		.4byte	.LASF12
 479 0095 04       		.byte	0x4
 480 0096 78       		.byte	0x78
 481 0097 9B000000 		.4byte	0x9b
 482 009b 04       		.uleb128 0x4
 483 009c 08       		.byte	0x8
 484 009d 07       		.byte	0x7
 485 009e 83000000 		.4byte	.LASF13
 486 00a2 05       		.uleb128 0x5
 487 00a3 65000000 		.4byte	0x65
 488 00a7 05       		.uleb128 0x5
 489 00a8 77000000 		.4byte	0x77
 490 00ac 03       		.uleb128 0x3
 491 00ad 8D040000 		.4byte	.LASF14
 492 00b1 05       		.byte	0x5
 493 00b2 45       		.byte	0x45
 494 00b3 77000000 		.4byte	0x77
 495 00b7 03       		.uleb128 0x3
 496 00b8 00000000 		.4byte	.LASF15
 497 00bc 05       		.byte	0x5
 498 00bd 46       		.byte	0x46
 499 00be 90000000 		.4byte	0x90
 500 00c2 03       		.uleb128 0x3
 501 00c3 DF030000 		.4byte	.LASF16
 502 00c7 05       		.byte	0x5
 503 00c8 48       		.byte	0x48
 504 00c9 45000000 		.4byte	0x45
 505 00cd 03       		.uleb128 0x3
 506 00ce F9010000 		.4byte	.LASF17
 507 00d2 05       		.byte	0x5
ARM GAS  C:\Users\Luis\AppData\Local\Temp\ccSqLEWf.s 			page 10


 508 00d3 49       		.byte	0x49
 509 00d4 45000000 		.4byte	0x45
 510 00d8 03       		.uleb128 0x3
 511 00d9 94050000 		.4byte	.LASF18
 512 00dd 05       		.byte	0x5
 513 00de 4A       		.byte	0x4a
 514 00df 45000000 		.4byte	0x45
 515 00e3 03       		.uleb128 0x3
 516 00e4 C7060000 		.4byte	.LASF19
 517 00e8 05       		.byte	0x5
 518 00e9 4C       		.byte	0x4c
 519 00ea 77000000 		.4byte	0x77
 520 00ee 03       		.uleb128 0x3
 521 00ef A2030000 		.4byte	.LASF20
 522 00f3 05       		.byte	0x5
 523 00f4 4D       		.byte	0x4d
 524 00f5 65000000 		.4byte	0x65
 525 00f9 03       		.uleb128 0x3
 526 00fa 05040000 		.4byte	.LASF21
 527 00fe 05       		.byte	0x5
 528 00ff 4F       		.byte	0x4f
 529 0100 77000000 		.4byte	0x77
 530 0104 03       		.uleb128 0x3
 531 0105 02020000 		.4byte	.LASF22
 532 0109 05       		.byte	0x5
 533 010a 50       		.byte	0x50
 534 010b 77000000 		.4byte	0x77
 535 010f 03       		.uleb128 0x3
 536 0110 A4020000 		.4byte	.LASF23
 537 0114 05       		.byte	0x5
 538 0115 51       		.byte	0x51
 539 0116 65000000 		.4byte	0x65
 540 011a 03       		.uleb128 0x3
 541 011b AF030000 		.4byte	.LASF24
 542 011f 05       		.byte	0x5
 543 0120 52       		.byte	0x52
 544 0121 77000000 		.4byte	0x77
 545 0125 03       		.uleb128 0x3
 546 0126 75080000 		.4byte	.LASF25
 547 012a 06       		.byte	0x6
 548 012b 33       		.byte	0x33
 549 012c 77000000 		.4byte	0x77
 550 0130 03       		.uleb128 0x3
 551 0131 61090000 		.4byte	.LASF26
 552 0135 06       		.byte	0x6
 553 0136 3F       		.byte	0x3f
 554 0137 3B010000 		.4byte	0x13b
 555 013b 06       		.uleb128 0x6
 556 013c 8E030000 		.4byte	.LASF56
 557 0140 68       		.byte	0x68
 558 0141 07       		.byte	0x7
 559 0142 C2       		.byte	0xc2
 560 0143 AB020000 		.4byte	0x2ab
 561 0147 07       		.uleb128 0x7
 562 0148 04       		.byte	0x4
 563 0149 07       		.byte	0x7
 564 014a FA       		.byte	0xfa
ARM GAS  C:\Users\Luis\AppData\Local\Temp\ccSqLEWf.s 			page 11


 565 014b A4010000 		.4byte	0x1a4
 566 014f 08       		.uleb128 0x8
 567 0150 32000000 		.4byte	.LASF27
 568 0154 07       		.byte	0x7
 569 0155 0101     		.2byte	0x101
 570 0157 EE000000 		.4byte	0xee
 571 015b 08       		.uleb128 0x8
 572 015c B3000000 		.4byte	.LASF28
 573 0160 07       		.byte	0x7
 574 0161 0801     		.2byte	0x108
 575 0163 EE000000 		.4byte	0xee
 576 0167 08       		.uleb128 0x8
 577 0168 A0010000 		.4byte	.LASF29
 578 016c 07       		.byte	0x7
 579 016d 0F01     		.2byte	0x10f
 580 016f 93030000 		.4byte	0x393
 581 0173 08       		.uleb128 0x8
 582 0174 C7040000 		.4byte	.LASF30
 583 0178 07       		.byte	0x7
 584 0179 1601     		.2byte	0x116
 585 017b 85070000 		.4byte	0x785
 586 017f 08       		.uleb128 0x8
 587 0180 09030000 		.4byte	.LASF31
 588 0184 07       		.byte	0x7
 589 0185 1E01     		.2byte	0x11e
 590 0187 B0070000 		.4byte	0x7b0
 591 018b 08       		.uleb128 0x8
 592 018c E3070000 		.4byte	.LASF32
 593 0190 07       		.byte	0x7
 594 0191 2701     		.2byte	0x127
 595 0193 E7070000 		.4byte	0x7e7
 596 0197 08       		.uleb128 0x8
 597 0198 73070000 		.4byte	.LASF33
 598 019c 07       		.byte	0x7
 599 019d 2F01     		.2byte	0x12f
 600 019f F9000000 		.4byte	0xf9
 601 01a3 00       		.byte	0
 602 01a4 09       		.uleb128 0x9
 603 01a5 7A070000 		.4byte	.LASF34
 604 01a9 07       		.byte	0x7
 605 01aa C3       		.byte	0xc3
 606 01ab B6020000 		.4byte	0x2b6
 607 01af 00       		.byte	0
 608 01b0 09       		.uleb128 0x9
 609 01b1 7D040000 		.4byte	.LASF35
 610 01b5 07       		.byte	0x7
 611 01b6 C5       		.byte	0xc5
 612 01b7 B6020000 		.4byte	0x2b6
 613 01bb 04       		.byte	0x4
 614 01bc 09       		.uleb128 0x9
 615 01bd 18010000 		.4byte	.LASF36
 616 01c1 07       		.byte	0x7
 617 01c2 C7       		.byte	0xc7
 618 01c3 E3000000 		.4byte	0xe3
 619 01c7 08       		.byte	0x8
 620 01c8 09       		.uleb128 0x9
 621 01c9 2D0A0000 		.4byte	.LASF37
ARM GAS  C:\Users\Luis\AppData\Local\Temp\ccSqLEWf.s 			page 12


 622 01cd 07       		.byte	0x7
 623 01ce C8       		.byte	0xc8
 624 01cf 92050000 		.4byte	0x592
 625 01d3 0C       		.byte	0xc
 626 01d4 09       		.uleb128 0x9
 627 01d5 3D020000 		.4byte	.LASF38
 628 01d9 07       		.byte	0x7
 629 01da CA       		.byte	0xca
 630 01db B6020000 		.4byte	0x2b6
 631 01df 10       		.byte	0x10
 632 01e0 09       		.uleb128 0x9
 633 01e1 F7040000 		.4byte	.LASF39
 634 01e5 07       		.byte	0x7
 635 01e6 CB       		.byte	0xcb
 636 01e7 B6020000 		.4byte	0x2b6
 637 01eb 14       		.byte	0x14
 638 01ec 09       		.uleb128 0x9
 639 01ed D7060000 		.4byte	.LASF40
 640 01f1 07       		.byte	0x7
 641 01f2 D2       		.byte	0xd2
 642 01f3 ED070000 		.4byte	0x7ed
 643 01f7 18       		.byte	0x18
 644 01f8 09       		.uleb128 0x9
 645 01f9 33050000 		.4byte	.LASF41
 646 01fd 07       		.byte	0x7
 647 01fe D8       		.byte	0xd8
 648 01ff FF070000 		.4byte	0x7ff
 649 0203 1C       		.byte	0x1c
 650 0204 09       		.uleb128 0x9
 651 0205 45070000 		.4byte	.LASF42
 652 0209 07       		.byte	0x7
 653 020a DD       		.byte	0xdd
 654 020b CD000000 		.4byte	0xcd
 655 020f 20       		.byte	0x20
 656 0210 09       		.uleb128 0x9
 657 0211 F2090000 		.4byte	.LASF43
 658 0215 07       		.byte	0x7
 659 0216 E1       		.byte	0xe1
 660 0217 C2000000 		.4byte	0xc2
 661 021b 21       		.byte	0x21
 662 021c 09       		.uleb128 0x9
 663 021d 42090000 		.4byte	.LASF44
 664 0221 07       		.byte	0x7
 665 0222 E6       		.byte	0xe6
 666 0223 D8000000 		.4byte	0xd8
 667 0227 22       		.byte	0x22
 668 0228 0A       		.uleb128 0xa
 669 0229 705F7500 		.ascii	"p_u\000"
 670 022d 07       		.byte	0x7
 671 022e 3101     		.2byte	0x131
 672 0230 47010000 		.4byte	0x147
 673 0234 24       		.byte	0x24
 674 0235 0B       		.uleb128 0xb
 675 0236 330A0000 		.4byte	.LASF45
 676 023a 07       		.byte	0x7
 677 023b 3601     		.2byte	0x136
 678 023d BC020000 		.4byte	0x2bc
ARM GAS  C:\Users\Luis\AppData\Local\Temp\ccSqLEWf.s 			page 13


 679 0241 28       		.byte	0x28
 680 0242 0B       		.uleb128 0xb
 681 0243 F5080000 		.4byte	.LASF46
 682 0247 07       		.byte	0x7
 683 0248 3C01     		.2byte	0x13c
 684 024a E0020000 		.4byte	0x2e0
 685 024e 2C       		.byte	0x2c
 686 024f 0B       		.uleb128 0xb
 687 0250 FA090000 		.4byte	.LASF47
 688 0254 07       		.byte	0x7
 689 0255 4001     		.2byte	0x140
 690 0257 EE000000 		.4byte	0xee
 691 025b 34       		.byte	0x34
 692 025c 0B       		.uleb128 0xb
 693 025d C5070000 		.4byte	.LASF48
 694 0261 07       		.byte	0x7
 695 0262 4601     		.2byte	0x146
 696 0264 F9000000 		.4byte	0xf9
 697 0268 38       		.byte	0x38
 698 0269 0B       		.uleb128 0xb
 699 026a 31070000 		.4byte	.LASF49
 700 026e 07       		.byte	0x7
 701 026f 4D01     		.2byte	0x14d
 702 0271 E7070000 		.4byte	0x7e7
 703 0275 3C       		.byte	0x3c
 704 0276 0B       		.uleb128 0xb
 705 0277 7F080000 		.4byte	.LASF50
 706 027b 07       		.byte	0x7
 707 027c 5101     		.2byte	0x151
 708 027e E3000000 		.4byte	0xe3
 709 0282 40       		.byte	0x40
 710 0283 0B       		.uleb128 0xb
 711 0284 75010000 		.4byte	.LASF51
 712 0288 07       		.byte	0x7
 713 0289 5801     		.2byte	0x158
 714 028b 93030000 		.4byte	0x393
 715 028f 44       		.byte	0x44
 716 0290 0B       		.uleb128 0xb
 717 0291 19020000 		.4byte	.LASF52
 718 0295 07       		.byte	0x7
 719 0296 5E01     		.2byte	0x15e
 720 0298 32070000 		.4byte	0x732
 721 029c 48       		.byte	0x48
 722 029d 0B       		.uleb128 0xb
 723 029e 2E030000 		.4byte	.LASF53
 724 02a2 07       		.byte	0x7
 725 02a3 6201     		.2byte	0x162
 726 02a5 93030000 		.4byte	0x393
 727 02a9 60       		.byte	0x60
 728 02aa 00       		.byte	0
 729 02ab 03       		.uleb128 0x3
 730 02ac A2090000 		.4byte	.LASF54
 731 02b0 06       		.byte	0x6
 732 02b1 44       		.byte	0x44
 733 02b2 B6020000 		.4byte	0x2b6
 734 02b6 0C       		.uleb128 0xc
 735 02b7 04       		.byte	0x4
ARM GAS  C:\Users\Luis\AppData\Local\Temp\ccSqLEWf.s 			page 14


 736 02b8 30010000 		.4byte	0x130
 737 02bc 03       		.uleb128 0x3
 738 02bd CE090000 		.4byte	.LASF55
 739 02c1 06       		.byte	0x6
 740 02c2 49       		.byte	0x49
 741 02c3 C7020000 		.4byte	0x2c7
 742 02c7 06       		.uleb128 0x6
 743 02c8 FB070000 		.4byte	.LASF57
 744 02cc 04       		.byte	0x4
 745 02cd 07       		.byte	0x7
 746 02ce B0       		.byte	0xb0
 747 02cf E0020000 		.4byte	0x2e0
 748 02d3 09       		.uleb128 0x9
 749 02d4 7A070000 		.4byte	.LASF34
 750 02d8 07       		.byte	0x7
 751 02d9 B1       		.byte	0xb1
 752 02da B6020000 		.4byte	0x2b6
 753 02de 00       		.byte	0
 754 02df 00       		.byte	0
 755 02e0 03       		.uleb128 0x3
 756 02e1 A8070000 		.4byte	.LASF58
 757 02e5 06       		.byte	0x6
 758 02e6 50       		.byte	0x50
 759 02e7 EB020000 		.4byte	0x2eb
 760 02eb 06       		.uleb128 0x6
 761 02ec 07010000 		.4byte	.LASF59
 762 02f0 08       		.byte	0x8
 763 02f1 07       		.byte	0x7
 764 02f2 B7       		.byte	0xb7
 765 02f3 10030000 		.4byte	0x310
 766 02f7 09       		.uleb128 0x9
 767 02f8 7A070000 		.4byte	.LASF34
 768 02fc 07       		.byte	0x7
 769 02fd B8       		.byte	0xb8
 770 02fe B6020000 		.4byte	0x2b6
 771 0302 00       		.byte	0
 772 0303 09       		.uleb128 0x9
 773 0304 7D040000 		.4byte	.LASF35
 774 0308 07       		.byte	0x7
 775 0309 B9       		.byte	0xb9
 776 030a B6020000 		.4byte	0x2b6
 777 030e 04       		.byte	0x4
 778 030f 00       		.byte	0
 779 0310 03       		.uleb128 0x3
 780 0311 09000000 		.4byte	.LASF60
 781 0315 06       		.byte	0x6
 782 0316 57       		.byte	0x57
 783 0317 1B030000 		.4byte	0x31b
 784 031b 0D       		.uleb128 0xd
 785 031c F7030000 		.4byte	.LASF61
 786 0320 1C       		.byte	0x1c
 787 0321 07       		.byte	0x7
 788 0322 9001     		.2byte	0x190
 789 0324 77030000 		.4byte	0x377
 790 0328 0B       		.uleb128 0xb
 791 0329 EA070000 		.4byte	.LASF62
 792 032d 07       		.byte	0x7
ARM GAS  C:\Users\Luis\AppData\Local\Temp\ccSqLEWf.s 			page 15


 793 032e 9101     		.2byte	0x191
 794 0330 E0020000 		.4byte	0x2e0
 795 0334 00       		.byte	0
 796 0335 0B       		.uleb128 0xb
 797 0336 5F070000 		.4byte	.LASF63
 798 033a 07       		.byte	0x7
 799 033b 9201     		.2byte	0x192
 800 033d E3000000 		.4byte	0xe3
 801 0341 08       		.byte	0x8
 802 0342 0B       		.uleb128 0xb
 803 0343 FF040000 		.4byte	.LASF64
 804 0347 07       		.byte	0x7
 805 0348 9401     		.2byte	0x194
 806 034a 92050000 		.4byte	0x592
 807 034e 0C       		.byte	0xc
 808 034f 0B       		.uleb128 0xb
 809 0350 53020000 		.4byte	.LASF65
 810 0354 07       		.byte	0x7
 811 0355 9701     		.2byte	0x197
 812 0357 B6020000 		.4byte	0x2b6
 813 035b 10       		.byte	0x10
 814 035c 0B       		.uleb128 0xb
 815 035d 55050000 		.4byte	.LASF66
 816 0361 07       		.byte	0x7
 817 0362 9801     		.2byte	0x198
 818 0364 B6020000 		.4byte	0x2b6
 819 0368 14       		.byte	0x14
 820 0369 0B       		.uleb128 0xb
 821 036a 32080000 		.4byte	.LASF67
 822 036e 07       		.byte	0x7
 823 036f 9B01     		.2byte	0x19b
 824 0371 B6020000 		.4byte	0x2b6
 825 0375 18       		.byte	0x18
 826 0376 00       		.byte	0
 827 0377 03       		.uleb128 0x3
 828 0378 8A080000 		.4byte	.LASF68
 829 037c 06       		.byte	0x6
 830 037d 5C       		.byte	0x5c
 831 037e 82030000 		.4byte	0x382
 832 0382 0C       		.uleb128 0xc
 833 0383 04       		.byte	0x4
 834 0384 88030000 		.4byte	0x388
 835 0388 0E       		.uleb128 0xe
 836 0389 93030000 		.4byte	0x393
 837 038d 0F       		.uleb128 0xf
 838 038e 93030000 		.4byte	0x393
 839 0392 00       		.byte	0
 840 0393 10       		.uleb128 0x10
 841 0394 04       		.byte	0x4
 842 0395 03       		.uleb128 0x3
 843 0396 B6050000 		.4byte	.LASF69
 844 039a 06       		.byte	0x6
 845 039b 61       		.byte	0x61
 846 039c A0030000 		.4byte	0x3a0
 847 03a0 0D       		.uleb128 0xd
 848 03a1 E4080000 		.4byte	.LASF70
 849 03a5 14       		.byte	0x14
ARM GAS  C:\Users\Luis\AppData\Local\Temp\ccSqLEWf.s 			page 16


 850 03a6 07       		.byte	0x7
 851 03a7 6B01     		.2byte	0x16b
 852 03a9 EF030000 		.4byte	0x3ef
 853 03ad 0B       		.uleb128 0xb
 854 03ae 26030000 		.4byte	.LASF71
 855 03b2 07       		.byte	0x7
 856 03b3 6C01     		.2byte	0x16c
 857 03b5 05080000 		.4byte	0x805
 858 03b9 00       		.byte	0
 859 03ba 0B       		.uleb128 0xb
 860 03bb 64020000 		.4byte	.LASF72
 861 03bf 07       		.byte	0x7
 862 03c0 6D01     		.2byte	0x16d
 863 03c2 05080000 		.4byte	0x805
 864 03c6 04       		.byte	0x4
 865 03c7 0B       		.uleb128 0xb
 866 03c8 F2070000 		.4byte	.LASF73
 867 03cc 07       		.byte	0x7
 868 03cd 6E01     		.2byte	0x16e
 869 03cf 25010000 		.4byte	0x125
 870 03d3 08       		.byte	0x8
 871 03d4 0B       		.uleb128 0xb
 872 03d5 2B050000 		.4byte	.LASF74
 873 03d9 07       		.byte	0x7
 874 03da 6F01     		.2byte	0x16f
 875 03dc 77030000 		.4byte	0x377
 876 03e0 0C       		.byte	0xc
 877 03e1 0B       		.uleb128 0xb
 878 03e2 09090000 		.4byte	.LASF75
 879 03e6 07       		.byte	0x7
 880 03e7 7101     		.2byte	0x171
 881 03e9 93030000 		.4byte	0x393
 882 03ed 10       		.byte	0x10
 883 03ee 00       		.byte	0
 884 03ef 03       		.uleb128 0x3
 885 03f0 D9000000 		.4byte	.LASF76
 886 03f4 06       		.byte	0x6
 887 03f5 66       		.byte	0x66
 888 03f6 FA030000 		.4byte	0x3fa
 889 03fa 0D       		.uleb128 0xd
 890 03fb A6040000 		.4byte	.LASF77
 891 03ff 10       		.byte	0x10
 892 0400 07       		.byte	0x7
 893 0401 7B01     		.2byte	0x17b
 894 0403 3C040000 		.4byte	0x43c
 895 0407 0B       		.uleb128 0xb
 896 0408 26030000 		.4byte	.LASF71
 897 040c 07       		.byte	0x7
 898 040d 7C01     		.2byte	0x17c
 899 040f 05080000 		.4byte	0x805
 900 0413 00       		.byte	0
 901 0414 0B       		.uleb128 0xb
 902 0415 64020000 		.4byte	.LASF72
 903 0419 07       		.byte	0x7
 904 041a 7E01     		.2byte	0x17e
 905 041c 05080000 		.4byte	0x805
 906 0420 04       		.byte	0x4
ARM GAS  C:\Users\Luis\AppData\Local\Temp\ccSqLEWf.s 			page 17


 907 0421 0B       		.uleb128 0xb
 908 0422 F2070000 		.4byte	.LASF73
 909 0426 07       		.byte	0x7
 910 0427 8001     		.2byte	0x180
 911 0429 25010000 		.4byte	0x125
 912 042d 08       		.byte	0x8
 913 042e 0B       		.uleb128 0xb
 914 042f EB040000 		.4byte	.LASF78
 915 0433 07       		.byte	0x7
 916 0434 8801     		.2byte	0x188
 917 0436 25010000 		.4byte	0x125
 918 043a 0C       		.byte	0xc
 919 043b 00       		.byte	0
 920 043c 03       		.uleb128 0x3
 921 043d 10030000 		.4byte	.LASF79
 922 0441 06       		.byte	0x6
 923 0442 6B       		.byte	0x6b
 924 0443 47040000 		.4byte	0x447
 925 0447 11       		.uleb128 0x11
 926 0448 6C020000 		.4byte	.LASF80
 927 044c 1404     		.2byte	0x414
 928 044e 07       		.byte	0x7
 929 044f A201     		.2byte	0x1a2
 930 0451 8A040000 		.4byte	0x48a
 931 0455 0B       		.uleb128 0xb
 932 0456 98080000 		.4byte	.LASF81
 933 045a 07       		.byte	0x7
 934 045b AA01     		.2byte	0x1aa
 935 045d 0B080000 		.4byte	0x80b
 936 0461 00       		.byte	0
 937 0462 0B       		.uleb128 0xb
 938 0463 49090000 		.4byte	.LASF82
 939 0467 07       		.byte	0x7
 940 0468 AF01     		.2byte	0x1af
 941 046a 0F010000 		.4byte	0x10f
 942 046e 04       		.byte	0x4
 943 046f 0B       		.uleb128 0xb
 944 0470 84020000 		.4byte	.LASF83
 945 0474 07       		.byte	0x7
 946 0475 B301     		.2byte	0x1b3
 947 0477 0F010000 		.4byte	0x10f
 948 047b 08       		.byte	0x8
 949 047c 0B       		.uleb128 0xb
 950 047d E5090000 		.4byte	.LASF84
 951 0481 07       		.byte	0x7
 952 0482 B901     		.2byte	0x1b9
 953 0484 BC060000 		.4byte	0x6bc
 954 0488 0C       		.byte	0xc
 955 0489 00       		.byte	0
 956 048a 03       		.uleb128 0x3
 957 048b BE030000 		.4byte	.LASF85
 958 048f 06       		.byte	0x6
 959 0490 70       		.byte	0x70
 960 0491 95040000 		.4byte	0x495
 961 0495 11       		.uleb128 0x11
 962 0496 E6010000 		.4byte	.LASF86
 963 049a E805     		.2byte	0x5e8
ARM GAS  C:\Users\Luis\AppData\Local\Temp\ccSqLEWf.s 			page 18


 964 049c 07       		.byte	0x7
 965 049d C201     		.2byte	0x1c2
 966 049f 02050000 		.4byte	0x502
 967 04a3 0B       		.uleb128 0xb
 968 04a4 7E090000 		.4byte	.LASF87
 969 04a8 07       		.byte	0x7
 970 04a9 C601     		.2byte	0x1c6
 971 04ab 10030000 		.4byte	0x310
 972 04af 00       		.byte	0
 973 04b0 0B       		.uleb128 0xb
 974 04b1 63000000 		.4byte	.LASF88
 975 04b5 07       		.byte	0x7
 976 04b6 CA01     		.2byte	0x1ca
 977 04b8 EF030000 		.4byte	0x3ef
 978 04bc 1C       		.byte	0x1c
 979 04bd 0A       		.uleb128 0xa
 980 04be 64626700 		.ascii	"dbg\000"
 981 04c2 07       		.byte	0x7
 982 04c3 CE01     		.2byte	0x1ce
 983 04c5 3C040000 		.4byte	0x43c
 984 04c9 2C       		.byte	0x2c
 985 04ca 12       		.uleb128 0x12
 986 04cb BC000000 		.4byte	.LASF89
 987 04cf 07       		.byte	0x7
 988 04d0 D201     		.2byte	0x1d2
 989 04d2 30010000 		.4byte	0x130
 990 04d6 4004     		.2byte	0x440
 991 04d8 13       		.uleb128 0x13
 992 04d9 746D00   		.ascii	"tm\000"
 993 04dc 07       		.byte	0x7
 994 04dd D701     		.2byte	0x1d7
 995 04df E0060000 		.4byte	0x6e0
 996 04e3 A804     		.2byte	0x4a8
 997 04e5 12       		.uleb128 0x12
 998 04e6 42000000 		.4byte	.LASF90
 999 04ea 07       		.byte	0x7
 1000 04eb DD01     		.2byte	0x1dd
 1001 04ed 7A070000 		.4byte	0x77a
 1002 04f1 B004     		.2byte	0x4b0
 1003 04f3 12       		.uleb128 0x12
 1004 04f4 99070000 		.4byte	.LASF91
 1005 04f8 07       		.byte	0x7
 1006 04f9 E301     		.2byte	0x1e3
 1007 04fb 10080000 		.4byte	0x810
 1008 04ff E804     		.2byte	0x4e8
 1009 0501 00       		.byte	0
 1010 0502 04       		.uleb128 0x4
 1011 0503 04       		.byte	0x4
 1012 0504 07       		.byte	0x7
 1013 0505 99090000 		.4byte	.LASF92
 1014 0509 14       		.uleb128 0x14
 1015 050a 1C       		.byte	0x1c
 1016 050b 08       		.byte	0x8
 1017 050c 0A03     		.2byte	0x30a
 1018 050e 51090000 		.4byte	.LASF208
 1019 0512 70050000 		.4byte	0x570
 1020 0516 0A       		.uleb128 0xa
ARM GAS  C:\Users\Luis\AppData\Local\Temp\ccSqLEWf.s 			page 19


 1021 0517 535200   		.ascii	"SR\000"
 1022 051a 08       		.byte	0x8
 1023 051b 0B03     		.2byte	0x30b
 1024 051d A7000000 		.4byte	0xa7
 1025 0521 00       		.byte	0
 1026 0522 0A       		.uleb128 0xa
 1027 0523 445200   		.ascii	"DR\000"
 1028 0526 08       		.byte	0x8
 1029 0527 0C03     		.2byte	0x30c
 1030 0529 A7000000 		.4byte	0xa7
 1031 052d 04       		.byte	0x4
 1032 052e 0A       		.uleb128 0xa
 1033 052f 42525200 		.ascii	"BRR\000"
 1034 0533 08       		.byte	0x8
 1035 0534 0D03     		.2byte	0x30d
 1036 0536 A7000000 		.4byte	0xa7
 1037 053a 08       		.byte	0x8
 1038 053b 0A       		.uleb128 0xa
 1039 053c 43523100 		.ascii	"CR1\000"
 1040 0540 08       		.byte	0x8
 1041 0541 0E03     		.2byte	0x30e
 1042 0543 A7000000 		.4byte	0xa7
 1043 0547 0C       		.byte	0xc
 1044 0548 0A       		.uleb128 0xa
 1045 0549 43523200 		.ascii	"CR2\000"
 1046 054d 08       		.byte	0x8
 1047 054e 0F03     		.2byte	0x30f
 1048 0550 A7000000 		.4byte	0xa7
 1049 0554 10       		.byte	0x10
 1050 0555 0A       		.uleb128 0xa
 1051 0556 43523300 		.ascii	"CR3\000"
 1052 055a 08       		.byte	0x8
 1053 055b 1003     		.2byte	0x310
 1054 055d A7000000 		.4byte	0xa7
 1055 0561 14       		.byte	0x14
 1056 0562 0B       		.uleb128 0xb
 1057 0563 5E010000 		.4byte	.LASF93
 1058 0567 08       		.byte	0x8
 1059 0568 1103     		.2byte	0x311
 1060 056a A7000000 		.4byte	0xa7
 1061 056e 18       		.byte	0x18
 1062 056f 00       		.byte	0
 1063 0570 15       		.uleb128 0x15
 1064 0571 CA030000 		.4byte	.LASF94
 1065 0575 08       		.byte	0x8
 1066 0576 1203     		.2byte	0x312
 1067 0578 09050000 		.4byte	0x509
 1068 057c 03       		.uleb128 0x3
 1069 057d 5B020000 		.4byte	.LASF95
 1070 0581 09       		.byte	0x9
 1071 0582 65       		.byte	0x65
 1072 0583 93030000 		.4byte	0x393
 1073 0587 03       		.uleb128 0x3
 1074 0588 32040000 		.4byte	.LASF96
 1075 058c 09       		.byte	0x9
 1076 058d 6D       		.byte	0x6d
 1077 058e 90000000 		.4byte	0x90
ARM GAS  C:\Users\Luis\AppData\Local\Temp\ccSqLEWf.s 			page 20


 1078 0592 06       		.uleb128 0x6
 1079 0593 CE080000 		.4byte	.LASF97
 1080 0597 04       		.byte	0x4
 1081 0598 09       		.byte	0x9
 1082 0599 89       		.byte	0x89
 1083 059a AB050000 		.4byte	0x5ab
 1084 059e 16       		.uleb128 0x16
 1085 059f 72313300 		.ascii	"r13\000"
 1086 05a3 09       		.byte	0x9
 1087 05a4 8A       		.byte	0x8a
 1088 05a5 26060000 		.4byte	0x626
 1089 05a9 00       		.byte	0
 1090 05aa 00       		.byte	0
 1091 05ab 06       		.uleb128 0x6
 1092 05ac 4F000000 		.4byte	.LASF98
 1093 05b0 24       		.byte	0x24
 1094 05b1 0A       		.byte	0xa
 1095 05b2 F4       		.byte	0xf4
 1096 05b3 26060000 		.4byte	0x626
 1097 05b7 0A       		.uleb128 0xa
 1098 05b8 723400   		.ascii	"r4\000"
 1099 05bb 0A       		.byte	0xa
 1100 05bc 0701     		.2byte	0x107
 1101 05be 7C050000 		.4byte	0x57c
 1102 05c2 00       		.byte	0
 1103 05c3 0A       		.uleb128 0xa
 1104 05c4 723500   		.ascii	"r5\000"
 1105 05c7 0A       		.byte	0xa
 1106 05c8 0801     		.2byte	0x108
 1107 05ca 7C050000 		.4byte	0x57c
 1108 05ce 04       		.byte	0x4
 1109 05cf 0A       		.uleb128 0xa
 1110 05d0 723600   		.ascii	"r6\000"
 1111 05d3 0A       		.byte	0xa
 1112 05d4 0901     		.2byte	0x109
 1113 05d6 7C050000 		.4byte	0x57c
 1114 05da 08       		.byte	0x8
 1115 05db 0A       		.uleb128 0xa
 1116 05dc 723700   		.ascii	"r7\000"
 1117 05df 0A       		.byte	0xa
 1118 05e0 0A01     		.2byte	0x10a
 1119 05e2 7C050000 		.4byte	0x57c
 1120 05e6 0C       		.byte	0xc
 1121 05e7 0A       		.uleb128 0xa
 1122 05e8 723800   		.ascii	"r8\000"
 1123 05eb 0A       		.byte	0xa
 1124 05ec 0B01     		.2byte	0x10b
 1125 05ee 7C050000 		.4byte	0x57c
 1126 05f2 10       		.byte	0x10
 1127 05f3 0A       		.uleb128 0xa
 1128 05f4 723900   		.ascii	"r9\000"
 1129 05f7 0A       		.byte	0xa
 1130 05f8 0C01     		.2byte	0x10c
 1131 05fa 7C050000 		.4byte	0x57c
 1132 05fe 14       		.byte	0x14
 1133 05ff 0A       		.uleb128 0xa
 1134 0600 72313000 		.ascii	"r10\000"
ARM GAS  C:\Users\Luis\AppData\Local\Temp\ccSqLEWf.s 			page 21


 1135 0604 0A       		.byte	0xa
 1136 0605 0D01     		.2byte	0x10d
 1137 0607 7C050000 		.4byte	0x57c
 1138 060b 18       		.byte	0x18
 1139 060c 0A       		.uleb128 0xa
 1140 060d 72313100 		.ascii	"r11\000"
 1141 0611 0A       		.byte	0xa
 1142 0612 0E01     		.2byte	0x10e
 1143 0614 7C050000 		.4byte	0x57c
 1144 0618 1C       		.byte	0x1c
 1145 0619 0A       		.uleb128 0xa
 1146 061a 6C7200   		.ascii	"lr\000"
 1147 061d 0A       		.byte	0xa
 1148 061e 0F01     		.2byte	0x10f
 1149 0620 7C050000 		.4byte	0x57c
 1150 0624 20       		.byte	0x20
 1151 0625 00       		.byte	0
 1152 0626 0C       		.uleb128 0xc
 1153 0627 04       		.byte	0x4
 1154 0628 AB050000 		.4byte	0x5ab
 1155 062c 17       		.uleb128 0x17
 1156 062d 10       		.byte	0x10
 1157 062e 0B       		.byte	0xb
 1158 062f 51       		.byte	0x51
 1159 0630 7D030000 		.4byte	.LASF108
 1160 0634 69060000 		.4byte	0x669
 1161 0638 09       		.uleb128 0x9
 1162 0639 9C020000 		.4byte	.LASF99
 1163 063d 0B       		.byte	0xb
 1164 063e 55       		.byte	0x55
 1165 063f 25010000 		.4byte	0x125
 1166 0643 00       		.byte	0
 1167 0644 09       		.uleb128 0x9
 1168 0645 21020000 		.4byte	.LASF100
 1169 0649 0B       		.byte	0xb
 1170 064a 59       		.byte	0x59
 1171 064b B6020000 		.4byte	0x2b6
 1172 064f 04       		.byte	0x4
 1173 0650 09       		.uleb128 0x9
 1174 0651 230A0000 		.4byte	.LASF101
 1175 0655 0B       		.byte	0xb
 1176 0656 5D       		.byte	0x5d
 1177 0657 93030000 		.4byte	0x393
 1178 065b 08       		.byte	0x8
 1179 065c 09       		.uleb128 0x9
 1180 065d AA000000 		.4byte	.LASF102
 1181 0661 0B       		.byte	0xb
 1182 0662 61       		.byte	0x61
 1183 0663 45000000 		.4byte	0x45
 1184 0667 0C       		.byte	0xc
 1185 0668 00       		.byte	0
 1186 0669 03       		.uleb128 0x3
 1187 066a DC040000 		.4byte	.LASF103
 1188 066e 0B       		.byte	0xb
 1189 066f 62       		.byte	0x62
 1190 0670 2C060000 		.4byte	0x62c
 1191 0674 18       		.uleb128 0x18
ARM GAS  C:\Users\Luis\AppData\Local\Temp\ccSqLEWf.s 			page 22


 1192 0675 0804     		.2byte	0x408
 1193 0677 0B       		.byte	0xb
 1194 0678 67       		.byte	0x67
 1195 0679 1E040000 		.4byte	.LASF209
 1196 067d A6060000 		.4byte	0x6a6
 1197 0681 09       		.uleb128 0x9
 1198 0682 42040000 		.4byte	.LASF104
 1199 0686 0B       		.byte	0xb
 1200 0687 6B       		.byte	0x6b
 1201 0688 37000000 		.4byte	0x37
 1202 068c 00       		.byte	0
 1203 068d 09       		.uleb128 0x9
 1204 068e 76040000 		.4byte	.LASF105
 1205 0692 0B       		.byte	0xb
 1206 0693 6F       		.byte	0x6f
 1207 0694 A6060000 		.4byte	0x6a6
 1208 0698 04       		.byte	0x4
 1209 0699 09       		.uleb128 0x9
 1210 069a 9C050000 		.4byte	.LASF106
 1211 069e 0B       		.byte	0xb
 1212 069f 73       		.byte	0x73
 1213 06a0 AC060000 		.4byte	0x6ac
 1214 06a4 08       		.byte	0x8
 1215 06a5 00       		.byte	0
 1216 06a6 0C       		.uleb128 0xc
 1217 06a7 04       		.byte	0x4
 1218 06a8 69060000 		.4byte	0x669
 1219 06ac 19       		.uleb128 0x19
 1220 06ad 69060000 		.4byte	0x669
 1221 06b1 BC060000 		.4byte	0x6bc
 1222 06b5 1A       		.uleb128 0x1a
 1223 06b6 02050000 		.4byte	0x502
 1224 06ba 3F       		.byte	0x3f
 1225 06bb 00       		.byte	0
 1226 06bc 03       		.uleb128 0x3
 1227 06bd EF060000 		.4byte	.LASF107
 1228 06c1 0B       		.byte	0xb
 1229 06c2 74       		.byte	0x74
 1230 06c3 74060000 		.4byte	0x674
 1231 06c7 17       		.uleb128 0x17
 1232 06c8 04       		.byte	0x4
 1233 06c9 0C       		.byte	0xc
 1234 06ca 38       		.byte	0x38
 1235 06cb 56080000 		.4byte	.LASF109
 1236 06cf E0060000 		.4byte	0x6e0
 1237 06d3 09       		.uleb128 0x9
 1238 06d4 A2080000 		.4byte	.LASF110
 1239 06d8 0C       		.byte	0xc
 1240 06d9 3C       		.byte	0x3c
 1241 06da AC000000 		.4byte	0xac
 1242 06de 00       		.byte	0
 1243 06df 00       		.byte	0
 1244 06e0 03       		.uleb128 0x3
 1245 06e1 95040000 		.4byte	.LASF111
 1246 06e5 0C       		.byte	0xc
 1247 06e6 3D       		.byte	0x3d
 1248 06e7 C7060000 		.4byte	0x6c7
ARM GAS  C:\Users\Luis\AppData\Local\Temp\ccSqLEWf.s 			page 23


 1249 06eb 17       		.uleb128 0x17
 1250 06ec 18       		.byte	0x18
 1251 06ed 0C       		.byte	0xc
 1252 06ee 48       		.byte	0x48
 1253 06ef 05050000 		.4byte	.LASF112
 1254 06f3 32070000 		.4byte	0x732
 1255 06f7 09       		.uleb128 0x9
 1256 06f8 69080000 		.4byte	.LASF113
 1257 06fc 0C       		.byte	0xc
 1258 06fd 49       		.byte	0x49
 1259 06fe AC000000 		.4byte	0xac
 1260 0702 00       		.byte	0
 1261 0703 09       		.uleb128 0x9
 1262 0704 6A000000 		.4byte	.LASF114
 1263 0708 0C       		.byte	0xc
 1264 0709 4A       		.byte	0x4a
 1265 070a AC000000 		.4byte	0xac
 1266 070e 04       		.byte	0x4
 1267 070f 09       		.uleb128 0x9
 1268 0710 93080000 		.4byte	.LASF115
 1269 0714 0C       		.byte	0xc
 1270 0715 4B       		.byte	0x4b
 1271 0716 AC000000 		.4byte	0xac
 1272 071a 08       		.byte	0x8
 1273 071b 16       		.uleb128 0x16
 1274 071c 6E00     		.ascii	"n\000"
 1275 071e 0C       		.byte	0xc
 1276 071f 4C       		.byte	0x4c
 1277 0720 1A010000 		.4byte	0x11a
 1278 0724 0C       		.byte	0xc
 1279 0725 09       		.uleb128 0x9
 1280 0726 67050000 		.4byte	.LASF116
 1281 072a 0C       		.byte	0xc
 1282 072b 4D       		.byte	0x4d
 1283 072c B7000000 		.4byte	0xb7
 1284 0730 10       		.byte	0x10
 1285 0731 00       		.byte	0
 1286 0732 03       		.uleb128 0x3
 1287 0733 70000000 		.4byte	.LASF117
 1288 0737 0C       		.byte	0xc
 1289 0738 4E       		.byte	0x4e
 1290 0739 EB060000 		.4byte	0x6eb
 1291 073d 17       		.uleb128 0x17
 1292 073e 38       		.byte	0x38
 1293 073f 0D       		.byte	0xd
 1294 0740 38       		.byte	0x38
 1295 0741 1A050000 		.4byte	.LASF118
 1296 0745 7A070000 		.4byte	0x77a
 1297 0749 09       		.uleb128 0x9
 1298 074a 3A030000 		.4byte	.LASF119
 1299 074e 0D       		.byte	0xd
 1300 074f 39       		.byte	0x39
 1301 0750 1A010000 		.4byte	0x11a
 1302 0754 00       		.byte	0
 1303 0755 09       		.uleb128 0x9
 1304 0756 DE060000 		.4byte	.LASF120
 1305 075a 0D       		.byte	0xd
ARM GAS  C:\Users\Luis\AppData\Local\Temp\ccSqLEWf.s 			page 24


 1306 075b 3A       		.byte	0x3a
 1307 075c 1A010000 		.4byte	0x11a
 1308 0760 04       		.byte	0x4
 1309 0761 09       		.uleb128 0x9
 1310 0762 BC060000 		.4byte	.LASF121
 1311 0766 0D       		.byte	0xd
 1312 0767 3B       		.byte	0x3b
 1313 0768 32070000 		.4byte	0x732
 1314 076c 08       		.byte	0x8
 1315 076d 09       		.uleb128 0x9
 1316 076e EC030000 		.4byte	.LASF122
 1317 0772 0D       		.byte	0xd
 1318 0773 3D       		.byte	0x3d
 1319 0774 32070000 		.4byte	0x732
 1320 0778 20       		.byte	0x20
 1321 0779 00       		.byte	0
 1322 077a 03       		.uleb128 0x3
 1323 077b 6E030000 		.4byte	.LASF123
 1324 077f 0D       		.byte	0xd
 1325 0780 3F       		.byte	0x3f
 1326 0781 3D070000 		.4byte	0x73d
 1327 0785 0C       		.uleb128 0xc
 1328 0786 04       		.byte	0x4
 1329 0787 AB020000 		.4byte	0x2ab
 1330 078b 06       		.uleb128 0x6
 1331 078c B8070000 		.4byte	.LASF124
 1332 0790 0C       		.byte	0xc
 1333 0791 0E       		.byte	0xe
 1334 0792 34       		.byte	0x34
 1335 0793 B0070000 		.4byte	0x7b0
 1336 0797 09       		.uleb128 0x9
 1337 0798 45020000 		.4byte	.LASF125
 1338 079c 0E       		.byte	0xe
 1339 079d 35       		.byte	0x35
 1340 079e E0020000 		.4byte	0x2e0
 1341 07a2 00       		.byte	0
 1342 07a3 09       		.uleb128 0x9
 1343 07a4 4F030000 		.4byte	.LASF126
 1344 07a8 0E       		.byte	0xe
 1345 07a9 37       		.byte	0x37
 1346 07aa 0F010000 		.4byte	0x10f
 1347 07ae 08       		.byte	0x8
 1348 07af 00       		.byte	0
 1349 07b0 0C       		.uleb128 0xc
 1350 07b1 04       		.byte	0x4
 1351 07b2 8B070000 		.4byte	0x78b
 1352 07b6 06       		.uleb128 0x6
 1353 07b7 39090000 		.4byte	.LASF127
 1354 07bb 10       		.byte	0x10
 1355 07bc 0F       		.byte	0xf
 1356 07bd 39       		.byte	0x39
 1357 07be E7070000 		.4byte	0x7e7
 1358 07c2 09       		.uleb128 0x9
 1359 07c3 01070000 		.4byte	.LASF128
 1360 07c7 0F       		.byte	0xf
 1361 07c8 3A       		.byte	0x3a
 1362 07c9 E0020000 		.4byte	0x2e0
ARM GAS  C:\Users\Luis\AppData\Local\Temp\ccSqLEWf.s 			page 25


 1363 07cd 00       		.byte	0
 1364 07ce 09       		.uleb128 0x9
 1365 07cf 1B0A0000 		.4byte	.LASF129
 1366 07d3 0F       		.byte	0xf
 1367 07d4 3C       		.byte	0x3c
 1368 07d5 B6020000 		.4byte	0x2b6
 1369 07d9 08       		.byte	0x8
 1370 07da 09       		.uleb128 0x9
 1371 07db 6E080000 		.4byte	.LASF130
 1372 07df 0F       		.byte	0xf
 1373 07e0 3E       		.byte	0x3e
 1374 07e1 2B080000 		.4byte	0x82b
 1375 07e5 0C       		.byte	0xc
 1376 07e6 00       		.byte	0
 1377 07e7 0C       		.uleb128 0xc
 1378 07e8 04       		.byte	0x4
 1379 07e9 B6070000 		.4byte	0x7b6
 1380 07ed 0C       		.uleb128 0xc
 1381 07ee 04       		.byte	0x4
 1382 07ef F3070000 		.4byte	0x7f3
 1383 07f3 1B       		.uleb128 0x1b
 1384 07f4 F8070000 		.4byte	0x7f8
 1385 07f8 04       		.uleb128 0x4
 1386 07f9 01       		.byte	0x1
 1387 07fa 08       		.byte	0x8
 1388 07fb 3C080000 		.4byte	.LASF131
 1389 07ff 0C       		.uleb128 0xc
 1390 0800 04       		.byte	0x4
 1391 0801 87050000 		.4byte	0x587
 1392 0805 0C       		.uleb128 0xc
 1393 0806 04       		.byte	0x4
 1394 0807 95030000 		.4byte	0x395
 1395 080b 05       		.uleb128 0x5
 1396 080c ED070000 		.4byte	0x7ed
 1397 0810 19       		.uleb128 0x19
 1398 0811 9B000000 		.4byte	0x9b
 1399 0815 20080000 		.4byte	0x820
 1400 0819 1A       		.uleb128 0x1a
 1401 081a 02050000 		.4byte	0x502
 1402 081e 1F       		.byte	0x1f
 1403 081f 00       		.byte	0
 1404 0820 03       		.uleb128 0x3
 1405 0821 7C020000 		.4byte	.LASF132
 1406 0825 0F       		.byte	0xf
 1407 0826 34       		.byte	0x34
 1408 0827 B6070000 		.4byte	0x7b6
 1409 082b 0C       		.uleb128 0xc
 1410 082c 04       		.byte	0x4
 1411 082d 20080000 		.4byte	0x820
 1412 0831 03       		.uleb128 0x3
 1413 0832 4A040000 		.4byte	.LASF133
 1414 0836 10       		.byte	0x10
 1415 0837 34       		.byte	0x34
 1416 0838 3C080000 		.4byte	0x83c
 1417 083c 06       		.uleb128 0x6
 1418 083d 3D0A0000 		.4byte	.LASF134
 1419 0841 14       		.byte	0x14
ARM GAS  C:\Users\Luis\AppData\Local\Temp\ccSqLEWf.s 			page 26


 1420 0842 10       		.byte	0x10
 1421 0843 39       		.byte	0x39
 1422 0844 85080000 		.4byte	0x885
 1423 0848 09       		.uleb128 0x9
 1424 0849 B6030000 		.4byte	.LASF135
 1425 084d 10       		.byte	0x10
 1426 084e 3A       		.byte	0x3a
 1427 084f 85080000 		.4byte	0x885
 1428 0853 00       		.byte	0
 1429 0854 09       		.uleb128 0x9
 1430 0855 1C070000 		.4byte	.LASF136
 1431 0859 10       		.byte	0x10
 1432 085a 3D       		.byte	0x3d
 1433 085b B6020000 		.4byte	0x2b6
 1434 085f 04       		.byte	0x4
 1435 0860 09       		.uleb128 0x9
 1436 0861 5D050000 		.4byte	.LASF137
 1437 0865 10       		.byte	0x10
 1438 0866 3F       		.byte	0x3f
 1439 0867 F9000000 		.4byte	0xf9
 1440 086b 08       		.byte	0x8
 1441 086c 09       		.uleb128 0x9
 1442 086d 28070000 		.4byte	.LASF138
 1443 0871 10       		.byte	0x10
 1444 0872 41       		.byte	0x41
 1445 0873 04010000 		.4byte	0x104
 1446 0877 0C       		.byte	0xc
 1447 0878 09       		.uleb128 0x9
 1448 0879 98030000 		.4byte	.LASF139
 1449 087d 10       		.byte	0x10
 1450 087e 43       		.byte	0x43
 1451 087f 04010000 		.4byte	0x104
 1452 0883 10       		.byte	0x10
 1453 0884 00       		.byte	0
 1454 0885 0C       		.uleb128 0xc
 1455 0886 04       		.byte	0x4
 1456 0887 31080000 		.4byte	0x831
 1457 088b 06       		.uleb128 0x6
 1458 088c 84090000 		.4byte	.LASF140
 1459 0890 04       		.byte	0x4
 1460 0891 10       		.byte	0x10
 1461 0892 4A       		.byte	0x4a
 1462 0893 A4080000 		.4byte	0x8a4
 1463 0897 09       		.uleb128 0x9
 1464 0898 DD090000 		.4byte	.LASF141
 1465 089c 10       		.byte	0x10
 1466 089d 4B       		.byte	0x4b
 1467 089e 85080000 		.4byte	0x885
 1468 08a2 00       		.byte	0
 1469 08a3 00       		.byte	0
 1470 08a4 03       		.uleb128 0x3
 1471 08a5 8D020000 		.4byte	.LASF142
 1472 08a9 10       		.byte	0x10
 1473 08aa 4E       		.byte	0x4e
 1474 08ab 8B080000 		.4byte	0x88b
 1475 08af 03       		.uleb128 0x3
 1476 08b0 FC000000 		.4byte	.LASF143
ARM GAS  C:\Users\Luis\AppData\Local\Temp\ccSqLEWf.s 			page 27


 1477 08b4 11       		.byte	0x11
 1478 08b5 3F       		.byte	0x3f
 1479 08b6 BA080000 		.4byte	0x8ba
 1480 08ba 06       		.uleb128 0x6
 1481 08bb 84040000 		.4byte	.LASF144
 1482 08bf 24       		.byte	0x24
 1483 08c0 11       		.byte	0x11
 1484 08c1 4D       		.byte	0x4d
 1485 08c2 27090000 		.4byte	0x927
 1486 08c6 09       		.uleb128 0x9
 1487 08c7 25010000 		.4byte	.LASF145
 1488 08cb 11       		.byte	0x11
 1489 08cc 4E       		.byte	0x4e
 1490 08cd E0020000 		.4byte	0x2e0
 1491 08d1 00       		.byte	0
 1492 08d2 09       		.uleb128 0x9
 1493 08d3 BD040000 		.4byte	.LASF146
 1494 08d7 11       		.byte	0x11
 1495 08d8 4F       		.byte	0x4f
 1496 08d9 49090000 		.4byte	0x949
 1497 08dd 08       		.byte	0x8
 1498 08de 09       		.uleb128 0x9
 1499 08df 27020000 		.4byte	.LASF147
 1500 08e3 11       		.byte	0x11
 1501 08e4 50       		.byte	0x50
 1502 08e5 4E090000 		.4byte	0x94e
 1503 08e9 0C       		.byte	0xc
 1504 08ea 09       		.uleb128 0x9
 1505 08eb 33090000 		.4byte	.LASF148
 1506 08ef 11       		.byte	0x11
 1507 08f0 51       		.byte	0x51
 1508 08f1 4E090000 		.4byte	0x94e
 1509 08f5 10       		.byte	0x10
 1510 08f6 09       		.uleb128 0x9
 1511 08f7 30020000 		.4byte	.LASF149
 1512 08fb 11       		.byte	0x11
 1513 08fc 53       		.byte	0x53
 1514 08fd 4E090000 		.4byte	0x94e
 1515 0901 14       		.byte	0x14
 1516 0902 09       		.uleb128 0x9
 1517 0903 CF060000 		.4byte	.LASF150
 1518 0907 11       		.byte	0x11
 1519 0908 54       		.byte	0x54
 1520 0909 4E090000 		.4byte	0x94e
 1521 090d 18       		.byte	0x18
 1522 090e 09       		.uleb128 0x9
 1523 090f 6A090000 		.4byte	.LASF151
 1524 0913 11       		.byte	0x11
 1525 0914 55       		.byte	0x55
 1526 0915 27090000 		.4byte	0x927
 1527 0919 1C       		.byte	0x1c
 1528 091a 09       		.uleb128 0x9
 1529 091b 000A0000 		.4byte	.LASF152
 1530 091f 11       		.byte	0x11
 1531 0920 56       		.byte	0x56
 1532 0921 93030000 		.4byte	0x393
 1533 0925 20       		.byte	0x20
ARM GAS  C:\Users\Luis\AppData\Local\Temp\ccSqLEWf.s 			page 28


 1534 0926 00       		.byte	0
 1535 0927 03       		.uleb128 0x3
 1536 0928 AC050000 		.4byte	.LASF153
 1537 092c 11       		.byte	0x11
 1538 092d 42       		.byte	0x42
 1539 092e 32090000 		.4byte	0x932
 1540 0932 0C       		.uleb128 0xc
 1541 0933 04       		.byte	0x4
 1542 0934 38090000 		.4byte	0x938
 1543 0938 0E       		.uleb128 0xe
 1544 0939 43090000 		.4byte	0x943
 1545 093d 0F       		.uleb128 0xf
 1546 093e 43090000 		.4byte	0x943
 1547 0942 00       		.byte	0
 1548 0943 0C       		.uleb128 0xc
 1549 0944 04       		.byte	0x4
 1550 0945 AF080000 		.4byte	0x8af
 1551 0949 05       		.uleb128 0x5
 1552 094a 2C000000 		.4byte	0x2c
 1553 094e 0C       		.uleb128 0xc
 1554 094f 04       		.byte	0x4
 1555 0950 45000000 		.4byte	0x45
 1556 0954 03       		.uleb128 0x3
 1557 0955 5B040000 		.4byte	.LASF154
 1558 0959 11       		.byte	0x11
 1559 095a 64       		.byte	0x64
 1560 095b AF080000 		.4byte	0x8af
 1561 095f 03       		.uleb128 0x3
 1562 0960 1A090000 		.4byte	.LASF155
 1563 0964 11       		.byte	0x11
 1564 0965 71       		.byte	0x71
 1565 0966 AF080000 		.4byte	0x8af
 1566 096a 06       		.uleb128 0x6
 1567 096b 81070000 		.4byte	.LASF156
 1568 096f 10       		.byte	0x10
 1569 0970 12       		.byte	0x12
 1570 0971 40       		.byte	0x40
 1571 0972 A7090000 		.4byte	0x9a7
 1572 0976 09       		.uleb128 0x9
 1573 0977 A6050000 		.4byte	.LASF157
 1574 097b 12       		.byte	0x12
 1575 097c 41       		.byte	0x41
 1576 097d CB090000 		.4byte	0x9cb
 1577 0981 00       		.byte	0
 1578 0982 09       		.uleb128 0x9
 1579 0983 B5090000 		.4byte	.LASF158
 1580 0987 12       		.byte	0x12
 1581 0988 41       		.byte	0x41
 1582 0989 EA090000 		.4byte	0x9ea
 1583 098d 04       		.byte	0x4
 1584 098e 16       		.uleb128 0x16
 1585 098f 70757400 		.ascii	"put\000"
 1586 0993 12       		.byte	0x12
 1587 0994 41       		.byte	0x41
 1588 0995 040A0000 		.4byte	0xa04
 1589 0999 08       		.byte	0x8
 1590 099a 16       		.uleb128 0x16
ARM GAS  C:\Users\Luis\AppData\Local\Temp\ccSqLEWf.s 			page 29


 1591 099b 67657400 		.ascii	"get\000"
 1592 099f 12       		.byte	0x12
 1593 09a0 41       		.byte	0x41
 1594 09a1 190A0000 		.4byte	0xa19
 1595 09a5 0C       		.byte	0xc
 1596 09a6 00       		.byte	0
 1597 09a7 1C       		.uleb128 0x1c
 1598 09a8 2C000000 		.4byte	0x2c
 1599 09ac C0090000 		.4byte	0x9c0
 1600 09b0 0F       		.uleb128 0xf
 1601 09b1 93030000 		.4byte	0x393
 1602 09b5 0F       		.uleb128 0xf
 1603 09b6 C0090000 		.4byte	0x9c0
 1604 09ba 0F       		.uleb128 0xf
 1605 09bb 2C000000 		.4byte	0x2c
 1606 09bf 00       		.byte	0
 1607 09c0 0C       		.uleb128 0xc
 1608 09c1 04       		.byte	0x4
 1609 09c2 C6090000 		.4byte	0x9c6
 1610 09c6 1B       		.uleb128 0x1b
 1611 09c7 45000000 		.4byte	0x45
 1612 09cb 0C       		.uleb128 0xc
 1613 09cc 04       		.byte	0x4
 1614 09cd A7090000 		.4byte	0x9a7
 1615 09d1 1C       		.uleb128 0x1c
 1616 09d2 2C000000 		.4byte	0x2c
 1617 09d6 EA090000 		.4byte	0x9ea
 1618 09da 0F       		.uleb128 0xf
 1619 09db 93030000 		.4byte	0x393
 1620 09df 0F       		.uleb128 0xf
 1621 09e0 4E090000 		.4byte	0x94e
 1622 09e4 0F       		.uleb128 0xf
 1623 09e5 2C000000 		.4byte	0x2c
 1624 09e9 00       		.byte	0
 1625 09ea 0C       		.uleb128 0xc
 1626 09eb 04       		.byte	0x4
 1627 09ec D1090000 		.4byte	0x9d1
 1628 09f0 1C       		.uleb128 0x1c
 1629 09f1 EE000000 		.4byte	0xee
 1630 09f5 040A0000 		.4byte	0xa04
 1631 09f9 0F       		.uleb128 0xf
 1632 09fa 93030000 		.4byte	0x393
 1633 09fe 0F       		.uleb128 0xf
 1634 09ff 45000000 		.4byte	0x45
 1635 0a03 00       		.byte	0
 1636 0a04 0C       		.uleb128 0xc
 1637 0a05 04       		.byte	0x4
 1638 0a06 F0090000 		.4byte	0x9f0
 1639 0a0a 1C       		.uleb128 0x1c
 1640 0a0b EE000000 		.4byte	0xee
 1641 0a0f 190A0000 		.4byte	0xa19
 1642 0a13 0F       		.uleb128 0xf
 1643 0a14 93030000 		.4byte	0x393
 1644 0a18 00       		.byte	0
 1645 0a19 0C       		.uleb128 0xc
 1646 0a1a 04       		.byte	0x4
 1647 0a1b 0A0A0000 		.4byte	0xa0a
ARM GAS  C:\Users\Luis\AppData\Local\Temp\ccSqLEWf.s 			page 30


 1648 0a1f 17       		.uleb128 0x17
 1649 0a20 04       		.byte	0x4
 1650 0a21 12       		.byte	0x12
 1651 0a22 49       		.byte	0x49
 1652 0a23 7D010000 		.4byte	.LASF159
 1653 0a27 380A0000 		.4byte	0xa38
 1654 0a2b 16       		.uleb128 0x16
 1655 0a2c 766D7400 		.ascii	"vmt\000"
 1656 0a30 12       		.byte	0x12
 1657 0a31 4B       		.byte	0x4b
 1658 0a32 380A0000 		.4byte	0xa38
 1659 0a36 00       		.byte	0
 1660 0a37 00       		.byte	0
 1661 0a38 0C       		.uleb128 0xc
 1662 0a39 04       		.byte	0x4
 1663 0a3a 3E0A0000 		.4byte	0xa3e
 1664 0a3e 1B       		.uleb128 0x1b
 1665 0a3f 6A090000 		.4byte	0x96a
 1666 0a43 03       		.uleb128 0x3
 1667 0a44 41080000 		.4byte	.LASF160
 1668 0a48 12       		.byte	0x12
 1669 0a49 4D       		.byte	0x4d
 1670 0a4a 1F0A0000 		.4byte	0xa1f
 1671 0a4e 1C       		.uleb128 0x1c
 1672 0a4f EE000000 		.4byte	0xee
 1673 0a53 670A0000 		.4byte	0xa67
 1674 0a57 0F       		.uleb128 0xf
 1675 0a58 93030000 		.4byte	0x393
 1676 0a5c 0F       		.uleb128 0xf
 1677 0a5d 45000000 		.4byte	0x45
 1678 0a61 0F       		.uleb128 0xf
 1679 0a62 25010000 		.4byte	0x125
 1680 0a66 00       		.byte	0
 1681 0a67 0C       		.uleb128 0xc
 1682 0a68 04       		.byte	0x4
 1683 0a69 4E0A0000 		.4byte	0xa4e
 1684 0a6d 1C       		.uleb128 0x1c
 1685 0a6e EE000000 		.4byte	0xee
 1686 0a72 810A0000 		.4byte	0xa81
 1687 0a76 0F       		.uleb128 0xf
 1688 0a77 93030000 		.4byte	0x393
 1689 0a7b 0F       		.uleb128 0xf
 1690 0a7c 25010000 		.4byte	0x125
 1691 0a80 00       		.byte	0
 1692 0a81 0C       		.uleb128 0xc
 1693 0a82 04       		.byte	0x4
 1694 0a83 6D0A0000 		.4byte	0xa6d
 1695 0a87 1C       		.uleb128 0x1c
 1696 0a88 2C000000 		.4byte	0x2c
 1697 0a8c A50A0000 		.4byte	0xaa5
 1698 0a90 0F       		.uleb128 0xf
 1699 0a91 93030000 		.4byte	0x393
 1700 0a95 0F       		.uleb128 0xf
 1701 0a96 C0090000 		.4byte	0x9c0
 1702 0a9a 0F       		.uleb128 0xf
 1703 0a9b 2C000000 		.4byte	0x2c
 1704 0a9f 0F       		.uleb128 0xf
ARM GAS  C:\Users\Luis\AppData\Local\Temp\ccSqLEWf.s 			page 31


 1705 0aa0 25010000 		.4byte	0x125
 1706 0aa4 00       		.byte	0
 1707 0aa5 0C       		.uleb128 0xc
 1708 0aa6 04       		.byte	0x4
 1709 0aa7 870A0000 		.4byte	0xa87
 1710 0aab 1C       		.uleb128 0x1c
 1711 0aac 2C000000 		.4byte	0x2c
 1712 0ab0 C90A0000 		.4byte	0xac9
 1713 0ab4 0F       		.uleb128 0xf
 1714 0ab5 93030000 		.4byte	0x393
 1715 0ab9 0F       		.uleb128 0xf
 1716 0aba 4E090000 		.4byte	0x94e
 1717 0abe 0F       		.uleb128 0xf
 1718 0abf 2C000000 		.4byte	0x2c
 1719 0ac3 0F       		.uleb128 0xf
 1720 0ac4 25010000 		.4byte	0x125
 1721 0ac8 00       		.byte	0
 1722 0ac9 0C       		.uleb128 0xc
 1723 0aca 04       		.byte	0x4
 1724 0acb AB0A0000 		.4byte	0xaab
 1725 0acf 04       		.uleb128 0x4
 1726 0ad0 01       		.byte	0x1
 1727 0ad1 02       		.byte	0x2
 1728 0ad2 E7030000 		.4byte	.LASF161
 1729 0ad6 1D       		.uleb128 0x1d
 1730 0ad7 01       		.byte	0x1
 1731 0ad8 13       		.byte	0x13
 1732 0ad9 55       		.byte	0x55
 1733 0ada 27000000 		.4byte	.LASF210
 1734 0ade F50A0000 		.4byte	0xaf5
 1735 0ae2 1E       		.uleb128 0x1e
 1736 0ae3 D0070000 		.4byte	.LASF162
 1737 0ae7 00       		.sleb128 0
 1738 0ae8 1E       		.uleb128 0x1e
 1739 0ae9 C6050000 		.4byte	.LASF163
 1740 0aed 01       		.sleb128 1
 1741 0aee 1E       		.uleb128 0x1e
 1742 0aef 00090000 		.4byte	.LASF164
 1743 0af3 02       		.sleb128 2
 1744 0af4 00       		.byte	0
 1745 0af5 03       		.uleb128 0x3
 1746 0af6 29090000 		.4byte	.LASF165
 1747 0afa 13       		.byte	0x13
 1748 0afb 59       		.byte	0x59
 1749 0afc D60A0000 		.4byte	0xad6
 1750 0b00 03       		.uleb128 0x3
 1751 0b01 0B080000 		.4byte	.LASF166
 1752 0b05 13       		.byte	0x13
 1753 0b06 5E       		.byte	0x5e
 1754 0b07 0B0B0000 		.4byte	0xb0b
 1755 0b0b 1F       		.uleb128 0x1f
 1756 0b0c 0B080000 		.4byte	.LASF166
 1757 0b10 5820     		.2byte	0x2058
 1758 0b12 13       		.byte	0x13
 1759 0b13 78       		.byte	0x78
 1760 0b14 790B0000 		.4byte	0xb79
 1761 0b18 16       		.uleb128 0x16
ARM GAS  C:\Users\Luis\AppData\Local\Temp\ccSqLEWf.s 			page 32


 1762 0b19 766D7400 		.ascii	"vmt\000"
 1763 0b1d 13       		.byte	0x13
 1764 0b1e 7A       		.byte	0x7a
 1765 0b1f E60B0000 		.4byte	0xbe6
 1766 0b23 00       		.byte	0
 1767 0b24 09       		.uleb128 0x9
 1768 0b25 55030000 		.4byte	.LASF167
 1769 0b29 13       		.byte	0x13
 1770 0b2a 7B       		.byte	0x7b
 1771 0b2b A4080000 		.4byte	0x8a4
 1772 0b2f 04       		.byte	0x4
 1773 0b30 09       		.uleb128 0x9
 1774 0b31 E0010000 		.4byte	.LASF168
 1775 0b35 13       		.byte	0x13
 1776 0b36 7B       		.byte	0x7b
 1777 0b37 F50A0000 		.4byte	0xaf5
 1778 0b3b 08       		.byte	0x8
 1779 0b3c 09       		.uleb128 0x9
 1780 0b3d 1F030000 		.4byte	.LASF169
 1781 0b41 13       		.byte	0x13
 1782 0b42 7B       		.byte	0x7b
 1783 0b43 54090000 		.4byte	0x954
 1784 0b47 0C       		.byte	0xc
 1785 0b48 09       		.uleb128 0x9
 1786 0b49 A8030000 		.4byte	.LASF170
 1787 0b4d 13       		.byte	0x13
 1788 0b4e 7B       		.byte	0x7b
 1789 0b4f 5F090000 		.4byte	0x95f
 1790 0b53 30       		.byte	0x30
 1791 0b54 16       		.uleb128 0x16
 1792 0b55 696200   		.ascii	"ib\000"
 1793 0b58 13       		.byte	0x13
 1794 0b59 7B       		.byte	0x7b
 1795 0b5a F10B0000 		.4byte	0xbf1
 1796 0b5e 54       		.byte	0x54
 1797 0b5f 20       		.uleb128 0x20
 1798 0b60 6F6200   		.ascii	"ob\000"
 1799 0b63 13       		.byte	0x13
 1800 0b64 7B       		.byte	0x7b
 1801 0b65 F10B0000 		.4byte	0xbf1
 1802 0b69 5410     		.2byte	0x1054
 1803 0b6b 21       		.uleb128 0x21
 1804 0b6c BA020000 		.4byte	.LASF171
 1805 0b70 13       		.byte	0x13
 1806 0b71 7B       		.byte	0x7b
 1807 0b72 020C0000 		.4byte	0xc02
 1808 0b76 5420     		.2byte	0x2054
 1809 0b78 00       		.byte	0
 1810 0b79 06       		.uleb128 0x6
 1811 0b7a F9020000 		.4byte	.LASF172
 1812 0b7e 20       		.byte	0x20
 1813 0b7f 13       		.byte	0x13
 1814 0b80 6D       		.byte	0x6d
 1815 0b81 E60B0000 		.4byte	0xbe6
 1816 0b85 09       		.uleb128 0x9
 1817 0b86 A6050000 		.4byte	.LASF157
 1818 0b8a 13       		.byte	0x13
ARM GAS  C:\Users\Luis\AppData\Local\Temp\ccSqLEWf.s 			page 33


 1819 0b8b 6E       		.byte	0x6e
 1820 0b8c CB090000 		.4byte	0x9cb
 1821 0b90 00       		.byte	0
 1822 0b91 09       		.uleb128 0x9
 1823 0b92 B5090000 		.4byte	.LASF158
 1824 0b96 13       		.byte	0x13
 1825 0b97 6E       		.byte	0x6e
 1826 0b98 EA090000 		.4byte	0x9ea
 1827 0b9c 04       		.byte	0x4
 1828 0b9d 16       		.uleb128 0x16
 1829 0b9e 70757400 		.ascii	"put\000"
 1830 0ba2 13       		.byte	0x13
 1831 0ba3 6E       		.byte	0x6e
 1832 0ba4 040A0000 		.4byte	0xa04
 1833 0ba8 08       		.byte	0x8
 1834 0ba9 16       		.uleb128 0x16
 1835 0baa 67657400 		.ascii	"get\000"
 1836 0bae 13       		.byte	0x13
 1837 0baf 6E       		.byte	0x6e
 1838 0bb0 190A0000 		.4byte	0xa19
 1839 0bb4 0C       		.byte	0xc
 1840 0bb5 09       		.uleb128 0x9
 1841 0bb6 69040000 		.4byte	.LASF173
 1842 0bba 13       		.byte	0x13
 1843 0bbb 6E       		.byte	0x6e
 1844 0bbc 670A0000 		.4byte	0xa67
 1845 0bc0 10       		.byte	0x10
 1846 0bc1 09       		.uleb128 0x9
 1847 0bc2 35030000 		.4byte	.LASF174
 1848 0bc6 13       		.byte	0x13
 1849 0bc7 6E       		.byte	0x6e
 1850 0bc8 810A0000 		.4byte	0xa81
 1851 0bcc 14       		.byte	0x14
 1852 0bcd 09       		.uleb128 0x9
 1853 0bce D8030000 		.4byte	.LASF175
 1854 0bd2 13       		.byte	0x13
 1855 0bd3 6E       		.byte	0x6e
 1856 0bd4 A50A0000 		.4byte	0xaa5
 1857 0bd8 18       		.byte	0x18
 1858 0bd9 09       		.uleb128 0x9
 1859 0bda 1F010000 		.4byte	.LASF176
 1860 0bde 13       		.byte	0x13
 1861 0bdf 6E       		.byte	0x6e
 1862 0be0 C90A0000 		.4byte	0xac9
 1863 0be4 1C       		.byte	0x1c
 1864 0be5 00       		.byte	0
 1865 0be6 0C       		.uleb128 0xc
 1866 0be7 04       		.byte	0x4
 1867 0be8 EC0B0000 		.4byte	0xbec
 1868 0bec 1B       		.uleb128 0x1b
 1869 0bed 790B0000 		.4byte	0xb79
 1870 0bf1 19       		.uleb128 0x19
 1871 0bf2 50000000 		.4byte	0x50
 1872 0bf6 020C0000 		.4byte	0xc02
 1873 0bfa 22       		.uleb128 0x22
 1874 0bfb 02050000 		.4byte	0x502
 1875 0bff FF0F     		.2byte	0xfff
ARM GAS  C:\Users\Luis\AppData\Local\Temp\ccSqLEWf.s 			page 34


 1876 0c01 00       		.byte	0
 1877 0c02 0C       		.uleb128 0xc
 1878 0c03 04       		.byte	0x4
 1879 0c04 70050000 		.4byte	0x570
 1880 0c08 03       		.uleb128 0x3
 1881 0c09 CD040000 		.4byte	.LASF177
 1882 0c0d 14       		.byte	0x14
 1883 0c0e 28       		.byte	0x28
 1884 0c0f 130C0000 		.4byte	0xc13
 1885 0c13 06       		.uleb128 0x6
 1886 0c14 0F020000 		.4byte	.LASF178
 1887 0c18 04       		.byte	0x4
 1888 0c19 15       		.byte	0x15
 1889 0c1a 00       		.byte	0
 1890 0c1b 2A0C0000 		.4byte	0xc2a
 1891 0c1f 23       		.uleb128 0x23
 1892 0c20 C9080000 		.4byte	.LASF179
 1893 0c24 93030000 		.4byte	0x393
 1894 0c28 00       		.byte	0
 1895 0c29 00       		.byte	0
 1896 0c2a 03       		.uleb128 0x3
 1897 0c2b 5B000000 		.4byte	.LASF180
 1898 0c2f 14       		.byte	0x14
 1899 0c30 62       		.byte	0x62
 1900 0c31 080C0000 		.4byte	0xc08
 1901 0c35 24       		.uleb128 0x24
 1902 0c36 49495200 		.ascii	"IIR\000"
 1903 0c3a 0C       		.byte	0xc
 1904 0c3b 16       		.byte	0x16
 1905 0c3c 0D       		.byte	0xd
 1906 0c3d 350C0000 		.4byte	0xc35
 1907 0c41 CB0C0000 		.4byte	0xccb
 1908 0c45 25       		.uleb128 0x25
 1909 0c46 10090000 		.4byte	.LASF181
 1910 0c4a D60C0000 		.4byte	0xcd6
 1911 0c4e 00       		.byte	0
 1912 0c4f 01       		.byte	0x1
 1913 0c50 09       		.uleb128 0x9
 1914 0c51 C7000000 		.4byte	.LASF182
 1915 0c55 16       		.byte	0x16
 1916 0c56 23       		.byte	0x23
 1917 0c57 EB0C0000 		.4byte	0xceb
 1918 0c5b 04       		.byte	0x4
 1919 0c5c 09       		.uleb128 0x9
 1920 0c5d 18080000 		.4byte	.LASF183
 1921 0c61 16       		.byte	0x16
 1922 0c62 24       		.byte	0x24
 1923 0c63 25000000 		.4byte	0x25
 1924 0c67 08       		.byte	0x8
 1925 0c68 26       		.uleb128 0x26
 1926 0c69 070A0000 		.4byte	.LASF211
 1927 0c6d 02       		.byte	0x2
 1928 0c6e 16       		.byte	0x16
 1929 0c6f 3E050000 		.4byte	.LASF212
 1930 0c73 F10C0000 		.4byte	0xcf1
 1931 0c77 01       		.byte	0x1
 1932 0c78 800C0000 		.4byte	0xc80
ARM GAS  C:\Users\Luis\AppData\Local\Temp\ccSqLEWf.s 			page 35


 1933 0c7c 8B0C0000 		.4byte	0xc8b
 1934 0c80 27       		.uleb128 0x27
 1935 0c81 F80C0000 		.4byte	0xcf8
 1936 0c85 0F       		.uleb128 0xf
 1937 0c86 F10C0000 		.4byte	0xcf1
 1938 0c8a 00       		.byte	0
 1939 0c8b 28       		.uleb128 0x28
 1940 0c8c 3D040000 		.4byte	.LASF213
 1941 0c90 02       		.byte	0x2
 1942 0c91 12       		.byte	0x12
 1943 0c92 93030000 		.4byte	0x393
 1944 0c96 01       		.byte	0x1
 1945 0c97 350C0000 		.4byte	0xc35
 1946 0c9b 01       		.byte	0x1
 1947 0c9c A40C0000 		.4byte	0xca4
 1948 0ca0 AF0C0000 		.4byte	0xcaf
 1949 0ca4 27       		.uleb128 0x27
 1950 0ca5 F80C0000 		.4byte	0xcf8
 1951 0ca9 27       		.uleb128 0x27
 1952 0caa 25000000 		.4byte	0x25
 1953 0cae 00       		.byte	0
 1954 0caf 29       		.uleb128 0x29
 1955 0cb0 49010000 		.4byte	.LASF214
 1956 0cb4 02       		.byte	0x2
 1957 0cb5 4C       		.byte	0x4c
 1958 0cb6 CD020000 		.4byte	.LASF215
 1959 0cba 01       		.byte	0x1
 1960 0cbb BF0C0000 		.4byte	0xcbf
 1961 0cbf 27       		.uleb128 0x27
 1962 0cc0 F80C0000 		.4byte	0xcf8
 1963 0cc4 0F       		.uleb128 0xf
 1964 0cc5 EB0C0000 		.4byte	0xceb
 1965 0cc9 00       		.byte	0
 1966 0cca 00       		.byte	0
 1967 0ccb 1C       		.uleb128 0x1c
 1968 0ccc 25000000 		.4byte	0x25
 1969 0cd0 D60C0000 		.4byte	0xcd6
 1970 0cd4 2A       		.uleb128 0x2a
 1971 0cd5 00       		.byte	0
 1972 0cd6 0C       		.uleb128 0xc
 1973 0cd7 04       		.byte	0x4
 1974 0cd8 DC0C0000 		.4byte	0xcdc
 1975 0cdc 2B       		.uleb128 0x2b
 1976 0cdd 04       		.byte	0x4
 1977 0cde AA020000 		.4byte	.LASF216
 1978 0ce2 CB0C0000 		.4byte	0xccb
 1979 0ce6 2C       		.uleb128 0x2c
 1980 0ce7 73090000 		.4byte	.LASF201
 1981 0ceb 0C       		.uleb128 0xc
 1982 0cec 04       		.byte	0x4
 1983 0ced E60C0000 		.4byte	0xce6
 1984 0cf1 04       		.uleb128 0x4
 1985 0cf2 04       		.byte	0x4
 1986 0cf3 04       		.byte	0x4
 1987 0cf4 72050000 		.4byte	.LASF184
 1988 0cf8 0C       		.uleb128 0xc
 1989 0cf9 04       		.byte	0x4
ARM GAS  C:\Users\Luis\AppData\Local\Temp\ccSqLEWf.s 			page 36


 1990 0cfa 350C0000 		.4byte	0xc35
 1991 0cfe 2D       		.uleb128 0x2d
 1992 0cff 4C0A0000 		.4byte	.LASF217
 1993 0d03 01       		.byte	0x1
 1994 0d04 45       		.byte	0x45
 1995 0d05 25000000 		.4byte	0x25
 1996 0d09 00000000 		.4byte	.LFB260
 1997 0d0d 2C000000 		.4byte	.LFE260-.LFB260
 1998 0d11 01       		.uleb128 0x1
 1999 0d12 9C       		.byte	0x9c
 2000 0d13 5A0D0000 		.4byte	0xd5a
 2001 0d17 2E       		.uleb128 0x2e
 2002 0d18 63687000 		.ascii	"chp\000"
 2003 0d1c 01       		.byte	0x1
 2004 0d1d 45       		.byte	0x45
 2005 0d1e 5A0D0000 		.4byte	0xd5a
 2006 0d22 02       		.uleb128 0x2
 2007 0d23 91       		.byte	0x91
 2008 0d24 5C       		.sleb128 -36
 2009 0d25 2E       		.uleb128 0x2e
 2010 0d26 666D7400 		.ascii	"fmt\000"
 2011 0d2a 01       		.byte	0x1
 2012 0d2b 45       		.byte	0x45
 2013 0d2c ED070000 		.4byte	0x7ed
 2014 0d30 02       		.uleb128 0x2
 2015 0d31 91       		.byte	0x91
 2016 0d32 74       		.sleb128 -12
 2017 0d33 2A       		.uleb128 0x2a
 2018 0d34 2F       		.uleb128 0x2f
 2019 0d35 0A000000 		.4byte	.LBB2
 2020 0d39 14000000 		.4byte	.LBE2-.LBB2
 2021 0d3d 30       		.uleb128 0x30
 2022 0d3e 617000   		.ascii	"ap\000"
 2023 0d41 01       		.byte	0x1
 2024 0d42 46       		.byte	0x46
 2025 0d43 2A0C0000 		.4byte	0xc2a
 2026 0d47 02       		.uleb128 0x2
 2027 0d48 91       		.byte	0x91
 2028 0d49 60       		.sleb128 -32
 2029 0d4a 31       		.uleb128 0x31
 2030 0d4b 9A000000 		.4byte	.LASF185
 2031 0d4f 01       		.byte	0x1
 2032 0d50 47       		.byte	0x47
 2033 0d51 25000000 		.4byte	0x25
 2034 0d55 02       		.uleb128 0x2
 2035 0d56 91       		.byte	0x91
 2036 0d57 64       		.sleb128 -28
 2037 0d58 00       		.byte	0
 2038 0d59 00       		.byte	0
 2039 0d5a 0C       		.uleb128 0xc
 2040 0d5b 04       		.byte	0x4
 2041 0d5c 430A0000 		.4byte	0xa43
 2042 0d60 32       		.uleb128 0x32
 2043 0d61 8B0C0000 		.4byte	0xc8b
 2044 0d65 00       		.byte	0
 2045 0d66 6E0D0000 		.4byte	0xd6e
 2046 0d6a 810D0000 		.4byte	0xd81
ARM GAS  C:\Users\Luis\AppData\Local\Temp\ccSqLEWf.s 			page 37


 2047 0d6e 33       		.uleb128 0x33
 2048 0d6f 38020000 		.4byte	.LASF186
 2049 0d73 810D0000 		.4byte	0xd81
 2050 0d77 33       		.uleb128 0x33
 2051 0d78 16000000 		.4byte	.LASF187
 2052 0d7c 860D0000 		.4byte	0xd86
 2053 0d80 00       		.byte	0
 2054 0d81 1B       		.uleb128 0x1b
 2055 0d82 F80C0000 		.4byte	0xcf8
 2056 0d86 1B       		.uleb128 0x1b
 2057 0d87 25000000 		.4byte	0x25
 2058 0d8b 34       		.uleb128 0x34
 2059 0d8c 600D0000 		.4byte	0xd60
 2060 0d90 A9080000 		.4byte	.LASF188
 2061 0d94 00000000 		.4byte	.LFB262
 2062 0d98 28000000 		.4byte	.LFE262-.LFB262
 2063 0d9c 01       		.uleb128 0x1
 2064 0d9d 9C       		.byte	0x9c
 2065 0d9e A60D0000 		.4byte	0xda6
 2066 0da2 AF0D0000 		.4byte	0xdaf
 2067 0da6 35       		.uleb128 0x35
 2068 0da7 6E0D0000 		.4byte	0xd6e
 2069 0dab 02       		.uleb128 0x2
 2070 0dac 91       		.byte	0x91
 2071 0dad 74       		.sleb128 -12
 2072 0dae 00       		.byte	0
 2073 0daf 34       		.uleb128 0x34
 2074 0db0 600D0000 		.4byte	0xd60
 2075 0db4 94010000 		.4byte	.LASF189
 2076 0db8 00000000 		.4byte	.LFB264
 2077 0dbc 1E000000 		.4byte	.LFE264-.LFB264
 2078 0dc0 01       		.uleb128 0x1
 2079 0dc1 9C       		.byte	0x9c
 2080 0dc2 CA0D0000 		.4byte	0xdca
 2081 0dc6 D30D0000 		.4byte	0xdd3
 2082 0dca 35       		.uleb128 0x35
 2083 0dcb 6E0D0000 		.4byte	0xd6e
 2084 0dcf 02       		.uleb128 0x2
 2085 0dd0 91       		.byte	0x91
 2086 0dd1 74       		.sleb128 -12
 2087 0dd2 00       		.byte	0
 2088 0dd3 36       		.uleb128 0x36
 2089 0dd4 680C0000 		.4byte	0xc68
 2090 0dd8 00000000 		.4byte	.LFB265
 2091 0ddc 08010000 		.4byte	.LFE265-.LFB265
 2092 0de0 01       		.uleb128 0x1
 2093 0de1 9C       		.byte	0x9c
 2094 0de2 EA0D0000 		.4byte	0xdea
 2095 0de6 9B0E0000 		.4byte	0xe9b
 2096 0dea 37       		.uleb128 0x37
 2097 0deb 38020000 		.4byte	.LASF186
 2098 0def 810D0000 		.4byte	0xd81
 2099 0df3 02       		.uleb128 0x2
 2100 0df4 91       		.byte	0x91
 2101 0df5 4C       		.sleb128 -52
 2102 0df6 38       		.uleb128 0x38
 2103 0df7 4D020000 		.4byte	.LASF190
ARM GAS  C:\Users\Luis\AppData\Local\Temp\ccSqLEWf.s 			page 38


 2104 0dfb 02       		.byte	0x2
 2105 0dfc 16       		.byte	0x16
 2106 0dfd F10C0000 		.4byte	0xcf1
 2107 0e01 02       		.uleb128 0x2
 2108 0e02 91       		.byte	0x91
 2109 0e03 48       		.sleb128 -56
 2110 0e04 2F       		.uleb128 0x2f
 2111 0e05 0A000000 		.4byte	.LBB4
 2112 0e09 EE000000 		.4byte	.LBE4-.LBB4
 2113 0e0d 31       		.uleb128 0x31
 2114 0e0e 23080000 		.4byte	.LASF191
 2115 0e12 02       		.byte	0x2
 2116 0e13 19       		.byte	0x19
 2117 0e14 A00E0000 		.4byte	0xea0
 2118 0e18 02       		.uleb128 0x2
 2119 0e19 91       		.byte	0x91
 2120 0e1a 74       		.sleb128 -12
 2121 0e1b 31       		.uleb128 0x31
 2122 0e1c 78050000 		.4byte	.LASF192
 2123 0e20 02       		.byte	0x2
 2124 0e21 1D       		.byte	0x1d
 2125 0e22 A60E0000 		.4byte	0xea6
 2126 0e26 02       		.uleb128 0x2
 2127 0e27 91       		.byte	0x91
 2128 0e28 70       		.sleb128 -16
 2129 0e29 31       		.uleb128 0x31
 2130 0e2a 86050000 		.4byte	.LASF193
 2131 0e2e 02       		.byte	0x2
 2132 0e2f 1E       		.byte	0x1e
 2133 0e30 A60E0000 		.4byte	0xea6
 2134 0e34 02       		.uleb128 0x2
 2135 0e35 91       		.byte	0x91
 2136 0e36 6C       		.sleb128 -20
 2137 0e37 31       		.uleb128 0x31
 2138 0e38 66070000 		.4byte	.LASF194
 2139 0e3c 02       		.byte	0x2
 2140 0e3d 20       		.byte	0x20
 2141 0e3e 25000000 		.4byte	0x25
 2142 0e42 02       		.uleb128 0x2
 2143 0e43 91       		.byte	0x91
 2144 0e44 68       		.sleb128 -24
 2145 0e45 31       		.uleb128 0x31
 2146 0e46 40030000 		.4byte	.LASF195
 2147 0e4a 02       		.byte	0x2
 2148 0e4b 21       		.byte	0x21
 2149 0e4c 25000000 		.4byte	0x25
 2150 0e50 02       		.uleb128 0x2
 2151 0e51 91       		.byte	0x91
 2152 0e52 54       		.sleb128 -44
 2153 0e53 31       		.uleb128 0x31
 2154 0e54 4D070000 		.4byte	.LASF196
 2155 0e58 02       		.byte	0x2
 2156 0e59 23       		.byte	0x23
 2157 0e5a F10C0000 		.4byte	0xcf1
 2158 0e5e 02       		.uleb128 0x2
 2159 0e5f 91       		.byte	0x91
 2160 0e60 64       		.sleb128 -28
ARM GAS  C:\Users\Luis\AppData\Local\Temp\ccSqLEWf.s 			page 39


 2161 0e61 31       		.uleb128 0x31
 2162 0e62 BA090000 		.4byte	.LASF197
 2163 0e66 02       		.byte	0x2
 2164 0e67 24       		.byte	0x24
 2165 0e68 A60E0000 		.4byte	0xea6
 2166 0e6c 02       		.uleb128 0x2
 2167 0e6d 91       		.byte	0x91
 2168 0e6e 60       		.sleb128 -32
 2169 0e6f 31       		.uleb128 0x31
 2170 0e70 56070000 		.4byte	.LASF198
 2171 0e74 02       		.byte	0x2
 2172 0e75 26       		.byte	0x26
 2173 0e76 F10C0000 		.4byte	0xcf1
 2174 0e7a 02       		.uleb128 0x2
 2175 0e7b 91       		.byte	0x91
 2176 0e7c 5C       		.sleb128 -36
 2177 0e7d 31       		.uleb128 0x31
 2178 0e7e B5080000 		.4byte	.LASF199
 2179 0e82 02       		.byte	0x2
 2180 0e83 27       		.byte	0x27
 2181 0e84 A60E0000 		.4byte	0xea6
 2182 0e88 02       		.uleb128 0x2
 2183 0e89 91       		.byte	0x91
 2184 0e8a 58       		.sleb128 -40
 2185 0e8b 31       		.uleb128 0x31
 2186 0e8c 6E040000 		.4byte	.LASF200
 2187 0e90 02       		.byte	0x2
 2188 0e91 29       		.byte	0x29
 2189 0e92 F10C0000 		.4byte	0xcf1
 2190 0e96 02       		.uleb128 0x2
 2191 0e97 91       		.byte	0x91
 2192 0e98 50       		.sleb128 -48
 2193 0e99 00       		.byte	0
 2194 0e9a 00       		.byte	0
 2195 0e9b 2C       		.uleb128 0x2c
 2196 0e9c 11040000 		.4byte	.LASF202
 2197 0ea0 0C       		.uleb128 0xc
 2198 0ea1 04       		.byte	0x4
 2199 0ea2 9B0E0000 		.4byte	0xe9b
 2200 0ea6 0C       		.uleb128 0xc
 2201 0ea7 04       		.byte	0x4
 2202 0ea8 F10C0000 		.4byte	0xcf1
 2203 0eac 36       		.uleb128 0x36
 2204 0ead AF0C0000 		.4byte	0xcaf
 2205 0eb1 00000000 		.4byte	.LFB266
 2206 0eb5 26000000 		.4byte	.LFE266-.LFB266
 2207 0eb9 01       		.uleb128 0x1
 2208 0eba 9C       		.byte	0x9c
 2209 0ebb C30E0000 		.4byte	0xec3
 2210 0ebf DE0E0000 		.4byte	0xede
 2211 0ec3 37       		.uleb128 0x37
 2212 0ec4 38020000 		.4byte	.LASF186
 2213 0ec8 810D0000 		.4byte	0xd81
 2214 0ecc 02       		.uleb128 0x2
 2215 0ecd 91       		.byte	0x91
 2216 0ece 74       		.sleb128 -12
 2217 0ecf 38       		.uleb128 0x38
ARM GAS  C:\Users\Luis\AppData\Local\Temp\ccSqLEWf.s 			page 40


 2218 0ed0 09070000 		.4byte	.LASF203
 2219 0ed4 02       		.byte	0x2
 2220 0ed5 4C       		.byte	0x4c
 2221 0ed6 EB0C0000 		.4byte	0xceb
 2222 0eda 02       		.uleb128 0x2
 2223 0edb 91       		.byte	0x91
 2224 0edc 70       		.sleb128 -16
 2225 0edd 00       		.byte	0
 2226 0ede 39       		.uleb128 0x39
 2227 0edf EF000000 		.4byte	.LASF204
 2228 0ee3 18       		.byte	0x18
 2229 0ee4 A706     		.2byte	0x6a7
 2230 0ee6 A2000000 		.4byte	0xa2
 2231 0eea 3A       		.uleb128 0x3a
 2232 0eeb 636800   		.ascii	"ch\000"
 2233 0eee 07       		.byte	0x7
 2234 0eef 0902     		.2byte	0x209
 2235 0ef1 8A040000 		.4byte	0x48a
 2236 0ef5 3A       		.uleb128 0x3a
 2237 0ef6 53443100 		.ascii	"SD1\000"
 2238 0efa 17       		.byte	0x17
 2239 0efb 0F01     		.2byte	0x10f
 2240 0efd 000B0000 		.4byte	0xb00
 2241 0f01 00       		.byte	0
 2242              		.section	.debug_abbrev,"",%progbits
 2243              	.Ldebug_abbrev0:
 2244 0000 01       		.uleb128 0x1
 2245 0001 11       		.uleb128 0x11
 2246 0002 01       		.byte	0x1
 2247 0003 25       		.uleb128 0x25
 2248 0004 0E       		.uleb128 0xe
 2249 0005 13       		.uleb128 0x13
 2250 0006 0B       		.uleb128 0xb
 2251 0007 03       		.uleb128 0x3
 2252 0008 0E       		.uleb128 0xe
 2253 0009 1B       		.uleb128 0x1b
 2254 000a 0E       		.uleb128 0xe
 2255 000b 55       		.uleb128 0x55
 2256 000c 17       		.uleb128 0x17
 2257 000d 11       		.uleb128 0x11
 2258 000e 01       		.uleb128 0x1
 2259 000f 10       		.uleb128 0x10
 2260 0010 17       		.uleb128 0x17
 2261 0011 00       		.byte	0
 2262 0012 00       		.byte	0
 2263 0013 02       		.uleb128 0x2
 2264 0014 24       		.uleb128 0x24
 2265 0015 00       		.byte	0
 2266 0016 0B       		.uleb128 0xb
 2267 0017 0B       		.uleb128 0xb
 2268 0018 3E       		.uleb128 0x3e
 2269 0019 0B       		.uleb128 0xb
 2270 001a 03       		.uleb128 0x3
 2271 001b 08       		.uleb128 0x8
 2272 001c 00       		.byte	0
 2273 001d 00       		.byte	0
 2274 001e 03       		.uleb128 0x3
ARM GAS  C:\Users\Luis\AppData\Local\Temp\ccSqLEWf.s 			page 41


 2275 001f 16       		.uleb128 0x16
 2276 0020 00       		.byte	0
 2277 0021 03       		.uleb128 0x3
 2278 0022 0E       		.uleb128 0xe
 2279 0023 3A       		.uleb128 0x3a
 2280 0024 0B       		.uleb128 0xb
 2281 0025 3B       		.uleb128 0x3b
 2282 0026 0B       		.uleb128 0xb
 2283 0027 49       		.uleb128 0x49
 2284 0028 13       		.uleb128 0x13
 2285 0029 00       		.byte	0
 2286 002a 00       		.byte	0
 2287 002b 04       		.uleb128 0x4
 2288 002c 24       		.uleb128 0x24
 2289 002d 00       		.byte	0
 2290 002e 0B       		.uleb128 0xb
 2291 002f 0B       		.uleb128 0xb
 2292 0030 3E       		.uleb128 0x3e
 2293 0031 0B       		.uleb128 0xb
 2294 0032 03       		.uleb128 0x3
 2295 0033 0E       		.uleb128 0xe
 2296 0034 00       		.byte	0
 2297 0035 00       		.byte	0
 2298 0036 05       		.uleb128 0x5
 2299 0037 35       		.uleb128 0x35
 2300 0038 00       		.byte	0
 2301 0039 49       		.uleb128 0x49
 2302 003a 13       		.uleb128 0x13
 2303 003b 00       		.byte	0
 2304 003c 00       		.byte	0
 2305 003d 06       		.uleb128 0x6
 2306 003e 13       		.uleb128 0x13
 2307 003f 01       		.byte	0x1
 2308 0040 03       		.uleb128 0x3
 2309 0041 0E       		.uleb128 0xe
 2310 0042 0B       		.uleb128 0xb
 2311 0043 0B       		.uleb128 0xb
 2312 0044 3A       		.uleb128 0x3a
 2313 0045 0B       		.uleb128 0xb
 2314 0046 3B       		.uleb128 0x3b
 2315 0047 0B       		.uleb128 0xb
 2316 0048 01       		.uleb128 0x1
 2317 0049 13       		.uleb128 0x13
 2318 004a 00       		.byte	0
 2319 004b 00       		.byte	0
 2320 004c 07       		.uleb128 0x7
 2321 004d 17       		.uleb128 0x17
 2322 004e 01       		.byte	0x1
 2323 004f 0B       		.uleb128 0xb
 2324 0050 0B       		.uleb128 0xb
 2325 0051 3A       		.uleb128 0x3a
 2326 0052 0B       		.uleb128 0xb
 2327 0053 3B       		.uleb128 0x3b
 2328 0054 0B       		.uleb128 0xb
 2329 0055 01       		.uleb128 0x1
 2330 0056 13       		.uleb128 0x13
 2331 0057 00       		.byte	0
ARM GAS  C:\Users\Luis\AppData\Local\Temp\ccSqLEWf.s 			page 42


 2332 0058 00       		.byte	0
 2333 0059 08       		.uleb128 0x8
 2334 005a 0D       		.uleb128 0xd
 2335 005b 00       		.byte	0
 2336 005c 03       		.uleb128 0x3
 2337 005d 0E       		.uleb128 0xe
 2338 005e 3A       		.uleb128 0x3a
 2339 005f 0B       		.uleb128 0xb
 2340 0060 3B       		.uleb128 0x3b
 2341 0061 05       		.uleb128 0x5
 2342 0062 49       		.uleb128 0x49
 2343 0063 13       		.uleb128 0x13
 2344 0064 00       		.byte	0
 2345 0065 00       		.byte	0
 2346 0066 09       		.uleb128 0x9
 2347 0067 0D       		.uleb128 0xd
 2348 0068 00       		.byte	0
 2349 0069 03       		.uleb128 0x3
 2350 006a 0E       		.uleb128 0xe
 2351 006b 3A       		.uleb128 0x3a
 2352 006c 0B       		.uleb128 0xb
 2353 006d 3B       		.uleb128 0x3b
 2354 006e 0B       		.uleb128 0xb
 2355 006f 49       		.uleb128 0x49
 2356 0070 13       		.uleb128 0x13
 2357 0071 38       		.uleb128 0x38
 2358 0072 0B       		.uleb128 0xb
 2359 0073 00       		.byte	0
 2360 0074 00       		.byte	0
 2361 0075 0A       		.uleb128 0xa
 2362 0076 0D       		.uleb128 0xd
 2363 0077 00       		.byte	0
 2364 0078 03       		.uleb128 0x3
 2365 0079 08       		.uleb128 0x8
 2366 007a 3A       		.uleb128 0x3a
 2367 007b 0B       		.uleb128 0xb
 2368 007c 3B       		.uleb128 0x3b
 2369 007d 05       		.uleb128 0x5
 2370 007e 49       		.uleb128 0x49
 2371 007f 13       		.uleb128 0x13
 2372 0080 38       		.uleb128 0x38
 2373 0081 0B       		.uleb128 0xb
 2374 0082 00       		.byte	0
 2375 0083 00       		.byte	0
 2376 0084 0B       		.uleb128 0xb
 2377 0085 0D       		.uleb128 0xd
 2378 0086 00       		.byte	0
 2379 0087 03       		.uleb128 0x3
 2380 0088 0E       		.uleb128 0xe
 2381 0089 3A       		.uleb128 0x3a
 2382 008a 0B       		.uleb128 0xb
 2383 008b 3B       		.uleb128 0x3b
 2384 008c 05       		.uleb128 0x5
 2385 008d 49       		.uleb128 0x49
 2386 008e 13       		.uleb128 0x13
 2387 008f 38       		.uleb128 0x38
 2388 0090 0B       		.uleb128 0xb
ARM GAS  C:\Users\Luis\AppData\Local\Temp\ccSqLEWf.s 			page 43


 2389 0091 00       		.byte	0
 2390 0092 00       		.byte	0
 2391 0093 0C       		.uleb128 0xc
 2392 0094 0F       		.uleb128 0xf
 2393 0095 00       		.byte	0
 2394 0096 0B       		.uleb128 0xb
 2395 0097 0B       		.uleb128 0xb
 2396 0098 49       		.uleb128 0x49
 2397 0099 13       		.uleb128 0x13
 2398 009a 00       		.byte	0
 2399 009b 00       		.byte	0
 2400 009c 0D       		.uleb128 0xd
 2401 009d 13       		.uleb128 0x13
 2402 009e 01       		.byte	0x1
 2403 009f 03       		.uleb128 0x3
 2404 00a0 0E       		.uleb128 0xe
 2405 00a1 0B       		.uleb128 0xb
 2406 00a2 0B       		.uleb128 0xb
 2407 00a3 3A       		.uleb128 0x3a
 2408 00a4 0B       		.uleb128 0xb
 2409 00a5 3B       		.uleb128 0x3b
 2410 00a6 05       		.uleb128 0x5
 2411 00a7 01       		.uleb128 0x1
 2412 00a8 13       		.uleb128 0x13
 2413 00a9 00       		.byte	0
 2414 00aa 00       		.byte	0
 2415 00ab 0E       		.uleb128 0xe
 2416 00ac 15       		.uleb128 0x15
 2417 00ad 01       		.byte	0x1
 2418 00ae 01       		.uleb128 0x1
 2419 00af 13       		.uleb128 0x13
 2420 00b0 00       		.byte	0
 2421 00b1 00       		.byte	0
 2422 00b2 0F       		.uleb128 0xf
 2423 00b3 05       		.uleb128 0x5
 2424 00b4 00       		.byte	0
 2425 00b5 49       		.uleb128 0x49
 2426 00b6 13       		.uleb128 0x13
 2427 00b7 00       		.byte	0
 2428 00b8 00       		.byte	0
 2429 00b9 10       		.uleb128 0x10
 2430 00ba 0F       		.uleb128 0xf
 2431 00bb 00       		.byte	0
 2432 00bc 0B       		.uleb128 0xb
 2433 00bd 0B       		.uleb128 0xb
 2434 00be 00       		.byte	0
 2435 00bf 00       		.byte	0
 2436 00c0 11       		.uleb128 0x11
 2437 00c1 13       		.uleb128 0x13
 2438 00c2 01       		.byte	0x1
 2439 00c3 03       		.uleb128 0x3
 2440 00c4 0E       		.uleb128 0xe
 2441 00c5 0B       		.uleb128 0xb
 2442 00c6 05       		.uleb128 0x5
 2443 00c7 3A       		.uleb128 0x3a
 2444 00c8 0B       		.uleb128 0xb
 2445 00c9 3B       		.uleb128 0x3b
ARM GAS  C:\Users\Luis\AppData\Local\Temp\ccSqLEWf.s 			page 44


 2446 00ca 05       		.uleb128 0x5
 2447 00cb 01       		.uleb128 0x1
 2448 00cc 13       		.uleb128 0x13
 2449 00cd 00       		.byte	0
 2450 00ce 00       		.byte	0
 2451 00cf 12       		.uleb128 0x12
 2452 00d0 0D       		.uleb128 0xd
 2453 00d1 00       		.byte	0
 2454 00d2 03       		.uleb128 0x3
 2455 00d3 0E       		.uleb128 0xe
 2456 00d4 3A       		.uleb128 0x3a
 2457 00d5 0B       		.uleb128 0xb
 2458 00d6 3B       		.uleb128 0x3b
 2459 00d7 05       		.uleb128 0x5
 2460 00d8 49       		.uleb128 0x49
 2461 00d9 13       		.uleb128 0x13
 2462 00da 38       		.uleb128 0x38
 2463 00db 05       		.uleb128 0x5
 2464 00dc 00       		.byte	0
 2465 00dd 00       		.byte	0
 2466 00de 13       		.uleb128 0x13
 2467 00df 0D       		.uleb128 0xd
 2468 00e0 00       		.byte	0
 2469 00e1 03       		.uleb128 0x3
 2470 00e2 08       		.uleb128 0x8
 2471 00e3 3A       		.uleb128 0x3a
 2472 00e4 0B       		.uleb128 0xb
 2473 00e5 3B       		.uleb128 0x3b
 2474 00e6 05       		.uleb128 0x5
 2475 00e7 49       		.uleb128 0x49
 2476 00e8 13       		.uleb128 0x13
 2477 00e9 38       		.uleb128 0x38
 2478 00ea 05       		.uleb128 0x5
 2479 00eb 00       		.byte	0
 2480 00ec 00       		.byte	0
 2481 00ed 14       		.uleb128 0x14
 2482 00ee 13       		.uleb128 0x13
 2483 00ef 01       		.byte	0x1
 2484 00f0 0B       		.uleb128 0xb
 2485 00f1 0B       		.uleb128 0xb
 2486 00f2 3A       		.uleb128 0x3a
 2487 00f3 0B       		.uleb128 0xb
 2488 00f4 3B       		.uleb128 0x3b
 2489 00f5 05       		.uleb128 0x5
 2490 00f6 6E       		.uleb128 0x6e
 2491 00f7 0E       		.uleb128 0xe
 2492 00f8 01       		.uleb128 0x1
 2493 00f9 13       		.uleb128 0x13
 2494 00fa 00       		.byte	0
 2495 00fb 00       		.byte	0
 2496 00fc 15       		.uleb128 0x15
 2497 00fd 16       		.uleb128 0x16
 2498 00fe 00       		.byte	0
 2499 00ff 03       		.uleb128 0x3
 2500 0100 0E       		.uleb128 0xe
 2501 0101 3A       		.uleb128 0x3a
 2502 0102 0B       		.uleb128 0xb
ARM GAS  C:\Users\Luis\AppData\Local\Temp\ccSqLEWf.s 			page 45


 2503 0103 3B       		.uleb128 0x3b
 2504 0104 05       		.uleb128 0x5
 2505 0105 49       		.uleb128 0x49
 2506 0106 13       		.uleb128 0x13
 2507 0107 00       		.byte	0
 2508 0108 00       		.byte	0
 2509 0109 16       		.uleb128 0x16
 2510 010a 0D       		.uleb128 0xd
 2511 010b 00       		.byte	0
 2512 010c 03       		.uleb128 0x3
 2513 010d 08       		.uleb128 0x8
 2514 010e 3A       		.uleb128 0x3a
 2515 010f 0B       		.uleb128 0xb
 2516 0110 3B       		.uleb128 0x3b
 2517 0111 0B       		.uleb128 0xb
 2518 0112 49       		.uleb128 0x49
 2519 0113 13       		.uleb128 0x13
 2520 0114 38       		.uleb128 0x38
 2521 0115 0B       		.uleb128 0xb
 2522 0116 00       		.byte	0
 2523 0117 00       		.byte	0
 2524 0118 17       		.uleb128 0x17
 2525 0119 13       		.uleb128 0x13
 2526 011a 01       		.byte	0x1
 2527 011b 0B       		.uleb128 0xb
 2528 011c 0B       		.uleb128 0xb
 2529 011d 3A       		.uleb128 0x3a
 2530 011e 0B       		.uleb128 0xb
 2531 011f 3B       		.uleb128 0x3b
 2532 0120 0B       		.uleb128 0xb
 2533 0121 6E       		.uleb128 0x6e
 2534 0122 0E       		.uleb128 0xe
 2535 0123 01       		.uleb128 0x1
 2536 0124 13       		.uleb128 0x13
 2537 0125 00       		.byte	0
 2538 0126 00       		.byte	0
 2539 0127 18       		.uleb128 0x18
 2540 0128 13       		.uleb128 0x13
 2541 0129 01       		.byte	0x1
 2542 012a 0B       		.uleb128 0xb
 2543 012b 05       		.uleb128 0x5
 2544 012c 3A       		.uleb128 0x3a
 2545 012d 0B       		.uleb128 0xb
 2546 012e 3B       		.uleb128 0x3b
 2547 012f 0B       		.uleb128 0xb
 2548 0130 6E       		.uleb128 0x6e
 2549 0131 0E       		.uleb128 0xe
 2550 0132 01       		.uleb128 0x1
 2551 0133 13       		.uleb128 0x13
 2552 0134 00       		.byte	0
 2553 0135 00       		.byte	0
 2554 0136 19       		.uleb128 0x19
 2555 0137 01       		.uleb128 0x1
 2556 0138 01       		.byte	0x1
 2557 0139 49       		.uleb128 0x49
 2558 013a 13       		.uleb128 0x13
 2559 013b 01       		.uleb128 0x1
ARM GAS  C:\Users\Luis\AppData\Local\Temp\ccSqLEWf.s 			page 46


 2560 013c 13       		.uleb128 0x13
 2561 013d 00       		.byte	0
 2562 013e 00       		.byte	0
 2563 013f 1A       		.uleb128 0x1a
 2564 0140 21       		.uleb128 0x21
 2565 0141 00       		.byte	0
 2566 0142 49       		.uleb128 0x49
 2567 0143 13       		.uleb128 0x13
 2568 0144 2F       		.uleb128 0x2f
 2569 0145 0B       		.uleb128 0xb
 2570 0146 00       		.byte	0
 2571 0147 00       		.byte	0
 2572 0148 1B       		.uleb128 0x1b
 2573 0149 26       		.uleb128 0x26
 2574 014a 00       		.byte	0
 2575 014b 49       		.uleb128 0x49
 2576 014c 13       		.uleb128 0x13
 2577 014d 00       		.byte	0
 2578 014e 00       		.byte	0
 2579 014f 1C       		.uleb128 0x1c
 2580 0150 15       		.uleb128 0x15
 2581 0151 01       		.byte	0x1
 2582 0152 49       		.uleb128 0x49
 2583 0153 13       		.uleb128 0x13
 2584 0154 01       		.uleb128 0x1
 2585 0155 13       		.uleb128 0x13
 2586 0156 00       		.byte	0
 2587 0157 00       		.byte	0
 2588 0158 1D       		.uleb128 0x1d
 2589 0159 04       		.uleb128 0x4
 2590 015a 01       		.byte	0x1
 2591 015b 0B       		.uleb128 0xb
 2592 015c 0B       		.uleb128 0xb
 2593 015d 3A       		.uleb128 0x3a
 2594 015e 0B       		.uleb128 0xb
 2595 015f 3B       		.uleb128 0x3b
 2596 0160 0B       		.uleb128 0xb
 2597 0161 6E       		.uleb128 0x6e
 2598 0162 0E       		.uleb128 0xe
 2599 0163 01       		.uleb128 0x1
 2600 0164 13       		.uleb128 0x13
 2601 0165 00       		.byte	0
 2602 0166 00       		.byte	0
 2603 0167 1E       		.uleb128 0x1e
 2604 0168 28       		.uleb128 0x28
 2605 0169 00       		.byte	0
 2606 016a 03       		.uleb128 0x3
 2607 016b 0E       		.uleb128 0xe
 2608 016c 1C       		.uleb128 0x1c
 2609 016d 0D       		.uleb128 0xd
 2610 016e 00       		.byte	0
 2611 016f 00       		.byte	0
 2612 0170 1F       		.uleb128 0x1f
 2613 0171 13       		.uleb128 0x13
 2614 0172 01       		.byte	0x1
 2615 0173 03       		.uleb128 0x3
 2616 0174 0E       		.uleb128 0xe
ARM GAS  C:\Users\Luis\AppData\Local\Temp\ccSqLEWf.s 			page 47


 2617 0175 0B       		.uleb128 0xb
 2618 0176 05       		.uleb128 0x5
 2619 0177 3A       		.uleb128 0x3a
 2620 0178 0B       		.uleb128 0xb
 2621 0179 3B       		.uleb128 0x3b
 2622 017a 0B       		.uleb128 0xb
 2623 017b 01       		.uleb128 0x1
 2624 017c 13       		.uleb128 0x13
 2625 017d 00       		.byte	0
 2626 017e 00       		.byte	0
 2627 017f 20       		.uleb128 0x20
 2628 0180 0D       		.uleb128 0xd
 2629 0181 00       		.byte	0
 2630 0182 03       		.uleb128 0x3
 2631 0183 08       		.uleb128 0x8
 2632 0184 3A       		.uleb128 0x3a
 2633 0185 0B       		.uleb128 0xb
 2634 0186 3B       		.uleb128 0x3b
 2635 0187 0B       		.uleb128 0xb
 2636 0188 49       		.uleb128 0x49
 2637 0189 13       		.uleb128 0x13
 2638 018a 38       		.uleb128 0x38
 2639 018b 05       		.uleb128 0x5
 2640 018c 00       		.byte	0
 2641 018d 00       		.byte	0
 2642 018e 21       		.uleb128 0x21
 2643 018f 0D       		.uleb128 0xd
 2644 0190 00       		.byte	0
 2645 0191 03       		.uleb128 0x3
 2646 0192 0E       		.uleb128 0xe
 2647 0193 3A       		.uleb128 0x3a
 2648 0194 0B       		.uleb128 0xb
 2649 0195 3B       		.uleb128 0x3b
 2650 0196 0B       		.uleb128 0xb
 2651 0197 49       		.uleb128 0x49
 2652 0198 13       		.uleb128 0x13
 2653 0199 38       		.uleb128 0x38
 2654 019a 05       		.uleb128 0x5
 2655 019b 00       		.byte	0
 2656 019c 00       		.byte	0
 2657 019d 22       		.uleb128 0x22
 2658 019e 21       		.uleb128 0x21
 2659 019f 00       		.byte	0
 2660 01a0 49       		.uleb128 0x49
 2661 01a1 13       		.uleb128 0x13
 2662 01a2 2F       		.uleb128 0x2f
 2663 01a3 05       		.uleb128 0x5
 2664 01a4 00       		.byte	0
 2665 01a5 00       		.byte	0
 2666 01a6 23       		.uleb128 0x23
 2667 01a7 0D       		.uleb128 0xd
 2668 01a8 00       		.byte	0
 2669 01a9 03       		.uleb128 0x3
 2670 01aa 0E       		.uleb128 0xe
 2671 01ab 49       		.uleb128 0x49
 2672 01ac 13       		.uleb128 0x13
 2673 01ad 38       		.uleb128 0x38
ARM GAS  C:\Users\Luis\AppData\Local\Temp\ccSqLEWf.s 			page 48


 2674 01ae 0B       		.uleb128 0xb
 2675 01af 34       		.uleb128 0x34
 2676 01b0 19       		.uleb128 0x19
 2677 01b1 00       		.byte	0
 2678 01b2 00       		.byte	0
 2679 01b3 24       		.uleb128 0x24
 2680 01b4 02       		.uleb128 0x2
 2681 01b5 01       		.byte	0x1
 2682 01b6 03       		.uleb128 0x3
 2683 01b7 08       		.uleb128 0x8
 2684 01b8 0B       		.uleb128 0xb
 2685 01b9 0B       		.uleb128 0xb
 2686 01ba 3A       		.uleb128 0x3a
 2687 01bb 0B       		.uleb128 0xb
 2688 01bc 3B       		.uleb128 0x3b
 2689 01bd 0B       		.uleb128 0xb
 2690 01be 1D       		.uleb128 0x1d
 2691 01bf 13       		.uleb128 0x13
 2692 01c0 01       		.uleb128 0x1
 2693 01c1 13       		.uleb128 0x13
 2694 01c2 00       		.byte	0
 2695 01c3 00       		.byte	0
 2696 01c4 25       		.uleb128 0x25
 2697 01c5 0D       		.uleb128 0xd
 2698 01c6 00       		.byte	0
 2699 01c7 03       		.uleb128 0x3
 2700 01c8 0E       		.uleb128 0xe
 2701 01c9 49       		.uleb128 0x49
 2702 01ca 13       		.uleb128 0x13
 2703 01cb 38       		.uleb128 0x38
 2704 01cc 0B       		.uleb128 0xb
 2705 01cd 34       		.uleb128 0x34
 2706 01ce 19       		.uleb128 0x19
 2707 01cf 32       		.uleb128 0x32
 2708 01d0 0B       		.uleb128 0xb
 2709 01d1 00       		.byte	0
 2710 01d2 00       		.byte	0
 2711 01d3 26       		.uleb128 0x26
 2712 01d4 2E       		.uleb128 0x2e
 2713 01d5 01       		.byte	0x1
 2714 01d6 3F       		.uleb128 0x3f
 2715 01d7 19       		.uleb128 0x19
 2716 01d8 03       		.uleb128 0x3
 2717 01d9 0E       		.uleb128 0xe
 2718 01da 3A       		.uleb128 0x3a
 2719 01db 0B       		.uleb128 0xb
 2720 01dc 3B       		.uleb128 0x3b
 2721 01dd 0B       		.uleb128 0xb
 2722 01de 6E       		.uleb128 0x6e
 2723 01df 0E       		.uleb128 0xe
 2724 01e0 49       		.uleb128 0x49
 2725 01e1 13       		.uleb128 0x13
 2726 01e2 32       		.uleb128 0x32
 2727 01e3 0B       		.uleb128 0xb
 2728 01e4 3C       		.uleb128 0x3c
 2729 01e5 19       		.uleb128 0x19
 2730 01e6 64       		.uleb128 0x64
ARM GAS  C:\Users\Luis\AppData\Local\Temp\ccSqLEWf.s 			page 49


 2731 01e7 13       		.uleb128 0x13
 2732 01e8 01       		.uleb128 0x1
 2733 01e9 13       		.uleb128 0x13
 2734 01ea 00       		.byte	0
 2735 01eb 00       		.byte	0
 2736 01ec 27       		.uleb128 0x27
 2737 01ed 05       		.uleb128 0x5
 2738 01ee 00       		.byte	0
 2739 01ef 49       		.uleb128 0x49
 2740 01f0 13       		.uleb128 0x13
 2741 01f1 34       		.uleb128 0x34
 2742 01f2 19       		.uleb128 0x19
 2743 01f3 00       		.byte	0
 2744 01f4 00       		.byte	0
 2745 01f5 28       		.uleb128 0x28
 2746 01f6 2E       		.uleb128 0x2e
 2747 01f7 01       		.byte	0x1
 2748 01f8 3F       		.uleb128 0x3f
 2749 01f9 19       		.uleb128 0x19
 2750 01fa 03       		.uleb128 0x3
 2751 01fb 0E       		.uleb128 0xe
 2752 01fc 3A       		.uleb128 0x3a
 2753 01fd 0B       		.uleb128 0xb
 2754 01fe 3B       		.uleb128 0x3b
 2755 01ff 0B       		.uleb128 0xb
 2756 0200 49       		.uleb128 0x49
 2757 0201 13       		.uleb128 0x13
 2758 0202 4C       		.uleb128 0x4c
 2759 0203 0B       		.uleb128 0xb
 2760 0204 1D       		.uleb128 0x1d
 2761 0205 13       		.uleb128 0x13
 2762 0206 32       		.uleb128 0x32
 2763 0207 0B       		.uleb128 0xb
 2764 0208 3C       		.uleb128 0x3c
 2765 0209 19       		.uleb128 0x19
 2766 020a 64       		.uleb128 0x64
 2767 020b 13       		.uleb128 0x13
 2768 020c 01       		.uleb128 0x1
 2769 020d 13       		.uleb128 0x13
 2770 020e 00       		.byte	0
 2771 020f 00       		.byte	0
 2772 0210 29       		.uleb128 0x29
 2773 0211 2E       		.uleb128 0x2e
 2774 0212 01       		.byte	0x1
 2775 0213 3F       		.uleb128 0x3f
 2776 0214 19       		.uleb128 0x19
 2777 0215 03       		.uleb128 0x3
 2778 0216 0E       		.uleb128 0xe
 2779 0217 3A       		.uleb128 0x3a
 2780 0218 0B       		.uleb128 0xb
 2781 0219 3B       		.uleb128 0x3b
 2782 021a 0B       		.uleb128 0xb
 2783 021b 6E       		.uleb128 0x6e
 2784 021c 0E       		.uleb128 0xe
 2785 021d 32       		.uleb128 0x32
 2786 021e 0B       		.uleb128 0xb
 2787 021f 3C       		.uleb128 0x3c
ARM GAS  C:\Users\Luis\AppData\Local\Temp\ccSqLEWf.s 			page 50


 2788 0220 19       		.uleb128 0x19
 2789 0221 64       		.uleb128 0x64
 2790 0222 13       		.uleb128 0x13
 2791 0223 00       		.byte	0
 2792 0224 00       		.byte	0
 2793 0225 2A       		.uleb128 0x2a
 2794 0226 18       		.uleb128 0x18
 2795 0227 00       		.byte	0
 2796 0228 00       		.byte	0
 2797 0229 00       		.byte	0
 2798 022a 2B       		.uleb128 0x2b
 2799 022b 0F       		.uleb128 0xf
 2800 022c 00       		.byte	0
 2801 022d 0B       		.uleb128 0xb
 2802 022e 0B       		.uleb128 0xb
 2803 022f 03       		.uleb128 0x3
 2804 0230 0E       		.uleb128 0xe
 2805 0231 49       		.uleb128 0x49
 2806 0232 13       		.uleb128 0x13
 2807 0233 00       		.byte	0
 2808 0234 00       		.byte	0
 2809 0235 2C       		.uleb128 0x2c
 2810 0236 02       		.uleb128 0x2
 2811 0237 00       		.byte	0
 2812 0238 03       		.uleb128 0x3
 2813 0239 0E       		.uleb128 0xe
 2814 023a 3C       		.uleb128 0x3c
 2815 023b 19       		.uleb128 0x19
 2816 023c 00       		.byte	0
 2817 023d 00       		.byte	0
 2818 023e 2D       		.uleb128 0x2d
 2819 023f 2E       		.uleb128 0x2e
 2820 0240 01       		.byte	0x1
 2821 0241 03       		.uleb128 0x3
 2822 0242 0E       		.uleb128 0xe
 2823 0243 3A       		.uleb128 0x3a
 2824 0244 0B       		.uleb128 0xb
 2825 0245 3B       		.uleb128 0x3b
 2826 0246 0B       		.uleb128 0xb
 2827 0247 49       		.uleb128 0x49
 2828 0248 13       		.uleb128 0x13
 2829 0249 11       		.uleb128 0x11
 2830 024a 01       		.uleb128 0x1
 2831 024b 12       		.uleb128 0x12
 2832 024c 06       		.uleb128 0x6
 2833 024d 40       		.uleb128 0x40
 2834 024e 18       		.uleb128 0x18
 2835 024f 9642     		.uleb128 0x2116
 2836 0251 19       		.uleb128 0x19
 2837 0252 01       		.uleb128 0x1
 2838 0253 13       		.uleb128 0x13
 2839 0254 00       		.byte	0
 2840 0255 00       		.byte	0
 2841 0256 2E       		.uleb128 0x2e
 2842 0257 05       		.uleb128 0x5
 2843 0258 00       		.byte	0
 2844 0259 03       		.uleb128 0x3
ARM GAS  C:\Users\Luis\AppData\Local\Temp\ccSqLEWf.s 			page 51


 2845 025a 08       		.uleb128 0x8
 2846 025b 3A       		.uleb128 0x3a
 2847 025c 0B       		.uleb128 0xb
 2848 025d 3B       		.uleb128 0x3b
 2849 025e 0B       		.uleb128 0xb
 2850 025f 49       		.uleb128 0x49
 2851 0260 13       		.uleb128 0x13
 2852 0261 02       		.uleb128 0x2
 2853 0262 18       		.uleb128 0x18
 2854 0263 00       		.byte	0
 2855 0264 00       		.byte	0
 2856 0265 2F       		.uleb128 0x2f
 2857 0266 0B       		.uleb128 0xb
 2858 0267 01       		.byte	0x1
 2859 0268 11       		.uleb128 0x11
 2860 0269 01       		.uleb128 0x1
 2861 026a 12       		.uleb128 0x12
 2862 026b 06       		.uleb128 0x6
 2863 026c 00       		.byte	0
 2864 026d 00       		.byte	0
 2865 026e 30       		.uleb128 0x30
 2866 026f 34       		.uleb128 0x34
 2867 0270 00       		.byte	0
 2868 0271 03       		.uleb128 0x3
 2869 0272 08       		.uleb128 0x8
 2870 0273 3A       		.uleb128 0x3a
 2871 0274 0B       		.uleb128 0xb
 2872 0275 3B       		.uleb128 0x3b
 2873 0276 0B       		.uleb128 0xb
 2874 0277 49       		.uleb128 0x49
 2875 0278 13       		.uleb128 0x13
 2876 0279 02       		.uleb128 0x2
 2877 027a 18       		.uleb128 0x18
 2878 027b 00       		.byte	0
 2879 027c 00       		.byte	0
 2880 027d 31       		.uleb128 0x31
 2881 027e 34       		.uleb128 0x34
 2882 027f 00       		.byte	0
 2883 0280 03       		.uleb128 0x3
 2884 0281 0E       		.uleb128 0xe
 2885 0282 3A       		.uleb128 0x3a
 2886 0283 0B       		.uleb128 0xb
 2887 0284 3B       		.uleb128 0x3b
 2888 0285 0B       		.uleb128 0xb
 2889 0286 49       		.uleb128 0x49
 2890 0287 13       		.uleb128 0x13
 2891 0288 02       		.uleb128 0x2
 2892 0289 18       		.uleb128 0x18
 2893 028a 00       		.byte	0
 2894 028b 00       		.byte	0
 2895 028c 32       		.uleb128 0x32
 2896 028d 2E       		.uleb128 0x2e
 2897 028e 01       		.byte	0x1
 2898 028f 47       		.uleb128 0x47
 2899 0290 13       		.uleb128 0x13
 2900 0291 20       		.uleb128 0x20
 2901 0292 0B       		.uleb128 0xb
ARM GAS  C:\Users\Luis\AppData\Local\Temp\ccSqLEWf.s 			page 52


 2902 0293 64       		.uleb128 0x64
 2903 0294 13       		.uleb128 0x13
 2904 0295 01       		.uleb128 0x1
 2905 0296 13       		.uleb128 0x13
 2906 0297 00       		.byte	0
 2907 0298 00       		.byte	0
 2908 0299 33       		.uleb128 0x33
 2909 029a 05       		.uleb128 0x5
 2910 029b 00       		.byte	0
 2911 029c 03       		.uleb128 0x3
 2912 029d 0E       		.uleb128 0xe
 2913 029e 49       		.uleb128 0x49
 2914 029f 13       		.uleb128 0x13
 2915 02a0 34       		.uleb128 0x34
 2916 02a1 19       		.uleb128 0x19
 2917 02a2 00       		.byte	0
 2918 02a3 00       		.byte	0
 2919 02a4 34       		.uleb128 0x34
 2920 02a5 2E       		.uleb128 0x2e
 2921 02a6 01       		.byte	0x1
 2922 02a7 31       		.uleb128 0x31
 2923 02a8 13       		.uleb128 0x13
 2924 02a9 6E       		.uleb128 0x6e
 2925 02aa 0E       		.uleb128 0xe
 2926 02ab 11       		.uleb128 0x11
 2927 02ac 01       		.uleb128 0x1
 2928 02ad 12       		.uleb128 0x12
 2929 02ae 06       		.uleb128 0x6
 2930 02af 40       		.uleb128 0x40
 2931 02b0 18       		.uleb128 0x18
 2932 02b1 64       		.uleb128 0x64
 2933 02b2 13       		.uleb128 0x13
 2934 02b3 9642     		.uleb128 0x2116
 2935 02b5 19       		.uleb128 0x19
 2936 02b6 01       		.uleb128 0x1
 2937 02b7 13       		.uleb128 0x13
 2938 02b8 00       		.byte	0
 2939 02b9 00       		.byte	0
 2940 02ba 35       		.uleb128 0x35
 2941 02bb 05       		.uleb128 0x5
 2942 02bc 00       		.byte	0
 2943 02bd 31       		.uleb128 0x31
 2944 02be 13       		.uleb128 0x13
 2945 02bf 02       		.uleb128 0x2
 2946 02c0 18       		.uleb128 0x18
 2947 02c1 00       		.byte	0
 2948 02c2 00       		.byte	0
 2949 02c3 36       		.uleb128 0x36
 2950 02c4 2E       		.uleb128 0x2e
 2951 02c5 01       		.byte	0x1
 2952 02c6 47       		.uleb128 0x47
 2953 02c7 13       		.uleb128 0x13
 2954 02c8 11       		.uleb128 0x11
 2955 02c9 01       		.uleb128 0x1
 2956 02ca 12       		.uleb128 0x12
 2957 02cb 06       		.uleb128 0x6
 2958 02cc 40       		.uleb128 0x40
ARM GAS  C:\Users\Luis\AppData\Local\Temp\ccSqLEWf.s 			page 53


 2959 02cd 18       		.uleb128 0x18
 2960 02ce 64       		.uleb128 0x64
 2961 02cf 13       		.uleb128 0x13
 2962 02d0 9642     		.uleb128 0x2116
 2963 02d2 19       		.uleb128 0x19
 2964 02d3 01       		.uleb128 0x1
 2965 02d4 13       		.uleb128 0x13
 2966 02d5 00       		.byte	0
 2967 02d6 00       		.byte	0
 2968 02d7 37       		.uleb128 0x37
 2969 02d8 05       		.uleb128 0x5
 2970 02d9 00       		.byte	0
 2971 02da 03       		.uleb128 0x3
 2972 02db 0E       		.uleb128 0xe
 2973 02dc 49       		.uleb128 0x49
 2974 02dd 13       		.uleb128 0x13
 2975 02de 34       		.uleb128 0x34
 2976 02df 19       		.uleb128 0x19
 2977 02e0 02       		.uleb128 0x2
 2978 02e1 18       		.uleb128 0x18
 2979 02e2 00       		.byte	0
 2980 02e3 00       		.byte	0
 2981 02e4 38       		.uleb128 0x38
 2982 02e5 05       		.uleb128 0x5
 2983 02e6 00       		.byte	0
 2984 02e7 03       		.uleb128 0x3
 2985 02e8 0E       		.uleb128 0xe
 2986 02e9 3A       		.uleb128 0x3a
 2987 02ea 0B       		.uleb128 0xb
 2988 02eb 3B       		.uleb128 0x3b
 2989 02ec 0B       		.uleb128 0xb
 2990 02ed 49       		.uleb128 0x49
 2991 02ee 13       		.uleb128 0x13
 2992 02ef 02       		.uleb128 0x2
 2993 02f0 18       		.uleb128 0x18
 2994 02f1 00       		.byte	0
 2995 02f2 00       		.byte	0
 2996 02f3 39       		.uleb128 0x39
 2997 02f4 34       		.uleb128 0x34
 2998 02f5 00       		.byte	0
 2999 02f6 03       		.uleb128 0x3
 3000 02f7 0E       		.uleb128 0xe
 3001 02f8 3A       		.uleb128 0x3a
 3002 02f9 0B       		.uleb128 0xb
 3003 02fa 3B       		.uleb128 0x3b
 3004 02fb 05       		.uleb128 0x5
 3005 02fc 49       		.uleb128 0x49
 3006 02fd 13       		.uleb128 0x13
 3007 02fe 3F       		.uleb128 0x3f
 3008 02ff 19       		.uleb128 0x19
 3009 0300 3C       		.uleb128 0x3c
 3010 0301 19       		.uleb128 0x19
 3011 0302 00       		.byte	0
 3012 0303 00       		.byte	0
 3013 0304 3A       		.uleb128 0x3a
 3014 0305 34       		.uleb128 0x34
 3015 0306 00       		.byte	0
ARM GAS  C:\Users\Luis\AppData\Local\Temp\ccSqLEWf.s 			page 54


 3016 0307 03       		.uleb128 0x3
 3017 0308 08       		.uleb128 0x8
 3018 0309 3A       		.uleb128 0x3a
 3019 030a 0B       		.uleb128 0xb
 3020 030b 3B       		.uleb128 0x3b
 3021 030c 05       		.uleb128 0x5
 3022 030d 49       		.uleb128 0x49
 3023 030e 13       		.uleb128 0x13
 3024 030f 3F       		.uleb128 0x3f
 3025 0310 19       		.uleb128 0x19
 3026 0311 3C       		.uleb128 0x3c
 3027 0312 19       		.uleb128 0x19
 3028 0313 00       		.byte	0
 3029 0314 00       		.byte	0
 3030 0315 00       		.byte	0
 3031              		.section	.debug_aranges,"",%progbits
 3032 0000 3C000000 		.4byte	0x3c
 3033 0004 0200     		.2byte	0x2
 3034 0006 00000000 		.4byte	.Ldebug_info0
 3035 000a 04       		.byte	0x4
 3036 000b 00       		.byte	0
 3037 000c 0000     		.2byte	0
 3038 000e 0000     		.2byte	0
 3039 0010 00000000 		.4byte	.LFB260
 3040 0014 2C000000 		.4byte	.LFE260-.LFB260
 3041 0018 00000000 		.4byte	.LFB262
 3042 001c 28000000 		.4byte	.LFE262-.LFB262
 3043 0020 00000000 		.4byte	.LFB264
 3044 0024 1E000000 		.4byte	.LFE264-.LFB264
 3045 0028 00000000 		.4byte	.LFB265
 3046 002c 08010000 		.4byte	.LFE265-.LFB265
 3047 0030 00000000 		.4byte	.LFB266
 3048 0034 26000000 		.4byte	.LFE266-.LFB266
 3049 0038 00000000 		.4byte	0
 3050 003c 00000000 		.4byte	0
 3051              		.section	.debug_ranges,"",%progbits
 3052              	.Ldebug_ranges0:
 3053 0000 00000000 		.4byte	.LFB260
 3054 0004 2C000000 		.4byte	.LFE260
 3055 0008 00000000 		.4byte	.LFB262
 3056 000c 28000000 		.4byte	.LFE262
 3057 0010 00000000 		.4byte	.LFB264
 3058 0014 1E000000 		.4byte	.LFE264
 3059 0018 00000000 		.4byte	.LFB265
 3060 001c 08010000 		.4byte	.LFE265
 3061 0020 00000000 		.4byte	.LFB266
 3062 0024 26000000 		.4byte	.LFE266
 3063 0028 00000000 		.4byte	0
 3064 002c 00000000 		.4byte	0
 3065              		.section	.debug_line,"",%progbits
 3066              	.Ldebug_line0:
 3067 0000 50030000 		.section	.debug_str,"MS",%progbits,1
 3067      0200C902 
 3067      00000201 
 3067      FB0E0D00 
 3067      01010101 
 3068              	.LASF15:
ARM GAS  C:\Users\Luis\AppData\Local\Temp\ccSqLEWf.s 			page 55


 3069 0000 72747469 		.ascii	"rttime_t\000"
 3069      6D655F74 
 3069      00
 3070              	.LASF60:
 3071 0009 72656164 		.ascii	"ready_list_t\000"
 3071      795F6C69 
 3071      73745F74 
 3071      00
 3072              	.LASF187:
 3073 0016 5F5F696E 		.ascii	"__in_chrg\000"
 3073      5F636872 
 3073      6700
 3074              	.LASF2:
 3075 0020 73697A65 		.ascii	"size_t\000"
 3075      5F7400
 3076              	.LASF210:
 3077 0027 39736473 		.ascii	"9sdstate_t\000"
 3077      74617465 
 3077      5F7400
 3078              	.LASF27:
 3079 0032 7264796D 		.ascii	"rdymsg\000"
 3079      736700
 3080              	.LASF12:
 3081 0039 75696E74 		.ascii	"uint64_t\000"
 3081      36345F74 
 3081      00
 3082              	.LASF90:
 3083 0042 6B65726E 		.ascii	"kernel_stats\000"
 3083      656C5F73 
 3083      74617473 
 3083      00
 3084              	.LASF98:
 3085 004f 706F7274 		.ascii	"port_intctx\000"
 3085      5F696E74 
 3085      63747800 
 3086              	.LASF180:
 3087 005b 76615F6C 		.ascii	"va_list\000"
 3087      69737400 
 3088              	.LASF88:
 3089 0063 76746C69 		.ascii	"vtlist\000"
 3089      737400
 3090              	.LASF114:
 3091 006a 776F7273 		.ascii	"worst\000"
 3091      7400
 3092              	.LASF117:
 3093 0070 74696D65 		.ascii	"time_measurement_t\000"
 3093      5F6D6561 
 3093      73757265 
 3093      6D656E74 
 3093      5F7400
 3094              	.LASF13:
 3095 0083 6C6F6E67 		.ascii	"long long unsigned int\000"
 3095      206C6F6E 
 3095      6720756E 
 3095      7369676E 
 3095      65642069 
 3096              	.LASF185:
ARM GAS  C:\Users\Luis\AppData\Local\Temp\ccSqLEWf.s 			page 56


 3097 009a 666F726D 		.ascii	"formatted_bytes\000"
 3097      61747465 
 3097      645F6279 
 3097      74657300 
 3098              	.LASF102:
 3099 00aa 73655F73 		.ascii	"se_state\000"
 3099      74617465 
 3099      00
 3100              	.LASF28:
 3101 00b3 65786974 		.ascii	"exitcode\000"
 3101      636F6465 
 3101      00
 3102              	.LASF89:
 3103 00bc 6D61696E 		.ascii	"mainthread\000"
 3103      74687265 
 3103      616400
 3104              	.LASF182:
 3105 00c7 496E6974 		.ascii	"InitialDataFilter\000"
 3105      69616C44 
 3105      61746146 
 3105      696C7465 
 3105      7200
 3106              	.LASF76:
 3107 00d9 76697274 		.ascii	"virtual_timers_list_t\000"
 3107      75616C5F 
 3107      74696D65 
 3107      72735F6C 
 3107      6973745F 
 3108              	.LASF204:
 3109 00ef 49544D5F 		.ascii	"ITM_RxBuffer\000"
 3109      52784275 
 3109      66666572 
 3109      00
 3110              	.LASF143:
 3111 00fc 696F5F71 		.ascii	"io_queue_t\000"
 3111      75657565 
 3111      5F7400
 3112              	.LASF59:
 3113 0107 63685F74 		.ascii	"ch_threads_queue\000"
 3113      68726561 
 3113      64735F71 
 3113      75657565 
 3113      00
 3114              	.LASF36:
 3115 0118 705F7072 		.ascii	"p_prio\000"
 3115      696F00
 3116              	.LASF176:
 3117 011f 72656164 		.ascii	"readt\000"
 3117      7400
 3118              	.LASF145:
 3119 0125 715F7761 		.ascii	"q_waiting\000"
 3119      6974696E 
 3119      6700
 3120              	.LASF11:
 3121 012f 6C6F6E67 		.ascii	"long long int\000"
 3121      206C6F6E 
 3121      6720696E 
ARM GAS  C:\Users\Luis\AppData\Local\Temp\ccSqLEWf.s 			page 57


 3121      7400
 3122              	.LASF1:
 3123 013d 7369676E 		.ascii	"signed char\000"
 3123      65642063 
 3123      68617200 
 3124              	.LASF214:
 3125 0149 73657449 		.ascii	"setInitialDataFilter\000"
 3125      6E697469 
 3125      616C4461 
 3125      74614669 
 3125      6C746572 
 3126              	.LASF93:
 3127 015e 47545052 		.ascii	"GTPR\000"
 3127      00
 3128              	.LASF10:
 3129 0163 6C6F6E67 		.ascii	"long unsigned int\000"
 3129      20756E73 
 3129      69676E65 
 3129      6420696E 
 3129      7400
 3130              	.LASF51:
 3131 0175 705F6D70 		.ascii	"p_mpool\000"
 3131      6F6F6C00 
 3132              	.LASF159:
 3133 017d 32304261 		.ascii	"20BaseSequentialStream\000"
 3133      73655365 
 3133      7175656E 
 3133      7469616C 
 3133      53747265 
 3134              	.LASF189:
 3135 0194 5F5A4E33 		.ascii	"_ZN3IIRD0Ev\000"
 3135      49495244 
 3135      30457600 
 3136              	.LASF29:
 3137 01a0 77746F62 		.ascii	"wtobjp\000"
 3137      6A7000
 3138              	.LASF207:
 3139 01a7 433A5C55 		.ascii	"C:\\Users\\Luis\\git\\DSP-Library-Lanin\\examples\\"
 3139      73657273 
 3139      5C4C7569 
 3139      735C6769 
 3139      745C4453 
 3140 01d4 4453502D 		.ascii	"DSP-Library\000"
 3140      4C696272 
 3140      61727900 
 3141              	.LASF168:
 3142 01e0 73746174 		.ascii	"state\000"
 3142      6500
 3143              	.LASF86:
 3144 01e6 63685F73 		.ascii	"ch_system\000"
 3144      79737465 
 3144      6D00
 3145              	.LASF8:
 3146 01f0 6C6F6E67 		.ascii	"long int\000"
 3146      20696E74 
 3146      00
 3147              	.LASF17:
ARM GAS  C:\Users\Luis\AppData\Local\Temp\ccSqLEWf.s 			page 58


 3148 01f9 74737461 		.ascii	"tstate_t\000"
 3148      74655F74 
 3148      00
 3149              	.LASF22:
 3150 0202 6576656E 		.ascii	"eventflags_t\000"
 3150      74666C61 
 3150      67735F74 
 3150      00
 3151              	.LASF178:
 3152 020f 5F5F7661 		.ascii	"__va_list\000"
 3152      5F6C6973 
 3152      7400
 3153              	.LASF52:
 3154 0219 705F7374 		.ascii	"p_stats\000"
 3154      61747300 
 3155              	.LASF100:
 3156 0221 73655F74 		.ascii	"se_tp\000"
 3156      7000
 3157              	.LASF147:
 3158 0227 715F6275 		.ascii	"q_buffer\000"
 3158      66666572 
 3158      00
 3159              	.LASF149:
 3160 0230 715F7772 		.ascii	"q_wrptr\000"
 3160      70747200 
 3161              	.LASF186:
 3162 0238 74686973 		.ascii	"this\000"
 3162      00
 3163              	.LASF38:
 3164 023d 705F6E65 		.ascii	"p_newer\000"
 3164      77657200 
 3165              	.LASF125:
 3166 0245 735F7175 		.ascii	"s_queue\000"
 3166      65756500 
 3167              	.LASF190:
 3168 024d 70446174 		.ascii	"pData\000"
 3168      6100
 3169              	.LASF65:
 3170 0253 725F6E65 		.ascii	"r_newer\000"
 3170      77657200 
 3171              	.LASF95:
 3172 025b 72656761 		.ascii	"regarm_t\000"
 3172      726D5F74 
 3172      00
 3173              	.LASF72:
 3174 0264 76745F70 		.ascii	"vt_prev\000"
 3174      72657600 
 3175              	.LASF80:
 3176 026c 63685F73 		.ascii	"ch_system_debug\000"
 3176      79737465 
 3176      6D5F6465 
 3176      62756700 
 3177              	.LASF132:
 3178 027c 6D757465 		.ascii	"mutex_t\000"
 3178      785F7400 
 3179              	.LASF83:
 3180 0284 6C6F636B 		.ascii	"lock_cnt\000"
ARM GAS  C:\Users\Luis\AppData\Local\Temp\ccSqLEWf.s 			page 59


 3180      5F636E74 
 3180      00
 3181              	.LASF142:
 3182 028d 6576656E 		.ascii	"event_source_t\000"
 3182      745F736F 
 3182      75726365 
 3182      5F7400
 3183              	.LASF99:
 3184 029c 73655F74 		.ascii	"se_time\000"
 3184      696D6500 
 3185              	.LASF23:
 3186 02a4 636E745F 		.ascii	"cnt_t\000"
 3186      7400
 3187              	.LASF216:
 3188 02aa 5F5F7674 		.ascii	"__vtbl_ptr_type\000"
 3188      626C5F70 
 3188      74725F74 
 3188      79706500 
 3189              	.LASF171:
 3190 02ba 75736172 		.ascii	"usart\000"
 3190      7400
 3191              	.LASF0:
 3192 02c0 756E7369 		.ascii	"unsigned int\000"
 3192      676E6564 
 3192      20696E74 
 3192      00
 3193              	.LASF215:
 3194 02cd 5F5A4E33 		.ascii	"_ZN3IIR20setInitialDataFilterEP10DataFilter\000"
 3194      49495232 
 3194      30736574 
 3194      496E6974 
 3194      69616C44 
 3195              	.LASF172:
 3196 02f9 53657269 		.ascii	"SerialDriverVMT\000"
 3196      616C4472 
 3196      69766572 
 3196      564D5400 
 3197              	.LASF31:
 3198 0309 77747365 		.ascii	"wtsemp\000"
 3198      6D7000
 3199              	.LASF79:
 3200 0310 73797374 		.ascii	"system_debug_t\000"
 3200      656D5F64 
 3200      65627567 
 3200      5F7400
 3201              	.LASF169:
 3202 031f 69717565 		.ascii	"iqueue\000"
 3202      756500
 3203              	.LASF71:
 3204 0326 76745F6E 		.ascii	"vt_next\000"
 3204      65787400 
 3205              	.LASF53:
 3206 032e 746C7350 		.ascii	"tlsPtr\000"
 3206      747200
 3207              	.LASF174:
 3208 0335 67657474 		.ascii	"gett\000"
 3208      00
ARM GAS  C:\Users\Luis\AppData\Local\Temp\ccSqLEWf.s 			page 60


 3209              	.LASF119:
 3210 033a 6E5F6972 		.ascii	"n_irq\000"
 3210      7100
 3211              	.LASF195:
 3212 0340 5F436F6E 		.ascii	"_ContInputData\000"
 3212      74496E70 
 3212      75744461 
 3212      746100
 3213              	.LASF126:
 3214 034f 735F636E 		.ascii	"s_cnt\000"
 3214      7400
 3215              	.LASF167:
 3216 0355 6576656E 		.ascii	"event\000"
 3216      7400
 3217              	.LASF6:
 3218 035b 73686F72 		.ascii	"short unsigned int\000"
 3218      7420756E 
 3218      7369676E 
 3218      65642069 
 3218      6E7400
 3219              	.LASF123:
 3220 036e 6B65726E 		.ascii	"kernel_stats_t\000"
 3220      656C5F73 
 3220      74617473 
 3220      5F7400
 3221              	.LASF108:
 3222 037d 31346368 		.ascii	"14ch_swc_event_t\000"
 3222      5F737763 
 3222      5F657665 
 3222      6E745F74 
 3222      00
 3223              	.LASF56:
 3224 038e 63685F74 		.ascii	"ch_thread\000"
 3224      68726561 
 3224      6400
 3225              	.LASF139:
 3226 0398 656C5F77 		.ascii	"el_wflags\000"
 3226      666C6167 
 3226      7300
 3227              	.LASF20:
 3228 03a2 6D73675F 		.ascii	"msg_t\000"
 3228      7400
 3229              	.LASF170:
 3230 03a8 6F717565 		.ascii	"oqueue\000"
 3230      756500
 3231              	.LASF24:
 3232 03af 75636E74 		.ascii	"ucnt_t\000"
 3232      5F7400
 3233              	.LASF135:
 3234 03b6 656C5F6E 		.ascii	"el_next\000"
 3234      65787400 
 3235              	.LASF85:
 3236 03be 63685F73 		.ascii	"ch_system_t\000"
 3236      79737465 
 3236      6D5F7400 
 3237              	.LASF94:
 3238 03ca 55534152 		.ascii	"USART_TypeDef\000"
ARM GAS  C:\Users\Luis\AppData\Local\Temp\ccSqLEWf.s 			page 61


 3238      545F5479 
 3238      70654465 
 3238      6600
 3239              	.LASF175:
 3240 03d8 77726974 		.ascii	"writet\000"
 3240      657400
 3241              	.LASF16:
 3242 03df 746D6F64 		.ascii	"tmode_t\000"
 3242      655F7400 
 3243              	.LASF161:
 3244 03e7 626F6F6C 		.ascii	"bool\000"
 3244      00
 3245              	.LASF122:
 3246 03ec 6D5F6372 		.ascii	"m_crit_isr\000"
 3246      69745F69 
 3246      737200
 3247              	.LASF61:
 3248 03f7 63685F72 		.ascii	"ch_ready_list\000"
 3248      65616479 
 3248      5F6C6973 
 3248      7400
 3249              	.LASF21:
 3250 0405 6576656E 		.ascii	"eventmask_t\000"
 3250      746D6173 
 3250      6B5F7400 
 3251              	.LASF202:
 3252 0411 46756E74 		.ascii	"FuntionsMath\000"
 3252      696F6E73 
 3252      4D617468 
 3252      00
 3253              	.LASF209:
 3254 041e 31376368 		.ascii	"17ch_trace_buffer_t\000"
 3254      5F747261 
 3254      63655F62 
 3254      75666665 
 3254      725F7400 
 3255              	.LASF96:
 3256 0432 73746B61 		.ascii	"stkalign_t\000"
 3256      6C69676E 
 3256      5F7400
 3257              	.LASF213:
 3258 043d 7E494952 		.ascii	"~IIR\000"
 3258      00
 3259              	.LASF104:
 3260 0442 74625F73 		.ascii	"tb_size\000"
 3260      697A6500 
 3261              	.LASF133:
 3262 044a 6576656E 		.ascii	"event_listener_t\000"
 3262      745F6C69 
 3262      7374656E 
 3262      65725F74 
 3262      00
 3263              	.LASF154:
 3264 045b 696E7075 		.ascii	"input_queue_t\000"
 3264      745F7175 
 3264      6575655F 
 3264      7400
ARM GAS  C:\Users\Luis\AppData\Local\Temp\ccSqLEWf.s 			page 62


 3265              	.LASF173:
 3266 0469 70757474 		.ascii	"putt\000"
 3266      00
 3267              	.LASF200:
 3268 046e 5F526573 		.ascii	"_Result\000"
 3268      756C7400 
 3269              	.LASF105:
 3270 0476 74625F70 		.ascii	"tb_ptr\000"
 3270      747200
 3271              	.LASF35:
 3272 047d 705F7072 		.ascii	"p_prev\000"
 3272      657600
 3273              	.LASF144:
 3274 0484 696F5F71 		.ascii	"io_queue\000"
 3274      75657565 
 3274      00
 3275              	.LASF14:
 3276 048d 7274636E 		.ascii	"rtcnt_t\000"
 3276      745F7400 
 3277              	.LASF111:
 3278 0495 746D5F63 		.ascii	"tm_calibration_t\000"
 3278      616C6962 
 3278      72617469 
 3278      6F6E5F74 
 3278      00
 3279              	.LASF77:
 3280 04a6 63685F76 		.ascii	"ch_virtual_timers_list\000"
 3280      69727475 
 3280      616C5F74 
 3280      696D6572 
 3280      735F6C69 
 3281              	.LASF146:
 3282 04bd 715F636F 		.ascii	"q_counter\000"
 3282      756E7465 
 3282      7200
 3283              	.LASF30:
 3284 04c7 77747472 		.ascii	"wttrp\000"
 3284      7000
 3285              	.LASF177:
 3286 04cd 5F5F676E 		.ascii	"__gnuc_va_list\000"
 3286      75635F76 
 3286      615F6C69 
 3286      737400
 3287              	.LASF103:
 3288 04dc 63685F73 		.ascii	"ch_swc_event_t\000"
 3288      77635F65 
 3288      76656E74 
 3288      5F7400
 3289              	.LASF78:
 3290 04eb 76745F6C 		.ascii	"vt_lasttime\000"
 3290      61737474 
 3290      696D6500 
 3291              	.LASF39:
 3292 04f7 705F6F6C 		.ascii	"p_older\000"
 3292      64657200 
 3293              	.LASF64:
 3294 04ff 725F6374 		.ascii	"r_ctx\000"
ARM GAS  C:\Users\Luis\AppData\Local\Temp\ccSqLEWf.s 			page 63


 3294      7800
 3295              	.LASF112:
 3296 0505 31387469 		.ascii	"18time_measurement_t\000"
 3296      6D655F6D 
 3296      65617375 
 3296      72656D65 
 3296      6E745F74 
 3297              	.LASF118:
 3298 051a 31346B65 		.ascii	"14kernel_stats_t\000"
 3298      726E656C 
 3298      5F737461 
 3298      74735F74 
 3298      00
 3299              	.LASF74:
 3300 052b 76745F66 		.ascii	"vt_func\000"
 3300      756E6300 
 3301              	.LASF41:
 3302 0533 705F7374 		.ascii	"p_stklimit\000"
 3302      6B6C696D 
 3302      697400
 3303              	.LASF212:
 3304 053e 5F5A4E33 		.ascii	"_ZN3IIR11directFormIEf\000"
 3304      49495231 
 3304      31646972 
 3304      65637446 
 3304      6F726D49 
 3305              	.LASF66:
 3306 0555 725F6F6C 		.ascii	"r_older\000"
 3306      64657200 
 3307              	.LASF137:
 3308 055d 656C5F65 		.ascii	"el_events\000"
 3308      76656E74 
 3308      7300
 3309              	.LASF116:
 3310 0567 63756D75 		.ascii	"cumulative\000"
 3310      6C617469 
 3310      766500
 3311              	.LASF184:
 3312 0572 666C6F61 		.ascii	"float\000"
 3312      7400
 3313              	.LASF192:
 3314 0578 5F417272 		.ascii	"_ArrayInputsX\000"
 3314      6179496E 
 3314      70757473 
 3314      5800
 3315              	.LASF193:
 3316 0586 5F417272 		.ascii	"_ArrayInputsY\000"
 3316      6179496E 
 3316      70757473 
 3316      5900
 3317              	.LASF18:
 3318 0594 74726566 		.ascii	"trefs_t\000"
 3318      735F7400 
 3319              	.LASF106:
 3320 059c 74625F62 		.ascii	"tb_buffer\000"
 3320      75666665 
 3320      7200
ARM GAS  C:\Users\Luis\AppData\Local\Temp\ccSqLEWf.s 			page 64


 3321              	.LASF157:
 3322 05a6 77726974 		.ascii	"write\000"
 3322      6500
 3323              	.LASF153:
 3324 05ac 716E6F74 		.ascii	"qnotify_t\000"
 3324      6966795F 
 3324      7400
 3325              	.LASF69:
 3326 05b6 76697274 		.ascii	"virtual_timer_t\000"
 3326      75616C5F 
 3326      74696D65 
 3326      725F7400 
 3327              	.LASF163:
 3328 05c6 53445F53 		.ascii	"SD_STOP\000"
 3328      544F5000 
 3329              	.LASF205:
 3330 05ce 474E5520 		.ascii	"GNU C++ 4.8.3 20131129 (release) [ARM/embedded-4_8-"
 3330      432B2B20 
 3330      342E382E 
 3330      33203230 
 3330      31333131 
 3331 0601 6272616E 		.ascii	"branch revision 205641] -mcpu=cortex-m4 -mapcs-fram"
 3331      63682072 
 3331      65766973 
 3331      696F6E20 
 3331      32303536 
 3332 0634 65202D6D 		.ascii	"e -mno-thumb-interwork -mthumb -ggdb -O0 -falign-fu"
 3332      6E6F2D74 
 3332      68756D62 
 3332      2D696E74 
 3332      6572776F 
 3333 0667 6E637469 		.ascii	"nctions=16 -ffunction-sections -fdata-sections -fno"
 3333      6F6E733D 
 3333      3136202D 
 3333      6666756E 
 3333      6374696F 
 3334 069a 2D636F6D 		.ascii	"-common -fno-rtti -fno-exceptions\000"
 3334      6D6F6E20 
 3334      2D666E6F 
 3334      2D727474 
 3334      69202D66 
 3335              	.LASF121:
 3336 06bc 6D5F6372 		.ascii	"m_crit_thd\000"
 3336      69745F74 
 3336      686400
 3337              	.LASF19:
 3338 06c7 74707269 		.ascii	"tprio_t\000"
 3338      6F5F7400 
 3339              	.LASF150:
 3340 06cf 715F7264 		.ascii	"q_rdptr\000"
 3340      70747200 
 3341              	.LASF40:
 3342 06d7 705F6E61 		.ascii	"p_name\000"
 3342      6D6500
 3343              	.LASF120:
 3344 06de 6E5F6374 		.ascii	"n_ctxswc\000"
 3344      78737763 
ARM GAS  C:\Users\Luis\AppData\Local\Temp\ccSqLEWf.s 			page 65


 3344      00
 3345              	.LASF7:
 3346 06e7 696E7433 		.ascii	"int32_t\000"
 3346      325F7400 
 3347              	.LASF107:
 3348 06ef 63685F74 		.ascii	"ch_trace_buffer_t\000"
 3348      72616365 
 3348      5F627566 
 3348      6665725F 
 3348      7400
 3349              	.LASF128:
 3350 0701 6D5F7175 		.ascii	"m_queue\000"
 3350      65756500 
 3351              	.LASF203:
 3352 0709 70496E69 		.ascii	"pInitialDataFilter\000"
 3352      7469616C 
 3352      44617461 
 3352      46696C74 
 3352      657200
 3353              	.LASF136:
 3354 071c 656C5F6C 		.ascii	"el_listener\000"
 3354      69737465 
 3354      6E657200 
 3355              	.LASF138:
 3356 0728 656C5F66 		.ascii	"el_flags\000"
 3356      6C616773 
 3356      00
 3357              	.LASF49:
 3358 0731 705F6D74 		.ascii	"p_mtxlist\000"
 3358      786C6973 
 3358      7400
 3359              	.LASF5:
 3360 073b 73686F72 		.ascii	"short int\000"
 3360      7420696E 
 3360      7400
 3361              	.LASF42:
 3362 0745 705F7374 		.ascii	"p_state\000"
 3362      61746500 
 3363              	.LASF196:
 3364 074d 5F526573 		.ascii	"_ResultX\000"
 3364      756C7458 
 3364      00
 3365              	.LASF198:
 3366 0756 5F526573 		.ascii	"_ResultY\000"
 3366      756C7459 
 3366      00
 3367              	.LASF63:
 3368 075f 725F7072 		.ascii	"r_prio\000"
 3368      696F00
 3369              	.LASF194:
 3370 0766 5F46696C 		.ascii	"_FilterOrder\000"
 3370      7465724F 
 3370      72646572 
 3370      00
 3371              	.LASF33:
 3372 0773 65776D61 		.ascii	"ewmask\000"
 3372      736B00
ARM GAS  C:\Users\Luis\AppData\Local\Temp\ccSqLEWf.s 			page 66


 3373              	.LASF34:
 3374 077a 705F6E65 		.ascii	"p_next\000"
 3374      787400
 3375              	.LASF156:
 3376 0781 42617365 		.ascii	"BaseSequentialStreamVMT\000"
 3376      53657175 
 3376      656E7469 
 3376      616C5374 
 3376      7265616D 
 3377              	.LASF91:
 3378 0799 69646C65 		.ascii	"idle_thread_wa\000"
 3378      5F746872 
 3378      6561645F 
 3378      776100
 3379              	.LASF58:
 3380 07a8 74687265 		.ascii	"threads_queue_t\000"
 3380      6164735F 
 3380      71756575 
 3380      655F7400 
 3381              	.LASF124:
 3382 07b8 63685F73 		.ascii	"ch_semaphore\000"
 3382      656D6170 
 3382      686F7265 
 3382      00
 3383              	.LASF48:
 3384 07c5 705F6570 		.ascii	"p_epending\000"
 3384      656E6469 
 3384      6E6700
 3385              	.LASF162:
 3386 07d0 53445F55 		.ascii	"SD_UNINIT\000"
 3386      4E494E49 
 3386      5400
 3387              	.LASF9:
 3388 07da 75696E74 		.ascii	"uint32_t\000"
 3388      33325F74 
 3388      00
 3389              	.LASF32:
 3390 07e3 77746D74 		.ascii	"wtmtxp\000"
 3390      787000
 3391              	.LASF62:
 3392 07ea 725F7175 		.ascii	"r_queue\000"
 3392      65756500 
 3393              	.LASF73:
 3394 07f2 76745F64 		.ascii	"vt_delta\000"
 3394      656C7461 
 3394      00
 3395              	.LASF57:
 3396 07fb 63685F74 		.ascii	"ch_threads_list\000"
 3396      68726561 
 3396      64735F6C 
 3396      69737400 
 3397              	.LASF166:
 3398 080b 53657269 		.ascii	"SerialDriver\000"
 3398      616C4472 
 3398      69766572 
 3398      00
 3399              	.LASF183:
ARM GAS  C:\Users\Luis\AppData\Local\Temp\ccSqLEWf.s 			page 67


 3400 0818 436F6E74 		.ascii	"ContBuffer\000"
 3400      42756666 
 3400      657200
 3401              	.LASF191:
 3402 0823 5F4D6174 		.ascii	"_MathOperation\000"
 3402      684F7065 
 3402      72617469 
 3402      6F6E00
 3403              	.LASF67:
 3404 0832 725F6375 		.ascii	"r_current\000"
 3404      7272656E 
 3404      7400
 3405              	.LASF131:
 3406 083c 63686172 		.ascii	"char\000"
 3406      00
 3407              	.LASF160:
 3408 0841 42617365 		.ascii	"BaseSequentialStream\000"
 3408      53657175 
 3408      656E7469 
 3408      616C5374 
 3408      7265616D 
 3409              	.LASF109:
 3410 0856 3136746D 		.ascii	"16tm_calibration_t\000"
 3410      5F63616C 
 3410      69627261 
 3410      74696F6E 
 3410      5F7400
 3411              	.LASF113:
 3412 0869 62657374 		.ascii	"best\000"
 3412      00
 3413              	.LASF130:
 3414 086e 6D5F6E65 		.ascii	"m_next\000"
 3414      787400
 3415              	.LASF25:
 3416 0875 73797374 		.ascii	"systime_t\000"
 3416      696D655F 
 3416      7400
 3417              	.LASF50:
 3418 087f 705F7265 		.ascii	"p_realprio\000"
 3418      616C7072 
 3418      696F00
 3419              	.LASF68:
 3420 088a 76746675 		.ascii	"vtfunc_t\000"
 3420      6E635F74 
 3420      00
 3421              	.LASF115:
 3422 0893 6C617374 		.ascii	"last\000"
 3422      00
 3423              	.LASF81:
 3424 0898 70616E69 		.ascii	"panic_msg\000"
 3424      635F6D73 
 3424      6700
 3425              	.LASF110:
 3426 08a2 6F666673 		.ascii	"offset\000"
 3426      657400
 3427              	.LASF188:
 3428 08a9 5F5A4E33 		.ascii	"_ZN3IIRD2Ev\000"
ARM GAS  C:\Users\Luis\AppData\Local\Temp\ccSqLEWf.s 			page 68


 3428      49495244 
 3428      32457600 
 3429              	.LASF199:
 3430 08b5 5F417272 		.ascii	"_ArrayCoefficientsA\000"
 3430      6179436F 
 3430      65666669 
 3430      6369656E 
 3430      74734100 
 3431              	.LASF179:
 3432 08c9 5F5F6170 		.ascii	"__ap\000"
 3432      00
 3433              	.LASF97:
 3434 08ce 636F6E74 		.ascii	"context\000"
 3434      65787400 
 3435              	.LASF4:
 3436 08d6 756E7369 		.ascii	"unsigned char\000"
 3436      676E6564 
 3436      20636861 
 3436      7200
 3437              	.LASF70:
 3438 08e4 63685F76 		.ascii	"ch_virtual_timer\000"
 3438      69727475 
 3438      616C5F74 
 3438      696D6572 
 3438      00
 3439              	.LASF46:
 3440 08f5 705F6D73 		.ascii	"p_msgqueue\000"
 3440      67717565 
 3440      756500
 3441              	.LASF164:
 3442 0900 53445F52 		.ascii	"SD_READY\000"
 3442      45414459 
 3442      00
 3443              	.LASF75:
 3444 0909 76745F70 		.ascii	"vt_par\000"
 3444      617200
 3445              	.LASF181:
 3446 0910 5F767074 		.ascii	"_vptr.IIR\000"
 3446      722E4949 
 3446      5200
 3447              	.LASF155:
 3448 091a 6F757470 		.ascii	"output_queue_t\000"
 3448      75745F71 
 3448      75657565 
 3448      5F7400
 3449              	.LASF165:
 3450 0929 73647374 		.ascii	"sdstate_t\000"
 3450      6174655F 
 3450      7400
 3451              	.LASF148:
 3452 0933 715F746F 		.ascii	"q_top\000"
 3452      7000
 3453              	.LASF127:
 3454 0939 63685F6D 		.ascii	"ch_mutex\000"
 3454      75746578 
 3454      00
 3455              	.LASF44:
ARM GAS  C:\Users\Luis\AppData\Local\Temp\ccSqLEWf.s 			page 69


 3456 0942 705F7265 		.ascii	"p_refs\000"
 3456      667300
 3457              	.LASF82:
 3458 0949 6973725F 		.ascii	"isr_cnt\000"
 3458      636E7400 
 3459              	.LASF208:
 3460 0951 31335553 		.ascii	"13USART_TypeDef\000"
 3460      4152545F 
 3460      54797065 
 3460      44656600 
 3461              	.LASF26:
 3462 0961 74687265 		.ascii	"thread_t\000"
 3462      61645F74 
 3462      00
 3463              	.LASF151:
 3464 096a 715F6E6F 		.ascii	"q_notify\000"
 3464      74696679 
 3464      00
 3465              	.LASF201:
 3466 0973 44617461 		.ascii	"DataFilter\000"
 3466      46696C74 
 3466      657200
 3467              	.LASF87:
 3468 097e 726C6973 		.ascii	"rlist\000"
 3468      7400
 3469              	.LASF140:
 3470 0984 6576656E 		.ascii	"event_source\000"
 3470      745F736F 
 3470      75726365 
 3470      00
 3471              	.LASF3:
 3472 0991 75696E74 		.ascii	"uint8_t\000"
 3472      385F7400 
 3473              	.LASF92:
 3474 0999 73697A65 		.ascii	"sizetype\000"
 3474      74797065 
 3474      00
 3475              	.LASF54:
 3476 09a2 74687265 		.ascii	"thread_reference_t\000"
 3476      61645F72 
 3476      65666572 
 3476      656E6365 
 3476      5F7400
 3477              	.LASF158:
 3478 09b5 72656164 		.ascii	"read\000"
 3478      00
 3479              	.LASF197:
 3480 09ba 5F417272 		.ascii	"_ArrayCoefficientsB\000"
 3480      6179436F 
 3480      65666669 
 3480      6369656E 
 3480      74734200 
 3481              	.LASF55:
 3482 09ce 74687265 		.ascii	"threads_list_t\000"
 3482      6164735F 
 3482      6C697374 
 3482      5F7400
ARM GAS  C:\Users\Luis\AppData\Local\Temp\ccSqLEWf.s 			page 70


 3483              	.LASF141:
 3484 09dd 65735F6E 		.ascii	"es_next\000"
 3484      65787400 
 3485              	.LASF84:
 3486 09e5 74726163 		.ascii	"trace_buffer\000"
 3486      655F6275 
 3486      66666572 
 3486      00
 3487              	.LASF43:
 3488 09f2 705F666C 		.ascii	"p_flags\000"
 3488      61677300 
 3489              	.LASF47:
 3490 09fa 705F6D73 		.ascii	"p_msg\000"
 3490      6700
 3491              	.LASF152:
 3492 0a00 715F6C69 		.ascii	"q_link\000"
 3492      6E6B00
 3493              	.LASF211:
 3494 0a07 64697265 		.ascii	"directFormI\000"
 3494      6374466F 
 3494      726D4900 
 3495              	.LASF206:
 3496 0a13 4949522E 		.ascii	"IIR.cpp\000"
 3496      63707000 
 3497              	.LASF129:
 3498 0a1b 6D5F6F77 		.ascii	"m_owner\000"
 3498      6E657200 
 3499              	.LASF101:
 3500 0a23 73655F77 		.ascii	"se_wtobjp\000"
 3500      746F626A 
 3500      7000
 3501              	.LASF37:
 3502 0a2d 705F6374 		.ascii	"p_ctx\000"
 3502      7800
 3503              	.LASF45:
 3504 0a33 705F7761 		.ascii	"p_waiting\000"
 3504      6974696E 
 3504      6700
 3505              	.LASF134:
 3506 0a3d 6576656E 		.ascii	"event_listener\000"
 3506      745F6C69 
 3506      7374656E 
 3506      657200
 3507              	.LASF217:
 3508 0a4c 63687072 		.ascii	"chprintf\000"
 3508      696E7466 
 3508      00
 3509              		.ident	"GCC: (GNU Tools for ARM Embedded Processors) 4.8.3 20131129 (release) [ARM/embedded-4_8-br
ARM GAS  C:\Users\Luis\AppData\Local\Temp\ccSqLEWf.s 			page 71


DEFINED SYMBOLS
                            *ABS*:00000000 IIR.cpp
C:\Users\Luis\AppData\Local\Temp\ccSqLEWf.s:19     .text._ZL8chprintfP20BaseSequentialStreamPKcz:00000000 $t
C:\Users\Luis\AppData\Local\Temp\ccSqLEWf.s:24     .text._ZL8chprintfP20BaseSequentialStreamPKcz:00000000 _ZL8chprintfP20BaseSequentialStreamPKcz
C:\Users\Luis\AppData\Local\Temp\ccSqLEWf.s:70     .text._ZN3IIRD2Ev:00000000 $t
C:\Users\Luis\AppData\Local\Temp\ccSqLEWf.s:76     .text._ZN3IIRD2Ev:00000000 _ZN3IIRD2Ev
C:\Users\Luis\AppData\Local\Temp\ccSqLEWf.s:116    .text._ZN3IIRD2Ev:00000024 $d
C:\Users\Luis\AppData\Local\Temp\ccSqLEWf.s:378    .rodata._ZTV3IIR:00000000 _ZTV3IIR
C:\Users\Luis\AppData\Local\Temp\ccSqLEWf.s:76     .text._ZN3IIRD2Ev:00000000 _ZN3IIRD1Ev
C:\Users\Luis\AppData\Local\Temp\ccSqLEWf.s:123    .text._ZN3IIRD0Ev:00000000 $t
C:\Users\Luis\AppData\Local\Temp\ccSqLEWf.s:129    .text._ZN3IIRD0Ev:00000000 _ZN3IIRD0Ev
C:\Users\Luis\AppData\Local\Temp\ccSqLEWf.s:159    .rodata:00000000 $d
C:\Users\Luis\AppData\Local\Temp\ccSqLEWf.s:164    .text._ZN3IIR11directFormIEf:00000000 $t
C:\Users\Luis\AppData\Local\Temp\ccSqLEWf.s:170    .text._ZN3IIR11directFormIEf:00000000 _ZN3IIR11directFormIEf
C:\Users\Luis\AppData\Local\Temp\ccSqLEWf.s:324    .text._ZN3IIR11directFormIEf:00000100 $d
C:\Users\Luis\AppData\Local\Temp\ccSqLEWf.s:330    .text._ZN3IIR20setInitialDataFilterEP10DataFilter:00000000 $t
C:\Users\Luis\AppData\Local\Temp\ccSqLEWf.s:336    .text._ZN3IIR20setInitialDataFilterEP10DataFilter:00000000 _ZN3IIR20setInitialDataFilterEP10DataFilter
C:\Users\Luis\AppData\Local\Temp\ccSqLEWf.s:375    .rodata._ZTV3IIR:00000000 $d
                     .debug_frame:00000010 $d
C:\Users\Luis\AppData\Local\Temp\ccSqLEWf.s:122    .text._ZN3IIRD2Ev:00000028 $t
C:\Users\Luis\AppData\Local\Temp\ccSqLEWf.s:329    .text._ZN3IIR11directFormIEf:00000108 $t

UNDEFINED SYMBOLS
chvprintf
_ZdlPv
__aeabi_fsub
chHeapAlloc
_ZNK10DataFilter15getArrayInputsXEv
_ZNK10DataFilter15getArrayInputsYEv
_ZNK10DataFilter14getFilterOrderEv
_ZNK10DataFilter21getArrayCoefficientsBEv
_ZNK10DataFilter21getArrayCoefficientsAEv
_ZN10DataFilter9moveArrayEPf
_ZN12FuntionsMath3sumEiiPfS0_i
SD1
_ZN10DataFilter19createArrayInputIIREv
