ARM GAS  C:\Users\Luis\AppData\Local\Temp\cctkBl80.s 			page 1


   1              		.syntax unified
   2              		.cpu cortex-m4
   3              		.fpu softvfp
   4              		.eabi_attribute 20, 1
   5              		.eabi_attribute 21, 1
   6              		.eabi_attribute 23, 3
   7              		.eabi_attribute 24, 1
   8              		.eabi_attribute 25, 1
   9              		.eabi_attribute 26, 1
  10              		.eabi_attribute 30, 6
  11              		.eabi_attribute 34, 1
  12              		.eabi_attribute 18, 4
  13              		.thumb
  14              		.file	"IIR.cpp"
  15              		.text
  16              	.Ltext0:
  17              		.cfi_sections	.debug_frame
  18              		.global	__aeabi_fsub
  19              		.section	.text._ZN3IIR11directFormIEf,"ax",%progbits
  20              		.align	2
  21              		.p2align 4,,15
  22              		.global	_ZN3IIR11directFormIEf
  23              		.thumb
  24              		.thumb_func
  25              		.type	_ZN3IIR11directFormIEf, %function
  26              	_ZN3IIR11directFormIEf:
  27              	.LFB260:
  28              		.file 1 "IIR.cpp"
  29              		.loc 1 11 0
  30              		.cfi_startproc
  31              		@ args = 0, pretend = 0, frame = 48
  32              		@ frame_needed = 1, uses_anonymous_args = 0
  33 0000 80B5     		push	{r7, lr}
  34              		.cfi_def_cfa_offset 8
  35              		.cfi_offset 7, -8
  36              		.cfi_offset 14, -4
  37 0002 8EB0     		sub	sp, sp, #56
  38              		.cfi_def_cfa_offset 64
  39 0004 02AF     		add	r7, sp, #8
  40              		.cfi_def_cfa 7, 56
  41 0006 7860     		str	r0, [r7, #4]
  42 0008 3960     		str	r1, [r7]	@ float
  43              	.LBB2:
  44              		.loc 1 14 0
  45 000a 7B68     		ldr	r3, [r7, #4]
  46 000c 9B68     		ldr	r3, [r3, #8]
  47 000e 1846     		mov	r0, r3
  48 0010 FFF7FEFF 		bl	_ZNK10DataFilter15getArrayInputsXEv
  49 0014 F862     		str	r0, [r7, #44]
  50              		.loc 1 15 0
  51 0016 7B68     		ldr	r3, [r7, #4]
  52 0018 9B68     		ldr	r3, [r3, #8]
  53 001a 1846     		mov	r0, r3
  54 001c FFF7FEFF 		bl	_ZNK10DataFilter15getArrayInputsYEv
  55 0020 B862     		str	r0, [r7, #40]
  56              		.loc 1 17 0
  57 0022 7B68     		ldr	r3, [r7, #4]
ARM GAS  C:\Users\Luis\AppData\Local\Temp\cctkBl80.s 			page 2


  58 0024 9B68     		ldr	r3, [r3, #8]
  59 0026 1846     		mov	r0, r3
  60 0028 FFF7FEFF 		bl	_ZNK10DataFilter14getFilterOrderEv
  61 002c 7862     		str	r0, [r7, #36]
  62              		.loc 1 20 0
  63 002e 4FF00003 		mov	r3, #0
  64 0032 3B62     		str	r3, [r7, #32]	@ float
  65              		.loc 1 21 0
  66 0034 7B68     		ldr	r3, [r7, #4]
  67 0036 9B68     		ldr	r3, [r3, #8]
  68 0038 1846     		mov	r0, r3
  69 003a FFF7FEFF 		bl	_ZNK10DataFilter21getArrayCoefficientsBEv
  70 003e F861     		str	r0, [r7, #28]
  71              		.loc 1 23 0
  72 0040 4FF00003 		mov	r3, #0
  73 0044 BB61     		str	r3, [r7, #24]	@ float
  74              		.loc 1 24 0
  75 0046 7B68     		ldr	r3, [r7, #4]
  76 0048 9B68     		ldr	r3, [r3, #8]
  77 004a 1846     		mov	r0, r3
  78 004c FFF7FEFF 		bl	_ZNK10DataFilter21getArrayCoefficientsAEv
  79 0050 7861     		str	r0, [r7, #20]
  80              		.loc 1 29 0
  81 0052 7B68     		ldr	r3, [r7, #4]
  82 0054 DB68     		ldr	r3, [r3, #12]
  83 0056 0A2B     		cmp	r3, #10
  84 0058 0ED1     		bne	.L2
  85              		.loc 1 30 0
  86 005a 7B68     		ldr	r3, [r7, #4]
  87 005c 9B68     		ldr	r3, [r3, #8]
  88 005e 1846     		mov	r0, r3
  89 0060 F96A     		ldr	r1, [r7, #44]
  90 0062 FFF7FEFF 		bl	_ZN10DataFilter9moveArrayEPf
  91              		.loc 1 31 0
  92 0066 7B68     		ldr	r3, [r7, #4]
  93 0068 9B68     		ldr	r3, [r3, #8]
  94 006a 1846     		mov	r0, r3
  95 006c B96A     		ldr	r1, [r7, #40]
  96 006e FFF7FEFF 		bl	_ZN10DataFilter9moveArrayEPf
  97              		.loc 1 32 0
  98 0072 7B68     		ldr	r3, [r7, #4]
  99 0074 0022     		movs	r2, #0
 100 0076 DA60     		str	r2, [r3, #12]
 101              	.L2:
 102              		.loc 1 35 0
 103 0078 7B68     		ldr	r3, [r7, #4]
 104 007a DA68     		ldr	r2, [r3, #12]
 105 007c 7B6A     		ldr	r3, [r7, #36]
 106 007e 1344     		add	r3, r3, r2
 107 0080 3B61     		str	r3, [r7, #16]
 108              		.loc 1 38 0
 109 0082 3B69     		ldr	r3, [r7, #16]
 110 0084 9B00     		lsls	r3, r3, #2
 111 0086 FA6A     		ldr	r2, [r7, #44]
 112 0088 1344     		add	r3, r3, r2
 113 008a 3A68     		ldr	r2, [r7]	@ float
 114 008c 1A60     		str	r2, [r3]	@ float
ARM GAS  C:\Users\Luis\AppData\Local\Temp\cctkBl80.s 			page 3


 115              		.loc 1 42 0
 116 008e 7B68     		ldr	r3, [r7, #4]
 117 0090 5B68     		ldr	r3, [r3, #4]
 118 0092 7A68     		ldr	r2, [r7, #4]
 119 0094 D268     		ldr	r2, [r2, #12]
 120 0096 F96A     		ldr	r1, [r7, #44]
 121 0098 0091     		str	r1, [sp]
 122 009a 0192     		str	r2, [sp, #4]
 123 009c 1846     		mov	r0, r3
 124 009e 796A     		ldr	r1, [r7, #36]
 125 00a0 0022     		movs	r2, #0
 126 00a2 FB69     		ldr	r3, [r7, #28]
 127 00a4 FFF7FEFF 		bl	_ZN12FuntionsMath3sumEiiPfS0_i
 128 00a8 3862     		str	r0, [r7, #32]	@ float
 129              		.loc 1 46 0
 130 00aa 7B68     		ldr	r3, [r7, #4]
 131 00ac 5A68     		ldr	r2, [r3, #4]
 132 00ae 7B6A     		ldr	r3, [r7, #36]
 133 00b0 013B     		subs	r3, r3, #1
 134 00b2 7968     		ldr	r1, [r7, #4]
 135 00b4 C968     		ldr	r1, [r1, #12]
 136 00b6 B86A     		ldr	r0, [r7, #40]
 137 00b8 0090     		str	r0, [sp]
 138 00ba 0191     		str	r1, [sp, #4]
 139 00bc 1046     		mov	r0, r2
 140 00be 1946     		mov	r1, r3
 141 00c0 0022     		movs	r2, #0
 142 00c2 7B69     		ldr	r3, [r7, #20]
 143 00c4 FFF7FEFF 		bl	_ZN12FuntionsMath3sumEiiPfS0_i
 144 00c8 B861     		str	r0, [r7, #24]	@ float
 145              		.loc 1 49 0
 146 00ca 386A     		ldr	r0, [r7, #32]	@ float
 147 00cc B969     		ldr	r1, [r7, #24]	@ float
 148 00ce FFF7FEFF 		bl	__aeabi_fsub
 149 00d2 0346     		mov	r3, r0
 150 00d4 FB60     		str	r3, [r7, #12]	@ float
 151              		.loc 1 52 0
 152 00d6 3B69     		ldr	r3, [r7, #16]
 153 00d8 9B00     		lsls	r3, r3, #2
 154 00da BA6A     		ldr	r2, [r7, #40]
 155 00dc 1344     		add	r3, r3, r2
 156 00de FA68     		ldr	r2, [r7, #12]	@ float
 157 00e0 1A60     		str	r2, [r3]	@ float
 158              		.loc 1 54 0
 159 00e2 7B68     		ldr	r3, [r7, #4]
 160 00e4 DB68     		ldr	r3, [r3, #12]
 161 00e6 5A1C     		adds	r2, r3, #1
 162 00e8 7B68     		ldr	r3, [r7, #4]
 163 00ea DA60     		str	r2, [r3, #12]
 164              		.loc 1 56 0
 165 00ec FB68     		ldr	r3, [r7, #12]	@ float
 166              	.LBE2:
 167              		.loc 1 58 0
 168 00ee 1846     		mov	r0, r3
 169 00f0 3037     		adds	r7, r7, #48
 170 00f2 BD46     		mov	sp, r7
 171              		@ sp needed
ARM GAS  C:\Users\Luis\AppData\Local\Temp\cctkBl80.s 			page 4


 172 00f4 80BD     		pop	{r7, pc}
 173              		.cfi_endproc
 174              	.LFE260:
 175              		.size	_ZN3IIR11directFormIEf, .-_ZN3IIR11directFormIEf
 176 00f6 00BFAFF3 		.text
 176      0080AFF3 
 176      0080
 177              	.Letext0:
 178              		.file 2 "c:\\emtechesdk\\gcc\\arm-none-eabi\\include\\stdint.h"
 179              		.file 3 "../../ChibiOS/os/rt/ports/ARMCMx/compilers/GCC/chtypes.h"
 180              		.file 4 "../../ChibiOS/os/rt/include/chsystypes.h"
 181              		.file 5 "../../ChibiOS/os/rt/include/chschd.h"
 182              		.file 6 "../../ChibiOS/os/rt/ports/ARMCMx/chcore.h"
 183              		.file 7 "../../ChibiOS/os/rt/ports/ARMCMx/chcore_v7m.h"
 184              		.file 8 "../../ChibiOS/os/rt/include/chdebug.h"
 185              		.file 9 "../../ChibiOS/os/rt/include/chtm.h"
 186              		.file 10 "../../ChibiOS/os/rt/include/chstats.h"
 187              		.file 11 "../../ChibiOS/os/rt/include/chsem.h"
 188              		.file 12 "../../ChibiOS/os/rt/include/chmtx.h"
 189              		.file 13 "../../ChibiOS/os/ext/CMSIS/include/core_cm4.h"