ARM GAS  C:\Users\Luis\AppData\Local\Temp\ccYfhpH6.s 			page 1


   1              		.syntax unified
   2              		.cpu cortex-m4
   3              		.fpu softvfp
   4              		.eabi_attribute 20, 1
   5              		.eabi_attribute 21, 1
   6              		.eabi_attribute 23, 3
   7              		.eabi_attribute 24, 1
   8              		.eabi_attribute 25, 1
   9              		.eabi_attribute 26, 1
  10              		.eabi_attribute 30, 6
  11              		.eabi_attribute 34, 1
  12              		.eabi_attribute 18, 4
  13              		.thumb
  14              		.file	"mac.c"
  15              		.text
  16              	.Ltext0:
  17              		.cfi_sections	.debug_frame
  18              		.section	.text.port_lock,"ax",%progbits
  19              		.align	2
  20              		.p2align 4,,15
  21              		.thumb
  22              		.thumb_func
  23              		.type	port_lock, %function
  24              	port_lock:
  25              	.LFB116:
  26              		.file 1 "../../ChibiOS/os/rt/ports/ARMCMx/chcore_v7m.h"
  27              		.loc 1 444 0
  28              		.cfi_startproc
  29              		@ args = 0, pretend = 0, frame = 8
  30              		@ frame_needed = 1, uses_anonymous_args = 0
  31              		@ link register save eliminated.
  32 0000 80B4     		push	{r7}
  33              		.cfi_def_cfa_offset 4
  34              		.cfi_offset 7, -4
  35 0002 83B0     		sub	sp, sp, #12
  36              		.cfi_def_cfa_offset 16
  37 0004 00AF     		add	r7, sp, #0
  38              		.cfi_def_cfa_register 7
  39 0006 2023     		movs	r3, #32
  40 0008 7B60     		str	r3, [r7, #4]
  41              	.LBB6:
  42              	.LBB7:
  43              		.file 2 "../../ChibiOS/os/ext/CMSIS/include/core_cmFunc.h"
  44              		.loc 2 546 0
  45 000a 7B68     		ldr	r3, [r7, #4]
  46              	@ 546 "../../ChibiOS/os/ext/CMSIS/include/core_cmFunc.h" 1
  47 000c 83F31188 		MSR basepri, r3
  48              	@ 0 "" 2
  49              		.thumb
  50              	.LBE7:
  51              	.LBE6:
  52              		.loc 1 451 0
  53 0010 0C37     		adds	r7, r7, #12
  54 0012 BD46     		mov	sp, r7
  55              		@ sp needed
  56 0014 5DF8047B 		ldr	r7, [sp], #4
  57 0018 7047     		bx	lr
ARM GAS  C:\Users\Luis\AppData\Local\Temp\ccYfhpH6.s 			page 2


  58              		.cfi_endproc
  59              	.LFE116:
  60              		.size	port_lock, .-port_lock
  61 001a 00BFAFF3 		.section	.text.port_unlock,"ax",%progbits
  61      0080
  62              		.align	2
  63              		.p2align 4,,15
  64              		.thumb
  65              		.thumb_func
  66              		.type	port_unlock, %function
  67              	port_unlock:
  68              	.LFB117:
  69              		.loc 1 458 0
  70              		.cfi_startproc
  71              		@ args = 0, pretend = 0, frame = 8
  72              		@ frame_needed = 1, uses_anonymous_args = 0
  73              		@ link register save eliminated.
  74 0000 80B4     		push	{r7}
  75              		.cfi_def_cfa_offset 4
  76              		.cfi_offset 7, -4
  77 0002 83B0     		sub	sp, sp, #12
  78              		.cfi_def_cfa_offset 16
  79 0004 00AF     		add	r7, sp, #0
  80              		.cfi_def_cfa_register 7
  81 0006 0023     		movs	r3, #0
  82 0008 7B60     		str	r3, [r7, #4]
  83              	.LBB8:
  84              	.LBB9:
  85              		.loc 2 546 0
  86 000a 7B68     		ldr	r3, [r7, #4]
  87              	@ 546 "../../ChibiOS/os/ext/CMSIS/include/core_cmFunc.h" 1
  88 000c 83F31188 		MSR basepri, r3
  89              	@ 0 "" 2
  90              		.thumb
  91              	.LBE9:
  92              	.LBE8:
  93              		.loc 1 465 0
  94 0010 0C37     		adds	r7, r7, #12
  95 0012 BD46     		mov	sp, r7
  96              		@ sp needed
  97 0014 5DF8047B 		ldr	r7, [sp], #4
  98 0018 7047     		bx	lr
  99              		.cfi_endproc
 100              	.LFE117:
 101              		.size	port_unlock, .-port_unlock
 102 001a 00BFAFF3 		.section	.text.st_lld_get_counter,"ax",%progbits
 102      0080
 103              		.align	2
 104              		.p2align 4,,15
 105              		.thumb
 106              		.thumb_func
 107              		.type	st_lld_get_counter, %function
 108              	st_lld_get_counter:
 109              	.LFB125:
 110              		.file 3 "../../ChibiOS/os/hal/ports/STM32/LLD/TIMv1/st_lld.h"
 111              		.loc 3 127 0
 112              		.cfi_startproc
ARM GAS  C:\Users\Luis\AppData\Local\Temp\ccYfhpH6.s 			page 3


 113              		@ args = 0, pretend = 0, frame = 0
 114              		@ frame_needed = 1, uses_anonymous_args = 0
 115              		@ link register save eliminated.
 116 0000 80B4     		push	{r7}
 117              		.cfi_def_cfa_offset 4
 118              		.cfi_offset 7, -4
 119 0002 00AF     		add	r7, sp, #0
 120              		.cfi_def_cfa_register 7
 121              		.loc 3 129 0
 122 0004 4FF08043 		mov	r3, #1073741824
 123 0008 5B6A     		ldr	r3, [r3, #36]
 124              		.loc 3 130 0
 125 000a 1846     		mov	r0, r3
 126 000c BD46     		mov	sp, r7
 127              		@ sp needed
 128 000e 5DF8047B 		ldr	r7, [sp], #4
 129 0012 7047     		bx	lr
 130              		.cfi_endproc
 131              	.LFE125:
 132              		.size	st_lld_get_counter, .-st_lld_get_counter
 133 0014 AFF30080 		.section	.text.port_timer_get_time,"ax",%progbits
 133      AFF30080 
 133      AFF30080 
 134              		.align	2
 135              		.p2align 4,,15
 136              		.thumb
 137              		.thumb_func
 138              		.type	port_timer_get_time, %function
 139              	port_timer_get_time:
 140              	.LFB134:
 141              		.file 4 "../../ChibiOS/os/rt/ports/ARMCMx/chcore_timer.h"
 142              		.loc 4 105 0
 143              		.cfi_startproc
 144              		@ args = 0, pretend = 0, frame = 0
 145              		@ frame_needed = 1, uses_anonymous_args = 0
 146 0000 80B5     		push	{r7, lr}
 147              		.cfi_def_cfa_offset 8
 148              		.cfi_offset 7, -8
 149              		.cfi_offset 14, -4
 150 0002 00AF     		add	r7, sp, #0
 151              		.cfi_def_cfa_register 7
 152              		.loc 4 107 0
 153 0004 FFF7FEFF 		bl	st_lld_get_counter
 154 0008 0346     		mov	r3, r0
 155              		.loc 4 108 0
 156 000a 1846     		mov	r0, r3
 157 000c 80BD     		pop	{r7, pc}
 158              		.cfi_endproc
 159              	.LFE134:
 160              		.size	port_timer_get_time, .-port_timer_get_time
 161 000e 00BF     		.section	.text.queue_init,"ax",%progbits
 162              		.align	2
 163              		.p2align 4,,15
 164              		.thumb
 165              		.thumb_func
 166              		.type	queue_init, %function
 167              	queue_init:
ARM GAS  C:\Users\Luis\AppData\Local\Temp\ccYfhpH6.s 			page 4


 168              	.LFB139:
 169              		.file 5 "../../ChibiOS/os/rt/include/chschd.h"
 170              		.loc 5 602 0
 171              		.cfi_startproc
 172              		@ args = 0, pretend = 0, frame = 8
 173              		@ frame_needed = 1, uses_anonymous_args = 0
 174              		@ link register save eliminated.
 175 0000 80B4     		push	{r7}
 176              		.cfi_def_cfa_offset 4
 177              		.cfi_offset 7, -4
 178 0002 83B0     		sub	sp, sp, #12
 179              		.cfi_def_cfa_offset 16
 180 0004 00AF     		add	r7, sp, #0
 181              		.cfi_def_cfa_register 7
 182 0006 7860     		str	r0, [r7, #4]
 183              		.loc 5 604 0
 184 0008 7B68     		ldr	r3, [r7, #4]
 185 000a 7A68     		ldr	r2, [r7, #4]
 186 000c 1A60     		str	r2, [r3]
 187              		.loc 5 605 0
 188 000e 7B68     		ldr	r3, [r7, #4]
 189 0010 7A68     		ldr	r2, [r7, #4]
 190 0012 5A60     		str	r2, [r3, #4]
 191              		.loc 5 606 0
 192 0014 0C37     		adds	r7, r7, #12
 193 0016 BD46     		mov	sp, r7
 194              		@ sp needed
 195 0018 5DF8047B 		ldr	r7, [sp], #4
 196 001c 7047     		bx	lr
 197              		.cfi_endproc
 198              	.LFE139:
 199              		.size	queue_init, .-queue_init
 200 001e 00BF     		.section	.text.chSysLock,"ax",%progbits
 201              		.align	2
 202              		.p2align 4,,15
 203              		.thumb
 204              		.thumb_func
 205              		.type	chSysLock, %function
 206              	chSysLock:
 207              	.LFB156:
 208              		.file 6 "../../ChibiOS/os/rt/include/chsys.h"
 209              		.loc 6 346 0
 210              		.cfi_startproc
 211              		@ args = 0, pretend = 0, frame = 0
 212              		@ frame_needed = 1, uses_anonymous_args = 0
 213 0000 80B5     		push	{r7, lr}
 214              		.cfi_def_cfa_offset 8
 215              		.cfi_offset 7, -8
 216              		.cfi_offset 14, -4
 217 0002 00AF     		add	r7, sp, #0
 218              		.cfi_def_cfa_register 7
 219              		.loc 6 348 0
 220 0004 FFF7FEFF 		bl	port_lock
 221              		.loc 6 349 0
 222 0008 FFF7FEFF 		bl	_stats_start_measure_crit_thd
 223              		.loc 6 350 0
 224 000c FFF7FEFF 		bl	_dbg_check_lock
ARM GAS  C:\Users\Luis\AppData\Local\Temp\ccYfhpH6.s 			page 5


 225              		.loc 6 351 0
 226 0010 80BD     		pop	{r7, pc}
 227              		.cfi_endproc
 228              	.LFE156:
 229              		.size	chSysLock, .-chSysLock
 230 0012 00BFAFF3 		.section	.text.chSysUnlock,"ax",%progbits
 230      0080AFF3 
 230      0080AFF3 
 230      0080
 231              		.align	2
 232              		.p2align 4,,15
 233              		.thumb
 234              		.thumb_func
 235              		.type	chSysUnlock, %function
 236              	chSysUnlock:
 237              	.LFB157:
 238              		.loc 6 358 0
 239              		.cfi_startproc
 240              		@ args = 0, pretend = 0, frame = 0
 241              		@ frame_needed = 1, uses_anonymous_args = 0
 242 0000 80B5     		push	{r7, lr}
 243              		.cfi_def_cfa_offset 8
 244              		.cfi_offset 7, -8
 245              		.cfi_offset 14, -4
 246 0002 00AF     		add	r7, sp, #0
 247              		.cfi_def_cfa_register 7
 248              		.loc 6 360 0
 249 0004 FFF7FEFF 		bl	_dbg_check_unlock
 250              		.loc 6 361 0
 251 0008 FFF7FEFF 		bl	_stats_stop_measure_crit_thd
 252              		.loc 6 367 0
 253 000c 094B     		ldr	r3, .L11
 254 000e 1A68     		ldr	r2, [r3]
 255 0010 084B     		ldr	r3, .L11
 256 0012 9A42     		cmp	r2, r3
 257 0014 0AD0     		beq	.L10
 258              		.loc 6 367 0 is_stmt 0 discriminator 1
 259 0016 074B     		ldr	r3, .L11
 260 0018 9B69     		ldr	r3, [r3, #24]
 261 001a 9A68     		ldr	r2, [r3, #8]
 262 001c 054B     		ldr	r3, .L11
 263 001e 1B68     		ldr	r3, [r3]
 264 0020 9B68     		ldr	r3, [r3, #8]
 265 0022 9A42     		cmp	r2, r3
 266 0024 02D2     		bcs	.L10
 267 0026 0448     		ldr	r0, .L11+4
 268 0028 FFF7FEFF 		bl	chSysHalt
 269              	.L10:
 270              		.loc 6 371 0 is_stmt 1
 271 002c FFF7FEFF 		bl	port_unlock
 272              		.loc 6 372 0
 273 0030 80BD     		pop	{r7, pc}
 274              	.L12:
 275 0032 00BF     		.align	2
 276              	.L11:
 277 0034 00000000 		.word	ch
 278 0038 00000000 		.word	__func__.5842
ARM GAS  C:\Users\Luis\AppData\Local\Temp\ccYfhpH6.s 			page 6


 279              		.cfi_endproc
 280              	.LFE157:
 281              		.size	chSysUnlock, .-chSysUnlock
 282 003c AFF30080 		.section	.text.chVTGetSystemTimeX,"ax",%progbits
 283              		.align	2
 284              		.p2align 4,,15
 285              		.thumb
 286              		.thumb_func
 287              		.type	chVTGetSystemTimeX, %function
 288              	chVTGetSystemTimeX:
 289              	.LFB164:
 290              		.file 7 "../../ChibiOS/os/rt/include/chvt.h"
 291              		.loc 7 228 0
 292              		.cfi_startproc
 293              		@ args = 0, pretend = 0, frame = 0
 294              		@ frame_needed = 1, uses_anonymous_args = 0
 295 0000 80B5     		push	{r7, lr}
 296              		.cfi_def_cfa_offset 8
 297              		.cfi_offset 7, -8
 298              		.cfi_offset 14, -4
 299 0002 00AF     		add	r7, sp, #0
 300              		.cfi_def_cfa_register 7
 301              		.loc 7 233 0
 302 0004 FFF7FEFF 		bl	port_timer_get_time
 303 0008 0346     		mov	r3, r0
 304              		.loc 7 235 0
 305 000a 1846     		mov	r0, r3
 306 000c 80BD     		pop	{r7, pc}
 307              		.cfi_endproc
 308              	.LFE164:
 309              		.size	chVTGetSystemTimeX, .-chVTGetSystemTimeX
 310 000e 00BF     		.section	.text.chThdQueueObjectInit,"ax",%progbits
 311              		.align	2
 312              		.p2align 4,,15
 313              		.thumb
 314              		.thumb_func
 315              		.type	chThdQueueObjectInit, %function
 316              	chThdQueueObjectInit:
 317              	.LFB183:
 318              		.file 8 "../../ChibiOS/os/rt/include/chthreads.h"
 319              		.loc 8 278 0
 320              		.cfi_startproc
 321              		@ args = 0, pretend = 0, frame = 8
 322              		@ frame_needed = 1, uses_anonymous_args = 0
 323 0000 80B5     		push	{r7, lr}
 324              		.cfi_def_cfa_offset 8
 325              		.cfi_offset 7, -8
 326              		.cfi_offset 14, -4
 327 0002 82B0     		sub	sp, sp, #8
 328              		.cfi_def_cfa_offset 16
 329 0004 00AF     		add	r7, sp, #0
 330              		.cfi_def_cfa_register 7
 331 0006 7860     		str	r0, [r7, #4]
 332              		.loc 8 280 0
 333 0008 7868     		ldr	r0, [r7, #4]
 334 000a FFF7FEFF 		bl	queue_init
 335              		.loc 8 281 0
ARM GAS  C:\Users\Luis\AppData\Local\Temp\ccYfhpH6.s 			page 7


 336 000e 0837     		adds	r7, r7, #8
 337 0010 BD46     		mov	sp, r7
 338              		@ sp needed
 339 0012 80BD     		pop	{r7, pc}
 340              		.cfi_endproc
 341              	.LFE183:
 342              		.size	chThdQueueObjectInit, .-chThdQueueObjectInit
 343 0014 AFF30080 		.section	.text.chEvtObjectInit,"ax",%progbits
 343      AFF30080 
 343      AFF30080 
 344              		.align	2
 345              		.p2align 4,,15
 346              		.thumb
 347              		.thumb_func
 348              		.type	chEvtObjectInit, %function
 349              	chEvtObjectInit:
 350              	.LFB204:
 351              		.file 9 "../../ChibiOS/os/rt/include/chevents.h"
 352              		.loc 9 170 0
 353              		.cfi_startproc
 354              		@ args = 0, pretend = 0, frame = 8
 355              		@ frame_needed = 1, uses_anonymous_args = 0
 356              		@ link register save eliminated.
 357 0000 80B4     		push	{r7}
 358              		.cfi_def_cfa_offset 4
 359              		.cfi_offset 7, -4
 360 0002 83B0     		sub	sp, sp, #12
 361              		.cfi_def_cfa_offset 16
 362 0004 00AF     		add	r7, sp, #0
 363              		.cfi_def_cfa_register 7
 364 0006 7860     		str	r0, [r7, #4]
 365              		.loc 9 172 0
 366 0008 7B68     		ldr	r3, [r7, #4]
 367 000a 7A68     		ldr	r2, [r7, #4]
 368 000c 1A60     		str	r2, [r3]
 369              		.loc 9 173 0
 370 000e 0C37     		adds	r7, r7, #12
 371 0010 BD46     		mov	sp, r7
 372              		@ sp needed
 373 0012 5DF8047B 		ldr	r7, [sp], #4
 374 0016 7047     		bx	lr
 375              		.cfi_endproc
 376              	.LFE204:
 377              		.size	chEvtObjectInit, .-chEvtObjectInit
 378 0018 AFF30080 		.section	.text.osalSysLock,"ax",%progbits
 378      AFF30080 
 379              		.align	2
 380              		.p2align 4,,15
 381              		.thumb
 382              		.thumb_func
 383              		.type	osalSysLock, %function
 384              	osalSysLock:
 385              	.LFB233:
 386              		.file 10 "../../ChibiOS/os/hal/osal/rt/osal.h"
 387              		.loc 10 491 0
 388              		.cfi_startproc
 389              		@ args = 0, pretend = 0, frame = 0
ARM GAS  C:\Users\Luis\AppData\Local\Temp\ccYfhpH6.s 			page 8


 390              		@ frame_needed = 1, uses_anonymous_args = 0
 391 0000 80B5     		push	{r7, lr}
 392              		.cfi_def_cfa_offset 8
 393              		.cfi_offset 7, -8
 394              		.cfi_offset 14, -4
 395 0002 00AF     		add	r7, sp, #0
 396              		.cfi_def_cfa_register 7
 397              		.loc 10 493 0
 398 0004 FFF7FEFF 		bl	chSysLock
 399              		.loc 10 494 0
 400 0008 80BD     		pop	{r7, pc}
 401              		.cfi_endproc
 402              	.LFE233:
 403              		.size	osalSysLock, .-osalSysLock
 404 000a 00BFAFF3 		.section	.text.osalSysUnlock,"ax",%progbits
 404      0080
 405              		.align	2
 406              		.p2align 4,,15
 407              		.thumb
 408              		.thumb_func
 409              		.type	osalSysUnlock, %function
 410              	osalSysUnlock:
 411              	.LFB234:
 412              		.loc 10 502 0
 413              		.cfi_startproc
 414              		@ args = 0, pretend = 0, frame = 0
 415              		@ frame_needed = 1, uses_anonymous_args = 0
 416 0000 80B5     		push	{r7, lr}
 417              		.cfi_def_cfa_offset 8
 418              		.cfi_offset 7, -8
 419              		.cfi_offset 14, -4
 420 0002 00AF     		add	r7, sp, #0
 421              		.cfi_def_cfa_register 7
 422              		.loc 10 504 0
 423 0004 FFF7FEFF 		bl	chSysUnlock
 424              		.loc 10 505 0
 425 0008 80BD     		pop	{r7, pc}
 426              		.cfi_endproc
 427              	.LFE234:
 428              		.size	osalSysUnlock, .-osalSysUnlock
 429 000a 00BFAFF3 		.section	.text.osalOsGetSystemTimeX,"ax",%progbits
 429      0080
 430              		.align	2
 431              		.p2align 4,,15
 432              		.thumb
 433              		.thumb_func
 434              		.type	osalOsGetSystemTimeX, %function
 435              	osalOsGetSystemTimeX:
 436              	.LFB242:
 437              		.loc 10 616 0
 438              		.cfi_startproc
 439              		@ args = 0, pretend = 0, frame = 0
 440              		@ frame_needed = 1, uses_anonymous_args = 0
 441 0000 80B5     		push	{r7, lr}
 442              		.cfi_def_cfa_offset 8
 443              		.cfi_offset 7, -8
 444              		.cfi_offset 14, -4
ARM GAS  C:\Users\Luis\AppData\Local\Temp\ccYfhpH6.s 			page 9


 445 0002 00AF     		add	r7, sp, #0
 446              		.cfi_def_cfa_register 7
 447              		.loc 10 618 0
 448 0004 FFF7FEFF 		bl	chVTGetSystemTimeX
 449 0008 0346     		mov	r3, r0
 450              		.loc 10 619 0
 451 000a 1846     		mov	r0, r3
 452 000c 80BD     		pop	{r7, pc}
 453              		.cfi_endproc
 454              	.LFE242:
 455              		.size	osalOsGetSystemTimeX, .-osalOsGetSystemTimeX
 456 000e 00BF     		.section	.text.osalThreadQueueObjectInit,"ax",%progbits
 457              		.align	2
 458              		.p2align 4,,15
 459              		.thumb
 460              		.thumb_func
 461              		.type	osalThreadQueueObjectInit, %function
 462              	osalThreadQueueObjectInit:
 463              	.LFB250:
 464              		.loc 10 753 0
 465              		.cfi_startproc
 466              		@ args = 0, pretend = 0, frame = 8
 467              		@ frame_needed = 1, uses_anonymous_args = 0
 468 0000 80B5     		push	{r7, lr}
 469              		.cfi_def_cfa_offset 8
 470              		.cfi_offset 7, -8
 471              		.cfi_offset 14, -4
 472 0002 82B0     		sub	sp, sp, #8
 473              		.cfi_def_cfa_offset 16
 474 0004 00AF     		add	r7, sp, #0
 475              		.cfi_def_cfa_register 7
 476 0006 7860     		str	r0, [r7, #4]
 477              		.loc 10 755 0
 478 0008 7868     		ldr	r0, [r7, #4]
 479 000a FFF7FEFF 		bl	chThdQueueObjectInit
 480              		.loc 10 756 0
 481 000e 0837     		adds	r7, r7, #8
 482 0010 BD46     		mov	sp, r7
 483              		@ sp needed
 484 0012 80BD     		pop	{r7, pc}
 485              		.cfi_endproc
 486              	.LFE250:
 487              		.size	osalThreadQueueObjectInit, .-osalThreadQueueObjectInit
 488 0014 AFF30080 		.section	.text.osalThreadEnqueueTimeoutS,"ax",%progbits
 488      AFF30080 
 488      AFF30080 
 489              		.align	2
 490              		.p2align 4,,15
 491              		.thumb
 492              		.thumb_func
 493              		.type	osalThreadEnqueueTimeoutS, %function
 494              	osalThreadEnqueueTimeoutS:
 495              	.LFB251:
 496              		.loc 10 782 0
 497              		.cfi_startproc
 498              		@ args = 0, pretend = 0, frame = 8
 499              		@ frame_needed = 1, uses_anonymous_args = 0
ARM GAS  C:\Users\Luis\AppData\Local\Temp\ccYfhpH6.s 			page 10


 500 0000 80B5     		push	{r7, lr}
 501              		.cfi_def_cfa_offset 8
 502              		.cfi_offset 7, -8
 503              		.cfi_offset 14, -4
 504 0002 82B0     		sub	sp, sp, #8
 505              		.cfi_def_cfa_offset 16
 506 0004 00AF     		add	r7, sp, #0
 507              		.cfi_def_cfa_register 7
 508 0006 7860     		str	r0, [r7, #4]
 509 0008 3960     		str	r1, [r7]
 510              		.loc 10 784 0
 511 000a 7868     		ldr	r0, [r7, #4]
 512 000c 3968     		ldr	r1, [r7]
 513 000e FFF7FEFF 		bl	chThdEnqueueTimeoutS
 514 0012 0346     		mov	r3, r0
 515              		.loc 10 785 0
 516 0014 1846     		mov	r0, r3
 517 0016 0837     		adds	r7, r7, #8
 518 0018 BD46     		mov	sp, r7
 519              		@ sp needed
 520 001a 80BD     		pop	{r7, pc}
 521              		.cfi_endproc
 522              	.LFE251:
 523              		.size	osalThreadEnqueueTimeoutS, .-osalThreadEnqueueTimeoutS
 524 001c AFF30080 		.section	.text.osalEventObjectInit,"ax",%progbits
 525              		.align	2
 526              		.p2align 4,,15
 527              		.thumb
 528              		.thumb_func
 529              		.type	osalEventObjectInit, %function
 530              	osalEventObjectInit:
 531              	.LFB254:
 532              		.loc 10 821 0
 533              		.cfi_startproc
 534              		@ args = 0, pretend = 0, frame = 8
 535              		@ frame_needed = 1, uses_anonymous_args = 0
 536 0000 80B5     		push	{r7, lr}
 537              		.cfi_def_cfa_offset 8
 538              		.cfi_offset 7, -8
 539              		.cfi_offset 14, -4
 540 0002 82B0     		sub	sp, sp, #8
 541              		.cfi_def_cfa_offset 16
 542 0004 00AF     		add	r7, sp, #0
 543              		.cfi_def_cfa_register 7
 544 0006 7860     		str	r0, [r7, #4]
 545              		.loc 10 823 0
 546 0008 7868     		ldr	r0, [r7, #4]
 547 000a FFF7FEFF 		bl	chEvtObjectInit
 548              		.loc 10 824 0
 549 000e 0837     		adds	r7, r7, #8
 550 0010 BD46     		mov	sp, r7
 551              		@ sp needed
 552 0012 80BD     		pop	{r7, pc}
 553              		.cfi_endproc
 554              	.LFE254:
 555              		.size	osalEventObjectInit, .-osalEventObjectInit
 556 0014 AFF30080 		.section	.text.macInit,"ax",%progbits
ARM GAS  C:\Users\Luis\AppData\Local\Temp\ccYfhpH6.s 			page 11


 556      AFF30080 
 556      AFF30080 
 557              		.align	2
 558              		.p2align 4,,15
 559              		.global	macInit
 560              		.thumb
 561              		.thumb_func
 562              		.type	macInit, %function
 563              	macInit:
 564              	.LFB260:
 565              		.file 11 "../../ChibiOS/os/hal/src/mac.c"
 566              		.loc 11 64 0
 567              		.cfi_startproc
 568              		@ args = 0, pretend = 0, frame = 0
 569              		@ frame_needed = 1, uses_anonymous_args = 0
 570 0000 80B5     		push	{r7, lr}
 571              		.cfi_def_cfa_offset 8
 572              		.cfi_offset 7, -8
 573              		.cfi_offset 14, -4
 574 0002 00AF     		add	r7, sp, #0
 575              		.cfi_def_cfa_register 7
 576              		.loc 11 66 0
 577 0004 FFF7FEFF 		bl	mac_lld_init
 578              		.loc 11 67 0
 579 0008 80BD     		pop	{r7, pc}
 580              		.cfi_endproc
 581              	.LFE260:
 582              		.size	macInit, .-macInit
 583 000a 00BFAFF3 		.section	.text.macObjectInit,"ax",%progbits
 583      0080
 584              		.align	2
 585              		.p2align 4,,15
 586              		.global	macObjectInit
 587              		.thumb
 588              		.thumb_func
 589              		.type	macObjectInit, %function
 590              	macObjectInit:
 591              	.LFB261:
 592              		.loc 11 76 0
 593              		.cfi_startproc
 594              		@ args = 0, pretend = 0, frame = 8
 595              		@ frame_needed = 1, uses_anonymous_args = 0
 596 0000 80B5     		push	{r7, lr}
 597              		.cfi_def_cfa_offset 8
 598              		.cfi_offset 7, -8
 599              		.cfi_offset 14, -4
 600 0002 82B0     		sub	sp, sp, #8
 601              		.cfi_def_cfa_offset 16
 602 0004 00AF     		add	r7, sp, #0
 603              		.cfi_def_cfa_register 7
 604 0006 7860     		str	r0, [r7, #4]
 605              		.loc 11 78 0
 606 0008 7B68     		ldr	r3, [r7, #4]
 607 000a 0122     		movs	r2, #1
 608 000c 1A70     		strb	r2, [r3]
 609              		.loc 11 79 0
 610 000e 7B68     		ldr	r3, [r7, #4]
ARM GAS  C:\Users\Luis\AppData\Local\Temp\ccYfhpH6.s 			page 12


 611 0010 0022     		movs	r2, #0
 612 0012 5A60     		str	r2, [r3, #4]
 613              		.loc 11 80 0
 614 0014 7B68     		ldr	r3, [r7, #4]
 615 0016 0833     		adds	r3, r3, #8
 616 0018 1846     		mov	r0, r3
 617 001a FFF7FEFF 		bl	osalThreadQueueObjectInit
 618              		.loc 11 81 0
 619 001e 7B68     		ldr	r3, [r7, #4]
 620 0020 1033     		adds	r3, r3, #16
 621 0022 1846     		mov	r0, r3
 622 0024 FFF7FEFF 		bl	osalThreadQueueObjectInit
 623              		.loc 11 83 0
 624 0028 7B68     		ldr	r3, [r7, #4]
 625 002a 1833     		adds	r3, r3, #24
 626 002c 1846     		mov	r0, r3
 627 002e FFF7FEFF 		bl	osalEventObjectInit
 628              		.loc 11 85 0
 629 0032 0837     		adds	r7, r7, #8
 630 0034 BD46     		mov	sp, r7
 631              		@ sp needed
 632 0036 80BD     		pop	{r7, pc}
 633              		.cfi_endproc
 634              	.LFE261:
 635              		.size	macObjectInit, .-macObjectInit
 636 0038 AFF30080 		.section	.text.macStart,"ax",%progbits
 636      AFF30080 
 637              		.align	2
 638              		.p2align 4,,15
 639              		.global	macStart
 640              		.thumb
 641              		.thumb_func
 642              		.type	macStart, %function
 643              	macStart:
 644              	.LFB262:
 645              		.loc 11 95 0
 646              		.cfi_startproc
 647              		@ args = 0, pretend = 0, frame = 8
 648              		@ frame_needed = 1, uses_anonymous_args = 0
 649 0000 80B5     		push	{r7, lr}
 650              		.cfi_def_cfa_offset 8
 651              		.cfi_offset 7, -8
 652              		.cfi_offset 14, -4
 653 0002 82B0     		sub	sp, sp, #8
 654              		.cfi_def_cfa_offset 16
 655 0004 00AF     		add	r7, sp, #0
 656              		.cfi_def_cfa_register 7
 657 0006 7860     		str	r0, [r7, #4]
 658 0008 3960     		str	r1, [r7]
 659              		.loc 11 97 0
 660 000a 7B68     		ldr	r3, [r7, #4]
 661 000c 002B     		cmp	r3, #0
 662 000e 02D0     		beq	.L28
 663              		.loc 11 97 0 is_stmt 0 discriminator 2
 664 0010 3B68     		ldr	r3, [r7]
 665 0012 002B     		cmp	r3, #0
 666 0014 02D1     		bne	.L29
ARM GAS  C:\Users\Luis\AppData\Local\Temp\ccYfhpH6.s 			page 13


 667              	.L28:
 668              		.loc 11 97 0 discriminator 1
 669 0016 0D48     		ldr	r0, .L31
 670 0018 FFF7FEFF 		bl	chSysHalt
 671              	.L29:
 672              		.loc 11 99 0 is_stmt 1
 673 001c FFF7FEFF 		bl	osalSysLock
 674              		.loc 11 100 0
 675 0020 7B68     		ldr	r3, [r7, #4]
 676 0022 1B78     		ldrb	r3, [r3]	@ zero_extendqisi2
 677 0024 012B     		cmp	r3, #1
 678 0026 02D0     		beq	.L30
 679              		.loc 11 100 0 is_stmt 0 discriminator 1
 680 0028 0848     		ldr	r0, .L31
 681 002a FFF7FEFF 		bl	chSysHalt
 682              	.L30:
 683              		.loc 11 102 0 is_stmt 1
 684 002e 7B68     		ldr	r3, [r7, #4]
 685 0030 3A68     		ldr	r2, [r7]
 686 0032 5A60     		str	r2, [r3, #4]
 687              		.loc 11 103 0
 688 0034 7868     		ldr	r0, [r7, #4]
 689 0036 FFF7FEFF 		bl	mac_lld_start
 690              		.loc 11 104 0
 691 003a 7B68     		ldr	r3, [r7, #4]
 692 003c 0222     		movs	r2, #2
 693 003e 1A70     		strb	r2, [r3]
 694              		.loc 11 105 0
 695 0040 FFF7FEFF 		bl	osalSysUnlock
 696              		.loc 11 106 0
 697 0044 0837     		adds	r7, r7, #8
 698 0046 BD46     		mov	sp, r7
 699              		@ sp needed
 700 0048 80BD     		pop	{r7, pc}
 701              	.L32:
 702 004a 00BF     		.align	2
 703              	.L31:
 704 004c 00000000 		.word	__func__.7913
 705              		.cfi_endproc
 706              	.LFE262:
 707              		.size	macStart, .-macStart
 708              		.section	.text.macStop,"ax",%progbits
 709              		.align	2
 710              		.p2align 4,,15
 711              		.global	macStop
 712              		.thumb
 713              		.thumb_func
 714              		.type	macStop, %function
 715              	macStop:
 716              	.LFB263:
 717              		.loc 11 115 0
 718              		.cfi_startproc
 719              		@ args = 0, pretend = 0, frame = 8
 720              		@ frame_needed = 1, uses_anonymous_args = 0
 721 0000 80B5     		push	{r7, lr}
 722              		.cfi_def_cfa_offset 8
 723              		.cfi_offset 7, -8
ARM GAS  C:\Users\Luis\AppData\Local\Temp\ccYfhpH6.s 			page 14


 724              		.cfi_offset 14, -4
 725 0002 82B0     		sub	sp, sp, #8
 726              		.cfi_def_cfa_offset 16
 727 0004 00AF     		add	r7, sp, #0
 728              		.cfi_def_cfa_register 7
 729 0006 7860     		str	r0, [r7, #4]
 730              		.loc 11 117 0
 731 0008 7B68     		ldr	r3, [r7, #4]
 732 000a 002B     		cmp	r3, #0
 733 000c 02D1     		bne	.L34
 734              		.loc 11 117 0 is_stmt 0 discriminator 1
 735 000e 0D48     		ldr	r0, .L36
 736 0010 FFF7FEFF 		bl	chSysHalt
 737              	.L34:
 738              		.loc 11 119 0 is_stmt 1
 739 0014 FFF7FEFF 		bl	osalSysLock
 740              		.loc 11 120 0
 741 0018 7B68     		ldr	r3, [r7, #4]
 742 001a 1B78     		ldrb	r3, [r3]	@ zero_extendqisi2
 743 001c 012B     		cmp	r3, #1
 744 001e 06D0     		beq	.L35
 745              		.loc 11 120 0 is_stmt 0 discriminator 1
 746 0020 7B68     		ldr	r3, [r7, #4]
 747 0022 1B78     		ldrb	r3, [r3]	@ zero_extendqisi2
 748 0024 022B     		cmp	r3, #2
 749 0026 02D0     		beq	.L35
 750 0028 0648     		ldr	r0, .L36
 751 002a FFF7FEFF 		bl	chSysHalt
 752              	.L35:
 753              		.loc 11 122 0 is_stmt 1
 754 002e 7868     		ldr	r0, [r7, #4]
 755 0030 FFF7FEFF 		bl	mac_lld_stop
 756              		.loc 11 123 0
 757 0034 7B68     		ldr	r3, [r7, #4]
 758 0036 0122     		movs	r2, #1
 759 0038 1A70     		strb	r2, [r3]
 760              		.loc 11 124 0
 761 003a FFF7FEFF 		bl	osalSysUnlock
 762              		.loc 11 125 0
 763 003e 0837     		adds	r7, r7, #8
 764 0040 BD46     		mov	sp, r7
 765              		@ sp needed
 766 0042 80BD     		pop	{r7, pc}
 767              	.L37:
 768              		.align	2
 769              	.L36:
 770 0044 00000000 		.word	__func__.7917
 771              		.cfi_endproc
 772              	.LFE263:
 773              		.size	macStop, .-macStop
 774 0048 AFF30080 		.section	.text.macWaitTransmitDescriptor,"ax",%progbits
 774      AFF30080 
 775              		.align	2
 776              		.p2align 4,,15
 777              		.global	macWaitTransmitDescriptor
 778              		.thumb
 779              		.thumb_func
ARM GAS  C:\Users\Luis\AppData\Local\Temp\ccYfhpH6.s 			page 15


 780              		.type	macWaitTransmitDescriptor, %function
 781              	macWaitTransmitDescriptor:
 782              	.LFB264:
 783              		.loc 11 148 0
 784              		.cfi_startproc
 785              		@ args = 0, pretend = 0, frame = 24
 786              		@ frame_needed = 1, uses_anonymous_args = 0
 787 0000 80B5     		push	{r7, lr}
 788              		.cfi_def_cfa_offset 8
 789              		.cfi_offset 7, -8
 790              		.cfi_offset 14, -4
 791 0002 86B0     		sub	sp, sp, #24
 792              		.cfi_def_cfa_offset 32
 793 0004 00AF     		add	r7, sp, #0
 794              		.cfi_def_cfa_register 7
 795 0006 F860     		str	r0, [r7, #12]
 796 0008 B960     		str	r1, [r7, #8]
 797 000a 7A60     		str	r2, [r7, #4]
 798              		.loc 11 152 0
 799 000c FB68     		ldr	r3, [r7, #12]
 800 000e 002B     		cmp	r3, #0
 801 0010 02D0     		beq	.L39
 802              		.loc 11 152 0 is_stmt 0 discriminator 2
 803 0012 BB68     		ldr	r3, [r7, #8]
 804 0014 002B     		cmp	r3, #0
 805 0016 02D1     		bne	.L48
 806              	.L39:
 807              		.loc 11 152 0 discriminator 1
 808 0018 1E48     		ldr	r0, .L49
 809 001a FFF7FEFF 		bl	chSysHalt
 810              	.L48:
 811              		.loc 11 153 0 is_stmt 1 discriminator 1
 812 001e FB68     		ldr	r3, [r7, #12]
 813 0020 1B78     		ldrb	r3, [r3]	@ zero_extendqisi2
 814 0022 022B     		cmp	r3, #2
 815 0024 03D0     		beq	.L41
 816 0026 1B48     		ldr	r0, .L49
 817 0028 FFF7FEFF 		bl	chSysHalt
 818              		.loc 11 155 0 discriminator 1
 819 002c 21E0     		b	.L42
 820              	.L41:
 821              		.loc 11 155 0 is_stmt 0
 822 002e 20E0     		b	.L42
 823              	.L46:
 824              		.loc 11 157 0 is_stmt 1
 825 0030 FFF7FEFF 		bl	osalSysLock
 826              		.loc 11 158 0
 827 0034 FFF7FEFF 		bl	osalOsGetSystemTimeX
 828 0038 3861     		str	r0, [r7, #16]
 829              		.loc 11 159 0
 830 003a FB68     		ldr	r3, [r7, #12]
 831 003c 0833     		adds	r3, r3, #8
 832 003e 1846     		mov	r0, r3
 833 0040 7968     		ldr	r1, [r7, #4]
 834 0042 FFF7FEFF 		bl	osalThreadEnqueueTimeoutS
 835 0046 7861     		str	r0, [r7, #20]
 836              		.loc 11 160 0
ARM GAS  C:\Users\Luis\AppData\Local\Temp\ccYfhpH6.s 			page 16


 837 0048 7B69     		ldr	r3, [r7, #20]
 838 004a B3F1FF3F 		cmp	r3, #-1
 839 004e 02D1     		bne	.L43
 840              		.loc 11 161 0
 841 0050 FFF7FEFF 		bl	osalSysUnlock
 842              		.loc 11 162 0
 843 0054 18E0     		b	.L44
 844              	.L43:
 845              		.loc 11 164 0
 846 0056 7B68     		ldr	r3, [r7, #4]
 847 0058 B3F1FF3F 		cmp	r3, #-1
 848 005c 07D0     		beq	.L45
 849              		.loc 11 165 0
 850 005e FFF7FEFF 		bl	osalOsGetSystemTimeX
 851 0062 0346     		mov	r3, r0
 852 0064 3A69     		ldr	r2, [r7, #16]
 853 0066 D31A     		subs	r3, r2, r3
 854 0068 7A68     		ldr	r2, [r7, #4]
 855 006a 1344     		add	r3, r3, r2
 856 006c 7B60     		str	r3, [r7, #4]
 857              	.L45:
 858              		.loc 11 167 0
 859 006e FFF7FEFF 		bl	osalSysUnlock
 860              	.L42:
 861              		.loc 11 155 0 discriminator 1
 862 0072 F868     		ldr	r0, [r7, #12]
 863 0074 B968     		ldr	r1, [r7, #8]
 864 0076 FFF7FEFF 		bl	mac_lld_get_transmit_descriptor
 865 007a 7861     		str	r0, [r7, #20]
 866 007c 7B69     		ldr	r3, [r7, #20]
 867 007e 002B     		cmp	r3, #0
 868 0080 02D0     		beq	.L44
 869              		.loc 11 155 0 is_stmt 0 discriminator 2
 870 0082 7B68     		ldr	r3, [r7, #4]
 871 0084 002B     		cmp	r3, #0
 872 0086 D3D1     		bne	.L46
 873              	.L44:
 874              		.loc 11 169 0 is_stmt 1
 875 0088 7B69     		ldr	r3, [r7, #20]
 876              		.loc 11 170 0
 877 008a 1846     		mov	r0, r3
 878 008c 1837     		adds	r7, r7, #24
 879 008e BD46     		mov	sp, r7
 880              		@ sp needed
 881 0090 80BD     		pop	{r7, pc}
 882              	.L50:
 883 0092 00BF     		.align	2
 884              	.L49:
 885 0094 00000000 		.word	__func__.7925
 886              		.cfi_endproc
 887              	.LFE264:
 888              		.size	macWaitTransmitDescriptor, .-macWaitTransmitDescriptor
 889 0098 AFF30080 		.section	.text.macReleaseTransmitDescriptor,"ax",%progbits
 889      AFF30080 
 890              		.align	2
 891              		.p2align 4,,15
 892              		.global	macReleaseTransmitDescriptor
ARM GAS  C:\Users\Luis\AppData\Local\Temp\ccYfhpH6.s 			page 17


 893              		.thumb
 894              		.thumb_func
 895              		.type	macReleaseTransmitDescriptor, %function
 896              	macReleaseTransmitDescriptor:
 897              	.LFB265:
 898              		.loc 11 180 0
 899              		.cfi_startproc
 900              		@ args = 0, pretend = 0, frame = 8
 901              		@ frame_needed = 1, uses_anonymous_args = 0
 902 0000 80B5     		push	{r7, lr}
 903              		.cfi_def_cfa_offset 8
 904              		.cfi_offset 7, -8
 905              		.cfi_offset 14, -4
 906 0002 82B0     		sub	sp, sp, #8
 907              		.cfi_def_cfa_offset 16
 908 0004 00AF     		add	r7, sp, #0
 909              		.cfi_def_cfa_register 7
 910 0006 7860     		str	r0, [r7, #4]
 911              		.loc 11 182 0
 912 0008 7B68     		ldr	r3, [r7, #4]
 913 000a 002B     		cmp	r3, #0
 914 000c 02D1     		bne	.L52
 915              		.loc 11 182 0 is_stmt 0 discriminator 1
 916 000e 0448     		ldr	r0, .L53
 917 0010 FFF7FEFF 		bl	chSysHalt
 918              	.L52:
 919              		.loc 11 184 0 is_stmt 1
 920 0014 7868     		ldr	r0, [r7, #4]
 921 0016 FFF7FEFF 		bl	mac_lld_release_transmit_descriptor
 922              		.loc 11 185 0
 923 001a 0837     		adds	r7, r7, #8
 924 001c BD46     		mov	sp, r7
 925              		@ sp needed
 926 001e 80BD     		pop	{r7, pc}
 927              	.L54:
 928              		.align	2
 929              	.L53:
 930 0020 00000000 		.word	__func__.7932
 931              		.cfi_endproc
 932              	.LFE265:
 933              		.size	macReleaseTransmitDescriptor, .-macReleaseTransmitDescriptor
 934 0024 AFF30080 		.section	.text.macWaitReceiveDescriptor,"ax",%progbits
 934      AFF30080 
 934      AFF30080 
 935              		.align	2
 936              		.p2align 4,,15
 937              		.global	macWaitReceiveDescriptor
 938              		.thumb
 939              		.thumb_func
 940              		.type	macWaitReceiveDescriptor, %function
 941              	macWaitReceiveDescriptor:
 942              	.LFB266:
 943              		.loc 11 208 0
 944              		.cfi_startproc
 945              		@ args = 0, pretend = 0, frame = 24
 946              		@ frame_needed = 1, uses_anonymous_args = 0
 947 0000 80B5     		push	{r7, lr}
ARM GAS  C:\Users\Luis\AppData\Local\Temp\ccYfhpH6.s 			page 18


 948              		.cfi_def_cfa_offset 8
 949              		.cfi_offset 7, -8
 950              		.cfi_offset 14, -4
 951 0002 86B0     		sub	sp, sp, #24
 952              		.cfi_def_cfa_offset 32
 953 0004 00AF     		add	r7, sp, #0
 954              		.cfi_def_cfa_register 7
 955 0006 F860     		str	r0, [r7, #12]
 956 0008 B960     		str	r1, [r7, #8]
 957 000a 7A60     		str	r2, [r7, #4]
 958              		.loc 11 212 0
 959 000c FB68     		ldr	r3, [r7, #12]
 960 000e 002B     		cmp	r3, #0
 961 0010 02D0     		beq	.L56
 962              		.loc 11 212 0 is_stmt 0 discriminator 2
 963 0012 BB68     		ldr	r3, [r7, #8]
 964 0014 002B     		cmp	r3, #0
 965 0016 02D1     		bne	.L65
 966              	.L56:
 967              		.loc 11 212 0 discriminator 1
 968 0018 1E48     		ldr	r0, .L66
 969 001a FFF7FEFF 		bl	chSysHalt
 970              	.L65:
 971              		.loc 11 213 0 is_stmt 1 discriminator 1
 972 001e FB68     		ldr	r3, [r7, #12]
 973 0020 1B78     		ldrb	r3, [r3]	@ zero_extendqisi2
 974 0022 022B     		cmp	r3, #2
 975 0024 03D0     		beq	.L58
 976 0026 1B48     		ldr	r0, .L66
 977 0028 FFF7FEFF 		bl	chSysHalt
 978              		.loc 11 215 0 discriminator 1
 979 002c 21E0     		b	.L59
 980              	.L58:
 981              		.loc 11 215 0 is_stmt 0
 982 002e 20E0     		b	.L59
 983              	.L63:
 984              		.loc 11 217 0 is_stmt 1
 985 0030 FFF7FEFF 		bl	osalSysLock
 986              		.loc 11 218 0
 987 0034 FFF7FEFF 		bl	osalOsGetSystemTimeX
 988 0038 3861     		str	r0, [r7, #16]
 989              		.loc 11 219 0
 990 003a FB68     		ldr	r3, [r7, #12]
 991 003c 1033     		adds	r3, r3, #16
 992 003e 1846     		mov	r0, r3
 993 0040 7968     		ldr	r1, [r7, #4]
 994 0042 FFF7FEFF 		bl	osalThreadEnqueueTimeoutS
 995 0046 7861     		str	r0, [r7, #20]
 996              		.loc 11 220 0
 997 0048 7B69     		ldr	r3, [r7, #20]
 998 004a B3F1FF3F 		cmp	r3, #-1
 999 004e 02D1     		bne	.L60
 1000              		.loc 11 221 0
 1001 0050 FFF7FEFF 		bl	osalSysUnlock
 1002              		.loc 11 222 0
 1003 0054 18E0     		b	.L61
 1004              	.L60:
ARM GAS  C:\Users\Luis\AppData\Local\Temp\ccYfhpH6.s 			page 19


 1005              		.loc 11 224 0
 1006 0056 7B68     		ldr	r3, [r7, #4]
 1007 0058 B3F1FF3F 		cmp	r3, #-1
 1008 005c 07D0     		beq	.L62
 1009              		.loc 11 225 0
 1010 005e FFF7FEFF 		bl	osalOsGetSystemTimeX
 1011 0062 0346     		mov	r3, r0
 1012 0064 3A69     		ldr	r2, [r7, #16]
 1013 0066 D31A     		subs	r3, r2, r3
 1014 0068 7A68     		ldr	r2, [r7, #4]
 1015 006a 1344     		add	r3, r3, r2
 1016 006c 7B60     		str	r3, [r7, #4]
 1017              	.L62:
 1018              		.loc 11 227 0
 1019 006e FFF7FEFF 		bl	osalSysUnlock
 1020              	.L59:
 1021              		.loc 11 215 0 discriminator 1
 1022 0072 F868     		ldr	r0, [r7, #12]
 1023 0074 B968     		ldr	r1, [r7, #8]
 1024 0076 FFF7FEFF 		bl	mac_lld_get_receive_descriptor
 1025 007a 7861     		str	r0, [r7, #20]
 1026 007c 7B69     		ldr	r3, [r7, #20]
 1027 007e 002B     		cmp	r3, #0
 1028 0080 02D0     		beq	.L61
 1029              		.loc 11 215 0 is_stmt 0 discriminator 2
 1030 0082 7B68     		ldr	r3, [r7, #4]
 1031 0084 002B     		cmp	r3, #0
 1032 0086 D3D1     		bne	.L63
 1033              	.L61:
 1034              		.loc 11 229 0 is_stmt 1
 1035 0088 7B69     		ldr	r3, [r7, #20]
 1036              		.loc 11 230 0
 1037 008a 1846     		mov	r0, r3
 1038 008c 1837     		adds	r7, r7, #24
 1039 008e BD46     		mov	sp, r7
 1040              		@ sp needed
 1041 0090 80BD     		pop	{r7, pc}
 1042              	.L67:
 1043 0092 00BF     		.align	2
 1044              	.L66:
 1045 0094 00000000 		.word	__func__.7940
 1046              		.cfi_endproc
 1047              	.LFE266:
 1048              		.size	macWaitReceiveDescriptor, .-macWaitReceiveDescriptor
 1049 0098 AFF30080 		.section	.text.macReleaseReceiveDescriptor,"ax",%progbits
 1049      AFF30080 
 1050              		.align	2
 1051              		.p2align 4,,15
 1052              		.global	macReleaseReceiveDescriptor
 1053              		.thumb
 1054              		.thumb_func
 1055              		.type	macReleaseReceiveDescriptor, %function
 1056              	macReleaseReceiveDescriptor:
 1057              	.LFB267:
 1058              		.loc 11 241 0
 1059              		.cfi_startproc
 1060              		@ args = 0, pretend = 0, frame = 8
ARM GAS  C:\Users\Luis\AppData\Local\Temp\ccYfhpH6.s 			page 20


 1061              		@ frame_needed = 1, uses_anonymous_args = 0
 1062 0000 80B5     		push	{r7, lr}
 1063              		.cfi_def_cfa_offset 8
 1064              		.cfi_offset 7, -8
 1065              		.cfi_offset 14, -4
 1066 0002 82B0     		sub	sp, sp, #8
 1067              		.cfi_def_cfa_offset 16
 1068 0004 00AF     		add	r7, sp, #0
 1069              		.cfi_def_cfa_register 7
 1070 0006 7860     		str	r0, [r7, #4]
 1071              		.loc 11 243 0
 1072 0008 7B68     		ldr	r3, [r7, #4]
 1073 000a 002B     		cmp	r3, #0
 1074 000c 02D1     		bne	.L69
 1075              		.loc 11 243 0 is_stmt 0 discriminator 1
 1076 000e 0448     		ldr	r0, .L70
 1077 0010 FFF7FEFF 		bl	chSysHalt
 1078              	.L69:
 1079              		.loc 11 245 0 is_stmt 1
 1080 0014 7868     		ldr	r0, [r7, #4]
 1081 0016 FFF7FEFF 		bl	mac_lld_release_receive_descriptor
 1082              		.loc 11 246 0
 1083 001a 0837     		adds	r7, r7, #8
 1084 001c BD46     		mov	sp, r7
 1085              		@ sp needed
 1086 001e 80BD     		pop	{r7, pc}
 1087              	.L71:
 1088              		.align	2
 1089              	.L70:
 1090 0020 00000000 		.word	__func__.7947
 1091              		.cfi_endproc
 1092              	.LFE267:
 1093              		.size	macReleaseReceiveDescriptor, .-macReleaseReceiveDescriptor
 1094 0024 AFF30080 		.section	.text.macPollLinkStatus,"ax",%progbits
 1094      AFF30080 
 1094      AFF30080 
 1095              		.align	2
 1096              		.p2align 4,,15
 1097              		.global	macPollLinkStatus
 1098              		.thumb
 1099              		.thumb_func
 1100              		.type	macPollLinkStatus, %function
 1101              	macPollLinkStatus:
 1102              	.LFB268:
 1103              		.loc 11 258 0
 1104              		.cfi_startproc
 1105              		@ args = 0, pretend = 0, frame = 8
 1106              		@ frame_needed = 1, uses_anonymous_args = 0
 1107 0000 80B5     		push	{r7, lr}
 1108              		.cfi_def_cfa_offset 8
 1109              		.cfi_offset 7, -8
 1110              		.cfi_offset 14, -4
 1111 0002 82B0     		sub	sp, sp, #8
 1112              		.cfi_def_cfa_offset 16
 1113 0004 00AF     		add	r7, sp, #0
 1114              		.cfi_def_cfa_register 7
 1115 0006 7860     		str	r0, [r7, #4]
ARM GAS  C:\Users\Luis\AppData\Local\Temp\ccYfhpH6.s 			page 21


 1116              		.loc 11 260 0
 1117 0008 7B68     		ldr	r3, [r7, #4]
 1118 000a 002B     		cmp	r3, #0
 1119 000c 02D1     		bne	.L76
 1120              		.loc 11 260 0 is_stmt 0 discriminator 1
 1121 000e 0948     		ldr	r0, .L77
 1122 0010 FFF7FEFF 		bl	chSysHalt
 1123              	.L76:
 1124              		.loc 11 261 0 is_stmt 1 discriminator 1
 1125 0014 7B68     		ldr	r3, [r7, #4]
 1126 0016 1B78     		ldrb	r3, [r3]	@ zero_extendqisi2
 1127 0018 022B     		cmp	r3, #2
 1128 001a 02D0     		beq	.L74
 1129 001c 0548     		ldr	r0, .L77
 1130 001e FFF7FEFF 		bl	chSysHalt
 1131              	.L74:
 1132              		.loc 11 263 0
 1133 0022 7868     		ldr	r0, [r7, #4]
 1134 0024 FFF7FEFF 		bl	mac_lld_poll_link_status
 1135 0028 0346     		mov	r3, r0
 1136              		.loc 11 264 0
 1137 002a 1846     		mov	r0, r3
 1138 002c 0837     		adds	r7, r7, #8
 1139 002e BD46     		mov	sp, r7
 1140              		@ sp needed
 1141 0030 80BD     		pop	{r7, pc}
 1142              	.L78:
 1143 0032 00BF     		.align	2
 1144              	.L77:
 1145 0034 00000000 		.word	__func__.7951
 1146              		.cfi_endproc
 1147              	.LFE268:
 1148              		.size	macPollLinkStatus, .-macPollLinkStatus
 1149 0038 AFF30080 		.section	.rodata.__func__.7913,"a",%progbits
 1149      AFF30080 
 1150              		.align	2
 1151              		.type	__func__.7913, %object
 1152              		.size	__func__.7913, 9
 1153              	__func__.7913:
 1154 0000 6D616353 		.ascii	"macStart\000"
 1154      74617274 
 1154      00
 1155 0009 000000   		.section	.rodata.__func__.5842,"a",%progbits
 1156              		.align	2
 1157              		.type	__func__.5842, %object
 1158              		.size	__func__.5842, 12
 1159              	__func__.5842:
 1160 0000 63685379 		.ascii	"chSysUnlock\000"
 1160      73556E6C 
 1160      6F636B00 
 1161              		.section	.rodata.__func__.7917,"a",%progbits
 1162              		.align	2
 1163              		.type	__func__.7917, %object
 1164              		.size	__func__.7917, 8
 1165              	__func__.7917:
 1166 0000 6D616353 		.ascii	"macStop\000"
 1166      746F7000 
ARM GAS  C:\Users\Luis\AppData\Local\Temp\ccYfhpH6.s 			page 22


 1167              		.section	.rodata.__func__.7925,"a",%progbits
 1168              		.align	2
 1169              		.type	__func__.7925, %object
 1170              		.size	__func__.7925, 26
 1171              	__func__.7925:
 1172 0000 6D616357 		.ascii	"macWaitTransmitDescriptor\000"
 1172      61697454 
 1172      72616E73 
 1172      6D697444 
 1172      65736372 
 1173 001a 0000     		.section	.rodata.__func__.7932,"a",%progbits
 1174              		.align	2
 1175              		.type	__func__.7932, %object
 1176              		.size	__func__.7932, 29
 1177              	__func__.7932:
 1178 0000 6D616352 		.ascii	"macReleaseTransmitDescriptor\000"
 1178      656C6561 
 1178      73655472 
 1178      616E736D 
 1178      69744465 
 1179 001d 000000   		.section	.rodata.__func__.7940,"a",%progbits
 1180              		.align	2
 1181              		.type	__func__.7940, %object
 1182              		.size	__func__.7940, 25
 1183              	__func__.7940:
 1184 0000 6D616357 		.ascii	"macWaitReceiveDescriptor\000"
 1184      61697452 
 1184      65636569 
 1184      76654465 
 1184      73637269 
 1185 0019 000000   		.section	.rodata.__func__.7947,"a",%progbits
 1186              		.align	2
 1187              		.type	__func__.7947, %object
 1188              		.size	__func__.7947, 28
 1189              	__func__.7947:
 1190 0000 6D616352 		.ascii	"macReleaseReceiveDescriptor\000"
 1190      656C6561 
 1190      73655265 
 1190      63656976 
 1190      65446573 
 1191              		.section	.rodata.__func__.7951,"a",%progbits
 1192              		.align	2
 1193              		.type	__func__.7951, %object
 1194              		.size	__func__.7951, 18
 1195              	__func__.7951:
 1196 0000 6D616350 		.ascii	"macPollLinkStatus\000"
 1196      6F6C6C4C 
 1196      696E6B53 
 1196      74617475 
 1196      7300
 1197 0012 0000     		.text
 1198              	.Letext0:
 1199              		.file 12 "c:\\emtechesdk\\gcc\\lib\\gcc\\arm-none-eabi\\4.8.3\\include\\stddef.h"
 1200              		.file 13 "c:\\emtechesdk\\gcc\\arm-none-eabi\\include\\stdint.h"
 1201              		.file 14 "../../ChibiOS/os/rt/ports/ARMCMx/compilers/GCC/chtypes.h"
 1202              		.file 15 "../../ChibiOS/os/rt/include/chsystypes.h"
 1203              		.file 16 "../../ChibiOS/os/rt/ports/ARMCMx/chcore.h"
ARM GAS  C:\Users\Luis\AppData\Local\Temp\ccYfhpH6.s 			page 23


 1204              		.file 17 "../../ChibiOS/os/hal/ports/STM32/LLD/TIMv1/stm32_tim.h"
 1205              		.file 18 "../../ChibiOS/os/rt/include/chdebug.h"
 1206              		.file 19 "../../ChibiOS/os/rt/include/chtm.h"
 1207              		.file 20 "../../ChibiOS/os/rt/include/chstats.h"
 1208              		.file 21 "../../ChibiOS/os/rt/include/chsem.h"
 1209              		.file 22 "../../ChibiOS/os/rt/include/chmtx.h"
 1210              		.file 23 "../../ChibiOS/os/hal/include/mac.h"
 1211              		.file 24 "../../ChibiOS/os/hal/ports/STM32/LLD/mac_lld.h"
 1212              		.file 25 "../../ChibiOS/os/ext/CMSIS/include/core_cm4.h"