ARM GAS  C:\Users\Luis\AppData\Local\Temp\ccppvXBT.s 			page 1


   1              		.syntax unified
   2              		.cpu cortex-m4
   3              		.fpu softvfp
   4              		.eabi_attribute 20, 1
   5              		.eabi_attribute 21, 1
   6              		.eabi_attribute 23, 3
   7              		.eabi_attribute 24, 1
   8              		.eabi_attribute 25, 1
   9              		.eabi_attribute 26, 1
  10              		.eabi_attribute 30, 6
  11              		.eabi_attribute 34, 1
  12              		.eabi_attribute 18, 4
  13              		.thumb
  14              		.file	"main.cpp"
  15              		.text
  16              	.Ltext0:
  17              		.cfi_sections	.debug_frame
  18              		.section	.text._ZL18chRegSetThreadNamePKc,"ax",%progbits
  19              		.align	2
  20              		.p2align 4,,15
  21              		.thumb
  22              		.thumb_func
  23              		.type	_ZL18chRegSetThreadNamePKc, %function
  24              	_ZL18chRegSetThreadNamePKc:
  25              	.LFB186:
  26              		.file 1 "../../ChibiOS/os/rt/include/chregistry.h"
  27              		.loc 1 132 0
  28              		.cfi_startproc
  29              		@ args = 0, pretend = 0, frame = 8
  30              		@ frame_needed = 1, uses_anonymous_args = 0
  31              		@ link register save eliminated.
  32 0000 80B4     		push	{r7}
  33              		.cfi_def_cfa_offset 4
  34              		.cfi_offset 7, -4
  35 0002 83B0     		sub	sp, sp, #12
  36              		.cfi_def_cfa_offset 16
  37 0004 00AF     		add	r7, sp, #0
  38              		.cfi_def_cfa_register 7
  39 0006 7860     		str	r0, [r7, #4]
  40              		.loc 1 135 0
  41 0008 044B     		ldr	r3, .L2
  42 000a 9B69     		ldr	r3, [r3, #24]
  43 000c 7A68     		ldr	r2, [r7, #4]
  44 000e 9A61     		str	r2, [r3, #24]
  45              		.loc 1 139 0
  46 0010 0C37     		adds	r7, r7, #12
  47 0012 BD46     		mov	sp, r7
  48              		@ sp needed
  49 0014 5DF8047B 		ldr	r7, [sp], #4
  50 0018 7047     		bx	lr
  51              	.L3:
  52 001a 00BF     		.align	2
  53              	.L2:
  54 001c 00000000 		.word	ch
  55              		.cfi_endproc
  56              	.LFE186:
  57              		.size	_ZL18chRegSetThreadNamePKc, .-_ZL18chRegSetThreadNamePKc
ARM GAS  C:\Users\Luis\AppData\Local\Temp\ccppvXBT.s 			page 2


  58              		.section	.text._ZL8chprintfP20BaseSequentialStreamPKcz,"ax",%progbits
  59              		.align	2
  60              		.p2align 4,,15
  61              		.thumb
  62              		.thumb_func
  63              		.type	_ZL8chprintfP20BaseSequentialStreamPKcz, %function
  64              	_ZL8chprintfP20BaseSequentialStreamPKcz:
  65              	.LFB260:
  66              		.file 2 "../../ChibiOS/os/hal/lib/streams/chprintf.h"
  67              		.loc 2 69 0
  68              		.cfi_startproc
  69              		@ args = 4, pretend = 12, frame = 16
  70              		@ frame_needed = 1, uses_anonymous_args = 1
  71 0000 0EB4     		push	{r1, r2, r3}
  72              		.cfi_def_cfa_offset 12
  73              		.cfi_offset 1, -12
  74              		.cfi_offset 2, -8
  75              		.cfi_offset 3, -4
  76 0002 80B5     		push	{r7, lr}
  77              		.cfi_def_cfa_offset 20
  78              		.cfi_offset 7, -20
  79              		.cfi_offset 14, -16
  80 0004 85B0     		sub	sp, sp, #20
  81              		.cfi_def_cfa_offset 40
  82 0006 00AF     		add	r7, sp, #0
  83              		.cfi_def_cfa_register 7
  84 0008 7860     		str	r0, [r7, #4]
  85              	.LBB2:
  86              		.loc 2 73 0
  87 000a 07F12003 		add	r3, r7, #32
  88 000e BB60     		str	r3, [r7, #8]
  89              		.loc 2 74 0
  90 0010 7868     		ldr	r0, [r7, #4]
  91 0012 F969     		ldr	r1, [r7, #28]
  92 0014 BA68     		ldr	r2, [r7, #8]
  93 0016 FFF7FEFF 		bl	chvprintf
  94 001a F860     		str	r0, [r7, #12]
  95              		.loc 2 77 0
  96 001c FB68     		ldr	r3, [r7, #12]
  97              	.LBE2:
  98              		.loc 2 78 0
  99 001e 1846     		mov	r0, r3
 100 0020 1437     		adds	r7, r7, #20
 101 0022 BD46     		mov	sp, r7
 102              		@ sp needed
 103 0024 BDE88040 		pop	{r7, lr}
 104 0028 03B0     		add	sp, sp, #12
 105 002a 7047     		bx	lr
 106              		.cfi_endproc
 107              	.LFE260:
 108              		.size	_ZL8chprintfP20BaseSequentialStreamPKcz, .-_ZL8chprintfP20BaseSequentialStreamPKcz
 109              		.global	TipoFiltro
 110 002c AFF30080 		.section	.data.TipoFiltro,"aw",%progbits
 111              		.align	2
 112              		.type	TipoFiltro, %object
 113              		.size	TipoFiltro, 4
 114              	TipoFiltro:
ARM GAS  C:\Users\Luis\AppData\Local\Temp\ccppvXBT.s 			page 3


 115 0000 01000000 		.word	1
 116              		.section	.bss._ZL9waThread1,"aw",%nobits
 117              		.align	3
 118              		.type	_ZL9waThread1, %object
 119              		.size	_ZL9waThread1, 496
 120              	_ZL9waThread1:
 121 0000 00000000 		.space	496
 121      00000000 
 121      00000000 
 121      00000000 
 121      00000000 
 122              		.section	.rodata
 123              		.align	2
 124              	.LC5:
 125 0000 46696C74 		.ascii	"Filtro\000"
 125      726F00
 126 0007 00       		.align	2
 127              	.LC6:
 128 0008 0D0A0A0A 		.ascii	"\015\012\012\012\012Resultado:\000"
 128      0A526573 
 128      756C7461 
 128      646F3A00 
 129              		.global	__aeabi_f2d
 130              		.align	2
 131              	.LC7:
 132 0018 25662000 		.ascii	"%f \000"
 133              		.align	2
 134              	.LC0:
 135 001c 170E5BC1 		.word	-1050997225
 136 0020 3EF93FC1 		.word	-1052772034
 137 0024 0B8C22C1 		.word	-1054700533
 138 0028 732203C1 		.word	-1056759181
 139 002c 9B3DC4C0 		.word	-1060880997
 140 0030 F9A07FC0 		.word	-1065377543
 141 0034 BA4EE7BF 		.word	-1075360070
 142 0038 0DE0CD3E 		.word	1053679629
 143 003c C4CE2640 		.word	1076285124
 144 0040 EEEB9840 		.word	1083763694
 145 0044 4F92DC40 		.word	1088197199
 146 0048 6CC30E41 		.word	1091486572
 147 004c 2E7F2D41 		.word	1093500718
 148 0050 631C4A41 		.word	1095375971
 149 0054 7F416441 		.word	1097089407
 150 0058 C19C7B41 		.word	1098620097
 151 005c 91F28741 		.word	1099428497
 152 0060 976D9041 		.word	1099984279
 153 0064 ED249741 		.word	1100424429
 154 0068 96039C41 		.word	1100743574
 155 006c 54FA9E41 		.word	1100937812
 156 0070 E1FF9F41 		.word	1101004769
 157 0074 0A119F41 		.word	1100943626
 158 0078 BE309C41 		.word	1100755134
 159 007c FA679741 		.word	1100441594
 160 0080 B7C59041 		.word	1100006839
 161 0084 AE5E8841 		.word	1099456174
 162 0088 569A7C41 		.word	1098685014
 163 008c 5D616541 		.word	1097163101
ARM GAS  C:\Users\Luis\AppData\Local\Temp\ccppvXBT.s 			page 4


 164 0090 F95A4B41 		.word	1095457529
 165 0094 A3D82E41 		.word	1093589155
 166 0098 7D331041 		.word	1091580797
 167 009c A796DF40 		.word	1088394919
 168 00a0 240B9C40 		.word	1083968292
 169 00a4 452F2D40 		.word	1076703045
 170 00a8 65AA003F 		.word	1057008229
 171 00ac 567DDABF 		.word	-1076200106
 172 00b0 2A5279C0 		.word	-1065790934
 173 00b4 0E2DC1C0 		.word	-1061081842
 174 00b8 6FAA01C1 		.word	-1056855441
 175 00bc CC2821C1 		.word	-1054791476
 176 00c0 30AF3EC1 		.word	-1052856528
 177 00c4 3DE159C1 		.word	-1051074243
 178 00c8 D76972C1 		.word	-1049466409
 179 00cc 2DFE83C1 		.word	-1048314323
 180 00d0 A42A8DC1 		.word	-1047713116
 181 00d4 A29D94C1 		.word	-1047224926
 182 00d8 D63F9AC1 		.word	-1046855722
 183 00dc A2FF9DC1 		.word	-1046610014
 184 00e0 4ED19FC1 		.word	-1046490802
 185              		.section	.text._ZL7Thread1Pv,"ax",%progbits
 186              		.align	2
 187              		.p2align 4,,15
 188              		.thumb
 189              		.thumb_func
 190              		.type	_ZL7Thread1Pv, %function
 191              	_ZL7Thread1Pv:
 192              	.LFB261:
 193              		.file 3 "main.cpp"
 194              		.loc 3 28 0
 195              		.cfi_startproc
 196              		@ args = 0, pretend = 0, frame = 232
 197              		@ frame_needed = 1, uses_anonymous_args = 0
 198 0000 80B5     		push	{r7, lr}
 199              		.cfi_def_cfa_offset 8
 200              		.cfi_offset 7, -8
 201              		.cfi_offset 14, -4
 202 0002 BAB0     		sub	sp, sp, #232
 203              		.cfi_def_cfa_offset 240
 204 0004 00AF     		add	r7, sp, #0
 205              		.cfi_def_cfa_register 7
 206 0006 7860     		str	r0, [r7, #4]
 207              	.LBB3:
 208              		.loc 3 30 0
 209 0008 7B68     		ldr	r3, [r7, #4]
 210 000a C7F8DC30 		str	r3, [r7, #220]
 211              		.loc 3 32 0
 212 000e 5B48     		ldr	r0, .L17
 213 0010 FFF7FEFF 		bl	_ZL18chRegSetThreadNamePKc
 214              		.loc 3 43 0
 215 0014 5A4B     		ldr	r3, .L17+4
 216 0016 07F10C01 		add	r1, r7, #12
 217 001a 1A46     		mov	r2, r3
 218 001c C823     		movs	r3, #200
 219 001e 0846     		mov	r0, r1
 220 0020 1146     		mov	r1, r2
ARM GAS  C:\Users\Luis\AppData\Local\Temp\ccppvXBT.s 			page 5


 221 0022 1A46     		mov	r2, r3
 222 0024 FFF7FEFF 		bl	memcpy
 223              		.loc 3 47 0
 224 0028 0020     		movs	r0, #0
 225 002a 1021     		movs	r1, #16
 226 002c FFF7FEFF 		bl	chHeapAlloc
 227 0030 C7F8D800 		str	r0, [r7, #216]
 228              		.loc 3 48 0
 229 0034 0020     		movs	r0, #0
 230 0036 1021     		movs	r1, #16
 231 0038 FFF7FEFF 		bl	chHeapAlloc
 232 003c C7F8D400 		str	r0, [r7, #212]
 233              		.loc 3 50 0
 234 0040 504B     		ldr	r3, .L17+8
 235 0042 1B68     		ldr	r3, [r3]
 236 0044 012B     		cmp	r3, #1
 237 0046 07D1     		bne	.L7
 238              		.loc 3 51 0
 239 0048 D7F8D830 		ldr	r3, [r7, #216]
 240 004c 1846     		mov	r0, r3
 241 004e D7F8DC10 		ldr	r1, [r7, #220]
 242 0052 FFF7FEFF 		bl	_ZN6Filter20setInitialDataFilterEP10DataFilter
 243 0056 12E0     		b	.L8
 244              	.L7:
 245              		.loc 3 53 0
 246 0058 4A4B     		ldr	r3, .L17+8
 247 005a 1B68     		ldr	r3, [r3]
 248 005c 002B     		cmp	r3, #0
 249 005e 07D1     		bne	.L9
 250              		.loc 3 54 0
 251 0060 D7F8D430 		ldr	r3, [r7, #212]
 252 0064 1846     		mov	r0, r3
 253 0066 D7F8DC10 		ldr	r1, [r7, #220]
 254 006a FFF7FEFF 		bl	_ZN6Filter20setInitialDataFilterEP10DataFilter
 255 006e 06E0     		b	.L8
 256              	.L9:
 257              		.loc 3 56 0
 258 0070 D7F8D830 		ldr	r3, [r7, #216]
 259 0074 1846     		mov	r0, r3
 260 0076 D7F8DC10 		ldr	r1, [r7, #220]
 261 007a FFF7FEFF 		bl	_ZN6Filter20setInitialDataFilterEP10DataFilter
 262              	.L8:
 263              		.loc 3 59 0
 264 007e 4248     		ldr	r0, .L17+12
 265 0080 4249     		ldr	r1, .L17+16
 266 0082 FFF7FEFF 		bl	_ZL8chprintfP20BaseSequentialStreamPKcz
 267              		.loc 3 63 0
 268 0086 0023     		movs	r3, #0
 269 0088 C7F8E030 		str	r3, [r7, #224]
 270 008c 59E0     		b	.L10
 271              	.L14:
 272              		.loc 3 64 0
 273 008e 4FF4FA60 		mov	r0, #2000
 274 0092 FFF7FEFF 		bl	chThdSleep
 275              		.loc 3 65 0
 276 0096 3E4B     		ldr	r3, .L17+20
 277 0098 3D4A     		ldr	r2, .L17+20
ARM GAS  C:\Users\Luis\AppData\Local\Temp\ccppvXBT.s 			page 6


 278 009a 5269     		ldr	r2, [r2, #20]
 279 009c 82F00402 		eor	r2, r2, #4
 280 00a0 5A61     		str	r2, [r3, #20]
 281              		.loc 3 67 0
 282 00a2 384B     		ldr	r3, .L17+8
 283 00a4 1B68     		ldr	r3, [r3]
 284 00a6 012B     		cmp	r3, #1
 285 00a8 0FD1     		bne	.L11
 286              		.loc 3 68 0
 287 00aa D7F8E030 		ldr	r3, [r7, #224]
 288 00ae 9B00     		lsls	r3, r3, #2
 289 00b0 07F1E802 		add	r2, r7, #232
 290 00b4 1344     		add	r3, r3, r2
 291 00b6 53F8DC3C 		ldr	r3, [r3, #-220]	@ float
 292 00ba D7F8D800 		ldr	r0, [r7, #216]
 293 00be 1946     		mov	r1, r3
 294 00c0 FFF7FEFF 		bl	_ZN3IIR11directFormIEf
 295 00c4 C7F8E400 		str	r0, [r7, #228]	@ float
 296 00c8 22E0     		b	.L12
 297              	.L11:
 298              		.loc 3 69 0
 299 00ca 2E4B     		ldr	r3, .L17+8
 300 00cc 1B68     		ldr	r3, [r3]
 301 00ce 002B     		cmp	r3, #0
 302 00d0 0FD1     		bne	.L13
 303              		.loc 3 70 0
 304 00d2 D7F8E030 		ldr	r3, [r7, #224]
 305 00d6 9B00     		lsls	r3, r3, #2
 306 00d8 07F1E802 		add	r2, r7, #232
 307 00dc 1344     		add	r3, r3, r2
 308 00de 53F8DC3C 		ldr	r3, [r3, #-220]	@ float
 309 00e2 D7F8D400 		ldr	r0, [r7, #212]
 310 00e6 1946     		mov	r1, r3
 311 00e8 FFF7FEFF 		bl	_ZN3FIR11directFormIEf
 312 00ec C7F8E400 		str	r0, [r7, #228]	@ float
 313 00f0 0EE0     		b	.L12
 314              	.L13:
 315              		.loc 3 72 0
 316 00f2 D7F8E030 		ldr	r3, [r7, #224]
 317 00f6 9B00     		lsls	r3, r3, #2
 318 00f8 07F1E802 		add	r2, r7, #232
 319 00fc 1344     		add	r3, r3, r2
 320 00fe 53F8DC3C 		ldr	r3, [r3, #-220]	@ float
 321 0102 D7F8D800 		ldr	r0, [r7, #216]
 322 0106 1946     		mov	r1, r3
 323 0108 FFF7FEFF 		bl	_ZN3IIR12directFormIIEf
 324 010c C7F8E400 		str	r0, [r7, #228]	@ float
 325              	.L12:
 326              		.loc 3 75 0
 327 0110 D7F8E400 		ldr	r0, [r7, #228]	@ float
 328 0114 FFF7FEFF 		bl	__aeabi_f2d
 329 0118 0246     		mov	r2, r0
 330 011a 0B46     		mov	r3, r1
 331 011c 1A48     		ldr	r0, .L17+12
 332 011e 1D49     		ldr	r1, .L17+24
 333 0120 FFF7FEFF 		bl	_ZL8chprintfP20BaseSequentialStreamPKcz
 334              		.loc 3 77 0
ARM GAS  C:\Users\Luis\AppData\Local\Temp\ccppvXBT.s 			page 7


 335 0124 4FF4FA60 		mov	r0, #2000
 336 0128 FFF7FEFF 		bl	chThdSleep
 337              		.loc 3 78 0
 338 012c 184B     		ldr	r3, .L17+20
 339 012e 184A     		ldr	r2, .L17+20
 340 0130 5269     		ldr	r2, [r2, #20]
 341 0132 82F00402 		eor	r2, r2, #4
 342 0136 5A61     		str	r2, [r3, #20]
 343              		.loc 3 63 0
 344 0138 D7F8E030 		ldr	r3, [r7, #224]
 345 013c 0133     		adds	r3, r3, #1
 346 013e C7F8E030 		str	r3, [r7, #224]
 347              	.L10:
 348              		.loc 3 63 0 is_stmt 0 discriminator 1
 349 0142 D7F8E030 		ldr	r3, [r7, #224]
 350 0146 312B     		cmp	r3, #49
 351 0148 A1DD     		ble	.L14
 352              		.loc 3 80 0 is_stmt 1
 353 014a 0E4B     		ldr	r3, .L17+8
 354 014c 1B68     		ldr	r3, [r3]
 355 014e 012B     		cmp	r3, #1
 356 0150 08D1     		bne	.L15
 357              		.loc 3 81 0
 358 0152 D7F8D830 		ldr	r3, [r7, #216]
 359 0156 1B68     		ldr	r3, [r3]
 360 0158 1B68     		ldr	r3, [r3]
 361 015a D7F8D820 		ldr	r2, [r7, #216]
 362 015e 1046     		mov	r0, r2
 363 0160 9847     		blx	r3
 364 0162 07E0     		b	.L6
 365              	.L15:
 366              		.loc 3 84 0
 367 0164 D7F8D430 		ldr	r3, [r7, #212]
 368 0168 1B68     		ldr	r3, [r3]
 369 016a 1B68     		ldr	r3, [r3]
 370 016c D7F8D420 		ldr	r2, [r7, #212]
 371 0170 1046     		mov	r0, r2
 372 0172 9847     		blx	r3
 373              	.L6:
 374              	.LBE3:
 375              		.loc 3 86 0
 376 0174 E837     		adds	r7, r7, #232
 377 0176 BD46     		mov	sp, r7
 378              		@ sp needed
 379 0178 80BD     		pop	{r7, pc}
 380              	.L18:
 381 017a 00BF     		.align	2
 382              	.L17:
 383 017c 00000000 		.word	.LC5
 384 0180 1C000000 		.word	.LC0
 385 0184 00000000 		.word	TipoFiltro
 386 0188 00000000 		.word	SD1
 387 018c 08000000 		.word	.LC6
 388 0190 00180240 		.word	1073879040
 389 0194 18000000 		.word	.LC7
 390              		.cfi_endproc
 391              	.LFE261:
ARM GAS  C:\Users\Luis\AppData\Local\Temp\ccppvXBT.s 			page 8


 392              		.size	_ZL7Thread1Pv, .-_ZL7Thread1Pv
 393 0198 AFF30080 		.section	.rodata
 393      AFF30080 
 394              		.align	2
 395              	.LC8:
 396 00e4 53652068 		.ascii	"Se ha presionado SW1 \015\012\000"
 396      61207072 
 396      6573696F 
 396      6E61646F 
 396      20535731 
 397              		.align	2
 398              	.LC1:
 399 00fc 1A8B8DC1 		.word	-1047688422
 400 0100 237284C1 		.word	-1048284637
 401 0104 E27573C1 		.word	-1049397790
 402              		.align	2
 403              	.LC2:
 404 0108 8C6E983C 		.word	1016622732
 405 010c 55C293BC 		.word	-1131167147
 406 0110 55C293BC 		.word	-1131167147
 407 0114 8C6E983C 		.word	1016622732
 408              		.align	2
 409              	.LC3:
 410 0118 36C80CC0 		.word	-1072904138
 411 011c 333367C0 		.word	-1066978509
 412 0120 CE53A0C0 		.word	-1063234610
 413              		.align	2
 414              	.LC4:
 415 0124 0000803F 		.word	1065353216
 416 0128 8C9937C0 		.word	-1070098036
 417 012c FC6A3040 		.word	1076914940
 418 0130 F7FA62BF 		.word	-1084032265
 419              		.section	.text.main,"ax",%progbits
 420              		.align	2
 421              		.p2align 4,,15
 422              		.global	main
 423              		.thumb
 424              		.thumb_func
 425              		.type	main, %function
 426              	main:
 427              	.LFB262:
 428              		.loc 3 88 0
 429              		.cfi_startproc
 430              		@ args = 0, pretend = 0, frame = 80
 431              		@ frame_needed = 1, uses_anonymous_args = 0
 432 0000 90B5     		push	{r4, r7, lr}
 433              		.cfi_def_cfa_offset 12
 434              		.cfi_offset 4, -12
 435              		.cfi_offset 7, -8
 436              		.cfi_offset 14, -4
 437 0002 97B0     		sub	sp, sp, #92
 438              		.cfi_def_cfa_offset 104
 439 0004 02AF     		add	r7, sp, #8
 440              		.cfi_def_cfa 7, 96
 441              	.LBB4:
 442              		.loc 3 90 0
 443 0006 FFF7FEFF 		bl	halInit
ARM GAS  C:\Users\Luis\AppData\Local\Temp\ccppvXBT.s 			page 9


 444              		.loc 3 91 0
 445 000a FFF7FEFF 		bl	chSysInit
 446              		.loc 3 93 0
 447 000e 07F13803 		add	r3, r7, #56
 448 0012 0022     		movs	r2, #0
 449 0014 1A60     		str	r2, [r3]
 450 0016 0433     		adds	r3, r3, #4
 451 0018 0022     		movs	r2, #0
 452 001a 1A60     		str	r2, [r3]
 453 001c 0433     		adds	r3, r3, #4
 454 001e 0022     		movs	r2, #0
 455 0020 1A60     		str	r2, [r3]
 456 0022 0433     		adds	r3, r3, #4
 457 0024 4FF41653 		mov	r3, #9600
 458 0028 BB63     		str	r3, [r7, #56]
 459              		.loc 3 95 0
 460 002a 07F13803 		add	r3, r7, #56
 461 002e 3748     		ldr	r0, .L25
 462 0030 1946     		mov	r1, r3
 463 0032 FFF7FEFF 		bl	sdStart
 464              		.loc 3 97 0
 465 0036 0323     		movs	r3, #3
 466 0038 FB64     		str	r3, [r7, #76]
 467              		.loc 3 100 0
 468 003a 354A     		ldr	r2, .L25+4
 469 003c 07F12C03 		add	r3, r7, #44
 470 0040 07CA     		ldmia	r2, {r0, r1, r2}
 471 0042 83E80700 		stmia	r3, {r0, r1, r2}
 472              		.loc 3 102 0
 473 0046 334B     		ldr	r3, .L25+8
 474 0048 07F11C04 		add	r4, r7, #28
 475 004c 0FCB     		ldmia	r3, {r0, r1, r2, r3}
 476 004e 84E80F00 		stmia	r4, {r0, r1, r2, r3}
 477              		.loc 3 105 0
 478 0052 314A     		ldr	r2, .L25+12
 479 0054 07F11003 		add	r3, r7, #16
 480 0058 07CA     		ldmia	r2, {r0, r1, r2}
 481 005a 83E80700 		stmia	r3, {r0, r1, r2}
 482              		.loc 3 107 0
 483 005e 2F4B     		ldr	r3, .L25+16
 484 0060 3C46     		mov	r4, r7
 485 0062 0FCB     		ldmia	r3, {r0, r1, r2, r3}
 486 0064 84E80F00 		stmia	r4, {r0, r1, r2, r3}
 487              		.loc 3 110 0
 488 0068 0020     		movs	r0, #0
 489 006a 2421     		movs	r1, #36
 490 006c FFF7FEFF 		bl	chHeapAlloc
 491 0070 B864     		str	r0, [r7, #72]
 492              		.loc 3 112 0
 493 0072 2B4B     		ldr	r3, .L25+20
 494 0074 1B68     		ldr	r3, [r3]
 495 0076 012B     		cmp	r3, #1
 496 0078 0DD1     		bne	.L20
 497              		.loc 3 114 0
 498 007a 07F12C02 		add	r2, r7, #44
 499 007e 07F11C03 		add	r3, r7, #28
 500 0082 07F11001 		add	r1, r7, #16
ARM GAS  C:\Users\Luis\AppData\Local\Temp\ccppvXBT.s 			page 10


 501 0086 0091     		str	r1, [sp]
 502 0088 3946     		mov	r1, r7
 503 008a 0191     		str	r1, [sp, #4]
 504 008c B86C     		ldr	r0, [r7, #72]
 505 008e F96C     		ldr	r1, [r7, #76]
 506 0090 FFF7FEFF 		bl	_ZN10DataFilter13newDataFilterEiPfS0_S0_S0_
 507 0094 16E0     		b	.L21
 508              	.L20:
 509              		.loc 3 115 0
 510 0096 224B     		ldr	r3, .L25+20
 511 0098 1B68     		ldr	r3, [r3]
 512 009a 002B     		cmp	r3, #0
 513 009c 08D1     		bne	.L22
 514              		.loc 3 118 0
 515 009e 07F12C02 		add	r2, r7, #44
 516 00a2 07F11C03 		add	r3, r7, #28
 517 00a6 B86C     		ldr	r0, [r7, #72]
 518 00a8 F96C     		ldr	r1, [r7, #76]
 519 00aa FFF7FEFF 		bl	_ZN10DataFilter13newDataFilterEiPfS0_
 520 00ae 09E0     		b	.L21
 521              	.L22:
 522              		.loc 3 121 0
 523 00b0 07F12C02 		add	r2, r7, #44
 524 00b4 07F11C03 		add	r3, r7, #28
 525 00b8 3946     		mov	r1, r7
 526 00ba 0091     		str	r1, [sp]
 527 00bc B86C     		ldr	r0, [r7, #72]
 528 00be F96C     		ldr	r1, [r7, #76]
 529 00c0 FFF7FEFF 		bl	_ZN10DataFilter13newDataFilterEiPfS0_S0_
 530              	.L21:
 531              		.loc 3 124 0
 532 00c4 BB6C     		ldr	r3, [r7, #72]
 533 00c6 7B64     		str	r3, [r7, #68]
 534              		.loc 3 126 0
 535 00c8 7B6C     		ldr	r3, [r7, #68]
 536 00ca 0093     		str	r3, [sp]
 537 00cc 1548     		ldr	r0, .L25+24
 538 00ce 4FF4F871 		mov	r1, #496
 539 00d2 4022     		movs	r2, #64
 540 00d4 144B     		ldr	r3, .L25+28
 541 00d6 FFF7FEFF 		bl	chThdCreateStatic
 542              	.L24:
 543              		.loc 3 129 0
 544 00da 144B     		ldr	r3, .L25+32
 545 00dc 1B69     		ldr	r3, [r3, #16]
 546 00de 03F40043 		and	r3, r3, #32768
 547 00e2 002B     		cmp	r3, #0
 548 00e4 0CBF     		ite	eq
 549 00e6 0023     		moveq	r3, #0
 550 00e8 0123     		movne	r3, #1
 551 00ea DBB2     		uxtb	r3, r3
 552 00ec 002B     		cmp	r3, #0
 553 00ee 07D0     		beq	.L23
 554              		.loc 3 131 0
 555 00f0 0648     		ldr	r0, .L25
 556 00f2 0F49     		ldr	r1, .L25+36
 557 00f4 FFF7FEFF 		bl	_ZL8chprintfP20BaseSequentialStreamPKcz
ARM GAS  C:\Users\Luis\AppData\Local\Temp\ccppvXBT.s 			page 11


 558              		.loc 3 132 0
 559 00f8 4FF4FA60 		mov	r0, #2000
 560 00fc FFF7FEFF 		bl	chThdSleep
 561              	.L23:
 562              		.loc 3 134 0
 563 0100 4FF4FA60 		mov	r0, #2000
 564 0104 FFF7FEFF 		bl	chThdSleep
 565              		.loc 3 135 0
 566 0108 E7E7     		b	.L24
 567              	.L26:
 568 010a 00BF     		.align	2
 569              	.L25:
 570 010c 00000000 		.word	SD1
 571 0110 FC000000 		.word	.LC1
 572 0114 08010000 		.word	.LC2
 573 0118 18010000 		.word	.LC3
 574 011c 24010000 		.word	.LC4
 575 0120 00000000 		.word	TipoFiltro
 576 0124 00000000 		.word	_ZL9waThread1
 577 0128 00000000 		.word	_ZL7Thread1Pv
 578 012c 00180240 		.word	1073879040
 579 0130 E4000000 		.word	.LC8
 580              	.LBE4:
 581              		.cfi_endproc
 582              	.LFE262:
 583              		.size	main, .-main
 584 0134 AFF30080 		.text
 584      AFF30080 
 584      AFF30080 
 585              	.Letext0:
 586              		.file 4 "c:\\emtechesdk\\gcc\\lib\\gcc\\arm-none-eabi\\4.8.3\\include\\stddef.h"
 587              		.file 5 "c:\\emtechesdk\\gcc\\arm-none-eabi\\include\\stdint.h"
 588              		.file 6 "../../ChibiOS/os/rt/ports/ARMCMx/compilers/GCC/chtypes.h"
 589              		.file 7 "../../ChibiOS/os/rt/include/chsystypes.h"
 590              		.file 8 "../../ChibiOS/os/rt/include/chschd.h"
 591              		.file 9 "../../ChibiOS/os/ext/CMSIS/ST/stm32f407xx.h"
 592              		.file 10 "../../ChibiOS/os/ext/CMSIS/ST/stm32f4xx.h"
 593              		.file 11 "../../ChibiOS/os/rt/ports/ARMCMx/chcore.h"
 594              		.file 12 "../../ChibiOS/os/rt/ports/ARMCMx/chcore_v7m.h"
 595              		.file 13 "../../ChibiOS/os/rt/include/chdebug.h"
 596              		.file 14 "../../ChibiOS/os/rt/include/chtm.h"
 597              		.file 15 "../../ChibiOS/os/rt/include/chstats.h"
 598              		.file 16 "../../ChibiOS/os/rt/include/chsem.h"
 599              		.file 17 "../../ChibiOS/os/rt/include/chmtx.h"
 600              		.file 18 "../../ChibiOS/os/rt/include/chevents.h"
 601              		.file 19 "../../ChibiOS/os/rt/include/chqueues.h"
 602              		.file 20 "../../ChibiOS/os/rt/include/chstreams.h"
 603              		.file 21 "../../ChibiOS/os/hal/ports/STM32/LLD/GPIOv2/pal_lld.h"
 604              		.file 22 "../../ChibiOS/os/hal/include/serial.h"
 605              		.file 23 "../../ChibiOS/os/hal/ports/STM32/LLD/USARTv1/serial_lld.h"
 606              		.file 24 "c:\\emtechesdk\\gcc\\lib\\gcc\\arm-none-eabi\\4.8.3\\include\\stdarg.h"
 607              		.file 25 "<built-in>"
 608              		.file 26 "../../ChibiOS/os/ext/CMSIS/include/core_cm4.h"