ARM GAS  C:\Users\Luis\AppData\Local\Temp\ccFw6Xg2.s 			page 1


   1              		.syntax unified
   2              		.cpu cortex-m4
   3              		.fpu softvfp
   4              		.eabi_attribute 20, 1
   5              		.eabi_attribute 21, 1
   6              		.eabi_attribute 23, 3
   7              		.eabi_attribute 24, 1
   8              		.eabi_attribute 25, 1
   9              		.eabi_attribute 26, 1
  10              		.eabi_attribute 30, 6
  11              		.eabi_attribute 34, 1
  12              		.eabi_attribute 18, 4
  13              		.thumb
  14              		.file	"main.cpp"
  15              		.text
  16              	.Ltext0:
  17              		.cfi_sections	.debug_frame
  18              		.section	.text._ZL18chRegSetThreadNamePKc,"ax",%progbits
  19              		.align	2
  20              		.p2align 4,,15
  21              		.thumb
  22              		.thumb_func
  23              		.type	_ZL18chRegSetThreadNamePKc, %function
  24              	_ZL18chRegSetThreadNamePKc:
  25              	.LFB186:
  26              		.file 1 "../../ChibiOS/os/rt/include/chregistry.h"
  27              		.loc 1 132 0
  28              		.cfi_startproc
  29              		@ args = 0, pretend = 0, frame = 8
  30              		@ frame_needed = 1, uses_anonymous_args = 0
  31              		@ link register save eliminated.
  32 0000 80B4     		push	{r7}
  33              		.cfi_def_cfa_offset 4
  34              		.cfi_offset 7, -4
  35 0002 83B0     		sub	sp, sp, #12
  36              		.cfi_def_cfa_offset 16
  37 0004 00AF     		add	r7, sp, #0
  38              		.cfi_def_cfa_register 7
  39 0006 7860     		str	r0, [r7, #4]
  40              		.loc 1 135 0
  41 0008 044B     		ldr	r3, .L2
  42 000a 9B69     		ldr	r3, [r3, #24]
  43 000c 7A68     		ldr	r2, [r7, #4]
  44 000e 9A61     		str	r2, [r3, #24]
  45              		.loc 1 139 0
  46 0010 0C37     		adds	r7, r7, #12
  47 0012 BD46     		mov	sp, r7
  48              		@ sp needed
  49 0014 5DF8047B 		ldr	r7, [sp], #4
  50 0018 7047     		bx	lr
  51              	.L3:
  52 001a 00BF     		.align	2
  53              	.L2:
  54 001c 00000000 		.word	ch
  55              		.cfi_endproc
  56              	.LFE186:
  57              		.size	_ZL18chRegSetThreadNamePKc, .-_ZL18chRegSetThreadNamePKc
ARM GAS  C:\Users\Luis\AppData\Local\Temp\ccFw6Xg2.s 			page 2


  58              		.section	.text._ZL8chprintfP20BaseSequentialStreamPKcz,"ax",%progbits
  59              		.align	2
  60              		.p2align 4,,15
  61              		.thumb
  62              		.thumb_func
  63              		.type	_ZL8chprintfP20BaseSequentialStreamPKcz, %function
  64              	_ZL8chprintfP20BaseSequentialStreamPKcz:
  65              	.LFB260:
  66              		.file 2 "../../ChibiOS/os/hal/lib/streams/chprintf.h"
  67              		.loc 2 69 0
  68              		.cfi_startproc
  69              		@ args = 4, pretend = 12, frame = 16
  70              		@ frame_needed = 1, uses_anonymous_args = 1
  71 0000 0EB4     		push	{r1, r2, r3}
  72              		.cfi_def_cfa_offset 12
  73              		.cfi_offset 1, -12
  74              		.cfi_offset 2, -8
  75              		.cfi_offset 3, -4
  76 0002 80B5     		push	{r7, lr}
  77              		.cfi_def_cfa_offset 20
  78              		.cfi_offset 7, -20
  79              		.cfi_offset 14, -16
  80 0004 85B0     		sub	sp, sp, #20
  81              		.cfi_def_cfa_offset 40
  82 0006 00AF     		add	r7, sp, #0
  83              		.cfi_def_cfa_register 7
  84 0008 7860     		str	r0, [r7, #4]
  85              	.LBB2:
  86              		.loc 2 73 0
  87 000a 07F12003 		add	r3, r7, #32
  88 000e BB60     		str	r3, [r7, #8]
  89              		.loc 2 74 0
  90 0010 7868     		ldr	r0, [r7, #4]
  91 0012 F969     		ldr	r1, [r7, #28]
  92 0014 BA68     		ldr	r2, [r7, #8]
  93 0016 FFF7FEFF 		bl	chvprintf
  94 001a F860     		str	r0, [r7, #12]
  95              		.loc 2 77 0
  96 001c FB68     		ldr	r3, [r7, #12]
  97              	.LBE2:
  98              		.loc 2 78 0
  99 001e 1846     		mov	r0, r3
 100 0020 1437     		adds	r7, r7, #20
 101 0022 BD46     		mov	sp, r7
 102              		@ sp needed
 103 0024 BDE88040 		pop	{r7, lr}
 104 0028 03B0     		add	sp, sp, #12
 105 002a 7047     		bx	lr
 106              		.cfi_endproc
 107              	.LFE260:
 108              		.size	_ZL8chprintfP20BaseSequentialStreamPKcz, .-_ZL8chprintfP20BaseSequentialStreamPKcz
 109              		.global	TipoFiltro
 110 002c AFF30080 		.section	.data.TipoFiltro,"aw",%progbits
 111              		.align	2
 112              		.type	TipoFiltro, %object
 113              		.size	TipoFiltro, 4
 114              	TipoFiltro:
ARM GAS  C:\Users\Luis\AppData\Local\Temp\ccFw6Xg2.s 			page 3


 115 0000 02000000 		.word	2
 116              		.section	.bss._ZL9waThread1,"aw",%nobits
 117              		.align	3
 118              		.type	_ZL9waThread1, %object
 119              		.size	_ZL9waThread1, 496
 120              	_ZL9waThread1:
 121 0000 00000000 		.space	496
 121      00000000 
 121      00000000 
 121      00000000 
 121      00000000 
 122              		.section	.rodata
 123              		.align	2
 124              	.LC3:
 125 0000 46696C74 		.ascii	"Filtro\000"
 125      726F00
 126 0007 00       		.align	2
 127              	.LC4:
 128 0008 0D0A5265 		.ascii	"\015\012Resultado:\000"
 128      73756C74 
 128      61646F3A 
 128      00
 129              		.global	__aeabi_f2d
 130 0015 000000   		.align	2
 131              	.LC5:
 132 0018 25662000 		.ascii	"%f \000"
 133              		.align	2
 134              	.LC0:
 135 001c 000080BF 		.word	-1082130432
 136 0020 00000040 		.word	1073741824
 137 0024 00008040 		.word	1082130432
 138 0028 0000C040 		.word	1086324736
 139 002c 00008040 		.word	1082130432
 140 0030 00000000 		.word	0
 141 0034 00000000 		.word	0
 142 0038 00000000 		.word	0
 143 003c 000080BF 		.word	-1082130432
 144 0040 00000040 		.word	1073741824
 145 0044 00000041 		.word	1090519040
 146 0048 0000A040 		.word	1084227584
 147 004c 00004040 		.word	1077936128
 148 0050 000080BF 		.word	-1082130432
 149 0054 0000E040 		.word	1088421888
 150 0058 0000A040 		.word	1084227584
 151              		.section	.text._ZL7Thread1Pv,"ax",%progbits
 152              		.align	2
 153              		.p2align 4,,15
 154              		.thumb
 155              		.thumb_func
 156              		.type	_ZL7Thread1Pv, %function
 157              	_ZL7Thread1Pv:
 158              	.LFB261:
 159              		.file 3 "main.cpp"
 160              		.loc 3 28 0
 161              		.cfi_startproc
 162              		@ args = 0, pretend = 0, frame = 96
 163              		@ frame_needed = 1, uses_anonymous_args = 0
ARM GAS  C:\Users\Luis\AppData\Local\Temp\ccFw6Xg2.s 			page 4


 164 0000 B0B5     		push	{r4, r5, r7, lr}
 165              		.cfi_def_cfa_offset 16
 166              		.cfi_offset 4, -16
 167              		.cfi_offset 5, -12
 168              		.cfi_offset 7, -8
 169              		.cfi_offset 14, -4
 170 0002 98B0     		sub	sp, sp, #96
 171              		.cfi_def_cfa_offset 112
 172 0004 00AF     		add	r7, sp, #0
 173              		.cfi_def_cfa_register 7
 174 0006 7860     		str	r0, [r7, #4]
 175              	.LBB3:
 176              		.loc 3 30 0
 177 0008 7B68     		ldr	r3, [r7, #4]
 178 000a 7B65     		str	r3, [r7, #84]
 179              		.loc 3 32 0
 180 000c 4F48     		ldr	r0, .L17
 181 000e FFF7FEFF 		bl	_ZL18chRegSetThreadNamePKc
 182              		.loc 3 35 0
 183 0012 4F4B     		ldr	r3, .L17+4
 184 0014 07F10C04 		add	r4, r7, #12
 185 0018 1D46     		mov	r5, r3
 186 001a 0FCD     		ldmia	r5!, {r0, r1, r2, r3}
 187 001c 0FC4     		stmia	r4!, {r0, r1, r2, r3}
 188 001e 0FCD     		ldmia	r5!, {r0, r1, r2, r3}
 189 0020 0FC4     		stmia	r4!, {r0, r1, r2, r3}
 190 0022 0FCD     		ldmia	r5!, {r0, r1, r2, r3}
 191 0024 0FC4     		stmia	r4!, {r0, r1, r2, r3}
 192 0026 95E80F00 		ldmia	r5, {r0, r1, r2, r3}
 193 002a 84E80F00 		stmia	r4, {r0, r1, r2, r3}
 194              		.loc 3 38 0
 195 002e 0020     		movs	r0, #0
 196 0030 1021     		movs	r1, #16
 197 0032 FFF7FEFF 		bl	chHeapAlloc
 198 0036 3865     		str	r0, [r7, #80]
 199              		.loc 3 39 0
 200 0038 0020     		movs	r0, #0
 201 003a 1021     		movs	r1, #16
 202 003c FFF7FEFF 		bl	chHeapAlloc
 203 0040 F864     		str	r0, [r7, #76]
 204              		.loc 3 41 0
 205 0042 444B     		ldr	r3, .L17+8
 206 0044 1B68     		ldr	r3, [r3]
 207 0046 012B     		cmp	r3, #1
 208 0048 05D1     		bne	.L7
 209              		.loc 3 42 0
 210 004a 3B6D     		ldr	r3, [r7, #80]
 211 004c 1846     		mov	r0, r3
 212 004e 796D     		ldr	r1, [r7, #84]
 213 0050 FFF7FEFF 		bl	_ZN6Filter20setInitialDataFilterEP10DataFilter
 214 0054 0EE0     		b	.L8
 215              	.L7:
 216              		.loc 3 44 0
 217 0056 3F4B     		ldr	r3, .L17+8
 218 0058 1B68     		ldr	r3, [r3]
 219 005a 002B     		cmp	r3, #0
 220 005c 05D1     		bne	.L9
ARM GAS  C:\Users\Luis\AppData\Local\Temp\ccFw6Xg2.s 			page 5


 221              		.loc 3 45 0
 222 005e FB6C     		ldr	r3, [r7, #76]
 223 0060 1846     		mov	r0, r3
 224 0062 796D     		ldr	r1, [r7, #84]
 225 0064 FFF7FEFF 		bl	_ZN6Filter20setInitialDataFilterEP10DataFilter
 226 0068 04E0     		b	.L8
 227              	.L9:
 228              		.loc 3 47 0
 229 006a 3B6D     		ldr	r3, [r7, #80]
 230 006c 1846     		mov	r0, r3
 231 006e 796D     		ldr	r1, [r7, #84]
 232 0070 FFF7FEFF 		bl	_ZN6Filter20setInitialDataFilterEP10DataFilter
 233              	.L8:
 234              		.loc 3 50 0
 235 0074 3848     		ldr	r0, .L17+12
 236 0076 3949     		ldr	r1, .L17+16
 237 0078 FFF7FEFF 		bl	_ZL8chprintfP20BaseSequentialStreamPKcz
 238              		.loc 3 54 0
 239 007c 0023     		movs	r3, #0
 240 007e BB65     		str	r3, [r7, #88]
 241 0080 4DE0     		b	.L10
 242              	.L14:
 243              		.loc 3 55 0
 244 0082 41F28830 		movw	r0, #5000
 245 0086 FFF7FEFF 		bl	chThdSleep
 246              		.loc 3 56 0
 247 008a 354B     		ldr	r3, .L17+20
 248 008c 344A     		ldr	r2, .L17+20
 249 008e 5269     		ldr	r2, [r2, #20]
 250 0090 82F00402 		eor	r2, r2, #4
 251 0094 5A61     		str	r2, [r3, #20]
 252              		.loc 3 58 0
 253 0096 2F4B     		ldr	r3, .L17+8
 254 0098 1B68     		ldr	r3, [r3]
 255 009a 012B     		cmp	r3, #1
 256 009c 0CD1     		bne	.L11
 257              		.loc 3 59 0
 258 009e BB6D     		ldr	r3, [r7, #88]
 259 00a0 9B00     		lsls	r3, r3, #2
 260 00a2 07F16002 		add	r2, r7, #96
 261 00a6 1344     		add	r3, r3, r2
 262 00a8 53F8543C 		ldr	r3, [r3, #-84]	@ float
 263 00ac 386D     		ldr	r0, [r7, #80]
 264 00ae 1946     		mov	r1, r3
 265 00b0 FFF7FEFF 		bl	_ZN3IIR11directFormIEf
 266 00b4 F865     		str	r0, [r7, #92]	@ float
 267 00b6 1CE0     		b	.L12
 268              	.L11:
 269              		.loc 3 61 0
 270 00b8 264B     		ldr	r3, .L17+8
 271 00ba 1B68     		ldr	r3, [r3]
 272 00bc 002B     		cmp	r3, #0
 273 00be 0CD1     		bne	.L13
 274              		.loc 3 62 0
 275 00c0 BB6D     		ldr	r3, [r7, #88]
 276 00c2 9B00     		lsls	r3, r3, #2
 277 00c4 07F16002 		add	r2, r7, #96
ARM GAS  C:\Users\Luis\AppData\Local\Temp\ccFw6Xg2.s 			page 6


 278 00c8 1344     		add	r3, r3, r2
 279 00ca 53F8543C 		ldr	r3, [r3, #-84]	@ float
 280 00ce F86C     		ldr	r0, [r7, #76]
 281 00d0 1946     		mov	r1, r3
 282 00d2 FFF7FEFF 		bl	_ZN3FIR11directFormIEf
 283 00d6 F865     		str	r0, [r7, #92]	@ float
 284 00d8 0BE0     		b	.L12
 285              	.L13:
 286              		.loc 3 64 0
 287 00da BB6D     		ldr	r3, [r7, #88]
 288 00dc 9B00     		lsls	r3, r3, #2
 289 00de 07F16002 		add	r2, r7, #96
 290 00e2 1344     		add	r3, r3, r2
 291 00e4 53F8543C 		ldr	r3, [r3, #-84]	@ float
 292 00e8 386D     		ldr	r0, [r7, #80]
 293 00ea 1946     		mov	r1, r3
 294 00ec FFF7FEFF 		bl	_ZN3IIR12directFormIIEf
 295 00f0 F865     		str	r0, [r7, #92]	@ float
 296              	.L12:
 297              		.loc 3 67 0
 298 00f2 F86D     		ldr	r0, [r7, #92]	@ float
 299 00f4 FFF7FEFF 		bl	__aeabi_f2d
 300 00f8 0246     		mov	r2, r0
 301 00fa 0B46     		mov	r3, r1
 302 00fc 1648     		ldr	r0, .L17+12
 303 00fe 1949     		ldr	r1, .L17+24
 304 0100 FFF7FEFF 		bl	_ZL8chprintfP20BaseSequentialStreamPKcz
 305              		.loc 3 69 0
 306 0104 41F28830 		movw	r0, #5000
 307 0108 FFF7FEFF 		bl	chThdSleep
 308              		.loc 3 70 0
 309 010c 144B     		ldr	r3, .L17+20
 310 010e 144A     		ldr	r2, .L17+20
 311 0110 5269     		ldr	r2, [r2, #20]
 312 0112 82F00402 		eor	r2, r2, #4
 313 0116 5A61     		str	r2, [r3, #20]
 314              		.loc 3 54 0
 315 0118 BB6D     		ldr	r3, [r7, #88]
 316 011a 0133     		adds	r3, r3, #1
 317 011c BB65     		str	r3, [r7, #88]
 318              	.L10:
 319              		.loc 3 54 0 is_stmt 0 discriminator 1
 320 011e BB6D     		ldr	r3, [r7, #88]
 321 0120 0F2B     		cmp	r3, #15
 322 0122 AEDD     		ble	.L14
 323              		.loc 3 72 0 is_stmt 1
 324 0124 0B4B     		ldr	r3, .L17+8
 325 0126 1B68     		ldr	r3, [r3]
 326 0128 012B     		cmp	r3, #1
 327 012a 06D1     		bne	.L15
 328              		.loc 3 73 0
 329 012c 3B6D     		ldr	r3, [r7, #80]
 330 012e 1B68     		ldr	r3, [r3]
 331 0130 1B68     		ldr	r3, [r3]
 332 0132 3A6D     		ldr	r2, [r7, #80]
 333 0134 1046     		mov	r0, r2
 334 0136 9847     		blx	r3
ARM GAS  C:\Users\Luis\AppData\Local\Temp\ccFw6Xg2.s 			page 7


 335 0138 05E0     		b	.L6
 336              	.L15:
 337              		.loc 3 76 0
 338 013a FB6C     		ldr	r3, [r7, #76]
 339 013c 1B68     		ldr	r3, [r3]
 340 013e 1B68     		ldr	r3, [r3]
 341 0140 FA6C     		ldr	r2, [r7, #76]
 342 0142 1046     		mov	r0, r2
 343 0144 9847     		blx	r3
 344              	.L6:
 345              	.LBE3:
 346              		.loc 3 78 0
 347 0146 6037     		adds	r7, r7, #96
 348 0148 BD46     		mov	sp, r7
 349              		@ sp needed
 350 014a B0BD     		pop	{r4, r5, r7, pc}
 351              	.L18:
 352              		.align	2
 353              	.L17:
 354 014c 00000000 		.word	.LC3
 355 0150 1C000000 		.word	.LC0
 356 0154 00000000 		.word	TipoFiltro
 357 0158 00000000 		.word	SD1
 358 015c 08000000 		.word	.LC4
 359 0160 00180240 		.word	1073879040
 360 0164 18000000 		.word	.LC5
 361              		.cfi_endproc
 362              	.LFE261:
 363              		.size	_ZL7Thread1Pv, .-_ZL7Thread1Pv
 364 0168 AFF30080 		.section	.rodata
 364      AFF30080 
 365              		.align	2
 366              	.LC6:
 367 005c 53652068 		.ascii	"Se ha presionado SW1 \015\012\000"
 367      61207072 
 367      6573696F 
 367      6E61646F 
 367      20535731 
 368              		.align	2
 369              	.LC1:
 370 0074 FA7EAA3E 		.word	1051361018
 371 0078 FA7EAA3E 		.word	1051361018
 372 007c FA7EAA3E 		.word	1051361018
 373              		.align	2
 374              	.LC2:
 375 0080 0C022B3E 		.word	1043005964
 376 0084 0C022B3E 		.word	1043005964
 377              		.section	.text.main,"ax",%progbits
 378              		.align	2
 379              		.p2align 4,,15
 380              		.global	main
 381              		.thumb
 382              		.thumb_func
 383              		.type	main, %function
 384              	main:
 385              	.LFB262:
 386              		.loc 3 80 0
ARM GAS  C:\Users\Luis\AppData\Local\Temp\ccFw6Xg2.s 			page 8


 387              		.cfi_startproc
 388              		@ args = 0, pretend = 0, frame = 64
 389              		@ frame_needed = 1, uses_anonymous_args = 0
 390 0000 80B5     		push	{r7, lr}
 391              		.cfi_def_cfa_offset 8
 392              		.cfi_offset 7, -8
 393              		.cfi_offset 14, -4
 394 0002 94B0     		sub	sp, sp, #80
 395              		.cfi_def_cfa_offset 88
 396 0004 04AF     		add	r7, sp, #16
 397              		.cfi_def_cfa 7, 72
 398              	.LBB4:
 399              		.loc 3 82 0
 400 0006 FFF7FEFF 		bl	halInit
 401              		.loc 3 83 0
 402 000a FFF7FEFF 		bl	chSysInit
 403              		.loc 3 85 0
 404 000e 07F12403 		add	r3, r7, #36
 405 0012 0022     		movs	r2, #0
 406 0014 1A60     		str	r2, [r3]
 407 0016 0433     		adds	r3, r3, #4
 408 0018 0022     		movs	r2, #0
 409 001a 1A60     		str	r2, [r3]
 410 001c 0433     		adds	r3, r3, #4
 411 001e 0022     		movs	r2, #0
 412 0020 1A60     		str	r2, [r3]
 413 0022 0433     		adds	r3, r3, #4
 414 0024 4FF41653 		mov	r3, #9600
 415 0028 7B62     		str	r3, [r7, #36]
 416              		.loc 3 87 0
 417 002a 07F12403 		add	r3, r7, #36
 418 002e 3B48     		ldr	r0, .L25
 419 0030 1946     		mov	r1, r3
 420 0032 FFF7FEFF 		bl	sdStart
 421              		.loc 3 89 0
 422 0036 0223     		movs	r3, #2
 423 0038 FB63     		str	r3, [r7, #60]
 424              		.loc 3 91 0
 425 003a 4FF00003 		mov	r3, #0
 426 003e FB61     		str	r3, [r7, #28]	@ float
 427 0040 4FF00003 		mov	r3, #0
 428 0044 3B62     		str	r3, [r7, #32]	@ float
 429              		.loc 3 92 0
 430 0046 364A     		ldr	r2, .L25+4
 431 0048 07F11003 		add	r3, r7, #16
 432 004c 07CA     		ldmia	r2, {r0, r1, r2}
 433 004e 83E80700 		stmia	r3, {r0, r1, r2}
 434              		.loc 3 94 0
 435 0052 4FF00003 		mov	r3, #0
 436 0056 BB60     		str	r3, [r7, #8]	@ float
 437 0058 4FF00003 		mov	r3, #0
 438 005c FB60     		str	r3, [r7, #12]	@ float
 439              		.loc 3 95 0
 440 005e 314A     		ldr	r2, .L25+8
 441 0060 3B46     		mov	r3, r7
 442 0062 92E80300 		ldmia	r2, {r0, r1}
 443 0066 83E80300 		stmia	r3, {r0, r1}
ARM GAS  C:\Users\Luis\AppData\Local\Temp\ccFw6Xg2.s 			page 9


 444              		.loc 3 98 0
 445 006a 0020     		movs	r0, #0
 446 006c 2821     		movs	r1, #40
 447 006e FFF7FEFF 		bl	chHeapAlloc
 448 0072 B863     		str	r0, [r7, #56]
 449              		.loc 3 101 0
 450 0074 0123     		movs	r3, #1
 451 0076 7B63     		str	r3, [r7, #52]
 452              		.loc 3 102 0
 453 0078 2B4B     		ldr	r3, .L25+12
 454 007a 1B68     		ldr	r3, [r3]
 455 007c 012B     		cmp	r3, #1
 456 007e 0FD1     		bne	.L20
 457              		.loc 3 105 0
 458 0080 07F11C02 		add	r2, r7, #28
 459 0084 07F11003 		add	r3, r7, #16
 460 0088 07F10801 		add	r1, r7, #8
 461 008c 0091     		str	r1, [sp]
 462 008e 3946     		mov	r1, r7
 463 0090 0191     		str	r1, [sp, #4]
 464 0092 796B     		ldr	r1, [r7, #52]
 465 0094 0291     		str	r1, [sp, #8]
 466 0096 B86B     		ldr	r0, [r7, #56]
 467 0098 F96B     		ldr	r1, [r7, #60]
 468 009a FFF7FEFF 		bl	_ZN10DataFilter13newDataFilterEiPfS0_S0_S0_i
 469 009e 1AE0     		b	.L21
 470              	.L20:
 471              		.loc 3 106 0
 472 00a0 214B     		ldr	r3, .L25+12
 473 00a2 1B68     		ldr	r3, [r3]
 474 00a4 002B     		cmp	r3, #0
 475 00a6 0AD1     		bne	.L22
 476              		.loc 3 109 0
 477 00a8 07F11C02 		add	r2, r7, #28
 478 00ac 07F11003 		add	r3, r7, #16
 479 00b0 796B     		ldr	r1, [r7, #52]
 480 00b2 0091     		str	r1, [sp]
 481 00b4 B86B     		ldr	r0, [r7, #56]
 482 00b6 F96B     		ldr	r1, [r7, #60]
 483 00b8 FFF7FEFF 		bl	_ZN10DataFilter13newDataFilterEiPfS0_i
 484 00bc 0BE0     		b	.L21
 485              	.L22:
 486              		.loc 3 112 0
 487 00be 07F11C02 		add	r2, r7, #28
 488 00c2 07F11003 		add	r3, r7, #16
 489 00c6 3946     		mov	r1, r7
 490 00c8 0091     		str	r1, [sp]
 491 00ca 796B     		ldr	r1, [r7, #52]
 492 00cc 0191     		str	r1, [sp, #4]
 493 00ce B86B     		ldr	r0, [r7, #56]
 494 00d0 F96B     		ldr	r1, [r7, #60]
 495 00d2 FFF7FEFF 		bl	_ZN10DataFilter13newDataFilterEiPfS0_S0_i
 496              	.L21:
 497              		.loc 3 116 0
 498 00d6 BB6B     		ldr	r3, [r7, #56]
 499 00d8 3B63     		str	r3, [r7, #48]
 500              		.loc 3 118 0
ARM GAS  C:\Users\Luis\AppData\Local\Temp\ccFw6Xg2.s 			page 10


 501 00da 3B6B     		ldr	r3, [r7, #48]
 502 00dc 0093     		str	r3, [sp]
 503 00de 1348     		ldr	r0, .L25+16
 504 00e0 4FF4F871 		mov	r1, #496
 505 00e4 4022     		movs	r2, #64
 506 00e6 124B     		ldr	r3, .L25+20
 507 00e8 FFF7FEFF 		bl	chThdCreateStatic
 508              	.L24:
 509              		.loc 3 121 0
 510 00ec 114B     		ldr	r3, .L25+24
 511 00ee 1B69     		ldr	r3, [r3, #16]
 512 00f0 03F40043 		and	r3, r3, #32768
 513 00f4 002B     		cmp	r3, #0
 514 00f6 0CBF     		ite	eq
 515 00f8 0023     		moveq	r3, #0
 516 00fa 0123     		movne	r3, #1
 517 00fc DBB2     		uxtb	r3, r3
 518 00fe 002B     		cmp	r3, #0
 519 0100 07D0     		beq	.L23
 520              		.loc 3 123 0
 521 0102 0648     		ldr	r0, .L25
 522 0104 0C49     		ldr	r1, .L25+28
 523 0106 FFF7FEFF 		bl	_ZL8chprintfP20BaseSequentialStreamPKcz
 524              		.loc 3 124 0
 525 010a 4FF4FA60 		mov	r0, #2000
 526 010e FFF7FEFF 		bl	chThdSleep
 527              	.L23:
 528              		.loc 3 126 0
 529 0112 4FF4FA60 		mov	r0, #2000
 530 0116 FFF7FEFF 		bl	chThdSleep
 531              		.loc 3 127 0
 532 011a E7E7     		b	.L24
 533              	.L26:
 534              		.align	2
 535              	.L25:
 536 011c 00000000 		.word	SD1
 537 0120 74000000 		.word	.LC1
 538 0124 80000000 		.word	.LC2
 539 0128 00000000 		.word	TipoFiltro
 540 012c 00000000 		.word	_ZL9waThread1
 541 0130 00000000 		.word	_ZL7Thread1Pv
 542 0134 00180240 		.word	1073879040
 543 0138 5C000000 		.word	.LC6
 544              	.LBE4:
 545              		.cfi_endproc
 546              	.LFE262:
 547              		.size	main, .-main
 548 013c AFF30080 		.text
 549              	.Letext0:
 550              		.file 4 "c:\\emtechesdk\\gcc\\lib\\gcc\\arm-none-eabi\\4.8.3\\include\\stddef.h"
 551              		.file 5 "c:\\emtechesdk\\gcc\\arm-none-eabi\\include\\stdint.h"
 552              		.file 6 "../../ChibiOS/os/rt/ports/ARMCMx/compilers/GCC/chtypes.h"
 553              		.file 7 "../../ChibiOS/os/rt/include/chsystypes.h"
 554              		.file 8 "../../ChibiOS/os/rt/include/chschd.h"
 555              		.file 9 "../../ChibiOS/os/ext/CMSIS/ST/stm32f407xx.h"
 556              		.file 10 "../../ChibiOS/os/ext/CMSIS/ST/stm32f4xx.h"
 557              		.file 11 "../../ChibiOS/os/rt/ports/ARMCMx/chcore.h"
ARM GAS  C:\Users\Luis\AppData\Local\Temp\ccFw6Xg2.s 			page 11


 558              		.file 12 "../../ChibiOS/os/rt/ports/ARMCMx/chcore_v7m.h"
 559              		.file 13 "../../ChibiOS/os/rt/include/chdebug.h"
 560              		.file 14 "../../ChibiOS/os/rt/include/chtm.h"
 561              		.file 15 "../../ChibiOS/os/rt/include/chstats.h"
 562              		.file 16 "../../ChibiOS/os/rt/include/chsem.h"
 563              		.file 17 "../../ChibiOS/os/rt/include/chmtx.h"
 564              		.file 18 "../../ChibiOS/os/rt/include/chevents.h"
 565              		.file 19 "../../ChibiOS/os/rt/include/chqueues.h"
 566              		.file 20 "../../ChibiOS/os/rt/include/chstreams.h"
 567              		.file 21 "../../ChibiOS/os/hal/ports/STM32/LLD/GPIOv2/pal_lld.h"
 568              		.file 22 "../../ChibiOS/os/hal/include/serial.h"
 569              		.file 23 "../../ChibiOS/os/hal/ports/STM32/LLD/USARTv1/serial_lld.h"
 570              		.file 24 "c:\\emtechesdk\\gcc\\lib\\gcc\\arm-none-eabi\\4.8.3\\include\\stdarg.h"
 571              		.file 25 "<built-in>"
 572              		.file 26 "header/DataFilter.h"
 573              		.file 27 "../../ChibiOS/os/ext/CMSIS/include/core_cm4.h"
 574              		.section	.debug_info,"",%progbits
 575              	.Ldebug_info0:
 576 0000 3F100000 		.4byte	0x103f
 577 0004 0400     		.2byte	0x4
 578 0006 00000000 		.4byte	.Ldebug_abbrev0
 579 000a 04       		.byte	0x4
 580 000b 01       		.uleb128 0x1
 581 000c 0F040000 		.4byte	.LASF234
 582 0010 04       		.byte	0x4
 583 0011 CF060000 		.4byte	.LASF235
 584 0015 49010000 		.4byte	.LASF236
 585 0019 00000000 		.4byte	.Ldebug_ranges0+0
 586 001d 00000000 		.4byte	0
 587 0021 00000000 		.4byte	.Ldebug_line0
 588 0025 02       		.uleb128 0x2
 589 0026 04       		.byte	0x4
 590 0027 05       		.byte	0x5
 591 0028 696E7400 		.ascii	"int\000"
 592 002c 03       		.uleb128 0x3
 593 002d 74030000 		.4byte	.LASF2
 594 0031 04       		.byte	0x4
 595 0032 D4       		.byte	0xd4
 596 0033 37000000 		.4byte	0x37
 597 0037 04       		.uleb128 0x4
 598 0038 04       		.byte	0x4
 599 0039 07       		.byte	0x7
 600 003a B6000000 		.4byte	.LASF0
 601 003e 04       		.uleb128 0x4
 602 003f 01       		.byte	0x1
 603 0040 06       		.byte	0x6
 604 0041 1C0A0000 		.4byte	.LASF1
 605 0045 03       		.uleb128 0x3
 606 0046 82050000 		.4byte	.LASF3
 607 004a 05       		.byte	0x5
 608 004b 2A       		.byte	0x2a
 609 004c 50000000 		.4byte	0x50
 610 0050 04       		.uleb128 0x4
 611 0051 01       		.byte	0x1
 612 0052 08       		.byte	0x8
 613 0053 8B090000 		.4byte	.LASF4
 614 0057 04       		.uleb128 0x4
ARM GAS  C:\Users\Luis\AppData\Local\Temp\ccFw6Xg2.s 			page 12


 615 0058 02       		.byte	0x2
 616 0059 05       		.byte	0x5
 617 005a EB070000 		.4byte	.LASF5
 618 005e 03       		.uleb128 0x3
 619 005f 9A070000 		.4byte	.LASF6
 620 0063 05       		.byte	0x5
 621 0064 36       		.byte	0x36
 622 0065 69000000 		.4byte	0x69
 623 0069 04       		.uleb128 0x4
 624 006a 02       		.byte	0x2
 625 006b 07       		.byte	0x7
 626 006c 80070000 		.4byte	.LASF7
 627 0070 03       		.uleb128 0x3
 628 0071 0E090000 		.4byte	.LASF8
 629 0075 05       		.byte	0x5
 630 0076 4F       		.byte	0x4f
 631 0077 7B000000 		.4byte	0x7b
 632 007b 04       		.uleb128 0x4
 633 007c 04       		.byte	0x4
 634 007d 05       		.byte	0x5
 635 007e 12080000 		.4byte	.LASF9
 636 0082 03       		.uleb128 0x3
 637 0083 F6010000 		.4byte	.LASF10
 638 0087 05       		.byte	0x5
 639 0088 50       		.byte	0x50
 640 0089 8D000000 		.4byte	0x8d
 641 008d 04       		.uleb128 0x4
 642 008e 04       		.byte	0x4
 643 008f 07       		.byte	0x7
 644 0090 07070000 		.4byte	.LASF11
 645 0094 04       		.uleb128 0x4
 646 0095 08       		.byte	0x8
 647 0096 05       		.byte	0x5
 648 0097 4F050000 		.4byte	.LASF12
 649 009b 03       		.uleb128 0x3
 650 009c 5D080000 		.4byte	.LASF13
 651 00a0 05       		.byte	0x5
 652 00a1 78       		.byte	0x78
 653 00a2 A6000000 		.4byte	0xa6
 654 00a6 04       		.uleb128 0x4
 655 00a7 08       		.byte	0x8
 656 00a8 07       		.byte	0x7
 657 00a9 9E020000 		.4byte	.LASF14
 658 00ad 05       		.uleb128 0x5
 659 00ae 70000000 		.4byte	0x70
 660 00b2 05       		.uleb128 0x5
 661 00b3 82000000 		.4byte	0x82
 662 00b7 03       		.uleb128 0x3
 663 00b8 C0070000 		.4byte	.LASF15
 664 00bc 06       		.byte	0x6
 665 00bd 45       		.byte	0x45
 666 00be 82000000 		.4byte	0x82
 667 00c2 03       		.uleb128 0x3
 668 00c3 16050000 		.4byte	.LASF16
 669 00c7 06       		.byte	0x6
 670 00c8 46       		.byte	0x46
 671 00c9 9B000000 		.4byte	0x9b
ARM GAS  C:\Users\Luis\AppData\Local\Temp\ccFw6Xg2.s 			page 13


 672 00cd 03       		.uleb128 0x3
 673 00ce 5E070000 		.4byte	.LASF17
 674 00d2 06       		.byte	0x6
 675 00d3 48       		.byte	0x48
 676 00d4 45000000 		.4byte	0x45
 677 00d8 03       		.uleb128 0x3
 678 00d9 40050000 		.4byte	.LASF18
 679 00dd 06       		.byte	0x6
 680 00de 49       		.byte	0x49
 681 00df 45000000 		.4byte	0x45
 682 00e3 03       		.uleb128 0x3
 683 00e4 C4080000 		.4byte	.LASF19
 684 00e8 06       		.byte	0x6
 685 00e9 4A       		.byte	0x4a
 686 00ea 45000000 		.4byte	0x45
 687 00ee 03       		.uleb128 0x3
 688 00ef 74020000 		.4byte	.LASF20
 689 00f3 06       		.byte	0x6
 690 00f4 4C       		.byte	0x4c
 691 00f5 82000000 		.4byte	0x82
 692 00f9 03       		.uleb128 0x3
 693 00fa 3B060000 		.4byte	.LASF21
 694 00fe 06       		.byte	0x6
 695 00ff 4D       		.byte	0x4d
 696 0100 70000000 		.4byte	0x70
 697 0104 03       		.uleb128 0x3
 698 0105 1D020000 		.4byte	.LASF22
 699 0109 06       		.byte	0x6
 700 010a 4F       		.byte	0x4f
 701 010b 82000000 		.4byte	0x82
 702 010f 03       		.uleb128 0x3
 703 0110 19070000 		.4byte	.LASF23
 704 0114 06       		.byte	0x6
 705 0115 50       		.byte	0x50
 706 0116 82000000 		.4byte	0x82
 707 011a 03       		.uleb128 0x3
 708 011b CE020000 		.4byte	.LASF24
 709 011f 06       		.byte	0x6
 710 0120 51       		.byte	0x51
 711 0121 70000000 		.4byte	0x70
 712 0125 03       		.uleb128 0x3
 713 0126 66070000 		.4byte	.LASF25
 714 012a 06       		.byte	0x6
 715 012b 52       		.byte	0x52
 716 012c 82000000 		.4byte	0x82
 717 0130 03       		.uleb128 0x3
 718 0131 7D000000 		.4byte	.LASF26
 719 0135 07       		.byte	0x7
 720 0136 33       		.byte	0x33
 721 0137 82000000 		.4byte	0x82
 722 013b 03       		.uleb128 0x3
 723 013c 36030000 		.4byte	.LASF27
 724 0140 07       		.byte	0x7
 725 0141 3F       		.byte	0x3f
 726 0142 46010000 		.4byte	0x146
 727 0146 06       		.uleb128 0x6
 728 0147 D6050000 		.4byte	.LASF57
ARM GAS  C:\Users\Luis\AppData\Local\Temp\ccFw6Xg2.s 			page 14


 729 014b 68       		.byte	0x68
 730 014c 08       		.byte	0x8
 731 014d C2       		.byte	0xc2
 732 014e B6020000 		.4byte	0x2b6
 733 0152 07       		.uleb128 0x7
 734 0153 04       		.byte	0x4
 735 0154 08       		.byte	0x8
 736 0155 FA       		.byte	0xfa
 737 0156 AF010000 		.4byte	0x1af
 738 015a 08       		.uleb128 0x8
 739 015b 7B030000 		.4byte	.LASF28
 740 015f 08       		.byte	0x8
 741 0160 0101     		.2byte	0x101
 742 0162 F9000000 		.4byte	0xf9
 743 0166 08       		.uleb128 0x8
 744 0167 C10A0000 		.4byte	.LASF29
 745 016b 08       		.byte	0x8
 746 016c 0801     		.2byte	0x108
 747 016e F9000000 		.4byte	0xf9
 748 0172 08       		.uleb128 0x8
 749 0173 29010000 		.4byte	.LASF30
 750 0177 08       		.byte	0x8
 751 0178 0F01     		.2byte	0x10f
 752 017a 9E030000 		.4byte	0x39e
 753 017e 08       		.uleb128 0x8
 754 017f F3090000 		.4byte	.LASF31
 755 0183 08       		.byte	0x8
 756 0184 1601     		.2byte	0x116
 757 0186 FC070000 		.4byte	0x7fc
 758 018a 08       		.uleb128 0x8
 759 018b 23090000 		.4byte	.LASF32
 760 018f 08       		.byte	0x8
 761 0190 1E01     		.2byte	0x11e
 762 0192 27080000 		.4byte	0x827
 763 0196 08       		.uleb128 0x8
 764 0197 A10A0000 		.4byte	.LASF33
 765 019b 08       		.byte	0x8
 766 019c 2701     		.2byte	0x127
 767 019e 5E080000 		.4byte	0x85e
 768 01a2 08       		.uleb128 0x8
 769 01a3 91010000 		.4byte	.LASF34
 770 01a7 08       		.byte	0x8
 771 01a8 2F01     		.2byte	0x12f
 772 01aa 04010000 		.4byte	0x104
 773 01ae 00       		.byte	0
 774 01af 09       		.uleb128 0x9
 775 01b0 50080000 		.4byte	.LASF35
 776 01b4 08       		.byte	0x8
 777 01b5 C3       		.byte	0xc3
 778 01b6 C1020000 		.4byte	0x2c1
 779 01ba 00       		.byte	0
 780 01bb 09       		.uleb128 0x9
 781 01bc AD080000 		.4byte	.LASF36
 782 01c0 08       		.byte	0x8
 783 01c1 C5       		.byte	0xc5
 784 01c2 C1020000 		.4byte	0x2c1
 785 01c6 04       		.byte	0x4
ARM GAS  C:\Users\Luis\AppData\Local\Temp\ccFw6Xg2.s 			page 15


 786 01c7 09       		.uleb128 0x9
 787 01c8 69000000 		.4byte	.LASF37
 788 01cc 08       		.byte	0x8
 789 01cd C7       		.byte	0xc7
 790 01ce EE000000 		.4byte	0xee
 791 01d2 08       		.byte	0x8
 792 01d3 09       		.uleb128 0x9
 793 01d4 66080000 		.4byte	.LASF38
 794 01d8 08       		.byte	0x8
 795 01d9 C8       		.byte	0xc8
 796 01da 09060000 		.4byte	0x609
 797 01de 0C       		.byte	0xc
 798 01df 09       		.uleb128 0x9
 799 01e0 06030000 		.4byte	.LASF39
 800 01e4 08       		.byte	0x8
 801 01e5 CA       		.byte	0xca
 802 01e6 C1020000 		.4byte	0x2c1
 803 01ea 10       		.byte	0x10
 804 01eb 09       		.uleb128 0x9
 805 01ec 5D050000 		.4byte	.LASF40
 806 01f0 08       		.byte	0x8
 807 01f1 CB       		.byte	0xcb
 808 01f2 C1020000 		.4byte	0x2c1
 809 01f6 14       		.byte	0x14
 810 01f7 09       		.uleb128 0x9
 811 01f8 F3030000 		.4byte	.LASF41
 812 01fc 08       		.byte	0x8
 813 01fd D2       		.byte	0xd2
 814 01fe 64080000 		.4byte	0x864
 815 0202 18       		.byte	0x18
 816 0203 09       		.uleb128 0x9
 817 0204 77050000 		.4byte	.LASF42
 818 0208 08       		.byte	0x8
 819 0209 D8       		.byte	0xd8
 820 020a 76080000 		.4byte	0x876
 821 020e 1C       		.byte	0x1c
 822 020f 09       		.uleb128 0x9
 823 0210 CE050000 		.4byte	.LASF43
 824 0214 08       		.byte	0x8
 825 0215 DD       		.byte	0xdd
 826 0216 D8000000 		.4byte	0xd8
 827 021a 20       		.byte	0x20
 828 021b 09       		.uleb128 0x9
 829 021c 6C060000 		.4byte	.LASF44
 830 0220 08       		.byte	0x8
 831 0221 E1       		.byte	0xe1
 832 0222 CD000000 		.4byte	0xcd
 833 0226 21       		.byte	0x21
 834 0227 09       		.uleb128 0x9
 835 0228 CA090000 		.4byte	.LASF45
 836 022c 08       		.byte	0x8
 837 022d E6       		.byte	0xe6
 838 022e E3000000 		.4byte	0xe3
 839 0232 22       		.byte	0x22
 840 0233 0A       		.uleb128 0xa
 841 0234 705F7500 		.ascii	"p_u\000"
 842 0238 08       		.byte	0x8
ARM GAS  C:\Users\Luis\AppData\Local\Temp\ccFw6Xg2.s 			page 16


 843 0239 3101     		.2byte	0x131
 844 023b 52010000 		.4byte	0x152
 845 023f 24       		.byte	0x24
 846 0240 0B       		.uleb128 0xb
 847 0241 E8000000 		.4byte	.LASF46
 848 0245 08       		.byte	0x8
 849 0246 3601     		.2byte	0x136
 850 0248 C7020000 		.4byte	0x2c7
 851 024c 28       		.byte	0x28
 852 024d 0B       		.uleb128 0xb
 853 024e 9A000000 		.4byte	.LASF47
 854 0252 08       		.byte	0x8
 855 0253 3C01     		.2byte	0x13c
 856 0255 EB020000 		.4byte	0x2eb
 857 0259 2C       		.byte	0x2c
 858 025a 0B       		.uleb128 0xb
 859 025b 43070000 		.4byte	.LASF48
 860 025f 08       		.byte	0x8
 861 0260 4001     		.2byte	0x140
 862 0262 F9000000 		.4byte	0xf9
 863 0266 34       		.byte	0x34
 864 0267 0B       		.uleb128 0xb
 865 0268 FF070000 		.4byte	.LASF49
 866 026c 08       		.byte	0x8
 867 026d 4601     		.2byte	0x146
 868 026f 04010000 		.4byte	0x104
 869 0273 38       		.byte	0x38
 870 0274 0B       		.uleb128 0xb
 871 0275 B2050000 		.4byte	.LASF50
 872 0279 08       		.byte	0x8
 873 027a 4D01     		.2byte	0x14d
 874 027c 5E080000 		.4byte	0x85e
 875 0280 3C       		.byte	0x3c
 876 0281 0B       		.uleb128 0xb
 877 0282 E0070000 		.4byte	.LASF51
 878 0286 08       		.byte	0x8
 879 0287 5101     		.2byte	0x151
 880 0289 EE000000 		.4byte	0xee
 881 028d 40       		.byte	0x40
 882 028e 0B       		.uleb128 0xb
 883 028f AA050000 		.4byte	.LASF52
 884 0293 08       		.byte	0x8
 885 0294 5801     		.2byte	0x158
 886 0296 9E030000 		.4byte	0x39e
 887 029a 44       		.byte	0x44
 888 029b 0B       		.uleb128 0xb
 889 029c 94050000 		.4byte	.LASF53
 890 02a0 08       		.byte	0x8
 891 02a1 5E01     		.2byte	0x15e
 892 02a3 A9070000 		.4byte	0x7a9
 893 02a7 48       		.byte	0x48
 894 02a8 0B       		.uleb128 0xb
 895 02a9 4D0A0000 		.4byte	.LASF54
 896 02ad 08       		.byte	0x8
 897 02ae 6201     		.2byte	0x162
 898 02b0 9E030000 		.4byte	0x39e
 899 02b4 60       		.byte	0x60
ARM GAS  C:\Users\Luis\AppData\Local\Temp\ccFw6Xg2.s 			page 17


 900 02b5 00       		.byte	0
 901 02b6 03       		.uleb128 0x3
 902 02b7 43000000 		.4byte	.LASF55
 903 02bb 07       		.byte	0x7
 904 02bc 44       		.byte	0x44
 905 02bd C1020000 		.4byte	0x2c1
 906 02c1 0C       		.uleb128 0xc
 907 02c2 04       		.byte	0x4
 908 02c3 3B010000 		.4byte	0x13b
 909 02c7 03       		.uleb128 0x3
 910 02c8 CE000000 		.4byte	.LASF56
 911 02cc 07       		.byte	0x7
 912 02cd 49       		.byte	0x49
 913 02ce D2020000 		.4byte	0x2d2
 914 02d2 06       		.uleb128 0x6
 915 02d3 00000000 		.4byte	.LASF58
 916 02d7 04       		.byte	0x4
 917 02d8 08       		.byte	0x8
 918 02d9 B0       		.byte	0xb0
 919 02da EB020000 		.4byte	0x2eb
 920 02de 09       		.uleb128 0x9
 921 02df 50080000 		.4byte	.LASF35
 922 02e3 08       		.byte	0x8
 923 02e4 B1       		.byte	0xb1
 924 02e5 C1020000 		.4byte	0x2c1
 925 02e9 00       		.byte	0
 926 02ea 00       		.byte	0
 927 02eb 03       		.uleb128 0x3
 928 02ec 10000000 		.4byte	.LASF59
 929 02f0 07       		.byte	0x7
 930 02f1 50       		.byte	0x50
 931 02f2 F6020000 		.4byte	0x2f6
 932 02f6 06       		.uleb128 0x6
 933 02f7 05060000 		.4byte	.LASF60
 934 02fb 08       		.byte	0x8
 935 02fc 08       		.byte	0x8
 936 02fd B7       		.byte	0xb7
 937 02fe 1B030000 		.4byte	0x31b
 938 0302 09       		.uleb128 0x9
 939 0303 50080000 		.4byte	.LASF35
 940 0307 08       		.byte	0x8
 941 0308 B8       		.byte	0xb8
 942 0309 C1020000 		.4byte	0x2c1
 943 030d 00       		.byte	0
 944 030e 09       		.uleb128 0x9
 945 030f AD080000 		.4byte	.LASF36
 946 0313 08       		.byte	0x8
 947 0314 B9       		.byte	0xb9
 948 0315 C1020000 		.4byte	0x2c1
 949 0319 04       		.byte	0x4
 950 031a 00       		.byte	0
 951 031b 03       		.uleb128 0x3
 952 031c F0080000 		.4byte	.LASF61
 953 0320 07       		.byte	0x7
 954 0321 57       		.byte	0x57
 955 0322 26030000 		.4byte	0x326
 956 0326 0D       		.uleb128 0xd
ARM GAS  C:\Users\Luis\AppData\Local\Temp\ccFw6Xg2.s 			page 18


 957 0327 98010000 		.4byte	.LASF62
 958 032b 1C       		.byte	0x1c
 959 032c 08       		.byte	0x8
 960 032d 9001     		.2byte	0x190
 961 032f 82030000 		.4byte	0x382
 962 0333 0B       		.uleb128 0xb
 963 0334 2B060000 		.4byte	.LASF63
 964 0338 08       		.byte	0x8
 965 0339 9101     		.2byte	0x191
 966 033b EB020000 		.4byte	0x2eb
 967 033f 00       		.byte	0
 968 0340 0B       		.uleb128 0xb
 969 0341 29020000 		.4byte	.LASF64
 970 0345 08       		.byte	0x8
 971 0346 9201     		.2byte	0x192
 972 0348 EE000000 		.4byte	0xee
 973 034c 08       		.byte	0x8
 974 034d 0B       		.uleb128 0xb
 975 034e 470A0000 		.4byte	.LASF65
 976 0352 08       		.byte	0x8
 977 0353 9401     		.2byte	0x194
 978 0355 09060000 		.4byte	0x609
 979 0359 0C       		.byte	0xc
 980 035a 0B       		.uleb128 0xb
 981 035b 33060000 		.4byte	.LASF66
 982 035f 08       		.byte	0x8
 983 0360 9701     		.2byte	0x197
 984 0362 C1020000 		.4byte	0x2c1
 985 0366 10       		.byte	0x10
 986 0367 0B       		.uleb128 0xb
 987 0368 F4060000 		.4byte	.LASF67
 988 036c 08       		.byte	0x8
 989 036d 9801     		.2byte	0x198
 990 036f C1020000 		.4byte	0x2c1
 991 0373 14       		.byte	0x14
 992 0374 0B       		.uleb128 0xb
 993 0375 F5070000 		.4byte	.LASF68
 994 0379 08       		.byte	0x8
 995 037a 9B01     		.2byte	0x19b
 996 037c C1020000 		.4byte	0x2c1
 997 0380 18       		.byte	0x18
 998 0381 00       		.byte	0
 999 0382 03       		.uleb128 0x3
 1000 0383 B5010000 		.4byte	.LASF69
 1001 0387 07       		.byte	0x7
 1002 0388 5C       		.byte	0x5c
 1003 0389 8D030000 		.4byte	0x38d
 1004 038d 0C       		.uleb128 0xc
 1005 038e 04       		.byte	0x4
 1006 038f 93030000 		.4byte	0x393
 1007 0393 0E       		.uleb128 0xe
 1008 0394 9E030000 		.4byte	0x39e
 1009 0398 0F       		.uleb128 0xf
 1010 0399 9E030000 		.4byte	0x39e
 1011 039d 00       		.byte	0
 1012 039e 10       		.uleb128 0x10
 1013 039f 04       		.byte	0x4
ARM GAS  C:\Users\Luis\AppData\Local\Temp\ccFw6Xg2.s 			page 19


 1014 03a0 03       		.uleb128 0x3
 1015 03a1 79060000 		.4byte	.LASF70
 1016 03a5 07       		.byte	0x7
 1017 03a6 61       		.byte	0x61
 1018 03a7 AB030000 		.4byte	0x3ab
 1019 03ab 0D       		.uleb128 0xd
 1020 03ac 7C020000 		.4byte	.LASF71
 1021 03b0 14       		.byte	0x14
 1022 03b1 08       		.byte	0x8
 1023 03b2 6B01     		.2byte	0x16b
 1024 03b4 FA030000 		.4byte	0x3fa
 1025 03b8 0B       		.uleb128 0xb
 1026 03b9 D7090000 		.4byte	.LASF72
 1027 03bd 08       		.byte	0x8
 1028 03be 6C01     		.2byte	0x16c
 1029 03c0 7C080000 		.4byte	0x87c
 1030 03c4 00       		.byte	0
 1031 03c5 0B       		.uleb128 0xb
 1032 03c6 610A0000 		.4byte	.LASF73
 1033 03ca 08       		.byte	0x8
 1034 03cb 6D01     		.2byte	0x16d
 1035 03cd 7C080000 		.4byte	0x87c
 1036 03d1 04       		.byte	0x4
 1037 03d2 0B       		.uleb128 0xb
 1038 03d3 05050000 		.4byte	.LASF74
 1039 03d7 08       		.byte	0x8
 1040 03d8 6E01     		.2byte	0x16e
 1041 03da 30010000 		.4byte	0x130
 1042 03de 08       		.byte	0x8
 1043 03df 0B       		.uleb128 0xb
 1044 03e0 590A0000 		.4byte	.LASF75
 1045 03e4 08       		.byte	0x8
 1046 03e5 6F01     		.2byte	0x16f
 1047 03e7 82030000 		.4byte	0x382
 1048 03eb 0C       		.byte	0xc
 1049 03ec 0B       		.uleb128 0xb
 1050 03ed 4A020000 		.4byte	.LASF76
 1051 03f1 08       		.byte	0x8
 1052 03f2 7101     		.2byte	0x171
 1053 03f4 9E030000 		.4byte	0x39e
 1054 03f8 10       		.byte	0x10
 1055 03f9 00       		.byte	0
 1056 03fa 03       		.uleb128 0x3
 1057 03fb 99090000 		.4byte	.LASF77
 1058 03ff 07       		.byte	0x7
 1059 0400 66       		.byte	0x66
 1060 0401 05040000 		.4byte	0x405
 1061 0405 0D       		.uleb128 0xd
 1062 0406 1F030000 		.4byte	.LASF78
 1063 040a 10       		.byte	0x10
 1064 040b 08       		.byte	0x8
 1065 040c 7B01     		.2byte	0x17b
 1066 040e 47040000 		.4byte	0x447
 1067 0412 0B       		.uleb128 0xb
 1068 0413 D7090000 		.4byte	.LASF72
 1069 0417 08       		.byte	0x8
 1070 0418 7C01     		.2byte	0x17c
ARM GAS  C:\Users\Luis\AppData\Local\Temp\ccFw6Xg2.s 			page 20


 1071 041a 7C080000 		.4byte	0x87c
 1072 041e 00       		.byte	0
 1073 041f 0B       		.uleb128 0xb
 1074 0420 610A0000 		.4byte	.LASF73
 1075 0424 08       		.byte	0x8
 1076 0425 7E01     		.2byte	0x17e
 1077 0427 7C080000 		.4byte	0x87c
 1078 042b 04       		.byte	0x4
 1079 042c 0B       		.uleb128 0xb
 1080 042d 05050000 		.4byte	.LASF74
 1081 0431 08       		.byte	0x8
 1082 0432 8001     		.2byte	0x180
 1083 0434 30010000 		.4byte	0x130
 1084 0438 08       		.byte	0x8
 1085 0439 0B       		.uleb128 0xb
 1086 043a 1F050000 		.4byte	.LASF79
 1087 043e 08       		.byte	0x8
 1088 043f 8801     		.2byte	0x188
 1089 0441 30010000 		.4byte	0x130
 1090 0445 0C       		.byte	0xc
 1091 0446 00       		.byte	0
 1092 0447 03       		.uleb128 0x3
 1093 0448 F6050000 		.4byte	.LASF80
 1094 044c 07       		.byte	0x7
 1095 044d 6B       		.byte	0x6b
 1096 044e 52040000 		.4byte	0x452
 1097 0452 11       		.uleb128 0x11
 1098 0453 D1010000 		.4byte	.LASF81
 1099 0457 1404     		.2byte	0x414
 1100 0459 08       		.byte	0x8
 1101 045a A201     		.2byte	0x1a2
 1102 045c 95040000 		.4byte	0x495
 1103 0460 0B       		.uleb128 0xb
 1104 0461 26070000 		.4byte	.LASF82
 1105 0465 08       		.byte	0x8
 1106 0466 AA01     		.2byte	0x1aa
 1107 0468 82080000 		.4byte	0x882
 1108 046c 00       		.byte	0
 1109 046d 0B       		.uleb128 0xb
 1110 046e E6020000 		.4byte	.LASF83
 1111 0472 08       		.byte	0x8
 1112 0473 AF01     		.2byte	0x1af
 1113 0475 1A010000 		.4byte	0x11a
 1114 0479 04       		.byte	0x4
 1115 047a 0B       		.uleb128 0xb
 1116 047b D1070000 		.4byte	.LASF84
 1117 047f 08       		.byte	0x8
 1118 0480 B301     		.2byte	0x1b3
 1119 0482 1A010000 		.4byte	0x11a
 1120 0486 08       		.byte	0x8
 1121 0487 0B       		.uleb128 0xb
 1122 0488 16090000 		.4byte	.LASF85
 1123 048c 08       		.byte	0x8
 1124 048d B901     		.2byte	0x1b9
 1125 048f 33070000 		.4byte	0x733
 1126 0493 0C       		.byte	0xc
 1127 0494 00       		.byte	0
ARM GAS  C:\Users\Luis\AppData\Local\Temp\ccFw6Xg2.s 			page 21


 1128 0495 03       		.uleb128 0x3
 1129 0496 E7090000 		.4byte	.LASF86
 1130 049a 07       		.byte	0x7
 1131 049b 70       		.byte	0x70
 1132 049c A0040000 		.4byte	0x4a0
 1133 04a0 11       		.uleb128 0x11
 1134 04a1 34080000 		.4byte	.LASF87
 1135 04a5 E805     		.2byte	0x5e8
 1136 04a7 08       		.byte	0x8
 1137 04a8 C201     		.2byte	0x1c2
 1138 04aa 0D050000 		.4byte	0x50d
 1139 04ae 0B       		.uleb128 0xb
 1140 04af 6C080000 		.4byte	.LASF88
 1141 04b3 08       		.byte	0x8
 1142 04b4 C601     		.2byte	0x1c6
 1143 04b6 1B030000 		.4byte	0x31b
 1144 04ba 00       		.byte	0
 1145 04bb 0B       		.uleb128 0xb
 1146 04bc 30010000 		.4byte	.LASF89
 1147 04c0 08       		.byte	0x8
 1148 04c1 CA01     		.2byte	0x1ca
 1149 04c3 FA030000 		.4byte	0x3fa
 1150 04c7 1C       		.byte	0x1c
 1151 04c8 0A       		.uleb128 0xa
 1152 04c9 64626700 		.ascii	"dbg\000"
 1153 04cd 08       		.byte	0x8
 1154 04ce CE01     		.2byte	0x1ce
 1155 04d0 47040000 		.4byte	0x447
 1156 04d4 2C       		.byte	0x2c
 1157 04d5 12       		.uleb128 0x12
 1158 04d6 6D070000 		.4byte	.LASF90
 1159 04da 08       		.byte	0x8
 1160 04db D201     		.2byte	0x1d2
 1161 04dd 3B010000 		.4byte	0x13b
 1162 04e1 4004     		.2byte	0x440
 1163 04e3 13       		.uleb128 0x13
 1164 04e4 746D00   		.ascii	"tm\000"
 1165 04e7 08       		.byte	0x8
 1166 04e8 D701     		.2byte	0x1d7
 1167 04ea 57070000 		.4byte	0x757
 1168 04ee A804     		.2byte	0x4a8
 1169 04f0 12       		.uleb128 0x12
 1170 04f1 3D020000 		.4byte	.LASF91
 1171 04f5 08       		.byte	0x8
 1172 04f6 DD01     		.2byte	0x1dd
 1173 04f8 F1070000 		.4byte	0x7f1
 1174 04fc B004     		.2byte	0x4b0
 1175 04fe 12       		.uleb128 0x12
 1176 04ff 82010000 		.4byte	.LASF92
 1177 0503 08       		.byte	0x8
 1178 0504 E301     		.2byte	0x1e3
 1179 0506 87080000 		.4byte	0x887
 1180 050a E804     		.2byte	0x4e8
 1181 050c 00       		.byte	0
 1182 050d 04       		.uleb128 0x4
 1183 050e 04       		.byte	0x4
 1184 050f 07       		.byte	0x7
ARM GAS  C:\Users\Luis\AppData\Local\Temp\ccFw6Xg2.s 			page 22


 1185 0510 BB080000 		.4byte	.LASF93
 1186 0514 14       		.uleb128 0x14
 1187 0515 1C       		.byte	0x1c
 1188 0516 09       		.byte	0x9
 1189 0517 0A03     		.2byte	0x30a
 1190 0519 A80A0000 		.4byte	.LASF237
 1191 051d 7B050000 		.4byte	0x57b
 1192 0521 0A       		.uleb128 0xa
 1193 0522 535200   		.ascii	"SR\000"
 1194 0525 09       		.byte	0x9
 1195 0526 0B03     		.2byte	0x30b
 1196 0528 B2000000 		.4byte	0xb2
 1197 052c 00       		.byte	0
 1198 052d 0A       		.uleb128 0xa
 1199 052e 445200   		.ascii	"DR\000"
 1200 0531 09       		.byte	0x9
 1201 0532 0C03     		.2byte	0x30c
 1202 0534 B2000000 		.4byte	0xb2
 1203 0538 04       		.byte	0x4
 1204 0539 0A       		.uleb128 0xa
 1205 053a 42525200 		.ascii	"BRR\000"
 1206 053e 09       		.byte	0x9
 1207 053f 0D03     		.2byte	0x30d
 1208 0541 B2000000 		.4byte	0xb2
 1209 0545 08       		.byte	0x8
 1210 0546 0A       		.uleb128 0xa
 1211 0547 43523100 		.ascii	"CR1\000"
 1212 054b 09       		.byte	0x9
 1213 054c 0E03     		.2byte	0x30e
 1214 054e B2000000 		.4byte	0xb2
 1215 0552 0C       		.byte	0xc
 1216 0553 0A       		.uleb128 0xa
 1217 0554 43523200 		.ascii	"CR2\000"
 1218 0558 09       		.byte	0x9
 1219 0559 0F03     		.2byte	0x30f
 1220 055b B2000000 		.4byte	0xb2
 1221 055f 10       		.byte	0x10
 1222 0560 0A       		.uleb128 0xa
 1223 0561 43523300 		.ascii	"CR3\000"
 1224 0565 09       		.byte	0x9
 1225 0566 1003     		.2byte	0x310
 1226 0568 B2000000 		.4byte	0xb2
 1227 056c 14       		.byte	0x14
 1228 056d 0B       		.uleb128 0xb
 1229 056e 18020000 		.4byte	.LASF94
 1230 0572 09       		.byte	0x9
 1231 0573 1103     		.2byte	0x311
 1232 0575 B2000000 		.4byte	0xb2
 1233 0579 18       		.byte	0x18
 1234 057a 00       		.byte	0
 1235 057b 15       		.uleb128 0x15
 1236 057c B5030000 		.4byte	.LASF95
 1237 0580 09       		.byte	0x9
 1238 0581 1203     		.2byte	0x312
 1239 0583 14050000 		.4byte	0x514
 1240 0587 16       		.uleb128 0x16
 1241 0588 01       		.byte	0x1
ARM GAS  C:\Users\Luis\AppData\Local\Temp\ccFw6Xg2.s 			page 23


 1242 0589 0A       		.byte	0xa
 1243 058a 9B       		.byte	0x9b
 1244 058b 840A0000 		.4byte	.LASF98
 1245 058f A0050000 		.4byte	0x5a0
 1246 0593 17       		.uleb128 0x17
 1247 0594 57080000 		.4byte	.LASF96
 1248 0598 00       		.sleb128 0
 1249 0599 18       		.uleb128 0x18
 1250 059a 53455400 		.ascii	"SET\000"
 1251 059e 01       		.sleb128 1
 1252 059f 00       		.byte	0
 1253 05a0 03       		.uleb128 0x3
 1254 05a1 3E010000 		.4byte	.LASF97
 1255 05a5 0A       		.byte	0xa
 1256 05a6 9E       		.byte	0x9e
 1257 05a7 87050000 		.4byte	0x587
 1258 05ab 16       		.uleb128 0x16
 1259 05ac 01       		.byte	0x1
 1260 05ad 0A       		.byte	0xa
 1261 05ae A1       		.byte	0xa1
 1262 05af BC050000 		.4byte	.LASF99
 1263 05b3 C4050000 		.4byte	0x5c4
 1264 05b7 17       		.uleb128 0x17
 1265 05b8 0E050000 		.4byte	.LASF100
 1266 05bc 00       		.sleb128 0
 1267 05bd 17       		.uleb128 0x17
 1268 05be B4080000 		.4byte	.LASF101
 1269 05c2 01       		.sleb128 1
 1270 05c3 00       		.byte	0
 1271 05c4 03       		.uleb128 0x3
 1272 05c5 DF060000 		.4byte	.LASF102
 1273 05c9 0A       		.byte	0xa
 1274 05ca A4       		.byte	0xa4
 1275 05cb AB050000 		.4byte	0x5ab
 1276 05cf 16       		.uleb128 0x16
 1277 05d0 01       		.byte	0x1
 1278 05d1 0A       		.byte	0xa
 1279 05d2 A8       		.byte	0xa8
 1280 05d3 E1010000 		.4byte	.LASF103
 1281 05d7 E8050000 		.4byte	0x5e8
 1282 05db 17       		.uleb128 0x17
 1283 05dc 92080000 		.4byte	.LASF104
 1284 05e0 00       		.sleb128 0
 1285 05e1 17       		.uleb128 0x17
 1286 05e2 FD040000 		.4byte	.LASF105
 1287 05e6 01       		.sleb128 1
 1288 05e7 00       		.byte	0
 1289 05e8 03       		.uleb128 0x3
 1290 05e9 F2000000 		.4byte	.LASF106
 1291 05ed 0A       		.byte	0xa
 1292 05ee AB       		.byte	0xab
 1293 05ef CF050000 		.4byte	0x5cf
 1294 05f3 03       		.uleb128 0x3
 1295 05f4 60000000 		.4byte	.LASF107
 1296 05f8 0B       		.byte	0xb
 1297 05f9 65       		.byte	0x65
 1298 05fa 9E030000 		.4byte	0x39e
ARM GAS  C:\Users\Luis\AppData\Local\Temp\ccFw6Xg2.s 			page 24


 1299 05fe 03       		.uleb128 0x3
 1300 05ff BF090000 		.4byte	.LASF108
 1301 0603 0B       		.byte	0xb
 1302 0604 6D       		.byte	0x6d
 1303 0605 9B000000 		.4byte	0x9b
 1304 0609 06       		.uleb128 0x6
 1305 060a 41060000 		.4byte	.LASF109
 1306 060e 04       		.byte	0x4
 1307 060f 0B       		.byte	0xb
 1308 0610 89       		.byte	0x89
 1309 0611 22060000 		.4byte	0x622
 1310 0615 19       		.uleb128 0x19
 1311 0616 72313300 		.ascii	"r13\000"
 1312 061a 0B       		.byte	0xb
 1313 061b 8A       		.byte	0x8a
 1314 061c 9D060000 		.4byte	0x69d
 1315 0620 00       		.byte	0
 1316 0621 00       		.byte	0
 1317 0622 06       		.uleb128 0x6
 1318 0623 1B080000 		.4byte	.LASF110
 1319 0627 24       		.byte	0x24
 1320 0628 0C       		.byte	0xc
 1321 0629 F4       		.byte	0xf4
 1322 062a 9D060000 		.4byte	0x69d
 1323 062e 0A       		.uleb128 0xa
 1324 062f 723400   		.ascii	"r4\000"
 1325 0632 0C       		.byte	0xc
 1326 0633 0701     		.2byte	0x107
 1327 0635 F3050000 		.4byte	0x5f3
 1328 0639 00       		.byte	0
 1329 063a 0A       		.uleb128 0xa
 1330 063b 723500   		.ascii	"r5\000"
 1331 063e 0C       		.byte	0xc
 1332 063f 0801     		.2byte	0x108
 1333 0641 F3050000 		.4byte	0x5f3
 1334 0645 04       		.byte	0x4
 1335 0646 0A       		.uleb128 0xa
 1336 0647 723600   		.ascii	"r6\000"
 1337 064a 0C       		.byte	0xc
 1338 064b 0901     		.2byte	0x109
 1339 064d F3050000 		.4byte	0x5f3
 1340 0651 08       		.byte	0x8
 1341 0652 0A       		.uleb128 0xa
 1342 0653 723700   		.ascii	"r7\000"
 1343 0656 0C       		.byte	0xc
 1344 0657 0A01     		.2byte	0x10a
 1345 0659 F3050000 		.4byte	0x5f3
 1346 065d 0C       		.byte	0xc
 1347 065e 0A       		.uleb128 0xa
 1348 065f 723800   		.ascii	"r8\000"
 1349 0662 0C       		.byte	0xc
 1350 0663 0B01     		.2byte	0x10b
 1351 0665 F3050000 		.4byte	0x5f3
 1352 0669 10       		.byte	0x10
 1353 066a 0A       		.uleb128 0xa
 1354 066b 723900   		.ascii	"r9\000"
 1355 066e 0C       		.byte	0xc
ARM GAS  C:\Users\Luis\AppData\Local\Temp\ccFw6Xg2.s 			page 25


 1356 066f 0C01     		.2byte	0x10c
 1357 0671 F3050000 		.4byte	0x5f3
 1358 0675 14       		.byte	0x14
 1359 0676 0A       		.uleb128 0xa
 1360 0677 72313000 		.ascii	"r10\000"
 1361 067b 0C       		.byte	0xc
 1362 067c 0D01     		.2byte	0x10d
 1363 067e F3050000 		.4byte	0x5f3
 1364 0682 18       		.byte	0x18
 1365 0683 0A       		.uleb128 0xa
 1366 0684 72313100 		.ascii	"r11\000"
 1367 0688 0C       		.byte	0xc
 1368 0689 0E01     		.2byte	0x10e
 1369 068b F3050000 		.4byte	0x5f3
 1370 068f 1C       		.byte	0x1c
 1371 0690 0A       		.uleb128 0xa
 1372 0691 6C7200   		.ascii	"lr\000"
 1373 0694 0C       		.byte	0xc
 1374 0695 0F01     		.2byte	0x10f
 1375 0697 F3050000 		.4byte	0x5f3
 1376 069b 20       		.byte	0x20
 1377 069c 00       		.byte	0
 1378 069d 0C       		.uleb128 0xc
 1379 069e 04       		.byte	0x4
 1380 069f 22060000 		.4byte	0x622
 1381 06a3 1A       		.uleb128 0x1a
 1382 06a4 10       		.byte	0x10
 1383 06a5 0D       		.byte	0xd
 1384 06a6 51       		.byte	0x51
 1385 06a7 FD080000 		.4byte	.LASF120
 1386 06ab E0060000 		.4byte	0x6e0
 1387 06af 09       		.uleb128 0x9
 1388 06b0 65050000 		.4byte	.LASF111
 1389 06b4 0D       		.byte	0xd
 1390 06b5 55       		.byte	0x55
 1391 06b6 30010000 		.4byte	0x130
 1392 06ba 00       		.byte	0
 1393 06bb 09       		.uleb128 0x9
 1394 06bc 49050000 		.4byte	.LASF112
 1395 06c0 0D       		.byte	0xd
 1396 06c1 59       		.byte	0x59
 1397 06c2 C1020000 		.4byte	0x2c1
 1398 06c6 04       		.byte	0x4
 1399 06c7 09       		.uleb128 0x9
 1400 06c8 B5020000 		.4byte	.LASF113
 1401 06cc 0D       		.byte	0xd
 1402 06cd 5D       		.byte	0x5d
 1403 06ce 9E030000 		.4byte	0x39e
 1404 06d2 08       		.byte	0x8
 1405 06d3 09       		.uleb128 0x9
 1406 06d4 16010000 		.4byte	.LASF114
 1407 06d8 0D       		.byte	0xd
 1408 06d9 61       		.byte	0x61
 1409 06da 45000000 		.4byte	0x45
 1410 06de 0C       		.byte	0xc
 1411 06df 00       		.byte	0
 1412 06e0 03       		.uleb128 0x3
ARM GAS  C:\Users\Luis\AppData\Local\Temp\ccFw6Xg2.s 			page 26


 1413 06e1 32090000 		.4byte	.LASF115
 1414 06e5 0D       		.byte	0xd
 1415 06e6 62       		.byte	0x62
 1416 06e7 A3060000 		.4byte	0x6a3
 1417 06eb 1B       		.uleb128 0x1b
 1418 06ec 0804     		.2byte	0x408
 1419 06ee 0D       		.byte	0xd
 1420 06ef 67       		.byte	0x67
 1421 06f0 AC060000 		.4byte	.LASF238
 1422 06f4 1D070000 		.4byte	0x71d
 1423 06f8 09       		.uleb128 0x9
 1424 06f9 E0050000 		.4byte	.LASF116
 1425 06fd 0D       		.byte	0xd
 1426 06fe 6B       		.byte	0x6b
 1427 06ff 37000000 		.4byte	0x37
 1428 0703 00       		.byte	0
 1429 0704 09       		.uleb128 0x9
 1430 0705 D8060000 		.4byte	.LASF117
 1431 0709 0D       		.byte	0xd
 1432 070a 6F       		.byte	0x6f
 1433 070b 1D070000 		.4byte	0x71d
 1434 070f 04       		.byte	0x4
 1435 0710 09       		.uleb128 0x9
 1436 0711 8A050000 		.4byte	.LASF118
 1437 0715 0D       		.byte	0xd
 1438 0716 73       		.byte	0x73
 1439 0717 23070000 		.4byte	0x723
 1440 071b 08       		.byte	0x8
 1441 071c 00       		.byte	0
 1442 071d 0C       		.uleb128 0xc
 1443 071e 04       		.byte	0x4
 1444 071f E0060000 		.4byte	0x6e0
 1445 0723 1C       		.uleb128 0x1c
 1446 0724 E0060000 		.4byte	0x6e0
 1447 0728 33070000 		.4byte	0x733
 1448 072c 1D       		.uleb128 0x1d
 1449 072d 0D050000 		.4byte	0x50d
 1450 0731 3F       		.byte	0x3f
 1451 0732 00       		.byte	0
 1452 0733 03       		.uleb128 0x3
 1453 0734 030A0000 		.4byte	.LASF119
 1454 0738 0D       		.byte	0xd
 1455 0739 74       		.byte	0x74
 1456 073a EB060000 		.4byte	0x6eb
 1457 073e 1A       		.uleb128 0x1a
 1458 073f 04       		.byte	0x4
 1459 0740 0E       		.byte	0xe
 1460 0741 38       		.byte	0x38
 1461 0742 DD080000 		.4byte	.LASF121
 1462 0746 57070000 		.4byte	0x757
 1463 074a 09       		.uleb128 0x9
 1464 074b 82030000 		.4byte	.LASF122
 1465 074f 0E       		.byte	0xe
 1466 0750 3C       		.byte	0x3c
 1467 0751 B7000000 		.4byte	0xb7
 1468 0755 00       		.byte	0
 1469 0756 00       		.byte	0
ARM GAS  C:\Users\Luis\AppData\Local\Temp\ccFw6Xg2.s 			page 27


 1470 0757 03       		.uleb128 0x3
 1471 0758 32000000 		.4byte	.LASF123
 1472 075c 0E       		.byte	0xe
 1473 075d 3D       		.byte	0x3d
 1474 075e 3E070000 		.4byte	0x73e
 1475 0762 1A       		.uleb128 0x1a
 1476 0763 18       		.byte	0x18
 1477 0764 0E       		.byte	0xe
 1478 0765 48       		.byte	0x48
 1479 0766 49070000 		.4byte	.LASF124
 1480 076a A9070000 		.4byte	0x7a9
 1481 076e 09       		.uleb128 0x9
 1482 076f 58090000 		.4byte	.LASF125
 1483 0773 0E       		.byte	0xe
 1484 0774 49       		.byte	0x49
 1485 0775 B7000000 		.4byte	0xb7
 1486 0779 00       		.byte	0
 1487 077a 09       		.uleb128 0x9
 1488 077b EE020000 		.4byte	.LASF126
 1489 077f 0E       		.byte	0xe
 1490 0780 4A       		.byte	0x4a
 1491 0781 B7000000 		.4byte	0xb7
 1492 0785 04       		.byte	0x4
 1493 0786 09       		.uleb128 0x9
 1494 0787 C3030000 		.4byte	.LASF127
 1495 078b 0E       		.byte	0xe
 1496 078c 4B       		.byte	0x4b
 1497 078d B7000000 		.4byte	0xb7
 1498 0791 08       		.byte	0x8
 1499 0792 19       		.uleb128 0x19
 1500 0793 6E00     		.ascii	"n\000"
 1501 0795 0E       		.byte	0xe
 1502 0796 4C       		.byte	0x4c
 1503 0797 25010000 		.4byte	0x125
 1504 079b 0C       		.byte	0xc
 1505 079c 09       		.uleb128 0x9
 1506 079d DD000000 		.4byte	.LASF128
 1507 07a1 0E       		.byte	0xe
 1508 07a2 4D       		.byte	0x4d
 1509 07a3 C2000000 		.4byte	0xc2
 1510 07a7 10       		.byte	0x10
 1511 07a8 00       		.byte	0
 1512 07a9 03       		.uleb128 0x3
 1513 07aa E0030000 		.4byte	.LASF129
 1514 07ae 0E       		.byte	0xe
 1515 07af 4E       		.byte	0x4e
 1516 07b0 62070000 		.4byte	0x762
 1517 07b4 1A       		.uleb128 0x1a
 1518 07b5 38       		.byte	0x38
 1519 07b6 0F       		.byte	0xf
 1520 07b7 38       		.byte	0x38
 1521 07b8 A5000000 		.4byte	.LASF130
 1522 07bc F1070000 		.4byte	0x7f1
 1523 07c0 09       		.uleb128 0x9
 1524 07c1 DA070000 		.4byte	.LASF131
 1525 07c5 0F       		.byte	0xf
 1526 07c6 39       		.byte	0x39
ARM GAS  C:\Users\Luis\AppData\Local\Temp\ccFw6Xg2.s 			page 28


 1527 07c7 25010000 		.4byte	0x125
 1528 07cb 00       		.byte	0
 1529 07cc 09       		.uleb128 0x9
 1530 07cd B80A0000 		.4byte	.LASF132
 1531 07d1 0F       		.byte	0xf
 1532 07d2 3A       		.byte	0x3a
 1533 07d3 25010000 		.4byte	0x125
 1534 07d7 04       		.byte	0x4
 1535 07d8 09       		.uleb128 0x9
 1536 07d9 3E080000 		.4byte	.LASF133
 1537 07dd 0F       		.byte	0xf
 1538 07de 3B       		.byte	0x3b
 1539 07df A9070000 		.4byte	0x7a9
 1540 07e3 08       		.byte	0x8
 1541 07e4 09       		.uleb128 0x9
 1542 07e5 C3000000 		.4byte	.LASF134
 1543 07e9 0F       		.byte	0xf
 1544 07ea 3D       		.byte	0x3d
 1545 07eb A9070000 		.4byte	0x7a9
 1546 07ef 20       		.byte	0x20
 1547 07f0 00       		.byte	0
 1548 07f1 03       		.uleb128 0x3
 1549 07f2 09020000 		.4byte	.LASF135
 1550 07f6 0F       		.byte	0xf
 1551 07f7 3F       		.byte	0x3f
 1552 07f8 B4070000 		.4byte	0x7b4
 1553 07fc 0C       		.uleb128 0xc
 1554 07fd 04       		.byte	0x4
 1555 07fe B6020000 		.4byte	0x2b6
 1556 0802 06       		.uleb128 0x6
 1557 0803 67020000 		.4byte	.LASF136
 1558 0807 0C       		.byte	0xc
 1559 0808 10       		.byte	0x10
 1560 0809 34       		.byte	0x34
 1561 080a 27080000 		.4byte	0x827
 1562 080e 09       		.uleb128 0x9
 1563 080f 87000000 		.4byte	.LASF137
 1564 0813 10       		.byte	0x10
 1565 0814 35       		.byte	0x35
 1566 0815 EB020000 		.4byte	0x2eb
 1567 0819 00       		.byte	0
 1568 081a 09       		.uleb128 0x9
 1569 081b CB010000 		.4byte	.LASF138
 1570 081f 10       		.byte	0x10
 1571 0820 37       		.byte	0x37
 1572 0821 1A010000 		.4byte	0x11a
 1573 0825 08       		.byte	0x8
 1574 0826 00       		.byte	0
 1575 0827 0C       		.uleb128 0xc
 1576 0828 04       		.byte	0x4
 1577 0829 02080000 		.4byte	0x802
 1578 082d 06       		.uleb128 0x6
 1579 082e A0030000 		.4byte	.LASF139
 1580 0832 10       		.byte	0x10
 1581 0833 11       		.byte	0x11
 1582 0834 39       		.byte	0x39
 1583 0835 5E080000 		.4byte	0x85e
ARM GAS  C:\Users\Luis\AppData\Local\Temp\ccFw6Xg2.s 			page 29


 1584 0839 09       		.uleb128 0x9
 1585 083a 0A080000 		.4byte	.LASF140
 1586 083e 11       		.byte	0x11
 1587 083f 3A       		.byte	0x3a
 1588 0840 EB020000 		.4byte	0x2eb
 1589 0844 00       		.byte	0
 1590 0845 09       		.uleb128 0x9
 1591 0846 D30A0000 		.4byte	.LASF141
 1592 084a 11       		.byte	0x11
 1593 084b 3C       		.byte	0x3c
 1594 084c C1020000 		.4byte	0x2c1
 1595 0850 08       		.byte	0x8
 1596 0851 09       		.uleb128 0x9
 1597 0852 150A0000 		.4byte	.LASF142
 1598 0856 11       		.byte	0x11
 1599 0857 3E       		.byte	0x3e
 1600 0858 A2080000 		.4byte	0x8a2
 1601 085c 0C       		.byte	0xc
 1602 085d 00       		.byte	0
 1603 085e 0C       		.uleb128 0xc
 1604 085f 04       		.byte	0x4
 1605 0860 2D080000 		.4byte	0x82d
 1606 0864 0C       		.uleb128 0xc
 1607 0865 04       		.byte	0x4
 1608 0866 6A080000 		.4byte	0x86a
 1609 086a 1E       		.uleb128 0x1e
 1610 086b 6F080000 		.4byte	0x86f
 1611 086f 04       		.uleb128 0x4
 1612 0870 01       		.byte	0x1
 1613 0871 08       		.byte	0x8
 1614 0872 5B000000 		.4byte	.LASF143
 1615 0876 0C       		.uleb128 0xc
 1616 0877 04       		.byte	0x4
 1617 0878 FE050000 		.4byte	0x5fe
 1618 087c 0C       		.uleb128 0xc
 1619 087d 04       		.byte	0x4
 1620 087e A0030000 		.4byte	0x3a0
 1621 0882 05       		.uleb128 0x5
 1622 0883 64080000 		.4byte	0x864
 1623 0887 1C       		.uleb128 0x1c
 1624 0888 A6000000 		.4byte	0xa6
 1625 088c 97080000 		.4byte	0x897
 1626 0890 1D       		.uleb128 0x1d
 1627 0891 0D050000 		.4byte	0x50d
 1628 0895 1F       		.byte	0x1f
 1629 0896 00       		.byte	0
 1630 0897 03       		.uleb128 0x3
 1631 0898 4B090000 		.4byte	.LASF144
 1632 089c 11       		.byte	0x11
 1633 089d 34       		.byte	0x34
 1634 089e 2D080000 		.4byte	0x82d
 1635 08a2 0C       		.uleb128 0xc
 1636 08a3 04       		.byte	0x4
 1637 08a4 97080000 		.4byte	0x897
 1638 08a8 03       		.uleb128 0x3
 1639 08a9 CC080000 		.4byte	.LASF145
 1640 08ad 12       		.byte	0x12
ARM GAS  C:\Users\Luis\AppData\Local\Temp\ccFw6Xg2.s 			page 30


 1641 08ae 34       		.byte	0x34
 1642 08af B3080000 		.4byte	0x8b3
 1643 08b3 06       		.uleb128 0x6
 1644 08b4 1C060000 		.4byte	.LASF146
 1645 08b8 14       		.byte	0x14
 1646 08b9 12       		.byte	0x12
 1647 08ba 39       		.byte	0x39
 1648 08bb FC080000 		.4byte	0x8fc
 1649 08bf 09       		.uleb128 0x9
 1650 08c0 30070000 		.4byte	.LASF147
 1651 08c4 12       		.byte	0x12
 1652 08c5 3A       		.byte	0x3a
 1653 08c6 FC080000 		.4byte	0x8fc
 1654 08ca 00       		.byte	0
 1655 08cb 09       		.uleb128 0x9
 1656 08cc 7C080000 		.4byte	.LASF148
 1657 08d0 12       		.byte	0x12
 1658 08d1 3D       		.byte	0x3d
 1659 08d2 C1020000 		.4byte	0x2c1
 1660 08d6 04       		.byte	0x4
 1661 08d7 09       		.uleb128 0x9
 1662 08d8 AF090000 		.4byte	.LASF149
 1663 08dc 12       		.byte	0x12
 1664 08dd 3F       		.byte	0x3f
 1665 08de 04010000 		.4byte	0x104
 1666 08e2 08       		.byte	0x8
 1667 08e3 09       		.uleb128 0x9
 1668 08e4 95020000 		.4byte	.LASF150
 1669 08e8 12       		.byte	0x12
 1670 08e9 41       		.byte	0x41
 1671 08ea 0F010000 		.4byte	0x10f
 1672 08ee 0C       		.byte	0xc
 1673 08ef 09       		.uleb128 0x9
 1674 08f0 3F030000 		.4byte	.LASF151
 1675 08f4 12       		.byte	0x12
 1676 08f5 43       		.byte	0x43
 1677 08f6 0F010000 		.4byte	0x10f
 1678 08fa 10       		.byte	0x10
 1679 08fb 00       		.byte	0
 1680 08fc 0C       		.uleb128 0xc
 1681 08fd 04       		.byte	0x4
 1682 08fe A8080000 		.4byte	0x8a8
 1683 0902 06       		.uleb128 0x6
 1684 0903 70000000 		.4byte	.LASF152
 1685 0907 04       		.byte	0x4
 1686 0908 12       		.byte	0x12
 1687 0909 4A       		.byte	0x4a
 1688 090a 1B090000 		.4byte	0x91b
 1689 090e 09       		.uleb128 0x9
 1690 090f 8D020000 		.4byte	.LASF153
 1691 0913 12       		.byte	0x12
 1692 0914 4B       		.byte	0x4b
 1693 0915 FC080000 		.4byte	0x8fc
 1694 0919 00       		.byte	0
 1695 091a 00       		.byte	0
 1696 091b 03       		.uleb128 0x3
 1697 091c BF020000 		.4byte	.LASF154
ARM GAS  C:\Users\Luis\AppData\Local\Temp\ccFw6Xg2.s 			page 31


 1698 0920 12       		.byte	0x12
 1699 0921 4E       		.byte	0x4e
 1700 0922 02090000 		.4byte	0x902
 1701 0926 03       		.uleb128 0x3
 1702 0927 8F000000 		.4byte	.LASF155
 1703 092b 13       		.byte	0x13
 1704 092c 3F       		.byte	0x3f
 1705 092d 31090000 		.4byte	0x931
 1706 0931 06       		.uleb128 0x6
 1707 0932 280A0000 		.4byte	.LASF156
 1708 0936 24       		.byte	0x24
 1709 0937 13       		.byte	0x13
 1710 0938 4D       		.byte	0x4d
 1711 0939 9E090000 		.4byte	0x99e
 1712 093d 09       		.uleb128 0x9
 1713 093e FF010000 		.4byte	.LASF157
 1714 0942 13       		.byte	0x13
 1715 0943 4E       		.byte	0x4e
 1716 0944 EB020000 		.4byte	0x2eb
 1717 0948 00       		.byte	0
 1718 0949 09       		.uleb128 0x9
 1719 094a 98080000 		.4byte	.LASF158
 1720 094e 13       		.byte	0x13
 1721 094f 4F       		.byte	0x4f
 1722 0950 C0090000 		.4byte	0x9c0
 1723 0954 08       		.byte	0x8
 1724 0955 09       		.uleb128 0x9
 1725 0956 CA0A0000 		.4byte	.LASF159
 1726 095a 13       		.byte	0x13
 1727 095b 50       		.byte	0x50
 1728 095c C5090000 		.4byte	0x9c5
 1729 0960 0C       		.byte	0xc
 1730 0961 09       		.uleb128 0x9
 1731 0962 A7080000 		.4byte	.LASF160
 1732 0966 13       		.byte	0x13
 1733 0967 51       		.byte	0x51
 1734 0968 C5090000 		.4byte	0x9c5
 1735 096c 10       		.byte	0x10
 1736 096d 09       		.uleb128 0x9
 1737 096e 2B050000 		.4byte	.LASF161
 1738 0972 13       		.byte	0x13
 1739 0973 53       		.byte	0x53
 1740 0974 C5090000 		.4byte	0x9c5
 1741 0978 14       		.byte	0x14
 1742 0979 09       		.uleb128 0x9
 1743 097a 910A0000 		.4byte	.LASF162
 1744 097e 13       		.byte	0x13
 1745 097f 54       		.byte	0x54
 1746 0980 C5090000 		.4byte	0x9c5
 1747 0984 18       		.byte	0x18
 1748 0985 09       		.uleb128 0x9
 1749 0986 C8030000 		.4byte	.LASF163
 1750 098a 13       		.byte	0x13
 1751 098b 55       		.byte	0x55
 1752 098c 9E090000 		.4byte	0x99e
 1753 0990 1C       		.byte	0x1c
 1754 0991 09       		.uleb128 0x9
ARM GAS  C:\Users\Luis\AppData\Local\Temp\ccFw6Xg2.s 			page 32


 1755 0992 37010000 		.4byte	.LASF164
 1756 0996 13       		.byte	0x13
 1757 0997 56       		.byte	0x56
 1758 0998 9E030000 		.4byte	0x39e
 1759 099c 20       		.byte	0x20
 1760 099d 00       		.byte	0
 1761 099e 03       		.uleb128 0x3
 1762 099f 1F010000 		.4byte	.LASF165
 1763 09a3 13       		.byte	0x13
 1764 09a4 42       		.byte	0x42
 1765 09a5 A9090000 		.4byte	0x9a9
 1766 09a9 0C       		.uleb128 0xc
 1767 09aa 04       		.byte	0x4
 1768 09ab AF090000 		.4byte	0x9af
 1769 09af 0E       		.uleb128 0xe
 1770 09b0 BA090000 		.4byte	0x9ba
 1771 09b4 0F       		.uleb128 0xf
 1772 09b5 BA090000 		.4byte	0x9ba
 1773 09b9 00       		.byte	0
 1774 09ba 0C       		.uleb128 0xc
 1775 09bb 04       		.byte	0x4
 1776 09bc 26090000 		.4byte	0x926
 1777 09c0 05       		.uleb128 0x5
 1778 09c1 2C000000 		.4byte	0x2c
 1779 09c5 0C       		.uleb128 0xc
 1780 09c6 04       		.byte	0x4
 1781 09c7 45000000 		.4byte	0x45
 1782 09cb 03       		.uleb128 0x3
 1783 09cc 9C050000 		.4byte	.LASF166
 1784 09d0 13       		.byte	0x13
 1785 09d1 64       		.byte	0x64
 1786 09d2 26090000 		.4byte	0x926
 1787 09d6 03       		.uleb128 0x3
 1788 09d7 C0060000 		.4byte	.LASF167
 1789 09db 13       		.byte	0x13
 1790 09dc 71       		.byte	0x71
 1791 09dd 26090000 		.4byte	0x926
 1792 09e1 06       		.uleb128 0x6
 1793 09e2 FE000000 		.4byte	.LASF168
 1794 09e6 10       		.byte	0x10
 1795 09e7 14       		.byte	0x14
 1796 09e8 40       		.byte	0x40
 1797 09e9 1E0A0000 		.4byte	0xa1e
 1798 09ed 09       		.uleb128 0x9
 1799 09ee 16060000 		.4byte	.LASF169
 1800 09f2 14       		.byte	0x14
 1801 09f3 41       		.byte	0x41
 1802 09f4 420A0000 		.4byte	0xa42
 1803 09f8 00       		.byte	0
 1804 09f9 09       		.uleb128 0x9
 1805 09fa 77080000 		.4byte	.LASF170
 1806 09fe 14       		.byte	0x14
 1807 09ff 41       		.byte	0x41
 1808 0a00 610A0000 		.4byte	0xa61
 1809 0a04 04       		.byte	0x4
 1810 0a05 19       		.uleb128 0x19
 1811 0a06 70757400 		.ascii	"put\000"
ARM GAS  C:\Users\Luis\AppData\Local\Temp\ccFw6Xg2.s 			page 33


 1812 0a0a 14       		.byte	0x14
 1813 0a0b 41       		.byte	0x41
 1814 0a0c 7B0A0000 		.4byte	0xa7b
 1815 0a10 08       		.byte	0x8
 1816 0a11 19       		.uleb128 0x19
 1817 0a12 67657400 		.ascii	"get\000"
 1818 0a16 14       		.byte	0x14
 1819 0a17 41       		.byte	0x41
 1820 0a18 900A0000 		.4byte	0xa90
 1821 0a1c 0C       		.byte	0xc
 1822 0a1d 00       		.byte	0
 1823 0a1e 1F       		.uleb128 0x1f
 1824 0a1f 2C000000 		.4byte	0x2c
 1825 0a23 370A0000 		.4byte	0xa37
 1826 0a27 0F       		.uleb128 0xf
 1827 0a28 9E030000 		.4byte	0x39e
 1828 0a2c 0F       		.uleb128 0xf
 1829 0a2d 370A0000 		.4byte	0xa37
 1830 0a31 0F       		.uleb128 0xf
 1831 0a32 2C000000 		.4byte	0x2c
 1832 0a36 00       		.byte	0
 1833 0a37 0C       		.uleb128 0xc
 1834 0a38 04       		.byte	0x4
 1835 0a39 3D0A0000 		.4byte	0xa3d
 1836 0a3d 1E       		.uleb128 0x1e
 1837 0a3e 45000000 		.4byte	0x45
 1838 0a42 0C       		.uleb128 0xc
 1839 0a43 04       		.byte	0x4
 1840 0a44 1E0A0000 		.4byte	0xa1e
 1841 0a48 1F       		.uleb128 0x1f
 1842 0a49 2C000000 		.4byte	0x2c
 1843 0a4d 610A0000 		.4byte	0xa61
 1844 0a51 0F       		.uleb128 0xf
 1845 0a52 9E030000 		.4byte	0x39e
 1846 0a56 0F       		.uleb128 0xf
 1847 0a57 C5090000 		.4byte	0x9c5
 1848 0a5b 0F       		.uleb128 0xf
 1849 0a5c 2C000000 		.4byte	0x2c
 1850 0a60 00       		.byte	0
 1851 0a61 0C       		.uleb128 0xc
 1852 0a62 04       		.byte	0x4
 1853 0a63 480A0000 		.4byte	0xa48
 1854 0a67 1F       		.uleb128 0x1f
 1855 0a68 F9000000 		.4byte	0xf9
 1856 0a6c 7B0A0000 		.4byte	0xa7b
 1857 0a70 0F       		.uleb128 0xf
 1858 0a71 9E030000 		.4byte	0x39e
 1859 0a75 0F       		.uleb128 0xf
 1860 0a76 45000000 		.4byte	0x45
 1861 0a7a 00       		.byte	0
 1862 0a7b 0C       		.uleb128 0xc
 1863 0a7c 04       		.byte	0x4
 1864 0a7d 670A0000 		.4byte	0xa67
 1865 0a81 1F       		.uleb128 0x1f
 1866 0a82 F9000000 		.4byte	0xf9
 1867 0a86 900A0000 		.4byte	0xa90
 1868 0a8a 0F       		.uleb128 0xf
ARM GAS  C:\Users\Luis\AppData\Local\Temp\ccFw6Xg2.s 			page 34


 1869 0a8b 9E030000 		.4byte	0x39e
 1870 0a8f 00       		.byte	0
 1871 0a90 0C       		.uleb128 0xc
 1872 0a91 04       		.byte	0x4
 1873 0a92 810A0000 		.4byte	0xa81
 1874 0a96 1A       		.uleb128 0x1a
 1875 0a97 04       		.byte	0x4
 1876 0a98 14       		.byte	0x14
 1877 0a99 49       		.byte	0x49
 1878 0a9a 49030000 		.4byte	.LASF171
 1879 0a9e AF0A0000 		.4byte	0xaaf
 1880 0aa2 19       		.uleb128 0x19
 1881 0aa3 766D7400 		.ascii	"vmt\000"
 1882 0aa7 14       		.byte	0x14
 1883 0aa8 4B       		.byte	0x4b
 1884 0aa9 AF0A0000 		.4byte	0xaaf
 1885 0aad 00       		.byte	0
 1886 0aae 00       		.byte	0
 1887 0aaf 0C       		.uleb128 0xc
 1888 0ab0 04       		.byte	0x4
 1889 0ab1 B50A0000 		.4byte	0xab5
 1890 0ab5 1E       		.uleb128 0x1e
 1891 0ab6 E1090000 		.4byte	0x9e1
 1892 0aba 03       		.uleb128 0x3
 1893 0abb FA030000 		.4byte	.LASF172
 1894 0abf 14       		.byte	0x14
 1895 0ac0 4D       		.byte	0x4d
 1896 0ac1 960A0000 		.4byte	0xa96
 1897 0ac5 1F       		.uleb128 0x1f
 1898 0ac6 F9000000 		.4byte	0xf9
 1899 0aca DE0A0000 		.4byte	0xade
 1900 0ace 0F       		.uleb128 0xf
 1901 0acf 9E030000 		.4byte	0x39e
 1902 0ad3 0F       		.uleb128 0xf
 1903 0ad4 45000000 		.4byte	0x45
 1904 0ad8 0F       		.uleb128 0xf
 1905 0ad9 30010000 		.4byte	0x130
 1906 0add 00       		.byte	0
 1907 0ade 0C       		.uleb128 0xc
 1908 0adf 04       		.byte	0x4
 1909 0ae0 C50A0000 		.4byte	0xac5
 1910 0ae4 1F       		.uleb128 0x1f
 1911 0ae5 F9000000 		.4byte	0xf9
 1912 0ae9 F80A0000 		.4byte	0xaf8
 1913 0aed 0F       		.uleb128 0xf
 1914 0aee 9E030000 		.4byte	0x39e
 1915 0af2 0F       		.uleb128 0xf
 1916 0af3 30010000 		.4byte	0x130
 1917 0af7 00       		.byte	0
 1918 0af8 0C       		.uleb128 0xc
 1919 0af9 04       		.byte	0x4
 1920 0afa E40A0000 		.4byte	0xae4
 1921 0afe 1F       		.uleb128 0x1f
 1922 0aff 2C000000 		.4byte	0x2c
 1923 0b03 1C0B0000 		.4byte	0xb1c
 1924 0b07 0F       		.uleb128 0xf
 1925 0b08 9E030000 		.4byte	0x39e
ARM GAS  C:\Users\Luis\AppData\Local\Temp\ccFw6Xg2.s 			page 35


 1926 0b0c 0F       		.uleb128 0xf
 1927 0b0d 370A0000 		.4byte	0xa37
 1928 0b11 0F       		.uleb128 0xf
 1929 0b12 2C000000 		.4byte	0x2c
 1930 0b16 0F       		.uleb128 0xf
 1931 0b17 30010000 		.4byte	0x130
 1932 0b1b 00       		.byte	0
 1933 0b1c 0C       		.uleb128 0xc
 1934 0b1d 04       		.byte	0x4
 1935 0b1e FE0A0000 		.4byte	0xafe
 1936 0b22 1F       		.uleb128 0x1f
 1937 0b23 2C000000 		.4byte	0x2c
 1938 0b27 400B0000 		.4byte	0xb40
 1939 0b2b 0F       		.uleb128 0xf
 1940 0b2c 9E030000 		.4byte	0x39e
 1941 0b30 0F       		.uleb128 0xf
 1942 0b31 C5090000 		.4byte	0x9c5
 1943 0b35 0F       		.uleb128 0xf
 1944 0b36 2C000000 		.4byte	0x2c
 1945 0b3a 0F       		.uleb128 0xf
 1946 0b3b 30010000 		.4byte	0x130
 1947 0b3f 00       		.byte	0
 1948 0b40 0C       		.uleb128 0xc
 1949 0b41 04       		.byte	0x4
 1950 0b42 220B0000 		.4byte	0xb22
 1951 0b46 04       		.uleb128 0x4
 1952 0b47 01       		.byte	0x1
 1953 0b48 02       		.byte	0x2
 1954 0b49 5A060000 		.4byte	.LASF173
 1955 0b4d 1A       		.uleb128 0x1a
 1956 0b4e 2C       		.byte	0x2c
 1957 0b4f 15       		.byte	0x15
 1958 0b50 A9       		.byte	0xa9
 1959 0b51 91030000 		.4byte	.LASF174
 1960 0b55 1F0C0000 		.4byte	0xc1f
 1961 0b59 07       		.uleb128 0x7
 1962 0b5a 04       		.byte	0x4
 1963 0b5b 15       		.byte	0x15
 1964 0b5c B1       		.byte	0xb1
 1965 0b5d 950B0000 		.4byte	0xb95
 1966 0b61 20       		.uleb128 0x20
 1967 0b62 04       		.byte	0x4
 1968 0b63 15       		.byte	0x15
 1969 0b64 B3       		.byte	0xb3
 1970 0b65 820B0000 		.4byte	0xb82
 1971 0b69 19       		.uleb128 0x19
 1972 0b6a 73657400 		.ascii	"set\000"
 1973 0b6e 15       		.byte	0x15
 1974 0b6f B4       		.byte	0xb4
 1975 0b70 5E000000 		.4byte	0x5e
 1976 0b74 00       		.byte	0
 1977 0b75 09       		.uleb128 0x9
 1978 0b76 0E030000 		.4byte	.LASF175
 1979 0b7a 15       		.byte	0x15
 1980 0b7b B5       		.byte	0xb5
 1981 0b7c 5E000000 		.4byte	0x5e
 1982 0b80 02       		.byte	0x2
ARM GAS  C:\Users\Luis\AppData\Local\Temp\ccFw6Xg2.s 			page 36


 1983 0b81 00       		.byte	0
 1984 0b82 21       		.uleb128 0x21
 1985 0b83 5700     		.ascii	"W\000"
 1986 0b85 15       		.byte	0x15
 1987 0b86 B2       		.byte	0xb2
 1988 0b87 82000000 		.4byte	0x82
 1989 0b8b 21       		.uleb128 0x21
 1990 0b8c 4800     		.ascii	"H\000"
 1991 0b8e 15       		.byte	0x15
 1992 0b8f B6       		.byte	0xb6
 1993 0b90 610B0000 		.4byte	0xb61
 1994 0b94 00       		.byte	0
 1995 0b95 09       		.uleb128 0x9
 1996 0b96 E0020000 		.4byte	.LASF176
 1997 0b9a 15       		.byte	0x15
 1998 0b9b AB       		.byte	0xab
 1999 0b9c B2000000 		.4byte	0xb2
 2000 0ba0 00       		.byte	0
 2001 0ba1 09       		.uleb128 0x9
 2002 0ba2 49080000 		.4byte	.LASF177
 2003 0ba6 15       		.byte	0x15
 2004 0ba7 AC       		.byte	0xac
 2005 0ba8 B2000000 		.4byte	0xb2
 2006 0bac 04       		.byte	0x4
 2007 0bad 09       		.uleb128 0x9
 2008 0bae 78070000 		.4byte	.LASF178
 2009 0bb2 15       		.byte	0x15
 2010 0bb3 AD       		.byte	0xad
 2011 0bb4 B2000000 		.4byte	0xb2
 2012 0bb8 08       		.byte	0x8
 2013 0bb9 09       		.uleb128 0x9
 2014 0bba DA030000 		.4byte	.LASF179
 2015 0bbe 15       		.byte	0x15
 2016 0bbf AE       		.byte	0xae
 2017 0bc0 B2000000 		.4byte	0xb2
 2018 0bc4 0C       		.byte	0xc
 2019 0bc5 19       		.uleb128 0x19
 2020 0bc6 49445200 		.ascii	"IDR\000"
 2021 0bca 15       		.byte	0x15
 2022 0bcb AF       		.byte	0xaf
 2023 0bcc B2000000 		.4byte	0xb2
 2024 0bd0 10       		.byte	0x10
 2025 0bd1 19       		.uleb128 0x19
 2026 0bd2 4F445200 		.ascii	"ODR\000"
 2027 0bd6 15       		.byte	0x15
 2028 0bd7 B0       		.byte	0xb0
 2029 0bd8 B2000000 		.4byte	0xb2
 2030 0bdc 14       		.byte	0x14
 2031 0bdd 09       		.uleb128 0x9
 2032 0bde 56000000 		.4byte	.LASF180
 2033 0be2 15       		.byte	0x15
 2034 0be3 B7       		.byte	0xb7
 2035 0be4 E90B0000 		.4byte	0xbe9
 2036 0be8 18       		.byte	0x18
 2037 0be9 05       		.uleb128 0x5
 2038 0bea 590B0000 		.4byte	0xb59
 2039 0bee 09       		.uleb128 0x9
ARM GAS  C:\Users\Luis\AppData\Local\Temp\ccFw6Xg2.s 			page 37


 2040 0bef EF060000 		.4byte	.LASF181
 2041 0bf3 15       		.byte	0x15
 2042 0bf4 B8       		.byte	0xb8
 2043 0bf5 B2000000 		.4byte	0xb2
 2044 0bf9 1C       		.byte	0x1c
 2045 0bfa 09       		.uleb128 0x9
 2046 0bfb 01030000 		.4byte	.LASF182
 2047 0bff 15       		.byte	0x15
 2048 0c00 B9       		.byte	0xb9
 2049 0c01 B2000000 		.4byte	0xb2
 2050 0c05 20       		.byte	0x20
 2051 0c06 09       		.uleb128 0x9
 2052 0c07 53090000 		.4byte	.LASF183
 2053 0c0b 15       		.byte	0x15
 2054 0c0c BA       		.byte	0xba
 2055 0c0d B2000000 		.4byte	0xb2
 2056 0c11 24       		.byte	0x24
 2057 0c12 19       		.uleb128 0x19
 2058 0c13 42525200 		.ascii	"BRR\000"
 2059 0c17 15       		.byte	0x15
 2060 0c18 BB       		.byte	0xbb
 2061 0c19 B2000000 		.4byte	0xb2
 2062 0c1d 28       		.byte	0x28
 2063 0c1e 00       		.byte	0
 2064 0c1f 03       		.uleb128 0x3
 2065 0c20 F4020000 		.4byte	.LASF184
 2066 0c24 15       		.byte	0x15
 2067 0c25 BC       		.byte	0xbc
 2068 0c26 4D0B0000 		.4byte	0xb4d
 2069 0c2a 15       		.uleb128 0x15
 2070 0c2b 5F060000 		.4byte	.LASF185
 2071 0c2f 15       		.byte	0x15
 2072 0c30 0E01     		.2byte	0x10e
 2073 0c32 82000000 		.4byte	0x82
 2074 0c36 16       		.uleb128 0x16
 2075 0c37 01       		.byte	0x1
 2076 0c38 16       		.byte	0x16
 2077 0c39 55       		.byte	0x55
 2078 0c3a 790A0000 		.4byte	.LASF186
 2079 0c3e 550C0000 		.4byte	0xc55
 2080 0c42 17       		.uleb128 0x17
 2081 0c43 88080000 		.4byte	.LASF187
 2082 0c47 00       		.sleb128 0
 2083 0c48 17       		.uleb128 0x17
 2084 0c49 89030000 		.4byte	.LASF188
 2085 0c4d 01       		.sleb128 1
 2086 0c4e 17       		.uleb128 0x17
 2087 0c4f C8070000 		.4byte	.LASF189
 2088 0c53 02       		.sleb128 2
 2089 0c54 00       		.byte	0
 2090 0c55 03       		.uleb128 0x3
 2091 0c56 57020000 		.4byte	.LASF190
 2092 0c5a 16       		.byte	0x16
 2093 0c5b 59       		.byte	0x59
 2094 0c5c 360C0000 		.4byte	0xc36
 2095 0c60 03       		.uleb128 0x3
 2096 0c61 20000000 		.4byte	.LASF191
ARM GAS  C:\Users\Luis\AppData\Local\Temp\ccFw6Xg2.s 			page 38


 2097 0c65 16       		.byte	0x16
 2098 0c66 5E       		.byte	0x5e
 2099 0c67 6B0C0000 		.4byte	0xc6b
 2100 0c6b 22       		.uleb128 0x22
 2101 0c6c 20000000 		.4byte	.LASF191
 2102 0c70 5820     		.2byte	0x2058
 2103 0c72 16       		.byte	0x16
 2104 0c73 78       		.byte	0x78
 2105 0c74 D90C0000 		.4byte	0xcd9
 2106 0c78 19       		.uleb128 0x19
 2107 0c79 766D7400 		.ascii	"vmt\000"
 2108 0c7d 16       		.byte	0x16
 2109 0c7e 7A       		.byte	0x7a
 2110 0c7f 8E0D0000 		.4byte	0xd8e
 2111 0c83 00       		.byte	0
 2112 0c84 09       		.uleb128 0x9
 2113 0c85 61020000 		.4byte	.LASF192
 2114 0c89 16       		.byte	0x16
 2115 0c8a 7B       		.byte	0x7b
 2116 0c8b 1B090000 		.4byte	0x91b
 2117 0c8f 04       		.byte	0x4
 2118 0c90 09       		.uleb128 0x9
 2119 0c91 D1090000 		.4byte	.LASF193
 2120 0c95 16       		.byte	0x16
 2121 0c96 7B       		.byte	0x7b
 2122 0c97 550C0000 		.4byte	0xc55
 2123 0c9b 08       		.byte	0x8
 2124 0c9c 09       		.uleb128 0x9
 2125 0c9d EF010000 		.4byte	.LASF194
 2126 0ca1 16       		.byte	0x16
 2127 0ca2 7B       		.byte	0x7b
 2128 0ca3 CB090000 		.4byte	0x9cb
 2129 0ca7 0C       		.byte	0xc
 2130 0ca8 09       		.uleb128 0x9
 2131 0ca9 93070000 		.4byte	.LASF195
 2132 0cad 16       		.byte	0x16
 2133 0cae 7B       		.byte	0x7b
 2134 0caf D6090000 		.4byte	0x9d6
 2135 0cb3 30       		.byte	0x30
 2136 0cb4 19       		.uleb128 0x19
 2137 0cb5 696200   		.ascii	"ib\000"
 2138 0cb8 16       		.byte	0x16
 2139 0cb9 7B       		.byte	0x7b
 2140 0cba 990D0000 		.4byte	0xd99
 2141 0cbe 54       		.byte	0x54
 2142 0cbf 23       		.uleb128 0x23
 2143 0cc0 6F6200   		.ascii	"ob\000"
 2144 0cc3 16       		.byte	0x16
 2145 0cc4 7B       		.byte	0x7b
 2146 0cc5 990D0000 		.4byte	0xd99
 2147 0cc9 5410     		.2byte	0x1054
 2148 0ccb 24       		.uleb128 0x24
 2149 0ccc E8050000 		.4byte	.LASF196
 2150 0cd0 16       		.byte	0x16
 2151 0cd1 7B       		.byte	0x7b
 2152 0cd2 AA0D0000 		.4byte	0xdaa
 2153 0cd6 5420     		.2byte	0x2054
ARM GAS  C:\Users\Luis\AppData\Local\Temp\ccFw6Xg2.s 			page 39


 2154 0cd8 00       		.byte	0
 2155 0cd9 1A       		.uleb128 0x1a
 2156 0cda 0C       		.byte	0xc
 2157 0cdb 17       		.byte	0x17
 2158 0cdc D7       		.byte	0xd7
 2159 0cdd A6010000 		.4byte	.LASF197
 2160 0ce1 160D0000 		.4byte	0xd16
 2161 0ce5 09       		.uleb128 0x9
 2162 0ce6 BE010000 		.4byte	.LASF198
 2163 0cea 17       		.byte	0x17
 2164 0ceb DB       		.byte	0xdb
 2165 0cec 82000000 		.4byte	0x82
 2166 0cf0 00       		.byte	0
 2167 0cf1 19       		.uleb128 0x19
 2168 0cf2 63723100 		.ascii	"cr1\000"
 2169 0cf6 17       		.byte	0x17
 2170 0cf7 E0       		.byte	0xe0
 2171 0cf8 5E000000 		.4byte	0x5e
 2172 0cfc 04       		.byte	0x4
 2173 0cfd 19       		.uleb128 0x19
 2174 0cfe 63723200 		.ascii	"cr2\000"
 2175 0d02 17       		.byte	0x17
 2176 0d03 E4       		.byte	0xe4
 2177 0d04 5E000000 		.4byte	0x5e
 2178 0d08 06       		.byte	0x6
 2179 0d09 19       		.uleb128 0x19
 2180 0d0a 63723300 		.ascii	"cr3\000"
 2181 0d0e 17       		.byte	0x17
 2182 0d0f E8       		.byte	0xe8
 2183 0d10 5E000000 		.4byte	0x5e
 2184 0d14 08       		.byte	0x8
 2185 0d15 00       		.byte	0
 2186 0d16 03       		.uleb128 0x3
 2187 0d17 30020000 		.4byte	.LASF199
 2188 0d1b 17       		.byte	0x17
 2189 0d1c E9       		.byte	0xe9
 2190 0d1d D90C0000 		.4byte	0xcd9
 2191 0d21 06       		.uleb128 0x6
 2192 0d22 370A0000 		.4byte	.LASF200
 2193 0d26 20       		.byte	0x20
 2194 0d27 16       		.byte	0x16
 2195 0d28 6D       		.byte	0x6d
 2196 0d29 8E0D0000 		.4byte	0xd8e
 2197 0d2d 09       		.uleb128 0x9
 2198 0d2e 16060000 		.4byte	.LASF169
 2199 0d32 16       		.byte	0x16
 2200 0d33 6E       		.byte	0x6e
 2201 0d34 420A0000 		.4byte	0xa42
 2202 0d38 00       		.byte	0
 2203 0d39 09       		.uleb128 0x9
 2204 0d3a 77080000 		.4byte	.LASF170
 2205 0d3e 16       		.byte	0x16
 2206 0d3f 6E       		.byte	0x6e
 2207 0d40 610A0000 		.4byte	0xa61
 2208 0d44 04       		.byte	0x4
 2209 0d45 19       		.uleb128 0x19
 2210 0d46 70757400 		.ascii	"put\000"
ARM GAS  C:\Users\Luis\AppData\Local\Temp\ccFw6Xg2.s 			page 40


 2211 0d4a 16       		.byte	0x16
 2212 0d4b 6E       		.byte	0x6e
 2213 0d4c 7B0A0000 		.4byte	0xa7b
 2214 0d50 08       		.byte	0x8
 2215 0d51 19       		.uleb128 0x19
 2216 0d52 67657400 		.ascii	"get\000"
 2217 0d56 16       		.byte	0x16
 2218 0d57 6E       		.byte	0x6e
 2219 0d58 900A0000 		.4byte	0xa90
 2220 0d5c 0C       		.byte	0xc
 2221 0d5d 09       		.uleb128 0x9
 2222 0d5e 6F030000 		.4byte	.LASF201
 2223 0d62 16       		.byte	0x16
 2224 0d63 6E       		.byte	0x6e
 2225 0d64 DE0A0000 		.4byte	0xade
 2226 0d68 10       		.byte	0x10
 2227 0d69 09       		.uleb128 0x9
 2228 0d6a A2080000 		.4byte	.LASF202
 2229 0d6e 16       		.byte	0x16
 2230 0d6f 6E       		.byte	0x6e
 2231 0d70 F80A0000 		.4byte	0xaf8
 2232 0d74 14       		.byte	0x14
 2233 0d75 09       		.uleb128 0x9
 2234 0d76 C4010000 		.4byte	.LASF203
 2235 0d7a 16       		.byte	0x16
 2236 0d7b 6E       		.byte	0x6e
 2237 0d7c 1C0B0000 		.4byte	0xb1c
 2238 0d80 18       		.byte	0x18
 2239 0d81 09       		.uleb128 0x9
 2240 0d82 310A0000 		.4byte	.LASF204
 2241 0d86 16       		.byte	0x16
 2242 0d87 6E       		.byte	0x6e
 2243 0d88 400B0000 		.4byte	0xb40
 2244 0d8c 1C       		.byte	0x1c
 2245 0d8d 00       		.byte	0
 2246 0d8e 0C       		.uleb128 0xc
 2247 0d8f 04       		.byte	0x4
 2248 0d90 940D0000 		.4byte	0xd94
 2249 0d94 1E       		.uleb128 0x1e
 2250 0d95 210D0000 		.4byte	0xd21
 2251 0d99 1C       		.uleb128 0x1c
 2252 0d9a 50000000 		.4byte	0x50
 2253 0d9e AA0D0000 		.4byte	0xdaa
 2254 0da2 25       		.uleb128 0x25
 2255 0da3 0D050000 		.4byte	0x50d
 2256 0da7 FF0F     		.2byte	0xfff
 2257 0da9 00       		.byte	0
 2258 0daa 0C       		.uleb128 0xc
 2259 0dab 04       		.byte	0x4
 2260 0dac 7B050000 		.4byte	0x57b
 2261 0db0 03       		.uleb128 0x3
 2262 0db1 60030000 		.4byte	.LASF205
 2263 0db5 18       		.byte	0x18
 2264 0db6 28       		.byte	0x28
 2265 0db7 BB0D0000 		.4byte	0xdbb
 2266 0dbb 06       		.uleb128 0x6
 2267 0dbc F9090000 		.4byte	.LASF206
ARM GAS  C:\Users\Luis\AppData\Local\Temp\ccFw6Xg2.s 			page 41


 2268 0dc0 04       		.byte	0x4
 2269 0dc1 19       		.byte	0x19
 2270 0dc2 00       		.byte	0
 2271 0dc3 D20D0000 		.4byte	0xdd2
 2272 0dc7 26       		.uleb128 0x26
 2273 0dc8 74060000 		.4byte	.LASF207
 2274 0dcc 9E030000 		.4byte	0x39e
 2275 0dd0 00       		.byte	0
 2276 0dd1 00       		.byte	0
 2277 0dd2 03       		.uleb128 0x3
 2278 0dd3 EE050000 		.4byte	.LASF208
 2279 0dd7 18       		.byte	0x18
 2280 0dd8 62       		.byte	0x62
 2281 0dd9 B00D0000 		.4byte	0xdb0
 2282 0ddd 04       		.uleb128 0x4
 2283 0dde 04       		.byte	0x4
 2284 0ddf 04       		.byte	0x4
 2285 0de0 51020000 		.4byte	.LASF209
 2286 0de4 03       		.uleb128 0x3
 2287 0de5 49060000 		.4byte	.LASF210
 2288 0de9 1A       		.byte	0x1a
 2289 0dea 11       		.byte	0x11
 2290 0deb 25000000 		.4byte	0x25
 2291 0def 27       		.uleb128 0x27
 2292 0df0 AD070000 		.4byte	.LASF213
 2293 0df4 01       		.byte	0x1
 2294 0df5 84       		.byte	0x84
 2295 0df6 00000000 		.4byte	.LFB186
 2296 0dfa 20000000 		.4byte	.LFE186-.LFB186
 2297 0dfe 01       		.uleb128 0x1
 2298 0dff 9C       		.byte	0x9c
 2299 0e00 130E0000 		.4byte	0xe13
 2300 0e04 28       		.uleb128 0x28
 2301 0e05 2D000000 		.4byte	.LASF211
 2302 0e09 01       		.byte	0x1
 2303 0e0a 84       		.byte	0x84
 2304 0e0b 64080000 		.4byte	0x864
 2305 0e0f 02       		.uleb128 0x2
 2306 0e10 91       		.byte	0x91
 2307 0e11 74       		.sleb128 -12
 2308 0e12 00       		.byte	0
 2309 0e13 29       		.uleb128 0x29
 2310 0e14 D1030000 		.4byte	.LASF239
 2311 0e18 02       		.byte	0x2
 2312 0e19 45       		.byte	0x45
 2313 0e1a 25000000 		.4byte	0x25
 2314 0e1e 00000000 		.4byte	.LFB260
 2315 0e22 2C000000 		.4byte	.LFE260-.LFB260
 2316 0e26 01       		.uleb128 0x1
 2317 0e27 9C       		.byte	0x9c
 2318 0e28 6F0E0000 		.4byte	0xe6f
 2319 0e2c 2A       		.uleb128 0x2a
 2320 0e2d 63687000 		.ascii	"chp\000"
 2321 0e31 02       		.byte	0x2
 2322 0e32 45       		.byte	0x45
 2323 0e33 6F0E0000 		.4byte	0xe6f
 2324 0e37 02       		.uleb128 0x2
ARM GAS  C:\Users\Luis\AppData\Local\Temp\ccFw6Xg2.s 			page 42


 2325 0e38 91       		.byte	0x91
 2326 0e39 5C       		.sleb128 -36
 2327 0e3a 2A       		.uleb128 0x2a
 2328 0e3b 666D7400 		.ascii	"fmt\000"
 2329 0e3f 02       		.byte	0x2
 2330 0e40 45       		.byte	0x45
 2331 0e41 64080000 		.4byte	0x864
 2332 0e45 02       		.uleb128 0x2
 2333 0e46 91       		.byte	0x91
 2334 0e47 74       		.sleb128 -12
 2335 0e48 2B       		.uleb128 0x2b
 2336 0e49 2C       		.uleb128 0x2c
 2337 0e4a 0A000000 		.4byte	.LBB2
 2338 0e4e 14000000 		.4byte	.LBE2-.LBB2
 2339 0e52 2D       		.uleb128 0x2d
 2340 0e53 617000   		.ascii	"ap\000"
 2341 0e56 02       		.byte	0x2
 2342 0e57 46       		.byte	0x46
 2343 0e58 D20D0000 		.4byte	0xdd2
 2344 0e5c 02       		.uleb128 0x2
 2345 0e5d 91       		.byte	0x91
 2346 0e5e 60       		.sleb128 -32
 2347 0e5f 2E       		.uleb128 0x2e
 2348 0e60 690A0000 		.4byte	.LASF212
 2349 0e64 02       		.byte	0x2
 2350 0e65 47       		.byte	0x47
 2351 0e66 25000000 		.4byte	0x25
 2352 0e6a 02       		.uleb128 0x2
 2353 0e6b 91       		.byte	0x91
 2354 0e6c 64       		.sleb128 -28
 2355 0e6d 00       		.byte	0
 2356 0e6e 00       		.byte	0
 2357 0e6f 0C       		.uleb128 0xc
 2358 0e70 04       		.byte	0x4
 2359 0e71 BA0A0000 		.4byte	0xaba
 2360 0e75 2F       		.uleb128 0x2f
 2361 0e76 DF090000 		.4byte	.LASF214
 2362 0e7a 03       		.byte	0x3
 2363 0e7b 1C       		.byte	0x1c
 2364 0e7c 00000000 		.4byte	.LFB261
 2365 0e80 68010000 		.4byte	.LFE261-.LFB261
 2366 0e84 01       		.uleb128 0x1
 2367 0e85 9C       		.byte	0x9c
 2368 0e86 F90E0000 		.4byte	0xef9
 2369 0e8a 28       		.uleb128 0x28
 2370 0e8b A7060000 		.4byte	.LASF215
 2371 0e8f 03       		.byte	0x3
 2372 0e90 1C       		.byte	0x1c
 2373 0e91 9E030000 		.4byte	0x39e
 2374 0e95 03       		.uleb128 0x3
 2375 0e96 91       		.byte	0x91
 2376 0e97 947F     		.sleb128 -108
 2377 0e99 2C       		.uleb128 0x2c
 2378 0e9a 08000000 		.4byte	.LBB3
 2379 0e9e 3E010000 		.4byte	.LBE3-.LBB3
 2380 0ea2 2E       		.uleb128 0x2e
 2381 0ea3 A9030000 		.4byte	.LASF216
ARM GAS  C:\Users\Luis\AppData\Local\Temp\ccFw6Xg2.s 			page 43


 2382 0ea7 03       		.byte	0x3
 2383 0ea8 1E       		.byte	0x1e
 2384 0ea9 FE0E0000 		.4byte	0xefe
 2385 0ead 02       		.uleb128 0x2
 2386 0eae 91       		.byte	0x91
 2387 0eaf 64       		.sleb128 -28
 2388 0eb0 2E       		.uleb128 0x2e
 2389 0eb1 38070000 		.4byte	.LASF217
 2390 0eb5 03       		.byte	0x3
 2391 0eb6 23       		.byte	0x23
 2392 0eb7 040F0000 		.4byte	0xf04
 2393 0ebb 03       		.uleb128 0x3
 2394 0ebc 91       		.byte	0x91
 2395 0ebd 9C7F     		.sleb128 -100
 2396 0ebf 2E       		.uleb128 0x2e
 2397 0ec0 2A090000 		.4byte	.LASF218
 2398 0ec4 03       		.byte	0x3
 2399 0ec5 24       		.byte	0x24
 2400 0ec6 DD0D0000 		.4byte	0xddd
 2401 0eca 02       		.uleb128 0x2
 2402 0ecb 91       		.byte	0x91
 2403 0ecc 6C       		.sleb128 -20
 2404 0ecd 2E       		.uleb128 0x2e
 2405 0ece A3070000 		.4byte	.LASF219
 2406 0ed2 03       		.byte	0x3
 2407 0ed3 26       		.byte	0x26
 2408 0ed4 190F0000 		.4byte	0xf19
 2409 0ed8 02       		.uleb128 0x2
 2410 0ed9 91       		.byte	0x91
 2411 0eda 60       		.sleb128 -32
 2412 0edb 2E       		.uleb128 0x2e
 2413 0edc 6D050000 		.4byte	.LASF220
 2414 0ee0 03       		.byte	0x3
 2415 0ee1 27       		.byte	0x27
 2416 0ee2 240F0000 		.4byte	0xf24
 2417 0ee6 02       		.uleb128 0x2
 2418 0ee7 91       		.byte	0x91
 2419 0ee8 5C       		.sleb128 -36
 2420 0ee9 2E       		.uleb128 0x2e
 2421 0eea B9090000 		.4byte	.LASF221
 2422 0eee 03       		.byte	0x3
 2423 0eef 34       		.byte	0x34
 2424 0ef0 25000000 		.4byte	0x25
 2425 0ef4 02       		.uleb128 0x2
 2426 0ef5 91       		.byte	0x91
 2427 0ef6 68       		.sleb128 -24
 2428 0ef7 00       		.byte	0
 2429 0ef8 00       		.byte	0
 2430 0ef9 30       		.uleb128 0x30
 2431 0efa 14030000 		.4byte	.LASF222
 2432 0efe 0C       		.uleb128 0xc
 2433 0eff 04       		.byte	0x4
 2434 0f00 F90E0000 		.4byte	0xef9
 2435 0f04 1C       		.uleb128 0x1c
 2436 0f05 DD0D0000 		.4byte	0xddd
 2437 0f09 140F0000 		.4byte	0xf14
 2438 0f0d 1D       		.uleb128 0x1d
ARM GAS  C:\Users\Luis\AppData\Local\Temp\ccFw6Xg2.s 			page 44


 2439 0f0e 0D050000 		.4byte	0x50d
 2440 0f12 0F       		.byte	0xf
 2441 0f13 00       		.byte	0
 2442 0f14 31       		.uleb128 0x31
 2443 0f15 49495200 		.ascii	"IIR\000"
 2444 0f19 0C       		.uleb128 0xc
 2445 0f1a 04       		.byte	0x4
 2446 0f1b 140F0000 		.4byte	0xf14
 2447 0f1f 31       		.uleb128 0x31
 2448 0f20 46495200 		.ascii	"FIR\000"
 2449 0f24 0C       		.uleb128 0xc
 2450 0f25 04       		.byte	0x4
 2451 0f26 1F0F0000 		.4byte	0xf1f
 2452 0f2a 32       		.uleb128 0x32
 2453 0f2b 540A0000 		.4byte	.LASF240
 2454 0f2f 03       		.byte	0x3
 2455 0f30 50       		.byte	0x50
 2456 0f31 25000000 		.4byte	0x25
 2457 0f35 00000000 		.4byte	.LFB262
 2458 0f39 3C010000 		.4byte	.LFE262-.LFB262
 2459 0f3d 01       		.uleb128 0x1
 2460 0f3e 9C       		.byte	0x9c
 2461 0f3f CD0F0000 		.4byte	0xfcd
 2462 0f43 2C       		.uleb128 0x2c
 2463 0f44 06000000 		.4byte	.LBB4
 2464 0f48 36010000 		.4byte	.LBE4-.LBB4
 2465 0f4c 2E       		.uleb128 0x2e
 2466 0f4d 990A0000 		.4byte	.LASF223
 2467 0f51 03       		.byte	0x3
 2468 0f52 55       		.byte	0x55
 2469 0f53 160D0000 		.4byte	0xd16
 2470 0f57 02       		.uleb128 0x2
 2471 0f58 91       		.byte	0x91
 2472 0f59 5C       		.sleb128 -36
 2473 0f5a 2E       		.uleb128 0x2e
 2474 0f5b 33050000 		.4byte	.LASF224
 2475 0f5f 03       		.byte	0x3
 2476 0f60 59       		.byte	0x59
 2477 0f61 25000000 		.4byte	0x25
 2478 0f65 02       		.uleb128 0x2
 2479 0f66 91       		.byte	0x91
 2480 0f67 74       		.sleb128 -12
 2481 0f68 2E       		.uleb128 0x2e
 2482 0f69 5D090000 		.4byte	.LASF225
 2483 0f6d 03       		.byte	0x3
 2484 0f6e 5B       		.byte	0x5b
 2485 0f6f CD0F0000 		.4byte	0xfcd
 2486 0f73 02       		.uleb128 0x2
 2487 0f74 91       		.byte	0x91
 2488 0f75 54       		.sleb128 -44
 2489 0f76 2E       		.uleb128 0x2e
 2490 0f77 98060000 		.4byte	.LASF226
 2491 0f7b 03       		.byte	0x3
 2492 0f7c 5C       		.byte	0x5c
 2493 0f7d DD0F0000 		.4byte	0xfdd
 2494 0f81 02       		.uleb128 0x2
 2495 0f82 91       		.byte	0x91
ARM GAS  C:\Users\Luis\AppData\Local\Temp\ccFw6Xg2.s 			page 45


 2496 0f83 48       		.sleb128 -56
 2497 0f84 2E       		.uleb128 0x2e
 2498 0f85 74090000 		.4byte	.LASF227
 2499 0f89 03       		.byte	0x3
 2500 0f8a 5E       		.byte	0x5e
 2501 0f8b CD0F0000 		.4byte	0xfcd
 2502 0f8f 02       		.uleb128 0x2
 2503 0f90 91       		.byte	0x91
 2504 0f91 40       		.sleb128 -64
 2505 0f92 2E       		.uleb128 0x2e
 2506 0f93 89060000 		.4byte	.LASF228
 2507 0f97 03       		.byte	0x3
 2508 0f98 5F       		.byte	0x5f
 2509 0f99 CD0F0000 		.4byte	0xfcd
 2510 0f9d 03       		.uleb128 0x3
 2511 0f9e 91       		.byte	0x91
 2512 0f9f B87F     		.sleb128 -72
 2513 0fa1 2E       		.uleb128 0x2e
 2514 0fa2 A9030000 		.4byte	.LASF216
 2515 0fa6 03       		.byte	0x3
 2516 0fa7 61       		.byte	0x61
 2517 0fa8 FE0E0000 		.4byte	0xefe
 2518 0fac 02       		.uleb128 0x2
 2519 0fad 91       		.byte	0x91
 2520 0fae 70       		.sleb128 -16
 2521 0faf 2E       		.uleb128 0x2e
 2522 0fb0 D4020000 		.4byte	.LASF229
 2523 0fb4 03       		.byte	0x3
 2524 0fb5 65       		.byte	0x65
 2525 0fb6 E40D0000 		.4byte	0xde4
 2526 0fba 02       		.uleb128 0x2
 2527 0fbb 91       		.byte	0x91
 2528 0fbc 6C       		.sleb128 -20
 2529 0fbd 2E       		.uleb128 0x2e
 2530 0fbe 72080000 		.4byte	.LASF230
 2531 0fc2 03       		.byte	0x3
 2532 0fc3 74       		.byte	0x74
 2533 0fc4 9E030000 		.4byte	0x39e
 2534 0fc8 02       		.uleb128 0x2
 2535 0fc9 91       		.byte	0x91
 2536 0fca 68       		.sleb128 -24
 2537 0fcb 00       		.byte	0
 2538 0fcc 00       		.byte	0
 2539 0fcd 1C       		.uleb128 0x1c
 2540 0fce DD0D0000 		.4byte	0xddd
 2541 0fd2 DD0F0000 		.4byte	0xfdd
 2542 0fd6 1D       		.uleb128 0x1d
 2543 0fd7 0D050000 		.4byte	0x50d
 2544 0fdb 01       		.byte	0x1
 2545 0fdc 00       		.byte	0
 2546 0fdd 1C       		.uleb128 0x1c
 2547 0fde DD0D0000 		.4byte	0xddd
 2548 0fe2 ED0F0000 		.4byte	0xfed
 2549 0fe6 1D       		.uleb128 0x1d
 2550 0fe7 0D050000 		.4byte	0x50d
 2551 0feb 02       		.byte	0x2
 2552 0fec 00       		.byte	0
ARM GAS  C:\Users\Luis\AppData\Local\Temp\ccFw6Xg2.s 			page 46


 2553 0fed 33       		.uleb128 0x33
 2554 0fee 27080000 		.4byte	.LASF231
 2555 0ff2 1B       		.byte	0x1b
 2556 0ff3 A706     		.2byte	0x6a7
 2557 0ff5 AD000000 		.4byte	0xad
 2558 0ff9 34       		.uleb128 0x34
 2559 0ffa 636800   		.ascii	"ch\000"
 2560 0ffd 08       		.byte	0x8
 2561 0ffe 0902     		.2byte	0x209
 2562 1000 95040000 		.4byte	0x495
 2563 1004 34       		.uleb128 0x34
 2564 1005 53443100 		.ascii	"SD1\000"
 2565 1009 17       		.byte	0x17
 2566 100a 0F01     		.2byte	0x10f
 2567 100c 600C0000 		.4byte	0xc60
 2568 1010 35       		.uleb128 0x35
 2569 1011 FC060000 		.4byte	.LASF232
 2570 1015 03       		.byte	0x3
 2571 1016 18       		.byte	0x18
 2572 1017 25000000 		.4byte	0x25
 2573 101b 05       		.uleb128 0x5
 2574 101c 03       		.byte	0x3
 2575 101d 00000000 		.4byte	TipoFiltro
 2576 1021 1C       		.uleb128 0x1c
 2577 1022 A6000000 		.4byte	0xa6
 2578 1026 31100000 		.4byte	0x1031
 2579 102a 1D       		.uleb128 0x1d
 2580 102b 0D050000 		.4byte	0x50d
 2581 102f 3D       		.byte	0x3d
 2582 1030 00       		.byte	0
 2583 1031 2E       		.uleb128 0x2e
 2584 1032 41090000 		.4byte	.LASF233
 2585 1036 03       		.byte	0x3
 2586 1037 1A       		.byte	0x1a
 2587 1038 21100000 		.4byte	0x1021
 2588 103c 05       		.uleb128 0x5
 2589 103d 03       		.byte	0x3
 2590 103e 00000000 		.4byte	_ZL9waThread1
 2591 1042 00       		.byte	0
 2592              		.section	.debug_abbrev,"",%progbits
 2593              	.Ldebug_abbrev0:
 2594 0000 01       		.uleb128 0x1
 2595 0001 11       		.uleb128 0x11
 2596 0002 01       		.byte	0x1
 2597 0003 25       		.uleb128 0x25
 2598 0004 0E       		.uleb128 0xe
 2599 0005 13       		.uleb128 0x13
 2600 0006 0B       		.uleb128 0xb
 2601 0007 03       		.uleb128 0x3
 2602 0008 0E       		.uleb128 0xe
 2603 0009 1B       		.uleb128 0x1b
 2604 000a 0E       		.uleb128 0xe
 2605 000b 55       		.uleb128 0x55
 2606 000c 17       		.uleb128 0x17
 2607 000d 11       		.uleb128 0x11
 2608 000e 01       		.uleb128 0x1
 2609 000f 10       		.uleb128 0x10
ARM GAS  C:\Users\Luis\AppData\Local\Temp\ccFw6Xg2.s 			page 47


 2610 0010 17       		.uleb128 0x17
 2611 0011 00       		.byte	0
 2612 0012 00       		.byte	0
 2613 0013 02       		.uleb128 0x2
 2614 0014 24       		.uleb128 0x24
 2615 0015 00       		.byte	0
 2616 0016 0B       		.uleb128 0xb
 2617 0017 0B       		.uleb128 0xb
 2618 0018 3E       		.uleb128 0x3e
 2619 0019 0B       		.uleb128 0xb
 2620 001a 03       		.uleb128 0x3
 2621 001b 08       		.uleb128 0x8
 2622 001c 00       		.byte	0
 2623 001d 00       		.byte	0
 2624 001e 03       		.uleb128 0x3
 2625 001f 16       		.uleb128 0x16
 2626 0020 00       		.byte	0
 2627 0021 03       		.uleb128 0x3
 2628 0022 0E       		.uleb128 0xe
 2629 0023 3A       		.uleb128 0x3a
 2630 0024 0B       		.uleb128 0xb
 2631 0025 3B       		.uleb128 0x3b
 2632 0026 0B       		.uleb128 0xb
 2633 0027 49       		.uleb128 0x49
 2634 0028 13       		.uleb128 0x13
 2635 0029 00       		.byte	0
 2636 002a 00       		.byte	0
 2637 002b 04       		.uleb128 0x4
 2638 002c 24       		.uleb128 0x24
 2639 002d 00       		.byte	0
 2640 002e 0B       		.uleb128 0xb
 2641 002f 0B       		.uleb128 0xb
 2642 0030 3E       		.uleb128 0x3e
 2643 0031 0B       		.uleb128 0xb
 2644 0032 03       		.uleb128 0x3
 2645 0033 0E       		.uleb128 0xe
 2646 0034 00       		.byte	0
 2647 0035 00       		.byte	0
 2648 0036 05       		.uleb128 0x5
 2649 0037 35       		.uleb128 0x35
 2650 0038 00       		.byte	0
 2651 0039 49       		.uleb128 0x49
 2652 003a 13       		.uleb128 0x13
 2653 003b 00       		.byte	0
 2654 003c 00       		.byte	0
 2655 003d 06       		.uleb128 0x6
 2656 003e 13       		.uleb128 0x13
 2657 003f 01       		.byte	0x1
 2658 0040 03       		.uleb128 0x3
 2659 0041 0E       		.uleb128 0xe
 2660 0042 0B       		.uleb128 0xb
 2661 0043 0B       		.uleb128 0xb
 2662 0044 3A       		.uleb128 0x3a
 2663 0045 0B       		.uleb128 0xb
 2664 0046 3B       		.uleb128 0x3b
 2665 0047 0B       		.uleb128 0xb
 2666 0048 01       		.uleb128 0x1
ARM GAS  C:\Users\Luis\AppData\Local\Temp\ccFw6Xg2.s 			page 48


 2667 0049 13       		.uleb128 0x13
 2668 004a 00       		.byte	0
 2669 004b 00       		.byte	0
 2670 004c 07       		.uleb128 0x7
 2671 004d 17       		.uleb128 0x17
 2672 004e 01       		.byte	0x1
 2673 004f 0B       		.uleb128 0xb
 2674 0050 0B       		.uleb128 0xb
 2675 0051 3A       		.uleb128 0x3a
 2676 0052 0B       		.uleb128 0xb
 2677 0053 3B       		.uleb128 0x3b
 2678 0054 0B       		.uleb128 0xb
 2679 0055 01       		.uleb128 0x1
 2680 0056 13       		.uleb128 0x13
 2681 0057 00       		.byte	0
 2682 0058 00       		.byte	0
 2683 0059 08       		.uleb128 0x8
 2684 005a 0D       		.uleb128 0xd
 2685 005b 00       		.byte	0
 2686 005c 03       		.uleb128 0x3
 2687 005d 0E       		.uleb128 0xe
 2688 005e 3A       		.uleb128 0x3a
 2689 005f 0B       		.uleb128 0xb
 2690 0060 3B       		.uleb128 0x3b
 2691 0061 05       		.uleb128 0x5
 2692 0062 49       		.uleb128 0x49
 2693 0063 13       		.uleb128 0x13
 2694 0064 00       		.byte	0
 2695 0065 00       		.byte	0
 2696 0066 09       		.uleb128 0x9
 2697 0067 0D       		.uleb128 0xd
 2698 0068 00       		.byte	0
 2699 0069 03       		.uleb128 0x3
 2700 006a 0E       		.uleb128 0xe
 2701 006b 3A       		.uleb128 0x3a
 2702 006c 0B       		.uleb128 0xb
 2703 006d 3B       		.uleb128 0x3b
 2704 006e 0B       		.uleb128 0xb
 2705 006f 49       		.uleb128 0x49
 2706 0070 13       		.uleb128 0x13
 2707 0071 38       		.uleb128 0x38
 2708 0072 0B       		.uleb128 0xb
 2709 0073 00       		.byte	0
 2710 0074 00       		.byte	0
 2711 0075 0A       		.uleb128 0xa
 2712 0076 0D       		.uleb128 0xd
 2713 0077 00       		.byte	0
 2714 0078 03       		.uleb128 0x3
 2715 0079 08       		.uleb128 0x8
 2716 007a 3A       		.uleb128 0x3a
 2717 007b 0B       		.uleb128 0xb
 2718 007c 3B       		.uleb128 0x3b
 2719 007d 05       		.uleb128 0x5
 2720 007e 49       		.uleb128 0x49
 2721 007f 13       		.uleb128 0x13
 2722 0080 38       		.uleb128 0x38
 2723 0081 0B       		.uleb128 0xb
ARM GAS  C:\Users\Luis\AppData\Local\Temp\ccFw6Xg2.s 			page 49


 2724 0082 00       		.byte	0
 2725 0083 00       		.byte	0
 2726 0084 0B       		.uleb128 0xb
 2727 0085 0D       		.uleb128 0xd
 2728 0086 00       		.byte	0
 2729 0087 03       		.uleb128 0x3
 2730 0088 0E       		.uleb128 0xe
 2731 0089 3A       		.uleb128 0x3a
 2732 008a 0B       		.uleb128 0xb
 2733 008b 3B       		.uleb128 0x3b
 2734 008c 05       		.uleb128 0x5
 2735 008d 49       		.uleb128 0x49
 2736 008e 13       		.uleb128 0x13
 2737 008f 38       		.uleb128 0x38
 2738 0090 0B       		.uleb128 0xb
 2739 0091 00       		.byte	0
 2740 0092 00       		.byte	0
 2741 0093 0C       		.uleb128 0xc
 2742 0094 0F       		.uleb128 0xf
 2743 0095 00       		.byte	0
 2744 0096 0B       		.uleb128 0xb
 2745 0097 0B       		.uleb128 0xb
 2746 0098 49       		.uleb128 0x49
 2747 0099 13       		.uleb128 0x13
 2748 009a 00       		.byte	0
 2749 009b 00       		.byte	0
 2750 009c 0D       		.uleb128 0xd
 2751 009d 13       		.uleb128 0x13
 2752 009e 01       		.byte	0x1
 2753 009f 03       		.uleb128 0x3
 2754 00a0 0E       		.uleb128 0xe
 2755 00a1 0B       		.uleb128 0xb
 2756 00a2 0B       		.uleb128 0xb
 2757 00a3 3A       		.uleb128 0x3a
 2758 00a4 0B       		.uleb128 0xb
 2759 00a5 3B       		.uleb128 0x3b
 2760 00a6 05       		.uleb128 0x5
 2761 00a7 01       		.uleb128 0x1
 2762 00a8 13       		.uleb128 0x13
 2763 00a9 00       		.byte	0
 2764 00aa 00       		.byte	0
 2765 00ab 0E       		.uleb128 0xe
 2766 00ac 15       		.uleb128 0x15
 2767 00ad 01       		.byte	0x1
 2768 00ae 01       		.uleb128 0x1
 2769 00af 13       		.uleb128 0x13
 2770 00b0 00       		.byte	0
 2771 00b1 00       		.byte	0
 2772 00b2 0F       		.uleb128 0xf
 2773 00b3 05       		.uleb128 0x5
 2774 00b4 00       		.byte	0
 2775 00b5 49       		.uleb128 0x49
 2776 00b6 13       		.uleb128 0x13
 2777 00b7 00       		.byte	0
 2778 00b8 00       		.byte	0
 2779 00b9 10       		.uleb128 0x10
 2780 00ba 0F       		.uleb128 0xf
ARM GAS  C:\Users\Luis\AppData\Local\Temp\ccFw6Xg2.s 			page 50


 2781 00bb 00       		.byte	0
 2782 00bc 0B       		.uleb128 0xb
 2783 00bd 0B       		.uleb128 0xb
 2784 00be 00       		.byte	0
 2785 00bf 00       		.byte	0
 2786 00c0 11       		.uleb128 0x11
 2787 00c1 13       		.uleb128 0x13
 2788 00c2 01       		.byte	0x1
 2789 00c3 03       		.uleb128 0x3
 2790 00c4 0E       		.uleb128 0xe
 2791 00c5 0B       		.uleb128 0xb
 2792 00c6 05       		.uleb128 0x5
 2793 00c7 3A       		.uleb128 0x3a
 2794 00c8 0B       		.uleb128 0xb
 2795 00c9 3B       		.uleb128 0x3b
 2796 00ca 05       		.uleb128 0x5
 2797 00cb 01       		.uleb128 0x1
 2798 00cc 13       		.uleb128 0x13
 2799 00cd 00       		.byte	0
 2800 00ce 00       		.byte	0
 2801 00cf 12       		.uleb128 0x12
 2802 00d0 0D       		.uleb128 0xd
 2803 00d1 00       		.byte	0
 2804 00d2 03       		.uleb128 0x3
 2805 00d3 0E       		.uleb128 0xe
 2806 00d4 3A       		.uleb128 0x3a
 2807 00d5 0B       		.uleb128 0xb
 2808 00d6 3B       		.uleb128 0x3b
 2809 00d7 05       		.uleb128 0x5
 2810 00d8 49       		.uleb128 0x49
 2811 00d9 13       		.uleb128 0x13
 2812 00da 38       		.uleb128 0x38
 2813 00db 05       		.uleb128 0x5
 2814 00dc 00       		.byte	0
 2815 00dd 00       		.byte	0
 2816 00de 13       		.uleb128 0x13
 2817 00df 0D       		.uleb128 0xd
 2818 00e0 00       		.byte	0
 2819 00e1 03       		.uleb128 0x3
 2820 00e2 08       		.uleb128 0x8
 2821 00e3 3A       		.uleb128 0x3a
 2822 00e4 0B       		.uleb128 0xb
 2823 00e5 3B       		.uleb128 0x3b
 2824 00e6 05       		.uleb128 0x5
 2825 00e7 49       		.uleb128 0x49
 2826 00e8 13       		.uleb128 0x13
 2827 00e9 38       		.uleb128 0x38
 2828 00ea 05       		.uleb128 0x5
 2829 00eb 00       		.byte	0
 2830 00ec 00       		.byte	0
 2831 00ed 14       		.uleb128 0x14
 2832 00ee 13       		.uleb128 0x13
 2833 00ef 01       		.byte	0x1
 2834 00f0 0B       		.uleb128 0xb
 2835 00f1 0B       		.uleb128 0xb
 2836 00f2 3A       		.uleb128 0x3a
 2837 00f3 0B       		.uleb128 0xb
ARM GAS  C:\Users\Luis\AppData\Local\Temp\ccFw6Xg2.s 			page 51


 2838 00f4 3B       		.uleb128 0x3b
 2839 00f5 05       		.uleb128 0x5
 2840 00f6 6E       		.uleb128 0x6e
 2841 00f7 0E       		.uleb128 0xe
 2842 00f8 01       		.uleb128 0x1
 2843 00f9 13       		.uleb128 0x13
 2844 00fa 00       		.byte	0
 2845 00fb 00       		.byte	0
 2846 00fc 15       		.uleb128 0x15
 2847 00fd 16       		.uleb128 0x16
 2848 00fe 00       		.byte	0
 2849 00ff 03       		.uleb128 0x3
 2850 0100 0E       		.uleb128 0xe
 2851 0101 3A       		.uleb128 0x3a
 2852 0102 0B       		.uleb128 0xb
 2853 0103 3B       		.uleb128 0x3b
 2854 0104 05       		.uleb128 0x5
 2855 0105 49       		.uleb128 0x49
 2856 0106 13       		.uleb128 0x13
 2857 0107 00       		.byte	0
 2858 0108 00       		.byte	0
 2859 0109 16       		.uleb128 0x16
 2860 010a 04       		.uleb128 0x4
 2861 010b 01       		.byte	0x1
 2862 010c 0B       		.uleb128 0xb
 2863 010d 0B       		.uleb128 0xb
 2864 010e 3A       		.uleb128 0x3a
 2865 010f 0B       		.uleb128 0xb
 2866 0110 3B       		.uleb128 0x3b
 2867 0111 0B       		.uleb128 0xb
 2868 0112 6E       		.uleb128 0x6e
 2869 0113 0E       		.uleb128 0xe
 2870 0114 01       		.uleb128 0x1
 2871 0115 13       		.uleb128 0x13
 2872 0116 00       		.byte	0
 2873 0117 00       		.byte	0
 2874 0118 17       		.uleb128 0x17
 2875 0119 28       		.uleb128 0x28
 2876 011a 00       		.byte	0
 2877 011b 03       		.uleb128 0x3
 2878 011c 0E       		.uleb128 0xe
 2879 011d 1C       		.uleb128 0x1c
 2880 011e 0D       		.uleb128 0xd
 2881 011f 00       		.byte	0
 2882 0120 00       		.byte	0
 2883 0121 18       		.uleb128 0x18
 2884 0122 28       		.uleb128 0x28
 2885 0123 00       		.byte	0
 2886 0124 03       		.uleb128 0x3
 2887 0125 08       		.uleb128 0x8
 2888 0126 1C       		.uleb128 0x1c
 2889 0127 0D       		.uleb128 0xd
 2890 0128 00       		.byte	0
 2891 0129 00       		.byte	0
 2892 012a 19       		.uleb128 0x19
 2893 012b 0D       		.uleb128 0xd
 2894 012c 00       		.byte	0
ARM GAS  C:\Users\Luis\AppData\Local\Temp\ccFw6Xg2.s 			page 52


 2895 012d 03       		.uleb128 0x3
 2896 012e 08       		.uleb128 0x8
 2897 012f 3A       		.uleb128 0x3a
 2898 0130 0B       		.uleb128 0xb
 2899 0131 3B       		.uleb128 0x3b
 2900 0132 0B       		.uleb128 0xb
 2901 0133 49       		.uleb128 0x49
 2902 0134 13       		.uleb128 0x13
 2903 0135 38       		.uleb128 0x38
 2904 0136 0B       		.uleb128 0xb
 2905 0137 00       		.byte	0
 2906 0138 00       		.byte	0
 2907 0139 1A       		.uleb128 0x1a
 2908 013a 13       		.uleb128 0x13
 2909 013b 01       		.byte	0x1
 2910 013c 0B       		.uleb128 0xb
 2911 013d 0B       		.uleb128 0xb
 2912 013e 3A       		.uleb128 0x3a
 2913 013f 0B       		.uleb128 0xb
 2914 0140 3B       		.uleb128 0x3b
 2915 0141 0B       		.uleb128 0xb
 2916 0142 6E       		.uleb128 0x6e
 2917 0143 0E       		.uleb128 0xe
 2918 0144 01       		.uleb128 0x1
 2919 0145 13       		.uleb128 0x13
 2920 0146 00       		.byte	0
 2921 0147 00       		.byte	0
 2922 0148 1B       		.uleb128 0x1b
 2923 0149 13       		.uleb128 0x13
 2924 014a 01       		.byte	0x1
 2925 014b 0B       		.uleb128 0xb
 2926 014c 05       		.uleb128 0x5
 2927 014d 3A       		.uleb128 0x3a
 2928 014e 0B       		.uleb128 0xb
 2929 014f 3B       		.uleb128 0x3b
 2930 0150 0B       		.uleb128 0xb
 2931 0151 6E       		.uleb128 0x6e
 2932 0152 0E       		.uleb128 0xe
 2933 0153 01       		.uleb128 0x1
 2934 0154 13       		.uleb128 0x13
 2935 0155 00       		.byte	0
 2936 0156 00       		.byte	0
 2937 0157 1C       		.uleb128 0x1c
 2938 0158 01       		.uleb128 0x1
 2939 0159 01       		.byte	0x1
 2940 015a 49       		.uleb128 0x49
 2941 015b 13       		.uleb128 0x13
 2942 015c 01       		.uleb128 0x1
 2943 015d 13       		.uleb128 0x13
 2944 015e 00       		.byte	0
 2945 015f 00       		.byte	0
 2946 0160 1D       		.uleb128 0x1d
 2947 0161 21       		.uleb128 0x21
 2948 0162 00       		.byte	0
 2949 0163 49       		.uleb128 0x49
 2950 0164 13       		.uleb128 0x13
 2951 0165 2F       		.uleb128 0x2f
ARM GAS  C:\Users\Luis\AppData\Local\Temp\ccFw6Xg2.s 			page 53


 2952 0166 0B       		.uleb128 0xb
 2953 0167 00       		.byte	0
 2954 0168 00       		.byte	0
 2955 0169 1E       		.uleb128 0x1e
 2956 016a 26       		.uleb128 0x26
 2957 016b 00       		.byte	0
 2958 016c 49       		.uleb128 0x49
 2959 016d 13       		.uleb128 0x13
 2960 016e 00       		.byte	0
 2961 016f 00       		.byte	0
 2962 0170 1F       		.uleb128 0x1f
 2963 0171 15       		.uleb128 0x15
 2964 0172 01       		.byte	0x1
 2965 0173 49       		.uleb128 0x49
 2966 0174 13       		.uleb128 0x13
 2967 0175 01       		.uleb128 0x1
 2968 0176 13       		.uleb128 0x13
 2969 0177 00       		.byte	0
 2970 0178 00       		.byte	0
 2971 0179 20       		.uleb128 0x20
 2972 017a 13       		.uleb128 0x13
 2973 017b 01       		.byte	0x1
 2974 017c 0B       		.uleb128 0xb
 2975 017d 0B       		.uleb128 0xb
 2976 017e 3A       		.uleb128 0x3a
 2977 017f 0B       		.uleb128 0xb
 2978 0180 3B       		.uleb128 0x3b
 2979 0181 0B       		.uleb128 0xb
 2980 0182 01       		.uleb128 0x1
 2981 0183 13       		.uleb128 0x13
 2982 0184 00       		.byte	0
 2983 0185 00       		.byte	0
 2984 0186 21       		.uleb128 0x21
 2985 0187 0D       		.uleb128 0xd
 2986 0188 00       		.byte	0
 2987 0189 03       		.uleb128 0x3
 2988 018a 08       		.uleb128 0x8
 2989 018b 3A       		.uleb128 0x3a
 2990 018c 0B       		.uleb128 0xb
 2991 018d 3B       		.uleb128 0x3b
 2992 018e 0B       		.uleb128 0xb
 2993 018f 49       		.uleb128 0x49
 2994 0190 13       		.uleb128 0x13
 2995 0191 00       		.byte	0
 2996 0192 00       		.byte	0
 2997 0193 22       		.uleb128 0x22
 2998 0194 13       		.uleb128 0x13
 2999 0195 01       		.byte	0x1
 3000 0196 03       		.uleb128 0x3
 3001 0197 0E       		.uleb128 0xe
 3002 0198 0B       		.uleb128 0xb
 3003 0199 05       		.uleb128 0x5
 3004 019a 3A       		.uleb128 0x3a
 3005 019b 0B       		.uleb128 0xb
 3006 019c 3B       		.uleb128 0x3b
 3007 019d 0B       		.uleb128 0xb
 3008 019e 01       		.uleb128 0x1
ARM GAS  C:\Users\Luis\AppData\Local\Temp\ccFw6Xg2.s 			page 54


 3009 019f 13       		.uleb128 0x13
 3010 01a0 00       		.byte	0
 3011 01a1 00       		.byte	0
 3012 01a2 23       		.uleb128 0x23
 3013 01a3 0D       		.uleb128 0xd
 3014 01a4 00       		.byte	0
 3015 01a5 03       		.uleb128 0x3
 3016 01a6 08       		.uleb128 0x8
 3017 01a7 3A       		.uleb128 0x3a
 3018 01a8 0B       		.uleb128 0xb
 3019 01a9 3B       		.uleb128 0x3b
 3020 01aa 0B       		.uleb128 0xb
 3021 01ab 49       		.uleb128 0x49
 3022 01ac 13       		.uleb128 0x13
 3023 01ad 38       		.uleb128 0x38
 3024 01ae 05       		.uleb128 0x5
 3025 01af 00       		.byte	0
 3026 01b0 00       		.byte	0
 3027 01b1 24       		.uleb128 0x24
 3028 01b2 0D       		.uleb128 0xd
 3029 01b3 00       		.byte	0
 3030 01b4 03       		.uleb128 0x3
 3031 01b5 0E       		.uleb128 0xe
 3032 01b6 3A       		.uleb128 0x3a
 3033 01b7 0B       		.uleb128 0xb
 3034 01b8 3B       		.uleb128 0x3b
 3035 01b9 0B       		.uleb128 0xb
 3036 01ba 49       		.uleb128 0x49
 3037 01bb 13       		.uleb128 0x13
 3038 01bc 38       		.uleb128 0x38
 3039 01bd 05       		.uleb128 0x5
 3040 01be 00       		.byte	0
 3041 01bf 00       		.byte	0
 3042 01c0 25       		.uleb128 0x25
 3043 01c1 21       		.uleb128 0x21
 3044 01c2 00       		.byte	0
 3045 01c3 49       		.uleb128 0x49
 3046 01c4 13       		.uleb128 0x13
 3047 01c5 2F       		.uleb128 0x2f
 3048 01c6 05       		.uleb128 0x5
 3049 01c7 00       		.byte	0
 3050 01c8 00       		.byte	0
 3051 01c9 26       		.uleb128 0x26
 3052 01ca 0D       		.uleb128 0xd
 3053 01cb 00       		.byte	0
 3054 01cc 03       		.uleb128 0x3
 3055 01cd 0E       		.uleb128 0xe
 3056 01ce 49       		.uleb128 0x49
 3057 01cf 13       		.uleb128 0x13
 3058 01d0 38       		.uleb128 0x38
 3059 01d1 0B       		.uleb128 0xb
 3060 01d2 34       		.uleb128 0x34
 3061 01d3 19       		.uleb128 0x19
 3062 01d4 00       		.byte	0
 3063 01d5 00       		.byte	0
 3064 01d6 27       		.uleb128 0x27
 3065 01d7 2E       		.uleb128 0x2e
ARM GAS  C:\Users\Luis\AppData\Local\Temp\ccFw6Xg2.s 			page 55


 3066 01d8 01       		.byte	0x1
 3067 01d9 03       		.uleb128 0x3
 3068 01da 0E       		.uleb128 0xe
 3069 01db 3A       		.uleb128 0x3a
 3070 01dc 0B       		.uleb128 0xb
 3071 01dd 3B       		.uleb128 0x3b
 3072 01de 0B       		.uleb128 0xb
 3073 01df 11       		.uleb128 0x11
 3074 01e0 01       		.uleb128 0x1
 3075 01e1 12       		.uleb128 0x12
 3076 01e2 06       		.uleb128 0x6
 3077 01e3 40       		.uleb128 0x40
 3078 01e4 18       		.uleb128 0x18
 3079 01e5 9742     		.uleb128 0x2117
 3080 01e7 19       		.uleb128 0x19
 3081 01e8 01       		.uleb128 0x1
 3082 01e9 13       		.uleb128 0x13
 3083 01ea 00       		.byte	0
 3084 01eb 00       		.byte	0
 3085 01ec 28       		.uleb128 0x28
 3086 01ed 05       		.uleb128 0x5
 3087 01ee 00       		.byte	0
 3088 01ef 03       		.uleb128 0x3
 3089 01f0 0E       		.uleb128 0xe
 3090 01f1 3A       		.uleb128 0x3a
 3091 01f2 0B       		.uleb128 0xb
 3092 01f3 3B       		.uleb128 0x3b
 3093 01f4 0B       		.uleb128 0xb
 3094 01f5 49       		.uleb128 0x49
 3095 01f6 13       		.uleb128 0x13
 3096 01f7 02       		.uleb128 0x2
 3097 01f8 18       		.uleb128 0x18
 3098 01f9 00       		.byte	0
 3099 01fa 00       		.byte	0
 3100 01fb 29       		.uleb128 0x29
 3101 01fc 2E       		.uleb128 0x2e
 3102 01fd 01       		.byte	0x1
 3103 01fe 03       		.uleb128 0x3
 3104 01ff 0E       		.uleb128 0xe
 3105 0200 3A       		.uleb128 0x3a
 3106 0201 0B       		.uleb128 0xb
 3107 0202 3B       		.uleb128 0x3b
 3108 0203 0B       		.uleb128 0xb
 3109 0204 49       		.uleb128 0x49
 3110 0205 13       		.uleb128 0x13
 3111 0206 11       		.uleb128 0x11
 3112 0207 01       		.uleb128 0x1
 3113 0208 12       		.uleb128 0x12
 3114 0209 06       		.uleb128 0x6
 3115 020a 40       		.uleb128 0x40
 3116 020b 18       		.uleb128 0x18
 3117 020c 9642     		.uleb128 0x2116
 3118 020e 19       		.uleb128 0x19
 3119 020f 01       		.uleb128 0x1
 3120 0210 13       		.uleb128 0x13
 3121 0211 00       		.byte	0
 3122 0212 00       		.byte	0
ARM GAS  C:\Users\Luis\AppData\Local\Temp\ccFw6Xg2.s 			page 56


 3123 0213 2A       		.uleb128 0x2a
 3124 0214 05       		.uleb128 0x5
 3125 0215 00       		.byte	0
 3126 0216 03       		.uleb128 0x3
 3127 0217 08       		.uleb128 0x8
 3128 0218 3A       		.uleb128 0x3a
 3129 0219 0B       		.uleb128 0xb
 3130 021a 3B       		.uleb128 0x3b
 3131 021b 0B       		.uleb128 0xb
 3132 021c 49       		.uleb128 0x49
 3133 021d 13       		.uleb128 0x13
 3134 021e 02       		.uleb128 0x2
 3135 021f 18       		.uleb128 0x18
 3136 0220 00       		.byte	0
 3137 0221 00       		.byte	0
 3138 0222 2B       		.uleb128 0x2b
 3139 0223 18       		.uleb128 0x18
 3140 0224 00       		.byte	0
 3141 0225 00       		.byte	0
 3142 0226 00       		.byte	0
 3143 0227 2C       		.uleb128 0x2c
 3144 0228 0B       		.uleb128 0xb
 3145 0229 01       		.byte	0x1
 3146 022a 11       		.uleb128 0x11
 3147 022b 01       		.uleb128 0x1
 3148 022c 12       		.uleb128 0x12
 3149 022d 06       		.uleb128 0x6
 3150 022e 00       		.byte	0
 3151 022f 00       		.byte	0
 3152 0230 2D       		.uleb128 0x2d
 3153 0231 34       		.uleb128 0x34
 3154 0232 00       		.byte	0
 3155 0233 03       		.uleb128 0x3
 3156 0234 08       		.uleb128 0x8
 3157 0235 3A       		.uleb128 0x3a
 3158 0236 0B       		.uleb128 0xb
 3159 0237 3B       		.uleb128 0x3b
 3160 0238 0B       		.uleb128 0xb
 3161 0239 49       		.uleb128 0x49
 3162 023a 13       		.uleb128 0x13
 3163 023b 02       		.uleb128 0x2
 3164 023c 18       		.uleb128 0x18
 3165 023d 00       		.byte	0
 3166 023e 00       		.byte	0
 3167 023f 2E       		.uleb128 0x2e
 3168 0240 34       		.uleb128 0x34
 3169 0241 00       		.byte	0
 3170 0242 03       		.uleb128 0x3
 3171 0243 0E       		.uleb128 0xe
 3172 0244 3A       		.uleb128 0x3a
 3173 0245 0B       		.uleb128 0xb
 3174 0246 3B       		.uleb128 0x3b
 3175 0247 0B       		.uleb128 0xb
 3176 0248 49       		.uleb128 0x49
 3177 0249 13       		.uleb128 0x13
 3178 024a 02       		.uleb128 0x2
 3179 024b 18       		.uleb128 0x18
ARM GAS  C:\Users\Luis\AppData\Local\Temp\ccFw6Xg2.s 			page 57


 3180 024c 00       		.byte	0
 3181 024d 00       		.byte	0
 3182 024e 2F       		.uleb128 0x2f
 3183 024f 2E       		.uleb128 0x2e
 3184 0250 01       		.byte	0x1
 3185 0251 03       		.uleb128 0x3
 3186 0252 0E       		.uleb128 0xe
 3187 0253 3A       		.uleb128 0x3a
 3188 0254 0B       		.uleb128 0xb
 3189 0255 3B       		.uleb128 0x3b
 3190 0256 0B       		.uleb128 0xb
 3191 0257 11       		.uleb128 0x11
 3192 0258 01       		.uleb128 0x1
 3193 0259 12       		.uleb128 0x12
 3194 025a 06       		.uleb128 0x6
 3195 025b 40       		.uleb128 0x40
 3196 025c 18       		.uleb128 0x18
 3197 025d 9642     		.uleb128 0x2116
 3198 025f 19       		.uleb128 0x19
 3199 0260 01       		.uleb128 0x1
 3200 0261 13       		.uleb128 0x13
 3201 0262 00       		.byte	0
 3202 0263 00       		.byte	0
 3203 0264 30       		.uleb128 0x30
 3204 0265 02       		.uleb128 0x2
 3205 0266 00       		.byte	0
 3206 0267 03       		.uleb128 0x3
 3207 0268 0E       		.uleb128 0xe
 3208 0269 3C       		.uleb128 0x3c
 3209 026a 19       		.uleb128 0x19
 3210 026b 00       		.byte	0
 3211 026c 00       		.byte	0
 3212 026d 31       		.uleb128 0x31
 3213 026e 02       		.uleb128 0x2
 3214 026f 00       		.byte	0
 3215 0270 03       		.uleb128 0x3
 3216 0271 08       		.uleb128 0x8
 3217 0272 3C       		.uleb128 0x3c
 3218 0273 19       		.uleb128 0x19
 3219 0274 00       		.byte	0
 3220 0275 00       		.byte	0
 3221 0276 32       		.uleb128 0x32
 3222 0277 2E       		.uleb128 0x2e
 3223 0278 01       		.byte	0x1
 3224 0279 3F       		.uleb128 0x3f
 3225 027a 19       		.uleb128 0x19
 3226 027b 03       		.uleb128 0x3
 3227 027c 0E       		.uleb128 0xe
 3228 027d 3A       		.uleb128 0x3a
 3229 027e 0B       		.uleb128 0xb
 3230 027f 3B       		.uleb128 0x3b
 3231 0280 0B       		.uleb128 0xb
 3232 0281 49       		.uleb128 0x49
 3233 0282 13       		.uleb128 0x13
 3234 0283 11       		.uleb128 0x11
 3235 0284 01       		.uleb128 0x1
 3236 0285 12       		.uleb128 0x12
ARM GAS  C:\Users\Luis\AppData\Local\Temp\ccFw6Xg2.s 			page 58


 3237 0286 06       		.uleb128 0x6
 3238 0287 40       		.uleb128 0x40
 3239 0288 18       		.uleb128 0x18
 3240 0289 9642     		.uleb128 0x2116
 3241 028b 19       		.uleb128 0x19
 3242 028c 01       		.uleb128 0x1
 3243 028d 13       		.uleb128 0x13
 3244 028e 00       		.byte	0
 3245 028f 00       		.byte	0
 3246 0290 33       		.uleb128 0x33
 3247 0291 34       		.uleb128 0x34
 3248 0292 00       		.byte	0
 3249 0293 03       		.uleb128 0x3
 3250 0294 0E       		.uleb128 0xe
 3251 0295 3A       		.uleb128 0x3a
 3252 0296 0B       		.uleb128 0xb
 3253 0297 3B       		.uleb128 0x3b
 3254 0298 05       		.uleb128 0x5
 3255 0299 49       		.uleb128 0x49
 3256 029a 13       		.uleb128 0x13
 3257 029b 3F       		.uleb128 0x3f
 3258 029c 19       		.uleb128 0x19
 3259 029d 3C       		.uleb128 0x3c
 3260 029e 19       		.uleb128 0x19
 3261 029f 00       		.byte	0
 3262 02a0 00       		.byte	0
 3263 02a1 34       		.uleb128 0x34
 3264 02a2 34       		.uleb128 0x34
 3265 02a3 00       		.byte	0
 3266 02a4 03       		.uleb128 0x3
 3267 02a5 08       		.uleb128 0x8
 3268 02a6 3A       		.uleb128 0x3a
 3269 02a7 0B       		.uleb128 0xb
 3270 02a8 3B       		.uleb128 0x3b
 3271 02a9 05       		.uleb128 0x5
 3272 02aa 49       		.uleb128 0x49
 3273 02ab 13       		.uleb128 0x13
 3274 02ac 3F       		.uleb128 0x3f
 3275 02ad 19       		.uleb128 0x19
 3276 02ae 3C       		.uleb128 0x3c
 3277 02af 19       		.uleb128 0x19
 3278 02b0 00       		.byte	0
 3279 02b1 00       		.byte	0
 3280 02b2 35       		.uleb128 0x35
 3281 02b3 34       		.uleb128 0x34
 3282 02b4 00       		.byte	0
 3283 02b5 03       		.uleb128 0x3
 3284 02b6 0E       		.uleb128 0xe
 3285 02b7 3A       		.uleb128 0x3a
 3286 02b8 0B       		.uleb128 0xb
 3287 02b9 3B       		.uleb128 0x3b
 3288 02ba 0B       		.uleb128 0xb
 3289 02bb 49       		.uleb128 0x49
 3290 02bc 13       		.uleb128 0x13
 3291 02bd 3F       		.uleb128 0x3f
 3292 02be 19       		.uleb128 0x19
 3293 02bf 02       		.uleb128 0x2
ARM GAS  C:\Users\Luis\AppData\Local\Temp\ccFw6Xg2.s 			page 59


 3294 02c0 18       		.uleb128 0x18
 3295 02c1 00       		.byte	0
 3296 02c2 00       		.byte	0
 3297 02c3 00       		.byte	0
 3298              		.section	.debug_aranges,"",%progbits
 3299 0000 34000000 		.4byte	0x34
 3300 0004 0200     		.2byte	0x2
 3301 0006 00000000 		.4byte	.Ldebug_info0
 3302 000a 04       		.byte	0x4
 3303 000b 00       		.byte	0
 3304 000c 0000     		.2byte	0
 3305 000e 0000     		.2byte	0
 3306 0010 00000000 		.4byte	.LFB186
 3307 0014 20000000 		.4byte	.LFE186-.LFB186
 3308 0018 00000000 		.4byte	.LFB260
 3309 001c 2C000000 		.4byte	.LFE260-.LFB260
 3310 0020 00000000 		.4byte	.LFB261
 3311 0024 68010000 		.4byte	.LFE261-.LFB261
 3312 0028 00000000 		.4byte	.LFB262
 3313 002c 3C010000 		.4byte	.LFE262-.LFB262
 3314 0030 00000000 		.4byte	0
 3315 0034 00000000 		.4byte	0
 3316              		.section	.debug_ranges,"",%progbits
 3317              	.Ldebug_ranges0:
 3318 0000 00000000 		.4byte	.LFB186
 3319 0004 20000000 		.4byte	.LFE186
 3320 0008 00000000 		.4byte	.LFB260
 3321 000c 2C000000 		.4byte	.LFE260
 3322 0010 00000000 		.4byte	.LFB261
 3323 0014 68010000 		.4byte	.LFE261
 3324 0018 00000000 		.4byte	.LFB262
 3325 001c 3C010000 		.4byte	.LFE262
 3326 0020 00000000 		.4byte	0
 3327 0024 00000000 		.4byte	0
 3328              		.section	.debug_line,"",%progbits
 3329              	.Ldebug_line0:
 3330 0000 B5030000 		.section	.debug_str,"MS",%progbits,1
 3330      02002903 
 3330      00000201 
 3330      FB0E0D00 
 3330      01010101 
 3331              	.LASF58:
 3332 0000 63685F74 		.ascii	"ch_threads_list\000"
 3332      68726561 
 3332      64735F6C 
 3332      69737400 
 3333              	.LASF59:
 3334 0010 74687265 		.ascii	"threads_queue_t\000"
 3334      6164735F 
 3334      71756575 
 3334      655F7400 
 3335              	.LASF191:
 3336 0020 53657269 		.ascii	"SerialDriver\000"
 3336      616C4472 
 3336      69766572 
 3336      00
 3337              	.LASF211:
ARM GAS  C:\Users\Luis\AppData\Local\Temp\ccFw6Xg2.s 			page 60


 3338 002d 6E616D65 		.ascii	"name\000"
 3338      00
 3339              	.LASF123:
 3340 0032 746D5F63 		.ascii	"tm_calibration_t\000"
 3340      616C6962 
 3340      72617469 
 3340      6F6E5F74 
 3340      00
 3341              	.LASF55:
 3342 0043 74687265 		.ascii	"thread_reference_t\000"
 3342      61645F72 
 3342      65666572 
 3342      656E6365 
 3342      5F7400
 3343              	.LASF180:
 3344 0056 42535252 		.ascii	"BSRR\000"
 3344      00
 3345              	.LASF143:
 3346 005b 63686172 		.ascii	"char\000"
 3346      00
 3347              	.LASF107:
 3348 0060 72656761 		.ascii	"regarm_t\000"
 3348      726D5F74 
 3348      00
 3349              	.LASF37:
 3350 0069 705F7072 		.ascii	"p_prio\000"
 3350      696F00
 3351              	.LASF152:
 3352 0070 6576656E 		.ascii	"event_source\000"
 3352      745F736F 
 3352      75726365 
 3352      00
 3353              	.LASF26:
 3354 007d 73797374 		.ascii	"systime_t\000"
 3354      696D655F 
 3354      7400
 3355              	.LASF137:
 3356 0087 735F7175 		.ascii	"s_queue\000"
 3356      65756500 
 3357              	.LASF155:
 3358 008f 696F5F71 		.ascii	"io_queue_t\000"
 3358      75657565 
 3358      5F7400
 3359              	.LASF47:
 3360 009a 705F6D73 		.ascii	"p_msgqueue\000"
 3360      67717565 
 3360      756500
 3361              	.LASF130:
 3362 00a5 31346B65 		.ascii	"14kernel_stats_t\000"
 3362      726E656C 
 3362      5F737461 
 3362      74735F74 
 3362      00
 3363              	.LASF0:
 3364 00b6 756E7369 		.ascii	"unsigned int\000"
 3364      676E6564 
 3364      20696E74 
ARM GAS  C:\Users\Luis\AppData\Local\Temp\ccFw6Xg2.s 			page 61


 3364      00
 3365              	.LASF134:
 3366 00c3 6D5F6372 		.ascii	"m_crit_isr\000"
 3366      69745F69 
 3366      737200
 3367              	.LASF56:
 3368 00ce 74687265 		.ascii	"threads_list_t\000"
 3368      6164735F 
 3368      6C697374 
 3368      5F7400
 3369              	.LASF128:
 3370 00dd 63756D75 		.ascii	"cumulative\000"
 3370      6C617469 
 3370      766500
 3371              	.LASF46:
 3372 00e8 705F7761 		.ascii	"p_waiting\000"
 3372      6974696E 
 3372      6700
 3373              	.LASF106:
 3374 00f2 4572726F 		.ascii	"ErrorStatus\000"
 3374      72537461 
 3374      74757300 
 3375              	.LASF168:
 3376 00fe 42617365 		.ascii	"BaseSequentialStreamVMT\000"
 3376      53657175 
 3376      656E7469 
 3376      616C5374 
 3376      7265616D 
 3377              	.LASF114:
 3378 0116 73655F73 		.ascii	"se_state\000"
 3378      74617465 
 3378      00
 3379              	.LASF165:
 3380 011f 716E6F74 		.ascii	"qnotify_t\000"
 3380      6966795F 
 3380      7400
 3381              	.LASF30:
 3382 0129 77746F62 		.ascii	"wtobjp\000"
 3382      6A7000
 3383              	.LASF89:
 3384 0130 76746C69 		.ascii	"vtlist\000"
 3384      737400
 3385              	.LASF164:
 3386 0137 715F6C69 		.ascii	"q_link\000"
 3386      6E6B00
 3387              	.LASF97:
 3388 013e 466C6167 		.ascii	"FlagStatus\000"
 3388      53746174 
 3388      757300
 3389              	.LASF236:
 3390 0149 433A5C55 		.ascii	"C:\\Users\\Luis\\git\\DSP-Library-Lanin\\examples\\"
 3390      73657273 
 3390      5C4C7569 
 3390      735C6769 
 3390      745C4453 
 3391 0176 4453502D 		.ascii	"DSP-Library\000"
 3391      4C696272 
ARM GAS  C:\Users\Luis\AppData\Local\Temp\ccFw6Xg2.s 			page 62


 3391      61727900 
 3392              	.LASF92:
 3393 0182 69646C65 		.ascii	"idle_thread_wa\000"
 3393      5F746872 
 3393      6561645F 
 3393      776100
 3394              	.LASF34:
 3395 0191 65776D61 		.ascii	"ewmask\000"
 3395      736B00
 3396              	.LASF62:
 3397 0198 63685F72 		.ascii	"ch_ready_list\000"
 3397      65616479 
 3397      5F6C6973 
 3397      7400
 3398              	.LASF197:
 3399 01a6 31325365 		.ascii	"12SerialConfig\000"
 3399      7269616C 
 3399      436F6E66 
 3399      696700
 3400              	.LASF69:
 3401 01b5 76746675 		.ascii	"vtfunc_t\000"
 3401      6E635F74 
 3401      00
 3402              	.LASF198:
 3403 01be 73706565 		.ascii	"speed\000"
 3403      6400
 3404              	.LASF203:
 3405 01c4 77726974 		.ascii	"writet\000"
 3405      657400
 3406              	.LASF138:
 3407 01cb 735F636E 		.ascii	"s_cnt\000"
 3407      7400
 3408              	.LASF81:
 3409 01d1 63685F73 		.ascii	"ch_system_debug\000"
 3409      79737465 
 3409      6D5F6465 
 3409      62756700 
 3410              	.LASF103:
 3411 01e1 31314572 		.ascii	"11ErrorStatus\000"
 3411      726F7253 
 3411      74617475 
 3411      7300
 3412              	.LASF194:
 3413 01ef 69717565 		.ascii	"iqueue\000"
 3413      756500
 3414              	.LASF10:
 3415 01f6 75696E74 		.ascii	"uint32_t\000"
 3415      33325F74 
 3415      00
 3416              	.LASF157:
 3417 01ff 715F7761 		.ascii	"q_waiting\000"
 3417      6974696E 
 3417      6700
 3418              	.LASF135:
 3419 0209 6B65726E 		.ascii	"kernel_stats_t\000"
 3419      656C5F73 
 3419      74617473 
ARM GAS  C:\Users\Luis\AppData\Local\Temp\ccFw6Xg2.s 			page 63


 3419      5F7400
 3420              	.LASF94:
 3421 0218 47545052 		.ascii	"GTPR\000"
 3421      00
 3422              	.LASF22:
 3423 021d 6576656E 		.ascii	"eventmask_t\000"
 3423      746D6173 
 3423      6B5F7400 
 3424              	.LASF64:
 3425 0229 725F7072 		.ascii	"r_prio\000"
 3425      696F00
 3426              	.LASF199:
 3427 0230 53657269 		.ascii	"SerialConfig\000"
 3427      616C436F 
 3427      6E666967 
 3427      00
 3428              	.LASF91:
 3429 023d 6B65726E 		.ascii	"kernel_stats\000"
 3429      656C5F73 
 3429      74617473 
 3429      00
 3430              	.LASF76:
 3431 024a 76745F70 		.ascii	"vt_par\000"
 3431      617200
 3432              	.LASF209:
 3433 0251 666C6F61 		.ascii	"float\000"
 3433      7400
 3434              	.LASF190:
 3435 0257 73647374 		.ascii	"sdstate_t\000"
 3435      6174655F 
 3435      7400
 3436              	.LASF192:
 3437 0261 6576656E 		.ascii	"event\000"
 3437      7400
 3438              	.LASF136:
 3439 0267 63685F73 		.ascii	"ch_semaphore\000"
 3439      656D6170 
 3439      686F7265 
 3439      00
 3440              	.LASF20:
 3441 0274 74707269 		.ascii	"tprio_t\000"
 3441      6F5F7400 
 3442              	.LASF71:
 3443 027c 63685F76 		.ascii	"ch_virtual_timer\000"
 3443      69727475 
 3443      616C5F74 
 3443      696D6572 
 3443      00
 3444              	.LASF153:
 3445 028d 65735F6E 		.ascii	"es_next\000"
 3445      65787400 
 3446              	.LASF150:
 3447 0295 656C5F66 		.ascii	"el_flags\000"
 3447      6C616773 
 3447      00
 3448              	.LASF14:
 3449 029e 6C6F6E67 		.ascii	"long long unsigned int\000"
ARM GAS  C:\Users\Luis\AppData\Local\Temp\ccFw6Xg2.s 			page 64


 3449      206C6F6E 
 3449      6720756E 
 3449      7369676E 
 3449      65642069 
 3450              	.LASF113:
 3451 02b5 73655F77 		.ascii	"se_wtobjp\000"
 3451      746F626A 
 3451      7000
 3452              	.LASF154:
 3453 02bf 6576656E 		.ascii	"event_source_t\000"
 3453      745F736F 
 3453      75726365 
 3453      5F7400
 3454              	.LASF24:
 3455 02ce 636E745F 		.ascii	"cnt_t\000"
 3455      7400
 3456              	.LASF229:
 3457 02d4 5F547970 		.ascii	"_TypeOfForm\000"
 3457      654F6646 
 3457      6F726D00 
 3458              	.LASF176:
 3459 02e0 4D4F4445 		.ascii	"MODER\000"
 3459      5200
 3460              	.LASF83:
 3461 02e6 6973725F 		.ascii	"isr_cnt\000"
 3461      636E7400 
 3462              	.LASF126:
 3463 02ee 776F7273 		.ascii	"worst\000"
 3463      7400
 3464              	.LASF184:
 3465 02f4 73746D33 		.ascii	"stm32_gpio_t\000"
 3465      325F6770 
 3465      696F5F74 
 3465      00
 3466              	.LASF182:
 3467 0301 4146524C 		.ascii	"AFRL\000"
 3467      00
 3468              	.LASF39:
 3469 0306 705F6E65 		.ascii	"p_newer\000"
 3469      77657200 
 3470              	.LASF175:
 3471 030e 636C6561 		.ascii	"clear\000"
 3471      7200
 3472              	.LASF222:
 3473 0314 44617461 		.ascii	"DataFilter\000"
 3473      46696C74 
 3473      657200
 3474              	.LASF78:
 3475 031f 63685F76 		.ascii	"ch_virtual_timers_list\000"
 3475      69727475 
 3475      616C5F74 
 3475      696D6572 
 3475      735F6C69 
 3476              	.LASF27:
 3477 0336 74687265 		.ascii	"thread_t\000"
 3477      61645F74 
 3477      00
ARM GAS  C:\Users\Luis\AppData\Local\Temp\ccFw6Xg2.s 			page 65


 3478              	.LASF151:
 3479 033f 656C5F77 		.ascii	"el_wflags\000"
 3479      666C6167 
 3479      7300
 3480              	.LASF171:
 3481 0349 32304261 		.ascii	"20BaseSequentialStream\000"
 3481      73655365 
 3481      7175656E 
 3481      7469616C 
 3481      53747265 
 3482              	.LASF205:
 3483 0360 5F5F676E 		.ascii	"__gnuc_va_list\000"
 3483      75635F76 
 3483      615F6C69 
 3483      737400
 3484              	.LASF201:
 3485 036f 70757474 		.ascii	"putt\000"
 3485      00
 3486              	.LASF2:
 3487 0374 73697A65 		.ascii	"size_t\000"
 3487      5F7400
 3488              	.LASF28:
 3489 037b 7264796D 		.ascii	"rdymsg\000"
 3489      736700
 3490              	.LASF122:
 3491 0382 6F666673 		.ascii	"offset\000"
 3491      657400
 3492              	.LASF188:
 3493 0389 53445F53 		.ascii	"SD_STOP\000"
 3493      544F5000 
 3494              	.LASF174:
 3495 0391 31327374 		.ascii	"12stm32_gpio_t\000"
 3495      6D33325F 
 3495      6770696F 
 3495      5F7400
 3496              	.LASF139:
 3497 03a0 63685F6D 		.ascii	"ch_mutex\000"
 3497      75746578 
 3497      00
 3498              	.LASF216:
 3499 03a9 5F446174 		.ascii	"_DataFilter\000"
 3499      6146696C 
 3499      74657200 
 3500              	.LASF95:
 3501 03b5 55534152 		.ascii	"USART_TypeDef\000"
 3501      545F5479 
 3501      70654465 
 3501      6600
 3502              	.LASF127:
 3503 03c3 6C617374 		.ascii	"last\000"
 3503      00
 3504              	.LASF163:
 3505 03c8 715F6E6F 		.ascii	"q_notify\000"
 3505      74696679 
 3505      00
 3506              	.LASF239:
 3507 03d1 63687072 		.ascii	"chprintf\000"
ARM GAS  C:\Users\Luis\AppData\Local\Temp\ccFw6Xg2.s 			page 66


 3507      696E7466 
 3507      00
 3508              	.LASF179:
 3509 03da 50555044 		.ascii	"PUPDR\000"
 3509      5200
 3510              	.LASF129:
 3511 03e0 74696D65 		.ascii	"time_measurement_t\000"
 3511      5F6D6561 
 3511      73757265 
 3511      6D656E74 
 3511      5F7400
 3512              	.LASF41:
 3513 03f3 705F6E61 		.ascii	"p_name\000"
 3513      6D6500
 3514              	.LASF172:
 3515 03fa 42617365 		.ascii	"BaseSequentialStream\000"
 3515      53657175 
 3515      656E7469 
 3515      616C5374 
 3515      7265616D 
 3516              	.LASF234:
 3517 040f 474E5520 		.ascii	"GNU C++ 4.8.3 20131129 (release) [ARM/embedded-4_8-"
 3517      432B2B20 
 3517      342E382E 
 3517      33203230 
 3517      31333131 
 3518 0442 6272616E 		.ascii	"branch revision 205641] -mcpu=cortex-m4 -mapcs-fram"
 3518      63682072 
 3518      65766973 
 3518      696F6E20 
 3518      32303536 
 3519 0475 65202D6D 		.ascii	"e -mno-thumb-interwork -mthumb -ggdb -O0 -falign-fu"
 3519      6E6F2D74 
 3519      68756D62 
 3519      2D696E74 
 3519      6572776F 
 3520 04a8 6E637469 		.ascii	"nctions=16 -ffunction-sections -fdata-sections -fno"
 3520      6F6E733D 
 3520      3136202D 
 3520      6666756E 
 3520      6374696F 
 3521 04db 2D636F6D 		.ascii	"-common -fno-rtti -fno-exceptions\000"
 3521      6D6F6E20 
 3521      2D666E6F 
 3521      2D727474 
 3521      69202D66 
 3522              	.LASF105:
 3523 04fd 53554343 		.ascii	"SUCCESS\000"
 3523      45535300 
 3524              	.LASF74:
 3525 0505 76745F64 		.ascii	"vt_delta\000"
 3525      656C7461 
 3525      00
 3526              	.LASF100:
 3527 050e 44495341 		.ascii	"DISABLE\000"
 3527      424C4500 
 3528              	.LASF16:
ARM GAS  C:\Users\Luis\AppData\Local\Temp\ccFw6Xg2.s 			page 67


 3529 0516 72747469 		.ascii	"rttime_t\000"
 3529      6D655F74 
 3529      00
 3530              	.LASF79:
 3531 051f 76745F6C 		.ascii	"vt_lasttime\000"
 3531      61737474 
 3531      696D6500 
 3532              	.LASF161:
 3533 052b 715F7772 		.ascii	"q_wrptr\000"
 3533      70747200 
 3534              	.LASF224:
 3535 0533 5F46696C 		.ascii	"_FilterOrder\000"
 3535      7465724F 
 3535      72646572 
 3535      00
 3536              	.LASF18:
 3537 0540 74737461 		.ascii	"tstate_t\000"
 3537      74655F74 
 3537      00
 3538              	.LASF112:
 3539 0549 73655F74 		.ascii	"se_tp\000"
 3539      7000
 3540              	.LASF12:
 3541 054f 6C6F6E67 		.ascii	"long long int\000"
 3541      206C6F6E 
 3541      6720696E 
 3541      7400
 3542              	.LASF40:
 3543 055d 705F6F6C 		.ascii	"p_older\000"
 3543      64657200 
 3544              	.LASF111:
 3545 0565 73655F74 		.ascii	"se_time\000"
 3545      696D6500 
 3546              	.LASF220:
 3547 056d 5F436C61 		.ascii	"_ClassFIR\000"
 3547      73734649 
 3547      5200
 3548              	.LASF42:
 3549 0577 705F7374 		.ascii	"p_stklimit\000"
 3549      6B6C696D 
 3549      697400
 3550              	.LASF3:
 3551 0582 75696E74 		.ascii	"uint8_t\000"
 3551      385F7400 
 3552              	.LASF118:
 3553 058a 74625F62 		.ascii	"tb_buffer\000"
 3553      75666665 
 3553      7200
 3554              	.LASF53:
 3555 0594 705F7374 		.ascii	"p_stats\000"
 3555      61747300 
 3556              	.LASF166:
 3557 059c 696E7075 		.ascii	"input_queue_t\000"
 3557      745F7175 
 3557      6575655F 
 3557      7400
 3558              	.LASF52:
ARM GAS  C:\Users\Luis\AppData\Local\Temp\ccFw6Xg2.s 			page 68


 3559 05aa 705F6D70 		.ascii	"p_mpool\000"
 3559      6F6F6C00 
 3560              	.LASF50:
 3561 05b2 705F6D74 		.ascii	"p_mtxlist\000"
 3561      786C6973 
 3561      7400
 3562              	.LASF99:
 3563 05bc 31354675 		.ascii	"15FunctionalState\000"
 3563      6E637469 
 3563      6F6E616C 
 3563      53746174 
 3563      6500
 3564              	.LASF43:
 3565 05ce 705F7374 		.ascii	"p_state\000"
 3565      61746500 
 3566              	.LASF57:
 3567 05d6 63685F74 		.ascii	"ch_thread\000"
 3567      68726561 
 3567      6400
 3568              	.LASF116:
 3569 05e0 74625F73 		.ascii	"tb_size\000"
 3569      697A6500 
 3570              	.LASF196:
 3571 05e8 75736172 		.ascii	"usart\000"
 3571      7400
 3572              	.LASF208:
 3573 05ee 76615F6C 		.ascii	"va_list\000"
 3573      69737400 
 3574              	.LASF80:
 3575 05f6 73797374 		.ascii	"system_debug_t\000"
 3575      656D5F64 
 3575      65627567 
 3575      5F7400
 3576              	.LASF60:
 3577 0605 63685F74 		.ascii	"ch_threads_queue\000"
 3577      68726561 
 3577      64735F71 
 3577      75657565 
 3577      00
 3578              	.LASF169:
 3579 0616 77726974 		.ascii	"write\000"
 3579      6500
 3580              	.LASF146:
 3581 061c 6576656E 		.ascii	"event_listener\000"
 3581      745F6C69 
 3581      7374656E 
 3581      657200
 3582              	.LASF63:
 3583 062b 725F7175 		.ascii	"r_queue\000"
 3583      65756500 
 3584              	.LASF66:
 3585 0633 725F6E65 		.ascii	"r_newer\000"
 3585      77657200 
 3586              	.LASF21:
 3587 063b 6D73675F 		.ascii	"msg_t\000"
 3587      7400
 3588              	.LASF109:
ARM GAS  C:\Users\Luis\AppData\Local\Temp\ccFw6Xg2.s 			page 69


 3589 0641 636F6E74 		.ascii	"context\000"
 3589      65787400 
 3590              	.LASF210:
 3591 0649 74797065 		.ascii	"typeOfDirectForm\000"
 3591      4F664469 
 3591      72656374 
 3591      466F726D 
 3591      00
 3592              	.LASF173:
 3593 065a 626F6F6C 		.ascii	"bool\000"
 3593      00
 3594              	.LASF185:
 3595 065f 696F706F 		.ascii	"ioportmask_t\000"
 3595      72746D61 
 3595      736B5F74 
 3595      00
 3596              	.LASF44:
 3597 066c 705F666C 		.ascii	"p_flags\000"
 3597      61677300 
 3598              	.LASF207:
 3599 0674 5F5F6170 		.ascii	"__ap\000"
 3599      00
 3600              	.LASF70:
 3601 0679 76697274 		.ascii	"virtual_timer_t\000"
 3601      75616C5F 
 3601      74696D65 
 3601      725F7400 
 3602              	.LASF228:
 3603 0689 5F436F65 		.ascii	"_CoeficientesA\000"
 3603      66696369 
 3603      656E7465 
 3603      734100
 3604              	.LASF226:
 3605 0698 5F436F65 		.ascii	"_CoeficientesB\000"
 3605      66696369 
 3605      656E7465 
 3605      734200
 3606              	.LASF215:
 3607 06a7 70417267 		.ascii	"pArg\000"
 3607      00
 3608              	.LASF238:
 3609 06ac 31376368 		.ascii	"17ch_trace_buffer_t\000"
 3609      5F747261 
 3609      63655F62 
 3609      75666665 
 3609      725F7400 
 3610              	.LASF167:
 3611 06c0 6F757470 		.ascii	"output_queue_t\000"
 3611      75745F71 
 3611      75657565 
 3611      5F7400
 3612              	.LASF235:
 3613 06cf 6D61696E 		.ascii	"main.cpp\000"
 3613      2E637070 
 3613      00
 3614              	.LASF117:
 3615 06d8 74625F70 		.ascii	"tb_ptr\000"
ARM GAS  C:\Users\Luis\AppData\Local\Temp\ccFw6Xg2.s 			page 70


 3615      747200
 3616              	.LASF102:
 3617 06df 46756E63 		.ascii	"FunctionalState\000"
 3617      74696F6E 
 3617      616C5374 
 3617      61746500 
 3618              	.LASF181:
 3619 06ef 4C434B52 		.ascii	"LCKR\000"
 3619      00
 3620              	.LASF67:
 3621 06f4 725F6F6C 		.ascii	"r_older\000"
 3621      64657200 
 3622              	.LASF232:
 3623 06fc 5469706F 		.ascii	"TipoFiltro\000"
 3623      46696C74 
 3623      726F00
 3624              	.LASF11:
 3625 0707 6C6F6E67 		.ascii	"long unsigned int\000"
 3625      20756E73 
 3625      69676E65 
 3625      6420696E 
 3625      7400
 3626              	.LASF23:
 3627 0719 6576656E 		.ascii	"eventflags_t\000"
 3627      74666C61 
 3627      67735F74 
 3627      00
 3628              	.LASF82:
 3629 0726 70616E69 		.ascii	"panic_msg\000"
 3629      635F6D73 
 3629      6700
 3630              	.LASF147:
 3631 0730 656C5F6E 		.ascii	"el_next\000"
 3631      65787400 
 3632              	.LASF217:
 3633 0738 5F456E74 		.ascii	"_EntradasX\000"
 3633      72616461 
 3633      735800
 3634              	.LASF48:
 3635 0743 705F6D73 		.ascii	"p_msg\000"
 3635      6700
 3636              	.LASF124:
 3637 0749 31387469 		.ascii	"18time_measurement_t\000"
 3637      6D655F6D 
 3637      65617375 
 3637      72656D65 
 3637      6E745F74 
 3638              	.LASF17:
 3639 075e 746D6F64 		.ascii	"tmode_t\000"
 3639      655F7400 
 3640              	.LASF25:
 3641 0766 75636E74 		.ascii	"ucnt_t\000"
 3641      5F7400
 3642              	.LASF90:
 3643 076d 6D61696E 		.ascii	"mainthread\000"
 3643      74687265 
 3643      616400
ARM GAS  C:\Users\Luis\AppData\Local\Temp\ccFw6Xg2.s 			page 71


 3644              	.LASF178:
 3645 0778 4F535045 		.ascii	"OSPEEDR\000"
 3645      45445200 
 3646              	.LASF7:
 3647 0780 73686F72 		.ascii	"short unsigned int\000"
 3647      7420756E 
 3647      7369676E 
 3647      65642069 
 3647      6E7400
 3648              	.LASF195:
 3649 0793 6F717565 		.ascii	"oqueue\000"
 3649      756500
 3650              	.LASF6:
 3651 079a 75696E74 		.ascii	"uint16_t\000"
 3651      31365F74 
 3651      00
 3652              	.LASF219:
 3653 07a3 5F436C61 		.ascii	"_ClassIIR\000"
 3653      73734949 
 3653      5200
 3654              	.LASF213:
 3655 07ad 63685265 		.ascii	"chRegSetThreadName\000"
 3655      67536574 
 3655      54687265 
 3655      61644E61 
 3655      6D6500
 3656              	.LASF15:
 3657 07c0 7274636E 		.ascii	"rtcnt_t\000"
 3657      745F7400 
 3658              	.LASF189:
 3659 07c8 53445F52 		.ascii	"SD_READY\000"
 3659      45414459 
 3659      00
 3660              	.LASF84:
 3661 07d1 6C6F636B 		.ascii	"lock_cnt\000"
 3661      5F636E74 
 3661      00
 3662              	.LASF131:
 3663 07da 6E5F6972 		.ascii	"n_irq\000"
 3663      7100
 3664              	.LASF51:
 3665 07e0 705F7265 		.ascii	"p_realprio\000"
 3665      616C7072 
 3665      696F00
 3666              	.LASF5:
 3667 07eb 73686F72 		.ascii	"short int\000"
 3667      7420696E 
 3667      7400
 3668              	.LASF68:
 3669 07f5 725F6375 		.ascii	"r_current\000"
 3669      7272656E 
 3669      7400
 3670              	.LASF49:
 3671 07ff 705F6570 		.ascii	"p_epending\000"
 3671      656E6469 
 3671      6E6700
 3672              	.LASF140:
ARM GAS  C:\Users\Luis\AppData\Local\Temp\ccFw6Xg2.s 			page 72


 3673 080a 6D5F7175 		.ascii	"m_queue\000"
 3673      65756500 
 3674              	.LASF9:
 3675 0812 6C6F6E67 		.ascii	"long int\000"
 3675      20696E74 
 3675      00
 3676              	.LASF110:
 3677 081b 706F7274 		.ascii	"port_intctx\000"
 3677      5F696E74 
 3677      63747800 
 3678              	.LASF231:
 3679 0827 49544D5F 		.ascii	"ITM_RxBuffer\000"
 3679      52784275 
 3679      66666572 
 3679      00
 3680              	.LASF87:
 3681 0834 63685F73 		.ascii	"ch_system\000"
 3681      79737465 
 3681      6D00
 3682              	.LASF133:
 3683 083e 6D5F6372 		.ascii	"m_crit_thd\000"
 3683      69745F74 
 3683      686400
 3684              	.LASF177:
 3685 0849 4F545950 		.ascii	"OTYPER\000"
 3685      455200
 3686              	.LASF35:
 3687 0850 705F6E65 		.ascii	"p_next\000"
 3687      787400
 3688              	.LASF96:
 3689 0857 52455345 		.ascii	"RESET\000"
 3689      5400
 3690              	.LASF13:
 3691 085d 75696E74 		.ascii	"uint64_t\000"
 3691      36345F74 
 3691      00
 3692              	.LASF38:
 3693 0866 705F6374 		.ascii	"p_ctx\000"
 3693      7800
 3694              	.LASF88:
 3695 086c 726C6973 		.ascii	"rlist\000"
 3695      7400
 3696              	.LASF230:
 3697 0872 5F417267 		.ascii	"_Arg\000"
 3697      00
 3698              	.LASF170:
 3699 0877 72656164 		.ascii	"read\000"
 3699      00
 3700              	.LASF148:
 3701 087c 656C5F6C 		.ascii	"el_listener\000"
 3701      69737465 
 3701      6E657200 
 3702              	.LASF187:
 3703 0888 53445F55 		.ascii	"SD_UNINIT\000"
 3703      4E494E49 
 3703      5400
 3704              	.LASF104:
ARM GAS  C:\Users\Luis\AppData\Local\Temp\ccFw6Xg2.s 			page 73


 3705 0892 4552524F 		.ascii	"ERROR\000"
 3705      5200
 3706              	.LASF158:
 3707 0898 715F636F 		.ascii	"q_counter\000"
 3707      756E7465 
 3707      7200
 3708              	.LASF202:
 3709 08a2 67657474 		.ascii	"gett\000"
 3709      00
 3710              	.LASF160:
 3711 08a7 715F746F 		.ascii	"q_top\000"
 3711      7000
 3712              	.LASF36:
 3713 08ad 705F7072 		.ascii	"p_prev\000"
 3713      657600
 3714              	.LASF101:
 3715 08b4 454E4142 		.ascii	"ENABLE\000"
 3715      4C4500
 3716              	.LASF93:
 3717 08bb 73697A65 		.ascii	"sizetype\000"
 3717      74797065 
 3717      00
 3718              	.LASF19:
 3719 08c4 74726566 		.ascii	"trefs_t\000"
 3719      735F7400 
 3720              	.LASF145:
 3721 08cc 6576656E 		.ascii	"event_listener_t\000"
 3721      745F6C69 
 3721      7374656E 
 3721      65725F74 
 3721      00
 3722              	.LASF121:
 3723 08dd 3136746D 		.ascii	"16tm_calibration_t\000"
 3723      5F63616C 
 3723      69627261 
 3723      74696F6E 
 3723      5F7400
 3724              	.LASF61:
 3725 08f0 72656164 		.ascii	"ready_list_t\000"
 3725      795F6C69 
 3725      73745F74 
 3725      00
 3726              	.LASF120:
 3727 08fd 31346368 		.ascii	"14ch_swc_event_t\000"
 3727      5F737763 
 3727      5F657665 
 3727      6E745F74 
 3727      00
 3728              	.LASF8:
 3729 090e 696E7433 		.ascii	"int32_t\000"
 3729      325F7400 
 3730              	.LASF85:
 3731 0916 74726163 		.ascii	"trace_buffer\000"
 3731      655F6275 
 3731      66666572 
 3731      00
 3732              	.LASF32:
ARM GAS  C:\Users\Luis\AppData\Local\Temp\ccFw6Xg2.s 			page 74


 3733 0923 77747365 		.ascii	"wtsemp\000"
 3733      6D7000
 3734              	.LASF218:
 3735 092a 5F526573 		.ascii	"_Result\000"
 3735      756C7400 
 3736              	.LASF115:
 3737 0932 63685F73 		.ascii	"ch_swc_event_t\000"
 3737      77635F65 
 3737      76656E74 
 3737      5F7400
 3738              	.LASF233:
 3739 0941 77615468 		.ascii	"waThread1\000"
 3739      72656164 
 3739      3100
 3740              	.LASF144:
 3741 094b 6D757465 		.ascii	"mutex_t\000"
 3741      785F7400 
 3742              	.LASF183:
 3743 0953 41465248 		.ascii	"AFRH\000"
 3743      00
 3744              	.LASF125:
 3745 0958 62657374 		.ascii	"best\000"
 3745      00
 3746              	.LASF225:
 3747 095d 5F436F6E 		.ascii	"_CondicionesInicialesX\000"
 3747      64696369 
 3747      6F6E6573 
 3747      496E6963 
 3747      69616C65 
 3748              	.LASF227:
 3749 0974 5F436F6E 		.ascii	"_CondicionesInicialesY\000"
 3749      64696369 
 3749      6F6E6573 
 3749      496E6963 
 3749      69616C65 
 3750              	.LASF4:
 3751 098b 756E7369 		.ascii	"unsigned char\000"
 3751      676E6564 
 3751      20636861 
 3751      7200
 3752              	.LASF77:
 3753 0999 76697274 		.ascii	"virtual_timers_list_t\000"
 3753      75616C5F 
 3753      74696D65 
 3753      72735F6C 
 3753      6973745F 
 3754              	.LASF149:
 3755 09af 656C5F65 		.ascii	"el_events\000"
 3755      76656E74 
 3755      7300
 3756              	.LASF221:
 3757 09b9 5F436F6E 		.ascii	"_Cont\000"
 3757      7400
 3758              	.LASF108:
 3759 09bf 73746B61 		.ascii	"stkalign_t\000"
 3759      6C69676E 
 3759      5F7400
ARM GAS  C:\Users\Luis\AppData\Local\Temp\ccFw6Xg2.s 			page 75


 3760              	.LASF45:
 3761 09ca 705F7265 		.ascii	"p_refs\000"
 3761      667300
 3762              	.LASF193:
 3763 09d1 73746174 		.ascii	"state\000"
 3763      6500
 3764              	.LASF72:
 3765 09d7 76745F6E 		.ascii	"vt_next\000"
 3765      65787400 
 3766              	.LASF214:
 3767 09df 54687265 		.ascii	"Thread1\000"
 3767      61643100 
 3768              	.LASF86:
 3769 09e7 63685F73 		.ascii	"ch_system_t\000"
 3769      79737465 
 3769      6D5F7400 
 3770              	.LASF31:
 3771 09f3 77747472 		.ascii	"wttrp\000"
 3771      7000
 3772              	.LASF206:
 3773 09f9 5F5F7661 		.ascii	"__va_list\000"
 3773      5F6C6973 
 3773      7400
 3774              	.LASF119:
 3775 0a03 63685F74 		.ascii	"ch_trace_buffer_t\000"
 3775      72616365 
 3775      5F627566 
 3775      6665725F 
 3775      7400
 3776              	.LASF142:
 3777 0a15 6D5F6E65 		.ascii	"m_next\000"
 3777      787400
 3778              	.LASF1:
 3779 0a1c 7369676E 		.ascii	"signed char\000"
 3779      65642063 
 3779      68617200 
 3780              	.LASF156:
 3781 0a28 696F5F71 		.ascii	"io_queue\000"
 3781      75657565 
 3781      00
 3782              	.LASF204:
 3783 0a31 72656164 		.ascii	"readt\000"
 3783      7400
 3784              	.LASF200:
 3785 0a37 53657269 		.ascii	"SerialDriverVMT\000"
 3785      616C4472 
 3785      69766572 
 3785      564D5400 
 3786              	.LASF65:
 3787 0a47 725F6374 		.ascii	"r_ctx\000"
 3787      7800
 3788              	.LASF54:
 3789 0a4d 746C7350 		.ascii	"tlsPtr\000"
 3789      747200
 3790              	.LASF240:
 3791 0a54 6D61696E 		.ascii	"main\000"
 3791      00
ARM GAS  C:\Users\Luis\AppData\Local\Temp\ccFw6Xg2.s 			page 76


 3792              	.LASF75:
 3793 0a59 76745F66 		.ascii	"vt_func\000"
 3793      756E6300 
 3794              	.LASF73:
 3795 0a61 76745F70 		.ascii	"vt_prev\000"
 3795      72657600 
 3796              	.LASF212:
 3797 0a69 666F726D 		.ascii	"formatted_bytes\000"
 3797      61747465 
 3797      645F6279 
 3797      74657300 
 3798              	.LASF186:
 3799 0a79 39736473 		.ascii	"9sdstate_t\000"
 3799      74617465 
 3799      5F7400
 3800              	.LASF98:
 3801 0a84 3130466C 		.ascii	"10FlagStatus\000"
 3801      61675374 
 3801      61747573 
 3801      00
 3802              	.LASF162:
 3803 0a91 715F7264 		.ascii	"q_rdptr\000"
 3803      70747200 
 3804              	.LASF223:
 3805 0a99 75617274 		.ascii	"uartCfg\000"
 3805      43666700 
 3806              	.LASF33:
 3807 0aa1 77746D74 		.ascii	"wtmtxp\000"
 3807      787000
 3808              	.LASF237:
 3809 0aa8 31335553 		.ascii	"13USART_TypeDef\000"
 3809      4152545F 
 3809      54797065 
 3809      44656600 
 3810              	.LASF132:
 3811 0ab8 6E5F6374 		.ascii	"n_ctxswc\000"
 3811      78737763 
 3811      00
 3812              	.LASF29:
 3813 0ac1 65786974 		.ascii	"exitcode\000"
 3813      636F6465 
 3813      00
 3814              	.LASF159:
 3815 0aca 715F6275 		.ascii	"q_buffer\000"
 3815      66666572 
 3815      00
 3816              	.LASF141:
 3817 0ad3 6D5F6F77 		.ascii	"m_owner\000"
 3817      6E657200 
 3818              		.ident	"GCC: (GNU Tools for ARM Embedded Processors) 4.8.3 20131129 (release) [ARM/embedded-4_8-br
ARM GAS  C:\Users\Luis\AppData\Local\Temp\ccFw6Xg2.s 			page 77


DEFINED SYMBOLS
                            *ABS*:00000000 main.cpp
C:\Users\Luis\AppData\Local\Temp\ccFw6Xg2.s:19     .text._ZL18chRegSetThreadNamePKc:00000000 $t
C:\Users\Luis\AppData\Local\Temp\ccFw6Xg2.s:24     .text._ZL18chRegSetThreadNamePKc:00000000 _ZL18chRegSetThreadNamePKc
C:\Users\Luis\AppData\Local\Temp\ccFw6Xg2.s:54     .text._ZL18chRegSetThreadNamePKc:0000001c $d
C:\Users\Luis\AppData\Local\Temp\ccFw6Xg2.s:59     .text._ZL8chprintfP20BaseSequentialStreamPKcz:00000000 $t
C:\Users\Luis\AppData\Local\Temp\ccFw6Xg2.s:64     .text._ZL8chprintfP20BaseSequentialStreamPKcz:00000000 _ZL8chprintfP20BaseSequentialStreamPKcz
C:\Users\Luis\AppData\Local\Temp\ccFw6Xg2.s:114    .data.TipoFiltro:00000000 TipoFiltro
C:\Users\Luis\AppData\Local\Temp\ccFw6Xg2.s:111    .data.TipoFiltro:00000000 $d
C:\Users\Luis\AppData\Local\Temp\ccFw6Xg2.s:117    .bss._ZL9waThread1:00000000 $d
C:\Users\Luis\AppData\Local\Temp\ccFw6Xg2.s:120    .bss._ZL9waThread1:00000000 _ZL9waThread1
C:\Users\Luis\AppData\Local\Temp\ccFw6Xg2.s:123    .rodata:00000000 $d
C:\Users\Luis\AppData\Local\Temp\ccFw6Xg2.s:152    .text._ZL7Thread1Pv:00000000 $t
C:\Users\Luis\AppData\Local\Temp\ccFw6Xg2.s:157    .text._ZL7Thread1Pv:00000000 _ZL7Thread1Pv
C:\Users\Luis\AppData\Local\Temp\ccFw6Xg2.s:354    .text._ZL7Thread1Pv:0000014c $d
C:\Users\Luis\AppData\Local\Temp\ccFw6Xg2.s:378    .text.main:00000000 $t
C:\Users\Luis\AppData\Local\Temp\ccFw6Xg2.s:384    .text.main:00000000 main
C:\Users\Luis\AppData\Local\Temp\ccFw6Xg2.s:536    .text.main:0000011c $d
                     .debug_frame:00000010 $d
C:\Users\Luis\AppData\Local\Temp\ccFw6Xg2.s:364    .text._ZL7Thread1Pv:00000168 $t
C:\Users\Luis\AppData\Local\Temp\ccFw6Xg2.s:548    .text.main:0000013c $t

UNDEFINED SYMBOLS
ch
chvprintf
__aeabi_f2d
chHeapAlloc
_ZN6Filter20setInitialDataFilterEP10DataFilter
chThdSleep
_ZN3IIR11directFormIEf
_ZN3FIR11directFormIEf
_ZN3IIR12directFormIIEf
SD1
halInit
chSysInit
sdStart
_ZN10DataFilter13newDataFilterEiPfS0_S0_S0_i
_ZN10DataFilter13newDataFilterEiPfS0_i
_ZN10DataFilter13newDataFilterEiPfS0_S0_i
chThdCreateStatic
