ARM GAS  C:\Users\Luis\AppData\Local\Temp\cc8iVhJQ.s 			page 1


   1              		.syntax unified
   2              		.cpu cortex-m4
   3              		.fpu softvfp
   4              		.eabi_attribute 20, 1
   5              		.eabi_attribute 21, 1
   6              		.eabi_attribute 23, 3
   7              		.eabi_attribute 24, 1
   8              		.eabi_attribute 25, 1
   9              		.eabi_attribute 26, 1
  10              		.eabi_attribute 30, 6
  11              		.eabi_attribute 34, 1
  12              		.eabi_attribute 18, 4
  13              		.thumb
  14              		.file	"nvic.c"
  15              		.text
  16              	.Ltext0:
  17              		.cfi_sections	.debug_frame
  18              		.section	.text.nvicEnableVector,"ax",%progbits
  19              		.align	2
  20              		.p2align 4,,15
  21              		.global	nvicEnableVector
  22              		.thumb
  23              		.thumb_func
  24              		.type	nvicEnableVector, %function
  25              	nvicEnableVector:
  26              	.LFB260:
  27              		.file 1 "../../ChibiOS/os/hal/ports/common/ARMCMx/nvic.c"
  28              		.loc 1 57 0
  29              		.cfi_startproc
  30              		@ args = 0, pretend = 0, frame = 8
  31              		@ frame_needed = 1, uses_anonymous_args = 0
  32              		@ link register save eliminated.
  33 0000 80B4     		push	{r7}
  34              		.cfi_def_cfa_offset 4
  35              		.cfi_offset 7, -4
  36 0002 83B0     		sub	sp, sp, #12
  37              		.cfi_def_cfa_offset 16
  38 0004 00AF     		add	r7, sp, #0
  39              		.cfi_def_cfa_register 7
  40 0006 7860     		str	r0, [r7, #4]
  41 0008 3960     		str	r1, [r7]
  42              		.loc 1 59 0
  43 000a 1349     		ldr	r1, .L2
  44 000c 3B68     		ldr	r3, [r7]
  45 000e DBB2     		uxtb	r3, r3
  46 0010 1B01     		lsls	r3, r3, #4
  47 0012 DAB2     		uxtb	r2, r3
  48 0014 7B68     		ldr	r3, [r7, #4]
  49 0016 0B44     		add	r3, r3, r1
  50 0018 03F54073 		add	r3, r3, #768
  51 001c 1A70     		strb	r2, [r3]
  52              		.loc 1 60 0
  53 001e 0E4B     		ldr	r3, .L2
  54 0020 7A68     		ldr	r2, [r7, #4]
  55 0022 5209     		lsrs	r2, r2, #5
  56 0024 7968     		ldr	r1, [r7, #4]
  57 0026 01F01F01 		and	r1, r1, #31
ARM GAS  C:\Users\Luis\AppData\Local\Temp\cc8iVhJQ.s 			page 2


  58 002a 0120     		movs	r0, #1
  59 002c 00FA01F1 		lsl	r1, r0, r1
  60 0030 6032     		adds	r2, r2, #96
  61 0032 43F82210 		str	r1, [r3, r2, lsl #2]
  62              		.loc 1 61 0
  63 0036 084B     		ldr	r3, .L2
  64 0038 7A68     		ldr	r2, [r7, #4]
  65 003a 5209     		lsrs	r2, r2, #5
  66 003c 7968     		ldr	r1, [r7, #4]
  67 003e 01F01F01 		and	r1, r1, #31
  68 0042 0120     		movs	r0, #1
  69 0044 00FA01F1 		lsl	r1, r0, r1
  70 0048 43F82210 		str	r1, [r3, r2, lsl #2]
  71              		.loc 1 62 0
  72 004c 0C37     		adds	r7, r7, #12
  73 004e BD46     		mov	sp, r7
  74              		@ sp needed
  75 0050 5DF8047B 		ldr	r7, [sp], #4
  76 0054 7047     		bx	lr
  77              	.L3:
  78 0056 00BF     		.align	2
  79              	.L2:
  80 0058 00E100E0 		.word	-536813312
  81              		.cfi_endproc
  82              	.LFE260:
  83              		.size	nvicEnableVector, .-nvicEnableVector
  84 005c AFF30080 		.section	.text.nvicDisableVector,"ax",%progbits
  85              		.align	2
  86              		.p2align 4,,15
  87              		.global	nvicDisableVector
  88              		.thumb
  89              		.thumb_func
  90              		.type	nvicDisableVector, %function
  91              	nvicDisableVector:
  92              	.LFB261:
  93              		.loc 1 69 0
  94              		.cfi_startproc
  95              		@ args = 0, pretend = 0, frame = 8
  96              		@ frame_needed = 1, uses_anonymous_args = 0
  97              		@ link register save eliminated.
  98 0000 80B4     		push	{r7}
  99              		.cfi_def_cfa_offset 4
 100              		.cfi_offset 7, -4
 101 0002 83B0     		sub	sp, sp, #12
 102              		.cfi_def_cfa_offset 16
 103 0004 00AF     		add	r7, sp, #0
 104              		.cfi_def_cfa_register 7
 105 0006 7860     		str	r0, [r7, #4]
 106              		.loc 1 71 0
 107 0008 0B4B     		ldr	r3, .L5
 108 000a 7A68     		ldr	r2, [r7, #4]
 109 000c 5209     		lsrs	r2, r2, #5
 110 000e 7968     		ldr	r1, [r7, #4]
 111 0010 01F01F01 		and	r1, r1, #31
 112 0014 0120     		movs	r0, #1
 113 0016 00FA01F1 		lsl	r1, r0, r1
 114 001a 2032     		adds	r2, r2, #32
ARM GAS  C:\Users\Luis\AppData\Local\Temp\cc8iVhJQ.s 			page 3


 115 001c 43F82210 		str	r1, [r3, r2, lsl #2]
 116              		.loc 1 72 0
 117 0020 054A     		ldr	r2, .L5
 118 0022 7B68     		ldr	r3, [r7, #4]
 119 0024 1344     		add	r3, r3, r2
 120 0026 03F54073 		add	r3, r3, #768
 121 002a 0022     		movs	r2, #0
 122 002c 1A70     		strb	r2, [r3]
 123              		.loc 1 73 0
 124 002e 0C37     		adds	r7, r7, #12
 125 0030 BD46     		mov	sp, r7
 126              		@ sp needed
 127 0032 5DF8047B 		ldr	r7, [sp], #4
 128 0036 7047     		bx	lr
 129              	.L6:
 130              		.align	2
 131              	.L5:
 132 0038 00E100E0 		.word	-536813312
 133              		.cfi_endproc
 134              	.LFE261:
 135              		.size	nvicDisableVector, .-nvicDisableVector
 136 003c AFF30080 		.section	.text.nvicSetSystemHandlerPriority,"ax",%progbits
 137              		.align	2
 138              		.p2align 4,,15
 139              		.global	nvicSetSystemHandlerPriority
 140              		.thumb
 141              		.thumb_func
 142              		.type	nvicSetSystemHandlerPriority, %function
 143              	nvicSetSystemHandlerPriority:
 144              	.LFB262:
 145              		.loc 1 81 0
 146              		.cfi_startproc
 147              		@ args = 0, pretend = 0, frame = 8
 148              		@ frame_needed = 1, uses_anonymous_args = 0
 149 0000 80B5     		push	{r7, lr}
 150              		.cfi_def_cfa_offset 8
 151              		.cfi_offset 7, -8
 152              		.cfi_offset 14, -4
 153 0002 82B0     		sub	sp, sp, #8
 154              		.cfi_def_cfa_offset 16
 155 0004 00AF     		add	r7, sp, #0
 156              		.cfi_def_cfa_register 7
 157 0006 7860     		str	r0, [r7, #4]
 158 0008 3960     		str	r1, [r7]
 159              		.loc 1 83 0
 160 000a 7B68     		ldr	r3, [r7, #4]
 161 000c 0C2B     		cmp	r3, #12
 162 000e 02D9     		bls	.L8
 163              		.loc 1 83 0 is_stmt 0 discriminator 1
 164 0010 0748     		ldr	r0, .L9
 165 0012 FFF7FEFF 		bl	chSysHalt
 166              	.L8:
 167              		.loc 1 85 0 is_stmt 1
 168 0016 0749     		ldr	r1, .L9+4
 169 0018 3B68     		ldr	r3, [r7]
 170 001a DBB2     		uxtb	r3, r3
 171 001c 1B01     		lsls	r3, r3, #4
ARM GAS  C:\Users\Luis\AppData\Local\Temp\cc8iVhJQ.s 			page 4


 172 001e DAB2     		uxtb	r2, r3
 173 0020 7B68     		ldr	r3, [r7, #4]
 174 0022 0B44     		add	r3, r3, r1
 175 0024 1833     		adds	r3, r3, #24
 176 0026 1A70     		strb	r2, [r3]
 177              		.loc 1 86 0
 178 0028 0837     		adds	r7, r7, #8
 179 002a BD46     		mov	sp, r7
 180              		@ sp needed
 181 002c 80BD     		pop	{r7, pc}
 182              	.L10:
 183 002e 00BF     		.align	2
 184              	.L9:
 185 0030 00000000 		.word	__func__.7914
 186 0034 00ED00E0 		.word	-536810240
 187              		.cfi_endproc
 188              	.LFE262:
 189              		.size	nvicSetSystemHandlerPriority, .-nvicSetSystemHandlerPriority
 190 0038 AFF30080 		.section	.text.nvicClearPending,"ax",%progbits
 190      AFF30080 
 191              		.align	2
 192              		.p2align 4,,15
 193              		.global	nvicClearPending
 194              		.thumb
 195              		.thumb_func
 196              		.type	nvicClearPending, %function
 197              	nvicClearPending:
 198              	.LFB263:
 199              		.loc 1 93 0
 200              		.cfi_startproc
 201              		@ args = 0, pretend = 0, frame = 8
 202              		@ frame_needed = 1, uses_anonymous_args = 0
 203              		@ link register save eliminated.
 204 0000 80B4     		push	{r7}
 205              		.cfi_def_cfa_offset 4
 206              		.cfi_offset 7, -4
 207 0002 83B0     		sub	sp, sp, #12
 208              		.cfi_def_cfa_offset 16
 209 0004 00AF     		add	r7, sp, #0
 210              		.cfi_def_cfa_register 7
 211 0006 7860     		str	r0, [r7, #4]
 212              		.loc 1 95 0
 213 0008 084B     		ldr	r3, .L12
 214 000a 7A68     		ldr	r2, [r7, #4]
 215 000c 5209     		lsrs	r2, r2, #5
 216 000e 7968     		ldr	r1, [r7, #4]
 217 0010 01F01F01 		and	r1, r1, #31
 218 0014 0120     		movs	r0, #1
 219 0016 00FA01F1 		lsl	r1, r0, r1
 220 001a 6032     		adds	r2, r2, #96
 221 001c 43F82210 		str	r1, [r3, r2, lsl #2]
 222              		.loc 1 96 0
 223 0020 0C37     		adds	r7, r7, #12
 224 0022 BD46     		mov	sp, r7
 225              		@ sp needed
 226 0024 5DF8047B 		ldr	r7, [sp], #4
 227 0028 7047     		bx	lr
ARM GAS  C:\Users\Luis\AppData\Local\Temp\cc8iVhJQ.s 			page 5


 228              	.L13:
 229 002a 00BF     		.align	2
 230              	.L12:
 231 002c 00E100E0 		.word	-536813312
 232              		.cfi_endproc
 233              	.LFE263:
 234              		.size	nvicClearPending, .-nvicClearPending
 235              		.section	.rodata.__func__.7914,"a",%progbits
 236              		.align	2
 237              		.type	__func__.7914, %object
 238              		.size	__func__.7914, 29
 239              	__func__.7914:
 240 0000 6E766963 		.ascii	"nvicSetSystemHandlerPriority\000"
 240      53657453 
 240      79737465 
 240      6D48616E 
 240      646C6572 
 241 001d 000000   		.text
 242              	.Letext0:
 243              		.file 2 "c:\\emtechesdk\\gcc\\arm-none-eabi\\include\\stdint.h"
 244              		.file 3 "../../ChibiOS/os/rt/ports/ARMCMx/compilers/GCC/chtypes.h"
 245              		.file 4 "../../ChibiOS/os/rt/include/chsystypes.h"
 246              		.file 5 "../../ChibiOS/os/rt/include/chschd.h"
 247              		.file 6 "../../ChibiOS/os/ext/CMSIS/include/core_cm4.h"
 248              		.file 7 "../../ChibiOS/os/rt/ports/ARMCMx/chcore.h"
 249              		.file 8 "../../ChibiOS/os/rt/ports/ARMCMx/chcore_v7m.h"
 250              		.file 9 "../../ChibiOS/os/rt/include/chdebug.h"
 251              		.file 10 "../../ChibiOS/os/rt/include/chtm.h"
 252              		.file 11 "../../ChibiOS/os/rt/include/chstats.h"
 253              		.file 12 "../../ChibiOS/os/rt/include/chsem.h"
 254              		.file 13 "../../ChibiOS/os/rt/include/chmtx.h"