ARM GAS  C:\Users\Luis\AppData\Local\Temp\ccGu3bwk.s 			page 1


   1              		.syntax unified
   2              		.cpu cortex-m4
   3              		.fpu softvfp
   4              		.eabi_attribute 20, 1
   5              		.eabi_attribute 21, 1
   6              		.eabi_attribute 23, 3
   7              		.eabi_attribute 24, 1
   8              		.eabi_attribute 25, 1
   9              		.eabi_attribute 26, 1
  10              		.eabi_attribute 30, 6
  11              		.eabi_attribute 34, 1
  12              		.eabi_attribute 18, 4
  13              		.thumb
  14              		.file	"pal_lld.c"
  15              		.text
  16              	.Ltext0:
  17              		.cfi_sections	.debug_frame
  18              		.section	.text.initgpio,"ax",%progbits
  19              		.align	2
  20              		.p2align 4,,15
  21              		.thumb
  22              		.thumb_func
  23              		.type	initgpio, %function
  24              	initgpio:
  25              	.LFB260:
  26              		.file 1 "../../ChibiOS/os/hal/ports/STM32/LLD/GPIOv2/pal_lld.c"
  27              		.loc 1 65 0
  28              		.cfi_startproc
  29              		@ args = 0, pretend = 0, frame = 8
  30              		@ frame_needed = 1, uses_anonymous_args = 0
  31              		@ link register save eliminated.
  32 0000 80B4     		push	{r7}
  33              		.cfi_def_cfa_offset 4
  34              		.cfi_offset 7, -4
  35 0002 83B0     		sub	sp, sp, #12
  36              		.cfi_def_cfa_offset 16
  37 0004 00AF     		add	r7, sp, #0
  38              		.cfi_def_cfa_register 7
  39 0006 7860     		str	r0, [r7, #4]
  40 0008 3960     		str	r1, [r7]
  41              		.loc 1 67 0
  42 000a 3B68     		ldr	r3, [r7]
  43 000c 5A68     		ldr	r2, [r3, #4]
  44 000e 7B68     		ldr	r3, [r7, #4]
  45 0010 5A60     		str	r2, [r3, #4]
  46              		.loc 1 68 0
  47 0012 3B68     		ldr	r3, [r7]
  48 0014 9A68     		ldr	r2, [r3, #8]
  49 0016 7B68     		ldr	r3, [r7, #4]
  50 0018 9A60     		str	r2, [r3, #8]
  51              		.loc 1 69 0
  52 001a 3B68     		ldr	r3, [r7]
  53 001c DA68     		ldr	r2, [r3, #12]
  54 001e 7B68     		ldr	r3, [r7, #4]
  55 0020 DA60     		str	r2, [r3, #12]
  56              		.loc 1 70 0
  57 0022 3B68     		ldr	r3, [r7]
ARM GAS  C:\Users\Luis\AppData\Local\Temp\ccGu3bwk.s 			page 2


  58 0024 1A69     		ldr	r2, [r3, #16]
  59 0026 7B68     		ldr	r3, [r7, #4]
  60 0028 5A61     		str	r2, [r3, #20]
  61              		.loc 1 71 0
  62 002a 3B68     		ldr	r3, [r7]
  63 002c 5A69     		ldr	r2, [r3, #20]
  64 002e 7B68     		ldr	r3, [r7, #4]
  65 0030 1A62     		str	r2, [r3, #32]
  66              		.loc 1 72 0
  67 0032 3B68     		ldr	r3, [r7]
  68 0034 9A69     		ldr	r2, [r3, #24]
  69 0036 7B68     		ldr	r3, [r7, #4]
  70 0038 5A62     		str	r2, [r3, #36]
  71              		.loc 1 73 0
  72 003a 3B68     		ldr	r3, [r7]
  73 003c 1A68     		ldr	r2, [r3]
  74 003e 7B68     		ldr	r3, [r7, #4]
  75 0040 1A60     		str	r2, [r3]
  76              		.loc 1 74 0
  77 0042 0C37     		adds	r7, r7, #12
  78 0044 BD46     		mov	sp, r7
  79              		@ sp needed
  80 0046 5DF8047B 		ldr	r7, [sp], #4
  81 004a 7047     		bx	lr
  82              		.cfi_endproc
  83              	.LFE260:
  84              		.size	initgpio, .-initgpio
  85 004c AFF30080 		.section	.text._pal_lld_init,"ax",%progbits
  86              		.align	2
  87              		.p2align 4,,15
  88              		.global	_pal_lld_init
  89              		.thumb
  90              		.thumb_func
  91              		.type	_pal_lld_init, %function
  92              	_pal_lld_init:
  93              	.LFB261:
  94              		.loc 1 92 0
  95              		.cfi_startproc
  96              		@ args = 0, pretend = 0, frame = 8
  97              		@ frame_needed = 1, uses_anonymous_args = 0
  98 0000 80B5     		push	{r7, lr}
  99              		.cfi_def_cfa_offset 8
 100              		.cfi_offset 7, -8
 101              		.cfi_offset 14, -4
 102 0002 82B0     		sub	sp, sp, #8
 103              		.cfi_def_cfa_offset 16
 104 0004 00AF     		add	r7, sp, #0
 105              		.cfi_def_cfa_register 7
 106 0006 7860     		str	r0, [r7, #4]
 107              		.loc 1 105 0
 108 0008 234A     		ldr	r2, .L3
 109 000a 234B     		ldr	r3, .L3
 110 000c 1B6B     		ldr	r3, [r3, #48]
 111 000e 6FEA5323 		mvn	r3, r3, lsr #9
 112 0012 6FEA4323 		mvn	r3, r3, lsl #9
 113 0016 1363     		str	r3, [r2, #48]
 114              		.loc 1 106 0
ARM GAS  C:\Users\Luis\AppData\Local\Temp\ccGu3bwk.s 			page 3


 115 0018 1F4A     		ldr	r2, .L3
 116 001a 1F4B     		ldr	r3, .L3
 117 001c 1B6D     		ldr	r3, [r3, #80]
 118 001e 6FEA5323 		mvn	r3, r3, lsr #9
 119 0022 6FEA4323 		mvn	r3, r3, lsl #9
 120 0026 1365     		str	r3, [r2, #80]
 121              		.loc 1 113 0
 122 0028 7B68     		ldr	r3, [r7, #4]
 123 002a 1C48     		ldr	r0, .L3+4
 124 002c 1946     		mov	r1, r3
 125 002e FFF7FEFF 		bl	initgpio
 126              		.loc 1 116 0
 127 0032 7B68     		ldr	r3, [r7, #4]
 128 0034 1C33     		adds	r3, r3, #28
 129 0036 1A48     		ldr	r0, .L3+8
 130 0038 1946     		mov	r1, r3
 131 003a FFF7FEFF 		bl	initgpio
 132              		.loc 1 119 0
 133 003e 7B68     		ldr	r3, [r7, #4]
 134 0040 3833     		adds	r3, r3, #56
 135 0042 1848     		ldr	r0, .L3+12
 136 0044 1946     		mov	r1, r3
 137 0046 FFF7FEFF 		bl	initgpio
 138              		.loc 1 122 0
 139 004a 7B68     		ldr	r3, [r7, #4]
 140 004c 5433     		adds	r3, r3, #84
 141 004e 1648     		ldr	r0, .L3+16
 142 0050 1946     		mov	r1, r3
 143 0052 FFF7FEFF 		bl	initgpio
 144              		.loc 1 125 0
 145 0056 7B68     		ldr	r3, [r7, #4]
 146 0058 7033     		adds	r3, r3, #112
 147 005a 1448     		ldr	r0, .L3+20
 148 005c 1946     		mov	r1, r3
 149 005e FFF7FEFF 		bl	initgpio
 150              		.loc 1 128 0
 151 0062 7B68     		ldr	r3, [r7, #4]
 152 0064 8C33     		adds	r3, r3, #140
 153 0066 1248     		ldr	r0, .L3+24
 154 0068 1946     		mov	r1, r3
 155 006a FFF7FEFF 		bl	initgpio
 156              		.loc 1 131 0
 157 006e 7B68     		ldr	r3, [r7, #4]
 158 0070 A833     		adds	r3, r3, #168
 159 0072 1048     		ldr	r0, .L3+28
 160 0074 1946     		mov	r1, r3
 161 0076 FFF7FEFF 		bl	initgpio
 162              		.loc 1 134 0
 163 007a 7B68     		ldr	r3, [r7, #4]
 164 007c C433     		adds	r3, r3, #196
 165 007e 0E48     		ldr	r0, .L3+32
 166 0080 1946     		mov	r1, r3
 167 0082 FFF7FEFF 		bl	initgpio
 168              		.loc 1 137 0
 169 0086 7B68     		ldr	r3, [r7, #4]
 170 0088 E033     		adds	r3, r3, #224
 171 008a 0C48     		ldr	r0, .L3+36
ARM GAS  C:\Users\Luis\AppData\Local\Temp\ccGu3bwk.s 			page 4


 172 008c 1946     		mov	r1, r3
 173 008e FFF7FEFF 		bl	initgpio
 174              		.loc 1 139 0
 175 0092 0837     		adds	r7, r7, #8
 176 0094 BD46     		mov	sp, r7
 177              		@ sp needed
 178 0096 80BD     		pop	{r7, pc}
 179              	.L4:
 180              		.align	2
 181              	.L3:
 182 0098 00380240 		.word	1073887232
 183 009c 00000240 		.word	1073872896
 184 00a0 00040240 		.word	1073873920
 185 00a4 00080240 		.word	1073874944
 186 00a8 000C0240 		.word	1073875968
 187 00ac 00100240 		.word	1073876992
 188 00b0 00140240 		.word	1073878016
 189 00b4 00180240 		.word	1073879040
 190 00b8 001C0240 		.word	1073880064
 191 00bc 00200240 		.word	1073881088
 192              		.cfi_endproc
 193              	.LFE261:
 194              		.size	_pal_lld_init, .-_pal_lld_init
 195              		.section	.text._pal_lld_setgroupmode,"ax",%progbits
 196              		.align	2
 197              		.p2align 4,,15
 198              		.global	_pal_lld_setgroupmode
 199              		.thumb
 200              		.thumb_func
 201              		.type	_pal_lld_setgroupmode, %function
 202              	_pal_lld_setgroupmode:
 203              	.LFB262:
 204              		.loc 1 157 0
 205              		.cfi_startproc
 206              		@ args = 0, pretend = 0, frame = 56
 207              		@ frame_needed = 1, uses_anonymous_args = 0
 208              		@ link register save eliminated.
 209 0000 80B4     		push	{r7}
 210              		.cfi_def_cfa_offset 4
 211              		.cfi_offset 7, -4
 212 0002 8FB0     		sub	sp, sp, #60
 213              		.cfi_def_cfa_offset 64
 214 0004 00AF     		add	r7, sp, #0
 215              		.cfi_def_cfa_register 7
 216 0006 F860     		str	r0, [r7, #12]
 217 0008 B960     		str	r1, [r7, #8]
 218 000a 7A60     		str	r2, [r7, #4]
 219              		.loc 1 159 0
 220 000c 7B68     		ldr	r3, [r7, #4]
 221 000e 03F00303 		and	r3, r3, #3
 222 0012 7B63     		str	r3, [r7, #52]
 223              		.loc 1 160 0
 224 0014 7B68     		ldr	r3, [r7, #4]
 225 0016 03F00403 		and	r3, r3, #4
 226 001a 9B08     		lsrs	r3, r3, #2
 227 001c 3B63     		str	r3, [r7, #48]
 228              		.loc 1 161 0
ARM GAS  C:\Users\Luis\AppData\Local\Temp\ccGu3bwk.s 			page 5


 229 001e 7B68     		ldr	r3, [r7, #4]
 230 0020 03F01803 		and	r3, r3, #24
 231 0024 DB08     		lsrs	r3, r3, #3
 232 0026 FB62     		str	r3, [r7, #44]
 233              		.loc 1 162 0
 234 0028 7B68     		ldr	r3, [r7, #4]
 235 002a 03F06003 		and	r3, r3, #96
 236 002e 5B09     		lsrs	r3, r3, #5
 237 0030 BB62     		str	r3, [r7, #40]
 238              		.loc 1 163 0
 239 0032 7B68     		ldr	r3, [r7, #4]
 240 0034 03F4F063 		and	r3, r3, #1920
 241 0038 DB09     		lsrs	r3, r3, #7
 242 003a 3B62     		str	r3, [r7, #32]
 243              		.loc 1 164 0
 244 003c 0023     		movs	r3, #0
 245 003e 7B62     		str	r3, [r7, #36]
 246              	.L11:
 247              		.loc 1 166 0
 248 0040 BB68     		ldr	r3, [r7, #8]
 249 0042 03F00103 		and	r3, r3, #1
 250 0046 002B     		cmp	r3, #0
 251 0048 54D0     		beq	.L6
 252              	.LBB2:
 253              		.loc 1 169 0
 254 004a 7B6A     		ldr	r3, [r7, #36]
 255 004c 03F00703 		and	r3, r3, #7
 256 0050 9B00     		lsls	r3, r3, #2
 257 0052 3A6A     		ldr	r2, [r7, #32]
 258 0054 02FA03F3 		lsl	r3, r2, r3
 259 0058 FB61     		str	r3, [r7, #28]
 260              		.loc 1 170 0
 261 005a 7B6A     		ldr	r3, [r7, #36]
 262 005c 03F00703 		and	r3, r3, #7
 263 0060 9B00     		lsls	r3, r3, #2
 264 0062 0F22     		movs	r2, #15
 265 0064 02FA03F3 		lsl	r3, r2, r3
 266 0068 BB61     		str	r3, [r7, #24]
 267              		.loc 1 171 0
 268 006a 7B6A     		ldr	r3, [r7, #36]
 269 006c 072B     		cmp	r3, #7
 270 006e 09D8     		bhi	.L7
 271              		.loc 1 172 0
 272 0070 FB68     		ldr	r3, [r7, #12]
 273 0072 1A6A     		ldr	r2, [r3, #32]
 274 0074 BB69     		ldr	r3, [r7, #24]
 275 0076 DB43     		mvns	r3, r3
 276 0078 1A40     		ands	r2, r2, r3
 277 007a FB69     		ldr	r3, [r7, #28]
 278 007c 1A43     		orrs	r2, r2, r3
 279 007e FB68     		ldr	r3, [r7, #12]
 280 0080 1A62     		str	r2, [r3, #32]
 281 0082 08E0     		b	.L8
 282              	.L7:
 283              		.loc 1 174 0
 284 0084 FB68     		ldr	r3, [r7, #12]
 285 0086 5A6A     		ldr	r2, [r3, #36]
ARM GAS  C:\Users\Luis\AppData\Local\Temp\ccGu3bwk.s 			page 6


 286 0088 BB69     		ldr	r3, [r7, #24]
 287 008a DB43     		mvns	r3, r3
 288 008c 1A40     		ands	r2, r2, r3
 289 008e FB69     		ldr	r3, [r7, #28]
 290 0090 1A43     		orrs	r2, r2, r3
 291 0092 FB68     		ldr	r3, [r7, #12]
 292 0094 5A62     		str	r2, [r3, #36]
 293              	.L8:
 294              		.loc 1 175 0
 295 0096 7B6A     		ldr	r3, [r7, #36]
 296 0098 0122     		movs	r2, #1
 297 009a 02FA03F3 		lsl	r3, r2, r3
 298 009e 7B61     		str	r3, [r7, #20]
 299              		.loc 1 176 0
 300 00a0 FB68     		ldr	r3, [r7, #12]
 301 00a2 5A68     		ldr	r2, [r3, #4]
 302 00a4 7B69     		ldr	r3, [r7, #20]
 303 00a6 DB43     		mvns	r3, r3
 304 00a8 1A40     		ands	r2, r2, r3
 305 00aa 3B6B     		ldr	r3, [r7, #48]
 306 00ac 1A43     		orrs	r2, r2, r3
 307 00ae FB68     		ldr	r3, [r7, #12]
 308 00b0 5A60     		str	r2, [r3, #4]
 309              		.loc 1 177 0
 310 00b2 7B6A     		ldr	r3, [r7, #36]
 311 00b4 5B00     		lsls	r3, r3, #1
 312 00b6 0322     		movs	r2, #3
 313 00b8 02FA03F3 		lsl	r3, r2, r3
 314 00bc 3B61     		str	r3, [r7, #16]
 315              		.loc 1 178 0
 316 00be FB68     		ldr	r3, [r7, #12]
 317 00c0 9A68     		ldr	r2, [r3, #8]
 318 00c2 3B69     		ldr	r3, [r7, #16]
 319 00c4 DB43     		mvns	r3, r3
 320 00c6 1A40     		ands	r2, r2, r3
 321 00c8 FB6A     		ldr	r3, [r7, #44]
 322 00ca 1A43     		orrs	r2, r2, r3
 323 00cc FB68     		ldr	r3, [r7, #12]
 324 00ce 9A60     		str	r2, [r3, #8]
 325              		.loc 1 179 0
 326 00d0 FB68     		ldr	r3, [r7, #12]
 327 00d2 DA68     		ldr	r2, [r3, #12]
 328 00d4 3B69     		ldr	r3, [r7, #16]
 329 00d6 DB43     		mvns	r3, r3
 330 00d8 1A40     		ands	r2, r2, r3
 331 00da BB6A     		ldr	r3, [r7, #40]
 332 00dc 1A43     		orrs	r2, r2, r3
 333 00de FB68     		ldr	r3, [r7, #12]
 334 00e0 DA60     		str	r2, [r3, #12]
 335              		.loc 1 180 0
 336 00e2 FB68     		ldr	r3, [r7, #12]
 337 00e4 1A68     		ldr	r2, [r3]
 338 00e6 3B69     		ldr	r3, [r7, #16]
 339 00e8 DB43     		mvns	r3, r3
 340 00ea 1A40     		ands	r2, r2, r3
 341 00ec 7B6B     		ldr	r3, [r7, #52]
 342 00ee 1A43     		orrs	r2, r2, r3
ARM GAS  C:\Users\Luis\AppData\Local\Temp\ccGu3bwk.s 			page 7


 343 00f0 FB68     		ldr	r3, [r7, #12]
 344 00f2 1A60     		str	r2, [r3]
 345              	.L6:
 346              	.LBE2:
 347              		.loc 1 182 0
 348 00f4 BB68     		ldr	r3, [r7, #8]
 349 00f6 5B08     		lsrs	r3, r3, #1
 350 00f8 BB60     		str	r3, [r7, #8]
 351              		.loc 1 183 0
 352 00fa BB68     		ldr	r3, [r7, #8]
 353 00fc 002B     		cmp	r3, #0
 354 00fe 00D1     		bne	.L9
 355              		.loc 1 184 0
 356 0100 0FE0     		b	.L12
 357              	.L9:
 358              		.loc 1 185 0
 359 0102 3B6B     		ldr	r3, [r7, #48]
 360 0104 5B00     		lsls	r3, r3, #1
 361 0106 3B63     		str	r3, [r7, #48]
 362              		.loc 1 186 0
 363 0108 FB6A     		ldr	r3, [r7, #44]
 364 010a 9B00     		lsls	r3, r3, #2
 365 010c FB62     		str	r3, [r7, #44]
 366              		.loc 1 187 0
 367 010e BB6A     		ldr	r3, [r7, #40]
 368 0110 9B00     		lsls	r3, r3, #2
 369 0112 BB62     		str	r3, [r7, #40]
 370              		.loc 1 188 0
 371 0114 7B6B     		ldr	r3, [r7, #52]
 372 0116 9B00     		lsls	r3, r3, #2
 373 0118 7B63     		str	r3, [r7, #52]
 374              		.loc 1 189 0
 375 011a 7B6A     		ldr	r3, [r7, #36]
 376 011c 0133     		adds	r3, r3, #1
 377 011e 7B62     		str	r3, [r7, #36]
 378              		.loc 1 190 0
 379 0120 8EE7     		b	.L11
 380              	.L12:
 381              		.loc 1 191 0
 382 0122 3C37     		adds	r7, r7, #60
 383 0124 BD46     		mov	sp, r7
 384              		@ sp needed
 385 0126 5DF8047B 		ldr	r7, [sp], #4
 386 012a 7047     		bx	lr
 387              		.cfi_endproc
 388              	.LFE262:
 389              		.size	_pal_lld_setgroupmode, .-_pal_lld_setgroupmode
 390 012c AFF30080 		.text
 391              	.Letext0:
 392              		.file 2 "c:\\emtechesdk\\gcc\\arm-none-eabi\\include\\stdint.h"
 393              		.file 3 "../../ChibiOS/os/rt/ports/ARMCMx/compilers/GCC/chtypes.h"
 394              		.file 4 "../../ChibiOS/os/rt/include/chsystypes.h"
 395              		.file 5 "../../ChibiOS/os/rt/include/chschd.h"
 396              		.file 6 "../../ChibiOS/os/ext/CMSIS/ST/stm32f407xx.h"
 397              		.file 7 "../../ChibiOS/os/rt/ports/ARMCMx/chcore.h"
 398              		.file 8 "../../ChibiOS/os/rt/ports/ARMCMx/chcore_v7m.h"
 399              		.file 9 "../../ChibiOS/os/rt/include/chdebug.h"
ARM GAS  C:\Users\Luis\AppData\Local\Temp\ccGu3bwk.s 			page 8


 400              		.file 10 "../../ChibiOS/os/rt/include/chtm.h"
 401              		.file 11 "../../ChibiOS/os/rt/include/chstats.h"
 402              		.file 12 "../../ChibiOS/os/rt/include/chsem.h"
 403              		.file 13 "../../ChibiOS/os/rt/include/chmtx.h"
 404              		.file 14 "../../ChibiOS/os/hal/ports/STM32/LLD/GPIOv2/pal_lld.h"
 405              		.file 15 "../../ChibiOS/os/ext/CMSIS/include/core_cm4.h"