ARM GAS  C:\Users\Luis\AppData\Local\Temp\ccMHTq6a.s 			page 1


   1              		.syntax unified
   2              		.cpu cortex-m4
   3              		.fpu softvfp
   4              		.eabi_attribute 20, 1
   5              		.eabi_attribute 21, 1
   6              		.eabi_attribute 23, 3
   7              		.eabi_attribute 24, 1
   8              		.eabi_attribute 25, 1
   9              		.eabi_attribute 26, 1
  10              		.eabi_attribute 30, 6
  11              		.eabi_attribute 34, 1
  12              		.eabi_attribute 18, 4
  13              		.thumb
  14              		.file	"sdc_lld.c"
  15              		.text
  16              	.Ltext0:
  17              		.cfi_sections	.debug_frame
  18              		.section	.text.port_lock,"ax",%progbits
  19              		.align	2
  20              		.p2align 4,,15
  21              		.thumb
  22              		.thumb_func
  23              		.type	port_lock, %function
  24              	port_lock:
  25              	.LFB116:
  26              		.file 1 "../../ChibiOS/os/rt/ports/ARMCMx/chcore_v7m.h"
  27              		.loc 1 444 0
  28              		.cfi_startproc
  29              		@ args = 0, pretend = 0, frame = 8
  30              		@ frame_needed = 1, uses_anonymous_args = 0
  31              		@ link register save eliminated.
  32 0000 80B4     		push	{r7}
  33              		.cfi_def_cfa_offset 4
  34              		.cfi_offset 7, -4
  35 0002 83B0     		sub	sp, sp, #12
  36              		.cfi_def_cfa_offset 16
  37 0004 00AF     		add	r7, sp, #0
  38              		.cfi_def_cfa_register 7
  39 0006 2023     		movs	r3, #32
  40 0008 7B60     		str	r3, [r7, #4]
  41              	.LBB6:
  42              	.LBB7:
  43              		.file 2 "../../ChibiOS/os/ext/CMSIS/include/core_cmFunc.h"
  44              		.loc 2 546 0
  45 000a 7B68     		ldr	r3, [r7, #4]
  46              	@ 546 "../../ChibiOS/os/ext/CMSIS/include/core_cmFunc.h" 1
  47 000c 83F31188 		MSR basepri, r3
  48              	@ 0 "" 2
  49              		.thumb
  50              	.LBE7:
  51              	.LBE6:
  52              		.loc 1 451 0
  53 0010 0C37     		adds	r7, r7, #12
  54 0012 BD46     		mov	sp, r7
  55              		@ sp needed
  56 0014 5DF8047B 		ldr	r7, [sp], #4
  57 0018 7047     		bx	lr
ARM GAS  C:\Users\Luis\AppData\Local\Temp\ccMHTq6a.s 			page 2


  58              		.cfi_endproc
  59              	.LFE116:
  60              		.size	port_lock, .-port_lock
  61 001a 00BFAFF3 		.section	.text.port_unlock,"ax",%progbits
  61      0080
  62              		.align	2
  63              		.p2align 4,,15
  64              		.thumb
  65              		.thumb_func
  66              		.type	port_unlock, %function
  67              	port_unlock:
  68              	.LFB117:
  69              		.loc 1 458 0
  70              		.cfi_startproc
  71              		@ args = 0, pretend = 0, frame = 8
  72              		@ frame_needed = 1, uses_anonymous_args = 0
  73              		@ link register save eliminated.
  74 0000 80B4     		push	{r7}
  75              		.cfi_def_cfa_offset 4
  76              		.cfi_offset 7, -4
  77 0002 83B0     		sub	sp, sp, #12
  78              		.cfi_def_cfa_offset 16
  79 0004 00AF     		add	r7, sp, #0
  80              		.cfi_def_cfa_register 7
  81 0006 0023     		movs	r3, #0
  82 0008 7B60     		str	r3, [r7, #4]
  83              	.LBB8:
  84              	.LBB9:
  85              		.loc 2 546 0
  86 000a 7B68     		ldr	r3, [r7, #4]
  87              	@ 546 "../../ChibiOS/os/ext/CMSIS/include/core_cmFunc.h" 1
  88 000c 83F31188 		MSR basepri, r3
  89              	@ 0 "" 2
  90              		.thumb
  91              	.LBE9:
  92              	.LBE8:
  93              		.loc 1 465 0
  94 0010 0C37     		adds	r7, r7, #12
  95 0012 BD46     		mov	sp, r7
  96              		@ sp needed
  97 0014 5DF8047B 		ldr	r7, [sp], #4
  98 0018 7047     		bx	lr
  99              		.cfi_endproc
 100              	.LFE117:
 101              		.size	port_unlock, .-port_unlock
 102 001a 00BFAFF3 		.section	.text.port_lock_from_isr,"ax",%progbits
 102      0080
 103              		.align	2
 104              		.p2align 4,,15
 105              		.thumb
 106              		.thumb_func
 107              		.type	port_lock_from_isr, %function
 108              	port_lock_from_isr:
 109              	.LFB118:
 110              		.loc 1 473 0
 111              		.cfi_startproc
 112              		@ args = 0, pretend = 0, frame = 0
ARM GAS  C:\Users\Luis\AppData\Local\Temp\ccMHTq6a.s 			page 3


 113              		@ frame_needed = 1, uses_anonymous_args = 0
 114 0000 80B5     		push	{r7, lr}
 115              		.cfi_def_cfa_offset 8
 116              		.cfi_offset 7, -8
 117              		.cfi_offset 14, -4
 118 0002 00AF     		add	r7, sp, #0
 119              		.cfi_def_cfa_register 7
 120              		.loc 1 475 0
 121 0004 FFF7FEFF 		bl	port_lock
 122              		.loc 1 476 0
 123 0008 80BD     		pop	{r7, pc}
 124              		.cfi_endproc
 125              	.LFE118:
 126              		.size	port_lock_from_isr, .-port_lock_from_isr
 127 000a 00BFAFF3 		.section	.text.port_unlock_from_isr,"ax",%progbits
 127      0080
 128              		.align	2
 129              		.p2align 4,,15
 130              		.thumb
 131              		.thumb_func
 132              		.type	port_unlock_from_isr, %function
 133              	port_unlock_from_isr:
 134              	.LFB119:
 135              		.loc 1 484 0
 136              		.cfi_startproc
 137              		@ args = 0, pretend = 0, frame = 0
 138              		@ frame_needed = 1, uses_anonymous_args = 0
 139 0000 80B5     		push	{r7, lr}
 140              		.cfi_def_cfa_offset 8
 141              		.cfi_offset 7, -8
 142              		.cfi_offset 14, -4
 143 0002 00AF     		add	r7, sp, #0
 144              		.cfi_def_cfa_register 7
 145              		.loc 1 486 0
 146 0004 FFF7FEFF 		bl	port_unlock
 147              		.loc 1 487 0
 148 0008 80BD     		pop	{r7, pc}
 149              		.cfi_endproc
 150              	.LFE119:
 151              		.size	port_unlock_from_isr, .-port_unlock_from_isr
 152 000a 00BFAFF3 		.section	.text.chSysLock,"ax",%progbits
 152      0080
 153              		.align	2
 154              		.p2align 4,,15
 155              		.thumb
 156              		.thumb_func
 157              		.type	chSysLock, %function
 158              	chSysLock:
 159              	.LFB156:
 160              		.file 3 "../../ChibiOS/os/rt/include/chsys.h"
 161              		.loc 3 346 0
 162              		.cfi_startproc
 163              		@ args = 0, pretend = 0, frame = 0
 164              		@ frame_needed = 1, uses_anonymous_args = 0
 165 0000 80B5     		push	{r7, lr}
 166              		.cfi_def_cfa_offset 8
 167              		.cfi_offset 7, -8
ARM GAS  C:\Users\Luis\AppData\Local\Temp\ccMHTq6a.s 			page 4


 168              		.cfi_offset 14, -4
 169 0002 00AF     		add	r7, sp, #0
 170              		.cfi_def_cfa_register 7
 171              		.loc 3 348 0
 172 0004 FFF7FEFF 		bl	port_lock
 173              		.loc 3 349 0
 174 0008 FFF7FEFF 		bl	_stats_start_measure_crit_thd
 175              		.loc 3 350 0
 176 000c FFF7FEFF 		bl	_dbg_check_lock
 177              		.loc 3 351 0
 178 0010 80BD     		pop	{r7, pc}
 179              		.cfi_endproc
 180              	.LFE156:
 181              		.size	chSysLock, .-chSysLock
 182 0012 00BFAFF3 		.section	.text.chSysUnlock,"ax",%progbits
 182      0080AFF3 
 182      0080AFF3 
 182      0080
 183              		.align	2
 184              		.p2align 4,,15
 185              		.thumb
 186              		.thumb_func
 187              		.type	chSysUnlock, %function
 188              	chSysUnlock:
 189              	.LFB157:
 190              		.loc 3 358 0
 191              		.cfi_startproc
 192              		@ args = 0, pretend = 0, frame = 0
 193              		@ frame_needed = 1, uses_anonymous_args = 0
 194 0000 80B5     		push	{r7, lr}
 195              		.cfi_def_cfa_offset 8
 196              		.cfi_offset 7, -8
 197              		.cfi_offset 14, -4
 198 0002 00AF     		add	r7, sp, #0
 199              		.cfi_def_cfa_register 7
 200              		.loc 3 360 0
 201 0004 FFF7FEFF 		bl	_dbg_check_unlock
 202              		.loc 3 361 0
 203 0008 FFF7FEFF 		bl	_stats_stop_measure_crit_thd
 204              		.loc 3 367 0
 205 000c 094B     		ldr	r3, .L8
 206 000e 1A68     		ldr	r2, [r3]
 207 0010 084B     		ldr	r3, .L8
 208 0012 9A42     		cmp	r2, r3
 209 0014 0AD0     		beq	.L7
 210              		.loc 3 367 0 is_stmt 0 discriminator 1
 211 0016 074B     		ldr	r3, .L8
 212 0018 9B69     		ldr	r3, [r3, #24]
 213 001a 9A68     		ldr	r2, [r3, #8]
 214 001c 054B     		ldr	r3, .L8
 215 001e 1B68     		ldr	r3, [r3]
 216 0020 9B68     		ldr	r3, [r3, #8]
 217 0022 9A42     		cmp	r2, r3
 218 0024 02D2     		bcs	.L7
 219 0026 0448     		ldr	r0, .L8+4
 220 0028 FFF7FEFF 		bl	chSysHalt
 221              	.L7:
ARM GAS  C:\Users\Luis\AppData\Local\Temp\ccMHTq6a.s 			page 5


 222              		.loc 3 371 0 is_stmt 1
 223 002c FFF7FEFF 		bl	port_unlock
 224              		.loc 3 372 0
 225 0030 80BD     		pop	{r7, pc}
 226              	.L9:
 227 0032 00BF     		.align	2
 228              	.L8:
 229 0034 00000000 		.word	ch
 230 0038 00000000 		.word	__func__.6186
 231              		.cfi_endproc
 232              	.LFE157:
 233              		.size	chSysUnlock, .-chSysUnlock
 234 003c AFF30080 		.section	.text.chSysLockFromISR,"ax",%progbits
 235              		.align	2
 236              		.p2align 4,,15
 237              		.thumb
 238              		.thumb_func
 239              		.type	chSysLockFromISR, %function
 240              	chSysLockFromISR:
 241              	.LFB158:
 242              		.loc 3 386 0
 243              		.cfi_startproc
 244              		@ args = 0, pretend = 0, frame = 0
 245              		@ frame_needed = 1, uses_anonymous_args = 0
 246 0000 80B5     		push	{r7, lr}
 247              		.cfi_def_cfa_offset 8
 248              		.cfi_offset 7, -8
 249              		.cfi_offset 14, -4
 250 0002 00AF     		add	r7, sp, #0
 251              		.cfi_def_cfa_register 7
 252              		.loc 3 388 0
 253 0004 FFF7FEFF 		bl	port_lock_from_isr
 254              		.loc 3 389 0
 255 0008 FFF7FEFF 		bl	_stats_start_measure_crit_isr
 256              		.loc 3 390 0
 257 000c FFF7FEFF 		bl	_dbg_check_lock_from_isr
 258              		.loc 3 391 0
 259 0010 80BD     		pop	{r7, pc}
 260              		.cfi_endproc
 261              	.LFE158:
 262              		.size	chSysLockFromISR, .-chSysLockFromISR
 263 0012 00BFAFF3 		.section	.text.chSysUnlockFromISR,"ax",%progbits
 263      0080AFF3 
 263      0080AFF3 
 263      0080
 264              		.align	2
 265              		.p2align 4,,15
 266              		.thumb
 267              		.thumb_func
 268              		.type	chSysUnlockFromISR, %function
 269              	chSysUnlockFromISR:
 270              	.LFB159:
 271              		.loc 3 406 0
 272              		.cfi_startproc
 273              		@ args = 0, pretend = 0, frame = 0
 274              		@ frame_needed = 1, uses_anonymous_args = 0
 275 0000 80B5     		push	{r7, lr}
ARM GAS  C:\Users\Luis\AppData\Local\Temp\ccMHTq6a.s 			page 6


 276              		.cfi_def_cfa_offset 8
 277              		.cfi_offset 7, -8
 278              		.cfi_offset 14, -4
 279 0002 00AF     		add	r7, sp, #0
 280              		.cfi_def_cfa_register 7
 281              		.loc 3 408 0
 282 0004 FFF7FEFF 		bl	_dbg_check_unlock_from_isr
 283              		.loc 3 409 0
 284 0008 FFF7FEFF 		bl	_stats_stop_measure_crit_isr
 285              		.loc 3 410 0
 286 000c FFF7FEFF 		bl	port_unlock_from_isr
 287              		.loc 3 411 0
 288 0010 80BD     		pop	{r7, pc}
 289              		.cfi_endproc
 290              	.LFE159:
 291              		.size	chSysUnlockFromISR, .-chSysUnlockFromISR
 292 0012 00BFAFF3 		.section	.text.osalSysLock,"ax",%progbits
 292      0080AFF3 
 292      0080AFF3 
 292      0080
 293              		.align	2
 294              		.p2align 4,,15
 295              		.thumb
 296              		.thumb_func
 297              		.type	osalSysLock, %function
 298              	osalSysLock:
 299              	.LFB233:
 300              		.file 4 "../../ChibiOS/os/hal/osal/rt/osal.h"
 301              		.loc 4 491 0
 302              		.cfi_startproc
 303              		@ args = 0, pretend = 0, frame = 0
 304              		@ frame_needed = 1, uses_anonymous_args = 0
 305 0000 80B5     		push	{r7, lr}
 306              		.cfi_def_cfa_offset 8
 307              		.cfi_offset 7, -8
 308              		.cfi_offset 14, -4
 309 0002 00AF     		add	r7, sp, #0
 310              		.cfi_def_cfa_register 7
 311              		.loc 4 493 0
 312 0004 FFF7FEFF 		bl	chSysLock
 313              		.loc 4 494 0
 314 0008 80BD     		pop	{r7, pc}
 315              		.cfi_endproc
 316              	.LFE233:
 317              		.size	osalSysLock, .-osalSysLock
 318 000a 00BFAFF3 		.section	.text.osalSysUnlock,"ax",%progbits
 318      0080
 319              		.align	2
 320              		.p2align 4,,15
 321              		.thumb
 322              		.thumb_func
 323              		.type	osalSysUnlock, %function
 324              	osalSysUnlock:
 325              	.LFB234:
 326              		.loc 4 502 0
 327              		.cfi_startproc
 328              		@ args = 0, pretend = 0, frame = 0
ARM GAS  C:\Users\Luis\AppData\Local\Temp\ccMHTq6a.s 			page 7


 329              		@ frame_needed = 1, uses_anonymous_args = 0
 330 0000 80B5     		push	{r7, lr}
 331              		.cfi_def_cfa_offset 8
 332              		.cfi_offset 7, -8
 333              		.cfi_offset 14, -4
 334 0002 00AF     		add	r7, sp, #0
 335              		.cfi_def_cfa_register 7
 336              		.loc 4 504 0
 337 0004 FFF7FEFF 		bl	chSysUnlock
 338              		.loc 4 505 0
 339 0008 80BD     		pop	{r7, pc}
 340              		.cfi_endproc
 341              	.LFE234:
 342              		.size	osalSysUnlock, .-osalSysUnlock
 343 000a 00BFAFF3 		.section	.text.osalSysLockFromISR,"ax",%progbits
 343      0080
 344              		.align	2
 345              		.p2align 4,,15
 346              		.thumb
 347              		.thumb_func
 348              		.type	osalSysLockFromISR, %function
 349              	osalSysLockFromISR:
 350              	.LFB235:
 351              		.loc 4 513 0
 352              		.cfi_startproc
 353              		@ args = 0, pretend = 0, frame = 0
 354              		@ frame_needed = 1, uses_anonymous_args = 0
 355 0000 80B5     		push	{r7, lr}
 356              		.cfi_def_cfa_offset 8
 357              		.cfi_offset 7, -8
 358              		.cfi_offset 14, -4
 359 0002 00AF     		add	r7, sp, #0
 360              		.cfi_def_cfa_register 7
 361              		.loc 4 515 0
 362 0004 FFF7FEFF 		bl	chSysLockFromISR
 363              		.loc 4 516 0
 364 0008 80BD     		pop	{r7, pc}
 365              		.cfi_endproc
 366              	.LFE235:
 367              		.size	osalSysLockFromISR, .-osalSysLockFromISR
 368 000a 00BFAFF3 		.section	.text.osalSysUnlockFromISR,"ax",%progbits
 368      0080
 369              		.align	2
 370              		.p2align 4,,15
 371              		.thumb
 372              		.thumb_func
 373              		.type	osalSysUnlockFromISR, %function
 374              	osalSysUnlockFromISR:
 375              	.LFB236:
 376              		.loc 4 524 0
 377              		.cfi_startproc
 378              		@ args = 0, pretend = 0, frame = 0
 379              		@ frame_needed = 1, uses_anonymous_args = 0
 380 0000 80B5     		push	{r7, lr}
 381              		.cfi_def_cfa_offset 8
 382              		.cfi_offset 7, -8
 383              		.cfi_offset 14, -4
ARM GAS  C:\Users\Luis\AppData\Local\Temp\ccMHTq6a.s 			page 8


 384 0002 00AF     		add	r7, sp, #0
 385              		.cfi_def_cfa_register 7
 386              		.loc 4 526 0
 387 0004 FFF7FEFF 		bl	chSysUnlockFromISR
 388              		.loc 4 527 0
 389 0008 80BD     		pop	{r7, pc}
 390              		.cfi_endproc
 391              	.LFE236:
 392              		.size	osalSysUnlockFromISR, .-osalSysUnlockFromISR
 393 000a 00BFAFF3 		.section	.text.osalThreadSleep,"ax",%progbits
 393      0080
 394              		.align	2
 395              		.p2align 4,,15
 396              		.thumb
 397              		.thumb_func
 398              		.type	osalThreadSleep, %function
 399              	osalThreadSleep:
 400              	.LFB245:
 401              		.loc 4 671 0
 402              		.cfi_startproc
 403              		@ args = 0, pretend = 0, frame = 8
 404              		@ frame_needed = 1, uses_anonymous_args = 0
 405 0000 80B5     		push	{r7, lr}
 406              		.cfi_def_cfa_offset 8
 407              		.cfi_offset 7, -8
 408              		.cfi_offset 14, -4
 409 0002 82B0     		sub	sp, sp, #8
 410              		.cfi_def_cfa_offset 16
 411 0004 00AF     		add	r7, sp, #0
 412              		.cfi_def_cfa_register 7
 413 0006 7860     		str	r0, [r7, #4]
 414              		.loc 4 673 0
 415 0008 7868     		ldr	r0, [r7, #4]
 416 000a FFF7FEFF 		bl	chThdSleep
 417              		.loc 4 674 0
 418 000e 0837     		adds	r7, r7, #8
 419 0010 BD46     		mov	sp, r7
 420              		@ sp needed
 421 0012 80BD     		pop	{r7, pc}
 422              		.cfi_endproc
 423              	.LFE245:
 424              		.size	osalThreadSleep, .-osalThreadSleep
 425 0014 AFF30080 		.section	.text.osalThreadSuspendS,"ax",%progbits
 425      AFF30080 
 425      AFF30080 
 426              		.align	2
 427              		.p2align 4,,15
 428              		.thumb
 429              		.thumb_func
 430              		.type	osalThreadSuspendS, %function
 431              	osalThreadSuspendS:
 432              	.LFB246:
 433              		.loc 4 686 0
 434              		.cfi_startproc
 435              		@ args = 0, pretend = 0, frame = 8
 436              		@ frame_needed = 1, uses_anonymous_args = 0
 437 0000 80B5     		push	{r7, lr}
ARM GAS  C:\Users\Luis\AppData\Local\Temp\ccMHTq6a.s 			page 9


 438              		.cfi_def_cfa_offset 8
 439              		.cfi_offset 7, -8
 440              		.cfi_offset 14, -4
 441 0002 82B0     		sub	sp, sp, #8
 442              		.cfi_def_cfa_offset 16
 443 0004 00AF     		add	r7, sp, #0
 444              		.cfi_def_cfa_register 7
 445 0006 7860     		str	r0, [r7, #4]
 446              		.loc 4 688 0
 447 0008 7868     		ldr	r0, [r7, #4]
 448 000a FFF7FEFF 		bl	chThdSuspendS
 449 000e 0346     		mov	r3, r0
 450              		.loc 4 689 0
 451 0010 1846     		mov	r0, r3
 452 0012 0837     		adds	r7, r7, #8
 453 0014 BD46     		mov	sp, r7
 454              		@ sp needed
 455 0016 80BD     		pop	{r7, pc}
 456              		.cfi_endproc
 457              	.LFE246:
 458              		.size	osalThreadSuspendS, .-osalThreadSuspendS
 459 0018 AFF30080 		.section	.text.osalThreadResumeI,"ax",%progbits
 459      AFF30080 
 460              		.align	2
 461              		.p2align 4,,15
 462              		.thumb
 463              		.thumb_func
 464              		.type	osalThreadResumeI, %function
 465              	osalThreadResumeI:
 466              	.LFB248:
 467              		.loc 4 726 0
 468              		.cfi_startproc
 469              		@ args = 0, pretend = 0, frame = 8
 470              		@ frame_needed = 1, uses_anonymous_args = 0
 471 0000 80B5     		push	{r7, lr}
 472              		.cfi_def_cfa_offset 8
 473              		.cfi_offset 7, -8
 474              		.cfi_offset 14, -4
 475 0002 82B0     		sub	sp, sp, #8
 476              		.cfi_def_cfa_offset 16
 477 0004 00AF     		add	r7, sp, #0
 478              		.cfi_def_cfa_register 7
 479 0006 7860     		str	r0, [r7, #4]
 480 0008 3960     		str	r1, [r7]
 481              		.loc 4 728 0
 482 000a 7868     		ldr	r0, [r7, #4]
 483 000c 3968     		ldr	r1, [r7]
 484 000e FFF7FEFF 		bl	chThdResumeI
 485              		.loc 4 729 0
 486 0012 0837     		adds	r7, r7, #8
 487 0014 BD46     		mov	sp, r7
 488              		@ sp needed
 489 0016 80BD     		pop	{r7, pc}
 490              		.cfi_endproc
 491              	.LFE248:
 492              		.size	osalThreadResumeI, .-osalThreadResumeI
 493              		.global	SDCD1
ARM GAS  C:\Users\Luis\AppData\Local\Temp\ccMHTq6a.s 			page 10


 494 0018 AFF30080 		.section	.bss.SDCD1,"aw",%nobits
 494      AFF30080 
 495              		.align	2
 496              		.type	SDCD1, %object
 497              		.size	SDCD1, 76
 498              	SDCD1:
 499 0000 00000000 		.space	76
 499      00000000 
 499      00000000 
 499      00000000 
 499      00000000 
 500              		.section	.bss.u,"aw",%nobits
 501              		.align	2
 502              		.type	u, %object
 503              		.size	u, 512
 504              	u:
 505 0000 00000000 		.space	512
 505      00000000 
 505      00000000 
 505      00000000 
 505      00000000 
 506              		.section	.rodata.sdc_default_cfg,"a",%progbits
 507              		.align	2
 508              		.type	sdc_default_cfg, %object
 509              		.size	sdc_default_cfg, 8
 510              	sdc_default_cfg:
 511 0000 00000000 		.word	0
 512 0004 01       		.byte	1
 513 0005 000000   		.space	3
 514              		.section	.text.sdc_lld_prepare_read_bytes,"ax",%progbits
 515              		.align	2
 516              		.p2align 4,,15
 517              		.thumb
 518              		.thumb_func
 519              		.type	sdc_lld_prepare_read_bytes, %function
 520              	sdc_lld_prepare_read_bytes:
 521              	.LFB260:
 522              		.file 5 "../../ChibiOS/os/hal/ports/STM32/LLD/sdc_lld.c"
 523              		.loc 5 88 0
 524              		.cfi_startproc
 525              		@ args = 0, pretend = 0, frame = 16
 526              		@ frame_needed = 1, uses_anonymous_args = 0
 527 0000 80B5     		push	{r7, lr}
 528              		.cfi_def_cfa_offset 8
 529              		.cfi_offset 7, -8
 530              		.cfi_offset 14, -4
 531 0002 84B0     		sub	sp, sp, #16
 532              		.cfi_def_cfa_offset 24
 533 0004 00AF     		add	r7, sp, #0
 534              		.cfi_def_cfa_register 7
 535 0006 F860     		str	r0, [r7, #12]
 536 0008 B960     		str	r1, [r7, #8]
 537 000a 7A60     		str	r2, [r7, #4]
 538              		.loc 5 89 0
 539 000c 7B68     		ldr	r3, [r7, #4]
 540 000e B3F1807F 		cmp	r3, #16777216
 541 0012 02D3     		bcc	.L21
ARM GAS  C:\Users\Luis\AppData\Local\Temp\ccMHTq6a.s 			page 11


 542              		.loc 5 89 0 is_stmt 0 discriminator 1
 543 0014 1F48     		ldr	r0, .L24
 544 0016 FFF7FEFF 		bl	chSysHalt
 545              	.L21:
 546              		.loc 5 91 0 is_stmt 1
 547 001a FB68     		ldr	r3, [r7, #12]
 548 001c 9B6C     		ldr	r3, [r3, #72]
 549 001e 1E4A     		ldr	r2, .L24+4
 550 0020 5A62     		str	r2, [r3, #36]
 551              		.loc 5 94 0
 552 0022 F868     		ldr	r0, [r7, #12]
 553 0024 FFF7FEFF 		bl	_sdc_wait_for_transfer_state
 554 0028 0346     		mov	r3, r0
 555 002a 002B     		cmp	r3, #0
 556 002c 01D0     		beq	.L22
 557              		.loc 5 95 0
 558 002e 0123     		movs	r3, #1
 559 0030 2CE0     		b	.L23
 560              	.L22:
 561              		.loc 5 98 0
 562 0032 FB68     		ldr	r3, [r7, #12]
 563 0034 5B6C     		ldr	r3, [r3, #68]
 564 0036 1B68     		ldr	r3, [r3]
 565 0038 BA68     		ldr	r2, [r7, #8]
 566 003a DA60     		str	r2, [r3, #12]
 567              		.loc 5 99 0
 568 003c FB68     		ldr	r3, [r7, #12]
 569 003e 5B6C     		ldr	r3, [r3, #68]
 570 0040 1B68     		ldr	r3, [r3]
 571 0042 7A68     		ldr	r2, [r7, #4]
 572 0044 9208     		lsrs	r2, r2, #2
 573 0046 5A60     		str	r2, [r3, #4]
 574              		.loc 5 100 0
 575 0048 FB68     		ldr	r3, [r7, #12]
 576 004a 5B6C     		ldr	r3, [r3, #68]
 577 004c 1B68     		ldr	r3, [r3]
 578 004e FA68     		ldr	r2, [r7, #12]
 579 0050 126C     		ldr	r2, [r2, #64]
 580 0052 1A60     		str	r2, [r3]
 581              		.loc 5 101 0
 582 0054 FB68     		ldr	r3, [r7, #12]
 583 0056 5B6C     		ldr	r3, [r3, #68]
 584 0058 1B68     		ldr	r3, [r3]
 585 005a FA68     		ldr	r2, [r7, #12]
 586 005c 526C     		ldr	r2, [r2, #68]
 587 005e 1268     		ldr	r2, [r2]
 588 0060 1268     		ldr	r2, [r2]
 589 0062 42F00102 		orr	r2, r2, #1
 590 0066 1A60     		str	r2, [r3]
 591              		.loc 5 104 0
 592 0068 FB68     		ldr	r3, [r7, #12]
 593 006a 9B6C     		ldr	r3, [r3, #72]
 594 006c 0B4A     		ldr	r2, .L24+8
 595 006e 9A63     		str	r2, [r3, #56]
 596              		.loc 5 105 0
 597 0070 FB68     		ldr	r3, [r7, #12]
 598 0072 9B6C     		ldr	r3, [r3, #72]
ARM GAS  C:\Users\Luis\AppData\Local\Temp\ccMHTq6a.s 			page 12


 599 0074 40F22A32 		movw	r2, #810
 600 0078 DA63     		str	r2, [r3, #60]
 601              		.loc 5 110 0
 602 007a FB68     		ldr	r3, [r7, #12]
 603 007c 9B6C     		ldr	r3, [r3, #72]
 604 007e 7A68     		ldr	r2, [r7, #4]
 605 0080 9A62     		str	r2, [r3, #40]
 606              		.loc 5 113 0
 607 0082 FB68     		ldr	r3, [r7, #12]
 608 0084 9B6C     		ldr	r3, [r3, #72]
 609 0086 0F22     		movs	r2, #15
 610 0088 DA62     		str	r2, [r3, #44]
 611              		.loc 5 118 0
 612 008a 0023     		movs	r3, #0
 613              	.L23:
 614              		.loc 5 119 0
 615 008c 1846     		mov	r0, r3
 616 008e 1037     		adds	r7, r7, #16
 617 0090 BD46     		mov	sp, r7
 618              		@ sp needed
 619 0092 80BD     		pop	{r7, pc}
 620              	.L25:
 621              		.align	2
 622              	.L24:
 623 0094 00000000 		.word	__func__.8258
 624 0098 C0270900 		.word	600000
 625 009c FF07C000 		.word	12584959
 626              		.cfi_endproc
 627              	.LFE260:
 628              		.size	sdc_lld_prepare_read_bytes, .-sdc_lld_prepare_read_bytes
 629              		.section	.text.sdc_lld_prepare_read,"ax",%progbits
 630              		.align	2
 631              		.p2align 4,,15
 632              		.thumb
 633              		.thumb_func
 634              		.type	sdc_lld_prepare_read, %function
 635              	sdc_lld_prepare_read:
 636              	.LFB261:
 637              		.loc 5 136 0
 638              		.cfi_startproc
 639              		@ args = 0, pretend = 0, frame = 16
 640              		@ frame_needed = 1, uses_anonymous_args = 0
 641 0000 80B5     		push	{r7, lr}
 642              		.cfi_def_cfa_offset 8
 643              		.cfi_offset 7, -8
 644              		.cfi_offset 14, -4
 645 0002 84B0     		sub	sp, sp, #16
 646              		.cfi_def_cfa_offset 24
 647 0004 00AF     		add	r7, sp, #0
 648              		.cfi_def_cfa_register 7
 649 0006 F860     		str	r0, [r7, #12]
 650 0008 B960     		str	r1, [r7, #8]
 651 000a 7A60     		str	r2, [r7, #4]
 652 000c 3B60     		str	r3, [r7]
 653              		.loc 5 140 0
 654 000e FB68     		ldr	r3, [r7, #12]
 655 0010 1B6B     		ldr	r3, [r3, #48]
ARM GAS  C:\Users\Luis\AppData\Local\Temp\ccMHTq6a.s 			page 13


 656 0012 03F01003 		and	r3, r3, #16
 657 0016 002B     		cmp	r3, #0
 658 0018 02D1     		bne	.L27
 659              		.loc 5 141 0
 660 001a BB68     		ldr	r3, [r7, #8]
 661 001c 5B02     		lsls	r3, r3, #9
 662 001e BB60     		str	r3, [r7, #8]
 663              	.L27:
 664              		.loc 5 143 0
 665 0020 7B68     		ldr	r3, [r7, #4]
 666 0022 012B     		cmp	r3, #1
 667 0024 10D9     		bls	.L28
 668              		.loc 5 145 0
 669 0026 F868     		ldr	r0, [r7, #12]
 670 0028 1221     		movs	r1, #18
 671 002a BA68     		ldr	r2, [r7, #8]
 672 002c 3B68     		ldr	r3, [r7]
 673 002e FFF7FEFF 		bl	sdc_lld_send_cmd_short_crc
 674 0032 0346     		mov	r3, r0
 675 0034 002B     		cmp	r3, #0
 676 0036 05D1     		bne	.L29
 677              		.loc 5 146 0
 678 0038 3B68     		ldr	r3, [r7]
 679 003a 1A68     		ldr	r2, [r3]
 680 003c 0D4B     		ldr	r3, .L33
 681 003e 1340     		ands	r3, r3, r2
 682 0040 002B     		cmp	r3, #0
 683 0042 12D0     		beq	.L30
 684              	.L29:
 685              		.loc 5 147 0
 686 0044 0123     		movs	r3, #1
 687 0046 11E0     		b	.L31
 688              	.L28:
 689              		.loc 5 151 0
 690 0048 F868     		ldr	r0, [r7, #12]
 691 004a 1121     		movs	r1, #17
 692 004c BA68     		ldr	r2, [r7, #8]
 693 004e 3B68     		ldr	r3, [r7]
 694 0050 FFF7FEFF 		bl	sdc_lld_send_cmd_short_crc
 695 0054 0346     		mov	r3, r0
 696 0056 002B     		cmp	r3, #0
 697 0058 05D1     		bne	.L32
 698              		.loc 5 152 0
 699 005a 3B68     		ldr	r3, [r7]
 700 005c 1A68     		ldr	r2, [r3]
 701 005e 054B     		ldr	r3, .L33
 702 0060 1340     		ands	r3, r3, r2
 703 0062 002B     		cmp	r3, #0
 704 0064 01D0     		beq	.L30
 705              	.L32:
 706              		.loc 5 153 0
 707 0066 0123     		movs	r3, #1
 708 0068 00E0     		b	.L31
 709              	.L30:
 710              		.loc 5 156 0
 711 006a 0023     		movs	r3, #0
 712              	.L31:
ARM GAS  C:\Users\Luis\AppData\Local\Temp\ccMHTq6a.s 			page 14


 713              		.loc 5 157 0
 714 006c 1846     		mov	r0, r3
 715 006e 1037     		adds	r7, r7, #16
 716 0070 BD46     		mov	sp, r7
 717              		@ sp needed
 718 0072 80BD     		pop	{r7, pc}
 719              	.L34:
 720              		.align	2
 721              	.L33:
 722 0074 08E0FFFD 		.word	-33562616
 723              		.cfi_endproc
 724              	.LFE261:
 725              		.size	sdc_lld_prepare_read, .-sdc_lld_prepare_read
 726 0078 AFF30080 		.section	.text.sdc_lld_prepare_write,"ax",%progbits
 726      AFF30080 
 727              		.align	2
 728              		.p2align 4,,15
 729              		.thumb
 730              		.thumb_func
 731              		.type	sdc_lld_prepare_write, %function
 732              	sdc_lld_prepare_write:
 733              	.LFB262:
 734              		.loc 5 174 0
 735              		.cfi_startproc
 736              		@ args = 0, pretend = 0, frame = 16
 737              		@ frame_needed = 1, uses_anonymous_args = 0
 738 0000 80B5     		push	{r7, lr}
 739              		.cfi_def_cfa_offset 8
 740              		.cfi_offset 7, -8
 741              		.cfi_offset 14, -4
 742 0002 84B0     		sub	sp, sp, #16
 743              		.cfi_def_cfa_offset 24
 744 0004 00AF     		add	r7, sp, #0
 745              		.cfi_def_cfa_register 7
 746 0006 F860     		str	r0, [r7, #12]
 747 0008 B960     		str	r1, [r7, #8]
 748 000a 7A60     		str	r2, [r7, #4]
 749 000c 3B60     		str	r3, [r7]
 750              		.loc 5 178 0
 751 000e FB68     		ldr	r3, [r7, #12]
 752 0010 1B6B     		ldr	r3, [r3, #48]
 753 0012 03F01003 		and	r3, r3, #16
 754 0016 002B     		cmp	r3, #0
 755 0018 02D1     		bne	.L36
 756              		.loc 5 179 0
 757 001a BB68     		ldr	r3, [r7, #8]
 758 001c 5B02     		lsls	r3, r3, #9
 759 001e BB60     		str	r3, [r7, #8]
 760              	.L36:
 761              		.loc 5 181 0
 762 0020 7B68     		ldr	r3, [r7, #4]
 763 0022 012B     		cmp	r3, #1
 764 0024 10D9     		bls	.L37
 765              		.loc 5 183 0
 766 0026 F868     		ldr	r0, [r7, #12]
 767 0028 1921     		movs	r1, #25
 768 002a BA68     		ldr	r2, [r7, #8]
ARM GAS  C:\Users\Luis\AppData\Local\Temp\ccMHTq6a.s 			page 15


 769 002c 3B68     		ldr	r3, [r7]
 770 002e FFF7FEFF 		bl	sdc_lld_send_cmd_short_crc
 771 0032 0346     		mov	r3, r0
 772 0034 002B     		cmp	r3, #0
 773 0036 05D1     		bne	.L38
 774              		.loc 5 184 0
 775 0038 3B68     		ldr	r3, [r7]
 776 003a 1A68     		ldr	r2, [r3]
 777 003c 0D4B     		ldr	r3, .L42
 778 003e 1340     		ands	r3, r3, r2
 779 0040 002B     		cmp	r3, #0
 780 0042 12D0     		beq	.L39
 781              	.L38:
 782              		.loc 5 185 0
 783 0044 0123     		movs	r3, #1
 784 0046 11E0     		b	.L40
 785              	.L37:
 786              		.loc 5 189 0
 787 0048 F868     		ldr	r0, [r7, #12]
 788 004a 1821     		movs	r1, #24
 789 004c BA68     		ldr	r2, [r7, #8]
 790 004e 3B68     		ldr	r3, [r7]
 791 0050 FFF7FEFF 		bl	sdc_lld_send_cmd_short_crc
 792 0054 0346     		mov	r3, r0
 793 0056 002B     		cmp	r3, #0
 794 0058 05D1     		bne	.L41
 795              		.loc 5 190 0
 796 005a 3B68     		ldr	r3, [r7]
 797 005c 1A68     		ldr	r2, [r3]
 798 005e 054B     		ldr	r3, .L42
 799 0060 1340     		ands	r3, r3, r2
 800 0062 002B     		cmp	r3, #0
 801 0064 01D0     		beq	.L39
 802              	.L41:
 803              		.loc 5 191 0
 804 0066 0123     		movs	r3, #1
 805 0068 00E0     		b	.L40
 806              	.L39:
 807              		.loc 5 194 0
 808 006a 0023     		movs	r3, #0
 809              	.L40:
 810              		.loc 5 195 0
 811 006c 1846     		mov	r0, r3
 812 006e 1037     		adds	r7, r7, #16
 813 0070 BD46     		mov	sp, r7
 814              		@ sp needed
 815 0072 80BD     		pop	{r7, pc}
 816              	.L43:
 817              		.align	2
 818              	.L42:
 819 0074 08E0FFFD 		.word	-33562616
 820              		.cfi_endproc
 821              	.LFE262:
 822              		.size	sdc_lld_prepare_write, .-sdc_lld_prepare_write
 823 0078 AFF30080 		.section	.text.sdc_lld_wait_transaction_end,"ax",%progbits
 823      AFF30080 
 824              		.align	2
ARM GAS  C:\Users\Luis\AppData\Local\Temp\ccMHTq6a.s 			page 16


 825              		.p2align 4,,15
 826              		.thumb
 827              		.thumb_func
 828              		.type	sdc_lld_wait_transaction_end, %function
 829              	sdc_lld_wait_transaction_end:
 830              	.LFB263:
 831              		.loc 5 209 0
 832              		.cfi_startproc
 833              		@ args = 0, pretend = 0, frame = 16
 834              		@ frame_needed = 1, uses_anonymous_args = 0
 835 0000 80B5     		push	{r7, lr}
 836              		.cfi_def_cfa_offset 8
 837              		.cfi_offset 7, -8
 838              		.cfi_offset 14, -4
 839 0002 84B0     		sub	sp, sp, #16
 840              		.cfi_def_cfa_offset 24
 841 0004 00AF     		add	r7, sp, #0
 842              		.cfi_def_cfa_register 7
 843 0006 F860     		str	r0, [r7, #12]
 844 0008 B960     		str	r1, [r7, #8]
 845 000a 7A60     		str	r2, [r7, #4]
 846              		.loc 5 213 0
 847 000c FFF7FEFF 		bl	osalSysLock
 848              		.loc 5 214 0
 849 0010 FB68     		ldr	r3, [r7, #12]
 850 0012 9B6C     		ldr	r3, [r3, #72]
 851 0014 DB6B     		ldr	r3, [r3, #60]
 852 0016 002B     		cmp	r3, #0
 853 0018 04D0     		beq	.L45
 854              		.loc 5 215 0
 855 001a FB68     		ldr	r3, [r7, #12]
 856 001c 3C33     		adds	r3, r3, #60
 857 001e 1846     		mov	r0, r3
 858 0020 FFF7FEFF 		bl	osalThreadSuspendS
 859              	.L45:
 860              		.loc 5 216 0
 861 0024 FB68     		ldr	r3, [r7, #12]
 862 0026 9B6C     		ldr	r3, [r3, #72]
 863 0028 5B6B     		ldr	r3, [r3, #52]
 864 002a 03F48073 		and	r3, r3, #256
 865 002e 002B     		cmp	r3, #0
 866 0030 03D1     		bne	.L46
 867              		.loc 5 217 0
 868 0032 FFF7FEFF 		bl	osalSysUnlock
 869              		.loc 5 218 0
 870 0036 0123     		movs	r3, #1
 871 0038 28E0     		b	.L47
 872              	.L46:
 873              		.loc 5 223 0
 874 003a 00BF     		nop
 875              	.L48:
 876              		.loc 5 223 0 is_stmt 0 discriminator 1
 877 003c FB68     		ldr	r3, [r7, #12]
 878 003e 5B6C     		ldr	r3, [r3, #68]
 879 0040 1B68     		ldr	r3, [r3]
 880 0042 1B68     		ldr	r3, [r3]
 881 0044 03F00103 		and	r3, r3, #1
ARM GAS  C:\Users\Luis\AppData\Local\Temp\ccMHTq6a.s 			page 17


 882 0048 002B     		cmp	r3, #0
 883 004a F7D1     		bne	.L48
 884              		.loc 5 227 0 is_stmt 1
 885 004c FB68     		ldr	r3, [r7, #12]
 886 004e 5B6C     		ldr	r3, [r3, #68]
 887 0050 5B68     		ldr	r3, [r3, #4]
 888 0052 FA68     		ldr	r2, [r7, #12]
 889 0054 526C     		ldr	r2, [r2, #68]
 890 0056 127A     		ldrb	r2, [r2, #8]	@ zero_extendqisi2
 891 0058 3D21     		movs	r1, #61
 892 005a 01FA02F2 		lsl	r2, r1, r2
 893 005e 1A60     		str	r2, [r3]
 894              		.loc 5 229 0
 895 0060 FB68     		ldr	r3, [r7, #12]
 896 0062 9B6C     		ldr	r3, [r3, #72]
 897 0064 0B4A     		ldr	r2, .L50
 898 0066 9A63     		str	r2, [r3, #56]
 899              		.loc 5 230 0
 900 0068 FB68     		ldr	r3, [r7, #12]
 901 006a 9B6C     		ldr	r3, [r3, #72]
 902 006c 0022     		movs	r2, #0
 903 006e DA62     		str	r2, [r3, #44]
 904              		.loc 5 231 0
 905 0070 FFF7FEFF 		bl	osalSysUnlock
 906              		.loc 5 247 0
 907 0074 BB68     		ldr	r3, [r7, #8]
 908 0076 012B     		cmp	r3, #1
 909 0078 07D9     		bls	.L49
 910              		.loc 5 248 0
 911 007a F868     		ldr	r0, [r7, #12]
 912 007c 0C21     		movs	r1, #12
 913 007e 0022     		movs	r2, #0
 914 0080 7B68     		ldr	r3, [r7, #4]
 915 0082 FFF7FEFF 		bl	sdc_lld_send_cmd_short_crc
 916 0086 0346     		mov	r3, r0
 917 0088 00E0     		b	.L47
 918              	.L49:
 919              		.loc 5 250 0
 920 008a 0023     		movs	r3, #0
 921              	.L47:
 922              		.loc 5 251 0
 923 008c 1846     		mov	r0, r3
 924 008e 1037     		adds	r7, r7, #16
 925 0090 BD46     		mov	sp, r7
 926              		@ sp needed
 927 0092 80BD     		pop	{r7, pc}
 928              	.L51:
 929              		.align	2
 930              	.L50:
 931 0094 FF07C000 		.word	12584959
 932              		.cfi_endproc
 933              	.LFE263:
 934              		.size	sdc_lld_wait_transaction_end, .-sdc_lld_wait_transaction_end
 935 0098 AFF30080 		.section	.text.sdc_lld_collect_errors,"ax",%progbits
 935      AFF30080 
 936              		.align	2
 937              		.p2align 4,,15
ARM GAS  C:\Users\Luis\AppData\Local\Temp\ccMHTq6a.s 			page 18


 938              		.thumb
 939              		.thumb_func
 940              		.type	sdc_lld_collect_errors, %function
 941              	sdc_lld_collect_errors:
 942              	.LFB264:
 943              		.loc 5 261 0
 944              		.cfi_startproc
 945              		@ args = 0, pretend = 0, frame = 16
 946              		@ frame_needed = 1, uses_anonymous_args = 0
 947              		@ link register save eliminated.
 948 0000 80B4     		push	{r7}
 949              		.cfi_def_cfa_offset 4
 950              		.cfi_offset 7, -4
 951 0002 85B0     		sub	sp, sp, #20
 952              		.cfi_def_cfa_offset 24
 953 0004 00AF     		add	r7, sp, #0
 954              		.cfi_def_cfa_register 7
 955 0006 7860     		str	r0, [r7, #4]
 956 0008 3960     		str	r1, [r7]
 957              		.loc 5 262 0
 958 000a 0023     		movs	r3, #0
 959 000c FB60     		str	r3, [r7, #12]
 960              		.loc 5 264 0
 961 000e 3B68     		ldr	r3, [r7]
 962 0010 03F00103 		and	r3, r3, #1
 963 0014 002B     		cmp	r3, #0
 964 0016 03D0     		beq	.L53
 965              		.loc 5 265 0
 966 0018 FB68     		ldr	r3, [r7, #12]
 967 001a 43F00103 		orr	r3, r3, #1
 968 001e FB60     		str	r3, [r7, #12]
 969              	.L53:
 970              		.loc 5 266 0
 971 0020 3B68     		ldr	r3, [r7]
 972 0022 03F00203 		and	r3, r3, #2
 973 0026 002B     		cmp	r3, #0
 974 0028 03D0     		beq	.L54
 975              		.loc 5 267 0
 976 002a FB68     		ldr	r3, [r7, #12]
 977 002c 43F00203 		orr	r3, r3, #2
 978 0030 FB60     		str	r3, [r7, #12]
 979              	.L54:
 980              		.loc 5 268 0
 981 0032 3B68     		ldr	r3, [r7]
 982 0034 03F00403 		and	r3, r3, #4
 983 0038 002B     		cmp	r3, #0
 984 003a 03D0     		beq	.L55
 985              		.loc 5 269 0
 986 003c FB68     		ldr	r3, [r7, #12]
 987 003e 43F00803 		orr	r3, r3, #8
 988 0042 FB60     		str	r3, [r7, #12]
 989              	.L55:
 990              		.loc 5 270 0
 991 0044 3B68     		ldr	r3, [r7]
 992 0046 03F00803 		and	r3, r3, #8
 993 004a 002B     		cmp	r3, #0
 994 004c 03D0     		beq	.L56
ARM GAS  C:\Users\Luis\AppData\Local\Temp\ccMHTq6a.s 			page 19


 995              		.loc 5 271 0
 996 004e FB68     		ldr	r3, [r7, #12]
 997 0050 43F00403 		orr	r3, r3, #4
 998 0054 FB60     		str	r3, [r7, #12]
 999              	.L56:
 1000              		.loc 5 272 0
 1001 0056 3B68     		ldr	r3, [r7]
 1002 0058 03F01003 		and	r3, r3, #16
 1003 005c 002B     		cmp	r3, #0
 1004 005e 03D0     		beq	.L57
 1005              		.loc 5 273 0
 1006 0060 FB68     		ldr	r3, [r7, #12]
 1007 0062 43F01003 		orr	r3, r3, #16
 1008 0066 FB60     		str	r3, [r7, #12]
 1009              	.L57:
 1010              		.loc 5 274 0
 1011 0068 3B68     		ldr	r3, [r7]
 1012 006a 03F02003 		and	r3, r3, #32
 1013 006e 002B     		cmp	r3, #0
 1014 0070 03D0     		beq	.L58
 1015              		.loc 5 275 0
 1016 0072 FB68     		ldr	r3, [r7, #12]
 1017 0074 43F02003 		orr	r3, r3, #32
 1018 0078 FB60     		str	r3, [r7, #12]
 1019              	.L58:
 1020              		.loc 5 276 0
 1021 007a 3B68     		ldr	r3, [r7]
 1022 007c 03F40073 		and	r3, r3, #512
 1023 0080 002B     		cmp	r3, #0
 1024 0082 03D0     		beq	.L59
 1025              		.loc 5 277 0
 1026 0084 FB68     		ldr	r3, [r7, #12]
 1027 0086 43F04003 		orr	r3, r3, #64
 1028 008a FB60     		str	r3, [r7, #12]
 1029              	.L59:
 1030              		.loc 5 279 0
 1031 008c 7B68     		ldr	r3, [r7, #4]
 1032 008e 5A6B     		ldr	r2, [r3, #52]
 1033 0090 FB68     		ldr	r3, [r7, #12]
 1034 0092 1A43     		orrs	r2, r2, r3
 1035 0094 7B68     		ldr	r3, [r7, #4]
 1036 0096 5A63     		str	r2, [r3, #52]
 1037              		.loc 5 280 0
 1038 0098 1437     		adds	r7, r7, #20
 1039 009a BD46     		mov	sp, r7
 1040              		@ sp needed
 1041 009c 5DF8047B 		ldr	r7, [sp], #4
 1042 00a0 7047     		bx	lr
 1043              		.cfi_endproc
 1044              	.LFE264:
 1045              		.size	sdc_lld_collect_errors, .-sdc_lld_collect_errors
 1046 00a2 00BFAFF3 		.section	.text.sdc_lld_error_cleanup,"ax",%progbits
 1046      0080AFF3 
 1046      0080AFF3 
 1046      0080
 1047              		.align	2
 1048              		.p2align 4,,15
ARM GAS  C:\Users\Luis\AppData\Local\Temp\ccMHTq6a.s 			page 20


 1049              		.thumb
 1050              		.thumb_func
 1051              		.type	sdc_lld_error_cleanup, %function
 1052              	sdc_lld_error_cleanup:
 1053              	.LFB265:
 1054              		.loc 5 293 0
 1055              		.cfi_startproc
 1056              		@ args = 0, pretend = 0, frame = 24
 1057              		@ frame_needed = 1, uses_anonymous_args = 0
 1058 0000 80B5     		push	{r7, lr}
 1059              		.cfi_def_cfa_offset 8
 1060              		.cfi_offset 7, -8
 1061              		.cfi_offset 14, -4
 1062 0002 86B0     		sub	sp, sp, #24
 1063              		.cfi_def_cfa_offset 32
 1064 0004 00AF     		add	r7, sp, #0
 1065              		.cfi_def_cfa_register 7
 1066 0006 F860     		str	r0, [r7, #12]
 1067 0008 B960     		str	r1, [r7, #8]
 1068 000a 7A60     		str	r2, [r7, #4]
 1069              		.loc 5 294 0
 1070 000c FB68     		ldr	r3, [r7, #12]
 1071 000e 9B6C     		ldr	r3, [r3, #72]
 1072 0010 5B6B     		ldr	r3, [r3, #52]
 1073 0012 7B61     		str	r3, [r7, #20]
 1074              		.loc 5 296 0
 1075 0014 FB68     		ldr	r3, [r7, #12]
 1076 0016 5B6C     		ldr	r3, [r3, #68]
 1077 0018 5B68     		ldr	r3, [r3, #4]
 1078 001a FA68     		ldr	r2, [r7, #12]
 1079 001c 526C     		ldr	r2, [r2, #68]
 1080 001e 127A     		ldrb	r2, [r2, #8]	@ zero_extendqisi2
 1081 0020 3D21     		movs	r1, #61
 1082 0022 01FA02F2 		lsl	r2, r1, r2
 1083 0026 1A60     		str	r2, [r3]
 1084              		.loc 5 297 0
 1085 0028 FB68     		ldr	r3, [r7, #12]
 1086 002a 5B6C     		ldr	r3, [r3, #68]
 1087 002c 1B68     		ldr	r3, [r3]
 1088 002e FA68     		ldr	r2, [r7, #12]
 1089 0030 526C     		ldr	r2, [r2, #68]
 1090 0032 1268     		ldr	r2, [r2]
 1091 0034 1268     		ldr	r2, [r2]
 1092 0036 22F01F02 		bic	r2, r2, #31
 1093 003a 1A60     		str	r2, [r3]
 1094 003c 00BF     		nop
 1095              	.L61:
 1096              		.loc 5 297 0 is_stmt 0 discriminator 1
 1097 003e FB68     		ldr	r3, [r7, #12]
 1098 0040 5B6C     		ldr	r3, [r3, #68]
 1099 0042 1B68     		ldr	r3, [r3]
 1100 0044 1B68     		ldr	r3, [r3]
 1101 0046 03F00103 		and	r3, r3, #1
 1102 004a 002B     		cmp	r3, #0
 1103 004c F7D1     		bne	.L61
 1104              		.loc 5 297 0 discriminator 2
 1105 004e FB68     		ldr	r3, [r7, #12]
ARM GAS  C:\Users\Luis\AppData\Local\Temp\ccMHTq6a.s 			page 21


 1106 0050 5B6C     		ldr	r3, [r3, #68]
 1107 0052 5B68     		ldr	r3, [r3, #4]
 1108 0054 FA68     		ldr	r2, [r7, #12]
 1109 0056 526C     		ldr	r2, [r2, #68]
 1110 0058 127A     		ldrb	r2, [r2, #8]	@ zero_extendqisi2
 1111 005a 3D21     		movs	r1, #61
 1112 005c 01FA02F2 		lsl	r2, r1, r2
 1113 0060 1A60     		str	r2, [r3]
 1114              		.loc 5 298 0 is_stmt 1 discriminator 2
 1115 0062 FB68     		ldr	r3, [r7, #12]
 1116 0064 9B6C     		ldr	r3, [r3, #72]
 1117 0066 0D4A     		ldr	r2, .L63
 1118 0068 9A63     		str	r2, [r3, #56]
 1119              		.loc 5 299 0 discriminator 2
 1120 006a FB68     		ldr	r3, [r7, #12]
 1121 006c 9B6C     		ldr	r3, [r3, #72]
 1122 006e 0022     		movs	r2, #0
 1123 0070 DA63     		str	r2, [r3, #60]
 1124              		.loc 5 300 0 discriminator 2
 1125 0072 FB68     		ldr	r3, [r7, #12]
 1126 0074 9B6C     		ldr	r3, [r3, #72]
 1127 0076 0022     		movs	r2, #0
 1128 0078 DA62     		str	r2, [r3, #44]
 1129              		.loc 5 301 0 discriminator 2
 1130 007a F868     		ldr	r0, [r7, #12]
 1131 007c 7969     		ldr	r1, [r7, #20]
 1132 007e FFF7FEFF 		bl	sdc_lld_collect_errors
 1133              		.loc 5 302 0 discriminator 2
 1134 0082 BB68     		ldr	r3, [r7, #8]
 1135 0084 012B     		cmp	r3, #1
 1136 0086 05D9     		bls	.L60
 1137              		.loc 5 303 0
 1138 0088 F868     		ldr	r0, [r7, #12]
 1139 008a 0C21     		movs	r1, #12
 1140 008c 0022     		movs	r2, #0
 1141 008e 7B68     		ldr	r3, [r7, #4]
 1142 0090 FFF7FEFF 		bl	sdc_lld_send_cmd_short_crc
 1143              	.L60:
 1144              		.loc 5 304 0
 1145 0094 1837     		adds	r7, r7, #24
 1146 0096 BD46     		mov	sp, r7
 1147              		@ sp needed
 1148 0098 80BD     		pop	{r7, pc}
 1149              	.L64:
 1150 009a 00BF     		.align	2
 1151              	.L63:
 1152 009c FF07C000 		.word	12584959
 1153              		.cfi_endproc
 1154              	.LFE265:
 1155              		.size	sdc_lld_error_cleanup, .-sdc_lld_error_cleanup
 1156              		.section	.text.Vector104,"ax",%progbits
 1157              		.align	2
 1158              		.p2align 4,,15
 1159              		.global	Vector104
 1160              		.thumb
 1161              		.thumb_func
 1162              		.type	Vector104, %function
ARM GAS  C:\Users\Luis\AppData\Local\Temp\ccMHTq6a.s 			page 22


 1163              	Vector104:
 1164              	.LFB266:
 1165              		.loc 5 320 0
 1166              		.cfi_startproc
 1167              		@ args = 0, pretend = 0, frame = 0
 1168              		@ frame_needed = 1, uses_anonymous_args = 0
 1169 0000 80B5     		push	{r7, lr}
 1170              		.cfi_def_cfa_offset 8
 1171              		.cfi_offset 7, -8
 1172              		.cfi_offset 14, -4
 1173 0002 00AF     		add	r7, sp, #0
 1174              		.cfi_def_cfa_register 7
 1175              		.loc 5 322 0
 1176 0004 FFF7FEFF 		bl	_stats_increase_irq
 1177 0008 FFF7FEFF 		bl	_dbg_check_enter_isr
 1178              		.loc 5 324 0
 1179 000c FFF7FEFF 		bl	osalSysLockFromISR
 1180              		.loc 5 328 0
 1181 0010 064B     		ldr	r3, .L66
 1182 0012 0022     		movs	r2, #0
 1183 0014 DA63     		str	r2, [r3, #60]
 1184              		.loc 5 330 0
 1185 0016 0648     		ldr	r0, .L66+4
 1186 0018 0021     		movs	r1, #0
 1187 001a FFF7FEFF 		bl	osalThreadResumeI
 1188              		.loc 5 332 0
 1189 001e FFF7FEFF 		bl	osalSysUnlockFromISR
 1190              		.loc 5 334 0
 1191 0022 FFF7FEFF 		bl	_dbg_check_leave_isr
 1192 0026 FFF7FEFF 		bl	_port_irq_epilogue
 1193              		.loc 5 335 0
 1194 002a 80BD     		pop	{r7, pc}
 1195              	.L67:
 1196              		.align	2
 1197              	.L66:
 1198 002c 002C0140 		.word	1073818624
 1199 0030 3C000000 		.word	SDCD1+60
 1200              		.cfi_endproc
 1201              	.LFE266:
 1202              		.size	Vector104, .-Vector104
 1203 0034 AFF30080 		.section	.text.sdc_lld_init,"ax",%progbits
 1203      AFF30080 
 1203      AFF30080 
 1204              		.align	2
 1205              		.p2align 4,,15
 1206              		.global	sdc_lld_init
 1207              		.thumb
 1208              		.thumb_func
 1209              		.type	sdc_lld_init, %function
 1210              	sdc_lld_init:
 1211              	.LFB267:
 1212              		.loc 5 346 0
 1213              		.cfi_startproc
 1214              		@ args = 0, pretend = 0, frame = 0
 1215              		@ frame_needed = 1, uses_anonymous_args = 0
 1216 0000 80B5     		push	{r7, lr}
 1217              		.cfi_def_cfa_offset 8
ARM GAS  C:\Users\Luis\AppData\Local\Temp\ccMHTq6a.s 			page 23


 1218              		.cfi_offset 7, -8
 1219              		.cfi_offset 14, -4
 1220 0002 00AF     		add	r7, sp, #0
 1221              		.cfi_def_cfa_register 7
 1222              		.loc 5 348 0
 1223 0004 0648     		ldr	r0, .L69
 1224 0006 FFF7FEFF 		bl	sdcObjectInit
 1225              		.loc 5 349 0
 1226 000a 054B     		ldr	r3, .L69
 1227 000c 0022     		movs	r2, #0
 1228 000e DA63     		str	r2, [r3, #60]
 1229              		.loc 5 350 0
 1230 0010 034B     		ldr	r3, .L69
 1231 0012 044A     		ldr	r2, .L69+4
 1232 0014 5A64     		str	r2, [r3, #68]
 1233              		.loc 5 351 0
 1234 0016 024B     		ldr	r3, .L69
 1235 0018 034A     		ldr	r2, .L69+8
 1236 001a 9A64     		str	r2, [r3, #72]
 1237              		.loc 5 352 0
 1238 001c 80BD     		pop	{r7, pc}
 1239              	.L70:
 1240 001e 00BF     		.align	2
 1241              	.L69:
 1242 0020 00000000 		.word	SDCD1
 1243 0024 84000000 		.word	_stm32_dma_streams+132
 1244 0028 002C0140 		.word	1073818624
 1245              		.cfi_endproc
 1246              	.LFE267:
 1247              		.size	sdc_lld_init, .-sdc_lld_init
 1248 002c AFF30080 		.section	.text.sdc_lld_start,"ax",%progbits
 1249              		.align	2
 1250              		.p2align 4,,15
 1251              		.global	sdc_lld_start
 1252              		.thumb
 1253              		.thumb_func
 1254              		.type	sdc_lld_start, %function
 1255              	sdc_lld_start:
 1256              	.LFB268:
 1257              		.loc 5 361 0
 1258              		.cfi_startproc
 1259              		@ args = 0, pretend = 0, frame = 16
 1260              		@ frame_needed = 1, uses_anonymous_args = 0
 1261 0000 80B5     		push	{r7, lr}
 1262              		.cfi_def_cfa_offset 8
 1263              		.cfi_offset 7, -8
 1264              		.cfi_offset 14, -4
 1265 0002 84B0     		sub	sp, sp, #16
 1266              		.cfi_def_cfa_offset 24
 1267 0004 00AF     		add	r7, sp, #0
 1268              		.cfi_def_cfa_register 7
 1269 0006 7860     		str	r0, [r7, #4]
 1270              		.loc 5 364 0
 1271 0008 7B68     		ldr	r3, [r7, #4]
 1272 000a DB6A     		ldr	r3, [r3, #44]
 1273 000c 002B     		cmp	r3, #0
 1274 000e 02D1     		bne	.L72
ARM GAS  C:\Users\Luis\AppData\Local\Temp\ccMHTq6a.s 			page 24


 1275              		.loc 5 365 0
 1276 0010 7B68     		ldr	r3, [r7, #4]
 1277 0012 254A     		ldr	r2, .L75
 1278 0014 DA62     		str	r2, [r3, #44]
 1279              	.L72:
 1280              		.loc 5 368 0
 1281 0016 7B68     		ldr	r3, [r7, #4]
 1282 0018 244A     		ldr	r2, .L75+4
 1283 001a 1A64     		str	r2, [r3, #64]
 1284              		.loc 5 375 0
 1285 001c 7B68     		ldr	r3, [r7, #4]
 1286 001e 1B6C     		ldr	r3, [r3, #64]
 1287 0020 43F42003 		orr	r3, r3, #10485760
 1288 0024 43F02003 		orr	r3, r3, #32
 1289 0028 7A68     		ldr	r2, [r7, #4]
 1290 002a 1364     		str	r3, [r2, #64]
 1291              		.loc 5 380 0
 1292 002c 7B68     		ldr	r3, [r7, #4]
 1293 002e 1B79     		ldrb	r3, [r3, #4]	@ zero_extendqisi2
 1294 0030 012B     		cmp	r3, #1
 1295 0032 25D1     		bne	.L73
 1296              	.LBB10:
 1297              		.loc 5 383 0
 1298 0034 7B68     		ldr	r3, [r7, #4]
 1299 0036 5B6C     		ldr	r3, [r3, #68]
 1300 0038 1846     		mov	r0, r3
 1301 003a 0921     		movs	r1, #9
 1302 003c 0022     		movs	r2, #0
 1303 003e 0023     		movs	r3, #0
 1304 0040 FFF7FEFF 		bl	dmaStreamAllocate
 1305 0044 0346     		mov	r3, r0
 1306 0046 FB73     		strb	r3, [r7, #15]
 1307              		.loc 5 384 0
 1308 0048 FB7B     		ldrb	r3, [r7, #15]	@ zero_extendqisi2
 1309 004a 002B     		cmp	r3, #0
 1310 004c 02D0     		beq	.L74
 1311              		.loc 5 384 0 is_stmt 0 discriminator 1
 1312 004e 1848     		ldr	r0, .L75+8
 1313 0050 FFF7FEFF 		bl	chSysHalt
 1314              	.L74:
 1315              		.loc 5 385 0 is_stmt 1
 1316 0054 7B68     		ldr	r3, [r7, #4]
 1317 0056 5B6C     		ldr	r3, [r3, #68]
 1318 0058 1B68     		ldr	r3, [r3]
 1319 005a 7A68     		ldr	r2, [r7, #4]
 1320 005c 926C     		ldr	r2, [r2, #72]
 1321 005e 8032     		adds	r2, r2, #128
 1322 0060 9A60     		str	r2, [r3, #8]
 1323              		.loc 5 387 0
 1324 0062 7B68     		ldr	r3, [r7, #4]
 1325 0064 5B6C     		ldr	r3, [r3, #68]
 1326 0066 1B68     		ldr	r3, [r3]
 1327 0068 0722     		movs	r2, #7
 1328 006a 5A61     		str	r2, [r3, #20]
 1329              		.loc 5 389 0
 1330 006c 3120     		movs	r0, #49
 1331 006e 0921     		movs	r1, #9
ARM GAS  C:\Users\Luis\AppData\Local\Temp\ccMHTq6a.s 			page 25


 1332 0070 FFF7FEFF 		bl	nvicEnableVector
 1333              		.loc 5 390 0
 1334 0074 0F4B     		ldr	r3, .L75+12
 1335 0076 0F4A     		ldr	r2, .L75+12
 1336 0078 526C     		ldr	r2, [r2, #68]
 1337 007a 42F40062 		orr	r2, r2, #2048
 1338 007e 5A64     		str	r2, [r3, #68]
 1339              	.L73:
 1340              	.LBE10:
 1341              		.loc 5 394 0
 1342 0080 7B68     		ldr	r3, [r7, #4]
 1343 0082 9B6C     		ldr	r3, [r3, #72]
 1344 0084 0022     		movs	r2, #0
 1345 0086 1A60     		str	r2, [r3]
 1346              		.loc 5 395 0
 1347 0088 7B68     		ldr	r3, [r7, #4]
 1348 008a 9B6C     		ldr	r3, [r3, #72]
 1349 008c 0022     		movs	r2, #0
 1350 008e 5A60     		str	r2, [r3, #4]
 1351              		.loc 5 396 0
 1352 0090 7B68     		ldr	r3, [r7, #4]
 1353 0092 9B6C     		ldr	r3, [r3, #72]
 1354 0094 0022     		movs	r2, #0
 1355 0096 DA62     		str	r2, [r3, #44]
 1356              		.loc 5 397 0
 1357 0098 7B68     		ldr	r3, [r7, #4]
 1358 009a 9B6C     		ldr	r3, [r3, #72]
 1359 009c 0022     		movs	r2, #0
 1360 009e 5A62     		str	r2, [r3, #36]
 1361              		.loc 5 398 0
 1362 00a0 1037     		adds	r7, r7, #16
 1363 00a2 BD46     		mov	sp, r7
 1364              		@ sp needed
 1365 00a4 80BD     		pop	{r7, pc}
 1366              	.L76:
 1367 00a6 00BF     		.align	2
 1368              	.L75:
 1369 00a8 00000000 		.word	sdc_default_cfg
 1370 00ac 00540308 		.word	134435840
 1371 00b0 00000000 		.word	__func__.8303
 1372 00b4 00380240 		.word	1073887232
 1373              		.cfi_endproc
 1374              	.LFE268:
 1375              		.size	sdc_lld_start, .-sdc_lld_start
 1376 00b8 AFF30080 		.section	.text.sdc_lld_stop,"ax",%progbits
 1376      AFF30080 
 1377              		.align	2
 1378              		.p2align 4,,15
 1379              		.global	sdc_lld_stop
 1380              		.thumb
 1381              		.thumb_func
 1382              		.type	sdc_lld_stop, %function
 1383              	sdc_lld_stop:
 1384              	.LFB269:
 1385              		.loc 5 407 0
 1386              		.cfi_startproc
 1387              		@ args = 0, pretend = 0, frame = 8
ARM GAS  C:\Users\Luis\AppData\Local\Temp\ccMHTq6a.s 			page 26


 1388              		@ frame_needed = 1, uses_anonymous_args = 0
 1389 0000 80B5     		push	{r7, lr}
 1390              		.cfi_def_cfa_offset 8
 1391              		.cfi_offset 7, -8
 1392              		.cfi_offset 14, -4
 1393 0002 82B0     		sub	sp, sp, #8
 1394              		.cfi_def_cfa_offset 16
 1395 0004 00AF     		add	r7, sp, #0
 1396              		.cfi_def_cfa_register 7
 1397 0006 7860     		str	r0, [r7, #4]
 1398              		.loc 5 409 0
 1399 0008 7B68     		ldr	r3, [r7, #4]
 1400 000a 1B79     		ldrb	r3, [r3, #4]	@ zero_extendqisi2
 1401 000c 012B     		cmp	r3, #1
 1402 000e 1DD0     		beq	.L77
 1403              		.loc 5 412 0
 1404 0010 7B68     		ldr	r3, [r7, #4]
 1405 0012 9B6C     		ldr	r3, [r3, #72]
 1406 0014 0022     		movs	r2, #0
 1407 0016 1A60     		str	r2, [r3]
 1408              		.loc 5 413 0
 1409 0018 7B68     		ldr	r3, [r7, #4]
 1410 001a 9B6C     		ldr	r3, [r3, #72]
 1411 001c 0022     		movs	r2, #0
 1412 001e 5A60     		str	r2, [r3, #4]
 1413              		.loc 5 414 0
 1414 0020 7B68     		ldr	r3, [r7, #4]
 1415 0022 9B6C     		ldr	r3, [r3, #72]
 1416 0024 0022     		movs	r2, #0
 1417 0026 DA62     		str	r2, [r3, #44]
 1418              		.loc 5 415 0
 1419 0028 7B68     		ldr	r3, [r7, #4]
 1420 002a 9B6C     		ldr	r3, [r3, #72]
 1421 002c 0022     		movs	r2, #0
 1422 002e 5A62     		str	r2, [r3, #36]
 1423              		.loc 5 418 0
 1424 0030 3120     		movs	r0, #49
 1425 0032 FFF7FEFF 		bl	nvicDisableVector
 1426              		.loc 5 419 0
 1427 0036 7B68     		ldr	r3, [r7, #4]
 1428 0038 5B6C     		ldr	r3, [r3, #68]
 1429 003a 1846     		mov	r0, r3
 1430 003c FFF7FEFF 		bl	dmaStreamRelease
 1431              		.loc 5 420 0
 1432 0040 044B     		ldr	r3, .L79
 1433 0042 044A     		ldr	r2, .L79
 1434 0044 526C     		ldr	r2, [r2, #68]
 1435 0046 22F40062 		bic	r2, r2, #2048
 1436 004a 5A64     		str	r2, [r3, #68]
 1437              	.L77:
 1438              		.loc 5 422 0
 1439 004c 0837     		adds	r7, r7, #8
 1440 004e BD46     		mov	sp, r7
 1441              		@ sp needed
 1442 0050 80BD     		pop	{r7, pc}
 1443              	.L80:
 1444 0052 00BF     		.align	2
ARM GAS  C:\Users\Luis\AppData\Local\Temp\ccMHTq6a.s 			page 27


 1445              	.L79:
 1446 0054 00380240 		.word	1073887232
 1447              		.cfi_endproc
 1448              	.LFE269:
 1449              		.size	sdc_lld_stop, .-sdc_lld_stop
 1450 0058 AFF30080 		.section	.text.sdc_lld_start_clk,"ax",%progbits
 1450      AFF30080 
 1451              		.align	2
 1452              		.p2align 4,,15
 1453              		.global	sdc_lld_start_clk
 1454              		.thumb
 1455              		.thumb_func
 1456              		.type	sdc_lld_start_clk, %function
 1457              	sdc_lld_start_clk:
 1458              	.LFB270:
 1459              		.loc 5 431 0
 1460              		.cfi_startproc
 1461              		@ args = 0, pretend = 0, frame = 8
 1462              		@ frame_needed = 1, uses_anonymous_args = 0
 1463 0000 80B5     		push	{r7, lr}
 1464              		.cfi_def_cfa_offset 8
 1465              		.cfi_offset 7, -8
 1466              		.cfi_offset 14, -4
 1467 0002 82B0     		sub	sp, sp, #8
 1468              		.cfi_def_cfa_offset 16
 1469 0004 00AF     		add	r7, sp, #0
 1470              		.cfi_def_cfa_register 7
 1471 0006 7860     		str	r0, [r7, #4]
 1472              		.loc 5 434 0
 1473 0008 7B68     		ldr	r3, [r7, #4]
 1474 000a 9B6C     		ldr	r3, [r3, #72]
 1475 000c 7822     		movs	r2, #120
 1476 000e 5A60     		str	r2, [r3, #4]
 1477              		.loc 5 435 0
 1478 0010 7B68     		ldr	r3, [r7, #4]
 1479 0012 9B6C     		ldr	r3, [r3, #72]
 1480 0014 7A68     		ldr	r2, [r7, #4]
 1481 0016 926C     		ldr	r2, [r2, #72]
 1482 0018 1268     		ldr	r2, [r2]
 1483 001a 42F00302 		orr	r2, r2, #3
 1484 001e 1A60     		str	r2, [r3]
 1485              		.loc 5 436 0
 1486 0020 7B68     		ldr	r3, [r7, #4]
 1487 0022 9B6C     		ldr	r3, [r3, #72]
 1488 0024 7A68     		ldr	r2, [r7, #4]
 1489 0026 926C     		ldr	r2, [r2, #72]
 1490 0028 5268     		ldr	r2, [r2, #4]
 1491 002a 42F48072 		orr	r2, r2, #256
 1492 002e 5A60     		str	r2, [r3, #4]
 1493              		.loc 5 439 0
 1494 0030 6420     		movs	r0, #100
 1495 0032 FFF7FEFF 		bl	osalThreadSleep
 1496              		.loc 5 440 0
 1497 0036 0837     		adds	r7, r7, #8
 1498 0038 BD46     		mov	sp, r7
 1499              		@ sp needed
 1500 003a 80BD     		pop	{r7, pc}
ARM GAS  C:\Users\Luis\AppData\Local\Temp\ccMHTq6a.s 			page 28


 1501              		.cfi_endproc
 1502              	.LFE270:
 1503              		.size	sdc_lld_start_clk, .-sdc_lld_start_clk
 1504 003c AFF30080 		.section	.text.sdc_lld_set_data_clk,"ax",%progbits
 1505              		.align	2
 1506              		.p2align 4,,15
 1507              		.global	sdc_lld_set_data_clk
 1508              		.thumb
 1509              		.thumb_func
 1510              		.type	sdc_lld_set_data_clk, %function
 1511              	sdc_lld_set_data_clk:
 1512              	.LFB271:
 1513              		.loc 5 450 0
 1514              		.cfi_startproc
 1515              		@ args = 0, pretend = 0, frame = 8
 1516              		@ frame_needed = 1, uses_anonymous_args = 0
 1517              		@ link register save eliminated.
 1518 0000 80B4     		push	{r7}
 1519              		.cfi_def_cfa_offset 4
 1520              		.cfi_offset 7, -4
 1521 0002 83B0     		sub	sp, sp, #12
 1522              		.cfi_def_cfa_offset 16
 1523 0004 00AF     		add	r7, sp, #0
 1524              		.cfi_def_cfa_register 7
 1525 0006 7860     		str	r0, [r7, #4]
 1526 0008 0B46     		mov	r3, r1
 1527 000a FB70     		strb	r3, [r7, #3]
 1528              		.loc 5 461 0
 1529 000c 7B68     		ldr	r3, [r7, #4]
 1530 000e 9B6C     		ldr	r3, [r3, #72]
 1531 0010 7A68     		ldr	r2, [r7, #4]
 1532 0012 926C     		ldr	r2, [r2, #72]
 1533 0014 5268     		ldr	r2, [r2, #4]
 1534 0016 22F0FF02 		bic	r2, r2, #255
 1535 001a 5A60     		str	r2, [r3, #4]
 1536              		.loc 5 463 0
 1537 001c 0C37     		adds	r7, r7, #12
 1538 001e BD46     		mov	sp, r7
 1539              		@ sp needed
 1540 0020 5DF8047B 		ldr	r7, [sp], #4
 1541 0024 7047     		bx	lr
 1542              		.cfi_endproc
 1543              	.LFE271:
 1544              		.size	sdc_lld_set_data_clk, .-sdc_lld_set_data_clk
 1545 0026 00BFAFF3 		.section	.text.sdc_lld_stop_clk,"ax",%progbits
 1545      0080AFF3 
 1545      0080
 1546              		.align	2
 1547              		.p2align 4,,15
 1548              		.global	sdc_lld_stop_clk
 1549              		.thumb
 1550              		.thumb_func
 1551              		.type	sdc_lld_stop_clk, %function
 1552              	sdc_lld_stop_clk:
 1553              	.LFB272:
 1554              		.loc 5 472 0
 1555              		.cfi_startproc
ARM GAS  C:\Users\Luis\AppData\Local\Temp\ccMHTq6a.s 			page 29


 1556              		@ args = 0, pretend = 0, frame = 8
 1557              		@ frame_needed = 1, uses_anonymous_args = 0
 1558              		@ link register save eliminated.
 1559 0000 80B4     		push	{r7}
 1560              		.cfi_def_cfa_offset 4
 1561              		.cfi_offset 7, -4
 1562 0002 83B0     		sub	sp, sp, #12
 1563              		.cfi_def_cfa_offset 16
 1564 0004 00AF     		add	r7, sp, #0
 1565              		.cfi_def_cfa_register 7
 1566 0006 7860     		str	r0, [r7, #4]
 1567              		.loc 5 474 0
 1568 0008 7B68     		ldr	r3, [r7, #4]
 1569 000a 9B6C     		ldr	r3, [r3, #72]
 1570 000c 0022     		movs	r2, #0
 1571 000e 5A60     		str	r2, [r3, #4]
 1572              		.loc 5 475 0
 1573 0010 7B68     		ldr	r3, [r7, #4]
 1574 0012 9B6C     		ldr	r3, [r3, #72]
 1575 0014 0022     		movs	r2, #0
 1576 0016 1A60     		str	r2, [r3]
 1577              		.loc 5 476 0
 1578 0018 0C37     		adds	r7, r7, #12
 1579 001a BD46     		mov	sp, r7
 1580              		@ sp needed
 1581 001c 5DF8047B 		ldr	r7, [sp], #4
 1582 0020 7047     		bx	lr
 1583              		.cfi_endproc
 1584              	.LFE272:
 1585              		.size	sdc_lld_stop_clk, .-sdc_lld_stop_clk
 1586 0022 00BFAFF3 		.section	.text.sdc_lld_set_bus_mode,"ax",%progbits
 1586      0080AFF3 
 1586      0080AFF3 
 1586      0080
 1587              		.align	2
 1588              		.p2align 4,,15
 1589              		.global	sdc_lld_set_bus_mode
 1590              		.thumb
 1591              		.thumb_func
 1592              		.type	sdc_lld_set_bus_mode, %function
 1593              	sdc_lld_set_bus_mode:
 1594              	.LFB273:
 1595              		.loc 5 486 0
 1596              		.cfi_startproc
 1597              		@ args = 0, pretend = 0, frame = 16
 1598              		@ frame_needed = 1, uses_anonymous_args = 0
 1599              		@ link register save eliminated.
 1600 0000 80B4     		push	{r7}
 1601              		.cfi_def_cfa_offset 4
 1602              		.cfi_offset 7, -4
 1603 0002 85B0     		sub	sp, sp, #20
 1604              		.cfi_def_cfa_offset 24
 1605 0004 00AF     		add	r7, sp, #0
 1606              		.cfi_def_cfa_register 7
 1607 0006 7860     		str	r0, [r7, #4]
 1608 0008 0B46     		mov	r3, r1
 1609 000a FB70     		strb	r3, [r7, #3]
ARM GAS  C:\Users\Luis\AppData\Local\Temp\ccMHTq6a.s 			page 30


 1610              		.loc 5 487 0
 1611 000c 7B68     		ldr	r3, [r7, #4]
 1612 000e 9B6C     		ldr	r3, [r3, #72]
 1613 0010 5B68     		ldr	r3, [r3, #4]
 1614 0012 23F4C053 		bic	r3, r3, #6144
 1615 0016 FB60     		str	r3, [r7, #12]
 1616              		.loc 5 489 0
 1617 0018 FB78     		ldrb	r3, [r7, #3]	@ zero_extendqisi2
 1618 001a 012B     		cmp	r3, #1
 1619 001c 08D0     		beq	.L86
 1620 001e 022B     		cmp	r3, #2
 1621 0020 0DD0     		beq	.L87
 1622 0022 002B     		cmp	r3, #0
 1623 0024 12D1     		bne	.L84
 1624              		.loc 5 491 0
 1625 0026 7B68     		ldr	r3, [r7, #4]
 1626 0028 9B6C     		ldr	r3, [r3, #72]
 1627 002a FA68     		ldr	r2, [r7, #12]
 1628 002c 5A60     		str	r2, [r3, #4]
 1629              		.loc 5 492 0
 1630 002e 0DE0     		b	.L84
 1631              	.L86:
 1632              		.loc 5 494 0
 1633 0030 7B68     		ldr	r3, [r7, #4]
 1634 0032 9B6C     		ldr	r3, [r3, #72]
 1635 0034 FA68     		ldr	r2, [r7, #12]
 1636 0036 42F40062 		orr	r2, r2, #2048
 1637 003a 5A60     		str	r2, [r3, #4]
 1638              		.loc 5 495 0
 1639 003c 06E0     		b	.L84
 1640              	.L87:
 1641              		.loc 5 497 0
 1642 003e 7B68     		ldr	r3, [r7, #4]
 1643 0040 9B6C     		ldr	r3, [r3, #72]
 1644 0042 FA68     		ldr	r2, [r7, #12]
 1645 0044 42F48052 		orr	r2, r2, #4096
 1646 0048 5A60     		str	r2, [r3, #4]
 1647              		.loc 5 498 0
 1648 004a 00BF     		nop
 1649              	.L84:
 1650              		.loc 5 500 0
 1651 004c 1437     		adds	r7, r7, #20
 1652 004e BD46     		mov	sp, r7
 1653              		@ sp needed
 1654 0050 5DF8047B 		ldr	r7, [sp], #4
 1655 0054 7047     		bx	lr
 1656              		.cfi_endproc
 1657              	.LFE273:
 1658              		.size	sdc_lld_set_bus_mode, .-sdc_lld_set_bus_mode
 1659 0056 00BFAFF3 		.section	.text.sdc_lld_send_cmd_none,"ax",%progbits
 1659      0080AFF3 
 1659      0080
 1660              		.align	2
 1661              		.p2align 4,,15
 1662              		.global	sdc_lld_send_cmd_none
 1663              		.thumb
 1664              		.thumb_func
ARM GAS  C:\Users\Luis\AppData\Local\Temp\ccMHTq6a.s 			page 31


 1665              		.type	sdc_lld_send_cmd_none, %function
 1666              	sdc_lld_send_cmd_none:
 1667              	.LFB274:
 1668              		.loc 5 511 0
 1669              		.cfi_startproc
 1670              		@ args = 0, pretend = 0, frame = 16
 1671              		@ frame_needed = 1, uses_anonymous_args = 0
 1672              		@ link register save eliminated.
 1673 0000 80B4     		push	{r7}
 1674              		.cfi_def_cfa_offset 4
 1675              		.cfi_offset 7, -4
 1676 0002 85B0     		sub	sp, sp, #20
 1677              		.cfi_def_cfa_offset 24
 1678 0004 00AF     		add	r7, sp, #0
 1679              		.cfi_def_cfa_register 7
 1680 0006 F860     		str	r0, [r7, #12]
 1681 0008 0B46     		mov	r3, r1
 1682 000a 7A60     		str	r2, [r7, #4]
 1683 000c FB72     		strb	r3, [r7, #11]
 1684              		.loc 5 513 0
 1685 000e FB68     		ldr	r3, [r7, #12]
 1686 0010 9B6C     		ldr	r3, [r3, #72]
 1687 0012 7A68     		ldr	r2, [r7, #4]
 1688 0014 9A60     		str	r2, [r3, #8]
 1689              		.loc 5 514 0
 1690 0016 FB68     		ldr	r3, [r7, #12]
 1691 0018 9B6C     		ldr	r3, [r3, #72]
 1692 001a FA7A     		ldrb	r2, [r7, #11]	@ zero_extendqisi2
 1693 001c 42F48062 		orr	r2, r2, #1024
 1694 0020 DA60     		str	r2, [r3, #12]
 1695              		.loc 5 515 0
 1696 0022 00BF     		nop
 1697              	.L90:
 1698              		.loc 5 515 0 is_stmt 0 discriminator 1
 1699 0024 FB68     		ldr	r3, [r7, #12]
 1700 0026 9B6C     		ldr	r3, [r3, #72]
 1701 0028 5B6B     		ldr	r3, [r3, #52]
 1702 002a 03F08003 		and	r3, r3, #128
 1703 002e 002B     		cmp	r3, #0
 1704 0030 F8D0     		beq	.L90
 1705              		.loc 5 517 0 is_stmt 1
 1706 0032 FB68     		ldr	r3, [r7, #12]
 1707 0034 9B6C     		ldr	r3, [r3, #72]
 1708 0036 8022     		movs	r2, #128
 1709 0038 9A63     		str	r2, [r3, #56]
 1710              		.loc 5 518 0
 1711 003a 1437     		adds	r7, r7, #20
 1712 003c BD46     		mov	sp, r7
 1713              		@ sp needed
 1714 003e 5DF8047B 		ldr	r7, [sp], #4
 1715 0042 7047     		bx	lr
 1716              		.cfi_endproc
 1717              	.LFE274:
 1718              		.size	sdc_lld_send_cmd_none, .-sdc_lld_send_cmd_none
 1719 0044 AFF30080 		.section	.text.sdc_lld_send_cmd_short,"ax",%progbits
 1719      AFF30080 
 1719      AFF30080 
ARM GAS  C:\Users\Luis\AppData\Local\Temp\ccMHTq6a.s 			page 32


 1720              		.align	2
 1721              		.p2align 4,,15
 1722              		.global	sdc_lld_send_cmd_short
 1723              		.thumb
 1724              		.thumb_func
 1725              		.type	sdc_lld_send_cmd_short, %function
 1726              	sdc_lld_send_cmd_short:
 1727              	.LFB275:
 1728              		.loc 5 536 0
 1729              		.cfi_startproc
 1730              		@ args = 0, pretend = 0, frame = 24
 1731              		@ frame_needed = 1, uses_anonymous_args = 0
 1732 0000 80B5     		push	{r7, lr}
 1733              		.cfi_def_cfa_offset 8
 1734              		.cfi_offset 7, -8
 1735              		.cfi_offset 14, -4
 1736 0002 86B0     		sub	sp, sp, #24
 1737              		.cfi_def_cfa_offset 32
 1738 0004 00AF     		add	r7, sp, #0
 1739              		.cfi_def_cfa_register 7
 1740 0006 F860     		str	r0, [r7, #12]
 1741 0008 7A60     		str	r2, [r7, #4]
 1742 000a 3B60     		str	r3, [r7]
 1743 000c 0B46     		mov	r3, r1
 1744 000e FB72     		strb	r3, [r7, #11]
 1745              		.loc 5 539 0
 1746 0010 FB68     		ldr	r3, [r7, #12]
 1747 0012 9B6C     		ldr	r3, [r3, #72]
 1748 0014 7A68     		ldr	r2, [r7, #4]
 1749 0016 9A60     		str	r2, [r3, #8]
 1750              		.loc 5 540 0
 1751 0018 FB68     		ldr	r3, [r7, #12]
 1752 001a 9B6C     		ldr	r3, [r3, #72]
 1753 001c FA7A     		ldrb	r2, [r7, #11]
 1754 001e 42F04002 		orr	r2, r2, #64
 1755 0022 D2B2     		uxtb	r2, r2
 1756 0024 42F48062 		orr	r2, r2, #1024
 1757 0028 DA60     		str	r2, [r3, #12]
 1758              		.loc 5 541 0
 1759 002a 00BF     		nop
 1760              	.L92:
 1761              		.loc 5 541 0 is_stmt 0 discriminator 1
 1762 002c FB68     		ldr	r3, [r7, #12]
 1763 002e 9B6C     		ldr	r3, [r3, #72]
 1764 0030 5B6B     		ldr	r3, [r3, #52]
 1765 0032 7B61     		str	r3, [r7, #20]
 1766 0034 7B69     		ldr	r3, [r7, #20]
 1767 0036 03F04503 		and	r3, r3, #69
 1768 003a 002B     		cmp	r3, #0
 1769 003c F6D0     		beq	.L92
 1770              		.loc 5 544 0 is_stmt 1
 1771 003e FB68     		ldr	r3, [r7, #12]
 1772 0040 9B6C     		ldr	r3, [r3, #72]
 1773 0042 7A69     		ldr	r2, [r7, #20]
 1774 0044 02F04502 		and	r2, r2, #69
 1775 0048 9A63     		str	r2, [r3, #56]
 1776              		.loc 5 546 0
ARM GAS  C:\Users\Luis\AppData\Local\Temp\ccMHTq6a.s 			page 33


 1777 004a 7B69     		ldr	r3, [r7, #20]
 1778 004c 03F00403 		and	r3, r3, #4
 1779 0050 002B     		cmp	r3, #0
 1780 0052 05D0     		beq	.L93
 1781              		.loc 5 547 0
 1782 0054 F868     		ldr	r0, [r7, #12]
 1783 0056 7969     		ldr	r1, [r7, #20]
 1784 0058 FFF7FEFF 		bl	sdc_lld_collect_errors
 1785              		.loc 5 548 0
 1786 005c 0123     		movs	r3, #1
 1787 005e 05E0     		b	.L94
 1788              	.L93:
 1789              		.loc 5 550 0
 1790 0060 FB68     		ldr	r3, [r7, #12]
 1791 0062 9B6C     		ldr	r3, [r3, #72]
 1792 0064 5A69     		ldr	r2, [r3, #20]
 1793 0066 3B68     		ldr	r3, [r7]
 1794 0068 1A60     		str	r2, [r3]
 1795              		.loc 5 551 0
 1796 006a 0023     		movs	r3, #0
 1797              	.L94:
 1798              		.loc 5 552 0
 1799 006c 1846     		mov	r0, r3
 1800 006e 1837     		adds	r7, r7, #24
 1801 0070 BD46     		mov	sp, r7
 1802              		@ sp needed
 1803 0072 80BD     		pop	{r7, pc}
 1804              		.cfi_endproc
 1805              	.LFE275:
 1806              		.size	sdc_lld_send_cmd_short, .-sdc_lld_send_cmd_short
 1807 0074 AFF30080 		.section	.text.sdc_lld_send_cmd_short_crc,"ax",%progbits
 1807      AFF30080 
 1807      AFF30080 
 1808              		.align	2
 1809              		.p2align 4,,15
 1810              		.global	sdc_lld_send_cmd_short_crc
 1811              		.thumb
 1812              		.thumb_func
 1813              		.type	sdc_lld_send_cmd_short_crc, %function
 1814              	sdc_lld_send_cmd_short_crc:
 1815              	.LFB276:
 1816              		.loc 5 569 0
 1817              		.cfi_startproc
 1818              		@ args = 0, pretend = 0, frame = 24
 1819              		@ frame_needed = 1, uses_anonymous_args = 0
 1820 0000 80B5     		push	{r7, lr}
 1821              		.cfi_def_cfa_offset 8
 1822              		.cfi_offset 7, -8
 1823              		.cfi_offset 14, -4
 1824 0002 86B0     		sub	sp, sp, #24
 1825              		.cfi_def_cfa_offset 32
 1826 0004 00AF     		add	r7, sp, #0
 1827              		.cfi_def_cfa_register 7
 1828 0006 F860     		str	r0, [r7, #12]
 1829 0008 7A60     		str	r2, [r7, #4]
 1830 000a 3B60     		str	r3, [r7]
 1831 000c 0B46     		mov	r3, r1
ARM GAS  C:\Users\Luis\AppData\Local\Temp\ccMHTq6a.s 			page 34


 1832 000e FB72     		strb	r3, [r7, #11]
 1833              		.loc 5 572 0
 1834 0010 FB68     		ldr	r3, [r7, #12]
 1835 0012 9B6C     		ldr	r3, [r3, #72]
 1836 0014 7A68     		ldr	r2, [r7, #4]
 1837 0016 9A60     		str	r2, [r3, #8]
 1838              		.loc 5 573 0
 1839 0018 FB68     		ldr	r3, [r7, #12]
 1840 001a 9B6C     		ldr	r3, [r3, #72]
 1841 001c FA7A     		ldrb	r2, [r7, #11]
 1842 001e 42F04002 		orr	r2, r2, #64
 1843 0022 D2B2     		uxtb	r2, r2
 1844 0024 42F48062 		orr	r2, r2, #1024
 1845 0028 DA60     		str	r2, [r3, #12]
 1846              		.loc 5 574 0
 1847 002a 00BF     		nop
 1848              	.L96:
 1849              		.loc 5 574 0 is_stmt 0 discriminator 1
 1850 002c FB68     		ldr	r3, [r7, #12]
 1851 002e 9B6C     		ldr	r3, [r3, #72]
 1852 0030 5B6B     		ldr	r3, [r3, #52]
 1853 0032 7B61     		str	r3, [r7, #20]
 1854 0034 7B69     		ldr	r3, [r7, #20]
 1855 0036 03F04503 		and	r3, r3, #69
 1856 003a 002B     		cmp	r3, #0
 1857 003c F6D0     		beq	.L96
 1858              		.loc 5 577 0 is_stmt 1
 1859 003e FB68     		ldr	r3, [r7, #12]
 1860 0040 9B6C     		ldr	r3, [r3, #72]
 1861 0042 7A69     		ldr	r2, [r7, #20]
 1862 0044 02F04502 		and	r2, r2, #69
 1863 0048 9A63     		str	r2, [r3, #56]
 1864              		.loc 5 578 0
 1865 004a 7B69     		ldr	r3, [r7, #20]
 1866 004c 03F00503 		and	r3, r3, #5
 1867 0050 002B     		cmp	r3, #0
 1868 0052 05D0     		beq	.L97
 1869              		.loc 5 579 0
 1870 0054 F868     		ldr	r0, [r7, #12]
 1871 0056 7969     		ldr	r1, [r7, #20]
 1872 0058 FFF7FEFF 		bl	sdc_lld_collect_errors
 1873              		.loc 5 580 0
 1874 005c 0123     		movs	r3, #1
 1875 005e 05E0     		b	.L98
 1876              	.L97:
 1877              		.loc 5 582 0
 1878 0060 FB68     		ldr	r3, [r7, #12]
 1879 0062 9B6C     		ldr	r3, [r3, #72]
 1880 0064 5A69     		ldr	r2, [r3, #20]
 1881 0066 3B68     		ldr	r3, [r7]
 1882 0068 1A60     		str	r2, [r3]
 1883              		.loc 5 583 0
 1884 006a 0023     		movs	r3, #0
 1885              	.L98:
 1886              		.loc 5 584 0
 1887 006c 1846     		mov	r0, r3
 1888 006e 1837     		adds	r7, r7, #24
ARM GAS  C:\Users\Luis\AppData\Local\Temp\ccMHTq6a.s 			page 35


 1889 0070 BD46     		mov	sp, r7
 1890              		@ sp needed
 1891 0072 80BD     		pop	{r7, pc}
 1892              		.cfi_endproc
 1893              	.LFE276:
 1894              		.size	sdc_lld_send_cmd_short_crc, .-sdc_lld_send_cmd_short_crc
 1895 0074 AFF30080 		.section	.text.sdc_lld_send_cmd_long_crc,"ax",%progbits
 1895      AFF30080 
 1895      AFF30080 
 1896              		.align	2
 1897              		.p2align 4,,15
 1898              		.global	sdc_lld_send_cmd_long_crc
 1899              		.thumb
 1900              		.thumb_func
 1901              		.type	sdc_lld_send_cmd_long_crc, %function
 1902              	sdc_lld_send_cmd_long_crc:
 1903              	.LFB277:
 1904              		.loc 5 601 0
 1905              		.cfi_startproc
 1906              		@ args = 0, pretend = 0, frame = 24
 1907              		@ frame_needed = 1, uses_anonymous_args = 0
 1908 0000 80B5     		push	{r7, lr}
 1909              		.cfi_def_cfa_offset 8
 1910              		.cfi_offset 7, -8
 1911              		.cfi_offset 14, -4
 1912 0002 86B0     		sub	sp, sp, #24
 1913              		.cfi_def_cfa_offset 32
 1914 0004 00AF     		add	r7, sp, #0
 1915              		.cfi_def_cfa_register 7
 1916 0006 F860     		str	r0, [r7, #12]
 1917 0008 7A60     		str	r2, [r7, #4]
 1918 000a 3B60     		str	r3, [r7]
 1919 000c 0B46     		mov	r3, r1
 1920 000e FB72     		strb	r3, [r7, #11]
 1921              		.loc 5 606 0
 1922 0010 FB68     		ldr	r3, [r7, #12]
 1923 0012 9B6C     		ldr	r3, [r3, #72]
 1924 0014 7A68     		ldr	r2, [r7, #4]
 1925 0016 9A60     		str	r2, [r3, #8]
 1926              		.loc 5 607 0
 1927 0018 FB68     		ldr	r3, [r7, #12]
 1928 001a 9B6C     		ldr	r3, [r3, #72]
 1929 001c FA7A     		ldrb	r2, [r7, #11]
 1930 001e 62F03F02 		orn	r2, r2, #63
 1931 0022 D2B2     		uxtb	r2, r2
 1932 0024 42F48062 		orr	r2, r2, #1024
 1933 0028 DA60     		str	r2, [r3, #12]
 1934              		.loc 5 609 0
 1935 002a 00BF     		nop
 1936              	.L100:
 1937              		.loc 5 609 0 is_stmt 0 discriminator 1
 1938 002c FB68     		ldr	r3, [r7, #12]
 1939 002e 9B6C     		ldr	r3, [r3, #72]
 1940 0030 5B6B     		ldr	r3, [r3, #52]
 1941 0032 7B61     		str	r3, [r7, #20]
 1942 0034 7B69     		ldr	r3, [r7, #20]
 1943 0036 03F04503 		and	r3, r3, #69
ARM GAS  C:\Users\Luis\AppData\Local\Temp\ccMHTq6a.s 			page 36


 1944 003a 002B     		cmp	r3, #0
 1945 003c F6D0     		beq	.L100
 1946              		.loc 5 612 0 is_stmt 1
 1947 003e FB68     		ldr	r3, [r7, #12]
 1948 0040 9B6C     		ldr	r3, [r3, #72]
 1949 0042 7A69     		ldr	r2, [r7, #20]
 1950 0044 02F04502 		and	r2, r2, #69
 1951 0048 9A63     		str	r2, [r3, #56]
 1952              		.loc 5 614 0
 1953 004a 7B69     		ldr	r3, [r7, #20]
 1954 004c 03F03F03 		and	r3, r3, #63
 1955 0050 002B     		cmp	r3, #0
 1956 0052 05D0     		beq	.L101
 1957              		.loc 5 615 0
 1958 0054 F868     		ldr	r0, [r7, #12]
 1959 0056 7969     		ldr	r1, [r7, #20]
 1960 0058 FFF7FEFF 		bl	sdc_lld_collect_errors
 1961              		.loc 5 616 0
 1962 005c 0123     		movs	r3, #1
 1963 005e 1AE0     		b	.L102
 1964              	.L101:
 1965              		.loc 5 619 0
 1966 0060 3B68     		ldr	r3, [r7]
 1967 0062 1A1D     		adds	r2, r3, #4
 1968 0064 3A60     		str	r2, [r7]
 1969 0066 FA68     		ldr	r2, [r7, #12]
 1970 0068 926C     		ldr	r2, [r2, #72]
 1971 006a 126A     		ldr	r2, [r2, #32]
 1972 006c 1A60     		str	r2, [r3]
 1973              		.loc 5 620 0
 1974 006e 3B68     		ldr	r3, [r7]
 1975 0070 1A1D     		adds	r2, r3, #4
 1976 0072 3A60     		str	r2, [r7]
 1977 0074 FA68     		ldr	r2, [r7, #12]
 1978 0076 926C     		ldr	r2, [r2, #72]
 1979 0078 D269     		ldr	r2, [r2, #28]
 1980 007a 1A60     		str	r2, [r3]
 1981              		.loc 5 621 0
 1982 007c 3B68     		ldr	r3, [r7]
 1983 007e 1A1D     		adds	r2, r3, #4
 1984 0080 3A60     		str	r2, [r7]
 1985 0082 FA68     		ldr	r2, [r7, #12]
 1986 0084 926C     		ldr	r2, [r2, #72]
 1987 0086 9269     		ldr	r2, [r2, #24]
 1988 0088 1A60     		str	r2, [r3]
 1989              		.loc 5 622 0
 1990 008a FB68     		ldr	r3, [r7, #12]
 1991 008c 9B6C     		ldr	r3, [r3, #72]
 1992 008e 5A69     		ldr	r2, [r3, #20]
 1993 0090 3B68     		ldr	r3, [r7]
 1994 0092 1A60     		str	r2, [r3]
 1995              		.loc 5 623 0
 1996 0094 0023     		movs	r3, #0
 1997              	.L102:
 1998              		.loc 5 624 0
 1999 0096 1846     		mov	r0, r3
 2000 0098 1837     		adds	r7, r7, #24
ARM GAS  C:\Users\Luis\AppData\Local\Temp\ccMHTq6a.s 			page 37


 2001 009a BD46     		mov	sp, r7
 2002              		@ sp needed
 2003 009c 80BD     		pop	{r7, pc}
 2004              		.cfi_endproc
 2005              	.LFE277:
 2006              		.size	sdc_lld_send_cmd_long_crc, .-sdc_lld_send_cmd_long_crc
 2007 009e 00BF     		.section	.text.sdc_lld_read_special,"ax",%progbits
 2008              		.align	2
 2009              		.p2align 4,,15
 2010              		.global	sdc_lld_read_special
 2011              		.thumb
 2012              		.thumb_func
 2013              		.type	sdc_lld_read_special, %function
 2014              	sdc_lld_read_special:
 2015              	.LFB278:
 2016              		.loc 5 643 0
 2017              		.cfi_startproc
 2018              		@ args = 4, pretend = 0, frame = 24
 2019              		@ frame_needed = 1, uses_anonymous_args = 0
 2020 0000 80B5     		push	{r7, lr}
 2021              		.cfi_def_cfa_offset 8
 2022              		.cfi_offset 7, -8
 2023              		.cfi_offset 14, -4
 2024 0002 86B0     		sub	sp, sp, #24
 2025              		.cfi_def_cfa_offset 32
 2026 0004 00AF     		add	r7, sp, #0
 2027              		.cfi_def_cfa_register 7
 2028 0006 F860     		str	r0, [r7, #12]
 2029 0008 B960     		str	r1, [r7, #8]
 2030 000a 7A60     		str	r2, [r7, #4]
 2031 000c FB70     		strb	r3, [r7, #3]
 2032              		.loc 5 646 0
 2033 000e F868     		ldr	r0, [r7, #12]
 2034 0010 B968     		ldr	r1, [r7, #8]
 2035 0012 7A68     		ldr	r2, [r7, #4]
 2036 0014 FFF7FEFF 		bl	sdc_lld_prepare_read_bytes
 2037 0018 0346     		mov	r3, r0
 2038 001a 002B     		cmp	r3, #0
 2039 001c 00D0     		beq	.L104
 2040              		.loc 5 647 0
 2041 001e 1CE0     		b	.L105
 2042              	.L104:
 2043              		.loc 5 649 0
 2044 0020 FA78     		ldrb	r2, [r7, #3]	@ zero_extendqisi2
 2045 0022 07F11403 		add	r3, r7, #20
 2046 0026 F868     		ldr	r0, [r7, #12]
 2047 0028 1146     		mov	r1, r2
 2048 002a 3A6A     		ldr	r2, [r7, #32]
 2049 002c FFF7FEFF 		bl	sdc_lld_send_cmd_short_crc
 2050 0030 0346     		mov	r3, r0
 2051 0032 002B     		cmp	r3, #0
 2052 0034 11D1     		bne	.L105
 2053              		.loc 5 650 0
 2054 0036 7A69     		ldr	r2, [r7, #20]
 2055 0038 0E4B     		ldr	r3, .L109
 2056 003a 1340     		ands	r3, r3, r2
 2057 003c 002B     		cmp	r3, #0
ARM GAS  C:\Users\Luis\AppData\Local\Temp\ccMHTq6a.s 			page 38


 2058 003e 0CD1     		bne	.L105
 2059              		.loc 5 653 0
 2060 0040 07F11403 		add	r3, r7, #20
 2061 0044 F868     		ldr	r0, [r7, #12]
 2062 0046 0121     		movs	r1, #1
 2063 0048 1A46     		mov	r2, r3
 2064 004a FFF7FEFF 		bl	sdc_lld_wait_transaction_end
 2065 004e 0346     		mov	r3, r0
 2066 0050 002B     		cmp	r3, #0
 2067 0052 00D0     		beq	.L106
 2068              		.loc 5 654 0
 2069 0054 01E0     		b	.L105
 2070              	.L106:
 2071              		.loc 5 656 0
 2072 0056 0023     		movs	r3, #0
 2073 0058 07E0     		b	.L108
 2074              	.L105:
 2075              		.loc 5 659 0
 2076 005a 07F11403 		add	r3, r7, #20
 2077 005e F868     		ldr	r0, [r7, #12]
 2078 0060 0121     		movs	r1, #1
 2079 0062 1A46     		mov	r2, r3
 2080 0064 FFF7FEFF 		bl	sdc_lld_error_cleanup
 2081              		.loc 5 660 0
 2082 0068 0123     		movs	r3, #1
 2083              	.L108:
 2084              		.loc 5 661 0
 2085 006a 1846     		mov	r0, r3
 2086 006c 1837     		adds	r7, r7, #24
 2087 006e BD46     		mov	sp, r7
 2088              		@ sp needed
 2089 0070 80BD     		pop	{r7, pc}
 2090              	.L110:
 2091 0072 00BF     		.align	2
 2092              	.L109:
 2093 0074 08E0FFFD 		.word	-33562616
 2094              		.cfi_endproc
 2095              	.LFE278:
 2096              		.size	sdc_lld_read_special, .-sdc_lld_read_special
 2097 0078 AFF30080 		.section	.text.sdc_lld_read_aligned,"ax",%progbits
 2097      AFF30080 
 2098              		.align	2
 2099              		.p2align 4,,15
 2100              		.global	sdc_lld_read_aligned
 2101              		.thumb
 2102              		.thumb_func
 2103              		.type	sdc_lld_read_aligned, %function
 2104              	sdc_lld_read_aligned:
 2105              	.LFB279:
 2106              		.loc 5 678 0
 2107              		.cfi_startproc
 2108              		@ args = 0, pretend = 0, frame = 24
 2109              		@ frame_needed = 1, uses_anonymous_args = 0
 2110 0000 80B5     		push	{r7, lr}
 2111              		.cfi_def_cfa_offset 8
 2112              		.cfi_offset 7, -8
 2113              		.cfi_offset 14, -4
ARM GAS  C:\Users\Luis\AppData\Local\Temp\ccMHTq6a.s 			page 39


 2114 0002 86B0     		sub	sp, sp, #24
 2115              		.cfi_def_cfa_offset 32
 2116 0004 00AF     		add	r7, sp, #0
 2117              		.cfi_def_cfa_register 7
 2118 0006 F860     		str	r0, [r7, #12]
 2119 0008 B960     		str	r1, [r7, #8]
 2120 000a 7A60     		str	r2, [r7, #4]
 2121 000c 3B60     		str	r3, [r7]
 2122              		.loc 5 681 0
 2123 000e 3B68     		ldr	r3, [r7]
 2124 0010 B3F5004F 		cmp	r3, #32768
 2125 0014 02D3     		bcc	.L112
 2126              		.loc 5 681 0 is_stmt 0 discriminator 1
 2127 0016 3048     		ldr	r0, .L119
 2128 0018 FFF7FEFF 		bl	chSysHalt
 2129              	.L112:
 2130              		.loc 5 683 0 is_stmt 1
 2131 001c FB68     		ldr	r3, [r7, #12]
 2132 001e 9B6C     		ldr	r3, [r3, #72]
 2133 0020 2E4A     		ldr	r2, .L119+4
 2134 0022 5A62     		str	r2, [r3, #36]
 2135              		.loc 5 686 0
 2136 0024 F868     		ldr	r0, [r7, #12]
 2137 0026 FFF7FEFF 		bl	_sdc_wait_for_transfer_state
 2138 002a 0346     		mov	r3, r0
 2139 002c 002B     		cmp	r3, #0
 2140 002e 01D0     		beq	.L113
 2141              		.loc 5 687 0
 2142 0030 0123     		movs	r3, #1
 2143 0032 4DE0     		b	.L118
 2144              	.L113:
 2145              		.loc 5 690 0
 2146 0034 FB68     		ldr	r3, [r7, #12]
 2147 0036 5B6C     		ldr	r3, [r3, #68]
 2148 0038 1B68     		ldr	r3, [r3]
 2149 003a 7A68     		ldr	r2, [r7, #4]
 2150 003c DA60     		str	r2, [r3, #12]
 2151              		.loc 5 691 0
 2152 003e FB68     		ldr	r3, [r7, #12]
 2153 0040 5B6C     		ldr	r3, [r3, #68]
 2154 0042 1B68     		ldr	r3, [r3]
 2155 0044 3A68     		ldr	r2, [r7]
 2156 0046 5202     		lsls	r2, r2, #9
 2157 0048 9208     		lsrs	r2, r2, #2
 2158 004a 5A60     		str	r2, [r3, #4]
 2159              		.loc 5 693 0
 2160 004c FB68     		ldr	r3, [r7, #12]
 2161 004e 5B6C     		ldr	r3, [r3, #68]
 2162 0050 1B68     		ldr	r3, [r3]
 2163 0052 FA68     		ldr	r2, [r7, #12]
 2164 0054 126C     		ldr	r2, [r2, #64]
 2165 0056 1A60     		str	r2, [r3]
 2166              		.loc 5 694 0
 2167 0058 FB68     		ldr	r3, [r7, #12]
 2168 005a 5B6C     		ldr	r3, [r3, #68]
 2169 005c 1B68     		ldr	r3, [r3]
 2170 005e FA68     		ldr	r2, [r7, #12]
ARM GAS  C:\Users\Luis\AppData\Local\Temp\ccMHTq6a.s 			page 40


 2171 0060 526C     		ldr	r2, [r2, #68]
 2172 0062 1268     		ldr	r2, [r2]
 2173 0064 1268     		ldr	r2, [r2]
 2174 0066 42F00102 		orr	r2, r2, #1
 2175 006a 1A60     		str	r2, [r3]
 2176              		.loc 5 697 0
 2177 006c FB68     		ldr	r3, [r7, #12]
 2178 006e 9B6C     		ldr	r3, [r3, #72]
 2179 0070 1B4A     		ldr	r2, .L119+8
 2180 0072 9A63     		str	r2, [r3, #56]
 2181              		.loc 5 698 0
 2182 0074 FB68     		ldr	r3, [r7, #12]
 2183 0076 9B6C     		ldr	r3, [r3, #72]
 2184 0078 40F22A32 		movw	r2, #810
 2185 007c DA63     		str	r2, [r3, #60]
 2186              		.loc 5 703 0
 2187 007e FB68     		ldr	r3, [r7, #12]
 2188 0080 9B6C     		ldr	r3, [r3, #72]
 2189 0082 3A68     		ldr	r2, [r7]
 2190 0084 5202     		lsls	r2, r2, #9
 2191 0086 9A62     		str	r2, [r3, #40]
 2192              		.loc 5 706 0
 2193 0088 FB68     		ldr	r3, [r7, #12]
 2194 008a 9B6C     		ldr	r3, [r3, #72]
 2195 008c 9B22     		movs	r2, #155
 2196 008e DA62     		str	r2, [r3, #44]
 2197              		.loc 5 712 0
 2198 0090 07F11403 		add	r3, r7, #20
 2199 0094 F868     		ldr	r0, [r7, #12]
 2200 0096 B968     		ldr	r1, [r7, #8]
 2201 0098 3A68     		ldr	r2, [r7]
 2202 009a FFF7FEFF 		bl	sdc_lld_prepare_read
 2203 009e 0346     		mov	r3, r0
 2204 00a0 002B     		cmp	r3, #0
 2205 00a2 00D0     		beq	.L115
 2206              		.loc 5 713 0
 2207 00a4 0CE0     		b	.L116
 2208              	.L115:
 2209              		.loc 5 715 0
 2210 00a6 07F11403 		add	r3, r7, #20
 2211 00aa F868     		ldr	r0, [r7, #12]
 2212 00ac 3968     		ldr	r1, [r7]
 2213 00ae 1A46     		mov	r2, r3
 2214 00b0 FFF7FEFF 		bl	sdc_lld_wait_transaction_end
 2215 00b4 0346     		mov	r3, r0
 2216 00b6 002B     		cmp	r3, #0
 2217 00b8 00D0     		beq	.L117
 2218              		.loc 5 716 0
 2219 00ba 01E0     		b	.L116
 2220              	.L117:
 2221              		.loc 5 718 0
 2222 00bc 0023     		movs	r3, #0
 2223 00be 07E0     		b	.L118
 2224              	.L116:
 2225              		.loc 5 721 0
 2226 00c0 07F11403 		add	r3, r7, #20
 2227 00c4 F868     		ldr	r0, [r7, #12]
ARM GAS  C:\Users\Luis\AppData\Local\Temp\ccMHTq6a.s 			page 41


 2228 00c6 3968     		ldr	r1, [r7]
 2229 00c8 1A46     		mov	r2, r3
 2230 00ca FFF7FEFF 		bl	sdc_lld_error_cleanup
 2231              		.loc 5 722 0
 2232 00ce 0123     		movs	r3, #1
 2233              	.L118:
 2234              		.loc 5 723 0
 2235 00d0 1846     		mov	r0, r3
 2236 00d2 1837     		adds	r7, r7, #24
 2237 00d4 BD46     		mov	sp, r7
 2238              		@ sp needed
 2239 00d6 80BD     		pop	{r7, pc}
 2240              	.L120:
 2241              		.align	2
 2242              	.L119:
 2243 00d8 00000000 		.word	__func__.8380
 2244 00dc C0270900 		.word	600000
 2245 00e0 FF07C000 		.word	12584959
 2246              		.cfi_endproc
 2247              	.LFE279:
 2248              		.size	sdc_lld_read_aligned, .-sdc_lld_read_aligned
 2249 00e4 AFF30080 		.section	.text.sdc_lld_write_aligned,"ax",%progbits
 2249      AFF30080 
 2249      AFF30080 
 2250              		.align	2
 2251              		.p2align 4,,15
 2252              		.global	sdc_lld_write_aligned
 2253              		.thumb
 2254              		.thumb_func
 2255              		.type	sdc_lld_write_aligned, %function
 2256              	sdc_lld_write_aligned:
 2257              	.LFB280:
 2258              		.loc 5 740 0
 2259              		.cfi_startproc
 2260              		@ args = 0, pretend = 0, frame = 24
 2261              		@ frame_needed = 1, uses_anonymous_args = 0
 2262 0000 80B5     		push	{r7, lr}
 2263              		.cfi_def_cfa_offset 8
 2264              		.cfi_offset 7, -8
 2265              		.cfi_offset 14, -4
 2266 0002 86B0     		sub	sp, sp, #24
 2267              		.cfi_def_cfa_offset 32
 2268 0004 00AF     		add	r7, sp, #0
 2269              		.cfi_def_cfa_register 7
 2270 0006 F860     		str	r0, [r7, #12]
 2271 0008 B960     		str	r1, [r7, #8]
 2272 000a 7A60     		str	r2, [r7, #4]
 2273 000c 3B60     		str	r3, [r7]
 2274              		.loc 5 743 0
 2275 000e 3B68     		ldr	r3, [r7]
 2276 0010 B3F5004F 		cmp	r3, #32768
 2277 0014 02D3     		bcc	.L122
 2278              		.loc 5 743 0 is_stmt 0 discriminator 1
 2279 0016 3148     		ldr	r0, .L129
 2280 0018 FFF7FEFF 		bl	chSysHalt
 2281              	.L122:
 2282              		.loc 5 745 0 is_stmt 1
ARM GAS  C:\Users\Luis\AppData\Local\Temp\ccMHTq6a.s 			page 42


 2283 001c FB68     		ldr	r3, [r7, #12]
 2284 001e 9B6C     		ldr	r3, [r3, #72]
 2285 0020 2F4A     		ldr	r2, .L129+4
 2286 0022 5A62     		str	r2, [r3, #36]
 2287              		.loc 5 748 0
 2288 0024 F868     		ldr	r0, [r7, #12]
 2289 0026 FFF7FEFF 		bl	_sdc_wait_for_transfer_state
 2290 002a 0346     		mov	r3, r0
 2291 002c 002B     		cmp	r3, #0
 2292 002e 01D0     		beq	.L123
 2293              		.loc 5 749 0
 2294 0030 0123     		movs	r3, #1
 2295 0032 4FE0     		b	.L128
 2296              	.L123:
 2297              		.loc 5 752 0
 2298 0034 FB68     		ldr	r3, [r7, #12]
 2299 0036 5B6C     		ldr	r3, [r3, #68]
 2300 0038 1B68     		ldr	r3, [r3]
 2301 003a 7A68     		ldr	r2, [r7, #4]
 2302 003c DA60     		str	r2, [r3, #12]
 2303              		.loc 5 753 0
 2304 003e FB68     		ldr	r3, [r7, #12]
 2305 0040 5B6C     		ldr	r3, [r3, #68]
 2306 0042 1B68     		ldr	r3, [r3]
 2307 0044 3A68     		ldr	r2, [r7]
 2308 0046 5202     		lsls	r2, r2, #9
 2309 0048 9208     		lsrs	r2, r2, #2
 2310 004a 5A60     		str	r2, [r3, #4]
 2311              		.loc 5 755 0
 2312 004c FB68     		ldr	r3, [r7, #12]
 2313 004e 5B6C     		ldr	r3, [r3, #68]
 2314 0050 1B68     		ldr	r3, [r3]
 2315 0052 FA68     		ldr	r2, [r7, #12]
 2316 0054 126C     		ldr	r2, [r2, #64]
 2317 0056 42F04002 		orr	r2, r2, #64
 2318 005a 1A60     		str	r2, [r3]
 2319              		.loc 5 756 0
 2320 005c FB68     		ldr	r3, [r7, #12]
 2321 005e 5B6C     		ldr	r3, [r3, #68]
 2322 0060 1B68     		ldr	r3, [r3]
 2323 0062 FA68     		ldr	r2, [r7, #12]
 2324 0064 526C     		ldr	r2, [r2, #68]
 2325 0066 1268     		ldr	r2, [r2]
 2326 0068 1268     		ldr	r2, [r2]
 2327 006a 42F00102 		orr	r2, r2, #1
 2328 006e 1A60     		str	r2, [r3]
 2329              		.loc 5 759 0
 2330 0070 FB68     		ldr	r3, [r7, #12]
 2331 0072 9B6C     		ldr	r3, [r3, #72]
 2332 0074 1B4A     		ldr	r2, .L129+8
 2333 0076 9A63     		str	r2, [r3, #56]
 2334              		.loc 5 760 0
 2335 0078 FB68     		ldr	r3, [r7, #12]
 2336 007a 9B6C     		ldr	r3, [r3, #72]
 2337 007c 40F21A32 		movw	r2, #794
 2338 0080 DA63     		str	r2, [r3, #60]
 2339              		.loc 5 765 0
ARM GAS  C:\Users\Luis\AppData\Local\Temp\ccMHTq6a.s 			page 43


 2340 0082 FB68     		ldr	r3, [r7, #12]
 2341 0084 9B6C     		ldr	r3, [r3, #72]
 2342 0086 3A68     		ldr	r2, [r7]
 2343 0088 5202     		lsls	r2, r2, #9
 2344 008a 9A62     		str	r2, [r3, #40]
 2345              		.loc 5 768 0
 2346 008c 07F11403 		add	r3, r7, #20
 2347 0090 F868     		ldr	r0, [r7, #12]
 2348 0092 B968     		ldr	r1, [r7, #8]
 2349 0094 3A68     		ldr	r2, [r7]
 2350 0096 FFF7FEFF 		bl	sdc_lld_prepare_write
 2351 009a 0346     		mov	r3, r0
 2352 009c 002B     		cmp	r3, #0
 2353 009e 00D0     		beq	.L125
 2354              		.loc 5 769 0
 2355 00a0 10E0     		b	.L126
 2356              	.L125:
 2357              		.loc 5 772 0
 2358 00a2 FB68     		ldr	r3, [r7, #12]
 2359 00a4 9B6C     		ldr	r3, [r3, #72]
 2360 00a6 9922     		movs	r2, #153
 2361 00a8 DA62     		str	r2, [r3, #44]
 2362              		.loc 5 777 0
 2363 00aa 07F11403 		add	r3, r7, #20
 2364 00ae F868     		ldr	r0, [r7, #12]
 2365 00b0 3968     		ldr	r1, [r7]
 2366 00b2 1A46     		mov	r2, r3
 2367 00b4 FFF7FEFF 		bl	sdc_lld_wait_transaction_end
 2368 00b8 0346     		mov	r3, r0
 2369 00ba 002B     		cmp	r3, #0
 2370 00bc 00D0     		beq	.L127
 2371              		.loc 5 778 0
 2372 00be 01E0     		b	.L126
 2373              	.L127:
 2374              		.loc 5 780 0
 2375 00c0 0023     		movs	r3, #0
 2376 00c2 07E0     		b	.L128
 2377              	.L126:
 2378              		.loc 5 783 0
 2379 00c4 07F11403 		add	r3, r7, #20
 2380 00c8 F868     		ldr	r0, [r7, #12]
 2381 00ca 3968     		ldr	r1, [r7]
 2382 00cc 1A46     		mov	r2, r3
 2383 00ce FFF7FEFF 		bl	sdc_lld_error_cleanup
 2384              		.loc 5 784 0
 2385 00d2 0123     		movs	r3, #1
 2386              	.L128:
 2387              		.loc 5 785 0
 2388 00d4 1846     		mov	r0, r3
 2389 00d6 1837     		adds	r7, r7, #24
 2390 00d8 BD46     		mov	sp, r7
 2391              		@ sp needed
 2392 00da 80BD     		pop	{r7, pc}
 2393              	.L130:
 2394              		.align	2
 2395              	.L129:
 2396 00dc 00000000 		.word	__func__.8389
ARM GAS  C:\Users\Luis\AppData\Local\Temp\ccMHTq6a.s 			page 44


 2397 00e0 808D5B00 		.word	6000000
 2398 00e4 FF07C000 		.word	12584959
 2399              		.cfi_endproc
 2400              	.LFE280:
 2401              		.size	sdc_lld_write_aligned, .-sdc_lld_write_aligned
 2402 00e8 AFF30080 		.section	.text.sdc_lld_read,"ax",%progbits
 2402      AFF30080 
 2403              		.align	2
 2404              		.p2align 4,,15
 2405              		.global	sdc_lld_read
 2406              		.thumb
 2407              		.thumb_func
 2408              		.type	sdc_lld_read, %function
 2409              	sdc_lld_read:
 2410              	.LFB281:
 2411              		.loc 5 802 0
 2412              		.cfi_startproc
 2413              		@ args = 0, pretend = 0, frame = 24
 2414              		@ frame_needed = 1, uses_anonymous_args = 0
 2415 0000 80B5     		push	{r7, lr}
 2416              		.cfi_def_cfa_offset 8
 2417              		.cfi_offset 7, -8
 2418              		.cfi_offset 14, -4
 2419 0002 86B0     		sub	sp, sp, #24
 2420              		.cfi_def_cfa_offset 32
 2421 0004 00AF     		add	r7, sp, #0
 2422              		.cfi_def_cfa_register 7
 2423 0006 F860     		str	r0, [r7, #12]
 2424 0008 B960     		str	r1, [r7, #8]
 2425 000a 7A60     		str	r2, [r7, #4]
 2426 000c 3B60     		str	r3, [r7]
 2427              		.loc 5 805 0
 2428 000e 7B68     		ldr	r3, [r7, #4]
 2429 0010 03F00303 		and	r3, r3, #3
 2430 0014 002B     		cmp	r3, #0
 2431 0016 28D0     		beq	.L132
 2432              	.LBB11:
 2433              		.loc 5 807 0
 2434 0018 0023     		movs	r3, #0
 2435 001a 7B61     		str	r3, [r7, #20]
 2436 001c 1FE0     		b	.L133
 2437              	.L136:
 2438              		.loc 5 808 0
 2439 001e F868     		ldr	r0, [r7, #12]
 2440 0020 B968     		ldr	r1, [r7, #8]
 2441 0022 174A     		ldr	r2, .L137
 2442 0024 0123     		movs	r3, #1
 2443 0026 FFF7FEFF 		bl	sdc_lld_read_aligned
 2444 002a 0346     		mov	r3, r0
 2445 002c 002B     		cmp	r3, #0
 2446 002e 01D0     		beq	.L134
 2447              		.loc 5 809 0
 2448 0030 0123     		movs	r3, #1
 2449 0032 21E0     		b	.L135
 2450              	.L134:
 2451              		.loc 5 810 0
 2452 0034 7A68     		ldr	r2, [r7, #4]
ARM GAS  C:\Users\Luis\AppData\Local\Temp\ccMHTq6a.s 			page 45


 2453 0036 124B     		ldr	r3, .L137
 2454 0038 1146     		mov	r1, r2
 2455 003a 1A46     		mov	r2, r3
 2456 003c 4FF40073 		mov	r3, #512
 2457 0040 0846     		mov	r0, r1
 2458 0042 1146     		mov	r1, r2
 2459 0044 1A46     		mov	r2, r3
 2460 0046 FFF7FEFF 		bl	memcpy
 2461              		.loc 5 811 0
 2462 004a 7B68     		ldr	r3, [r7, #4]
 2463 004c 03F50073 		add	r3, r3, #512
 2464 0050 7B60     		str	r3, [r7, #4]
 2465              		.loc 5 812 0
 2466 0052 BB68     		ldr	r3, [r7, #8]
 2467 0054 0133     		adds	r3, r3, #1
 2468 0056 BB60     		str	r3, [r7, #8]
 2469              		.loc 5 807 0
 2470 0058 7B69     		ldr	r3, [r7, #20]
 2471 005a 0133     		adds	r3, r3, #1
 2472 005c 7B61     		str	r3, [r7, #20]
 2473              	.L133:
 2474              		.loc 5 807 0 is_stmt 0 discriminator 1
 2475 005e 7A69     		ldr	r2, [r7, #20]
 2476 0060 3B68     		ldr	r3, [r7]
 2477 0062 9A42     		cmp	r2, r3
 2478 0064 DBD3     		bcc	.L136
 2479              		.loc 5 814 0 is_stmt 1
 2480 0066 0023     		movs	r3, #0
 2481 0068 06E0     		b	.L135
 2482              	.L132:
 2483              	.LBE11:
 2484              		.loc 5 817 0
 2485 006a F868     		ldr	r0, [r7, #12]
 2486 006c B968     		ldr	r1, [r7, #8]
 2487 006e 7A68     		ldr	r2, [r7, #4]
 2488 0070 3B68     		ldr	r3, [r7]
 2489 0072 FFF7FEFF 		bl	sdc_lld_read_aligned
 2490 0076 0346     		mov	r3, r0
 2491              	.L135:
 2492              		.loc 5 818 0
 2493 0078 1846     		mov	r0, r3
 2494 007a 1837     		adds	r7, r7, #24
 2495 007c BD46     		mov	sp, r7
 2496              		@ sp needed
 2497 007e 80BD     		pop	{r7, pc}
 2498              	.L138:
 2499              		.align	2
 2500              	.L137:
 2501 0080 00000000 		.word	u
 2502              		.cfi_endproc
 2503              	.LFE281:
 2504              		.size	sdc_lld_read, .-sdc_lld_read
 2505 0084 AFF30080 		.section	.text.sdc_lld_write,"ax",%progbits
 2505      AFF30080 
 2505      AFF30080 
 2506              		.align	2
 2507              		.p2align 4,,15
ARM GAS  C:\Users\Luis\AppData\Local\Temp\ccMHTq6a.s 			page 46


 2508              		.global	sdc_lld_write
 2509              		.thumb
 2510              		.thumb_func
 2511              		.type	sdc_lld_write, %function
 2512              	sdc_lld_write:
 2513              	.LFB282:
 2514              		.loc 5 835 0
 2515              		.cfi_startproc
 2516              		@ args = 0, pretend = 0, frame = 24
 2517              		@ frame_needed = 1, uses_anonymous_args = 0
 2518 0000 80B5     		push	{r7, lr}
 2519              		.cfi_def_cfa_offset 8
 2520              		.cfi_offset 7, -8
 2521              		.cfi_offset 14, -4
 2522 0002 86B0     		sub	sp, sp, #24
 2523              		.cfi_def_cfa_offset 32
 2524 0004 00AF     		add	r7, sp, #0
 2525              		.cfi_def_cfa_register 7
 2526 0006 F860     		str	r0, [r7, #12]
 2527 0008 B960     		str	r1, [r7, #8]
 2528 000a 7A60     		str	r2, [r7, #4]
 2529 000c 3B60     		str	r3, [r7]
 2530              		.loc 5 838 0
 2531 000e 7B68     		ldr	r3, [r7, #4]
 2532 0010 03F00303 		and	r3, r3, #3
 2533 0014 002B     		cmp	r3, #0
 2534 0016 28D0     		beq	.L140
 2535              	.LBB12:
 2536              		.loc 5 840 0
 2537 0018 0023     		movs	r3, #0
 2538 001a 7B61     		str	r3, [r7, #20]
 2539 001c 1FE0     		b	.L141
 2540              	.L144:
 2541              		.loc 5 841 0
 2542 001e 184A     		ldr	r2, .L145
 2543 0020 7B68     		ldr	r3, [r7, #4]
 2544 0022 1146     		mov	r1, r2
 2545 0024 1A46     		mov	r2, r3
 2546 0026 4FF40073 		mov	r3, #512
 2547 002a 0846     		mov	r0, r1
 2548 002c 1146     		mov	r1, r2
 2549 002e 1A46     		mov	r2, r3
 2550 0030 FFF7FEFF 		bl	memcpy
 2551              		.loc 5 842 0
 2552 0034 7B68     		ldr	r3, [r7, #4]
 2553 0036 03F50073 		add	r3, r3, #512
 2554 003a 7B60     		str	r3, [r7, #4]
 2555              		.loc 5 843 0
 2556 003c F868     		ldr	r0, [r7, #12]
 2557 003e B968     		ldr	r1, [r7, #8]
 2558 0040 0F4A     		ldr	r2, .L145
 2559 0042 0123     		movs	r3, #1
 2560 0044 FFF7FEFF 		bl	sdc_lld_write_aligned
 2561 0048 0346     		mov	r3, r0
 2562 004a 002B     		cmp	r3, #0
 2563 004c 01D0     		beq	.L142
 2564              		.loc 5 844 0
ARM GAS  C:\Users\Luis\AppData\Local\Temp\ccMHTq6a.s 			page 47


 2565 004e 0123     		movs	r3, #1
 2566 0050 12E0     		b	.L143
 2567              	.L142:
 2568              		.loc 5 845 0
 2569 0052 BB68     		ldr	r3, [r7, #8]
 2570 0054 0133     		adds	r3, r3, #1
 2571 0056 BB60     		str	r3, [r7, #8]
 2572              		.loc 5 840 0
 2573 0058 7B69     		ldr	r3, [r7, #20]
 2574 005a 0133     		adds	r3, r3, #1
 2575 005c 7B61     		str	r3, [r7, #20]
 2576              	.L141:
 2577              		.loc 5 840 0 is_stmt 0 discriminator 1
 2578 005e 7A69     		ldr	r2, [r7, #20]
 2579 0060 3B68     		ldr	r3, [r7]
 2580 0062 9A42     		cmp	r2, r3
 2581 0064 DBD3     		bcc	.L144
 2582              		.loc 5 847 0 is_stmt 1
 2583 0066 0023     		movs	r3, #0
 2584 0068 06E0     		b	.L143
 2585              	.L140:
 2586              	.LBE12:
 2587              		.loc 5 850 0
 2588 006a F868     		ldr	r0, [r7, #12]
 2589 006c B968     		ldr	r1, [r7, #8]
 2590 006e 7A68     		ldr	r2, [r7, #4]
 2591 0070 3B68     		ldr	r3, [r7]
 2592 0072 FFF7FEFF 		bl	sdc_lld_write_aligned
 2593 0076 0346     		mov	r3, r0
 2594              	.L143:
 2595              		.loc 5 851 0
 2596 0078 1846     		mov	r0, r3
 2597 007a 1837     		adds	r7, r7, #24
 2598 007c BD46     		mov	sp, r7
 2599              		@ sp needed
 2600 007e 80BD     		pop	{r7, pc}
 2601              	.L146:
 2602              		.align	2
 2603              	.L145:
 2604 0080 00000000 		.word	u
 2605              		.cfi_endproc
 2606              	.LFE282:
 2607              		.size	sdc_lld_write, .-sdc_lld_write
 2608 0084 AFF30080 		.section	.text.sdc_lld_sync,"ax",%progbits
 2608      AFF30080 
 2608      AFF30080 
 2609              		.align	2
 2610              		.p2align 4,,15
 2611              		.global	sdc_lld_sync
 2612              		.thumb
 2613              		.thumb_func
 2614              		.type	sdc_lld_sync, %function
 2615              	sdc_lld_sync:
 2616              	.LFB283:
 2617              		.loc 5 864 0
 2618              		.cfi_startproc
 2619              		@ args = 0, pretend = 0, frame = 8
ARM GAS  C:\Users\Luis\AppData\Local\Temp\ccMHTq6a.s 			page 48


 2620              		@ frame_needed = 1, uses_anonymous_args = 0
 2621              		@ link register save eliminated.
 2622 0000 80B4     		push	{r7}
 2623              		.cfi_def_cfa_offset 4
 2624              		.cfi_offset 7, -4
 2625 0002 83B0     		sub	sp, sp, #12
 2626              		.cfi_def_cfa_offset 16
 2627 0004 00AF     		add	r7, sp, #0
 2628              		.cfi_def_cfa_register 7
 2629 0006 7860     		str	r0, [r7, #4]
 2630              		.loc 5 868 0
 2631 0008 0023     		movs	r3, #0
 2632              		.loc 5 869 0
 2633 000a 1846     		mov	r0, r3
 2634 000c 0C37     		adds	r7, r7, #12
 2635 000e BD46     		mov	sp, r7
 2636              		@ sp needed
 2637 0010 5DF8047B 		ldr	r7, [sp], #4
 2638 0014 7047     		bx	lr
 2639              		.cfi_endproc
 2640              	.LFE283:
 2641              		.size	sdc_lld_sync, .-sdc_lld_sync
 2642 0016 00BFAFF3 		.section	.rodata.__func__.8258,"a",%progbits
 2642      0080AFF3 
 2642      0080
 2643              		.align	2
 2644              		.type	__func__.8258, %object
 2645              		.size	__func__.8258, 27
 2646              	__func__.8258:
 2647 0000 7364635F 		.ascii	"sdc_lld_prepare_read_bytes\000"
 2647      6C6C645F 
 2647      70726570 
 2647      6172655F 
 2647      72656164 
 2648 001b 00       		.section	.rodata.__func__.6186,"a",%progbits
 2649              		.align	2
 2650              		.type	__func__.6186, %object
 2651              		.size	__func__.6186, 12
 2652              	__func__.6186:
 2653 0000 63685379 		.ascii	"chSysUnlock\000"
 2653      73556E6C 
 2653      6F636B00 
 2654              		.section	.rodata.__func__.8303,"a",%progbits
 2655              		.align	2
 2656              		.type	__func__.8303, %object
 2657              		.size	__func__.8303, 14
 2658              	__func__.8303:
 2659 0000 7364635F 		.ascii	"sdc_lld_start\000"
 2659      6C6C645F 
 2659      73746172 
 2659      7400
 2660 000e 0000     		.section	.rodata.__func__.8380,"a",%progbits
 2661              		.align	2
 2662              		.type	__func__.8380, %object
 2663              		.size	__func__.8380, 21
 2664              	__func__.8380:
 2665 0000 7364635F 		.ascii	"sdc_lld_read_aligned\000"
ARM GAS  C:\Users\Luis\AppData\Local\Temp\ccMHTq6a.s 			page 49


 2665      6C6C645F 
 2665      72656164 
 2665      5F616C69 
 2665      676E6564 
 2666 0015 000000   		.section	.rodata.__func__.8389,"a",%progbits
 2667              		.align	2
 2668              		.type	__func__.8389, %object
 2669              		.size	__func__.8389, 22
 2670              	__func__.8389:
 2671 0000 7364635F 		.ascii	"sdc_lld_write_aligned\000"
 2671      6C6C645F 
 2671      77726974 
 2671      655F616C 
 2671      69676E65 
 2672 0016 0000     		.text
 2673              	.Letext0:
 2674              		.file 6 "c:\\emtechesdk\\gcc\\lib\\gcc\\arm-none-eabi\\4.8.3\\include\\stddef.h"
 2675              		.file 7 "c:\\emtechesdk\\gcc\\arm-none-eabi\\include\\stdint.h"
 2676              		.file 8 "../../ChibiOS/os/rt/ports/ARMCMx/compilers/GCC/chtypes.h"
 2677              		.file 9 "../../ChibiOS/os/rt/include/chsystypes.h"
 2678              		.file 10 "../../ChibiOS/os/rt/include/chschd.h"
 2679              		.file 11 "../../ChibiOS/os/ext/CMSIS/ST/stm32f407xx.h"
 2680              		.file 12 "../../ChibiOS/os/rt/ports/ARMCMx/chcore.h"
 2681              		.file 13 "../../ChibiOS/os/rt/include/chdebug.h"
 2682              		.file 14 "../../ChibiOS/os/rt/include/chtm.h"
 2683              		.file 15 "../../ChibiOS/os/rt/include/chstats.h"
 2684              		.file 16 "../../ChibiOS/os/rt/include/chsem.h"
 2685              		.file 17 "../../ChibiOS/os/rt/include/chmtx.h"
 2686              		.file 18 "../../ChibiOS/os/hal/ports/STM32/STM32F4xx/stm32_dma.h"
 2687              		.file 19 "../../ChibiOS/os/hal/include/hal_ioblock.h"
 2688              		.file 20 "../../ChibiOS/os/hal/include/sdc.h"
 2689              		.file 21 "../../ChibiOS/os/hal/ports/STM32/LLD/sdc_lld.h"
 2690              		.file 22 "../../ChibiOS/os/ext/CMSIS/include/core_cm4.h"
 2691              		.section	.debug_info,"",%progbits
 2692              	.Ldebug_info0:
 2693 0000 30180000 		.4byte	0x1830
 2694 0004 0400     		.2byte	0x4
 2695 0006 00000000 		.4byte	.Ldebug_abbrev0
 2696 000a 04       		.byte	0x4
 2697 000b 01       		.uleb128 0x1
 2698 000c DA070000 		.4byte	.LASF276
 2699 0010 01       		.byte	0x1
 2700 0011 9D070000 		.4byte	.LASF277
 2701 0015 42090000 		.4byte	.LASF278
 2702 0019 00000000 		.4byte	.Ldebug_ranges0+0
 2703 001d 00000000 		.4byte	0
 2704 0021 00000000 		.4byte	.Ldebug_line0
 2705 0025 02       		.uleb128 0x2
 2706 0026 04       		.byte	0x4
 2707 0027 05       		.byte	0x5
 2708 0028 696E7400 		.ascii	"int\000"
 2709 002c 03       		.uleb128 0x3
 2710 002d 20000000 		.4byte	.LASF11
 2711 0031 06       		.byte	0x6
 2712 0032 D4       		.byte	0xd4
 2713 0033 37000000 		.4byte	0x37
 2714 0037 04       		.uleb128 0x4
ARM GAS  C:\Users\Luis\AppData\Local\Temp\ccMHTq6a.s 			page 50


 2715 0038 04       		.byte	0x4
 2716 0039 07       		.byte	0x7
 2717 003a 60070000 		.4byte	.LASF0
 2718 003e 04       		.uleb128 0x4
 2719 003f 01       		.byte	0x1
 2720 0040 06       		.byte	0x6
 2721 0041 C8020000 		.4byte	.LASF1
 2722 0045 04       		.uleb128 0x4
 2723 0046 01       		.byte	0x1
 2724 0047 08       		.byte	0x8
 2725 0048 5A030000 		.4byte	.LASF2
 2726 004c 04       		.uleb128 0x4
 2727 004d 02       		.byte	0x2
 2728 004e 05       		.byte	0x5
 2729 004f 6E0B0000 		.4byte	.LASF3
 2730 0053 04       		.uleb128 0x4
 2731 0054 02       		.byte	0x2
 2732 0055 07       		.byte	0x7
 2733 0056 6C0C0000 		.4byte	.LASF4
 2734 005a 04       		.uleb128 0x4
 2735 005b 08       		.byte	0x8
 2736 005c 05       		.byte	0x5
 2737 005d 7C060000 		.4byte	.LASF5
 2738 0061 04       		.uleb128 0x4
 2739 0062 08       		.byte	0x8
 2740 0063 07       		.byte	0x7
 2741 0064 310A0000 		.4byte	.LASF6
 2742 0068 04       		.uleb128 0x4
 2743 0069 04       		.byte	0x4
 2744 006a 05       		.byte	0x5
 2745 006b 16020000 		.4byte	.LASF7
 2746 006f 04       		.uleb128 0x4
 2747 0070 04       		.byte	0x4
 2748 0071 07       		.byte	0x7
 2749 0072 2E000000 		.4byte	.LASF8
 2750 0076 05       		.uleb128 0x5
 2751 0077 04       		.byte	0x4
 2752 0078 04       		.uleb128 0x4
 2753 0079 04       		.byte	0x4
 2754 007a 07       		.byte	0x7
 2755 007b 64050000 		.4byte	.LASF9
 2756 007f 04       		.uleb128 0x4
 2757 0080 01       		.byte	0x1
 2758 0081 08       		.byte	0x8
 2759 0082 EB030000 		.4byte	.LASF10
 2760 0086 06       		.uleb128 0x6
 2761 0087 04       		.byte	0x4
 2762 0088 8C000000 		.4byte	0x8c
 2763 008c 07       		.uleb128 0x7
 2764 008d 7F000000 		.4byte	0x7f
 2765 0091 03       		.uleb128 0x3
 2766 0092 DB020000 		.4byte	.LASF12
 2767 0096 07       		.byte	0x7
 2768 0097 2A       		.byte	0x2a
 2769 0098 45000000 		.4byte	0x45
 2770 009c 03       		.uleb128 0x3
 2771 009d 91000000 		.4byte	.LASF13
ARM GAS  C:\Users\Luis\AppData\Local\Temp\ccMHTq6a.s 			page 51


 2772 00a1 07       		.byte	0x7
 2773 00a2 4F       		.byte	0x4f
 2774 00a3 68000000 		.4byte	0x68
 2775 00a7 03       		.uleb128 0x3
 2776 00a8 350C0000 		.4byte	.LASF14
 2777 00ac 07       		.byte	0x7
 2778 00ad 50       		.byte	0x50
 2779 00ae 78000000 		.4byte	0x78
 2780 00b2 03       		.uleb128 0x3
 2781 00b3 8E0B0000 		.4byte	.LASF15
 2782 00b7 07       		.byte	0x7
 2783 00b8 78       		.byte	0x78
 2784 00b9 61000000 		.4byte	0x61
 2785 00bd 08       		.uleb128 0x8
 2786 00be 9C000000 		.4byte	0x9c
 2787 00c2 08       		.uleb128 0x8
 2788 00c3 A7000000 		.4byte	0xa7
 2789 00c7 03       		.uleb128 0x3
 2790 00c8 75070000 		.4byte	.LASF16
 2791 00cc 08       		.byte	0x8
 2792 00cd 45       		.byte	0x45
 2793 00ce A7000000 		.4byte	0xa7
 2794 00d2 03       		.uleb128 0x3
 2795 00d3 60020000 		.4byte	.LASF17
 2796 00d7 08       		.byte	0x8
 2797 00d8 46       		.byte	0x46
 2798 00d9 B2000000 		.4byte	0xb2
 2799 00dd 03       		.uleb128 0x3
 2800 00de EA0A0000 		.4byte	.LASF18
 2801 00e2 08       		.byte	0x8
 2802 00e3 48       		.byte	0x48
 2803 00e4 91000000 		.4byte	0x91
 2804 00e8 03       		.uleb128 0x3
 2805 00e9 57020000 		.4byte	.LASF19
 2806 00ed 08       		.byte	0x8
 2807 00ee 49       		.byte	0x49
 2808 00ef 91000000 		.4byte	0x91
 2809 00f3 03       		.uleb128 0x3
 2810 00f4 010C0000 		.4byte	.LASF20
 2811 00f8 08       		.byte	0x8
 2812 00f9 4A       		.byte	0x4a
 2813 00fa 91000000 		.4byte	0x91
 2814 00fe 03       		.uleb128 0x3
 2815 00ff 62000000 		.4byte	.LASF21
 2816 0103 08       		.byte	0x8
 2817 0104 4C       		.byte	0x4c
 2818 0105 A7000000 		.4byte	0xa7
 2819 0109 03       		.uleb128 0x3
 2820 010a 500A0000 		.4byte	.LASF22
 2821 010e 08       		.byte	0x8
 2822 010f 4D       		.byte	0x4d
 2823 0110 9C000000 		.4byte	0x9c
 2824 0114 03       		.uleb128 0x3
 2825 0115 07030000 		.4byte	.LASF23
 2826 0119 08       		.byte	0x8
 2827 011a 4F       		.byte	0x4f
 2828 011b A7000000 		.4byte	0xa7
ARM GAS  C:\Users\Luis\AppData\Local\Temp\ccMHTq6a.s 			page 52


 2829 011f 03       		.uleb128 0x3
 2830 0120 86040000 		.4byte	.LASF24
 2831 0124 08       		.byte	0x8
 2832 0125 51       		.byte	0x51
 2833 0126 9C000000 		.4byte	0x9c
 2834 012a 03       		.uleb128 0x3
 2835 012b E7050000 		.4byte	.LASF25
 2836 012f 08       		.byte	0x8
 2837 0130 52       		.byte	0x52
 2838 0131 A7000000 		.4byte	0xa7
 2839 0135 03       		.uleb128 0x3
 2840 0136 3E000000 		.4byte	.LASF26
 2841 013a 09       		.byte	0x9
 2842 013b 33       		.byte	0x33
 2843 013c A7000000 		.4byte	0xa7
 2844 0140 03       		.uleb128 0x3
 2845 0141 1C090000 		.4byte	.LASF27
 2846 0145 09       		.byte	0x9
 2847 0146 3F       		.byte	0x3f
 2848 0147 4B010000 		.4byte	0x14b
 2849 014b 09       		.uleb128 0x9
 2850 014c 8D050000 		.4byte	.LASF50
 2851 0150 68       		.byte	0x68
 2852 0151 0A       		.byte	0xa
 2853 0152 C2       		.byte	0xc2
 2854 0153 5E020000 		.4byte	0x25e
 2855 0157 0A       		.uleb128 0xa
 2856 0158 1F020000 		.4byte	.LASF28
 2857 015c 0A       		.byte	0xa
 2858 015d C3       		.byte	0xc3
 2859 015e 69020000 		.4byte	0x269
 2860 0162 00       		.byte	0
 2861 0163 0A       		.uleb128 0xa
 2862 0164 37020000 		.4byte	.LASF29
 2863 0168 0A       		.byte	0xa
 2864 0169 C5       		.byte	0xc5
 2865 016a 69020000 		.4byte	0x269
 2866 016e 04       		.byte	0x4
 2867 016f 0A       		.uleb128 0xa
 2868 0170 00040000 		.4byte	.LASF30
 2869 0174 0A       		.byte	0xa
 2870 0175 C7       		.byte	0xc7
 2871 0176 FE000000 		.4byte	0xfe
 2872 017a 08       		.byte	0x8
 2873 017b 0A       		.uleb128 0xa
 2874 017c 53000000 		.4byte	.LASF31
 2875 0180 0A       		.byte	0xa
 2876 0181 C8       		.byte	0xc8
 2877 0182 26080000 		.4byte	0x826
 2878 0186 0C       		.byte	0xc
 2879 0187 0A       		.uleb128 0xa
 2880 0188 0E020000 		.4byte	.LASF32
 2881 018c 0A       		.byte	0xa
 2882 018d CA       		.byte	0xca
 2883 018e 69020000 		.4byte	0x269
 2884 0192 10       		.byte	0x10
 2885 0193 0A       		.uleb128 0xa
ARM GAS  C:\Users\Luis\AppData\Local\Temp\ccMHTq6a.s 			page 53


 2886 0194 480A0000 		.4byte	.LASF33
 2887 0198 0A       		.byte	0xa
 2888 0199 CB       		.byte	0xcb
 2889 019a 69020000 		.4byte	0x269
 2890 019e 14       		.byte	0x14
 2891 019f 0A       		.uleb128 0xa
 2892 01a0 D00C0000 		.4byte	.LASF34
 2893 01a4 0A       		.byte	0xa
 2894 01a5 D2       		.byte	0xd2
 2895 01a6 86000000 		.4byte	0x86
 2896 01aa 18       		.byte	0x18
 2897 01ab 0A       		.uleb128 0xa
 2898 01ac 9D0C0000 		.4byte	.LASF35
 2899 01b0 0A       		.byte	0xa
 2900 01b1 D8       		.byte	0xd8
 2901 01b2 CA0A0000 		.4byte	0xaca
 2902 01b6 1C       		.byte	0x1c
 2903 01b7 0A       		.uleb128 0xa
 2904 01b8 030D0000 		.4byte	.LASF36
 2905 01bc 0A       		.byte	0xa
 2906 01bd DD       		.byte	0xdd
 2907 01be E8000000 		.4byte	0xe8
 2908 01c2 20       		.byte	0x20
 2909 01c3 0A       		.uleb128 0xa
 2910 01c4 2F070000 		.4byte	.LASF37
 2911 01c8 0A       		.byte	0xa
 2912 01c9 E1       		.byte	0xe1
 2913 01ca DD000000 		.4byte	0xdd
 2914 01ce 21       		.byte	0x21
 2915 01cf 0A       		.uleb128 0xa
 2916 01d0 8F070000 		.4byte	.LASF38
 2917 01d4 0A       		.byte	0xa
 2918 01d5 E6       		.byte	0xe6
 2919 01d6 F3000000 		.4byte	0xf3
 2920 01da 22       		.byte	0x22
 2921 01db 0B       		.uleb128 0xb
 2922 01dc 705F7500 		.ascii	"p_u\000"
 2923 01e0 0A       		.byte	0xa
 2924 01e1 3101     		.2byte	0x131
 2925 01e3 050A0000 		.4byte	0xa05
 2926 01e7 24       		.byte	0x24
 2927 01e8 0C       		.uleb128 0xc
 2928 01e9 1B070000 		.4byte	.LASF39
 2929 01ed 0A       		.byte	0xa
 2930 01ee 3601     		.2byte	0x136
 2931 01f0 6F020000 		.4byte	0x26f
 2932 01f4 28       		.byte	0x28
 2933 01f5 0C       		.uleb128 0xc
 2934 01f6 6F000000 		.4byte	.LASF40
 2935 01fa 0A       		.byte	0xa
 2936 01fb 3C01     		.2byte	0x13c
 2937 01fd 93020000 		.4byte	0x293
 2938 0201 2C       		.byte	0x2c
 2939 0202 0C       		.uleb128 0xc
 2940 0203 FD0C0000 		.4byte	.LASF41
 2941 0207 0A       		.byte	0xa
 2942 0208 4001     		.2byte	0x140
ARM GAS  C:\Users\Luis\AppData\Local\Temp\ccMHTq6a.s 			page 54


 2943 020a 09010000 		.4byte	0x109
 2944 020e 34       		.byte	0x34
 2945 020f 0C       		.uleb128 0xc
 2946 0210 D6040000 		.4byte	.LASF42
 2947 0214 0A       		.byte	0xa
 2948 0215 4601     		.2byte	0x146
 2949 0217 14010000 		.4byte	0x114
 2950 021b 38       		.byte	0x38
 2951 021c 0C       		.uleb128 0xc
 2952 021d 79020000 		.4byte	.LASF43
 2953 0221 0A       		.byte	0xa
 2954 0222 4D01     		.2byte	0x14d
 2955 0224 C40A0000 		.4byte	0xac4
 2956 0228 3C       		.byte	0x3c
 2957 0229 0C       		.uleb128 0xc
 2958 022a 19050000 		.4byte	.LASF44
 2959 022e 0A       		.byte	0xa
 2960 022f 5101     		.2byte	0x151
 2961 0231 FE000000 		.4byte	0xfe
 2962 0235 40       		.byte	0x40
 2963 0236 0C       		.uleb128 0xc
 2964 0237 7D070000 		.4byte	.LASF45
 2965 023b 0A       		.byte	0xa
 2966 023c 5801     		.2byte	0x158
 2967 023e 76000000 		.4byte	0x76
 2968 0242 44       		.byte	0x44
 2969 0243 0C       		.uleb128 0xc
 2970 0244 05000000 		.4byte	.LASF46
 2971 0248 0A       		.byte	0xa
 2972 0249 5E01     		.2byte	0x15e
 2973 024b B6090000 		.4byte	0x9b6
 2974 024f 48       		.byte	0x48
 2975 0250 0C       		.uleb128 0xc
 2976 0251 20010000 		.4byte	.LASF47
 2977 0255 0A       		.byte	0xa
 2978 0256 6201     		.2byte	0x162
 2979 0258 76000000 		.4byte	0x76
 2980 025c 60       		.byte	0x60
 2981 025d 00       		.byte	0
 2982 025e 03       		.uleb128 0x3
 2983 025f 2F090000 		.4byte	.LASF48
 2984 0263 09       		.byte	0x9
 2985 0264 44       		.byte	0x44
 2986 0265 69020000 		.4byte	0x269
 2987 0269 06       		.uleb128 0x6
 2988 026a 04       		.byte	0x4
 2989 026b 40010000 		.4byte	0x140
 2990 026f 03       		.uleb128 0x3
 2991 0270 090C0000 		.4byte	.LASF49
 2992 0274 09       		.byte	0x9
 2993 0275 49       		.byte	0x49
 2994 0276 7A020000 		.4byte	0x27a
 2995 027a 09       		.uleb128 0x9
 2996 027b 08060000 		.4byte	.LASF51
 2997 027f 04       		.byte	0x4
 2998 0280 0A       		.byte	0xa
 2999 0281 B0       		.byte	0xb0
ARM GAS  C:\Users\Luis\AppData\Local\Temp\ccMHTq6a.s 			page 55


 3000 0282 93020000 		.4byte	0x293
 3001 0286 0A       		.uleb128 0xa
 3002 0287 1F020000 		.4byte	.LASF28
 3003 028b 0A       		.byte	0xa
 3004 028c B1       		.byte	0xb1
 3005 028d 69020000 		.4byte	0x269
 3006 0291 00       		.byte	0
 3007 0292 00       		.byte	0
 3008 0293 03       		.uleb128 0x3
 3009 0294 69020000 		.4byte	.LASF52
 3010 0298 09       		.byte	0x9
 3011 0299 50       		.byte	0x50
 3012 029a 9E020000 		.4byte	0x29e
 3013 029e 09       		.uleb128 0x9
 3014 029f 560A0000 		.4byte	.LASF53
 3015 02a3 08       		.byte	0x8
 3016 02a4 0A       		.byte	0xa
 3017 02a5 B7       		.byte	0xb7
 3018 02a6 C3020000 		.4byte	0x2c3
 3019 02aa 0A       		.uleb128 0xa
 3020 02ab 1F020000 		.4byte	.LASF28
 3021 02af 0A       		.byte	0xa
 3022 02b0 B8       		.byte	0xb8
 3023 02b1 69020000 		.4byte	0x269
 3024 02b5 00       		.byte	0
 3025 02b6 0A       		.uleb128 0xa
 3026 02b7 37020000 		.4byte	.LASF29
 3027 02bb 0A       		.byte	0xa
 3028 02bc B9       		.byte	0xb9
 3029 02bd 69020000 		.4byte	0x269
 3030 02c1 04       		.byte	0x4
 3031 02c2 00       		.byte	0
 3032 02c3 03       		.uleb128 0x3
 3033 02c4 D0050000 		.4byte	.LASF54
 3034 02c8 09       		.byte	0x9
 3035 02c9 57       		.byte	0x57
 3036 02ca CE020000 		.4byte	0x2ce
 3037 02ce 0D       		.uleb128 0xd
 3038 02cf E8040000 		.4byte	.LASF55
 3039 02d3 1C       		.byte	0x1c
 3040 02d4 0A       		.byte	0xa
 3041 02d5 9001     		.2byte	0x190
 3042 02d7 2A030000 		.4byte	0x32a
 3043 02db 0C       		.uleb128 0xc
 3044 02dc C10A0000 		.4byte	.LASF56
 3045 02e0 0A       		.byte	0xa
 3046 02e1 9101     		.2byte	0x191
 3047 02e3 93020000 		.4byte	0x293
 3048 02e7 00       		.byte	0
 3049 02e8 0C       		.uleb128 0xc
 3050 02e9 C70B0000 		.4byte	.LASF57
 3051 02ed 0A       		.byte	0xa
 3052 02ee 9201     		.2byte	0x192
 3053 02f0 FE000000 		.4byte	0xfe
 3054 02f4 08       		.byte	0x8
 3055 02f5 0C       		.uleb128 0xc
 3056 02f6 8B000000 		.4byte	.LASF58
ARM GAS  C:\Users\Luis\AppData\Local\Temp\ccMHTq6a.s 			page 56


 3057 02fa 0A       		.byte	0xa
 3058 02fb 9401     		.2byte	0x194
 3059 02fd 26080000 		.4byte	0x826
 3060 0301 0C       		.byte	0xc
 3061 0302 0C       		.uleb128 0xc
 3062 0303 A7030000 		.4byte	.LASF59
 3063 0307 0A       		.byte	0xa
 3064 0308 9701     		.2byte	0x197
 3065 030a 69020000 		.4byte	0x269
 3066 030e 10       		.byte	0x10
 3067 030f 0C       		.uleb128 0xc
 3068 0310 020B0000 		.4byte	.LASF60
 3069 0314 0A       		.byte	0xa
 3070 0315 9801     		.2byte	0x198
 3071 0317 69020000 		.4byte	0x269
 3072 031b 14       		.byte	0x14
 3073 031c 0C       		.uleb128 0xc
 3074 031d 880A0000 		.4byte	.LASF61
 3075 0321 0A       		.byte	0xa
 3076 0322 9B01     		.2byte	0x19b
 3077 0324 69020000 		.4byte	0x269
 3078 0328 18       		.byte	0x18
 3079 0329 00       		.byte	0
 3080 032a 03       		.uleb128 0x3
 3081 032b AE000000 		.4byte	.LASF62
 3082 032f 09       		.byte	0x9
 3083 0330 5C       		.byte	0x5c
 3084 0331 35030000 		.4byte	0x335
 3085 0335 06       		.uleb128 0x6
 3086 0336 04       		.byte	0x4
 3087 0337 3B030000 		.4byte	0x33b
 3088 033b 0E       		.uleb128 0xe
 3089 033c 46030000 		.4byte	0x346
 3090 0340 0F       		.uleb128 0xf
 3091 0341 76000000 		.4byte	0x76
 3092 0345 00       		.byte	0
 3093 0346 03       		.uleb128 0x3
 3094 0347 C0050000 		.4byte	.LASF63
 3095 034b 09       		.byte	0x9
 3096 034c 61       		.byte	0x61
 3097 034d 51030000 		.4byte	0x351
 3098 0351 0D       		.uleb128 0xd
 3099 0352 F3090000 		.4byte	.LASF64
 3100 0356 14       		.byte	0x14
 3101 0357 0A       		.byte	0xa
 3102 0358 6B01     		.2byte	0x16b
 3103 035a A0030000 		.4byte	0x3a0
 3104 035e 0C       		.uleb128 0xc
 3105 035f CA060000 		.4byte	.LASF65
 3106 0363 0A       		.byte	0xa
 3107 0364 6C01     		.2byte	0x16c
 3108 0366 D00A0000 		.4byte	0xad0
 3109 036a 00       		.byte	0
 3110 036b 0C       		.uleb128 0xc
 3111 036c D2060000 		.4byte	.LASF66
 3112 0370 0A       		.byte	0xa
 3113 0371 6D01     		.2byte	0x16d
ARM GAS  C:\Users\Luis\AppData\Local\Temp\ccMHTq6a.s 			page 57


 3114 0373 D00A0000 		.4byte	0xad0
 3115 0377 04       		.byte	0x4
 3116 0378 0C       		.uleb128 0xc
 3117 0379 C9090000 		.4byte	.LASF67
 3118 037d 0A       		.byte	0xa
 3119 037e 6E01     		.2byte	0x16e
 3120 0380 35010000 		.4byte	0x135
 3121 0384 08       		.byte	0x8
 3122 0385 0C       		.uleb128 0xc
 3123 0386 AF040000 		.4byte	.LASF68
 3124 038a 0A       		.byte	0xa
 3125 038b 6F01     		.2byte	0x16f
 3126 038d 2A030000 		.4byte	0x32a
 3127 0391 0C       		.byte	0xc
 3128 0392 0C       		.uleb128 0xc
 3129 0393 BD010000 		.4byte	.LASF69
 3130 0397 0A       		.byte	0xa
 3131 0398 7101     		.2byte	0x171
 3132 039a 76000000 		.4byte	0x76
 3133 039e 10       		.byte	0x10
 3134 039f 00       		.byte	0
 3135 03a0 03       		.uleb128 0x3
 3136 03a1 97050000 		.4byte	.LASF70
 3137 03a5 09       		.byte	0x9
 3138 03a6 66       		.byte	0x66
 3139 03a7 AB030000 		.4byte	0x3ab
 3140 03ab 0D       		.uleb128 0xd
 3141 03ac B7000000 		.4byte	.LASF71
 3142 03b0 10       		.byte	0x10
 3143 03b1 0A       		.byte	0xa
 3144 03b2 7B01     		.2byte	0x17b
 3145 03b4 ED030000 		.4byte	0x3ed
 3146 03b8 0C       		.uleb128 0xc
 3147 03b9 CA060000 		.4byte	.LASF65
 3148 03bd 0A       		.byte	0xa
 3149 03be 7C01     		.2byte	0x17c
 3150 03c0 D00A0000 		.4byte	0xad0
 3151 03c4 00       		.byte	0
 3152 03c5 0C       		.uleb128 0xc
 3153 03c6 D2060000 		.4byte	.LASF66
 3154 03ca 0A       		.byte	0xa
 3155 03cb 7E01     		.2byte	0x17e
 3156 03cd D00A0000 		.4byte	0xad0
 3157 03d1 04       		.byte	0x4
 3158 03d2 0C       		.uleb128 0xc
 3159 03d3 C9090000 		.4byte	.LASF67
 3160 03d7 0A       		.byte	0xa
 3161 03d8 8001     		.2byte	0x180
 3162 03da 35010000 		.4byte	0x135
 3163 03de 08       		.byte	0x8
 3164 03df 0C       		.uleb128 0xc
 3165 03e0 600C0000 		.4byte	.LASF72
 3166 03e4 0A       		.byte	0xa
 3167 03e5 8801     		.2byte	0x188
 3168 03e7 35010000 		.4byte	0x135
 3169 03eb 0C       		.byte	0xc
 3170 03ec 00       		.byte	0
ARM GAS  C:\Users\Luis\AppData\Local\Temp\ccMHTq6a.s 			page 58


 3171 03ed 03       		.uleb128 0x3
 3172 03ee BA030000 		.4byte	.LASF73
 3173 03f2 09       		.byte	0x9
 3174 03f3 6B       		.byte	0x6b
 3175 03f4 F8030000 		.4byte	0x3f8
 3176 03f8 10       		.uleb128 0x10
 3177 03f9 CE0B0000 		.4byte	.LASF74
 3178 03fd 1404     		.2byte	0x414
 3179 03ff 0A       		.byte	0xa
 3180 0400 A201     		.2byte	0x1a2
 3181 0402 3B040000 		.4byte	0x43b
 3182 0406 0C       		.uleb128 0xc
 3183 0407 90030000 		.4byte	.LASF75
 3184 040b 0A       		.byte	0xa
 3185 040c AA01     		.2byte	0x1aa
 3186 040e D60A0000 		.4byte	0xad6
 3187 0412 00       		.byte	0
 3188 0413 0C       		.uleb128 0xc
 3189 0414 9B010000 		.4byte	.LASF76
 3190 0418 0A       		.byte	0xa
 3191 0419 AF01     		.2byte	0x1af
 3192 041b 1F010000 		.4byte	0x11f
 3193 041f 04       		.byte	0x4
 3194 0420 0C       		.uleb128 0xc
 3195 0421 17010000 		.4byte	.LASF77
 3196 0425 0A       		.byte	0xa
 3197 0426 B301     		.2byte	0x1b3
 3198 0428 1F010000 		.4byte	0x11f
 3199 042c 08       		.byte	0x8
 3200 042d 0C       		.uleb128 0xc
 3201 042e 9A030000 		.4byte	.LASF78
 3202 0432 0A       		.byte	0xa
 3203 0433 B901     		.2byte	0x1b9
 3204 0435 48090000 		.4byte	0x948
 3205 0439 0C       		.byte	0xc
 3206 043a 00       		.byte	0
 3207 043b 03       		.uleb128 0x3
 3208 043c 850C0000 		.4byte	.LASF79
 3209 0440 09       		.byte	0x9
 3210 0441 70       		.byte	0x70
 3211 0442 46040000 		.4byte	0x446
 3212 0446 10       		.uleb128 0x10
 3213 0447 1F0C0000 		.4byte	.LASF80
 3214 044b E805     		.2byte	0x5e8
 3215 044d 0A       		.byte	0xa
 3216 044e C201     		.2byte	0x1c2
 3217 0450 B3040000 		.4byte	0x4b3
 3218 0454 0C       		.uleb128 0xc
 3219 0455 E40A0000 		.4byte	.LASF81
 3220 0459 0A       		.byte	0xa
 3221 045a C601     		.2byte	0x1c6
 3222 045c C3020000 		.4byte	0x2c3
 3223 0460 00       		.byte	0
 3224 0461 0C       		.uleb128 0xc
 3225 0462 E90B0000 		.4byte	.LASF82
 3226 0466 0A       		.byte	0xa
 3227 0467 CA01     		.2byte	0x1ca
ARM GAS  C:\Users\Luis\AppData\Local\Temp\ccMHTq6a.s 			page 59


 3228 0469 A0030000 		.4byte	0x3a0
 3229 046d 1C       		.byte	0x1c
 3230 046e 0B       		.uleb128 0xb
 3231 046f 64626700 		.ascii	"dbg\000"
 3232 0473 0A       		.byte	0xa
 3233 0474 CE01     		.2byte	0x1ce
 3234 0476 ED030000 		.4byte	0x3ed
 3235 047a 2C       		.byte	0x2c
 3236 047b 11       		.uleb128 0x11
 3237 047c 990A0000 		.4byte	.LASF83
 3238 0480 0A       		.byte	0xa
 3239 0481 D201     		.2byte	0x1d2
 3240 0483 40010000 		.4byte	0x140
 3241 0487 4004     		.2byte	0x440
 3242 0489 12       		.uleb128 0x12
 3243 048a 746D00   		.ascii	"tm\000"
 3244 048d 0A       		.byte	0xa
 3245 048e D701     		.2byte	0x1d7
 3246 0490 68090000 		.4byte	0x968
 3247 0494 A804     		.2byte	0x4a8
 3248 0496 11       		.uleb128 0x11
 3249 0497 120A0000 		.4byte	.LASF84
 3250 049b 0A       		.byte	0xa
 3251 049c DD01     		.2byte	0x1dd
 3252 049e FA090000 		.4byte	0x9fa
 3253 04a2 B004     		.2byte	0x4b0
 3254 04a4 11       		.uleb128 0x11
 3255 04a5 51070000 		.4byte	.LASF85
 3256 04a9 0A       		.byte	0xa
 3257 04aa E301     		.2byte	0x1e3
 3258 04ac DB0A0000 		.4byte	0xadb
 3259 04b0 E804     		.2byte	0x4e8
 3260 04b2 00       		.byte	0
 3261 04b3 07       		.uleb128 0x7
 3262 04b4 C2000000 		.4byte	0xc2
 3263 04b8 13       		.uleb128 0x13
 3264 04b9 A7000000 		.4byte	0xa7
 3265 04bd C8040000 		.4byte	0x4c8
 3266 04c1 14       		.uleb128 0x14
 3267 04c2 6F000000 		.4byte	0x6f
 3268 04c6 01       		.byte	0x1
 3269 04c7 00       		.byte	0
 3270 04c8 13       		.uleb128 0x13
 3271 04c9 A7000000 		.4byte	0xa7
 3272 04cd D8040000 		.4byte	0x4d8
 3273 04d1 14       		.uleb128 0x14
 3274 04d2 6F000000 		.4byte	0x6f
 3275 04d6 03       		.byte	0x3
 3276 04d7 00       		.byte	0
 3277 04d8 13       		.uleb128 0x13
 3278 04d9 A7000000 		.4byte	0xa7
 3279 04dd E8040000 		.4byte	0x4e8
 3280 04e1 14       		.uleb128 0x14
 3281 04e2 6F000000 		.4byte	0x6f
 3282 04e6 00       		.byte	0
 3283 04e7 00       		.byte	0
 3284 04e8 15       		.uleb128 0x15
ARM GAS  C:\Users\Luis\AppData\Local\Temp\ccMHTq6a.s 			page 60


 3285 04e9 18       		.byte	0x18
 3286 04ea 0B       		.byte	0xb
 3287 04eb 6B01     		.2byte	0x16b
 3288 04ed 3F050000 		.4byte	0x53f
 3289 04f1 0B       		.uleb128 0xb
 3290 04f2 435200   		.ascii	"CR\000"
 3291 04f5 0B       		.byte	0xb
 3292 04f6 6D01     		.2byte	0x16d
 3293 04f8 C2000000 		.4byte	0xc2
 3294 04fc 00       		.byte	0
 3295 04fd 0C       		.uleb128 0xc
 3296 04fe BE0C0000 		.4byte	.LASF86
 3297 0502 0B       		.byte	0xb
 3298 0503 6E01     		.2byte	0x16e
 3299 0505 C2000000 		.4byte	0xc2
 3300 0509 04       		.byte	0x4
 3301 050a 0B       		.uleb128 0xb
 3302 050b 50415200 		.ascii	"PAR\000"
 3303 050f 0B       		.byte	0xb
 3304 0510 6F01     		.2byte	0x16f
 3305 0512 C2000000 		.4byte	0xc2
 3306 0516 08       		.byte	0x8
 3307 0517 0C       		.uleb128 0xc
 3308 0518 2B0B0000 		.4byte	.LASF87
 3309 051c 0B       		.byte	0xb
 3310 051d 7001     		.2byte	0x170
 3311 051f C2000000 		.4byte	0xc2
 3312 0523 0C       		.byte	0xc
 3313 0524 0C       		.uleb128 0xc
 3314 0525 00000000 		.4byte	.LASF88
 3315 0529 0B       		.byte	0xb
 3316 052a 7101     		.2byte	0x171
 3317 052c C2000000 		.4byte	0xc2
 3318 0530 10       		.byte	0x10
 3319 0531 0B       		.uleb128 0xb
 3320 0532 46435200 		.ascii	"FCR\000"
 3321 0536 0B       		.byte	0xb
 3322 0537 7201     		.2byte	0x172
 3323 0539 C2000000 		.4byte	0xc2
 3324 053d 14       		.byte	0x14
 3325 053e 00       		.byte	0
 3326 053f 16       		.uleb128 0x16
 3327 0540 C7080000 		.4byte	.LASF89
 3328 0544 0B       		.byte	0xb
 3329 0545 7301     		.2byte	0x173
 3330 0547 E8040000 		.4byte	0x4e8
 3331 054b 15       		.uleb128 0x15
 3332 054c 88       		.byte	0x88
 3333 054d 0B       		.byte	0xb
 3334 054e 6702     		.2byte	0x267
 3335 0550 DA060000 		.4byte	0x6da
 3336 0554 0B       		.uleb128 0xb
 3337 0555 435200   		.ascii	"CR\000"
 3338 0558 0B       		.byte	0xb
 3339 0559 6902     		.2byte	0x269
 3340 055b C2000000 		.4byte	0xc2
 3341 055f 00       		.byte	0
ARM GAS  C:\Users\Luis\AppData\Local\Temp\ccMHTq6a.s 			page 61


 3342 0560 0C       		.uleb128 0xc
 3343 0561 49060000 		.4byte	.LASF90
 3344 0565 0B       		.byte	0xb
 3345 0566 6A02     		.2byte	0x26a
 3346 0568 C2000000 		.4byte	0xc2
 3347 056c 04       		.byte	0x4
 3348 056d 0C       		.uleb128 0xc
 3349 056e FF040000 		.4byte	.LASF91
 3350 0572 0B       		.byte	0xb
 3351 0573 6B02     		.2byte	0x26b
 3352 0575 C2000000 		.4byte	0xc2
 3353 0579 08       		.byte	0x8
 3354 057a 0B       		.uleb128 0xb
 3355 057b 43495200 		.ascii	"CIR\000"
 3356 057f 0B       		.byte	0xb
 3357 0580 6C02     		.2byte	0x26c
 3358 0582 C2000000 		.4byte	0xc2
 3359 0586 0C       		.byte	0xc
 3360 0587 0C       		.uleb128 0xc
 3361 0588 A80C0000 		.4byte	.LASF92
 3362 058c 0B       		.byte	0xb
 3363 058d 6D02     		.2byte	0x26d
 3364 058f C2000000 		.4byte	0xc2
 3365 0593 10       		.byte	0x10
 3366 0594 0C       		.uleb128 0xc
 3367 0595 1B0B0000 		.4byte	.LASF93
 3368 0599 0B       		.byte	0xb
 3369 059a 6E02     		.2byte	0x26e
 3370 059c C2000000 		.4byte	0xc2
 3371 05a0 14       		.byte	0x14
 3372 05a1 0C       		.uleb128 0xc
 3373 05a2 13090000 		.4byte	.LASF94
 3374 05a6 0B       		.byte	0xb
 3375 05a7 6F02     		.2byte	0x26f
 3376 05a9 C2000000 		.4byte	0xc2
 3377 05ad 18       		.byte	0x18
 3378 05ae 0C       		.uleb128 0xc
 3379 05af 46030000 		.4byte	.LASF95
 3380 05b3 0B       		.byte	0xb
 3381 05b4 7002     		.2byte	0x270
 3382 05b6 A7000000 		.4byte	0xa7
 3383 05ba 1C       		.byte	0x1c
 3384 05bb 0C       		.uleb128 0xc
 3385 05bc EA090000 		.4byte	.LASF96
 3386 05c0 0B       		.byte	0xb
 3387 05c1 7102     		.2byte	0x271
 3388 05c3 C2000000 		.4byte	0xc2
 3389 05c7 20       		.byte	0x20
 3390 05c8 0C       		.uleb128 0xc
 3391 05c9 DF060000 		.4byte	.LASF97
 3392 05cd 0B       		.byte	0xb
 3393 05ce 7202     		.2byte	0x272
 3394 05d0 C2000000 		.4byte	0xc2
 3395 05d4 24       		.byte	0x24
 3396 05d5 0C       		.uleb128 0xc
 3397 05d6 50030000 		.4byte	.LASF98
 3398 05da 0B       		.byte	0xb
ARM GAS  C:\Users\Luis\AppData\Local\Temp\ccMHTq6a.s 			page 62


 3399 05db 7302     		.2byte	0x273
 3400 05dd B8040000 		.4byte	0x4b8
 3401 05e1 28       		.byte	0x28
 3402 05e2 0C       		.uleb128 0xc
 3403 05e3 F20A0000 		.4byte	.LASF99
 3404 05e7 0B       		.byte	0xb
 3405 05e8 7402     		.2byte	0x274
 3406 05ea C2000000 		.4byte	0xc2
 3407 05ee 30       		.byte	0x30
 3408 05ef 0C       		.uleb128 0xc
 3409 05f0 16040000 		.4byte	.LASF100
 3410 05f4 0B       		.byte	0xb
 3411 05f5 7502     		.2byte	0x275
 3412 05f7 C2000000 		.4byte	0xc2
 3413 05fb 34       		.byte	0x34
 3414 05fc 0C       		.uleb128 0xc
 3415 05fd FA0A0000 		.4byte	.LASF101
 3416 0601 0B       		.byte	0xb
 3417 0602 7602     		.2byte	0x276
 3418 0604 C2000000 		.4byte	0xc2
 3419 0608 38       		.byte	0x38
 3420 0609 0C       		.uleb128 0xc
 3421 060a E1030000 		.4byte	.LASF102
 3422 060e 0B       		.byte	0xb
 3423 060f 7702     		.2byte	0x277
 3424 0611 A7000000 		.4byte	0xa7
 3425 0615 3C       		.byte	0x3c
 3426 0616 0C       		.uleb128 0xc
 3427 0617 040A0000 		.4byte	.LASF103
 3428 061b 0B       		.byte	0xb
 3429 061c 7802     		.2byte	0x278
 3430 061e C2000000 		.4byte	0xc2
 3431 0622 40       		.byte	0x40
 3432 0623 0C       		.uleb128 0xc
 3433 0624 92020000 		.4byte	.LASF104
 3434 0628 0B       		.byte	0xb
 3435 0629 7902     		.2byte	0x279
 3436 062b C2000000 		.4byte	0xc2
 3437 062f 44       		.byte	0x44
 3438 0630 0C       		.uleb128 0xc
 3439 0631 68030000 		.4byte	.LASF105
 3440 0635 0B       		.byte	0xb
 3441 0636 7A02     		.2byte	0x27a
 3442 0638 B8040000 		.4byte	0x4b8
 3443 063c 48       		.byte	0x48
 3444 063d 0C       		.uleb128 0xc
 3445 063e 9A020000 		.4byte	.LASF106
 3446 0642 0B       		.byte	0xb
 3447 0643 7B02     		.2byte	0x27b
 3448 0645 C2000000 		.4byte	0xc2
 3449 0649 50       		.byte	0x50
 3450 064a 0C       		.uleb128 0xc
 3451 064b E0010000 		.4byte	.LASF107
 3452 064f 0B       		.byte	0xb
 3453 0650 7C02     		.2byte	0x27c
 3454 0652 C2000000 		.4byte	0xc2
 3455 0656 54       		.byte	0x54
ARM GAS  C:\Users\Luis\AppData\Local\Temp\ccMHTq6a.s 			page 63


 3456 0657 0C       		.uleb128 0xc
 3457 0658 A40A0000 		.4byte	.LASF108
 3458 065c 0B       		.byte	0xb
 3459 065d 7D02     		.2byte	0x27d
 3460 065f C2000000 		.4byte	0xc2
 3461 0663 58       		.byte	0x58
 3462 0664 0C       		.uleb128 0xc
 3463 0665 72030000 		.4byte	.LASF109
 3464 0669 0B       		.byte	0xb
 3465 066a 7E02     		.2byte	0x27e
 3466 066c A7000000 		.4byte	0xa7
 3467 0670 5C       		.byte	0x5c
 3468 0671 0C       		.uleb128 0xc
 3469 0672 B3080000 		.4byte	.LASF110
 3470 0676 0B       		.byte	0xb
 3471 0677 7F02     		.2byte	0x27f
 3472 0679 C2000000 		.4byte	0xc2
 3473 067d 60       		.byte	0x60
 3474 067e 0C       		.uleb128 0xc
 3475 067f 11070000 		.4byte	.LASF111
 3476 0683 0B       		.byte	0xb
 3477 0684 8002     		.2byte	0x280
 3478 0686 C2000000 		.4byte	0xc2
 3479 068a 64       		.byte	0x64
 3480 068b 0C       		.uleb128 0xc
 3481 068c 7C030000 		.4byte	.LASF112
 3482 0690 0B       		.byte	0xb
 3483 0691 8102     		.2byte	0x281
 3484 0693 B8040000 		.4byte	0x4b8
 3485 0697 68       		.byte	0x68
 3486 0698 0C       		.uleb128 0xc
 3487 0699 81040000 		.4byte	.LASF113
 3488 069d 0B       		.byte	0xb
 3489 069e 8202     		.2byte	0x282
 3490 06a0 C2000000 		.4byte	0xc2
 3491 06a4 70       		.byte	0x70
 3492 06a5 0B       		.uleb128 0xb
 3493 06a6 43535200 		.ascii	"CSR\000"
 3494 06aa 0B       		.byte	0xb
 3495 06ab 8302     		.2byte	0x283
 3496 06ad C2000000 		.4byte	0xc2
 3497 06b1 74       		.byte	0x74
 3498 06b2 0C       		.uleb128 0xc
 3499 06b3 86030000 		.4byte	.LASF114
 3500 06b7 0B       		.byte	0xb
 3501 06b8 8402     		.2byte	0x284
 3502 06ba B8040000 		.4byte	0x4b8
 3503 06be 78       		.byte	0x78
 3504 06bf 0C       		.uleb128 0xc
 3505 06c0 AD060000 		.4byte	.LASF115
 3506 06c4 0B       		.byte	0xb
 3507 06c5 8502     		.2byte	0x285
 3508 06c7 C2000000 		.4byte	0xc2
 3509 06cb 80       		.byte	0x80
 3510 06cc 0C       		.uleb128 0xc
 3511 06cd 48000000 		.4byte	.LASF116
 3512 06d1 0B       		.byte	0xb
ARM GAS  C:\Users\Luis\AppData\Local\Temp\ccMHTq6a.s 			page 64


 3513 06d2 8602     		.2byte	0x286
 3514 06d4 C2000000 		.4byte	0xc2
 3515 06d8 84       		.byte	0x84
 3516 06d9 00       		.byte	0
 3517 06da 16       		.uleb128 0x16
 3518 06db 570B0000 		.4byte	.LASF117
 3519 06df 0B       		.byte	0xb
 3520 06e0 8802     		.2byte	0x288
 3521 06e2 4B050000 		.4byte	0x54b
 3522 06e6 15       		.uleb128 0x15
 3523 06e7 84       		.byte	0x84
 3524 06e8 0B       		.byte	0xb
 3525 06e9 BF02     		.2byte	0x2bf
 3526 06eb F4070000 		.4byte	0x7f4
 3527 06ef 0C       		.uleb128 0xc
 3528 06f0 530C0000 		.4byte	.LASF118
 3529 06f4 0B       		.byte	0xb
 3530 06f5 C102     		.2byte	0x2c1
 3531 06f7 C2000000 		.4byte	0xc2
 3532 06fb 00       		.byte	0
 3533 06fc 0C       		.uleb128 0xc
 3534 06fd 7F0C0000 		.4byte	.LASF119
 3535 0701 0B       		.byte	0xb
 3536 0702 C202     		.2byte	0x2c2
 3537 0704 C2000000 		.4byte	0xc2
 3538 0708 04       		.byte	0x4
 3539 0709 0B       		.uleb128 0xb
 3540 070a 41524700 		.ascii	"ARG\000"
 3541 070e 0B       		.byte	0xb
 3542 070f C302     		.2byte	0x2c3
 3543 0711 C2000000 		.4byte	0xc2
 3544 0715 08       		.byte	0x8
 3545 0716 0B       		.uleb128 0xb
 3546 0717 434D4400 		.ascii	"CMD\000"
 3547 071b 0B       		.byte	0xb
 3548 071c C402     		.2byte	0x2c4
 3549 071e C2000000 		.4byte	0xc2
 3550 0722 0C       		.byte	0xc
 3551 0723 0C       		.uleb128 0xc
 3552 0724 290A0000 		.4byte	.LASF120
 3553 0728 0B       		.byte	0xb
 3554 0729 C502     		.2byte	0x2c5
 3555 072b B3040000 		.4byte	0x4b3
 3556 072f 10       		.byte	0x10
 3557 0730 0C       		.uleb128 0xc
 3558 0731 33010000 		.4byte	.LASF121
 3559 0735 0B       		.byte	0xb
 3560 0736 C602     		.2byte	0x2c6
 3561 0738 B3040000 		.4byte	0x4b3
 3562 073c 14       		.byte	0x14
 3563 073d 0C       		.uleb128 0xc
 3564 073e 39010000 		.4byte	.LASF122
 3565 0742 0B       		.byte	0xb
 3566 0743 C702     		.2byte	0x2c7
 3567 0745 B3040000 		.4byte	0x4b3
 3568 0749 18       		.byte	0x18
 3569 074a 0C       		.uleb128 0xc
ARM GAS  C:\Users\Luis\AppData\Local\Temp\ccMHTq6a.s 			page 65


 3570 074b 3F010000 		.4byte	.LASF123
 3571 074f 0B       		.byte	0xb
 3572 0750 C802     		.2byte	0x2c8
 3573 0752 B3040000 		.4byte	0x4b3
 3574 0756 1C       		.byte	0x1c
 3575 0757 0C       		.uleb128 0xc
 3576 0758 45010000 		.4byte	.LASF124
 3577 075c 0B       		.byte	0xb
 3578 075d C902     		.2byte	0x2c9
 3579 075f B3040000 		.4byte	0x4b3
 3580 0763 20       		.byte	0x20
 3581 0764 0C       		.uleb128 0xc
 3582 0765 27000000 		.4byte	.LASF125
 3583 0769 0B       		.byte	0xb
 3584 076a CA02     		.2byte	0x2ca
 3585 076c C2000000 		.4byte	0xc2
 3586 0770 24       		.byte	0x24
 3587 0771 0C       		.uleb128 0xc
 3588 0772 6A000000 		.4byte	.LASF126
 3589 0776 0B       		.byte	0xb
 3590 0777 CB02     		.2byte	0x2cb
 3591 0779 C2000000 		.4byte	0xc2
 3592 077d 28       		.byte	0x28
 3593 077e 0C       		.uleb128 0xc
 3594 077f FE060000 		.4byte	.LASF127
 3595 0783 0B       		.byte	0xb
 3596 0784 CC02     		.2byte	0x2cc
 3597 0786 C2000000 		.4byte	0xc2
 3598 078a 2C       		.byte	0x2c
 3599 078b 0C       		.uleb128 0xc
 3600 078c 96070000 		.4byte	.LASF128
 3601 0790 0B       		.byte	0xb
 3602 0791 CD02     		.2byte	0x2cd
 3603 0793 B3040000 		.4byte	0x4b3
 3604 0797 30       		.byte	0x30
 3605 0798 0B       		.uleb128 0xb
 3606 0799 53544100 		.ascii	"STA\000"
 3607 079d 0B       		.byte	0xb
 3608 079e CE02     		.2byte	0x2ce
 3609 07a0 B3040000 		.4byte	0x4b3
 3610 07a4 34       		.byte	0x34
 3611 07a5 0B       		.uleb128 0xb
 3612 07a6 49435200 		.ascii	"ICR\000"
 3613 07aa 0B       		.byte	0xb
 3614 07ab CF02     		.2byte	0x2cf
 3615 07ad C2000000 		.4byte	0xc2
 3616 07b1 38       		.byte	0x38
 3617 07b2 0C       		.uleb128 0xc
 3618 07b3 630B0000 		.4byte	.LASF129
 3619 07b7 0B       		.byte	0xb
 3620 07b8 D002     		.2byte	0x2d0
 3621 07ba C2000000 		.4byte	0xc2
 3622 07be 3C       		.byte	0x3c
 3623 07bf 0C       		.uleb128 0xc
 3624 07c0 46030000 		.4byte	.LASF95
 3625 07c4 0B       		.byte	0xb
 3626 07c5 D102     		.2byte	0x2d1
ARM GAS  C:\Users\Luis\AppData\Local\Temp\ccMHTq6a.s 			page 66


 3627 07c7 B8040000 		.4byte	0x4b8
 3628 07cb 40       		.byte	0x40
 3629 07cc 0C       		.uleb128 0xc
 3630 07cd 64010000 		.4byte	.LASF130
 3631 07d1 0B       		.byte	0xb
 3632 07d2 D202     		.2byte	0x2d2
 3633 07d4 B3040000 		.4byte	0x4b3
 3634 07d8 48       		.byte	0x48
 3635 07d9 0C       		.uleb128 0xc
 3636 07da 50030000 		.4byte	.LASF98
 3637 07de 0B       		.byte	0xb
 3638 07df D302     		.2byte	0x2d3
 3639 07e1 F4070000 		.4byte	0x7f4
 3640 07e5 4C       		.byte	0x4c
 3641 07e6 0C       		.uleb128 0xc
 3642 07e7 03060000 		.4byte	.LASF131
 3643 07eb 0B       		.byte	0xb
 3644 07ec D402     		.2byte	0x2d4
 3645 07ee C2000000 		.4byte	0xc2
 3646 07f2 80       		.byte	0x80
 3647 07f3 00       		.byte	0
 3648 07f4 13       		.uleb128 0x13
 3649 07f5 A7000000 		.4byte	0xa7
 3650 07f9 04080000 		.4byte	0x804
 3651 07fd 14       		.uleb128 0x14
 3652 07fe 6F000000 		.4byte	0x6f
 3653 0802 0C       		.byte	0xc
 3654 0803 00       		.byte	0
 3655 0804 16       		.uleb128 0x16
 3656 0805 A2040000 		.4byte	.LASF132
 3657 0809 0B       		.byte	0xb
 3658 080a D502     		.2byte	0x2d5
 3659 080c E6060000 		.4byte	0x6e6
 3660 0810 03       		.uleb128 0x3
 3661 0811 83020000 		.4byte	.LASF133
 3662 0815 0C       		.byte	0xc
 3663 0816 65       		.byte	0x65
 3664 0817 76000000 		.4byte	0x76
 3665 081b 03       		.uleb128 0x3
 3666 081c 3F040000 		.4byte	.LASF134
 3667 0820 0C       		.byte	0xc
 3668 0821 6D       		.byte	0x6d
 3669 0822 B2000000 		.4byte	0xb2
 3670 0826 09       		.uleb128 0x9
 3671 0827 25030000 		.4byte	.LASF135
 3672 082b 04       		.byte	0x4
 3673 082c 0C       		.byte	0xc
 3674 082d 89       		.byte	0x89
 3675 082e 3F080000 		.4byte	0x83f
 3676 0832 17       		.uleb128 0x17
 3677 0833 72313300 		.ascii	"r13\000"
 3678 0837 0C       		.byte	0xc
 3679 0838 8A       		.byte	0x8a
 3680 0839 BA080000 		.4byte	0x8ba
 3681 083d 00       		.byte	0
 3682 083e 00       		.byte	0
 3683 083f 09       		.uleb128 0x9
ARM GAS  C:\Users\Luis\AppData\Local\Temp\ccMHTq6a.s 			page 67


 3684 0840 7B090000 		.4byte	.LASF136
 3685 0844 24       		.byte	0x24
 3686 0845 01       		.byte	0x1
 3687 0846 F4       		.byte	0xf4
 3688 0847 BA080000 		.4byte	0x8ba
 3689 084b 0B       		.uleb128 0xb
 3690 084c 723400   		.ascii	"r4\000"
 3691 084f 01       		.byte	0x1
 3692 0850 0701     		.2byte	0x107
 3693 0852 10080000 		.4byte	0x810
 3694 0856 00       		.byte	0
 3695 0857 0B       		.uleb128 0xb
 3696 0858 723500   		.ascii	"r5\000"
 3697 085b 01       		.byte	0x1
 3698 085c 0801     		.2byte	0x108
 3699 085e 10080000 		.4byte	0x810
 3700 0862 04       		.byte	0x4
 3701 0863 0B       		.uleb128 0xb
 3702 0864 723600   		.ascii	"r6\000"
 3703 0867 01       		.byte	0x1
 3704 0868 0901     		.2byte	0x109
 3705 086a 10080000 		.4byte	0x810
 3706 086e 08       		.byte	0x8
 3707 086f 0B       		.uleb128 0xb
 3708 0870 723700   		.ascii	"r7\000"
 3709 0873 01       		.byte	0x1
 3710 0874 0A01     		.2byte	0x10a
 3711 0876 10080000 		.4byte	0x810
 3712 087a 0C       		.byte	0xc
 3713 087b 0B       		.uleb128 0xb
 3714 087c 723800   		.ascii	"r8\000"
 3715 087f 01       		.byte	0x1
 3716 0880 0B01     		.2byte	0x10b
 3717 0882 10080000 		.4byte	0x810
 3718 0886 10       		.byte	0x10
 3719 0887 0B       		.uleb128 0xb
 3720 0888 723900   		.ascii	"r9\000"
 3721 088b 01       		.byte	0x1
 3722 088c 0C01     		.2byte	0x10c
 3723 088e 10080000 		.4byte	0x810
 3724 0892 14       		.byte	0x14
 3725 0893 0B       		.uleb128 0xb
 3726 0894 72313000 		.ascii	"r10\000"
 3727 0898 01       		.byte	0x1
 3728 0899 0D01     		.2byte	0x10d
 3729 089b 10080000 		.4byte	0x810
 3730 089f 18       		.byte	0x18
 3731 08a0 0B       		.uleb128 0xb
 3732 08a1 72313100 		.ascii	"r11\000"
 3733 08a5 01       		.byte	0x1
 3734 08a6 0E01     		.2byte	0x10e
 3735 08a8 10080000 		.4byte	0x810
 3736 08ac 1C       		.byte	0x1c
 3737 08ad 0B       		.uleb128 0xb
 3738 08ae 6C7200   		.ascii	"lr\000"
 3739 08b1 01       		.byte	0x1
 3740 08b2 0F01     		.2byte	0x10f
ARM GAS  C:\Users\Luis\AppData\Local\Temp\ccMHTq6a.s 			page 68


 3741 08b4 10080000 		.4byte	0x810
 3742 08b8 20       		.byte	0x20
 3743 08b9 00       		.byte	0
 3744 08ba 06       		.uleb128 0x6
 3745 08bb 04       		.byte	0x4
 3746 08bc 3F080000 		.4byte	0x83f
 3747 08c0 18       		.uleb128 0x18
 3748 08c1 10       		.byte	0x10
 3749 08c2 0D       		.byte	0xd
 3750 08c3 51       		.byte	0x51
 3751 08c4 F9080000 		.4byte	0x8f9
 3752 08c8 0A       		.uleb128 0xa
 3753 08c9 C80C0000 		.4byte	.LASF137
 3754 08cd 0D       		.byte	0xd
 3755 08ce 55       		.byte	0x55
 3756 08cf 35010000 		.4byte	0x135
 3757 08d3 00       		.byte	0
 3758 08d4 0A       		.uleb128 0xa
 3759 08d5 4B010000 		.4byte	.LASF138
 3760 08d9 0D       		.byte	0xd
 3761 08da 59       		.byte	0x59
 3762 08db 69020000 		.4byte	0x269
 3763 08df 04       		.byte	0x4
 3764 08e0 0A       		.uleb128 0xa
 3765 08e1 25070000 		.4byte	.LASF139
 3766 08e5 0D       		.byte	0xd
 3767 08e6 5D       		.byte	0x5d
 3768 08e7 76000000 		.4byte	0x76
 3769 08eb 08       		.byte	0x8
 3770 08ec 0A       		.uleb128 0xa
 3771 08ed 44050000 		.4byte	.LASF140
 3772 08f1 0D       		.byte	0xd
 3773 08f2 61       		.byte	0x61
 3774 08f3 91000000 		.4byte	0x91
 3775 08f7 0C       		.byte	0xc
 3776 08f8 00       		.byte	0
 3777 08f9 03       		.uleb128 0x3
 3778 08fa 28060000 		.4byte	.LASF141
 3779 08fe 0D       		.byte	0xd
 3780 08ff 62       		.byte	0x62
 3781 0900 C0080000 		.4byte	0x8c0
 3782 0904 19       		.uleb128 0x19
 3783 0905 0804     		.2byte	0x408
 3784 0907 0D       		.byte	0xd
 3785 0908 67       		.byte	0x67
 3786 0909 32090000 		.4byte	0x932
 3787 090d 0A       		.uleb128 0xa
 3788 090e E8060000 		.4byte	.LASF142
 3789 0912 0D       		.byte	0xd
 3790 0913 6B       		.byte	0x6b
 3791 0914 37000000 		.4byte	0x37
 3792 0918 00       		.byte	0
 3793 0919 0A       		.uleb128 0xa
 3794 091a DE0C0000 		.4byte	.LASF143
 3795 091e 0D       		.byte	0xd
 3796 091f 6F       		.byte	0x6f
 3797 0920 32090000 		.4byte	0x932
ARM GAS  C:\Users\Luis\AppData\Local\Temp\ccMHTq6a.s 			page 69


 3798 0924 04       		.byte	0x4
 3799 0925 0A       		.uleb128 0xa
 3800 0926 BD080000 		.4byte	.LASF144
 3801 092a 0D       		.byte	0xd
 3802 092b 73       		.byte	0x73
 3803 092c 38090000 		.4byte	0x938
 3804 0930 08       		.byte	0x8
 3805 0931 00       		.byte	0
 3806 0932 06       		.uleb128 0x6
 3807 0933 04       		.byte	0x4
 3808 0934 F9080000 		.4byte	0x8f9
 3809 0938 13       		.uleb128 0x13
 3810 0939 F9080000 		.4byte	0x8f9
 3811 093d 48090000 		.4byte	0x948
 3812 0941 14       		.uleb128 0x14
 3813 0942 6F000000 		.4byte	0x6f
 3814 0946 3F       		.byte	0x3f
 3815 0947 00       		.byte	0
 3816 0948 03       		.uleb128 0x3
 3817 0949 C4040000 		.4byte	.LASF145
 3818 094d 0D       		.byte	0xd
 3819 094e 74       		.byte	0x74
 3820 094f 04090000 		.4byte	0x904
 3821 0953 18       		.uleb128 0x18
 3822 0954 04       		.byte	0x4
 3823 0955 0E       		.byte	0xe
 3824 0956 38       		.byte	0x38
 3825 0957 68090000 		.4byte	0x968
 3826 095b 0A       		.uleb128 0xa
 3827 095c AC080000 		.4byte	.LASF146
 3828 0960 0E       		.byte	0xe
 3829 0961 3C       		.byte	0x3c
 3830 0962 C7000000 		.4byte	0xc7
 3831 0966 00       		.byte	0
 3832 0967 00       		.byte	0
 3833 0968 03       		.uleb128 0x3
 3834 0969 0A0B0000 		.4byte	.LASF147
 3835 096d 0E       		.byte	0xe
 3836 096e 3D       		.byte	0x3d
 3837 096f 53090000 		.4byte	0x953
 3838 0973 18       		.uleb128 0x18
 3839 0974 18       		.byte	0x18
 3840 0975 0E       		.byte	0xe
 3841 0976 48       		.byte	0x48
 3842 0977 B6090000 		.4byte	0x9b6
 3843 097b 0A       		.uleb128 0xa
 3844 097c BC0A0000 		.4byte	.LASF148
 3845 0980 0E       		.byte	0xe
 3846 0981 49       		.byte	0x49
 3847 0982 C7000000 		.4byte	0xc7
 3848 0986 00       		.byte	0
 3849 0987 0A       		.uleb128 0xa
 3850 0988 7B040000 		.4byte	.LASF149
 3851 098c 0E       		.byte	0xe
 3852 098d 4A       		.byte	0x4a
 3853 098e C7000000 		.4byte	0xc7
 3854 0992 04       		.byte	0x4
ARM GAS  C:\Users\Luis\AppData\Local\Temp\ccMHTq6a.s 			page 70


 3855 0993 0A       		.uleb128 0xa
 3856 0994 F80C0000 		.4byte	.LASF150
 3857 0998 0E       		.byte	0xe
 3858 0999 4B       		.byte	0x4b
 3859 099a C7000000 		.4byte	0xc7
 3860 099e 08       		.byte	0x8
 3861 099f 17       		.uleb128 0x17
 3862 09a0 6E00     		.ascii	"n\000"
 3863 09a2 0E       		.byte	0xe
 3864 09a3 4C       		.byte	0x4c
 3865 09a4 2A010000 		.4byte	0x12a
 3866 09a8 0C       		.byte	0xc
 3867 09a9 0A       		.uleb128 0xa
 3868 09aa BD020000 		.4byte	.LASF151
 3869 09ae 0E       		.byte	0xe
 3870 09af 4D       		.byte	0x4d
 3871 09b0 D2000000 		.4byte	0xd2
 3872 09b4 10       		.byte	0x10
 3873 09b5 00       		.byte	0
 3874 09b6 03       		.uleb128 0x3
 3875 09b7 51010000 		.4byte	.LASF152
 3876 09bb 0E       		.byte	0xe
 3877 09bc 4E       		.byte	0x4e
 3878 09bd 73090000 		.4byte	0x973
 3879 09c1 18       		.uleb128 0x18
 3880 09c2 38       		.byte	0x38
 3881 09c3 0F       		.byte	0xf
 3882 09c4 38       		.byte	0x38
 3883 09c5 FA090000 		.4byte	0x9fa
 3884 09c9 0A       		.uleb128 0xa
 3885 09ca 37060000 		.4byte	.LASF153
 3886 09ce 0F       		.byte	0xf
 3887 09cf 39       		.byte	0x39
 3888 09d0 2A010000 		.4byte	0x12a
 3889 09d4 00       		.byte	0
 3890 09d5 0A       		.uleb128 0xa
 3891 09d6 2F040000 		.4byte	.LASF154
 3892 09da 0F       		.byte	0xf
 3893 09db 3A       		.byte	0x3a
 3894 09dc 2A010000 		.4byte	0x12a
 3895 09e0 04       		.byte	0x4
 3896 09e1 0A       		.uleb128 0xa
 3897 09e2 4D050000 		.4byte	.LASF155
 3898 09e6 0F       		.byte	0xf
 3899 09e7 3B       		.byte	0x3b
 3900 09e8 B6090000 		.4byte	0x9b6
 3901 09ec 08       		.byte	0x8
 3902 09ed 0A       		.uleb128 0xa
 3903 09ee 39050000 		.4byte	.LASF156
 3904 09f2 0F       		.byte	0xf
 3905 09f3 3D       		.byte	0x3d
 3906 09f4 B6090000 		.4byte	0x9b6
 3907 09f8 20       		.byte	0x20
 3908 09f9 00       		.byte	0
 3909 09fa 03       		.uleb128 0x3
 3910 09fb 65040000 		.4byte	.LASF157
 3911 09ff 0F       		.byte	0xf
ARM GAS  C:\Users\Luis\AppData\Local\Temp\ccMHTq6a.s 			page 71


 3912 0a00 3F       		.byte	0x3f
 3913 0a01 C1090000 		.4byte	0x9c1
 3914 0a05 1A       		.uleb128 0x1a
 3915 0a06 04       		.byte	0x4
 3916 0a07 0A       		.byte	0xa
 3917 0a08 FA       		.byte	0xfa
 3918 0a09 620A0000 		.4byte	0xa62
 3919 0a0d 1B       		.uleb128 0x1b
 3920 0a0e 590C0000 		.4byte	.LASF158
 3921 0a12 0A       		.byte	0xa
 3922 0a13 0101     		.2byte	0x101
 3923 0a15 09010000 		.4byte	0x109
 3924 0a19 1B       		.uleb128 0x1b
 3925 0a1a C9010000 		.4byte	.LASF159
 3926 0a1e 0A       		.byte	0xa
 3927 0a1f 0801     		.2byte	0x108
 3928 0a21 09010000 		.4byte	0x109
 3929 0a25 1B       		.uleb128 0x1b
 3930 0a26 28040000 		.4byte	.LASF160
 3931 0a2a 0A       		.byte	0xa
 3932 0a2b 0F01     		.2byte	0x10f
 3933 0a2d 76000000 		.4byte	0x76
 3934 0a31 1B       		.uleb128 0x1b
 3935 0a32 2D030000 		.4byte	.LASF161
 3936 0a36 0A       		.byte	0xa
 3937 0a37 1601     		.2byte	0x116
 3938 0a39 620A0000 		.4byte	0xa62
 3939 0a3d 1B       		.uleb128 0x1b
 3940 0a3e 37000000 		.4byte	.LASF162
 3941 0a42 0A       		.byte	0xa
 3942 0a43 1E01     		.2byte	0x11e
 3943 0a45 8D0A0000 		.4byte	0xa8d
 3944 0a49 1B       		.uleb128 0x1b
 3945 0a4a E1040000 		.4byte	.LASF163
 3946 0a4e 0A       		.byte	0xa
 3947 0a4f 2701     		.2byte	0x127
 3948 0a51 C40A0000 		.4byte	0xac4
 3949 0a55 1B       		.uleb128 0x1b
 3950 0a56 D4020000 		.4byte	.LASF164
 3951 0a5a 0A       		.byte	0xa
 3952 0a5b 2F01     		.2byte	0x12f
 3953 0a5d 14010000 		.4byte	0x114
 3954 0a61 00       		.byte	0
 3955 0a62 06       		.uleb128 0x6
 3956 0a63 04       		.byte	0x4
 3957 0a64 5E020000 		.4byte	0x25e
 3958 0a68 09       		.uleb128 0x9
 3959 0a69 80050000 		.4byte	.LASF165
 3960 0a6d 0C       		.byte	0xc
 3961 0a6e 10       		.byte	0x10
 3962 0a6f 34       		.byte	0x34
 3963 0a70 8D0A0000 		.4byte	0xa8d
 3964 0a74 0A       		.uleb128 0xa
 3965 0a75 450B0000 		.4byte	.LASF166
 3966 0a79 10       		.byte	0x10
 3967 0a7a 35       		.byte	0x35
 3968 0a7b 93020000 		.4byte	0x293
ARM GAS  C:\Users\Luis\AppData\Local\Temp\ccMHTq6a.s 			page 72


 3969 0a7f 00       		.byte	0
 3970 0a80 0A       		.uleb128 0xa
 3971 0a81 0C0A0000 		.4byte	.LASF167
 3972 0a85 10       		.byte	0x10
 3973 0a86 37       		.byte	0x37
 3974 0a87 1F010000 		.4byte	0x11f
 3975 0a8b 08       		.byte	0x8
 3976 0a8c 00       		.byte	0
 3977 0a8d 06       		.uleb128 0x6
 3978 0a8e 04       		.byte	0x4
 3979 0a8f 680A0000 		.4byte	0xa68
 3980 0a93 09       		.uleb128 0x9
 3981 0a94 9C0B0000 		.4byte	.LASF168
 3982 0a98 10       		.byte	0x10
 3983 0a99 11       		.byte	0x11
 3984 0a9a 39       		.byte	0x39
 3985 0a9b C40A0000 		.4byte	0xac4
 3986 0a9f 0A       		.uleb128 0xa
 3987 0aa0 92060000 		.4byte	.LASF169
 3988 0aa4 11       		.byte	0x11
 3989 0aa5 3A       		.byte	0x3a
 3990 0aa6 93020000 		.4byte	0x293
 3991 0aaa 00       		.byte	0
 3992 0aab 0A       		.uleb128 0xa
 3993 0aac B5010000 		.4byte	.LASF170
 3994 0ab0 11       		.byte	0x11
 3995 0ab1 3C       		.byte	0x3c
 3996 0ab2 69020000 		.4byte	0x269
 3997 0ab6 08       		.byte	0x8
 3998 0ab7 0A       		.uleb128 0xa
 3999 0ab8 D70C0000 		.4byte	.LASF171
 4000 0abc 11       		.byte	0x11
 4001 0abd 3E       		.byte	0x3e
 4002 0abe F60A0000 		.4byte	0xaf6
 4003 0ac2 0C       		.byte	0xc
 4004 0ac3 00       		.byte	0
 4005 0ac4 06       		.uleb128 0x6
 4006 0ac5 04       		.byte	0x4
 4007 0ac6 930A0000 		.4byte	0xa93
 4008 0aca 06       		.uleb128 0x6
 4009 0acb 04       		.byte	0x4
 4010 0acc 1B080000 		.4byte	0x81b
 4011 0ad0 06       		.uleb128 0x6
 4012 0ad1 04       		.byte	0x4
 4013 0ad2 46030000 		.4byte	0x346
 4014 0ad6 08       		.uleb128 0x8
 4015 0ad7 86000000 		.4byte	0x86
 4016 0adb 13       		.uleb128 0x13
 4017 0adc 1B080000 		.4byte	0x81b
 4018 0ae0 EB0A0000 		.4byte	0xaeb
 4019 0ae4 14       		.uleb128 0x14
 4020 0ae5 6F000000 		.4byte	0x6f
 4021 0ae9 1F       		.byte	0x1f
 4022 0aea 00       		.byte	0
 4023 0aeb 03       		.uleb128 0x3
 4024 0aec F90B0000 		.4byte	.LASF172
 4025 0af0 11       		.byte	0x11
ARM GAS  C:\Users\Luis\AppData\Local\Temp\ccMHTq6a.s 			page 73


 4026 0af1 34       		.byte	0x34
 4027 0af2 930A0000 		.4byte	0xa93
 4028 0af6 06       		.uleb128 0x6
 4029 0af7 04       		.byte	0x4
 4030 0af8 EB0A0000 		.4byte	0xaeb
 4031 0afc 06       		.uleb128 0x6
 4032 0afd 04       		.byte	0x4
 4033 0afe 91000000 		.4byte	0x91
 4034 0b02 06       		.uleb128 0x6
 4035 0b03 04       		.byte	0x4
 4036 0b04 080B0000 		.4byte	0xb08
 4037 0b08 07       		.uleb128 0x7
 4038 0b09 91000000 		.4byte	0x91
 4039 0b0d 18       		.uleb128 0x18
 4040 0b0e 0C       		.byte	0xc
 4041 0b0f 12       		.byte	0x12
 4042 0b10 DA       		.byte	0xda
 4043 0b11 520B0000 		.4byte	0xb52
 4044 0b15 0A       		.uleb128 0xa
 4045 0b16 74040000 		.4byte	.LASF173
 4046 0b1a 12       		.byte	0x12
 4047 0b1b DB       		.byte	0xdb
 4048 0b1c 520B0000 		.4byte	0xb52
 4049 0b20 00       		.byte	0
 4050 0b21 0A       		.uleb128 0xa
 4051 0b22 C30C0000 		.4byte	.LASF174
 4052 0b26 12       		.byte	0x12
 4053 0b27 DC       		.byte	0xdc
 4054 0b28 580B0000 		.4byte	0xb58
 4055 0b2c 04       		.byte	0x4
 4056 0b2d 0A       		.uleb128 0xa
 4057 0b2e F0030000 		.4byte	.LASF175
 4058 0b32 12       		.byte	0x12
 4059 0b33 DD       		.byte	0xdd
 4060 0b34 91000000 		.4byte	0x91
 4061 0b38 08       		.byte	0x8
 4062 0b39 0A       		.uleb128 0xa
 4063 0b3a 1F0A0000 		.4byte	.LASF176
 4064 0b3e 12       		.byte	0x12
 4065 0b3f DF       		.byte	0xdf
 4066 0b40 91000000 		.4byte	0x91
 4067 0b44 09       		.byte	0x9
 4068 0b45 0A       		.uleb128 0xa
 4069 0b46 920A0000 		.4byte	.LASF177
 4070 0b4a 12       		.byte	0x12
 4071 0b4b E0       		.byte	0xe0
 4072 0b4c 91000000 		.4byte	0x91
 4073 0b50 0A       		.byte	0xa
 4074 0b51 00       		.byte	0
 4075 0b52 06       		.uleb128 0x6
 4076 0b53 04       		.byte	0x4
 4077 0b54 3F050000 		.4byte	0x53f
 4078 0b58 06       		.uleb128 0x6
 4079 0b59 04       		.byte	0x4
 4080 0b5a C2000000 		.4byte	0xc2
 4081 0b5e 03       		.uleb128 0x3
 4082 0b5f 0D000000 		.4byte	.LASF178
ARM GAS  C:\Users\Luis\AppData\Local\Temp\ccMHTq6a.s 			page 74


 4083 0b63 12       		.byte	0x12
 4084 0b64 E1       		.byte	0xe1
 4085 0b65 0D0B0000 		.4byte	0xb0d
 4086 0b69 1C       		.uleb128 0x1c
 4087 0b6a 01       		.byte	0x1
 4088 0b6b 13       		.byte	0x13
 4089 0b6c 28       		.byte	0x28
 4090 0b6d A80B0000 		.4byte	0xba8
 4091 0b71 1D       		.uleb128 0x1d
 4092 0b72 AF030000 		.4byte	.LASF179
 4093 0b76 00       		.sleb128 0
 4094 0b77 1D       		.uleb128 0x1d
 4095 0b78 EF0C0000 		.4byte	.LASF180
 4096 0b7c 01       		.sleb128 1
 4097 0b7d 1D       		.uleb128 0x1d
 4098 0b7e BE090000 		.4byte	.LASF181
 4099 0b82 02       		.sleb128 2
 4100 0b83 1D       		.uleb128 0x1d
 4101 0b84 07040000 		.4byte	.LASF182
 4102 0b88 03       		.sleb128 3
 4103 0b89 1D       		.uleb128 0x1d
 4104 0b8a B50B0000 		.4byte	.LASF183
 4105 0b8e 04       		.sleb128 4
 4106 0b8f 1D       		.uleb128 0x1d
 4107 0b90 1E040000 		.4byte	.LASF184
 4108 0b94 05       		.sleb128 5
 4109 0b95 1D       		.uleb128 0x1d
 4110 0b96 290C0000 		.4byte	.LASF185
 4111 0b9a 06       		.sleb128 6
 4112 0b9b 1D       		.uleb128 0x1d
 4113 0b9c 3D060000 		.4byte	.LASF186
 4114 0ba0 07       		.sleb128 7
 4115 0ba1 1D       		.uleb128 0x1d
 4116 0ba2 D5030000 		.4byte	.LASF187
 4117 0ba6 08       		.sleb128 8
 4118 0ba7 00       		.byte	0
 4119 0ba8 03       		.uleb128 0x3
 4120 0ba9 A3000000 		.4byte	.LASF188
 4121 0bad 13       		.byte	0x13
 4122 0bae 32       		.byte	0x32
 4123 0baf 690B0000 		.4byte	0xb69
 4124 0bb3 18       		.uleb128 0x18
 4125 0bb4 08       		.byte	0x8
 4126 0bb5 13       		.byte	0x13
 4127 0bb6 37       		.byte	0x37
 4128 0bb7 D40B0000 		.4byte	0xbd4
 4129 0bbb 0A       		.uleb128 0xa
 4130 0bbc F6040000 		.4byte	.LASF189
 4131 0bc0 13       		.byte	0x13
 4132 0bc1 38       		.byte	0x38
 4133 0bc2 A7000000 		.4byte	0xa7
 4134 0bc6 00       		.byte	0
 4135 0bc7 0A       		.uleb128 0xa
 4136 0bc8 6D070000 		.4byte	.LASF190
 4137 0bcc 13       		.byte	0x13
 4138 0bcd 39       		.byte	0x39
 4139 0bce A7000000 		.4byte	0xa7
ARM GAS  C:\Users\Luis\AppData\Local\Temp\ccMHTq6a.s 			page 75


 4140 0bd2 04       		.byte	0x4
 4141 0bd3 00       		.byte	0
 4142 0bd4 03       		.uleb128 0x3
 4143 0bd5 03090000 		.4byte	.LASF191
 4144 0bd9 13       		.byte	0x13
 4145 0bda 3A       		.byte	0x3a
 4146 0bdb B30B0000 		.4byte	0xbb3
 4147 0bdf 1E       		.uleb128 0x1e
 4148 0be0 EE0B0000 		.4byte	0xbee
 4149 0be4 EE0B0000 		.4byte	0xbee
 4150 0be8 0F       		.uleb128 0xf
 4151 0be9 76000000 		.4byte	0x76
 4152 0bed 00       		.byte	0
 4153 0bee 04       		.uleb128 0x4
 4154 0bef 01       		.byte	0x1
 4155 0bf0 02       		.byte	0x2
 4156 0bf1 C9030000 		.4byte	.LASF192
 4157 0bf5 06       		.uleb128 0x6
 4158 0bf6 04       		.byte	0x4
 4159 0bf7 DF0B0000 		.4byte	0xbdf
 4160 0bfb 1E       		.uleb128 0x1e
 4161 0bfc EE0B0000 		.4byte	0xbee
 4162 0c00 190C0000 		.4byte	0xc19
 4163 0c04 0F       		.uleb128 0xf
 4164 0c05 76000000 		.4byte	0x76
 4165 0c09 0F       		.uleb128 0xf
 4166 0c0a A7000000 		.4byte	0xa7
 4167 0c0e 0F       		.uleb128 0xf
 4168 0c0f FC0A0000 		.4byte	0xafc
 4169 0c13 0F       		.uleb128 0xf
 4170 0c14 A7000000 		.4byte	0xa7
 4171 0c18 00       		.byte	0
 4172 0c19 06       		.uleb128 0x6
 4173 0c1a 04       		.byte	0x4
 4174 0c1b FB0B0000 		.4byte	0xbfb
 4175 0c1f 1E       		.uleb128 0x1e
 4176 0c20 EE0B0000 		.4byte	0xbee
 4177 0c24 3D0C0000 		.4byte	0xc3d
 4178 0c28 0F       		.uleb128 0xf
 4179 0c29 76000000 		.4byte	0x76
 4180 0c2d 0F       		.uleb128 0xf
 4181 0c2e A7000000 		.4byte	0xa7
 4182 0c32 0F       		.uleb128 0xf
 4183 0c33 020B0000 		.4byte	0xb02
 4184 0c37 0F       		.uleb128 0xf
 4185 0c38 A7000000 		.4byte	0xa7
 4186 0c3c 00       		.byte	0
 4187 0c3d 06       		.uleb128 0x6
 4188 0c3e 04       		.byte	0x4
 4189 0c3f 1F0C0000 		.4byte	0xc1f
 4190 0c43 1E       		.uleb128 0x1e
 4191 0c44 EE0B0000 		.4byte	0xbee
 4192 0c48 570C0000 		.4byte	0xc57
 4193 0c4c 0F       		.uleb128 0xf
 4194 0c4d 76000000 		.4byte	0x76
 4195 0c51 0F       		.uleb128 0xf
 4196 0c52 570C0000 		.4byte	0xc57
ARM GAS  C:\Users\Luis\AppData\Local\Temp\ccMHTq6a.s 			page 76


 4197 0c56 00       		.byte	0
 4198 0c57 06       		.uleb128 0x6
 4199 0c58 04       		.byte	0x4
 4200 0c59 D40B0000 		.4byte	0xbd4
 4201 0c5d 06       		.uleb128 0x6
 4202 0c5e 04       		.byte	0x4
 4203 0c5f 430C0000 		.4byte	0xc43
 4204 0c63 06       		.uleb128 0x6
 4205 0c64 04       		.byte	0x4
 4206 0c65 690C0000 		.4byte	0xc69
 4207 0c69 07       		.uleb128 0x7
 4208 0c6a 5E0B0000 		.4byte	0xb5e
 4209 0c6e 1C       		.uleb128 0x1c
 4210 0c6f 01       		.byte	0x1
 4211 0c70 14       		.byte	0x14
 4212 0c71 6C       		.byte	0x6c
 4213 0c72 890C0000 		.4byte	0xc89
 4214 0c76 1D       		.uleb128 0x1d
 4215 0c77 CC070000 		.4byte	.LASF193
 4216 0c7b 00       		.sleb128 0
 4217 0c7c 1D       		.uleb128 0x1d
 4218 0c7d 7F010000 		.4byte	.LASF194
 4219 0c81 01       		.sleb128 1
 4220 0c82 1D       		.uleb128 0x1d
 4221 0c83 EA010000 		.4byte	.LASF195
 4222 0c87 02       		.sleb128 2
 4223 0c88 00       		.byte	0
 4224 0c89 03       		.uleb128 0x3
 4225 0c8a B10C0000 		.4byte	.LASF196
 4226 0c8e 14       		.byte	0x14
 4227 0c8f 70       		.byte	0x70
 4228 0c90 6E0C0000 		.4byte	0xc6e
 4229 0c94 1C       		.uleb128 0x1c
 4230 0c95 01       		.byte	0x1
 4231 0c96 14       		.byte	0x14
 4232 0c97 75       		.byte	0x75
 4233 0c98 A90C0000 		.4byte	0xca9
 4234 0c9c 1D       		.uleb128 0x1d
 4235 0c9d DA080000 		.4byte	.LASF197
 4236 0ca1 00       		.sleb128 0
 4237 0ca2 1D       		.uleb128 0x1d
 4238 0ca3 E8080000 		.4byte	.LASF198
 4239 0ca7 01       		.sleb128 1
 4240 0ca8 00       		.byte	0
 4241 0ca9 03       		.uleb128 0x3
 4242 0caa 910C0000 		.4byte	.LASF199
 4243 0cae 14       		.byte	0x14
 4244 0caf 78       		.byte	0x78
 4245 0cb0 940C0000 		.4byte	0xc94
 4246 0cb4 03       		.uleb128 0x3
 4247 0cb5 DD050000 		.4byte	.LASF200
 4248 0cb9 15       		.byte	0x15
 4249 0cba BF       		.byte	0xbf
 4250 0cbb A7000000 		.4byte	0xa7
 4251 0cbf 03       		.uleb128 0x3
 4252 0cc0 DE0B0000 		.4byte	.LASF201
 4253 0cc4 15       		.byte	0x15
ARM GAS  C:\Users\Luis\AppData\Local\Temp\ccMHTq6a.s 			page 77


 4254 0cc5 C4       		.byte	0xc4
 4255 0cc6 A7000000 		.4byte	0xa7
 4256 0cca 03       		.uleb128 0x3
 4257 0ccb 85070000 		.4byte	.LASF202
 4258 0ccf 15       		.byte	0x15
 4259 0cd0 C9       		.byte	0xc9
 4260 0cd1 D50C0000 		.4byte	0xcd5
 4261 0cd5 09       		.uleb128 0x9
 4262 0cd6 85070000 		.4byte	.LASF202
 4263 0cda 4C       		.byte	0x4c
 4264 0cdb 15       		.byte	0x15
 4265 0cdc F2       		.byte	0xf2
 4266 0cdd 840D0000 		.4byte	0xd84
 4267 0ce1 17       		.uleb128 0x17
 4268 0ce2 766D7400 		.ascii	"vmt\000"
 4269 0ce6 15       		.byte	0x15
 4270 0ce7 F6       		.byte	0xf6
 4271 0ce8 1D0E0000 		.4byte	0xe1d
 4272 0cec 00       		.byte	0
 4273 0ced 0A       		.uleb128 0xa
 4274 0cee 11010000 		.4byte	.LASF203
 4275 0cf2 15       		.byte	0x15
 4276 0cf3 F7       		.byte	0xf7
 4277 0cf4 A80B0000 		.4byte	0xba8
 4278 0cf8 04       		.byte	0x4
 4279 0cf9 17       		.uleb128 0x17
 4280 0cfa 63696400 		.ascii	"cid\000"
 4281 0cfe 15       		.byte	0x15
 4282 0cff F7       		.byte	0xf7
 4283 0d00 C8040000 		.4byte	0x4c8
 4284 0d04 08       		.byte	0x8
 4285 0d05 17       		.uleb128 0x17
 4286 0d06 63736400 		.ascii	"csd\000"
 4287 0d0a 15       		.byte	0x15
 4288 0d0b F7       		.byte	0xf7
 4289 0d0c C8040000 		.4byte	0x4c8
 4290 0d10 18       		.byte	0x18
 4291 0d11 0A       		.uleb128 0xa
 4292 0d12 F7030000 		.4byte	.LASF204
 4293 0d16 15       		.byte	0x15
 4294 0d17 F7       		.byte	0xf7
 4295 0d18 A7000000 		.4byte	0xa7
 4296 0d1c 28       		.byte	0x28
 4297 0d1d 0A       		.uleb128 0xa
 4298 0d1e 0A010000 		.4byte	.LASF205
 4299 0d22 15       		.byte	0x15
 4300 0d23 FB       		.byte	0xfb
 4301 0d24 280E0000 		.4byte	0xe28
 4302 0d28 2C       		.byte	0x2c
 4303 0d29 0A       		.uleb128 0xa
 4304 0d2a F00B0000 		.4byte	.LASF206
 4305 0d2e 15       		.byte	0x15
 4306 0d2f FF       		.byte	0xff
 4307 0d30 B40C0000 		.4byte	0xcb4
 4308 0d34 30       		.byte	0x30
 4309 0d35 0C       		.uleb128 0xc
 4310 0d36 38040000 		.4byte	.LASF207
ARM GAS  C:\Users\Luis\AppData\Local\Temp\ccMHTq6a.s 			page 78


 4311 0d3a 15       		.byte	0x15
 4312 0d3b 0301     		.2byte	0x103
 4313 0d3d BF0C0000 		.4byte	0xcbf
 4314 0d41 34       		.byte	0x34
 4315 0d42 0B       		.uleb128 0xb
 4316 0d43 72636100 		.ascii	"rca\000"
 4317 0d47 15       		.byte	0x15
 4318 0d48 0701     		.2byte	0x107
 4319 0d4a A7000000 		.4byte	0xa7
 4320 0d4e 38       		.byte	0x38
 4321 0d4f 0C       		.uleb128 0xc
 4322 0d50 240B0000 		.4byte	.LASF208
 4323 0d54 15       		.byte	0x15
 4324 0d55 0C01     		.2byte	0x10c
 4325 0d57 5E020000 		.4byte	0x25e
 4326 0d5b 3C       		.byte	0x3c
 4327 0d5c 0C       		.uleb128 0xc
 4328 0d5d 4F020000 		.4byte	.LASF209
 4329 0d61 15       		.byte	0x15
 4330 0d62 1001     		.2byte	0x110
 4331 0d64 A7000000 		.4byte	0xa7
 4332 0d68 40       		.byte	0x40
 4333 0d69 0B       		.uleb128 0xb
 4334 0d6a 646D6100 		.ascii	"dma\000"
 4335 0d6e 15       		.byte	0x15
 4336 0d6f 1401     		.2byte	0x114
 4337 0d71 630C0000 		.4byte	0xc63
 4338 0d75 44       		.byte	0x44
 4339 0d76 0C       		.uleb128 0xc
 4340 0d77 DB010000 		.4byte	.LASF210
 4341 0d7b 15       		.byte	0x15
 4342 0d7c 1901     		.2byte	0x119
 4343 0d7e 330E0000 		.4byte	0xe33
 4344 0d82 48       		.byte	0x48
 4345 0d83 00       		.byte	0
 4346 0d84 18       		.uleb128 0x18
 4347 0d85 08       		.byte	0x8
 4348 0d86 15       		.byte	0x15
 4349 0d87 CF       		.byte	0xcf
 4350 0d88 A50D0000 		.4byte	0xda5
 4351 0d8c 0A       		.uleb128 0xa
 4352 0d8d 300B0000 		.4byte	.LASF211
 4353 0d91 15       		.byte	0x15
 4354 0d92 D8       		.byte	0xd8
 4355 0d93 FC0A0000 		.4byte	0xafc
 4356 0d97 00       		.byte	0
 4357 0d98 0A       		.uleb128 0xa
 4358 0d99 4D0B0000 		.4byte	.LASF212
 4359 0d9d 15       		.byte	0x15
 4360 0d9e DC       		.byte	0xdc
 4361 0d9f 890C0000 		.4byte	0xc89
 4362 0da3 04       		.byte	0x4
 4363 0da4 00       		.byte	0
 4364 0da5 03       		.uleb128 0x3
 4365 0da6 E50C0000 		.4byte	.LASF213
 4366 0daa 15       		.byte	0x15
 4367 0dab DE       		.byte	0xde
ARM GAS  C:\Users\Luis\AppData\Local\Temp\ccMHTq6a.s 			page 79


 4368 0dac 840D0000 		.4byte	0xd84
 4369 0db0 09       		.uleb128 0x9
 4370 0db1 B7040000 		.4byte	.LASF214
 4371 0db5 20       		.byte	0x20
 4372 0db6 15       		.byte	0x15
 4373 0db7 EB       		.byte	0xeb
 4374 0db8 1D0E0000 		.4byte	0xe1d
 4375 0dbc 0A       		.uleb128 0xa
 4376 0dbd 27010000 		.4byte	.LASF215
 4377 0dc1 15       		.byte	0x15
 4378 0dc2 EC       		.byte	0xec
 4379 0dc3 F50B0000 		.4byte	0xbf5
 4380 0dc7 00       		.byte	0
 4381 0dc8 0A       		.uleb128 0xa
 4382 0dc9 A4020000 		.4byte	.LASF216
 4383 0dcd 15       		.byte	0x15
 4384 0dce EC       		.byte	0xec
 4385 0dcf F50B0000 		.4byte	0xbf5
 4386 0dd3 04       		.byte	0x4
 4387 0dd4 0A       		.uleb128 0xa
 4388 0dd5 8A060000 		.4byte	.LASF217
 4389 0dd9 15       		.byte	0x15
 4390 0dda EC       		.byte	0xec
 4391 0ddb F50B0000 		.4byte	0xbf5
 4392 0ddf 08       		.byte	0x8
 4393 0de0 0A       		.uleb128 0xa
 4394 0de1 D2090000 		.4byte	.LASF218
 4395 0de5 15       		.byte	0x15
 4396 0de6 EC       		.byte	0xec
 4397 0de7 F50B0000 		.4byte	0xbf5
 4398 0deb 0C       		.byte	0xc
 4399 0dec 0A       		.uleb128 0xa
 4400 0ded 37070000 		.4byte	.LASF219
 4401 0df1 15       		.byte	0x15
 4402 0df2 EC       		.byte	0xec
 4403 0df3 190C0000 		.4byte	0xc19
 4404 0df7 10       		.byte	0x10
 4405 0df8 0A       		.uleb128 0xa
 4406 0df9 F1000000 		.4byte	.LASF220
 4407 0dfd 15       		.byte	0x15
 4408 0dfe EC       		.byte	0xec
 4409 0dff 3D0C0000 		.4byte	0xc3d
 4410 0e03 14       		.byte	0x14
 4411 0e04 0A       		.uleb128 0xa
 4412 0e05 DA060000 		.4byte	.LASF221
 4413 0e09 15       		.byte	0x15
 4414 0e0a EC       		.byte	0xec
 4415 0e0b F50B0000 		.4byte	0xbf5
 4416 0e0f 18       		.byte	0x18
 4417 0e10 0A       		.uleb128 0xa
 4418 0e11 59000000 		.4byte	.LASF222
 4419 0e15 15       		.byte	0x15
 4420 0e16 EC       		.byte	0xec
 4421 0e17 5D0C0000 		.4byte	0xc5d
 4422 0e1b 1C       		.byte	0x1c
 4423 0e1c 00       		.byte	0
 4424 0e1d 06       		.uleb128 0x6
ARM GAS  C:\Users\Luis\AppData\Local\Temp\ccMHTq6a.s 			page 80


 4425 0e1e 04       		.byte	0x4
 4426 0e1f 230E0000 		.4byte	0xe23
 4427 0e23 07       		.uleb128 0x7
 4428 0e24 B00D0000 		.4byte	0xdb0
 4429 0e28 06       		.uleb128 0x6
 4430 0e29 04       		.byte	0x4
 4431 0e2a 2E0E0000 		.4byte	0xe2e
 4432 0e2e 07       		.uleb128 0x7
 4433 0e2f A50D0000 		.4byte	0xda5
 4434 0e33 06       		.uleb128 0x6
 4435 0e34 04       		.byte	0x4
 4436 0e35 04080000 		.4byte	0x804
 4437 0e39 1F       		.uleb128 0x1f
 4438 0e3a 0002     		.2byte	0x200
 4439 0e3c 05       		.byte	0x5
 4440 0e3d 36       		.byte	0x36
 4441 0e3e 590E0000 		.4byte	0xe59
 4442 0e42 20       		.uleb128 0x20
 4443 0e43 99000000 		.4byte	.LASF223
 4444 0e47 05       		.byte	0x5
 4445 0e48 37       		.byte	0x37
 4446 0e49 A7000000 		.4byte	0xa7
 4447 0e4d 21       		.uleb128 0x21
 4448 0e4e 62756600 		.ascii	"buf\000"
 4449 0e52 05       		.byte	0x5
 4450 0e53 38       		.byte	0x38
 4451 0e54 590E0000 		.4byte	0xe59
 4452 0e58 00       		.byte	0
 4453 0e59 13       		.uleb128 0x13
 4454 0e5a 91000000 		.4byte	0x91
 4455 0e5e 6A0E0000 		.4byte	0xe6a
 4456 0e62 22       		.uleb128 0x22
 4457 0e63 6F000000 		.4byte	0x6f
 4458 0e67 FF01     		.2byte	0x1ff
 4459 0e69 00       		.byte	0
 4460 0e6a 23       		.uleb128 0x23
 4461 0e6b AE0A0000 		.4byte	.LASF279
 4462 0e6f 02       		.byte	0x2
 4463 0e70 2002     		.2byte	0x220
 4464 0e72 03       		.byte	0x3
 4465 0e73 840E0000 		.4byte	0xe84
 4466 0e77 24       		.uleb128 0x24
 4467 0e78 670A0000 		.4byte	.LASF280
 4468 0e7c 02       		.byte	0x2
 4469 0e7d 2002     		.2byte	0x220
 4470 0e7f A7000000 		.4byte	0xa7
 4471 0e83 00       		.byte	0
 4472 0e84 25       		.uleb128 0x25
 4473 0e85 3B0B0000 		.4byte	.LASF224
 4474 0e89 01       		.byte	0x1
 4475 0e8a BC01     		.2byte	0x1bc
 4476 0e8c 00000000 		.4byte	.LFB116
 4477 0e90 1A000000 		.4byte	.LFE116-.LFB116
 4478 0e94 01       		.uleb128 0x1
 4479 0e95 9C       		.byte	0x9c
 4480 0e96 B40E0000 		.4byte	0xeb4
 4481 0e9a 26       		.uleb128 0x26
ARM GAS  C:\Users\Luis\AppData\Local\Temp\ccMHTq6a.s 			page 81


 4482 0e9b 6A0E0000 		.4byte	0xe6a
 4483 0e9f 0A000000 		.4byte	.LBB6
 4484 0ea3 06000000 		.4byte	.LBE6-.LBB6
 4485 0ea7 01       		.byte	0x1
 4486 0ea8 BF01     		.2byte	0x1bf
 4487 0eaa 27       		.uleb128 0x27
 4488 0eab 770E0000 		.4byte	0xe77
 4489 0eaf 02       		.uleb128 0x2
 4490 0eb0 91       		.byte	0x91
 4491 0eb1 74       		.sleb128 -12
 4492 0eb2 00       		.byte	0
 4493 0eb3 00       		.byte	0
 4494 0eb4 25       		.uleb128 0x25
 4495 0eb5 26020000 		.4byte	.LASF225
 4496 0eb9 01       		.byte	0x1
 4497 0eba CA01     		.2byte	0x1ca
 4498 0ebc 00000000 		.4byte	.LFB117
 4499 0ec0 1A000000 		.4byte	.LFE117-.LFB117
 4500 0ec4 01       		.uleb128 0x1
 4501 0ec5 9C       		.byte	0x9c
 4502 0ec6 E40E0000 		.4byte	0xee4
 4503 0eca 26       		.uleb128 0x26
 4504 0ecb 6A0E0000 		.4byte	0xe6a
 4505 0ecf 0A000000 		.4byte	.LBB8
 4506 0ed3 06000000 		.4byte	.LBE8-.LBB8
 4507 0ed7 01       		.byte	0x1
 4508 0ed8 CD01     		.2byte	0x1cd
 4509 0eda 27       		.uleb128 0x27
 4510 0edb 770E0000 		.4byte	0xe77
 4511 0edf 02       		.uleb128 0x2
 4512 0ee0 91       		.byte	0x91
 4513 0ee1 74       		.sleb128 -12
 4514 0ee2 00       		.byte	0
 4515 0ee3 00       		.byte	0
 4516 0ee4 28       		.uleb128 0x28
 4517 0ee5 9A060000 		.4byte	.LASF226
 4518 0ee9 01       		.byte	0x1
 4519 0eea D901     		.2byte	0x1d9
 4520 0eec 00000000 		.4byte	.LFB118
 4521 0ef0 0A000000 		.4byte	.LFE118-.LFB118
 4522 0ef4 01       		.uleb128 0x1
 4523 0ef5 9C       		.byte	0x9c
 4524 0ef6 28       		.uleb128 0x28
 4525 0ef7 9C090000 		.4byte	.LASF227
 4526 0efb 01       		.byte	0x1
 4527 0efc E401     		.2byte	0x1e4
 4528 0efe 00000000 		.4byte	.LFB119
 4529 0f02 0A000000 		.4byte	.LFE119-.LFB119
 4530 0f06 01       		.uleb128 0x1
 4531 0f07 9C       		.byte	0x9c
 4532 0f08 28       		.uleb128 0x28
 4533 0f09 76050000 		.4byte	.LASF228
 4534 0f0d 03       		.byte	0x3
 4535 0f0e 5A01     		.2byte	0x15a
 4536 0f10 00000000 		.4byte	.LFB156
 4537 0f14 12000000 		.4byte	.LFE156-.LFB156
 4538 0f18 01       		.uleb128 0x1
ARM GAS  C:\Users\Luis\AppData\Local\Temp\ccMHTq6a.s 			page 82


 4539 0f19 9C       		.byte	0x9c
 4540 0f1a 29       		.uleb128 0x29
 4541 0f1b 58050000 		.4byte	.LASF229
 4542 0f1f 03       		.byte	0x3
 4543 0f20 6601     		.2byte	0x166
 4544 0f22 00000000 		.4byte	.LFB157
 4545 0f26 3C000000 		.4byte	.LFE157-.LFB157
 4546 0f2a 01       		.uleb128 0x1
 4547 0f2b 9C       		.byte	0x9c
 4548 0f2c 400F0000 		.4byte	0xf40
 4549 0f30 2A       		.uleb128 0x2a
 4550 0f31 CE000000 		.4byte	.LASF243
 4551 0f35 500F0000 		.4byte	0xf50
 4552 0f39 05       		.uleb128 0x5
 4553 0f3a 03       		.byte	0x3
 4554 0f3b 00000000 		.4byte	__func__.6186
 4555 0f3f 00       		.byte	0
 4556 0f40 13       		.uleb128 0x13
 4557 0f41 7F000000 		.4byte	0x7f
 4558 0f45 500F0000 		.4byte	0xf50
 4559 0f49 14       		.uleb128 0x14
 4560 0f4a 6F000000 		.4byte	0x6f
 4561 0f4e 0B       		.byte	0xb
 4562 0f4f 00       		.byte	0
 4563 0f50 07       		.uleb128 0x7
 4564 0f51 400F0000 		.4byte	0xf40
 4565 0f55 28       		.uleb128 0x28
 4566 0f56 3E020000 		.4byte	.LASF230
 4567 0f5a 03       		.byte	0x3
 4568 0f5b 8201     		.2byte	0x182
 4569 0f5d 00000000 		.4byte	.LFB158
 4570 0f61 12000000 		.4byte	.LFE158-.LFB158
 4571 0f65 01       		.uleb128 0x1
 4572 0f66 9C       		.byte	0x9c
 4573 0f67 28       		.uleb128 0x28
 4574 0f68 33030000 		.4byte	.LASF231
 4575 0f6c 03       		.byte	0x3
 4576 0f6d 9601     		.2byte	0x196
 4577 0f6f 00000000 		.4byte	.LFB159
 4578 0f73 12000000 		.4byte	.LFE159-.LFB159
 4579 0f77 01       		.uleb128 0x1
 4580 0f78 9C       		.byte	0x9c
 4581 0f79 28       		.uleb128 0x28
 4582 0f7a B1020000 		.4byte	.LASF232
 4583 0f7e 04       		.byte	0x4
 4584 0f7f EB01     		.2byte	0x1eb
 4585 0f81 00000000 		.4byte	.LFB233
 4586 0f85 0A000000 		.4byte	.LFE233-.LFB233
 4587 0f89 01       		.uleb128 0x1
 4588 0f8a 9C       		.byte	0x9c
 4589 0f8b 28       		.uleb128 0x28
 4590 0f8c 8D010000 		.4byte	.LASF233
 4591 0f90 04       		.byte	0x4
 4592 0f91 F601     		.2byte	0x1f6
 4593 0f93 00000000 		.4byte	.LFB234
 4594 0f97 0A000000 		.4byte	.LFE234-.LFB234
 4595 0f9b 01       		.uleb128 0x1
ARM GAS  C:\Users\Luis\AppData\Local\Temp\ccMHTq6a.s 			page 83


 4596 0f9c 9C       		.byte	0x9c
 4597 0f9d 28       		.uleb128 0x28
 4598 0f9e 6C010000 		.4byte	.LASF234
 4599 0fa2 04       		.byte	0x4
 4600 0fa3 0102     		.2byte	0x201
 4601 0fa5 00000000 		.4byte	.LFB235
 4602 0fa9 0A000000 		.4byte	.LFE235-.LFB235
 4603 0fad 01       		.uleb128 0x1
 4604 0fae 9C       		.byte	0x9c
 4605 0faf 28       		.uleb128 0x28
 4606 0fb0 24050000 		.4byte	.LASF235
 4607 0fb4 04       		.byte	0x4
 4608 0fb5 0C02     		.2byte	0x20c
 4609 0fb7 00000000 		.4byte	.LFB236
 4610 0fbb 0A000000 		.4byte	.LFE236-.LFB236
 4611 0fbf 01       		.uleb128 0x1
 4612 0fc0 9C       		.byte	0x9c
 4613 0fc1 29       		.uleb128 0x29
 4614 0fc2 A50B0000 		.4byte	.LASF236
 4615 0fc6 04       		.byte	0x4
 4616 0fc7 9F02     		.2byte	0x29f
 4617 0fc9 00000000 		.4byte	.LFB245
 4618 0fcd 14000000 		.4byte	.LFE245-.LFB245
 4619 0fd1 01       		.uleb128 0x1
 4620 0fd2 9C       		.byte	0x9c
 4621 0fd3 E70F0000 		.4byte	0xfe7
 4622 0fd7 2B       		.uleb128 0x2b
 4623 0fd8 DF0A0000 		.4byte	.LASF237
 4624 0fdc 04       		.byte	0x4
 4625 0fdd 9F02     		.2byte	0x29f
 4626 0fdf 35010000 		.4byte	0x135
 4627 0fe3 02       		.uleb128 0x2
 4628 0fe4 91       		.byte	0x91
 4629 0fe5 74       		.sleb128 -12
 4630 0fe6 00       		.byte	0
 4631 0fe7 2C       		.uleb128 0x2c
 4632 0fe8 F7000000 		.4byte	.LASF239
 4633 0fec 04       		.byte	0x4
 4634 0fed AE02     		.2byte	0x2ae
 4635 0fef 09010000 		.4byte	0x109
 4636 0ff3 00000000 		.4byte	.LFB246
 4637 0ff7 18000000 		.4byte	.LFE246-.LFB246
 4638 0ffb 01       		.uleb128 0x1
 4639 0ffc 9C       		.byte	0x9c
 4640 0ffd 11100000 		.4byte	0x1011
 4641 1001 2D       		.uleb128 0x2d
 4642 1002 74727000 		.ascii	"trp\000"
 4643 1006 04       		.byte	0x4
 4644 1007 AE02     		.2byte	0x2ae
 4645 1009 620A0000 		.4byte	0xa62
 4646 100d 02       		.uleb128 0x2
 4647 100e 91       		.byte	0x91
 4648 100f 74       		.sleb128 -12
 4649 1010 00       		.byte	0
 4650 1011 29       		.uleb128 0x29
 4651 1012 A3010000 		.4byte	.LASF238
 4652 1016 04       		.byte	0x4
ARM GAS  C:\Users\Luis\AppData\Local\Temp\ccMHTq6a.s 			page 84


 4653 1017 D602     		.2byte	0x2d6
 4654 1019 00000000 		.4byte	.LFB248
 4655 101d 18000000 		.4byte	.LFE248-.LFB248
 4656 1021 01       		.uleb128 0x1
 4657 1022 9C       		.byte	0x9c
 4658 1023 46100000 		.4byte	0x1046
 4659 1027 2D       		.uleb128 0x2d
 4660 1028 74727000 		.ascii	"trp\000"
 4661 102c 04       		.byte	0x4
 4662 102d D602     		.2byte	0x2d6
 4663 102f 620A0000 		.4byte	0xa62
 4664 1033 02       		.uleb128 0x2
 4665 1034 91       		.byte	0x91
 4666 1035 74       		.sleb128 -12
 4667 1036 2D       		.uleb128 0x2d
 4668 1037 6D736700 		.ascii	"msg\000"
 4669 103b 04       		.byte	0x4
 4670 103c D602     		.2byte	0x2d6
 4671 103e 09010000 		.4byte	0x109
 4672 1042 02       		.uleb128 0x2
 4673 1043 91       		.byte	0x91
 4674 1044 70       		.sleb128 -16
 4675 1045 00       		.byte	0
 4676 1046 2E       		.uleb128 0x2e
 4677 1047 4A040000 		.4byte	.LASF240
 4678 104b 05       		.byte	0x5
 4679 104c 57       		.byte	0x57
 4680 104d EE0B0000 		.4byte	0xbee
 4681 1051 00000000 		.4byte	.LFB260
 4682 1055 A0000000 		.4byte	.LFE260-.LFB260
 4683 1059 01       		.uleb128 0x1
 4684 105a 9C       		.byte	0x9c
 4685 105b 99100000 		.4byte	0x1099
 4686 105f 2F       		.uleb128 0x2f
 4687 1060 C4010000 		.4byte	.LASF241
 4688 1064 05       		.byte	0x5
 4689 1065 57       		.byte	0x57
 4690 1066 99100000 		.4byte	0x1099
 4691 106a 02       		.uleb128 0x2
 4692 106b 91       		.byte	0x91
 4693 106c 74       		.sleb128 -12
 4694 106d 30       		.uleb128 0x30
 4695 106e 62756600 		.ascii	"buf\000"
 4696 1072 05       		.byte	0x5
 4697 1073 58       		.byte	0x58
 4698 1074 FC0A0000 		.4byte	0xafc
 4699 1078 02       		.uleb128 0x2
 4700 1079 91       		.byte	0x91
 4701 107a 70       		.sleb128 -16
 4702 107b 2F       		.uleb128 0x2f
 4703 107c CF030000 		.4byte	.LASF242
 4704 1080 05       		.byte	0x5
 4705 1081 58       		.byte	0x58
 4706 1082 A7000000 		.4byte	0xa7
 4707 1086 02       		.uleb128 0x2
 4708 1087 91       		.byte	0x91
 4709 1088 6C       		.sleb128 -20
ARM GAS  C:\Users\Luis\AppData\Local\Temp\ccMHTq6a.s 			page 85


 4710 1089 2A       		.uleb128 0x2a
 4711 108a CE000000 		.4byte	.LASF243
 4712 108e AF100000 		.4byte	0x10af
 4713 1092 05       		.uleb128 0x5
 4714 1093 03       		.byte	0x3
 4715 1094 00000000 		.4byte	__func__.8258
 4716 1098 00       		.byte	0
 4717 1099 06       		.uleb128 0x6
 4718 109a 04       		.byte	0x4
 4719 109b CA0C0000 		.4byte	0xcca
 4720 109f 13       		.uleb128 0x13
 4721 10a0 7F000000 		.4byte	0x7f
 4722 10a4 AF100000 		.4byte	0x10af
 4723 10a8 14       		.uleb128 0x14
 4724 10a9 6F000000 		.4byte	0x6f
 4725 10ad 1A       		.byte	0x1a
 4726 10ae 00       		.byte	0
 4727 10af 07       		.uleb128 0x7
 4728 10b0 9F100000 		.4byte	0x109f
 4729 10b4 2E       		.uleb128 0x2e
 4730 10b5 87090000 		.4byte	.LASF244
 4731 10b9 05       		.byte	0x5
 4732 10ba 87       		.byte	0x87
 4733 10bb EE0B0000 		.4byte	0xbee
 4734 10bf 00000000 		.4byte	.LFB261
 4735 10c3 78000000 		.4byte	.LFE261-.LFB261
 4736 10c7 01       		.uleb128 0x1
 4737 10c8 9C       		.byte	0x9c
 4738 10c9 04110000 		.4byte	0x1104
 4739 10cd 2F       		.uleb128 0x2f
 4740 10ce C4010000 		.4byte	.LASF241
 4741 10d2 05       		.byte	0x5
 4742 10d3 87       		.byte	0x87
 4743 10d4 99100000 		.4byte	0x1099
 4744 10d8 02       		.uleb128 0x2
 4745 10d9 91       		.byte	0x91
 4746 10da 74       		.sleb128 -12
 4747 10db 2F       		.uleb128 0x2f
 4748 10dc D2010000 		.4byte	.LASF245
 4749 10e0 05       		.byte	0x5
 4750 10e1 87       		.byte	0x87
 4751 10e2 A7000000 		.4byte	0xa7
 4752 10e6 02       		.uleb128 0x2
 4753 10e7 91       		.byte	0x91
 4754 10e8 70       		.sleb128 -16
 4755 10e9 30       		.uleb128 0x30
 4756 10ea 6E00     		.ascii	"n\000"
 4757 10ec 05       		.byte	0x5
 4758 10ed 88       		.byte	0x88
 4759 10ee A7000000 		.4byte	0xa7
 4760 10f2 02       		.uleb128 0x2
 4761 10f3 91       		.byte	0x91
 4762 10f4 6C       		.sleb128 -20
 4763 10f5 2F       		.uleb128 0x2f
 4764 10f6 32020000 		.4byte	.LASF246
 4765 10fa 05       		.byte	0x5
 4766 10fb 88       		.byte	0x88
ARM GAS  C:\Users\Luis\AppData\Local\Temp\ccMHTq6a.s 			page 86


 4767 10fc 04110000 		.4byte	0x1104
 4768 1100 02       		.uleb128 0x2
 4769 1101 91       		.byte	0x91
 4770 1102 68       		.sleb128 -24
 4771 1103 00       		.byte	0
 4772 1104 06       		.uleb128 0x6
 4773 1105 04       		.byte	0x4
 4774 1106 A7000000 		.4byte	0xa7
 4775 110a 2E       		.uleb128 0x2e
 4776 110b 8C040000 		.4byte	.LASF247
 4777 110f 05       		.byte	0x5
 4778 1110 AD       		.byte	0xad
 4779 1111 EE0B0000 		.4byte	0xbee
 4780 1115 00000000 		.4byte	.LFB262
 4781 1119 78000000 		.4byte	.LFE262-.LFB262
 4782 111d 01       		.uleb128 0x1
 4783 111e 9C       		.byte	0x9c
 4784 111f 5A110000 		.4byte	0x115a
 4785 1123 2F       		.uleb128 0x2f
 4786 1124 C4010000 		.4byte	.LASF241
 4787 1128 05       		.byte	0x5
 4788 1129 AD       		.byte	0xad
 4789 112a 99100000 		.4byte	0x1099
 4790 112e 02       		.uleb128 0x2
 4791 112f 91       		.byte	0x91
 4792 1130 74       		.sleb128 -12
 4793 1131 2F       		.uleb128 0x2f
 4794 1132 D2010000 		.4byte	.LASF245
 4795 1136 05       		.byte	0x5
 4796 1137 AD       		.byte	0xad
 4797 1138 A7000000 		.4byte	0xa7
 4798 113c 02       		.uleb128 0x2
 4799 113d 91       		.byte	0x91
 4800 113e 70       		.sleb128 -16
 4801 113f 30       		.uleb128 0x30
 4802 1140 6E00     		.ascii	"n\000"
 4803 1142 05       		.byte	0x5
 4804 1143 AE       		.byte	0xae
 4805 1144 A7000000 		.4byte	0xa7
 4806 1148 02       		.uleb128 0x2
 4807 1149 91       		.byte	0x91
 4808 114a 6C       		.sleb128 -20
 4809 114b 2F       		.uleb128 0x2f
 4810 114c 32020000 		.4byte	.LASF246
 4811 1150 05       		.byte	0x5
 4812 1151 AE       		.byte	0xae
 4813 1152 04110000 		.4byte	0x1104
 4814 1156 02       		.uleb128 0x2
 4815 1157 91       		.byte	0x91
 4816 1158 68       		.sleb128 -24
 4817 1159 00       		.byte	0
 4818 115a 2E       		.uleb128 0x2e
 4819 115b 5F060000 		.4byte	.LASF248
 4820 115f 05       		.byte	0x5
 4821 1160 D0       		.byte	0xd0
 4822 1161 EE0B0000 		.4byte	0xbee
 4823 1165 00000000 		.4byte	.LFB263
ARM GAS  C:\Users\Luis\AppData\Local\Temp\ccMHTq6a.s 			page 87


 4824 1169 98000000 		.4byte	.LFE263-.LFB263
 4825 116d 01       		.uleb128 0x1
 4826 116e 9C       		.byte	0x9c
 4827 116f 9C110000 		.4byte	0x119c
 4828 1173 2F       		.uleb128 0x2f
 4829 1174 C4010000 		.4byte	.LASF241
 4830 1178 05       		.byte	0x5
 4831 1179 D0       		.byte	0xd0
 4832 117a 99100000 		.4byte	0x1099
 4833 117e 02       		.uleb128 0x2
 4834 117f 91       		.byte	0x91
 4835 1180 74       		.sleb128 -12
 4836 1181 30       		.uleb128 0x30
 4837 1182 6E00     		.ascii	"n\000"
 4838 1184 05       		.byte	0x5
 4839 1185 D0       		.byte	0xd0
 4840 1186 A7000000 		.4byte	0xa7
 4841 118a 02       		.uleb128 0x2
 4842 118b 91       		.byte	0x91
 4843 118c 70       		.sleb128 -16
 4844 118d 2F       		.uleb128 0x2f
 4845 118e 32020000 		.4byte	.LASF246
 4846 1192 05       		.byte	0x5
 4847 1193 D1       		.byte	0xd1
 4848 1194 04110000 		.4byte	0x1104
 4849 1198 02       		.uleb128 0x2
 4850 1199 91       		.byte	0x91
 4851 119a 6C       		.sleb128 -20
 4852 119b 00       		.byte	0
 4853 119c 25       		.uleb128 0x25
 4854 119d F0020000 		.4byte	.LASF249
 4855 11a1 05       		.byte	0x5
 4856 11a2 0501     		.2byte	0x105
 4857 11a4 00000000 		.4byte	.LFB264
 4858 11a8 A2000000 		.4byte	.LFE264-.LFB264
 4859 11ac 01       		.uleb128 0x1
 4860 11ad 9C       		.byte	0x9c
 4861 11ae E0110000 		.4byte	0x11e0
 4862 11b2 2B       		.uleb128 0x2b
 4863 11b3 C4010000 		.4byte	.LASF241
 4864 11b7 05       		.byte	0x5
 4865 11b8 0501     		.2byte	0x105
 4866 11ba 99100000 		.4byte	0x1099
 4867 11be 02       		.uleb128 0x2
 4868 11bf 91       		.byte	0x91
 4869 11c0 6C       		.sleb128 -20
 4870 11c1 2D       		.uleb128 0x2d
 4871 11c2 73746100 		.ascii	"sta\000"
 4872 11c6 05       		.byte	0x5
 4873 11c7 0501     		.2byte	0x105
 4874 11c9 A7000000 		.4byte	0xa7
 4875 11cd 02       		.uleb128 0x2
 4876 11ce 91       		.byte	0x91
 4877 11cf 68       		.sleb128 -24
 4878 11d0 31       		.uleb128 0x31
 4879 11d1 38040000 		.4byte	.LASF207
 4880 11d5 05       		.byte	0x5
ARM GAS  C:\Users\Luis\AppData\Local\Temp\ccMHTq6a.s 			page 88


 4881 11d6 0601     		.2byte	0x106
 4882 11d8 A7000000 		.4byte	0xa7
 4883 11dc 02       		.uleb128 0x2
 4884 11dd 91       		.byte	0x91
 4885 11de 74       		.sleb128 -12
 4886 11df 00       		.byte	0
 4887 11e0 29       		.uleb128 0x29
 4888 11e1 F8010000 		.4byte	.LASF250
 4889 11e5 05       		.byte	0x5
 4890 11e6 2301     		.2byte	0x123
 4891 11e8 00000000 		.4byte	.LFB265
 4892 11ec A0000000 		.4byte	.LFE265-.LFB265
 4893 11f0 01       		.uleb128 0x1
 4894 11f1 9C       		.byte	0x9c
 4895 11f2 31120000 		.4byte	0x1231
 4896 11f6 2B       		.uleb128 0x2b
 4897 11f7 C4010000 		.4byte	.LASF241
 4898 11fb 05       		.byte	0x5
 4899 11fc 2301     		.2byte	0x123
 4900 11fe 99100000 		.4byte	0x1099
 4901 1202 02       		.uleb128 0x2
 4902 1203 91       		.byte	0x91
 4903 1204 6C       		.sleb128 -20
 4904 1205 2D       		.uleb128 0x2d
 4905 1206 6E00     		.ascii	"n\000"
 4906 1208 05       		.byte	0x5
 4907 1209 2401     		.2byte	0x124
 4908 120b A7000000 		.4byte	0xa7
 4909 120f 02       		.uleb128 0x2
 4910 1210 91       		.byte	0x91
 4911 1211 68       		.sleb128 -24
 4912 1212 2B       		.uleb128 0x2b
 4913 1213 32020000 		.4byte	.LASF246
 4914 1217 05       		.byte	0x5
 4915 1218 2501     		.2byte	0x125
 4916 121a 04110000 		.4byte	0x1104
 4917 121e 02       		.uleb128 0x2
 4918 121f 91       		.byte	0x91
 4919 1220 64       		.sleb128 -28
 4920 1221 32       		.uleb128 0x32
 4921 1222 73746100 		.ascii	"sta\000"
 4922 1226 05       		.byte	0x5
 4923 1227 2601     		.2byte	0x126
 4924 1229 A7000000 		.4byte	0xa7
 4925 122d 02       		.uleb128 0x2
 4926 122e 91       		.byte	0x91
 4927 122f 74       		.sleb128 -12
 4928 1230 00       		.byte	0
 4929 1231 33       		.uleb128 0x33
 4930 1232 25090000 		.4byte	.LASF251
 4931 1236 05       		.byte	0x5
 4932 1237 4001     		.2byte	0x140
 4933 1239 00000000 		.4byte	.LFB266
 4934 123d 34000000 		.4byte	.LFE266-.LFB266
 4935 1241 01       		.uleb128 0x1
 4936 1242 9C       		.byte	0x9c
 4937 1243 33       		.uleb128 0x33
ARM GAS  C:\Users\Luis\AppData\Local\Temp\ccMHTq6a.s 			page 89


 4938 1244 E3020000 		.4byte	.LASF252
 4939 1248 05       		.byte	0x5
 4940 1249 5A01     		.2byte	0x15a
 4941 124b 00000000 		.4byte	.LFB267
 4942 124f 2C000000 		.4byte	.LFE267-.LFB267
 4943 1253 01       		.uleb128 0x1
 4944 1254 9C       		.byte	0x9c
 4945 1255 34       		.uleb128 0x34
 4946 1256 51060000 		.4byte	.LASF253
 4947 125a 05       		.byte	0x5
 4948 125b 6901     		.2byte	0x169
 4949 125d 00000000 		.4byte	.LFB268
 4950 1261 B8000000 		.4byte	.LFE268-.LFB268
 4951 1265 01       		.uleb128 0x1
 4952 1266 9C       		.byte	0x9c
 4953 1267 A1120000 		.4byte	0x12a1
 4954 126b 2B       		.uleb128 0x2b
 4955 126c C4010000 		.4byte	.LASF241
 4956 1270 05       		.byte	0x5
 4957 1271 6901     		.2byte	0x169
 4958 1273 99100000 		.4byte	0x1099
 4959 1277 02       		.uleb128 0x2
 4960 1278 91       		.byte	0x91
 4961 1279 6C       		.sleb128 -20
 4962 127a 2A       		.uleb128 0x2a
 4963 127b CE000000 		.4byte	.LASF243
 4964 127f B1120000 		.4byte	0x12b1
 4965 1283 05       		.uleb128 0x5
 4966 1284 03       		.byte	0x3
 4967 1285 00000000 		.4byte	__func__.8303
 4968 1289 35       		.uleb128 0x35
 4969 128a 34000000 		.4byte	.LBB10
 4970 128e 4C000000 		.4byte	.LBE10-.LBB10
 4971 1292 32       		.uleb128 0x32
 4972 1293 6200     		.ascii	"b\000"
 4973 1295 05       		.byte	0x5
 4974 1296 7E01     		.2byte	0x17e
 4975 1298 EE0B0000 		.4byte	0xbee
 4976 129c 02       		.uleb128 0x2
 4977 129d 91       		.byte	0x91
 4978 129e 77       		.sleb128 -9
 4979 129f 00       		.byte	0
 4980 12a0 00       		.byte	0
 4981 12a1 13       		.uleb128 0x13
 4982 12a2 7F000000 		.4byte	0x7f
 4983 12a6 B1120000 		.4byte	0x12b1
 4984 12aa 14       		.uleb128 0x14
 4985 12ab 6F000000 		.4byte	0x6f
 4986 12af 0D       		.byte	0xd
 4987 12b0 00       		.byte	0
 4988 12b1 07       		.uleb128 0x7
 4989 12b2 A1120000 		.4byte	0x12a1
 4990 12b6 34       		.uleb128 0x34
 4991 12b7 B1090000 		.4byte	.LASF254
 4992 12bb 05       		.byte	0x5
 4993 12bc 9701     		.2byte	0x197
 4994 12be 00000000 		.4byte	.LFB269
ARM GAS  C:\Users\Luis\AppData\Local\Temp\ccMHTq6a.s 			page 90


 4995 12c2 58000000 		.4byte	.LFE269-.LFB269
 4996 12c6 01       		.uleb128 0x1
 4997 12c7 9C       		.byte	0x9c
 4998 12c8 DC120000 		.4byte	0x12dc
 4999 12cc 2B       		.uleb128 0x2b
 5000 12cd C4010000 		.4byte	.LASF241
 5001 12d1 05       		.byte	0x5
 5002 12d2 9701     		.2byte	0x197
 5003 12d4 99100000 		.4byte	0x1099
 5004 12d8 02       		.uleb128 0x2
 5005 12d9 91       		.byte	0x91
 5006 12da 74       		.sleb128 -12
 5007 12db 00       		.byte	0
 5008 12dc 34       		.uleb128 0x34
 5009 12dd 13030000 		.4byte	.LASF255
 5010 12e1 05       		.byte	0x5
 5011 12e2 AF01     		.2byte	0x1af
 5012 12e4 00000000 		.4byte	.LFB270
 5013 12e8 3C000000 		.4byte	.LFE270-.LFB270
 5014 12ec 01       		.uleb128 0x1
 5015 12ed 9C       		.byte	0x9c
 5016 12ee 02130000 		.4byte	0x1302
 5017 12f2 2B       		.uleb128 0x2b
 5018 12f3 C4010000 		.4byte	.LASF241
 5019 12f7 05       		.byte	0x5
 5020 12f8 AF01     		.2byte	0x1af
 5021 12fa 99100000 		.4byte	0x1099
 5022 12fe 02       		.uleb128 0x2
 5023 12ff 91       		.byte	0x91
 5024 1300 74       		.sleb128 -12
 5025 1301 00       		.byte	0
 5026 1302 36       		.uleb128 0x36
 5027 1303 EE050000 		.4byte	.LASF256
 5028 1307 05       		.byte	0x5
 5029 1308 C201     		.2byte	0x1c2
 5030 130a 00000000 		.4byte	.LFB271
 5031 130e 26000000 		.4byte	.LFE271-.LFB271
 5032 1312 01       		.uleb128 0x1
 5033 1313 9C       		.byte	0x9c
 5034 1314 37130000 		.4byte	0x1337
 5035 1318 2B       		.uleb128 0x2b
 5036 1319 C4010000 		.4byte	.LASF241
 5037 131d 05       		.byte	0x5
 5038 131e C201     		.2byte	0x1c2
 5039 1320 99100000 		.4byte	0x1099
 5040 1324 02       		.uleb128 0x2
 5041 1325 91       		.byte	0x91
 5042 1326 74       		.sleb128 -12
 5043 1327 2D       		.uleb128 0x2d
 5044 1328 636C6B00 		.ascii	"clk\000"
 5045 132c 05       		.byte	0x5
 5046 132d C201     		.2byte	0x1c2
 5047 132f A90C0000 		.4byte	0xca9
 5048 1333 02       		.uleb128 0x2
 5049 1334 91       		.byte	0x91
 5050 1335 73       		.sleb128 -13
 5051 1336 00       		.byte	0
ARM GAS  C:\Users\Luis\AppData\Local\Temp\ccMHTq6a.s 			page 91


 5052 1337 36       		.uleb128 0x36
 5053 1338 7A000000 		.4byte	.LASF257
 5054 133c 05       		.byte	0x5
 5055 133d D801     		.2byte	0x1d8
 5056 133f 00000000 		.4byte	.LFB272
 5057 1343 22000000 		.4byte	.LFE272-.LFB272
 5058 1347 01       		.uleb128 0x1
 5059 1348 9C       		.byte	0x9c
 5060 1349 5D130000 		.4byte	0x135d
 5061 134d 2B       		.uleb128 0x2b
 5062 134e C4010000 		.4byte	.LASF241
 5063 1352 05       		.byte	0x5
 5064 1353 D801     		.2byte	0x1d8
 5065 1355 99100000 		.4byte	0x1099
 5066 1359 02       		.uleb128 0x2
 5067 135a 91       		.byte	0x91
 5068 135b 74       		.sleb128 -12
 5069 135c 00       		.byte	0
 5070 135d 36       		.uleb128 0x36
 5071 135e 3C070000 		.4byte	.LASF258
 5072 1362 05       		.byte	0x5
 5073 1363 E601     		.2byte	0x1e6
 5074 1365 00000000 		.4byte	.LFB273
 5075 1369 56000000 		.4byte	.LFE273-.LFB273
 5076 136d 01       		.uleb128 0x1
 5077 136e 9C       		.byte	0x9c
 5078 136f A1130000 		.4byte	0x13a1
 5079 1373 2B       		.uleb128 0x2b
 5080 1374 C4010000 		.4byte	.LASF241
 5081 1378 05       		.byte	0x5
 5082 1379 E601     		.2byte	0x1e6
 5083 137b 99100000 		.4byte	0x1099
 5084 137f 02       		.uleb128 0x2
 5085 1380 91       		.byte	0x91
 5086 1381 6C       		.sleb128 -20
 5087 1382 2B       		.uleb128 0x2b
 5088 1383 970B0000 		.4byte	.LASF259
 5089 1387 05       		.byte	0x5
 5090 1388 E601     		.2byte	0x1e6
 5091 138a 890C0000 		.4byte	0xc89
 5092 138e 02       		.uleb128 0x2
 5093 138f 91       		.byte	0x91
 5094 1390 6B       		.sleb128 -21
 5095 1391 32       		.uleb128 0x32
 5096 1392 636C6B00 		.ascii	"clk\000"
 5097 1396 05       		.byte	0x5
 5098 1397 E701     		.2byte	0x1e7
 5099 1399 A7000000 		.4byte	0xa7
 5100 139d 02       		.uleb128 0x2
 5101 139e 91       		.byte	0x91
 5102 139f 74       		.sleb128 -12
 5103 13a0 00       		.byte	0
 5104 13a1 36       		.uleb128 0x36
 5105 13a2 C90A0000 		.4byte	.LASF260
 5106 13a6 05       		.byte	0x5
 5107 13a7 FF01     		.2byte	0x1ff
 5108 13a9 00000000 		.4byte	.LFB274
ARM GAS  C:\Users\Luis\AppData\Local\Temp\ccMHTq6a.s 			page 92


 5109 13ad 44000000 		.4byte	.LFE274-.LFB274
 5110 13b1 01       		.uleb128 0x1
 5111 13b2 9C       		.byte	0x9c
 5112 13b3 E5130000 		.4byte	0x13e5
 5113 13b7 2B       		.uleb128 0x2b
 5114 13b8 C4010000 		.4byte	.LASF241
 5115 13bc 05       		.byte	0x5
 5116 13bd FF01     		.2byte	0x1ff
 5117 13bf 99100000 		.4byte	0x1099
 5118 13c3 02       		.uleb128 0x2
 5119 13c4 91       		.byte	0x91
 5120 13c5 74       		.sleb128 -12
 5121 13c6 2D       		.uleb128 0x2d
 5122 13c7 636D6400 		.ascii	"cmd\000"
 5123 13cb 05       		.byte	0x5
 5124 13cc FF01     		.2byte	0x1ff
 5125 13ce 91000000 		.4byte	0x91
 5126 13d2 02       		.uleb128 0x2
 5127 13d3 91       		.byte	0x91
 5128 13d4 73       		.sleb128 -13
 5129 13d5 2D       		.uleb128 0x2d
 5130 13d6 61726700 		.ascii	"arg\000"
 5131 13da 05       		.byte	0x5
 5132 13db FF01     		.2byte	0x1ff
 5133 13dd A7000000 		.4byte	0xa7
 5134 13e1 02       		.uleb128 0x2
 5135 13e2 91       		.byte	0x91
 5136 13e3 6C       		.sleb128 -20
 5137 13e4 00       		.byte	0
 5138 13e5 37       		.uleb128 0x37
 5139 13e6 B3060000 		.4byte	.LASF261
 5140 13ea 05       		.byte	0x5
 5141 13eb 1702     		.2byte	0x217
 5142 13ed EE0B0000 		.4byte	0xbee
 5143 13f1 00000000 		.4byte	.LFB275
 5144 13f5 74000000 		.4byte	.LFE275-.LFB275
 5145 13f9 01       		.uleb128 0x1
 5146 13fa 9C       		.byte	0x9c
 5147 13fb 4B140000 		.4byte	0x144b
 5148 13ff 2B       		.uleb128 0x2b
 5149 1400 C4010000 		.4byte	.LASF241
 5150 1404 05       		.byte	0x5
 5151 1405 1702     		.2byte	0x217
 5152 1407 99100000 		.4byte	0x1099
 5153 140b 02       		.uleb128 0x2
 5154 140c 91       		.byte	0x91
 5155 140d 6C       		.sleb128 -20
 5156 140e 2D       		.uleb128 0x2d
 5157 140f 636D6400 		.ascii	"cmd\000"
 5158 1413 05       		.byte	0x5
 5159 1414 1702     		.2byte	0x217
 5160 1416 91000000 		.4byte	0x91
 5161 141a 02       		.uleb128 0x2
 5162 141b 91       		.byte	0x91
 5163 141c 6B       		.sleb128 -21
 5164 141d 2D       		.uleb128 0x2d
 5165 141e 61726700 		.ascii	"arg\000"
ARM GAS  C:\Users\Luis\AppData\Local\Temp\ccMHTq6a.s 			page 93


 5166 1422 05       		.byte	0x5
 5167 1423 1702     		.2byte	0x217
 5168 1425 A7000000 		.4byte	0xa7
 5169 1429 02       		.uleb128 0x2
 5170 142a 91       		.byte	0x91
 5171 142b 64       		.sleb128 -28
 5172 142c 2B       		.uleb128 0x2b
 5173 142d 32020000 		.4byte	.LASF246
 5174 1431 05       		.byte	0x5
 5175 1432 1802     		.2byte	0x218
 5176 1434 04110000 		.4byte	0x1104
 5177 1438 02       		.uleb128 0x2
 5178 1439 91       		.byte	0x91
 5179 143a 60       		.sleb128 -32
 5180 143b 32       		.uleb128 0x32
 5181 143c 73746100 		.ascii	"sta\000"
 5182 1440 05       		.byte	0x5
 5183 1441 1902     		.2byte	0x219
 5184 1443 A7000000 		.4byte	0xa7
 5185 1447 02       		.uleb128 0x2
 5186 1448 91       		.byte	0x91
 5187 1449 74       		.sleb128 -12
 5188 144a 00       		.byte	0
 5189 144b 37       		.uleb128 0x37
 5190 144c 6D0A0000 		.4byte	.LASF262
 5191 1450 05       		.byte	0x5
 5192 1451 3802     		.2byte	0x238
 5193 1453 EE0B0000 		.4byte	0xbee
 5194 1457 00000000 		.4byte	.LFB276
 5195 145b 74000000 		.4byte	.LFE276-.LFB276
 5196 145f 01       		.uleb128 0x1
 5197 1460 9C       		.byte	0x9c
 5198 1461 B1140000 		.4byte	0x14b1
 5199 1465 2B       		.uleb128 0x2b
 5200 1466 C4010000 		.4byte	.LASF241
 5201 146a 05       		.byte	0x5
 5202 146b 3802     		.2byte	0x238
 5203 146d 99100000 		.4byte	0x1099
 5204 1471 02       		.uleb128 0x2
 5205 1472 91       		.byte	0x91
 5206 1473 6C       		.sleb128 -20
 5207 1474 2D       		.uleb128 0x2d
 5208 1475 636D6400 		.ascii	"cmd\000"
 5209 1479 05       		.byte	0x5
 5210 147a 3802     		.2byte	0x238
 5211 147c 91000000 		.4byte	0x91
 5212 1480 02       		.uleb128 0x2
 5213 1481 91       		.byte	0x91
 5214 1482 6B       		.sleb128 -21
 5215 1483 2D       		.uleb128 0x2d
 5216 1484 61726700 		.ascii	"arg\000"
 5217 1488 05       		.byte	0x5
 5218 1489 3802     		.2byte	0x238
 5219 148b A7000000 		.4byte	0xa7
 5220 148f 02       		.uleb128 0x2
 5221 1490 91       		.byte	0x91
 5222 1491 64       		.sleb128 -28
ARM GAS  C:\Users\Luis\AppData\Local\Temp\ccMHTq6a.s 			page 94


 5223 1492 2B       		.uleb128 0x2b
 5224 1493 32020000 		.4byte	.LASF246
 5225 1497 05       		.byte	0x5
 5226 1498 3902     		.2byte	0x239
 5227 149a 04110000 		.4byte	0x1104
 5228 149e 02       		.uleb128 0x2
 5229 149f 91       		.byte	0x91
 5230 14a0 60       		.sleb128 -32
 5231 14a1 32       		.uleb128 0x32
 5232 14a2 73746100 		.ascii	"sta\000"
 5233 14a6 05       		.byte	0x5
 5234 14a7 3A02     		.2byte	0x23a
 5235 14a9 A7000000 		.4byte	0xa7
 5236 14ad 02       		.uleb128 0x2
 5237 14ae 91       		.byte	0x91
 5238 14af 74       		.sleb128 -12
 5239 14b0 00       		.byte	0
 5240 14b1 37       		.uleb128 0x37
 5241 14b2 D7000000 		.4byte	.LASF263
 5242 14b6 05       		.byte	0x5
 5243 14b7 5802     		.2byte	0x258
 5244 14b9 EE0B0000 		.4byte	0xbee
 5245 14bd 00000000 		.4byte	.LFB277
 5246 14c1 9E000000 		.4byte	.LFE277-.LFB277
 5247 14c5 01       		.uleb128 0x1
 5248 14c6 9C       		.byte	0x9c
 5249 14c7 17150000 		.4byte	0x1517
 5250 14cb 2B       		.uleb128 0x2b
 5251 14cc C4010000 		.4byte	.LASF241
 5252 14d0 05       		.byte	0x5
 5253 14d1 5802     		.2byte	0x258
 5254 14d3 99100000 		.4byte	0x1099
 5255 14d7 02       		.uleb128 0x2
 5256 14d8 91       		.byte	0x91
 5257 14d9 6C       		.sleb128 -20
 5258 14da 2D       		.uleb128 0x2d
 5259 14db 636D6400 		.ascii	"cmd\000"
 5260 14df 05       		.byte	0x5
 5261 14e0 5802     		.2byte	0x258
 5262 14e2 91000000 		.4byte	0x91
 5263 14e6 02       		.uleb128 0x2
 5264 14e7 91       		.byte	0x91
 5265 14e8 6B       		.sleb128 -21
 5266 14e9 2D       		.uleb128 0x2d
 5267 14ea 61726700 		.ascii	"arg\000"
 5268 14ee 05       		.byte	0x5
 5269 14ef 5802     		.2byte	0x258
 5270 14f1 A7000000 		.4byte	0xa7
 5271 14f5 02       		.uleb128 0x2
 5272 14f6 91       		.byte	0x91
 5273 14f7 64       		.sleb128 -28
 5274 14f8 2B       		.uleb128 0x2b
 5275 14f9 32020000 		.4byte	.LASF246
 5276 14fd 05       		.byte	0x5
 5277 14fe 5902     		.2byte	0x259
 5278 1500 04110000 		.4byte	0x1104
 5279 1504 02       		.uleb128 0x2
ARM GAS  C:\Users\Luis\AppData\Local\Temp\ccMHTq6a.s 			page 95


 5280 1505 91       		.byte	0x91
 5281 1506 60       		.sleb128 -32
 5282 1507 32       		.uleb128 0x32
 5283 1508 73746100 		.ascii	"sta\000"
 5284 150c 05       		.byte	0x5
 5285 150d 5A02     		.2byte	0x25a
 5286 150f A7000000 		.4byte	0xa7
 5287 1513 02       		.uleb128 0x2
 5288 1514 91       		.byte	0x91
 5289 1515 74       		.sleb128 -12
 5290 1516 00       		.byte	0
 5291 1517 37       		.uleb128 0x37
 5292 1518 04050000 		.4byte	.LASF264
 5293 151c 05       		.byte	0x5
 5294 151d 8202     		.2byte	0x282
 5295 151f EE0B0000 		.4byte	0xbee
 5296 1523 00000000 		.4byte	.LFB278
 5297 1527 78000000 		.4byte	.LFE278-.LFB278
 5298 152b 01       		.uleb128 0x1
 5299 152c 9C       		.byte	0x9c
 5300 152d 98150000 		.4byte	0x1598
 5301 1531 2B       		.uleb128 0x2b
 5302 1532 C4010000 		.4byte	.LASF241
 5303 1536 05       		.byte	0x5
 5304 1537 8202     		.2byte	0x282
 5305 1539 99100000 		.4byte	0x1099
 5306 153d 02       		.uleb128 0x2
 5307 153e 91       		.byte	0x91
 5308 153f 6C       		.sleb128 -20
 5309 1540 2D       		.uleb128 0x2d
 5310 1541 62756600 		.ascii	"buf\000"
 5311 1545 05       		.byte	0x5
 5312 1546 8202     		.2byte	0x282
 5313 1548 FC0A0000 		.4byte	0xafc
 5314 154c 02       		.uleb128 0x2
 5315 154d 91       		.byte	0x91
 5316 154e 68       		.sleb128 -24
 5317 154f 2B       		.uleb128 0x2b
 5318 1550 CF030000 		.4byte	.LASF242
 5319 1554 05       		.byte	0x5
 5320 1555 8202     		.2byte	0x282
 5321 1557 2C000000 		.4byte	0x2c
 5322 155b 02       		.uleb128 0x2
 5323 155c 91       		.byte	0x91
 5324 155d 64       		.sleb128 -28
 5325 155e 2D       		.uleb128 0x2d
 5326 155f 636D6400 		.ascii	"cmd\000"
 5327 1563 05       		.byte	0x5
 5328 1564 8302     		.2byte	0x283
 5329 1566 91000000 		.4byte	0x91
 5330 156a 02       		.uleb128 0x2
 5331 156b 91       		.byte	0x91
 5332 156c 63       		.sleb128 -29
 5333 156d 2D       		.uleb128 0x2d
 5334 156e 61726700 		.ascii	"arg\000"
 5335 1572 05       		.byte	0x5
 5336 1573 8302     		.2byte	0x283
ARM GAS  C:\Users\Luis\AppData\Local\Temp\ccMHTq6a.s 			page 96


 5337 1575 A7000000 		.4byte	0xa7
 5338 1579 02       		.uleb128 0x2
 5339 157a 91       		.byte	0x91
 5340 157b 00       		.sleb128 0
 5341 157c 31       		.uleb128 0x31
 5342 157d 32020000 		.4byte	.LASF246
 5343 1581 05       		.byte	0x5
 5344 1582 8402     		.2byte	0x284
 5345 1584 D8040000 		.4byte	0x4d8
 5346 1588 02       		.uleb128 0x2
 5347 1589 91       		.byte	0x91
 5348 158a 74       		.sleb128 -12
 5349 158b 38       		.uleb128 0x38
 5350 158c 8C020000 		.4byte	.LASF267
 5351 1590 05       		.byte	0x5
 5352 1591 9202     		.2byte	0x292
 5353 1593 5A000000 		.4byte	.L105
 5354 1597 00       		.byte	0
 5355 1598 37       		.uleb128 0x37
 5356 1599 3E0C0000 		.4byte	.LASF265
 5357 159d 05       		.byte	0x5
 5358 159e A502     		.2byte	0x2a5
 5359 15a0 EE0B0000 		.4byte	0xbee
 5360 15a4 00000000 		.4byte	.LFB279
 5361 15a8 E4000000 		.4byte	.LFE279-.LFB279
 5362 15ac 01       		.uleb128 0x1
 5363 15ad 9C       		.byte	0x9c
 5364 15ae 19160000 		.4byte	0x1619
 5365 15b2 2B       		.uleb128 0x2b
 5366 15b3 C4010000 		.4byte	.LASF241
 5367 15b7 05       		.byte	0x5
 5368 15b8 A502     		.2byte	0x2a5
 5369 15ba 99100000 		.4byte	0x1099
 5370 15be 02       		.uleb128 0x2
 5371 15bf 91       		.byte	0x91
 5372 15c0 6C       		.sleb128 -20
 5373 15c1 2B       		.uleb128 0x2b
 5374 15c2 D2010000 		.4byte	.LASF245
 5375 15c6 05       		.byte	0x5
 5376 15c7 A502     		.2byte	0x2a5
 5377 15c9 A7000000 		.4byte	0xa7
 5378 15cd 02       		.uleb128 0x2
 5379 15ce 91       		.byte	0x91
 5380 15cf 68       		.sleb128 -24
 5381 15d0 2D       		.uleb128 0x2d
 5382 15d1 62756600 		.ascii	"buf\000"
 5383 15d5 05       		.byte	0x5
 5384 15d6 A602     		.2byte	0x2a6
 5385 15d8 FC0A0000 		.4byte	0xafc
 5386 15dc 02       		.uleb128 0x2
 5387 15dd 91       		.byte	0x91
 5388 15de 64       		.sleb128 -28
 5389 15df 2B       		.uleb128 0x2b
 5390 15e0 180C0000 		.4byte	.LASF266
 5391 15e4 05       		.byte	0x5
 5392 15e5 A602     		.2byte	0x2a6
 5393 15e7 A7000000 		.4byte	0xa7
ARM GAS  C:\Users\Luis\AppData\Local\Temp\ccMHTq6a.s 			page 97


 5394 15eb 02       		.uleb128 0x2
 5395 15ec 91       		.byte	0x91
 5396 15ed 60       		.sleb128 -32
 5397 15ee 31       		.uleb128 0x31
 5398 15ef 32020000 		.4byte	.LASF246
 5399 15f3 05       		.byte	0x5
 5400 15f4 A702     		.2byte	0x2a7
 5401 15f6 D8040000 		.4byte	0x4d8
 5402 15fa 02       		.uleb128 0x2
 5403 15fb 91       		.byte	0x91
 5404 15fc 74       		.sleb128 -12
 5405 15fd 2A       		.uleb128 0x2a
 5406 15fe CE000000 		.4byte	.LASF243
 5407 1602 29160000 		.4byte	0x1629
 5408 1606 05       		.uleb128 0x5
 5409 1607 03       		.byte	0x3
 5410 1608 00000000 		.4byte	__func__.8380
 5411 160c 38       		.uleb128 0x38
 5412 160d 8C020000 		.4byte	.LASF267
 5413 1611 05       		.byte	0x5
 5414 1612 D002     		.2byte	0x2d0
 5415 1614 C0000000 		.4byte	.L116
 5416 1618 00       		.byte	0
 5417 1619 13       		.uleb128 0x13
 5418 161a 7F000000 		.4byte	0x7f
 5419 161e 29160000 		.4byte	0x1629
 5420 1622 14       		.uleb128 0x14
 5421 1623 6F000000 		.4byte	0x6f
 5422 1627 14       		.byte	0x14
 5423 1628 00       		.byte	0
 5424 1629 07       		.uleb128 0x7
 5425 162a 19160000 		.4byte	0x1619
 5426 162e 37       		.uleb128 0x37
 5427 162f 780B0000 		.4byte	.LASF268
 5428 1633 05       		.byte	0x5
 5429 1634 E302     		.2byte	0x2e3
 5430 1636 EE0B0000 		.4byte	0xbee
 5431 163a 00000000 		.4byte	.LFB280
 5432 163e E8000000 		.4byte	.LFE280-.LFB280
 5433 1642 01       		.uleb128 0x1
 5434 1643 9C       		.byte	0x9c
 5435 1644 AF160000 		.4byte	0x16af
 5436 1648 2B       		.uleb128 0x2b
 5437 1649 C4010000 		.4byte	.LASF241
 5438 164d 05       		.byte	0x5
 5439 164e E302     		.2byte	0x2e3
 5440 1650 99100000 		.4byte	0x1099
 5441 1654 02       		.uleb128 0x2
 5442 1655 91       		.byte	0x91
 5443 1656 6C       		.sleb128 -20
 5444 1657 2B       		.uleb128 0x2b
 5445 1658 D2010000 		.4byte	.LASF245
 5446 165c 05       		.byte	0x5
 5447 165d E302     		.2byte	0x2e3
 5448 165f A7000000 		.4byte	0xa7
 5449 1663 02       		.uleb128 0x2
 5450 1664 91       		.byte	0x91
ARM GAS  C:\Users\Luis\AppData\Local\Temp\ccMHTq6a.s 			page 98


 5451 1665 68       		.sleb128 -24
 5452 1666 2D       		.uleb128 0x2d
 5453 1667 62756600 		.ascii	"buf\000"
 5454 166b 05       		.byte	0x5
 5455 166c E402     		.2byte	0x2e4
 5456 166e 020B0000 		.4byte	0xb02
 5457 1672 02       		.uleb128 0x2
 5458 1673 91       		.byte	0x91
 5459 1674 64       		.sleb128 -28
 5460 1675 2B       		.uleb128 0x2b
 5461 1676 180C0000 		.4byte	.LASF266
 5462 167a 05       		.byte	0x5
 5463 167b E402     		.2byte	0x2e4
 5464 167d A7000000 		.4byte	0xa7
 5465 1681 02       		.uleb128 0x2
 5466 1682 91       		.byte	0x91
 5467 1683 60       		.sleb128 -32
 5468 1684 31       		.uleb128 0x31
 5469 1685 32020000 		.4byte	.LASF246
 5470 1689 05       		.byte	0x5
 5471 168a E502     		.2byte	0x2e5
 5472 168c D8040000 		.4byte	0x4d8
 5473 1690 02       		.uleb128 0x2
 5474 1691 91       		.byte	0x91
 5475 1692 74       		.sleb128 -12
 5476 1693 2A       		.uleb128 0x2a
 5477 1694 CE000000 		.4byte	.LASF243
 5478 1698 BF160000 		.4byte	0x16bf
 5479 169c 05       		.uleb128 0x5
 5480 169d 03       		.byte	0x3
 5481 169e 00000000 		.4byte	__func__.8389
 5482 16a2 38       		.uleb128 0x38
 5483 16a3 8C020000 		.4byte	.LASF267
 5484 16a7 05       		.byte	0x5
 5485 16a8 0E03     		.2byte	0x30e
 5486 16aa C4000000 		.4byte	.L126
 5487 16ae 00       		.byte	0
 5488 16af 13       		.uleb128 0x13
 5489 16b0 7F000000 		.4byte	0x7f
 5490 16b4 BF160000 		.4byte	0x16bf
 5491 16b8 14       		.uleb128 0x14
 5492 16b9 6F000000 		.4byte	0x6f
 5493 16bd 15       		.byte	0x15
 5494 16be 00       		.byte	0
 5495 16bf 07       		.uleb128 0x7
 5496 16c0 AF160000 		.4byte	0x16af
 5497 16c4 37       		.uleb128 0x37
 5498 16c5 DD090000 		.4byte	.LASF269
 5499 16c9 05       		.byte	0x5
 5500 16ca 2103     		.2byte	0x321
 5501 16cc EE0B0000 		.4byte	0xbee
 5502 16d0 00000000 		.4byte	.LFB281
 5503 16d4 84000000 		.4byte	.LFE281-.LFB281
 5504 16d8 01       		.uleb128 0x1
 5505 16d9 9C       		.byte	0x9c
 5506 16da 32170000 		.4byte	0x1732
 5507 16de 2B       		.uleb128 0x2b
ARM GAS  C:\Users\Luis\AppData\Local\Temp\ccMHTq6a.s 			page 99


 5508 16df C4010000 		.4byte	.LASF241
 5509 16e3 05       		.byte	0x5
 5510 16e4 2103     		.2byte	0x321
 5511 16e6 99100000 		.4byte	0x1099
 5512 16ea 02       		.uleb128 0x2
 5513 16eb 91       		.byte	0x91
 5514 16ec 6C       		.sleb128 -20
 5515 16ed 2B       		.uleb128 0x2b
 5516 16ee D2010000 		.4byte	.LASF245
 5517 16f2 05       		.byte	0x5
 5518 16f3 2103     		.2byte	0x321
 5519 16f5 A7000000 		.4byte	0xa7
 5520 16f9 02       		.uleb128 0x2
 5521 16fa 91       		.byte	0x91
 5522 16fb 68       		.sleb128 -24
 5523 16fc 2D       		.uleb128 0x2d
 5524 16fd 62756600 		.ascii	"buf\000"
 5525 1701 05       		.byte	0x5
 5526 1702 2203     		.2byte	0x322
 5527 1704 FC0A0000 		.4byte	0xafc
 5528 1708 02       		.uleb128 0x2
 5529 1709 91       		.byte	0x91
 5530 170a 64       		.sleb128 -28
 5531 170b 2B       		.uleb128 0x2b
 5532 170c 180C0000 		.4byte	.LASF266
 5533 1710 05       		.byte	0x5
 5534 1711 2203     		.2byte	0x322
 5535 1713 A7000000 		.4byte	0xa7
 5536 1717 02       		.uleb128 0x2
 5537 1718 91       		.byte	0x91
 5538 1719 60       		.sleb128 -32
 5539 171a 35       		.uleb128 0x35
 5540 171b 18000000 		.4byte	.LBB11
 5541 171f 52000000 		.4byte	.LBE11-.LBB11
 5542 1723 32       		.uleb128 0x32
 5543 1724 6900     		.ascii	"i\000"
 5544 1726 05       		.byte	0x5
 5545 1727 2603     		.2byte	0x326
 5546 1729 A7000000 		.4byte	0xa7
 5547 172d 02       		.uleb128 0x2
 5548 172e 91       		.byte	0x91
 5549 172f 74       		.sleb128 -12
 5550 1730 00       		.byte	0
 5551 1731 00       		.byte	0
 5552 1732 37       		.uleb128 0x37
 5553 1733 F0060000 		.4byte	.LASF270
 5554 1737 05       		.byte	0x5
 5555 1738 4203     		.2byte	0x342
 5556 173a EE0B0000 		.4byte	0xbee
 5557 173e 00000000 		.4byte	.LFB282
 5558 1742 84000000 		.4byte	.LFE282-.LFB282
 5559 1746 01       		.uleb128 0x1
 5560 1747 9C       		.byte	0x9c
 5561 1748 A0170000 		.4byte	0x17a0
 5562 174c 2B       		.uleb128 0x2b
 5563 174d C4010000 		.4byte	.LASF241
 5564 1751 05       		.byte	0x5
ARM GAS  C:\Users\Luis\AppData\Local\Temp\ccMHTq6a.s 			page 100


 5565 1752 4203     		.2byte	0x342
 5566 1754 99100000 		.4byte	0x1099
 5567 1758 02       		.uleb128 0x2
 5568 1759 91       		.byte	0x91
 5569 175a 6C       		.sleb128 -20
 5570 175b 2B       		.uleb128 0x2b
 5571 175c D2010000 		.4byte	.LASF245
 5572 1760 05       		.byte	0x5
 5573 1761 4203     		.2byte	0x342
 5574 1763 A7000000 		.4byte	0xa7
 5575 1767 02       		.uleb128 0x2
 5576 1768 91       		.byte	0x91
 5577 1769 68       		.sleb128 -24
 5578 176a 2D       		.uleb128 0x2d
 5579 176b 62756600 		.ascii	"buf\000"
 5580 176f 05       		.byte	0x5
 5581 1770 4303     		.2byte	0x343
 5582 1772 020B0000 		.4byte	0xb02
 5583 1776 02       		.uleb128 0x2
 5584 1777 91       		.byte	0x91
 5585 1778 64       		.sleb128 -28
 5586 1779 2B       		.uleb128 0x2b
 5587 177a 180C0000 		.4byte	.LASF266
 5588 177e 05       		.byte	0x5
 5589 177f 4303     		.2byte	0x343
 5590 1781 A7000000 		.4byte	0xa7
 5591 1785 02       		.uleb128 0x2
 5592 1786 91       		.byte	0x91
 5593 1787 60       		.sleb128 -32
 5594 1788 35       		.uleb128 0x35
 5595 1789 18000000 		.4byte	.LBB12
 5596 178d 52000000 		.4byte	.LBE12-.LBB12
 5597 1791 32       		.uleb128 0x32
 5598 1792 6900     		.ascii	"i\000"
 5599 1794 05       		.byte	0x5
 5600 1795 4703     		.2byte	0x347
 5601 1797 A7000000 		.4byte	0xa7
 5602 179b 02       		.uleb128 0x2
 5603 179c 91       		.byte	0x91
 5604 179d 74       		.sleb128 -12
 5605 179e 00       		.byte	0
 5606 179f 00       		.byte	0
 5607 17a0 39       		.uleb128 0x39
 5608 17a1 F6080000 		.4byte	.LASF271
 5609 17a5 05       		.byte	0x5
 5610 17a6 6003     		.2byte	0x360
 5611 17a8 EE0B0000 		.4byte	0xbee
 5612 17ac 00000000 		.4byte	.LFB283
 5613 17b0 16000000 		.4byte	.LFE283-.LFB283
 5614 17b4 01       		.uleb128 0x1
 5615 17b5 9C       		.byte	0x9c
 5616 17b6 CA170000 		.4byte	0x17ca
 5617 17ba 2B       		.uleb128 0x2b
 5618 17bb C4010000 		.4byte	.LASF241
 5619 17bf 05       		.byte	0x5
 5620 17c0 6003     		.2byte	0x360
 5621 17c2 99100000 		.4byte	0x1099
ARM GAS  C:\Users\Luis\AppData\Local\Temp\ccMHTq6a.s 			page 101


 5622 17c6 02       		.uleb128 0x2
 5623 17c7 91       		.byte	0x91
 5624 17c8 74       		.sleb128 -12
 5625 17c9 00       		.byte	0
 5626 17ca 3A       		.uleb128 0x3a
 5627 17cb 7500     		.ascii	"u\000"
 5628 17cd 05       		.byte	0x5
 5629 17ce 39       		.byte	0x39
 5630 17cf 390E0000 		.4byte	0xe39
 5631 17d3 05       		.uleb128 0x5
 5632 17d4 03       		.byte	0x3
 5633 17d5 00000000 		.4byte	u
 5634 17d9 3B       		.uleb128 0x3b
 5635 17da 18060000 		.4byte	.LASF272
 5636 17de 05       		.byte	0x5
 5637 17df 40       		.byte	0x40
 5638 17e0 2E0E0000 		.4byte	0xe2e
 5639 17e4 05       		.uleb128 0x5
 5640 17e5 03       		.byte	0x3
 5641 17e6 00000000 		.4byte	sdc_default_cfg
 5642 17ea 3C       		.uleb128 0x3c
 5643 17eb 04070000 		.4byte	.LASF273
 5644 17ef 16       		.byte	0x16
 5645 17f0 A706     		.2byte	0x6a7
 5646 17f2 BD000000 		.4byte	0xbd
 5647 17f6 3D       		.uleb128 0x3d
 5648 17f7 636800   		.ascii	"ch\000"
 5649 17fa 0A       		.byte	0xa
 5650 17fb 0902     		.2byte	0x209
 5651 17fd 3B040000 		.4byte	0x43b
 5652 1801 13       		.uleb128 0x13
 5653 1802 5E0B0000 		.4byte	0xb5e
 5654 1806 11180000 		.4byte	0x1811
 5655 180a 14       		.uleb128 0x14
 5656 180b 6F000000 		.4byte	0x6f
 5657 180f 0F       		.byte	0xf
 5658 1810 00       		.byte	0
 5659 1811 3C       		.uleb128 0x3c
 5660 1812 AD050000 		.4byte	.LASF274
 5661 1816 12       		.byte	0x12
 5662 1817 BB01     		.2byte	0x1bb
 5663 1819 1D180000 		.4byte	0x181d
 5664 181d 07       		.uleb128 0x7
 5665 181e 01180000 		.4byte	0x1801
 5666 1822 3E       		.uleb128 0x3e
 5667 1823 680B0000 		.4byte	.LASF275
 5668 1827 05       		.byte	0x5
 5669 1828 2C       		.byte	0x2c
 5670 1829 CA0C0000 		.4byte	0xcca
 5671 182d 05       		.uleb128 0x5
 5672 182e 03       		.byte	0x3
 5673 182f 00000000 		.4byte	SDCD1
 5674 1833 00       		.byte	0
 5675              		.section	.debug_abbrev,"",%progbits
 5676              	.Ldebug_abbrev0:
 5677 0000 01       		.uleb128 0x1
 5678 0001 11       		.uleb128 0x11
ARM GAS  C:\Users\Luis\AppData\Local\Temp\ccMHTq6a.s 			page 102


 5679 0002 01       		.byte	0x1
 5680 0003 25       		.uleb128 0x25
 5681 0004 0E       		.uleb128 0xe
 5682 0005 13       		.uleb128 0x13
 5683 0006 0B       		.uleb128 0xb
 5684 0007 03       		.uleb128 0x3
 5685 0008 0E       		.uleb128 0xe
 5686 0009 1B       		.uleb128 0x1b
 5687 000a 0E       		.uleb128 0xe
 5688 000b 55       		.uleb128 0x55
 5689 000c 17       		.uleb128 0x17
 5690 000d 11       		.uleb128 0x11
 5691 000e 01       		.uleb128 0x1
 5692 000f 10       		.uleb128 0x10
 5693 0010 17       		.uleb128 0x17
 5694 0011 00       		.byte	0
 5695 0012 00       		.byte	0
 5696 0013 02       		.uleb128 0x2
 5697 0014 24       		.uleb128 0x24
 5698 0015 00       		.byte	0
 5699 0016 0B       		.uleb128 0xb
 5700 0017 0B       		.uleb128 0xb
 5701 0018 3E       		.uleb128 0x3e
 5702 0019 0B       		.uleb128 0xb
 5703 001a 03       		.uleb128 0x3
 5704 001b 08       		.uleb128 0x8
 5705 001c 00       		.byte	0
 5706 001d 00       		.byte	0
 5707 001e 03       		.uleb128 0x3
 5708 001f 16       		.uleb128 0x16
 5709 0020 00       		.byte	0
 5710 0021 03       		.uleb128 0x3
 5711 0022 0E       		.uleb128 0xe
 5712 0023 3A       		.uleb128 0x3a
 5713 0024 0B       		.uleb128 0xb
 5714 0025 3B       		.uleb128 0x3b
 5715 0026 0B       		.uleb128 0xb
 5716 0027 49       		.uleb128 0x49
 5717 0028 13       		.uleb128 0x13
 5718 0029 00       		.byte	0
 5719 002a 00       		.byte	0
 5720 002b 04       		.uleb128 0x4
 5721 002c 24       		.uleb128 0x24
 5722 002d 00       		.byte	0
 5723 002e 0B       		.uleb128 0xb
 5724 002f 0B       		.uleb128 0xb
 5725 0030 3E       		.uleb128 0x3e
 5726 0031 0B       		.uleb128 0xb
 5727 0032 03       		.uleb128 0x3
 5728 0033 0E       		.uleb128 0xe
 5729 0034 00       		.byte	0
 5730 0035 00       		.byte	0
 5731 0036 05       		.uleb128 0x5
 5732 0037 0F       		.uleb128 0xf
 5733 0038 00       		.byte	0
 5734 0039 0B       		.uleb128 0xb
 5735 003a 0B       		.uleb128 0xb
ARM GAS  C:\Users\Luis\AppData\Local\Temp\ccMHTq6a.s 			page 103


 5736 003b 00       		.byte	0
 5737 003c 00       		.byte	0
 5738 003d 06       		.uleb128 0x6
 5739 003e 0F       		.uleb128 0xf
 5740 003f 00       		.byte	0
 5741 0040 0B       		.uleb128 0xb
 5742 0041 0B       		.uleb128 0xb
 5743 0042 49       		.uleb128 0x49
 5744 0043 13       		.uleb128 0x13
 5745 0044 00       		.byte	0
 5746 0045 00       		.byte	0
 5747 0046 07       		.uleb128 0x7
 5748 0047 26       		.uleb128 0x26
 5749 0048 00       		.byte	0
 5750 0049 49       		.uleb128 0x49
 5751 004a 13       		.uleb128 0x13
 5752 004b 00       		.byte	0
 5753 004c 00       		.byte	0
 5754 004d 08       		.uleb128 0x8
 5755 004e 35       		.uleb128 0x35
 5756 004f 00       		.byte	0
 5757 0050 49       		.uleb128 0x49
 5758 0051 13       		.uleb128 0x13
 5759 0052 00       		.byte	0
 5760 0053 00       		.byte	0
 5761 0054 09       		.uleb128 0x9
 5762 0055 13       		.uleb128 0x13
 5763 0056 01       		.byte	0x1
 5764 0057 03       		.uleb128 0x3
 5765 0058 0E       		.uleb128 0xe
 5766 0059 0B       		.uleb128 0xb
 5767 005a 0B       		.uleb128 0xb
 5768 005b 3A       		.uleb128 0x3a
 5769 005c 0B       		.uleb128 0xb
 5770 005d 3B       		.uleb128 0x3b
 5771 005e 0B       		.uleb128 0xb
 5772 005f 01       		.uleb128 0x1
 5773 0060 13       		.uleb128 0x13
 5774 0061 00       		.byte	0
 5775 0062 00       		.byte	0
 5776 0063 0A       		.uleb128 0xa
 5777 0064 0D       		.uleb128 0xd
 5778 0065 00       		.byte	0
 5779 0066 03       		.uleb128 0x3
 5780 0067 0E       		.uleb128 0xe
 5781 0068 3A       		.uleb128 0x3a
 5782 0069 0B       		.uleb128 0xb
 5783 006a 3B       		.uleb128 0x3b
 5784 006b 0B       		.uleb128 0xb
 5785 006c 49       		.uleb128 0x49
 5786 006d 13       		.uleb128 0x13
 5787 006e 38       		.uleb128 0x38
 5788 006f 0B       		.uleb128 0xb
 5789 0070 00       		.byte	0
 5790 0071 00       		.byte	0
 5791 0072 0B       		.uleb128 0xb
 5792 0073 0D       		.uleb128 0xd
ARM GAS  C:\Users\Luis\AppData\Local\Temp\ccMHTq6a.s 			page 104


 5793 0074 00       		.byte	0
 5794 0075 03       		.uleb128 0x3
 5795 0076 08       		.uleb128 0x8
 5796 0077 3A       		.uleb128 0x3a
 5797 0078 0B       		.uleb128 0xb
 5798 0079 3B       		.uleb128 0x3b
 5799 007a 05       		.uleb128 0x5
 5800 007b 49       		.uleb128 0x49
 5801 007c 13       		.uleb128 0x13
 5802 007d 38       		.uleb128 0x38
 5803 007e 0B       		.uleb128 0xb
 5804 007f 00       		.byte	0
 5805 0080 00       		.byte	0
 5806 0081 0C       		.uleb128 0xc
 5807 0082 0D       		.uleb128 0xd
 5808 0083 00       		.byte	0
 5809 0084 03       		.uleb128 0x3
 5810 0085 0E       		.uleb128 0xe
 5811 0086 3A       		.uleb128 0x3a
 5812 0087 0B       		.uleb128 0xb
 5813 0088 3B       		.uleb128 0x3b
 5814 0089 05       		.uleb128 0x5
 5815 008a 49       		.uleb128 0x49
 5816 008b 13       		.uleb128 0x13
 5817 008c 38       		.uleb128 0x38
 5818 008d 0B       		.uleb128 0xb
 5819 008e 00       		.byte	0
 5820 008f 00       		.byte	0
 5821 0090 0D       		.uleb128 0xd
 5822 0091 13       		.uleb128 0x13
 5823 0092 01       		.byte	0x1
 5824 0093 03       		.uleb128 0x3
 5825 0094 0E       		.uleb128 0xe
 5826 0095 0B       		.uleb128 0xb
 5827 0096 0B       		.uleb128 0xb
 5828 0097 3A       		.uleb128 0x3a
 5829 0098 0B       		.uleb128 0xb
 5830 0099 3B       		.uleb128 0x3b
 5831 009a 05       		.uleb128 0x5
 5832 009b 01       		.uleb128 0x1
 5833 009c 13       		.uleb128 0x13
 5834 009d 00       		.byte	0
 5835 009e 00       		.byte	0
 5836 009f 0E       		.uleb128 0xe
 5837 00a0 15       		.uleb128 0x15
 5838 00a1 01       		.byte	0x1
 5839 00a2 27       		.uleb128 0x27
 5840 00a3 19       		.uleb128 0x19
 5841 00a4 01       		.uleb128 0x1
 5842 00a5 13       		.uleb128 0x13
 5843 00a6 00       		.byte	0
 5844 00a7 00       		.byte	0
 5845 00a8 0F       		.uleb128 0xf
 5846 00a9 05       		.uleb128 0x5
 5847 00aa 00       		.byte	0
 5848 00ab 49       		.uleb128 0x49
 5849 00ac 13       		.uleb128 0x13
ARM GAS  C:\Users\Luis\AppData\Local\Temp\ccMHTq6a.s 			page 105


 5850 00ad 00       		.byte	0
 5851 00ae 00       		.byte	0
 5852 00af 10       		.uleb128 0x10
 5853 00b0 13       		.uleb128 0x13
 5854 00b1 01       		.byte	0x1
 5855 00b2 03       		.uleb128 0x3
 5856 00b3 0E       		.uleb128 0xe
 5857 00b4 0B       		.uleb128 0xb
 5858 00b5 05       		.uleb128 0x5
 5859 00b6 3A       		.uleb128 0x3a
 5860 00b7 0B       		.uleb128 0xb
 5861 00b8 3B       		.uleb128 0x3b
 5862 00b9 05       		.uleb128 0x5
 5863 00ba 01       		.uleb128 0x1
 5864 00bb 13       		.uleb128 0x13
 5865 00bc 00       		.byte	0
 5866 00bd 00       		.byte	0
 5867 00be 11       		.uleb128 0x11
 5868 00bf 0D       		.uleb128 0xd
 5869 00c0 00       		.byte	0
 5870 00c1 03       		.uleb128 0x3
 5871 00c2 0E       		.uleb128 0xe
 5872 00c3 3A       		.uleb128 0x3a
 5873 00c4 0B       		.uleb128 0xb
 5874 00c5 3B       		.uleb128 0x3b
 5875 00c6 05       		.uleb128 0x5
 5876 00c7 49       		.uleb128 0x49
 5877 00c8 13       		.uleb128 0x13
 5878 00c9 38       		.uleb128 0x38
 5879 00ca 05       		.uleb128 0x5
 5880 00cb 00       		.byte	0
 5881 00cc 00       		.byte	0
 5882 00cd 12       		.uleb128 0x12
 5883 00ce 0D       		.uleb128 0xd
 5884 00cf 00       		.byte	0
 5885 00d0 03       		.uleb128 0x3
 5886 00d1 08       		.uleb128 0x8
 5887 00d2 3A       		.uleb128 0x3a
 5888 00d3 0B       		.uleb128 0xb
 5889 00d4 3B       		.uleb128 0x3b
 5890 00d5 05       		.uleb128 0x5
 5891 00d6 49       		.uleb128 0x49
 5892 00d7 13       		.uleb128 0x13
 5893 00d8 38       		.uleb128 0x38
 5894 00d9 05       		.uleb128 0x5
 5895 00da 00       		.byte	0
 5896 00db 00       		.byte	0
 5897 00dc 13       		.uleb128 0x13
 5898 00dd 01       		.uleb128 0x1
 5899 00de 01       		.byte	0x1
 5900 00df 49       		.uleb128 0x49
 5901 00e0 13       		.uleb128 0x13
 5902 00e1 01       		.uleb128 0x1
 5903 00e2 13       		.uleb128 0x13
 5904 00e3 00       		.byte	0
 5905 00e4 00       		.byte	0
 5906 00e5 14       		.uleb128 0x14
ARM GAS  C:\Users\Luis\AppData\Local\Temp\ccMHTq6a.s 			page 106


 5907 00e6 21       		.uleb128 0x21
 5908 00e7 00       		.byte	0
 5909 00e8 49       		.uleb128 0x49
 5910 00e9 13       		.uleb128 0x13
 5911 00ea 2F       		.uleb128 0x2f
 5912 00eb 0B       		.uleb128 0xb
 5913 00ec 00       		.byte	0
 5914 00ed 00       		.byte	0
 5915 00ee 15       		.uleb128 0x15
 5916 00ef 13       		.uleb128 0x13
 5917 00f0 01       		.byte	0x1
 5918 00f1 0B       		.uleb128 0xb
 5919 00f2 0B       		.uleb128 0xb
 5920 00f3 3A       		.uleb128 0x3a
 5921 00f4 0B       		.uleb128 0xb
 5922 00f5 3B       		.uleb128 0x3b
 5923 00f6 05       		.uleb128 0x5
 5924 00f7 01       		.uleb128 0x1
 5925 00f8 13       		.uleb128 0x13
 5926 00f9 00       		.byte	0
 5927 00fa 00       		.byte	0
 5928 00fb 16       		.uleb128 0x16
 5929 00fc 16       		.uleb128 0x16
 5930 00fd 00       		.byte	0
 5931 00fe 03       		.uleb128 0x3
 5932 00ff 0E       		.uleb128 0xe
 5933 0100 3A       		.uleb128 0x3a
 5934 0101 0B       		.uleb128 0xb
 5935 0102 3B       		.uleb128 0x3b
 5936 0103 05       		.uleb128 0x5
 5937 0104 49       		.uleb128 0x49
 5938 0105 13       		.uleb128 0x13
 5939 0106 00       		.byte	0
 5940 0107 00       		.byte	0
 5941 0108 17       		.uleb128 0x17
 5942 0109 0D       		.uleb128 0xd
 5943 010a 00       		.byte	0
 5944 010b 03       		.uleb128 0x3
 5945 010c 08       		.uleb128 0x8
 5946 010d 3A       		.uleb128 0x3a
 5947 010e 0B       		.uleb128 0xb
 5948 010f 3B       		.uleb128 0x3b
 5949 0110 0B       		.uleb128 0xb
 5950 0111 49       		.uleb128 0x49
 5951 0112 13       		.uleb128 0x13
 5952 0113 38       		.uleb128 0x38
 5953 0114 0B       		.uleb128 0xb
 5954 0115 00       		.byte	0
 5955 0116 00       		.byte	0
 5956 0117 18       		.uleb128 0x18
 5957 0118 13       		.uleb128 0x13
 5958 0119 01       		.byte	0x1
 5959 011a 0B       		.uleb128 0xb
 5960 011b 0B       		.uleb128 0xb
 5961 011c 3A       		.uleb128 0x3a
 5962 011d 0B       		.uleb128 0xb
 5963 011e 3B       		.uleb128 0x3b
ARM GAS  C:\Users\Luis\AppData\Local\Temp\ccMHTq6a.s 			page 107


 5964 011f 0B       		.uleb128 0xb
 5965 0120 01       		.uleb128 0x1
 5966 0121 13       		.uleb128 0x13
 5967 0122 00       		.byte	0
 5968 0123 00       		.byte	0
 5969 0124 19       		.uleb128 0x19
 5970 0125 13       		.uleb128 0x13
 5971 0126 01       		.byte	0x1
 5972 0127 0B       		.uleb128 0xb
 5973 0128 05       		.uleb128 0x5
 5974 0129 3A       		.uleb128 0x3a
 5975 012a 0B       		.uleb128 0xb
 5976 012b 3B       		.uleb128 0x3b
 5977 012c 0B       		.uleb128 0xb
 5978 012d 01       		.uleb128 0x1
 5979 012e 13       		.uleb128 0x13
 5980 012f 00       		.byte	0
 5981 0130 00       		.byte	0
 5982 0131 1A       		.uleb128 0x1a
 5983 0132 17       		.uleb128 0x17
 5984 0133 01       		.byte	0x1
 5985 0134 0B       		.uleb128 0xb
 5986 0135 0B       		.uleb128 0xb
 5987 0136 3A       		.uleb128 0x3a
 5988 0137 0B       		.uleb128 0xb
 5989 0138 3B       		.uleb128 0x3b
 5990 0139 0B       		.uleb128 0xb
 5991 013a 01       		.uleb128 0x1
 5992 013b 13       		.uleb128 0x13
 5993 013c 00       		.byte	0
 5994 013d 00       		.byte	0
 5995 013e 1B       		.uleb128 0x1b
 5996 013f 0D       		.uleb128 0xd
 5997 0140 00       		.byte	0
 5998 0141 03       		.uleb128 0x3
 5999 0142 0E       		.uleb128 0xe
 6000 0143 3A       		.uleb128 0x3a
 6001 0144 0B       		.uleb128 0xb
 6002 0145 3B       		.uleb128 0x3b
 6003 0146 05       		.uleb128 0x5
 6004 0147 49       		.uleb128 0x49
 6005 0148 13       		.uleb128 0x13
 6006 0149 00       		.byte	0
 6007 014a 00       		.byte	0
 6008 014b 1C       		.uleb128 0x1c
 6009 014c 04       		.uleb128 0x4
 6010 014d 01       		.byte	0x1
 6011 014e 0B       		.uleb128 0xb
 6012 014f 0B       		.uleb128 0xb
 6013 0150 3A       		.uleb128 0x3a
 6014 0151 0B       		.uleb128 0xb
 6015 0152 3B       		.uleb128 0x3b
 6016 0153 0B       		.uleb128 0xb
 6017 0154 01       		.uleb128 0x1
 6018 0155 13       		.uleb128 0x13
 6019 0156 00       		.byte	0
 6020 0157 00       		.byte	0
ARM GAS  C:\Users\Luis\AppData\Local\Temp\ccMHTq6a.s 			page 108


 6021 0158 1D       		.uleb128 0x1d
 6022 0159 28       		.uleb128 0x28
 6023 015a 00       		.byte	0
 6024 015b 03       		.uleb128 0x3
 6025 015c 0E       		.uleb128 0xe
 6026 015d 1C       		.uleb128 0x1c
 6027 015e 0D       		.uleb128 0xd
 6028 015f 00       		.byte	0
 6029 0160 00       		.byte	0
 6030 0161 1E       		.uleb128 0x1e
 6031 0162 15       		.uleb128 0x15
 6032 0163 01       		.byte	0x1
 6033 0164 27       		.uleb128 0x27
 6034 0165 19       		.uleb128 0x19
 6035 0166 49       		.uleb128 0x49
 6036 0167 13       		.uleb128 0x13
 6037 0168 01       		.uleb128 0x1
 6038 0169 13       		.uleb128 0x13
 6039 016a 00       		.byte	0
 6040 016b 00       		.byte	0
 6041 016c 1F       		.uleb128 0x1f
 6042 016d 17       		.uleb128 0x17
 6043 016e 01       		.byte	0x1
 6044 016f 0B       		.uleb128 0xb
 6045 0170 05       		.uleb128 0x5
 6046 0171 3A       		.uleb128 0x3a
 6047 0172 0B       		.uleb128 0xb
 6048 0173 3B       		.uleb128 0x3b
 6049 0174 0B       		.uleb128 0xb
 6050 0175 01       		.uleb128 0x1
 6051 0176 13       		.uleb128 0x13
 6052 0177 00       		.byte	0
 6053 0178 00       		.byte	0
 6054 0179 20       		.uleb128 0x20
 6055 017a 0D       		.uleb128 0xd
 6056 017b 00       		.byte	0
 6057 017c 03       		.uleb128 0x3
 6058 017d 0E       		.uleb128 0xe
 6059 017e 3A       		.uleb128 0x3a
 6060 017f 0B       		.uleb128 0xb
 6061 0180 3B       		.uleb128 0x3b
 6062 0181 0B       		.uleb128 0xb
 6063 0182 49       		.uleb128 0x49
 6064 0183 13       		.uleb128 0x13
 6065 0184 00       		.byte	0
 6066 0185 00       		.byte	0
 6067 0186 21       		.uleb128 0x21
 6068 0187 0D       		.uleb128 0xd
 6069 0188 00       		.byte	0
 6070 0189 03       		.uleb128 0x3
 6071 018a 08       		.uleb128 0x8
 6072 018b 3A       		.uleb128 0x3a
 6073 018c 0B       		.uleb128 0xb
 6074 018d 3B       		.uleb128 0x3b
 6075 018e 0B       		.uleb128 0xb
 6076 018f 49       		.uleb128 0x49
 6077 0190 13       		.uleb128 0x13
ARM GAS  C:\Users\Luis\AppData\Local\Temp\ccMHTq6a.s 			page 109


 6078 0191 00       		.byte	0
 6079 0192 00       		.byte	0
 6080 0193 22       		.uleb128 0x22
 6081 0194 21       		.uleb128 0x21
 6082 0195 00       		.byte	0
 6083 0196 49       		.uleb128 0x49
 6084 0197 13       		.uleb128 0x13
 6085 0198 2F       		.uleb128 0x2f
 6086 0199 05       		.uleb128 0x5
 6087 019a 00       		.byte	0
 6088 019b 00       		.byte	0
 6089 019c 23       		.uleb128 0x23
 6090 019d 2E       		.uleb128 0x2e
 6091 019e 01       		.byte	0x1
 6092 019f 03       		.uleb128 0x3
 6093 01a0 0E       		.uleb128 0xe
 6094 01a1 3A       		.uleb128 0x3a
 6095 01a2 0B       		.uleb128 0xb
 6096 01a3 3B       		.uleb128 0x3b
 6097 01a4 05       		.uleb128 0x5
 6098 01a5 27       		.uleb128 0x27
 6099 01a6 19       		.uleb128 0x19
 6100 01a7 20       		.uleb128 0x20
 6101 01a8 0B       		.uleb128 0xb
 6102 01a9 01       		.uleb128 0x1
 6103 01aa 13       		.uleb128 0x13
 6104 01ab 00       		.byte	0
 6105 01ac 00       		.byte	0
 6106 01ad 24       		.uleb128 0x24
 6107 01ae 05       		.uleb128 0x5
 6108 01af 00       		.byte	0
 6109 01b0 03       		.uleb128 0x3
 6110 01b1 0E       		.uleb128 0xe
 6111 01b2 3A       		.uleb128 0x3a
 6112 01b3 0B       		.uleb128 0xb
 6113 01b4 3B       		.uleb128 0x3b
 6114 01b5 05       		.uleb128 0x5
 6115 01b6 49       		.uleb128 0x49
 6116 01b7 13       		.uleb128 0x13
 6117 01b8 00       		.byte	0
 6118 01b9 00       		.byte	0
 6119 01ba 25       		.uleb128 0x25
 6120 01bb 2E       		.uleb128 0x2e
 6121 01bc 01       		.byte	0x1
 6122 01bd 03       		.uleb128 0x3
 6123 01be 0E       		.uleb128 0xe
 6124 01bf 3A       		.uleb128 0x3a
 6125 01c0 0B       		.uleb128 0xb
 6126 01c1 3B       		.uleb128 0x3b
 6127 01c2 05       		.uleb128 0x5
 6128 01c3 27       		.uleb128 0x27
 6129 01c4 19       		.uleb128 0x19
 6130 01c5 11       		.uleb128 0x11
 6131 01c6 01       		.uleb128 0x1
 6132 01c7 12       		.uleb128 0x12
 6133 01c8 06       		.uleb128 0x6
 6134 01c9 40       		.uleb128 0x40
ARM GAS  C:\Users\Luis\AppData\Local\Temp\ccMHTq6a.s 			page 110


 6135 01ca 18       		.uleb128 0x18
 6136 01cb 9742     		.uleb128 0x2117
 6137 01cd 19       		.uleb128 0x19
 6138 01ce 01       		.uleb128 0x1
 6139 01cf 13       		.uleb128 0x13
 6140 01d0 00       		.byte	0
 6141 01d1 00       		.byte	0
 6142 01d2 26       		.uleb128 0x26
 6143 01d3 1D       		.uleb128 0x1d
 6144 01d4 01       		.byte	0x1
 6145 01d5 31       		.uleb128 0x31
 6146 01d6 13       		.uleb128 0x13
 6147 01d7 11       		.uleb128 0x11
 6148 01d8 01       		.uleb128 0x1
 6149 01d9 12       		.uleb128 0x12
 6150 01da 06       		.uleb128 0x6
 6151 01db 58       		.uleb128 0x58
 6152 01dc 0B       		.uleb128 0xb
 6153 01dd 59       		.uleb128 0x59
 6154 01de 05       		.uleb128 0x5
 6155 01df 00       		.byte	0
 6156 01e0 00       		.byte	0
 6157 01e1 27       		.uleb128 0x27
 6158 01e2 05       		.uleb128 0x5
 6159 01e3 00       		.byte	0
 6160 01e4 31       		.uleb128 0x31
 6161 01e5 13       		.uleb128 0x13
 6162 01e6 02       		.uleb128 0x2
 6163 01e7 18       		.uleb128 0x18
 6164 01e8 00       		.byte	0
 6165 01e9 00       		.byte	0
 6166 01ea 28       		.uleb128 0x28
 6167 01eb 2E       		.uleb128 0x2e
 6168 01ec 00       		.byte	0
 6169 01ed 03       		.uleb128 0x3
 6170 01ee 0E       		.uleb128 0xe
 6171 01ef 3A       		.uleb128 0x3a
 6172 01f0 0B       		.uleb128 0xb
 6173 01f1 3B       		.uleb128 0x3b
 6174 01f2 05       		.uleb128 0x5
 6175 01f3 27       		.uleb128 0x27
 6176 01f4 19       		.uleb128 0x19
 6177 01f5 11       		.uleb128 0x11
 6178 01f6 01       		.uleb128 0x1
 6179 01f7 12       		.uleb128 0x12
 6180 01f8 06       		.uleb128 0x6
 6181 01f9 40       		.uleb128 0x40
 6182 01fa 18       		.uleb128 0x18
 6183 01fb 9642     		.uleb128 0x2116
 6184 01fd 19       		.uleb128 0x19
 6185 01fe 00       		.byte	0
 6186 01ff 00       		.byte	0
 6187 0200 29       		.uleb128 0x29
 6188 0201 2E       		.uleb128 0x2e
 6189 0202 01       		.byte	0x1
 6190 0203 03       		.uleb128 0x3
 6191 0204 0E       		.uleb128 0xe
ARM GAS  C:\Users\Luis\AppData\Local\Temp\ccMHTq6a.s 			page 111


 6192 0205 3A       		.uleb128 0x3a
 6193 0206 0B       		.uleb128 0xb
 6194 0207 3B       		.uleb128 0x3b
 6195 0208 05       		.uleb128 0x5
 6196 0209 27       		.uleb128 0x27
 6197 020a 19       		.uleb128 0x19
 6198 020b 11       		.uleb128 0x11
 6199 020c 01       		.uleb128 0x1
 6200 020d 12       		.uleb128 0x12
 6201 020e 06       		.uleb128 0x6
 6202 020f 40       		.uleb128 0x40
 6203 0210 18       		.uleb128 0x18
 6204 0211 9642     		.uleb128 0x2116
 6205 0213 19       		.uleb128 0x19
 6206 0214 01       		.uleb128 0x1
 6207 0215 13       		.uleb128 0x13
 6208 0216 00       		.byte	0
 6209 0217 00       		.byte	0
 6210 0218 2A       		.uleb128 0x2a
 6211 0219 34       		.uleb128 0x34
 6212 021a 00       		.byte	0
 6213 021b 03       		.uleb128 0x3
 6214 021c 0E       		.uleb128 0xe
 6215 021d 49       		.uleb128 0x49
 6216 021e 13       		.uleb128 0x13
 6217 021f 34       		.uleb128 0x34
 6218 0220 19       		.uleb128 0x19
 6219 0221 02       		.uleb128 0x2
 6220 0222 18       		.uleb128 0x18
 6221 0223 00       		.byte	0
 6222 0224 00       		.byte	0
 6223 0225 2B       		.uleb128 0x2b
 6224 0226 05       		.uleb128 0x5
 6225 0227 00       		.byte	0
 6226 0228 03       		.uleb128 0x3
 6227 0229 0E       		.uleb128 0xe
 6228 022a 3A       		.uleb128 0x3a
 6229 022b 0B       		.uleb128 0xb
 6230 022c 3B       		.uleb128 0x3b
 6231 022d 05       		.uleb128 0x5
 6232 022e 49       		.uleb128 0x49
 6233 022f 13       		.uleb128 0x13
 6234 0230 02       		.uleb128 0x2
 6235 0231 18       		.uleb128 0x18
 6236 0232 00       		.byte	0
 6237 0233 00       		.byte	0
 6238 0234 2C       		.uleb128 0x2c
 6239 0235 2E       		.uleb128 0x2e
 6240 0236 01       		.byte	0x1
 6241 0237 03       		.uleb128 0x3
 6242 0238 0E       		.uleb128 0xe
 6243 0239 3A       		.uleb128 0x3a
 6244 023a 0B       		.uleb128 0xb
 6245 023b 3B       		.uleb128 0x3b
 6246 023c 05       		.uleb128 0x5
 6247 023d 27       		.uleb128 0x27
 6248 023e 19       		.uleb128 0x19
ARM GAS  C:\Users\Luis\AppData\Local\Temp\ccMHTq6a.s 			page 112


 6249 023f 49       		.uleb128 0x49
 6250 0240 13       		.uleb128 0x13
 6251 0241 11       		.uleb128 0x11
 6252 0242 01       		.uleb128 0x1
 6253 0243 12       		.uleb128 0x12
 6254 0244 06       		.uleb128 0x6
 6255 0245 40       		.uleb128 0x40
 6256 0246 18       		.uleb128 0x18
 6257 0247 9642     		.uleb128 0x2116
 6258 0249 19       		.uleb128 0x19
 6259 024a 01       		.uleb128 0x1
 6260 024b 13       		.uleb128 0x13
 6261 024c 00       		.byte	0
 6262 024d 00       		.byte	0
 6263 024e 2D       		.uleb128 0x2d
 6264 024f 05       		.uleb128 0x5
 6265 0250 00       		.byte	0
 6266 0251 03       		.uleb128 0x3
 6267 0252 08       		.uleb128 0x8
 6268 0253 3A       		.uleb128 0x3a
 6269 0254 0B       		.uleb128 0xb
 6270 0255 3B       		.uleb128 0x3b
 6271 0256 05       		.uleb128 0x5
 6272 0257 49       		.uleb128 0x49
 6273 0258 13       		.uleb128 0x13
 6274 0259 02       		.uleb128 0x2
 6275 025a 18       		.uleb128 0x18
 6276 025b 00       		.byte	0
 6277 025c 00       		.byte	0
 6278 025d 2E       		.uleb128 0x2e
 6279 025e 2E       		.uleb128 0x2e
 6280 025f 01       		.byte	0x1
 6281 0260 03       		.uleb128 0x3
 6282 0261 0E       		.uleb128 0xe
 6283 0262 3A       		.uleb128 0x3a
 6284 0263 0B       		.uleb128 0xb
 6285 0264 3B       		.uleb128 0x3b
 6286 0265 0B       		.uleb128 0xb
 6287 0266 27       		.uleb128 0x27
 6288 0267 19       		.uleb128 0x19
 6289 0268 49       		.uleb128 0x49
 6290 0269 13       		.uleb128 0x13
 6291 026a 11       		.uleb128 0x11
 6292 026b 01       		.uleb128 0x1
 6293 026c 12       		.uleb128 0x12
 6294 026d 06       		.uleb128 0x6
 6295 026e 40       		.uleb128 0x40
 6296 026f 18       		.uleb128 0x18
 6297 0270 9642     		.uleb128 0x2116
 6298 0272 19       		.uleb128 0x19
 6299 0273 01       		.uleb128 0x1
 6300 0274 13       		.uleb128 0x13
 6301 0275 00       		.byte	0
 6302 0276 00       		.byte	0
 6303 0277 2F       		.uleb128 0x2f
 6304 0278 05       		.uleb128 0x5
 6305 0279 00       		.byte	0
ARM GAS  C:\Users\Luis\AppData\Local\Temp\ccMHTq6a.s 			page 113


 6306 027a 03       		.uleb128 0x3
 6307 027b 0E       		.uleb128 0xe
 6308 027c 3A       		.uleb128 0x3a
 6309 027d 0B       		.uleb128 0xb
 6310 027e 3B       		.uleb128 0x3b
 6311 027f 0B       		.uleb128 0xb
 6312 0280 49       		.uleb128 0x49
 6313 0281 13       		.uleb128 0x13
 6314 0282 02       		.uleb128 0x2
 6315 0283 18       		.uleb128 0x18
 6316 0284 00       		.byte	0
 6317 0285 00       		.byte	0
 6318 0286 30       		.uleb128 0x30
 6319 0287 05       		.uleb128 0x5
 6320 0288 00       		.byte	0
 6321 0289 03       		.uleb128 0x3
 6322 028a 08       		.uleb128 0x8
 6323 028b 3A       		.uleb128 0x3a
 6324 028c 0B       		.uleb128 0xb
 6325 028d 3B       		.uleb128 0x3b
 6326 028e 0B       		.uleb128 0xb
 6327 028f 49       		.uleb128 0x49
 6328 0290 13       		.uleb128 0x13
 6329 0291 02       		.uleb128 0x2
 6330 0292 18       		.uleb128 0x18
 6331 0293 00       		.byte	0
 6332 0294 00       		.byte	0
 6333 0295 31       		.uleb128 0x31
 6334 0296 34       		.uleb128 0x34
 6335 0297 00       		.byte	0
 6336 0298 03       		.uleb128 0x3
 6337 0299 0E       		.uleb128 0xe
 6338 029a 3A       		.uleb128 0x3a
 6339 029b 0B       		.uleb128 0xb
 6340 029c 3B       		.uleb128 0x3b
 6341 029d 05       		.uleb128 0x5
 6342 029e 49       		.uleb128 0x49
 6343 029f 13       		.uleb128 0x13
 6344 02a0 02       		.uleb128 0x2
 6345 02a1 18       		.uleb128 0x18
 6346 02a2 00       		.byte	0
 6347 02a3 00       		.byte	0
 6348 02a4 32       		.uleb128 0x32
 6349 02a5 34       		.uleb128 0x34
 6350 02a6 00       		.byte	0
 6351 02a7 03       		.uleb128 0x3
 6352 02a8 08       		.uleb128 0x8
 6353 02a9 3A       		.uleb128 0x3a
 6354 02aa 0B       		.uleb128 0xb
 6355 02ab 3B       		.uleb128 0x3b
 6356 02ac 05       		.uleb128 0x5
 6357 02ad 49       		.uleb128 0x49
 6358 02ae 13       		.uleb128 0x13
 6359 02af 02       		.uleb128 0x2
 6360 02b0 18       		.uleb128 0x18
 6361 02b1 00       		.byte	0
 6362 02b2 00       		.byte	0
ARM GAS  C:\Users\Luis\AppData\Local\Temp\ccMHTq6a.s 			page 114


 6363 02b3 33       		.uleb128 0x33
 6364 02b4 2E       		.uleb128 0x2e
 6365 02b5 00       		.byte	0
 6366 02b6 3F       		.uleb128 0x3f
 6367 02b7 19       		.uleb128 0x19
 6368 02b8 03       		.uleb128 0x3
 6369 02b9 0E       		.uleb128 0xe
 6370 02ba 3A       		.uleb128 0x3a
 6371 02bb 0B       		.uleb128 0xb
 6372 02bc 3B       		.uleb128 0x3b
 6373 02bd 05       		.uleb128 0x5
 6374 02be 27       		.uleb128 0x27
 6375 02bf 19       		.uleb128 0x19
 6376 02c0 11       		.uleb128 0x11
 6377 02c1 01       		.uleb128 0x1
 6378 02c2 12       		.uleb128 0x12
 6379 02c3 06       		.uleb128 0x6
 6380 02c4 40       		.uleb128 0x40
 6381 02c5 18       		.uleb128 0x18
 6382 02c6 9642     		.uleb128 0x2116
 6383 02c8 19       		.uleb128 0x19
 6384 02c9 00       		.byte	0
 6385 02ca 00       		.byte	0
 6386 02cb 34       		.uleb128 0x34
 6387 02cc 2E       		.uleb128 0x2e
 6388 02cd 01       		.byte	0x1
 6389 02ce 3F       		.uleb128 0x3f
 6390 02cf 19       		.uleb128 0x19
 6391 02d0 03       		.uleb128 0x3
 6392 02d1 0E       		.uleb128 0xe
 6393 02d2 3A       		.uleb128 0x3a
 6394 02d3 0B       		.uleb128 0xb
 6395 02d4 3B       		.uleb128 0x3b
 6396 02d5 05       		.uleb128 0x5
 6397 02d6 27       		.uleb128 0x27
 6398 02d7 19       		.uleb128 0x19
 6399 02d8 11       		.uleb128 0x11
 6400 02d9 01       		.uleb128 0x1
 6401 02da 12       		.uleb128 0x12
 6402 02db 06       		.uleb128 0x6
 6403 02dc 40       		.uleb128 0x40
 6404 02dd 18       		.uleb128 0x18
 6405 02de 9642     		.uleb128 0x2116
 6406 02e0 19       		.uleb128 0x19
 6407 02e1 01       		.uleb128 0x1
 6408 02e2 13       		.uleb128 0x13
 6409 02e3 00       		.byte	0
 6410 02e4 00       		.byte	0
 6411 02e5 35       		.uleb128 0x35
 6412 02e6 0B       		.uleb128 0xb
 6413 02e7 01       		.byte	0x1
 6414 02e8 11       		.uleb128 0x11
 6415 02e9 01       		.uleb128 0x1
 6416 02ea 12       		.uleb128 0x12
 6417 02eb 06       		.uleb128 0x6
 6418 02ec 00       		.byte	0
 6419 02ed 00       		.byte	0
ARM GAS  C:\Users\Luis\AppData\Local\Temp\ccMHTq6a.s 			page 115


 6420 02ee 36       		.uleb128 0x36
 6421 02ef 2E       		.uleb128 0x2e
 6422 02f0 01       		.byte	0x1
 6423 02f1 3F       		.uleb128 0x3f
 6424 02f2 19       		.uleb128 0x19
 6425 02f3 03       		.uleb128 0x3
 6426 02f4 0E       		.uleb128 0xe
 6427 02f5 3A       		.uleb128 0x3a
 6428 02f6 0B       		.uleb128 0xb
 6429 02f7 3B       		.uleb128 0x3b
 6430 02f8 05       		.uleb128 0x5
 6431 02f9 27       		.uleb128 0x27
 6432 02fa 19       		.uleb128 0x19
 6433 02fb 11       		.uleb128 0x11
 6434 02fc 01       		.uleb128 0x1
 6435 02fd 12       		.uleb128 0x12
 6436 02fe 06       		.uleb128 0x6
 6437 02ff 40       		.uleb128 0x40
 6438 0300 18       		.uleb128 0x18
 6439 0301 9742     		.uleb128 0x2117
 6440 0303 19       		.uleb128 0x19
 6441 0304 01       		.uleb128 0x1
 6442 0305 13       		.uleb128 0x13
 6443 0306 00       		.byte	0
 6444 0307 00       		.byte	0
 6445 0308 37       		.uleb128 0x37
 6446 0309 2E       		.uleb128 0x2e
 6447 030a 01       		.byte	0x1
 6448 030b 3F       		.uleb128 0x3f
 6449 030c 19       		.uleb128 0x19
 6450 030d 03       		.uleb128 0x3
 6451 030e 0E       		.uleb128 0xe
 6452 030f 3A       		.uleb128 0x3a
 6453 0310 0B       		.uleb128 0xb
 6454 0311 3B       		.uleb128 0x3b
 6455 0312 05       		.uleb128 0x5
 6456 0313 27       		.uleb128 0x27
 6457 0314 19       		.uleb128 0x19
 6458 0315 49       		.uleb128 0x49
 6459 0316 13       		.uleb128 0x13
 6460 0317 11       		.uleb128 0x11
 6461 0318 01       		.uleb128 0x1
 6462 0319 12       		.uleb128 0x12
 6463 031a 06       		.uleb128 0x6
 6464 031b 40       		.uleb128 0x40
 6465 031c 18       		.uleb128 0x18
 6466 031d 9642     		.uleb128 0x2116
 6467 031f 19       		.uleb128 0x19
 6468 0320 01       		.uleb128 0x1
 6469 0321 13       		.uleb128 0x13
 6470 0322 00       		.byte	0
 6471 0323 00       		.byte	0
 6472 0324 38       		.uleb128 0x38
 6473 0325 0A       		.uleb128 0xa
 6474 0326 00       		.byte	0
 6475 0327 03       		.uleb128 0x3
 6476 0328 0E       		.uleb128 0xe
ARM GAS  C:\Users\Luis\AppData\Local\Temp\ccMHTq6a.s 			page 116


 6477 0329 3A       		.uleb128 0x3a
 6478 032a 0B       		.uleb128 0xb
 6479 032b 3B       		.uleb128 0x3b
 6480 032c 05       		.uleb128 0x5
 6481 032d 11       		.uleb128 0x11
 6482 032e 01       		.uleb128 0x1
 6483 032f 00       		.byte	0
 6484 0330 00       		.byte	0
 6485 0331 39       		.uleb128 0x39
 6486 0332 2E       		.uleb128 0x2e
 6487 0333 01       		.byte	0x1
 6488 0334 3F       		.uleb128 0x3f
 6489 0335 19       		.uleb128 0x19
 6490 0336 03       		.uleb128 0x3
 6491 0337 0E       		.uleb128 0xe
 6492 0338 3A       		.uleb128 0x3a
 6493 0339 0B       		.uleb128 0xb
 6494 033a 3B       		.uleb128 0x3b
 6495 033b 05       		.uleb128 0x5
 6496 033c 27       		.uleb128 0x27
 6497 033d 19       		.uleb128 0x19
 6498 033e 49       		.uleb128 0x49
 6499 033f 13       		.uleb128 0x13
 6500 0340 11       		.uleb128 0x11
 6501 0341 01       		.uleb128 0x1
 6502 0342 12       		.uleb128 0x12
 6503 0343 06       		.uleb128 0x6
 6504 0344 40       		.uleb128 0x40
 6505 0345 18       		.uleb128 0x18
 6506 0346 9742     		.uleb128 0x2117
 6507 0348 19       		.uleb128 0x19
 6508 0349 01       		.uleb128 0x1
 6509 034a 13       		.uleb128 0x13
 6510 034b 00       		.byte	0
 6511 034c 00       		.byte	0
 6512 034d 3A       		.uleb128 0x3a
 6513 034e 34       		.uleb128 0x34
 6514 034f 00       		.byte	0
 6515 0350 03       		.uleb128 0x3
 6516 0351 08       		.uleb128 0x8
 6517 0352 3A       		.uleb128 0x3a
 6518 0353 0B       		.uleb128 0xb
 6519 0354 3B       		.uleb128 0x3b
 6520 0355 0B       		.uleb128 0xb
 6521 0356 49       		.uleb128 0x49
 6522 0357 13       		.uleb128 0x13
 6523 0358 02       		.uleb128 0x2
 6524 0359 18       		.uleb128 0x18
 6525 035a 00       		.byte	0
 6526 035b 00       		.byte	0
 6527 035c 3B       		.uleb128 0x3b
 6528 035d 34       		.uleb128 0x34
 6529 035e 00       		.byte	0
 6530 035f 03       		.uleb128 0x3
 6531 0360 0E       		.uleb128 0xe
 6532 0361 3A       		.uleb128 0x3a
 6533 0362 0B       		.uleb128 0xb
ARM GAS  C:\Users\Luis\AppData\Local\Temp\ccMHTq6a.s 			page 117


 6534 0363 3B       		.uleb128 0x3b
 6535 0364 0B       		.uleb128 0xb
 6536 0365 49       		.uleb128 0x49
 6537 0366 13       		.uleb128 0x13
 6538 0367 02       		.uleb128 0x2
 6539 0368 18       		.uleb128 0x18
 6540 0369 00       		.byte	0
 6541 036a 00       		.byte	0
 6542 036b 3C       		.uleb128 0x3c
 6543 036c 34       		.uleb128 0x34
 6544 036d 00       		.byte	0
 6545 036e 03       		.uleb128 0x3
 6546 036f 0E       		.uleb128 0xe
 6547 0370 3A       		.uleb128 0x3a
 6548 0371 0B       		.uleb128 0xb
 6549 0372 3B       		.uleb128 0x3b
 6550 0373 05       		.uleb128 0x5
 6551 0374 49       		.uleb128 0x49
 6552 0375 13       		.uleb128 0x13
 6553 0376 3F       		.uleb128 0x3f
 6554 0377 19       		.uleb128 0x19
 6555 0378 3C       		.uleb128 0x3c
 6556 0379 19       		.uleb128 0x19
 6557 037a 00       		.byte	0
 6558 037b 00       		.byte	0
 6559 037c 3D       		.uleb128 0x3d
 6560 037d 34       		.uleb128 0x34
 6561 037e 00       		.byte	0
 6562 037f 03       		.uleb128 0x3
 6563 0380 08       		.uleb128 0x8
 6564 0381 3A       		.uleb128 0x3a
 6565 0382 0B       		.uleb128 0xb
 6566 0383 3B       		.uleb128 0x3b
 6567 0384 05       		.uleb128 0x5
 6568 0385 49       		.uleb128 0x49
 6569 0386 13       		.uleb128 0x13
 6570 0387 3F       		.uleb128 0x3f
 6571 0388 19       		.uleb128 0x19
 6572 0389 3C       		.uleb128 0x3c
 6573 038a 19       		.uleb128 0x19
 6574 038b 00       		.byte	0
 6575 038c 00       		.byte	0
 6576 038d 3E       		.uleb128 0x3e
 6577 038e 34       		.uleb128 0x34
 6578 038f 00       		.byte	0
 6579 0390 03       		.uleb128 0x3
 6580 0391 0E       		.uleb128 0xe
 6581 0392 3A       		.uleb128 0x3a
 6582 0393 0B       		.uleb128 0xb
 6583 0394 3B       		.uleb128 0x3b
 6584 0395 0B       		.uleb128 0xb
 6585 0396 49       		.uleb128 0x49
 6586 0397 13       		.uleb128 0x13
 6587 0398 3F       		.uleb128 0x3f
 6588 0399 19       		.uleb128 0x19
 6589 039a 02       		.uleb128 0x2
 6590 039b 18       		.uleb128 0x18
ARM GAS  C:\Users\Luis\AppData\Local\Temp\ccMHTq6a.s 			page 118


 6591 039c 00       		.byte	0
 6592 039d 00       		.byte	0
 6593 039e 00       		.byte	0
 6594              		.section	.debug_aranges,"",%progbits
 6595 0000 4C010000 		.4byte	0x14c
 6596 0004 0200     		.2byte	0x2
 6597 0006 00000000 		.4byte	.Ldebug_info0
 6598 000a 04       		.byte	0x4
 6599 000b 00       		.byte	0
 6600 000c 0000     		.2byte	0
 6601 000e 0000     		.2byte	0
 6602 0010 00000000 		.4byte	.LFB116
 6603 0014 1A000000 		.4byte	.LFE116-.LFB116
 6604 0018 00000000 		.4byte	.LFB117
 6605 001c 1A000000 		.4byte	.LFE117-.LFB117
 6606 0020 00000000 		.4byte	.LFB118
 6607 0024 0A000000 		.4byte	.LFE118-.LFB118
 6608 0028 00000000 		.4byte	.LFB119
 6609 002c 0A000000 		.4byte	.LFE119-.LFB119
 6610 0030 00000000 		.4byte	.LFB156
 6611 0034 12000000 		.4byte	.LFE156-.LFB156
 6612 0038 00000000 		.4byte	.LFB157
 6613 003c 3C000000 		.4byte	.LFE157-.LFB157
 6614 0040 00000000 		.4byte	.LFB158
 6615 0044 12000000 		.4byte	.LFE158-.LFB158
 6616 0048 00000000 		.4byte	.LFB159
 6617 004c 12000000 		.4byte	.LFE159-.LFB159
 6618 0050 00000000 		.4byte	.LFB233
 6619 0054 0A000000 		.4byte	.LFE233-.LFB233
 6620 0058 00000000 		.4byte	.LFB234
 6621 005c 0A000000 		.4byte	.LFE234-.LFB234
 6622 0060 00000000 		.4byte	.LFB235
 6623 0064 0A000000 		.4byte	.LFE235-.LFB235
 6624 0068 00000000 		.4byte	.LFB236
 6625 006c 0A000000 		.4byte	.LFE236-.LFB236
 6626 0070 00000000 		.4byte	.LFB245
 6627 0074 14000000 		.4byte	.LFE245-.LFB245
 6628 0078 00000000 		.4byte	.LFB246
 6629 007c 18000000 		.4byte	.LFE246-.LFB246
 6630 0080 00000000 		.4byte	.LFB248
 6631 0084 18000000 		.4byte	.LFE248-.LFB248
 6632 0088 00000000 		.4byte	.LFB260
 6633 008c A0000000 		.4byte	.LFE260-.LFB260
 6634 0090 00000000 		.4byte	.LFB261
 6635 0094 78000000 		.4byte	.LFE261-.LFB261
 6636 0098 00000000 		.4byte	.LFB262
 6637 009c 78000000 		.4byte	.LFE262-.LFB262
 6638 00a0 00000000 		.4byte	.LFB263
 6639 00a4 98000000 		.4byte	.LFE263-.LFB263
 6640 00a8 00000000 		.4byte	.LFB264
 6641 00ac A2000000 		.4byte	.LFE264-.LFB264
 6642 00b0 00000000 		.4byte	.LFB265
 6643 00b4 A0000000 		.4byte	.LFE265-.LFB265
 6644 00b8 00000000 		.4byte	.LFB266
 6645 00bc 34000000 		.4byte	.LFE266-.LFB266
 6646 00c0 00000000 		.4byte	.LFB267
 6647 00c4 2C000000 		.4byte	.LFE267-.LFB267
ARM GAS  C:\Users\Luis\AppData\Local\Temp\ccMHTq6a.s 			page 119


 6648 00c8 00000000 		.4byte	.LFB268
 6649 00cc B8000000 		.4byte	.LFE268-.LFB268
 6650 00d0 00000000 		.4byte	.LFB269
 6651 00d4 58000000 		.4byte	.LFE269-.LFB269
 6652 00d8 00000000 		.4byte	.LFB270
 6653 00dc 3C000000 		.4byte	.LFE270-.LFB270
 6654 00e0 00000000 		.4byte	.LFB271
 6655 00e4 26000000 		.4byte	.LFE271-.LFB271
 6656 00e8 00000000 		.4byte	.LFB272
 6657 00ec 22000000 		.4byte	.LFE272-.LFB272
 6658 00f0 00000000 		.4byte	.LFB273
 6659 00f4 56000000 		.4byte	.LFE273-.LFB273
 6660 00f8 00000000 		.4byte	.LFB274
 6661 00fc 44000000 		.4byte	.LFE274-.LFB274
 6662 0100 00000000 		.4byte	.LFB275
 6663 0104 74000000 		.4byte	.LFE275-.LFB275
 6664 0108 00000000 		.4byte	.LFB276
 6665 010c 74000000 		.4byte	.LFE276-.LFB276
 6666 0110 00000000 		.4byte	.LFB277
 6667 0114 9E000000 		.4byte	.LFE277-.LFB277
 6668 0118 00000000 		.4byte	.LFB278
 6669 011c 78000000 		.4byte	.LFE278-.LFB278
 6670 0120 00000000 		.4byte	.LFB279
 6671 0124 E4000000 		.4byte	.LFE279-.LFB279
 6672 0128 00000000 		.4byte	.LFB280
 6673 012c E8000000 		.4byte	.LFE280-.LFB280
 6674 0130 00000000 		.4byte	.LFB281
 6675 0134 84000000 		.4byte	.LFE281-.LFB281
 6676 0138 00000000 		.4byte	.LFB282
 6677 013c 84000000 		.4byte	.LFE282-.LFB282
 6678 0140 00000000 		.4byte	.LFB283
 6679 0144 16000000 		.4byte	.LFE283-.LFB283
 6680 0148 00000000 		.4byte	0
 6681 014c 00000000 		.4byte	0
 6682              		.section	.debug_ranges,"",%progbits
 6683              	.Ldebug_ranges0:
 6684 0000 00000000 		.4byte	.LFB116
 6685 0004 1A000000 		.4byte	.LFE116
 6686 0008 00000000 		.4byte	.LFB117
 6687 000c 1A000000 		.4byte	.LFE117
 6688 0010 00000000 		.4byte	.LFB118
 6689 0014 0A000000 		.4byte	.LFE118
 6690 0018 00000000 		.4byte	.LFB119
 6691 001c 0A000000 		.4byte	.LFE119
 6692 0020 00000000 		.4byte	.LFB156
 6693 0024 12000000 		.4byte	.LFE156
 6694 0028 00000000 		.4byte	.LFB157
 6695 002c 3C000000 		.4byte	.LFE157
 6696 0030 00000000 		.4byte	.LFB158
 6697 0034 12000000 		.4byte	.LFE158
 6698 0038 00000000 		.4byte	.LFB159
 6699 003c 12000000 		.4byte	.LFE159
 6700 0040 00000000 		.4byte	.LFB233
 6701 0044 0A000000 		.4byte	.LFE233
 6702 0048 00000000 		.4byte	.LFB234
 6703 004c 0A000000 		.4byte	.LFE234
 6704 0050 00000000 		.4byte	.LFB235
ARM GAS  C:\Users\Luis\AppData\Local\Temp\ccMHTq6a.s 			page 120


 6705 0054 0A000000 		.4byte	.LFE235
 6706 0058 00000000 		.4byte	.LFB236
 6707 005c 0A000000 		.4byte	.LFE236
 6708 0060 00000000 		.4byte	.LFB245
 6709 0064 14000000 		.4byte	.LFE245
 6710 0068 00000000 		.4byte	.LFB246
 6711 006c 18000000 		.4byte	.LFE246
 6712 0070 00000000 		.4byte	.LFB248
 6713 0074 18000000 		.4byte	.LFE248
 6714 0078 00000000 		.4byte	.LFB260
 6715 007c A0000000 		.4byte	.LFE260
 6716 0080 00000000 		.4byte	.LFB261
 6717 0084 78000000 		.4byte	.LFE261
 6718 0088 00000000 		.4byte	.LFB262
 6719 008c 78000000 		.4byte	.LFE262
 6720 0090 00000000 		.4byte	.LFB263
 6721 0094 98000000 		.4byte	.LFE263
 6722 0098 00000000 		.4byte	.LFB264
 6723 009c A2000000 		.4byte	.LFE264
 6724 00a0 00000000 		.4byte	.LFB265
 6725 00a4 A0000000 		.4byte	.LFE265
 6726 00a8 00000000 		.4byte	.LFB266
 6727 00ac 34000000 		.4byte	.LFE266
 6728 00b0 00000000 		.4byte	.LFB267
 6729 00b4 2C000000 		.4byte	.LFE267
 6730 00b8 00000000 		.4byte	.LFB268
 6731 00bc B8000000 		.4byte	.LFE268
 6732 00c0 00000000 		.4byte	.LFB269
 6733 00c4 58000000 		.4byte	.LFE269
 6734 00c8 00000000 		.4byte	.LFB270
 6735 00cc 3C000000 		.4byte	.LFE270
 6736 00d0 00000000 		.4byte	.LFB271
 6737 00d4 26000000 		.4byte	.LFE271
 6738 00d8 00000000 		.4byte	.LFB272
 6739 00dc 22000000 		.4byte	.LFE272
 6740 00e0 00000000 		.4byte	.LFB273
 6741 00e4 56000000 		.4byte	.LFE273
 6742 00e8 00000000 		.4byte	.LFB274
 6743 00ec 44000000 		.4byte	.LFE274
 6744 00f0 00000000 		.4byte	.LFB275
 6745 00f4 74000000 		.4byte	.LFE275
 6746 00f8 00000000 		.4byte	.LFB276
 6747 00fc 74000000 		.4byte	.LFE276
 6748 0100 00000000 		.4byte	.LFB277
 6749 0104 9E000000 		.4byte	.LFE277
 6750 0108 00000000 		.4byte	.LFB278
 6751 010c 78000000 		.4byte	.LFE278
 6752 0110 00000000 		.4byte	.LFB279
 6753 0114 E4000000 		.4byte	.LFE279
 6754 0118 00000000 		.4byte	.LFB280
 6755 011c E8000000 		.4byte	.LFE280
 6756 0120 00000000 		.4byte	.LFB281
 6757 0124 84000000 		.4byte	.LFE281
 6758 0128 00000000 		.4byte	.LFB282
 6759 012c 84000000 		.4byte	.LFE282
 6760 0130 00000000 		.4byte	.LFB283
 6761 0134 16000000 		.4byte	.LFE283
ARM GAS  C:\Users\Luis\AppData\Local\Temp\ccMHTq6a.s 			page 121


 6762 0138 00000000 		.4byte	0
 6763 013c 00000000 		.4byte	0
 6764              		.section	.debug_line,"",%progbits
 6765              	.Ldebug_line0:
 6766 0000 2C070000 		.section	.debug_str,"MS",%progbits,1
 6766      0200C702 
 6766      00000201 
 6766      FB0E0D00 
 6766      01010101 
 6767              	.LASF88:
 6768 0000 4D314152 		.ascii	"M1AR\000"
 6768      00
 6769              	.LASF46:
 6770 0005 705F7374 		.ascii	"p_stats\000"
 6770      61747300 
 6771              	.LASF178:
 6772 000d 73746D33 		.ascii	"stm32_dma_stream_t\000"
 6772      325F646D 
 6772      615F7374 
 6772      7265616D 
 6772      5F7400
 6773              	.LASF11:
 6774 0020 73697A65 		.ascii	"size_t\000"
 6774      5F7400
 6775              	.LASF125:
 6776 0027 4454494D 		.ascii	"DTIMER\000"
 6776      455200
 6777              	.LASF8:
 6778 002e 73697A65 		.ascii	"sizetype\000"
 6778      74797065 
 6778      00
 6779              	.LASF162:
 6780 0037 77747365 		.ascii	"wtsemp\000"
 6780      6D7000
 6781              	.LASF26:
 6782 003e 73797374 		.ascii	"systime_t\000"
 6782      696D655F 
 6782      7400
 6783              	.LASF116:
 6784 0048 504C4C49 		.ascii	"PLLI2SCFGR\000"
 6784      32534346 
 6784      475200
 6785              	.LASF31:
 6786 0053 705F6374 		.ascii	"p_ctx\000"
 6786      7800
 6787              	.LASF222:
 6788 0059 6765745F 		.ascii	"get_info\000"
 6788      696E666F 
 6788      00
 6789              	.LASF21:
 6790 0062 74707269 		.ascii	"tprio_t\000"
 6790      6F5F7400 
 6791              	.LASF126:
 6792 006a 444C454E 		.ascii	"DLEN\000"
 6792      00
 6793              	.LASF40:
 6794 006f 705F6D73 		.ascii	"p_msgqueue\000"
ARM GAS  C:\Users\Luis\AppData\Local\Temp\ccMHTq6a.s 			page 122


 6794      67717565 
 6794      756500
 6795              	.LASF257:
 6796 007a 7364635F 		.ascii	"sdc_lld_stop_clk\000"
 6796      6C6C645F 
 6796      73746F70 
 6796      5F636C6B 
 6796      00
 6797              	.LASF58:
 6798 008b 725F6374 		.ascii	"r_ctx\000"
 6798      7800
 6799              	.LASF13:
 6800 0091 696E7433 		.ascii	"int32_t\000"
 6800      325F7400 
 6801              	.LASF223:
 6802 0099 616C6967 		.ascii	"alignment\000"
 6802      6E6D656E 
 6802      7400
 6803              	.LASF188:
 6804 00a3 626C6B73 		.ascii	"blkstate_t\000"
 6804      74617465 
 6804      5F7400
 6805              	.LASF62:
 6806 00ae 76746675 		.ascii	"vtfunc_t\000"
 6806      6E635F74 
 6806      00
 6807              	.LASF71:
 6808 00b7 63685F76 		.ascii	"ch_virtual_timers_list\000"
 6808      69727475 
 6808      616C5F74 
 6808      696D6572 
 6808      735F6C69 
 6809              	.LASF243:
 6810 00ce 5F5F6675 		.ascii	"__func__\000"
 6810      6E635F5F 
 6810      00
 6811              	.LASF263:
 6812 00d7 7364635F 		.ascii	"sdc_lld_send_cmd_long_crc\000"
 6812      6C6C645F 
 6812      73656E64 
 6812      5F636D64 
 6812      5F6C6F6E 
 6813              	.LASF220:
 6814 00f1 77726974 		.ascii	"write\000"
 6814      6500
 6815              	.LASF239:
 6816 00f7 6F73616C 		.ascii	"osalThreadSuspendS\000"
 6816      54687265 
 6816      61645375 
 6816      7370656E 
 6816      645300
 6817              	.LASF205:
 6818 010a 636F6E66 		.ascii	"config\000"
 6818      696700
 6819              	.LASF203:
 6820 0111 73746174 		.ascii	"state\000"
 6820      6500
ARM GAS  C:\Users\Luis\AppData\Local\Temp\ccMHTq6a.s 			page 123


 6821              	.LASF77:
 6822 0117 6C6F636B 		.ascii	"lock_cnt\000"
 6822      5F636E74 
 6822      00
 6823              	.LASF47:
 6824 0120 746C7350 		.ascii	"tlsPtr\000"
 6824      747200
 6825              	.LASF215:
 6826 0127 69735F69 		.ascii	"is_inserted\000"
 6826      6E736572 
 6826      74656400 
 6827              	.LASF121:
 6828 0133 52455350 		.ascii	"RESP1\000"
 6828      3100
 6829              	.LASF122:
 6830 0139 52455350 		.ascii	"RESP2\000"
 6830      3200
 6831              	.LASF123:
 6832 013f 52455350 		.ascii	"RESP3\000"
 6832      3300
 6833              	.LASF124:
 6834 0145 52455350 		.ascii	"RESP4\000"
 6834      3400
 6835              	.LASF138:
 6836 014b 73655F74 		.ascii	"se_tp\000"
 6836      7000
 6837              	.LASF152:
 6838 0151 74696D65 		.ascii	"time_measurement_t\000"
 6838      5F6D6561 
 6838      73757265 
 6838      6D656E74 
 6838      5F7400
 6839              	.LASF130:
 6840 0164 4649464F 		.ascii	"FIFOCNT\000"
 6840      434E5400 
 6841              	.LASF234:
 6842 016c 6F73616C 		.ascii	"osalSysLockFromISR\000"
 6842      5379734C 
 6842      6F636B46 
 6842      726F6D49 
 6842      535200
 6843              	.LASF194:
 6844 017f 5344435F 		.ascii	"SDC_MODE_4BIT\000"
 6844      4D4F4445 
 6844      5F344249 
 6844      5400
 6845              	.LASF233:
 6846 018d 6F73616C 		.ascii	"osalSysUnlock\000"
 6846      53797355 
 6846      6E6C6F63 
 6846      6B00
 6847              	.LASF76:
 6848 019b 6973725F 		.ascii	"isr_cnt\000"
 6848      636E7400 
 6849              	.LASF238:
 6850 01a3 6F73616C 		.ascii	"osalThreadResumeI\000"
 6850      54687265 
ARM GAS  C:\Users\Luis\AppData\Local\Temp\ccMHTq6a.s 			page 124


 6850      61645265 
 6850      73756D65 
 6850      4900
 6851              	.LASF170:
 6852 01b5 6D5F6F77 		.ascii	"m_owner\000"
 6852      6E657200 
 6853              	.LASF69:
 6854 01bd 76745F70 		.ascii	"vt_par\000"
 6854      617200
 6855              	.LASF241:
 6856 01c4 73646370 		.ascii	"sdcp\000"
 6856      00
 6857              	.LASF159:
 6858 01c9 65786974 		.ascii	"exitcode\000"
 6858      636F6465 
 6858      00
 6859              	.LASF245:
 6860 01d2 73746172 		.ascii	"startblk\000"
 6860      74626C6B 
 6860      00
 6861              	.LASF210:
 6862 01db 7364696F 		.ascii	"sdio\000"
 6862      00
 6863              	.LASF107:
 6864 01e0 41484232 		.ascii	"AHB2LPENR\000"
 6864      4C50454E 
 6864      5200
 6865              	.LASF195:
 6866 01ea 5344435F 		.ascii	"SDC_MODE_8BIT\000"
 6866      4D4F4445 
 6866      5F384249 
 6866      5400
 6867              	.LASF250:
 6868 01f8 7364635F 		.ascii	"sdc_lld_error_cleanup\000"
 6868      6C6C645F 
 6868      6572726F 
 6868      725F636C 
 6868      65616E75 
 6869              	.LASF32:
 6870 020e 705F6E65 		.ascii	"p_newer\000"
 6870      77657200 
 6871              	.LASF7:
 6872 0216 6C6F6E67 		.ascii	"long int\000"
 6872      20696E74 
 6872      00
 6873              	.LASF28:
 6874 021f 705F6E65 		.ascii	"p_next\000"
 6874      787400
 6875              	.LASF225:
 6876 0226 706F7274 		.ascii	"port_unlock\000"
 6876      5F756E6C 
 6876      6F636B00 
 6877              	.LASF246:
 6878 0232 72657370 		.ascii	"resp\000"
 6878      00
 6879              	.LASF29:
 6880 0237 705F7072 		.ascii	"p_prev\000"
ARM GAS  C:\Users\Luis\AppData\Local\Temp\ccMHTq6a.s 			page 125


 6880      657600
 6881              	.LASF230:
 6882 023e 63685379 		.ascii	"chSysLockFromISR\000"
 6882      734C6F63 
 6882      6B46726F 
 6882      6D495352 
 6882      00
 6883              	.LASF209:
 6884 024f 646D616D 		.ascii	"dmamode\000"
 6884      6F646500 
 6885              	.LASF19:
 6886 0257 74737461 		.ascii	"tstate_t\000"
 6886      74655F74 
 6886      00
 6887              	.LASF17:
 6888 0260 72747469 		.ascii	"rttime_t\000"
 6888      6D655F74 
 6888      00
 6889              	.LASF52:
 6890 0269 74687265 		.ascii	"threads_queue_t\000"
 6890      6164735F 
 6890      71756575 
 6890      655F7400 
 6891              	.LASF43:
 6892 0279 705F6D74 		.ascii	"p_mtxlist\000"
 6892      786C6973 
 6892      7400
 6893              	.LASF133:
 6894 0283 72656761 		.ascii	"regarm_t\000"
 6894      726D5F74 
 6894      00
 6895              	.LASF267:
 6896 028c 6572726F 		.ascii	"error\000"
 6896      7200
 6897              	.LASF104:
 6898 0292 41504232 		.ascii	"APB2ENR\000"
 6898      454E5200 
 6899              	.LASF106:
 6900 029a 41484231 		.ascii	"AHB1LPENR\000"
 6900      4C50454E 
 6900      5200
 6901              	.LASF216:
 6902 02a4 69735F70 		.ascii	"is_protected\000"
 6902      726F7465 
 6902      63746564 
 6902      00
 6903              	.LASF232:
 6904 02b1 6F73616C 		.ascii	"osalSysLock\000"
 6904      5379734C 
 6904      6F636B00 
 6905              	.LASF151:
 6906 02bd 63756D75 		.ascii	"cumulative\000"
 6906      6C617469 
 6906      766500
 6907              	.LASF1:
 6908 02c8 7369676E 		.ascii	"signed char\000"
 6908      65642063 
ARM GAS  C:\Users\Luis\AppData\Local\Temp\ccMHTq6a.s 			page 126


 6908      68617200 
 6909              	.LASF164:
 6910 02d4 65776D61 		.ascii	"ewmask\000"
 6910      736B00
 6911              	.LASF12:
 6912 02db 75696E74 		.ascii	"uint8_t\000"
 6912      385F7400 
 6913              	.LASF252:
 6914 02e3 7364635F 		.ascii	"sdc_lld_init\000"
 6914      6C6C645F 
 6914      696E6974 
 6914      00
 6915              	.LASF249:
 6916 02f0 7364635F 		.ascii	"sdc_lld_collect_errors\000"
 6916      6C6C645F 
 6916      636F6C6C 
 6916      6563745F 
 6916      6572726F 
 6917              	.LASF23:
 6918 0307 6576656E 		.ascii	"eventmask_t\000"
 6918      746D6173 
 6918      6B5F7400 
 6919              	.LASF255:
 6920 0313 7364635F 		.ascii	"sdc_lld_start_clk\000"
 6920      6C6C645F 
 6920      73746172 
 6920      745F636C 
 6920      6B00
 6921              	.LASF135:
 6922 0325 636F6E74 		.ascii	"context\000"
 6922      65787400 
 6923              	.LASF161:
 6924 032d 77747472 		.ascii	"wttrp\000"
 6924      7000
 6925              	.LASF231:
 6926 0333 63685379 		.ascii	"chSysUnlockFromISR\000"
 6926      73556E6C 
 6926      6F636B46 
 6926      726F6D49 
 6926      535200
 6927              	.LASF95:
 6928 0346 52455345 		.ascii	"RESERVED0\000"
 6928      52564544 
 6928      3000
 6929              	.LASF98:
 6930 0350 52455345 		.ascii	"RESERVED1\000"
 6930      52564544 
 6930      3100
 6931              	.LASF2:
 6932 035a 756E7369 		.ascii	"unsigned char\000"
 6932      676E6564 
 6932      20636861 
 6932      7200
 6933              	.LASF105:
 6934 0368 52455345 		.ascii	"RESERVED3\000"
 6934      52564544 
 6934      3300
ARM GAS  C:\Users\Luis\AppData\Local\Temp\ccMHTq6a.s 			page 127


 6935              	.LASF109:
 6936 0372 52455345 		.ascii	"RESERVED4\000"
 6936      52564544 
 6936      3400
 6937              	.LASF112:
 6938 037c 52455345 		.ascii	"RESERVED5\000"
 6938      52564544 
 6938      3500
 6939              	.LASF114:
 6940 0386 52455345 		.ascii	"RESERVED6\000"
 6940      52564544 
 6940      3600
 6941              	.LASF75:
 6942 0390 70616E69 		.ascii	"panic_msg\000"
 6942      635F6D73 
 6942      6700
 6943              	.LASF78:
 6944 039a 74726163 		.ascii	"trace_buffer\000"
 6944      655F6275 
 6944      66666572 
 6944      00
 6945              	.LASF59:
 6946 03a7 725F6E65 		.ascii	"r_newer\000"
 6946      77657200 
 6947              	.LASF179:
 6948 03af 424C4B5F 		.ascii	"BLK_UNINIT\000"
 6948      554E494E 
 6948      495400
 6949              	.LASF73:
 6950 03ba 73797374 		.ascii	"system_debug_t\000"
 6950      656D5F64 
 6950      65627567 
 6950      5F7400
 6951              	.LASF192:
 6952 03c9 5F426F6F 		.ascii	"_Bool\000"
 6952      6C00
 6953              	.LASF242:
 6954 03cf 62797465 		.ascii	"bytes\000"
 6954      7300
 6955              	.LASF187:
 6956 03d5 424C4B5F 		.ascii	"BLK_SYNCING\000"
 6956      53594E43 
 6956      494E4700 
 6957              	.LASF102:
 6958 03e1 52455345 		.ascii	"RESERVED2\000"
 6958      52564544 
 6958      3200
 6959              	.LASF10:
 6960 03eb 63686172 		.ascii	"char\000"
 6960      00
 6961              	.LASF175:
 6962 03f0 69736869 		.ascii	"ishift\000"
 6962      667400
 6963              	.LASF204:
 6964 03f7 63617061 		.ascii	"capacity\000"
 6964      63697479 
 6964      00
ARM GAS  C:\Users\Luis\AppData\Local\Temp\ccMHTq6a.s 			page 128


 6965              	.LASF30:
 6966 0400 705F7072 		.ascii	"p_prio\000"
 6966      696F00
 6967              	.LASF182:
 6968 0407 424C4B5F 		.ascii	"BLK_CONNECTING\000"
 6968      434F4E4E 
 6968      45435449 
 6968      4E4700
 6969              	.LASF100:
 6970 0416 41484232 		.ascii	"AHB2ENR\000"
 6970      454E5200 
 6971              	.LASF184:
 6972 041e 424C4B5F 		.ascii	"BLK_READY\000"
 6972      52454144 
 6972      5900
 6973              	.LASF160:
 6974 0428 77746F62 		.ascii	"wtobjp\000"
 6974      6A7000
 6975              	.LASF154:
 6976 042f 6E5F6374 		.ascii	"n_ctxswc\000"
 6976      78737763 
 6976      00
 6977              	.LASF207:
 6978 0438 6572726F 		.ascii	"errors\000"
 6978      727300
 6979              	.LASF134:
 6980 043f 73746B61 		.ascii	"stkalign_t\000"
 6980      6C69676E 
 6980      5F7400
 6981              	.LASF240:
 6982 044a 7364635F 		.ascii	"sdc_lld_prepare_read_bytes\000"
 6982      6C6C645F 
 6982      70726570 
 6982      6172655F 
 6982      72656164 
 6983              	.LASF157:
 6984 0465 6B65726E 		.ascii	"kernel_stats_t\000"
 6984      656C5F73 
 6984      74617473 
 6984      5F7400
 6985              	.LASF173:
 6986 0474 73747265 		.ascii	"stream\000"
 6986      616D00
 6987              	.LASF149:
 6988 047b 776F7273 		.ascii	"worst\000"
 6988      7400
 6989              	.LASF113:
 6990 0481 42444352 		.ascii	"BDCR\000"
 6990      00
 6991              	.LASF24:
 6992 0486 636E745F 		.ascii	"cnt_t\000"
 6992      7400
 6993              	.LASF247:
 6994 048c 7364635F 		.ascii	"sdc_lld_prepare_write\000"
 6994      6C6C645F 
 6994      70726570 
 6994      6172655F 
ARM GAS  C:\Users\Luis\AppData\Local\Temp\ccMHTq6a.s 			page 129


 6994      77726974 
 6995              	.LASF132:
 6996 04a2 5344494F 		.ascii	"SDIO_TypeDef\000"
 6996      5F547970 
 6996      65446566 
 6996      00
 6997              	.LASF68:
 6998 04af 76745F66 		.ascii	"vt_func\000"
 6998      756E6300 
 6999              	.LASF214:
 7000 04b7 53444344 		.ascii	"SDCDriverVMT\000"
 7000      72697665 
 7000      72564D54 
 7000      00
 7001              	.LASF145:
 7002 04c4 63685F74 		.ascii	"ch_trace_buffer_t\000"
 7002      72616365 
 7002      5F627566 
 7002      6665725F 
 7002      7400
 7003              	.LASF42:
 7004 04d6 705F6570 		.ascii	"p_epending\000"
 7004      656E6469 
 7004      6E6700
 7005              	.LASF163:
 7006 04e1 77746D74 		.ascii	"wtmtxp\000"
 7006      787000
 7007              	.LASF55:
 7008 04e8 63685F72 		.ascii	"ch_ready_list\000"
 7008      65616479 
 7008      5F6C6973 
 7008      7400
 7009              	.LASF189:
 7010 04f6 626C6B5F 		.ascii	"blk_size\000"
 7010      73697A65 
 7010      00
 7011              	.LASF91:
 7012 04ff 43464752 		.ascii	"CFGR\000"
 7012      00
 7013              	.LASF264:
 7014 0504 7364635F 		.ascii	"sdc_lld_read_special\000"
 7014      6C6C645F 
 7014      72656164 
 7014      5F737065 
 7014      6369616C 
 7015              	.LASF44:
 7016 0519 705F7265 		.ascii	"p_realprio\000"
 7016      616C7072 
 7016      696F00
 7017              	.LASF235:
 7018 0524 6F73616C 		.ascii	"osalSysUnlockFromISR\000"
 7018      53797355 
 7018      6E6C6F63 
 7018      6B46726F 
 7018      6D495352 
 7019              	.LASF156:
 7020 0539 6D5F6372 		.ascii	"m_crit_isr\000"
ARM GAS  C:\Users\Luis\AppData\Local\Temp\ccMHTq6a.s 			page 130


 7020      69745F69 
 7020      737200
 7021              	.LASF140:
 7022 0544 73655F73 		.ascii	"se_state\000"
 7022      74617465 
 7022      00
 7023              	.LASF155:
 7024 054d 6D5F6372 		.ascii	"m_crit_thd\000"
 7024      69745F74 
 7024      686400
 7025              	.LASF229:
 7026 0558 63685379 		.ascii	"chSysUnlock\000"
 7026      73556E6C 
 7026      6F636B00 
 7027              	.LASF9:
 7028 0564 6C6F6E67 		.ascii	"long unsigned int\000"
 7028      20756E73 
 7028      69676E65 
 7028      6420696E 
 7028      7400
 7029              	.LASF228:
 7030 0576 63685379 		.ascii	"chSysLock\000"
 7030      734C6F63 
 7030      6B00
 7031              	.LASF165:
 7032 0580 63685F73 		.ascii	"ch_semaphore\000"
 7032      656D6170 
 7032      686F7265 
 7032      00
 7033              	.LASF50:
 7034 058d 63685F74 		.ascii	"ch_thread\000"
 7034      68726561 
 7034      6400
 7035              	.LASF70:
 7036 0597 76697274 		.ascii	"virtual_timers_list_t\000"
 7036      75616C5F 
 7036      74696D65 
 7036      72735F6C 
 7036      6973745F 
 7037              	.LASF274:
 7038 05ad 5F73746D 		.ascii	"_stm32_dma_streams\000"
 7038      33325F64 
 7038      6D615F73 
 7038      74726561 
 7038      6D7300
 7039              	.LASF63:
 7040 05c0 76697274 		.ascii	"virtual_timer_t\000"
 7040      75616C5F 
 7040      74696D65 
 7040      725F7400 
 7041              	.LASF54:
 7042 05d0 72656164 		.ascii	"ready_list_t\000"
 7042      795F6C69 
 7042      73745F74 
 7042      00
 7043              	.LASF200:
 7044 05dd 7364636D 		.ascii	"sdcmode_t\000"
ARM GAS  C:\Users\Luis\AppData\Local\Temp\ccMHTq6a.s 			page 131


 7044      6F64655F 
 7044      7400
 7045              	.LASF25:
 7046 05e7 75636E74 		.ascii	"ucnt_t\000"
 7046      5F7400
 7047              	.LASF256:
 7048 05ee 7364635F 		.ascii	"sdc_lld_set_data_clk\000"
 7048      6C6C645F 
 7048      7365745F 
 7048      64617461 
 7048      5F636C6B 
 7049              	.LASF131:
 7050 0603 4649464F 		.ascii	"FIFO\000"
 7050      00
 7051              	.LASF51:
 7052 0608 63685F74 		.ascii	"ch_threads_list\000"
 7052      68726561 
 7052      64735F6C 
 7052      69737400 
 7053              	.LASF272:
 7054 0618 7364635F 		.ascii	"sdc_default_cfg\000"
 7054      64656661 
 7054      756C745F 
 7054      63666700 
 7055              	.LASF141:
 7056 0628 63685F73 		.ascii	"ch_swc_event_t\000"
 7056      77635F65 
 7056      76656E74 
 7056      5F7400
 7057              	.LASF153:
 7058 0637 6E5F6972 		.ascii	"n_irq\000"
 7058      7100
 7059              	.LASF186:
 7060 063d 424C4B5F 		.ascii	"BLK_WRITING\000"
 7060      57524954 
 7060      494E4700 
 7061              	.LASF90:
 7062 0649 504C4C43 		.ascii	"PLLCFGR\000"
 7062      46475200 
 7063              	.LASF253:
 7064 0651 7364635F 		.ascii	"sdc_lld_start\000"
 7064      6C6C645F 
 7064      73746172 
 7064      7400
 7065              	.LASF248:
 7066 065f 7364635F 		.ascii	"sdc_lld_wait_transaction_end\000"
 7066      6C6C645F 
 7066      77616974 
 7066      5F747261 
 7066      6E736163 
 7067              	.LASF5:
 7068 067c 6C6F6E67 		.ascii	"long long int\000"
 7068      206C6F6E 
 7068      6720696E 
 7068      7400
 7069              	.LASF217:
 7070 068a 636F6E6E 		.ascii	"connect\000"
ARM GAS  C:\Users\Luis\AppData\Local\Temp\ccMHTq6a.s 			page 132


 7070      65637400 
 7071              	.LASF169:
 7072 0692 6D5F7175 		.ascii	"m_queue\000"
 7072      65756500 
 7073              	.LASF226:
 7074 069a 706F7274 		.ascii	"port_lock_from_isr\000"
 7074      5F6C6F63 
 7074      6B5F6672 
 7074      6F6D5F69 
 7074      737200
 7075              	.LASF115:
 7076 06ad 53534347 		.ascii	"SSCGR\000"
 7076      5200
 7077              	.LASF261:
 7078 06b3 7364635F 		.ascii	"sdc_lld_send_cmd_short\000"
 7078      6C6C645F 
 7078      73656E64 
 7078      5F636D64 
 7078      5F73686F 
 7079              	.LASF65:
 7080 06ca 76745F6E 		.ascii	"vt_next\000"
 7080      65787400 
 7081              	.LASF66:
 7082 06d2 76745F70 		.ascii	"vt_prev\000"
 7082      72657600 
 7083              	.LASF221:
 7084 06da 73796E63 		.ascii	"sync\000"
 7084      00
 7085              	.LASF97:
 7086 06df 41504232 		.ascii	"APB2RSTR\000"
 7086      52535452 
 7086      00
 7087              	.LASF142:
 7088 06e8 74625F73 		.ascii	"tb_size\000"
 7088      697A6500 
 7089              	.LASF270:
 7090 06f0 7364635F 		.ascii	"sdc_lld_write\000"
 7090      6C6C645F 
 7090      77726974 
 7090      6500
 7091              	.LASF127:
 7092 06fe 44435452 		.ascii	"DCTRL\000"
 7092      4C00
 7093              	.LASF273:
 7094 0704 49544D5F 		.ascii	"ITM_RxBuffer\000"
 7094      52784275 
 7094      66666572 
 7094      00
 7095              	.LASF111:
 7096 0711 41504232 		.ascii	"APB2LPENR\000"
 7096      4C50454E 
 7096      5200
 7097              	.LASF39:
 7098 071b 705F7761 		.ascii	"p_waiting\000"
 7098      6974696E 
 7098      6700
 7099              	.LASF139:
ARM GAS  C:\Users\Luis\AppData\Local\Temp\ccMHTq6a.s 			page 133


 7100 0725 73655F77 		.ascii	"se_wtobjp\000"
 7100      746F626A 
 7100      7000
 7101              	.LASF37:
 7102 072f 705F666C 		.ascii	"p_flags\000"
 7102      61677300 
 7103              	.LASF219:
 7104 0737 72656164 		.ascii	"read\000"
 7104      00
 7105              	.LASF258:
 7106 073c 7364635F 		.ascii	"sdc_lld_set_bus_mode\000"
 7106      6C6C645F 
 7106      7365745F 
 7106      6275735F 
 7106      6D6F6465 
 7107              	.LASF85:
 7108 0751 69646C65 		.ascii	"idle_thread_wa\000"
 7108      5F746872 
 7108      6561645F 
 7108      776100
 7109              	.LASF0:
 7110 0760 756E7369 		.ascii	"unsigned int\000"
 7110      676E6564 
 7110      20696E74 
 7110      00
 7111              	.LASF190:
 7112 076d 626C6B5F 		.ascii	"blk_num\000"
 7112      6E756D00 
 7113              	.LASF16:
 7114 0775 7274636E 		.ascii	"rtcnt_t\000"
 7114      745F7400 
 7115              	.LASF45:
 7116 077d 705F6D70 		.ascii	"p_mpool\000"
 7116      6F6F6C00 
 7117              	.LASF202:
 7118 0785 53444344 		.ascii	"SDCDriver\000"
 7118      72697665 
 7118      7200
 7119              	.LASF38:
 7120 078f 705F7265 		.ascii	"p_refs\000"
 7120      667300
 7121              	.LASF128:
 7122 0796 44434F55 		.ascii	"DCOUNT\000"
 7122      4E5400
 7123              	.LASF277:
 7124 079d 2E2E2F2E 		.ascii	"../../ChibiOS/os/hal/ports/STM32/LLD/sdc_lld.c\000"
 7124      2E2F4368 
 7124      6962694F 
 7124      532F6F73 
 7124      2F68616C 
 7125              	.LASF193:
 7126 07cc 5344435F 		.ascii	"SDC_MODE_1BIT\000"
 7126      4D4F4445 
 7126      5F314249 
 7126      5400
 7127              	.LASF276:
 7128 07da 474E5520 		.ascii	"GNU C 4.8.3 20131129 (release) [ARM/embedded-4_8-br"
ARM GAS  C:\Users\Luis\AppData\Local\Temp\ccMHTq6a.s 			page 134


 7128      4320342E 
 7128      382E3320 
 7128      32303133 
 7128      31313239 
 7129 080d 616E6368 		.ascii	"anch revision 205641] -mcpu=cortex-m4 -mapcs-frame "
 7129      20726576 
 7129      6973696F 
 7129      6E203230 
 7129      35363431 
 7130 0840 2D6D6E6F 		.ascii	"-mno-thumb-interwork -mthumb -ggdb -O0 -falign-func"
 7130      2D746875 
 7130      6D622D69 
 7130      6E746572 
 7130      776F726B 
 7131 0873 74696F6E 		.ascii	"tions=16 -ffunction-sections -fdata-sections -fno-c"
 7131      733D3136 
 7131      202D6666 
 7131      756E6374 
 7131      696F6E2D 
 7132 08a6 6F6D6D6F 		.ascii	"ommon\000"
 7132      6E00
 7133              	.LASF146:
 7134 08ac 6F666673 		.ascii	"offset\000"
 7134      657400
 7135              	.LASF110:
 7136 08b3 41504231 		.ascii	"APB1LPENR\000"
 7136      4C50454E 
 7136      5200
 7137              	.LASF144:
 7138 08bd 74625F62 		.ascii	"tb_buffer\000"
 7138      75666665 
 7138      7200
 7139              	.LASF89:
 7140 08c7 444D415F 		.ascii	"DMA_Stream_TypeDef\000"
 7140      53747265 
 7140      616D5F54 
 7140      79706544 
 7140      656600
 7141              	.LASF197:
 7142 08da 5344435F 		.ascii	"SDC_CLK_25MHz\000"
 7142      434C4B5F 
 7142      32354D48 
 7142      7A00
 7143              	.LASF198:
 7144 08e8 5344435F 		.ascii	"SDC_CLK_50MHz\000"
 7144      434C4B5F 
 7144      35304D48 
 7144      7A00
 7145              	.LASF271:
 7146 08f6 7364635F 		.ascii	"sdc_lld_sync\000"
 7146      6C6C645F 
 7146      73796E63 
 7146      00
 7147              	.LASF191:
 7148 0903 426C6F63 		.ascii	"BlockDeviceInfo\000"
 7148      6B446576 
 7148      69636549 
ARM GAS  C:\Users\Luis\AppData\Local\Temp\ccMHTq6a.s 			page 135


 7148      6E666F00 
 7149              	.LASF94:
 7150 0913 41484233 		.ascii	"AHB3RSTR\000"
 7150      52535452 
 7150      00
 7151              	.LASF27:
 7152 091c 74687265 		.ascii	"thread_t\000"
 7152      61645F74 
 7152      00
 7153              	.LASF251:
 7154 0925 56656374 		.ascii	"Vector104\000"
 7154      6F723130 
 7154      3400
 7155              	.LASF48:
 7156 092f 74687265 		.ascii	"thread_reference_t\000"
 7156      61645F72 
 7156      65666572 
 7156      656E6365 
 7156      5F7400
 7157              	.LASF278:
 7158 0942 433A5C55 		.ascii	"C:\\Users\\Luis\\git\\DSP-Library-Lanin\\examples\\"
 7158      73657273 
 7158      5C4C7569 
 7158      735C6769 
 7158      745C4453 
 7159 096f 4453502D 		.ascii	"DSP-Library\000"
 7159      4C696272 
 7159      61727900 
 7160              	.LASF136:
 7161 097b 706F7274 		.ascii	"port_intctx\000"
 7161      5F696E74 
 7161      63747800 
 7162              	.LASF244:
 7163 0987 7364635F 		.ascii	"sdc_lld_prepare_read\000"
 7163      6C6C645F 
 7163      70726570 
 7163      6172655F 
 7163      72656164 
 7164              	.LASF227:
 7165 099c 706F7274 		.ascii	"port_unlock_from_isr\000"
 7165      5F756E6C 
 7165      6F636B5F 
 7165      66726F6D 
 7165      5F697372 
 7166              	.LASF254:
 7167 09b1 7364635F 		.ascii	"sdc_lld_stop\000"
 7167      6C6C645F 
 7167      73746F70 
 7167      00
 7168              	.LASF181:
 7169 09be 424C4B5F 		.ascii	"BLK_ACTIVE\000"
 7169      41435449 
 7169      564500
 7170              	.LASF67:
 7171 09c9 76745F64 		.ascii	"vt_delta\000"
 7171      656C7461 
 7171      00
ARM GAS  C:\Users\Luis\AppData\Local\Temp\ccMHTq6a.s 			page 136


 7172              	.LASF218:
 7173 09d2 64697363 		.ascii	"disconnect\000"
 7173      6F6E6E65 
 7173      637400
 7174              	.LASF269:
 7175 09dd 7364635F 		.ascii	"sdc_lld_read\000"
 7175      6C6C645F 
 7175      72656164 
 7175      00
 7176              	.LASF96:
 7177 09ea 41504231 		.ascii	"APB1RSTR\000"
 7177      52535452 
 7177      00
 7178              	.LASF64:
 7179 09f3 63685F76 		.ascii	"ch_virtual_timer\000"
 7179      69727475 
 7179      616C5F74 
 7179      696D6572 
 7179      00
 7180              	.LASF103:
 7181 0a04 41504231 		.ascii	"APB1ENR\000"
 7181      454E5200 
 7182              	.LASF167:
 7183 0a0c 735F636E 		.ascii	"s_cnt\000"
 7183      7400
 7184              	.LASF84:
 7185 0a12 6B65726E 		.ascii	"kernel_stats\000"
 7185      656C5F73 
 7185      74617473 
 7185      00
 7186              	.LASF176:
 7187 0a1f 73656C66 		.ascii	"selfindex\000"
 7187      696E6465 
 7187      7800
 7188              	.LASF120:
 7189 0a29 52455350 		.ascii	"RESPCMD\000"
 7189      434D4400 
 7190              	.LASF6:
 7191 0a31 6C6F6E67 		.ascii	"long long unsigned int\000"
 7191      206C6F6E 
 7191      6720756E 
 7191      7369676E 
 7191      65642069 
 7192              	.LASF33:
 7193 0a48 705F6F6C 		.ascii	"p_older\000"
 7193      64657200 
 7194              	.LASF22:
 7195 0a50 6D73675F 		.ascii	"msg_t\000"
 7195      7400
 7196              	.LASF53:
 7197 0a56 63685F74 		.ascii	"ch_threads_queue\000"
 7197      68726561 
 7197      64735F71 
 7197      75657565 
 7197      00
 7198              	.LASF280:
 7199 0a67 76616C75 		.ascii	"value\000"
ARM GAS  C:\Users\Luis\AppData\Local\Temp\ccMHTq6a.s 			page 137


 7199      6500
 7200              	.LASF262:
 7201 0a6d 7364635F 		.ascii	"sdc_lld_send_cmd_short_crc\000"
 7201      6C6C645F 
 7201      73656E64 
 7201      5F636D64 
 7201      5F73686F 
 7202              	.LASF61:
 7203 0a88 725F6375 		.ascii	"r_current\000"
 7203      7272656E 
 7203      7400
 7204              	.LASF177:
 7205 0a92 76656374 		.ascii	"vector\000"
 7205      6F7200
 7206              	.LASF83:
 7207 0a99 6D61696E 		.ascii	"mainthread\000"
 7207      74687265 
 7207      616400
 7208              	.LASF108:
 7209 0aa4 41484233 		.ascii	"AHB3LPENR\000"
 7209      4C50454E 
 7209      5200
 7210              	.LASF279:
 7211 0aae 5F5F7365 		.ascii	"__set_BASEPRI\000"
 7211      745F4241 
 7211      53455052 
 7211      4900
 7212              	.LASF148:
 7213 0abc 62657374 		.ascii	"best\000"
 7213      00
 7214              	.LASF56:
 7215 0ac1 725F7175 		.ascii	"r_queue\000"
 7215      65756500 
 7216              	.LASF260:
 7217 0ac9 7364635F 		.ascii	"sdc_lld_send_cmd_none\000"
 7217      6C6C645F 
 7217      73656E64 
 7217      5F636D64 
 7217      5F6E6F6E 
 7218              	.LASF237:
 7219 0adf 74696D65 		.ascii	"time\000"
 7219      00
 7220              	.LASF81:
 7221 0ae4 726C6973 		.ascii	"rlist\000"
 7221      7400
 7222              	.LASF18:
 7223 0aea 746D6F64 		.ascii	"tmode_t\000"
 7223      655F7400 
 7224              	.LASF99:
 7225 0af2 41484231 		.ascii	"AHB1ENR\000"
 7225      454E5200 
 7226              	.LASF101:
 7227 0afa 41484233 		.ascii	"AHB3ENR\000"
 7227      454E5200 
 7228              	.LASF60:
 7229 0b02 725F6F6C 		.ascii	"r_older\000"
 7229      64657200 
ARM GAS  C:\Users\Luis\AppData\Local\Temp\ccMHTq6a.s 			page 138


 7230              	.LASF147:
 7231 0b0a 746D5F63 		.ascii	"tm_calibration_t\000"
 7231      616C6962 
 7231      72617469 
 7231      6F6E5F74 
 7231      00
 7232              	.LASF93:
 7233 0b1b 41484232 		.ascii	"AHB2RSTR\000"
 7233      52535452 
 7233      00
 7234              	.LASF208:
 7235 0b24 74687265 		.ascii	"thread\000"
 7235      616400
 7236              	.LASF87:
 7237 0b2b 4D304152 		.ascii	"M0AR\000"
 7237      00
 7238              	.LASF211:
 7239 0b30 73637261 		.ascii	"scratchpad\000"
 7239      74636870 
 7239      616400
 7240              	.LASF224:
 7241 0b3b 706F7274 		.ascii	"port_lock\000"
 7241      5F6C6F63 
 7241      6B00
 7242              	.LASF166:
 7243 0b45 735F7175 		.ascii	"s_queue\000"
 7243      65756500 
 7244              	.LASF212:
 7245 0b4d 6275735F 		.ascii	"bus_width\000"
 7245      77696474 
 7245      6800
 7246              	.LASF117:
 7247 0b57 5243435F 		.ascii	"RCC_TypeDef\000"
 7247      54797065 
 7247      44656600 
 7248              	.LASF129:
 7249 0b63 4D41534B 		.ascii	"MASK\000"
 7249      00
 7250              	.LASF275:
 7251 0b68 53444344 		.ascii	"SDCD1\000"
 7251      3100
 7252              	.LASF3:
 7253 0b6e 73686F72 		.ascii	"short int\000"
 7253      7420696E 
 7253      7400
 7254              	.LASF268:
 7255 0b78 7364635F 		.ascii	"sdc_lld_write_aligned\000"
 7255      6C6C645F 
 7255      77726974 
 7255      655F616C 
 7255      69676E65 
 7256              	.LASF15:
 7257 0b8e 75696E74 		.ascii	"uint64_t\000"
 7257      36345F74 
 7257      00
 7258              	.LASF259:
 7259 0b97 6D6F6465 		.ascii	"mode\000"
ARM GAS  C:\Users\Luis\AppData\Local\Temp\ccMHTq6a.s 			page 139


 7259      00
 7260              	.LASF168:
 7261 0b9c 63685F6D 		.ascii	"ch_mutex\000"
 7261      75746578 
 7261      00
 7262              	.LASF236:
 7263 0ba5 6F73616C 		.ascii	"osalThreadSleep\000"
 7263      54687265 
 7263      6164536C 
 7263      65657000 
 7264              	.LASF183:
 7265 0bb5 424C4B5F 		.ascii	"BLK_DISCONNECTING\000"
 7265      44495343 
 7265      4F4E4E45 
 7265      4354494E 
 7265      4700
 7266              	.LASF57:
 7267 0bc7 725F7072 		.ascii	"r_prio\000"
 7267      696F00
 7268              	.LASF74:
 7269 0bce 63685F73 		.ascii	"ch_system_debug\000"
 7269      79737465 
 7269      6D5F6465 
 7269      62756700 
 7270              	.LASF201:
 7271 0bde 73646366 		.ascii	"sdcflags_t\000"
 7271      6C616773 
 7271      5F7400
 7272              	.LASF82:
 7273 0be9 76746C69 		.ascii	"vtlist\000"
 7273      737400
 7274              	.LASF206:
 7275 0bf0 63617264 		.ascii	"cardmode\000"
 7275      6D6F6465 
 7275      00
 7276              	.LASF172:
 7277 0bf9 6D757465 		.ascii	"mutex_t\000"
 7277      785F7400 
 7278              	.LASF20:
 7279 0c01 74726566 		.ascii	"trefs_t\000"
 7279      735F7400 
 7280              	.LASF49:
 7281 0c09 74687265 		.ascii	"threads_list_t\000"
 7281      6164735F 
 7281      6C697374 
 7281      5F7400
 7282              	.LASF266:
 7283 0c18 626C6F63 		.ascii	"blocks\000"
 7283      6B7300
 7284              	.LASF80:
 7285 0c1f 63685F73 		.ascii	"ch_system\000"
 7285      79737465 
 7285      6D00
 7286              	.LASF185:
 7287 0c29 424C4B5F 		.ascii	"BLK_READING\000"
 7287      52454144 
 7287      494E4700 
ARM GAS  C:\Users\Luis\AppData\Local\Temp\ccMHTq6a.s 			page 140


 7288              	.LASF14:
 7289 0c35 75696E74 		.ascii	"uint32_t\000"
 7289      33325F74 
 7289      00
 7290              	.LASF265:
 7291 0c3e 7364635F 		.ascii	"sdc_lld_read_aligned\000"
 7291      6C6C645F 
 7291      72656164 
 7291      5F616C69 
 7291      676E6564 
 7292              	.LASF118:
 7293 0c53 504F5745 		.ascii	"POWER\000"
 7293      5200
 7294              	.LASF158:
 7295 0c59 7264796D 		.ascii	"rdymsg\000"
 7295      736700
 7296              	.LASF72:
 7297 0c60 76745F6C 		.ascii	"vt_lasttime\000"
 7297      61737474 
 7297      696D6500 
 7298              	.LASF4:
 7299 0c6c 73686F72 		.ascii	"short unsigned int\000"
 7299      7420756E 
 7299      7369676E 
 7299      65642069 
 7299      6E7400
 7300              	.LASF119:
 7301 0c7f 434C4B43 		.ascii	"CLKCR\000"
 7301      5200
 7302              	.LASF79:
 7303 0c85 63685F73 		.ascii	"ch_system_t\000"
 7303      79737465 
 7303      6D5F7400 
 7304              	.LASF199:
 7305 0c91 73646362 		.ascii	"sdcbusclk_t\000"
 7305      7573636C 
 7305      6B5F7400 
 7306              	.LASF35:
 7307 0c9d 705F7374 		.ascii	"p_stklimit\000"
 7307      6B6C696D 
 7307      697400
 7308              	.LASF92:
 7309 0ca8 41484231 		.ascii	"AHB1RSTR\000"
 7309      52535452 
 7309      00
 7310              	.LASF196:
 7311 0cb1 73646362 		.ascii	"sdcbusmode_t\000"
 7311      75736D6F 
 7311      64655F74 
 7311      00
 7312              	.LASF86:
 7313 0cbe 4E445452 		.ascii	"NDTR\000"
 7313      00
 7314              	.LASF174:
 7315 0cc3 69666372 		.ascii	"ifcr\000"
 7315      00
 7316              	.LASF137:
ARM GAS  C:\Users\Luis\AppData\Local\Temp\ccMHTq6a.s 			page 141


 7317 0cc8 73655F74 		.ascii	"se_time\000"
 7317      696D6500 
 7318              	.LASF34:
 7319 0cd0 705F6E61 		.ascii	"p_name\000"
 7319      6D6500
 7320              	.LASF171:
 7321 0cd7 6D5F6E65 		.ascii	"m_next\000"
 7321      787400
 7322              	.LASF143:
 7323 0cde 74625F70 		.ascii	"tb_ptr\000"
 7323      747200
 7324              	.LASF213:
 7325 0ce5 53444343 		.ascii	"SDCConfig\000"
 7325      6F6E6669 
 7325      6700
 7326              	.LASF180:
 7327 0cef 424C4B5F 		.ascii	"BLK_STOP\000"
 7327      53544F50 
 7327      00
 7328              	.LASF150:
 7329 0cf8 6C617374 		.ascii	"last\000"
 7329      00
 7330              	.LASF41:
 7331 0cfd 705F6D73 		.ascii	"p_msg\000"
 7331      6700
 7332              	.LASF36:
 7333 0d03 705F7374 		.ascii	"p_state\000"
 7333      61746500 
 7334              		.ident	"GCC: (GNU Tools for ARM Embedded Processors) 4.8.3 20131129 (release) [ARM/embedded-4_8-br
ARM GAS  C:\Users\Luis\AppData\Local\Temp\ccMHTq6a.s 			page 142


DEFINED SYMBOLS
                            *ABS*:00000000 sdc_lld.c
C:\Users\Luis\AppData\Local\Temp\ccMHTq6a.s:19     .text.port_lock:00000000 $t
C:\Users\Luis\AppData\Local\Temp\ccMHTq6a.s:24     .text.port_lock:00000000 port_lock
C:\Users\Luis\AppData\Local\Temp\ccMHTq6a.s:62     .text.port_unlock:00000000 $t
C:\Users\Luis\AppData\Local\Temp\ccMHTq6a.s:67     .text.port_unlock:00000000 port_unlock
C:\Users\Luis\AppData\Local\Temp\ccMHTq6a.s:103    .text.port_lock_from_isr:00000000 $t
C:\Users\Luis\AppData\Local\Temp\ccMHTq6a.s:108    .text.port_lock_from_isr:00000000 port_lock_from_isr
C:\Users\Luis\AppData\Local\Temp\ccMHTq6a.s:128    .text.port_unlock_from_isr:00000000 $t
C:\Users\Luis\AppData\Local\Temp\ccMHTq6a.s:133    .text.port_unlock_from_isr:00000000 port_unlock_from_isr
C:\Users\Luis\AppData\Local\Temp\ccMHTq6a.s:153    .text.chSysLock:00000000 $t
C:\Users\Luis\AppData\Local\Temp\ccMHTq6a.s:158    .text.chSysLock:00000000 chSysLock
C:\Users\Luis\AppData\Local\Temp\ccMHTq6a.s:183    .text.chSysUnlock:00000000 $t
C:\Users\Luis\AppData\Local\Temp\ccMHTq6a.s:188    .text.chSysUnlock:00000000 chSysUnlock
C:\Users\Luis\AppData\Local\Temp\ccMHTq6a.s:229    .text.chSysUnlock:00000034 $d
C:\Users\Luis\AppData\Local\Temp\ccMHTq6a.s:2652   .rodata.__func__.6186:00000000 __func__.6186
C:\Users\Luis\AppData\Local\Temp\ccMHTq6a.s:235    .text.chSysLockFromISR:00000000 $t
C:\Users\Luis\AppData\Local\Temp\ccMHTq6a.s:240    .text.chSysLockFromISR:00000000 chSysLockFromISR
C:\Users\Luis\AppData\Local\Temp\ccMHTq6a.s:264    .text.chSysUnlockFromISR:00000000 $t
C:\Users\Luis\AppData\Local\Temp\ccMHTq6a.s:269    .text.chSysUnlockFromISR:00000000 chSysUnlockFromISR
C:\Users\Luis\AppData\Local\Temp\ccMHTq6a.s:293    .text.osalSysLock:00000000 $t
C:\Users\Luis\AppData\Local\Temp\ccMHTq6a.s:298    .text.osalSysLock:00000000 osalSysLock
C:\Users\Luis\AppData\Local\Temp\ccMHTq6a.s:319    .text.osalSysUnlock:00000000 $t
C:\Users\Luis\AppData\Local\Temp\ccMHTq6a.s:324    .text.osalSysUnlock:00000000 osalSysUnlock
C:\Users\Luis\AppData\Local\Temp\ccMHTq6a.s:344    .text.osalSysLockFromISR:00000000 $t
C:\Users\Luis\AppData\Local\Temp\ccMHTq6a.s:349    .text.osalSysLockFromISR:00000000 osalSysLockFromISR
C:\Users\Luis\AppData\Local\Temp\ccMHTq6a.s:369    .text.osalSysUnlockFromISR:00000000 $t
C:\Users\Luis\AppData\Local\Temp\ccMHTq6a.s:374    .text.osalSysUnlockFromISR:00000000 osalSysUnlockFromISR
C:\Users\Luis\AppData\Local\Temp\ccMHTq6a.s:394    .text.osalThreadSleep:00000000 $t
C:\Users\Luis\AppData\Local\Temp\ccMHTq6a.s:399    .text.osalThreadSleep:00000000 osalThreadSleep
C:\Users\Luis\AppData\Local\Temp\ccMHTq6a.s:426    .text.osalThreadSuspendS:00000000 $t
C:\Users\Luis\AppData\Local\Temp\ccMHTq6a.s:431    .text.osalThreadSuspendS:00000000 osalThreadSuspendS
C:\Users\Luis\AppData\Local\Temp\ccMHTq6a.s:460    .text.osalThreadResumeI:00000000 $t
C:\Users\Luis\AppData\Local\Temp\ccMHTq6a.s:465    .text.osalThreadResumeI:00000000 osalThreadResumeI
C:\Users\Luis\AppData\Local\Temp\ccMHTq6a.s:498    .bss.SDCD1:00000000 SDCD1
C:\Users\Luis\AppData\Local\Temp\ccMHTq6a.s:495    .bss.SDCD1:00000000 $d
C:\Users\Luis\AppData\Local\Temp\ccMHTq6a.s:501    .bss.u:00000000 $d
C:\Users\Luis\AppData\Local\Temp\ccMHTq6a.s:504    .bss.u:00000000 u
C:\Users\Luis\AppData\Local\Temp\ccMHTq6a.s:507    .rodata.sdc_default_cfg:00000000 $d
C:\Users\Luis\AppData\Local\Temp\ccMHTq6a.s:510    .rodata.sdc_default_cfg:00000000 sdc_default_cfg
C:\Users\Luis\AppData\Local\Temp\ccMHTq6a.s:515    .text.sdc_lld_prepare_read_bytes:00000000 $t
C:\Users\Luis\AppData\Local\Temp\ccMHTq6a.s:520    .text.sdc_lld_prepare_read_bytes:00000000 sdc_lld_prepare_read_bytes
C:\Users\Luis\AppData\Local\Temp\ccMHTq6a.s:623    .text.sdc_lld_prepare_read_bytes:00000094 $d
C:\Users\Luis\AppData\Local\Temp\ccMHTq6a.s:2646   .rodata.__func__.8258:00000000 __func__.8258
C:\Users\Luis\AppData\Local\Temp\ccMHTq6a.s:630    .text.sdc_lld_prepare_read:00000000 $t
C:\Users\Luis\AppData\Local\Temp\ccMHTq6a.s:635    .text.sdc_lld_prepare_read:00000000 sdc_lld_prepare_read
C:\Users\Luis\AppData\Local\Temp\ccMHTq6a.s:1814   .text.sdc_lld_send_cmd_short_crc:00000000 sdc_lld_send_cmd_short_crc
C:\Users\Luis\AppData\Local\Temp\ccMHTq6a.s:722    .text.sdc_lld_prepare_read:00000074 $d
C:\Users\Luis\AppData\Local\Temp\ccMHTq6a.s:727    .text.sdc_lld_prepare_write:00000000 $t
C:\Users\Luis\AppData\Local\Temp\ccMHTq6a.s:732    .text.sdc_lld_prepare_write:00000000 sdc_lld_prepare_write
C:\Users\Luis\AppData\Local\Temp\ccMHTq6a.s:819    .text.sdc_lld_prepare_write:00000074 $d
C:\Users\Luis\AppData\Local\Temp\ccMHTq6a.s:824    .text.sdc_lld_wait_transaction_end:00000000 $t
C:\Users\Luis\AppData\Local\Temp\ccMHTq6a.s:829    .text.sdc_lld_wait_transaction_end:00000000 sdc_lld_wait_transaction_end
C:\Users\Luis\AppData\Local\Temp\ccMHTq6a.s:931    .text.sdc_lld_wait_transaction_end:00000094 $d
C:\Users\Luis\AppData\Local\Temp\ccMHTq6a.s:936    .text.sdc_lld_collect_errors:00000000 $t
C:\Users\Luis\AppData\Local\Temp\ccMHTq6a.s:941    .text.sdc_lld_collect_errors:00000000 sdc_lld_collect_errors
C:\Users\Luis\AppData\Local\Temp\ccMHTq6a.s:1047   .text.sdc_lld_error_cleanup:00000000 $t
ARM GAS  C:\Users\Luis\AppData\Local\Temp\ccMHTq6a.s 			page 143


C:\Users\Luis\AppData\Local\Temp\ccMHTq6a.s:1052   .text.sdc_lld_error_cleanup:00000000 sdc_lld_error_cleanup
C:\Users\Luis\AppData\Local\Temp\ccMHTq6a.s:1152   .text.sdc_lld_error_cleanup:0000009c $d
C:\Users\Luis\AppData\Local\Temp\ccMHTq6a.s:1157   .text.Vector104:00000000 $t
C:\Users\Luis\AppData\Local\Temp\ccMHTq6a.s:1163   .text.Vector104:00000000 Vector104
C:\Users\Luis\AppData\Local\Temp\ccMHTq6a.s:1198   .text.Vector104:0000002c $d
C:\Users\Luis\AppData\Local\Temp\ccMHTq6a.s:1204   .text.sdc_lld_init:00000000 $t
C:\Users\Luis\AppData\Local\Temp\ccMHTq6a.s:1210   .text.sdc_lld_init:00000000 sdc_lld_init
C:\Users\Luis\AppData\Local\Temp\ccMHTq6a.s:1242   .text.sdc_lld_init:00000020 $d
C:\Users\Luis\AppData\Local\Temp\ccMHTq6a.s:1249   .text.sdc_lld_start:00000000 $t
C:\Users\Luis\AppData\Local\Temp\ccMHTq6a.s:1255   .text.sdc_lld_start:00000000 sdc_lld_start
C:\Users\Luis\AppData\Local\Temp\ccMHTq6a.s:1369   .text.sdc_lld_start:000000a8 $d
C:\Users\Luis\AppData\Local\Temp\ccMHTq6a.s:2658   .rodata.__func__.8303:00000000 __func__.8303
C:\Users\Luis\AppData\Local\Temp\ccMHTq6a.s:1377   .text.sdc_lld_stop:00000000 $t
C:\Users\Luis\AppData\Local\Temp\ccMHTq6a.s:1383   .text.sdc_lld_stop:00000000 sdc_lld_stop
C:\Users\Luis\AppData\Local\Temp\ccMHTq6a.s:1446   .text.sdc_lld_stop:00000054 $d
C:\Users\Luis\AppData\Local\Temp\ccMHTq6a.s:1451   .text.sdc_lld_start_clk:00000000 $t
C:\Users\Luis\AppData\Local\Temp\ccMHTq6a.s:1457   .text.sdc_lld_start_clk:00000000 sdc_lld_start_clk
C:\Users\Luis\AppData\Local\Temp\ccMHTq6a.s:1505   .text.sdc_lld_set_data_clk:00000000 $t
C:\Users\Luis\AppData\Local\Temp\ccMHTq6a.s:1511   .text.sdc_lld_set_data_clk:00000000 sdc_lld_set_data_clk
C:\Users\Luis\AppData\Local\Temp\ccMHTq6a.s:1546   .text.sdc_lld_stop_clk:00000000 $t
C:\Users\Luis\AppData\Local\Temp\ccMHTq6a.s:1552   .text.sdc_lld_stop_clk:00000000 sdc_lld_stop_clk
C:\Users\Luis\AppData\Local\Temp\ccMHTq6a.s:1587   .text.sdc_lld_set_bus_mode:00000000 $t
C:\Users\Luis\AppData\Local\Temp\ccMHTq6a.s:1593   .text.sdc_lld_set_bus_mode:00000000 sdc_lld_set_bus_mode
C:\Users\Luis\AppData\Local\Temp\ccMHTq6a.s:1660   .text.sdc_lld_send_cmd_none:00000000 $t
C:\Users\Luis\AppData\Local\Temp\ccMHTq6a.s:1666   .text.sdc_lld_send_cmd_none:00000000 sdc_lld_send_cmd_none
C:\Users\Luis\AppData\Local\Temp\ccMHTq6a.s:1720   .text.sdc_lld_send_cmd_short:00000000 $t
C:\Users\Luis\AppData\Local\Temp\ccMHTq6a.s:1726   .text.sdc_lld_send_cmd_short:00000000 sdc_lld_send_cmd_short
C:\Users\Luis\AppData\Local\Temp\ccMHTq6a.s:1808   .text.sdc_lld_send_cmd_short_crc:00000000 $t
C:\Users\Luis\AppData\Local\Temp\ccMHTq6a.s:1896   .text.sdc_lld_send_cmd_long_crc:00000000 $t
C:\Users\Luis\AppData\Local\Temp\ccMHTq6a.s:1902   .text.sdc_lld_send_cmd_long_crc:00000000 sdc_lld_send_cmd_long_crc
C:\Users\Luis\AppData\Local\Temp\ccMHTq6a.s:2008   .text.sdc_lld_read_special:00000000 $t
C:\Users\Luis\AppData\Local\Temp\ccMHTq6a.s:2014   .text.sdc_lld_read_special:00000000 sdc_lld_read_special
C:\Users\Luis\AppData\Local\Temp\ccMHTq6a.s:2093   .text.sdc_lld_read_special:00000074 $d
C:\Users\Luis\AppData\Local\Temp\ccMHTq6a.s:2098   .text.sdc_lld_read_aligned:00000000 $t
C:\Users\Luis\AppData\Local\Temp\ccMHTq6a.s:2104   .text.sdc_lld_read_aligned:00000000 sdc_lld_read_aligned
C:\Users\Luis\AppData\Local\Temp\ccMHTq6a.s:2243   .text.sdc_lld_read_aligned:000000d8 $d
C:\Users\Luis\AppData\Local\Temp\ccMHTq6a.s:2664   .rodata.__func__.8380:00000000 __func__.8380
C:\Users\Luis\AppData\Local\Temp\ccMHTq6a.s:2250   .text.sdc_lld_write_aligned:00000000 $t
C:\Users\Luis\AppData\Local\Temp\ccMHTq6a.s:2256   .text.sdc_lld_write_aligned:00000000 sdc_lld_write_aligned
C:\Users\Luis\AppData\Local\Temp\ccMHTq6a.s:2396   .text.sdc_lld_write_aligned:000000dc $d
C:\Users\Luis\AppData\Local\Temp\ccMHTq6a.s:2670   .rodata.__func__.8389:00000000 __func__.8389
C:\Users\Luis\AppData\Local\Temp\ccMHTq6a.s:2403   .text.sdc_lld_read:00000000 $t
C:\Users\Luis\AppData\Local\Temp\ccMHTq6a.s:2409   .text.sdc_lld_read:00000000 sdc_lld_read
C:\Users\Luis\AppData\Local\Temp\ccMHTq6a.s:2501   .text.sdc_lld_read:00000080 $d
C:\Users\Luis\AppData\Local\Temp\ccMHTq6a.s:2506   .text.sdc_lld_write:00000000 $t
C:\Users\Luis\AppData\Local\Temp\ccMHTq6a.s:2512   .text.sdc_lld_write:00000000 sdc_lld_write
C:\Users\Luis\AppData\Local\Temp\ccMHTq6a.s:2604   .text.sdc_lld_write:00000080 $d
C:\Users\Luis\AppData\Local\Temp\ccMHTq6a.s:2609   .text.sdc_lld_sync:00000000 $t
C:\Users\Luis\AppData\Local\Temp\ccMHTq6a.s:2615   .text.sdc_lld_sync:00000000 sdc_lld_sync
C:\Users\Luis\AppData\Local\Temp\ccMHTq6a.s:2643   .rodata.__func__.8258:00000000 $d
C:\Users\Luis\AppData\Local\Temp\ccMHTq6a.s:2649   .rodata.__func__.6186:00000000 $d
C:\Users\Luis\AppData\Local\Temp\ccMHTq6a.s:2655   .rodata.__func__.8303:00000000 $d
C:\Users\Luis\AppData\Local\Temp\ccMHTq6a.s:2661   .rodata.__func__.8380:00000000 $d
C:\Users\Luis\AppData\Local\Temp\ccMHTq6a.s:2667   .rodata.__func__.8389:00000000 $d
                     .debug_frame:00000010 $d
C:\Users\Luis\AppData\Local\Temp\ccMHTq6a.s:234    .text.chSysUnlock:0000003c $t
C:\Users\Luis\AppData\Local\Temp\ccMHTq6a.s:726    .text.sdc_lld_prepare_read:00000078 $t
ARM GAS  C:\Users\Luis\AppData\Local\Temp\ccMHTq6a.s 			page 144


C:\Users\Luis\AppData\Local\Temp\ccMHTq6a.s:823    .text.sdc_lld_prepare_write:00000078 $t
C:\Users\Luis\AppData\Local\Temp\ccMHTq6a.s:935    .text.sdc_lld_wait_transaction_end:00000098 $t
C:\Users\Luis\AppData\Local\Temp\ccMHTq6a.s:1203   .text.Vector104:00000034 $t
C:\Users\Luis\AppData\Local\Temp\ccMHTq6a.s:1248   .text.sdc_lld_init:0000002c $t
C:\Users\Luis\AppData\Local\Temp\ccMHTq6a.s:1376   .text.sdc_lld_start:000000b8 $t
C:\Users\Luis\AppData\Local\Temp\ccMHTq6a.s:1450   .text.sdc_lld_stop:00000058 $t
C:\Users\Luis\AppData\Local\Temp\ccMHTq6a.s:2097   .text.sdc_lld_read_special:00000078 $t
C:\Users\Luis\AppData\Local\Temp\ccMHTq6a.s:2249   .text.sdc_lld_read_aligned:000000e4 $t
C:\Users\Luis\AppData\Local\Temp\ccMHTq6a.s:2402   .text.sdc_lld_write_aligned:000000e8 $t
C:\Users\Luis\AppData\Local\Temp\ccMHTq6a.s:2505   .text.sdc_lld_read:00000084 $t
C:\Users\Luis\AppData\Local\Temp\ccMHTq6a.s:2608   .text.sdc_lld_write:00000084 $t

UNDEFINED SYMBOLS
_stats_start_measure_crit_thd
_dbg_check_lock
_dbg_check_unlock
_stats_stop_measure_crit_thd
chSysHalt
ch
_stats_start_measure_crit_isr
_dbg_check_lock_from_isr
_dbg_check_unlock_from_isr
_stats_stop_measure_crit_isr
chThdSleep
chThdSuspendS
chThdResumeI
_sdc_wait_for_transfer_state
_stats_increase_irq
_dbg_check_enter_isr
_dbg_check_leave_isr
_port_irq_epilogue
sdcObjectInit
_stm32_dma_streams
dmaStreamAllocate
nvicEnableVector
nvicDisableVector
dmaStreamRelease
memcpy
