ARM GAS  C:\Users\Luis\AppData\Local\Temp\ccMHTq6a.s 			page 1


   1              		.syntax unified
   2              		.cpu cortex-m4
   3              		.fpu softvfp
   4              		.eabi_attribute 20, 1
   5              		.eabi_attribute 21, 1
   6              		.eabi_attribute 23, 3
   7              		.eabi_attribute 24, 1
   8              		.eabi_attribute 25, 1
   9              		.eabi_attribute 26, 1
  10              		.eabi_attribute 30, 6
  11              		.eabi_attribute 34, 1
  12              		.eabi_attribute 18, 4
  13              		.thumb
  14              		.file	"sdc_lld.c"
  15              		.text
  16              	.Ltext0:
  17              		.cfi_sections	.debug_frame
  18              		.section	.text.port_lock,"ax",%progbits
  19              		.align	2
  20              		.p2align 4,,15
  21              		.thumb
  22              		.thumb_func
  23              		.type	port_lock, %function
  24              	port_lock:
  25              	.LFB116:
  26              		.file 1 "../../ChibiOS/os/rt/ports/ARMCMx/chcore_v7m.h"
  27              		.loc 1 444 0
  28              		.cfi_startproc
  29              		@ args = 0, pretend = 0, frame = 8
  30              		@ frame_needed = 1, uses_anonymous_args = 0
  31              		@ link register save eliminated.
  32 0000 80B4     		push	{r7}
  33              		.cfi_def_cfa_offset 4
  34              		.cfi_offset 7, -4
  35 0002 83B0     		sub	sp, sp, #12
  36              		.cfi_def_cfa_offset 16
  37 0004 00AF     		add	r7, sp, #0
  38              		.cfi_def_cfa_register 7
  39 0006 2023     		movs	r3, #32
  40 0008 7B60     		str	r3, [r7, #4]
  41              	.LBB6:
  42              	.LBB7:
  43              		.file 2 "../../ChibiOS/os/ext/CMSIS/include/core_cmFunc.h"
  44              		.loc 2 546 0
  45 000a 7B68     		ldr	r3, [r7, #4]
  46              	@ 546 "../../ChibiOS/os/ext/CMSIS/include/core_cmFunc.h" 1
  47 000c 83F31188 		MSR basepri, r3
  48              	@ 0 "" 2
  49              		.thumb
  50              	.LBE7:
  51              	.LBE6:
  52              		.loc 1 451 0
  53 0010 0C37     		adds	r7, r7, #12
  54 0012 BD46     		mov	sp, r7
  55              		@ sp needed
  56 0014 5DF8047B 		ldr	r7, [sp], #4
  57 0018 7047     		bx	lr
ARM GAS  C:\Users\Luis\AppData\Local\Temp\ccMHTq6a.s 			page 2


  58              		.cfi_endproc
  59              	.LFE116:
  60              		.size	port_lock, .-port_lock
  61 001a 00BFAFF3 		.section	.text.port_unlock,"ax",%progbits
  61      0080
  62              		.align	2
  63              		.p2align 4,,15
  64              		.thumb
  65              		.thumb_func
  66              		.type	port_unlock, %function
  67              	port_unlock:
  68              	.LFB117:
  69              		.loc 1 458 0
  70              		.cfi_startproc
  71              		@ args = 0, pretend = 0, frame = 8
  72              		@ frame_needed = 1, uses_anonymous_args = 0
  73              		@ link register save eliminated.
  74 0000 80B4     		push	{r7}
  75              		.cfi_def_cfa_offset 4
  76              		.cfi_offset 7, -4
  77 0002 83B0     		sub	sp, sp, #12
  78              		.cfi_def_cfa_offset 16
  79 0004 00AF     		add	r7, sp, #0
  80              		.cfi_def_cfa_register 7
  81 0006 0023     		movs	r3, #0
  82 0008 7B60     		str	r3, [r7, #4]
  83              	.LBB8:
  84              	.LBB9:
  85              		.loc 2 546 0
  86 000a 7B68     		ldr	r3, [r7, #4]
  87              	@ 546 "../../ChibiOS/os/ext/CMSIS/include/core_cmFunc.h" 1
  88 000c 83F31188 		MSR basepri, r3
  89              	@ 0 "" 2
  90              		.thumb
  91              	.LBE9:
  92              	.LBE8:
  93              		.loc 1 465 0
  94 0010 0C37     		adds	r7, r7, #12
  95 0012 BD46     		mov	sp, r7
  96              		@ sp needed
  97 0014 5DF8047B 		ldr	r7, [sp], #4
  98 0018 7047     		bx	lr
  99              		.cfi_endproc
 100              	.LFE117:
 101              		.size	port_unlock, .-port_unlock
 102 001a 00BFAFF3 		.section	.text.port_lock_from_isr,"ax",%progbits
 102      0080
 103              		.align	2
 104              		.p2align 4,,15
 105              		.thumb
 106              		.thumb_func
 107              		.type	port_lock_from_isr, %function
 108              	port_lock_from_isr:
 109              	.LFB118:
 110              		.loc 1 473 0
 111              		.cfi_startproc
 112              		@ args = 0, pretend = 0, frame = 0
ARM GAS  C:\Users\Luis\AppData\Local\Temp\ccMHTq6a.s 			page 3


 113              		@ frame_needed = 1, uses_anonymous_args = 0
 114 0000 80B5     		push	{r7, lr}
 115              		.cfi_def_cfa_offset 8
 116              		.cfi_offset 7, -8
 117              		.cfi_offset 14, -4
 118 0002 00AF     		add	r7, sp, #0
 119              		.cfi_def_cfa_register 7
 120              		.loc 1 475 0
 121 0004 FFF7FEFF 		bl	port_lock
 122              		.loc 1 476 0
 123 0008 80BD     		pop	{r7, pc}
 124              		.cfi_endproc
 125              	.LFE118:
 126              		.size	port_lock_from_isr, .-port_lock_from_isr
 127 000a 00BFAFF3 		.section	.text.port_unlock_from_isr,"ax",%progbits
 127      0080
 128              		.align	2
 129              		.p2align 4,,15
 130              		.thumb
 131              		.thumb_func
 132              		.type	port_unlock_from_isr, %function
 133              	port_unlock_from_isr:
 134              	.LFB119:
 135              		.loc 1 484 0
 136              		.cfi_startproc
 137              		@ args = 0, pretend = 0, frame = 0
 138              		@ frame_needed = 1, uses_anonymous_args = 0
 139 0000 80B5     		push	{r7, lr}
 140              		.cfi_def_cfa_offset 8
 141              		.cfi_offset 7, -8
 142              		.cfi_offset 14, -4
 143 0002 00AF     		add	r7, sp, #0
 144              		.cfi_def_cfa_register 7
 145              		.loc 1 486 0
 146 0004 FFF7FEFF 		bl	port_unlock
 147              		.loc 1 487 0
 148 0008 80BD     		pop	{r7, pc}
 149              		.cfi_endproc
 150              	.LFE119:
 151              		.size	port_unlock_from_isr, .-port_unlock_from_isr
 152 000a 00BFAFF3 		.section	.text.chSysLock,"ax",%progbits
 152      0080
 153              		.align	2
 154              		.p2align 4,,15
 155              		.thumb
 156              		.thumb_func
 157              		.type	chSysLock, %function
 158              	chSysLock:
 159              	.LFB156:
 160              		.file 3 "../../ChibiOS/os/rt/include/chsys.h"
 161              		.loc 3 346 0
 162              		.cfi_startproc
 163              		@ args = 0, pretend = 0, frame = 0
 164              		@ frame_needed = 1, uses_anonymous_args = 0
 165 0000 80B5     		push	{r7, lr}
 166              		.cfi_def_cfa_offset 8
 167              		.cfi_offset 7, -8
ARM GAS  C:\Users\Luis\AppData\Local\Temp\ccMHTq6a.s 			page 4


 168              		.cfi_offset 14, -4
 169 0002 00AF     		add	r7, sp, #0
 170              		.cfi_def_cfa_register 7
 171              		.loc 3 348 0
 172 0004 FFF7FEFF 		bl	port_lock
 173              		.loc 3 349 0
 174 0008 FFF7FEFF 		bl	_stats_start_measure_crit_thd
 175              		.loc 3 350 0
 176 000c FFF7FEFF 		bl	_dbg_check_lock
 177              		.loc 3 351 0
 178 0010 80BD     		pop	{r7, pc}
 179              		.cfi_endproc
 180              	.LFE156:
 181              		.size	chSysLock, .-chSysLock
 182 0012 00BFAFF3 		.section	.text.chSysUnlock,"ax",%progbits
 182      0080AFF3 
 182      0080AFF3 
 182      0080
 183              		.align	2
 184              		.p2align 4,,15
 185              		.thumb
 186              		.thumb_func
 187              		.type	chSysUnlock, %function
 188              	chSysUnlock:
 189              	.LFB157:
 190              		.loc 3 358 0
 191              		.cfi_startproc
 192              		@ args = 0, pretend = 0, frame = 0
 193              		@ frame_needed = 1, uses_anonymous_args = 0
 194 0000 80B5     		push	{r7, lr}
 195              		.cfi_def_cfa_offset 8
 196              		.cfi_offset 7, -8
 197              		.cfi_offset 14, -4
 198 0002 00AF     		add	r7, sp, #0
 199              		.cfi_def_cfa_register 7
 200              		.loc 3 360 0
 201 0004 FFF7FEFF 		bl	_dbg_check_unlock
 202              		.loc 3 361 0
 203 0008 FFF7FEFF 		bl	_stats_stop_measure_crit_thd
 204              		.loc 3 367 0
 205 000c 094B     		ldr	r3, .L8
 206 000e 1A68     		ldr	r2, [r3]
 207 0010 084B     		ldr	r3, .L8
 208 0012 9A42     		cmp	r2, r3
 209 0014 0AD0     		beq	.L7
 210              		.loc 3 367 0 is_stmt 0 discriminator 1
 211 0016 074B     		ldr	r3, .L8
 212 0018 9B69     		ldr	r3, [r3, #24]
 213 001a 9A68     		ldr	r2, [r3, #8]
 214 001c 054B     		ldr	r3, .L8
 215 001e 1B68     		ldr	r3, [r3]
 216 0020 9B68     		ldr	r3, [r3, #8]
 217 0022 9A42     		cmp	r2, r3
 218 0024 02D2     		bcs	.L7
 219 0026 0448     		ldr	r0, .L8+4
 220 0028 FFF7FEFF 		bl	chSysHalt
 221              	.L7:
ARM GAS  C:\Users\Luis\AppData\Local\Temp\ccMHTq6a.s 			page 5


 222              		.loc 3 371 0 is_stmt 1
 223 002c FFF7FEFF 		bl	port_unlock
 224              		.loc 3 372 0
 225 0030 80BD     		pop	{r7, pc}
 226              	.L9:
 227 0032 00BF     		.align	2
 228              	.L8:
 229 0034 00000000 		.word	ch
 230 0038 00000000 		.word	__func__.6186
 231              		.cfi_endproc
 232              	.LFE157:
 233              		.size	chSysUnlock, .-chSysUnlock
 234 003c AFF30080 		.section	.text.chSysLockFromISR,"ax",%progbits
 235              		.align	2
 236              		.p2align 4,,15
 237              		.thumb
 238              		.thumb_func
 239              		.type	chSysLockFromISR, %function
 240              	chSysLockFromISR:
 241              	.LFB158:
 242              		.loc 3 386 0
 243              		.cfi_startproc
 244              		@ args = 0, pretend = 0, frame = 0
 245              		@ frame_needed = 1, uses_anonymous_args = 0
 246 0000 80B5     		push	{r7, lr}
 247              		.cfi_def_cfa_offset 8
 248              		.cfi_offset 7, -8
 249              		.cfi_offset 14, -4
 250 0002 00AF     		add	r7, sp, #0
 251              		.cfi_def_cfa_register 7
 252              		.loc 3 388 0
 253 0004 FFF7FEFF 		bl	port_lock_from_isr
 254              		.loc 3 389 0
 255 0008 FFF7FEFF 		bl	_stats_start_measure_crit_isr
 256              		.loc 3 390 0
 257 000c FFF7FEFF 		bl	_dbg_check_lock_from_isr
 258              		.loc 3 391 0
 259 0010 80BD     		pop	{r7, pc}
 260              		.cfi_endproc
 261              	.LFE158:
 262              		.size	chSysLockFromISR, .-chSysLockFromISR
 263 0012 00BFAFF3 		.section	.text.chSysUnlockFromISR,"ax",%progbits
 263      0080AFF3 
 263      0080AFF3 
 263      0080
 264              		.align	2
 265              		.p2align 4,,15
 266              		.thumb
 267              		.thumb_func
 268              		.type	chSysUnlockFromISR, %function
 269              	chSysUnlockFromISR:
 270              	.LFB159:
 271              		.loc 3 406 0
 272              		.cfi_startproc
 273              		@ args = 0, pretend = 0, frame = 0
 274              		@ frame_needed = 1, uses_anonymous_args = 0
 275 0000 80B5     		push	{r7, lr}
ARM GAS  C:\Users\Luis\AppData\Local\Temp\ccMHTq6a.s 			page 6


 276              		.cfi_def_cfa_offset 8
 277              		.cfi_offset 7, -8
 278              		.cfi_offset 14, -4
 279 0002 00AF     		add	r7, sp, #0
 280              		.cfi_def_cfa_register 7
 281              		.loc 3 408 0
 282 0004 FFF7FEFF 		bl	_dbg_check_unlock_from_isr
 283              		.loc 3 409 0
 284 0008 FFF7FEFF 		bl	_stats_stop_measure_crit_isr
 285              		.loc 3 410 0
 286 000c FFF7FEFF 		bl	port_unlock_from_isr
 287              		.loc 3 411 0
 288 0010 80BD     		pop	{r7, pc}
 289              		.cfi_endproc
 290              	.LFE159:
 291              		.size	chSysUnlockFromISR, .-chSysUnlockFromISR
 292 0012 00BFAFF3 		.section	.text.osalSysLock,"ax",%progbits
 292      0080AFF3 
 292      0080AFF3 
 292      0080
 293              		.align	2
 294              		.p2align 4,,15
 295              		.thumb
 296              		.thumb_func
 297              		.type	osalSysLock, %function
 298              	osalSysLock:
 299              	.LFB233:
 300              		.file 4 "../../ChibiOS/os/hal/osal/rt/osal.h"
 301              		.loc 4 491 0
 302              		.cfi_startproc
 303              		@ args = 0, pretend = 0, frame = 0
 304              		@ frame_needed = 1, uses_anonymous_args = 0
 305 0000 80B5     		push	{r7, lr}
 306              		.cfi_def_cfa_offset 8
 307              		.cfi_offset 7, -8
 308              		.cfi_offset 14, -4
 309 0002 00AF     		add	r7, sp, #0
 310              		.cfi_def_cfa_register 7
 311              		.loc 4 493 0
 312 0004 FFF7FEFF 		bl	chSysLock
 313              		.loc 4 494 0
 314 0008 80BD     		pop	{r7, pc}
 315              		.cfi_endproc
 316              	.LFE233:
 317              		.size	osalSysLock, .-osalSysLock
 318 000a 00BFAFF3 		.section	.text.osalSysUnlock,"ax",%progbits
 318      0080
 319              		.align	2
 320              		.p2align 4,,15
 321              		.thumb
 322              		.thumb_func
 323              		.type	osalSysUnlock, %function
 324              	osalSysUnlock:
 325              	.LFB234:
 326              		.loc 4 502 0
 327              		.cfi_startproc
 328              		@ args = 0, pretend = 0, frame = 0
ARM GAS  C:\Users\Luis\AppData\Local\Temp\ccMHTq6a.s 			page 7


 329              		@ frame_needed = 1, uses_anonymous_args = 0
 330 0000 80B5     		push	{r7, lr}
 331              		.cfi_def_cfa_offset 8
 332              		.cfi_offset 7, -8
 333              		.cfi_offset 14, -4
 334 0002 00AF     		add	r7, sp, #0
 335              		.cfi_def_cfa_register 7
 336              		.loc 4 504 0
 337 0004 FFF7FEFF 		bl	chSysUnlock
 338              		.loc 4 505 0
 339 0008 80BD     		pop	{r7, pc}
 340              		.cfi_endproc
 341              	.LFE234:
 342              		.size	osalSysUnlock, .-osalSysUnlock
 343 000a 00BFAFF3 		.section	.text.osalSysLockFromISR,"ax",%progbits
 343      0080
 344              		.align	2
 345              		.p2align 4,,15
 346              		.thumb
 347              		.thumb_func
 348              		.type	osalSysLockFromISR, %function
 349              	osalSysLockFromISR:
 350              	.LFB235:
 351              		.loc 4 513 0
 352              		.cfi_startproc
 353              		@ args = 0, pretend = 0, frame = 0
 354              		@ frame_needed = 1, uses_anonymous_args = 0
 355 0000 80B5     		push	{r7, lr}
 356              		.cfi_def_cfa_offset 8
 357              		.cfi_offset 7, -8
 358              		.cfi_offset 14, -4
 359 0002 00AF     		add	r7, sp, #0
 360              		.cfi_def_cfa_register 7
 361              		.loc 4 515 0
 362 0004 FFF7FEFF 		bl	chSysLockFromISR
 363              		.loc 4 516 0
 364 0008 80BD     		pop	{r7, pc}
 365              		.cfi_endproc
 366              	.LFE235:
 367              		.size	osalSysLockFromISR, .-osalSysLockFromISR
 368 000a 00BFAFF3 		.section	.text.osalSysUnlockFromISR,"ax",%progbits
 368      0080
 369              		.align	2
 370              		.p2align 4,,15
 371              		.thumb
 372              		.thumb_func
 373              		.type	osalSysUnlockFromISR, %function
 374              	osalSysUnlockFromISR:
 375              	.LFB236:
 376              		.loc 4 524 0
 377              		.cfi_startproc
 378              		@ args = 0, pretend = 0, frame = 0
 379              		@ frame_needed = 1, uses_anonymous_args = 0
 380 0000 80B5     		push	{r7, lr}
 381              		.cfi_def_cfa_offset 8
 382              		.cfi_offset 7, -8
 383              		.cfi_offset 14, -4
ARM GAS  C:\Users\Luis\AppData\Local\Temp\ccMHTq6a.s 			page 8


 384 0002 00AF     		add	r7, sp, #0
 385              		.cfi_def_cfa_register 7
 386              		.loc 4 526 0
 387 0004 FFF7FEFF 		bl	chSysUnlockFromISR
 388              		.loc 4 527 0
 389 0008 80BD     		pop	{r7, pc}
 390              		.cfi_endproc
 391              	.LFE236:
 392              		.size	osalSysUnlockFromISR, .-osalSysUnlockFromISR
 393 000a 00BFAFF3 		.section	.text.osalThreadSleep,"ax",%progbits
 393      0080
 394              		.align	2
 395              		.p2align 4,,15
 396              		.thumb
 397              		.thumb_func
 398              		.type	osalThreadSleep, %function
 399              	osalThreadSleep:
 400              	.LFB245:
 401              		.loc 4 671 0
 402              		.cfi_startproc
 403              		@ args = 0, pretend = 0, frame = 8
 404              		@ frame_needed = 1, uses_anonymous_args = 0
 405 0000 80B5     		push	{r7, lr}
 406              		.cfi_def_cfa_offset 8
 407              		.cfi_offset 7, -8
 408              		.cfi_offset 14, -4
 409 0002 82B0     		sub	sp, sp, #8
 410              		.cfi_def_cfa_offset 16
 411 0004 00AF     		add	r7, sp, #0
 412              		.cfi_def_cfa_register 7
 413 0006 7860     		str	r0, [r7, #4]
 414              		.loc 4 673 0
 415 0008 7868     		ldr	r0, [r7, #4]
 416 000a FFF7FEFF 		bl	chThdSleep
 417              		.loc 4 674 0
 418 000e 0837     		adds	r7, r7, #8
 419 0010 BD46     		mov	sp, r7
 420              		@ sp needed
 421 0012 80BD     		pop	{r7, pc}
 422              		.cfi_endproc
 423              	.LFE245:
 424              		.size	osalThreadSleep, .-osalThreadSleep
 425 0014 AFF30080 		.section	.text.osalThreadSuspendS,"ax",%progbits
 425      AFF30080 
 425      AFF30080 
 426              		.align	2
 427              		.p2align 4,,15
 428              		.thumb
 429              		.thumb_func
 430              		.type	osalThreadSuspendS, %function
 431              	osalThreadSuspendS:
 432              	.LFB246:
 433              		.loc 4 686 0
 434              		.cfi_startproc
 435              		@ args = 0, pretend = 0, frame = 8
 436              		@ frame_needed = 1, uses_anonymous_args = 0
 437 0000 80B5     		push	{r7, lr}
ARM GAS  C:\Users\Luis\AppData\Local\Temp\ccMHTq6a.s 			page 9


 438              		.cfi_def_cfa_offset 8
 439              		.cfi_offset 7, -8
 440              		.cfi_offset 14, -4
 441 0002 82B0     		sub	sp, sp, #8
 442              		.cfi_def_cfa_offset 16
 443 0004 00AF     		add	r7, sp, #0
 444              		.cfi_def_cfa_register 7
 445 0006 7860     		str	r0, [r7, #4]
 446              		.loc 4 688 0
 447 0008 7868     		ldr	r0, [r7, #4]
 448 000a FFF7FEFF 		bl	chThdSuspendS
 449 000e 0346     		mov	r3, r0
 450              		.loc 4 689 0
 451 0010 1846     		mov	r0, r3
 452 0012 0837     		adds	r7, r7, #8
 453 0014 BD46     		mov	sp, r7
 454              		@ sp needed
 455 0016 80BD     		pop	{r7, pc}
 456              		.cfi_endproc
 457              	.LFE246:
 458              		.size	osalThreadSuspendS, .-osalThreadSuspendS
 459 0018 AFF30080 		.section	.text.osalThreadResumeI,"ax",%progbits
 459      AFF30080 
 460              		.align	2
 461              		.p2align 4,,15
 462              		.thumb
 463              		.thumb_func
 464              		.type	osalThreadResumeI, %function
 465              	osalThreadResumeI:
 466              	.LFB248:
 467              		.loc 4 726 0
 468              		.cfi_startproc
 469              		@ args = 0, pretend = 0, frame = 8
 470              		@ frame_needed = 1, uses_anonymous_args = 0
 471 0000 80B5     		push	{r7, lr}
 472              		.cfi_def_cfa_offset 8
 473              		.cfi_offset 7, -8
 474              		.cfi_offset 14, -4
 475 0002 82B0     		sub	sp, sp, #8
 476              		.cfi_def_cfa_offset 16
 477 0004 00AF     		add	r7, sp, #0
 478              		.cfi_def_cfa_register 7
 479 0006 7860     		str	r0, [r7, #4]
 480 0008 3960     		str	r1, [r7]
 481              		.loc 4 728 0
 482 000a 7868     		ldr	r0, [r7, #4]
 483 000c 3968     		ldr	r1, [r7]
 484 000e FFF7FEFF 		bl	chThdResumeI
 485              		.loc 4 729 0
 486 0012 0837     		adds	r7, r7, #8
 487 0014 BD46     		mov	sp, r7
 488              		@ sp needed
 489 0016 80BD     		pop	{r7, pc}
 490              		.cfi_endproc
 491              	.LFE248:
 492              		.size	osalThreadResumeI, .-osalThreadResumeI
 493              		.global	SDCD1
ARM GAS  C:\Users\Luis\AppData\Local\Temp\ccMHTq6a.s 			page 10


 494 0018 AFF30080 		.section	.bss.SDCD1,"aw",%nobits
 494      AFF30080 
 495              		.align	2
 496              		.type	SDCD1, %object
 497              		.size	SDCD1, 76
 498              	SDCD1:
 499 0000 00000000 		.space	76
 499      00000000 
 499      00000000 
 499      00000000 
 499      00000000 
 500              		.section	.bss.u,"aw",%nobits
 501              		.align	2
 502              		.type	u, %object
 503              		.size	u, 512
 504              	u:
 505 0000 00000000 		.space	512
 505      00000000 
 505      00000000 
 505      00000000 
 505      00000000 
 506              		.section	.rodata.sdc_default_cfg,"a",%progbits
 507              		.align	2
 508              		.type	sdc_default_cfg, %object
 509              		.size	sdc_default_cfg, 8
 510              	sdc_default_cfg:
 511 0000 00000000 		.word	0
 512 0004 01       		.byte	1
 513 0005 000000   		.space	3
 514              		.section	.text.sdc_lld_prepare_read_bytes,"ax",%progbits
 515              		.align	2
 516              		.p2align 4,,15
 517              		.thumb
 518              		.thumb_func
 519              		.type	sdc_lld_prepare_read_bytes, %function
 520              	sdc_lld_prepare_read_bytes:
 521              	.LFB260:
 522              		.file 5 "../../ChibiOS/os/hal/ports/STM32/LLD/sdc_lld.c"
 523              		.loc 5 88 0
 524              		.cfi_startproc
 525              		@ args = 0, pretend = 0, frame = 16
 526              		@ frame_needed = 1, uses_anonymous_args = 0
 527 0000 80B5     		push	{r7, lr}
 528              		.cfi_def_cfa_offset 8
 529              		.cfi_offset 7, -8
 530              		.cfi_offset 14, -4
 531 0002 84B0     		sub	sp, sp, #16
 532              		.cfi_def_cfa_offset 24
 533 0004 00AF     		add	r7, sp, #0
 534              		.cfi_def_cfa_register 7
 535 0006 F860     		str	r0, [r7, #12]
 536 0008 B960     		str	r1, [r7, #8]
 537 000a 7A60     		str	r2, [r7, #4]
 538              		.loc 5 89 0
 539 000c 7B68     		ldr	r3, [r7, #4]
 540 000e B3F1807F 		cmp	r3, #16777216
 541 0012 02D3     		bcc	.L21
ARM GAS  C:\Users\Luis\AppData\Local\Temp\ccMHTq6a.s 			page 11


 542              		.loc 5 89 0 is_stmt 0 discriminator 1
 543 0014 1F48     		ldr	r0, .L24
 544 0016 FFF7FEFF 		bl	chSysHalt
 545              	.L21:
 546              		.loc 5 91 0 is_stmt 1
 547 001a FB68     		ldr	r3, [r7, #12]
 548 001c 9B6C     		ldr	r3, [r3, #72]
 549 001e 1E4A     		ldr	r2, .L24+4
 550 0020 5A62     		str	r2, [r3, #36]
 551              		.loc 5 94 0
 552 0022 F868     		ldr	r0, [r7, #12]
 553 0024 FFF7FEFF 		bl	_sdc_wait_for_transfer_state
 554 0028 0346     		mov	r3, r0
 555 002a 002B     		cmp	r3, #0
 556 002c 01D0     		beq	.L22
 557              		.loc 5 95 0
 558 002e 0123     		movs	r3, #1
 559 0030 2CE0     		b	.L23
 560              	.L22:
 561              		.loc 5 98 0
 562 0032 FB68     		ldr	r3, [r7, #12]
 563 0034 5B6C     		ldr	r3, [r3, #68]
 564 0036 1B68     		ldr	r3, [r3]
 565 0038 BA68     		ldr	r2, [r7, #8]
 566 003a DA60     		str	r2, [r3, #12]
 567              		.loc 5 99 0
 568 003c FB68     		ldr	r3, [r7, #12]
 569 003e 5B6C     		ldr	r3, [r3, #68]
 570 0040 1B68     		ldr	r3, [r3]
 571 0042 7A68     		ldr	r2, [r7, #4]
 572 0044 9208     		lsrs	r2, r2, #2
 573 0046 5A60     		str	r2, [r3, #4]
 574              		.loc 5 100 0
 575 0048 FB68     		ldr	r3, [r7, #12]
 576 004a 5B6C     		ldr	r3, [r3, #68]
 577 004c 1B68     		ldr	r3, [r3]
 578 004e FA68     		ldr	r2, [r7, #12]
 579 0050 126C     		ldr	r2, [r2, #64]
 580 0052 1A60     		str	r2, [r3]
 581              		.loc 5 101 0
 582 0054 FB68     		ldr	r3, [r7, #12]
 583 0056 5B6C     		ldr	r3, [r3, #68]
 584 0058 1B68     		ldr	r3, [r3]
 585 005a FA68     		ldr	r2, [r7, #12]
 586 005c 526C     		ldr	r2, [r2, #68]
 587 005e 1268     		ldr	r2, [r2]
 588 0060 1268     		ldr	r2, [r2]
 589 0062 42F00102 		orr	r2, r2, #1
 590 0066 1A60     		str	r2, [r3]
 591              		.loc 5 104 0
 592 0068 FB68     		ldr	r3, [r7, #12]
 593 006a 9B6C     		ldr	r3, [r3, #72]
 594 006c 0B4A     		ldr	r2, .L24+8
 595 006e 9A63     		str	r2, [r3, #56]
 596              		.loc 5 105 0
 597 0070 FB68     		ldr	r3, [r7, #12]
 598 0072 9B6C     		ldr	r3, [r3, #72]
ARM GAS  C:\Users\Luis\AppData\Local\Temp\ccMHTq6a.s 			page 12


 599 0074 40F22A32 		movw	r2, #810
 600 0078 DA63     		str	r2, [r3, #60]
 601              		.loc 5 110 0
 602 007a FB68     		ldr	r3, [r7, #12]
 603 007c 9B6C     		ldr	r3, [r3, #72]
 604 007e 7A68     		ldr	r2, [r7, #4]
 605 0080 9A62     		str	r2, [r3, #40]
 606              		.loc 5 113 0
 607 0082 FB68     		ldr	r3, [r7, #12]
 608 0084 9B6C     		ldr	r3, [r3, #72]
 609 0086 0F22     		movs	r2, #15
 610 0088 DA62     		str	r2, [r3, #44]
 611              		.loc 5 118 0
 612 008a 0023     		movs	r3, #0
 613              	.L23:
 614              		.loc 5 119 0
 615 008c 1846     		mov	r0, r3
 616 008e 1037     		adds	r7, r7, #16
 617 0090 BD46     		mov	sp, r7
 618              		@ sp needed
 619 0092 80BD     		pop	{r7, pc}
 620              	.L25:
 621              		.align	2
 622              	.L24:
 623 0094 00000000 		.word	__func__.8258
 624 0098 C0270900 		.word	600000
 625 009c FF07C000 		.word	12584959
 626              		.cfi_endproc
 627              	.LFE260:
 628              		.size	sdc_lld_prepare_read_bytes, .-sdc_lld_prepare_read_bytes
 629              		.section	.text.sdc_lld_prepare_read,"ax",%progbits
 630              		.align	2
 631              		.p2align 4,,15
 632              		.thumb
 633              		.thumb_func
 634              		.type	sdc_lld_prepare_read, %function
 635              	sdc_lld_prepare_read:
 636              	.LFB261:
 637              		.loc 5 136 0
 638              		.cfi_startproc
 639              		@ args = 0, pretend = 0, frame = 16
 640              		@ frame_needed = 1, uses_anonymous_args = 0
 641 0000 80B5     		push	{r7, lr}
 642              		.cfi_def_cfa_offset 8
 643              		.cfi_offset 7, -8
 644              		.cfi_offset 14, -4
 645 0002 84B0     		sub	sp, sp, #16
 646              		.cfi_def_cfa_offset 24
 647 0004 00AF     		add	r7, sp, #0
 648              		.cfi_def_cfa_register 7
 649 0006 F860     		str	r0, [r7, #12]
 650 0008 B960     		str	r1, [r7, #8]
 651 000a 7A60     		str	r2, [r7, #4]
 652 000c 3B60     		str	r3, [r7]
 653              		.loc 5 140 0
 654 000e FB68     		ldr	r3, [r7, #12]
 655 0010 1B6B     		ldr	r3, [r3, #48]
ARM GAS  C:\Users\Luis\AppData\Local\Temp\ccMHTq6a.s 			page 13


 656 0012 03F01003 		and	r3, r3, #16
 657 0016 002B     		cmp	r3, #0
 658 0018 02D1     		bne	.L27
 659              		.loc 5 141 0
 660 001a BB68     		ldr	r3, [r7, #8]
 661 001c 5B02     		lsls	r3, r3, #9
 662 001e BB60     		str	r3, [r7, #8]
 663              	.L27:
 664              		.loc 5 143 0
 665 0020 7B68     		ldr	r3, [r7, #4]
 666 0022 012B     		cmp	r3, #1
 667 0024 10D9     		bls	.L28
 668              		.loc 5 145 0
 669 0026 F868     		ldr	r0, [r7, #12]
 670 0028 1221     		movs	r1, #18
 671 002a BA68     		ldr	r2, [r7, #8]
 672 002c 3B68     		ldr	r3, [r7]
 673 002e FFF7FEFF 		bl	sdc_lld_send_cmd_short_crc
 674 0032 0346     		mov	r3, r0
 675 0034 002B     		cmp	r3, #0
 676 0036 05D1     		bne	.L29
 677              		.loc 5 146 0
 678 0038 3B68     		ldr	r3, [r7]
 679 003a 1A68     		ldr	r2, [r3]
 680 003c 0D4B     		ldr	r3, .L33
 681 003e 1340     		ands	r3, r3, r2
 682 0040 002B     		cmp	r3, #0
 683 0042 12D0     		beq	.L30
 684              	.L29:
 685              		.loc 5 147 0
 686 0044 0123     		movs	r3, #1
 687 0046 11E0     		b	.L31
 688              	.L28:
 689              		.loc 5 151 0
 690 0048 F868     		ldr	r0, [r7, #12]
 691 004a 1121     		movs	r1, #17
 692 004c BA68     		ldr	r2, [r7, #8]
 693 004e 3B68     		ldr	r3, [r7]
 694 0050 FFF7FEFF 		bl	sdc_lld_send_cmd_short_crc
 695 0054 0346     		mov	r3, r0
 696 0056 002B     		cmp	r3, #0
 697 0058 05D1     		bne	.L32
 698              		.loc 5 152 0
 699 005a 3B68     		ldr	r3, [r7]
 700 005c 1A68     		ldr	r2, [r3]
 701 005e 054B     		ldr	r3, .L33
 702 0060 1340     		ands	r3, r3, r2
 703 0062 002B     		cmp	r3, #0
 704 0064 01D0     		beq	.L30
 705              	.L32:
 706              		.loc 5 153 0
 707 0066 0123     		movs	r3, #1
 708 0068 00E0     		b	.L31
 709              	.L30:
 710              		.loc 5 156 0
 711 006a 0023     		movs	r3, #0
 712              	.L31:
ARM GAS  C:\Users\Luis\AppData\Local\Temp\ccMHTq6a.s 			page 14


 713              		.loc 5 157 0
 714 006c 1846     		mov	r0, r3
 715 006e 1037     		adds	r7, r7, #16
 716 0070 BD46     		mov	sp, r7
 717              		@ sp needed
 718 0072 80BD     		pop	{r7, pc}
 719              	.L34:
 720              		.align	2
 721              	.L33:
 722 0074 08E0FFFD 		.word	-33562616
 723              		.cfi_endproc
 724              	.LFE261:
 725              		.size	sdc_lld_prepare_read, .-sdc_lld_prepare_read
 726 0078 AFF30080 		.section	.text.sdc_lld_prepare_write,"ax",%progbits
 726      AFF30080 
 727              		.align	2
 728              		.p2align 4,,15
 729              		.thumb
 730              		.thumb_func
 731              		.type	sdc_lld_prepare_write, %function
 732              	sdc_lld_prepare_write:
 733              	.LFB262:
 734              		.loc 5 174 0
 735              		.cfi_startproc
 736              		@ args = 0, pretend = 0, frame = 16
 737              		@ frame_needed = 1, uses_anonymous_args = 0
 738 0000 80B5     		push	{r7, lr}
 739              		.cfi_def_cfa_offset 8
 740              		.cfi_offset 7, -8
 741              		.cfi_offset 14, -4
 742 0002 84B0     		sub	sp, sp, #16
 743              		.cfi_def_cfa_offset 24
 744 0004 00AF     		add	r7, sp, #0
 745              		.cfi_def_cfa_register 7
 746 0006 F860     		str	r0, [r7, #12]
 747 0008 B960     		str	r1, [r7, #8]
 748 000a 7A60     		str	r2, [r7, #4]
 749 000c 3B60     		str	r3, [r7]
 750              		.loc 5 178 0
 751 000e FB68     		ldr	r3, [r7, #12]
 752 0010 1B6B     		ldr	r3, [r3, #48]
 753 0012 03F01003 		and	r3, r3, #16
 754 0016 002B     		cmp	r3, #0
 755 0018 02D1     		bne	.L36
 756              		.loc 5 179 0
 757 001a BB68     		ldr	r3, [r7, #8]
 758 001c 5B02     		lsls	r3, r3, #9
 759 001e BB60     		str	r3, [r7, #8]
 760              	.L36:
 761              		.loc 5 181 0
 762 0020 7B68     		ldr	r3, [r7, #4]
 763 0022 012B     		cmp	r3, #1
 764 0024 10D9     		bls	.L37
 765              		.loc 5 183 0
 766 0026 F868     		ldr	r0, [r7, #12]
 767 0028 1921     		movs	r1, #25
 768 002a BA68     		ldr	r2, [r7, #8]
ARM GAS  C:\Users\Luis\AppData\Local\Temp\ccMHTq6a.s 			page 15


 769 002c 3B68     		ldr	r3, [r7]
 770 002e FFF7FEFF 		bl	sdc_lld_send_cmd_short_crc
 771 0032 0346     		mov	r3, r0
 772 0034 002B     		cmp	r3, #0
 773 0036 05D1     		bne	.L38
 774              		.loc 5 184 0
 775 0038 3B68     		ldr	r3, [r7]
 776 003a 1A68     		ldr	r2, [r3]
 777 003c 0D4B     		ldr	r3, .L42
 778 003e 1340     		ands	r3, r3, r2
 779 0040 002B     		cmp	r3, #0
 780 0042 12D0     		beq	.L39
 781              	.L38:
 782              		.loc 5 185 0
 783 0044 0123     		movs	r3, #1
 784 0046 11E0     		b	.L40
 785              	.L37:
 786              		.loc 5 189 0
 787 0048 F868     		ldr	r0, [r7, #12]
 788 004a 1821     		movs	r1, #24
 789 004c BA68     		ldr	r2, [r7, #8]
 790 004e 3B68     		ldr	r3, [r7]
 791 0050 FFF7FEFF 		bl	sdc_lld_send_cmd_short_crc
 792 0054 0346     		mov	r3, r0
 793 0056 002B     		cmp	r3, #0
 794 0058 05D1     		bne	.L41
 795              		.loc 5 190 0
 796 005a 3B68     		ldr	r3, [r7]
 797 005c 1A68     		ldr	r2, [r3]
 798 005e 054B     		ldr	r3, .L42
 799 0060 1340     		ands	r3, r3, r2
 800 0062 002B     		cmp	r3, #0
 801 0064 01D0     		beq	.L39
 802              	.L41:
 803              		.loc 5 191 0
 804 0066 0123     		movs	r3, #1
 805 0068 00E0     		b	.L40
 806              	.L39:
 807              		.loc 5 194 0
 808 006a 0023     		movs	r3, #0
 809              	.L40:
 810              		.loc 5 195 0
 811 006c 1846     		mov	r0, r3
 812 006e 1037     		adds	r7, r7, #16
 813 0070 BD46     		mov	sp, r7
 814              		@ sp needed
 815 0072 80BD     		pop	{r7, pc}
 816              	.L43:
 817              		.align	2
 818              	.L42:
 819 0074 08E0FFFD 		.word	-33562616
 820              		.cfi_endproc
 821              	.LFE262:
 822              		.size	sdc_lld_prepare_write, .-sdc_lld_prepare_write
 823 0078 AFF30080 		.section	.text.sdc_lld_wait_transaction_end,"ax",%progbits
 823      AFF30080 
 824              		.align	2
ARM GAS  C:\Users\Luis\AppData\Local\Temp\ccMHTq6a.s 			page 16


 825              		.p2align 4,,15
 826              		.thumb
 827              		.thumb_func
 828              		.type	sdc_lld_wait_transaction_end, %function
 829              	sdc_lld_wait_transaction_end:
 830              	.LFB263:
 831              		.loc 5 209 0
 832              		.cfi_startproc
 833              		@ args = 0, pretend = 0, frame = 16
 834              		@ frame_needed = 1, uses_anonymous_args = 0
 835 0000 80B5     		push	{r7, lr}
 836              		.cfi_def_cfa_offset 8
 837              		.cfi_offset 7, -8
 838              		.cfi_offset 14, -4
 839 0002 84B0     		sub	sp, sp, #16
 840              		.cfi_def_cfa_offset 24
 841 0004 00AF     		add	r7, sp, #0
 842              		.cfi_def_cfa_register 7
 843 0006 F860     		str	r0, [r7, #12]
 844 0008 B960     		str	r1, [r7, #8]
 845 000a 7A60     		str	r2, [r7, #4]
 846              		.loc 5 213 0
 847 000c FFF7FEFF 		bl	osalSysLock
 848              		.loc 5 214 0
 849 0010 FB68     		ldr	r3, [r7, #12]
 850 0012 9B6C     		ldr	r3, [r3, #72]
 851 0014 DB6B     		ldr	r3, [r3, #60]
 852 0016 002B     		cmp	r3, #0
 853 0018 04D0     		beq	.L45
 854              		.loc 5 215 0
 855 001a FB68     		ldr	r3, [r7, #12]
 856 001c 3C33     		adds	r3, r3, #60
 857 001e 1846     		mov	r0, r3
 858 0020 FFF7FEFF 		bl	osalThreadSuspendS
 859              	.L45:
 860              		.loc 5 216 0
 861 0024 FB68     		ldr	r3, [r7, #12]
 862 0026 9B6C     		ldr	r3, [r3, #72]
 863 0028 5B6B     		ldr	r3, [r3, #52]
 864 002a 03F48073 		and	r3, r3, #256
 865 002e 002B     		cmp	r3, #0
 866 0030 03D1     		bne	.L46
 867              		.loc 5 217 0
 868 0032 FFF7FEFF 		bl	osalSysUnlock
 869              		.loc 5 218 0
 870 0036 0123     		movs	r3, #1
 871 0038 28E0     		b	.L47
 872              	.L46:
 873              		.loc 5 223 0
 874 003a 00BF     		nop
 875              	.L48:
 876              		.loc 5 223 0 is_stmt 0 discriminator 1
 877 003c FB68     		ldr	r3, [r7, #12]
 878 003e 5B6C     		ldr	r3, [r3, #68]
 879 0040 1B68     		ldr	r3, [r3]
 880 0042 1B68     		ldr	r3, [r3]
 881 0044 03F00103 		and	r3, r3, #1
ARM GAS  C:\Users\Luis\AppData\Local\Temp\ccMHTq6a.s 			page 17


 882 0048 002B     		cmp	r3, #0
 883 004a F7D1     		bne	.L48
 884              		.loc 5 227 0 is_stmt 1
 885 004c FB68     		ldr	r3, [r7, #12]
 886 004e 5B6C     		ldr	r3, [r3, #68]
 887 0050 5B68     		ldr	r3, [r3, #4]
 888 0052 FA68     		ldr	r2, [r7, #12]
 889 0054 526C     		ldr	r2, [r2, #68]
 890 0056 127A     		ldrb	r2, [r2, #8]	@ zero_extendqisi2
 891 0058 3D21     		movs	r1, #61
 892 005a 01FA02F2 		lsl	r2, r1, r2
 893 005e 1A60     		str	r2, [r3]
 894              		.loc 5 229 0
 895 0060 FB68     		ldr	r3, [r7, #12]
 896 0062 9B6C     		ldr	r3, [r3, #72]
 897 0064 0B4A     		ldr	r2, .L50
 898 0066 9A63     		str	r2, [r3, #56]
 899              		.loc 5 230 0
 900 0068 FB68     		ldr	r3, [r7, #12]
 901 006a 9B6C     		ldr	r3, [r3, #72]
 902 006c 0022     		movs	r2, #0
 903 006e DA62     		str	r2, [r3, #44]
 904              		.loc 5 231 0
 905 0070 FFF7FEFF 		bl	osalSysUnlock
 906              		.loc 5 247 0
 907 0074 BB68     		ldr	r3, [r7, #8]
 908 0076 012B     		cmp	r3, #1
 909 0078 07D9     		bls	.L49
 910              		.loc 5 248 0
 911 007a F868     		ldr	r0, [r7, #12]
 912 007c 0C21     		movs	r1, #12
 913 007e 0022     		movs	r2, #0
 914 0080 7B68     		ldr	r3, [r7, #4]
 915 0082 FFF7FEFF 		bl	sdc_lld_send_cmd_short_crc
 916 0086 0346     		mov	r3, r0
 917 0088 00E0     		b	.L47
 918              	.L49:
 919              		.loc 5 250 0
 920 008a 0023     		movs	r3, #0
 921              	.L47:
 922              		.loc 5 251 0
 923 008c 1846     		mov	r0, r3
 924 008e 1037     		adds	r7, r7, #16
 925 0090 BD46     		mov	sp, r7
 926              		@ sp needed
 927 0092 80BD     		pop	{r7, pc}
 928              	.L51:
 929              		.align	2
 930              	.L50:
 931 0094 FF07C000 		.word	12584959
 932              		.cfi_endproc
 933              	.LFE263:
 934              		.size	sdc_lld_wait_transaction_end, .-sdc_lld_wait_transaction_end
 935 0098 AFF30080 		.section	.text.sdc_lld_collect_errors,"ax",%progbits
 935      AFF30080 
 936              		.align	2
 937              		.p2align 4,,15
ARM GAS  C:\Users\Luis\AppData\Local\Temp\ccMHTq6a.s 			page 18


 938              		.thumb
 939              		.thumb_func
 940              		.type	sdc_lld_collect_errors, %function
 941              	sdc_lld_collect_errors:
 942              	.LFB264:
 943              		.loc 5 261 0
 944              		.cfi_startproc
 945              		@ args = 0, pretend = 0, frame = 16
 946              		@ frame_needed = 1, uses_anonymous_args = 0
 947              		@ link register save eliminated.
 948 0000 80B4     		push	{r7}
 949              		.cfi_def_cfa_offset 4
 950              		.cfi_offset 7, -4
 951 0002 85B0     		sub	sp, sp, #20
 952              		.cfi_def_cfa_offset 24
 953 0004 00AF     		add	r7, sp, #0
 954              		.cfi_def_cfa_register 7
 955 0006 7860     		str	r0, [r7, #4]
 956 0008 3960     		str	r1, [r7]
 957              		.loc 5 262 0
 958 000a 0023     		movs	r3, #0
 959 000c FB60     		str	r3, [r7, #12]
 960              		.loc 5 264 0
 961 000e 3B68     		ldr	r3, [r7]
 962 0010 03F00103 		and	r3, r3, #1
 963 0014 002B     		cmp	r3, #0
 964 0016 03D0     		beq	.L53
 965              		.loc 5 265 0
 966 0018 FB68     		ldr	r3, [r7, #12]
 967 001a 43F00103 		orr	r3, r3, #1
 968 001e FB60     		str	r3, [r7, #12]
 969              	.L53:
 970              		.loc 5 266 0
 971 0020 3B68     		ldr	r3, [r7]
 972 0022 03F00203 		and	r3, r3, #2
 973 0026 002B     		cmp	r3, #0
 974 0028 03D0     		beq	.L54
 975              		.loc 5 267 0
 976 002a FB68     		ldr	r3, [r7, #12]
 977 002c 43F00203 		orr	r3, r3, #2
 978 0030 FB60     		str	r3, [r7, #12]
 979              	.L54:
 980              		.loc 5 268 0
 981 0032 3B68     		ldr	r3, [r7]
 982 0034 03F00403 		and	r3, r3, #4
 983 0038 002B     		cmp	r3, #0
 984 003a 03D0     		beq	.L55
 985              		.loc 5 269 0
 986 003c FB68     		ldr	r3, [r7, #12]
 987 003e 43F00803 		orr	r3, r3, #8
 988 0042 FB60     		str	r3, [r7, #12]
 989              	.L55:
 990              		.loc 5 270 0
 991 0044 3B68     		ldr	r3, [r7]
 992 0046 03F00803 		and	r3, r3, #8
 993 004a 002B     		cmp	r3, #0
 994 004c 03D0     		beq	.L56
ARM GAS  C:\Users\Luis\AppData\Local\Temp\ccMHTq6a.s 			page 19


 995              		.loc 5 271 0
 996 004e FB68     		ldr	r3, [r7, #12]
 997 0050 43F00403 		orr	r3, r3, #4
 998 0054 FB60     		str	r3, [r7, #12]
 999              	.L56:
 1000              		.loc 5 272 0
 1001 0056 3B68     		ldr	r3, [r7]
 1002 0058 03F01003 		and	r3, r3, #16
 1003 005c 002B     		cmp	r3, #0
 1004 005e 03D0     		beq	.L57
 1005              		.loc 5 273 0
 1006 0060 FB68     		ldr	r3, [r7, #12]
 1007 0062 43F01003 		orr	r3, r3, #16
 1008 0066 FB60     		str	r3, [r7, #12]
 1009              	.L57:
 1010              		.loc 5 274 0
 1011 0068 3B68     		ldr	r3, [r7]
 1012 006a 03F02003 		and	r3, r3, #32
 1013 006e 002B     		cmp	r3, #0
 1014 0070 03D0     		beq	.L58
 1015              		.loc 5 275 0
 1016 0072 FB68     		ldr	r3, [r7, #12]
 1017 0074 43F02003 		orr	r3, r3, #32
 1018 0078 FB60     		str	r3, [r7, #12]
 1019              	.L58:
 1020              		.loc 5 276 0
 1021 007a 3B68     		ldr	r3, [r7]
 1022 007c 03F40073 		and	r3, r3, #512
 1023 0080 002B     		cmp	r3, #0
 1024 0082 03D0     		beq	.L59
 1025              		.loc 5 277 0
 1026 0084 FB68     		ldr	r3, [r7, #12]
 1027 0086 43F04003 		orr	r3, r3, #64
 1028 008a FB60     		str	r3, [r7, #12]
 1029              	.L59:
 1030              		.loc 5 279 0
 1031 008c 7B68     		ldr	r3, [r7, #4]
 1032 008e 5A6B     		ldr	r2, [r3, #52]
 1033 0090 FB68     		ldr	r3, [r7, #12]
 1034 0092 1A43     		orrs	r2, r2, r3
 1035 0094 7B68     		ldr	r3, [r7, #4]
 1036 0096 5A63     		str	r2, [r3, #52]
 1037              		.loc 5 280 0
 1038 0098 1437     		adds	r7, r7, #20
 1039 009a BD46     		mov	sp, r7
 1040              		@ sp needed
 1041 009c 5DF8047B 		ldr	r7, [sp], #4
 1042 00a0 7047     		bx	lr
 1043              		.cfi_endproc
 1044              	.LFE264:
 1045              		.size	sdc_lld_collect_errors, .-sdc_lld_collect_errors
 1046 00a2 00BFAFF3 		.section	.text.sdc_lld_error_cleanup,"ax",%progbits
 1046      0080AFF3 
 1046      0080AFF3 
 1046      0080
 1047              		.align	2
 1048              		.p2align 4,,15
ARM GAS  C:\Users\Luis\AppData\Local\Temp\ccMHTq6a.s 			page 20


 1049              		.thumb
 1050              		.thumb_func
 1051              		.type	sdc_lld_error_cleanup, %function
 1052              	sdc_lld_error_cleanup:
 1053              	.LFB265:
 1054              		.loc 5 293 0
 1055              		.cfi_startproc
 1056              		@ args = 0, pretend = 0, frame = 24
 1057              		@ frame_needed = 1, uses_anonymous_args = 0
 1058 0000 80B5     		push	{r7, lr}
 1059              		.cfi_def_cfa_offset 8
 1060              		.cfi_offset 7, -8
 1061              		.cfi_offset 14, -4
 1062 0002 86B0     		sub	sp, sp, #24
 1063              		.cfi_def_cfa_offset 32
 1064 0004 00AF     		add	r7, sp, #0
 1065              		.cfi_def_cfa_register 7
 1066 0006 F860     		str	r0, [r7, #12]
 1067 0008 B960     		str	r1, [r7, #8]
 1068 000a 7A60     		str	r2, [r7, #4]
 1069              		.loc 5 294 0
 1070 000c FB68     		ldr	r3, [r7, #12]
 1071 000e 9B6C     		ldr	r3, [r3, #72]
 1072 0010 5B6B     		ldr	r3, [r3, #52]
 1073 0012 7B61     		str	r3, [r7, #20]
 1074              		.loc 5 296 0
 1075 0014 FB68     		ldr	r3, [r7, #12]
 1076 0016 5B6C     		ldr	r3, [r3, #68]
 1077 0018 5B68     		ldr	r3, [r3, #4]
 1078 001a FA68     		ldr	r2, [r7, #12]
 1079 001c 526C     		ldr	r2, [r2, #68]
 1080 001e 127A     		ldrb	r2, [r2, #8]	@ zero_extendqisi2
 1081 0020 3D21     		movs	r1, #61
 1082 0022 01FA02F2 		lsl	r2, r1, r2
 1083 0026 1A60     		str	r2, [r3]
 1084              		.loc 5 297 0
 1085 0028 FB68     		ldr	r3, [r7, #12]
 1086 002a 5B6C     		ldr	r3, [r3, #68]
 1087 002c 1B68     		ldr	r3, [r3]
 1088 002e FA68     		ldr	r2, [r7, #12]
 1089 0030 526C     		ldr	r2, [r2, #68]
 1090 0032 1268     		ldr	r2, [r2]
 1091 0034 1268     		ldr	r2, [r2]
 1092 0036 22F01F02 		bic	r2, r2, #31
 1093 003a 1A60     		str	r2, [r3]
 1094 003c 00BF     		nop
 1095              	.L61:
 1096              		.loc 5 297 0 is_stmt 0 discriminator 1
 1097 003e FB68     		ldr	r3, [r7, #12]
 1098 0040 5B6C     		ldr	r3, [r3, #68]
 1099 0042 1B68     		ldr	r3, [r3]
 1100 0044 1B68     		ldr	r3, [r3]
 1101 0046 03F00103 		and	r3, r3, #1
 1102 004a 002B     		cmp	r3, #0
 1103 004c F7D1     		bne	.L61
 1104              		.loc 5 297 0 discriminator 2
 1105 004e FB68     		ldr	r3, [r7, #12]
ARM GAS  C:\Users\Luis\AppData\Local\Temp\ccMHTq6a.s 			page 21


 1106 0050 5B6C     		ldr	r3, [r3, #68]
 1107 0052 5B68     		ldr	r3, [r3, #4]
 1108 0054 FA68     		ldr	r2, [r7, #12]
 1109 0056 526C     		ldr	r2, [r2, #68]
 1110 0058 127A     		ldrb	r2, [r2, #8]	@ zero_extendqisi2
 1111 005a 3D21     		movs	r1, #61
 1112 005c 01FA02F2 		lsl	r2, r1, r2
 1113 0060 1A60     		str	r2, [r3]
 1114              		.loc 5 298 0 is_stmt 1 discriminator 2
 1115 0062 FB68     		ldr	r3, [r7, #12]
 1116 0064 9B6C     		ldr	r3, [r3, #72]
 1117 0066 0D4A     		ldr	r2, .L63
 1118 0068 9A63     		str	r2, [r3, #56]
 1119              		.loc 5 299 0 discriminator 2
 1120 006a FB68     		ldr	r3, [r7, #12]
 1121 006c 9B6C     		ldr	r3, [r3, #72]
 1122 006e 0022     		movs	r2, #0
 1123 0070 DA63     		str	r2, [r3, #60]
 1124              		.loc 5 300 0 discriminator 2
 1125 0072 FB68     		ldr	r3, [r7, #12]
 1126 0074 9B6C     		ldr	r3, [r3, #72]
 1127 0076 0022     		movs	r2, #0
 1128 0078 DA62     		str	r2, [r3, #44]
 1129              		.loc 5 301 0 discriminator 2
 1130 007a F868     		ldr	r0, [r7, #12]
 1131 007c 7969     		ldr	r1, [r7, #20]
 1132 007e FFF7FEFF 		bl	sdc_lld_collect_errors
 1133              		.loc 5 302 0 discriminator 2
 1134 0082 BB68     		ldr	r3, [r7, #8]
 1135 0084 012B     		cmp	r3, #1
 1136 0086 05D9     		bls	.L60
 1137              		.loc 5 303 0
 1138 0088 F868     		ldr	r0, [r7, #12]
 1139 008a 0C21     		movs	r1, #12
 1140 008c 0022     		movs	r2, #0
 1141 008e 7B68     		ldr	r3, [r7, #4]
 1142 0090 FFF7FEFF 		bl	sdc_lld_send_cmd_short_crc
 1143              	.L60:
 1144              		.loc 5 304 0
 1145 0094 1837     		adds	r7, r7, #24
 1146 0096 BD46     		mov	sp, r7
 1147              		@ sp needed
 1148 0098 80BD     		pop	{r7, pc}
 1149              	.L64:
 1150 009a 00BF     		.align	2
 1151              	.L63:
 1152 009c FF07C000 		.word	12584959
 1153              		.cfi_endproc
 1154              	.LFE265:
 1155              		.size	sdc_lld_error_cleanup, .-sdc_lld_error_cleanup
 1156              		.section	.text.Vector104,"ax",%progbits
 1157              		.align	2
 1158              		.p2align 4,,15
 1159              		.global	Vector104
 1160              		.thumb
 1161              		.thumb_func
 1162              		.type	Vector104, %function
ARM GAS  C:\Users\Luis\AppData\Local\Temp\ccMHTq6a.s 			page 22


 1163              	Vector104:
 1164              	.LFB266:
 1165              		.loc 5 320 0
 1166              		.cfi_startproc
 1167              		@ args = 0, pretend = 0, frame = 0
 1168              		@ frame_needed = 1, uses_anonymous_args = 0
 1169 0000 80B5     		push	{r7, lr}
 1170              		.cfi_def_cfa_offset 8
 1171              		.cfi_offset 7, -8
 1172              		.cfi_offset 14, -4
 1173 0002 00AF     		add	r7, sp, #0
 1174              		.cfi_def_cfa_register 7
 1175              		.loc 5 322 0
 1176 0004 FFF7FEFF 		bl	_stats_increase_irq
 1177 0008 FFF7FEFF 		bl	_dbg_check_enter_isr
 1178              		.loc 5 324 0
 1179 000c FFF7FEFF 		bl	osalSysLockFromISR
 1180              		.loc 5 328 0
 1181 0010 064B     		ldr	r3, .L66
 1182 0012 0022     		movs	r2, #0
 1183 0014 DA63     		str	r2, [r3, #60]
 1184              		.loc 5 330 0
 1185 0016 0648     		ldr	r0, .L66+4
 1186 0018 0021     		movs	r1, #0
 1187 001a FFF7FEFF 		bl	osalThreadResumeI
 1188              		.loc 5 332 0
 1189 001e FFF7FEFF 		bl	osalSysUnlockFromISR
 1190              		.loc 5 334 0
 1191 0022 FFF7FEFF 		bl	_dbg_check_leave_isr
 1192 0026 FFF7FEFF 		bl	_port_irq_epilogue
 1193              		.loc 5 335 0
 1194 002a 80BD     		pop	{r7, pc}
 1195              	.L67:
 1196              		.align	2
 1197              	.L66:
 1198 002c 002C0140 		.word	1073818624
 1199 0030 3C000000 		.word	SDCD1+60
 1200              		.cfi_endproc
 1201              	.LFE266:
 1202              		.size	Vector104, .-Vector104
 1203 0034 AFF30080 		.section	.text.sdc_lld_init,"ax",%progbits
 1203      AFF30080 
 1203      AFF30080 
 1204              		.align	2
 1205              		.p2align 4,,15
 1206              		.global	sdc_lld_init
 1207              		.thumb
 1208              		.thumb_func
 1209              		.type	sdc_lld_init, %function
 1210              	sdc_lld_init:
 1211              	.LFB267:
 1212              		.loc 5 346 0
 1213              		.cfi_startproc
 1214              		@ args = 0, pretend = 0, frame = 0
 1215              		@ frame_needed = 1, uses_anonymous_args = 0
 1216 0000 80B5     		push	{r7, lr}
 1217              		.cfi_def_cfa_offset 8
ARM GAS  C:\Users\Luis\AppData\Local\Temp\ccMHTq6a.s 			page 23


 1218              		.cfi_offset 7, -8
 1219              		.cfi_offset 14, -4
 1220 0002 00AF     		add	r7, sp, #0
 1221              		.cfi_def_cfa_register 7
 1222              		.loc 5 348 0
 1223 0004 0648     		ldr	r0, .L69
 1224 0006 FFF7FEFF 		bl	sdcObjectInit
 1225              		.loc 5 349 0
 1226 000a 054B     		ldr	r3, .L69
 1227 000c 0022     		movs	r2, #0
 1228 000e DA63     		str	r2, [r3, #60]
 1229              		.loc 5 350 0
 1230 0010 034B     		ldr	r3, .L69
 1231 0012 044A     		ldr	r2, .L69+4
 1232 0014 5A64     		str	r2, [r3, #68]
 1233              		.loc 5 351 0
 1234 0016 024B     		ldr	r3, .L69
 1235 0018 034A     		ldr	r2, .L69+8
 1236 001a 9A64     		str	r2, [r3, #72]
 1237              		.loc 5 352 0
 1238 001c 80BD     		pop	{r7, pc}
 1239              	.L70:
 1240 001e 00BF     		.align	2
 1241              	.L69:
 1242 0020 00000000 		.word	SDCD1
 1243 0024 84000000 		.word	_stm32_dma_streams+132
 1244 0028 002C0140 		.word	1073818624
 1245              		.cfi_endproc
 1246              	.LFE267:
 1247              		.size	sdc_lld_init, .-sdc_lld_init
 1248 002c AFF30080 		.section	.text.sdc_lld_start,"ax",%progbits
 1249              		.align	2
 1250              		.p2align 4,,15
 1251              		.global	sdc_lld_start
 1252              		.thumb
 1253              		.thumb_func
 1254              		.type	sdc_lld_start, %function
 1255              	sdc_lld_start:
 1256              	.LFB268:
 1257              		.loc 5 361 0
 1258              		.cfi_startproc
 1259              		@ args = 0, pretend = 0, frame = 16
 1260              		@ frame_needed = 1, uses_anonymous_args = 0
 1261 0000 80B5     		push	{r7, lr}
 1262              		.cfi_def_cfa_offset 8
 1263              		.cfi_offset 7, -8
 1264              		.cfi_offset 14, -4
 1265 0002 84B0     		sub	sp, sp, #16
 1266              		.cfi_def_cfa_offset 24
 1267 0004 00AF     		add	r7, sp, #0
 1268              		.cfi_def_cfa_register 7
 1269 0006 7860     		str	r0, [r7, #4]
 1270              		.loc 5 364 0
 1271 0008 7B68     		ldr	r3, [r7, #4]
 1272 000a DB6A     		ldr	r3, [r3, #44]
 1273 000c 002B     		cmp	r3, #0
 1274 000e 02D1     		bne	.L72
ARM GAS  C:\Users\Luis\AppData\Local\Temp\ccMHTq6a.s 			page 24


 1275              		.loc 5 365 0
 1276 0010 7B68     		ldr	r3, [r7, #4]
 1277 0012 254A     		ldr	r2, .L75
 1278 0014 DA62     		str	r2, [r3, #44]
 1279              	.L72:
 1280              		.loc 5 368 0
 1281 0016 7B68     		ldr	r3, [r7, #4]
 1282 0018 244A     		ldr	r2, .L75+4
 1283 001a 1A64     		str	r2, [r3, #64]
 1284              		.loc 5 375 0
 1285 001c 7B68     		ldr	r3, [r7, #4]
 1286 001e 1B6C     		ldr	r3, [r3, #64]
 1287 0020 43F42003 		orr	r3, r3, #10485760
 1288 0024 43F02003 		orr	r3, r3, #32
 1289 0028 7A68     		ldr	r2, [r7, #4]
 1290 002a 1364     		str	r3, [r2, #64]
 1291              		.loc 5 380 0
 1292 002c 7B68     		ldr	r3, [r7, #4]
 1293 002e 1B79     		ldrb	r3, [r3, #4]	@ zero_extendqisi2
 1294 0030 012B     		cmp	r3, #1
 1295 0032 25D1     		bne	.L73
 1296              	.LBB10:
 1297              		.loc 5 383 0
 1298 0034 7B68     		ldr	r3, [r7, #4]
 1299 0036 5B6C     		ldr	r3, [r3, #68]
 1300 0038 1846     		mov	r0, r3
 1301 003a 0921     		movs	r1, #9
 1302 003c 0022     		movs	r2, #0
 1303 003e 0023     		movs	r3, #0
 1304 0040 FFF7FEFF 		bl	dmaStreamAllocate
 1305 0044 0346     		mov	r3, r0
 1306 0046 FB73     		strb	r3, [r7, #15]
 1307              		.loc 5 384 0
 1308 0048 FB7B     		ldrb	r3, [r7, #15]	@ zero_extendqisi2
 1309 004a 002B     		cmp	r3, #0
 1310 004c 02D0     		beq	.L74
 1311              		.loc 5 384 0 is_stmt 0 discriminator 1
 1312 004e 1848     		ldr	r0, .L75+8
 1313 0050 FFF7FEFF 		bl	chSysHalt
 1314              	.L74:
 1315              		.loc 5 385 0 is_stmt 1
 1316 0054 7B68     		ldr	r3, [r7, #4]
 1317 0056 5B6C     		ldr	r3, [r3, #68]
 1318 0058 1B68     		ldr	r3, [r3]
 1319 005a 7A68     		ldr	r2, [r7, #4]
 1320 005c 926C     		ldr	r2, [r2, #72]
 1321 005e 8032     		adds	r2, r2, #128
 1322 0060 9A60     		str	r2, [r3, #8]
 1323              		.loc 5 387 0
 1324 0062 7B68     		ldr	r3, [r7, #4]
 1325 0064 5B6C     		ldr	r3, [r3, #68]
 1326 0066 1B68     		ldr	r3, [r3]
 1327 0068 0722     		movs	r2, #7
 1328 006a 5A61     		str	r2, [r3, #20]
 1329              		.loc 5 389 0
 1330 006c 3120     		movs	r0, #49
 1331 006e 0921     		movs	r1, #9
ARM GAS  C:\Users\Luis\AppData\Local\Temp\ccMHTq6a.s 			page 25


 1332 0070 FFF7FEFF 		bl	nvicEnableVector
 1333              		.loc 5 390 0
 1334 0074 0F4B     		ldr	r3, .L75+12
 1335 0076 0F4A     		ldr	r2, .L75+12
 1336 0078 526C     		ldr	r2, [r2, #68]
 1337 007a 42F40062 		orr	r2, r2, #2048
 1338 007e 5A64     		str	r2, [r3, #68]
 1339              	.L73:
 1340              	.LBE10:
 1341              		.loc 5 394 0
 1342 0080 7B68     		ldr	r3, [r7, #4]
 1343 0082 9B6C     		ldr	r3, [r3, #72]
 1344 0084 0022     		movs	r2, #0
 1345 0086 1A60     		str	r2, [r3]
 1346              		.loc 5 395 0
 1347 0088 7B68     		ldr	r3, [r7, #4]
 1348 008a 9B6C     		ldr	r3, [r3, #72]
 1349 008c 0022     		movs	r2, #0
 1350 008e 5A60     		str	r2, [r3, #4]
 1351              		.loc 5 396 0
 1352 0090 7B68     		ldr	r3, [r7, #4]
 1353 0092 9B6C     		ldr	r3, [r3, #72]
 1354 0094 0022     		movs	r2, #0
 1355 0096 DA62     		str	r2, [r3, #44]
 1356              		.loc 5 397 0
 1357 0098 7B68     		ldr	r3, [r7, #4]
 1358 009a 9B6C     		ldr	r3, [r3, #72]
 1359 009c 0022     		movs	r2, #0
 1360 009e 5A62     		str	r2, [r3, #36]
 1361              		.loc 5 398 0
 1362 00a0 1037     		adds	r7, r7, #16
 1363 00a2 BD46     		mov	sp, r7
 1364              		@ sp needed
 1365 00a4 80BD     		pop	{r7, pc}
 1366              	.L76:
 1367 00a6 00BF     		.align	2
 1368              	.L75:
 1369 00a8 00000000 		.word	sdc_default_cfg
 1370 00ac 00540308 		.word	134435840
 1371 00b0 00000000 		.word	__func__.8303
 1372 00b4 00380240 		.word	1073887232
 1373              		.cfi_endproc
 1374              	.LFE268:
 1375              		.size	sdc_lld_start, .-sdc_lld_start
 1376 00b8 AFF30080 		.section	.text.sdc_lld_stop,"ax",%progbits
 1376      AFF30080 
 1377              		.align	2
 1378              		.p2align 4,,15
 1379              		.global	sdc_lld_stop
 1380              		.thumb
 1381              		.thumb_func
 1382              		.type	sdc_lld_stop, %function
 1383              	sdc_lld_stop:
 1384              	.LFB269:
 1385              		.loc 5 407 0
 1386              		.cfi_startproc
 1387              		@ args = 0, pretend = 0, frame = 8
ARM GAS  C:\Users\Luis\AppData\Local\Temp\ccMHTq6a.s 			page 26


 1388              		@ frame_needed = 1, uses_anonymous_args = 0
 1389 0000 80B5     		push	{r7, lr}
 1390              		.cfi_def_cfa_offset 8
 1391              		.cfi_offset 7, -8
 1392              		.cfi_offset 14, -4
 1393 0002 82B0     		sub	sp, sp, #8
 1394              		.cfi_def_cfa_offset 16
 1395 0004 00AF     		add	r7, sp, #0
 1396              		.cfi_def_cfa_register 7
 1397 0006 7860     		str	r0, [r7, #4]
 1398              		.loc 5 409 0
 1399 0008 7B68     		ldr	r3, [r7, #4]
 1400 000a 1B79     		ldrb	r3, [r3, #4]	@ zero_extendqisi2
 1401 000c 012B     		cmp	r3, #1
 1402 000e 1DD0     		beq	.L77
 1403              		.loc 5 412 0
 1404 0010 7B68     		ldr	r3, [r7, #4]
 1405 0012 9B6C     		ldr	r3, [r3, #72]
 1406 0014 0022     		movs	r2, #0
 1407 0016 1A60     		str	r2, [r3]
 1408              		.loc 5 413 0
 1409 0018 7B68     		ldr	r3, [r7, #4]
 1410 001a 9B6C     		ldr	r3, [r3, #72]
 1411 001c 0022     		movs	r2, #0
 1412 001e 5A60     		str	r2, [r3, #4]
 1413              		.loc 5 414 0
 1414 0020 7B68     		ldr	r3, [r7, #4]
 1415 0022 9B6C     		ldr	r3, [r3, #72]
 1416 0024 0022     		movs	r2, #0
 1417 0026 DA62     		str	r2, [r3, #44]
 1418              		.loc 5 415 0
 1419 0028 7B68     		ldr	r3, [r7, #4]
 1420 002a 9B6C     		ldr	r3, [r3, #72]
 1421 002c 0022     		movs	r2, #0
 1422 002e 5A62     		str	r2, [r3, #36]
 1423              		.loc 5 418 0
 1424 0030 3120     		movs	r0, #49
 1425 0032 FFF7FEFF 		bl	nvicDisableVector
 1426              		.loc 5 419 0
 1427 0036 7B68     		ldr	r3, [r7, #4]
 1428 0038 5B6C     		ldr	r3, [r3, #68]
 1429 003a 1846     		mov	r0, r3
 1430 003c FFF7FEFF 		bl	dmaStreamRelease
 1431              		.loc 5 420 0
 1432 0040 044B     		ldr	r3, .L79
 1433 0042 044A     		ldr	r2, .L79
 1434 0044 526C     		ldr	r2, [r2, #68]
 1435 0046 22F40062 		bic	r2, r2, #2048
 1436 004a 5A64     		str	r2, [r3, #68]
 1437              	.L77:
 1438              		.loc 5 422 0
 1439 004c 0837     		adds	r7, r7, #8
 1440 004e BD46     		mov	sp, r7
 1441              		@ sp needed
 1442 0050 80BD     		pop	{r7, pc}
 1443              	.L80:
 1444 0052 00BF     		.align	2
ARM GAS  C:\Users\Luis\AppData\Local\Temp\ccMHTq6a.s 			page 27


 1445              	.L79:
 1446 0054 00380240 		.word	1073887232
 1447              		.cfi_endproc
 1448              	.LFE269:
 1449              		.size	sdc_lld_stop, .-sdc_lld_stop
 1450 0058 AFF30080 		.section	.text.sdc_lld_start_clk,"ax",%progbits
 1450      AFF30080 
 1451              		.align	2
 1452              		.p2align 4,,15
 1453              		.global	sdc_lld_start_clk
 1454              		.thumb
 1455              		.thumb_func
 1456              		.type	sdc_lld_start_clk, %function
 1457              	sdc_lld_start_clk:
 1458              	.LFB270:
 1459              		.loc 5 431 0
 1460              		.cfi_startproc
 1461              		@ args = 0, pretend = 0, frame = 8
 1462              		@ frame_needed = 1, uses_anonymous_args = 0
 1463 0000 80B5     		push	{r7, lr}
 1464              		.cfi_def_cfa_offset 8
 1465              		.cfi_offset 7, -8
 1466              		.cfi_offset 14, -4
 1467 0002 82B0     		sub	sp, sp, #8
 1468              		.cfi_def_cfa_offset 16
 1469 0004 00AF     		add	r7, sp, #0
 1470              		.cfi_def_cfa_register 7
 1471 0006 7860     		str	r0, [r7, #4]
 1472              		.loc 5 434 0
 1473 0008 7B68     		ldr	r3, [r7, #4]
 1474 000a 9B6C     		ldr	r3, [r3, #72]
 1475 000c 7822     		movs	r2, #120
 1476 000e 5A60     		str	r2, [r3, #4]
 1477              		.loc 5 435 0
 1478 0010 7B68     		ldr	r3, [r7, #4]
 1479 0012 9B6C     		ldr	r3, [r3, #72]
 1480 0014 7A68     		ldr	r2, [r7, #4]
 1481 0016 926C     		ldr	r2, [r2, #72]
 1482 0018 1268     		ldr	r2, [r2]
 1483 001a 42F00302 		orr	r2, r2, #3
 1484 001e 1A60     		str	r2, [r3]
 1485              		.loc 5 436 0
 1486 0020 7B68     		ldr	r3, [r7, #4]
 1487 0022 9B6C     		ldr	r3, [r3, #72]
 1488 0024 7A68     		ldr	r2, [r7, #4]
 1489 0026 926C     		ldr	r2, [r2, #72]
 1490 0028 5268     		ldr	r2, [r2, #4]
 1491 002a 42F48072 		orr	r2, r2, #256
 1492 002e 5A60     		str	r2, [r3, #4]
 1493              		.loc 5 439 0
 1494 0030 6420     		movs	r0, #100
 1495 0032 FFF7FEFF 		bl	osalThreadSleep
 1496              		.loc 5 440 0
 1497 0036 0837     		adds	r7, r7, #8
 1498 0038 BD46     		mov	sp, r7
 1499              		@ sp needed
 1500 003a 80BD     		pop	{r7, pc}
ARM GAS  C:\Users\Luis\AppData\Local\Temp\ccMHTq6a.s 			page 28


 1501              		.cfi_endproc
 1502              	.LFE270:
 1503              		.size	sdc_lld_start_clk, .-sdc_lld_start_clk
 1504 003c AFF30080 		.section	.text.sdc_lld_set_data_clk,"ax",%progbits
 1505              		.align	2
 1506              		.p2align 4,,15
 1507              		.global	sdc_lld_set_data_clk
 1508              		.thumb
 1509              		.thumb_func
 1510              		.type	sdc_lld_set_data_clk, %function
 1511              	sdc_lld_set_data_clk:
 1512              	.LFB271:
 1513              		.loc 5 450 0
 1514              		.cfi_startproc
 1515              		@ args = 0, pretend = 0, frame = 8
 1516              		@ frame_needed = 1, uses_anonymous_args = 0
 1517              		@ link register save eliminated.
 1518 0000 80B4     		push	{r7}
 1519              		.cfi_def_cfa_offset 4
 1520              		.cfi_offset 7, -4
 1521 0002 83B0     		sub	sp, sp, #12
 1522              		.cfi_def_cfa_offset 16
 1523 0004 00AF     		add	r7, sp, #0
 1524              		.cfi_def_cfa_register 7
 1525 0006 7860     		str	r0, [r7, #4]
 1526 0008 0B46     		mov	r3, r1
 1527 000a FB70     		strb	r3, [r7, #3]
 1528              		.loc 5 461 0
 1529 000c 7B68     		ldr	r3, [r7, #4]
 1530 000e 9B6C     		ldr	r3, [r3, #72]
 1531 0010 7A68     		ldr	r2, [r7, #4]
 1532 0012 926C     		ldr	r2, [r2, #72]
 1533 0014 5268     		ldr	r2, [r2, #4]
 1534 0016 22F0FF02 		bic	r2, r2, #255
 1535 001a 5A60     		str	r2, [r3, #4]
 1536              		.loc 5 463 0
 1537 001c 0C37     		adds	r7, r7, #12
 1538 001e BD46     		mov	sp, r7
 1539              		@ sp needed
 1540 0020 5DF8047B 		ldr	r7, [sp], #4
 1541 0024 7047     		bx	lr
 1542              		.cfi_endproc
 1543              	.LFE271:
 1544              		.size	sdc_lld_set_data_clk, .-sdc_lld_set_data_clk
 1545 0026 00BFAFF3 		.section	.text.sdc_lld_stop_clk,"ax",%progbits
 1545      0080AFF3 
 1545      0080
 1546              		.align	2
 1547              		.p2align 4,,15
 1548              		.global	sdc_lld_stop_clk
 1549              		.thumb
 1550              		.thumb_func
 1551              		.type	sdc_lld_stop_clk, %function
 1552              	sdc_lld_stop_clk:
 1553              	.LFB272:
 1554              		.loc 5 472 0
 1555              		.cfi_startproc
ARM GAS  C:\Users\Luis\AppData\Local\Temp\ccMHTq6a.s 			page 29


 1556              		@ args = 0, pretend = 0, frame = 8
 1557              		@ frame_needed = 1, uses_anonymous_args = 0
 1558              		@ link register save eliminated.
 1559 0000 80B4     		push	{r7}
 1560              		.cfi_def_cfa_offset 4
 1561              		.cfi_offset 7, -4
 1562 0002 83B0     		sub	sp, sp, #12
 1563              		.cfi_def_cfa_offset 16
 1564 0004 00AF     		add	r7, sp, #0
 1565              		.cfi_def_cfa_register 7
 1566 0006 7860     		str	r0, [r7, #4]
 1567              		.loc 5 474 0
 1568 0008 7B68     		ldr	r3, [r7, #4]
 1569 000a 9B6C     		ldr	r3, [r3, #72]
 1570 000c 0022     		movs	r2, #0
 1571 000e 5A60     		str	r2, [r3, #4]
 1572              		.loc 5 475 0
 1573 0010 7B68     		ldr	r3, [r7, #4]
 1574 0012 9B6C     		ldr	r3, [r3, #72]
 1575 0014 0022     		movs	r2, #0
 1576 0016 1A60     		str	r2, [r3]
 1577              		.loc 5 476 0
 1578 0018 0C37     		adds	r7, r7, #12
 1579 001a BD46     		mov	sp, r7
 1580              		@ sp needed
 1581 001c 5DF8047B 		ldr	r7, [sp], #4
 1582 0020 7047     		bx	lr
 1583              		.cfi_endproc
 1584              	.LFE272:
 1585              		.size	sdc_lld_stop_clk, .-sdc_lld_stop_clk
 1586 0022 00BFAFF3 		.section	.text.sdc_lld_set_bus_mode,"ax",%progbits
 1586      0080AFF3 
 1586      0080AFF3 
 1586      0080
 1587              		.align	2
 1588              		.p2align 4,,15
 1589              		.global	sdc_lld_set_bus_mode
 1590              		.thumb
 1591              		.thumb_func
 1592              		.type	sdc_lld_set_bus_mode, %function
 1593              	sdc_lld_set_bus_mode:
 1594              	.LFB273:
 1595              		.loc 5 486 0
 1596              		.cfi_startproc
 1597              		@ args = 0, pretend = 0, frame = 16
 1598              		@ frame_needed = 1, uses_anonymous_args = 0
 1599              		@ link register save eliminated.
 1600 0000 80B4     		push	{r7}
 1601              		.cfi_def_cfa_offset 4
 1602              		.cfi_offset 7, -4
 1603 0002 85B0     		sub	sp, sp, #20
 1604              		.cfi_def_cfa_offset 24
 1605 0004 00AF     		add	r7, sp, #0
 1606              		.cfi_def_cfa_register 7
 1607 0006 7860     		str	r0, [r7, #4]
 1608 0008 0B46     		mov	r3, r1
 1609 000a FB70     		strb	r3, [r7, #3]
ARM GAS  C:\Users\Luis\AppData\Local\Temp\ccMHTq6a.s 			page 30


 1610              		.loc 5 487 0
 1611 000c 7B68     		ldr	r3, [r7, #4]
 1612 000e 9B6C     		ldr	r3, [r3, #72]
 1613 0010 5B68     		ldr	r3, [r3, #4]
 1614 0012 23F4C053 		bic	r3, r3, #6144
 1615 0016 FB60     		str	r3, [r7, #12]
 1616              		.loc 5 489 0
 1617 0018 FB78     		ldrb	r3, [r7, #3]	@ zero_extendqisi2
 1618 001a 012B     		cmp	r3, #1
 1619 001c 08D0     		beq	.L86
 1620 001e 022B     		cmp	r3, #2
 1621 0020 0DD0     		beq	.L87
 1622 0022 002B     		cmp	r3, #0
 1623 0024 12D1     		bne	.L84
 1624              		.loc 5 491 0
 1625 0026 7B68     		ldr	r3, [r7, #4]
 1626 0028 9B6C     		ldr	r3, [r3, #72]
 1627 002a FA68     		ldr	r2, [r7, #12]
 1628 002c 5A60     		str	r2, [r3, #4]
 1629              		.loc 5 492 0
 1630 002e 0DE0     		b	.L84
 1631              	.L86:
 1632              		.loc 5 494 0
 1633 0030 7B68     		ldr	r3, [r7, #4]
 1634 0032 9B6C     		ldr	r3, [r3, #72]
 1635 0034 FA68     		ldr	r2, [r7, #12]
 1636 0036 42F40062 		orr	r2, r2, #2048
 1637 003a 5A60     		str	r2, [r3, #4]
 1638              		.loc 5 495 0
 1639 003c 06E0     		b	.L84
 1640              	.L87:
 1641              		.loc 5 497 0
 1642 003e 7B68     		ldr	r3, [r7, #4]
 1643 0040 9B6C     		ldr	r3, [r3, #72]
 1644 0042 FA68     		ldr	r2, [r7, #12]
 1645 0044 42F48052 		orr	r2, r2, #4096
 1646 0048 5A60     		str	r2, [r3, #4]
 1647              		.loc 5 498 0
 1648 004a 00BF     		nop
 1649              	.L84:
 1650              		.loc 5 500 0
 1651 004c 1437     		adds	r7, r7, #20
 1652 004e BD46     		mov	sp, r7
 1653              		@ sp needed
 1654 0050 5DF8047B 		ldr	r7, [sp], #4
 1655 0054 7047     		bx	lr
 1656              		.cfi_endproc
 1657              	.LFE273:
 1658              		.size	sdc_lld_set_bus_mode, .-sdc_lld_set_bus_mode
 1659 0056 00BFAFF3 		.section	.text.sdc_lld_send_cmd_none,"ax",%progbits
 1659      0080AFF3 
 1659      0080
 1660              		.align	2
 1661              		.p2align 4,,15
 1662              		.global	sdc_lld_send_cmd_none
 1663              		.thumb
 1664              		.thumb_func
ARM GAS  C:\Users\Luis\AppData\Local\Temp\ccMHTq6a.s 			page 31


 1665              		.type	sdc_lld_send_cmd_none, %function
 1666              	sdc_lld_send_cmd_none:
 1667              	.LFB274:
 1668              		.loc 5 511 0
 1669              		.cfi_startproc
 1670              		@ args = 0, pretend = 0, frame = 16
 1671              		@ frame_needed = 1, uses_anonymous_args = 0
 1672              		@ link register save eliminated.
 1673 0000 80B4     		push	{r7}
 1674              		.cfi_def_cfa_offset 4
 1675              		.cfi_offset 7, -4
 1676 0002 85B0     		sub	sp, sp, #20
 1677              		.cfi_def_cfa_offset 24
 1678 0004 00AF     		add	r7, sp, #0
 1679              		.cfi_def_cfa_register 7
 1680 0006 F860     		str	r0, [r7, #12]
 1681 0008 0B46     		mov	r3, r1
 1682 000a 7A60     		str	r2, [r7, #4]
 1683 000c FB72     		strb	r3, [r7, #11]
 1684              		.loc 5 513 0
 1685 000e FB68     		ldr	r3, [r7, #12]
 1686 0010 9B6C     		ldr	r3, [r3, #72]
 1687 0012 7A68     		ldr	r2, [r7, #4]
 1688 0014 9A60     		str	r2, [r3, #8]
 1689              		.loc 5 514 0
 1690 0016 FB68     		ldr	r3, [r7, #12]
 1691 0018 9B6C     		ldr	r3, [r3, #72]
 1692 001a FA7A     		ldrb	r2, [r7, #11]	@ zero_extendqisi2
 1693 001c 42F48062 		orr	r2, r2, #1024
 1694 0020 DA60     		str	r2, [r3, #12]
 1695              		.loc 5 515 0
 1696 0022 00BF     		nop
 1697              	.L90:
 1698              		.loc 5 515 0 is_stmt 0 discriminator 1
 1699 0024 FB68     		ldr	r3, [r7, #12]
 1700 0026 9B6C     		ldr	r3, [r3, #72]
 1701 0028 5B6B     		ldr	r3, [r3, #52]
 1702 002a 03F08003 		and	r3, r3, #128
 1703 002e 002B     		cmp	r3, #0
 1704 0030 F8D0     		beq	.L90
 1705              		.loc 5 517 0 is_stmt 1
 1706 0032 FB68     		ldr	r3, [r7, #12]
 1707 0034 9B6C     		ldr	r3, [r3, #72]
 1708 0036 8022     		movs	r2, #128
 1709 0038 9A63     		str	r2, [r3, #56]
 1710              		.loc 5 518 0
 1711 003a 1437     		adds	r7, r7, #20
 1712 003c BD46     		mov	sp, r7
 1713              		@ sp needed
 1714 003e 5DF8047B 		ldr	r7, [sp], #4
 1715 0042 7047     		bx	lr
 1716              		.cfi_endproc
 1717              	.LFE274:
 1718              		.size	sdc_lld_send_cmd_none, .-sdc_lld_send_cmd_none
 1719 0044 AFF30080 		.section	.text.sdc_lld_send_cmd_short,"ax",%progbits
 1719      AFF30080 
 1719      AFF30080 
ARM GAS  C:\Users\Luis\AppData\Local\Temp\ccMHTq6a.s 			page 32


 1720              		.align	2
 1721              		.p2align 4,,15
 1722              		.global	sdc_lld_send_cmd_short
 1723              		.thumb
 1724              		.thumb_func
 1725              		.type	sdc_lld_send_cmd_short, %function
 1726              	sdc_lld_send_cmd_short:
 1727              	.LFB275:
 1728              		.loc 5 536 0
 1729              		.cfi_startproc
 1730              		@ args = 0, pretend = 0, frame = 24
 1731              		@ frame_needed = 1, uses_anonymous_args = 0
 1732 0000 80B5     		push	{r7, lr}
 1733              		.cfi_def_cfa_offset 8
 1734              		.cfi_offset 7, -8
 1735              		.cfi_offset 14, -4
 1736 0002 86B0     		sub	sp, sp, #24
 1737              		.cfi_def_cfa_offset 32
 1738 0004 00AF     		add	r7, sp, #0
 1739              		.cfi_def_cfa_register 7
 1740 0006 F860     		str	r0, [r7, #12]
 1741 0008 7A60     		str	r2, [r7, #4]
 1742 000a 3B60     		str	r3, [r7]
 1743 000c 0B46     		mov	r3, r1
 1744 000e FB72     		strb	r3, [r7, #11]
 1745              		.loc 5 539 0
 1746 0010 FB68     		ldr	r3, [r7, #12]
 1747 0012 9B6C     		ldr	r3, [r3, #72]
 1748 0014 7A68     		ldr	r2, [r7, #4]
 1749 0016 9A60     		str	r2, [r3, #8]
 1750              		.loc 5 540 0
 1751 0018 FB68     		ldr	r3, [r7, #12]
 1752 001a 9B6C     		ldr	r3, [r3, #72]
 1753 001c FA7A     		ldrb	r2, [r7, #11]
 1754 001e 42F04002 		orr	r2, r2, #64
 1755 0022 D2B2     		uxtb	r2, r2
 1756 0024 42F48062 		orr	r2, r2, #1024
 1757 0028 DA60     		str	r2, [r3, #12]
 1758              		.loc 5 541 0
 1759 002a 00BF     		nop
 1760              	.L92:
 1761              		.loc 5 541 0 is_stmt 0 discriminator 1
 1762 002c FB68     		ldr	r3, [r7, #12]
 1763 002e 9B6C     		ldr	r3, [r3, #72]
 1764 0030 5B6B     		ldr	r3, [r3, #52]
 1765 0032 7B61     		str	r3, [r7, #20]
 1766 0034 7B69     		ldr	r3, [r7, #20]
 1767 0036 03F04503 		and	r3, r3, #69
 1768 003a 002B     		cmp	r3, #0
 1769 003c F6D0     		beq	.L92
 1770              		.loc 5 544 0 is_stmt 1
 1771 003e FB68     		ldr	r3, [r7, #12]
 1772 0040 9B6C     		ldr	r3, [r3, #72]
 1773 0042 7A69     		ldr	r2, [r7, #20]
 1774 0044 02F04502 		and	r2, r2, #69
 1775 0048 9A63     		str	r2, [r3, #56]
 1776              		.loc 5 546 0
ARM GAS  C:\Users\Luis\AppData\Local\Temp\ccMHTq6a.s 			page 33


 1777 004a 7B69     		ldr	r3, [r7, #20]
 1778 004c 03F00403 		and	r3, r3, #4
 1779 0050 002B     		cmp	r3, #0
 1780 0052 05D0     		beq	.L93
 1781              		.loc 5 547 0
 1782 0054 F868     		ldr	r0, [r7, #12]
 1783 0056 7969     		ldr	r1, [r7, #20]
 1784 0058 FFF7FEFF 		bl	sdc_lld_collect_errors
 1785              		.loc 5 548 0
 1786 005c 0123     		movs	r3, #1
 1787 005e 05E0     		b	.L94
 1788              	.L93:
 1789              		.loc 5 550 0
 1790 0060 FB68     		ldr	r3, [r7, #12]
 1791 0062 9B6C     		ldr	r3, [r3, #72]
 1792 0064 5A69     		ldr	r2, [r3, #20]
 1793 0066 3B68     		ldr	r3, [r7]
 1794 0068 1A60     		str	r2, [r3]
 1795              		.loc 5 551 0
 1796 006a 0023     		movs	r3, #0
 1797              	.L94:
 1798              		.loc 5 552 0
 1799 006c 1846     		mov	r0, r3
 1800 006e 1837     		adds	r7, r7, #24
 1801 0070 BD46     		mov	sp, r7
 1802              		@ sp needed
 1803 0072 80BD     		pop	{r7, pc}
 1804              		.cfi_endproc
 1805              	.LFE275:
 1806              		.size	sdc_lld_send_cmd_short, .-sdc_lld_send_cmd_short
 1807 0074 AFF30080 		.section	.text.sdc_lld_send_cmd_short_crc,"ax",%progbits
 1807      AFF30080 
 1807      AFF30080 
 1808              		.align	2
 1809              		.p2align 4,,15
 1810              		.global	sdc_lld_send_cmd_short_crc
 1811              		.thumb
 1812              		.thumb_func
 1813              		.type	sdc_lld_send_cmd_short_crc, %function
 1814              	sdc_lld_send_cmd_short_crc:
 1815              	.LFB276:
 1816              		.loc 5 569 0
 1817              		.cfi_startproc
 1818              		@ args = 0, pretend = 0, frame = 24
 1819              		@ frame_needed = 1, uses_anonymous_args = 0
 1820 0000 80B5     		push	{r7, lr}
 1821              		.cfi_def_cfa_offset 8
 1822              		.cfi_offset 7, -8
 1823              		.cfi_offset 14, -4
 1824 0002 86B0     		sub	sp, sp, #24
 1825              		.cfi_def_cfa_offset 32
 1826 0004 00AF     		add	r7, sp, #0
 1827              		.cfi_def_cfa_register 7
 1828 0006 F860     		str	r0, [r7, #12]
 1829 0008 7A60     		str	r2, [r7, #4]
 1830 000a 3B60     		str	r3, [r7]
 1831 000c 0B46     		mov	r3, r1
ARM GAS  C:\Users\Luis\AppData\Local\Temp\ccMHTq6a.s 			page 34


 1832 000e FB72     		strb	r3, [r7, #11]
 1833              		.loc 5 572 0
 1834 0010 FB68     		ldr	r3, [r7, #12]
 1835 0012 9B6C     		ldr	r3, [r3, #72]
 1836 0014 7A68     		ldr	r2, [r7, #4]
 1837 0016 9A60     		str	r2, [r3, #8]
 1838              		.loc 5 573 0
 1839 0018 FB68     		ldr	r3, [r7, #12]
 1840 001a 9B6C     		ldr	r3, [r3, #72]
 1841 001c FA7A     		ldrb	r2, [r7, #11]
 1842 001e 42F04002 		orr	r2, r2, #64
 1843 0022 D2B2     		uxtb	r2, r2
 1844 0024 42F48062 		orr	r2, r2, #1024
 1845 0028 DA60     		str	r2, [r3, #12]
 1846              		.loc 5 574 0
 1847 002a 00BF     		nop
 1848              	.L96:
 1849              		.loc 5 574 0 is_stmt 0 discriminator 1
 1850 002c FB68     		ldr	r3, [r7, #12]
 1851 002e 9B6C     		ldr	r3, [r3, #72]
 1852 0030 5B6B     		ldr	r3, [r3, #52]
 1853 0032 7B61     		str	r3, [r7, #20]
 1854 0034 7B69     		ldr	r3, [r7, #20]
 1855 0036 03F04503 		and	r3, r3, #69
 1856 003a 002B     		cmp	r3, #0
 1857 003c F6D0     		beq	.L96
 1858              		.loc 5 577 0 is_stmt 1
 1859 003e FB68     		ldr	r3, [r7, #12]
 1860 0040 9B6C     		ldr	r3, [r3, #72]
 1861 0042 7A69     		ldr	r2, [r7, #20]
 1862 0044 02F04502 		and	r2, r2, #69
 1863 0048 9A63     		str	r2, [r3, #56]
 1864              		.loc 5 578 0
 1865 004a 7B69     		ldr	r3, [r7, #20]
 1866 004c 03F00503 		and	r3, r3, #5
 1867 0050 002B     		cmp	r3, #0
 1868 0052 05D0     		beq	.L97
 1869              		.loc 5 579 0
 1870 0054 F868     		ldr	r0, [r7, #12]
 1871 0056 7969     		ldr	r1, [r7, #20]
 1872 0058 FFF7FEFF 		bl	sdc_lld_collect_errors
 1873              		.loc 5 580 0
 1874 005c 0123     		movs	r3, #1
 1875 005e 05E0     		b	.L98
 1876              	.L97:
 1877              		.loc 5 582 0
 1878 0060 FB68     		ldr	r3, [r7, #12]
 1879 0062 9B6C     		ldr	r3, [r3, #72]
 1880 0064 5A69     		ldr	r2, [r3, #20]
 1881 0066 3B68     		ldr	r3, [r7]
 1882 0068 1A60     		str	r2, [r3]
 1883              		.loc 5 583 0
 1884 006a 0023     		movs	r3, #0
 1885              	.L98:
 1886              		.loc 5 584 0
 1887 006c 1846     		mov	r0, r3
 1888 006e 1837     		adds	r7, r7, #24
ARM GAS  C:\Users\Luis\AppData\Local\Temp\ccMHTq6a.s 			page 35


 1889 0070 BD46     		mov	sp, r7
 1890              		@ sp needed
 1891 0072 80BD     		pop	{r7, pc}
 1892              		.cfi_endproc
 1893              	.LFE276:
 1894              		.size	sdc_lld_send_cmd_short_crc, .-sdc_lld_send_cmd_short_crc
 1895 0074 AFF30080 		.section	.text.sdc_lld_send_cmd_long_crc,"ax",%progbits
 1895      AFF30080 
 1895      AFF30080 
 1896              		.align	2
 1897              		.p2align 4,,15
 1898              		.global	sdc_lld_send_cmd_long_crc
 1899              		.thumb
 1900              		.thumb_func
 1901              		.type	sdc_lld_send_cmd_long_crc, %function
 1902              	sdc_lld_send_cmd_long_crc:
 1903              	.LFB277:
 1904              		.loc 5 601 0
 1905              		.cfi_startproc
 1906              		@ args = 0, pretend = 0, frame = 24
 1907              		@ frame_needed = 1, uses_anonymous_args = 0
 1908 0000 80B5     		push	{r7, lr}
 1909              		.cfi_def_cfa_offset 8
 1910              		.cfi_offset 7, -8
 1911              		.cfi_offset 14, -4
 1912 0002 86B0     		sub	sp, sp, #24
 1913              		.cfi_def_cfa_offset 32
 1914 0004 00AF     		add	r7, sp, #0
 1915              		.cfi_def_cfa_register 7
 1916 0006 F860     		str	r0, [r7, #12]
 1917 0008 7A60     		str	r2, [r7, #4]
 1918 000a 3B60     		str	r3, [r7]
 1919 000c 0B46     		mov	r3, r1
 1920 000e FB72     		strb	r3, [r7, #11]
 1921              		.loc 5 606 0
 1922 0010 FB68     		ldr	r3, [r7, #12]
 1923 0012 9B6C     		ldr	r3, [r3, #72]
 1924 0014 7A68     		ldr	r2, [r7, #4]
 1925 0016 9A60     		str	r2, [r3, #8]
 1926              		.loc 5 607 0
 1927 0018 FB68     		ldr	r3, [r7, #12]
 1928 001a 9B6C     		ldr	r3, [r3, #72]
 1929 001c FA7A     		ldrb	r2, [r7, #11]
 1930 001e 62F03F02 		orn	r2, r2, #63
 1931 0022 D2B2     		uxtb	r2, r2
 1932 0024 42F48062 		orr	r2, r2, #1024
 1933 0028 DA60     		str	r2, [r3, #12]
 1934              		.loc 5 609 0
 1935 002a 00BF     		nop
 1936              	.L100:
 1937              		.loc 5 609 0 is_stmt 0 discriminator 1
 1938 002c FB68     		ldr	r3, [r7, #12]
 1939 002e 9B6C     		ldr	r3, [r3, #72]
 1940 0030 5B6B     		ldr	r3, [r3, #52]
 1941 0032 7B61     		str	r3, [r7, #20]
 1942 0034 7B69     		ldr	r3, [r7, #20]
 1943 0036 03F04503 		and	r3, r3, #69
ARM GAS  C:\Users\Luis\AppData\Local\Temp\ccMHTq6a.s 			page 36


 1944 003a 002B     		cmp	r3, #0
 1945 003c F6D0     		beq	.L100
 1946              		.loc 5 612 0 is_stmt 1
 1947 003e FB68     		ldr	r3, [r7, #12]
 1948 0040 9B6C     		ldr	r3, [r3, #72]
 1949 0042 7A69     		ldr	r2, [r7, #20]
 1950 0044 02F04502 		and	r2, r2, #69
 1951 0048 9A63     		str	r2, [r3, #56]
 1952              		.loc 5 614 0
 1953 004a 7B69     		ldr	r3, [r7, #20]
 1954 004c 03F03F03 		and	r3, r3, #63
 1955 0050 002B     		cmp	r3, #0
 1956 0052 05D0     		beq	.L101
 1957              		.loc 5 615 0
 1958 0054 F868     		ldr	r0, [r7, #12]
 1959 0056 7969     		ldr	r1, [r7, #20]
 1960 0058 FFF7FEFF 		bl	sdc_lld_collect_errors
 1961              		.loc 5 616 0
 1962 005c 0123     		movs	r3, #1
 1963 005e 1AE0     		b	.L102
 1964              	.L101:
 1965              		.loc 5 619 0
 1966 0060 3B68     		ldr	r3, [r7]
 1967 0062 1A1D     		adds	r2, r3, #4
 1968 0064 3A60     		str	r2, [r7]
 1969 0066 FA68     		ldr	r2, [r7, #12]
 1970 0068 926C     		ldr	r2, [r2, #72]
 1971 006a 126A     		ldr	r2, [r2, #32]
 1972 006c 1A60     		str	r2, [r3]
 1973              		.loc 5 620 0
 1974 006e 3B68     		ldr	r3, [r7]
 1975 0070 1A1D     		adds	r2, r3, #4
 1976 0072 3A60     		str	r2, [r7]
 1977 0074 FA68     		ldr	r2, [r7, #12]
 1978 0076 926C     		ldr	r2, [r2, #72]
 1979 0078 D269     		ldr	r2, [r2, #28]
 1980 007a 1A60     		str	r2, [r3]
 1981              		.loc 5 621 0
 1982 007c 3B68     		ldr	r3, [r7]
 1983 007e 1A1D     		adds	r2, r3, #4
 1984 0080 3A60     		str	r2, [r7]
 1985 0082 FA68     		ldr	r2, [r7, #12]
 1986 0084 926C     		ldr	r2, [r2, #72]
 1987 0086 9269     		ldr	r2, [r2, #24]
 1988 0088 1A60     		str	r2, [r3]
 1989              		.loc 5 622 0
 1990 008a FB68     		ldr	r3, [r7, #12]
 1991 008c 9B6C     		ldr	r3, [r3, #72]
 1992 008e 5A69     		ldr	r2, [r3, #20]
 1993 0090 3B68     		ldr	r3, [r7]
 1994 0092 1A60     		str	r2, [r3]
 1995              		.loc 5 623 0
 1996 0094 0023     		movs	r3, #0
 1997              	.L102:
 1998              		.loc 5 624 0
 1999 0096 1846     		mov	r0, r3
 2000 0098 1837     		adds	r7, r7, #24
ARM GAS  C:\Users\Luis\AppData\Local\Temp\ccMHTq6a.s 			page 37


 2001 009a BD46     		mov	sp, r7
 2002              		@ sp needed
 2003 009c 80BD     		pop	{r7, pc}
 2004              		.cfi_endproc
 2005              	.LFE277:
 2006              		.size	sdc_lld_send_cmd_long_crc, .-sdc_lld_send_cmd_long_crc
 2007 009e 00BF     		.section	.text.sdc_lld_read_special,"ax",%progbits
 2008              		.align	2
 2009              		.p2align 4,,15
 2010              		.global	sdc_lld_read_special
 2011              		.thumb
 2012              		.thumb_func
 2013              		.type	sdc_lld_read_special, %function
 2014              	sdc_lld_read_special:
 2015              	.LFB278:
 2016              		.loc 5 643 0
 2017              		.cfi_startproc
 2018              		@ args = 4, pretend = 0, frame = 24
 2019              		@ frame_needed = 1, uses_anonymous_args = 0
 2020 0000 80B5     		push	{r7, lr}
 2021              		.cfi_def_cfa_offset 8
 2022              		.cfi_offset 7, -8
 2023              		.cfi_offset 14, -4
 2024 0002 86B0     		sub	sp, sp, #24
 2025              		.cfi_def_cfa_offset 32
 2026 0004 00AF     		add	r7, sp, #0
 2027              		.cfi_def_cfa_register 7
 2028 0006 F860     		str	r0, [r7, #12]
 2029 0008 B960     		str	r1, [r7, #8]
 2030 000a 7A60     		str	r2, [r7, #4]
 2031 000c FB70     		strb	r3, [r7, #3]
 2032              		.loc 5 646 0
 2033 000e F868     		ldr	r0, [r7, #12]
 2034 0010 B968     		ldr	r1, [r7, #8]
 2035 0012 7A68     		ldr	r2, [r7, #4]
 2036 0014 FFF7FEFF 		bl	sdc_lld_prepare_read_bytes
 2037 0018 0346     		mov	r3, r0
 2038 001a 002B     		cmp	r3, #0
 2039 001c 00D0     		beq	.L104
 2040              		.loc 5 647 0
 2041 001e 1CE0     		b	.L105
 2042              	.L104:
 2043              		.loc 5 649 0
 2044 0020 FA78     		ldrb	r2, [r7, #3]	@ zero_extendqisi2
 2045 0022 07F11403 		add	r3, r7, #20
 2046 0026 F868     		ldr	r0, [r7, #12]
 2047 0028 1146     		mov	r1, r2
 2048 002a 3A6A     		ldr	r2, [r7, #32]
 2049 002c FFF7FEFF 		bl	sdc_lld_send_cmd_short_crc
 2050 0030 0346     		mov	r3, r0
 2051 0032 002B     		cmp	r3, #0
 2052 0034 11D1     		bne	.L105
 2053              		.loc 5 650 0
 2054 0036 7A69     		ldr	r2, [r7, #20]
 2055 0038 0E4B     		ldr	r3, .L109
 2056 003a 1340     		ands	r3, r3, r2
 2057 003c 002B     		cmp	r3, #0
ARM GAS  C:\Users\Luis\AppData\Local\Temp\ccMHTq6a.s 			page 38


 2058 003e 0CD1     		bne	.L105
 2059              		.loc 5 653 0
 2060 0040 07F11403 		add	r3, r7, #20
 2061 0044 F868     		ldr	r0, [r7, #12]
 2062 0046 0121     		movs	r1, #1
 2063 0048 1A46     		mov	r2, r3
 2064 004a FFF7FEFF 		bl	sdc_lld_wait_transaction_end
 2065 004e 0346     		mov	r3, r0
 2066 0050 002B     		cmp	r3, #0
 2067 0052 00D0     		beq	.L106
 2068              		.loc 5 654 0
 2069 0054 01E0     		b	.L105
 2070              	.L106:
 2071              		.loc 5 656 0
 2072 0056 0023     		movs	r3, #0
 2073 0058 07E0     		b	.L108
 2074              	.L105:
 2075              		.loc 5 659 0
 2076 005a 07F11403 		add	r3, r7, #20
 2077 005e F868     		ldr	r0, [r7, #12]
 2078 0060 0121     		movs	r1, #1
 2079 0062 1A46     		mov	r2, r3
 2080 0064 FFF7FEFF 		bl	sdc_lld_error_cleanup
 2081              		.loc 5 660 0
 2082 0068 0123     		movs	r3, #1
 2083              	.L108:
 2084              		.loc 5 661 0
 2085 006a 1846     		mov	r0, r3
 2086 006c 1837     		adds	r7, r7, #24
 2087 006e BD46     		mov	sp, r7
 2088              		@ sp needed
 2089 0070 80BD     		pop	{r7, pc}
 2090              	.L110:
 2091 0072 00BF     		.align	2
 2092              	.L109:
 2093 0074 08E0FFFD 		.word	-33562616
 2094              		.cfi_endproc
 2095              	.LFE278:
 2096              		.size	sdc_lld_read_special, .-sdc_lld_read_special
 2097 0078 AFF30080 		.section	.text.sdc_lld_read_aligned,"ax",%progbits
 2097      AFF30080 
 2098              		.align	2
 2099              		.p2align 4,,15
 2100              		.global	sdc_lld_read_aligned
 2101              		.thumb
 2102              		.thumb_func
 2103              		.type	sdc_lld_read_aligned, %function
 2104              	sdc_lld_read_aligned:
 2105              	.LFB279:
 2106              		.loc 5 678 0
 2107              		.cfi_startproc
 2108              		@ args = 0, pretend = 0, frame = 24
 2109              		@ frame_needed = 1, uses_anonymous_args = 0
 2110 0000 80B5     		push	{r7, lr}
 2111              		.cfi_def_cfa_offset 8
 2112              		.cfi_offset 7, -8
 2113              		.cfi_offset 14, -4
ARM GAS  C:\Users\Luis\AppData\Local\Temp\ccMHTq6a.s 			page 39


 2114 0002 86B0     		sub	sp, sp, #24
 2115              		.cfi_def_cfa_offset 32
 2116 0004 00AF     		add	r7, sp, #0
 2117              		.cfi_def_cfa_register 7
 2118 0006 F860     		str	r0, [r7, #12]
 2119 0008 B960     		str	r1, [r7, #8]
 2120 000a 7A60     		str	r2, [r7, #4]
 2121 000c 3B60     		str	r3, [r7]
 2122              		.loc 5 681 0
 2123 000e 3B68     		ldr	r3, [r7]
 2124 0010 B3F5004F 		cmp	r3, #32768
 2125 0014 02D3     		bcc	.L112
 2126              		.loc 5 681 0 is_stmt 0 discriminator 1
 2127 0016 3048     		ldr	r0, .L119
 2128 0018 FFF7FEFF 		bl	chSysHalt
 2129              	.L112:
 2130              		.loc 5 683 0 is_stmt 1
 2131 001c FB68     		ldr	r3, [r7, #12]
 2132 001e 9B6C     		ldr	r3, [r3, #72]
 2133 0020 2E4A     		ldr	r2, .L119+4
 2134 0022 5A62     		str	r2, [r3, #36]
 2135              		.loc 5 686 0
 2136 0024 F868     		ldr	r0, [r7, #12]
 2137 0026 FFF7FEFF 		bl	_sdc_wait_for_transfer_state
 2138 002a 0346     		mov	r3, r0
 2139 002c 002B     		cmp	r3, #0
 2140 002e 01D0     		beq	.L113
 2141              		.loc 5 687 0
 2142 0030 0123     		movs	r3, #1
 2143 0032 4DE0     		b	.L118
 2144              	.L113:
 2145              		.loc 5 690 0
 2146 0034 FB68     		ldr	r3, [r7, #12]
 2147 0036 5B6C     		ldr	r3, [r3, #68]
 2148 0038 1B68     		ldr	r3, [r3]
 2149 003a 7A68     		ldr	r2, [r7, #4]
 2150 003c DA60     		str	r2, [r3, #12]
 2151              		.loc 5 691 0
 2152 003e FB68     		ldr	r3, [r7, #12]
 2153 0040 5B6C     		ldr	r3, [r3, #68]
 2154 0042 1B68     		ldr	r3, [r3]
 2155 0044 3A68     		ldr	r2, [r7]
 2156 0046 5202     		lsls	r2, r2, #9
 2157 0048 9208     		lsrs	r2, r2, #2
 2158 004a 5A60     		str	r2, [r3, #4]
 2159              		.loc 5 693 0
 2160 004c FB68     		ldr	r3, [r7, #12]
 2161 004e 5B6C     		ldr	r3, [r3, #68]
 2162 0050 1B68     		ldr	r3, [r3]
 2163 0052 FA68     		ldr	r2, [r7, #12]
 2164 0054 126C     		ldr	r2, [r2, #64]
 2165 0056 1A60     		str	r2, [r3]
 2166              		.loc 5 694 0
 2167 0058 FB68     		ldr	r3, [r7, #12]
 2168 005a 5B6C     		ldr	r3, [r3, #68]
 2169 005c 1B68     		ldr	r3, [r3]
 2170 005e FA68     		ldr	r2, [r7, #12]
ARM GAS  C:\Users\Luis\AppData\Local\Temp\ccMHTq6a.s 			page 40


 2171 0060 526C     		ldr	r2, [r2, #68]
 2172 0062 1268     		ldr	r2, [r2]
 2173 0064 1268     		ldr	r2, [r2]
 2174 0066 42F00102 		orr	r2, r2, #1
 2175 006a 1A60     		str	r2, [r3]
 2176              		.loc 5 697 0
 2177 006c FB68     		ldr	r3, [r7, #12]
 2178 006e 9B6C     		ldr	r3, [r3, #72]
 2179 0070 1B4A     		ldr	r2, .L119+8
 2180 0072 9A63     		str	r2, [r3, #56]
 2181              		.loc 5 698 0
 2182 0074 FB68     		ldr	r3, [r7, #12]
 2183 0076 9B6C     		ldr	r3, [r3, #72]
 2184 0078 40F22A32 		movw	r2, #810
 2185 007c DA63     		str	r2, [r3, #60]
 2186              		.loc 5 703 0
 2187 007e FB68     		ldr	r3, [r7, #12]
 2188 0080 9B6C     		ldr	r3, [r3, #72]
 2189 0082 3A68     		ldr	r2, [r7]
 2190 0084 5202     		lsls	r2, r2, #9
 2191 0086 9A62     		str	r2, [r3, #40]
 2192              		.loc 5 706 0
 2193 0088 FB68     		ldr	r3, [r7, #12]
 2194 008a 9B6C     		ldr	r3, [r3, #72]
 2195 008c 9B22     		movs	r2, #155
 2196 008e DA62     		str	r2, [r3, #44]
 2197              		.loc 5 712 0
 2198 0090 07F11403 		add	r3, r7, #20
 2199 0094 F868     		ldr	r0, [r7, #12]
 2200 0096 B968     		ldr	r1, [r7, #8]
 2201 0098 3A68     		ldr	r2, [r7]
 2202 009a FFF7FEFF 		bl	sdc_lld_prepare_read
 2203 009e 0346     		mov	r3, r0
 2204 00a0 002B     		cmp	r3, #0
 2205 00a2 00D0     		beq	.L115
 2206              		.loc 5 713 0
 2207 00a4 0CE0     		b	.L116
 2208              	.L115:
 2209              		.loc 5 715 0
 2210 00a6 07F11403 		add	r3, r7, #20
 2211 00aa F868     		ldr	r0, [r7, #12]
 2212 00ac 3968     		ldr	r1, [r7]
 2213 00ae 1A46     		mov	r2, r3
 2214 00b0 FFF7FEFF 		bl	sdc_lld_wait_transaction_end
 2215 00b4 0346     		mov	r3, r0
 2216 00b6 002B     		cmp	r3, #0
 2217 00b8 00D0     		beq	.L117
 2218              		.loc 5 716 0
 2219 00ba 01E0     		b	.L116
 2220              	.L117:
 2221              		.loc 5 718 0
 2222 00bc 0023     		movs	r3, #0
 2223 00be 07E0     		b	.L118
 2224              	.L116:
 2225              		.loc 5 721 0
 2226 00c0 07F11403 		add	r3, r7, #20
 2227 00c4 F868     		ldr	r0, [r7, #12]
ARM GAS  C:\Users\Luis\AppData\Local\Temp\ccMHTq6a.s 			page 41


 2228 00c6 3968     		ldr	r1, [r7]
 2229 00c8 1A46     		mov	r2, r3
 2230 00ca FFF7FEFF 		bl	sdc_lld_error_cleanup
 2231              		.loc 5 722 0
 2232 00ce 0123     		movs	r3, #1
 2233              	.L118:
 2234              		.loc 5 723 0
 2235 00d0 1846     		mov	r0, r3
 2236 00d2 1837     		adds	r7, r7, #24
 2237 00d4 BD46     		mov	sp, r7
 2238              		@ sp needed
 2239 00d6 80BD     		pop	{r7, pc}
 2240              	.L120:
 2241              		.align	2
 2242              	.L119:
 2243 00d8 00000000 		.word	__func__.8380
 2244 00dc C0270900 		.word	600000
 2245 00e0 FF07C000 		.word	12584959
 2246              		.cfi_endproc
 2247              	.LFE279:
 2248              		.size	sdc_lld_read_aligned, .-sdc_lld_read_aligned
 2249 00e4 AFF30080 		.section	.text.sdc_lld_write_aligned,"ax",%progbits
 2249      AFF30080 
 2249      AFF30080 
 2250              		.align	2
 2251              		.p2align 4,,15
 2252              		.global	sdc_lld_write_aligned
 2253              		.thumb
 2254              		.thumb_func
 2255              		.type	sdc_lld_write_aligned, %function
 2256              	sdc_lld_write_aligned:
 2257              	.LFB280:
 2258              		.loc 5 740 0
 2259              		.cfi_startproc
 2260              		@ args = 0, pretend = 0, frame = 24
 2261              		@ frame_needed = 1, uses_anonymous_args = 0
 2262 0000 80B5     		push	{r7, lr}
 2263              		.cfi_def_cfa_offset 8
 2264              		.cfi_offset 7, -8
 2265              		.cfi_offset 14, -4
 2266 0002 86B0     		sub	sp, sp, #24
 2267              		.cfi_def_cfa_offset 32
 2268 0004 00AF     		add	r7, sp, #0
 2269              		.cfi_def_cfa_register 7
 2270 0006 F860     		str	r0, [r7, #12]
 2271 0008 B960     		str	r1, [r7, #8]
 2272 000a 7A60     		str	r2, [r7, #4]
 2273 000c 3B60     		str	r3, [r7]
 2274              		.loc 5 743 0
 2275 000e 3B68     		ldr	r3, [r7]
 2276 0010 B3F5004F 		cmp	r3, #32768
 2277 0014 02D3     		bcc	.L122
 2278              		.loc 5 743 0 is_stmt 0 discriminator 1
 2279 0016 3148     		ldr	r0, .L129
 2280 0018 FFF7FEFF 		bl	chSysHalt
 2281              	.L122:
 2282              		.loc 5 745 0 is_stmt 1
ARM GAS  C:\Users\Luis\AppData\Local\Temp\ccMHTq6a.s 			page 42


 2283 001c FB68     		ldr	r3, [r7, #12]
 2284 001e 9B6C     		ldr	r3, [r3, #72]
 2285 0020 2F4A     		ldr	r2, .L129+4
 2286 0022 5A62     		str	r2, [r3, #36]
 2287              		.loc 5 748 0
 2288 0024 F868     		ldr	r0, [r7, #12]
 2289 0026 FFF7FEFF 		bl	_sdc_wait_for_transfer_state
 2290 002a 0346     		mov	r3, r0
 2291 002c 002B     		cmp	r3, #0
 2292 002e 01D0     		beq	.L123
 2293              		.loc 5 749 0
 2294 0030 0123     		movs	r3, #1
 2295 0032 4FE0     		b	.L128
 2296              	.L123:
 2297              		.loc 5 752 0
 2298 0034 FB68     		ldr	r3, [r7, #12]
 2299 0036 5B6C     		ldr	r3, [r3, #68]
 2300 0038 1B68     		ldr	r3, [r3]
 2301 003a 7A68     		ldr	r2, [r7, #4]
 2302 003c DA60     		str	r2, [r3, #12]
 2303              		.loc 5 753 0
 2304 003e FB68     		ldr	r3, [r7, #12]
 2305 0040 5B6C     		ldr	r3, [r3, #68]
 2306 0042 1B68     		ldr	r3, [r3]
 2307 0044 3A68     		ldr	r2, [r7]
 2308 0046 5202     		lsls	r2, r2, #9
 2309 0048 9208     		lsrs	r2, r2, #2
 2310 004a 5A60     		str	r2, [r3, #4]
 2311              		.loc 5 755 0
 2312 004c FB68     		ldr	r3, [r7, #12]
 2313 004e 5B6C     		ldr	r3, [r3, #68]
 2314 0050 1B68     		ldr	r3, [r3]
 2315 0052 FA68     		ldr	r2, [r7, #12]
 2316 0054 126C     		ldr	r2, [r2, #64]
 2317 0056 42F04002 		orr	r2, r2, #64
 2318 005a 1A60     		str	r2, [r3]
 2319              		.loc 5 756 0
 2320 005c FB68     		ldr	r3, [r7, #12]
 2321 005e 5B6C     		ldr	r3, [r3, #68]
 2322 0060 1B68     		ldr	r3, [r3]
 2323 0062 FA68     		ldr	r2, [r7, #12]
 2324 0064 526C     		ldr	r2, [r2, #68]
 2325 0066 1268     		ldr	r2, [r2]
 2326 0068 1268     		ldr	r2, [r2]
 2327 006a 42F00102 		orr	r2, r2, #1
 2328 006e 1A60     		str	r2, [r3]
 2329              		.loc 5 759 0
 2330 0070 FB68     		ldr	r3, [r7, #12]
 2331 0072 9B6C     		ldr	r3, [r3, #72]
 2332 0074 1B4A     		ldr	r2, .L129+8
 2333 0076 9A63     		str	r2, [r3, #56]
 2334              		.loc 5 760 0
 2335 0078 FB68     		ldr	r3, [r7, #12]
 2336 007a 9B6C     		ldr	r3, [r3, #72]
 2337 007c 40F21A32 		movw	r2, #794
 2338 0080 DA63     		str	r2, [r3, #60]
 2339              		.loc 5 765 0
ARM GAS  C:\Users\Luis\AppData\Local\Temp\ccMHTq6a.s 			page 43


 2340 0082 FB68     		ldr	r3, [r7, #12]
 2341 0084 9B6C     		ldr	r3, [r3, #72]
 2342 0086 3A68     		ldr	r2, [r7]
 2343 0088 5202     		lsls	r2, r2, #9
 2344 008a 9A62     		str	r2, [r3, #40]
 2345              		.loc 5 768 0
 2346 008c 07F11403 		add	r3, r7, #20
 2347 0090 F868     		ldr	r0, [r7, #12]
 2348 0092 B968     		ldr	r1, [r7, #8]
 2349 0094 3A68     		ldr	r2, [r7]
 2350 0096 FFF7FEFF 		bl	sdc_lld_prepare_write
 2351 009a 0346     		mov	r3, r0
 2352 009c 002B     		cmp	r3, #0
 2353 009e 00D0     		beq	.L125
 2354              		.loc 5 769 0
 2355 00a0 10E0     		b	.L126
 2356              	.L125:
 2357              		.loc 5 772 0
 2358 00a2 FB68     		ldr	r3, [r7, #12]
 2359 00a4 9B6C     		ldr	r3, [r3, #72]
 2360 00a6 9922     		movs	r2, #153
 2361 00a8 DA62     		str	r2, [r3, #44]
 2362              		.loc 5 777 0
 2363 00aa 07F11403 		add	r3, r7, #20
 2364 00ae F868     		ldr	r0, [r7, #12]
 2365 00b0 3968     		ldr	r1, [r7]
 2366 00b2 1A46     		mov	r2, r3
 2367 00b4 FFF7FEFF 		bl	sdc_lld_wait_transaction_end
 2368 00b8 0346     		mov	r3, r0
 2369 00ba 002B     		cmp	r3, #0
 2370 00bc 00D0     		beq	.L127
 2371              		.loc 5 778 0
 2372 00be 01E0     		b	.L126
 2373              	.L127:
 2374              		.loc 5 780 0
 2375 00c0 0023     		movs	r3, #0
 2376 00c2 07E0     		b	.L128
 2377              	.L126:
 2378              		.loc 5 783 0
 2379 00c4 07F11403 		add	r3, r7, #20
 2380 00c8 F868     		ldr	r0, [r7, #12]
 2381 00ca 3968     		ldr	r1, [r7]
 2382 00cc 1A46     		mov	r2, r3
 2383 00ce FFF7FEFF 		bl	sdc_lld_error_cleanup
 2384              		.loc 5 784 0
 2385 00d2 0123     		movs	r3, #1
 2386              	.L128:
 2387              		.loc 5 785 0
 2388 00d4 1846     		mov	r0, r3
 2389 00d6 1837     		adds	r7, r7, #24
 2390 00d8 BD46     		mov	sp, r7
 2391              		@ sp needed
 2392 00da 80BD     		pop	{r7, pc}
 2393              	.L130:
 2394              		.align	2
 2395              	.L129:
 2396 00dc 00000000 		.word	__func__.8389
ARM GAS  C:\Users\Luis\AppData\Local\Temp\ccMHTq6a.s 			page 44


 2397 00e0 808D5B00 		.word	6000000
 2398 00e4 FF07C000 		.word	12584959
 2399              		.cfi_endproc
 2400              	.LFE280:
 2401              		.size	sdc_lld_write_aligned, .-sdc_lld_write_aligned
 2402 00e8 AFF30080 		.section	.text.sdc_lld_read,"ax",%progbits
 2402      AFF30080 
 2403              		.align	2
 2404              		.p2align 4,,15
 2405              		.global	sdc_lld_read
 2406              		.thumb
 2407              		.thumb_func
 2408              		.type	sdc_lld_read, %function
 2409              	sdc_lld_read:
 2410              	.LFB281:
 2411              		.loc 5 802 0
 2412              		.cfi_startproc
 2413              		@ args = 0, pretend = 0, frame = 24
 2414              		@ frame_needed = 1, uses_anonymous_args = 0
 2415 0000 80B5     		push	{r7, lr}
 2416              		.cfi_def_cfa_offset 8
 2417              		.cfi_offset 7, -8
 2418              		.cfi_offset 14, -4
 2419 0002 86B0     		sub	sp, sp, #24
 2420              		.cfi_def_cfa_offset 32
 2421 0004 00AF     		add	r7, sp, #0
 2422              		.cfi_def_cfa_register 7
 2423 0006 F860     		str	r0, [r7, #12]
 2424 0008 B960     		str	r1, [r7, #8]
 2425 000a 7A60     		str	r2, [r7, #4]
 2426 000c 3B60     		str	r3, [r7]
 2427              		.loc 5 805 0
 2428 000e 7B68     		ldr	r3, [r7, #4]
 2429 0010 03F00303 		and	r3, r3, #3
 2430 0014 002B     		cmp	r3, #0
 2431 0016 28D0     		beq	.L132
 2432              	.LBB11:
 2433              		.loc 5 807 0
 2434 0018 0023     		movs	r3, #0
 2435 001a 7B61     		str	r3, [r7, #20]
 2436 001c 1FE0     		b	.L133
 2437              	.L136:
 2438              		.loc 5 808 0
 2439 001e F868     		ldr	r0, [r7, #12]
 2440 0020 B968     		ldr	r1, [r7, #8]
 2441 0022 174A     		ldr	r2, .L137
 2442 0024 0123     		movs	r3, #1
 2443 0026 FFF7FEFF 		bl	sdc_lld_read_aligned
 2444 002a 0346     		mov	r3, r0
 2445 002c 002B     		cmp	r3, #0
 2446 002e 01D0     		beq	.L134
 2447              		.loc 5 809 0
 2448 0030 0123     		movs	r3, #1
 2449 0032 21E0     		b	.L135
 2450              	.L134:
 2451              		.loc 5 810 0
 2452 0034 7A68     		ldr	r2, [r7, #4]
ARM GAS  C:\Users\Luis\AppData\Local\Temp\ccMHTq6a.s 			page 45


 2453 0036 124B     		ldr	r3, .L137
 2454 0038 1146     		mov	r1, r2
 2455 003a 1A46     		mov	r2, r3
 2456 003c 4FF40073 		mov	r3, #512
 2457 0040 0846     		mov	r0, r1
 2458 0042 1146     		mov	r1, r2
 2459 0044 1A46     		mov	r2, r3
 2460 0046 FFF7FEFF 		bl	memcpy
 2461              		.loc 5 811 0
 2462 004a 7B68     		ldr	r3, [r7, #4]
 2463 004c 03F50073 		add	r3, r3, #512
 2464 0050 7B60     		str	r3, [r7, #4]
 2465              		.loc 5 812 0
 2466 0052 BB68     		ldr	r3, [r7, #8]
 2467 0054 0133     		adds	r3, r3, #1
 2468 0056 BB60     		str	r3, [r7, #8]
 2469              		.loc 5 807 0
 2470 0058 7B69     		ldr	r3, [r7, #20]
 2471 005a 0133     		adds	r3, r3, #1
 2472 005c 7B61     		str	r3, [r7, #20]
 2473              	.L133:
 2474              		.loc 5 807 0 is_stmt 0 discriminator 1
 2475 005e 7A69     		ldr	r2, [r7, #20]
 2476 0060 3B68     		ldr	r3, [r7]
 2477 0062 9A42     		cmp	r2, r3
 2478 0064 DBD3     		bcc	.L136
 2479              		.loc 5 814 0 is_stmt 1
 2480 0066 0023     		movs	r3, #0
 2481 0068 06E0     		b	.L135
 2482              	.L132:
 2483              	.LBE11:
 2484              		.loc 5 817 0
 2485 006a F868     		ldr	r0, [r7, #12]
 2486 006c B968     		ldr	r1, [r7, #8]
 2487 006e 7A68     		ldr	r2, [r7, #4]
 2488 0070 3B68     		ldr	r3, [r7]
 2489 0072 FFF7FEFF 		bl	sdc_lld_read_aligned
 2490 0076 0346     		mov	r3, r0
 2491              	.L135:
 2492              		.loc 5 818 0
 2493 0078 1846     		mov	r0, r3
 2494 007a 1837     		adds	r7, r7, #24
 2495 007c BD46     		mov	sp, r7
 2496              		@ sp needed
 2497 007e 80BD     		pop	{r7, pc}
 2498              	.L138:
 2499              		.align	2
 2500              	.L137:
 2501 0080 00000000 		.word	u
 2502              		.cfi_endproc
 2503              	.LFE281:
 2504              		.size	sdc_lld_read, .-sdc_lld_read
 2505 0084 AFF30080 		.section	.text.sdc_lld_write,"ax",%progbits
 2505      AFF30080 
 2505      AFF30080 
 2506              		.align	2
 2507              		.p2align 4,,15
ARM GAS  C:\Users\Luis\AppData\Local\Temp\ccMHTq6a.s 			page 46


 2508              		.global	sdc_lld_write
 2509              		.thumb
 2510              		.thumb_func
 2511              		.type	sdc_lld_write, %function
 2512              	sdc_lld_write:
 2513              	.LFB282:
 2514              		.loc 5 835 0
 2515              		.cfi_startproc
 2516              		@ args = 0, pretend = 0, frame = 24
 2517              		@ frame_needed = 1, uses_anonymous_args = 0
 2518 0000 80B5     		push	{r7, lr}
 2519              		.cfi_def_cfa_offset 8
 2520              		.cfi_offset 7, -8
 2521              		.cfi_offset 14, -4
 2522 0002 86B0     		sub	sp, sp, #24
 2523              		.cfi_def_cfa_offset 32
 2524 0004 00AF     		add	r7, sp, #0
 2525              		.cfi_def_cfa_register 7
 2526 0006 F860     		str	r0, [r7, #12]
 2527 0008 B960     		str	r1, [r7, #8]
 2528 000a 7A60     		str	r2, [r7, #4]
 2529 000c 3B60     		str	r3, [r7]
 2530              		.loc 5 838 0
 2531 000e 7B68     		ldr	r3, [r7, #4]
 2532 0010 03F00303 		and	r3, r3, #3
 2533 0014 002B     		cmp	r3, #0
 2534 0016 28D0     		beq	.L140
 2535              	.LBB12:
 2536              		.loc 5 840 0
 2537 0018 0023     		movs	r3, #0
 2538 001a 7B61     		str	r3, [r7, #20]
 2539 001c 1FE0     		b	.L141
 2540              	.L144:
 2541              		.loc 5 841 0
 2542 001e 184A     		ldr	r2, .L145
 2543 0020 7B68     		ldr	r3, [r7, #4]
 2544 0022 1146     		mov	r1, r2
 2545 0024 1A46     		mov	r2, r3
 2546 0026 4FF40073 		mov	r3, #512
 2547 002a 0846     		mov	r0, r1
 2548 002c 1146     		mov	r1, r2
 2549 002e 1A46     		mov	r2, r3
 2550 0030 FFF7FEFF 		bl	memcpy
 2551              		.loc 5 842 0
 2552 0034 7B68     		ldr	r3, [r7, #4]
 2553 0036 03F50073 		add	r3, r3, #512
 2554 003a 7B60     		str	r3, [r7, #4]
 2555              		.loc 5 843 0
 2556 003c F868     		ldr	r0, [r7, #12]
 2557 003e B968     		ldr	r1, [r7, #8]
 2558 0040 0F4A     		ldr	r2, .L145
 2559 0042 0123     		movs	r3, #1
 2560 0044 FFF7FEFF 		bl	sdc_lld_write_aligned
 2561 0048 0346     		mov	r3, r0
 2562 004a 002B     		cmp	r3, #0
 2563 004c 01D0     		beq	.L142
 2564              		.loc 5 844 0
ARM GAS  C:\Users\Luis\AppData\Local\Temp\ccMHTq6a.s 			page 47


 2565 004e 0123     		movs	r3, #1
 2566 0050 12E0     		b	.L143
 2567              	.L142:
 2568              		.loc 5 845 0
 2569 0052 BB68     		ldr	r3, [r7, #8]
 2570 0054 0133     		adds	r3, r3, #1
 2571 0056 BB60     		str	r3, [r7, #8]
 2572              		.loc 5 840 0
 2573 0058 7B69     		ldr	r3, [r7, #20]
 2574 005a 0133     		adds	r3, r3, #1
 2575 005c 7B61     		str	r3, [r7, #20]
 2576              	.L141:
 2577              		.loc 5 840 0 is_stmt 0 discriminator 1
 2578 005e 7A69     		ldr	r2, [r7, #20]
 2579 0060 3B68     		ldr	r3, [r7]
 2580 0062 9A42     		cmp	r2, r3
 2581 0064 DBD3     		bcc	.L144
 2582              		.loc 5 847 0 is_stmt 1
 2583 0066 0023     		movs	r3, #0
 2584 0068 06E0     		b	.L143
 2585              	.L140:
 2586              	.LBE12:
 2587              		.loc 5 850 0
 2588 006a F868     		ldr	r0, [r7, #12]
 2589 006c B968     		ldr	r1, [r7, #8]
 2590 006e 7A68     		ldr	r2, [r7, #4]
 2591 0070 3B68     		ldr	r3, [r7]
 2592 0072 FFF7FEFF 		bl	sdc_lld_write_aligned
 2593 0076 0346     		mov	r3, r0
 2594              	.L143:
 2595              		.loc 5 851 0
 2596 0078 1846     		mov	r0, r3
 2597 007a 1837     		adds	r7, r7, #24
 2598 007c BD46     		mov	sp, r7
 2599              		@ sp needed
 2600 007e 80BD     		pop	{r7, pc}
 2601              	.L146:
 2602              		.align	2
 2603              	.L145:
 2604 0080 00000000 		.word	u
 2605              		.cfi_endproc
 2606              	.LFE282:
 2607              		.size	sdc_lld_write, .-sdc_lld_write
 2608 0084 AFF30080 		.section	.text.sdc_lld_sync,"ax",%progbits
 2608      AFF30080 
 2608      AFF30080 
 2609              		.align	2
 2610              		.p2align 4,,15
 2611              		.global	sdc_lld_sync
 2612              		.thumb
 2613              		.thumb_func
 2614              		.type	sdc_lld_sync, %function
 2615              	sdc_lld_sync:
 2616              	.LFB283:
 2617              		.loc 5 864 0
 2618              		.cfi_startproc
 2619              		@ args = 0, pretend = 0, frame = 8
ARM GAS  C:\Users\Luis\AppData\Local\Temp\ccMHTq6a.s 			page 48


 2620              		@ frame_needed = 1, uses_anonymous_args = 0
 2621              		@ link register save eliminated.
 2622 0000 80B4     		push	{r7}
 2623              		.cfi_def_cfa_offset 4
 2624              		.cfi_offset 7, -4
 2625 0002 83B0     		sub	sp, sp, #12
 2626              		.cfi_def_cfa_offset 16
 2627 0004 00AF     		add	r7, sp, #0
 2628              		.cfi_def_cfa_register 7
 2629 0006 7860     		str	r0, [r7, #4]
 2630              		.loc 5 868 0
 2631 0008 0023     		movs	r3, #0
 2632              		.loc 5 869 0
 2633 000a 1846     		mov	r0, r3
 2634 000c 0C37     		adds	r7, r7, #12
 2635 000e BD46     		mov	sp, r7
 2636              		@ sp needed
 2637 0010 5DF8047B 		ldr	r7, [sp], #4
 2638 0014 7047     		bx	lr
 2639              		.cfi_endproc
 2640              	.LFE283:
 2641              		.size	sdc_lld_sync, .-sdc_lld_sync
 2642 0016 00BFAFF3 		.section	.rodata.__func__.8258,"a",%progbits
 2642      0080AFF3 
 2642      0080
 2643              		.align	2
 2644              		.type	__func__.8258, %object
 2645              		.size	__func__.8258, 27
 2646              	__func__.8258:
 2647 0000 7364635F 		.ascii	"sdc_lld_prepare_read_bytes\000"
 2647      6C6C645F 
 2647      70726570 
 2647      6172655F 
 2647      72656164 
 2648 001b 00       		.section	.rodata.__func__.6186,"a",%progbits
 2649              		.align	2
 2650              		.type	__func__.6186, %object
 2651              		.size	__func__.6186, 12
 2652              	__func__.6186:
 2653 0000 63685379 		.ascii	"chSysUnlock\000"
 2653      73556E6C 
 2653      6F636B00 
 2654              		.section	.rodata.__func__.8303,"a",%progbits
 2655              		.align	2
 2656              		.type	__func__.8303, %object
 2657              		.size	__func__.8303, 14
 2658              	__func__.8303:
 2659 0000 7364635F 		.ascii	"sdc_lld_start\000"
 2659      6C6C645F 
 2659      73746172 
 2659      7400
 2660 000e 0000     		.section	.rodata.__func__.8380,"a",%progbits
 2661              		.align	2
 2662              		.type	__func__.8380, %object
 2663              		.size	__func__.8380, 21
 2664              	__func__.8380:
 2665 0000 7364635F 		.ascii	"sdc_lld_read_aligned\000"
ARM GAS  C:\Users\Luis\AppData\Local\Temp\ccMHTq6a.s 			page 49


 2665      6C6C645F 
 2665      72656164 
 2665      5F616C69 
 2665      676E6564 
 2666 0015 000000   		.section	.rodata.__func__.8389,"a",%progbits
 2667              		.align	2
 2668              		.type	__func__.8389, %object
 2669              		.size	__func__.8389, 22
 2670              	__func__.8389:
 2671 0000 7364635F 		.ascii	"sdc_lld_write_aligned\000"
 2671      6C6C645F 
 2671      77726974 
 2671      655F616C 
 2671      69676E65 
 2672 0016 0000     		.text
 2673              	.Letext0:
 2674              		.file 6 "c:\\emtechesdk\\gcc\\lib\\gcc\\arm-none-eabi\\4.8.3\\include\\stddef.h"
 2675              		.file 7 "c:\\emtechesdk\\gcc\\arm-none-eabi\\include\\stdint.h"
 2676              		.file 8 "../../ChibiOS/os/rt/ports/ARMCMx/compilers/GCC/chtypes.h"
 2677              		.file 9 "../../ChibiOS/os/rt/include/chsystypes.h"
 2678              		.file 10 "../../ChibiOS/os/rt/include/chschd.h"
 2679              		.file 11 "../../ChibiOS/os/ext/CMSIS/ST/stm32f407xx.h"
 2680              		.file 12 "../../ChibiOS/os/rt/ports/ARMCMx/chcore.h"
 2681              		.file 13 "../../ChibiOS/os/rt/include/chdebug.h"
 2682              		.file 14 "../../ChibiOS/os/rt/include/chtm.h"
 2683              		.file 15 "../../ChibiOS/os/rt/include/chstats.h"
 2684              		.file 16 "../../ChibiOS/os/rt/include/chsem.h"
 2685              		.file 17 "../../ChibiOS/os/rt/include/chmtx.h"
 2686              		.file 18 "../../ChibiOS/os/hal/ports/STM32/STM32F4xx/stm32_dma.h"
 2687              		.file 19 "../../ChibiOS/os/hal/include/hal_ioblock.h"
 2688              		.file 20 "../../ChibiOS/os/hal/include/sdc.h"
 2689              		.file 21 "../../ChibiOS/os/hal/ports/STM32/LLD/sdc_lld.h"
 2690              		.file 22 "../../ChibiOS/os/ext/CMSIS/include/core_cm4.h"