ARM GAS  C:\Users\Luis\AppData\Local\Temp\ccEujqcQ.s 			page 1


   1              		.syntax unified
   2              		.cpu cortex-m4
   3              		.fpu softvfp
   4              		.eabi_attribute 20, 1
   5              		.eabi_attribute 21, 1
   6              		.eabi_attribute 23, 3
   7              		.eabi_attribute 24, 1
   8              		.eabi_attribute 25, 1
   9              		.eabi_attribute 26, 1
  10              		.eabi_attribute 30, 6
  11              		.eabi_attribute 34, 1
  12              		.eabi_attribute 18, 4
  13              		.thumb
  14              		.file	"serial.c"
  15              		.text
  16              	.Ltext0:
  17              		.cfi_sections	.debug_frame
  18              		.section	.text.port_lock,"ax",%progbits
  19              		.align	2
  20              		.p2align 4,,15
  21              		.thumb
  22              		.thumb_func
  23              		.type	port_lock, %function
  24              	port_lock:
  25              	.LFB116:
  26              		.file 1 "../../ChibiOS/os/rt/ports/ARMCMx/chcore_v7m.h"
  27              		.loc 1 444 0
  28              		.cfi_startproc
  29              		@ args = 0, pretend = 0, frame = 8
  30              		@ frame_needed = 1, uses_anonymous_args = 0
  31              		@ link register save eliminated.
  32 0000 80B4     		push	{r7}
  33              		.cfi_def_cfa_offset 4
  34              		.cfi_offset 7, -4
  35 0002 83B0     		sub	sp, sp, #12
  36              		.cfi_def_cfa_offset 16
  37 0004 00AF     		add	r7, sp, #0
  38              		.cfi_def_cfa_register 7
  39 0006 2023     		movs	r3, #32
  40 0008 7B60     		str	r3, [r7, #4]
  41              	.LBB6:
  42              	.LBB7:
  43              		.file 2 "../../ChibiOS/os/ext/CMSIS/include/core_cmFunc.h"
  44              		.loc 2 546 0
  45 000a 7B68     		ldr	r3, [r7, #4]
  46              	@ 546 "../../ChibiOS/os/ext/CMSIS/include/core_cmFunc.h" 1
  47 000c 83F31188 		MSR basepri, r3
  48              	@ 0 "" 2
  49              		.thumb
  50              	.LBE7:
  51              	.LBE6:
  52              		.loc 1 451 0
  53 0010 0C37     		adds	r7, r7, #12
  54 0012 BD46     		mov	sp, r7
  55              		@ sp needed
  56 0014 5DF8047B 		ldr	r7, [sp], #4
  57 0018 7047     		bx	lr
ARM GAS  C:\Users\Luis\AppData\Local\Temp\ccEujqcQ.s 			page 2


  58              		.cfi_endproc
  59              	.LFE116:
  60              		.size	port_lock, .-port_lock
  61 001a 00BFAFF3 		.section	.text.port_unlock,"ax",%progbits
  61      0080
  62              		.align	2
  63              		.p2align 4,,15
  64              		.thumb
  65              		.thumb_func
  66              		.type	port_unlock, %function
  67              	port_unlock:
  68              	.LFB117:
  69              		.loc 1 458 0
  70              		.cfi_startproc
  71              		@ args = 0, pretend = 0, frame = 8
  72              		@ frame_needed = 1, uses_anonymous_args = 0
  73              		@ link register save eliminated.
  74 0000 80B4     		push	{r7}
  75              		.cfi_def_cfa_offset 4
  76              		.cfi_offset 7, -4
  77 0002 83B0     		sub	sp, sp, #12
  78              		.cfi_def_cfa_offset 16
  79 0004 00AF     		add	r7, sp, #0
  80              		.cfi_def_cfa_register 7
  81 0006 0023     		movs	r3, #0
  82 0008 7B60     		str	r3, [r7, #4]
  83              	.LBB8:
  84              	.LBB9:
  85              		.loc 2 546 0
  86 000a 7B68     		ldr	r3, [r7, #4]
  87              	@ 546 "../../ChibiOS/os/ext/CMSIS/include/core_cmFunc.h" 1
  88 000c 83F31188 		MSR basepri, r3
  89              	@ 0 "" 2
  90              		.thumb
  91              	.LBE9:
  92              	.LBE8:
  93              		.loc 1 465 0
  94 0010 0C37     		adds	r7, r7, #12
  95 0012 BD46     		mov	sp, r7
  96              		@ sp needed
  97 0014 5DF8047B 		ldr	r7, [sp], #4
  98 0018 7047     		bx	lr
  99              		.cfi_endproc
 100              	.LFE117:
 101              		.size	port_unlock, .-port_unlock
 102 001a 00BFAFF3 		.section	.text.chSysLock,"ax",%progbits
 102      0080
 103              		.align	2
 104              		.p2align 4,,15
 105              		.thumb
 106              		.thumb_func
 107              		.type	chSysLock, %function
 108              	chSysLock:
 109              	.LFB156:
 110              		.file 3 "../../ChibiOS/os/rt/include/chsys.h"
 111              		.loc 3 346 0
 112              		.cfi_startproc
ARM GAS  C:\Users\Luis\AppData\Local\Temp\ccEujqcQ.s 			page 3


 113              		@ args = 0, pretend = 0, frame = 0
 114              		@ frame_needed = 1, uses_anonymous_args = 0
 115 0000 80B5     		push	{r7, lr}
 116              		.cfi_def_cfa_offset 8
 117              		.cfi_offset 7, -8
 118              		.cfi_offset 14, -4
 119 0002 00AF     		add	r7, sp, #0
 120              		.cfi_def_cfa_register 7
 121              		.loc 3 348 0
 122 0004 FFF7FEFF 		bl	port_lock
 123              		.loc 3 349 0
 124 0008 FFF7FEFF 		bl	_stats_start_measure_crit_thd
 125              		.loc 3 350 0
 126 000c FFF7FEFF 		bl	_dbg_check_lock
 127              		.loc 3 351 0
 128 0010 80BD     		pop	{r7, pc}
 129              		.cfi_endproc
 130              	.LFE156:
 131              		.size	chSysLock, .-chSysLock
 132 0012 00BFAFF3 		.section	.text.chSysUnlock,"ax",%progbits
 132      0080AFF3 
 132      0080AFF3 
 132      0080
 133              		.align	2
 134              		.p2align 4,,15
 135              		.thumb
 136              		.thumb_func
 137              		.type	chSysUnlock, %function
 138              	chSysUnlock:
 139              	.LFB157:
 140              		.loc 3 358 0
 141              		.cfi_startproc
 142              		@ args = 0, pretend = 0, frame = 0
 143              		@ frame_needed = 1, uses_anonymous_args = 0
 144 0000 80B5     		push	{r7, lr}
 145              		.cfi_def_cfa_offset 8
 146              		.cfi_offset 7, -8
 147              		.cfi_offset 14, -4
 148 0002 00AF     		add	r7, sp, #0
 149              		.cfi_def_cfa_register 7
 150              		.loc 3 360 0
 151 0004 FFF7FEFF 		bl	_dbg_check_unlock
 152              		.loc 3 361 0
 153 0008 FFF7FEFF 		bl	_stats_stop_measure_crit_thd
 154              		.loc 3 367 0
 155 000c 094B     		ldr	r3, .L6
 156 000e 1A68     		ldr	r2, [r3]
 157 0010 084B     		ldr	r3, .L6
 158 0012 9A42     		cmp	r2, r3
 159 0014 0AD0     		beq	.L5
 160              		.loc 3 367 0 is_stmt 0 discriminator 1
 161 0016 074B     		ldr	r3, .L6
 162 0018 9B69     		ldr	r3, [r3, #24]
 163 001a 9A68     		ldr	r2, [r3, #8]
 164 001c 054B     		ldr	r3, .L6
 165 001e 1B68     		ldr	r3, [r3]
 166 0020 9B68     		ldr	r3, [r3, #8]
ARM GAS  C:\Users\Luis\AppData\Local\Temp\ccEujqcQ.s 			page 4


 167 0022 9A42     		cmp	r2, r3
 168 0024 02D2     		bcs	.L5
 169 0026 0448     		ldr	r0, .L6+4
 170 0028 FFF7FEFF 		bl	chSysHalt
 171              	.L5:
 172              		.loc 3 371 0 is_stmt 1
 173 002c FFF7FEFF 		bl	port_unlock
 174              		.loc 3 372 0
 175 0030 80BD     		pop	{r7, pc}
 176              	.L7:
 177 0032 00BF     		.align	2
 178              	.L6:
 179 0034 00000000 		.word	ch
 180 0038 00000000 		.word	__func__.5842
 181              		.cfi_endproc
 182              	.LFE157:
 183              		.size	chSysUnlock, .-chSysUnlock
 184 003c AFF30080 		.section	.text.chEvtObjectInit,"ax",%progbits
 185              		.align	2
 186              		.p2align 4,,15
 187              		.thumb
 188              		.thumb_func
 189              		.type	chEvtObjectInit, %function
 190              	chEvtObjectInit:
 191              	.LFB204:
 192              		.file 4 "../../ChibiOS/os/rt/include/chevents.h"
 193              		.loc 4 170 0
 194              		.cfi_startproc
 195              		@ args = 0, pretend = 0, frame = 8
 196              		@ frame_needed = 1, uses_anonymous_args = 0
 197              		@ link register save eliminated.
 198 0000 80B4     		push	{r7}
 199              		.cfi_def_cfa_offset 4
 200              		.cfi_offset 7, -4
 201 0002 83B0     		sub	sp, sp, #12
 202              		.cfi_def_cfa_offset 16
 203 0004 00AF     		add	r7, sp, #0
 204              		.cfi_def_cfa_register 7
 205 0006 7860     		str	r0, [r7, #4]
 206              		.loc 4 172 0
 207 0008 7B68     		ldr	r3, [r7, #4]
 208 000a 7A68     		ldr	r2, [r7, #4]
 209 000c 1A60     		str	r2, [r3]
 210              		.loc 4 173 0
 211 000e 0C37     		adds	r7, r7, #12
 212 0010 BD46     		mov	sp, r7
 213              		@ sp needed
 214 0012 5DF8047B 		ldr	r7, [sp], #4
 215 0016 7047     		bx	lr
 216              		.cfi_endproc
 217              	.LFE204:
 218              		.size	chEvtObjectInit, .-chEvtObjectInit
 219 0018 AFF30080 		.section	.text.chIQIsEmptyI,"ax",%progbits
 219      AFF30080 
 220              		.align	2
 221              		.p2align 4,,15
 222              		.thumb
ARM GAS  C:\Users\Luis\AppData\Local\Temp\ccEujqcQ.s 			page 5


 223              		.thumb_func
 224              		.type	chIQIsEmptyI, %function
 225              	chIQIsEmptyI:
 226              	.LFB221:
 227              		.file 5 "../../ChibiOS/os/rt/include/chqueues.h"
 228              		.loc 5 303 0
 229              		.cfi_startproc
 230              		@ args = 0, pretend = 0, frame = 8
 231              		@ frame_needed = 1, uses_anonymous_args = 0
 232 0000 80B5     		push	{r7, lr}
 233              		.cfi_def_cfa_offset 8
 234              		.cfi_offset 7, -8
 235              		.cfi_offset 14, -4
 236 0002 82B0     		sub	sp, sp, #8
 237              		.cfi_def_cfa_offset 16
 238 0004 00AF     		add	r7, sp, #0
 239              		.cfi_def_cfa_register 7
 240 0006 7860     		str	r0, [r7, #4]
 241              		.loc 5 305 0
 242 0008 FFF7FEFF 		bl	chDbgCheckClassI
 243              		.loc 5 307 0
 244 000c 7B68     		ldr	r3, [r7, #4]
 245 000e 9B68     		ldr	r3, [r3, #8]
 246 0010 002B     		cmp	r3, #0
 247 0012 14BF     		ite	ne
 248 0014 0023     		movne	r3, #0
 249 0016 0123     		moveq	r3, #1
 250 0018 DBB2     		uxtb	r3, r3
 251              		.loc 5 308 0
 252 001a 1846     		mov	r0, r3
 253 001c 0837     		adds	r7, r7, #8
 254 001e BD46     		mov	sp, r7
 255              		@ sp needed
 256 0020 80BD     		pop	{r7, pc}
 257              		.cfi_endproc
 258              	.LFE221:
 259              		.size	chIQIsEmptyI, .-chIQIsEmptyI
 260 0022 00BFAFF3 		.section	.text.osalSysLock,"ax",%progbits
 260      0080AFF3 
 260      0080AFF3 
 260      0080
 261              		.align	2
 262              		.p2align 4,,15
 263              		.thumb
 264              		.thumb_func
 265              		.type	osalSysLock, %function
 266              	osalSysLock:
 267              	.LFB233:
 268              		.file 6 "../../ChibiOS/os/hal/osal/rt/osal.h"
 269              		.loc 6 491 0
 270              		.cfi_startproc
 271              		@ args = 0, pretend = 0, frame = 0
 272              		@ frame_needed = 1, uses_anonymous_args = 0
 273 0000 80B5     		push	{r7, lr}
 274              		.cfi_def_cfa_offset 8
 275              		.cfi_offset 7, -8
 276              		.cfi_offset 14, -4
ARM GAS  C:\Users\Luis\AppData\Local\Temp\ccEujqcQ.s 			page 6


 277 0002 00AF     		add	r7, sp, #0
 278              		.cfi_def_cfa_register 7
 279              		.loc 6 493 0
 280 0004 FFF7FEFF 		bl	chSysLock
 281              		.loc 6 494 0
 282 0008 80BD     		pop	{r7, pc}
 283              		.cfi_endproc
 284              	.LFE233:
 285              		.size	osalSysLock, .-osalSysLock
 286 000a 00BFAFF3 		.section	.text.osalSysUnlock,"ax",%progbits
 286      0080
 287              		.align	2
 288              		.p2align 4,,15
 289              		.thumb
 290              		.thumb_func
 291              		.type	osalSysUnlock, %function
 292              	osalSysUnlock:
 293              	.LFB234:
 294              		.loc 6 502 0
 295              		.cfi_startproc
 296              		@ args = 0, pretend = 0, frame = 0
 297              		@ frame_needed = 1, uses_anonymous_args = 0
 298 0000 80B5     		push	{r7, lr}
 299              		.cfi_def_cfa_offset 8
 300              		.cfi_offset 7, -8
 301              		.cfi_offset 14, -4
 302 0002 00AF     		add	r7, sp, #0
 303              		.cfi_def_cfa_register 7
 304              		.loc 6 504 0
 305 0004 FFF7FEFF 		bl	chSysUnlock
 306              		.loc 6 505 0
 307 0008 80BD     		pop	{r7, pc}
 308              		.cfi_endproc
 309              	.LFE234:
 310              		.size	osalSysUnlock, .-osalSysUnlock
 311 000a 00BFAFF3 		.section	.text.osalOsRescheduleS,"ax",%progbits
 311      0080
 312              		.align	2
 313              		.p2align 4,,15
 314              		.thumb
 315              		.thumb_func
 316              		.type	osalOsRescheduleS, %function
 317              	osalOsRescheduleS:
 318              	.LFB241:
 319              		.loc 6 598 0
 320              		.cfi_startproc
 321              		@ args = 0, pretend = 0, frame = 0
 322              		@ frame_needed = 1, uses_anonymous_args = 0
 323 0000 80B5     		push	{r7, lr}
 324              		.cfi_def_cfa_offset 8
 325              		.cfi_offset 7, -8
 326              		.cfi_offset 14, -4
 327 0002 00AF     		add	r7, sp, #0
 328              		.cfi_def_cfa_register 7
 329              		.loc 6 600 0
 330 0004 FFF7FEFF 		bl	chSchRescheduleS
 331              		.loc 6 601 0
ARM GAS  C:\Users\Luis\AppData\Local\Temp\ccEujqcQ.s 			page 7


 332 0008 80BD     		pop	{r7, pc}
 333              		.cfi_endproc
 334              	.LFE241:
 335              		.size	osalOsRescheduleS, .-osalOsRescheduleS
 336 000a 00BFAFF3 		.section	.text.osalEventObjectInit,"ax",%progbits
 336      0080
 337              		.align	2
 338              		.p2align 4,,15
 339              		.thumb
 340              		.thumb_func
 341              		.type	osalEventObjectInit, %function
 342              	osalEventObjectInit:
 343              	.LFB254:
 344              		.loc 6 821 0
 345              		.cfi_startproc
 346              		@ args = 0, pretend = 0, frame = 8
 347              		@ frame_needed = 1, uses_anonymous_args = 0
 348 0000 80B5     		push	{r7, lr}
 349              		.cfi_def_cfa_offset 8
 350              		.cfi_offset 7, -8
 351              		.cfi_offset 14, -4
 352 0002 82B0     		sub	sp, sp, #8
 353              		.cfi_def_cfa_offset 16
 354 0004 00AF     		add	r7, sp, #0
 355              		.cfi_def_cfa_register 7
 356 0006 7860     		str	r0, [r7, #4]
 357              		.loc 6 823 0
 358 0008 7868     		ldr	r0, [r7, #4]
 359 000a FFF7FEFF 		bl	chEvtObjectInit
 360              		.loc 6 824 0
 361 000e 0837     		adds	r7, r7, #8
 362 0010 BD46     		mov	sp, r7
 363              		@ sp needed
 364 0012 80BD     		pop	{r7, pc}
 365              		.cfi_endproc
 366              	.LFE254:
 367              		.size	osalEventObjectInit, .-osalEventObjectInit
 368 0014 AFF30080 		.section	.text.osalEventBroadcastFlagsI,"ax",%progbits
 368      AFF30080 
 368      AFF30080 
 369              		.align	2
 370              		.p2align 4,,15
 371              		.thumb
 372              		.thumb_func
 373              		.type	osalEventBroadcastFlagsI, %function
 374              	osalEventBroadcastFlagsI:
 375              	.LFB255:
 376              		.loc 6 842 0
 377              		.cfi_startproc
 378              		@ args = 0, pretend = 0, frame = 8
 379              		@ frame_needed = 1, uses_anonymous_args = 0
 380 0000 80B5     		push	{r7, lr}
 381              		.cfi_def_cfa_offset 8
 382              		.cfi_offset 7, -8
 383              		.cfi_offset 14, -4
 384 0002 82B0     		sub	sp, sp, #8
 385              		.cfi_def_cfa_offset 16
ARM GAS  C:\Users\Luis\AppData\Local\Temp\ccEujqcQ.s 			page 8


 386 0004 00AF     		add	r7, sp, #0
 387              		.cfi_def_cfa_register 7
 388 0006 7860     		str	r0, [r7, #4]
 389 0008 3960     		str	r1, [r7]
 390              		.loc 6 844 0
 391 000a 7868     		ldr	r0, [r7, #4]
 392 000c 3968     		ldr	r1, [r7]
 393 000e FFF7FEFF 		bl	chEvtBroadcastFlagsI
 394              		.loc 6 845 0
 395 0012 0837     		adds	r7, r7, #8
 396 0014 BD46     		mov	sp, r7
 397              		@ sp needed
 398 0016 80BD     		pop	{r7, pc}
 399              		.cfi_endproc
 400              	.LFE255:
 401              		.size	osalEventBroadcastFlagsI, .-osalEventBroadcastFlagsI
 402 0018 AFF30080 		.section	.text.write,"ax",%progbits
 402      AFF30080 
 403              		.align	2
 404              		.p2align 4,,15
 405              		.thumb
 406              		.thumb_func
 407              		.type	write, %function
 408              	write:
 409              	.LFB260:
 410              		.file 7 "../../ChibiOS/os/hal/src/serial.c"
 411              		.loc 7 50 0
 412              		.cfi_startproc
 413              		@ args = 0, pretend = 0, frame = 16
 414              		@ frame_needed = 1, uses_anonymous_args = 0
 415 0000 80B5     		push	{r7, lr}
 416              		.cfi_def_cfa_offset 8
 417              		.cfi_offset 7, -8
 418              		.cfi_offset 14, -4
 419 0002 84B0     		sub	sp, sp, #16
 420              		.cfi_def_cfa_offset 24
 421 0004 00AF     		add	r7, sp, #0
 422              		.cfi_def_cfa_register 7
 423 0006 F860     		str	r0, [r7, #12]
 424 0008 B960     		str	r1, [r7, #8]
 425 000a 7A60     		str	r2, [r7, #4]
 426              		.loc 7 52 0
 427 000c FB68     		ldr	r3, [r7, #12]
 428 000e 3033     		adds	r3, r3, #48
 429 0010 1846     		mov	r0, r3
 430 0012 B968     		ldr	r1, [r7, #8]
 431 0014 7A68     		ldr	r2, [r7, #4]
 432 0016 4FF0FF33 		mov	r3, #-1
 433 001a FFF7FEFF 		bl	chOQWriteTimeout
 434 001e 0346     		mov	r3, r0
 435              		.loc 7 54 0
 436 0020 1846     		mov	r0, r3
 437 0022 1037     		adds	r7, r7, #16
 438 0024 BD46     		mov	sp, r7
 439              		@ sp needed
 440 0026 80BD     		pop	{r7, pc}
 441              		.cfi_endproc
ARM GAS  C:\Users\Luis\AppData\Local\Temp\ccEujqcQ.s 			page 9


 442              	.LFE260:
 443              		.size	write, .-write
 444 0028 AFF30080 		.section	.text.read,"ax",%progbits
 444      AFF30080 
 445              		.align	2
 446              		.p2align 4,,15
 447              		.thumb
 448              		.thumb_func
 449              		.type	read, %function
 450              	read:
 451              	.LFB261:
 452              		.loc 7 56 0
 453              		.cfi_startproc
 454              		@ args = 0, pretend = 0, frame = 16
 455              		@ frame_needed = 1, uses_anonymous_args = 0
 456 0000 80B5     		push	{r7, lr}
 457              		.cfi_def_cfa_offset 8
 458              		.cfi_offset 7, -8
 459              		.cfi_offset 14, -4
 460 0002 84B0     		sub	sp, sp, #16
 461              		.cfi_def_cfa_offset 24
 462 0004 00AF     		add	r7, sp, #0
 463              		.cfi_def_cfa_register 7
 464 0006 F860     		str	r0, [r7, #12]
 465 0008 B960     		str	r1, [r7, #8]
 466 000a 7A60     		str	r2, [r7, #4]
 467              		.loc 7 58 0
 468 000c FB68     		ldr	r3, [r7, #12]
 469 000e 0C33     		adds	r3, r3, #12
 470 0010 1846     		mov	r0, r3
 471 0012 B968     		ldr	r1, [r7, #8]
 472 0014 7A68     		ldr	r2, [r7, #4]
 473 0016 4FF0FF33 		mov	r3, #-1
 474 001a FFF7FEFF 		bl	chIQReadTimeout
 475 001e 0346     		mov	r3, r0
 476              		.loc 7 60 0
 477 0020 1846     		mov	r0, r3
 478 0022 1037     		adds	r7, r7, #16
 479 0024 BD46     		mov	sp, r7
 480              		@ sp needed
 481 0026 80BD     		pop	{r7, pc}
 482              		.cfi_endproc
 483              	.LFE261:
 484              		.size	read, .-read
 485 0028 AFF30080 		.section	.text.put,"ax",%progbits
 485      AFF30080 
 486              		.align	2
 487              		.p2align 4,,15
 488              		.thumb
 489              		.thumb_func
 490              		.type	put, %function
 491              	put:
 492              	.LFB262:
 493              		.loc 7 62 0
 494              		.cfi_startproc
 495              		@ args = 0, pretend = 0, frame = 8
 496              		@ frame_needed = 1, uses_anonymous_args = 0
ARM GAS  C:\Users\Luis\AppData\Local\Temp\ccEujqcQ.s 			page 10


 497 0000 80B5     		push	{r7, lr}
 498              		.cfi_def_cfa_offset 8
 499              		.cfi_offset 7, -8
 500              		.cfi_offset 14, -4
 501 0002 82B0     		sub	sp, sp, #8
 502              		.cfi_def_cfa_offset 16
 503 0004 00AF     		add	r7, sp, #0
 504              		.cfi_def_cfa_register 7
 505 0006 7860     		str	r0, [r7, #4]
 506 0008 0B46     		mov	r3, r1
 507 000a FB70     		strb	r3, [r7, #3]
 508              		.loc 7 64 0
 509 000c 7B68     		ldr	r3, [r7, #4]
 510 000e 03F13002 		add	r2, r3, #48
 511 0012 FB78     		ldrb	r3, [r7, #3]	@ zero_extendqisi2
 512 0014 1046     		mov	r0, r2
 513 0016 1946     		mov	r1, r3
 514 0018 4FF0FF32 		mov	r2, #-1
 515 001c FFF7FEFF 		bl	chOQPutTimeout
 516 0020 0346     		mov	r3, r0
 517              		.loc 7 65 0
 518 0022 1846     		mov	r0, r3
 519 0024 0837     		adds	r7, r7, #8
 520 0026 BD46     		mov	sp, r7
 521              		@ sp needed
 522 0028 80BD     		pop	{r7, pc}
 523              		.cfi_endproc
 524              	.LFE262:
 525              		.size	put, .-put
 526 002a 00BFAFF3 		.section	.text.get,"ax",%progbits
 526      0080
 527              		.align	2
 528              		.p2align 4,,15
 529              		.thumb
 530              		.thumb_func
 531              		.type	get, %function
 532              	get:
 533              	.LFB263:
 534              		.loc 7 67 0
 535              		.cfi_startproc
 536              		@ args = 0, pretend = 0, frame = 8
 537              		@ frame_needed = 1, uses_anonymous_args = 0
 538 0000 80B5     		push	{r7, lr}
 539              		.cfi_def_cfa_offset 8
 540              		.cfi_offset 7, -8
 541              		.cfi_offset 14, -4
 542 0002 82B0     		sub	sp, sp, #8
 543              		.cfi_def_cfa_offset 16
 544 0004 00AF     		add	r7, sp, #0
 545              		.cfi_def_cfa_register 7
 546 0006 7860     		str	r0, [r7, #4]
 547              		.loc 7 69 0
 548 0008 7B68     		ldr	r3, [r7, #4]
 549 000a 0C33     		adds	r3, r3, #12
 550 000c 1846     		mov	r0, r3
 551 000e 4FF0FF31 		mov	r1, #-1
 552 0012 FFF7FEFF 		bl	chIQGetTimeout
ARM GAS  C:\Users\Luis\AppData\Local\Temp\ccEujqcQ.s 			page 11


 553 0016 0346     		mov	r3, r0
 554              		.loc 7 70 0
 555 0018 1846     		mov	r0, r3
 556 001a 0837     		adds	r7, r7, #8
 557 001c BD46     		mov	sp, r7
 558              		@ sp needed
 559 001e 80BD     		pop	{r7, pc}
 560              		.cfi_endproc
 561              	.LFE263:
 562              		.size	get, .-get
 563              		.section	.text.putt,"ax",%progbits
 564              		.align	2
 565              		.p2align 4,,15
 566              		.thumb
 567              		.thumb_func
 568              		.type	putt, %function
 569              	putt:
 570              	.LFB264:
 571              		.loc 7 72 0
 572              		.cfi_startproc
 573              		@ args = 0, pretend = 0, frame = 16
 574              		@ frame_needed = 1, uses_anonymous_args = 0
 575 0000 80B5     		push	{r7, lr}
 576              		.cfi_def_cfa_offset 8
 577              		.cfi_offset 7, -8
 578              		.cfi_offset 14, -4
 579 0002 84B0     		sub	sp, sp, #16
 580              		.cfi_def_cfa_offset 24
 581 0004 00AF     		add	r7, sp, #0
 582              		.cfi_def_cfa_register 7
 583 0006 F860     		str	r0, [r7, #12]
 584 0008 0B46     		mov	r3, r1
 585 000a 7A60     		str	r2, [r7, #4]
 586 000c FB72     		strb	r3, [r7, #11]
 587              		.loc 7 74 0
 588 000e FB68     		ldr	r3, [r7, #12]
 589 0010 03F13002 		add	r2, r3, #48
 590 0014 FB7A     		ldrb	r3, [r7, #11]	@ zero_extendqisi2
 591 0016 1046     		mov	r0, r2
 592 0018 1946     		mov	r1, r3
 593 001a 7A68     		ldr	r2, [r7, #4]
 594 001c FFF7FEFF 		bl	chOQPutTimeout
 595 0020 0346     		mov	r3, r0
 596              		.loc 7 75 0
 597 0022 1846     		mov	r0, r3
 598 0024 1037     		adds	r7, r7, #16
 599 0026 BD46     		mov	sp, r7
 600              		@ sp needed
 601 0028 80BD     		pop	{r7, pc}
 602              		.cfi_endproc
 603              	.LFE264:
 604              		.size	putt, .-putt
 605 002a 00BFAFF3 		.section	.text.gett,"ax",%progbits
 605      0080
 606              		.align	2
 607              		.p2align 4,,15
 608              		.thumb
ARM GAS  C:\Users\Luis\AppData\Local\Temp\ccEujqcQ.s 			page 12


 609              		.thumb_func
 610              		.type	gett, %function
 611              	gett:
 612              	.LFB265:
 613              		.loc 7 77 0
 614              		.cfi_startproc
 615              		@ args = 0, pretend = 0, frame = 8
 616              		@ frame_needed = 1, uses_anonymous_args = 0
 617 0000 80B5     		push	{r7, lr}
 618              		.cfi_def_cfa_offset 8
 619              		.cfi_offset 7, -8
 620              		.cfi_offset 14, -4
 621 0002 82B0     		sub	sp, sp, #8
 622              		.cfi_def_cfa_offset 16
 623 0004 00AF     		add	r7, sp, #0
 624              		.cfi_def_cfa_register 7
 625 0006 7860     		str	r0, [r7, #4]
 626 0008 3960     		str	r1, [r7]
 627              		.loc 7 79 0
 628 000a 7B68     		ldr	r3, [r7, #4]
 629 000c 0C33     		adds	r3, r3, #12
 630 000e 1846     		mov	r0, r3
 631 0010 3968     		ldr	r1, [r7]
 632 0012 FFF7FEFF 		bl	chIQGetTimeout
 633 0016 0346     		mov	r3, r0
 634              		.loc 7 80 0
 635 0018 1846     		mov	r0, r3
 636 001a 0837     		adds	r7, r7, #8
 637 001c BD46     		mov	sp, r7
 638              		@ sp needed
 639 001e 80BD     		pop	{r7, pc}
 640              		.cfi_endproc
 641              	.LFE265:
 642              		.size	gett, .-gett
 643              		.section	.text.writet,"ax",%progbits
 644              		.align	2
 645              		.p2align 4,,15
 646              		.thumb
 647              		.thumb_func
 648              		.type	writet, %function
 649              	writet:
 650              	.LFB266:
 651              		.loc 7 82 0
 652              		.cfi_startproc
 653              		@ args = 0, pretend = 0, frame = 16
 654              		@ frame_needed = 1, uses_anonymous_args = 0
 655 0000 80B5     		push	{r7, lr}
 656              		.cfi_def_cfa_offset 8
 657              		.cfi_offset 7, -8
 658              		.cfi_offset 14, -4
 659 0002 84B0     		sub	sp, sp, #16
 660              		.cfi_def_cfa_offset 24
 661 0004 00AF     		add	r7, sp, #0
 662              		.cfi_def_cfa_register 7
 663 0006 F860     		str	r0, [r7, #12]
 664 0008 B960     		str	r1, [r7, #8]
 665 000a 7A60     		str	r2, [r7, #4]
ARM GAS  C:\Users\Luis\AppData\Local\Temp\ccEujqcQ.s 			page 13


 666 000c 3B60     		str	r3, [r7]
 667              		.loc 7 84 0
 668 000e FB68     		ldr	r3, [r7, #12]
 669 0010 3033     		adds	r3, r3, #48
 670 0012 1846     		mov	r0, r3
 671 0014 B968     		ldr	r1, [r7, #8]
 672 0016 7A68     		ldr	r2, [r7, #4]
 673 0018 3B68     		ldr	r3, [r7]
 674 001a FFF7FEFF 		bl	chOQWriteTimeout
 675 001e 0346     		mov	r3, r0
 676              		.loc 7 85 0
 677 0020 1846     		mov	r0, r3
 678 0022 1037     		adds	r7, r7, #16
 679 0024 BD46     		mov	sp, r7
 680              		@ sp needed
 681 0026 80BD     		pop	{r7, pc}
 682              		.cfi_endproc
 683              	.LFE266:
 684              		.size	writet, .-writet
 685 0028 AFF30080 		.section	.text.readt,"ax",%progbits
 685      AFF30080 
 686              		.align	2
 687              		.p2align 4,,15
 688              		.thumb
 689              		.thumb_func
 690              		.type	readt, %function
 691              	readt:
 692              	.LFB267:
 693              		.loc 7 87 0
 694              		.cfi_startproc
 695              		@ args = 0, pretend = 0, frame = 16
 696              		@ frame_needed = 1, uses_anonymous_args = 0
 697 0000 80B5     		push	{r7, lr}
 698              		.cfi_def_cfa_offset 8
 699              		.cfi_offset 7, -8
 700              		.cfi_offset 14, -4
 701 0002 84B0     		sub	sp, sp, #16
 702              		.cfi_def_cfa_offset 24
 703 0004 00AF     		add	r7, sp, #0
 704              		.cfi_def_cfa_register 7
 705 0006 F860     		str	r0, [r7, #12]
 706 0008 B960     		str	r1, [r7, #8]
 707 000a 7A60     		str	r2, [r7, #4]
 708 000c 3B60     		str	r3, [r7]
 709              		.loc 7 89 0
 710 000e FB68     		ldr	r3, [r7, #12]
 711 0010 0C33     		adds	r3, r3, #12
 712 0012 1846     		mov	r0, r3
 713 0014 B968     		ldr	r1, [r7, #8]
 714 0016 7A68     		ldr	r2, [r7, #4]
 715 0018 3B68     		ldr	r3, [r7]
 716 001a FFF7FEFF 		bl	chIQReadTimeout
 717 001e 0346     		mov	r3, r0
 718              		.loc 7 90 0
 719 0020 1846     		mov	r0, r3
 720 0022 1037     		adds	r7, r7, #16
 721 0024 BD46     		mov	sp, r7
ARM GAS  C:\Users\Luis\AppData\Local\Temp\ccEujqcQ.s 			page 14


 722              		@ sp needed
 723 0026 80BD     		pop	{r7, pc}
 724              		.cfi_endproc
 725              	.LFE267:
 726              		.size	readt, .-readt
 727 0028 AFF30080 		.section	.rodata.vmt,"a",%progbits
 727      AFF30080 
 728              		.align	2
 729              		.type	vmt, %object
 730              		.size	vmt, 32
 731              	vmt:
 732 0000 00000000 		.word	write
 733 0004 00000000 		.word	read
 734 0008 00000000 		.word	put
 735 000c 00000000 		.word	get
 736 0010 00000000 		.word	putt
 737 0014 00000000 		.word	gett
 738 0018 00000000 		.word	writet
 739 001c 00000000 		.word	readt
 740              		.section	.text.sdInit,"ax",%progbits
 741              		.align	2
 742              		.p2align 4,,15
 743              		.global	sdInit
 744              		.thumb
 745              		.thumb_func
 746              		.type	sdInit, %function
 747              	sdInit:
 748              	.LFB268:
 749              		.loc 7 108 0
 750              		.cfi_startproc
 751              		@ args = 0, pretend = 0, frame = 0
 752              		@ frame_needed = 1, uses_anonymous_args = 0
 753 0000 80B5     		push	{r7, lr}
 754              		.cfi_def_cfa_offset 8
 755              		.cfi_offset 7, -8
 756              		.cfi_offset 14, -4
 757 0002 00AF     		add	r7, sp, #0
 758              		.cfi_def_cfa_register 7
 759              		.loc 7 110 0
 760 0004 FFF7FEFF 		bl	sd_lld_init
 761              		.loc 7 111 0
 762 0008 80BD     		pop	{r7, pc}
 763              		.cfi_endproc
 764              	.LFE268:
 765              		.size	sdInit, .-sdInit
 766 000a 00BFAFF3 		.section	.text.sdObjectInit,"ax",%progbits
 766      0080
 767              		.align	2
 768              		.p2align 4,,15
 769              		.global	sdObjectInit
 770              		.thumb
 771              		.thumb_func
 772              		.type	sdObjectInit, %function
 773              	sdObjectInit:
 774              	.LFB269:
 775              		.loc 7 128 0
 776              		.cfi_startproc
ARM GAS  C:\Users\Luis\AppData\Local\Temp\ccEujqcQ.s 			page 15


 777              		@ args = 0, pretend = 0, frame = 16
 778              		@ frame_needed = 1, uses_anonymous_args = 0
 779 0000 80B5     		push	{r7, lr}
 780              		.cfi_def_cfa_offset 8
 781              		.cfi_offset 7, -8
 782              		.cfi_offset 14, -4
 783 0002 86B0     		sub	sp, sp, #24
 784              		.cfi_def_cfa_offset 32
 785 0004 02AF     		add	r7, sp, #8
 786              		.cfi_def_cfa 7, 24
 787 0006 F860     		str	r0, [r7, #12]
 788 0008 B960     		str	r1, [r7, #8]
 789 000a 7A60     		str	r2, [r7, #4]
 790              		.loc 7 130 0
 791 000c FB68     		ldr	r3, [r7, #12]
 792 000e 154A     		ldr	r2, .L34
 793 0010 1A60     		str	r2, [r3]
 794              		.loc 7 131 0
 795 0012 FB68     		ldr	r3, [r7, #12]
 796 0014 0433     		adds	r3, r3, #4
 797 0016 1846     		mov	r0, r3
 798 0018 FFF7FEFF 		bl	osalEventObjectInit
 799              		.loc 7 132 0
 800 001c FB68     		ldr	r3, [r7, #12]
 801 001e 0122     		movs	r2, #1
 802 0020 1A72     		strb	r2, [r3, #8]
 803              		.loc 7 133 0
 804 0022 FB68     		ldr	r3, [r7, #12]
 805 0024 03F10C02 		add	r2, r3, #12
 806 0028 FB68     		ldr	r3, [r7, #12]
 807 002a 5433     		adds	r3, r3, #84
 808 002c F968     		ldr	r1, [r7, #12]
 809 002e 0091     		str	r1, [sp]
 810 0030 1046     		mov	r0, r2
 811 0032 1946     		mov	r1, r3
 812 0034 4FF48052 		mov	r2, #4096
 813 0038 BB68     		ldr	r3, [r7, #8]
 814 003a FFF7FEFF 		bl	chIQObjectInit
 815              		.loc 7 134 0
 816 003e FB68     		ldr	r3, [r7, #12]
 817 0040 03F13002 		add	r2, r3, #48
 818 0044 FB68     		ldr	r3, [r7, #12]
 819 0046 03F58253 		add	r3, r3, #4160
 820 004a 1433     		adds	r3, r3, #20
 821 004c F968     		ldr	r1, [r7, #12]
 822 004e 0091     		str	r1, [sp]
 823 0050 1046     		mov	r0, r2
 824 0052 1946     		mov	r1, r3
 825 0054 4FF48052 		mov	r2, #4096
 826 0058 7B68     		ldr	r3, [r7, #4]
 827 005a FFF7FEFF 		bl	chOQObjectInit
 828              		.loc 7 135 0
 829 005e 1037     		adds	r7, r7, #16
 830 0060 BD46     		mov	sp, r7
 831              		@ sp needed
 832 0062 80BD     		pop	{r7, pc}
 833              	.L35:
ARM GAS  C:\Users\Luis\AppData\Local\Temp\ccEujqcQ.s 			page 16


 834              		.align	2
 835              	.L34:
 836 0064 00000000 		.word	vmt
 837              		.cfi_endproc
 838              	.LFE269:
 839              		.size	sdObjectInit, .-sdObjectInit
 840 0068 AFF30080 		.section	.text.sdStart,"ax",%progbits
 840      AFF30080 
 841              		.align	2
 842              		.p2align 4,,15
 843              		.global	sdStart
 844              		.thumb
 845              		.thumb_func
 846              		.type	sdStart, %function
 847              	sdStart:
 848              	.LFB270:
 849              		.loc 7 147 0
 850              		.cfi_startproc
 851              		@ args = 0, pretend = 0, frame = 8
 852              		@ frame_needed = 1, uses_anonymous_args = 0
 853 0000 80B5     		push	{r7, lr}
 854              		.cfi_def_cfa_offset 8
 855              		.cfi_offset 7, -8
 856              		.cfi_offset 14, -4
 857 0002 82B0     		sub	sp, sp, #8
 858              		.cfi_def_cfa_offset 16
 859 0004 00AF     		add	r7, sp, #0
 860              		.cfi_def_cfa_register 7
 861 0006 7860     		str	r0, [r7, #4]
 862 0008 3960     		str	r1, [r7]
 863              		.loc 7 149 0
 864 000a 7B68     		ldr	r3, [r7, #4]
 865 000c 002B     		cmp	r3, #0
 866 000e 02D1     		bne	.L37
 867              		.loc 7 149 0 is_stmt 0 discriminator 1
 868 0010 0D48     		ldr	r0, .L39
 869 0012 FFF7FEFF 		bl	chSysHalt
 870              	.L37:
 871              		.loc 7 151 0 is_stmt 1
 872 0016 FFF7FEFF 		bl	osalSysLock
 873              		.loc 7 152 0
 874 001a 7B68     		ldr	r3, [r7, #4]
 875 001c 1B7A     		ldrb	r3, [r3, #8]	@ zero_extendqisi2
 876 001e 012B     		cmp	r3, #1
 877 0020 06D0     		beq	.L38
 878              		.loc 7 152 0 is_stmt 0 discriminator 1
 879 0022 7B68     		ldr	r3, [r7, #4]
 880 0024 1B7A     		ldrb	r3, [r3, #8]	@ zero_extendqisi2
 881 0026 022B     		cmp	r3, #2
 882 0028 02D0     		beq	.L38
 883 002a 0748     		ldr	r0, .L39
 884 002c FFF7FEFF 		bl	chSysHalt
 885              	.L38:
 886              		.loc 7 154 0 is_stmt 1
 887 0030 7868     		ldr	r0, [r7, #4]
 888 0032 3968     		ldr	r1, [r7]
 889 0034 FFF7FEFF 		bl	sd_lld_start
ARM GAS  C:\Users\Luis\AppData\Local\Temp\ccEujqcQ.s 			page 17


 890              		.loc 7 155 0
 891 0038 7B68     		ldr	r3, [r7, #4]
 892 003a 0222     		movs	r2, #2
 893 003c 1A72     		strb	r2, [r3, #8]
 894              		.loc 7 156 0
 895 003e FFF7FEFF 		bl	osalSysUnlock
 896              		.loc 7 157 0
 897 0042 0837     		adds	r7, r7, #8
 898 0044 BD46     		mov	sp, r7
 899              		@ sp needed
 900 0046 80BD     		pop	{r7, pc}
 901              	.L40:
 902              		.align	2
 903              	.L39:
 904 0048 00000000 		.word	__func__.7954
 905              		.cfi_endproc
 906              	.LFE270:
 907              		.size	sdStart, .-sdStart
 908 004c AFF30080 		.section	.text.sdStop,"ax",%progbits
 909              		.align	2
 910              		.p2align 4,,15
 911              		.global	sdStop
 912              		.thumb
 913              		.thumb_func
 914              		.type	sdStop, %function
 915              	sdStop:
 916              	.LFB271:
 917              		.loc 7 168 0
 918              		.cfi_startproc
 919              		@ args = 0, pretend = 0, frame = 8
 920              		@ frame_needed = 1, uses_anonymous_args = 0
 921 0000 80B5     		push	{r7, lr}
 922              		.cfi_def_cfa_offset 8
 923              		.cfi_offset 7, -8
 924              		.cfi_offset 14, -4
 925 0002 82B0     		sub	sp, sp, #8
 926              		.cfi_def_cfa_offset 16
 927 0004 00AF     		add	r7, sp, #0
 928              		.cfi_def_cfa_register 7
 929 0006 7860     		str	r0, [r7, #4]
 930              		.loc 7 170 0
 931 0008 7B68     		ldr	r3, [r7, #4]
 932 000a 002B     		cmp	r3, #0
 933 000c 02D1     		bne	.L42
 934              		.loc 7 170 0 is_stmt 0 discriminator 1
 935 000e 1348     		ldr	r0, .L44
 936 0010 FFF7FEFF 		bl	chSysHalt
 937              	.L42:
 938              		.loc 7 172 0 is_stmt 1
 939 0014 FFF7FEFF 		bl	osalSysLock
 940              		.loc 7 173 0
 941 0018 7B68     		ldr	r3, [r7, #4]
 942 001a 1B7A     		ldrb	r3, [r3, #8]	@ zero_extendqisi2
 943 001c 012B     		cmp	r3, #1
 944 001e 06D0     		beq	.L43
 945              		.loc 7 173 0 is_stmt 0 discriminator 1
 946 0020 7B68     		ldr	r3, [r7, #4]
ARM GAS  C:\Users\Luis\AppData\Local\Temp\ccEujqcQ.s 			page 18


 947 0022 1B7A     		ldrb	r3, [r3, #8]	@ zero_extendqisi2
 948 0024 022B     		cmp	r3, #2
 949 0026 02D0     		beq	.L43
 950 0028 0C48     		ldr	r0, .L44
 951 002a FFF7FEFF 		bl	chSysHalt
 952              	.L43:
 953              		.loc 7 175 0 is_stmt 1
 954 002e 7868     		ldr	r0, [r7, #4]
 955 0030 FFF7FEFF 		bl	sd_lld_stop
 956              		.loc 7 176 0
 957 0034 7B68     		ldr	r3, [r7, #4]
 958 0036 0122     		movs	r2, #1
 959 0038 1A72     		strb	r2, [r3, #8]
 960              		.loc 7 177 0
 961 003a 7B68     		ldr	r3, [r7, #4]
 962 003c 3033     		adds	r3, r3, #48
 963 003e 1846     		mov	r0, r3
 964 0040 FFF7FEFF 		bl	chOQResetI
 965              		.loc 7 178 0
 966 0044 7B68     		ldr	r3, [r7, #4]
 967 0046 0C33     		adds	r3, r3, #12
 968 0048 1846     		mov	r0, r3
 969 004a FFF7FEFF 		bl	chIQResetI
 970              		.loc 7 179 0
 971 004e FFF7FEFF 		bl	osalOsRescheduleS
 972              		.loc 7 180 0
 973 0052 FFF7FEFF 		bl	osalSysUnlock
 974              		.loc 7 181 0
 975 0056 0837     		adds	r7, r7, #8
 976 0058 BD46     		mov	sp, r7
 977              		@ sp needed
 978 005a 80BD     		pop	{r7, pc}
 979              	.L45:
 980              		.align	2
 981              	.L44:
 982 005c 00000000 		.word	__func__.7958
 983              		.cfi_endproc
 984              	.LFE271:
 985              		.size	sdStop, .-sdStop
 986              		.section	.text.sdIncomingDataI,"ax",%progbits
 987              		.align	2
 988              		.p2align 4,,15
 989              		.global	sdIncomingDataI
 990              		.thumb
 991              		.thumb_func
 992              		.type	sdIncomingDataI, %function
 993              	sdIncomingDataI:
 994              	.LFB272:
 995              		.loc 7 199 0
 996              		.cfi_startproc
 997              		@ args = 0, pretend = 0, frame = 8
 998              		@ frame_needed = 1, uses_anonymous_args = 0
 999 0000 80B5     		push	{r7, lr}
 1000              		.cfi_def_cfa_offset 8
 1001              		.cfi_offset 7, -8
 1002              		.cfi_offset 14, -4
 1003 0002 82B0     		sub	sp, sp, #8
ARM GAS  C:\Users\Luis\AppData\Local\Temp\ccEujqcQ.s 			page 19


 1004              		.cfi_def_cfa_offset 16
 1005 0004 00AF     		add	r7, sp, #0
 1006              		.cfi_def_cfa_register 7
 1007 0006 7860     		str	r0, [r7, #4]
 1008 0008 0B46     		mov	r3, r1
 1009 000a FB70     		strb	r3, [r7, #3]
 1010              		.loc 7 201 0
 1011 000c FFF7FEFF 		bl	chDbgCheckClassI
 1012              		.loc 7 202 0
 1013 0010 7B68     		ldr	r3, [r7, #4]
 1014 0012 002B     		cmp	r3, #0
 1015 0014 02D1     		bne	.L47
 1016              		.loc 7 202 0 is_stmt 0 discriminator 1
 1017 0016 1248     		ldr	r0, .L50
 1018 0018 FFF7FEFF 		bl	chSysHalt
 1019              	.L47:
 1020              		.loc 7 204 0 is_stmt 1
 1021 001c 7B68     		ldr	r3, [r7, #4]
 1022 001e 0C33     		adds	r3, r3, #12
 1023 0020 1846     		mov	r0, r3
 1024 0022 FFF7FEFF 		bl	chIQIsEmptyI
 1025 0026 0346     		mov	r3, r0
 1026 0028 002B     		cmp	r3, #0
 1027 002a 05D0     		beq	.L48
 1028              		.loc 7 205 0
 1029 002c 7B68     		ldr	r3, [r7, #4]
 1030 002e 0433     		adds	r3, r3, #4
 1031 0030 1846     		mov	r0, r3
 1032 0032 0421     		movs	r1, #4
 1033 0034 FFF7FEFF 		bl	osalEventBroadcastFlagsI
 1034              	.L48:
 1035              		.loc 7 206 0
 1036 0038 7B68     		ldr	r3, [r7, #4]
 1037 003a 03F10C02 		add	r2, r3, #12
 1038 003e FB78     		ldrb	r3, [r7, #3]	@ zero_extendqisi2
 1039 0040 1046     		mov	r0, r2
 1040 0042 1946     		mov	r1, r3
 1041 0044 FFF7FEFF 		bl	chIQPutI
 1042 0048 0346     		mov	r3, r0
 1043 004a 002B     		cmp	r3, #0
 1044 004c 05DA     		bge	.L46
 1045              		.loc 7 207 0
 1046 004e 7B68     		ldr	r3, [r7, #4]
 1047 0050 0433     		adds	r3, r3, #4
 1048 0052 1846     		mov	r0, r3
 1049 0054 8021     		movs	r1, #128
 1050 0056 FFF7FEFF 		bl	osalEventBroadcastFlagsI
 1051              	.L46:
 1052              		.loc 7 208 0
 1053 005a 0837     		adds	r7, r7, #8
 1054 005c BD46     		mov	sp, r7
 1055              		@ sp needed
 1056 005e 80BD     		pop	{r7, pc}
 1057              	.L51:
 1058              		.align	2
 1059              	.L50:
 1060 0060 00000000 		.word	__func__.7963
ARM GAS  C:\Users\Luis\AppData\Local\Temp\ccEujqcQ.s 			page 20


 1061              		.cfi_endproc
 1062              	.LFE272:
 1063              		.size	sdIncomingDataI, .-sdIncomingDataI
 1064 0064 AFF30080 		.section	.text.sdRequestDataI,"ax",%progbits
 1064      AFF30080 
 1064      AFF30080 
 1065              		.align	2
 1066              		.p2align 4,,15
 1067              		.global	sdRequestDataI
 1068              		.thumb
 1069              		.thumb_func
 1070              		.type	sdRequestDataI, %function
 1071              	sdRequestDataI:
 1072              	.LFB273:
 1073              		.loc 7 225 0
 1074              		.cfi_startproc
 1075              		@ args = 0, pretend = 0, frame = 16
 1076              		@ frame_needed = 1, uses_anonymous_args = 0
 1077 0000 80B5     		push	{r7, lr}
 1078              		.cfi_def_cfa_offset 8
 1079              		.cfi_offset 7, -8
 1080              		.cfi_offset 14, -4
 1081 0002 84B0     		sub	sp, sp, #16
 1082              		.cfi_def_cfa_offset 24
 1083 0004 00AF     		add	r7, sp, #0
 1084              		.cfi_def_cfa_register 7
 1085 0006 7860     		str	r0, [r7, #4]
 1086              		.loc 7 228 0
 1087 0008 FFF7FEFF 		bl	chDbgCheckClassI
 1088              		.loc 7 229 0
 1089 000c 7B68     		ldr	r3, [r7, #4]
 1090 000e 002B     		cmp	r3, #0
 1091 0010 02D1     		bne	.L53
 1092              		.loc 7 229 0 is_stmt 0 discriminator 1
 1093 0012 0B48     		ldr	r0, .L56
 1094 0014 FFF7FEFF 		bl	chSysHalt
 1095              	.L53:
 1096              		.loc 7 231 0 is_stmt 1
 1097 0018 7B68     		ldr	r3, [r7, #4]
 1098 001a 3033     		adds	r3, r3, #48
 1099 001c 1846     		mov	r0, r3
 1100 001e FFF7FEFF 		bl	chOQGetI
 1101 0022 F860     		str	r0, [r7, #12]
 1102              		.loc 7 232 0
 1103 0024 FB68     		ldr	r3, [r7, #12]
 1104 0026 002B     		cmp	r3, #0
 1105 0028 05DA     		bge	.L54
 1106              		.loc 7 233 0
 1107 002a 7B68     		ldr	r3, [r7, #4]
 1108 002c 0433     		adds	r3, r3, #4
 1109 002e 1846     		mov	r0, r3
 1110 0030 0821     		movs	r1, #8
 1111 0032 FFF7FEFF 		bl	osalEventBroadcastFlagsI
 1112              	.L54:
 1113              		.loc 7 234 0
 1114 0036 FB68     		ldr	r3, [r7, #12]
 1115              		.loc 7 235 0
ARM GAS  C:\Users\Luis\AppData\Local\Temp\ccEujqcQ.s 			page 21


 1116 0038 1846     		mov	r0, r3
 1117 003a 1037     		adds	r7, r7, #16
 1118 003c BD46     		mov	sp, r7
 1119              		@ sp needed
 1120 003e 80BD     		pop	{r7, pc}
 1121              	.L57:
 1122              		.align	2
 1123              	.L56:
 1124 0040 00000000 		.word	__func__.7968
 1125              		.cfi_endproc
 1126              	.LFE273:
 1127              		.size	sdRequestDataI, .-sdRequestDataI
 1128 0044 AFF30080 		.section	.rodata.__func__.7954,"a",%progbits
 1128      AFF30080 
 1128      AFF30080 
 1129              		.align	2
 1130              		.type	__func__.7954, %object
 1131              		.size	__func__.7954, 8
 1132              	__func__.7954:
 1133 0000 73645374 		.ascii	"sdStart\000"
 1133      61727400 
 1134              		.section	.rodata.__func__.5842,"a",%progbits
 1135              		.align	2
 1136              		.type	__func__.5842, %object
 1137              		.size	__func__.5842, 12
 1138              	__func__.5842:
 1139 0000 63685379 		.ascii	"chSysUnlock\000"
 1139      73556E6C 
 1139      6F636B00 
 1140              		.section	.rodata.__func__.7958,"a",%progbits
 1141              		.align	2
 1142              		.type	__func__.7958, %object
 1143              		.size	__func__.7958, 7
 1144              	__func__.7958:
 1145 0000 73645374 		.ascii	"sdStop\000"
 1145      6F7000
 1146 0007 00       		.section	.rodata.__func__.7963,"a",%progbits
 1147              		.align	2
 1148              		.type	__func__.7963, %object
 1149              		.size	__func__.7963, 16
 1150              	__func__.7963:
 1151 0000 7364496E 		.ascii	"sdIncomingDataI\000"
 1151      636F6D69 
 1151      6E674461 
 1151      74614900 
 1152              		.section	.rodata.__func__.7968,"a",%progbits
 1153              		.align	2
 1154              		.type	__func__.7968, %object
 1155              		.size	__func__.7968, 15
 1156              	__func__.7968:
 1157 0000 73645265 		.ascii	"sdRequestDataI\000"
 1157      71756573 
 1157      74446174 
 1157      614900
 1158 000f 00       		.text
 1159              	.Letext0:
 1160              		.file 8 "c:\\emtechesdk\\gcc\\lib\\gcc\\arm-none-eabi\\4.8.3\\include\\stddef.h"
ARM GAS  C:\Users\Luis\AppData\Local\Temp\ccEujqcQ.s 			page 22


 1161              		.file 9 "c:\\emtechesdk\\gcc\\arm-none-eabi\\include\\stdint.h"
 1162              		.file 10 "../../ChibiOS/os/rt/ports/ARMCMx/compilers/GCC/chtypes.h"
 1163              		.file 11 "../../ChibiOS/os/rt/include/chsystypes.h"
 1164              		.file 12 "../../ChibiOS/os/rt/include/chschd.h"
 1165              		.file 13 "../../ChibiOS/os/ext/CMSIS/ST/stm32f407xx.h"
 1166              		.file 14 "../../ChibiOS/os/rt/ports/ARMCMx/chcore.h"
 1167              		.file 15 "../../ChibiOS/os/rt/include/chdebug.h"
 1168              		.file 16 "../../ChibiOS/os/rt/include/chtm.h"
 1169              		.file 17 "../../ChibiOS/os/rt/include/chstats.h"
 1170              		.file 18 "../../ChibiOS/os/rt/include/chsem.h"
 1171              		.file 19 "../../ChibiOS/os/rt/include/chmtx.h"
 1172              		.file 20 "../../ChibiOS/os/hal/include/serial.h"
 1173              		.file 21 "../../ChibiOS/os/hal/ports/STM32/LLD/USARTv1/serial_lld.h"
 1174              		.file 22 "../../ChibiOS/os/ext/CMSIS/include/core_cm4.h"