ARM GAS  C:\Users\Luis\AppData\Local\Temp\ccM5yvDE.s 			page 1


   1              		.syntax unified
   2              		.cpu cortex-m4
   3              		.fpu softvfp
   4              		.eabi_attribute 20, 1
   5              		.eabi_attribute 21, 1
   6              		.eabi_attribute 23, 3
   7              		.eabi_attribute 24, 1
   8              		.eabi_attribute 25, 1
   9              		.eabi_attribute 26, 1
  10              		.eabi_attribute 30, 6
  11              		.eabi_attribute 34, 1
  12              		.eabi_attribute 18, 4
  13              		.thumb
  14              		.file	"serial_lld.c"
  15              		.text
  16              	.Ltext0:
  17              		.cfi_sections	.debug_frame
  18              		.section	.text.port_lock,"ax",%progbits
  19              		.align	2
  20              		.p2align 4,,15
  21              		.thumb
  22              		.thumb_func
  23              		.type	port_lock, %function
  24              	port_lock:
  25              	.LFB116:
  26              		.file 1 "../../ChibiOS/os/rt/ports/ARMCMx/chcore_v7m.h"
  27              		.loc 1 444 0
  28              		.cfi_startproc
  29              		@ args = 0, pretend = 0, frame = 8
  30              		@ frame_needed = 1, uses_anonymous_args = 0
  31              		@ link register save eliminated.
  32 0000 80B4     		push	{r7}
  33              		.cfi_def_cfa_offset 4
  34              		.cfi_offset 7, -4
  35 0002 83B0     		sub	sp, sp, #12
  36              		.cfi_def_cfa_offset 16
  37 0004 00AF     		add	r7, sp, #0
  38              		.cfi_def_cfa_register 7
  39 0006 2023     		movs	r3, #32
  40 0008 7B60     		str	r3, [r7, #4]
  41              	.LBB6:
  42              	.LBB7:
  43              		.file 2 "../../ChibiOS/os/ext/CMSIS/include/core_cmFunc.h"
  44              		.loc 2 546 0
  45 000a 7B68     		ldr	r3, [r7, #4]
  46              	@ 546 "../../ChibiOS/os/ext/CMSIS/include/core_cmFunc.h" 1
  47 000c 83F31188 		MSR basepri, r3
  48              	@ 0 "" 2
  49              		.thumb
  50              	.LBE7:
  51              	.LBE6:
  52              		.loc 1 451 0
  53 0010 0C37     		adds	r7, r7, #12
  54 0012 BD46     		mov	sp, r7
  55              		@ sp needed
  56 0014 5DF8047B 		ldr	r7, [sp], #4
  57 0018 7047     		bx	lr
ARM GAS  C:\Users\Luis\AppData\Local\Temp\ccM5yvDE.s 			page 2


  58              		.cfi_endproc
  59              	.LFE116:
  60              		.size	port_lock, .-port_lock
  61 001a 00BFAFF3 		.section	.text.port_unlock,"ax",%progbits
  61      0080
  62              		.align	2
  63              		.p2align 4,,15
  64              		.thumb
  65              		.thumb_func
  66              		.type	port_unlock, %function
  67              	port_unlock:
  68              	.LFB117:
  69              		.loc 1 458 0
  70              		.cfi_startproc
  71              		@ args = 0, pretend = 0, frame = 8
  72              		@ frame_needed = 1, uses_anonymous_args = 0
  73              		@ link register save eliminated.
  74 0000 80B4     		push	{r7}
  75              		.cfi_def_cfa_offset 4
  76              		.cfi_offset 7, -4
  77 0002 83B0     		sub	sp, sp, #12
  78              		.cfi_def_cfa_offset 16
  79 0004 00AF     		add	r7, sp, #0
  80              		.cfi_def_cfa_register 7
  81 0006 0023     		movs	r3, #0
  82 0008 7B60     		str	r3, [r7, #4]
  83              	.LBB8:
  84              	.LBB9:
  85              		.loc 2 546 0
  86 000a 7B68     		ldr	r3, [r7, #4]
  87              	@ 546 "../../ChibiOS/os/ext/CMSIS/include/core_cmFunc.h" 1
  88 000c 83F31188 		MSR basepri, r3
  89              	@ 0 "" 2
  90              		.thumb
  91              	.LBE9:
  92              	.LBE8:
  93              		.loc 1 465 0
  94 0010 0C37     		adds	r7, r7, #12
  95 0012 BD46     		mov	sp, r7
  96              		@ sp needed
  97 0014 5DF8047B 		ldr	r7, [sp], #4
  98 0018 7047     		bx	lr
  99              		.cfi_endproc
 100              	.LFE117:
 101              		.size	port_unlock, .-port_unlock
 102 001a 00BFAFF3 		.section	.text.port_lock_from_isr,"ax",%progbits
 102      0080
 103              		.align	2
 104              		.p2align 4,,15
 105              		.thumb
 106              		.thumb_func
 107              		.type	port_lock_from_isr, %function
 108              	port_lock_from_isr:
 109              	.LFB118:
 110              		.loc 1 473 0
 111              		.cfi_startproc
 112              		@ args = 0, pretend = 0, frame = 0
ARM GAS  C:\Users\Luis\AppData\Local\Temp\ccM5yvDE.s 			page 3


 113              		@ frame_needed = 1, uses_anonymous_args = 0
 114 0000 80B5     		push	{r7, lr}
 115              		.cfi_def_cfa_offset 8
 116              		.cfi_offset 7, -8
 117              		.cfi_offset 14, -4
 118 0002 00AF     		add	r7, sp, #0
 119              		.cfi_def_cfa_register 7
 120              		.loc 1 475 0
 121 0004 FFF7FEFF 		bl	port_lock
 122              		.loc 1 476 0
 123 0008 80BD     		pop	{r7, pc}
 124              		.cfi_endproc
 125              	.LFE118:
 126              		.size	port_lock_from_isr, .-port_lock_from_isr
 127 000a 00BFAFF3 		.section	.text.port_unlock_from_isr,"ax",%progbits
 127      0080
 128              		.align	2
 129              		.p2align 4,,15
 130              		.thumb
 131              		.thumb_func
 132              		.type	port_unlock_from_isr, %function
 133              	port_unlock_from_isr:
 134              	.LFB119:
 135              		.loc 1 484 0
 136              		.cfi_startproc
 137              		@ args = 0, pretend = 0, frame = 0
 138              		@ frame_needed = 1, uses_anonymous_args = 0
 139 0000 80B5     		push	{r7, lr}
 140              		.cfi_def_cfa_offset 8
 141              		.cfi_offset 7, -8
 142              		.cfi_offset 14, -4
 143 0002 00AF     		add	r7, sp, #0
 144              		.cfi_def_cfa_register 7
 145              		.loc 1 486 0
 146 0004 FFF7FEFF 		bl	port_unlock
 147              		.loc 1 487 0
 148 0008 80BD     		pop	{r7, pc}
 149              		.cfi_endproc
 150              	.LFE119:
 151              		.size	port_unlock_from_isr, .-port_unlock_from_isr
 152 000a 00BFAFF3 		.section	.text.chSysLockFromISR,"ax",%progbits
 152      0080
 153              		.align	2
 154              		.p2align 4,,15
 155              		.thumb
 156              		.thumb_func
 157              		.type	chSysLockFromISR, %function
 158              	chSysLockFromISR:
 159              	.LFB158:
 160              		.file 3 "../../ChibiOS/os/rt/include/chsys.h"
 161              		.loc 3 386 0
 162              		.cfi_startproc
 163              		@ args = 0, pretend = 0, frame = 0
 164              		@ frame_needed = 1, uses_anonymous_args = 0
 165 0000 80B5     		push	{r7, lr}
 166              		.cfi_def_cfa_offset 8
 167              		.cfi_offset 7, -8
ARM GAS  C:\Users\Luis\AppData\Local\Temp\ccM5yvDE.s 			page 4


 168              		.cfi_offset 14, -4
 169 0002 00AF     		add	r7, sp, #0
 170              		.cfi_def_cfa_register 7
 171              		.loc 3 388 0
 172 0004 FFF7FEFF 		bl	port_lock_from_isr
 173              		.loc 3 389 0
 174 0008 FFF7FEFF 		bl	_stats_start_measure_crit_isr
 175              		.loc 3 390 0
 176 000c FFF7FEFF 		bl	_dbg_check_lock_from_isr
 177              		.loc 3 391 0
 178 0010 80BD     		pop	{r7, pc}
 179              		.cfi_endproc
 180              	.LFE158:
 181              		.size	chSysLockFromISR, .-chSysLockFromISR
 182 0012 00BFAFF3 		.section	.text.chSysUnlockFromISR,"ax",%progbits
 182      0080AFF3 
 182      0080AFF3 
 182      0080
 183              		.align	2
 184              		.p2align 4,,15
 185              		.thumb
 186              		.thumb_func
 187              		.type	chSysUnlockFromISR, %function
 188              	chSysUnlockFromISR:
 189              	.LFB159:
 190              		.loc 3 406 0
 191              		.cfi_startproc
 192              		@ args = 0, pretend = 0, frame = 0
 193              		@ frame_needed = 1, uses_anonymous_args = 0
 194 0000 80B5     		push	{r7, lr}
 195              		.cfi_def_cfa_offset 8
 196              		.cfi_offset 7, -8
 197              		.cfi_offset 14, -4
 198 0002 00AF     		add	r7, sp, #0
 199              		.cfi_def_cfa_register 7
 200              		.loc 3 408 0
 201 0004 FFF7FEFF 		bl	_dbg_check_unlock_from_isr
 202              		.loc 3 409 0
 203 0008 FFF7FEFF 		bl	_stats_stop_measure_crit_isr
 204              		.loc 3 410 0
 205 000c FFF7FEFF 		bl	port_unlock_from_isr
 206              		.loc 3 411 0
 207 0010 80BD     		pop	{r7, pc}
 208              		.cfi_endproc
 209              	.LFE159:
 210              		.size	chSysUnlockFromISR, .-chSysUnlockFromISR
 211 0012 00BFAFF3 		.section	.text.chOQIsEmptyI,"ax",%progbits
 211      0080AFF3 
 211      0080AFF3 
 211      0080
 212              		.align	2
 213              		.p2align 4,,15
 214              		.thumb
 215              		.thumb_func
 216              		.type	chOQIsEmptyI, %function
 217              	chOQIsEmptyI:
 218              	.LFB226:
ARM GAS  C:\Users\Luis\AppData\Local\Temp\ccM5yvDE.s 			page 5


 219              		.file 4 "../../ChibiOS/os/rt/include/chqueues.h"
 220              		.loc 4 386 0
 221              		.cfi_startproc
 222              		@ args = 0, pretend = 0, frame = 8
 223              		@ frame_needed = 1, uses_anonymous_args = 0
 224 0000 80B5     		push	{r7, lr}
 225              		.cfi_def_cfa_offset 8
 226              		.cfi_offset 7, -8
 227              		.cfi_offset 14, -4
 228 0002 82B0     		sub	sp, sp, #8
 229              		.cfi_def_cfa_offset 16
 230 0004 00AF     		add	r7, sp, #0
 231              		.cfi_def_cfa_register 7
 232 0006 7860     		str	r0, [r7, #4]
 233              		.loc 4 388 0
 234 0008 FFF7FEFF 		bl	chDbgCheckClassI
 235              		.loc 4 390 0
 236 000c 7B68     		ldr	r3, [r7, #4]
 237 000e 5A69     		ldr	r2, [r3, #20]
 238 0010 7B68     		ldr	r3, [r7, #4]
 239 0012 9B69     		ldr	r3, [r3, #24]
 240 0014 9A42     		cmp	r2, r3
 241 0016 05D1     		bne	.L8
 242              		.loc 4 390 0 is_stmt 0 discriminator 1
 243 0018 7B68     		ldr	r3, [r7, #4]
 244 001a 9B68     		ldr	r3, [r3, #8]
 245 001c 002B     		cmp	r3, #0
 246 001e 01D0     		beq	.L8
 247              		.loc 4 390 0 discriminator 3
 248 0020 0123     		movs	r3, #1
 249 0022 00E0     		b	.L9
 250              	.L8:
 251              		.loc 4 390 0 discriminator 2
 252 0024 0023     		movs	r3, #0
 253              	.L9:
 254              		.loc 4 390 0 discriminator 4
 255 0026 03F00103 		and	r3, r3, #1
 256 002a DBB2     		uxtb	r3, r3
 257              		.loc 4 391 0 is_stmt 1 discriminator 4
 258 002c 1846     		mov	r0, r3
 259 002e 0837     		adds	r7, r7, #8
 260 0030 BD46     		mov	sp, r7
 261              		@ sp needed
 262 0032 80BD     		pop	{r7, pc}
 263              		.cfi_endproc
 264              	.LFE226:
 265              		.size	chOQIsEmptyI, .-chOQIsEmptyI
 266 0034 AFF30080 		.section	.text.osalSysLockFromISR,"ax",%progbits
 266      AFF30080 
 266      AFF30080 
 267              		.align	2
 268              		.p2align 4,,15
 269              		.thumb
 270              		.thumb_func
 271              		.type	osalSysLockFromISR, %function
 272              	osalSysLockFromISR:
 273              	.LFB235:
ARM GAS  C:\Users\Luis\AppData\Local\Temp\ccM5yvDE.s 			page 6


 274              		.file 5 "../../ChibiOS/os/hal/osal/rt/osal.h"
 275              		.loc 5 513 0
 276              		.cfi_startproc
 277              		@ args = 0, pretend = 0, frame = 0
 278              		@ frame_needed = 1, uses_anonymous_args = 0
 279 0000 80B5     		push	{r7, lr}
 280              		.cfi_def_cfa_offset 8
 281              		.cfi_offset 7, -8
 282              		.cfi_offset 14, -4
 283 0002 00AF     		add	r7, sp, #0
 284              		.cfi_def_cfa_register 7
 285              		.loc 5 515 0
 286 0004 FFF7FEFF 		bl	chSysLockFromISR
 287              		.loc 5 516 0
 288 0008 80BD     		pop	{r7, pc}
 289              		.cfi_endproc
 290              	.LFE235:
 291              		.size	osalSysLockFromISR, .-osalSysLockFromISR
 292 000a 00BFAFF3 		.section	.text.osalSysUnlockFromISR,"ax",%progbits
 292      0080
 293              		.align	2
 294              		.p2align 4,,15
 295              		.thumb
 296              		.thumb_func
 297              		.type	osalSysUnlockFromISR, %function
 298              	osalSysUnlockFromISR:
 299              	.LFB236:
 300              		.loc 5 524 0
 301              		.cfi_startproc
 302              		@ args = 0, pretend = 0, frame = 0
 303              		@ frame_needed = 1, uses_anonymous_args = 0
 304 0000 80B5     		push	{r7, lr}
 305              		.cfi_def_cfa_offset 8
 306              		.cfi_offset 7, -8
 307              		.cfi_offset 14, -4
 308 0002 00AF     		add	r7, sp, #0
 309              		.cfi_def_cfa_register 7
 310              		.loc 5 526 0
 311 0004 FFF7FEFF 		bl	chSysUnlockFromISR
 312              		.loc 5 527 0
 313 0008 80BD     		pop	{r7, pc}
 314              		.cfi_endproc
 315              	.LFE236:
 316              		.size	osalSysUnlockFromISR, .-osalSysUnlockFromISR
 317 000a 00BFAFF3 		.section	.text.osalEventBroadcastFlagsI,"ax",%progbits
 317      0080
 318              		.align	2
 319              		.p2align 4,,15
 320              		.thumb
 321              		.thumb_func
 322              		.type	osalEventBroadcastFlagsI, %function
 323              	osalEventBroadcastFlagsI:
 324              	.LFB255:
 325              		.loc 5 842 0
 326              		.cfi_startproc
 327              		@ args = 0, pretend = 0, frame = 8
 328              		@ frame_needed = 1, uses_anonymous_args = 0
ARM GAS  C:\Users\Luis\AppData\Local\Temp\ccM5yvDE.s 			page 7


 329 0000 80B5     		push	{r7, lr}
 330              		.cfi_def_cfa_offset 8
 331              		.cfi_offset 7, -8
 332              		.cfi_offset 14, -4
 333 0002 82B0     		sub	sp, sp, #8
 334              		.cfi_def_cfa_offset 16
 335 0004 00AF     		add	r7, sp, #0
 336              		.cfi_def_cfa_register 7
 337 0006 7860     		str	r0, [r7, #4]
 338 0008 3960     		str	r1, [r7]
 339              		.loc 5 844 0
 340 000a 7868     		ldr	r0, [r7, #4]
 341 000c 3968     		ldr	r1, [r7]
 342 000e FFF7FEFF 		bl	chEvtBroadcastFlagsI
 343              		.loc 5 845 0
 344 0012 0837     		adds	r7, r7, #8
 345 0014 BD46     		mov	sp, r7
 346              		@ sp needed
 347 0016 80BD     		pop	{r7, pc}
 348              		.cfi_endproc
 349              	.LFE255:
 350              		.size	osalEventBroadcastFlagsI, .-osalEventBroadcastFlagsI
 351              		.global	SD1
 352 0018 AFF30080 		.section	.bss.SD1,"aw",%nobits
 352      AFF30080 
 353              		.align	2
 354              		.type	SD1, %object
 355              		.size	SD1, 8280
 356              	SD1:
 357 0000 00000000 		.space	8280
 357      00000000 
 357      00000000 
 357      00000000 
 357      00000000 
 358              		.global	SD4
 359              		.section	.bss.SD4,"aw",%nobits
 360              		.align	2
 361              		.type	SD4, %object
 362              		.size	SD4, 8280
 363              	SD4:
 364 0000 00000000 		.space	8280
 364      00000000 
 364      00000000 
 364      00000000 
 364      00000000 
 365              		.section	.rodata.default_config,"a",%progbits
 366              		.align	2
 367              		.type	default_config, %object
 368              		.size	default_config, 12
 369              	default_config:
 370 0000 00C20100 		.word	115200
 371 0004 0000     		.short	0
 372 0006 0040     		.short	16384
 373 0008 0000     		.short	0
 374 000a 0000     		.space	2
 375              		.section	.text.usart_init,"ax",%progbits
 376              		.align	2
ARM GAS  C:\Users\Luis\AppData\Local\Temp\ccM5yvDE.s 			page 8


 377              		.p2align 4,,15
 378              		.thumb
 379              		.thumb_func
 380              		.type	usart_init, %function
 381              	usart_init:
 382              	.LFB260:
 383              		.file 6 "../../ChibiOS/os/hal/ports/STM32/LLD/USARTv1/serial_lld.c"
 384              		.loc 6 91 0
 385              		.cfi_startproc
 386              		@ args = 0, pretend = 0, frame = 16
 387              		@ frame_needed = 1, uses_anonymous_args = 0
 388              		@ link register save eliminated.
 389 0000 80B4     		push	{r7}
 390              		.cfi_def_cfa_offset 4
 391              		.cfi_offset 7, -4
 392 0002 85B0     		sub	sp, sp, #20
 393              		.cfi_def_cfa_offset 24
 394 0004 00AF     		add	r7, sp, #0
 395              		.cfi_def_cfa_register 7
 396 0006 7860     		str	r0, [r7, #4]
 397 0008 3960     		str	r1, [r7]
 398              		.loc 6 92 0
 399 000a 7B68     		ldr	r3, [r7, #4]
 400 000c 03F50153 		add	r3, r3, #8256
 401 0010 1433     		adds	r3, r3, #20
 402 0012 1B68     		ldr	r3, [r3]
 403 0014 FB60     		str	r3, [r7, #12]
 404              		.loc 6 96 0
 405 0016 7B68     		ldr	r3, [r7, #4]
 406 0018 03F50153 		add	r3, r3, #8256
 407 001c 1433     		adds	r3, r3, #20
 408 001e 1A68     		ldr	r2, [r3]
 409 0020 1F4B     		ldr	r3, .L18
 410 0022 9A42     		cmp	r2, r3
 411 0024 07D0     		beq	.L15
 412              		.loc 6 96 0 is_stmt 0 discriminator 1
 413 0026 7B68     		ldr	r3, [r7, #4]
 414 0028 03F50153 		add	r3, r3, #8256
 415 002c 1433     		adds	r3, r3, #20
 416 002e 1A68     		ldr	r2, [r3]
 417 0030 1C4B     		ldr	r3, .L18+4
 418 0032 9A42     		cmp	r2, r3
 419 0034 07D1     		bne	.L16
 420              	.L15:
 421              		.loc 6 100 0 is_stmt 1
 422 0036 3B68     		ldr	r3, [r7]
 423 0038 1B68     		ldr	r3, [r3]
 424 003a 1B4A     		ldr	r2, .L18+8
 425 003c B2FBF3F2 		udiv	r2, r2, r3
 426 0040 FB68     		ldr	r3, [r7, #12]
 427 0042 9A60     		str	r2, [r3, #8]
 428 0044 06E0     		b	.L17
 429              	.L16:
 430              		.loc 6 102 0
 431 0046 3B68     		ldr	r3, [r7]
 432 0048 1B68     		ldr	r3, [r3]
 433 004a 184A     		ldr	r2, .L18+12
ARM GAS  C:\Users\Luis\AppData\Local\Temp\ccM5yvDE.s 			page 9


 434 004c B2FBF3F2 		udiv	r2, r2, r3
 435 0050 FB68     		ldr	r3, [r7, #12]
 436 0052 9A60     		str	r2, [r3, #8]
 437              	.L17:
 438              		.loc 6 105 0
 439 0054 3B68     		ldr	r3, [r7]
 440 0056 DB88     		ldrh	r3, [r3, #6]
 441 0058 43F04003 		orr	r3, r3, #64
 442 005c 9BB2     		uxth	r3, r3
 443 005e 1A46     		mov	r2, r3
 444 0060 FB68     		ldr	r3, [r7, #12]
 445 0062 1A61     		str	r2, [r3, #16]
 446              		.loc 6 106 0
 447 0064 3B68     		ldr	r3, [r7]
 448 0066 1B89     		ldrh	r3, [r3, #8]
 449 0068 43F00103 		orr	r3, r3, #1
 450 006c 9BB2     		uxth	r3, r3
 451 006e 1A46     		mov	r2, r3
 452 0070 FB68     		ldr	r3, [r7, #12]
 453 0072 5A61     		str	r2, [r3, #20]
 454              		.loc 6 107 0
 455 0074 3B68     		ldr	r3, [r7]
 456 0076 9B88     		ldrh	r3, [r3, #4]
 457              		.loc 6 108 0
 458 0078 43F40453 		orr	r3, r3, #8448
 459 007c 43F02C03 		orr	r3, r3, #44
 460 0080 9BB2     		uxth	r3, r3
 461 0082 1A46     		mov	r2, r3
 462              		.loc 6 107 0
 463 0084 FB68     		ldr	r3, [r7, #12]
 464 0086 DA60     		str	r2, [r3, #12]
 465              		.loc 6 110 0
 466 0088 FB68     		ldr	r3, [r7, #12]
 467 008a 0022     		movs	r2, #0
 468 008c 1A60     		str	r2, [r3]
 469              		.loc 6 111 0
 470 008e FB68     		ldr	r3, [r7, #12]
 471 0090 1B68     		ldr	r3, [r3]
 472              		.loc 6 112 0
 473 0092 FB68     		ldr	r3, [r7, #12]
 474 0094 5B68     		ldr	r3, [r3, #4]
 475              		.loc 6 113 0
 476 0096 1437     		adds	r7, r7, #20
 477 0098 BD46     		mov	sp, r7
 478              		@ sp needed
 479 009a 5DF8047B 		ldr	r7, [sp], #4
 480 009e 7047     		bx	lr
 481              	.L19:
 482              		.align	2
 483              	.L18:
 484 00a0 00100140 		.word	1073811456
 485 00a4 00140140 		.word	1073812480
 486 00a8 00BD0105 		.word	84000000
 487 00ac 80DE8002 		.word	42000000
 488              		.cfi_endproc
 489              	.LFE260:
 490              		.size	usart_init, .-usart_init
ARM GAS  C:\Users\Luis\AppData\Local\Temp\ccM5yvDE.s 			page 10


 491              		.section	.text.usart_deinit,"ax",%progbits
 492              		.align	2
 493              		.p2align 4,,15
 494              		.thumb
 495              		.thumb_func
 496              		.type	usart_deinit, %function
 497              	usart_deinit:
 498              	.LFB261:
 499              		.loc 6 121 0
 500              		.cfi_startproc
 501              		@ args = 0, pretend = 0, frame = 8
 502              		@ frame_needed = 1, uses_anonymous_args = 0
 503              		@ link register save eliminated.
 504 0000 80B4     		push	{r7}
 505              		.cfi_def_cfa_offset 4
 506              		.cfi_offset 7, -4
 507 0002 83B0     		sub	sp, sp, #12
 508              		.cfi_def_cfa_offset 16
 509 0004 00AF     		add	r7, sp, #0
 510              		.cfi_def_cfa_register 7
 511 0006 7860     		str	r0, [r7, #4]
 512              		.loc 6 123 0
 513 0008 7B68     		ldr	r3, [r7, #4]
 514 000a 0022     		movs	r2, #0
 515 000c DA60     		str	r2, [r3, #12]
 516              		.loc 6 124 0
 517 000e 7B68     		ldr	r3, [r7, #4]
 518 0010 0022     		movs	r2, #0
 519 0012 1A61     		str	r2, [r3, #16]
 520              		.loc 6 125 0
 521 0014 7B68     		ldr	r3, [r7, #4]
 522 0016 0022     		movs	r2, #0
 523 0018 5A61     		str	r2, [r3, #20]
 524              		.loc 6 126 0
 525 001a 0C37     		adds	r7, r7, #12
 526 001c BD46     		mov	sp, r7
 527              		@ sp needed
 528 001e 5DF8047B 		ldr	r7, [sp], #4
 529 0022 7047     		bx	lr
 530              		.cfi_endproc
 531              	.LFE261:
 532              		.size	usart_deinit, .-usart_deinit
 533 0024 AFF30080 		.section	.text.set_error,"ax",%progbits
 533      AFF30080 
 533      AFF30080 
 534              		.align	2
 535              		.p2align 4,,15
 536              		.thumb
 537              		.thumb_func
 538              		.type	set_error, %function
 539              	set_error:
 540              	.LFB262:
 541              		.loc 6 134 0
 542              		.cfi_startproc
 543              		@ args = 0, pretend = 0, frame = 16
 544              		@ frame_needed = 1, uses_anonymous_args = 0
 545 0000 80B5     		push	{r7, lr}
ARM GAS  C:\Users\Luis\AppData\Local\Temp\ccM5yvDE.s 			page 11


 546              		.cfi_def_cfa_offset 8
 547              		.cfi_offset 7, -8
 548              		.cfi_offset 14, -4
 549 0002 84B0     		sub	sp, sp, #16
 550              		.cfi_def_cfa_offset 24
 551 0004 00AF     		add	r7, sp, #0
 552              		.cfi_def_cfa_register 7
 553 0006 7860     		str	r0, [r7, #4]
 554 0008 0B46     		mov	r3, r1
 555 000a 7B80     		strh	r3, [r7, #2]	@ movhi
 556              		.loc 6 135 0
 557 000c 0023     		movs	r3, #0
 558 000e FB60     		str	r3, [r7, #12]
 559              		.loc 6 137 0
 560 0010 7B88     		ldrh	r3, [r7, #2]
 561 0012 03F00803 		and	r3, r3, #8
 562 0016 002B     		cmp	r3, #0
 563 0018 03D0     		beq	.L22
 564              		.loc 6 138 0
 565 001a FB68     		ldr	r3, [r7, #12]
 566 001c 43F08003 		orr	r3, r3, #128
 567 0020 FB60     		str	r3, [r7, #12]
 568              	.L22:
 569              		.loc 6 139 0
 570 0022 7B88     		ldrh	r3, [r7, #2]
 571 0024 03F00103 		and	r3, r3, #1
 572 0028 002B     		cmp	r3, #0
 573 002a 03D0     		beq	.L23
 574              		.loc 6 140 0
 575 002c FB68     		ldr	r3, [r7, #12]
 576 002e 43F02003 		orr	r3, r3, #32
 577 0032 FB60     		str	r3, [r7, #12]
 578              	.L23:
 579              		.loc 6 141 0
 580 0034 7B88     		ldrh	r3, [r7, #2]
 581 0036 03F00203 		and	r3, r3, #2
 582 003a 002B     		cmp	r3, #0
 583 003c 03D0     		beq	.L24
 584              		.loc 6 142 0
 585 003e FB68     		ldr	r3, [r7, #12]
 586 0040 43F04003 		orr	r3, r3, #64
 587 0044 FB60     		str	r3, [r7, #12]
 588              	.L24:
 589              		.loc 6 143 0
 590 0046 7B88     		ldrh	r3, [r7, #2]
 591 0048 03F00403 		and	r3, r3, #4
 592 004c 002B     		cmp	r3, #0
 593 004e 03D0     		beq	.L25
 594              		.loc 6 144 0
 595 0050 FB68     		ldr	r3, [r7, #12]
 596 0052 43F48073 		orr	r3, r3, #256
 597 0056 FB60     		str	r3, [r7, #12]
 598              	.L25:
 599              		.loc 6 145 0
 600 0058 7B68     		ldr	r3, [r7, #4]
 601 005a 0433     		adds	r3, r3, #4
 602 005c 1846     		mov	r0, r3
ARM GAS  C:\Users\Luis\AppData\Local\Temp\ccM5yvDE.s 			page 12


 603 005e F968     		ldr	r1, [r7, #12]
 604 0060 FFF7FEFF 		bl	osalEventBroadcastFlagsI
 605              		.loc 6 146 0
 606 0064 1037     		adds	r7, r7, #16
 607 0066 BD46     		mov	sp, r7
 608              		@ sp needed
 609 0068 80BD     		pop	{r7, pc}
 610              		.cfi_endproc
 611              	.LFE262:
 612              		.size	set_error, .-set_error
 613 006a 00BFAFF3 		.section	.text.serve_interrupt,"ax",%progbits
 613      0080
 614              		.align	2
 615              		.p2align 4,,15
 616              		.thumb
 617              		.thumb_func
 618              		.type	serve_interrupt, %function
 619              	serve_interrupt:
 620              	.LFB263:
 621              		.loc 6 153 0
 622              		.cfi_startproc
 623              		@ args = 0, pretend = 0, frame = 24
 624              		@ frame_needed = 1, uses_anonymous_args = 0
 625 0000 80B5     		push	{r7, lr}
 626              		.cfi_def_cfa_offset 8
 627              		.cfi_offset 7, -8
 628              		.cfi_offset 14, -4
 629 0002 86B0     		sub	sp, sp, #24
 630              		.cfi_def_cfa_offset 32
 631 0004 00AF     		add	r7, sp, #0
 632              		.cfi_def_cfa_register 7
 633 0006 7860     		str	r0, [r7, #4]
 634              		.loc 6 154 0
 635 0008 7B68     		ldr	r3, [r7, #4]
 636 000a 03F50153 		add	r3, r3, #8256
 637 000e 1433     		adds	r3, r3, #20
 638 0010 1B68     		ldr	r3, [r3]
 639 0012 3B61     		str	r3, [r7, #16]
 640              		.loc 6 155 0
 641 0014 3B69     		ldr	r3, [r7, #16]
 642 0016 DB68     		ldr	r3, [r3, #12]
 643 0018 FB81     		strh	r3, [r7, #14]	@ movhi
 644              		.loc 6 156 0
 645 001a 3B69     		ldr	r3, [r7, #16]
 646 001c 1B68     		ldr	r3, [r3]
 647 001e FB82     		strh	r3, [r7, #22]	@ movhi
 648              		.loc 6 159 0
 649 0020 FB8A     		ldrh	r3, [r7, #22]
 650 0022 03F48073 		and	r3, r3, #256
 651 0026 002B     		cmp	r3, #0
 652 0028 0ED0     		beq	.L27
 653              		.loc 6 160 0
 654 002a FFF7FEFF 		bl	osalSysLockFromISR
 655              		.loc 6 161 0
 656 002e 7B68     		ldr	r3, [r7, #4]
 657 0030 0433     		adds	r3, r3, #4
 658 0032 1846     		mov	r0, r3
ARM GAS  C:\Users\Luis\AppData\Local\Temp\ccM5yvDE.s 			page 13


 659 0034 4FF40071 		mov	r1, #512
 660 0038 FFF7FEFF 		bl	osalEventBroadcastFlagsI
 661              		.loc 6 162 0
 662 003c 3B69     		ldr	r3, [r7, #16]
 663 003e 6FF48072 		mvn	r2, #256
 664 0042 1A60     		str	r2, [r3]
 665              		.loc 6 163 0
 666 0044 FFF7FEFF 		bl	osalSysUnlockFromISR
 667              	.L27:
 668              		.loc 6 167 0
 669 0048 FFF7FEFF 		bl	osalSysLockFromISR
 670              		.loc 6 168 0
 671 004c 19E0     		b	.L28
 672              	.L31:
 673              	.LBB10:
 674              		.loc 6 173 0
 675 004e FB8A     		ldrh	r3, [r7, #22]
 676 0050 03F00F03 		and	r3, r3, #15
 677 0054 002B     		cmp	r3, #0
 678 0056 04D0     		beq	.L29
 679              		.loc 6 174 0
 680 0058 FB8A     		ldrh	r3, [r7, #22]
 681 005a 7868     		ldr	r0, [r7, #4]
 682 005c 1946     		mov	r1, r3
 683 005e FFF7FEFF 		bl	set_error
 684              	.L29:
 685              		.loc 6 175 0
 686 0062 3B69     		ldr	r3, [r7, #16]
 687 0064 5B68     		ldr	r3, [r3, #4]
 688 0066 7B73     		strb	r3, [r7, #13]
 689              		.loc 6 176 0
 690 0068 FB8A     		ldrh	r3, [r7, #22]
 691 006a 03F02003 		and	r3, r3, #32
 692 006e 002B     		cmp	r3, #0
 693 0070 04D0     		beq	.L30
 694              		.loc 6 177 0
 695 0072 7B7B     		ldrb	r3, [r7, #13]	@ zero_extendqisi2
 696 0074 7868     		ldr	r0, [r7, #4]
 697 0076 1946     		mov	r1, r3
 698 0078 FFF7FEFF 		bl	sdIncomingDataI
 699              	.L30:
 700              		.loc 6 178 0
 701 007c 3B69     		ldr	r3, [r7, #16]
 702 007e 1B68     		ldr	r3, [r3]
 703 0080 FB82     		strh	r3, [r7, #22]	@ movhi
 704              	.L28:
 705              	.LBE10:
 706              		.loc 6 168 0 discriminator 1
 707 0082 FB8A     		ldrh	r3, [r7, #22]
 708 0084 03F02F03 		and	r3, r3, #47
 709 0088 002B     		cmp	r3, #0
 710 008a E0D1     		bne	.L31
 711              		.loc 6 180 0
 712 008c FFF7FEFF 		bl	osalSysUnlockFromISR
 713              		.loc 6 183 0
 714 0090 FB89     		ldrh	r3, [r7, #14]
 715 0092 03F08003 		and	r3, r3, #128
ARM GAS  C:\Users\Luis\AppData\Local\Temp\ccM5yvDE.s 			page 14


 716 0096 002B     		cmp	r3, #0
 717 0098 22D0     		beq	.L32
 718              		.loc 6 183 0 is_stmt 0 discriminator 1
 719 009a FB8A     		ldrh	r3, [r7, #22]
 720 009c 03F08003 		and	r3, r3, #128
 721 00a0 002B     		cmp	r3, #0
 722 00a2 1DD0     		beq	.L32
 723              	.LBB11:
 724              		.loc 6 185 0 is_stmt 1
 725 00a4 FFF7FEFF 		bl	osalSysLockFromISR
 726              		.loc 6 186 0
 727 00a8 7B68     		ldr	r3, [r7, #4]
 728 00aa 3033     		adds	r3, r3, #48
 729 00ac 1846     		mov	r0, r3
 730 00ae FFF7FEFF 		bl	chOQGetI
 731 00b2 B860     		str	r0, [r7, #8]
 732              		.loc 6 187 0
 733 00b4 BB68     		ldr	r3, [r7, #8]
 734 00b6 002B     		cmp	r3, #0
 735 00b8 0DDA     		bge	.L33
 736              		.loc 6 188 0
 737 00ba 7B68     		ldr	r3, [r7, #4]
 738 00bc 0433     		adds	r3, r3, #4
 739 00be 1846     		mov	r0, r3
 740 00c0 0821     		movs	r1, #8
 741 00c2 FFF7FEFF 		bl	osalEventBroadcastFlagsI
 742              		.loc 6 189 0
 743 00c6 FB89     		ldrh	r3, [r7, #14]
 744 00c8 23F0C003 		bic	r3, r3, #192
 745 00cc 43F04002 		orr	r2, r3, #64
 746 00d0 3B69     		ldr	r3, [r7, #16]
 747 00d2 DA60     		str	r2, [r3, #12]
 748 00d4 02E0     		b	.L34
 749              	.L33:
 750              		.loc 6 192 0
 751 00d6 BA68     		ldr	r2, [r7, #8]
 752 00d8 3B69     		ldr	r3, [r7, #16]
 753 00da 5A60     		str	r2, [r3, #4]
 754              	.L34:
 755              		.loc 6 193 0
 756 00dc FFF7FEFF 		bl	osalSysUnlockFromISR
 757              	.L32:
 758              	.LBE11:
 759              		.loc 6 197 0
 760 00e0 FB8A     		ldrh	r3, [r7, #22]
 761 00e2 03F04003 		and	r3, r3, #64
 762 00e6 002B     		cmp	r3, #0
 763 00e8 1AD0     		beq	.L26
 764              		.loc 6 198 0
 765 00ea FFF7FEFF 		bl	osalSysLockFromISR
 766              		.loc 6 199 0
 767 00ee 7B68     		ldr	r3, [r7, #4]
 768 00f0 3033     		adds	r3, r3, #48
 769 00f2 1846     		mov	r0, r3
 770 00f4 FFF7FEFF 		bl	chOQIsEmptyI
 771 00f8 0346     		mov	r3, r0
 772 00fa 002B     		cmp	r3, #0
ARM GAS  C:\Users\Luis\AppData\Local\Temp\ccM5yvDE.s 			page 15


 773 00fc 05D0     		beq	.L36
 774              		.loc 6 200 0
 775 00fe 7B68     		ldr	r3, [r7, #4]
 776 0100 0433     		adds	r3, r3, #4
 777 0102 1846     		mov	r0, r3
 778 0104 1021     		movs	r1, #16
 779 0106 FFF7FEFF 		bl	osalEventBroadcastFlagsI
 780              	.L36:
 781              		.loc 6 201 0
 782 010a FB89     		ldrh	r3, [r7, #14]
 783 010c 23F04002 		bic	r2, r3, #64
 784 0110 3B69     		ldr	r3, [r7, #16]
 785 0112 DA60     		str	r2, [r3, #12]
 786              		.loc 6 202 0
 787 0114 3B69     		ldr	r3, [r7, #16]
 788 0116 6FF04002 		mvn	r2, #64
 789 011a 1A60     		str	r2, [r3]
 790              		.loc 6 203 0
 791 011c FFF7FEFF 		bl	osalSysUnlockFromISR
 792              	.L26:
 793              		.loc 6 205 0
 794 0120 1837     		adds	r7, r7, #24
 795 0122 BD46     		mov	sp, r7
 796              		@ sp needed
 797 0124 80BD     		pop	{r7, pc}
 798              		.cfi_endproc
 799              	.LFE263:
 800              		.size	serve_interrupt, .-serve_interrupt
 801 0126 00BFAFF3 		.section	.text.notify1,"ax",%progbits
 801      0080AFF3 
 801      0080
 802              		.align	2
 803              		.p2align 4,,15
 804              		.thumb
 805              		.thumb_func
 806              		.type	notify1, %function
 807              	notify1:
 808              	.LFB264:
 809              		.loc 6 208 0
 810              		.cfi_startproc
 811              		@ args = 0, pretend = 0, frame = 8
 812              		@ frame_needed = 1, uses_anonymous_args = 0
 813              		@ link register save eliminated.
 814 0000 80B4     		push	{r7}
 815              		.cfi_def_cfa_offset 4
 816              		.cfi_offset 7, -4
 817 0002 83B0     		sub	sp, sp, #12
 818              		.cfi_def_cfa_offset 16
 819 0004 00AF     		add	r7, sp, #0
 820              		.cfi_def_cfa_register 7
 821 0006 7860     		str	r0, [r7, #4]
 822              		.loc 6 211 0
 823 0008 054B     		ldr	r3, .L38
 824 000a 054A     		ldr	r2, .L38
 825 000c D268     		ldr	r2, [r2, #12]
 826 000e 42F08002 		orr	r2, r2, #128
 827 0012 DA60     		str	r2, [r3, #12]
ARM GAS  C:\Users\Luis\AppData\Local\Temp\ccM5yvDE.s 			page 16


 828              		.loc 6 212 0
 829 0014 0C37     		adds	r7, r7, #12
 830 0016 BD46     		mov	sp, r7
 831              		@ sp needed
 832 0018 5DF8047B 		ldr	r7, [sp], #4
 833 001c 7047     		bx	lr
 834              	.L39:
 835 001e 00BF     		.align	2
 836              	.L38:
 837 0020 00100140 		.word	1073811456
 838              		.cfi_endproc
 839              	.LFE264:
 840              		.size	notify1, .-notify1
 841 0024 AFF30080 		.section	.text.notify4,"ax",%progbits
 841      AFF30080 
 841      AFF30080 
 842              		.align	2
 843              		.p2align 4,,15
 844              		.thumb
 845              		.thumb_func
 846              		.type	notify4, %function
 847              	notify4:
 848              	.LFB265:
 849              		.loc 6 232 0
 850              		.cfi_startproc
 851              		@ args = 0, pretend = 0, frame = 8
 852              		@ frame_needed = 1, uses_anonymous_args = 0
 853              		@ link register save eliminated.
 854 0000 80B4     		push	{r7}
 855              		.cfi_def_cfa_offset 4
 856              		.cfi_offset 7, -4
 857 0002 83B0     		sub	sp, sp, #12
 858              		.cfi_def_cfa_offset 16
 859 0004 00AF     		add	r7, sp, #0
 860              		.cfi_def_cfa_register 7
 861 0006 7860     		str	r0, [r7, #4]
 862              		.loc 6 235 0
 863 0008 054B     		ldr	r3, .L41
 864 000a 054A     		ldr	r2, .L41
 865 000c D268     		ldr	r2, [r2, #12]
 866 000e 42F08002 		orr	r2, r2, #128
 867 0012 DA60     		str	r2, [r3, #12]
 868              		.loc 6 236 0
 869 0014 0C37     		adds	r7, r7, #12
 870 0016 BD46     		mov	sp, r7
 871              		@ sp needed
 872 0018 5DF8047B 		ldr	r7, [sp], #4
 873 001c 7047     		bx	lr
 874              	.L42:
 875 001e 00BF     		.align	2
 876              	.L41:
 877 0020 004C0040 		.word	1073761280
 878              		.cfi_endproc
 879              	.LFE265:
 880              		.size	notify4, .-notify4
 881 0024 AFF30080 		.section	.text.VectorD4,"ax",%progbits
 881      AFF30080 
ARM GAS  C:\Users\Luis\AppData\Local\Temp\ccM5yvDE.s 			page 17


 881      AFF30080 
 882              		.align	2
 883              		.p2align 4,,15
 884              		.global	VectorD4
 885              		.thumb
 886              		.thumb_func
 887              		.type	VectorD4, %function
 888              	VectorD4:
 889              	.LFB266:
 890              		.loc 6 268 0
 891              		.cfi_startproc
 892              		@ args = 0, pretend = 0, frame = 0
 893              		@ frame_needed = 1, uses_anonymous_args = 0
 894 0000 80B5     		push	{r7, lr}
 895              		.cfi_def_cfa_offset 8
 896              		.cfi_offset 7, -8
 897              		.cfi_offset 14, -4
 898 0002 00AF     		add	r7, sp, #0
 899              		.cfi_def_cfa_register 7
 900              		.loc 6 270 0
 901 0004 FFF7FEFF 		bl	_stats_increase_irq
 902 0008 FFF7FEFF 		bl	_dbg_check_enter_isr
 903              		.loc 6 272 0
 904 000c 0348     		ldr	r0, .L44
 905 000e FFF7FEFF 		bl	serve_interrupt
 906              		.loc 6 274 0
 907 0012 FFF7FEFF 		bl	_dbg_check_leave_isr
 908 0016 FFF7FEFF 		bl	_port_irq_epilogue
 909              		.loc 6 275 0
 910 001a 80BD     		pop	{r7, pc}
 911              	.L45:
 912              		.align	2
 913              	.L44:
 914 001c 00000000 		.word	SD1
 915              		.cfi_endproc
 916              	.LFE266:
 917              		.size	VectorD4, .-VectorD4
 918              		.section	.text.Vector110,"ax",%progbits
 919              		.align	2
 920              		.p2align 4,,15
 921              		.global	Vector110
 922              		.thumb
 923              		.thumb_func
 924              		.type	Vector110, %function
 925              	Vector110:
 926              	.LFB267:
 927              		.loc 6 325 0
 928              		.cfi_startproc
 929              		@ args = 0, pretend = 0, frame = 0
 930              		@ frame_needed = 1, uses_anonymous_args = 0
 931 0000 80B5     		push	{r7, lr}
 932              		.cfi_def_cfa_offset 8
 933              		.cfi_offset 7, -8
 934              		.cfi_offset 14, -4
 935 0002 00AF     		add	r7, sp, #0
 936              		.cfi_def_cfa_register 7
 937              		.loc 6 327 0
ARM GAS  C:\Users\Luis\AppData\Local\Temp\ccM5yvDE.s 			page 18


 938 0004 FFF7FEFF 		bl	_stats_increase_irq
 939 0008 FFF7FEFF 		bl	_dbg_check_enter_isr
 940              		.loc 6 329 0
 941 000c 0348     		ldr	r0, .L47
 942 000e FFF7FEFF 		bl	serve_interrupt
 943              		.loc 6 331 0
 944 0012 FFF7FEFF 		bl	_dbg_check_leave_isr
 945 0016 FFF7FEFF 		bl	_port_irq_epilogue
 946              		.loc 6 332 0
 947 001a 80BD     		pop	{r7, pc}
 948              	.L48:
 949              		.align	2
 950              	.L47:
 951 001c 00000000 		.word	SD4
 952              		.cfi_endproc
 953              	.LFE267:
 954              		.size	Vector110, .-Vector110
 955              		.section	.text.sd_lld_init,"ax",%progbits
 956              		.align	2
 957              		.p2align 4,,15
 958              		.global	sd_lld_init
 959              		.thumb
 960              		.thumb_func
 961              		.type	sd_lld_init, %function
 962              	sd_lld_init:
 963              	.LFB268:
 964              		.loc 6 382 0
 965              		.cfi_startproc
 966              		@ args = 0, pretend = 0, frame = 0
 967              		@ frame_needed = 1, uses_anonymous_args = 0
 968 0000 80B5     		push	{r7, lr}
 969              		.cfi_def_cfa_offset 8
 970              		.cfi_offset 7, -8
 971              		.cfi_offset 14, -4
 972 0002 00AF     		add	r7, sp, #0
 973              		.cfi_def_cfa_register 7
 974              		.loc 6 385 0
 975 0004 0B48     		ldr	r0, .L50
 976 0006 0021     		movs	r1, #0
 977 0008 0B4A     		ldr	r2, .L50+4
 978 000a FFF7FEFF 		bl	sdObjectInit
 979              		.loc 6 386 0
 980 000e 094B     		ldr	r3, .L50
 981 0010 03F50153 		add	r3, r3, #8256
 982 0014 1433     		adds	r3, r3, #20
 983 0016 094A     		ldr	r2, .L50+8
 984 0018 1A60     		str	r2, [r3]
 985              		.loc 6 400 0
 986 001a 0948     		ldr	r0, .L50+12
 987 001c 0021     		movs	r1, #0
 988 001e 094A     		ldr	r2, .L50+16
 989 0020 FFF7FEFF 		bl	sdObjectInit
 990              		.loc 6 401 0
 991 0024 064B     		ldr	r3, .L50+12
 992 0026 03F50153 		add	r3, r3, #8256
 993 002a 1433     		adds	r3, r3, #20
 994 002c 064A     		ldr	r2, .L50+20
ARM GAS  C:\Users\Luis\AppData\Local\Temp\ccM5yvDE.s 			page 19


 995 002e 1A60     		str	r2, [r3]
 996              		.loc 6 413 0
 997 0030 80BD     		pop	{r7, pc}
 998              	.L51:
 999 0032 00BF     		.align	2
 1000              	.L50:
 1001 0034 00000000 		.word	SD1
 1002 0038 00000000 		.word	notify1
 1003 003c 00100140 		.word	1073811456
 1004 0040 00000000 		.word	SD4
 1005 0044 00000000 		.word	notify4
 1006 0048 004C0040 		.word	1073761280
 1007              		.cfi_endproc
 1008              	.LFE268:
 1009              		.size	sd_lld_init, .-sd_lld_init
 1010 004c AFF30080 		.section	.text.sd_lld_start,"ax",%progbits
 1011              		.align	2
 1012              		.p2align 4,,15
 1013              		.global	sd_lld_start
 1014              		.thumb
 1015              		.thumb_func
 1016              		.type	sd_lld_start, %function
 1017              	sd_lld_start:
 1018              	.LFB269:
 1019              		.loc 6 425 0
 1020              		.cfi_startproc
 1021              		@ args = 0, pretend = 0, frame = 8
 1022              		@ frame_needed = 1, uses_anonymous_args = 0
 1023 0000 80B5     		push	{r7, lr}
 1024              		.cfi_def_cfa_offset 8
 1025              		.cfi_offset 7, -8
 1026              		.cfi_offset 14, -4
 1027 0002 82B0     		sub	sp, sp, #8
 1028              		.cfi_def_cfa_offset 16
 1029 0004 00AF     		add	r7, sp, #0
 1030              		.cfi_def_cfa_register 7
 1031 0006 7860     		str	r0, [r7, #4]
 1032 0008 3960     		str	r1, [r7]
 1033              		.loc 6 427 0
 1034 000a 3B68     		ldr	r3, [r7]
 1035 000c 002B     		cmp	r3, #0
 1036 000e 01D1     		bne	.L53
 1037              		.loc 6 428 0
 1038 0010 144B     		ldr	r3, .L56
 1039 0012 3B60     		str	r3, [r7]
 1040              	.L53:
 1041              		.loc 6 430 0
 1042 0014 7B68     		ldr	r3, [r7, #4]
 1043 0016 1B7A     		ldrb	r3, [r3, #8]	@ zero_extendqisi2
 1044 0018 012B     		cmp	r3, #1
 1045 001a 1BD1     		bne	.L54
 1046              		.loc 6 432 0
 1047 001c 7A68     		ldr	r2, [r7, #4]
 1048 001e 124B     		ldr	r3, .L56+4
 1049 0020 9A42     		cmp	r2, r3
 1050 0022 09D1     		bne	.L55
 1051              		.loc 6 433 0
ARM GAS  C:\Users\Luis\AppData\Local\Temp\ccM5yvDE.s 			page 20


 1052 0024 114B     		ldr	r3, .L56+8
 1053 0026 114A     		ldr	r2, .L56+8
 1054 0028 526C     		ldr	r2, [r2, #68]
 1055 002a 42F01002 		orr	r2, r2, #16
 1056 002e 5A64     		str	r2, [r3, #68]
 1057              		.loc 6 434 0
 1058 0030 2520     		movs	r0, #37
 1059 0032 0C21     		movs	r1, #12
 1060 0034 FFF7FEFF 		bl	nvicEnableVector
 1061              	.L55:
 1062              		.loc 6 450 0
 1063 0038 7A68     		ldr	r2, [r7, #4]
 1064 003a 0D4B     		ldr	r3, .L56+12
 1065 003c 9A42     		cmp	r2, r3
 1066 003e 09D1     		bne	.L54
 1067              		.loc 6 451 0
 1068 0040 0A4B     		ldr	r3, .L56+8
 1069 0042 0A4A     		ldr	r2, .L56+8
 1070 0044 126C     		ldr	r2, [r2, #64]
 1071 0046 42F40022 		orr	r2, r2, #524288
 1072 004a 1A64     		str	r2, [r3, #64]
 1073              		.loc 6 452 0
 1074 004c 3420     		movs	r0, #52
 1075 004e 0C21     		movs	r1, #12
 1076 0050 FFF7FEFF 		bl	nvicEnableVector
 1077              	.L54:
 1078              		.loc 6 468 0
 1079 0054 7868     		ldr	r0, [r7, #4]
 1080 0056 3968     		ldr	r1, [r7]
 1081 0058 FFF7FEFF 		bl	usart_init
 1082              		.loc 6 469 0
 1083 005c 0837     		adds	r7, r7, #8
 1084 005e BD46     		mov	sp, r7
 1085              		@ sp needed
 1086 0060 80BD     		pop	{r7, pc}
 1087              	.L57:
 1088 0062 00BF     		.align	2
 1089              	.L56:
 1090 0064 00000000 		.word	default_config
 1091 0068 00000000 		.word	SD1
 1092 006c 00380240 		.word	1073887232
 1093 0070 00000000 		.word	SD4
 1094              		.cfi_endproc
 1095              	.LFE269:
 1096              		.size	sd_lld_start, .-sd_lld_start
 1097 0074 AFF30080 		.section	.text.sd_lld_stop,"ax",%progbits
 1097      AFF30080 
 1097      AFF30080 
 1098              		.align	2
 1099              		.p2align 4,,15
 1100              		.global	sd_lld_stop
 1101              		.thumb
 1102              		.thumb_func
 1103              		.type	sd_lld_stop, %function
 1104              	sd_lld_stop:
 1105              	.LFB270:
 1106              		.loc 6 480 0
ARM GAS  C:\Users\Luis\AppData\Local\Temp\ccM5yvDE.s 			page 21


 1107              		.cfi_startproc
 1108              		@ args = 0, pretend = 0, frame = 8
 1109              		@ frame_needed = 1, uses_anonymous_args = 0
 1110 0000 80B5     		push	{r7, lr}
 1111              		.cfi_def_cfa_offset 8
 1112              		.cfi_offset 7, -8
 1113              		.cfi_offset 14, -4
 1114 0002 82B0     		sub	sp, sp, #8
 1115              		.cfi_def_cfa_offset 16
 1116 0004 00AF     		add	r7, sp, #0
 1117              		.cfi_def_cfa_register 7
 1118 0006 7860     		str	r0, [r7, #4]
 1119              		.loc 6 482 0
 1120 0008 7B68     		ldr	r3, [r7, #4]
 1121 000a 1B7A     		ldrb	r3, [r3, #8]	@ zero_extendqisi2
 1122 000c 022B     		cmp	r3, #2
 1123 000e 23D1     		bne	.L58
 1124              		.loc 6 483 0
 1125 0010 7B68     		ldr	r3, [r7, #4]
 1126 0012 03F50153 		add	r3, r3, #8256
 1127 0016 1433     		adds	r3, r3, #20
 1128 0018 1B68     		ldr	r3, [r3]
 1129 001a 1846     		mov	r0, r3
 1130 001c FFF7FEFF 		bl	usart_deinit
 1131              		.loc 6 485 0
 1132 0020 7A68     		ldr	r2, [r7, #4]
 1133 0022 0F4B     		ldr	r3, .L61
 1134 0024 9A42     		cmp	r2, r3
 1135 0026 09D1     		bne	.L60
 1136              		.loc 6 486 0
 1137 0028 0E4B     		ldr	r3, .L61+4
 1138 002a 0E4A     		ldr	r2, .L61+4
 1139 002c 526C     		ldr	r2, [r2, #68]
 1140 002e 22F01002 		bic	r2, r2, #16
 1141 0032 5A64     		str	r2, [r3, #68]
 1142              		.loc 6 487 0
 1143 0034 2520     		movs	r0, #37
 1144 0036 FFF7FEFF 		bl	nvicDisableVector
 1145              		.loc 6 488 0
 1146 003a 0DE0     		b	.L58
 1147              	.L60:
 1148              		.loc 6 506 0
 1149 003c 7A68     		ldr	r2, [r7, #4]
 1150 003e 0A4B     		ldr	r3, .L61+8
 1151 0040 9A42     		cmp	r2, r3
 1152 0042 09D1     		bne	.L58
 1153              		.loc 6 507 0
 1154 0044 074B     		ldr	r3, .L61+4
 1155 0046 074A     		ldr	r2, .L61+4
 1156 0048 126C     		ldr	r2, [r2, #64]
 1157 004a 22F40022 		bic	r2, r2, #524288
 1158 004e 1A64     		str	r2, [r3, #64]
 1159              		.loc 6 508 0
 1160 0050 3420     		movs	r0, #52
 1161 0052 FFF7FEFF 		bl	nvicDisableVector
 1162              		.loc 6 509 0
 1163 0056 00BF     		nop
ARM GAS  C:\Users\Luis\AppData\Local\Temp\ccM5yvDE.s 			page 22


 1164              	.L58:
 1165              		.loc 6 527 0
 1166 0058 0837     		adds	r7, r7, #8
 1167 005a BD46     		mov	sp, r7
 1168              		@ sp needed
 1169 005c 80BD     		pop	{r7, pc}
 1170              	.L62:
 1171 005e 00BF     		.align	2
 1172              	.L61:
 1173 0060 00000000 		.word	SD1
 1174 0064 00380240 		.word	1073887232
 1175 0068 00000000 		.word	SD4
 1176              		.cfi_endproc
 1177              	.LFE270:
 1178              		.size	sd_lld_stop, .-sd_lld_stop
 1179 006c AFF30080 		.text
 1180              	.Letext0:
 1181              		.file 7 "c:\\emtechesdk\\gcc\\lib\\gcc\\arm-none-eabi\\4.8.3\\include\\stddef.h"
 1182              		.file 8 "c:\\emtechesdk\\gcc\\arm-none-eabi\\include\\stdint.h"
 1183              		.file 9 "../../ChibiOS/os/rt/ports/ARMCMx/compilers/GCC/chtypes.h"
 1184              		.file 10 "../../ChibiOS/os/rt/include/chsystypes.h"
 1185              		.file 11 "../../ChibiOS/os/rt/include/chschd.h"
 1186              		.file 12 "../../ChibiOS/os/ext/CMSIS/ST/stm32f407xx.h"
 1187              		.file 13 "../../ChibiOS/os/rt/ports/ARMCMx/chcore.h"
 1188              		.file 14 "../../ChibiOS/os/rt/include/chdebug.h"
 1189              		.file 15 "../../ChibiOS/os/rt/include/chtm.h"
 1190              		.file 16 "../../ChibiOS/os/rt/include/chstats.h"
 1191              		.file 17 "../../ChibiOS/os/rt/include/chsem.h"
 1192              		.file 18 "../../ChibiOS/os/rt/include/chmtx.h"
 1193              		.file 19 "../../ChibiOS/os/rt/include/chevents.h"
 1194              		.file 20 "../../ChibiOS/os/hal/include/serial.h"
 1195              		.file 21 "../../ChibiOS/os/hal/ports/STM32/LLD/USARTv1/serial_lld.h"
 1196              		.file 22 "../../ChibiOS/os/ext/CMSIS/include/core_cm4.h"