ARM GAS  C:\Users\Luis\AppData\Local\Temp\ccEujqcQ.s 			page 1


   1              		.syntax unified
   2              		.cpu cortex-m4
   3              		.fpu softvfp
   4              		.eabi_attribute 20, 1
   5              		.eabi_attribute 21, 1
   6              		.eabi_attribute 23, 3
   7              		.eabi_attribute 24, 1
   8              		.eabi_attribute 25, 1
   9              		.eabi_attribute 26, 1
  10              		.eabi_attribute 30, 6
  11              		.eabi_attribute 34, 1
  12              		.eabi_attribute 18, 4
  13              		.thumb
  14              		.file	"serial.c"
  15              		.text
  16              	.Ltext0:
  17              		.cfi_sections	.debug_frame
  18              		.section	.text.port_lock,"ax",%progbits
  19              		.align	2
  20              		.p2align 4,,15
  21              		.thumb
  22              		.thumb_func
  23              		.type	port_lock, %function
  24              	port_lock:
  25              	.LFB116:
  26              		.file 1 "../../ChibiOS/os/rt/ports/ARMCMx/chcore_v7m.h"
  27              		.loc 1 444 0
  28              		.cfi_startproc
  29              		@ args = 0, pretend = 0, frame = 8
  30              		@ frame_needed = 1, uses_anonymous_args = 0
  31              		@ link register save eliminated.
  32 0000 80B4     		push	{r7}
  33              		.cfi_def_cfa_offset 4
  34              		.cfi_offset 7, -4
  35 0002 83B0     		sub	sp, sp, #12
  36              		.cfi_def_cfa_offset 16
  37 0004 00AF     		add	r7, sp, #0
  38              		.cfi_def_cfa_register 7
  39 0006 2023     		movs	r3, #32
  40 0008 7B60     		str	r3, [r7, #4]
  41              	.LBB6:
  42              	.LBB7:
  43              		.file 2 "../../ChibiOS/os/ext/CMSIS/include/core_cmFunc.h"
  44              		.loc 2 546 0
  45 000a 7B68     		ldr	r3, [r7, #4]
  46              	@ 546 "../../ChibiOS/os/ext/CMSIS/include/core_cmFunc.h" 1
  47 000c 83F31188 		MSR basepri, r3
  48              	@ 0 "" 2
  49              		.thumb
  50              	.LBE7:
  51              	.LBE6:
  52              		.loc 1 451 0
  53 0010 0C37     		adds	r7, r7, #12
  54 0012 BD46     		mov	sp, r7
  55              		@ sp needed
  56 0014 5DF8047B 		ldr	r7, [sp], #4
  57 0018 7047     		bx	lr
ARM GAS  C:\Users\Luis\AppData\Local\Temp\ccEujqcQ.s 			page 2


  58              		.cfi_endproc
  59              	.LFE116:
  60              		.size	port_lock, .-port_lock
  61 001a 00BFAFF3 		.section	.text.port_unlock,"ax",%progbits
  61      0080
  62              		.align	2
  63              		.p2align 4,,15
  64              		.thumb
  65              		.thumb_func
  66              		.type	port_unlock, %function
  67              	port_unlock:
  68              	.LFB117:
  69              		.loc 1 458 0
  70              		.cfi_startproc
  71              		@ args = 0, pretend = 0, frame = 8
  72              		@ frame_needed = 1, uses_anonymous_args = 0
  73              		@ link register save eliminated.
  74 0000 80B4     		push	{r7}
  75              		.cfi_def_cfa_offset 4
  76              		.cfi_offset 7, -4
  77 0002 83B0     		sub	sp, sp, #12
  78              		.cfi_def_cfa_offset 16
  79 0004 00AF     		add	r7, sp, #0
  80              		.cfi_def_cfa_register 7
  81 0006 0023     		movs	r3, #0
  82 0008 7B60     		str	r3, [r7, #4]
  83              	.LBB8:
  84              	.LBB9:
  85              		.loc 2 546 0
  86 000a 7B68     		ldr	r3, [r7, #4]
  87              	@ 546 "../../ChibiOS/os/ext/CMSIS/include/core_cmFunc.h" 1
  88 000c 83F31188 		MSR basepri, r3
  89              	@ 0 "" 2
  90              		.thumb
  91              	.LBE9:
  92              	.LBE8:
  93              		.loc 1 465 0
  94 0010 0C37     		adds	r7, r7, #12
  95 0012 BD46     		mov	sp, r7
  96              		@ sp needed
  97 0014 5DF8047B 		ldr	r7, [sp], #4
  98 0018 7047     		bx	lr
  99              		.cfi_endproc
 100              	.LFE117:
 101              		.size	port_unlock, .-port_unlock
 102 001a 00BFAFF3 		.section	.text.chSysLock,"ax",%progbits
 102      0080
 103              		.align	2
 104              		.p2align 4,,15
 105              		.thumb
 106              		.thumb_func
 107              		.type	chSysLock, %function
 108              	chSysLock:
 109              	.LFB156:
 110              		.file 3 "../../ChibiOS/os/rt/include/chsys.h"
 111              		.loc 3 346 0
 112              		.cfi_startproc
ARM GAS  C:\Users\Luis\AppData\Local\Temp\ccEujqcQ.s 			page 3


 113              		@ args = 0, pretend = 0, frame = 0
 114              		@ frame_needed = 1, uses_anonymous_args = 0
 115 0000 80B5     		push	{r7, lr}
 116              		.cfi_def_cfa_offset 8
 117              		.cfi_offset 7, -8
 118              		.cfi_offset 14, -4
 119 0002 00AF     		add	r7, sp, #0
 120              		.cfi_def_cfa_register 7
 121              		.loc 3 348 0
 122 0004 FFF7FEFF 		bl	port_lock
 123              		.loc 3 349 0
 124 0008 FFF7FEFF 		bl	_stats_start_measure_crit_thd
 125              		.loc 3 350 0
 126 000c FFF7FEFF 		bl	_dbg_check_lock
 127              		.loc 3 351 0
 128 0010 80BD     		pop	{r7, pc}
 129              		.cfi_endproc
 130              	.LFE156:
 131              		.size	chSysLock, .-chSysLock
 132 0012 00BFAFF3 		.section	.text.chSysUnlock,"ax",%progbits
 132      0080AFF3 
 132      0080AFF3 
 132      0080
 133              		.align	2
 134              		.p2align 4,,15
 135              		.thumb
 136              		.thumb_func
 137              		.type	chSysUnlock, %function
 138              	chSysUnlock:
 139              	.LFB157:
 140              		.loc 3 358 0
 141              		.cfi_startproc
 142              		@ args = 0, pretend = 0, frame = 0
 143              		@ frame_needed = 1, uses_anonymous_args = 0
 144 0000 80B5     		push	{r7, lr}
 145              		.cfi_def_cfa_offset 8
 146              		.cfi_offset 7, -8
 147              		.cfi_offset 14, -4
 148 0002 00AF     		add	r7, sp, #0
 149              		.cfi_def_cfa_register 7
 150              		.loc 3 360 0
 151 0004 FFF7FEFF 		bl	_dbg_check_unlock
 152              		.loc 3 361 0
 153 0008 FFF7FEFF 		bl	_stats_stop_measure_crit_thd
 154              		.loc 3 367 0
 155 000c 094B     		ldr	r3, .L6
 156 000e 1A68     		ldr	r2, [r3]
 157 0010 084B     		ldr	r3, .L6
 158 0012 9A42     		cmp	r2, r3
 159 0014 0AD0     		beq	.L5
 160              		.loc 3 367 0 is_stmt 0 discriminator 1
 161 0016 074B     		ldr	r3, .L6
 162 0018 9B69     		ldr	r3, [r3, #24]
 163 001a 9A68     		ldr	r2, [r3, #8]
 164 001c 054B     		ldr	r3, .L6
 165 001e 1B68     		ldr	r3, [r3]
 166 0020 9B68     		ldr	r3, [r3, #8]
ARM GAS  C:\Users\Luis\AppData\Local\Temp\ccEujqcQ.s 			page 4


 167 0022 9A42     		cmp	r2, r3
 168 0024 02D2     		bcs	.L5
 169 0026 0448     		ldr	r0, .L6+4
 170 0028 FFF7FEFF 		bl	chSysHalt
 171              	.L5:
 172              		.loc 3 371 0 is_stmt 1
 173 002c FFF7FEFF 		bl	port_unlock
 174              		.loc 3 372 0
 175 0030 80BD     		pop	{r7, pc}
 176              	.L7:
 177 0032 00BF     		.align	2
 178              	.L6:
 179 0034 00000000 		.word	ch
 180 0038 00000000 		.word	__func__.5842
 181              		.cfi_endproc
 182              	.LFE157:
 183              		.size	chSysUnlock, .-chSysUnlock
 184 003c AFF30080 		.section	.text.chEvtObjectInit,"ax",%progbits
 185              		.align	2
 186              		.p2align 4,,15
 187              		.thumb
 188              		.thumb_func
 189              		.type	chEvtObjectInit, %function
 190              	chEvtObjectInit:
 191              	.LFB204:
 192              		.file 4 "../../ChibiOS/os/rt/include/chevents.h"
 193              		.loc 4 170 0
 194              		.cfi_startproc
 195              		@ args = 0, pretend = 0, frame = 8
 196              		@ frame_needed = 1, uses_anonymous_args = 0
 197              		@ link register save eliminated.
 198 0000 80B4     		push	{r7}
 199              		.cfi_def_cfa_offset 4
 200              		.cfi_offset 7, -4
 201 0002 83B0     		sub	sp, sp, #12
 202              		.cfi_def_cfa_offset 16
 203 0004 00AF     		add	r7, sp, #0
 204              		.cfi_def_cfa_register 7
 205 0006 7860     		str	r0, [r7, #4]
 206              		.loc 4 172 0
 207 0008 7B68     		ldr	r3, [r7, #4]
 208 000a 7A68     		ldr	r2, [r7, #4]
 209 000c 1A60     		str	r2, [r3]
 210              		.loc 4 173 0
 211 000e 0C37     		adds	r7, r7, #12
 212 0010 BD46     		mov	sp, r7
 213              		@ sp needed
 214 0012 5DF8047B 		ldr	r7, [sp], #4
 215 0016 7047     		bx	lr
 216              		.cfi_endproc
 217              	.LFE204:
 218              		.size	chEvtObjectInit, .-chEvtObjectInit
 219 0018 AFF30080 		.section	.text.chIQIsEmptyI,"ax",%progbits
 219      AFF30080 
 220              		.align	2
 221              		.p2align 4,,15
 222              		.thumb
ARM GAS  C:\Users\Luis\AppData\Local\Temp\ccEujqcQ.s 			page 5


 223              		.thumb_func
 224              		.type	chIQIsEmptyI, %function
 225              	chIQIsEmptyI:
 226              	.LFB221:
 227              		.file 5 "../../ChibiOS/os/rt/include/chqueues.h"
 228              		.loc 5 303 0
 229              		.cfi_startproc
 230              		@ args = 0, pretend = 0, frame = 8
 231              		@ frame_needed = 1, uses_anonymous_args = 0
 232 0000 80B5     		push	{r7, lr}
 233              		.cfi_def_cfa_offset 8
 234              		.cfi_offset 7, -8
 235              		.cfi_offset 14, -4
 236 0002 82B0     		sub	sp, sp, #8
 237              		.cfi_def_cfa_offset 16
 238 0004 00AF     		add	r7, sp, #0
 239              		.cfi_def_cfa_register 7
 240 0006 7860     		str	r0, [r7, #4]
 241              		.loc 5 305 0
 242 0008 FFF7FEFF 		bl	chDbgCheckClassI
 243              		.loc 5 307 0
 244 000c 7B68     		ldr	r3, [r7, #4]
 245 000e 9B68     		ldr	r3, [r3, #8]
 246 0010 002B     		cmp	r3, #0
 247 0012 14BF     		ite	ne
 248 0014 0023     		movne	r3, #0
 249 0016 0123     		moveq	r3, #1
 250 0018 DBB2     		uxtb	r3, r3
 251              		.loc 5 308 0
 252 001a 1846     		mov	r0, r3
 253 001c 0837     		adds	r7, r7, #8
 254 001e BD46     		mov	sp, r7
 255              		@ sp needed
 256 0020 80BD     		pop	{r7, pc}
 257              		.cfi_endproc
 258              	.LFE221:
 259              		.size	chIQIsEmptyI, .-chIQIsEmptyI
 260 0022 00BFAFF3 		.section	.text.osalSysLock,"ax",%progbits
 260      0080AFF3 
 260      0080AFF3 
 260      0080
 261              		.align	2
 262              		.p2align 4,,15
 263              		.thumb
 264              		.thumb_func
 265              		.type	osalSysLock, %function
 266              	osalSysLock:
 267              	.LFB233:
 268              		.file 6 "../../ChibiOS/os/hal/osal/rt/osal.h"
 269              		.loc 6 491 0
 270              		.cfi_startproc
 271              		@ args = 0, pretend = 0, frame = 0
 272              		@ frame_needed = 1, uses_anonymous_args = 0
 273 0000 80B5     		push	{r7, lr}
 274              		.cfi_def_cfa_offset 8
 275              		.cfi_offset 7, -8
 276              		.cfi_offset 14, -4
ARM GAS  C:\Users\Luis\AppData\Local\Temp\ccEujqcQ.s 			page 6


 277 0002 00AF     		add	r7, sp, #0
 278              		.cfi_def_cfa_register 7
 279              		.loc 6 493 0
 280 0004 FFF7FEFF 		bl	chSysLock
 281              		.loc 6 494 0
 282 0008 80BD     		pop	{r7, pc}
 283              		.cfi_endproc
 284              	.LFE233:
 285              		.size	osalSysLock, .-osalSysLock
 286 000a 00BFAFF3 		.section	.text.osalSysUnlock,"ax",%progbits
 286      0080
 287              		.align	2
 288              		.p2align 4,,15
 289              		.thumb
 290              		.thumb_func
 291              		.type	osalSysUnlock, %function
 292              	osalSysUnlock:
 293              	.LFB234:
 294              		.loc 6 502 0
 295              		.cfi_startproc
 296              		@ args = 0, pretend = 0, frame = 0
 297              		@ frame_needed = 1, uses_anonymous_args = 0
 298 0000 80B5     		push	{r7, lr}
 299              		.cfi_def_cfa_offset 8
 300              		.cfi_offset 7, -8
 301              		.cfi_offset 14, -4
 302 0002 00AF     		add	r7, sp, #0
 303              		.cfi_def_cfa_register 7
 304              		.loc 6 504 0
 305 0004 FFF7FEFF 		bl	chSysUnlock
 306              		.loc 6 505 0
 307 0008 80BD     		pop	{r7, pc}
 308              		.cfi_endproc
 309              	.LFE234:
 310              		.size	osalSysUnlock, .-osalSysUnlock
 311 000a 00BFAFF3 		.section	.text.osalOsRescheduleS,"ax",%progbits
 311      0080
 312              		.align	2
 313              		.p2align 4,,15
 314              		.thumb
 315              		.thumb_func
 316              		.type	osalOsRescheduleS, %function
 317              	osalOsRescheduleS:
 318              	.LFB241:
 319              		.loc 6 598 0
 320              		.cfi_startproc
 321              		@ args = 0, pretend = 0, frame = 0
 322              		@ frame_needed = 1, uses_anonymous_args = 0
 323 0000 80B5     		push	{r7, lr}
 324              		.cfi_def_cfa_offset 8
 325              		.cfi_offset 7, -8
 326              		.cfi_offset 14, -4
 327 0002 00AF     		add	r7, sp, #0
 328              		.cfi_def_cfa_register 7
 329              		.loc 6 600 0
 330 0004 FFF7FEFF 		bl	chSchRescheduleS
 331              		.loc 6 601 0
ARM GAS  C:\Users\Luis\AppData\Local\Temp\ccEujqcQ.s 			page 7


 332 0008 80BD     		pop	{r7, pc}
 333              		.cfi_endproc
 334              	.LFE241:
 335              		.size	osalOsRescheduleS, .-osalOsRescheduleS
 336 000a 00BFAFF3 		.section	.text.osalEventObjectInit,"ax",%progbits
 336      0080
 337              		.align	2
 338              		.p2align 4,,15
 339              		.thumb
 340              		.thumb_func
 341              		.type	osalEventObjectInit, %function
 342              	osalEventObjectInit:
 343              	.LFB254:
 344              		.loc 6 821 0
 345              		.cfi_startproc
 346              		@ args = 0, pretend = 0, frame = 8
 347              		@ frame_needed = 1, uses_anonymous_args = 0
 348 0000 80B5     		push	{r7, lr}
 349              		.cfi_def_cfa_offset 8
 350              		.cfi_offset 7, -8
 351              		.cfi_offset 14, -4
 352 0002 82B0     		sub	sp, sp, #8
 353              		.cfi_def_cfa_offset 16
 354 0004 00AF     		add	r7, sp, #0
 355              		.cfi_def_cfa_register 7
 356 0006 7860     		str	r0, [r7, #4]
 357              		.loc 6 823 0
 358 0008 7868     		ldr	r0, [r7, #4]
 359 000a FFF7FEFF 		bl	chEvtObjectInit
 360              		.loc 6 824 0
 361 000e 0837     		adds	r7, r7, #8
 362 0010 BD46     		mov	sp, r7
 363              		@ sp needed
 364 0012 80BD     		pop	{r7, pc}
 365              		.cfi_endproc
 366              	.LFE254:
 367              		.size	osalEventObjectInit, .-osalEventObjectInit
 368 0014 AFF30080 		.section	.text.osalEventBroadcastFlagsI,"ax",%progbits
 368      AFF30080 
 368      AFF30080 
 369              		.align	2
 370              		.p2align 4,,15
 371              		.thumb
 372              		.thumb_func
 373              		.type	osalEventBroadcastFlagsI, %function
 374              	osalEventBroadcastFlagsI:
 375              	.LFB255:
 376              		.loc 6 842 0
 377              		.cfi_startproc
 378              		@ args = 0, pretend = 0, frame = 8
 379              		@ frame_needed = 1, uses_anonymous_args = 0
 380 0000 80B5     		push	{r7, lr}
 381              		.cfi_def_cfa_offset 8
 382              		.cfi_offset 7, -8
 383              		.cfi_offset 14, -4
 384 0002 82B0     		sub	sp, sp, #8
 385              		.cfi_def_cfa_offset 16
ARM GAS  C:\Users\Luis\AppData\Local\Temp\ccEujqcQ.s 			page 8


 386 0004 00AF     		add	r7, sp, #0
 387              		.cfi_def_cfa_register 7
 388 0006 7860     		str	r0, [r7, #4]
 389 0008 3960     		str	r1, [r7]
 390              		.loc 6 844 0
 391 000a 7868     		ldr	r0, [r7, #4]
 392 000c 3968     		ldr	r1, [r7]
 393 000e FFF7FEFF 		bl	chEvtBroadcastFlagsI
 394              		.loc 6 845 0
 395 0012 0837     		adds	r7, r7, #8
 396 0014 BD46     		mov	sp, r7
 397              		@ sp needed
 398 0016 80BD     		pop	{r7, pc}
 399              		.cfi_endproc
 400              	.LFE255:
 401              		.size	osalEventBroadcastFlagsI, .-osalEventBroadcastFlagsI
 402 0018 AFF30080 		.section	.text.write,"ax",%progbits
 402      AFF30080 
 403              		.align	2
 404              		.p2align 4,,15
 405              		.thumb
 406              		.thumb_func
 407              		.type	write, %function
 408              	write:
 409              	.LFB260:
 410              		.file 7 "../../ChibiOS/os/hal/src/serial.c"
 411              		.loc 7 50 0
 412              		.cfi_startproc
 413              		@ args = 0, pretend = 0, frame = 16
 414              		@ frame_needed = 1, uses_anonymous_args = 0
 415 0000 80B5     		push	{r7, lr}
 416              		.cfi_def_cfa_offset 8
 417              		.cfi_offset 7, -8
 418              		.cfi_offset 14, -4
 419 0002 84B0     		sub	sp, sp, #16
 420              		.cfi_def_cfa_offset 24
 421 0004 00AF     		add	r7, sp, #0
 422              		.cfi_def_cfa_register 7
 423 0006 F860     		str	r0, [r7, #12]
 424 0008 B960     		str	r1, [r7, #8]
 425 000a 7A60     		str	r2, [r7, #4]
 426              		.loc 7 52 0
 427 000c FB68     		ldr	r3, [r7, #12]
 428 000e 3033     		adds	r3, r3, #48
 429 0010 1846     		mov	r0, r3
 430 0012 B968     		ldr	r1, [r7, #8]
 431 0014 7A68     		ldr	r2, [r7, #4]
 432 0016 4FF0FF33 		mov	r3, #-1
 433 001a FFF7FEFF 		bl	chOQWriteTimeout
 434 001e 0346     		mov	r3, r0
 435              		.loc 7 54 0
 436 0020 1846     		mov	r0, r3
 437 0022 1037     		adds	r7, r7, #16
 438 0024 BD46     		mov	sp, r7
 439              		@ sp needed
 440 0026 80BD     		pop	{r7, pc}
 441              		.cfi_endproc
ARM GAS  C:\Users\Luis\AppData\Local\Temp\ccEujqcQ.s 			page 9


 442              	.LFE260:
 443              		.size	write, .-write
 444 0028 AFF30080 		.section	.text.read,"ax",%progbits
 444      AFF30080 
 445              		.align	2
 446              		.p2align 4,,15
 447              		.thumb
 448              		.thumb_func
 449              		.type	read, %function
 450              	read:
 451              	.LFB261:
 452              		.loc 7 56 0
 453              		.cfi_startproc
 454              		@ args = 0, pretend = 0, frame = 16
 455              		@ frame_needed = 1, uses_anonymous_args = 0
 456 0000 80B5     		push	{r7, lr}
 457              		.cfi_def_cfa_offset 8
 458              		.cfi_offset 7, -8
 459              		.cfi_offset 14, -4
 460 0002 84B0     		sub	sp, sp, #16
 461              		.cfi_def_cfa_offset 24
 462 0004 00AF     		add	r7, sp, #0
 463              		.cfi_def_cfa_register 7
 464 0006 F860     		str	r0, [r7, #12]
 465 0008 B960     		str	r1, [r7, #8]
 466 000a 7A60     		str	r2, [r7, #4]
 467              		.loc 7 58 0
 468 000c FB68     		ldr	r3, [r7, #12]
 469 000e 0C33     		adds	r3, r3, #12
 470 0010 1846     		mov	r0, r3
 471 0012 B968     		ldr	r1, [r7, #8]
 472 0014 7A68     		ldr	r2, [r7, #4]
 473 0016 4FF0FF33 		mov	r3, #-1
 474 001a FFF7FEFF 		bl	chIQReadTimeout
 475 001e 0346     		mov	r3, r0
 476              		.loc 7 60 0
 477 0020 1846     		mov	r0, r3
 478 0022 1037     		adds	r7, r7, #16
 479 0024 BD46     		mov	sp, r7
 480              		@ sp needed
 481 0026 80BD     		pop	{r7, pc}
 482              		.cfi_endproc
 483              	.LFE261:
 484              		.size	read, .-read
 485 0028 AFF30080 		.section	.text.put,"ax",%progbits
 485      AFF30080 
 486              		.align	2
 487              		.p2align 4,,15
 488              		.thumb
 489              		.thumb_func
 490              		.type	put, %function
 491              	put:
 492              	.LFB262:
 493              		.loc 7 62 0
 494              		.cfi_startproc
 495              		@ args = 0, pretend = 0, frame = 8
 496              		@ frame_needed = 1, uses_anonymous_args = 0
ARM GAS  C:\Users\Luis\AppData\Local\Temp\ccEujqcQ.s 			page 10


 497 0000 80B5     		push	{r7, lr}
 498              		.cfi_def_cfa_offset 8
 499              		.cfi_offset 7, -8
 500              		.cfi_offset 14, -4
 501 0002 82B0     		sub	sp, sp, #8
 502              		.cfi_def_cfa_offset 16
 503 0004 00AF     		add	r7, sp, #0
 504              		.cfi_def_cfa_register 7
 505 0006 7860     		str	r0, [r7, #4]
 506 0008 0B46     		mov	r3, r1
 507 000a FB70     		strb	r3, [r7, #3]
 508              		.loc 7 64 0
 509 000c 7B68     		ldr	r3, [r7, #4]
 510 000e 03F13002 		add	r2, r3, #48
 511 0012 FB78     		ldrb	r3, [r7, #3]	@ zero_extendqisi2
 512 0014 1046     		mov	r0, r2
 513 0016 1946     		mov	r1, r3
 514 0018 4FF0FF32 		mov	r2, #-1
 515 001c FFF7FEFF 		bl	chOQPutTimeout
 516 0020 0346     		mov	r3, r0
 517              		.loc 7 65 0
 518 0022 1846     		mov	r0, r3
 519 0024 0837     		adds	r7, r7, #8
 520 0026 BD46     		mov	sp, r7
 521              		@ sp needed
 522 0028 80BD     		pop	{r7, pc}
 523              		.cfi_endproc
 524              	.LFE262:
 525              		.size	put, .-put
 526 002a 00BFAFF3 		.section	.text.get,"ax",%progbits
 526      0080
 527              		.align	2
 528              		.p2align 4,,15
 529              		.thumb
 530              		.thumb_func
 531              		.type	get, %function
 532              	get:
 533              	.LFB263:
 534              		.loc 7 67 0
 535              		.cfi_startproc
 536              		@ args = 0, pretend = 0, frame = 8
 537              		@ frame_needed = 1, uses_anonymous_args = 0
 538 0000 80B5     		push	{r7, lr}
 539              		.cfi_def_cfa_offset 8
 540              		.cfi_offset 7, -8
 541              		.cfi_offset 14, -4
 542 0002 82B0     		sub	sp, sp, #8
 543              		.cfi_def_cfa_offset 16
 544 0004 00AF     		add	r7, sp, #0
 545              		.cfi_def_cfa_register 7
 546 0006 7860     		str	r0, [r7, #4]
 547              		.loc 7 69 0
 548 0008 7B68     		ldr	r3, [r7, #4]
 549 000a 0C33     		adds	r3, r3, #12
 550 000c 1846     		mov	r0, r3
 551 000e 4FF0FF31 		mov	r1, #-1
 552 0012 FFF7FEFF 		bl	chIQGetTimeout
ARM GAS  C:\Users\Luis\AppData\Local\Temp\ccEujqcQ.s 			page 11


 553 0016 0346     		mov	r3, r0
 554              		.loc 7 70 0
 555 0018 1846     		mov	r0, r3
 556 001a 0837     		adds	r7, r7, #8
 557 001c BD46     		mov	sp, r7
 558              		@ sp needed
 559 001e 80BD     		pop	{r7, pc}
 560              		.cfi_endproc
 561              	.LFE263:
 562              		.size	get, .-get
 563              		.section	.text.putt,"ax",%progbits
 564              		.align	2
 565              		.p2align 4,,15
 566              		.thumb
 567              		.thumb_func
 568              		.type	putt, %function
 569              	putt:
 570              	.LFB264:
 571              		.loc 7 72 0
 572              		.cfi_startproc
 573              		@ args = 0, pretend = 0, frame = 16
 574              		@ frame_needed = 1, uses_anonymous_args = 0
 575 0000 80B5     		push	{r7, lr}
 576              		.cfi_def_cfa_offset 8
 577              		.cfi_offset 7, -8
 578              		.cfi_offset 14, -4
 579 0002 84B0     		sub	sp, sp, #16
 580              		.cfi_def_cfa_offset 24
 581 0004 00AF     		add	r7, sp, #0
 582              		.cfi_def_cfa_register 7
 583 0006 F860     		str	r0, [r7, #12]
 584 0008 0B46     		mov	r3, r1
 585 000a 7A60     		str	r2, [r7, #4]
 586 000c FB72     		strb	r3, [r7, #11]
 587              		.loc 7 74 0
 588 000e FB68     		ldr	r3, [r7, #12]
 589 0010 03F13002 		add	r2, r3, #48
 590 0014 FB7A     		ldrb	r3, [r7, #11]	@ zero_extendqisi2
 591 0016 1046     		mov	r0, r2
 592 0018 1946     		mov	r1, r3
 593 001a 7A68     		ldr	r2, [r7, #4]
 594 001c FFF7FEFF 		bl	chOQPutTimeout
 595 0020 0346     		mov	r3, r0
 596              		.loc 7 75 0
 597 0022 1846     		mov	r0, r3
 598 0024 1037     		adds	r7, r7, #16
 599 0026 BD46     		mov	sp, r7
 600              		@ sp needed
 601 0028 80BD     		pop	{r7, pc}
 602              		.cfi_endproc
 603              	.LFE264:
 604              		.size	putt, .-putt
 605 002a 00BFAFF3 		.section	.text.gett,"ax",%progbits
 605      0080
 606              		.align	2
 607              		.p2align 4,,15
 608              		.thumb
ARM GAS  C:\Users\Luis\AppData\Local\Temp\ccEujqcQ.s 			page 12


 609              		.thumb_func
 610              		.type	gett, %function
 611              	gett:
 612              	.LFB265:
 613              		.loc 7 77 0
 614              		.cfi_startproc
 615              		@ args = 0, pretend = 0, frame = 8
 616              		@ frame_needed = 1, uses_anonymous_args = 0
 617 0000 80B5     		push	{r7, lr}
 618              		.cfi_def_cfa_offset 8
 619              		.cfi_offset 7, -8
 620              		.cfi_offset 14, -4
 621 0002 82B0     		sub	sp, sp, #8
 622              		.cfi_def_cfa_offset 16
 623 0004 00AF     		add	r7, sp, #0
 624              		.cfi_def_cfa_register 7
 625 0006 7860     		str	r0, [r7, #4]
 626 0008 3960     		str	r1, [r7]
 627              		.loc 7 79 0
 628 000a 7B68     		ldr	r3, [r7, #4]
 629 000c 0C33     		adds	r3, r3, #12
 630 000e 1846     		mov	r0, r3
 631 0010 3968     		ldr	r1, [r7]
 632 0012 FFF7FEFF 		bl	chIQGetTimeout
 633 0016 0346     		mov	r3, r0
 634              		.loc 7 80 0
 635 0018 1846     		mov	r0, r3
 636 001a 0837     		adds	r7, r7, #8
 637 001c BD46     		mov	sp, r7
 638              		@ sp needed
 639 001e 80BD     		pop	{r7, pc}
 640              		.cfi_endproc
 641              	.LFE265:
 642              		.size	gett, .-gett
 643              		.section	.text.writet,"ax",%progbits
 644              		.align	2
 645              		.p2align 4,,15
 646              		.thumb
 647              		.thumb_func
 648              		.type	writet, %function
 649              	writet:
 650              	.LFB266:
 651              		.loc 7 82 0
 652              		.cfi_startproc
 653              		@ args = 0, pretend = 0, frame = 16
 654              		@ frame_needed = 1, uses_anonymous_args = 0
 655 0000 80B5     		push	{r7, lr}
 656              		.cfi_def_cfa_offset 8
 657              		.cfi_offset 7, -8
 658              		.cfi_offset 14, -4
 659 0002 84B0     		sub	sp, sp, #16
 660              		.cfi_def_cfa_offset 24
 661 0004 00AF     		add	r7, sp, #0
 662              		.cfi_def_cfa_register 7
 663 0006 F860     		str	r0, [r7, #12]
 664 0008 B960     		str	r1, [r7, #8]
 665 000a 7A60     		str	r2, [r7, #4]
ARM GAS  C:\Users\Luis\AppData\Local\Temp\ccEujqcQ.s 			page 13


 666 000c 3B60     		str	r3, [r7]
 667              		.loc 7 84 0
 668 000e FB68     		ldr	r3, [r7, #12]
 669 0010 3033     		adds	r3, r3, #48
 670 0012 1846     		mov	r0, r3
 671 0014 B968     		ldr	r1, [r7, #8]
 672 0016 7A68     		ldr	r2, [r7, #4]
 673 0018 3B68     		ldr	r3, [r7]
 674 001a FFF7FEFF 		bl	chOQWriteTimeout
 675 001e 0346     		mov	r3, r0
 676              		.loc 7 85 0
 677 0020 1846     		mov	r0, r3
 678 0022 1037     		adds	r7, r7, #16
 679 0024 BD46     		mov	sp, r7
 680              		@ sp needed
 681 0026 80BD     		pop	{r7, pc}
 682              		.cfi_endproc
 683              	.LFE266:
 684              		.size	writet, .-writet
 685 0028 AFF30080 		.section	.text.readt,"ax",%progbits
 685      AFF30080 
 686              		.align	2
 687              		.p2align 4,,15
 688              		.thumb
 689              		.thumb_func
 690              		.type	readt, %function
 691              	readt:
 692              	.LFB267:
 693              		.loc 7 87 0
 694              		.cfi_startproc
 695              		@ args = 0, pretend = 0, frame = 16
 696              		@ frame_needed = 1, uses_anonymous_args = 0
 697 0000 80B5     		push	{r7, lr}
 698              		.cfi_def_cfa_offset 8
 699              		.cfi_offset 7, -8
 700              		.cfi_offset 14, -4
 701 0002 84B0     		sub	sp, sp, #16
 702              		.cfi_def_cfa_offset 24
 703 0004 00AF     		add	r7, sp, #0
 704              		.cfi_def_cfa_register 7
 705 0006 F860     		str	r0, [r7, #12]
 706 0008 B960     		str	r1, [r7, #8]
 707 000a 7A60     		str	r2, [r7, #4]
 708 000c 3B60     		str	r3, [r7]
 709              		.loc 7 89 0
 710 000e FB68     		ldr	r3, [r7, #12]
 711 0010 0C33     		adds	r3, r3, #12
 712 0012 1846     		mov	r0, r3
 713 0014 B968     		ldr	r1, [r7, #8]
 714 0016 7A68     		ldr	r2, [r7, #4]
 715 0018 3B68     		ldr	r3, [r7]
 716 001a FFF7FEFF 		bl	chIQReadTimeout
 717 001e 0346     		mov	r3, r0
 718              		.loc 7 90 0
 719 0020 1846     		mov	r0, r3
 720 0022 1037     		adds	r7, r7, #16
 721 0024 BD46     		mov	sp, r7
ARM GAS  C:\Users\Luis\AppData\Local\Temp\ccEujqcQ.s 			page 14


 722              		@ sp needed
 723 0026 80BD     		pop	{r7, pc}
 724              		.cfi_endproc
 725              	.LFE267:
 726              		.size	readt, .-readt
 727 0028 AFF30080 		.section	.rodata.vmt,"a",%progbits
 727      AFF30080 
 728              		.align	2
 729              		.type	vmt, %object
 730              		.size	vmt, 32
 731              	vmt:
 732 0000 00000000 		.word	write
 733 0004 00000000 		.word	read
 734 0008 00000000 		.word	put
 735 000c 00000000 		.word	get
 736 0010 00000000 		.word	putt
 737 0014 00000000 		.word	gett
 738 0018 00000000 		.word	writet
 739 001c 00000000 		.word	readt
 740              		.section	.text.sdInit,"ax",%progbits
 741              		.align	2
 742              		.p2align 4,,15
 743              		.global	sdInit
 744              		.thumb
 745              		.thumb_func
 746              		.type	sdInit, %function
 747              	sdInit:
 748              	.LFB268:
 749              		.loc 7 108 0
 750              		.cfi_startproc
 751              		@ args = 0, pretend = 0, frame = 0
 752              		@ frame_needed = 1, uses_anonymous_args = 0
 753 0000 80B5     		push	{r7, lr}
 754              		.cfi_def_cfa_offset 8
 755              		.cfi_offset 7, -8
 756              		.cfi_offset 14, -4
 757 0002 00AF     		add	r7, sp, #0
 758              		.cfi_def_cfa_register 7
 759              		.loc 7 110 0
 760 0004 FFF7FEFF 		bl	sd_lld_init
 761              		.loc 7 111 0
 762 0008 80BD     		pop	{r7, pc}
 763              		.cfi_endproc
 764              	.LFE268:
 765              		.size	sdInit, .-sdInit
 766 000a 00BFAFF3 		.section	.text.sdObjectInit,"ax",%progbits
 766      0080
 767              		.align	2
 768              		.p2align 4,,15
 769              		.global	sdObjectInit
 770              		.thumb
 771              		.thumb_func
 772              		.type	sdObjectInit, %function
 773              	sdObjectInit:
 774              	.LFB269:
 775              		.loc 7 128 0
 776              		.cfi_startproc
ARM GAS  C:\Users\Luis\AppData\Local\Temp\ccEujqcQ.s 			page 15


 777              		@ args = 0, pretend = 0, frame = 16
 778              		@ frame_needed = 1, uses_anonymous_args = 0
 779 0000 80B5     		push	{r7, lr}
 780              		.cfi_def_cfa_offset 8
 781              		.cfi_offset 7, -8
 782              		.cfi_offset 14, -4
 783 0002 86B0     		sub	sp, sp, #24
 784              		.cfi_def_cfa_offset 32
 785 0004 02AF     		add	r7, sp, #8
 786              		.cfi_def_cfa 7, 24
 787 0006 F860     		str	r0, [r7, #12]
 788 0008 B960     		str	r1, [r7, #8]
 789 000a 7A60     		str	r2, [r7, #4]
 790              		.loc 7 130 0
 791 000c FB68     		ldr	r3, [r7, #12]
 792 000e 154A     		ldr	r2, .L34
 793 0010 1A60     		str	r2, [r3]
 794              		.loc 7 131 0
 795 0012 FB68     		ldr	r3, [r7, #12]
 796 0014 0433     		adds	r3, r3, #4
 797 0016 1846     		mov	r0, r3
 798 0018 FFF7FEFF 		bl	osalEventObjectInit
 799              		.loc 7 132 0
 800 001c FB68     		ldr	r3, [r7, #12]
 801 001e 0122     		movs	r2, #1
 802 0020 1A72     		strb	r2, [r3, #8]
 803              		.loc 7 133 0
 804 0022 FB68     		ldr	r3, [r7, #12]
 805 0024 03F10C02 		add	r2, r3, #12
 806 0028 FB68     		ldr	r3, [r7, #12]
 807 002a 5433     		adds	r3, r3, #84
 808 002c F968     		ldr	r1, [r7, #12]
 809 002e 0091     		str	r1, [sp]
 810 0030 1046     		mov	r0, r2
 811 0032 1946     		mov	r1, r3
 812 0034 4FF48052 		mov	r2, #4096
 813 0038 BB68     		ldr	r3, [r7, #8]
 814 003a FFF7FEFF 		bl	chIQObjectInit
 815              		.loc 7 134 0
 816 003e FB68     		ldr	r3, [r7, #12]
 817 0040 03F13002 		add	r2, r3, #48
 818 0044 FB68     		ldr	r3, [r7, #12]
 819 0046 03F58253 		add	r3, r3, #4160
 820 004a 1433     		adds	r3, r3, #20
 821 004c F968     		ldr	r1, [r7, #12]
 822 004e 0091     		str	r1, [sp]
 823 0050 1046     		mov	r0, r2
 824 0052 1946     		mov	r1, r3
 825 0054 4FF48052 		mov	r2, #4096
 826 0058 7B68     		ldr	r3, [r7, #4]
 827 005a FFF7FEFF 		bl	chOQObjectInit
 828              		.loc 7 135 0
 829 005e 1037     		adds	r7, r7, #16
 830 0060 BD46     		mov	sp, r7
 831              		@ sp needed
 832 0062 80BD     		pop	{r7, pc}
 833              	.L35:
ARM GAS  C:\Users\Luis\AppData\Local\Temp\ccEujqcQ.s 			page 16


 834              		.align	2
 835              	.L34:
 836 0064 00000000 		.word	vmt
 837              		.cfi_endproc
 838              	.LFE269:
 839              		.size	sdObjectInit, .-sdObjectInit
 840 0068 AFF30080 		.section	.text.sdStart,"ax",%progbits
 840      AFF30080 
 841              		.align	2
 842              		.p2align 4,,15
 843              		.global	sdStart
 844              		.thumb
 845              		.thumb_func
 846              		.type	sdStart, %function
 847              	sdStart:
 848              	.LFB270:
 849              		.loc 7 147 0
 850              		.cfi_startproc
 851              		@ args = 0, pretend = 0, frame = 8
 852              		@ frame_needed = 1, uses_anonymous_args = 0
 853 0000 80B5     		push	{r7, lr}
 854              		.cfi_def_cfa_offset 8
 855              		.cfi_offset 7, -8
 856              		.cfi_offset 14, -4
 857 0002 82B0     		sub	sp, sp, #8
 858              		.cfi_def_cfa_offset 16
 859 0004 00AF     		add	r7, sp, #0
 860              		.cfi_def_cfa_register 7
 861 0006 7860     		str	r0, [r7, #4]
 862 0008 3960     		str	r1, [r7]
 863              		.loc 7 149 0
 864 000a 7B68     		ldr	r3, [r7, #4]
 865 000c 002B     		cmp	r3, #0
 866 000e 02D1     		bne	.L37
 867              		.loc 7 149 0 is_stmt 0 discriminator 1
 868 0010 0D48     		ldr	r0, .L39
 869 0012 FFF7FEFF 		bl	chSysHalt
 870              	.L37:
 871              		.loc 7 151 0 is_stmt 1
 872 0016 FFF7FEFF 		bl	osalSysLock
 873              		.loc 7 152 0
 874 001a 7B68     		ldr	r3, [r7, #4]
 875 001c 1B7A     		ldrb	r3, [r3, #8]	@ zero_extendqisi2
 876 001e 012B     		cmp	r3, #1
 877 0020 06D0     		beq	.L38
 878              		.loc 7 152 0 is_stmt 0 discriminator 1
 879 0022 7B68     		ldr	r3, [r7, #4]
 880 0024 1B7A     		ldrb	r3, [r3, #8]	@ zero_extendqisi2
 881 0026 022B     		cmp	r3, #2
 882 0028 02D0     		beq	.L38
 883 002a 0748     		ldr	r0, .L39
 884 002c FFF7FEFF 		bl	chSysHalt
 885              	.L38:
 886              		.loc 7 154 0 is_stmt 1
 887 0030 7868     		ldr	r0, [r7, #4]
 888 0032 3968     		ldr	r1, [r7]
 889 0034 FFF7FEFF 		bl	sd_lld_start
ARM GAS  C:\Users\Luis\AppData\Local\Temp\ccEujqcQ.s 			page 17


 890              		.loc 7 155 0
 891 0038 7B68     		ldr	r3, [r7, #4]
 892 003a 0222     		movs	r2, #2
 893 003c 1A72     		strb	r2, [r3, #8]
 894              		.loc 7 156 0
 895 003e FFF7FEFF 		bl	osalSysUnlock
 896              		.loc 7 157 0
 897 0042 0837     		adds	r7, r7, #8
 898 0044 BD46     		mov	sp, r7
 899              		@ sp needed
 900 0046 80BD     		pop	{r7, pc}
 901              	.L40:
 902              		.align	2
 903              	.L39:
 904 0048 00000000 		.word	__func__.7954
 905              		.cfi_endproc
 906              	.LFE270:
 907              		.size	sdStart, .-sdStart
 908 004c AFF30080 		.section	.text.sdStop,"ax",%progbits
 909              		.align	2
 910              		.p2align 4,,15
 911              		.global	sdStop
 912              		.thumb
 913              		.thumb_func
 914              		.type	sdStop, %function
 915              	sdStop:
 916              	.LFB271:
 917              		.loc 7 168 0
 918              		.cfi_startproc
 919              		@ args = 0, pretend = 0, frame = 8
 920              		@ frame_needed = 1, uses_anonymous_args = 0
 921 0000 80B5     		push	{r7, lr}
 922              		.cfi_def_cfa_offset 8
 923              		.cfi_offset 7, -8
 924              		.cfi_offset 14, -4
 925 0002 82B0     		sub	sp, sp, #8
 926              		.cfi_def_cfa_offset 16
 927 0004 00AF     		add	r7, sp, #0
 928              		.cfi_def_cfa_register 7
 929 0006 7860     		str	r0, [r7, #4]
 930              		.loc 7 170 0
 931 0008 7B68     		ldr	r3, [r7, #4]
 932 000a 002B     		cmp	r3, #0
 933 000c 02D1     		bne	.L42
 934              		.loc 7 170 0 is_stmt 0 discriminator 1
 935 000e 1348     		ldr	r0, .L44
 936 0010 FFF7FEFF 		bl	chSysHalt
 937              	.L42:
 938              		.loc 7 172 0 is_stmt 1
 939 0014 FFF7FEFF 		bl	osalSysLock
 940              		.loc 7 173 0
 941 0018 7B68     		ldr	r3, [r7, #4]
 942 001a 1B7A     		ldrb	r3, [r3, #8]	@ zero_extendqisi2
 943 001c 012B     		cmp	r3, #1
 944 001e 06D0     		beq	.L43
 945              		.loc 7 173 0 is_stmt 0 discriminator 1
 946 0020 7B68     		ldr	r3, [r7, #4]
ARM GAS  C:\Users\Luis\AppData\Local\Temp\ccEujqcQ.s 			page 18


 947 0022 1B7A     		ldrb	r3, [r3, #8]	@ zero_extendqisi2
 948 0024 022B     		cmp	r3, #2
 949 0026 02D0     		beq	.L43
 950 0028 0C48     		ldr	r0, .L44
 951 002a FFF7FEFF 		bl	chSysHalt
 952              	.L43:
 953              		.loc 7 175 0 is_stmt 1
 954 002e 7868     		ldr	r0, [r7, #4]
 955 0030 FFF7FEFF 		bl	sd_lld_stop
 956              		.loc 7 176 0
 957 0034 7B68     		ldr	r3, [r7, #4]
 958 0036 0122     		movs	r2, #1
 959 0038 1A72     		strb	r2, [r3, #8]
 960              		.loc 7 177 0
 961 003a 7B68     		ldr	r3, [r7, #4]
 962 003c 3033     		adds	r3, r3, #48
 963 003e 1846     		mov	r0, r3
 964 0040 FFF7FEFF 		bl	chOQResetI
 965              		.loc 7 178 0
 966 0044 7B68     		ldr	r3, [r7, #4]
 967 0046 0C33     		adds	r3, r3, #12
 968 0048 1846     		mov	r0, r3
 969 004a FFF7FEFF 		bl	chIQResetI
 970              		.loc 7 179 0
 971 004e FFF7FEFF 		bl	osalOsRescheduleS
 972              		.loc 7 180 0
 973 0052 FFF7FEFF 		bl	osalSysUnlock
 974              		.loc 7 181 0
 975 0056 0837     		adds	r7, r7, #8
 976 0058 BD46     		mov	sp, r7
 977              		@ sp needed
 978 005a 80BD     		pop	{r7, pc}
 979              	.L45:
 980              		.align	2
 981              	.L44:
 982 005c 00000000 		.word	__func__.7958
 983              		.cfi_endproc
 984              	.LFE271:
 985              		.size	sdStop, .-sdStop
 986              		.section	.text.sdIncomingDataI,"ax",%progbits
 987              		.align	2
 988              		.p2align 4,,15
 989              		.global	sdIncomingDataI
 990              		.thumb
 991              		.thumb_func
 992              		.type	sdIncomingDataI, %function
 993              	sdIncomingDataI:
 994              	.LFB272:
 995              		.loc 7 199 0
 996              		.cfi_startproc
 997              		@ args = 0, pretend = 0, frame = 8
 998              		@ frame_needed = 1, uses_anonymous_args = 0
 999 0000 80B5     		push	{r7, lr}
 1000              		.cfi_def_cfa_offset 8
 1001              		.cfi_offset 7, -8
 1002              		.cfi_offset 14, -4
 1003 0002 82B0     		sub	sp, sp, #8
ARM GAS  C:\Users\Luis\AppData\Local\Temp\ccEujqcQ.s 			page 19


 1004              		.cfi_def_cfa_offset 16
 1005 0004 00AF     		add	r7, sp, #0
 1006              		.cfi_def_cfa_register 7
 1007 0006 7860     		str	r0, [r7, #4]
 1008 0008 0B46     		mov	r3, r1
 1009 000a FB70     		strb	r3, [r7, #3]
 1010              		.loc 7 201 0
 1011 000c FFF7FEFF 		bl	chDbgCheckClassI
 1012              		.loc 7 202 0
 1013 0010 7B68     		ldr	r3, [r7, #4]
 1014 0012 002B     		cmp	r3, #0
 1015 0014 02D1     		bne	.L47
 1016              		.loc 7 202 0 is_stmt 0 discriminator 1
 1017 0016 1248     		ldr	r0, .L50
 1018 0018 FFF7FEFF 		bl	chSysHalt
 1019              	.L47:
 1020              		.loc 7 204 0 is_stmt 1
 1021 001c 7B68     		ldr	r3, [r7, #4]
 1022 001e 0C33     		adds	r3, r3, #12
 1023 0020 1846     		mov	r0, r3
 1024 0022 FFF7FEFF 		bl	chIQIsEmptyI
 1025 0026 0346     		mov	r3, r0
 1026 0028 002B     		cmp	r3, #0
 1027 002a 05D0     		beq	.L48
 1028              		.loc 7 205 0
 1029 002c 7B68     		ldr	r3, [r7, #4]
 1030 002e 0433     		adds	r3, r3, #4
 1031 0030 1846     		mov	r0, r3
 1032 0032 0421     		movs	r1, #4
 1033 0034 FFF7FEFF 		bl	osalEventBroadcastFlagsI
 1034              	.L48:
 1035              		.loc 7 206 0
 1036 0038 7B68     		ldr	r3, [r7, #4]
 1037 003a 03F10C02 		add	r2, r3, #12
 1038 003e FB78     		ldrb	r3, [r7, #3]	@ zero_extendqisi2
 1039 0040 1046     		mov	r0, r2
 1040 0042 1946     		mov	r1, r3
 1041 0044 FFF7FEFF 		bl	chIQPutI
 1042 0048 0346     		mov	r3, r0
 1043 004a 002B     		cmp	r3, #0
 1044 004c 05DA     		bge	.L46
 1045              		.loc 7 207 0
 1046 004e 7B68     		ldr	r3, [r7, #4]
 1047 0050 0433     		adds	r3, r3, #4
 1048 0052 1846     		mov	r0, r3
 1049 0054 8021     		movs	r1, #128
 1050 0056 FFF7FEFF 		bl	osalEventBroadcastFlagsI
 1051              	.L46:
 1052              		.loc 7 208 0
 1053 005a 0837     		adds	r7, r7, #8
 1054 005c BD46     		mov	sp, r7
 1055              		@ sp needed
 1056 005e 80BD     		pop	{r7, pc}
 1057              	.L51:
 1058              		.align	2
 1059              	.L50:
 1060 0060 00000000 		.word	__func__.7963
ARM GAS  C:\Users\Luis\AppData\Local\Temp\ccEujqcQ.s 			page 20


 1061              		.cfi_endproc
 1062              	.LFE272:
 1063              		.size	sdIncomingDataI, .-sdIncomingDataI
 1064 0064 AFF30080 		.section	.text.sdRequestDataI,"ax",%progbits
 1064      AFF30080 
 1064      AFF30080 
 1065              		.align	2
 1066              		.p2align 4,,15
 1067              		.global	sdRequestDataI
 1068              		.thumb
 1069              		.thumb_func
 1070              		.type	sdRequestDataI, %function
 1071              	sdRequestDataI:
 1072              	.LFB273:
 1073              		.loc 7 225 0
 1074              		.cfi_startproc
 1075              		@ args = 0, pretend = 0, frame = 16
 1076              		@ frame_needed = 1, uses_anonymous_args = 0
 1077 0000 80B5     		push	{r7, lr}
 1078              		.cfi_def_cfa_offset 8
 1079              		.cfi_offset 7, -8
 1080              		.cfi_offset 14, -4
 1081 0002 84B0     		sub	sp, sp, #16
 1082              		.cfi_def_cfa_offset 24
 1083 0004 00AF     		add	r7, sp, #0
 1084              		.cfi_def_cfa_register 7
 1085 0006 7860     		str	r0, [r7, #4]
 1086              		.loc 7 228 0
 1087 0008 FFF7FEFF 		bl	chDbgCheckClassI
 1088              		.loc 7 229 0
 1089 000c 7B68     		ldr	r3, [r7, #4]
 1090 000e 002B     		cmp	r3, #0
 1091 0010 02D1     		bne	.L53
 1092              		.loc 7 229 0 is_stmt 0 discriminator 1
 1093 0012 0B48     		ldr	r0, .L56
 1094 0014 FFF7FEFF 		bl	chSysHalt
 1095              	.L53:
 1096              		.loc 7 231 0 is_stmt 1
 1097 0018 7B68     		ldr	r3, [r7, #4]
 1098 001a 3033     		adds	r3, r3, #48
 1099 001c 1846     		mov	r0, r3
 1100 001e FFF7FEFF 		bl	chOQGetI
 1101 0022 F860     		str	r0, [r7, #12]
 1102              		.loc 7 232 0
 1103 0024 FB68     		ldr	r3, [r7, #12]
 1104 0026 002B     		cmp	r3, #0
 1105 0028 05DA     		bge	.L54
 1106              		.loc 7 233 0
 1107 002a 7B68     		ldr	r3, [r7, #4]
 1108 002c 0433     		adds	r3, r3, #4
 1109 002e 1846     		mov	r0, r3
 1110 0030 0821     		movs	r1, #8
 1111 0032 FFF7FEFF 		bl	osalEventBroadcastFlagsI
 1112              	.L54:
 1113              		.loc 7 234 0
 1114 0036 FB68     		ldr	r3, [r7, #12]
 1115              		.loc 7 235 0
ARM GAS  C:\Users\Luis\AppData\Local\Temp\ccEujqcQ.s 			page 21


 1116 0038 1846     		mov	r0, r3
 1117 003a 1037     		adds	r7, r7, #16
 1118 003c BD46     		mov	sp, r7
 1119              		@ sp needed
 1120 003e 80BD     		pop	{r7, pc}
 1121              	.L57:
 1122              		.align	2
 1123              	.L56:
 1124 0040 00000000 		.word	__func__.7968
 1125              		.cfi_endproc
 1126              	.LFE273:
 1127              		.size	sdRequestDataI, .-sdRequestDataI
 1128 0044 AFF30080 		.section	.rodata.__func__.7954,"a",%progbits
 1128      AFF30080 
 1128      AFF30080 
 1129              		.align	2
 1130              		.type	__func__.7954, %object
 1131              		.size	__func__.7954, 8
 1132              	__func__.7954:
 1133 0000 73645374 		.ascii	"sdStart\000"
 1133      61727400 
 1134              		.section	.rodata.__func__.5842,"a",%progbits
 1135              		.align	2
 1136              		.type	__func__.5842, %object
 1137              		.size	__func__.5842, 12
 1138              	__func__.5842:
 1139 0000 63685379 		.ascii	"chSysUnlock\000"
 1139      73556E6C 
 1139      6F636B00 
 1140              		.section	.rodata.__func__.7958,"a",%progbits
 1141              		.align	2
 1142              		.type	__func__.7958, %object
 1143              		.size	__func__.7958, 7
 1144              	__func__.7958:
 1145 0000 73645374 		.ascii	"sdStop\000"
 1145      6F7000
 1146 0007 00       		.section	.rodata.__func__.7963,"a",%progbits
 1147              		.align	2
 1148              		.type	__func__.7963, %object
 1149              		.size	__func__.7963, 16
 1150              	__func__.7963:
 1151 0000 7364496E 		.ascii	"sdIncomingDataI\000"
 1151      636F6D69 
 1151      6E674461 
 1151      74614900 
 1152              		.section	.rodata.__func__.7968,"a",%progbits
 1153              		.align	2
 1154              		.type	__func__.7968, %object
 1155              		.size	__func__.7968, 15
 1156              	__func__.7968:
 1157 0000 73645265 		.ascii	"sdRequestDataI\000"
 1157      71756573 
 1157      74446174 
 1157      614900
 1158 000f 00       		.text
 1159              	.Letext0:
 1160              		.file 8 "c:\\emtechesdk\\gcc\\lib\\gcc\\arm-none-eabi\\4.8.3\\include\\stddef.h"
ARM GAS  C:\Users\Luis\AppData\Local\Temp\ccEujqcQ.s 			page 22


 1161              		.file 9 "c:\\emtechesdk\\gcc\\arm-none-eabi\\include\\stdint.h"
 1162              		.file 10 "../../ChibiOS/os/rt/ports/ARMCMx/compilers/GCC/chtypes.h"
 1163              		.file 11 "../../ChibiOS/os/rt/include/chsystypes.h"
 1164              		.file 12 "../../ChibiOS/os/rt/include/chschd.h"
 1165              		.file 13 "../../ChibiOS/os/ext/CMSIS/ST/stm32f407xx.h"
 1166              		.file 14 "../../ChibiOS/os/rt/ports/ARMCMx/chcore.h"
 1167              		.file 15 "../../ChibiOS/os/rt/include/chdebug.h"
 1168              		.file 16 "../../ChibiOS/os/rt/include/chtm.h"
 1169              		.file 17 "../../ChibiOS/os/rt/include/chstats.h"
 1170              		.file 18 "../../ChibiOS/os/rt/include/chsem.h"
 1171              		.file 19 "../../ChibiOS/os/rt/include/chmtx.h"
 1172              		.file 20 "../../ChibiOS/os/hal/include/serial.h"
 1173              		.file 21 "../../ChibiOS/os/hal/ports/STM32/LLD/USARTv1/serial_lld.h"
 1174              		.file 22 "../../ChibiOS/os/ext/CMSIS/include/core_cm4.h"
 1175              		.section	.debug_info,"",%progbits
 1176              	.Ldebug_info0:
 1177 0000 3E110000 		.4byte	0x113e
 1178 0004 0400     		.2byte	0x4
 1179 0006 00000000 		.4byte	.Ldebug_abbrev0
 1180 000a 04       		.byte	0x4
 1181 000b 01       		.uleb128 0x1
 1182 000c B9060000 		.4byte	.LASF195
 1183 0010 01       		.byte	0x1
 1184 0011 DF010000 		.4byte	.LASF196
 1185 0015 B4040000 		.4byte	.LASF197
 1186 0019 00000000 		.4byte	.Ldebug_ranges0+0
 1187 001d 00000000 		.4byte	0
 1188 0021 00000000 		.4byte	.Ldebug_line0
 1189 0025 02       		.uleb128 0x2
 1190 0026 04       		.byte	0x4
 1191 0027 05       		.byte	0x5
 1192 0028 696E7400 		.ascii	"int\000"
 1193 002c 03       		.uleb128 0x3
 1194 002d 1D000000 		.4byte	.LASF2
 1195 0031 08       		.byte	0x8
 1196 0032 D4       		.byte	0xd4
 1197 0033 37000000 		.4byte	0x37
 1198 0037 04       		.uleb128 0x4
 1199 0038 04       		.byte	0x4
 1200 0039 07       		.byte	0x7
 1201 003a A5020000 		.4byte	.LASF0
 1202 003e 04       		.uleb128 0x4
 1203 003f 01       		.byte	0x1
 1204 0040 06       		.byte	0x6
 1205 0041 51010000 		.4byte	.LASF1
 1206 0045 03       		.uleb128 0x3
 1207 0046 82080000 		.4byte	.LASF3
 1208 004a 09       		.byte	0x9
 1209 004b 2A       		.byte	0x2a
 1210 004c 50000000 		.4byte	0x50
 1211 0050 04       		.uleb128 0x4
 1212 0051 01       		.byte	0x1
 1213 0052 08       		.byte	0x8
 1214 0053 89050000 		.4byte	.LASF4
 1215 0057 04       		.uleb128 0x4
 1216 0058 02       		.byte	0x2
 1217 0059 05       		.byte	0x5
ARM GAS  C:\Users\Luis\AppData\Local\Temp\ccEujqcQ.s 			page 23


 1218 005a BE050000 		.4byte	.LASF5
 1219 005e 03       		.uleb128 0x3
 1220 005f BA020000 		.4byte	.LASF6
 1221 0063 09       		.byte	0x9
 1222 0064 36       		.byte	0x36
 1223 0065 69000000 		.4byte	0x69
 1224 0069 04       		.uleb128 0x4
 1225 006a 02       		.byte	0x2
 1226 006b 07       		.byte	0x7
 1227 006c 2A030000 		.4byte	.LASF7
 1228 0070 03       		.uleb128 0x3
 1229 0071 81050000 		.4byte	.LASF8
 1230 0075 09       		.byte	0x9
 1231 0076 4F       		.byte	0x4f
 1232 0077 7B000000 		.4byte	0x7b
 1233 007b 04       		.uleb128 0x4
 1234 007c 04       		.byte	0x4
 1235 007d 05       		.byte	0x5
 1236 007e A2010000 		.4byte	.LASF9
 1237 0082 03       		.uleb128 0x3
 1238 0083 40060000 		.4byte	.LASF10
 1239 0087 09       		.byte	0x9
 1240 0088 50       		.byte	0x50
 1241 0089 8D000000 		.4byte	0x8d
 1242 008d 04       		.uleb128 0x4
 1243 008e 04       		.byte	0x4
 1244 008f 07       		.byte	0x7
 1245 0090 7E060000 		.4byte	.LASF11
 1246 0094 04       		.uleb128 0x4
 1247 0095 08       		.byte	0x8
 1248 0096 05       		.byte	0x5
 1249 0097 43010000 		.4byte	.LASF12
 1250 009b 03       		.uleb128 0x3
 1251 009c 2B000000 		.4byte	.LASF13
 1252 00a0 09       		.byte	0x9
 1253 00a1 78       		.byte	0x78
 1254 00a2 A6000000 		.4byte	0xa6
 1255 00a6 04       		.uleb128 0x4
 1256 00a7 08       		.byte	0x8
 1257 00a8 07       		.byte	0x7
 1258 00a9 90000000 		.4byte	.LASF14
 1259 00ad 05       		.uleb128 0x5
 1260 00ae 70000000 		.4byte	0x70
 1261 00b2 05       		.uleb128 0x5
 1262 00b3 82000000 		.4byte	0x82
 1263 00b7 03       		.uleb128 0x3
 1264 00b8 FE070000 		.4byte	.LASF15
 1265 00bc 0A       		.byte	0xa
 1266 00bd 45       		.byte	0x45
 1267 00be 82000000 		.4byte	0x82
 1268 00c2 03       		.uleb128 0x3
 1269 00c3 1D010000 		.4byte	.LASF16
 1270 00c7 0A       		.byte	0xa
 1271 00c8 46       		.byte	0x46
 1272 00c9 9B000000 		.4byte	0x9b
 1273 00cd 03       		.uleb128 0x3
 1274 00ce 9D030000 		.4byte	.LASF17
ARM GAS  C:\Users\Luis\AppData\Local\Temp\ccEujqcQ.s 			page 24


 1275 00d2 0A       		.byte	0xa
 1276 00d3 48       		.byte	0x48
 1277 00d4 45000000 		.4byte	0x45
 1278 00d8 03       		.uleb128 0x3
 1279 00d9 B8010000 		.4byte	.LASF18
 1280 00dd 0A       		.byte	0xa
 1281 00de 49       		.byte	0x49
 1282 00df 45000000 		.4byte	0x45
 1283 00e3 03       		.uleb128 0x3
 1284 00e4 00000000 		.4byte	.LASF19
 1285 00e8 0A       		.byte	0xa
 1286 00e9 4A       		.byte	0x4a
 1287 00ea 45000000 		.4byte	0x45
 1288 00ee 03       		.uleb128 0x3
 1289 00ef 5B050000 		.4byte	.LASF20
 1290 00f3 0A       		.byte	0xa
 1291 00f4 4C       		.byte	0x4c
 1292 00f5 82000000 		.4byte	0x82
 1293 00f9 03       		.uleb128 0x3
 1294 00fa 60030000 		.4byte	.LASF21
 1295 00fe 0A       		.byte	0xa
 1296 00ff 4D       		.byte	0x4d
 1297 0100 70000000 		.4byte	0x70
 1298 0104 03       		.uleb128 0x3
 1299 0105 BE030000 		.4byte	.LASF22
 1300 0109 0A       		.byte	0xa
 1301 010a 4F       		.byte	0x4f
 1302 010b 82000000 		.4byte	0x82
 1303 010f 03       		.uleb128 0x3
 1304 0110 16080000 		.4byte	.LASF23
 1305 0114 0A       		.byte	0xa
 1306 0115 50       		.byte	0x50
 1307 0116 82000000 		.4byte	0x82
 1308 011a 03       		.uleb128 0x3
 1309 011b 99020000 		.4byte	.LASF24
 1310 011f 0A       		.byte	0xa
 1311 0120 51       		.byte	0x51
 1312 0121 70000000 		.4byte	0x70
 1313 0125 03       		.uleb128 0x3
 1314 0126 6D030000 		.4byte	.LASF25
 1315 012a 0A       		.byte	0xa
 1316 012b 52       		.byte	0x52
 1317 012c 82000000 		.4byte	0x82
 1318 0130 03       		.uleb128 0x3
 1319 0131 97070000 		.4byte	.LASF26
 1320 0135 0B       		.byte	0xb
 1321 0136 33       		.byte	0x33
 1322 0137 82000000 		.4byte	0x82
 1323 013b 03       		.uleb128 0x3
 1324 013c 5B080000 		.4byte	.LASF27
 1325 0140 0B       		.byte	0xb
 1326 0141 3F       		.byte	0x3f
 1327 0142 46010000 		.4byte	0x146
 1328 0146 06       		.uleb128 0x6
 1329 0147 4C030000 		.4byte	.LASF50
 1330 014b 68       		.byte	0x68
 1331 014c 0C       		.byte	0xc
ARM GAS  C:\Users\Luis\AppData\Local\Temp\ccEujqcQ.s 			page 25


 1332 014d C2       		.byte	0xc2
 1333 014e 59020000 		.4byte	0x259
 1334 0152 07       		.uleb128 0x7
 1335 0153 D6050000 		.4byte	.LASF28
 1336 0157 0C       		.byte	0xc
 1337 0158 C3       		.byte	0xc3
 1338 0159 64020000 		.4byte	0x264
 1339 015d 00       		.byte	0
 1340 015e 07       		.uleb128 0x7
 1341 015f 54050000 		.4byte	.LASF29
 1342 0163 0C       		.byte	0xc
 1343 0164 C5       		.byte	0xc5
 1344 0165 64020000 		.4byte	0x264
 1345 0169 04       		.byte	0x4
 1346 016a 07       		.uleb128 0x7
 1347 016b 6C040000 		.4byte	.LASF30
 1348 016f 0C       		.byte	0xc
 1349 0170 C7       		.byte	0xc7
 1350 0171 EE000000 		.4byte	0xee
 1351 0175 08       		.byte	0x8
 1352 0176 07       		.uleb128 0x7
 1353 0177 F8080000 		.4byte	.LASF31
 1354 017b 0C       		.byte	0xc
 1355 017c C8       		.byte	0xc8
 1356 017d 3C050000 		.4byte	0x53c
 1357 0181 0C       		.byte	0xc
 1358 0182 07       		.uleb128 0x7
 1359 0183 09020000 		.4byte	.LASF32
 1360 0187 0C       		.byte	0xc
 1361 0188 CA       		.byte	0xca
 1362 0189 64020000 		.4byte	0x264
 1363 018d 10       		.byte	0x10
 1364 018e 07       		.uleb128 0x7
 1365 018f 8E040000 		.4byte	.LASF33
 1366 0193 0C       		.byte	0xc
 1367 0194 CB       		.byte	0xcb
 1368 0195 64020000 		.4byte	0x264
 1369 0199 14       		.byte	0x14
 1370 019a 07       		.uleb128 0x7
 1371 019b 6B050000 		.4byte	.LASF34
 1372 019f 0C       		.byte	0xc
 1373 01a0 D2       		.byte	0xd2
 1374 01a1 E0070000 		.4byte	0x7e0
 1375 01a5 18       		.byte	0x18
 1376 01a6 07       		.uleb128 0x7
 1377 01a7 A9040000 		.4byte	.LASF35
 1378 01ab 0C       		.byte	0xc
 1379 01ac D8       		.byte	0xd8
 1380 01ad F2070000 		.4byte	0x7f2
 1381 01b1 1C       		.byte	0x1c
 1382 01b2 07       		.uleb128 0x7
 1383 01b3 AC050000 		.4byte	.LASF36
 1384 01b7 0C       		.byte	0xc
 1385 01b8 DD       		.byte	0xdd
 1386 01b9 D8000000 		.4byte	0xd8
 1387 01bd 20       		.byte	0x20
 1388 01be 07       		.uleb128 0x7
ARM GAS  C:\Users\Luis\AppData\Local\Temp\ccEujqcQ.s 			page 26


 1389 01bf DD050000 		.4byte	.LASF37
 1390 01c3 0C       		.byte	0xc
 1391 01c4 E1       		.byte	0xe1
 1392 01c5 CD000000 		.4byte	0xcd
 1393 01c9 21       		.byte	0x21
 1394 01ca 07       		.uleb128 0x7
 1395 01cb C1010000 		.4byte	.LASF38
 1396 01cf 0C       		.byte	0xc
 1397 01d0 E6       		.byte	0xe6
 1398 01d1 E3000000 		.4byte	0xe3
 1399 01d5 22       		.byte	0x22
 1400 01d6 08       		.uleb128 0x8
 1401 01d7 705F7500 		.ascii	"p_u\000"
 1402 01db 0C       		.byte	0xc
 1403 01dc 3101     		.2byte	0x131
 1404 01de 1B070000 		.4byte	0x71b
 1405 01e2 24       		.byte	0x24
 1406 01e3 09       		.uleb128 0x9
 1407 01e4 FE030000 		.4byte	.LASF39
 1408 01e8 0C       		.byte	0xc
 1409 01e9 3601     		.2byte	0x136
 1410 01eb 6A020000 		.4byte	0x26a
 1411 01ef 28       		.byte	0x28
 1412 01f0 09       		.uleb128 0x9
 1413 01f1 E9020000 		.4byte	.LASF40
 1414 01f5 0C       		.byte	0xc
 1415 01f6 3C01     		.2byte	0x13c
 1416 01f8 8E020000 		.4byte	0x28e
 1417 01fc 2C       		.byte	0x2c
 1418 01fd 09       		.uleb128 0x9
 1419 01fe C7080000 		.4byte	.LASF41
 1420 0202 0C       		.byte	0xc
 1421 0203 4001     		.2byte	0x140
 1422 0205 F9000000 		.4byte	0xf9
 1423 0209 34       		.byte	0x34
 1424 020a 09       		.uleb128 0x9
 1425 020b 2B060000 		.4byte	.LASF42
 1426 020f 0C       		.byte	0xc
 1427 0210 4601     		.2byte	0x146
 1428 0212 04010000 		.4byte	0x104
 1429 0216 38       		.byte	0x38
 1430 0217 09       		.uleb128 0x9
 1431 0218 B4050000 		.4byte	.LASF43
 1432 021c 0C       		.byte	0xc
 1433 021d 4D01     		.2byte	0x14d
 1434 021f DA070000 		.4byte	0x7da
 1435 0223 3C       		.byte	0x3c
 1436 0224 09       		.uleb128 0x9
 1437 0225 A1070000 		.4byte	.LASF44
 1438 0229 0C       		.byte	0xc
 1439 022a 5101     		.2byte	0x151
 1440 022c EE000000 		.4byte	0xee
 1441 0230 40       		.byte	0x40
 1442 0231 09       		.uleb128 0x9
 1443 0232 62010000 		.4byte	.LASF45
 1444 0236 0C       		.byte	0xc
 1445 0237 5801     		.2byte	0x158
ARM GAS  C:\Users\Luis\AppData\Local\Temp\ccEujqcQ.s 			page 27


 1446 0239 41030000 		.4byte	0x341
 1447 023d 44       		.byte	0x44
 1448 023e 09       		.uleb128 0x9
 1449 023f EE050000 		.4byte	.LASF46
 1450 0243 0C       		.byte	0xc
 1451 0244 5E01     		.2byte	0x15e
 1452 0246 CC060000 		.4byte	0x6cc
 1453 024a 48       		.byte	0x48
 1454 024b 09       		.uleb128 0x9
 1455 024c FC020000 		.4byte	.LASF47
 1456 0250 0C       		.byte	0xc
 1457 0251 6201     		.2byte	0x162
 1458 0253 41030000 		.4byte	0x341
 1459 0257 60       		.byte	0x60
 1460 0258 00       		.byte	0
 1461 0259 03       		.uleb128 0x3
 1462 025a 1A040000 		.4byte	.LASF48
 1463 025e 0B       		.byte	0xb
 1464 025f 44       		.byte	0x44
 1465 0260 64020000 		.4byte	0x264
 1466 0264 0A       		.uleb128 0xa
 1467 0265 04       		.byte	0x4
 1468 0266 3B010000 		.4byte	0x13b
 1469 026a 03       		.uleb128 0x3
 1470 026b 9F080000 		.4byte	.LASF49
 1471 026f 0B       		.byte	0xb
 1472 0270 49       		.byte	0x49
 1473 0271 75020000 		.4byte	0x275
 1474 0275 06       		.uleb128 0x6
 1475 0276 61060000 		.4byte	.LASF51
 1476 027a 04       		.byte	0x4
 1477 027b 0C       		.byte	0xc
 1478 027c B0       		.byte	0xb0
 1479 027d 8E020000 		.4byte	0x28e
 1480 0281 07       		.uleb128 0x7
 1481 0282 D6050000 		.4byte	.LASF28
 1482 0286 0C       		.byte	0xc
 1483 0287 B1       		.byte	0xb1
 1484 0288 64020000 		.4byte	0x264
 1485 028c 00       		.byte	0
 1486 028d 00       		.byte	0
 1487 028e 03       		.uleb128 0x3
 1488 028f 0E060000 		.4byte	.LASF52
 1489 0293 0B       		.byte	0xb
 1490 0294 50       		.byte	0x50
 1491 0295 99020000 		.4byte	0x299
 1492 0299 06       		.uleb128 0x6
 1493 029a 4D000000 		.4byte	.LASF53
 1494 029e 08       		.byte	0x8
 1495 029f 0C       		.byte	0xc
 1496 02a0 B7       		.byte	0xb7
 1497 02a1 BE020000 		.4byte	0x2be
 1498 02a5 07       		.uleb128 0x7
 1499 02a6 D6050000 		.4byte	.LASF28
 1500 02aa 0C       		.byte	0xc
 1501 02ab B8       		.byte	0xb8
 1502 02ac 64020000 		.4byte	0x264
ARM GAS  C:\Users\Luis\AppData\Local\Temp\ccEujqcQ.s 			page 28


 1503 02b0 00       		.byte	0
 1504 02b1 07       		.uleb128 0x7
 1505 02b2 54050000 		.4byte	.LASF29
 1506 02b6 0C       		.byte	0xc
 1507 02b7 B9       		.byte	0xb9
 1508 02b8 64020000 		.4byte	0x264
 1509 02bc 04       		.byte	0x4
 1510 02bd 00       		.byte	0
 1511 02be 03       		.uleb128 0x3
 1512 02bf 08000000 		.4byte	.LASF54
 1513 02c3 0B       		.byte	0xb
 1514 02c4 57       		.byte	0x57
 1515 02c5 C9020000 		.4byte	0x2c9
 1516 02c9 0B       		.uleb128 0xb
 1517 02ca B0030000 		.4byte	.LASF55
 1518 02ce 1C       		.byte	0x1c
 1519 02cf 0C       		.byte	0xc
 1520 02d0 9001     		.2byte	0x190
 1521 02d2 25030000 		.4byte	0x325
 1522 02d6 09       		.uleb128 0x9
 1523 02d7 50060000 		.4byte	.LASF56
 1524 02db 0C       		.byte	0xc
 1525 02dc 9101     		.2byte	0x191
 1526 02de 8E020000 		.4byte	0x28e
 1527 02e2 00       		.byte	0
 1528 02e3 09       		.uleb128 0x9
 1529 02e4 C8050000 		.4byte	.LASF57
 1530 02e8 0C       		.byte	0xc
 1531 02e9 9201     		.2byte	0x192
 1532 02eb EE000000 		.4byte	0xee
 1533 02ef 08       		.byte	0x8
 1534 02f0 09       		.uleb128 0x9
 1535 02f1 96040000 		.4byte	.LASF58
 1536 02f5 0C       		.byte	0xc
 1537 02f6 9401     		.2byte	0x194
 1538 02f8 3C050000 		.4byte	0x53c
 1539 02fc 0C       		.byte	0xc
 1540 02fd 09       		.uleb128 0x9
 1541 02fe 28020000 		.4byte	.LASF59
 1542 0302 0C       		.byte	0xc
 1543 0303 9701     		.2byte	0x197
 1544 0305 64020000 		.4byte	0x264
 1545 0309 10       		.byte	0x10
 1546 030a 09       		.uleb128 0x9
 1547 030b F9040000 		.4byte	.LASF60
 1548 030f 0C       		.byte	0xc
 1549 0310 9801     		.2byte	0x198
 1550 0312 64020000 		.4byte	0x264
 1551 0316 14       		.byte	0x14
 1552 0317 09       		.uleb128 0x9
 1553 0318 EF040000 		.4byte	.LASF61
 1554 031c 0C       		.byte	0xc
 1555 031d 9B01     		.2byte	0x19b
 1556 031f 64020000 		.4byte	0x264
 1557 0323 18       		.byte	0x18
 1558 0324 00       		.byte	0
 1559 0325 03       		.uleb128 0x3
ARM GAS  C:\Users\Luis\AppData\Local\Temp\ccEujqcQ.s 			page 29


 1560 0326 AC070000 		.4byte	.LASF62
 1561 032a 0B       		.byte	0xb
 1562 032b 5C       		.byte	0x5c
 1563 032c 30030000 		.4byte	0x330
 1564 0330 0A       		.uleb128 0xa
 1565 0331 04       		.byte	0x4
 1566 0332 36030000 		.4byte	0x336
 1567 0336 0C       		.uleb128 0xc
 1568 0337 41030000 		.4byte	0x341
 1569 033b 0D       		.uleb128 0xd
 1570 033c 41030000 		.4byte	0x341
 1571 0340 00       		.byte	0
 1572 0341 0E       		.uleb128 0xe
 1573 0342 04       		.byte	0x4
 1574 0343 03       		.uleb128 0x3
 1575 0344 44050000 		.4byte	.LASF63
 1576 0348 0B       		.byte	0xb
 1577 0349 61       		.byte	0x61
 1578 034a 4E030000 		.4byte	0x34e
 1579 034e 0B       		.uleb128 0xb
 1580 034f ED070000 		.4byte	.LASF64
 1581 0353 14       		.byte	0x14
 1582 0354 0C       		.byte	0xc
 1583 0355 6B01     		.2byte	0x16b
 1584 0357 9D030000 		.4byte	0x39d
 1585 035b 09       		.uleb128 0x9
 1586 035c B2020000 		.4byte	.LASF65
 1587 0360 0C       		.byte	0xc
 1588 0361 6C01     		.2byte	0x16c
 1589 0363 F8070000 		.4byte	0x7f8
 1590 0367 00       		.byte	0
 1591 0368 09       		.uleb128 0x9
 1592 0369 39020000 		.4byte	.LASF66
 1593 036d 0C       		.byte	0xc
 1594 036e 6D01     		.2byte	0x16d
 1595 0370 F8070000 		.4byte	0x7f8
 1596 0374 04       		.byte	0x4
 1597 0375 09       		.uleb128 0x9
 1598 0376 58060000 		.4byte	.LASF67
 1599 037a 0C       		.byte	0xc
 1600 037b 6E01     		.2byte	0x16e
 1601 037d 30010000 		.4byte	0x130
 1602 0381 08       		.byte	0x8
 1603 0382 09       		.uleb128 0x9
 1604 0383 FE080000 		.4byte	.LASF68
 1605 0387 0C       		.byte	0xc
 1606 0388 6F01     		.2byte	0x16f
 1607 038a 25030000 		.4byte	0x325
 1608 038e 0C       		.byte	0xc
 1609 038f 09       		.uleb128 0x9
 1610 0390 0F080000 		.4byte	.LASF69
 1611 0394 0C       		.byte	0xc
 1612 0395 7101     		.2byte	0x171
 1613 0397 41030000 		.4byte	0x341
 1614 039b 10       		.byte	0x10
 1615 039c 00       		.byte	0
 1616 039d 03       		.uleb128 0x3
ARM GAS  C:\Users\Luis\AppData\Local\Temp\ccEujqcQ.s 			page 30


 1617 039e EF000000 		.4byte	.LASF70
 1618 03a2 0B       		.byte	0xb
 1619 03a3 66       		.byte	0x66
 1620 03a4 A8030000 		.4byte	0x3a8
 1621 03a8 0B       		.uleb128 0xb
 1622 03a9 3E040000 		.4byte	.LASF71
 1623 03ad 10       		.byte	0x10
 1624 03ae 0C       		.byte	0xc
 1625 03af 7B01     		.2byte	0x17b
 1626 03b1 EA030000 		.4byte	0x3ea
 1627 03b5 09       		.uleb128 0x9
 1628 03b6 B2020000 		.4byte	.LASF65
 1629 03ba 0C       		.byte	0xc
 1630 03bb 7C01     		.2byte	0x17c
 1631 03bd F8070000 		.4byte	0x7f8
 1632 03c1 00       		.byte	0
 1633 03c2 09       		.uleb128 0x9
 1634 03c3 39020000 		.4byte	.LASF66
 1635 03c7 0C       		.byte	0xc
 1636 03c8 7E01     		.2byte	0x17e
 1637 03ca F8070000 		.4byte	0x7f8
 1638 03ce 04       		.byte	0x4
 1639 03cf 09       		.uleb128 0x9
 1640 03d0 58060000 		.4byte	.LASF67
 1641 03d4 0C       		.byte	0xc
 1642 03d5 8001     		.2byte	0x180
 1643 03d7 30010000 		.4byte	0x130
 1644 03db 08       		.byte	0x8
 1645 03dc 09       		.uleb128 0x9
 1646 03dd 82040000 		.4byte	.LASF72
 1647 03e1 0C       		.byte	0xc
 1648 03e2 8801     		.2byte	0x188
 1649 03e4 30010000 		.4byte	0x130
 1650 03e8 0C       		.byte	0xc
 1651 03e9 00       		.byte	0
 1652 03ea 03       		.uleb128 0x3
 1653 03eb 5E000000 		.4byte	.LASF73
 1654 03ef 0B       		.byte	0xb
 1655 03f0 6B       		.byte	0x6b
 1656 03f1 F5030000 		.4byte	0x3f5
 1657 03f5 0F       		.uleb128 0xf
 1658 03f6 48020000 		.4byte	.LASF74
 1659 03fa 1404     		.2byte	0x414
 1660 03fc 0C       		.byte	0xc
 1661 03fd A201     		.2byte	0x1a2
 1662 03ff 38040000 		.4byte	0x438
 1663 0403 09       		.uleb128 0x9
 1664 0404 C3070000 		.4byte	.LASF75
 1665 0408 0C       		.byte	0xc
 1666 0409 AA01     		.2byte	0x1aa
 1667 040b FE070000 		.4byte	0x7fe
 1668 040f 00       		.byte	0
 1669 0410 09       		.uleb128 0x9
 1670 0411 53080000 		.4byte	.LASF76
 1671 0415 0C       		.byte	0xc
 1672 0416 AF01     		.2byte	0x1af
 1673 0418 1A010000 		.4byte	0x11a
ARM GAS  C:\Users\Luis\AppData\Local\Temp\ccEujqcQ.s 			page 31


 1674 041c 04       		.byte	0x4
 1675 041d 09       		.uleb128 0x9
 1676 041e 72020000 		.4byte	.LASF77
 1677 0422 0C       		.byte	0xc
 1678 0423 B301     		.2byte	0x1b3
 1679 0425 1A010000 		.4byte	0x11a
 1680 0429 08       		.byte	0x8
 1681 042a 09       		.uleb128 0x9
 1682 042b AE080000 		.4byte	.LASF78
 1683 042f 0C       		.byte	0xc
 1684 0430 B901     		.2byte	0x1b9
 1685 0432 5E060000 		.4byte	0x65e
 1686 0436 0C       		.byte	0xc
 1687 0437 00       		.byte	0
 1688 0438 03       		.uleb128 0x3
 1689 0439 7C030000 		.4byte	.LASF79
 1690 043d 0B       		.byte	0xb
 1691 043e 70       		.byte	0x70
 1692 043f 43040000 		.4byte	0x443
 1693 0443 0F       		.uleb128 0xf
 1694 0444 98010000 		.4byte	.LASF80
 1695 0448 E805     		.2byte	0x5e8
 1696 044a 0C       		.byte	0xc
 1697 044b C201     		.2byte	0x1c2
 1698 044d B0040000 		.4byte	0x4b0
 1699 0451 09       		.uleb128 0x9
 1700 0452 6D080000 		.4byte	.LASF81
 1701 0456 0C       		.byte	0xc
 1702 0457 C601     		.2byte	0x1c6
 1703 0459 BE020000 		.4byte	0x2be
 1704 045d 00       		.byte	0
 1705 045e 09       		.uleb128 0x9
 1706 045f 41020000 		.4byte	.LASF82
 1707 0463 0C       		.byte	0xc
 1708 0464 CA01     		.2byte	0x1ca
 1709 0466 9D030000 		.4byte	0x39d
 1710 046a 1C       		.byte	0x1c
 1711 046b 08       		.uleb128 0x8
 1712 046c 64626700 		.ascii	"dbg\000"
 1713 0470 0C       		.byte	0xc
 1714 0471 CE01     		.2byte	0x1ce
 1715 0473 EA030000 		.4byte	0x3ea
 1716 0477 2C       		.byte	0x2c
 1717 0478 10       		.uleb128 0x10
 1718 0479 E4000000 		.4byte	.LASF83
 1719 047d 0C       		.byte	0xc
 1720 047e D201     		.2byte	0x1d2
 1721 0480 3B010000 		.4byte	0x13b
 1722 0484 4004     		.2byte	0x440
 1723 0486 11       		.uleb128 0x11
 1724 0487 746D00   		.ascii	"tm\000"
 1725 048a 0C       		.byte	0xc
 1726 048b D701     		.2byte	0x1d7
 1727 048d 7E060000 		.4byte	0x67e
 1728 0491 A804     		.2byte	0x4a8
 1729 0493 10       		.uleb128 0x10
 1730 0494 34000000 		.4byte	.LASF84
ARM GAS  C:\Users\Luis\AppData\Local\Temp\ccEujqcQ.s 			page 32


 1731 0498 0C       		.byte	0xc
 1732 0499 DD01     		.2byte	0x1dd
 1733 049b 10070000 		.4byte	0x710
 1734 049f B004     		.2byte	0x4b0
 1735 04a1 10       		.uleb128 0x10
 1736 04a2 8A020000 		.4byte	.LASF85
 1737 04a6 0C       		.byte	0xc
 1738 04a7 E301     		.2byte	0x1e3
 1739 04a9 03080000 		.4byte	0x803
 1740 04ad E804     		.2byte	0x4e8
 1741 04af 00       		.byte	0
 1742 04b0 04       		.uleb128 0x4
 1743 04b1 04       		.byte	0x4
 1744 04b2 07       		.byte	0x7
 1745 04b3 11040000 		.4byte	.LASF86
 1746 04b7 12       		.uleb128 0x12
 1747 04b8 1C       		.byte	0x1c
 1748 04b9 0D       		.byte	0xd
 1749 04ba 0903     		.2byte	0x309
 1750 04bc 1A050000 		.4byte	0x51a
 1751 04c0 08       		.uleb128 0x8
 1752 04c1 535200   		.ascii	"SR\000"
 1753 04c4 0D       		.byte	0xd
 1754 04c5 0B03     		.2byte	0x30b
 1755 04c7 B2000000 		.4byte	0xb2
 1756 04cb 00       		.byte	0
 1757 04cc 08       		.uleb128 0x8
 1758 04cd 445200   		.ascii	"DR\000"
 1759 04d0 0D       		.byte	0xd
 1760 04d1 0C03     		.2byte	0x30c
 1761 04d3 B2000000 		.4byte	0xb2
 1762 04d7 04       		.byte	0x4
 1763 04d8 08       		.uleb128 0x8
 1764 04d9 42525200 		.ascii	"BRR\000"
 1765 04dd 0D       		.byte	0xd
 1766 04de 0D03     		.2byte	0x30d
 1767 04e0 B2000000 		.4byte	0xb2
 1768 04e4 08       		.byte	0x8
 1769 04e5 08       		.uleb128 0x8
 1770 04e6 43523100 		.ascii	"CR1\000"
 1771 04ea 0D       		.byte	0xd
 1772 04eb 0E03     		.2byte	0x30e
 1773 04ed B2000000 		.4byte	0xb2
 1774 04f1 0C       		.byte	0xc
 1775 04f2 08       		.uleb128 0x8
 1776 04f3 43523200 		.ascii	"CR2\000"
 1777 04f7 0D       		.byte	0xd
 1778 04f8 0F03     		.2byte	0x30f
 1779 04fa B2000000 		.4byte	0xb2
 1780 04fe 10       		.byte	0x10
 1781 04ff 08       		.uleb128 0x8
 1782 0500 43523300 		.ascii	"CR3\000"
 1783 0504 0D       		.byte	0xd
 1784 0505 1003     		.2byte	0x310
 1785 0507 B2000000 		.4byte	0xb2
 1786 050b 14       		.byte	0x14
 1787 050c 09       		.uleb128 0x9
ARM GAS  C:\Users\Luis\AppData\Local\Temp\ccEujqcQ.s 			page 33


 1788 050d 5D010000 		.4byte	.LASF87
 1789 0511 0D       		.byte	0xd
 1790 0512 1103     		.2byte	0x311
 1791 0514 B2000000 		.4byte	0xb2
 1792 0518 18       		.byte	0x18
 1793 0519 00       		.byte	0
 1794 051a 13       		.uleb128 0x13
 1795 051b 88030000 		.4byte	.LASF88
 1796 051f 0D       		.byte	0xd
 1797 0520 1203     		.2byte	0x312
 1798 0522 B7040000 		.4byte	0x4b7
 1799 0526 03       		.uleb128 0x3
 1800 0527 30020000 		.4byte	.LASF89
 1801 052b 0E       		.byte	0xe
 1802 052c 65       		.byte	0x65
 1803 052d 41030000 		.4byte	0x341
 1804 0531 03       		.uleb128 0x3
 1805 0532 DA030000 		.4byte	.LASF90
 1806 0536 0E       		.byte	0xe
 1807 0537 6D       		.byte	0x6d
 1808 0538 9B000000 		.4byte	0x9b
 1809 053c 06       		.uleb128 0x6
 1810 053d E5070000 		.4byte	.LASF91
 1811 0541 04       		.byte	0x4
 1812 0542 0E       		.byte	0xe
 1813 0543 89       		.byte	0x89
 1814 0544 55050000 		.4byte	0x555
 1815 0548 14       		.uleb128 0x14
 1816 0549 72313300 		.ascii	"r13\000"
 1817 054d 0E       		.byte	0xe
 1818 054e 8A       		.byte	0x8a
 1819 054f D0050000 		.4byte	0x5d0
 1820 0553 00       		.byte	0
 1821 0554 00       		.byte	0
 1822 0555 06       		.uleb128 0x6
 1823 0556 41000000 		.4byte	.LASF92
 1824 055a 24       		.byte	0x24
 1825 055b 01       		.byte	0x1
 1826 055c F4       		.byte	0xf4
 1827 055d D0050000 		.4byte	0x5d0
 1828 0561 08       		.uleb128 0x8
 1829 0562 723400   		.ascii	"r4\000"
 1830 0565 01       		.byte	0x1
 1831 0566 0701     		.2byte	0x107
 1832 0568 26050000 		.4byte	0x526
 1833 056c 00       		.byte	0
 1834 056d 08       		.uleb128 0x8
 1835 056e 723500   		.ascii	"r5\000"
 1836 0571 01       		.byte	0x1
 1837 0572 0801     		.2byte	0x108
 1838 0574 26050000 		.4byte	0x526
 1839 0578 04       		.byte	0x4
 1840 0579 08       		.uleb128 0x8
 1841 057a 723600   		.ascii	"r6\000"
 1842 057d 01       		.byte	0x1
 1843 057e 0901     		.2byte	0x109
 1844 0580 26050000 		.4byte	0x526
ARM GAS  C:\Users\Luis\AppData\Local\Temp\ccEujqcQ.s 			page 34


 1845 0584 08       		.byte	0x8
 1846 0585 08       		.uleb128 0x8
 1847 0586 723700   		.ascii	"r7\000"
 1848 0589 01       		.byte	0x1
 1849 058a 0A01     		.2byte	0x10a
 1850 058c 26050000 		.4byte	0x526
 1851 0590 0C       		.byte	0xc
 1852 0591 08       		.uleb128 0x8
 1853 0592 723800   		.ascii	"r8\000"
 1854 0595 01       		.byte	0x1
 1855 0596 0B01     		.2byte	0x10b
 1856 0598 26050000 		.4byte	0x526
 1857 059c 10       		.byte	0x10
 1858 059d 08       		.uleb128 0x8
 1859 059e 723900   		.ascii	"r9\000"
 1860 05a1 01       		.byte	0x1
 1861 05a2 0C01     		.2byte	0x10c
 1862 05a4 26050000 		.4byte	0x526
 1863 05a8 14       		.byte	0x14
 1864 05a9 08       		.uleb128 0x8
 1865 05aa 72313000 		.ascii	"r10\000"
 1866 05ae 01       		.byte	0x1
 1867 05af 0D01     		.2byte	0x10d
 1868 05b1 26050000 		.4byte	0x526
 1869 05b5 18       		.byte	0x18
 1870 05b6 08       		.uleb128 0x8
 1871 05b7 72313100 		.ascii	"r11\000"
 1872 05bb 01       		.byte	0x1
 1873 05bc 0E01     		.2byte	0x10e
 1874 05be 26050000 		.4byte	0x526
 1875 05c2 1C       		.byte	0x1c
 1876 05c3 08       		.uleb128 0x8
 1877 05c4 6C7200   		.ascii	"lr\000"
 1878 05c7 01       		.byte	0x1
 1879 05c8 0F01     		.2byte	0x10f
 1880 05ca 26050000 		.4byte	0x526
 1881 05ce 20       		.byte	0x20
 1882 05cf 00       		.byte	0
 1883 05d0 0A       		.uleb128 0xa
 1884 05d1 04       		.byte	0x4
 1885 05d2 55050000 		.4byte	0x555
 1886 05d6 15       		.uleb128 0x15
 1887 05d7 10       		.byte	0x10
 1888 05d8 0F       		.byte	0xf
 1889 05d9 51       		.byte	0x51
 1890 05da 0F060000 		.4byte	0x60f
 1891 05de 07       		.uleb128 0x7
 1892 05df 15000000 		.4byte	.LASF93
 1893 05e3 0F       		.byte	0xf
 1894 05e4 55       		.byte	0x55
 1895 05e5 30010000 		.4byte	0x130
 1896 05e9 00       		.byte	0
 1897 05ea 07       		.uleb128 0x7
 1898 05eb C8010000 		.4byte	.LASF94
 1899 05ef 0F       		.byte	0xf
 1900 05f0 59       		.byte	0x59
 1901 05f1 64020000 		.4byte	0x264
ARM GAS  C:\Users\Luis\AppData\Local\Temp\ccEujqcQ.s 			page 35


 1902 05f5 04       		.byte	0x4
 1903 05f6 07       		.uleb128 0x7
 1904 05f7 EE080000 		.4byte	.LASF95
 1905 05fb 0F       		.byte	0xf
 1906 05fc 5D       		.byte	0x5d
 1907 05fd 41030000 		.4byte	0x341
 1908 0601 08       		.byte	0x8
 1909 0602 07       		.uleb128 0x7
 1910 0603 D2000000 		.4byte	.LASF96
 1911 0607 0F       		.byte	0xf
 1912 0608 61       		.byte	0x61
 1913 0609 45000000 		.4byte	0x45
 1914 060d 0C       		.byte	0xc
 1915 060e 00       		.byte	0
 1916 060f 03       		.uleb128 0x3
 1917 0610 73040000 		.4byte	.LASF97
 1918 0614 0F       		.byte	0xf
 1919 0615 62       		.byte	0x62
 1920 0616 D6050000 		.4byte	0x5d6
 1921 061a 16       		.uleb128 0x16
 1922 061b 0804     		.2byte	0x408
 1923 061d 0F       		.byte	0xf
 1924 061e 67       		.byte	0x67
 1925 061f 48060000 		.4byte	0x648
 1926 0623 07       		.uleb128 0x7
 1927 0624 20020000 		.4byte	.LASF98
 1928 0628 0F       		.byte	0xf
 1929 0629 6B       		.byte	0x6b
 1930 062a 37000000 		.4byte	0x37
 1931 062e 00       		.byte	0
 1932 062f 07       		.uleb128 0x7
 1933 0630 65040000 		.4byte	.LASF99
 1934 0634 0F       		.byte	0xf
 1935 0635 6F       		.byte	0x6f
 1936 0636 48060000 		.4byte	0x648
 1937 063a 04       		.byte	0x4
 1938 063b 07       		.uleb128 0x7
 1939 063c 3A050000 		.4byte	.LASF100
 1940 0640 0F       		.byte	0xf
 1941 0641 73       		.byte	0x73
 1942 0642 4E060000 		.4byte	0x64e
 1943 0646 08       		.byte	0x8
 1944 0647 00       		.byte	0
 1945 0648 0A       		.uleb128 0xa
 1946 0649 04       		.byte	0x4
 1947 064a 0F060000 		.4byte	0x60f
 1948 064e 17       		.uleb128 0x17
 1949 064f 0F060000 		.4byte	0x60f
 1950 0653 5E060000 		.4byte	0x65e
 1951 0657 18       		.uleb128 0x18
 1952 0658 B0040000 		.4byte	0x4b0
 1953 065c 3F       		.byte	0x3f
 1954 065d 00       		.byte	0
 1955 065e 03       		.uleb128 0x3
 1956 065f A7000000 		.4byte	.LASF101
 1957 0663 0F       		.byte	0xf
 1958 0664 74       		.byte	0x74
ARM GAS  C:\Users\Luis\AppData\Local\Temp\ccEujqcQ.s 			page 36


 1959 0665 1A060000 		.4byte	0x61a
 1960 0669 15       		.uleb128 0x15
 1961 066a 04       		.byte	0x4
 1962 066b 10       		.byte	0x10
 1963 066c 38       		.byte	0x38
 1964 066d 7E060000 		.4byte	0x67e
 1965 0671 07       		.uleb128 0x7
 1966 0672 CD070000 		.4byte	.LASF102
 1967 0676 10       		.byte	0x10
 1968 0677 3C       		.byte	0x3c
 1969 0678 B7000000 		.4byte	0xb7
 1970 067c 00       		.byte	0
 1971 067d 00       		.byte	0
 1972 067e 03       		.uleb128 0x3
 1973 067f 2D040000 		.4byte	.LASF103
 1974 0683 10       		.byte	0x10
 1975 0684 3D       		.byte	0x3d
 1976 0685 69060000 		.4byte	0x669
 1977 0689 15       		.uleb128 0x15
 1978 068a 18       		.byte	0x18
 1979 068b 10       		.byte	0x10
 1980 068c 48       		.byte	0x48
 1981 068d CC060000 		.4byte	0x6cc
 1982 0691 07       		.uleb128 0x7
 1983 0692 8B070000 		.4byte	.LASF104
 1984 0696 10       		.byte	0x10
 1985 0697 49       		.byte	0x49
 1986 0698 B7000000 		.4byte	0xb7
 1987 069c 00       		.byte	0
 1988 069d 07       		.uleb128 0x7
 1989 069e 77000000 		.4byte	.LASF105
 1990 06a2 10       		.byte	0x10
 1991 06a3 4A       		.byte	0x4a
 1992 06a4 B7000000 		.4byte	0xb7
 1993 06a8 04       		.byte	0x4
 1994 06a9 07       		.uleb128 0x7
 1995 06aa 01050000 		.4byte	.LASF106
 1996 06ae 10       		.byte	0x10
 1997 06af 4B       		.byte	0x4b
 1998 06b0 B7000000 		.4byte	0xb7
 1999 06b4 08       		.byte	0x8
 2000 06b5 14       		.uleb128 0x14
 2001 06b6 6E00     		.ascii	"n\000"
 2002 06b8 10       		.byte	0x10
 2003 06b9 4C       		.byte	0x4c
 2004 06ba 25010000 		.4byte	0x125
 2005 06be 0C       		.byte	0xc
 2006 06bf 07       		.uleb128 0x7
 2007 06c0 1D050000 		.4byte	.LASF107
 2008 06c4 10       		.byte	0x10
 2009 06c5 4D       		.byte	0x4d
 2010 06c6 C2000000 		.4byte	0xc2
 2011 06ca 10       		.byte	0x10
 2012 06cb 00       		.byte	0
 2013 06cc 03       		.uleb128 0x3
 2014 06cd 7D000000 		.4byte	.LASF108
 2015 06d1 10       		.byte	0x10
ARM GAS  C:\Users\Luis\AppData\Local\Temp\ccEujqcQ.s 			page 37


 2016 06d2 4E       		.byte	0x4e
 2017 06d3 89060000 		.4byte	0x689
 2018 06d7 15       		.uleb128 0x15
 2019 06d8 38       		.byte	0x38
 2020 06d9 11       		.byte	0x11
 2021 06da 38       		.byte	0x38
 2022 06db 10070000 		.4byte	0x710
 2023 06df 07       		.uleb128 0x7
 2024 06e0 08030000 		.4byte	.LASF109
 2025 06e4 11       		.byte	0x11
 2026 06e5 39       		.byte	0x39
 2027 06e6 25010000 		.4byte	0x125
 2028 06ea 00       		.byte	0
 2029 06eb 07       		.uleb128 0x7
 2030 06ec 72050000 		.4byte	.LASF110
 2031 06f0 11       		.byte	0x11
 2032 06f1 3A       		.byte	0x3a
 2033 06f2 25010000 		.4byte	0x125
 2034 06f6 04       		.byte	0x4
 2035 06f7 07       		.uleb128 0x7
 2036 06f8 DB080000 		.4byte	.LASF111
 2037 06fc 11       		.byte	0x11
 2038 06fd 3B       		.byte	0x3b
 2039 06fe CC060000 		.4byte	0x6cc
 2040 0702 08       		.byte	0x8
 2041 0703 07       		.uleb128 0x7
 2042 0704 A5030000 		.4byte	.LASF112
 2043 0708 11       		.byte	0x11
 2044 0709 3D       		.byte	0x3d
 2045 070a CC060000 		.4byte	0x6cc
 2046 070e 20       		.byte	0x20
 2047 070f 00       		.byte	0
 2048 0710 03       		.uleb128 0x3
 2049 0711 3D030000 		.4byte	.LASF113
 2050 0715 11       		.byte	0x11
 2051 0716 3F       		.byte	0x3f
 2052 0717 D7060000 		.4byte	0x6d7
 2053 071b 19       		.uleb128 0x19
 2054 071c 04       		.byte	0x4
 2055 071d 0C       		.byte	0xc
 2056 071e FA       		.byte	0xfa
 2057 071f 78070000 		.4byte	0x778
 2058 0723 1A       		.uleb128 0x1a
 2059 0724 24000000 		.4byte	.LASF114
 2060 0728 0C       		.byte	0xc
 2061 0729 0101     		.2byte	0x101
 2062 072b F9000000 		.4byte	0xf9
 2063 072f 1A       		.uleb128 0x1a
 2064 0730 DB000000 		.4byte	.LASF115
 2065 0734 0C       		.byte	0xc
 2066 0735 0801     		.2byte	0x108
 2067 0737 F9000000 		.4byte	0xf9
 2068 073b 1A       		.uleb128 0x1a
 2069 073c 98080000 		.4byte	.LASF116
 2070 0740 0C       		.byte	0xc
 2071 0741 0F01     		.2byte	0x10f
 2072 0743 41030000 		.4byte	0x341
ARM GAS  C:\Users\Luis\AppData\Local\Temp\ccEujqcQ.s 			page 38


 2073 0747 1A       		.uleb128 0x1a
 2074 0748 5F040000 		.4byte	.LASF117
 2075 074c 0C       		.byte	0xc
 2076 074d 1601     		.2byte	0x116
 2077 074f 78070000 		.4byte	0x778
 2078 0753 1A       		.uleb128 0x1a
 2079 0754 DB020000 		.4byte	.LASF118
 2080 0758 0C       		.byte	0xc
 2081 0759 1E01     		.2byte	0x11e
 2082 075b A3070000 		.4byte	0x7a3
 2083 075f 1A       		.uleb128 0x1a
 2084 0760 49060000 		.4byte	.LASF119
 2085 0764 0C       		.byte	0xc
 2086 0765 2701     		.2byte	0x127
 2087 0767 DA070000 		.4byte	0x7da
 2088 076b 1A       		.uleb128 0x1a
 2089 076c CF050000 		.4byte	.LASF120
 2090 0770 0C       		.byte	0xc
 2091 0771 2F01     		.2byte	0x12f
 2092 0773 04010000 		.4byte	0x104
 2093 0777 00       		.byte	0
 2094 0778 0A       		.uleb128 0xa
 2095 0779 04       		.byte	0x4
 2096 077a 59020000 		.4byte	0x259
 2097 077e 06       		.uleb128 0x6
 2098 077f 1E060000 		.4byte	.LASF121
 2099 0783 0C       		.byte	0xc
 2100 0784 12       		.byte	0x12
 2101 0785 34       		.byte	0x34
 2102 0786 A3070000 		.4byte	0x7a3
 2103 078a 07       		.uleb128 0x7
 2104 078b 11020000 		.4byte	.LASF122
 2105 078f 12       		.byte	0x12
 2106 0790 35       		.byte	0x35
 2107 0791 8E020000 		.4byte	0x28e
 2108 0795 00       		.byte	0
 2109 0796 07       		.uleb128 0x7
 2110 0797 0E030000 		.4byte	.LASF123
 2111 079b 12       		.byte	0x12
 2112 079c 37       		.byte	0x37
 2113 079d 1A010000 		.4byte	0x11a
 2114 07a1 08       		.byte	0x8
 2115 07a2 00       		.byte	0
 2116 07a3 0A       		.uleb128 0xa
 2117 07a4 04       		.byte	0x4
 2118 07a5 7E070000 		.4byte	0x77e
 2119 07a9 06       		.uleb128 0x6
 2120 07aa 42080000 		.4byte	.LASF124
 2121 07ae 10       		.byte	0x10
 2122 07af 13       		.byte	0x13
 2123 07b0 39       		.byte	0x39
 2124 07b1 DA070000 		.4byte	0x7da
 2125 07b5 07       		.uleb128 0x7
 2126 07b6 7E010000 		.4byte	.LASF125
 2127 07ba 13       		.byte	0x13
 2128 07bb 3A       		.byte	0x3a
 2129 07bc 8E020000 		.4byte	0x28e
ARM GAS  C:\Users\Luis\AppData\Local\Temp\ccEujqcQ.s 			page 39


 2130 07c0 00       		.byte	0
 2131 07c1 07       		.uleb128 0x7
 2132 07c2 E6080000 		.4byte	.LASF126
 2133 07c6 13       		.byte	0x13
 2134 07c7 3C       		.byte	0x3c
 2135 07c8 64020000 		.4byte	0x264
 2136 07cc 08       		.byte	0x8
 2137 07cd 07       		.uleb128 0x7
 2138 07ce 90070000 		.4byte	.LASF127
 2139 07d2 13       		.byte	0x13
 2140 07d3 3E       		.byte	0x3e
 2141 07d4 1E080000 		.4byte	0x81e
 2142 07d8 0C       		.byte	0xc
 2143 07d9 00       		.byte	0
 2144 07da 0A       		.uleb128 0xa
 2145 07db 04       		.byte	0x4
 2146 07dc A9070000 		.4byte	0x7a9
 2147 07e0 0A       		.uleb128 0xa
 2148 07e1 04       		.byte	0x4
 2149 07e2 E6070000 		.4byte	0x7e6
 2150 07e6 1B       		.uleb128 0x1b
 2151 07e7 EB070000 		.4byte	0x7eb
 2152 07eb 04       		.uleb128 0x4
 2153 07ec 01       		.byte	0x1
 2154 07ed 08       		.byte	0x8
 2155 07ee 95060000 		.4byte	.LASF128
 2156 07f2 0A       		.uleb128 0xa
 2157 07f3 04       		.byte	0x4
 2158 07f4 31050000 		.4byte	0x531
 2159 07f8 0A       		.uleb128 0xa
 2160 07f9 04       		.byte	0x4
 2161 07fa 43030000 		.4byte	0x343
 2162 07fe 05       		.uleb128 0x5
 2163 07ff E0070000 		.4byte	0x7e0
 2164 0803 17       		.uleb128 0x17
 2165 0804 31050000 		.4byte	0x531
 2166 0808 13080000 		.4byte	0x813
 2167 080c 18       		.uleb128 0x18
 2168 080d B0040000 		.4byte	0x4b0
 2169 0811 1F       		.byte	0x1f
 2170 0812 00       		.byte	0
 2171 0813 03       		.uleb128 0x3
 2172 0814 64020000 		.4byte	.LASF129
 2173 0818 13       		.byte	0x13
 2174 0819 34       		.byte	0x34
 2175 081a A9070000 		.4byte	0x7a9
 2176 081e 0A       		.uleb128 0xa
 2177 081f 04       		.byte	0x4
 2178 0820 13080000 		.4byte	0x813
 2179 0824 03       		.uleb128 0x3
 2180 0825 D4070000 		.4byte	.LASF130
 2181 0829 04       		.byte	0x4
 2182 082a 34       		.byte	0x34
 2183 082b 2F080000 		.4byte	0x82f
 2184 082f 06       		.uleb128 0x6
 2185 0830 06090000 		.4byte	.LASF131
 2186 0834 14       		.byte	0x14
ARM GAS  C:\Users\Luis\AppData\Local\Temp\ccEujqcQ.s 			page 40


 2187 0835 04       		.byte	0x4
 2188 0836 39       		.byte	0x39
 2189 0837 78080000 		.4byte	0x878
 2190 083b 07       		.uleb128 0x7
 2191 083c 74030000 		.4byte	.LASF132
 2192 0840 04       		.byte	0x4
 2193 0841 3A       		.byte	0x3a
 2194 0842 78080000 		.4byte	0x878
 2195 0846 00       		.byte	0
 2196 0847 07       		.uleb128 0x7
 2197 0848 97050000 		.4byte	.LASF133
 2198 084c 04       		.byte	0x4
 2199 084d 3D       		.byte	0x3d
 2200 084e 64020000 		.4byte	0x264
 2201 0852 04       		.byte	0x4
 2202 0853 07       		.uleb128 0x7
 2203 0854 06050000 		.4byte	.LASF134
 2204 0858 04       		.byte	0x4
 2205 0859 3F       		.byte	0x3f
 2206 085a 04010000 		.4byte	0x104
 2207 085e 08       		.byte	0x8
 2208 085f 07       		.uleb128 0x7
 2209 0860 A3050000 		.4byte	.LASF135
 2210 0864 04       		.byte	0x4
 2211 0865 41       		.byte	0x41
 2212 0866 0F010000 		.4byte	0x10f
 2213 086a 0C       		.byte	0xc
 2214 086b 07       		.uleb128 0x7
 2215 086c 56030000 		.4byte	.LASF136
 2216 0870 04       		.byte	0x4
 2217 0871 43       		.byte	0x43
 2218 0872 0F010000 		.4byte	0x10f
 2219 0876 10       		.byte	0x10
 2220 0877 00       		.byte	0
 2221 0878 0A       		.uleb128 0xa
 2222 0879 04       		.byte	0x4
 2223 087a 24080000 		.4byte	0x824
 2224 087e 06       		.uleb128 0x6
 2225 087f AB010000 		.4byte	.LASF137
 2226 0883 04       		.byte	0x4
 2227 0884 04       		.byte	0x4
 2228 0885 4A       		.byte	0x4a
 2229 0886 97080000 		.4byte	0x897
 2230 088a 07       		.uleb128 0x7
 2231 088b 4B080000 		.4byte	.LASF138
 2232 088f 04       		.byte	0x4
 2233 0890 4B       		.byte	0x4b
 2234 0891 78080000 		.4byte	0x878
 2235 0895 00       		.byte	0
 2236 0896 00       		.byte	0
 2237 0897 03       		.uleb128 0x3
 2238 0898 7B020000 		.4byte	.LASF139
 2239 089c 04       		.byte	0x4
 2240 089d 4E       		.byte	0x4e
 2241 089e 7E080000 		.4byte	0x87e
 2242 08a2 03       		.uleb128 0x3
 2243 08a3 12010000 		.4byte	.LASF140
ARM GAS  C:\Users\Luis\AppData\Local\Temp\ccEujqcQ.s 			page 41


 2244 08a7 05       		.byte	0x5
 2245 08a8 3F       		.byte	0x3f
 2246 08a9 AD080000 		.4byte	0x8ad
 2247 08ad 06       		.uleb128 0x6
 2248 08ae 08040000 		.4byte	.LASF141
 2249 08b2 24       		.byte	0x24
 2250 08b3 05       		.byte	0x5
 2251 08b4 4D       		.byte	0x4d
 2252 08b5 1A090000 		.4byte	0x91a
 2253 08b9 07       		.uleb128 0x7
 2254 08ba 39010000 		.4byte	.LASF142
 2255 08be 05       		.byte	0x5
 2256 08bf 4E       		.byte	0x4e
 2257 08c0 8E020000 		.4byte	0x28e
 2258 08c4 00       		.byte	0
 2259 08c5 07       		.uleb128 0x7
 2260 08c6 55040000 		.4byte	.LASF143
 2261 08ca 05       		.byte	0x5
 2262 08cb 4F       		.byte	0x4f
 2263 08cc 3C090000 		.4byte	0x93c
 2264 08d0 08       		.byte	0x8
 2265 08d1 07       		.uleb128 0x7
 2266 08d2 CE010000 		.4byte	.LASF144
 2267 08d6 05       		.byte	0x5
 2268 08d7 50       		.byte	0x50
 2269 08d8 41090000 		.4byte	0x941
 2270 08dc 0C       		.byte	0xc
 2271 08dd 07       		.uleb128 0x7
 2272 08de 3C080000 		.4byte	.LASF145
 2273 08e2 05       		.byte	0x5
 2274 08e3 51       		.byte	0x51
 2275 08e4 41090000 		.4byte	0x941
 2276 08e8 10       		.byte	0x10
 2277 08e9 07       		.uleb128 0x7
 2278 08ea D7010000 		.4byte	.LASF146
 2279 08ee 05       		.byte	0x5
 2280 08ef 53       		.byte	0x53
 2281 08f0 41090000 		.4byte	0x941
 2282 08f4 14       		.byte	0x14
 2283 08f5 07       		.uleb128 0x7
 2284 08f6 63050000 		.4byte	.LASF147
 2285 08fa 05       		.byte	0x5
 2286 08fb 54       		.byte	0x54
 2287 08fc 41090000 		.4byte	0x941
 2288 0900 18       		.byte	0x18
 2289 0901 07       		.uleb128 0x7
 2290 0902 64080000 		.4byte	.LASF148
 2291 0906 05       		.byte	0x5
 2292 0907 55       		.byte	0x55
 2293 0908 1A090000 		.4byte	0x91a
 2294 090c 1C       		.byte	0x1c
 2295 090d 07       		.uleb128 0x7
 2296 090e D4080000 		.4byte	.LASF149
 2297 0912 05       		.byte	0x5
 2298 0913 56       		.byte	0x56
 2299 0914 41030000 		.4byte	0x341
 2300 0918 20       		.byte	0x20
ARM GAS  C:\Users\Luis\AppData\Local\Temp\ccEujqcQ.s 			page 42


 2301 0919 00       		.byte	0
 2302 091a 03       		.uleb128 0x3
 2303 091b D0030000 		.4byte	.LASF150
 2304 091f 05       		.byte	0x5
 2305 0920 42       		.byte	0x42
 2306 0921 25090000 		.4byte	0x925
 2307 0925 0A       		.uleb128 0xa
 2308 0926 04       		.byte	0x4
 2309 0927 2B090000 		.4byte	0x92b
 2310 092b 0C       		.uleb128 0xc
 2311 092c 36090000 		.4byte	0x936
 2312 0930 0D       		.uleb128 0xd
 2313 0931 36090000 		.4byte	0x936
 2314 0935 00       		.byte	0
 2315 0936 0A       		.uleb128 0xa
 2316 0937 04       		.byte	0x4
 2317 0938 A2080000 		.4byte	0x8a2
 2318 093c 05       		.uleb128 0x5
 2319 093d 2C000000 		.4byte	0x2c
 2320 0941 0A       		.uleb128 0xa
 2321 0942 04       		.byte	0x4
 2322 0943 45000000 		.4byte	0x45
 2323 0947 03       		.uleb128 0x3
 2324 0948 EB030000 		.4byte	.LASF151
 2325 094c 05       		.byte	0x5
 2326 094d 64       		.byte	0x64
 2327 094e A2080000 		.4byte	0x8a2
 2328 0952 03       		.uleb128 0x3
 2329 0953 23080000 		.4byte	.LASF152
 2330 0957 05       		.byte	0x5
 2331 0958 71       		.byte	0x71
 2332 0959 A2080000 		.4byte	0x8a2
 2333 095d 1C       		.uleb128 0x1c
 2334 095e 2C000000 		.4byte	0x2c
 2335 0962 76090000 		.4byte	0x976
 2336 0966 0D       		.uleb128 0xd
 2337 0967 41030000 		.4byte	0x341
 2338 096b 0D       		.uleb128 0xd
 2339 096c 76090000 		.4byte	0x976
 2340 0970 0D       		.uleb128 0xd
 2341 0971 2C000000 		.4byte	0x2c
 2342 0975 00       		.byte	0
 2343 0976 0A       		.uleb128 0xa
 2344 0977 04       		.byte	0x4
 2345 0978 7C090000 		.4byte	0x97c
 2346 097c 1B       		.uleb128 0x1b
 2347 097d 45000000 		.4byte	0x45
 2348 0981 0A       		.uleb128 0xa
 2349 0982 04       		.byte	0x4
 2350 0983 5D090000 		.4byte	0x95d
 2351 0987 1C       		.uleb128 0x1c
 2352 0988 2C000000 		.4byte	0x2c
 2353 098c A0090000 		.4byte	0x9a0
 2354 0990 0D       		.uleb128 0xd
 2355 0991 41030000 		.4byte	0x341
 2356 0995 0D       		.uleb128 0xd
 2357 0996 41090000 		.4byte	0x941
ARM GAS  C:\Users\Luis\AppData\Local\Temp\ccEujqcQ.s 			page 43


 2358 099a 0D       		.uleb128 0xd
 2359 099b 2C000000 		.4byte	0x2c
 2360 099f 00       		.byte	0
 2361 09a0 0A       		.uleb128 0xa
 2362 09a1 04       		.byte	0x4
 2363 09a2 87090000 		.4byte	0x987
 2364 09a6 1C       		.uleb128 0x1c
 2365 09a7 F9000000 		.4byte	0xf9
 2366 09ab BA090000 		.4byte	0x9ba
 2367 09af 0D       		.uleb128 0xd
 2368 09b0 41030000 		.4byte	0x341
 2369 09b4 0D       		.uleb128 0xd
 2370 09b5 45000000 		.4byte	0x45
 2371 09b9 00       		.byte	0
 2372 09ba 0A       		.uleb128 0xa
 2373 09bb 04       		.byte	0x4
 2374 09bc A6090000 		.4byte	0x9a6
 2375 09c0 1C       		.uleb128 0x1c
 2376 09c1 F9000000 		.4byte	0xf9
 2377 09c5 CF090000 		.4byte	0x9cf
 2378 09c9 0D       		.uleb128 0xd
 2379 09ca 41030000 		.4byte	0x341
 2380 09ce 00       		.byte	0
 2381 09cf 0A       		.uleb128 0xa
 2382 09d0 04       		.byte	0x4
 2383 09d1 C0090000 		.4byte	0x9c0
 2384 09d5 1C       		.uleb128 0x1c
 2385 09d6 F9000000 		.4byte	0xf9
 2386 09da EE090000 		.4byte	0x9ee
 2387 09de 0D       		.uleb128 0xd
 2388 09df 41030000 		.4byte	0x341
 2389 09e3 0D       		.uleb128 0xd
 2390 09e4 45000000 		.4byte	0x45
 2391 09e8 0D       		.uleb128 0xd
 2392 09e9 30010000 		.4byte	0x130
 2393 09ed 00       		.byte	0
 2394 09ee 0A       		.uleb128 0xa
 2395 09ef 04       		.byte	0x4
 2396 09f0 D5090000 		.4byte	0x9d5
 2397 09f4 1C       		.uleb128 0x1c
 2398 09f5 F9000000 		.4byte	0xf9
 2399 09f9 080A0000 		.4byte	0xa08
 2400 09fd 0D       		.uleb128 0xd
 2401 09fe 41030000 		.4byte	0x341
 2402 0a02 0D       		.uleb128 0xd
 2403 0a03 30010000 		.4byte	0x130
 2404 0a07 00       		.byte	0
 2405 0a08 0A       		.uleb128 0xa
 2406 0a09 04       		.byte	0x4
 2407 0a0a F4090000 		.4byte	0x9f4
 2408 0a0e 1C       		.uleb128 0x1c
 2409 0a0f 2C000000 		.4byte	0x2c
 2410 0a13 2C0A0000 		.4byte	0xa2c
 2411 0a17 0D       		.uleb128 0xd
 2412 0a18 41030000 		.4byte	0x341
 2413 0a1c 0D       		.uleb128 0xd
 2414 0a1d 76090000 		.4byte	0x976
ARM GAS  C:\Users\Luis\AppData\Local\Temp\ccEujqcQ.s 			page 44


 2415 0a21 0D       		.uleb128 0xd
 2416 0a22 2C000000 		.4byte	0x2c
 2417 0a26 0D       		.uleb128 0xd
 2418 0a27 30010000 		.4byte	0x130
 2419 0a2b 00       		.byte	0
 2420 0a2c 0A       		.uleb128 0xa
 2421 0a2d 04       		.byte	0x4
 2422 0a2e 0E0A0000 		.4byte	0xa0e
 2423 0a32 1C       		.uleb128 0x1c
 2424 0a33 2C000000 		.4byte	0x2c
 2425 0a37 500A0000 		.4byte	0xa50
 2426 0a3b 0D       		.uleb128 0xd
 2427 0a3c 41030000 		.4byte	0x341
 2428 0a40 0D       		.uleb128 0xd
 2429 0a41 41090000 		.4byte	0x941
 2430 0a45 0D       		.uleb128 0xd
 2431 0a46 2C000000 		.4byte	0x2c
 2432 0a4a 0D       		.uleb128 0xd
 2433 0a4b 30010000 		.4byte	0x130
 2434 0a4f 00       		.byte	0
 2435 0a50 0A       		.uleb128 0xa
 2436 0a51 04       		.byte	0x4
 2437 0a52 320A0000 		.4byte	0xa32
 2438 0a56 04       		.uleb128 0x4
 2439 0a57 01       		.byte	0x1
 2440 0a58 02       		.byte	0x2
 2441 0a59 7B050000 		.4byte	.LASF153
 2442 0a5d 1D       		.uleb128 0x1d
 2443 0a5e 01       		.byte	0x1
 2444 0a5f 14       		.byte	0x14
 2445 0a60 55       		.byte	0x55
 2446 0a61 780A0000 		.4byte	0xa78
 2447 0a65 1E       		.uleb128 0x1e
 2448 0a66 36060000 		.4byte	.LASF154
 2449 0a6a 00       		.sleb128 0
 2450 0a6b 1E       		.uleb128 0x1e
 2451 0a6c 01020000 		.4byte	.LASF155
 2452 0a70 01       		.sleb128 1
 2453 0a71 1E       		.uleb128 0x1e
 2454 0a72 06080000 		.4byte	.LASF156
 2455 0a76 02       		.sleb128 2
 2456 0a77 00       		.byte	0
 2457 0a78 03       		.uleb128 0x3
 2458 0a79 32080000 		.4byte	.LASF157
 2459 0a7d 14       		.byte	0x14
 2460 0a7e 59       		.byte	0x59
 2461 0a7f 5D0A0000 		.4byte	0xa5d
 2462 0a83 03       		.uleb128 0x3
 2463 0a84 71060000 		.4byte	.LASF158
 2464 0a88 14       		.byte	0x14
 2465 0a89 5E       		.byte	0x5e
 2466 0a8a 8E0A0000 		.4byte	0xa8e
 2467 0a8e 1F       		.uleb128 0x1f
 2468 0a8f 71060000 		.4byte	.LASF158
 2469 0a93 5820     		.2byte	0x2058
 2470 0a95 14       		.byte	0x14
 2471 0a96 78       		.byte	0x78
ARM GAS  C:\Users\Luis\AppData\Local\Temp\ccEujqcQ.s 			page 45


 2472 0a97 FC0A0000 		.4byte	0xafc
 2473 0a9b 14       		.uleb128 0x14
 2474 0a9c 766D7400 		.ascii	"vmt\000"
 2475 0aa0 14       		.byte	0x14
 2476 0aa1 7A       		.byte	0x7a
 2477 0aa2 AD0B0000 		.4byte	0xbad
 2478 0aa6 00       		.byte	0
 2479 0aa7 07       		.uleb128 0x7
 2480 0aa8 14030000 		.4byte	.LASF159
 2481 0aac 14       		.byte	0x14
 2482 0aad 7B       		.byte	0x7b
 2483 0aae 97080000 		.4byte	0x897
 2484 0ab2 04       		.byte	0x4
 2485 0ab3 07       		.uleb128 0x7
 2486 0ab4 92010000 		.4byte	.LASF160
 2487 0ab8 14       		.byte	0x14
 2488 0ab9 7B       		.byte	0x7b
 2489 0aba 780A0000 		.4byte	0xa78
 2490 0abe 08       		.byte	0x8
 2491 0abf 07       		.uleb128 0x7
 2492 0ac0 E2020000 		.4byte	.LASF161
 2493 0ac4 14       		.byte	0x14
 2494 0ac5 7B       		.byte	0x7b
 2495 0ac6 47090000 		.4byte	0x947
 2496 0aca 0C       		.byte	0xc
 2497 0acb 07       		.uleb128 0x7
 2498 0acc 66030000 		.4byte	.LASF162
 2499 0ad0 14       		.byte	0x14
 2500 0ad1 7B       		.byte	0x7b
 2501 0ad2 52090000 		.4byte	0x952
 2502 0ad6 30       		.byte	0x30
 2503 0ad7 14       		.uleb128 0x14
 2504 0ad8 696200   		.ascii	"ib\000"
 2505 0adb 14       		.byte	0x14
 2506 0adc 7B       		.byte	0x7b
 2507 0add B80B0000 		.4byte	0xbb8
 2508 0ae1 54       		.byte	0x54
 2509 0ae2 20       		.uleb128 0x20
 2510 0ae3 6F6200   		.ascii	"ob\000"
 2511 0ae6 14       		.byte	0x14
 2512 0ae7 7B       		.byte	0x7b
 2513 0ae8 B80B0000 		.4byte	0xbb8
 2514 0aec 5410     		.2byte	0x1054
 2515 0aee 21       		.uleb128 0x21
 2516 0aef 9F020000 		.4byte	.LASF163
 2517 0af3 14       		.byte	0x14
 2518 0af4 7B       		.byte	0x7b
 2519 0af5 C90B0000 		.4byte	0xbc9
 2520 0af9 5420     		.2byte	0x2054
 2521 0afb 00       		.byte	0
 2522 0afc 15       		.uleb128 0x15
 2523 0afd 0C       		.byte	0xc
 2524 0afe 15       		.byte	0x15
 2525 0aff D7       		.byte	0xd7
 2526 0b00 350B0000 		.4byte	0xb35
 2527 0b04 07       		.uleb128 0x7
 2528 0b05 CA030000 		.4byte	.LASF164
ARM GAS  C:\Users\Luis\AppData\Local\Temp\ccEujqcQ.s 			page 46


 2529 0b09 15       		.byte	0x15
 2530 0b0a DB       		.byte	0xdb
 2531 0b0b 82000000 		.4byte	0x82
 2532 0b0f 00       		.byte	0
 2533 0b10 14       		.uleb128 0x14
 2534 0b11 63723100 		.ascii	"cr1\000"
 2535 0b15 15       		.byte	0x15
 2536 0b16 E0       		.byte	0xe0
 2537 0b17 5E000000 		.4byte	0x5e
 2538 0b1b 04       		.byte	0x4
 2539 0b1c 14       		.uleb128 0x14
 2540 0b1d 63723200 		.ascii	"cr2\000"
 2541 0b21 15       		.byte	0x15
 2542 0b22 E4       		.byte	0xe4
 2543 0b23 5E000000 		.4byte	0x5e
 2544 0b27 06       		.byte	0x6
 2545 0b28 14       		.uleb128 0x14
 2546 0b29 63723300 		.ascii	"cr3\000"
 2547 0b2d 15       		.byte	0x15
 2548 0b2e E8       		.byte	0xe8
 2549 0b2f 5E000000 		.4byte	0x5e
 2550 0b33 08       		.byte	0x8
 2551 0b34 00       		.byte	0
 2552 0b35 03       		.uleb128 0x3
 2553 0b36 10050000 		.4byte	.LASF165
 2554 0b3a 15       		.byte	0x15
 2555 0b3b E9       		.byte	0xe9
 2556 0b3c FC0A0000 		.4byte	0xafc
 2557 0b40 06       		.uleb128 0x6
 2558 0b41 C3020000 		.4byte	.LASF166
 2559 0b45 20       		.byte	0x20
 2560 0b46 14       		.byte	0x14
 2561 0b47 6D       		.byte	0x6d
 2562 0b48 AD0B0000 		.4byte	0xbad
 2563 0b4c 07       		.uleb128 0x7
 2564 0b4d E5030000 		.4byte	.LASF167
 2565 0b51 14       		.byte	0x14
 2566 0b52 6E       		.byte	0x6e
 2567 0b53 81090000 		.4byte	0x981
 2568 0b57 00       		.byte	0
 2569 0b58 07       		.uleb128 0x7
 2570 0b59 90060000 		.4byte	.LASF168
 2571 0b5d 14       		.byte	0x14
 2572 0b5e 6E       		.byte	0x6e
 2573 0b5f A0090000 		.4byte	0x9a0
 2574 0b63 04       		.byte	0x4
 2575 0b64 14       		.uleb128 0x14
 2576 0b65 70757400 		.ascii	"put\000"
 2577 0b69 14       		.byte	0x14
 2578 0b6a 6E       		.byte	0x6e
 2579 0b6b BA090000 		.4byte	0x9ba
 2580 0b6f 08       		.byte	0x8
 2581 0b70 14       		.uleb128 0x14
 2582 0b71 67657400 		.ascii	"get\000"
 2583 0b75 14       		.byte	0x14
 2584 0b76 6E       		.byte	0x6e
 2585 0b77 CF090000 		.4byte	0x9cf
ARM GAS  C:\Users\Luis\AppData\Local\Temp\ccEujqcQ.s 			page 47


 2586 0b7b 0C       		.byte	0xc
 2587 0b7c 07       		.uleb128 0x7
 2588 0b7d F9030000 		.4byte	.LASF169
 2589 0b81 14       		.byte	0x14
 2590 0b82 6E       		.byte	0x6e
 2591 0b83 EE090000 		.4byte	0x9ee
 2592 0b87 10       		.byte	0x10
 2593 0b88 07       		.uleb128 0x7
 2594 0b89 03030000 		.4byte	.LASF170
 2595 0b8d 14       		.byte	0x14
 2596 0b8e 6E       		.byte	0x6e
 2597 0b8f 080A0000 		.4byte	0xa08
 2598 0b93 14       		.byte	0x14
 2599 0b94 07       		.uleb128 0x7
 2600 0b95 96030000 		.4byte	.LASF171
 2601 0b99 14       		.byte	0x14
 2602 0b9a 6E       		.byte	0x6e
 2603 0b9b 2C0A0000 		.4byte	0xa2c
 2604 0b9f 18       		.byte	0x18
 2605 0ba0 07       		.uleb128 0x7
 2606 0ba1 33010000 		.4byte	.LASF172
 2607 0ba5 14       		.byte	0x14
 2608 0ba6 6E       		.byte	0x6e
 2609 0ba7 500A0000 		.4byte	0xa50
 2610 0bab 1C       		.byte	0x1c
 2611 0bac 00       		.byte	0
 2612 0bad 0A       		.uleb128 0xa
 2613 0bae 04       		.byte	0x4
 2614 0baf B30B0000 		.4byte	0xbb3
 2615 0bb3 1B       		.uleb128 0x1b
 2616 0bb4 400B0000 		.4byte	0xb40
 2617 0bb8 17       		.uleb128 0x17
 2618 0bb9 45000000 		.4byte	0x45
 2619 0bbd C90B0000 		.4byte	0xbc9
 2620 0bc1 22       		.uleb128 0x22
 2621 0bc2 B0040000 		.4byte	0x4b0
 2622 0bc6 FF0F     		.2byte	0xfff
 2623 0bc8 00       		.byte	0
 2624 0bc9 0A       		.uleb128 0xa
 2625 0bca 04       		.byte	0x4
 2626 0bcb 1A050000 		.4byte	0x51a
 2627 0bcf 0A       		.uleb128 0xa
 2628 0bd0 04       		.byte	0x4
 2629 0bd1 47090000 		.4byte	0x947
 2630 0bd5 23       		.uleb128 0x23
 2631 0bd6 B5070000 		.4byte	.LASF198
 2632 0bda 02       		.byte	0x2
 2633 0bdb 2002     		.2byte	0x220
 2634 0bdd 03       		.byte	0x3
 2635 0bde EF0B0000 		.4byte	0xbef
 2636 0be2 24       		.uleb128 0x24
 2637 0be3 6C020000 		.4byte	.LASF199
 2638 0be7 02       		.byte	0x2
 2639 0be8 2002     		.2byte	0x220
 2640 0bea 82000000 		.4byte	0x82
 2641 0bee 00       		.byte	0
 2642 0bef 25       		.uleb128 0x25
ARM GAS  C:\Users\Luis\AppData\Local\Temp\ccEujqcQ.s 			page 48


 2643 0bf0 6D000000 		.4byte	.LASF173
 2644 0bf4 01       		.byte	0x1
 2645 0bf5 BC01     		.2byte	0x1bc
 2646 0bf7 00000000 		.4byte	.LFB116
 2647 0bfb 1A000000 		.4byte	.LFE116-.LFB116
 2648 0bff 01       		.uleb128 0x1
 2649 0c00 9C       		.byte	0x9c
 2650 0c01 1F0C0000 		.4byte	0xc1f
 2651 0c05 26       		.uleb128 0x26
 2652 0c06 D50B0000 		.4byte	0xbd5
 2653 0c0a 0A000000 		.4byte	.LBB6
 2654 0c0e 06000000 		.4byte	.LBE6-.LBB6
 2655 0c12 01       		.byte	0x1
 2656 0c13 BF01     		.2byte	0x1bf
 2657 0c15 27       		.uleb128 0x27
 2658 0c16 E20B0000 		.4byte	0xbe2
 2659 0c1a 02       		.uleb128 0x2
 2660 0c1b 91       		.byte	0x91
 2661 0c1c 74       		.sleb128 -12
 2662 0c1d 00       		.byte	0
 2663 0c1e 00       		.byte	0
 2664 0c1f 25       		.uleb128 0x25
 2665 0c20 86010000 		.4byte	.LASF174
 2666 0c24 01       		.byte	0x1
 2667 0c25 CA01     		.2byte	0x1ca
 2668 0c27 00000000 		.4byte	.LFB117
 2669 0c2b 1A000000 		.4byte	.LFE117-.LFB117
 2670 0c2f 01       		.uleb128 0x1
 2671 0c30 9C       		.byte	0x9c
 2672 0c31 4F0C0000 		.4byte	0xc4f
 2673 0c35 26       		.uleb128 0x26
 2674 0c36 D50B0000 		.4byte	0xbd5
 2675 0c3a 0A000000 		.4byte	.LBB8
 2676 0c3e 06000000 		.4byte	.LBE8-.LBB8
 2677 0c42 01       		.byte	0x1
 2678 0c43 CD01     		.2byte	0x1cd
 2679 0c45 27       		.uleb128 0x27
 2680 0c46 E20B0000 		.4byte	0xbe2
 2681 0c4a 02       		.uleb128 0x2
 2682 0c4b 91       		.byte	0x91
 2683 0c4c 74       		.sleb128 -12
 2684 0c4d 00       		.byte	0
 2685 0c4e 00       		.byte	0
 2686 0c4f 28       		.uleb128 0x28
 2687 0c50 F6050000 		.4byte	.LASF177
 2688 0c54 03       		.byte	0x3
 2689 0c55 5A01     		.2byte	0x15a
 2690 0c57 00000000 		.4byte	.LFB156
 2691 0c5b 12000000 		.4byte	.LFE156-.LFB156
 2692 0c5f 01       		.uleb128 0x1
 2693 0c60 9C       		.byte	0x9c
 2694 0c61 29       		.uleb128 0x29
 2695 0c62 BB080000 		.4byte	.LASF175
 2696 0c66 03       		.byte	0x3
 2697 0c67 6601     		.2byte	0x166
 2698 0c69 00000000 		.4byte	.LFB157
 2699 0c6d 3C000000 		.4byte	.LFE157-.LFB157
ARM GAS  C:\Users\Luis\AppData\Local\Temp\ccEujqcQ.s 			page 49


 2700 0c71 01       		.uleb128 0x1
 2701 0c72 9C       		.byte	0x9c
 2702 0c73 870C0000 		.4byte	0xc87
 2703 0c77 2A       		.uleb128 0x2a
 2704 0c78 E5050000 		.4byte	.LASF191
 2705 0c7c 970C0000 		.4byte	0xc97
 2706 0c80 05       		.uleb128 0x5
 2707 0c81 03       		.byte	0x3
 2708 0c82 00000000 		.4byte	__func__.5842
 2709 0c86 00       		.byte	0
 2710 0c87 17       		.uleb128 0x17
 2711 0c88 EB070000 		.4byte	0x7eb
 2712 0c8c 970C0000 		.4byte	0xc97
 2713 0c90 18       		.uleb128 0x18
 2714 0c91 B0040000 		.4byte	0x4b0
 2715 0c95 0B       		.byte	0xb
 2716 0c96 00       		.byte	0
 2717 0c97 1B       		.uleb128 0x1b
 2718 0c98 870C0000 		.4byte	0xc87
 2719 0c9c 2B       		.uleb128 0x2b
 2720 0c9d 1A030000 		.4byte	.LASF176
 2721 0ca1 04       		.byte	0x4
 2722 0ca2 AA       		.byte	0xaa
 2723 0ca3 00000000 		.4byte	.LFB204
 2724 0ca7 18000000 		.4byte	.LFE204-.LFB204
 2725 0cab 01       		.uleb128 0x1
 2726 0cac 9C       		.byte	0x9c
 2727 0cad C00C0000 		.4byte	0xcc0
 2728 0cb1 2C       		.uleb128 0x2c
 2729 0cb2 65737000 		.ascii	"esp\000"
 2730 0cb6 04       		.byte	0x4
 2731 0cb7 AA       		.byte	0xaa
 2732 0cb8 C00C0000 		.4byte	0xcc0
 2733 0cbc 02       		.uleb128 0x2
 2734 0cbd 91       		.byte	0x91
 2735 0cbe 74       		.sleb128 -12
 2736 0cbf 00       		.byte	0
 2737 0cc0 0A       		.uleb128 0xa
 2738 0cc1 04       		.byte	0x4
 2739 0cc2 97080000 		.4byte	0x897
 2740 0cc6 2D       		.uleb128 0x2d
 2741 0cc7 9C040000 		.4byte	.LASF184
 2742 0ccb 05       		.byte	0x5
 2743 0ccc 2F01     		.2byte	0x12f
 2744 0cce 560A0000 		.4byte	0xa56
 2745 0cd2 00000000 		.4byte	.LFB221
 2746 0cd6 22000000 		.4byte	.LFE221-.LFB221
 2747 0cda 01       		.uleb128 0x1
 2748 0cdb 9C       		.byte	0x9c
 2749 0cdc F00C0000 		.4byte	0xcf0
 2750 0ce0 2E       		.uleb128 0x2e
 2751 0ce1 69717000 		.ascii	"iqp\000"
 2752 0ce5 05       		.byte	0x5
 2753 0ce6 2F01     		.2byte	0x12f
 2754 0ce8 CF0B0000 		.4byte	0xbcf
 2755 0cec 02       		.uleb128 0x2
 2756 0ced 91       		.byte	0x91
ARM GAS  C:\Users\Luis\AppData\Local\Temp\ccEujqcQ.s 			page 50


 2757 0cee 74       		.sleb128 -12
 2758 0cef 00       		.byte	0
 2759 0cf0 28       		.uleb128 0x28
 2760 0cf1 58020000 		.4byte	.LASF178
 2761 0cf5 06       		.byte	0x6
 2762 0cf6 EB01     		.2byte	0x1eb
 2763 0cf8 00000000 		.4byte	.LFB233
 2764 0cfc 0A000000 		.4byte	.LFE233-.LFB233
 2765 0d00 01       		.uleb128 0x1
 2766 0d01 9C       		.byte	0x9c
 2767 0d02 28       		.uleb128 0x28
 2768 0d03 00060000 		.4byte	.LASF179
 2769 0d07 06       		.byte	0x6
 2770 0d08 F601     		.2byte	0x1f6
 2771 0d0a 00000000 		.4byte	.LFB234
 2772 0d0e 0A000000 		.4byte	.LFE234-.LFB234
 2773 0d12 01       		.uleb128 0x1
 2774 0d13 9C       		.byte	0x9c
 2775 0d14 28       		.uleb128 0x28
 2776 0d15 28050000 		.4byte	.LASF180
 2777 0d19 06       		.byte	0x6
 2778 0d1a 5602     		.2byte	0x256
 2779 0d1c 00000000 		.4byte	.LFB241
 2780 0d20 0A000000 		.4byte	.LFE241-.LFB241
 2781 0d24 01       		.uleb128 0x1
 2782 0d25 9C       		.byte	0x9c
 2783 0d26 29       		.uleb128 0x29
 2784 0d27 6A010000 		.4byte	.LASF181
 2785 0d2b 06       		.byte	0x6
 2786 0d2c 3503     		.2byte	0x335
 2787 0d2e 00000000 		.4byte	.LFB254
 2788 0d32 14000000 		.4byte	.LFE254-.LFB254
 2789 0d36 01       		.uleb128 0x1
 2790 0d37 9C       		.byte	0x9c
 2791 0d38 4C0D0000 		.4byte	0xd4c
 2792 0d3c 2E       		.uleb128 0x2e
 2793 0d3d 65737000 		.ascii	"esp\000"
 2794 0d41 06       		.byte	0x6
 2795 0d42 3503     		.2byte	0x335
 2796 0d44 C00C0000 		.4byte	0xcc0
 2797 0d48 02       		.uleb128 0x2
 2798 0d49 91       		.byte	0x91
 2799 0d4a 74       		.sleb128 -12
 2800 0d4b 00       		.byte	0
 2801 0d4c 29       		.uleb128 0x29
 2802 0d4d B9000000 		.4byte	.LASF182
 2803 0d51 06       		.byte	0x6
 2804 0d52 4903     		.2byte	0x349
 2805 0d54 00000000 		.4byte	.LFB255
 2806 0d58 18000000 		.4byte	.LFE255-.LFB255
 2807 0d5c 01       		.uleb128 0x1
 2808 0d5d 9C       		.byte	0x9c
 2809 0d5e 810D0000 		.4byte	0xd81
 2810 0d62 2E       		.uleb128 0x2e
 2811 0d63 65737000 		.ascii	"esp\000"
 2812 0d67 06       		.byte	0x6
 2813 0d68 4903     		.2byte	0x349
ARM GAS  C:\Users\Luis\AppData\Local\Temp\ccEujqcQ.s 			page 51


 2814 0d6a C00C0000 		.4byte	0xcc0
 2815 0d6e 02       		.uleb128 0x2
 2816 0d6f 91       		.byte	0x91
 2817 0d70 74       		.sleb128 -12
 2818 0d71 2F       		.uleb128 0x2f
 2819 0d72 8A080000 		.4byte	.LASF183
 2820 0d76 06       		.byte	0x6
 2821 0d77 4A03     		.2byte	0x34a
 2822 0d79 0F010000 		.4byte	0x10f
 2823 0d7d 02       		.uleb128 0x2
 2824 0d7e 91       		.byte	0x91
 2825 0d7f 70       		.sleb128 -16
 2826 0d80 00       		.byte	0
 2827 0d81 30       		.uleb128 0x30
 2828 0d82 E5030000 		.4byte	.LASF167
 2829 0d86 07       		.byte	0x7
 2830 0d87 32       		.byte	0x32
 2831 0d88 2C000000 		.4byte	0x2c
 2832 0d8c 00000000 		.4byte	.LFB260
 2833 0d90 28000000 		.4byte	.LFE260-.LFB260
 2834 0d94 01       		.uleb128 0x1
 2835 0d95 9C       		.byte	0x9c
 2836 0d96 C10D0000 		.4byte	0xdc1
 2837 0d9a 2C       		.uleb128 0x2c
 2838 0d9b 697000   		.ascii	"ip\000"
 2839 0d9e 07       		.byte	0x7
 2840 0d9f 32       		.byte	0x32
 2841 0da0 41030000 		.4byte	0x341
 2842 0da4 02       		.uleb128 0x2
 2843 0da5 91       		.byte	0x91
 2844 0da6 74       		.sleb128 -12
 2845 0da7 2C       		.uleb128 0x2c
 2846 0da8 627000   		.ascii	"bp\000"
 2847 0dab 07       		.byte	0x7
 2848 0dac 32       		.byte	0x32
 2849 0dad 76090000 		.4byte	0x976
 2850 0db1 02       		.uleb128 0x2
 2851 0db2 91       		.byte	0x91
 2852 0db3 70       		.sleb128 -16
 2853 0db4 2C       		.uleb128 0x2c
 2854 0db5 6E00     		.ascii	"n\000"
 2855 0db7 07       		.byte	0x7
 2856 0db8 32       		.byte	0x32
 2857 0db9 2C000000 		.4byte	0x2c
 2858 0dbd 02       		.uleb128 0x2
 2859 0dbe 91       		.byte	0x91
 2860 0dbf 6C       		.sleb128 -20
 2861 0dc0 00       		.byte	0
 2862 0dc1 30       		.uleb128 0x30
 2863 0dc2 90060000 		.4byte	.LASF168
 2864 0dc6 07       		.byte	0x7
 2865 0dc7 38       		.byte	0x38
 2866 0dc8 2C000000 		.4byte	0x2c
 2867 0dcc 00000000 		.4byte	.LFB261
 2868 0dd0 28000000 		.4byte	.LFE261-.LFB261
 2869 0dd4 01       		.uleb128 0x1
 2870 0dd5 9C       		.byte	0x9c
ARM GAS  C:\Users\Luis\AppData\Local\Temp\ccEujqcQ.s 			page 52


 2871 0dd6 010E0000 		.4byte	0xe01
 2872 0dda 2C       		.uleb128 0x2c
 2873 0ddb 697000   		.ascii	"ip\000"
 2874 0dde 07       		.byte	0x7
 2875 0ddf 38       		.byte	0x38
 2876 0de0 41030000 		.4byte	0x341
 2877 0de4 02       		.uleb128 0x2
 2878 0de5 91       		.byte	0x91
 2879 0de6 74       		.sleb128 -12
 2880 0de7 2C       		.uleb128 0x2c
 2881 0de8 627000   		.ascii	"bp\000"
 2882 0deb 07       		.byte	0x7
 2883 0dec 38       		.byte	0x38
 2884 0ded 41090000 		.4byte	0x941
 2885 0df1 02       		.uleb128 0x2
 2886 0df2 91       		.byte	0x91
 2887 0df3 70       		.sleb128 -16
 2888 0df4 2C       		.uleb128 0x2c
 2889 0df5 6E00     		.ascii	"n\000"
 2890 0df7 07       		.byte	0x7
 2891 0df8 38       		.byte	0x38
 2892 0df9 2C000000 		.4byte	0x2c
 2893 0dfd 02       		.uleb128 0x2
 2894 0dfe 91       		.byte	0x91
 2895 0dff 6C       		.sleb128 -20
 2896 0e00 00       		.byte	0
 2897 0e01 31       		.uleb128 0x31
 2898 0e02 70757400 		.ascii	"put\000"
 2899 0e06 07       		.byte	0x7
 2900 0e07 3E       		.byte	0x3e
 2901 0e08 F9000000 		.4byte	0xf9
 2902 0e0c 00000000 		.4byte	.LFB262
 2903 0e10 2A000000 		.4byte	.LFE262-.LFB262
 2904 0e14 01       		.uleb128 0x1
 2905 0e15 9C       		.byte	0x9c
 2906 0e16 340E0000 		.4byte	0xe34
 2907 0e1a 2C       		.uleb128 0x2c
 2908 0e1b 697000   		.ascii	"ip\000"
 2909 0e1e 07       		.byte	0x7
 2910 0e1f 3E       		.byte	0x3e
 2911 0e20 41030000 		.4byte	0x341
 2912 0e24 02       		.uleb128 0x2
 2913 0e25 91       		.byte	0x91
 2914 0e26 74       		.sleb128 -12
 2915 0e27 2C       		.uleb128 0x2c
 2916 0e28 6200     		.ascii	"b\000"
 2917 0e2a 07       		.byte	0x7
 2918 0e2b 3E       		.byte	0x3e
 2919 0e2c 45000000 		.4byte	0x45
 2920 0e30 02       		.uleb128 0x2
 2921 0e31 91       		.byte	0x91
 2922 0e32 73       		.sleb128 -13
 2923 0e33 00       		.byte	0
 2924 0e34 31       		.uleb128 0x31
 2925 0e35 67657400 		.ascii	"get\000"
 2926 0e39 07       		.byte	0x7
 2927 0e3a 43       		.byte	0x43
ARM GAS  C:\Users\Luis\AppData\Local\Temp\ccEujqcQ.s 			page 53


 2928 0e3b F9000000 		.4byte	0xf9
 2929 0e3f 00000000 		.4byte	.LFB263
 2930 0e43 20000000 		.4byte	.LFE263-.LFB263
 2931 0e47 01       		.uleb128 0x1
 2932 0e48 9C       		.byte	0x9c
 2933 0e49 5B0E0000 		.4byte	0xe5b
 2934 0e4d 2C       		.uleb128 0x2c
 2935 0e4e 697000   		.ascii	"ip\000"
 2936 0e51 07       		.byte	0x7
 2937 0e52 43       		.byte	0x43
 2938 0e53 41030000 		.4byte	0x341
 2939 0e57 02       		.uleb128 0x2
 2940 0e58 91       		.byte	0x91
 2941 0e59 74       		.sleb128 -12
 2942 0e5a 00       		.byte	0
 2943 0e5b 30       		.uleb128 0x30
 2944 0e5c F9030000 		.4byte	.LASF169
 2945 0e60 07       		.byte	0x7
 2946 0e61 48       		.byte	0x48
 2947 0e62 F9000000 		.4byte	0xf9
 2948 0e66 00000000 		.4byte	.LFB264
 2949 0e6a 2A000000 		.4byte	.LFE264-.LFB264
 2950 0e6e 01       		.uleb128 0x1
 2951 0e6f 9C       		.byte	0x9c
 2952 0e70 9C0E0000 		.4byte	0xe9c
 2953 0e74 2C       		.uleb128 0x2c
 2954 0e75 697000   		.ascii	"ip\000"
 2955 0e78 07       		.byte	0x7
 2956 0e79 48       		.byte	0x48
 2957 0e7a 41030000 		.4byte	0x341
 2958 0e7e 02       		.uleb128 0x2
 2959 0e7f 91       		.byte	0x91
 2960 0e80 74       		.sleb128 -12
 2961 0e81 2C       		.uleb128 0x2c
 2962 0e82 6200     		.ascii	"b\000"
 2963 0e84 07       		.byte	0x7
 2964 0e85 48       		.byte	0x48
 2965 0e86 45000000 		.4byte	0x45
 2966 0e8a 02       		.uleb128 0x2
 2967 0e8b 91       		.byte	0x91
 2968 0e8c 73       		.sleb128 -13
 2969 0e8d 32       		.uleb128 0x32
 2970 0e8e F4020000 		.4byte	.LASF185
 2971 0e92 07       		.byte	0x7
 2972 0e93 48       		.byte	0x48
 2973 0e94 30010000 		.4byte	0x130
 2974 0e98 02       		.uleb128 0x2
 2975 0e99 91       		.byte	0x91
 2976 0e9a 6C       		.sleb128 -20
 2977 0e9b 00       		.byte	0
 2978 0e9c 30       		.uleb128 0x30
 2979 0e9d 03030000 		.4byte	.LASF170
 2980 0ea1 07       		.byte	0x7
 2981 0ea2 4D       		.byte	0x4d
 2982 0ea3 F9000000 		.4byte	0xf9
 2983 0ea7 00000000 		.4byte	.LFB265
 2984 0eab 20000000 		.4byte	.LFE265-.LFB265
ARM GAS  C:\Users\Luis\AppData\Local\Temp\ccEujqcQ.s 			page 54


 2985 0eaf 01       		.uleb128 0x1
 2986 0eb0 9C       		.byte	0x9c
 2987 0eb1 D10E0000 		.4byte	0xed1
 2988 0eb5 2C       		.uleb128 0x2c
 2989 0eb6 697000   		.ascii	"ip\000"
 2990 0eb9 07       		.byte	0x7
 2991 0eba 4D       		.byte	0x4d
 2992 0ebb 41030000 		.4byte	0x341
 2993 0ebf 02       		.uleb128 0x2
 2994 0ec0 91       		.byte	0x91
 2995 0ec1 74       		.sleb128 -12
 2996 0ec2 32       		.uleb128 0x32
 2997 0ec3 F4020000 		.4byte	.LASF185
 2998 0ec7 07       		.byte	0x7
 2999 0ec8 4D       		.byte	0x4d
 3000 0ec9 30010000 		.4byte	0x130
 3001 0ecd 02       		.uleb128 0x2
 3002 0ece 91       		.byte	0x91
 3003 0ecf 70       		.sleb128 -16
 3004 0ed0 00       		.byte	0
 3005 0ed1 30       		.uleb128 0x30
 3006 0ed2 96030000 		.4byte	.LASF171
 3007 0ed6 07       		.byte	0x7
 3008 0ed7 52       		.byte	0x52
 3009 0ed8 2C000000 		.4byte	0x2c
 3010 0edc 00000000 		.4byte	.LFB266
 3011 0ee0 28000000 		.4byte	.LFE266-.LFB266
 3012 0ee4 01       		.uleb128 0x1
 3013 0ee5 9C       		.byte	0x9c
 3014 0ee6 1F0F0000 		.4byte	0xf1f
 3015 0eea 2C       		.uleb128 0x2c
 3016 0eeb 697000   		.ascii	"ip\000"
 3017 0eee 07       		.byte	0x7
 3018 0eef 52       		.byte	0x52
 3019 0ef0 41030000 		.4byte	0x341
 3020 0ef4 02       		.uleb128 0x2
 3021 0ef5 91       		.byte	0x91
 3022 0ef6 74       		.sleb128 -12
 3023 0ef7 2C       		.uleb128 0x2c
 3024 0ef8 627000   		.ascii	"bp\000"
 3025 0efb 07       		.byte	0x7
 3026 0efc 52       		.byte	0x52
 3027 0efd 76090000 		.4byte	0x976
 3028 0f01 02       		.uleb128 0x2
 3029 0f02 91       		.byte	0x91
 3030 0f03 70       		.sleb128 -16
 3031 0f04 2C       		.uleb128 0x2c
 3032 0f05 6E00     		.ascii	"n\000"
 3033 0f07 07       		.byte	0x7
 3034 0f08 52       		.byte	0x52
 3035 0f09 2C000000 		.4byte	0x2c
 3036 0f0d 02       		.uleb128 0x2
 3037 0f0e 91       		.byte	0x91
 3038 0f0f 6C       		.sleb128 -20
 3039 0f10 32       		.uleb128 0x32
 3040 0f11 F4020000 		.4byte	.LASF185
 3041 0f15 07       		.byte	0x7
ARM GAS  C:\Users\Luis\AppData\Local\Temp\ccEujqcQ.s 			page 55


 3042 0f16 52       		.byte	0x52
 3043 0f17 30010000 		.4byte	0x130
 3044 0f1b 02       		.uleb128 0x2
 3045 0f1c 91       		.byte	0x91
 3046 0f1d 68       		.sleb128 -24
 3047 0f1e 00       		.byte	0
 3048 0f1f 30       		.uleb128 0x30
 3049 0f20 33010000 		.4byte	.LASF172
 3050 0f24 07       		.byte	0x7
 3051 0f25 57       		.byte	0x57
 3052 0f26 2C000000 		.4byte	0x2c
 3053 0f2a 00000000 		.4byte	.LFB267
 3054 0f2e 28000000 		.4byte	.LFE267-.LFB267
 3055 0f32 01       		.uleb128 0x1
 3056 0f33 9C       		.byte	0x9c
 3057 0f34 6D0F0000 		.4byte	0xf6d
 3058 0f38 2C       		.uleb128 0x2c
 3059 0f39 697000   		.ascii	"ip\000"
 3060 0f3c 07       		.byte	0x7
 3061 0f3d 57       		.byte	0x57
 3062 0f3e 41030000 		.4byte	0x341
 3063 0f42 02       		.uleb128 0x2
 3064 0f43 91       		.byte	0x91
 3065 0f44 74       		.sleb128 -12
 3066 0f45 2C       		.uleb128 0x2c
 3067 0f46 627000   		.ascii	"bp\000"
 3068 0f49 07       		.byte	0x7
 3069 0f4a 57       		.byte	0x57
 3070 0f4b 41090000 		.4byte	0x941
 3071 0f4f 02       		.uleb128 0x2
 3072 0f50 91       		.byte	0x91
 3073 0f51 70       		.sleb128 -16
 3074 0f52 2C       		.uleb128 0x2c
 3075 0f53 6E00     		.ascii	"n\000"
 3076 0f55 07       		.byte	0x7
 3077 0f56 57       		.byte	0x57
 3078 0f57 2C000000 		.4byte	0x2c
 3079 0f5b 02       		.uleb128 0x2
 3080 0f5c 91       		.byte	0x91
 3081 0f5d 6C       		.sleb128 -20
 3082 0f5e 32       		.uleb128 0x32
 3083 0f5f F4020000 		.4byte	.LASF185
 3084 0f63 07       		.byte	0x7
 3085 0f64 57       		.byte	0x57
 3086 0f65 30010000 		.4byte	0x130
 3087 0f69 02       		.uleb128 0x2
 3088 0f6a 91       		.byte	0x91
 3089 0f6b 68       		.sleb128 -24
 3090 0f6c 00       		.byte	0
 3091 0f6d 33       		.uleb128 0x33
 3092 0f6e CD080000 		.4byte	.LASF200
 3093 0f72 07       		.byte	0x7
 3094 0f73 6C       		.byte	0x6c
 3095 0f74 00000000 		.4byte	.LFB268
 3096 0f78 0A000000 		.4byte	.LFE268-.LFB268
 3097 0f7c 01       		.uleb128 0x1
 3098 0f7d 9C       		.byte	0x9c
ARM GAS  C:\Users\Luis\AppData\Local\Temp\ccEujqcQ.s 			page 56


 3099 0f7e 34       		.uleb128 0x34
 3100 0f7f 26010000 		.4byte	.LASF188
 3101 0f83 07       		.byte	0x7
 3102 0f84 80       		.byte	0x80
 3103 0f85 00000000 		.4byte	.LFB269
 3104 0f89 68000000 		.4byte	.LFE269-.LFB269
 3105 0f8d 01       		.uleb128 0x1
 3106 0f8e 9C       		.byte	0x9c
 3107 0f8f BE0F0000 		.4byte	0xfbe
 3108 0f93 2C       		.uleb128 0x2c
 3109 0f94 73647000 		.ascii	"sdp\000"
 3110 0f98 07       		.byte	0x7
 3111 0f99 80       		.byte	0x80
 3112 0f9a BE0F0000 		.4byte	0xfbe
 3113 0f9e 02       		.uleb128 0x2
 3114 0f9f 91       		.byte	0x91
 3115 0fa0 74       		.sleb128 -12
 3116 0fa1 32       		.uleb128 0x32
 3117 0fa2 D3020000 		.4byte	.LASF186
 3118 0fa6 07       		.byte	0x7
 3119 0fa7 80       		.byte	0x80
 3120 0fa8 1A090000 		.4byte	0x91a
 3121 0fac 02       		.uleb128 0x2
 3122 0fad 91       		.byte	0x91
 3123 0fae 70       		.sleb128 -16
 3124 0faf 32       		.uleb128 0x32
 3125 0fb0 90080000 		.4byte	.LASF187
 3126 0fb4 07       		.byte	0x7
 3127 0fb5 80       		.byte	0x80
 3128 0fb6 1A090000 		.4byte	0x91a
 3129 0fba 02       		.uleb128 0x2
 3130 0fbb 91       		.byte	0x91
 3131 0fbc 6C       		.sleb128 -20
 3132 0fbd 00       		.byte	0
 3133 0fbe 0A       		.uleb128 0xa
 3134 0fbf 04       		.byte	0x4
 3135 0fc0 830A0000 		.4byte	0xa83
 3136 0fc4 34       		.uleb128 0x34
 3137 0fc5 B1060000 		.4byte	.LASF189
 3138 0fc9 07       		.byte	0x7
 3139 0fca 93       		.byte	0x93
 3140 0fcb 00000000 		.4byte	.LFB270
 3141 0fcf 4C000000 		.4byte	.LFE270-.LFB270
 3142 0fd3 01       		.uleb128 0x1
 3143 0fd4 9C       		.byte	0x9c
 3144 0fd5 05100000 		.4byte	0x1005
 3145 0fd9 2C       		.uleb128 0x2c
 3146 0fda 73647000 		.ascii	"sdp\000"
 3147 0fde 07       		.byte	0x7
 3148 0fdf 93       		.byte	0x93
 3149 0fe0 BE0F0000 		.4byte	0xfbe
 3150 0fe4 02       		.uleb128 0x2
 3151 0fe5 91       		.byte	0x91
 3152 0fe6 74       		.sleb128 -12
 3153 0fe7 32       		.uleb128 0x32
 3154 0fe8 AA060000 		.4byte	.LASF190
 3155 0fec 07       		.byte	0x7
ARM GAS  C:\Users\Luis\AppData\Local\Temp\ccEujqcQ.s 			page 57


 3156 0fed 93       		.byte	0x93
 3157 0fee 05100000 		.4byte	0x1005
 3158 0ff2 02       		.uleb128 0x2
 3159 0ff3 91       		.byte	0x91
 3160 0ff4 70       		.sleb128 -16
 3161 0ff5 2A       		.uleb128 0x2a
 3162 0ff6 E5050000 		.4byte	.LASF191
 3163 0ffa 20100000 		.4byte	0x1020
 3164 0ffe 05       		.uleb128 0x5
 3165 0fff 03       		.byte	0x3
 3166 1000 00000000 		.4byte	__func__.7954
 3167 1004 00       		.byte	0
 3168 1005 0A       		.uleb128 0xa
 3169 1006 04       		.byte	0x4
 3170 1007 0B100000 		.4byte	0x100b
 3171 100b 1B       		.uleb128 0x1b
 3172 100c 350B0000 		.4byte	0xb35
 3173 1010 17       		.uleb128 0x17
 3174 1011 EB070000 		.4byte	0x7eb
 3175 1015 20100000 		.4byte	0x1020
 3176 1019 18       		.uleb128 0x18
 3177 101a B0040000 		.4byte	0x4b0
 3178 101e 07       		.byte	0x7
 3179 101f 00       		.byte	0
 3180 1020 1B       		.uleb128 0x1b
 3181 1021 10100000 		.4byte	0x1010
 3182 1025 34       		.uleb128 0x34
 3183 1026 19020000 		.4byte	.LASF192
 3184 102a 07       		.byte	0x7
 3185 102b A8       		.byte	0xa8
 3186 102c 00000000 		.4byte	.LFB271
 3187 1030 60000000 		.4byte	.LFE271-.LFB271
 3188 1034 01       		.uleb128 0x1
 3189 1035 9C       		.byte	0x9c
 3190 1036 58100000 		.4byte	0x1058
 3191 103a 2C       		.uleb128 0x2c
 3192 103b 73647000 		.ascii	"sdp\000"
 3193 103f 07       		.byte	0x7
 3194 1040 A8       		.byte	0xa8
 3195 1041 BE0F0000 		.4byte	0xfbe
 3196 1045 02       		.uleb128 0x2
 3197 1046 91       		.byte	0x91
 3198 1047 74       		.sleb128 -12
 3199 1048 2A       		.uleb128 0x2a
 3200 1049 E5050000 		.4byte	.LASF191
 3201 104d 68100000 		.4byte	0x1068
 3202 1051 05       		.uleb128 0x5
 3203 1052 03       		.byte	0x3
 3204 1053 00000000 		.4byte	__func__.7958
 3205 1057 00       		.byte	0
 3206 1058 17       		.uleb128 0x17
 3207 1059 EB070000 		.4byte	0x7eb
 3208 105d 68100000 		.4byte	0x1068
 3209 1061 18       		.uleb128 0x18
 3210 1062 B0040000 		.4byte	0x4b0
 3211 1066 06       		.byte	0x6
 3212 1067 00       		.byte	0
ARM GAS  C:\Users\Luis\AppData\Local\Temp\ccEujqcQ.s 			page 58


 3213 1068 1B       		.uleb128 0x1b
 3214 1069 58100000 		.4byte	0x1058
 3215 106d 34       		.uleb128 0x34
 3216 106e 9A060000 		.4byte	.LASF193
 3217 1072 07       		.byte	0x7
 3218 1073 C7       		.byte	0xc7
 3219 1074 00000000 		.4byte	.LFB272
 3220 1078 64000000 		.4byte	.LFE272-.LFB272
 3221 107c 01       		.uleb128 0x1
 3222 107d 9C       		.byte	0x9c
 3223 107e AC100000 		.4byte	0x10ac
 3224 1082 2C       		.uleb128 0x2c
 3225 1083 73647000 		.ascii	"sdp\000"
 3226 1087 07       		.byte	0x7
 3227 1088 C7       		.byte	0xc7
 3228 1089 BE0F0000 		.4byte	0xfbe
 3229 108d 02       		.uleb128 0x2
 3230 108e 91       		.byte	0x91
 3231 108f 74       		.sleb128 -12
 3232 1090 2C       		.uleb128 0x2c
 3233 1091 6200     		.ascii	"b\000"
 3234 1093 07       		.byte	0x7
 3235 1094 C7       		.byte	0xc7
 3236 1095 45000000 		.4byte	0x45
 3237 1099 02       		.uleb128 0x2
 3238 109a 91       		.byte	0x91
 3239 109b 73       		.sleb128 -13
 3240 109c 2A       		.uleb128 0x2a
 3241 109d E5050000 		.4byte	.LASF191
 3242 10a1 BC100000 		.4byte	0x10bc
 3243 10a5 05       		.uleb128 0x5
 3244 10a6 03       		.byte	0x3
 3245 10a7 00000000 		.4byte	__func__.7963
 3246 10ab 00       		.byte	0
 3247 10ac 17       		.uleb128 0x17
 3248 10ad EB070000 		.4byte	0x7eb
 3249 10b1 BC100000 		.4byte	0x10bc
 3250 10b5 18       		.uleb128 0x18
 3251 10b6 B0040000 		.4byte	0x4b0
 3252 10ba 0F       		.byte	0xf
 3253 10bb 00       		.byte	0
 3254 10bc 1B       		.uleb128 0x1b
 3255 10bd AC100000 		.4byte	0x10ac
 3256 10c1 35       		.uleb128 0x35
 3257 10c2 73080000 		.4byte	.LASF201
 3258 10c6 07       		.byte	0x7
 3259 10c7 E1       		.byte	0xe1
 3260 10c8 F9000000 		.4byte	0xf9
 3261 10cc 00000000 		.4byte	.LFB273
 3262 10d0 44000000 		.4byte	.LFE273-.LFB273
 3263 10d4 01       		.uleb128 0x1
 3264 10d5 9C       		.byte	0x9c
 3265 10d6 04110000 		.4byte	0x1104
 3266 10da 2C       		.uleb128 0x2c
 3267 10db 73647000 		.ascii	"sdp\000"
 3268 10df 07       		.byte	0x7
 3269 10e0 E1       		.byte	0xe1
ARM GAS  C:\Users\Luis\AppData\Local\Temp\ccEujqcQ.s 			page 59


 3270 10e1 BE0F0000 		.4byte	0xfbe
 3271 10e5 02       		.uleb128 0x2
 3272 10e6 91       		.byte	0x91
 3273 10e7 6C       		.sleb128 -20
 3274 10e8 36       		.uleb128 0x36
 3275 10e9 6200     		.ascii	"b\000"
 3276 10eb 07       		.byte	0x7
 3277 10ec E2       		.byte	0xe2
 3278 10ed F9000000 		.4byte	0xf9
 3279 10f1 02       		.uleb128 0x2
 3280 10f2 91       		.byte	0x91
 3281 10f3 74       		.sleb128 -12
 3282 10f4 2A       		.uleb128 0x2a
 3283 10f5 E5050000 		.4byte	.LASF191
 3284 10f9 14110000 		.4byte	0x1114
 3285 10fd 05       		.uleb128 0x5
 3286 10fe 03       		.byte	0x3
 3287 10ff 00000000 		.4byte	__func__.7968
 3288 1103 00       		.byte	0
 3289 1104 17       		.uleb128 0x17
 3290 1105 EB070000 		.4byte	0x7eb
 3291 1109 14110000 		.4byte	0x1114
 3292 110d 18       		.uleb128 0x18
 3293 110e B0040000 		.4byte	0x4b0
 3294 1112 0E       		.byte	0xe
 3295 1113 00       		.byte	0
 3296 1114 1B       		.uleb128 0x1b
 3297 1115 04110000 		.4byte	0x1104
 3298 1119 36       		.uleb128 0x36
 3299 111a 766D7400 		.ascii	"vmt\000"
 3300 111e 07       		.byte	0x7
 3301 111f 5C       		.byte	0x5c
 3302 1120 B30B0000 		.4byte	0xbb3
 3303 1124 05       		.uleb128 0x5
 3304 1125 03       		.byte	0x3
 3305 1126 00000000 		.4byte	vmt
 3306 112a 37       		.uleb128 0x37
 3307 112b 05010000 		.4byte	.LASF194
 3308 112f 16       		.byte	0x16
 3309 1130 A706     		.2byte	0x6a7
 3310 1132 AD000000 		.4byte	0xad
 3311 1136 38       		.uleb128 0x38
 3312 1137 636800   		.ascii	"ch\000"
 3313 113a 0C       		.byte	0xc
 3314 113b 0902     		.2byte	0x209
 3315 113d 38040000 		.4byte	0x438
 3316 1141 00       		.byte	0
 3317              		.section	.debug_abbrev,"",%progbits
 3318              	.Ldebug_abbrev0:
 3319 0000 01       		.uleb128 0x1
 3320 0001 11       		.uleb128 0x11
 3321 0002 01       		.byte	0x1
 3322 0003 25       		.uleb128 0x25
 3323 0004 0E       		.uleb128 0xe
 3324 0005 13       		.uleb128 0x13
 3325 0006 0B       		.uleb128 0xb
 3326 0007 03       		.uleb128 0x3
ARM GAS  C:\Users\Luis\AppData\Local\Temp\ccEujqcQ.s 			page 60


 3327 0008 0E       		.uleb128 0xe
 3328 0009 1B       		.uleb128 0x1b
 3329 000a 0E       		.uleb128 0xe
 3330 000b 55       		.uleb128 0x55
 3331 000c 17       		.uleb128 0x17
 3332 000d 11       		.uleb128 0x11
 3333 000e 01       		.uleb128 0x1
 3334 000f 10       		.uleb128 0x10
 3335 0010 17       		.uleb128 0x17
 3336 0011 00       		.byte	0
 3337 0012 00       		.byte	0
 3338 0013 02       		.uleb128 0x2
 3339 0014 24       		.uleb128 0x24
 3340 0015 00       		.byte	0
 3341 0016 0B       		.uleb128 0xb
 3342 0017 0B       		.uleb128 0xb
 3343 0018 3E       		.uleb128 0x3e
 3344 0019 0B       		.uleb128 0xb
 3345 001a 03       		.uleb128 0x3
 3346 001b 08       		.uleb128 0x8
 3347 001c 00       		.byte	0
 3348 001d 00       		.byte	0
 3349 001e 03       		.uleb128 0x3
 3350 001f 16       		.uleb128 0x16
 3351 0020 00       		.byte	0
 3352 0021 03       		.uleb128 0x3
 3353 0022 0E       		.uleb128 0xe
 3354 0023 3A       		.uleb128 0x3a
 3355 0024 0B       		.uleb128 0xb
 3356 0025 3B       		.uleb128 0x3b
 3357 0026 0B       		.uleb128 0xb
 3358 0027 49       		.uleb128 0x49
 3359 0028 13       		.uleb128 0x13
 3360 0029 00       		.byte	0
 3361 002a 00       		.byte	0
 3362 002b 04       		.uleb128 0x4
 3363 002c 24       		.uleb128 0x24
 3364 002d 00       		.byte	0
 3365 002e 0B       		.uleb128 0xb
 3366 002f 0B       		.uleb128 0xb
 3367 0030 3E       		.uleb128 0x3e
 3368 0031 0B       		.uleb128 0xb
 3369 0032 03       		.uleb128 0x3
 3370 0033 0E       		.uleb128 0xe
 3371 0034 00       		.byte	0
 3372 0035 00       		.byte	0
 3373 0036 05       		.uleb128 0x5
 3374 0037 35       		.uleb128 0x35
 3375 0038 00       		.byte	0
 3376 0039 49       		.uleb128 0x49
 3377 003a 13       		.uleb128 0x13
 3378 003b 00       		.byte	0
 3379 003c 00       		.byte	0
 3380 003d 06       		.uleb128 0x6
 3381 003e 13       		.uleb128 0x13
 3382 003f 01       		.byte	0x1
 3383 0040 03       		.uleb128 0x3
ARM GAS  C:\Users\Luis\AppData\Local\Temp\ccEujqcQ.s 			page 61


 3384 0041 0E       		.uleb128 0xe
 3385 0042 0B       		.uleb128 0xb
 3386 0043 0B       		.uleb128 0xb
 3387 0044 3A       		.uleb128 0x3a
 3388 0045 0B       		.uleb128 0xb
 3389 0046 3B       		.uleb128 0x3b
 3390 0047 0B       		.uleb128 0xb
 3391 0048 01       		.uleb128 0x1
 3392 0049 13       		.uleb128 0x13
 3393 004a 00       		.byte	0
 3394 004b 00       		.byte	0
 3395 004c 07       		.uleb128 0x7
 3396 004d 0D       		.uleb128 0xd
 3397 004e 00       		.byte	0
 3398 004f 03       		.uleb128 0x3
 3399 0050 0E       		.uleb128 0xe
 3400 0051 3A       		.uleb128 0x3a
 3401 0052 0B       		.uleb128 0xb
 3402 0053 3B       		.uleb128 0x3b
 3403 0054 0B       		.uleb128 0xb
 3404 0055 49       		.uleb128 0x49
 3405 0056 13       		.uleb128 0x13
 3406 0057 38       		.uleb128 0x38
 3407 0058 0B       		.uleb128 0xb
 3408 0059 00       		.byte	0
 3409 005a 00       		.byte	0
 3410 005b 08       		.uleb128 0x8
 3411 005c 0D       		.uleb128 0xd
 3412 005d 00       		.byte	0
 3413 005e 03       		.uleb128 0x3
 3414 005f 08       		.uleb128 0x8
 3415 0060 3A       		.uleb128 0x3a
 3416 0061 0B       		.uleb128 0xb
 3417 0062 3B       		.uleb128 0x3b
 3418 0063 05       		.uleb128 0x5
 3419 0064 49       		.uleb128 0x49
 3420 0065 13       		.uleb128 0x13
 3421 0066 38       		.uleb128 0x38
 3422 0067 0B       		.uleb128 0xb
 3423 0068 00       		.byte	0
 3424 0069 00       		.byte	0
 3425 006a 09       		.uleb128 0x9
 3426 006b 0D       		.uleb128 0xd
 3427 006c 00       		.byte	0
 3428 006d 03       		.uleb128 0x3
 3429 006e 0E       		.uleb128 0xe
 3430 006f 3A       		.uleb128 0x3a
 3431 0070 0B       		.uleb128 0xb
 3432 0071 3B       		.uleb128 0x3b
 3433 0072 05       		.uleb128 0x5
 3434 0073 49       		.uleb128 0x49
 3435 0074 13       		.uleb128 0x13
 3436 0075 38       		.uleb128 0x38
 3437 0076 0B       		.uleb128 0xb
 3438 0077 00       		.byte	0
 3439 0078 00       		.byte	0
 3440 0079 0A       		.uleb128 0xa
ARM GAS  C:\Users\Luis\AppData\Local\Temp\ccEujqcQ.s 			page 62


 3441 007a 0F       		.uleb128 0xf
 3442 007b 00       		.byte	0
 3443 007c 0B       		.uleb128 0xb
 3444 007d 0B       		.uleb128 0xb
 3445 007e 49       		.uleb128 0x49
 3446 007f 13       		.uleb128 0x13
 3447 0080 00       		.byte	0
 3448 0081 00       		.byte	0
 3449 0082 0B       		.uleb128 0xb
 3450 0083 13       		.uleb128 0x13
 3451 0084 01       		.byte	0x1
 3452 0085 03       		.uleb128 0x3
 3453 0086 0E       		.uleb128 0xe
 3454 0087 0B       		.uleb128 0xb
 3455 0088 0B       		.uleb128 0xb
 3456 0089 3A       		.uleb128 0x3a
 3457 008a 0B       		.uleb128 0xb
 3458 008b 3B       		.uleb128 0x3b
 3459 008c 05       		.uleb128 0x5
 3460 008d 01       		.uleb128 0x1
 3461 008e 13       		.uleb128 0x13
 3462 008f 00       		.byte	0
 3463 0090 00       		.byte	0
 3464 0091 0C       		.uleb128 0xc
 3465 0092 15       		.uleb128 0x15
 3466 0093 01       		.byte	0x1
 3467 0094 27       		.uleb128 0x27
 3468 0095 19       		.uleb128 0x19
 3469 0096 01       		.uleb128 0x1
 3470 0097 13       		.uleb128 0x13
 3471 0098 00       		.byte	0
 3472 0099 00       		.byte	0
 3473 009a 0D       		.uleb128 0xd
 3474 009b 05       		.uleb128 0x5
 3475 009c 00       		.byte	0
 3476 009d 49       		.uleb128 0x49
 3477 009e 13       		.uleb128 0x13
 3478 009f 00       		.byte	0
 3479 00a0 00       		.byte	0
 3480 00a1 0E       		.uleb128 0xe
 3481 00a2 0F       		.uleb128 0xf
 3482 00a3 00       		.byte	0
 3483 00a4 0B       		.uleb128 0xb
 3484 00a5 0B       		.uleb128 0xb
 3485 00a6 00       		.byte	0
 3486 00a7 00       		.byte	0
 3487 00a8 0F       		.uleb128 0xf
 3488 00a9 13       		.uleb128 0x13
 3489 00aa 01       		.byte	0x1
 3490 00ab 03       		.uleb128 0x3
 3491 00ac 0E       		.uleb128 0xe
 3492 00ad 0B       		.uleb128 0xb
 3493 00ae 05       		.uleb128 0x5
 3494 00af 3A       		.uleb128 0x3a
 3495 00b0 0B       		.uleb128 0xb
 3496 00b1 3B       		.uleb128 0x3b
 3497 00b2 05       		.uleb128 0x5
ARM GAS  C:\Users\Luis\AppData\Local\Temp\ccEujqcQ.s 			page 63


 3498 00b3 01       		.uleb128 0x1
 3499 00b4 13       		.uleb128 0x13
 3500 00b5 00       		.byte	0
 3501 00b6 00       		.byte	0
 3502 00b7 10       		.uleb128 0x10
 3503 00b8 0D       		.uleb128 0xd
 3504 00b9 00       		.byte	0
 3505 00ba 03       		.uleb128 0x3
 3506 00bb 0E       		.uleb128 0xe
 3507 00bc 3A       		.uleb128 0x3a
 3508 00bd 0B       		.uleb128 0xb
 3509 00be 3B       		.uleb128 0x3b
 3510 00bf 05       		.uleb128 0x5
 3511 00c0 49       		.uleb128 0x49
 3512 00c1 13       		.uleb128 0x13
 3513 00c2 38       		.uleb128 0x38
 3514 00c3 05       		.uleb128 0x5
 3515 00c4 00       		.byte	0
 3516 00c5 00       		.byte	0
 3517 00c6 11       		.uleb128 0x11
 3518 00c7 0D       		.uleb128 0xd
 3519 00c8 00       		.byte	0
 3520 00c9 03       		.uleb128 0x3
 3521 00ca 08       		.uleb128 0x8
 3522 00cb 3A       		.uleb128 0x3a
 3523 00cc 0B       		.uleb128 0xb
 3524 00cd 3B       		.uleb128 0x3b
 3525 00ce 05       		.uleb128 0x5
 3526 00cf 49       		.uleb128 0x49
 3527 00d0 13       		.uleb128 0x13
 3528 00d1 38       		.uleb128 0x38
 3529 00d2 05       		.uleb128 0x5
 3530 00d3 00       		.byte	0
 3531 00d4 00       		.byte	0
 3532 00d5 12       		.uleb128 0x12
 3533 00d6 13       		.uleb128 0x13
 3534 00d7 01       		.byte	0x1
 3535 00d8 0B       		.uleb128 0xb
 3536 00d9 0B       		.uleb128 0xb
 3537 00da 3A       		.uleb128 0x3a
 3538 00db 0B       		.uleb128 0xb
 3539 00dc 3B       		.uleb128 0x3b
 3540 00dd 05       		.uleb128 0x5
 3541 00de 01       		.uleb128 0x1
 3542 00df 13       		.uleb128 0x13
 3543 00e0 00       		.byte	0
 3544 00e1 00       		.byte	0
 3545 00e2 13       		.uleb128 0x13
 3546 00e3 16       		.uleb128 0x16
 3547 00e4 00       		.byte	0
 3548 00e5 03       		.uleb128 0x3
 3549 00e6 0E       		.uleb128 0xe
 3550 00e7 3A       		.uleb128 0x3a
 3551 00e8 0B       		.uleb128 0xb
 3552 00e9 3B       		.uleb128 0x3b
 3553 00ea 05       		.uleb128 0x5
 3554 00eb 49       		.uleb128 0x49
ARM GAS  C:\Users\Luis\AppData\Local\Temp\ccEujqcQ.s 			page 64


 3555 00ec 13       		.uleb128 0x13
 3556 00ed 00       		.byte	0
 3557 00ee 00       		.byte	0
 3558 00ef 14       		.uleb128 0x14
 3559 00f0 0D       		.uleb128 0xd
 3560 00f1 00       		.byte	0
 3561 00f2 03       		.uleb128 0x3
 3562 00f3 08       		.uleb128 0x8
 3563 00f4 3A       		.uleb128 0x3a
 3564 00f5 0B       		.uleb128 0xb
 3565 00f6 3B       		.uleb128 0x3b
 3566 00f7 0B       		.uleb128 0xb
 3567 00f8 49       		.uleb128 0x49
 3568 00f9 13       		.uleb128 0x13
 3569 00fa 38       		.uleb128 0x38
 3570 00fb 0B       		.uleb128 0xb
 3571 00fc 00       		.byte	0
 3572 00fd 00       		.byte	0
 3573 00fe 15       		.uleb128 0x15
 3574 00ff 13       		.uleb128 0x13
 3575 0100 01       		.byte	0x1
 3576 0101 0B       		.uleb128 0xb
 3577 0102 0B       		.uleb128 0xb
 3578 0103 3A       		.uleb128 0x3a
 3579 0104 0B       		.uleb128 0xb
 3580 0105 3B       		.uleb128 0x3b
 3581 0106 0B       		.uleb128 0xb
 3582 0107 01       		.uleb128 0x1
 3583 0108 13       		.uleb128 0x13
 3584 0109 00       		.byte	0
 3585 010a 00       		.byte	0
 3586 010b 16       		.uleb128 0x16
 3587 010c 13       		.uleb128 0x13
 3588 010d 01       		.byte	0x1
 3589 010e 0B       		.uleb128 0xb
 3590 010f 05       		.uleb128 0x5
 3591 0110 3A       		.uleb128 0x3a
 3592 0111 0B       		.uleb128 0xb
 3593 0112 3B       		.uleb128 0x3b
 3594 0113 0B       		.uleb128 0xb
 3595 0114 01       		.uleb128 0x1
 3596 0115 13       		.uleb128 0x13
 3597 0116 00       		.byte	0
 3598 0117 00       		.byte	0
 3599 0118 17       		.uleb128 0x17
 3600 0119 01       		.uleb128 0x1
 3601 011a 01       		.byte	0x1
 3602 011b 49       		.uleb128 0x49
 3603 011c 13       		.uleb128 0x13
 3604 011d 01       		.uleb128 0x1
 3605 011e 13       		.uleb128 0x13
 3606 011f 00       		.byte	0
 3607 0120 00       		.byte	0
 3608 0121 18       		.uleb128 0x18
 3609 0122 21       		.uleb128 0x21
 3610 0123 00       		.byte	0
 3611 0124 49       		.uleb128 0x49
ARM GAS  C:\Users\Luis\AppData\Local\Temp\ccEujqcQ.s 			page 65


 3612 0125 13       		.uleb128 0x13
 3613 0126 2F       		.uleb128 0x2f
 3614 0127 0B       		.uleb128 0xb
 3615 0128 00       		.byte	0
 3616 0129 00       		.byte	0
 3617 012a 19       		.uleb128 0x19
 3618 012b 17       		.uleb128 0x17
 3619 012c 01       		.byte	0x1
 3620 012d 0B       		.uleb128 0xb
 3621 012e 0B       		.uleb128 0xb
 3622 012f 3A       		.uleb128 0x3a
 3623 0130 0B       		.uleb128 0xb
 3624 0131 3B       		.uleb128 0x3b
 3625 0132 0B       		.uleb128 0xb
 3626 0133 01       		.uleb128 0x1
 3627 0134 13       		.uleb128 0x13
 3628 0135 00       		.byte	0
 3629 0136 00       		.byte	0
 3630 0137 1A       		.uleb128 0x1a
 3631 0138 0D       		.uleb128 0xd
 3632 0139 00       		.byte	0
 3633 013a 03       		.uleb128 0x3
 3634 013b 0E       		.uleb128 0xe
 3635 013c 3A       		.uleb128 0x3a
 3636 013d 0B       		.uleb128 0xb
 3637 013e 3B       		.uleb128 0x3b
 3638 013f 05       		.uleb128 0x5
 3639 0140 49       		.uleb128 0x49
 3640 0141 13       		.uleb128 0x13
 3641 0142 00       		.byte	0
 3642 0143 00       		.byte	0
 3643 0144 1B       		.uleb128 0x1b
 3644 0145 26       		.uleb128 0x26
 3645 0146 00       		.byte	0
 3646 0147 49       		.uleb128 0x49
 3647 0148 13       		.uleb128 0x13
 3648 0149 00       		.byte	0
 3649 014a 00       		.byte	0
 3650 014b 1C       		.uleb128 0x1c
 3651 014c 15       		.uleb128 0x15
 3652 014d 01       		.byte	0x1
 3653 014e 27       		.uleb128 0x27
 3654 014f 19       		.uleb128 0x19
 3655 0150 49       		.uleb128 0x49
 3656 0151 13       		.uleb128 0x13
 3657 0152 01       		.uleb128 0x1
 3658 0153 13       		.uleb128 0x13
 3659 0154 00       		.byte	0
 3660 0155 00       		.byte	0
 3661 0156 1D       		.uleb128 0x1d
 3662 0157 04       		.uleb128 0x4
 3663 0158 01       		.byte	0x1
 3664 0159 0B       		.uleb128 0xb
 3665 015a 0B       		.uleb128 0xb
 3666 015b 3A       		.uleb128 0x3a
 3667 015c 0B       		.uleb128 0xb
 3668 015d 3B       		.uleb128 0x3b
ARM GAS  C:\Users\Luis\AppData\Local\Temp\ccEujqcQ.s 			page 66


 3669 015e 0B       		.uleb128 0xb
 3670 015f 01       		.uleb128 0x1
 3671 0160 13       		.uleb128 0x13
 3672 0161 00       		.byte	0
 3673 0162 00       		.byte	0
 3674 0163 1E       		.uleb128 0x1e
 3675 0164 28       		.uleb128 0x28
 3676 0165 00       		.byte	0
 3677 0166 03       		.uleb128 0x3
 3678 0167 0E       		.uleb128 0xe
 3679 0168 1C       		.uleb128 0x1c
 3680 0169 0D       		.uleb128 0xd
 3681 016a 00       		.byte	0
 3682 016b 00       		.byte	0
 3683 016c 1F       		.uleb128 0x1f
 3684 016d 13       		.uleb128 0x13
 3685 016e 01       		.byte	0x1
 3686 016f 03       		.uleb128 0x3
 3687 0170 0E       		.uleb128 0xe
 3688 0171 0B       		.uleb128 0xb
 3689 0172 05       		.uleb128 0x5
 3690 0173 3A       		.uleb128 0x3a
 3691 0174 0B       		.uleb128 0xb
 3692 0175 3B       		.uleb128 0x3b
 3693 0176 0B       		.uleb128 0xb
 3694 0177 01       		.uleb128 0x1
 3695 0178 13       		.uleb128 0x13
 3696 0179 00       		.byte	0
 3697 017a 00       		.byte	0
 3698 017b 20       		.uleb128 0x20
 3699 017c 0D       		.uleb128 0xd
 3700 017d 00       		.byte	0
 3701 017e 03       		.uleb128 0x3
 3702 017f 08       		.uleb128 0x8
 3703 0180 3A       		.uleb128 0x3a
 3704 0181 0B       		.uleb128 0xb
 3705 0182 3B       		.uleb128 0x3b
 3706 0183 0B       		.uleb128 0xb
 3707 0184 49       		.uleb128 0x49
 3708 0185 13       		.uleb128 0x13
 3709 0186 38       		.uleb128 0x38
 3710 0187 05       		.uleb128 0x5
 3711 0188 00       		.byte	0
 3712 0189 00       		.byte	0
 3713 018a 21       		.uleb128 0x21
 3714 018b 0D       		.uleb128 0xd
 3715 018c 00       		.byte	0
 3716 018d 03       		.uleb128 0x3
 3717 018e 0E       		.uleb128 0xe
 3718 018f 3A       		.uleb128 0x3a
 3719 0190 0B       		.uleb128 0xb
 3720 0191 3B       		.uleb128 0x3b
 3721 0192 0B       		.uleb128 0xb
 3722 0193 49       		.uleb128 0x49
 3723 0194 13       		.uleb128 0x13
 3724 0195 38       		.uleb128 0x38
 3725 0196 05       		.uleb128 0x5
ARM GAS  C:\Users\Luis\AppData\Local\Temp\ccEujqcQ.s 			page 67


 3726 0197 00       		.byte	0
 3727 0198 00       		.byte	0
 3728 0199 22       		.uleb128 0x22
 3729 019a 21       		.uleb128 0x21
 3730 019b 00       		.byte	0
 3731 019c 49       		.uleb128 0x49
 3732 019d 13       		.uleb128 0x13
 3733 019e 2F       		.uleb128 0x2f
 3734 019f 05       		.uleb128 0x5
 3735 01a0 00       		.byte	0
 3736 01a1 00       		.byte	0
 3737 01a2 23       		.uleb128 0x23
 3738 01a3 2E       		.uleb128 0x2e
 3739 01a4 01       		.byte	0x1
 3740 01a5 03       		.uleb128 0x3
 3741 01a6 0E       		.uleb128 0xe
 3742 01a7 3A       		.uleb128 0x3a
 3743 01a8 0B       		.uleb128 0xb
 3744 01a9 3B       		.uleb128 0x3b
 3745 01aa 05       		.uleb128 0x5
 3746 01ab 27       		.uleb128 0x27
 3747 01ac 19       		.uleb128 0x19
 3748 01ad 20       		.uleb128 0x20
 3749 01ae 0B       		.uleb128 0xb
 3750 01af 01       		.uleb128 0x1
 3751 01b0 13       		.uleb128 0x13
 3752 01b1 00       		.byte	0
 3753 01b2 00       		.byte	0
 3754 01b3 24       		.uleb128 0x24
 3755 01b4 05       		.uleb128 0x5
 3756 01b5 00       		.byte	0
 3757 01b6 03       		.uleb128 0x3
 3758 01b7 0E       		.uleb128 0xe
 3759 01b8 3A       		.uleb128 0x3a
 3760 01b9 0B       		.uleb128 0xb
 3761 01ba 3B       		.uleb128 0x3b
 3762 01bb 05       		.uleb128 0x5
 3763 01bc 49       		.uleb128 0x49
 3764 01bd 13       		.uleb128 0x13
 3765 01be 00       		.byte	0
 3766 01bf 00       		.byte	0
 3767 01c0 25       		.uleb128 0x25
 3768 01c1 2E       		.uleb128 0x2e
 3769 01c2 01       		.byte	0x1
 3770 01c3 03       		.uleb128 0x3
 3771 01c4 0E       		.uleb128 0xe
 3772 01c5 3A       		.uleb128 0x3a
 3773 01c6 0B       		.uleb128 0xb
 3774 01c7 3B       		.uleb128 0x3b
 3775 01c8 05       		.uleb128 0x5
 3776 01c9 27       		.uleb128 0x27
 3777 01ca 19       		.uleb128 0x19
 3778 01cb 11       		.uleb128 0x11
 3779 01cc 01       		.uleb128 0x1
 3780 01cd 12       		.uleb128 0x12
 3781 01ce 06       		.uleb128 0x6
 3782 01cf 40       		.uleb128 0x40
ARM GAS  C:\Users\Luis\AppData\Local\Temp\ccEujqcQ.s 			page 68


 3783 01d0 18       		.uleb128 0x18
 3784 01d1 9742     		.uleb128 0x2117
 3785 01d3 19       		.uleb128 0x19
 3786 01d4 01       		.uleb128 0x1
 3787 01d5 13       		.uleb128 0x13
 3788 01d6 00       		.byte	0
 3789 01d7 00       		.byte	0
 3790 01d8 26       		.uleb128 0x26
 3791 01d9 1D       		.uleb128 0x1d
 3792 01da 01       		.byte	0x1
 3793 01db 31       		.uleb128 0x31
 3794 01dc 13       		.uleb128 0x13
 3795 01dd 11       		.uleb128 0x11
 3796 01de 01       		.uleb128 0x1
 3797 01df 12       		.uleb128 0x12
 3798 01e0 06       		.uleb128 0x6
 3799 01e1 58       		.uleb128 0x58
 3800 01e2 0B       		.uleb128 0xb
 3801 01e3 59       		.uleb128 0x59
 3802 01e4 05       		.uleb128 0x5
 3803 01e5 00       		.byte	0
 3804 01e6 00       		.byte	0
 3805 01e7 27       		.uleb128 0x27
 3806 01e8 05       		.uleb128 0x5
 3807 01e9 00       		.byte	0
 3808 01ea 31       		.uleb128 0x31
 3809 01eb 13       		.uleb128 0x13
 3810 01ec 02       		.uleb128 0x2
 3811 01ed 18       		.uleb128 0x18
 3812 01ee 00       		.byte	0
 3813 01ef 00       		.byte	0
 3814 01f0 28       		.uleb128 0x28
 3815 01f1 2E       		.uleb128 0x2e
 3816 01f2 00       		.byte	0
 3817 01f3 03       		.uleb128 0x3
 3818 01f4 0E       		.uleb128 0xe
 3819 01f5 3A       		.uleb128 0x3a
 3820 01f6 0B       		.uleb128 0xb
 3821 01f7 3B       		.uleb128 0x3b
 3822 01f8 05       		.uleb128 0x5
 3823 01f9 27       		.uleb128 0x27
 3824 01fa 19       		.uleb128 0x19
 3825 01fb 11       		.uleb128 0x11
 3826 01fc 01       		.uleb128 0x1
 3827 01fd 12       		.uleb128 0x12
 3828 01fe 06       		.uleb128 0x6
 3829 01ff 40       		.uleb128 0x40
 3830 0200 18       		.uleb128 0x18
 3831 0201 9642     		.uleb128 0x2116
 3832 0203 19       		.uleb128 0x19
 3833 0204 00       		.byte	0
 3834 0205 00       		.byte	0
 3835 0206 29       		.uleb128 0x29
 3836 0207 2E       		.uleb128 0x2e
 3837 0208 01       		.byte	0x1
 3838 0209 03       		.uleb128 0x3
 3839 020a 0E       		.uleb128 0xe
ARM GAS  C:\Users\Luis\AppData\Local\Temp\ccEujqcQ.s 			page 69


 3840 020b 3A       		.uleb128 0x3a
 3841 020c 0B       		.uleb128 0xb
 3842 020d 3B       		.uleb128 0x3b
 3843 020e 05       		.uleb128 0x5
 3844 020f 27       		.uleb128 0x27
 3845 0210 19       		.uleb128 0x19
 3846 0211 11       		.uleb128 0x11
 3847 0212 01       		.uleb128 0x1
 3848 0213 12       		.uleb128 0x12
 3849 0214 06       		.uleb128 0x6
 3850 0215 40       		.uleb128 0x40
 3851 0216 18       		.uleb128 0x18
 3852 0217 9642     		.uleb128 0x2116
 3853 0219 19       		.uleb128 0x19
 3854 021a 01       		.uleb128 0x1
 3855 021b 13       		.uleb128 0x13
 3856 021c 00       		.byte	0
 3857 021d 00       		.byte	0
 3858 021e 2A       		.uleb128 0x2a
 3859 021f 34       		.uleb128 0x34
 3860 0220 00       		.byte	0
 3861 0221 03       		.uleb128 0x3
 3862 0222 0E       		.uleb128 0xe
 3863 0223 49       		.uleb128 0x49
 3864 0224 13       		.uleb128 0x13
 3865 0225 34       		.uleb128 0x34
 3866 0226 19       		.uleb128 0x19
 3867 0227 02       		.uleb128 0x2
 3868 0228 18       		.uleb128 0x18
 3869 0229 00       		.byte	0
 3870 022a 00       		.byte	0
 3871 022b 2B       		.uleb128 0x2b
 3872 022c 2E       		.uleb128 0x2e
 3873 022d 01       		.byte	0x1
 3874 022e 03       		.uleb128 0x3
 3875 022f 0E       		.uleb128 0xe
 3876 0230 3A       		.uleb128 0x3a
 3877 0231 0B       		.uleb128 0xb
 3878 0232 3B       		.uleb128 0x3b
 3879 0233 0B       		.uleb128 0xb
 3880 0234 27       		.uleb128 0x27
 3881 0235 19       		.uleb128 0x19
 3882 0236 11       		.uleb128 0x11
 3883 0237 01       		.uleb128 0x1
 3884 0238 12       		.uleb128 0x12
 3885 0239 06       		.uleb128 0x6
 3886 023a 40       		.uleb128 0x40
 3887 023b 18       		.uleb128 0x18
 3888 023c 9742     		.uleb128 0x2117
 3889 023e 19       		.uleb128 0x19
 3890 023f 01       		.uleb128 0x1
 3891 0240 13       		.uleb128 0x13
 3892 0241 00       		.byte	0
 3893 0242 00       		.byte	0
 3894 0243 2C       		.uleb128 0x2c
 3895 0244 05       		.uleb128 0x5
 3896 0245 00       		.byte	0
ARM GAS  C:\Users\Luis\AppData\Local\Temp\ccEujqcQ.s 			page 70


 3897 0246 03       		.uleb128 0x3
 3898 0247 08       		.uleb128 0x8
 3899 0248 3A       		.uleb128 0x3a
 3900 0249 0B       		.uleb128 0xb
 3901 024a 3B       		.uleb128 0x3b
 3902 024b 0B       		.uleb128 0xb
 3903 024c 49       		.uleb128 0x49
 3904 024d 13       		.uleb128 0x13
 3905 024e 02       		.uleb128 0x2
 3906 024f 18       		.uleb128 0x18
 3907 0250 00       		.byte	0
 3908 0251 00       		.byte	0
 3909 0252 2D       		.uleb128 0x2d
 3910 0253 2E       		.uleb128 0x2e
 3911 0254 01       		.byte	0x1
 3912 0255 03       		.uleb128 0x3
 3913 0256 0E       		.uleb128 0xe
 3914 0257 3A       		.uleb128 0x3a
 3915 0258 0B       		.uleb128 0xb
 3916 0259 3B       		.uleb128 0x3b
 3917 025a 05       		.uleb128 0x5
 3918 025b 27       		.uleb128 0x27
 3919 025c 19       		.uleb128 0x19
 3920 025d 49       		.uleb128 0x49
 3921 025e 13       		.uleb128 0x13
 3922 025f 11       		.uleb128 0x11
 3923 0260 01       		.uleb128 0x1
 3924 0261 12       		.uleb128 0x12
 3925 0262 06       		.uleb128 0x6
 3926 0263 40       		.uleb128 0x40
 3927 0264 18       		.uleb128 0x18
 3928 0265 9642     		.uleb128 0x2116
 3929 0267 19       		.uleb128 0x19
 3930 0268 01       		.uleb128 0x1
 3931 0269 13       		.uleb128 0x13
 3932 026a 00       		.byte	0
 3933 026b 00       		.byte	0
 3934 026c 2E       		.uleb128 0x2e
 3935 026d 05       		.uleb128 0x5
 3936 026e 00       		.byte	0
 3937 026f 03       		.uleb128 0x3
 3938 0270 08       		.uleb128 0x8
 3939 0271 3A       		.uleb128 0x3a
 3940 0272 0B       		.uleb128 0xb
 3941 0273 3B       		.uleb128 0x3b
 3942 0274 05       		.uleb128 0x5
 3943 0275 49       		.uleb128 0x49
 3944 0276 13       		.uleb128 0x13
 3945 0277 02       		.uleb128 0x2
 3946 0278 18       		.uleb128 0x18
 3947 0279 00       		.byte	0
 3948 027a 00       		.byte	0
 3949 027b 2F       		.uleb128 0x2f
 3950 027c 05       		.uleb128 0x5
 3951 027d 00       		.byte	0
 3952 027e 03       		.uleb128 0x3
 3953 027f 0E       		.uleb128 0xe
ARM GAS  C:\Users\Luis\AppData\Local\Temp\ccEujqcQ.s 			page 71


 3954 0280 3A       		.uleb128 0x3a
 3955 0281 0B       		.uleb128 0xb
 3956 0282 3B       		.uleb128 0x3b
 3957 0283 05       		.uleb128 0x5
 3958 0284 49       		.uleb128 0x49
 3959 0285 13       		.uleb128 0x13
 3960 0286 02       		.uleb128 0x2
 3961 0287 18       		.uleb128 0x18
 3962 0288 00       		.byte	0
 3963 0289 00       		.byte	0
 3964 028a 30       		.uleb128 0x30
 3965 028b 2E       		.uleb128 0x2e
 3966 028c 01       		.byte	0x1
 3967 028d 03       		.uleb128 0x3
 3968 028e 0E       		.uleb128 0xe
 3969 028f 3A       		.uleb128 0x3a
 3970 0290 0B       		.uleb128 0xb
 3971 0291 3B       		.uleb128 0x3b
 3972 0292 0B       		.uleb128 0xb
 3973 0293 27       		.uleb128 0x27
 3974 0294 19       		.uleb128 0x19
 3975 0295 49       		.uleb128 0x49
 3976 0296 13       		.uleb128 0x13
 3977 0297 11       		.uleb128 0x11
 3978 0298 01       		.uleb128 0x1
 3979 0299 12       		.uleb128 0x12
 3980 029a 06       		.uleb128 0x6
 3981 029b 40       		.uleb128 0x40
 3982 029c 18       		.uleb128 0x18
 3983 029d 9642     		.uleb128 0x2116
 3984 029f 19       		.uleb128 0x19
 3985 02a0 01       		.uleb128 0x1
 3986 02a1 13       		.uleb128 0x13
 3987 02a2 00       		.byte	0
 3988 02a3 00       		.byte	0
 3989 02a4 31       		.uleb128 0x31
 3990 02a5 2E       		.uleb128 0x2e
 3991 02a6 01       		.byte	0x1
 3992 02a7 03       		.uleb128 0x3
 3993 02a8 08       		.uleb128 0x8
 3994 02a9 3A       		.uleb128 0x3a
 3995 02aa 0B       		.uleb128 0xb
 3996 02ab 3B       		.uleb128 0x3b
 3997 02ac 0B       		.uleb128 0xb
 3998 02ad 27       		.uleb128 0x27
 3999 02ae 19       		.uleb128 0x19
 4000 02af 49       		.uleb128 0x49
 4001 02b0 13       		.uleb128 0x13
 4002 02b1 11       		.uleb128 0x11
 4003 02b2 01       		.uleb128 0x1
 4004 02b3 12       		.uleb128 0x12
 4005 02b4 06       		.uleb128 0x6
 4006 02b5 40       		.uleb128 0x40
 4007 02b6 18       		.uleb128 0x18
 4008 02b7 9642     		.uleb128 0x2116
 4009 02b9 19       		.uleb128 0x19
 4010 02ba 01       		.uleb128 0x1
ARM GAS  C:\Users\Luis\AppData\Local\Temp\ccEujqcQ.s 			page 72


 4011 02bb 13       		.uleb128 0x13
 4012 02bc 00       		.byte	0
 4013 02bd 00       		.byte	0
 4014 02be 32       		.uleb128 0x32
 4015 02bf 05       		.uleb128 0x5
 4016 02c0 00       		.byte	0
 4017 02c1 03       		.uleb128 0x3
 4018 02c2 0E       		.uleb128 0xe
 4019 02c3 3A       		.uleb128 0x3a
 4020 02c4 0B       		.uleb128 0xb
 4021 02c5 3B       		.uleb128 0x3b
 4022 02c6 0B       		.uleb128 0xb
 4023 02c7 49       		.uleb128 0x49
 4024 02c8 13       		.uleb128 0x13
 4025 02c9 02       		.uleb128 0x2
 4026 02ca 18       		.uleb128 0x18
 4027 02cb 00       		.byte	0
 4028 02cc 00       		.byte	0
 4029 02cd 33       		.uleb128 0x33
 4030 02ce 2E       		.uleb128 0x2e
 4031 02cf 00       		.byte	0
 4032 02d0 3F       		.uleb128 0x3f
 4033 02d1 19       		.uleb128 0x19
 4034 02d2 03       		.uleb128 0x3
 4035 02d3 0E       		.uleb128 0xe
 4036 02d4 3A       		.uleb128 0x3a
 4037 02d5 0B       		.uleb128 0xb
 4038 02d6 3B       		.uleb128 0x3b
 4039 02d7 0B       		.uleb128 0xb
 4040 02d8 27       		.uleb128 0x27
 4041 02d9 19       		.uleb128 0x19
 4042 02da 11       		.uleb128 0x11
 4043 02db 01       		.uleb128 0x1
 4044 02dc 12       		.uleb128 0x12
 4045 02dd 06       		.uleb128 0x6
 4046 02de 40       		.uleb128 0x40
 4047 02df 18       		.uleb128 0x18
 4048 02e0 9642     		.uleb128 0x2116
 4049 02e2 19       		.uleb128 0x19
 4050 02e3 00       		.byte	0
 4051 02e4 00       		.byte	0
 4052 02e5 34       		.uleb128 0x34
 4053 02e6 2E       		.uleb128 0x2e
 4054 02e7 01       		.byte	0x1
 4055 02e8 3F       		.uleb128 0x3f
 4056 02e9 19       		.uleb128 0x19
 4057 02ea 03       		.uleb128 0x3
 4058 02eb 0E       		.uleb128 0xe
 4059 02ec 3A       		.uleb128 0x3a
 4060 02ed 0B       		.uleb128 0xb
 4061 02ee 3B       		.uleb128 0x3b
 4062 02ef 0B       		.uleb128 0xb
 4063 02f0 27       		.uleb128 0x27
 4064 02f1 19       		.uleb128 0x19
 4065 02f2 11       		.uleb128 0x11
 4066 02f3 01       		.uleb128 0x1
 4067 02f4 12       		.uleb128 0x12
ARM GAS  C:\Users\Luis\AppData\Local\Temp\ccEujqcQ.s 			page 73


 4068 02f5 06       		.uleb128 0x6
 4069 02f6 40       		.uleb128 0x40
 4070 02f7 18       		.uleb128 0x18
 4071 02f8 9642     		.uleb128 0x2116
 4072 02fa 19       		.uleb128 0x19
 4073 02fb 01       		.uleb128 0x1
 4074 02fc 13       		.uleb128 0x13
 4075 02fd 00       		.byte	0
 4076 02fe 00       		.byte	0
 4077 02ff 35       		.uleb128 0x35
 4078 0300 2E       		.uleb128 0x2e
 4079 0301 01       		.byte	0x1
 4080 0302 3F       		.uleb128 0x3f
 4081 0303 19       		.uleb128 0x19
 4082 0304 03       		.uleb128 0x3
 4083 0305 0E       		.uleb128 0xe
 4084 0306 3A       		.uleb128 0x3a
 4085 0307 0B       		.uleb128 0xb
 4086 0308 3B       		.uleb128 0x3b
 4087 0309 0B       		.uleb128 0xb
 4088 030a 27       		.uleb128 0x27
 4089 030b 19       		.uleb128 0x19
 4090 030c 49       		.uleb128 0x49
 4091 030d 13       		.uleb128 0x13
 4092 030e 11       		.uleb128 0x11
 4093 030f 01       		.uleb128 0x1
 4094 0310 12       		.uleb128 0x12
 4095 0311 06       		.uleb128 0x6
 4096 0312 40       		.uleb128 0x40
 4097 0313 18       		.uleb128 0x18
 4098 0314 9642     		.uleb128 0x2116
 4099 0316 19       		.uleb128 0x19
 4100 0317 01       		.uleb128 0x1
 4101 0318 13       		.uleb128 0x13
 4102 0319 00       		.byte	0
 4103 031a 00       		.byte	0
 4104 031b 36       		.uleb128 0x36
 4105 031c 34       		.uleb128 0x34
 4106 031d 00       		.byte	0
 4107 031e 03       		.uleb128 0x3
 4108 031f 08       		.uleb128 0x8
 4109 0320 3A       		.uleb128 0x3a
 4110 0321 0B       		.uleb128 0xb
 4111 0322 3B       		.uleb128 0x3b
 4112 0323 0B       		.uleb128 0xb
 4113 0324 49       		.uleb128 0x49
 4114 0325 13       		.uleb128 0x13
 4115 0326 02       		.uleb128 0x2
 4116 0327 18       		.uleb128 0x18
 4117 0328 00       		.byte	0
 4118 0329 00       		.byte	0
 4119 032a 37       		.uleb128 0x37
 4120 032b 34       		.uleb128 0x34
 4121 032c 00       		.byte	0
 4122 032d 03       		.uleb128 0x3
 4123 032e 0E       		.uleb128 0xe
 4124 032f 3A       		.uleb128 0x3a
ARM GAS  C:\Users\Luis\AppData\Local\Temp\ccEujqcQ.s 			page 74


 4125 0330 0B       		.uleb128 0xb
 4126 0331 3B       		.uleb128 0x3b
 4127 0332 05       		.uleb128 0x5
 4128 0333 49       		.uleb128 0x49
 4129 0334 13       		.uleb128 0x13
 4130 0335 3F       		.uleb128 0x3f
 4131 0336 19       		.uleb128 0x19
 4132 0337 3C       		.uleb128 0x3c
 4133 0338 19       		.uleb128 0x19
 4134 0339 00       		.byte	0
 4135 033a 00       		.byte	0
 4136 033b 38       		.uleb128 0x38
 4137 033c 34       		.uleb128 0x34
 4138 033d 00       		.byte	0
 4139 033e 03       		.uleb128 0x3
 4140 033f 08       		.uleb128 0x8
 4141 0340 3A       		.uleb128 0x3a
 4142 0341 0B       		.uleb128 0xb
 4143 0342 3B       		.uleb128 0x3b
 4144 0343 05       		.uleb128 0x5
 4145 0344 49       		.uleb128 0x49
 4146 0345 13       		.uleb128 0x13
 4147 0346 3F       		.uleb128 0x3f
 4148 0347 19       		.uleb128 0x19
 4149 0348 3C       		.uleb128 0x3c
 4150 0349 19       		.uleb128 0x19
 4151 034a 00       		.byte	0
 4152 034b 00       		.byte	0
 4153 034c 00       		.byte	0
 4154              		.section	.debug_aranges,"",%progbits
 4155 0000 DC000000 		.4byte	0xdc
 4156 0004 0200     		.2byte	0x2
 4157 0006 00000000 		.4byte	.Ldebug_info0
 4158 000a 04       		.byte	0x4
 4159 000b 00       		.byte	0
 4160 000c 0000     		.2byte	0
 4161 000e 0000     		.2byte	0
 4162 0010 00000000 		.4byte	.LFB116
 4163 0014 1A000000 		.4byte	.LFE116-.LFB116
 4164 0018 00000000 		.4byte	.LFB117
 4165 001c 1A000000 		.4byte	.LFE117-.LFB117
 4166 0020 00000000 		.4byte	.LFB156
 4167 0024 12000000 		.4byte	.LFE156-.LFB156
 4168 0028 00000000 		.4byte	.LFB157
 4169 002c 3C000000 		.4byte	.LFE157-.LFB157
 4170 0030 00000000 		.4byte	.LFB204
 4171 0034 18000000 		.4byte	.LFE204-.LFB204
 4172 0038 00000000 		.4byte	.LFB221
 4173 003c 22000000 		.4byte	.LFE221-.LFB221
 4174 0040 00000000 		.4byte	.LFB233
 4175 0044 0A000000 		.4byte	.LFE233-.LFB233
 4176 0048 00000000 		.4byte	.LFB234
 4177 004c 0A000000 		.4byte	.LFE234-.LFB234
 4178 0050 00000000 		.4byte	.LFB241
 4179 0054 0A000000 		.4byte	.LFE241-.LFB241
 4180 0058 00000000 		.4byte	.LFB254
 4181 005c 14000000 		.4byte	.LFE254-.LFB254
ARM GAS  C:\Users\Luis\AppData\Local\Temp\ccEujqcQ.s 			page 75


 4182 0060 00000000 		.4byte	.LFB255
 4183 0064 18000000 		.4byte	.LFE255-.LFB255
 4184 0068 00000000 		.4byte	.LFB260
 4185 006c 28000000 		.4byte	.LFE260-.LFB260
 4186 0070 00000000 		.4byte	.LFB261
 4187 0074 28000000 		.4byte	.LFE261-.LFB261
 4188 0078 00000000 		.4byte	.LFB262
 4189 007c 2A000000 		.4byte	.LFE262-.LFB262
 4190 0080 00000000 		.4byte	.LFB263
 4191 0084 20000000 		.4byte	.LFE263-.LFB263
 4192 0088 00000000 		.4byte	.LFB264
 4193 008c 2A000000 		.4byte	.LFE264-.LFB264
 4194 0090 00000000 		.4byte	.LFB265
 4195 0094 20000000 		.4byte	.LFE265-.LFB265
 4196 0098 00000000 		.4byte	.LFB266
 4197 009c 28000000 		.4byte	.LFE266-.LFB266
 4198 00a0 00000000 		.4byte	.LFB267
 4199 00a4 28000000 		.4byte	.LFE267-.LFB267
 4200 00a8 00000000 		.4byte	.LFB268
 4201 00ac 0A000000 		.4byte	.LFE268-.LFB268
 4202 00b0 00000000 		.4byte	.LFB269
 4203 00b4 68000000 		.4byte	.LFE269-.LFB269
 4204 00b8 00000000 		.4byte	.LFB270
 4205 00bc 4C000000 		.4byte	.LFE270-.LFB270
 4206 00c0 00000000 		.4byte	.LFB271
 4207 00c4 60000000 		.4byte	.LFE271-.LFB271
 4208 00c8 00000000 		.4byte	.LFB272
 4209 00cc 64000000 		.4byte	.LFE272-.LFB272
 4210 00d0 00000000 		.4byte	.LFB273
 4211 00d4 44000000 		.4byte	.LFE273-.LFB273
 4212 00d8 00000000 		.4byte	0
 4213 00dc 00000000 		.4byte	0
 4214              		.section	.debug_ranges,"",%progbits
 4215              	.Ldebug_ranges0:
 4216 0000 00000000 		.4byte	.LFB116
 4217 0004 1A000000 		.4byte	.LFE116
 4218 0008 00000000 		.4byte	.LFB117
 4219 000c 1A000000 		.4byte	.LFE117
 4220 0010 00000000 		.4byte	.LFB156
 4221 0014 12000000 		.4byte	.LFE156
 4222 0018 00000000 		.4byte	.LFB157
 4223 001c 3C000000 		.4byte	.LFE157
 4224 0020 00000000 		.4byte	.LFB204
 4225 0024 18000000 		.4byte	.LFE204
 4226 0028 00000000 		.4byte	.LFB221
 4227 002c 22000000 		.4byte	.LFE221
 4228 0030 00000000 		.4byte	.LFB233
 4229 0034 0A000000 		.4byte	.LFE233
 4230 0038 00000000 		.4byte	.LFB234
 4231 003c 0A000000 		.4byte	.LFE234
 4232 0040 00000000 		.4byte	.LFB241
 4233 0044 0A000000 		.4byte	.LFE241
 4234 0048 00000000 		.4byte	.LFB254
 4235 004c 14000000 		.4byte	.LFE254
 4236 0050 00000000 		.4byte	.LFB255
 4237 0054 18000000 		.4byte	.LFE255
 4238 0058 00000000 		.4byte	.LFB260
ARM GAS  C:\Users\Luis\AppData\Local\Temp\ccEujqcQ.s 			page 76


 4239 005c 28000000 		.4byte	.LFE260
 4240 0060 00000000 		.4byte	.LFB261
 4241 0064 28000000 		.4byte	.LFE261
 4242 0068 00000000 		.4byte	.LFB262
 4243 006c 2A000000 		.4byte	.LFE262
 4244 0070 00000000 		.4byte	.LFB263
 4245 0074 20000000 		.4byte	.LFE263
 4246 0078 00000000 		.4byte	.LFB264
 4247 007c 2A000000 		.4byte	.LFE264
 4248 0080 00000000 		.4byte	.LFB265
 4249 0084 20000000 		.4byte	.LFE265
 4250 0088 00000000 		.4byte	.LFB266
 4251 008c 28000000 		.4byte	.LFE266
 4252 0090 00000000 		.4byte	.LFB267
 4253 0094 28000000 		.4byte	.LFE267
 4254 0098 00000000 		.4byte	.LFB268
 4255 009c 0A000000 		.4byte	.LFE268
 4256 00a0 00000000 		.4byte	.LFB269
 4257 00a4 68000000 		.4byte	.LFE269
 4258 00a8 00000000 		.4byte	.LFB270
 4259 00ac 4C000000 		.4byte	.LFE270
 4260 00b0 00000000 		.4byte	.LFB271
 4261 00b4 60000000 		.4byte	.LFE271
 4262 00b8 00000000 		.4byte	.LFB272
 4263 00bc 64000000 		.4byte	.LFE272
 4264 00c0 00000000 		.4byte	.LFB273
 4265 00c4 44000000 		.4byte	.LFE273
 4266 00c8 00000000 		.4byte	0
 4267 00cc 00000000 		.4byte	0
 4268              		.section	.debug_line,"",%progbits
 4269              	.Ldebug_line0:
 4270 0000 17050000 		.section	.debug_str,"MS",%progbits,1
 4270      0200BE02 
 4270      00000201 
 4270      FB0E0D00 
 4270      01010101 
 4271              	.LASF19:
 4272 0000 74726566 		.ascii	"trefs_t\000"
 4272      735F7400 
 4273              	.LASF54:
 4274 0008 72656164 		.ascii	"ready_list_t\000"
 4274      795F6C69 
 4274      73745F74 
 4274      00
 4275              	.LASF93:
 4276 0015 73655F74 		.ascii	"se_time\000"
 4276      696D6500 
 4277              	.LASF2:
 4278 001d 73697A65 		.ascii	"size_t\000"
 4278      5F7400
 4279              	.LASF114:
 4280 0024 7264796D 		.ascii	"rdymsg\000"
 4280      736700
 4281              	.LASF13:
 4282 002b 75696E74 		.ascii	"uint64_t\000"
 4282      36345F74 
 4282      00
ARM GAS  C:\Users\Luis\AppData\Local\Temp\ccEujqcQ.s 			page 77


 4283              	.LASF84:
 4284 0034 6B65726E 		.ascii	"kernel_stats\000"
 4284      656C5F73 
 4284      74617473 
 4284      00
 4285              	.LASF92:
 4286 0041 706F7274 		.ascii	"port_intctx\000"
 4286      5F696E74 
 4286      63747800 
 4287              	.LASF53:
 4288 004d 63685F74 		.ascii	"ch_threads_queue\000"
 4288      68726561 
 4288      64735F71 
 4288      75657565 
 4288      00
 4289              	.LASF73:
 4290 005e 73797374 		.ascii	"system_debug_t\000"
 4290      656D5F64 
 4290      65627567 
 4290      5F7400
 4291              	.LASF173:
 4292 006d 706F7274 		.ascii	"port_lock\000"
 4292      5F6C6F63 
 4292      6B00
 4293              	.LASF105:
 4294 0077 776F7273 		.ascii	"worst\000"
 4294      7400
 4295              	.LASF108:
 4296 007d 74696D65 		.ascii	"time_measurement_t\000"
 4296      5F6D6561 
 4296      73757265 
 4296      6D656E74 
 4296      5F7400
 4297              	.LASF14:
 4298 0090 6C6F6E67 		.ascii	"long long unsigned int\000"
 4298      206C6F6E 
 4298      6720756E 
 4298      7369676E 
 4298      65642069 
 4299              	.LASF101:
 4300 00a7 63685F74 		.ascii	"ch_trace_buffer_t\000"
 4300      72616365 
 4300      5F627566 
 4300      6665725F 
 4300      7400
 4301              	.LASF182:
 4302 00b9 6F73616C 		.ascii	"osalEventBroadcastFlagsI\000"
 4302      4576656E 
 4302      7442726F 
 4302      61646361 
 4302      7374466C 
 4303              	.LASF96:
 4304 00d2 73655F73 		.ascii	"se_state\000"
 4304      74617465 
 4304      00
 4305              	.LASF115:
 4306 00db 65786974 		.ascii	"exitcode\000"
ARM GAS  C:\Users\Luis\AppData\Local\Temp\ccEujqcQ.s 			page 78


 4306      636F6465 
 4306      00
 4307              	.LASF83:
 4308 00e4 6D61696E 		.ascii	"mainthread\000"
 4308      74687265 
 4308      616400
 4309              	.LASF70:
 4310 00ef 76697274 		.ascii	"virtual_timers_list_t\000"
 4310      75616C5F 
 4310      74696D65 
 4310      72735F6C 
 4310      6973745F 
 4311              	.LASF194:
 4312 0105 49544D5F 		.ascii	"ITM_RxBuffer\000"
 4312      52784275 
 4312      66666572 
 4312      00
 4313              	.LASF140:
 4314 0112 696F5F71 		.ascii	"io_queue_t\000"
 4314      75657565 
 4314      5F7400
 4315              	.LASF16:
 4316 011d 72747469 		.ascii	"rttime_t\000"
 4316      6D655F74 
 4316      00
 4317              	.LASF188:
 4318 0126 73644F62 		.ascii	"sdObjectInit\000"
 4318      6A656374 
 4318      496E6974 
 4318      00
 4319              	.LASF172:
 4320 0133 72656164 		.ascii	"readt\000"
 4320      7400
 4321              	.LASF142:
 4322 0139 715F7761 		.ascii	"q_waiting\000"
 4322      6974696E 
 4322      6700
 4323              	.LASF12:
 4324 0143 6C6F6E67 		.ascii	"long long int\000"
 4324      206C6F6E 
 4324      6720696E 
 4324      7400
 4325              	.LASF1:
 4326 0151 7369676E 		.ascii	"signed char\000"
 4326      65642063 
 4326      68617200 
 4327              	.LASF87:
 4328 015d 47545052 		.ascii	"GTPR\000"
 4328      00
 4329              	.LASF45:
 4330 0162 705F6D70 		.ascii	"p_mpool\000"
 4330      6F6F6C00 
 4331              	.LASF181:
 4332 016a 6F73616C 		.ascii	"osalEventObjectInit\000"
 4332      4576656E 
 4332      744F626A 
 4332      65637449 
ARM GAS  C:\Users\Luis\AppData\Local\Temp\ccEujqcQ.s 			page 79


 4332      6E697400 
 4333              	.LASF125:
 4334 017e 6D5F7175 		.ascii	"m_queue\000"
 4334      65756500 
 4335              	.LASF174:
 4336 0186 706F7274 		.ascii	"port_unlock\000"
 4336      5F756E6C 
 4336      6F636B00 
 4337              	.LASF160:
 4338 0192 73746174 		.ascii	"state\000"
 4338      6500
 4339              	.LASF80:
 4340 0198 63685F73 		.ascii	"ch_system\000"
 4340      79737465 
 4340      6D00
 4341              	.LASF9:
 4342 01a2 6C6F6E67 		.ascii	"long int\000"
 4342      20696E74 
 4342      00
 4343              	.LASF137:
 4344 01ab 6576656E 		.ascii	"event_source\000"
 4344      745F736F 
 4344      75726365 
 4344      00
 4345              	.LASF18:
 4346 01b8 74737461 		.ascii	"tstate_t\000"
 4346      74655F74 
 4346      00
 4347              	.LASF38:
 4348 01c1 705F7265 		.ascii	"p_refs\000"
 4348      667300
 4349              	.LASF94:
 4350 01c8 73655F74 		.ascii	"se_tp\000"
 4350      7000
 4351              	.LASF144:
 4352 01ce 715F6275 		.ascii	"q_buffer\000"
 4352      66666572 
 4352      00
 4353              	.LASF146:
 4354 01d7 715F7772 		.ascii	"q_wrptr\000"
 4354      70747200 
 4355              	.LASF196:
 4356 01df 2E2E2F2E 		.ascii	"../../ChibiOS/os/hal/src/serial.c\000"
 4356      2E2F4368 
 4356      6962694F 
 4356      532F6F73 
 4356      2F68616C 
 4357              	.LASF155:
 4358 0201 53445F53 		.ascii	"SD_STOP\000"
 4358      544F5000 
 4359              	.LASF32:
 4360 0209 705F6E65 		.ascii	"p_newer\000"
 4360      77657200 
 4361              	.LASF122:
 4362 0211 735F7175 		.ascii	"s_queue\000"
 4362      65756500 
 4363              	.LASF192:
ARM GAS  C:\Users\Luis\AppData\Local\Temp\ccEujqcQ.s 			page 80


 4364 0219 73645374 		.ascii	"sdStop\000"
 4364      6F7000
 4365              	.LASF98:
 4366 0220 74625F73 		.ascii	"tb_size\000"
 4366      697A6500 
 4367              	.LASF59:
 4368 0228 725F6E65 		.ascii	"r_newer\000"
 4368      77657200 
 4369              	.LASF89:
 4370 0230 72656761 		.ascii	"regarm_t\000"
 4370      726D5F74 
 4370      00
 4371              	.LASF66:
 4372 0239 76745F70 		.ascii	"vt_prev\000"
 4372      72657600 
 4373              	.LASF82:
 4374 0241 76746C69 		.ascii	"vtlist\000"
 4374      737400
 4375              	.LASF74:
 4376 0248 63685F73 		.ascii	"ch_system_debug\000"
 4376      79737465 
 4376      6D5F6465 
 4376      62756700 
 4377              	.LASF178:
 4378 0258 6F73616C 		.ascii	"osalSysLock\000"
 4378      5379734C 
 4378      6F636B00 
 4379              	.LASF129:
 4380 0264 6D757465 		.ascii	"mutex_t\000"
 4380      785F7400 
 4381              	.LASF199:
 4382 026c 76616C75 		.ascii	"value\000"
 4382      6500
 4383              	.LASF77:
 4384 0272 6C6F636B 		.ascii	"lock_cnt\000"
 4384      5F636E74 
 4384      00
 4385              	.LASF139:
 4386 027b 6576656E 		.ascii	"event_source_t\000"
 4386      745F736F 
 4386      75726365 
 4386      5F7400
 4387              	.LASF85:
 4388 028a 69646C65 		.ascii	"idle_thread_wa\000"
 4388      5F746872 
 4388      6561645F 
 4388      776100
 4389              	.LASF24:
 4390 0299 636E745F 		.ascii	"cnt_t\000"
 4390      7400
 4391              	.LASF163:
 4392 029f 75736172 		.ascii	"usart\000"
 4392      7400
 4393              	.LASF0:
 4394 02a5 756E7369 		.ascii	"unsigned int\000"
 4394      676E6564 
 4394      20696E74 
ARM GAS  C:\Users\Luis\AppData\Local\Temp\ccEujqcQ.s 			page 81


 4394      00
 4395              	.LASF65:
 4396 02b2 76745F6E 		.ascii	"vt_next\000"
 4396      65787400 
 4397              	.LASF6:
 4398 02ba 75696E74 		.ascii	"uint16_t\000"
 4398      31365F74 
 4398      00
 4399              	.LASF166:
 4400 02c3 53657269 		.ascii	"SerialDriverVMT\000"
 4400      616C4472 
 4400      69766572 
 4400      564D5400 
 4401              	.LASF186:
 4402 02d3 696E6F74 		.ascii	"inotify\000"
 4402      69667900 
 4403              	.LASF118:
 4404 02db 77747365 		.ascii	"wtsemp\000"
 4404      6D7000
 4405              	.LASF161:
 4406 02e2 69717565 		.ascii	"iqueue\000"
 4406      756500
 4407              	.LASF40:
 4408 02e9 705F6D73 		.ascii	"p_msgqueue\000"
 4408      67717565 
 4408      756500
 4409              	.LASF185:
 4410 02f4 74696D65 		.ascii	"timeout\000"
 4410      6F757400 
 4411              	.LASF47:
 4412 02fc 746C7350 		.ascii	"tlsPtr\000"
 4412      747200
 4413              	.LASF170:
 4414 0303 67657474 		.ascii	"gett\000"
 4414      00
 4415              	.LASF109:
 4416 0308 6E5F6972 		.ascii	"n_irq\000"
 4416      7100
 4417              	.LASF123:
 4418 030e 735F636E 		.ascii	"s_cnt\000"
 4418      7400
 4419              	.LASF159:
 4420 0314 6576656E 		.ascii	"event\000"
 4420      7400
 4421              	.LASF176:
 4422 031a 63684576 		.ascii	"chEvtObjectInit\000"
 4422      744F626A 
 4422      65637449 
 4422      6E697400 
 4423              	.LASF7:
 4424 032a 73686F72 		.ascii	"short unsigned int\000"
 4424      7420756E 
 4424      7369676E 
 4424      65642069 
 4424      6E7400
 4425              	.LASF113:
 4426 033d 6B65726E 		.ascii	"kernel_stats_t\000"
ARM GAS  C:\Users\Luis\AppData\Local\Temp\ccEujqcQ.s 			page 82


 4426      656C5F73 
 4426      74617473 
 4426      5F7400
 4427              	.LASF50:
 4428 034c 63685F74 		.ascii	"ch_thread\000"
 4428      68726561 
 4428      6400
 4429              	.LASF136:
 4430 0356 656C5F77 		.ascii	"el_wflags\000"
 4430      666C6167 
 4430      7300
 4431              	.LASF21:
 4432 0360 6D73675F 		.ascii	"msg_t\000"
 4432      7400
 4433              	.LASF162:
 4434 0366 6F717565 		.ascii	"oqueue\000"
 4434      756500
 4435              	.LASF25:
 4436 036d 75636E74 		.ascii	"ucnt_t\000"
 4436      5F7400
 4437              	.LASF132:
 4438 0374 656C5F6E 		.ascii	"el_next\000"
 4438      65787400 
 4439              	.LASF79:
 4440 037c 63685F73 		.ascii	"ch_system_t\000"
 4440      79737465 
 4440      6D5F7400 
 4441              	.LASF88:
 4442 0388 55534152 		.ascii	"USART_TypeDef\000"
 4442      545F5479 
 4442      70654465 
 4442      6600
 4443              	.LASF171:
 4444 0396 77726974 		.ascii	"writet\000"
 4444      657400
 4445              	.LASF17:
 4446 039d 746D6F64 		.ascii	"tmode_t\000"
 4446      655F7400 
 4447              	.LASF112:
 4448 03a5 6D5F6372 		.ascii	"m_crit_isr\000"
 4448      69745F69 
 4448      737200
 4449              	.LASF55:
 4450 03b0 63685F72 		.ascii	"ch_ready_list\000"
 4450      65616479 
 4450      5F6C6973 
 4450      7400
 4451              	.LASF22:
 4452 03be 6576656E 		.ascii	"eventmask_t\000"
 4452      746D6173 
 4452      6B5F7400 
 4453              	.LASF164:
 4454 03ca 73706565 		.ascii	"speed\000"
 4454      6400
 4455              	.LASF150:
 4456 03d0 716E6F74 		.ascii	"qnotify_t\000"
 4456      6966795F 
ARM GAS  C:\Users\Luis\AppData\Local\Temp\ccEujqcQ.s 			page 83


 4456      7400
 4457              	.LASF90:
 4458 03da 73746B61 		.ascii	"stkalign_t\000"
 4458      6C69676E 
 4458      5F7400
 4459              	.LASF167:
 4460 03e5 77726974 		.ascii	"write\000"
 4460      6500
 4461              	.LASF151:
 4462 03eb 696E7075 		.ascii	"input_queue_t\000"
 4462      745F7175 
 4462      6575655F 
 4462      7400
 4463              	.LASF169:
 4464 03f9 70757474 		.ascii	"putt\000"
 4464      00
 4465              	.LASF39:
 4466 03fe 705F7761 		.ascii	"p_waiting\000"
 4466      6974696E 
 4466      6700
 4467              	.LASF141:
 4468 0408 696F5F71 		.ascii	"io_queue\000"
 4468      75657565 
 4468      00
 4469              	.LASF86:
 4470 0411 73697A65 		.ascii	"sizetype\000"
 4470      74797065 
 4470      00
 4471              	.LASF48:
 4472 041a 74687265 		.ascii	"thread_reference_t\000"
 4472      61645F72 
 4472      65666572 
 4472      656E6365 
 4472      5F7400
 4473              	.LASF103:
 4474 042d 746D5F63 		.ascii	"tm_calibration_t\000"
 4474      616C6962 
 4474      72617469 
 4474      6F6E5F74 
 4474      00
 4475              	.LASF71:
 4476 043e 63685F76 		.ascii	"ch_virtual_timers_list\000"
 4476      69727475 
 4476      616C5F74 
 4476      696D6572 
 4476      735F6C69 
 4477              	.LASF143:
 4478 0455 715F636F 		.ascii	"q_counter\000"
 4478      756E7465 
 4478      7200
 4479              	.LASF117:
 4480 045f 77747472 		.ascii	"wttrp\000"
 4480      7000
 4481              	.LASF99:
 4482 0465 74625F70 		.ascii	"tb_ptr\000"
 4482      747200
 4483              	.LASF30:
ARM GAS  C:\Users\Luis\AppData\Local\Temp\ccEujqcQ.s 			page 84


 4484 046c 705F7072 		.ascii	"p_prio\000"
 4484      696F00
 4485              	.LASF97:
 4486 0473 63685F73 		.ascii	"ch_swc_event_t\000"
 4486      77635F65 
 4486      76656E74 
 4486      5F7400
 4487              	.LASF72:
 4488 0482 76745F6C 		.ascii	"vt_lasttime\000"
 4488      61737474 
 4488      696D6500 
 4489              	.LASF33:
 4490 048e 705F6F6C 		.ascii	"p_older\000"
 4490      64657200 
 4491              	.LASF58:
 4492 0496 725F6374 		.ascii	"r_ctx\000"
 4492      7800
 4493              	.LASF184:
 4494 049c 63684951 		.ascii	"chIQIsEmptyI\000"
 4494      4973456D 
 4494      70747949 
 4494      00
 4495              	.LASF35:
 4496 04a9 705F7374 		.ascii	"p_stklimit\000"
 4496      6B6C696D 
 4496      697400
 4497              	.LASF197:
 4498 04b4 433A5C55 		.ascii	"C:\\Users\\Luis\\workspace\\ChibiOS 3.0.2\\examples"
 4498      73657273 
 4498      5C4C7569 
 4498      735C776F 
 4498      726B7370 
 4499 04e2 5C445350 		.ascii	"\\DSP-Library\000"
 4499      2D4C6962 
 4499      72617279 
 4499      00
 4500              	.LASF61:
 4501 04ef 725F6375 		.ascii	"r_current\000"
 4501      7272656E 
 4501      7400
 4502              	.LASF60:
 4503 04f9 725F6F6C 		.ascii	"r_older\000"
 4503      64657200 
 4504              	.LASF106:
 4505 0501 6C617374 		.ascii	"last\000"
 4505      00
 4506              	.LASF134:
 4507 0506 656C5F65 		.ascii	"el_events\000"
 4507      76656E74 
 4507      7300
 4508              	.LASF165:
 4509 0510 53657269 		.ascii	"SerialConfig\000"
 4509      616C436F 
 4509      6E666967 
 4509      00
 4510              	.LASF107:
 4511 051d 63756D75 		.ascii	"cumulative\000"
ARM GAS  C:\Users\Luis\AppData\Local\Temp\ccEujqcQ.s 			page 85


 4511      6C617469 
 4511      766500
 4512              	.LASF180:
 4513 0528 6F73616C 		.ascii	"osalOsRescheduleS\000"
 4513      4F735265 
 4513      73636865 
 4513      64756C65 
 4513      5300
 4514              	.LASF100:
 4515 053a 74625F62 		.ascii	"tb_buffer\000"
 4515      75666665 
 4515      7200
 4516              	.LASF63:
 4517 0544 76697274 		.ascii	"virtual_timer_t\000"
 4517      75616C5F 
 4517      74696D65 
 4517      725F7400 
 4518              	.LASF29:
 4519 0554 705F7072 		.ascii	"p_prev\000"
 4519      657600
 4520              	.LASF20:
 4521 055b 74707269 		.ascii	"tprio_t\000"
 4521      6F5F7400 
 4522              	.LASF147:
 4523 0563 715F7264 		.ascii	"q_rdptr\000"
 4523      70747200 
 4524              	.LASF34:
 4525 056b 705F6E61 		.ascii	"p_name\000"
 4525      6D6500
 4526              	.LASF110:
 4527 0572 6E5F6374 		.ascii	"n_ctxswc\000"
 4527      78737763 
 4527      00
 4528              	.LASF153:
 4529 057b 5F426F6F 		.ascii	"_Bool\000"
 4529      6C00
 4530              	.LASF8:
 4531 0581 696E7433 		.ascii	"int32_t\000"
 4531      325F7400 
 4532              	.LASF4:
 4533 0589 756E7369 		.ascii	"unsigned char\000"
 4533      676E6564 
 4533      20636861 
 4533      7200
 4534              	.LASF133:
 4535 0597 656C5F6C 		.ascii	"el_listener\000"
 4535      69737465 
 4535      6E657200 
 4536              	.LASF135:
 4537 05a3 656C5F66 		.ascii	"el_flags\000"
 4537      6C616773 
 4537      00
 4538              	.LASF36:
 4539 05ac 705F7374 		.ascii	"p_state\000"
 4539      61746500 
 4540              	.LASF43:
 4541 05b4 705F6D74 		.ascii	"p_mtxlist\000"
ARM GAS  C:\Users\Luis\AppData\Local\Temp\ccEujqcQ.s 			page 86


 4541      786C6973 
 4541      7400
 4542              	.LASF5:
 4543 05be 73686F72 		.ascii	"short int\000"
 4543      7420696E 
 4543      7400
 4544              	.LASF57:
 4545 05c8 725F7072 		.ascii	"r_prio\000"
 4545      696F00
 4546              	.LASF120:
 4547 05cf 65776D61 		.ascii	"ewmask\000"
 4547      736B00
 4548              	.LASF28:
 4549 05d6 705F6E65 		.ascii	"p_next\000"
 4549      787400
 4550              	.LASF37:
 4551 05dd 705F666C 		.ascii	"p_flags\000"
 4551      61677300 
 4552              	.LASF191:
 4553 05e5 5F5F6675 		.ascii	"__func__\000"
 4553      6E635F5F 
 4553      00
 4554              	.LASF46:
 4555 05ee 705F7374 		.ascii	"p_stats\000"
 4555      61747300 
 4556              	.LASF177:
 4557 05f6 63685379 		.ascii	"chSysLock\000"
 4557      734C6F63 
 4557      6B00
 4558              	.LASF179:
 4559 0600 6F73616C 		.ascii	"osalSysUnlock\000"
 4559      53797355 
 4559      6E6C6F63 
 4559      6B00
 4560              	.LASF52:
 4561 060e 74687265 		.ascii	"threads_queue_t\000"
 4561      6164735F 
 4561      71756575 
 4561      655F7400 
 4562              	.LASF121:
 4563 061e 63685F73 		.ascii	"ch_semaphore\000"
 4563      656D6170 
 4563      686F7265 
 4563      00
 4564              	.LASF42:
 4565 062b 705F6570 		.ascii	"p_epending\000"
 4565      656E6469 
 4565      6E6700
 4566              	.LASF154:
 4567 0636 53445F55 		.ascii	"SD_UNINIT\000"
 4567      4E494E49 
 4567      5400
 4568              	.LASF10:
 4569 0640 75696E74 		.ascii	"uint32_t\000"
 4569      33325F74 
 4569      00
 4570              	.LASF119:
ARM GAS  C:\Users\Luis\AppData\Local\Temp\ccEujqcQ.s 			page 87


 4571 0649 77746D74 		.ascii	"wtmtxp\000"
 4571      787000
 4572              	.LASF56:
 4573 0650 725F7175 		.ascii	"r_queue\000"
 4573      65756500 
 4574              	.LASF67:
 4575 0658 76745F64 		.ascii	"vt_delta\000"
 4575      656C7461 
 4575      00
 4576              	.LASF51:
 4577 0661 63685F74 		.ascii	"ch_threads_list\000"
 4577      68726561 
 4577      64735F6C 
 4577      69737400 
 4578              	.LASF158:
 4579 0671 53657269 		.ascii	"SerialDriver\000"
 4579      616C4472 
 4579      69766572 
 4579      00
 4580              	.LASF11:
 4581 067e 6C6F6E67 		.ascii	"long unsigned int\000"
 4581      20756E73 
 4581      69676E65 
 4581      6420696E 
 4581      7400
 4582              	.LASF168:
 4583 0690 72656164 		.ascii	"read\000"
 4583      00
 4584              	.LASF128:
 4585 0695 63686172 		.ascii	"char\000"
 4585      00
 4586              	.LASF193:
 4587 069a 7364496E 		.ascii	"sdIncomingDataI\000"
 4587      636F6D69 
 4587      6E674461 
 4587      74614900 
 4588              	.LASF190:
 4589 06aa 636F6E66 		.ascii	"config\000"
 4589      696700
 4590              	.LASF189:
 4591 06b1 73645374 		.ascii	"sdStart\000"
 4591      61727400 
 4592              	.LASF195:
 4593 06b9 474E5520 		.ascii	"GNU C 4.8.3 20131129 (release) [ARM/embedded-4_8-br"
 4593      4320342E 
 4593      382E3320 
 4593      32303133 
 4593      31313239 
 4594 06ec 616E6368 		.ascii	"anch revision 205641] -mcpu=cortex-m4 -mapcs-frame "
 4594      20726576 
 4594      6973696F 
 4594      6E203230 
 4594      35363431 
 4595 071f 2D6D6E6F 		.ascii	"-mno-thumb-interwork -mthumb -ggdb -O0 -falign-func"
 4595      2D746875 
 4595      6D622D69 
 4595      6E746572 
ARM GAS  C:\Users\Luis\AppData\Local\Temp\ccEujqcQ.s 			page 88


 4595      776F726B 
 4596 0752 74696F6E 		.ascii	"tions=16 -ffunction-sections -fdata-sections -fno-c"
 4596      733D3136 
 4596      202D6666 
 4596      756E6374 
 4596      696F6E2D 
 4597 0785 6F6D6D6F 		.ascii	"ommon\000"
 4597      6E00
 4598              	.LASF104:
 4599 078b 62657374 		.ascii	"best\000"
 4599      00
 4600              	.LASF127:
 4601 0790 6D5F6E65 		.ascii	"m_next\000"
 4601      787400
 4602              	.LASF26:
 4603 0797 73797374 		.ascii	"systime_t\000"
 4603      696D655F 
 4603      7400
 4604              	.LASF44:
 4605 07a1 705F7265 		.ascii	"p_realprio\000"
 4605      616C7072 
 4605      696F00
 4606              	.LASF62:
 4607 07ac 76746675 		.ascii	"vtfunc_t\000"
 4607      6E635F74 
 4607      00
 4608              	.LASF198:
 4609 07b5 5F5F7365 		.ascii	"__set_BASEPRI\000"
 4609      745F4241 
 4609      53455052 
 4609      4900
 4610              	.LASF75:
 4611 07c3 70616E69 		.ascii	"panic_msg\000"
 4611      635F6D73 
 4611      6700
 4612              	.LASF102:
 4613 07cd 6F666673 		.ascii	"offset\000"
 4613      657400
 4614              	.LASF130:
 4615 07d4 6576656E 		.ascii	"event_listener_t\000"
 4615      745F6C69 
 4615      7374656E 
 4615      65725F74 
 4615      00
 4616              	.LASF91:
 4617 07e5 636F6E74 		.ascii	"context\000"
 4617      65787400 
 4618              	.LASF64:
 4619 07ed 63685F76 		.ascii	"ch_virtual_timer\000"
 4619      69727475 
 4619      616C5F74 
 4619      696D6572 
 4619      00
 4620              	.LASF15:
 4621 07fe 7274636E 		.ascii	"rtcnt_t\000"
 4621      745F7400 
 4622              	.LASF156:
ARM GAS  C:\Users\Luis\AppData\Local\Temp\ccEujqcQ.s 			page 89


 4623 0806 53445F52 		.ascii	"SD_READY\000"
 4623      45414459 
 4623      00
 4624              	.LASF69:
 4625 080f 76745F70 		.ascii	"vt_par\000"
 4625      617200
 4626              	.LASF23:
 4627 0816 6576656E 		.ascii	"eventflags_t\000"
 4627      74666C61 
 4627      67735F74 
 4627      00
 4628              	.LASF152:
 4629 0823 6F757470 		.ascii	"output_queue_t\000"
 4629      75745F71 
 4629      75657565 
 4629      5F7400
 4630              	.LASF157:
 4631 0832 73647374 		.ascii	"sdstate_t\000"
 4631      6174655F 
 4631      7400
 4632              	.LASF145:
 4633 083c 715F746F 		.ascii	"q_top\000"
 4633      7000
 4634              	.LASF124:
 4635 0842 63685F6D 		.ascii	"ch_mutex\000"
 4635      75746578 
 4635      00
 4636              	.LASF138:
 4637 084b 65735F6E 		.ascii	"es_next\000"
 4637      65787400 
 4638              	.LASF76:
 4639 0853 6973725F 		.ascii	"isr_cnt\000"
 4639      636E7400 
 4640              	.LASF27:
 4641 085b 74687265 		.ascii	"thread_t\000"
 4641      61645F74 
 4641      00
 4642              	.LASF148:
 4643 0864 715F6E6F 		.ascii	"q_notify\000"
 4643      74696679 
 4643      00
 4644              	.LASF81:
 4645 086d 726C6973 		.ascii	"rlist\000"
 4645      7400
 4646              	.LASF201:
 4647 0873 73645265 		.ascii	"sdRequestDataI\000"
 4647      71756573 
 4647      74446174 
 4647      614900
 4648              	.LASF3:
 4649 0882 75696E74 		.ascii	"uint8_t\000"
 4649      385F7400 
 4650              	.LASF183:
 4651 088a 666C6167 		.ascii	"flags\000"
 4651      7300
 4652              	.LASF187:
 4653 0890 6F6E6F74 		.ascii	"onotify\000"
ARM GAS  C:\Users\Luis\AppData\Local\Temp\ccEujqcQ.s 			page 90


 4653      69667900 
 4654              	.LASF116:
 4655 0898 77746F62 		.ascii	"wtobjp\000"
 4655      6A7000
 4656              	.LASF49:
 4657 089f 74687265 		.ascii	"threads_list_t\000"
 4657      6164735F 
 4657      6C697374 
 4657      5F7400
 4658              	.LASF78:
 4659 08ae 74726163 		.ascii	"trace_buffer\000"
 4659      655F6275 
 4659      66666572 
 4659      00
 4660              	.LASF175:
 4661 08bb 63685379 		.ascii	"chSysUnlock\000"
 4661      73556E6C 
 4661      6F636B00 
 4662              	.LASF41:
 4663 08c7 705F6D73 		.ascii	"p_msg\000"
 4663      6700
 4664              	.LASF200:
 4665 08cd 7364496E 		.ascii	"sdInit\000"
 4665      697400
 4666              	.LASF149:
 4667 08d4 715F6C69 		.ascii	"q_link\000"
 4667      6E6B00
 4668              	.LASF111:
 4669 08db 6D5F6372 		.ascii	"m_crit_thd\000"
 4669      69745F74 
 4669      686400
 4670              	.LASF126:
 4671 08e6 6D5F6F77 		.ascii	"m_owner\000"
 4671      6E657200 
 4672              	.LASF95:
 4673 08ee 73655F77 		.ascii	"se_wtobjp\000"
 4673      746F626A 
 4673      7000
 4674              	.LASF31:
 4675 08f8 705F6374 		.ascii	"p_ctx\000"
 4675      7800
 4676              	.LASF68:
 4677 08fe 76745F66 		.ascii	"vt_func\000"
 4677      756E6300 
 4678              	.LASF131:
 4679 0906 6576656E 		.ascii	"event_listener\000"
 4679      745F6C69 
 4679      7374656E 
 4679      657200
 4680              		.ident	"GCC: (GNU Tools for ARM Embedded Processors) 4.8.3 20131129 (release) [ARM/embedded-4_8-br
ARM GAS  C:\Users\Luis\AppData\Local\Temp\ccEujqcQ.s 			page 91


DEFINED SYMBOLS
                            *ABS*:00000000 serial.c
C:\Users\Luis\AppData\Local\Temp\ccEujqcQ.s:19     .text.port_lock:00000000 $t
C:\Users\Luis\AppData\Local\Temp\ccEujqcQ.s:24     .text.port_lock:00000000 port_lock
C:\Users\Luis\AppData\Local\Temp\ccEujqcQ.s:62     .text.port_unlock:00000000 $t
C:\Users\Luis\AppData\Local\Temp\ccEujqcQ.s:67     .text.port_unlock:00000000 port_unlock
C:\Users\Luis\AppData\Local\Temp\ccEujqcQ.s:103    .text.chSysLock:00000000 $t
C:\Users\Luis\AppData\Local\Temp\ccEujqcQ.s:108    .text.chSysLock:00000000 chSysLock
C:\Users\Luis\AppData\Local\Temp\ccEujqcQ.s:133    .text.chSysUnlock:00000000 $t
C:\Users\Luis\AppData\Local\Temp\ccEujqcQ.s:138    .text.chSysUnlock:00000000 chSysUnlock
C:\Users\Luis\AppData\Local\Temp\ccEujqcQ.s:179    .text.chSysUnlock:00000034 $d
C:\Users\Luis\AppData\Local\Temp\ccEujqcQ.s:1138   .rodata.__func__.5842:00000000 __func__.5842
C:\Users\Luis\AppData\Local\Temp\ccEujqcQ.s:185    .text.chEvtObjectInit:00000000 $t
C:\Users\Luis\AppData\Local\Temp\ccEujqcQ.s:190    .text.chEvtObjectInit:00000000 chEvtObjectInit
C:\Users\Luis\AppData\Local\Temp\ccEujqcQ.s:220    .text.chIQIsEmptyI:00000000 $t
C:\Users\Luis\AppData\Local\Temp\ccEujqcQ.s:225    .text.chIQIsEmptyI:00000000 chIQIsEmptyI
C:\Users\Luis\AppData\Local\Temp\ccEujqcQ.s:261    .text.osalSysLock:00000000 $t
C:\Users\Luis\AppData\Local\Temp\ccEujqcQ.s:266    .text.osalSysLock:00000000 osalSysLock
C:\Users\Luis\AppData\Local\Temp\ccEujqcQ.s:287    .text.osalSysUnlock:00000000 $t
C:\Users\Luis\AppData\Local\Temp\ccEujqcQ.s:292    .text.osalSysUnlock:00000000 osalSysUnlock
C:\Users\Luis\AppData\Local\Temp\ccEujqcQ.s:312    .text.osalOsRescheduleS:00000000 $t
C:\Users\Luis\AppData\Local\Temp\ccEujqcQ.s:317    .text.osalOsRescheduleS:00000000 osalOsRescheduleS
C:\Users\Luis\AppData\Local\Temp\ccEujqcQ.s:337    .text.osalEventObjectInit:00000000 $t
C:\Users\Luis\AppData\Local\Temp\ccEujqcQ.s:342    .text.osalEventObjectInit:00000000 osalEventObjectInit
C:\Users\Luis\AppData\Local\Temp\ccEujqcQ.s:369    .text.osalEventBroadcastFlagsI:00000000 $t
C:\Users\Luis\AppData\Local\Temp\ccEujqcQ.s:374    .text.osalEventBroadcastFlagsI:00000000 osalEventBroadcastFlagsI
C:\Users\Luis\AppData\Local\Temp\ccEujqcQ.s:403    .text.write:00000000 $t
C:\Users\Luis\AppData\Local\Temp\ccEujqcQ.s:408    .text.write:00000000 write
C:\Users\Luis\AppData\Local\Temp\ccEujqcQ.s:445    .text.read:00000000 $t
C:\Users\Luis\AppData\Local\Temp\ccEujqcQ.s:450    .text.read:00000000 read
C:\Users\Luis\AppData\Local\Temp\ccEujqcQ.s:486    .text.put:00000000 $t
C:\Users\Luis\AppData\Local\Temp\ccEujqcQ.s:491    .text.put:00000000 put
C:\Users\Luis\AppData\Local\Temp\ccEujqcQ.s:527    .text.get:00000000 $t
C:\Users\Luis\AppData\Local\Temp\ccEujqcQ.s:532    .text.get:00000000 get
C:\Users\Luis\AppData\Local\Temp\ccEujqcQ.s:564    .text.putt:00000000 $t
C:\Users\Luis\AppData\Local\Temp\ccEujqcQ.s:569    .text.putt:00000000 putt
C:\Users\Luis\AppData\Local\Temp\ccEujqcQ.s:606    .text.gett:00000000 $t
C:\Users\Luis\AppData\Local\Temp\ccEujqcQ.s:611    .text.gett:00000000 gett
C:\Users\Luis\AppData\Local\Temp\ccEujqcQ.s:644    .text.writet:00000000 $t
C:\Users\Luis\AppData\Local\Temp\ccEujqcQ.s:649    .text.writet:00000000 writet
C:\Users\Luis\AppData\Local\Temp\ccEujqcQ.s:686    .text.readt:00000000 $t
C:\Users\Luis\AppData\Local\Temp\ccEujqcQ.s:691    .text.readt:00000000 readt
C:\Users\Luis\AppData\Local\Temp\ccEujqcQ.s:728    .rodata.vmt:00000000 $d
C:\Users\Luis\AppData\Local\Temp\ccEujqcQ.s:731    .rodata.vmt:00000000 vmt
C:\Users\Luis\AppData\Local\Temp\ccEujqcQ.s:741    .text.sdInit:00000000 $t
C:\Users\Luis\AppData\Local\Temp\ccEujqcQ.s:747    .text.sdInit:00000000 sdInit
C:\Users\Luis\AppData\Local\Temp\ccEujqcQ.s:767    .text.sdObjectInit:00000000 $t
C:\Users\Luis\AppData\Local\Temp\ccEujqcQ.s:773    .text.sdObjectInit:00000000 sdObjectInit
C:\Users\Luis\AppData\Local\Temp\ccEujqcQ.s:836    .text.sdObjectInit:00000064 $d
C:\Users\Luis\AppData\Local\Temp\ccEujqcQ.s:841    .text.sdStart:00000000 $t
C:\Users\Luis\AppData\Local\Temp\ccEujqcQ.s:847    .text.sdStart:00000000 sdStart
C:\Users\Luis\AppData\Local\Temp\ccEujqcQ.s:904    .text.sdStart:00000048 $d
C:\Users\Luis\AppData\Local\Temp\ccEujqcQ.s:1132   .rodata.__func__.7954:00000000 __func__.7954
C:\Users\Luis\AppData\Local\Temp\ccEujqcQ.s:909    .text.sdStop:00000000 $t
C:\Users\Luis\AppData\Local\Temp\ccEujqcQ.s:915    .text.sdStop:00000000 sdStop
C:\Users\Luis\AppData\Local\Temp\ccEujqcQ.s:982    .text.sdStop:0000005c $d
C:\Users\Luis\AppData\Local\Temp\ccEujqcQ.s:1144   .rodata.__func__.7958:00000000 __func__.7958
ARM GAS  C:\Users\Luis\AppData\Local\Temp\ccEujqcQ.s 			page 92


C:\Users\Luis\AppData\Local\Temp\ccEujqcQ.s:987    .text.sdIncomingDataI:00000000 $t
C:\Users\Luis\AppData\Local\Temp\ccEujqcQ.s:993    .text.sdIncomingDataI:00000000 sdIncomingDataI
C:\Users\Luis\AppData\Local\Temp\ccEujqcQ.s:1060   .text.sdIncomingDataI:00000060 $d
C:\Users\Luis\AppData\Local\Temp\ccEujqcQ.s:1150   .rodata.__func__.7963:00000000 __func__.7963
C:\Users\Luis\AppData\Local\Temp\ccEujqcQ.s:1065   .text.sdRequestDataI:00000000 $t
C:\Users\Luis\AppData\Local\Temp\ccEujqcQ.s:1071   .text.sdRequestDataI:00000000 sdRequestDataI
C:\Users\Luis\AppData\Local\Temp\ccEujqcQ.s:1124   .text.sdRequestDataI:00000040 $d
C:\Users\Luis\AppData\Local\Temp\ccEujqcQ.s:1156   .rodata.__func__.7968:00000000 __func__.7968
C:\Users\Luis\AppData\Local\Temp\ccEujqcQ.s:1129   .rodata.__func__.7954:00000000 $d
C:\Users\Luis\AppData\Local\Temp\ccEujqcQ.s:1135   .rodata.__func__.5842:00000000 $d
C:\Users\Luis\AppData\Local\Temp\ccEujqcQ.s:1141   .rodata.__func__.7958:00000000 $d
C:\Users\Luis\AppData\Local\Temp\ccEujqcQ.s:1147   .rodata.__func__.7963:00000000 $d
C:\Users\Luis\AppData\Local\Temp\ccEujqcQ.s:1153   .rodata.__func__.7968:00000000 $d
                     .debug_frame:00000010 $d
C:\Users\Luis\AppData\Local\Temp\ccEujqcQ.s:184    .text.chSysUnlock:0000003c $t
C:\Users\Luis\AppData\Local\Temp\ccEujqcQ.s:840    .text.sdObjectInit:00000068 $t
C:\Users\Luis\AppData\Local\Temp\ccEujqcQ.s:908    .text.sdStart:0000004c $t
C:\Users\Luis\AppData\Local\Temp\ccEujqcQ.s:1064   .text.sdIncomingDataI:00000064 $t
C:\Users\Luis\AppData\Local\Temp\ccEujqcQ.s:1128   .text.sdRequestDataI:00000044 $t

UNDEFINED SYMBOLS
_stats_start_measure_crit_thd
_dbg_check_lock
_dbg_check_unlock
_stats_stop_measure_crit_thd
chSysHalt
ch
chDbgCheckClassI
chSchRescheduleS
chEvtBroadcastFlagsI
chOQWriteTimeout
chIQReadTimeout
chOQPutTimeout
chIQGetTimeout
sd_lld_init
chIQObjectInit
chOQObjectInit
sd_lld_start
sd_lld_stop
chOQResetI
chIQResetI
chIQPutI
chOQGetI
