ARM GAS  C:\Users\Luis\AppData\Local\Temp\ccE1imUd.s 			page 1


   1              		.syntax unified
   2              		.cpu cortex-m4
   3              		.fpu softvfp
   4              		.eabi_attribute 20, 1
   5              		.eabi_attribute 21, 1
   6              		.eabi_attribute 23, 3
   7              		.eabi_attribute 24, 1
   8              		.eabi_attribute 25, 1
   9              		.eabi_attribute 26, 1
  10              		.eabi_attribute 30, 6
  11              		.eabi_attribute 34, 1
  12              		.eabi_attribute 18, 4
  13              		.thumb
  14              		.file	"spi.c"
  15              		.text
  16              	.Ltext0:
  17              		.cfi_sections	.debug_frame
  18              		.section	.text.port_lock,"ax",%progbits
  19              		.align	2
  20              		.p2align 4,,15
  21              		.thumb
  22              		.thumb_func
  23              		.type	port_lock, %function
  24              	port_lock:
  25              	.LFB116:
  26              		.file 1 "../../ChibiOS/os/rt/ports/ARMCMx/chcore_v7m.h"
  27              		.loc 1 444 0
  28              		.cfi_startproc
  29              		@ args = 0, pretend = 0, frame = 8
  30              		@ frame_needed = 1, uses_anonymous_args = 0
  31              		@ link register save eliminated.
  32 0000 80B4     		push	{r7}
  33              		.cfi_def_cfa_offset 4
  34              		.cfi_offset 7, -4
  35 0002 83B0     		sub	sp, sp, #12
  36              		.cfi_def_cfa_offset 16
  37 0004 00AF     		add	r7, sp, #0
  38              		.cfi_def_cfa_register 7
  39 0006 2023     		movs	r3, #32
  40 0008 7B60     		str	r3, [r7, #4]
  41              	.LBB6:
  42              	.LBB7:
  43              		.file 2 "../../ChibiOS/os/ext/CMSIS/include/core_cmFunc.h"
  44              		.loc 2 546 0
  45 000a 7B68     		ldr	r3, [r7, #4]
  46              	@ 546 "../../ChibiOS/os/ext/CMSIS/include/core_cmFunc.h" 1
  47 000c 83F31188 		MSR basepri, r3
  48              	@ 0 "" 2
  49              		.thumb
  50              	.LBE7:
  51              	.LBE6:
  52              		.loc 1 451 0
  53 0010 0C37     		adds	r7, r7, #12
  54 0012 BD46     		mov	sp, r7
  55              		@ sp needed
  56 0014 5DF8047B 		ldr	r7, [sp], #4
  57 0018 7047     		bx	lr
ARM GAS  C:\Users\Luis\AppData\Local\Temp\ccE1imUd.s 			page 2


  58              		.cfi_endproc
  59              	.LFE116:
  60              		.size	port_lock, .-port_lock
  61 001a 00BFAFF3 		.section	.text.port_unlock,"ax",%progbits
  61      0080
  62              		.align	2
  63              		.p2align 4,,15
  64              		.thumb
  65              		.thumb_func
  66              		.type	port_unlock, %function
  67              	port_unlock:
  68              	.LFB117:
  69              		.loc 1 458 0
  70              		.cfi_startproc
  71              		@ args = 0, pretend = 0, frame = 8
  72              		@ frame_needed = 1, uses_anonymous_args = 0
  73              		@ link register save eliminated.
  74 0000 80B4     		push	{r7}
  75              		.cfi_def_cfa_offset 4
  76              		.cfi_offset 7, -4
  77 0002 83B0     		sub	sp, sp, #12
  78              		.cfi_def_cfa_offset 16
  79 0004 00AF     		add	r7, sp, #0
  80              		.cfi_def_cfa_register 7
  81 0006 0023     		movs	r3, #0
  82 0008 7B60     		str	r3, [r7, #4]
  83              	.LBB8:
  84              	.LBB9:
  85              		.loc 2 546 0
  86 000a 7B68     		ldr	r3, [r7, #4]
  87              	@ 546 "../../ChibiOS/os/ext/CMSIS/include/core_cmFunc.h" 1
  88 000c 83F31188 		MSR basepri, r3
  89              	@ 0 "" 2
  90              		.thumb
  91              	.LBE9:
  92              	.LBE8:
  93              		.loc 1 465 0
  94 0010 0C37     		adds	r7, r7, #12
  95 0012 BD46     		mov	sp, r7
  96              		@ sp needed
  97 0014 5DF8047B 		ldr	r7, [sp], #4
  98 0018 7047     		bx	lr
  99              		.cfi_endproc
 100              	.LFE117:
 101              		.size	port_unlock, .-port_unlock
 102 001a 00BFAFF3 		.section	.text.chSysLock,"ax",%progbits
 102      0080
 103              		.align	2
 104              		.p2align 4,,15
 105              		.thumb
 106              		.thumb_func
 107              		.type	chSysLock, %function
 108              	chSysLock:
 109              	.LFB156:
 110              		.file 3 "../../ChibiOS/os/rt/include/chsys.h"
 111              		.loc 3 346 0
 112              		.cfi_startproc
ARM GAS  C:\Users\Luis\AppData\Local\Temp\ccE1imUd.s 			page 3


 113              		@ args = 0, pretend = 0, frame = 0
 114              		@ frame_needed = 1, uses_anonymous_args = 0
 115 0000 80B5     		push	{r7, lr}
 116              		.cfi_def_cfa_offset 8
 117              		.cfi_offset 7, -8
 118              		.cfi_offset 14, -4
 119 0002 00AF     		add	r7, sp, #0
 120              		.cfi_def_cfa_register 7
 121              		.loc 3 348 0
 122 0004 FFF7FEFF 		bl	port_lock
 123              		.loc 3 349 0
 124 0008 FFF7FEFF 		bl	_stats_start_measure_crit_thd
 125              		.loc 3 350 0
 126 000c FFF7FEFF 		bl	_dbg_check_lock
 127              		.loc 3 351 0
 128 0010 80BD     		pop	{r7, pc}
 129              		.cfi_endproc
 130              	.LFE156:
 131              		.size	chSysLock, .-chSysLock
 132 0012 00BFAFF3 		.section	.text.chSysUnlock,"ax",%progbits
 132      0080AFF3 
 132      0080AFF3 
 132      0080
 133              		.align	2
 134              		.p2align 4,,15
 135              		.thumb
 136              		.thumb_func
 137              		.type	chSysUnlock, %function
 138              	chSysUnlock:
 139              	.LFB157:
 140              		.loc 3 358 0
 141              		.cfi_startproc
 142              		@ args = 0, pretend = 0, frame = 0
 143              		@ frame_needed = 1, uses_anonymous_args = 0
 144 0000 80B5     		push	{r7, lr}
 145              		.cfi_def_cfa_offset 8
 146              		.cfi_offset 7, -8
 147              		.cfi_offset 14, -4
 148 0002 00AF     		add	r7, sp, #0
 149              		.cfi_def_cfa_register 7
 150              		.loc 3 360 0
 151 0004 FFF7FEFF 		bl	_dbg_check_unlock
 152              		.loc 3 361 0
 153 0008 FFF7FEFF 		bl	_stats_stop_measure_crit_thd
 154              		.loc 3 367 0
 155 000c 094B     		ldr	r3, .L6
 156 000e 1A68     		ldr	r2, [r3]
 157 0010 084B     		ldr	r3, .L6
 158 0012 9A42     		cmp	r2, r3
 159 0014 0AD0     		beq	.L5
 160              		.loc 3 367 0 is_stmt 0 discriminator 1
 161 0016 074B     		ldr	r3, .L6
 162 0018 9B69     		ldr	r3, [r3, #24]
 163 001a 9A68     		ldr	r2, [r3, #8]
 164 001c 054B     		ldr	r3, .L6
 165 001e 1B68     		ldr	r3, [r3]
 166 0020 9B68     		ldr	r3, [r3, #8]
ARM GAS  C:\Users\Luis\AppData\Local\Temp\ccE1imUd.s 			page 4


 167 0022 9A42     		cmp	r2, r3
 168 0024 02D2     		bcs	.L5
 169 0026 0448     		ldr	r0, .L6+4
 170 0028 FFF7FEFF 		bl	chSysHalt
 171              	.L5:
 172              		.loc 3 371 0 is_stmt 1
 173 002c FFF7FEFF 		bl	port_unlock
 174              		.loc 3 372 0
 175 0030 80BD     		pop	{r7, pc}
 176              	.L7:
 177 0032 00BF     		.align	2
 178              	.L6:
 179 0034 00000000 		.word	ch
 180 0038 00000000 		.word	__func__.5842
 181              		.cfi_endproc
 182              	.LFE157:
 183              		.size	chSysUnlock, .-chSysUnlock
 184 003c AFF30080 		.section	.text.osalSysLock,"ax",%progbits
 185              		.align	2
 186              		.p2align 4,,15
 187              		.thumb
 188              		.thumb_func
 189              		.type	osalSysLock, %function
 190              	osalSysLock:
 191              	.LFB233:
 192              		.file 4 "../../ChibiOS/os/hal/osal/rt/osal.h"
 193              		.loc 4 491 0
 194              		.cfi_startproc
 195              		@ args = 0, pretend = 0, frame = 0
 196              		@ frame_needed = 1, uses_anonymous_args = 0
 197 0000 80B5     		push	{r7, lr}
 198              		.cfi_def_cfa_offset 8
 199              		.cfi_offset 7, -8
 200              		.cfi_offset 14, -4
 201 0002 00AF     		add	r7, sp, #0
 202              		.cfi_def_cfa_register 7
 203              		.loc 4 493 0
 204 0004 FFF7FEFF 		bl	chSysLock
 205              		.loc 4 494 0
 206 0008 80BD     		pop	{r7, pc}
 207              		.cfi_endproc
 208              	.LFE233:
 209              		.size	osalSysLock, .-osalSysLock
 210 000a 00BFAFF3 		.section	.text.osalSysUnlock,"ax",%progbits
 210      0080
 211              		.align	2
 212              		.p2align 4,,15
 213              		.thumb
 214              		.thumb_func
 215              		.type	osalSysUnlock, %function
 216              	osalSysUnlock:
 217              	.LFB234:
 218              		.loc 4 502 0
 219              		.cfi_startproc
 220              		@ args = 0, pretend = 0, frame = 0
 221              		@ frame_needed = 1, uses_anonymous_args = 0
 222 0000 80B5     		push	{r7, lr}
ARM GAS  C:\Users\Luis\AppData\Local\Temp\ccE1imUd.s 			page 5


 223              		.cfi_def_cfa_offset 8
 224              		.cfi_offset 7, -8
 225              		.cfi_offset 14, -4
 226 0002 00AF     		add	r7, sp, #0
 227              		.cfi_def_cfa_register 7
 228              		.loc 4 504 0
 229 0004 FFF7FEFF 		bl	chSysUnlock
 230              		.loc 4 505 0
 231 0008 80BD     		pop	{r7, pc}
 232              		.cfi_endproc
 233              	.LFE234:
 234              		.size	osalSysUnlock, .-osalSysUnlock
 235 000a 00BFAFF3 		.section	.text.osalThreadSuspendS,"ax",%progbits
 235      0080
 236              		.align	2
 237              		.p2align 4,,15
 238              		.thumb
 239              		.thumb_func
 240              		.type	osalThreadSuspendS, %function
 241              	osalThreadSuspendS:
 242              	.LFB246:
 243              		.loc 4 686 0
 244              		.cfi_startproc
 245              		@ args = 0, pretend = 0, frame = 8
 246              		@ frame_needed = 1, uses_anonymous_args = 0
 247 0000 80B5     		push	{r7, lr}
 248              		.cfi_def_cfa_offset 8
 249              		.cfi_offset 7, -8
 250              		.cfi_offset 14, -4
 251 0002 82B0     		sub	sp, sp, #8
 252              		.cfi_def_cfa_offset 16
 253 0004 00AF     		add	r7, sp, #0
 254              		.cfi_def_cfa_register 7
 255 0006 7860     		str	r0, [r7, #4]
 256              		.loc 4 688 0
 257 0008 7868     		ldr	r0, [r7, #4]
 258 000a FFF7FEFF 		bl	chThdSuspendS
 259 000e 0346     		mov	r3, r0
 260              		.loc 4 689 0
 261 0010 1846     		mov	r0, r3
 262 0012 0837     		adds	r7, r7, #8
 263 0014 BD46     		mov	sp, r7
 264              		@ sp needed
 265 0016 80BD     		pop	{r7, pc}
 266              		.cfi_endproc
 267              	.LFE246:
 268              		.size	osalThreadSuspendS, .-osalThreadSuspendS
 269 0018 AFF30080 		.section	.text.osalMutexObjectInit,"ax",%progbits
 269      AFF30080 
 270              		.align	2
 271              		.p2align 4,,15
 272              		.thumb
 273              		.thumb_func
 274              		.type	osalMutexObjectInit, %function
 275              	osalMutexObjectInit:
 276              	.LFB257:
 277              		.loc 4 884 0
ARM GAS  C:\Users\Luis\AppData\Local\Temp\ccE1imUd.s 			page 6


 278              		.cfi_startproc
 279              		@ args = 0, pretend = 0, frame = 8
 280              		@ frame_needed = 1, uses_anonymous_args = 0
 281 0000 80B5     		push	{r7, lr}
 282              		.cfi_def_cfa_offset 8
 283              		.cfi_offset 7, -8
 284              		.cfi_offset 14, -4
 285 0002 82B0     		sub	sp, sp, #8
 286              		.cfi_def_cfa_offset 16
 287 0004 00AF     		add	r7, sp, #0
 288              		.cfi_def_cfa_register 7
 289 0006 7860     		str	r0, [r7, #4]
 290              		.loc 4 887 0
 291 0008 7868     		ldr	r0, [r7, #4]
 292 000a FFF7FEFF 		bl	chMtxObjectInit
 293              		.loc 4 893 0
 294 000e 0837     		adds	r7, r7, #8
 295 0010 BD46     		mov	sp, r7
 296              		@ sp needed
 297 0012 80BD     		pop	{r7, pc}
 298              		.cfi_endproc
 299              	.LFE257:
 300              		.size	osalMutexObjectInit, .-osalMutexObjectInit
 301 0014 AFF30080 		.section	.text.osalMutexLock,"ax",%progbits
 301      AFF30080 
 301      AFF30080 
 302              		.align	2
 303              		.p2align 4,,15
 304              		.thumb
 305              		.thumb_func
 306              		.type	osalMutexLock, %function
 307              	osalMutexLock:
 308              	.LFB258:
 309              		.loc 4 904 0
 310              		.cfi_startproc
 311              		@ args = 0, pretend = 0, frame = 8
 312              		@ frame_needed = 1, uses_anonymous_args = 0
 313 0000 80B5     		push	{r7, lr}
 314              		.cfi_def_cfa_offset 8
 315              		.cfi_offset 7, -8
 316              		.cfi_offset 14, -4
 317 0002 82B0     		sub	sp, sp, #8
 318              		.cfi_def_cfa_offset 16
 319 0004 00AF     		add	r7, sp, #0
 320              		.cfi_def_cfa_register 7
 321 0006 7860     		str	r0, [r7, #4]
 322              		.loc 4 907 0
 323 0008 7868     		ldr	r0, [r7, #4]
 324 000a FFF7FEFF 		bl	chMtxLock
 325              		.loc 4 913 0
 326 000e 0837     		adds	r7, r7, #8
 327 0010 BD46     		mov	sp, r7
 328              		@ sp needed
 329 0012 80BD     		pop	{r7, pc}
 330              		.cfi_endproc
 331              	.LFE258:
 332              		.size	osalMutexLock, .-osalMutexLock
ARM GAS  C:\Users\Luis\AppData\Local\Temp\ccE1imUd.s 			page 7


 333 0014 AFF30080 		.section	.text.osalMutexUnlock,"ax",%progbits
 333      AFF30080 
 333      AFF30080 
 334              		.align	2
 335              		.p2align 4,,15
 336              		.thumb
 337              		.thumb_func
 338              		.type	osalMutexUnlock, %function
 339              	osalMutexUnlock:
 340              	.LFB259:
 341              		.loc 4 928 0
 342              		.cfi_startproc
 343              		@ args = 0, pretend = 0, frame = 8
 344              		@ frame_needed = 1, uses_anonymous_args = 0
 345 0000 80B5     		push	{r7, lr}
 346              		.cfi_def_cfa_offset 8
 347              		.cfi_offset 7, -8
 348              		.cfi_offset 14, -4
 349 0002 82B0     		sub	sp, sp, #8
 350              		.cfi_def_cfa_offset 16
 351 0004 00AF     		add	r7, sp, #0
 352              		.cfi_def_cfa_register 7
 353 0006 7860     		str	r0, [r7, #4]
 354              		.loc 4 931 0
 355 0008 7868     		ldr	r0, [r7, #4]
 356 000a FFF7FEFF 		bl	chMtxUnlock
 357              		.loc 4 937 0
 358 000e 0837     		adds	r7, r7, #8
 359 0010 BD46     		mov	sp, r7
 360              		@ sp needed
 361 0012 80BD     		pop	{r7, pc}
 362              		.cfi_endproc
 363              	.LFE259:
 364              		.size	osalMutexUnlock, .-osalMutexUnlock
 365 0014 AFF30080 		.section	.text.spiInit,"ax",%progbits
 365      AFF30080 
 365      AFF30080 
 366              		.align	2
 367              		.p2align 4,,15
 368              		.global	spiInit
 369              		.thumb
 370              		.thumb_func
 371              		.type	spiInit, %function
 372              	spiInit:
 373              	.LFB260:
 374              		.file 5 "../../ChibiOS/os/hal/src/spi.c"
 375              		.loc 5 56 0
 376              		.cfi_startproc
 377              		@ args = 0, pretend = 0, frame = 0
 378              		@ frame_needed = 1, uses_anonymous_args = 0
 379 0000 80B5     		push	{r7, lr}
 380              		.cfi_def_cfa_offset 8
 381              		.cfi_offset 7, -8
 382              		.cfi_offset 14, -4
 383 0002 00AF     		add	r7, sp, #0
 384              		.cfi_def_cfa_register 7
 385              		.loc 5 58 0
ARM GAS  C:\Users\Luis\AppData\Local\Temp\ccE1imUd.s 			page 8


 386 0004 FFF7FEFF 		bl	spi_lld_init
 387              		.loc 5 59 0
 388 0008 80BD     		pop	{r7, pc}
 389              		.cfi_endproc
 390              	.LFE260:
 391              		.size	spiInit, .-spiInit
 392 000a 00BFAFF3 		.section	.text.spiObjectInit,"ax",%progbits
 392      0080
 393              		.align	2
 394              		.p2align 4,,15
 395              		.global	spiObjectInit
 396              		.thumb
 397              		.thumb_func
 398              		.type	spiObjectInit, %function
 399              	spiObjectInit:
 400              	.LFB261:
 401              		.loc 5 68 0
 402              		.cfi_startproc
 403              		@ args = 0, pretend = 0, frame = 8
 404              		@ frame_needed = 1, uses_anonymous_args = 0
 405 0000 80B5     		push	{r7, lr}
 406              		.cfi_def_cfa_offset 8
 407              		.cfi_offset 7, -8
 408              		.cfi_offset 14, -4
 409 0002 82B0     		sub	sp, sp, #8
 410              		.cfi_def_cfa_offset 16
 411 0004 00AF     		add	r7, sp, #0
 412              		.cfi_def_cfa_register 7
 413 0006 7860     		str	r0, [r7, #4]
 414              		.loc 5 70 0
 415 0008 7B68     		ldr	r3, [r7, #4]
 416 000a 0122     		movs	r2, #1
 417 000c 1A70     		strb	r2, [r3]
 418              		.loc 5 71 0
 419 000e 7B68     		ldr	r3, [r7, #4]
 420 0010 0022     		movs	r2, #0
 421 0012 5A60     		str	r2, [r3, #4]
 422              		.loc 5 73 0
 423 0014 7B68     		ldr	r3, [r7, #4]
 424 0016 0022     		movs	r2, #0
 425 0018 9A60     		str	r2, [r3, #8]
 426              		.loc 5 76 0
 427 001a 7B68     		ldr	r3, [r7, #4]
 428 001c 0C33     		adds	r3, r3, #12
 429 001e 1846     		mov	r0, r3
 430 0020 FFF7FEFF 		bl	osalMutexObjectInit
 431              		.loc 5 81 0
 432 0024 0837     		adds	r7, r7, #8
 433 0026 BD46     		mov	sp, r7
 434              		@ sp needed
 435 0028 80BD     		pop	{r7, pc}
 436              		.cfi_endproc
 437              	.LFE261:
 438              		.size	spiObjectInit, .-spiObjectInit
 439 002a 00BFAFF3 		.section	.text.spiStart,"ax",%progbits
 439      0080
 440              		.align	2
ARM GAS  C:\Users\Luis\AppData\Local\Temp\ccE1imUd.s 			page 9


 441              		.p2align 4,,15
 442              		.global	spiStart
 443              		.thumb
 444              		.thumb_func
 445              		.type	spiStart, %function
 446              	spiStart:
 447              	.LFB262:
 448              		.loc 5 91 0
 449              		.cfi_startproc
 450              		@ args = 0, pretend = 0, frame = 8
 451              		@ frame_needed = 1, uses_anonymous_args = 0
 452 0000 80B5     		push	{r7, lr}
 453              		.cfi_def_cfa_offset 8
 454              		.cfi_offset 7, -8
 455              		.cfi_offset 14, -4
 456 0002 82B0     		sub	sp, sp, #8
 457              		.cfi_def_cfa_offset 16
 458 0004 00AF     		add	r7, sp, #0
 459              		.cfi_def_cfa_register 7
 460 0006 7860     		str	r0, [r7, #4]
 461 0008 3960     		str	r1, [r7]
 462              		.loc 5 93 0
 463 000a 7B68     		ldr	r3, [r7, #4]
 464 000c 002B     		cmp	r3, #0
 465 000e 02D0     		beq	.L18
 466              		.loc 5 93 0 is_stmt 0 discriminator 2
 467 0010 3B68     		ldr	r3, [r7]
 468 0012 002B     		cmp	r3, #0
 469 0014 02D1     		bne	.L19
 470              	.L18:
 471              		.loc 5 93 0 discriminator 1
 472 0016 0F48     		ldr	r0, .L21
 473 0018 FFF7FEFF 		bl	chSysHalt
 474              	.L19:
 475              		.loc 5 95 0 is_stmt 1
 476 001c FFF7FEFF 		bl	osalSysLock
 477              		.loc 5 96 0
 478 0020 7B68     		ldr	r3, [r7, #4]
 479 0022 1B78     		ldrb	r3, [r3]	@ zero_extendqisi2
 480 0024 012B     		cmp	r3, #1
 481 0026 06D0     		beq	.L20
 482              		.loc 5 96 0 is_stmt 0 discriminator 1
 483 0028 7B68     		ldr	r3, [r7, #4]
 484 002a 1B78     		ldrb	r3, [r3]	@ zero_extendqisi2
 485 002c 022B     		cmp	r3, #2
 486 002e 02D0     		beq	.L20
 487 0030 0848     		ldr	r0, .L21
 488 0032 FFF7FEFF 		bl	chSysHalt
 489              	.L20:
 490              		.loc 5 98 0 is_stmt 1
 491 0036 7B68     		ldr	r3, [r7, #4]
 492 0038 3A68     		ldr	r2, [r7]
 493 003a 5A60     		str	r2, [r3, #4]
 494              		.loc 5 99 0
 495 003c 7868     		ldr	r0, [r7, #4]
 496 003e FFF7FEFF 		bl	spi_lld_start
 497              		.loc 5 100 0
ARM GAS  C:\Users\Luis\AppData\Local\Temp\ccE1imUd.s 			page 10


 498 0042 7B68     		ldr	r3, [r7, #4]
 499 0044 0222     		movs	r2, #2
 500 0046 1A70     		strb	r2, [r3]
 501              		.loc 5 101 0
 502 0048 FFF7FEFF 		bl	osalSysUnlock
 503              		.loc 5 102 0
 504 004c 0837     		adds	r7, r7, #8
 505 004e BD46     		mov	sp, r7
 506              		@ sp needed
 507 0050 80BD     		pop	{r7, pc}
 508              	.L22:
 509 0052 00BF     		.align	2
 510              	.L21:
 511 0054 00000000 		.word	__func__.7913
 512              		.cfi_endproc
 513              	.LFE262:
 514              		.size	spiStart, .-spiStart
 515 0058 AFF30080 		.section	.text.spiStop,"ax",%progbits
 515      AFF30080 
 516              		.align	2
 517              		.p2align 4,,15
 518              		.global	spiStop
 519              		.thumb
 520              		.thumb_func
 521              		.type	spiStop, %function
 522              	spiStop:
 523              	.LFB263:
 524              		.loc 5 113 0
 525              		.cfi_startproc
 526              		@ args = 0, pretend = 0, frame = 8
 527              		@ frame_needed = 1, uses_anonymous_args = 0
 528 0000 80B5     		push	{r7, lr}
 529              		.cfi_def_cfa_offset 8
 530              		.cfi_offset 7, -8
 531              		.cfi_offset 14, -4
 532 0002 82B0     		sub	sp, sp, #8
 533              		.cfi_def_cfa_offset 16
 534 0004 00AF     		add	r7, sp, #0
 535              		.cfi_def_cfa_register 7
 536 0006 7860     		str	r0, [r7, #4]
 537              		.loc 5 115 0
 538 0008 7B68     		ldr	r3, [r7, #4]
 539 000a 002B     		cmp	r3, #0
 540 000c 02D1     		bne	.L24
 541              		.loc 5 115 0 is_stmt 0 discriminator 1
 542 000e 0D48     		ldr	r0, .L26
 543 0010 FFF7FEFF 		bl	chSysHalt
 544              	.L24:
 545              		.loc 5 117 0 is_stmt 1
 546 0014 FFF7FEFF 		bl	osalSysLock
 547              		.loc 5 118 0
 548 0018 7B68     		ldr	r3, [r7, #4]
 549 001a 1B78     		ldrb	r3, [r3]	@ zero_extendqisi2
 550 001c 012B     		cmp	r3, #1
 551 001e 06D0     		beq	.L25
 552              		.loc 5 118 0 is_stmt 0 discriminator 1
 553 0020 7B68     		ldr	r3, [r7, #4]
ARM GAS  C:\Users\Luis\AppData\Local\Temp\ccE1imUd.s 			page 11


 554 0022 1B78     		ldrb	r3, [r3]	@ zero_extendqisi2
 555 0024 022B     		cmp	r3, #2
 556 0026 02D0     		beq	.L25
 557 0028 0648     		ldr	r0, .L26
 558 002a FFF7FEFF 		bl	chSysHalt
 559              	.L25:
 560              		.loc 5 120 0 is_stmt 1
 561 002e 7868     		ldr	r0, [r7, #4]
 562 0030 FFF7FEFF 		bl	spi_lld_stop
 563              		.loc 5 121 0
 564 0034 7B68     		ldr	r3, [r7, #4]
 565 0036 0122     		movs	r2, #1
 566 0038 1A70     		strb	r2, [r3]
 567              		.loc 5 122 0
 568 003a FFF7FEFF 		bl	osalSysUnlock
 569              		.loc 5 123 0
 570 003e 0837     		adds	r7, r7, #8
 571 0040 BD46     		mov	sp, r7
 572              		@ sp needed
 573 0042 80BD     		pop	{r7, pc}
 574              	.L27:
 575              		.align	2
 576              	.L26:
 577 0044 00000000 		.word	__func__.7917
 578              		.cfi_endproc
 579              	.LFE263:
 580              		.size	spiStop, .-spiStop
 581 0048 AFF30080 		.section	.text.spiSelect,"ax",%progbits
 581      AFF30080 
 582              		.align	2
 583              		.p2align 4,,15
 584              		.global	spiSelect
 585              		.thumb
 586              		.thumb_func
 587              		.type	spiSelect, %function
 588              	spiSelect:
 589              	.LFB264:
 590              		.loc 5 132 0
 591              		.cfi_startproc
 592              		@ args = 0, pretend = 0, frame = 8
 593              		@ frame_needed = 1, uses_anonymous_args = 0
 594 0000 80B5     		push	{r7, lr}
 595              		.cfi_def_cfa_offset 8
 596              		.cfi_offset 7, -8
 597              		.cfi_offset 14, -4
 598 0002 82B0     		sub	sp, sp, #8
 599              		.cfi_def_cfa_offset 16
 600 0004 00AF     		add	r7, sp, #0
 601              		.cfi_def_cfa_register 7
 602 0006 7860     		str	r0, [r7, #4]
 603              		.loc 5 134 0
 604 0008 7B68     		ldr	r3, [r7, #4]
 605 000a 002B     		cmp	r3, #0
 606 000c 02D1     		bne	.L29
 607              		.loc 5 134 0 is_stmt 0 discriminator 1
 608 000e 0A48     		ldr	r0, .L31
 609 0010 FFF7FEFF 		bl	chSysHalt
ARM GAS  C:\Users\Luis\AppData\Local\Temp\ccE1imUd.s 			page 12


 610              	.L29:
 611              		.loc 5 136 0 is_stmt 1
 612 0014 FFF7FEFF 		bl	osalSysLock
 613              		.loc 5 137 0
 614 0018 7B68     		ldr	r3, [r7, #4]
 615 001a 1B78     		ldrb	r3, [r3]	@ zero_extendqisi2
 616 001c 022B     		cmp	r3, #2
 617 001e 02D0     		beq	.L30
 618              		.loc 5 137 0 is_stmt 0 discriminator 1
 619 0020 0548     		ldr	r0, .L31
 620 0022 FFF7FEFF 		bl	chSysHalt
 621              	.L30:
 622              		.loc 5 138 0 is_stmt 1
 623 0026 7868     		ldr	r0, [r7, #4]
 624 0028 FFF7FEFF 		bl	spi_lld_select
 625              		.loc 5 139 0
 626 002c FFF7FEFF 		bl	osalSysUnlock
 627              		.loc 5 140 0
 628 0030 0837     		adds	r7, r7, #8
 629 0032 BD46     		mov	sp, r7
 630              		@ sp needed
 631 0034 80BD     		pop	{r7, pc}
 632              	.L32:
 633 0036 00BF     		.align	2
 634              	.L31:
 635 0038 00000000 		.word	__func__.7921
 636              		.cfi_endproc
 637              	.LFE264:
 638              		.size	spiSelect, .-spiSelect
 639 003c AFF30080 		.section	.text.spiUnselect,"ax",%progbits
 640              		.align	2
 641              		.p2align 4,,15
 642              		.global	spiUnselect
 643              		.thumb
 644              		.thumb_func
 645              		.type	spiUnselect, %function
 646              	spiUnselect:
 647              	.LFB265:
 648              		.loc 5 150 0
 649              		.cfi_startproc
 650              		@ args = 0, pretend = 0, frame = 8
 651              		@ frame_needed = 1, uses_anonymous_args = 0
 652 0000 80B5     		push	{r7, lr}
 653              		.cfi_def_cfa_offset 8
 654              		.cfi_offset 7, -8
 655              		.cfi_offset 14, -4
 656 0002 82B0     		sub	sp, sp, #8
 657              		.cfi_def_cfa_offset 16
 658 0004 00AF     		add	r7, sp, #0
 659              		.cfi_def_cfa_register 7
 660 0006 7860     		str	r0, [r7, #4]
 661              		.loc 5 152 0
 662 0008 7B68     		ldr	r3, [r7, #4]
 663 000a 002B     		cmp	r3, #0
 664 000c 02D1     		bne	.L34
 665              		.loc 5 152 0 is_stmt 0 discriminator 1
 666 000e 0A48     		ldr	r0, .L36
ARM GAS  C:\Users\Luis\AppData\Local\Temp\ccE1imUd.s 			page 13


 667 0010 FFF7FEFF 		bl	chSysHalt
 668              	.L34:
 669              		.loc 5 154 0 is_stmt 1
 670 0014 FFF7FEFF 		bl	osalSysLock
 671              		.loc 5 155 0
 672 0018 7B68     		ldr	r3, [r7, #4]
 673 001a 1B78     		ldrb	r3, [r3]	@ zero_extendqisi2
 674 001c 022B     		cmp	r3, #2
 675 001e 02D0     		beq	.L35
 676              		.loc 5 155 0 is_stmt 0 discriminator 1
 677 0020 0548     		ldr	r0, .L36
 678 0022 FFF7FEFF 		bl	chSysHalt
 679              	.L35:
 680              		.loc 5 156 0 is_stmt 1
 681 0026 7868     		ldr	r0, [r7, #4]
 682 0028 FFF7FEFF 		bl	spi_lld_unselect
 683              		.loc 5 157 0
 684 002c FFF7FEFF 		bl	osalSysUnlock
 685              		.loc 5 158 0
 686 0030 0837     		adds	r7, r7, #8
 687 0032 BD46     		mov	sp, r7
 688              		@ sp needed
 689 0034 80BD     		pop	{r7, pc}
 690              	.L37:
 691 0036 00BF     		.align	2
 692              	.L36:
 693 0038 00000000 		.word	__func__.7925
 694              		.cfi_endproc
 695              	.LFE265:
 696              		.size	spiUnselect, .-spiUnselect
 697 003c AFF30080 		.section	.text.spiStartIgnore,"ax",%progbits
 698              		.align	2
 699              		.p2align 4,,15
 700              		.global	spiStartIgnore
 701              		.thumb
 702              		.thumb_func
 703              		.type	spiStartIgnore, %function
 704              	spiStartIgnore:
 705              	.LFB266:
 706              		.loc 5 173 0
 707              		.cfi_startproc
 708              		@ args = 0, pretend = 0, frame = 8
 709              		@ frame_needed = 1, uses_anonymous_args = 0
 710 0000 80B5     		push	{r7, lr}
 711              		.cfi_def_cfa_offset 8
 712              		.cfi_offset 7, -8
 713              		.cfi_offset 14, -4
 714 0002 82B0     		sub	sp, sp, #8
 715              		.cfi_def_cfa_offset 16
 716 0004 00AF     		add	r7, sp, #0
 717              		.cfi_def_cfa_register 7
 718 0006 7860     		str	r0, [r7, #4]
 719 0008 3960     		str	r1, [r7]
 720              		.loc 5 175 0
 721 000a 7B68     		ldr	r3, [r7, #4]
 722 000c 002B     		cmp	r3, #0
 723 000e 02D0     		beq	.L39
ARM GAS  C:\Users\Luis\AppData\Local\Temp\ccE1imUd.s 			page 14


 724              		.loc 5 175 0 is_stmt 0 discriminator 2
 725 0010 3B68     		ldr	r3, [r7]
 726 0012 002B     		cmp	r3, #0
 727 0014 02D1     		bne	.L40
 728              	.L39:
 729              		.loc 5 175 0 discriminator 1
 730 0016 0C48     		ldr	r0, .L42
 731 0018 FFF7FEFF 		bl	chSysHalt
 732              	.L40:
 733              		.loc 5 177 0 is_stmt 1
 734 001c FFF7FEFF 		bl	osalSysLock
 735              		.loc 5 178 0
 736 0020 7B68     		ldr	r3, [r7, #4]
 737 0022 1B78     		ldrb	r3, [r3]	@ zero_extendqisi2
 738 0024 022B     		cmp	r3, #2
 739 0026 02D0     		beq	.L41
 740              		.loc 5 178 0 is_stmt 0 discriminator 1
 741 0028 0748     		ldr	r0, .L42
 742 002a FFF7FEFF 		bl	chSysHalt
 743              	.L41:
 744              		.loc 5 179 0 is_stmt 1
 745 002e 7B68     		ldr	r3, [r7, #4]
 746 0030 0322     		movs	r2, #3
 747 0032 1A70     		strb	r2, [r3]
 748 0034 7868     		ldr	r0, [r7, #4]
 749 0036 3968     		ldr	r1, [r7]
 750 0038 FFF7FEFF 		bl	spi_lld_ignore
 751              		.loc 5 180 0
 752 003c FFF7FEFF 		bl	osalSysUnlock
 753              		.loc 5 181 0
 754 0040 0837     		adds	r7, r7, #8
 755 0042 BD46     		mov	sp, r7
 756              		@ sp needed
 757 0044 80BD     		pop	{r7, pc}
 758              	.L43:
 759 0046 00BF     		.align	2
 760              	.L42:
 761 0048 00000000 		.word	__func__.7930
 762              		.cfi_endproc
 763              	.LFE266:
 764              		.size	spiStartIgnore, .-spiStartIgnore
 765 004c AFF30080 		.section	.text.spiStartExchange,"ax",%progbits
 766              		.align	2
 767              		.p2align 4,,15
 768              		.global	spiStartExchange
 769              		.thumb
 770              		.thumb_func
 771              		.type	spiStartExchange, %function
 772              	spiStartExchange:
 773              	.LFB267:
 774              		.loc 5 201 0
 775              		.cfi_startproc
 776              		@ args = 0, pretend = 0, frame = 16
 777              		@ frame_needed = 1, uses_anonymous_args = 0
 778 0000 80B5     		push	{r7, lr}
 779              		.cfi_def_cfa_offset 8
 780              		.cfi_offset 7, -8
ARM GAS  C:\Users\Luis\AppData\Local\Temp\ccE1imUd.s 			page 15


 781              		.cfi_offset 14, -4
 782 0002 84B0     		sub	sp, sp, #16
 783              		.cfi_def_cfa_offset 24
 784 0004 00AF     		add	r7, sp, #0
 785              		.cfi_def_cfa_register 7
 786 0006 F860     		str	r0, [r7, #12]
 787 0008 B960     		str	r1, [r7, #8]
 788 000a 7A60     		str	r2, [r7, #4]
 789 000c 3B60     		str	r3, [r7]
 790              		.loc 5 203 0
 791 000e FB68     		ldr	r3, [r7, #12]
 792 0010 002B     		cmp	r3, #0
 793 0012 08D0     		beq	.L45
 794              		.loc 5 203 0 is_stmt 0 discriminator 2
 795 0014 BB68     		ldr	r3, [r7, #8]
 796 0016 002B     		cmp	r3, #0
 797 0018 05D0     		beq	.L45
 798              		.loc 5 203 0 discriminator 1
 799 001a 3B68     		ldr	r3, [r7]
 800 001c 002B     		cmp	r3, #0
 801 001e 02D0     		beq	.L45
 802 0020 7B68     		ldr	r3, [r7, #4]
 803 0022 002B     		cmp	r3, #0
 804 0024 02D1     		bne	.L46
 805              	.L45:
 806 0026 0D48     		ldr	r0, .L48
 807 0028 FFF7FEFF 		bl	chSysHalt
 808              	.L46:
 809              		.loc 5 206 0 is_stmt 1
 810 002c FFF7FEFF 		bl	osalSysLock
 811              		.loc 5 207 0
 812 0030 FB68     		ldr	r3, [r7, #12]
 813 0032 1B78     		ldrb	r3, [r3]	@ zero_extendqisi2
 814 0034 022B     		cmp	r3, #2
 815 0036 02D0     		beq	.L47
 816              		.loc 5 207 0 is_stmt 0 discriminator 1
 817 0038 0848     		ldr	r0, .L48
 818 003a FFF7FEFF 		bl	chSysHalt
 819              	.L47:
 820              		.loc 5 208 0 is_stmt 1
 821 003e FB68     		ldr	r3, [r7, #12]
 822 0040 0322     		movs	r2, #3
 823 0042 1A70     		strb	r2, [r3]
 824 0044 F868     		ldr	r0, [r7, #12]
 825 0046 B968     		ldr	r1, [r7, #8]
 826 0048 7A68     		ldr	r2, [r7, #4]
 827 004a 3B68     		ldr	r3, [r7]
 828 004c FFF7FEFF 		bl	spi_lld_exchange
 829              		.loc 5 209 0
 830 0050 FFF7FEFF 		bl	osalSysUnlock
 831              		.loc 5 210 0
 832 0054 1037     		adds	r7, r7, #16
 833 0056 BD46     		mov	sp, r7
 834              		@ sp needed
 835 0058 80BD     		pop	{r7, pc}
 836              	.L49:
 837 005a 00BF     		.align	2
ARM GAS  C:\Users\Luis\AppData\Local\Temp\ccE1imUd.s 			page 16


 838              	.L48:
 839 005c 00000000 		.word	__func__.7937
 840              		.cfi_endproc
 841              	.LFE267:
 842              		.size	spiStartExchange, .-spiStartExchange
 843              		.section	.text.spiStartSend,"ax",%progbits
 844              		.align	2
 845              		.p2align 4,,15
 846              		.global	spiStartSend
 847              		.thumb
 848              		.thumb_func
 849              		.type	spiStartSend, %function
 850              	spiStartSend:
 851              	.LFB268:
 852              		.loc 5 227 0
 853              		.cfi_startproc
 854              		@ args = 0, pretend = 0, frame = 16
 855              		@ frame_needed = 1, uses_anonymous_args = 0
 856 0000 80B5     		push	{r7, lr}
 857              		.cfi_def_cfa_offset 8
 858              		.cfi_offset 7, -8
 859              		.cfi_offset 14, -4
 860 0002 84B0     		sub	sp, sp, #16
 861              		.cfi_def_cfa_offset 24
 862 0004 00AF     		add	r7, sp, #0
 863              		.cfi_def_cfa_register 7
 864 0006 F860     		str	r0, [r7, #12]
 865 0008 B960     		str	r1, [r7, #8]
 866 000a 7A60     		str	r2, [r7, #4]
 867              		.loc 5 229 0
 868 000c FB68     		ldr	r3, [r7, #12]
 869 000e 002B     		cmp	r3, #0
 870 0010 05D0     		beq	.L51
 871              		.loc 5 229 0 is_stmt 0 discriminator 2
 872 0012 BB68     		ldr	r3, [r7, #8]
 873 0014 002B     		cmp	r3, #0
 874 0016 02D0     		beq	.L51
 875              		.loc 5 229 0 discriminator 1
 876 0018 7B68     		ldr	r3, [r7, #4]
 877 001a 002B     		cmp	r3, #0
 878 001c 02D1     		bne	.L52
 879              	.L51:
 880 001e 0C48     		ldr	r0, .L54
 881 0020 FFF7FEFF 		bl	chSysHalt
 882              	.L52:
 883              		.loc 5 231 0 is_stmt 1
 884 0024 FFF7FEFF 		bl	osalSysLock
 885              		.loc 5 232 0
 886 0028 FB68     		ldr	r3, [r7, #12]
 887 002a 1B78     		ldrb	r3, [r3]	@ zero_extendqisi2
 888 002c 022B     		cmp	r3, #2
 889 002e 02D0     		beq	.L53
 890              		.loc 5 232 0 is_stmt 0 discriminator 1
 891 0030 0748     		ldr	r0, .L54
 892 0032 FFF7FEFF 		bl	chSysHalt
 893              	.L53:
 894              		.loc 5 233 0 is_stmt 1
ARM GAS  C:\Users\Luis\AppData\Local\Temp\ccE1imUd.s 			page 17


 895 0036 FB68     		ldr	r3, [r7, #12]
 896 0038 0322     		movs	r2, #3
 897 003a 1A70     		strb	r2, [r3]
 898 003c F868     		ldr	r0, [r7, #12]
 899 003e B968     		ldr	r1, [r7, #8]
 900 0040 7A68     		ldr	r2, [r7, #4]
 901 0042 FFF7FEFF 		bl	spi_lld_send
 902              		.loc 5 234 0
 903 0046 FFF7FEFF 		bl	osalSysUnlock
 904              		.loc 5 235 0
 905 004a 1037     		adds	r7, r7, #16
 906 004c BD46     		mov	sp, r7
 907              		@ sp needed
 908 004e 80BD     		pop	{r7, pc}
 909              	.L55:
 910              		.align	2
 911              	.L54:
 912 0050 00000000 		.word	__func__.7943
 913              		.cfi_endproc
 914              	.LFE268:
 915              		.size	spiStartSend, .-spiStartSend
 916 0054 AFF30080 		.section	.text.spiStartReceive,"ax",%progbits
 916      AFF30080 
 916      AFF30080 
 917              		.align	2
 918              		.p2align 4,,15
 919              		.global	spiStartReceive
 920              		.thumb
 921              		.thumb_func
 922              		.type	spiStartReceive, %function
 923              	spiStartReceive:
 924              	.LFB269:
 925              		.loc 5 252 0
 926              		.cfi_startproc
 927              		@ args = 0, pretend = 0, frame = 16
 928              		@ frame_needed = 1, uses_anonymous_args = 0
 929 0000 80B5     		push	{r7, lr}
 930              		.cfi_def_cfa_offset 8
 931              		.cfi_offset 7, -8
 932              		.cfi_offset 14, -4
 933 0002 84B0     		sub	sp, sp, #16
 934              		.cfi_def_cfa_offset 24
 935 0004 00AF     		add	r7, sp, #0
 936              		.cfi_def_cfa_register 7
 937 0006 F860     		str	r0, [r7, #12]
 938 0008 B960     		str	r1, [r7, #8]
 939 000a 7A60     		str	r2, [r7, #4]
 940              		.loc 5 254 0
 941 000c FB68     		ldr	r3, [r7, #12]
 942 000e 002B     		cmp	r3, #0
 943 0010 05D0     		beq	.L57
 944              		.loc 5 254 0 is_stmt 0 discriminator 2
 945 0012 BB68     		ldr	r3, [r7, #8]
 946 0014 002B     		cmp	r3, #0
 947 0016 02D0     		beq	.L57
 948              		.loc 5 254 0 discriminator 1
 949 0018 7B68     		ldr	r3, [r7, #4]
ARM GAS  C:\Users\Luis\AppData\Local\Temp\ccE1imUd.s 			page 18


 950 001a 002B     		cmp	r3, #0
 951 001c 02D1     		bne	.L58
 952              	.L57:
 953 001e 0C48     		ldr	r0, .L60
 954 0020 FFF7FEFF 		bl	chSysHalt
 955              	.L58:
 956              		.loc 5 256 0 is_stmt 1
 957 0024 FFF7FEFF 		bl	osalSysLock
 958              		.loc 5 257 0
 959 0028 FB68     		ldr	r3, [r7, #12]
 960 002a 1B78     		ldrb	r3, [r3]	@ zero_extendqisi2
 961 002c 022B     		cmp	r3, #2
 962 002e 02D0     		beq	.L59
 963              		.loc 5 257 0 is_stmt 0 discriminator 1
 964 0030 0748     		ldr	r0, .L60
 965 0032 FFF7FEFF 		bl	chSysHalt
 966              	.L59:
 967              		.loc 5 258 0 is_stmt 1
 968 0036 FB68     		ldr	r3, [r7, #12]
 969 0038 0322     		movs	r2, #3
 970 003a 1A70     		strb	r2, [r3]
 971 003c F868     		ldr	r0, [r7, #12]
 972 003e B968     		ldr	r1, [r7, #8]
 973 0040 7A68     		ldr	r2, [r7, #4]
 974 0042 FFF7FEFF 		bl	spi_lld_receive
 975              		.loc 5 259 0
 976 0046 FFF7FEFF 		bl	osalSysUnlock
 977              		.loc 5 260 0
 978 004a 1037     		adds	r7, r7, #16
 979 004c BD46     		mov	sp, r7
 980              		@ sp needed
 981 004e 80BD     		pop	{r7, pc}
 982              	.L61:
 983              		.align	2
 984              	.L60:
 985 0050 00000000 		.word	__func__.7949
 986              		.cfi_endproc
 987              	.LFE269:
 988              		.size	spiStartReceive, .-spiStartReceive
 989 0054 AFF30080 		.section	.text.spiIgnore,"ax",%progbits
 989      AFF30080 
 989      AFF30080 
 990              		.align	2
 991              		.p2align 4,,15
 992              		.global	spiIgnore
 993              		.thumb
 994              		.thumb_func
 995              		.type	spiIgnore, %function
 996              	spiIgnore:
 997              	.LFB270:
 998              		.loc 5 277 0
 999              		.cfi_startproc
 1000              		@ args = 0, pretend = 0, frame = 8
 1001              		@ frame_needed = 1, uses_anonymous_args = 0
 1002 0000 80B5     		push	{r7, lr}
 1003              		.cfi_def_cfa_offset 8
 1004              		.cfi_offset 7, -8
ARM GAS  C:\Users\Luis\AppData\Local\Temp\ccE1imUd.s 			page 19


 1005              		.cfi_offset 14, -4
 1006 0002 82B0     		sub	sp, sp, #8
 1007              		.cfi_def_cfa_offset 16
 1008 0004 00AF     		add	r7, sp, #0
 1009              		.cfi_def_cfa_register 7
 1010 0006 7860     		str	r0, [r7, #4]
 1011 0008 3960     		str	r1, [r7]
 1012              		.loc 5 279 0
 1013 000a 7B68     		ldr	r3, [r7, #4]
 1014 000c 002B     		cmp	r3, #0
 1015 000e 02D0     		beq	.L63
 1016              		.loc 5 279 0 is_stmt 0 discriminator 2
 1017 0010 3B68     		ldr	r3, [r7]
 1018 0012 002B     		cmp	r3, #0
 1019 0014 02D1     		bne	.L64
 1020              	.L63:
 1021              		.loc 5 279 0 discriminator 1
 1022 0016 1248     		ldr	r0, .L68
 1023 0018 FFF7FEFF 		bl	chSysHalt
 1024              	.L64:
 1025              		.loc 5 281 0 is_stmt 1
 1026 001c FFF7FEFF 		bl	osalSysLock
 1027              		.loc 5 282 0
 1028 0020 7B68     		ldr	r3, [r7, #4]
 1029 0022 1B78     		ldrb	r3, [r3]	@ zero_extendqisi2
 1030 0024 022B     		cmp	r3, #2
 1031 0026 02D0     		beq	.L67
 1032              		.loc 5 282 0 is_stmt 0 discriminator 1
 1033 0028 0D48     		ldr	r0, .L68
 1034 002a FFF7FEFF 		bl	chSysHalt
 1035              	.L67:
 1036              		.loc 5 283 0 is_stmt 1 discriminator 1
 1037 002e 7B68     		ldr	r3, [r7, #4]
 1038 0030 5B68     		ldr	r3, [r3, #4]
 1039 0032 1B68     		ldr	r3, [r3]
 1040 0034 002B     		cmp	r3, #0
 1041 0036 02D0     		beq	.L66
 1042 0038 0948     		ldr	r0, .L68
 1043 003a FFF7FEFF 		bl	chSysHalt
 1044              	.L66:
 1045              		.loc 5 284 0
 1046 003e 7B68     		ldr	r3, [r7, #4]
 1047 0040 0322     		movs	r2, #3
 1048 0042 1A70     		strb	r2, [r3]
 1049 0044 7868     		ldr	r0, [r7, #4]
 1050 0046 3968     		ldr	r1, [r7]
 1051 0048 FFF7FEFF 		bl	spi_lld_ignore
 1052              		.loc 5 285 0
 1053 004c 7B68     		ldr	r3, [r7, #4]
 1054 004e 0833     		adds	r3, r3, #8
 1055 0050 1846     		mov	r0, r3
 1056 0052 FFF7FEFF 		bl	osalThreadSuspendS
 1057              		.loc 5 286 0
 1058 0056 FFF7FEFF 		bl	osalSysUnlock
 1059              		.loc 5 287 0
 1060 005a 0837     		adds	r7, r7, #8
 1061 005c BD46     		mov	sp, r7
ARM GAS  C:\Users\Luis\AppData\Local\Temp\ccE1imUd.s 			page 20


 1062              		@ sp needed
 1063 005e 80BD     		pop	{r7, pc}
 1064              	.L69:
 1065              		.align	2
 1066              	.L68:
 1067 0060 00000000 		.word	__func__.7954
 1068              		.cfi_endproc
 1069              	.LFE270:
 1070              		.size	spiIgnore, .-spiIgnore
 1071 0064 AFF30080 		.section	.text.spiExchange,"ax",%progbits
 1071      AFF30080 
 1071      AFF30080 
 1072              		.align	2
 1073              		.p2align 4,,15
 1074              		.global	spiExchange
 1075              		.thumb
 1076              		.thumb_func
 1077              		.type	spiExchange, %function
 1078              	spiExchange:
 1079              	.LFB271:
 1080              		.loc 5 308 0
 1081              		.cfi_startproc
 1082              		@ args = 0, pretend = 0, frame = 16
 1083              		@ frame_needed = 1, uses_anonymous_args = 0
 1084 0000 80B5     		push	{r7, lr}
 1085              		.cfi_def_cfa_offset 8
 1086              		.cfi_offset 7, -8
 1087              		.cfi_offset 14, -4
 1088 0002 84B0     		sub	sp, sp, #16
 1089              		.cfi_def_cfa_offset 24
 1090 0004 00AF     		add	r7, sp, #0
 1091              		.cfi_def_cfa_register 7
 1092 0006 F860     		str	r0, [r7, #12]
 1093 0008 B960     		str	r1, [r7, #8]
 1094 000a 7A60     		str	r2, [r7, #4]
 1095 000c 3B60     		str	r3, [r7]
 1096              		.loc 5 310 0
 1097 000e FB68     		ldr	r3, [r7, #12]
 1098 0010 002B     		cmp	r3, #0
 1099 0012 08D0     		beq	.L71
 1100              		.loc 5 310 0 is_stmt 0 discriminator 2
 1101 0014 BB68     		ldr	r3, [r7, #8]
 1102 0016 002B     		cmp	r3, #0
 1103 0018 05D0     		beq	.L71
 1104              		.loc 5 310 0 discriminator 1
 1105 001a 3B68     		ldr	r3, [r7]
 1106 001c 002B     		cmp	r3, #0
 1107 001e 02D0     		beq	.L71
 1108 0020 7B68     		ldr	r3, [r7, #4]
 1109 0022 002B     		cmp	r3, #0
 1110 0024 02D1     		bne	.L72
 1111              	.L71:
 1112 0026 1348     		ldr	r0, .L76
 1113 0028 FFF7FEFF 		bl	chSysHalt
 1114              	.L72:
 1115              		.loc 5 313 0 is_stmt 1
 1116 002c FFF7FEFF 		bl	osalSysLock
ARM GAS  C:\Users\Luis\AppData\Local\Temp\ccE1imUd.s 			page 21


 1117              		.loc 5 314 0
 1118 0030 FB68     		ldr	r3, [r7, #12]
 1119 0032 1B78     		ldrb	r3, [r3]	@ zero_extendqisi2
 1120 0034 022B     		cmp	r3, #2
 1121 0036 02D0     		beq	.L75
 1122              		.loc 5 314 0 is_stmt 0 discriminator 1
 1123 0038 0E48     		ldr	r0, .L76
 1124 003a FFF7FEFF 		bl	chSysHalt
 1125              	.L75:
 1126              		.loc 5 315 0 is_stmt 1 discriminator 1
 1127 003e FB68     		ldr	r3, [r7, #12]
 1128 0040 5B68     		ldr	r3, [r3, #4]
 1129 0042 1B68     		ldr	r3, [r3]
 1130 0044 002B     		cmp	r3, #0
 1131 0046 02D0     		beq	.L74
 1132 0048 0A48     		ldr	r0, .L76
 1133 004a FFF7FEFF 		bl	chSysHalt
 1134              	.L74:
 1135              		.loc 5 316 0
 1136 004e FB68     		ldr	r3, [r7, #12]
 1137 0050 0322     		movs	r2, #3
 1138 0052 1A70     		strb	r2, [r3]
 1139 0054 F868     		ldr	r0, [r7, #12]
 1140 0056 B968     		ldr	r1, [r7, #8]
 1141 0058 7A68     		ldr	r2, [r7, #4]
 1142 005a 3B68     		ldr	r3, [r7]
 1143 005c FFF7FEFF 		bl	spi_lld_exchange
 1144              		.loc 5 317 0
 1145 0060 FB68     		ldr	r3, [r7, #12]
 1146 0062 0833     		adds	r3, r3, #8
 1147 0064 1846     		mov	r0, r3
 1148 0066 FFF7FEFF 		bl	osalThreadSuspendS
 1149              		.loc 5 318 0
 1150 006a FFF7FEFF 		bl	osalSysUnlock
 1151              		.loc 5 319 0
 1152 006e 1037     		adds	r7, r7, #16
 1153 0070 BD46     		mov	sp, r7
 1154              		@ sp needed
 1155 0072 80BD     		pop	{r7, pc}
 1156              	.L77:
 1157              		.align	2
 1158              	.L76:
 1159 0074 00000000 		.word	__func__.7961
 1160              		.cfi_endproc
 1161              	.LFE271:
 1162              		.size	spiExchange, .-spiExchange
 1163 0078 AFF30080 		.section	.text.spiSend,"ax",%progbits
 1163      AFF30080 
 1164              		.align	2
 1165              		.p2align 4,,15
 1166              		.global	spiSend
 1167              		.thumb
 1168              		.thumb_func
 1169              		.type	spiSend, %function
 1170              	spiSend:
 1171              	.LFB272:
 1172              		.loc 5 337 0
ARM GAS  C:\Users\Luis\AppData\Local\Temp\ccE1imUd.s 			page 22


 1173              		.cfi_startproc
 1174              		@ args = 0, pretend = 0, frame = 16
 1175              		@ frame_needed = 1, uses_anonymous_args = 0
 1176 0000 80B5     		push	{r7, lr}
 1177              		.cfi_def_cfa_offset 8
 1178              		.cfi_offset 7, -8
 1179              		.cfi_offset 14, -4
 1180 0002 84B0     		sub	sp, sp, #16
 1181              		.cfi_def_cfa_offset 24
 1182 0004 00AF     		add	r7, sp, #0
 1183              		.cfi_def_cfa_register 7
 1184 0006 F860     		str	r0, [r7, #12]
 1185 0008 B960     		str	r1, [r7, #8]
 1186 000a 7A60     		str	r2, [r7, #4]
 1187              		.loc 5 339 0
 1188 000c FB68     		ldr	r3, [r7, #12]
 1189 000e 002B     		cmp	r3, #0
 1190 0010 05D0     		beq	.L79
 1191              		.loc 5 339 0 is_stmt 0 discriminator 2
 1192 0012 BB68     		ldr	r3, [r7, #8]
 1193 0014 002B     		cmp	r3, #0
 1194 0016 02D0     		beq	.L79
 1195              		.loc 5 339 0 discriminator 1
 1196 0018 7B68     		ldr	r3, [r7, #4]
 1197 001a 002B     		cmp	r3, #0
 1198 001c 02D1     		bne	.L80
 1199              	.L79:
 1200 001e 1348     		ldr	r0, .L84
 1201 0020 FFF7FEFF 		bl	chSysHalt
 1202              	.L80:
 1203              		.loc 5 341 0 is_stmt 1
 1204 0024 FFF7FEFF 		bl	osalSysLock
 1205              		.loc 5 342 0
 1206 0028 FB68     		ldr	r3, [r7, #12]
 1207 002a 1B78     		ldrb	r3, [r3]	@ zero_extendqisi2
 1208 002c 022B     		cmp	r3, #2
 1209 002e 02D0     		beq	.L83
 1210              		.loc 5 342 0 is_stmt 0 discriminator 1
 1211 0030 0E48     		ldr	r0, .L84
 1212 0032 FFF7FEFF 		bl	chSysHalt
 1213              	.L83:
 1214              		.loc 5 343 0 is_stmt 1 discriminator 1
 1215 0036 FB68     		ldr	r3, [r7, #12]
 1216 0038 5B68     		ldr	r3, [r3, #4]
 1217 003a 1B68     		ldr	r3, [r3]
 1218 003c 002B     		cmp	r3, #0
 1219 003e 02D0     		beq	.L82
 1220 0040 0A48     		ldr	r0, .L84
 1221 0042 FFF7FEFF 		bl	chSysHalt
 1222              	.L82:
 1223              		.loc 5 344 0
 1224 0046 FB68     		ldr	r3, [r7, #12]
 1225 0048 0322     		movs	r2, #3
 1226 004a 1A70     		strb	r2, [r3]
 1227 004c F868     		ldr	r0, [r7, #12]
 1228 004e B968     		ldr	r1, [r7, #8]
 1229 0050 7A68     		ldr	r2, [r7, #4]
ARM GAS  C:\Users\Luis\AppData\Local\Temp\ccE1imUd.s 			page 23


 1230 0052 FFF7FEFF 		bl	spi_lld_send
 1231              		.loc 5 345 0
 1232 0056 FB68     		ldr	r3, [r7, #12]
 1233 0058 0833     		adds	r3, r3, #8
 1234 005a 1846     		mov	r0, r3
 1235 005c FFF7FEFF 		bl	osalThreadSuspendS
 1236              		.loc 5 346 0
 1237 0060 FFF7FEFF 		bl	osalSysUnlock
 1238              		.loc 5 347 0
 1239 0064 1037     		adds	r7, r7, #16
 1240 0066 BD46     		mov	sp, r7
 1241              		@ sp needed
 1242 0068 80BD     		pop	{r7, pc}
 1243              	.L85:
 1244 006a 00BF     		.align	2
 1245              	.L84:
 1246 006c 00000000 		.word	__func__.7967
 1247              		.cfi_endproc
 1248              	.LFE272:
 1249              		.size	spiSend, .-spiSend
 1250              		.section	.text.spiReceive,"ax",%progbits
 1251              		.align	2
 1252              		.p2align 4,,15
 1253              		.global	spiReceive
 1254              		.thumb
 1255              		.thumb_func
 1256              		.type	spiReceive, %function
 1257              	spiReceive:
 1258              	.LFB273:
 1259              		.loc 5 365 0
 1260              		.cfi_startproc
 1261              		@ args = 0, pretend = 0, frame = 16
 1262              		@ frame_needed = 1, uses_anonymous_args = 0
 1263 0000 80B5     		push	{r7, lr}
 1264              		.cfi_def_cfa_offset 8
 1265              		.cfi_offset 7, -8
 1266              		.cfi_offset 14, -4
 1267 0002 84B0     		sub	sp, sp, #16
 1268              		.cfi_def_cfa_offset 24
 1269 0004 00AF     		add	r7, sp, #0
 1270              		.cfi_def_cfa_register 7
 1271 0006 F860     		str	r0, [r7, #12]
 1272 0008 B960     		str	r1, [r7, #8]
 1273 000a 7A60     		str	r2, [r7, #4]
 1274              		.loc 5 367 0
 1275 000c FB68     		ldr	r3, [r7, #12]
 1276 000e 002B     		cmp	r3, #0
 1277 0010 05D0     		beq	.L87
 1278              		.loc 5 367 0 is_stmt 0 discriminator 2
 1279 0012 BB68     		ldr	r3, [r7, #8]
 1280 0014 002B     		cmp	r3, #0
 1281 0016 02D0     		beq	.L87
 1282              		.loc 5 367 0 discriminator 1
 1283 0018 7B68     		ldr	r3, [r7, #4]
 1284 001a 002B     		cmp	r3, #0
 1285 001c 02D1     		bne	.L88
 1286              	.L87:
ARM GAS  C:\Users\Luis\AppData\Local\Temp\ccE1imUd.s 			page 24


 1287 001e 1348     		ldr	r0, .L92
 1288 0020 FFF7FEFF 		bl	chSysHalt
 1289              	.L88:
 1290              		.loc 5 369 0 is_stmt 1
 1291 0024 FFF7FEFF 		bl	osalSysLock
 1292              		.loc 5 370 0
 1293 0028 FB68     		ldr	r3, [r7, #12]
 1294 002a 1B78     		ldrb	r3, [r3]	@ zero_extendqisi2
 1295 002c 022B     		cmp	r3, #2
 1296 002e 02D0     		beq	.L91
 1297              		.loc 5 370 0 is_stmt 0 discriminator 1
 1298 0030 0E48     		ldr	r0, .L92
 1299 0032 FFF7FEFF 		bl	chSysHalt
 1300              	.L91:
 1301              		.loc 5 371 0 is_stmt 1 discriminator 1
 1302 0036 FB68     		ldr	r3, [r7, #12]
 1303 0038 5B68     		ldr	r3, [r3, #4]
 1304 003a 1B68     		ldr	r3, [r3]
 1305 003c 002B     		cmp	r3, #0
 1306 003e 02D0     		beq	.L90
 1307 0040 0A48     		ldr	r0, .L92
 1308 0042 FFF7FEFF 		bl	chSysHalt
 1309              	.L90:
 1310              		.loc 5 372 0
 1311 0046 FB68     		ldr	r3, [r7, #12]
 1312 0048 0322     		movs	r2, #3
 1313 004a 1A70     		strb	r2, [r3]
 1314 004c F868     		ldr	r0, [r7, #12]
 1315 004e B968     		ldr	r1, [r7, #8]
 1316 0050 7A68     		ldr	r2, [r7, #4]
 1317 0052 FFF7FEFF 		bl	spi_lld_receive
 1318              		.loc 5 373 0
 1319 0056 FB68     		ldr	r3, [r7, #12]
 1320 0058 0833     		adds	r3, r3, #8
 1321 005a 1846     		mov	r0, r3
 1322 005c FFF7FEFF 		bl	osalThreadSuspendS
 1323              		.loc 5 374 0
 1324 0060 FFF7FEFF 		bl	osalSysUnlock
 1325              		.loc 5 375 0
 1326 0064 1037     		adds	r7, r7, #16
 1327 0066 BD46     		mov	sp, r7
 1328              		@ sp needed
 1329 0068 80BD     		pop	{r7, pc}
 1330              	.L93:
 1331 006a 00BF     		.align	2
 1332              	.L92:
 1333 006c 00000000 		.word	__func__.7973
 1334              		.cfi_endproc
 1335              	.LFE273:
 1336              		.size	spiReceive, .-spiReceive
 1337              		.section	.text.spiAcquireBus,"ax",%progbits
 1338              		.align	2
 1339              		.p2align 4,,15
 1340              		.global	spiAcquireBus
 1341              		.thumb
 1342              		.thumb_func
 1343              		.type	spiAcquireBus, %function
ARM GAS  C:\Users\Luis\AppData\Local\Temp\ccE1imUd.s 			page 25


 1344              	spiAcquireBus:
 1345              	.LFB274:
 1346              		.loc 5 390 0
 1347              		.cfi_startproc
 1348              		@ args = 0, pretend = 0, frame = 8
 1349              		@ frame_needed = 1, uses_anonymous_args = 0
 1350 0000 80B5     		push	{r7, lr}
 1351              		.cfi_def_cfa_offset 8
 1352              		.cfi_offset 7, -8
 1353              		.cfi_offset 14, -4
 1354 0002 82B0     		sub	sp, sp, #8
 1355              		.cfi_def_cfa_offset 16
 1356 0004 00AF     		add	r7, sp, #0
 1357              		.cfi_def_cfa_register 7
 1358 0006 7860     		str	r0, [r7, #4]
 1359              		.loc 5 392 0
 1360 0008 7B68     		ldr	r3, [r7, #4]
 1361 000a 002B     		cmp	r3, #0
 1362 000c 02D1     		bne	.L95
 1363              		.loc 5 392 0 is_stmt 0 discriminator 1
 1364 000e 0548     		ldr	r0, .L96
 1365 0010 FFF7FEFF 		bl	chSysHalt
 1366              	.L95:
 1367              		.loc 5 394 0 is_stmt 1
 1368 0014 7B68     		ldr	r3, [r7, #4]
 1369 0016 0C33     		adds	r3, r3, #12
 1370 0018 1846     		mov	r0, r3
 1371 001a FFF7FEFF 		bl	osalMutexLock
 1372              		.loc 5 395 0
 1373 001e 0837     		adds	r7, r7, #8
 1374 0020 BD46     		mov	sp, r7
 1375              		@ sp needed
 1376 0022 80BD     		pop	{r7, pc}
 1377              	.L97:
 1378              		.align	2
 1379              	.L96:
 1380 0024 00000000 		.word	__func__.7977
 1381              		.cfi_endproc
 1382              	.LFE274:
 1383              		.size	spiAcquireBus, .-spiAcquireBus
 1384 0028 AFF30080 		.section	.text.spiReleaseBus,"ax",%progbits
 1384      AFF30080 
 1385              		.align	2
 1386              		.p2align 4,,15
 1387              		.global	spiReleaseBus
 1388              		.thumb
 1389              		.thumb_func
 1390              		.type	spiReleaseBus, %function
 1391              	spiReleaseBus:
 1392              	.LFB275:
 1393              		.loc 5 406 0
 1394              		.cfi_startproc
 1395              		@ args = 0, pretend = 0, frame = 8
 1396              		@ frame_needed = 1, uses_anonymous_args = 0
 1397 0000 80B5     		push	{r7, lr}
 1398              		.cfi_def_cfa_offset 8
 1399              		.cfi_offset 7, -8
ARM GAS  C:\Users\Luis\AppData\Local\Temp\ccE1imUd.s 			page 26


 1400              		.cfi_offset 14, -4
 1401 0002 82B0     		sub	sp, sp, #8
 1402              		.cfi_def_cfa_offset 16
 1403 0004 00AF     		add	r7, sp, #0
 1404              		.cfi_def_cfa_register 7
 1405 0006 7860     		str	r0, [r7, #4]
 1406              		.loc 5 408 0
 1407 0008 7B68     		ldr	r3, [r7, #4]
 1408 000a 002B     		cmp	r3, #0
 1409 000c 02D1     		bne	.L99
 1410              		.loc 5 408 0 is_stmt 0 discriminator 1
 1411 000e 0548     		ldr	r0, .L100
 1412 0010 FFF7FEFF 		bl	chSysHalt
 1413              	.L99:
 1414              		.loc 5 410 0 is_stmt 1
 1415 0014 7B68     		ldr	r3, [r7, #4]
 1416 0016 0C33     		adds	r3, r3, #12
 1417 0018 1846     		mov	r0, r3
 1418 001a FFF7FEFF 		bl	osalMutexUnlock
 1419              		.loc 5 411 0
 1420 001e 0837     		adds	r7, r7, #8
 1421 0020 BD46     		mov	sp, r7
 1422              		@ sp needed
 1423 0022 80BD     		pop	{r7, pc}
 1424              	.L101:
 1425              		.align	2
 1426              	.L100:
 1427 0024 00000000 		.word	__func__.7981
 1428              		.cfi_endproc
 1429              	.LFE275:
 1430              		.size	spiReleaseBus, .-spiReleaseBus
 1431 0028 AFF30080 		.section	.rodata.__func__.7913,"a",%progbits
 1431      AFF30080 
 1432              		.align	2
 1433              		.type	__func__.7913, %object
 1434              		.size	__func__.7913, 9
 1435              	__func__.7913:
 1436 0000 73706953 		.ascii	"spiStart\000"
 1436      74617274 
 1436      00
 1437 0009 000000   		.section	.rodata.__func__.5842,"a",%progbits
 1438              		.align	2
 1439              		.type	__func__.5842, %object
 1440              		.size	__func__.5842, 12
 1441              	__func__.5842:
 1442 0000 63685379 		.ascii	"chSysUnlock\000"
 1442      73556E6C 
 1442      6F636B00 
 1443              		.section	.rodata.__func__.7917,"a",%progbits
 1444              		.align	2
 1445              		.type	__func__.7917, %object
 1446              		.size	__func__.7917, 8
 1447              	__func__.7917:
 1448 0000 73706953 		.ascii	"spiStop\000"
 1448      746F7000 
 1449              		.section	.rodata.__func__.7921,"a",%progbits
 1450              		.align	2
ARM GAS  C:\Users\Luis\AppData\Local\Temp\ccE1imUd.s 			page 27


 1451              		.type	__func__.7921, %object
 1452              		.size	__func__.7921, 10
 1453              	__func__.7921:
 1454 0000 73706953 		.ascii	"spiSelect\000"
 1454      656C6563 
 1454      7400
 1455 000a 0000     		.section	.rodata.__func__.7925,"a",%progbits
 1456              		.align	2
 1457              		.type	__func__.7925, %object
 1458              		.size	__func__.7925, 12
 1459              	__func__.7925:
 1460 0000 73706955 		.ascii	"spiUnselect\000"
 1460      6E73656C 
 1460      65637400 
 1461              		.section	.rodata.__func__.7930,"a",%progbits
 1462              		.align	2
 1463              		.type	__func__.7930, %object
 1464              		.size	__func__.7930, 15
 1465              	__func__.7930:
 1466 0000 73706953 		.ascii	"spiStartIgnore\000"
 1466      74617274 
 1466      49676E6F 
 1466      726500
 1467 000f 00       		.section	.rodata.__func__.7937,"a",%progbits
 1468              		.align	2
 1469              		.type	__func__.7937, %object
 1470              		.size	__func__.7937, 17
 1471              	__func__.7937:
 1472 0000 73706953 		.ascii	"spiStartExchange\000"
 1472      74617274 
 1472      45786368 
 1472      616E6765 
 1472      00
 1473 0011 000000   		.section	.rodata.__func__.7943,"a",%progbits
 1474              		.align	2
 1475              		.type	__func__.7943, %object
 1476              		.size	__func__.7943, 13
 1477              	__func__.7943:
 1478 0000 73706953 		.ascii	"spiStartSend\000"
 1478      74617274 
 1478      53656E64 
 1478      00
 1479 000d 000000   		.section	.rodata.__func__.7949,"a",%progbits
 1480              		.align	2
 1481              		.type	__func__.7949, %object
 1482              		.size	__func__.7949, 16
 1483              	__func__.7949:
 1484 0000 73706953 		.ascii	"spiStartReceive\000"
 1484      74617274 
 1484      52656365 
 1484      69766500 
 1485              		.section	.rodata.__func__.7954,"a",%progbits
 1486              		.align	2
 1487              		.type	__func__.7954, %object
 1488              		.size	__func__.7954, 10
 1489              	__func__.7954:
 1490 0000 73706949 		.ascii	"spiIgnore\000"
ARM GAS  C:\Users\Luis\AppData\Local\Temp\ccE1imUd.s 			page 28


 1490      676E6F72 
 1490      6500
 1491 000a 0000     		.section	.rodata.__func__.7961,"a",%progbits
 1492              		.align	2
 1493              		.type	__func__.7961, %object
 1494              		.size	__func__.7961, 12
 1495              	__func__.7961:
 1496 0000 73706945 		.ascii	"spiExchange\000"
 1496      78636861 
 1496      6E676500 
 1497              		.section	.rodata.__func__.7967,"a",%progbits
 1498              		.align	2
 1499              		.type	__func__.7967, %object
 1500              		.size	__func__.7967, 8
 1501              	__func__.7967:
 1502 0000 73706953 		.ascii	"spiSend\000"
 1502      656E6400 
 1503              		.section	.rodata.__func__.7973,"a",%progbits
 1504              		.align	2
 1505              		.type	__func__.7973, %object
 1506              		.size	__func__.7973, 11
 1507              	__func__.7973:
 1508 0000 73706952 		.ascii	"spiReceive\000"
 1508      65636569 
 1508      766500
 1509 000b 00       		.section	.rodata.__func__.7977,"a",%progbits
 1510              		.align	2
 1511              		.type	__func__.7977, %object
 1512              		.size	__func__.7977, 14
 1513              	__func__.7977:
 1514 0000 73706941 		.ascii	"spiAcquireBus\000"
 1514      63717569 
 1514      72654275 
 1514      7300
 1515 000e 0000     		.section	.rodata.__func__.7981,"a",%progbits
 1516              		.align	2
 1517              		.type	__func__.7981, %object
 1518              		.size	__func__.7981, 14
 1519              	__func__.7981:
 1520 0000 73706952 		.ascii	"spiReleaseBus\000"
 1520      656C6561 
 1520      73654275 
 1520      7300
 1521 000e 0000     		.text
 1522              	.Letext0:
 1523              		.file 6 "c:\\emtechesdk\\gcc\\lib\\gcc\\arm-none-eabi\\4.8.3\\include\\stddef.h"
 1524              		.file 7 "c:\\emtechesdk\\gcc\\arm-none-eabi\\include\\stdint.h"
 1525              		.file 8 "../../ChibiOS/os/rt/ports/ARMCMx/compilers/GCC/chtypes.h"
 1526              		.file 9 "../../ChibiOS/os/rt/include/chsystypes.h"
 1527              		.file 10 "../../ChibiOS/os/rt/include/chschd.h"
 1528              		.file 11 "../../ChibiOS/os/ext/CMSIS/ST/stm32f407xx.h"
 1529              		.file 12 "../../ChibiOS/os/rt/ports/ARMCMx/chcore.h"
 1530              		.file 13 "../../ChibiOS/os/rt/include/chdebug.h"
 1531              		.file 14 "../../ChibiOS/os/rt/include/chtm.h"
 1532              		.file 15 "../../ChibiOS/os/rt/include/chstats.h"
 1533              		.file 16 "../../ChibiOS/os/rt/include/chsem.h"
 1534              		.file 17 "../../ChibiOS/os/rt/include/chmtx.h"
ARM GAS  C:\Users\Luis\AppData\Local\Temp\ccE1imUd.s 			page 29


 1535              		.file 18 "../../ChibiOS/os/hal/ports/STM32/STM32F4xx/stm32_dma.h"
 1536              		.file 19 "../../ChibiOS/os/hal/ports/STM32/LLD/GPIOv2/pal_lld.h"
 1537              		.file 20 "../../ChibiOS/os/hal/include/spi.h"
 1538              		.file 21 "../../ChibiOS/os/hal/ports/STM32/LLD/SPIv1/spi_lld.h"
 1539              		.file 22 "../../ChibiOS/os/ext/CMSIS/include/core_cm4.h"
 1540              		.section	.debug_info,"",%progbits
 1541              	.Ldebug_info0:
 1542 0000 94110000 		.4byte	0x1194
 1543 0004 0400     		.2byte	0x4
 1544 0006 00000000 		.4byte	.Ldebug_abbrev0
 1545 000a 04       		.byte	0x4
 1546 000b 01       		.uleb128 0x1
 1547 000c 90060000 		.4byte	.LASF204
 1548 0010 01       		.byte	0x1
 1549 0011 63000000 		.4byte	.LASF205
 1550 0015 D4010000 		.4byte	.LASF206
 1551 0019 00000000 		.4byte	.Ldebug_ranges0+0
 1552 001d 00000000 		.4byte	0
 1553 0021 00000000 		.4byte	.Ldebug_line0
 1554 0025 02       		.uleb128 0x2
 1555 0026 04       		.byte	0x4
 1556 0027 05       		.byte	0x5
 1557 0028 696E7400 		.ascii	"int\000"
 1558 002c 03       		.uleb128 0x3
 1559 002d 28000000 		.4byte	.LASF2
 1560 0031 06       		.byte	0x6
 1561 0032 D4       		.byte	0xd4
 1562 0033 37000000 		.4byte	0x37
 1563 0037 04       		.uleb128 0x4
 1564 0038 04       		.byte	0x4
 1565 0039 07       		.byte	0x7
 1566 003a 18030000 		.4byte	.LASF0
 1567 003e 04       		.uleb128 0x4
 1568 003f 01       		.byte	0x1
 1569 0040 06       		.byte	0x6
 1570 0041 97010000 		.4byte	.LASF1
 1571 0045 03       		.uleb128 0x3
 1572 0046 A0080000 		.4byte	.LASF3
 1573 004a 07       		.byte	0x7
 1574 004b 2A       		.byte	0x2a
 1575 004c 50000000 		.4byte	0x50
 1576 0050 04       		.uleb128 0x4
 1577 0051 01       		.byte	0x1
 1578 0052 08       		.byte	0x8
 1579 0053 5F050000 		.4byte	.LASF4
 1580 0057 04       		.uleb128 0x4
 1581 0058 02       		.byte	0x2
 1582 0059 05       		.byte	0x5
 1583 005a 77050000 		.4byte	.LASF5
 1584 005e 03       		.uleb128 0x3
 1585 005f 5A020000 		.4byte	.LASF6
 1586 0063 07       		.byte	0x7
 1587 0064 36       		.byte	0x36
 1588 0065 69000000 		.4byte	0x69
 1589 0069 04       		.uleb128 0x4
 1590 006a 02       		.byte	0x2
 1591 006b 07       		.byte	0x7
ARM GAS  C:\Users\Luis\AppData\Local\Temp\ccE1imUd.s 			page 30


 1592 006c 76030000 		.4byte	.LASF7
 1593 0070 03       		.uleb128 0x3
 1594 0071 57050000 		.4byte	.LASF8
 1595 0075 07       		.byte	0x7
 1596 0076 4F       		.byte	0x4f
 1597 0077 7B000000 		.4byte	0x7b
 1598 007b 04       		.uleb128 0x4
 1599 007c 04       		.byte	0x4
 1600 007d 05       		.byte	0x5
 1601 007e 2B020000 		.4byte	.LASF9
 1602 0082 03       		.uleb128 0x3
 1603 0083 18060000 		.4byte	.LASF10
 1604 0087 07       		.byte	0x7
 1605 0088 50       		.byte	0x50
 1606 0089 8D000000 		.4byte	0x8d
 1607 008d 04       		.uleb128 0x4
 1608 008e 04       		.byte	0x4
 1609 008f 07       		.byte	0x7
 1610 0090 49060000 		.4byte	.LASF11
 1611 0094 04       		.uleb128 0x4
 1612 0095 08       		.byte	0x8
 1613 0096 05       		.byte	0x5
 1614 0097 89010000 		.4byte	.LASF12
 1615 009b 03       		.uleb128 0x3
 1616 009c 36000000 		.4byte	.LASF13
 1617 00a0 07       		.byte	0x7
 1618 00a1 78       		.byte	0x78
 1619 00a2 A6000000 		.4byte	0xa6
 1620 00a6 04       		.uleb128 0x4
 1621 00a7 08       		.byte	0x8
 1622 00a8 07       		.byte	0x7
 1623 00a9 C8000000 		.4byte	.LASF14
 1624 00ad 05       		.uleb128 0x5
 1625 00ae 70000000 		.4byte	0x70
 1626 00b2 05       		.uleb128 0x5
 1627 00b3 82000000 		.4byte	0x82
 1628 00b7 03       		.uleb128 0x3
 1629 00b8 28080000 		.4byte	.LASF15
 1630 00bc 08       		.byte	0x8
 1631 00bd 45       		.byte	0x45
 1632 00be 82000000 		.4byte	0x82
 1633 00c2 03       		.uleb128 0x3
 1634 00c3 5F010000 		.4byte	.LASF16
 1635 00c7 08       		.byte	0x8
 1636 00c8 46       		.byte	0x46
 1637 00c9 9B000000 		.4byte	0x9b
 1638 00cd 03       		.uleb128 0x3
 1639 00ce DC030000 		.4byte	.LASF17
 1640 00d2 08       		.byte	0x8
 1641 00d3 48       		.byte	0x48
 1642 00d4 45000000 		.4byte	0x45
 1643 00d8 03       		.uleb128 0x3
 1644 00d9 34020000 		.4byte	.LASF18
 1645 00dd 08       		.byte	0x8
 1646 00de 49       		.byte	0x49
 1647 00df 45000000 		.4byte	0x45
 1648 00e3 03       		.uleb128 0x3
ARM GAS  C:\Users\Luis\AppData\Local\Temp\ccE1imUd.s 			page 31


 1649 00e4 06000000 		.4byte	.LASF19
 1650 00e8 08       		.byte	0x8
 1651 00e9 4A       		.byte	0x4a
 1652 00ea 45000000 		.4byte	0x45
 1653 00ee 03       		.uleb128 0x3
 1654 00ef 3A050000 		.4byte	.LASF20
 1655 00f3 08       		.byte	0x8
 1656 00f4 4C       		.byte	0x4c
 1657 00f5 82000000 		.4byte	0x82
 1658 00f9 03       		.uleb128 0x3
 1659 00fa B5030000 		.4byte	.LASF21
 1660 00fe 08       		.byte	0x8
 1661 00ff 4D       		.byte	0x4d
 1662 0100 70000000 		.4byte	0x70
 1663 0104 03       		.uleb128 0x3
 1664 0105 FD030000 		.4byte	.LASF22
 1665 0109 08       		.byte	0x8
 1666 010a 4F       		.byte	0x4f
 1667 010b 82000000 		.4byte	0x82
 1668 010f 03       		.uleb128 0x3
 1669 0110 07030000 		.4byte	.LASF23
 1670 0114 08       		.byte	0x8
 1671 0115 51       		.byte	0x51
 1672 0116 70000000 		.4byte	0x70
 1673 011a 03       		.uleb128 0x3
 1674 011b C9030000 		.4byte	.LASF24
 1675 011f 08       		.byte	0x8
 1676 0120 52       		.byte	0x52
 1677 0121 82000000 		.4byte	0x82
 1678 0125 03       		.uleb128 0x3
 1679 0126 79070000 		.4byte	.LASF25
 1680 012a 09       		.byte	0x9
 1681 012b 33       		.byte	0x33
 1682 012c 82000000 		.4byte	0x82
 1683 0130 03       		.uleb128 0x3
 1684 0131 8A080000 		.4byte	.LASF26
 1685 0135 09       		.byte	0x9
 1686 0136 3F       		.byte	0x3f
 1687 0137 3B010000 		.4byte	0x13b
 1688 013b 06       		.uleb128 0x6
 1689 013c 98030000 		.4byte	.LASF49
 1690 0140 68       		.byte	0x68
 1691 0141 0A       		.byte	0xa
 1692 0142 C2       		.byte	0xc2
 1693 0143 4E020000 		.4byte	0x24e
 1694 0147 07       		.uleb128 0x7
 1695 0148 AB050000 		.4byte	.LASF27
 1696 014c 0A       		.byte	0xa
 1697 014d C3       		.byte	0xc3
 1698 014e 59020000 		.4byte	0x259
 1699 0152 00       		.byte	0
 1700 0153 07       		.uleb128 0x7
 1701 0154 18050000 		.4byte	.LASF28
 1702 0158 0A       		.byte	0xa
 1703 0159 C5       		.byte	0xc5
 1704 015a 59020000 		.4byte	0x259
 1705 015e 04       		.byte	0x4
ARM GAS  C:\Users\Luis\AppData\Local\Temp\ccE1imUd.s 			page 32


 1706 015f 07       		.uleb128 0x7
 1707 0160 68010000 		.4byte	.LASF29
 1708 0164 0A       		.byte	0xa
 1709 0165 C7       		.byte	0xc7
 1710 0166 EE000000 		.4byte	0xee
 1711 016a 08       		.byte	0x8
 1712 016b 07       		.uleb128 0x7
 1713 016c 1E090000 		.4byte	.LASF30
 1714 0170 0A       		.byte	0xa
 1715 0171 C8       		.byte	0xc8
 1716 0172 AE050000 		.4byte	0x5ae
 1717 0176 0C       		.byte	0xc
 1718 0177 07       		.uleb128 0x7
 1719 0178 72020000 		.4byte	.LASF31
 1720 017c 0A       		.byte	0xa
 1721 017d CA       		.byte	0xca
 1722 017e 59020000 		.4byte	0x259
 1723 0182 10       		.byte	0x10
 1724 0183 07       		.uleb128 0x7
 1725 0184 A1040000 		.4byte	.LASF32
 1726 0188 0A       		.byte	0xa
 1727 0189 CB       		.byte	0xcb
 1728 018a 59020000 		.4byte	0x259
 1729 018e 14       		.byte	0x14
 1730 018f 07       		.uleb128 0x7
 1731 0190 B4080000 		.4byte	.LASF33
 1732 0194 0A       		.byte	0xa
 1733 0195 D2       		.byte	0xd2
 1734 0196 52080000 		.4byte	0x852
 1735 019a 18       		.byte	0x18
 1736 019b 07       		.uleb128 0x7
 1737 019c 0D030000 		.4byte	.LASF34
 1738 01a0 0A       		.byte	0xa
 1739 01a1 D8       		.byte	0xd8
 1740 01a2 64080000 		.4byte	0x864
 1741 01a6 1C       		.byte	0x1c
 1742 01a7 07       		.uleb128 0x7
 1743 01a8 81050000 		.4byte	.LASF35
 1744 01ac 0A       		.byte	0xa
 1745 01ad DD       		.byte	0xdd
 1746 01ae D8000000 		.4byte	0xd8
 1747 01b2 20       		.byte	0x20
 1748 01b3 07       		.uleb128 0x7
 1749 01b4 BA050000 		.4byte	.LASF36
 1750 01b8 0A       		.byte	0xa
 1751 01b9 E1       		.byte	0xe1
 1752 01ba CD000000 		.4byte	0xcd
 1753 01be 21       		.byte	0x21
 1754 01bf 07       		.uleb128 0x7
 1755 01c0 6A080000 		.4byte	.LASF37
 1756 01c4 0A       		.byte	0xa
 1757 01c5 E6       		.byte	0xe6
 1758 01c6 E3000000 		.4byte	0xe3
 1759 01ca 22       		.byte	0x22
 1760 01cb 08       		.uleb128 0x8
 1761 01cc 705F7500 		.ascii	"p_u\000"
 1762 01d0 0A       		.byte	0xa
ARM GAS  C:\Users\Luis\AppData\Local\Temp\ccE1imUd.s 			page 33


 1763 01d1 3101     		.2byte	0x131
 1764 01d3 8D070000 		.4byte	0x78d
 1765 01d7 24       		.byte	0x24
 1766 01d8 09       		.uleb128 0x9
 1767 01d9 30040000 		.4byte	.LASF38
 1768 01dd 0A       		.byte	0xa
 1769 01de 3601     		.2byte	0x136
 1770 01e0 5F020000 		.4byte	0x25f
 1771 01e4 28       		.byte	0x28
 1772 01e5 09       		.uleb128 0x9
 1773 01e6 45030000 		.4byte	.LASF39
 1774 01ea 0A       		.byte	0xa
 1775 01eb 3C01     		.2byte	0x13c
 1776 01ed 83020000 		.4byte	0x283
 1777 01f1 2C       		.byte	0x2c
 1778 01f2 09       		.uleb128 0x9
 1779 01f3 F5050000 		.4byte	.LASF40
 1780 01f7 0A       		.byte	0xa
 1781 01f8 4001     		.2byte	0x140
 1782 01fa F9000000 		.4byte	0xf9
 1783 01fe 34       		.byte	0x34
 1784 01ff 09       		.uleb128 0x9
 1785 0200 08060000 		.4byte	.LASF41
 1786 0204 0A       		.byte	0xa
 1787 0205 4601     		.2byte	0x146
 1788 0207 04010000 		.4byte	0x104
 1789 020b 38       		.byte	0x38
 1790 020c 09       		.uleb128 0x9
 1791 020d 6D050000 		.4byte	.LASF42
 1792 0211 0A       		.byte	0xa
 1793 0212 4D01     		.2byte	0x14d
 1794 0214 4C080000 		.4byte	0x84c
 1795 0218 3C       		.byte	0x3c
 1796 0219 09       		.uleb128 0x9
 1797 021a 83070000 		.4byte	.LASF43
 1798 021e 0A       		.byte	0xa
 1799 021f 5101     		.2byte	0x151
 1800 0221 EE000000 		.4byte	0xee
 1801 0225 40       		.byte	0x40
 1802 0226 09       		.uleb128 0x9
 1803 0227 A9020000 		.4byte	.LASF44
 1804 022b 0A       		.byte	0xa
 1805 022c 5801     		.2byte	0x158
 1806 022e 36030000 		.4byte	0x336
 1807 0232 44       		.byte	0x44
 1808 0233 09       		.uleb128 0x9
 1809 0234 CB050000 		.4byte	.LASF45
 1810 0238 0A       		.byte	0xa
 1811 0239 5E01     		.2byte	0x15e
 1812 023b 3E070000 		.4byte	0x73e
 1813 023f 48       		.byte	0x48
 1814 0240 09       		.uleb128 0x9
 1815 0241 50030000 		.4byte	.LASF46
 1816 0245 0A       		.byte	0xa
 1817 0246 6201     		.2byte	0x162
 1818 0248 36030000 		.4byte	0x336
 1819 024c 60       		.byte	0x60
ARM GAS  C:\Users\Luis\AppData\Local\Temp\ccE1imUd.s 			page 34


 1820 024d 00       		.byte	0
 1821 024e 03       		.uleb128 0x3
 1822 024f 49040000 		.4byte	.LASF47
 1823 0253 09       		.byte	0x9
 1824 0254 44       		.byte	0x44
 1825 0255 59020000 		.4byte	0x259
 1826 0259 0A       		.uleb128 0xa
 1827 025a 04       		.byte	0x4
 1828 025b 30010000 		.4byte	0x130
 1829 025f 03       		.uleb128 0x3
 1830 0260 BB080000 		.4byte	.LASF48
 1831 0264 09       		.byte	0x9
 1832 0265 49       		.byte	0x49
 1833 0266 6A020000 		.4byte	0x26a
 1834 026a 06       		.uleb128 0x6
 1835 026b 39060000 		.4byte	.LASF50
 1836 026f 04       		.byte	0x4
 1837 0270 0A       		.byte	0xa
 1838 0271 B0       		.byte	0xb0
 1839 0272 83020000 		.4byte	0x283
 1840 0276 07       		.uleb128 0x7
 1841 0277 AB050000 		.4byte	.LASF27
 1842 027b 0A       		.byte	0xa
 1843 027c B1       		.byte	0xb1
 1844 027d 59020000 		.4byte	0x259
 1845 0281 00       		.byte	0
 1846 0282 00       		.byte	0
 1847 0283 03       		.uleb128 0x3
 1848 0284 51080000 		.4byte	.LASF51
 1849 0288 09       		.byte	0x9
 1850 0289 50       		.byte	0x50
 1851 028a 8E020000 		.4byte	0x28e
 1852 028e 06       		.uleb128 0x6
 1853 028f 2C090000 		.4byte	.LASF52
 1854 0293 08       		.byte	0x8
 1855 0294 0A       		.byte	0xa
 1856 0295 B7       		.byte	0xb7
 1857 0296 B3020000 		.4byte	0x2b3
 1858 029a 07       		.uleb128 0x7
 1859 029b AB050000 		.4byte	.LASF27
 1860 029f 0A       		.byte	0xa
 1861 02a0 B8       		.byte	0xb8
 1862 02a1 59020000 		.4byte	0x259
 1863 02a5 00       		.byte	0
 1864 02a6 07       		.uleb128 0x7
 1865 02a7 18050000 		.4byte	.LASF28
 1866 02ab 0A       		.byte	0xa
 1867 02ac B9       		.byte	0xb9
 1868 02ad 59020000 		.4byte	0x259
 1869 02b1 04       		.byte	0x4
 1870 02b2 00       		.byte	0
 1871 02b3 03       		.uleb128 0x3
 1872 02b4 0E000000 		.4byte	.LASF53
 1873 02b8 09       		.byte	0x9
 1874 02b9 57       		.byte	0x57
 1875 02ba BE020000 		.4byte	0x2be
 1876 02be 0B       		.uleb128 0xb
ARM GAS  C:\Users\Luis\AppData\Local\Temp\ccE1imUd.s 			page 35


 1877 02bf EF030000 		.4byte	.LASF54
 1878 02c3 1C       		.byte	0x1c
 1879 02c4 0A       		.byte	0xa
 1880 02c5 9001     		.2byte	0x190
 1881 02c7 1A030000 		.4byte	0x31a
 1882 02cb 09       		.uleb128 0x9
 1883 02cc 28060000 		.4byte	.LASF55
 1884 02d0 0A       		.byte	0xa
 1885 02d1 9101     		.2byte	0x191
 1886 02d3 83020000 		.4byte	0x283
 1887 02d7 00       		.byte	0
 1888 02d8 09       		.uleb128 0x9
 1889 02d9 C2020000 		.4byte	.LASF56
 1890 02dd 0A       		.byte	0xa
 1891 02de 9201     		.2byte	0x192
 1892 02e0 EE000000 		.4byte	0xee
 1893 02e4 08       		.byte	0x8
 1894 02e5 09       		.uleb128 0x9
 1895 02e6 A9040000 		.4byte	.LASF57
 1896 02ea 0A       		.byte	0xa
 1897 02eb 9401     		.2byte	0x194
 1898 02ed AE050000 		.4byte	0x5ae
 1899 02f1 0C       		.byte	0xc
 1900 02f2 09       		.uleb128 0x9
 1901 02f3 A1020000 		.4byte	.LASF58
 1902 02f7 0A       		.byte	0xa
 1903 02f8 9701     		.2byte	0x197
 1904 02fa 59020000 		.4byte	0x259
 1905 02fe 10       		.byte	0x10
 1906 02ff 09       		.uleb128 0x9
 1907 0300 D4040000 		.4byte	.LASF59
 1908 0304 0A       		.byte	0xa
 1909 0305 9801     		.2byte	0x198
 1910 0307 59020000 		.4byte	0x259
 1911 030b 14       		.byte	0x14
 1912 030c 09       		.uleb128 0x9
 1913 030d CA040000 		.4byte	.LASF60
 1914 0311 0A       		.byte	0xa
 1915 0312 9B01     		.2byte	0x19b
 1916 0314 59020000 		.4byte	0x259
 1917 0318 18       		.byte	0x18
 1918 0319 00       		.byte	0
 1919 031a 03       		.uleb128 0x3
 1920 031b 8E070000 		.4byte	.LASF61
 1921 031f 09       		.byte	0x9
 1922 0320 5C       		.byte	0x5c
 1923 0321 25030000 		.4byte	0x325
 1924 0325 0A       		.uleb128 0xa
 1925 0326 04       		.byte	0x4
 1926 0327 2B030000 		.4byte	0x32b
 1927 032b 0C       		.uleb128 0xc
 1928 032c 36030000 		.4byte	0x336
 1929 0330 0D       		.uleb128 0xd
 1930 0331 36030000 		.4byte	0x336
 1931 0335 00       		.byte	0
 1932 0336 0E       		.uleb128 0xe
 1933 0337 04       		.byte	0x4
ARM GAS  C:\Users\Luis\AppData\Local\Temp\ccE1imUd.s 			page 36


 1934 0338 03       		.uleb128 0x3
 1935 0339 08050000 		.4byte	.LASF62
 1936 033d 09       		.byte	0x9
 1937 033e 61       		.byte	0x61
 1938 033f 43030000 		.4byte	0x343
 1939 0343 0B       		.uleb128 0xb
 1940 0344 17080000 		.4byte	.LASF63
 1941 0348 14       		.byte	0x14
 1942 0349 0A       		.byte	0xa
 1943 034a 6B01     		.2byte	0x16b
 1944 034c 92030000 		.4byte	0x392
 1945 0350 09       		.uleb128 0x9
 1946 0351 25030000 		.4byte	.LASF64
 1947 0355 0A       		.byte	0xa
 1948 0356 6C01     		.2byte	0x16c
 1949 0358 6A080000 		.4byte	0x86a
 1950 035c 00       		.byte	0
 1951 035d 09       		.uleb128 0x9
 1952 035e BA020000 		.4byte	.LASF65
 1953 0362 0A       		.byte	0xa
 1954 0363 6D01     		.2byte	0x16d
 1955 0365 6A080000 		.4byte	0x86a
 1956 0369 04       		.byte	0x4
 1957 036a 09       		.uleb128 0x9
 1958 036b 30060000 		.4byte	.LASF66
 1959 036f 0A       		.byte	0xa
 1960 0370 6E01     		.2byte	0x16e
 1961 0372 25010000 		.4byte	0x125
 1962 0376 08       		.byte	0x8
 1963 0377 09       		.uleb128 0x9
 1964 0378 24090000 		.4byte	.LASF67
 1965 037c 0A       		.byte	0xa
 1966 037d 6F01     		.2byte	0x16f
 1967 037f 1A030000 		.4byte	0x31a
 1968 0383 0C       		.byte	0xc
 1969 0384 09       		.uleb128 0x9
 1970 0385 4A080000 		.4byte	.LASF68
 1971 0389 0A       		.byte	0xa
 1972 038a 7101     		.2byte	0x171
 1973 038c 36030000 		.4byte	0x336
 1974 0390 10       		.byte	0x10
 1975 0391 00       		.byte	0
 1976 0392 03       		.uleb128 0x3
 1977 0393 36010000 		.4byte	.LASF69
 1978 0397 09       		.byte	0x9
 1979 0398 66       		.byte	0x66
 1980 0399 9D030000 		.4byte	0x39d
 1981 039d 0B       		.uleb128 0xb
 1982 039e 5C040000 		.4byte	.LASF70
 1983 03a2 10       		.byte	0x10
 1984 03a3 0A       		.byte	0xa
 1985 03a4 7B01     		.2byte	0x17b
 1986 03a6 DF030000 		.4byte	0x3df
 1987 03aa 09       		.uleb128 0x9
 1988 03ab 25030000 		.4byte	.LASF64
 1989 03af 0A       		.byte	0xa
 1990 03b0 7C01     		.2byte	0x17c
ARM GAS  C:\Users\Luis\AppData\Local\Temp\ccE1imUd.s 			page 37


 1991 03b2 6A080000 		.4byte	0x86a
 1992 03b6 00       		.byte	0
 1993 03b7 09       		.uleb128 0x9
 1994 03b8 BA020000 		.4byte	.LASF65
 1995 03bc 0A       		.byte	0xa
 1996 03bd 7E01     		.2byte	0x17e
 1997 03bf 6A080000 		.4byte	0x86a
 1998 03c3 04       		.byte	0x4
 1999 03c4 09       		.uleb128 0x9
 2000 03c5 30060000 		.4byte	.LASF66
 2001 03c9 0A       		.byte	0xa
 2002 03ca 8001     		.2byte	0x180
 2003 03cc 25010000 		.4byte	0x125
 2004 03d0 08       		.byte	0x8
 2005 03d1 09       		.uleb128 0x9
 2006 03d2 95040000 		.4byte	.LASF71
 2007 03d6 0A       		.byte	0xa
 2008 03d7 8801     		.2byte	0x188
 2009 03d9 25010000 		.4byte	0x125
 2010 03dd 0C       		.byte	0xc
 2011 03de 00       		.byte	0
 2012 03df 03       		.uleb128 0x3
 2013 03e0 82000000 		.4byte	.LASF72
 2014 03e4 09       		.byte	0x9
 2015 03e5 6B       		.byte	0x6b
 2016 03e6 EA030000 		.4byte	0x3ea
 2017 03ea 0F       		.uleb128 0xf
 2018 03eb F1080000 		.4byte	.LASF73
 2019 03ef 1404     		.2byte	0x414
 2020 03f1 0A       		.byte	0xa
 2021 03f2 A201     		.2byte	0x1a2
 2022 03f4 2D040000 		.4byte	0x42d
 2023 03f8 09       		.uleb128 0x9
 2024 03f9 BE070000 		.4byte	.LASF74
 2025 03fd 0A       		.byte	0xa
 2026 03fe AA01     		.2byte	0x1aa
 2027 0400 70080000 		.4byte	0x870
 2028 0404 00       		.byte	0
 2029 0405 09       		.uleb128 0x9
 2030 0406 71080000 		.4byte	.LASF75
 2031 040a 0A       		.byte	0xa
 2032 040b AF01     		.2byte	0x1af
 2033 040d 0F010000 		.4byte	0x10f
 2034 0411 04       		.byte	0x4
 2035 0412 09       		.uleb128 0x9
 2036 0413 EF020000 		.4byte	.LASF76
 2037 0417 0A       		.byte	0xa
 2038 0418 B301     		.2byte	0x1b3
 2039 041a 0F010000 		.4byte	0x10f
 2040 041e 08       		.byte	0x8
 2041 041f 09       		.uleb128 0x9
 2042 0420 D8080000 		.4byte	.LASF77
 2043 0424 0A       		.byte	0xa
 2044 0425 B901     		.2byte	0x1b9
 2045 0427 D0060000 		.4byte	0x6d0
 2046 042b 0C       		.byte	0xc
 2047 042c 00       		.byte	0
ARM GAS  C:\Users\Luis\AppData\Local\Temp\ccE1imUd.s 			page 38


 2048 042d 03       		.uleb128 0x3
 2049 042e D0030000 		.4byte	.LASF78
 2050 0432 09       		.byte	0x9
 2051 0433 70       		.byte	0x70
 2052 0434 38040000 		.4byte	0x438
 2053 0438 0F       		.uleb128 0xf
 2054 0439 21020000 		.4byte	.LASF79
 2055 043d E805     		.2byte	0x5e8
 2056 043f 0A       		.byte	0xa
 2057 0440 C201     		.2byte	0x1c2
 2058 0442 A5040000 		.4byte	0x4a5
 2059 0446 09       		.uleb128 0x9
 2060 0447 9A080000 		.4byte	.LASF80
 2061 044b 0A       		.byte	0xa
 2062 044c C601     		.2byte	0x1c6
 2063 044e B3020000 		.4byte	0x2b3
 2064 0452 00       		.byte	0
 2065 0453 09       		.uleb128 0x9
 2066 0454 C1010000 		.4byte	.LASF81
 2067 0458 0A       		.byte	0xa
 2068 0459 CA01     		.2byte	0x1ca
 2069 045b 92030000 		.4byte	0x392
 2070 045f 1C       		.byte	0x1c
 2071 0460 08       		.uleb128 0x8
 2072 0461 64626700 		.ascii	"dbg\000"
 2073 0465 0A       		.byte	0xa
 2074 0466 CE01     		.2byte	0x1ce
 2075 0468 DF030000 		.4byte	0x3df
 2076 046c 2C       		.byte	0x2c
 2077 046d 10       		.uleb128 0x10
 2078 046e 1A010000 		.4byte	.LASF82
 2079 0472 0A       		.byte	0xa
 2080 0473 D201     		.2byte	0x1d2
 2081 0475 30010000 		.4byte	0x130
 2082 0479 4004     		.2byte	0x440
 2083 047b 11       		.uleb128 0x11
 2084 047c 746D00   		.ascii	"tm\000"
 2085 047f 0A       		.byte	0xa
 2086 0480 D701     		.2byte	0x1d7
 2087 0482 F0060000 		.4byte	0x6f0
 2088 0486 A804     		.2byte	0x4a8
 2089 0488 10       		.uleb128 0x10
 2090 0489 3F000000 		.4byte	.LASF83
 2091 048d 0A       		.byte	0xa
 2092 048e DD01     		.2byte	0x1dd
 2093 0490 82070000 		.4byte	0x782
 2094 0494 B004     		.2byte	0x4b0
 2095 0496 10       		.uleb128 0x10
 2096 0497 F8020000 		.4byte	.LASF84
 2097 049b 0A       		.byte	0xa
 2098 049c E301     		.2byte	0x1e3
 2099 049e 75080000 		.4byte	0x875
 2100 04a2 E804     		.2byte	0x4e8
 2101 04a4 00       		.byte	0
 2102 04a5 04       		.uleb128 0x4
 2103 04a6 04       		.byte	0x4
 2104 04a7 07       		.byte	0x7
ARM GAS  C:\Users\Luis\AppData\Local\Temp\ccE1imUd.s 			page 39


 2105 04a8 40040000 		.4byte	.LASF85
 2106 04ac 12       		.uleb128 0x12
 2107 04ad 18       		.byte	0x18
 2108 04ae 0B       		.byte	0xb
 2109 04af 6B01     		.2byte	0x16b
 2110 04b1 03050000 		.4byte	0x503
 2111 04b5 08       		.uleb128 0x8
 2112 04b6 435200   		.ascii	"CR\000"
 2113 04b9 0B       		.byte	0xb
 2114 04ba 6D01     		.2byte	0x16d
 2115 04bc B2000000 		.4byte	0xb2
 2116 04c0 00       		.byte	0
 2117 04c1 09       		.uleb128 0x9
 2118 04c2 B9070000 		.4byte	.LASF86
 2119 04c6 0B       		.byte	0xb
 2120 04c7 6E01     		.2byte	0x16e
 2121 04c9 B2000000 		.4byte	0xb2
 2122 04cd 04       		.byte	0x4
 2123 04ce 08       		.uleb128 0x8
 2124 04cf 50415200 		.ascii	"PAR\000"
 2125 04d3 0B       		.byte	0xb
 2126 04d4 6F01     		.2byte	0x16f
 2127 04d6 B2000000 		.4byte	0xb2
 2128 04da 08       		.byte	0x8
 2129 04db 09       		.uleb128 0x9
 2130 04dc 23000000 		.4byte	.LASF87
 2131 04e0 0B       		.byte	0xb
 2132 04e1 7001     		.2byte	0x170
 2133 04e3 B2000000 		.4byte	0xb2
 2134 04e7 0C       		.byte	0xc
 2135 04e8 09       		.uleb128 0x9
 2136 04e9 30080000 		.4byte	.LASF88
 2137 04ed 0B       		.byte	0xb
 2138 04ee 7101     		.2byte	0x171
 2139 04f0 B2000000 		.4byte	0xb2
 2140 04f4 10       		.byte	0x10
 2141 04f5 08       		.uleb128 0x8
 2142 04f6 46435200 		.ascii	"FCR\000"
 2143 04fa 0B       		.byte	0xb
 2144 04fb 7201     		.2byte	0x172
 2145 04fd B2000000 		.4byte	0xb2
 2146 0501 14       		.byte	0x14
 2147 0502 00       		.byte	0
 2148 0503 13       		.uleb128 0x13
 2149 0504 E7070000 		.4byte	.LASF89
 2150 0508 0B       		.byte	0xb
 2151 0509 7301     		.2byte	0x173
 2152 050b AC040000 		.4byte	0x4ac
 2153 050f 12       		.uleb128 0x12
 2154 0510 24       		.byte	0x24
 2155 0511 0B       		.byte	0xb
 2156 0512 DB02     		.2byte	0x2db
 2157 0514 8C050000 		.4byte	0x58c
 2158 0518 08       		.uleb128 0x8
 2159 0519 43523100 		.ascii	"CR1\000"
 2160 051d 0B       		.byte	0xb
 2161 051e DD02     		.2byte	0x2dd
ARM GAS  C:\Users\Luis\AppData\Local\Temp\ccE1imUd.s 			page 40


 2162 0520 B2000000 		.4byte	0xb2
 2163 0524 00       		.byte	0
 2164 0525 08       		.uleb128 0x8
 2165 0526 43523200 		.ascii	"CR2\000"
 2166 052a 0B       		.byte	0xb
 2167 052b DE02     		.2byte	0x2de
 2168 052d B2000000 		.4byte	0xb2
 2169 0531 04       		.byte	0x4
 2170 0532 08       		.uleb128 0x8
 2171 0533 535200   		.ascii	"SR\000"
 2172 0536 0B       		.byte	0xb
 2173 0537 DF02     		.2byte	0x2df
 2174 0539 B2000000 		.4byte	0xb2
 2175 053d 08       		.byte	0x8
 2176 053e 08       		.uleb128 0x8
 2177 053f 445200   		.ascii	"DR\000"
 2178 0542 0B       		.byte	0xb
 2179 0543 E002     		.2byte	0x2e0
 2180 0545 B2000000 		.4byte	0xb2
 2181 0549 0C       		.byte	0xc
 2182 054a 09       		.uleb128 0x9
 2183 054b EC040000 		.4byte	.LASF90
 2184 054f 0B       		.byte	0xb
 2185 0550 E102     		.2byte	0x2e1
 2186 0552 B2000000 		.4byte	0xb2
 2187 0556 10       		.byte	0x10
 2188 0557 09       		.uleb128 0x9
 2189 0558 93080000 		.4byte	.LASF91
 2190 055c 0B       		.byte	0xb
 2191 055d E202     		.2byte	0x2e2
 2192 055f B2000000 		.4byte	0xb2
 2193 0563 14       		.byte	0x14
 2194 0564 09       		.uleb128 0x9
 2195 0565 F7040000 		.4byte	.LASF92
 2196 0569 0B       		.byte	0xb
 2197 056a E302     		.2byte	0x2e3
 2198 056c B2000000 		.4byte	0xb2
 2199 0570 18       		.byte	0x18
 2200 0571 09       		.uleb128 0x9
 2201 0572 B1010000 		.4byte	.LASF93
 2202 0576 0B       		.byte	0xb
 2203 0577 E402     		.2byte	0x2e4
 2204 0579 B2000000 		.4byte	0xb2
 2205 057d 1C       		.byte	0x1c
 2206 057e 09       		.uleb128 0x9
 2207 057f 3A040000 		.4byte	.LASF94
 2208 0583 0B       		.byte	0xb
 2209 0584 E502     		.2byte	0x2e5
 2210 0586 B2000000 		.4byte	0xb2
 2211 058a 20       		.byte	0x20
 2212 058b 00       		.byte	0
 2213 058c 13       		.uleb128 0x13
 2214 058d 5B060000 		.4byte	.LASF95
 2215 0591 0B       		.byte	0xb
 2216 0592 E602     		.2byte	0x2e6
 2217 0594 0F050000 		.4byte	0x50f
 2218 0598 03       		.uleb128 0x3
ARM GAS  C:\Users\Luis\AppData\Local\Temp\ccE1imUd.s 			page 41


 2219 0599 B1020000 		.4byte	.LASF96
 2220 059d 0C       		.byte	0xc
 2221 059e 65       		.byte	0x65
 2222 059f 36030000 		.4byte	0x336
 2223 05a3 03       		.uleb128 0x3
 2224 05a4 09040000 		.4byte	.LASF97
 2225 05a8 0C       		.byte	0xc
 2226 05a9 6D       		.byte	0x6d
 2227 05aa 9B000000 		.4byte	0x9b
 2228 05ae 06       		.uleb128 0x6
 2229 05af 05080000 		.4byte	.LASF98
 2230 05b3 04       		.byte	0x4
 2231 05b4 0C       		.byte	0xc
 2232 05b5 89       		.byte	0x89
 2233 05b6 C7050000 		.4byte	0x5c7
 2234 05ba 14       		.uleb128 0x14
 2235 05bb 72313300 		.ascii	"r13\000"
 2236 05bf 0C       		.byte	0xc
 2237 05c0 8A       		.byte	0x8a
 2238 05c1 42060000 		.4byte	0x642
 2239 05c5 00       		.byte	0
 2240 05c6 00       		.byte	0
 2241 05c7 06       		.uleb128 0x6
 2242 05c8 57000000 		.4byte	.LASF99
 2243 05cc 24       		.byte	0x24
 2244 05cd 01       		.byte	0x1
 2245 05ce F4       		.byte	0xf4
 2246 05cf 42060000 		.4byte	0x642
 2247 05d3 08       		.uleb128 0x8
 2248 05d4 723400   		.ascii	"r4\000"
 2249 05d7 01       		.byte	0x1
 2250 05d8 0701     		.2byte	0x107
 2251 05da 98050000 		.4byte	0x598
 2252 05de 00       		.byte	0
 2253 05df 08       		.uleb128 0x8
 2254 05e0 723500   		.ascii	"r5\000"
 2255 05e3 01       		.byte	0x1
 2256 05e4 0801     		.2byte	0x108
 2257 05e6 98050000 		.4byte	0x598
 2258 05ea 04       		.byte	0x4
 2259 05eb 08       		.uleb128 0x8
 2260 05ec 723600   		.ascii	"r6\000"
 2261 05ef 01       		.byte	0x1
 2262 05f0 0901     		.2byte	0x109
 2263 05f2 98050000 		.4byte	0x598
 2264 05f6 08       		.byte	0x8
 2265 05f7 08       		.uleb128 0x8
 2266 05f8 723700   		.ascii	"r7\000"
 2267 05fb 01       		.byte	0x1
 2268 05fc 0A01     		.2byte	0x10a
 2269 05fe 98050000 		.4byte	0x598
 2270 0602 0C       		.byte	0xc
 2271 0603 08       		.uleb128 0x8
 2272 0604 723800   		.ascii	"r8\000"
 2273 0607 01       		.byte	0x1
 2274 0608 0B01     		.2byte	0x10b
 2275 060a 98050000 		.4byte	0x598
ARM GAS  C:\Users\Luis\AppData\Local\Temp\ccE1imUd.s 			page 42


 2276 060e 10       		.byte	0x10
 2277 060f 08       		.uleb128 0x8
 2278 0610 723900   		.ascii	"r9\000"
 2279 0613 01       		.byte	0x1
 2280 0614 0C01     		.2byte	0x10c
 2281 0616 98050000 		.4byte	0x598
 2282 061a 14       		.byte	0x14
 2283 061b 08       		.uleb128 0x8
 2284 061c 72313000 		.ascii	"r10\000"
 2285 0620 01       		.byte	0x1
 2286 0621 0D01     		.2byte	0x10d
 2287 0623 98050000 		.4byte	0x598
 2288 0627 18       		.byte	0x18
 2289 0628 08       		.uleb128 0x8
 2290 0629 72313100 		.ascii	"r11\000"
 2291 062d 01       		.byte	0x1
 2292 062e 0E01     		.2byte	0x10e
 2293 0630 98050000 		.4byte	0x598
 2294 0634 1C       		.byte	0x1c
 2295 0635 08       		.uleb128 0x8
 2296 0636 6C7200   		.ascii	"lr\000"
 2297 0639 01       		.byte	0x1
 2298 063a 0F01     		.2byte	0x10f
 2299 063c 98050000 		.4byte	0x598
 2300 0640 20       		.byte	0x20
 2301 0641 00       		.byte	0
 2302 0642 0A       		.uleb128 0xa
 2303 0643 04       		.byte	0x4
 2304 0644 C7050000 		.4byte	0x5c7
 2305 0648 15       		.uleb128 0x15
 2306 0649 10       		.byte	0x10
 2307 064a 0D       		.byte	0xd
 2308 064b 51       		.byte	0x51
 2309 064c 81060000 		.4byte	0x681
 2310 0650 07       		.uleb128 0x7
 2311 0651 1B000000 		.4byte	.LASF100
 2312 0655 0D       		.byte	0xd
 2313 0656 55       		.byte	0x55
 2314 0657 25010000 		.4byte	0x125
 2315 065b 00       		.byte	0
 2316 065c 07       		.uleb128 0x7
 2317 065d 54020000 		.4byte	.LASF101
 2318 0661 0D       		.byte	0xd
 2319 0662 59       		.byte	0x59
 2320 0663 59020000 		.4byte	0x259
 2321 0667 04       		.byte	0x4
 2322 0668 07       		.uleb128 0x7
 2323 0669 14090000 		.4byte	.LASF102
 2324 066d 0D       		.byte	0xd
 2325 066e 5D       		.byte	0x5d
 2326 066f 36030000 		.4byte	0x336
 2327 0673 08       		.byte	0x8
 2328 0674 07       		.uleb128 0x7
 2329 0675 FB000000 		.4byte	.LASF103
 2330 0679 0D       		.byte	0xd
 2331 067a 61       		.byte	0x61
 2332 067b 45000000 		.4byte	0x45
ARM GAS  C:\Users\Luis\AppData\Local\Temp\ccE1imUd.s 			page 43


 2333 067f 0C       		.byte	0xc
 2334 0680 00       		.byte	0
 2335 0681 03       		.uleb128 0x3
 2336 0682 86040000 		.4byte	.LASF104
 2337 0686 0D       		.byte	0xd
 2338 0687 62       		.byte	0x62
 2339 0688 48060000 		.4byte	0x648
 2340 068c 16       		.uleb128 0x16
 2341 068d 0804     		.2byte	0x408
 2342 068f 0D       		.byte	0xd
 2343 0690 67       		.byte	0x67
 2344 0691 BA060000 		.4byte	0x6ba
 2345 0695 07       		.uleb128 0x7
 2346 0696 91020000 		.4byte	.LASF105
 2347 069a 0D       		.byte	0xd
 2348 069b 6B       		.byte	0x6b
 2349 069c 37000000 		.4byte	0x37
 2350 06a0 00       		.byte	0
 2351 06a1 07       		.uleb128 0x7
 2352 06a2 7F040000 		.4byte	.LASF106
 2353 06a6 0D       		.byte	0xd
 2354 06a7 6F       		.byte	0x6f
 2355 06a8 BA060000 		.4byte	0x6ba
 2356 06ac 04       		.byte	0x4
 2357 06ad 07       		.uleb128 0x7
 2358 06ae FE040000 		.4byte	.LASF107
 2359 06b2 0D       		.byte	0xd
 2360 06b3 73       		.byte	0x73
 2361 06b4 C0060000 		.4byte	0x6c0
 2362 06b8 08       		.byte	0x8
 2363 06b9 00       		.byte	0
 2364 06ba 0A       		.uleb128 0xa
 2365 06bb 04       		.byte	0x4
 2366 06bc 81060000 		.4byte	0x681
 2367 06c0 17       		.uleb128 0x17
 2368 06c1 81060000 		.4byte	0x681
 2369 06c5 D0060000 		.4byte	0x6d0
 2370 06c9 18       		.uleb128 0x18
 2371 06ca A5040000 		.4byte	0x4a5
 2372 06ce 3F       		.byte	0x3f
 2373 06cf 00       		.byte	0
 2374 06d0 03       		.uleb128 0x3
 2375 06d1 DF000000 		.4byte	.LASF108
 2376 06d5 0D       		.byte	0xd
 2377 06d6 74       		.byte	0x74
 2378 06d7 8C060000 		.4byte	0x68c
 2379 06db 15       		.uleb128 0x15
 2380 06dc 04       		.byte	0x4
 2381 06dd 0E       		.byte	0xe
 2382 06de 38       		.byte	0x38
 2383 06df F0060000 		.4byte	0x6f0
 2384 06e3 07       		.uleb128 0x7
 2385 06e4 E0070000 		.4byte	.LASF109
 2386 06e8 0E       		.byte	0xe
 2387 06e9 3C       		.byte	0x3c
 2388 06ea B7000000 		.4byte	0xb7
 2389 06ee 00       		.byte	0
ARM GAS  C:\Users\Luis\AppData\Local\Temp\ccE1imUd.s 			page 44


 2390 06ef 00       		.byte	0
 2391 06f0 03       		.uleb128 0x3
 2392 06f1 B9040000 		.4byte	.LASF110
 2393 06f5 0E       		.byte	0xe
 2394 06f6 3D       		.byte	0x3d
 2395 06f7 DB060000 		.4byte	0x6db
 2396 06fb 15       		.uleb128 0x15
 2397 06fc 18       		.byte	0x18
 2398 06fd 0E       		.byte	0xe
 2399 06fe 48       		.byte	0x48
 2400 06ff 3E070000 		.4byte	0x73e
 2401 0703 07       		.uleb128 0x7
 2402 0704 62070000 		.4byte	.LASF111
 2403 0708 0E       		.byte	0xe
 2404 0709 49       		.byte	0x49
 2405 070a B7000000 		.4byte	0xb7
 2406 070e 00       		.byte	0
 2407 070f 07       		.uleb128 0x7
 2408 0710 A9000000 		.4byte	.LASF112
 2409 0714 0E       		.byte	0xe
 2410 0715 4A       		.byte	0x4a
 2411 0716 B7000000 		.4byte	0xb7
 2412 071a 04       		.byte	0x4
 2413 071b 07       		.uleb128 0x7
 2414 071c BB030000 		.4byte	.LASF113
 2415 0720 0E       		.byte	0xe
 2416 0721 4B       		.byte	0x4b
 2417 0722 B7000000 		.4byte	0xb7
 2418 0726 08       		.byte	0x8
 2419 0727 14       		.uleb128 0x14
 2420 0728 6E00     		.ascii	"n\000"
 2421 072a 0E       		.byte	0xe
 2422 072b 4C       		.byte	0x4c
 2423 072c 1A010000 		.4byte	0x11a
 2424 0730 0C       		.byte	0xc
 2425 0731 07       		.uleb128 0x7
 2426 0732 E1040000 		.4byte	.LASF114
 2427 0736 0E       		.byte	0xe
 2428 0737 4D       		.byte	0x4d
 2429 0738 C2000000 		.4byte	0xc2
 2430 073c 10       		.byte	0x10
 2431 073d 00       		.byte	0
 2432 073e 03       		.uleb128 0x3
 2433 073f AF000000 		.4byte	.LASF115
 2434 0743 0E       		.byte	0xe
 2435 0744 4E       		.byte	0x4e
 2436 0745 FB060000 		.4byte	0x6fb
 2437 0749 15       		.uleb128 0x15
 2438 074a 38       		.byte	0x38
 2439 074b 0F       		.byte	0xf
 2440 074c 38       		.byte	0x38
 2441 074d 82070000 		.4byte	0x782
 2442 0751 07       		.uleb128 0x7
 2443 0752 97070000 		.4byte	.LASF116
 2444 0756 0F       		.byte	0xf
 2445 0757 39       		.byte	0x39
 2446 0758 1A010000 		.4byte	0x11a
ARM GAS  C:\Users\Luis\AppData\Local\Temp\ccE1imUd.s 			page 45


 2447 075c 00       		.byte	0
 2448 075d 07       		.uleb128 0x7
 2449 075e 48050000 		.4byte	.LASF117
 2450 0762 0F       		.byte	0xf
 2451 0763 3A       		.byte	0x3a
 2452 0764 1A010000 		.4byte	0x11a
 2453 0768 04       		.byte	0x4
 2454 0769 07       		.uleb128 0x7
 2455 076a 01090000 		.4byte	.LASF118
 2456 076e 0F       		.byte	0xf
 2457 076f 3B       		.byte	0x3b
 2458 0770 3E070000 		.4byte	0x73e
 2459 0774 08       		.byte	0x8
 2460 0775 07       		.uleb128 0x7
 2461 0776 E4030000 		.4byte	.LASF119
 2462 077a 0F       		.byte	0xf
 2463 077b 3D       		.byte	0x3d
 2464 077c 3E070000 		.4byte	0x73e
 2465 0780 20       		.byte	0x20
 2466 0781 00       		.byte	0
 2467 0782 03       		.uleb128 0x3
 2468 0783 89030000 		.4byte	.LASF120
 2469 0787 0F       		.byte	0xf
 2470 0788 3F       		.byte	0x3f
 2471 0789 49070000 		.4byte	0x749
 2472 078d 19       		.uleb128 0x19
 2473 078e 04       		.byte	0x4
 2474 078f 0A       		.byte	0xa
 2475 0790 FA       		.byte	0xfa
 2476 0791 EA070000 		.4byte	0x7ea
 2477 0795 1A       		.uleb128 0x1a
 2478 0796 2F000000 		.4byte	.LASF121
 2479 079a 0A       		.byte	0xa
 2480 079b 0101     		.2byte	0x101
 2481 079d F9000000 		.4byte	0xf9
 2482 07a1 1A       		.uleb128 0x1a
 2483 07a2 0A010000 		.4byte	.LASF122
 2484 07a6 0A       		.byte	0xa
 2485 07a7 0801     		.2byte	0x108
 2486 07a9 F9000000 		.4byte	0xf9
 2487 07ad 1A       		.uleb128 0x1a
 2488 07ae AD080000 		.4byte	.LASF123
 2489 07b2 0A       		.byte	0xa
 2490 07b3 0F01     		.2byte	0x10f
 2491 07b5 36030000 		.4byte	0x336
 2492 07b9 1A       		.uleb128 0x1a
 2493 07ba 79040000 		.4byte	.LASF124
 2494 07be 0A       		.byte	0xa
 2495 07bf 1601     		.2byte	0x116
 2496 07c1 EA070000 		.4byte	0x7ea
 2497 07c5 1A       		.uleb128 0x1a
 2498 07c6 33030000 		.4byte	.LASF125
 2499 07ca 0A       		.byte	0xa
 2500 07cb 1E01     		.2byte	0x11e
 2501 07cd 15080000 		.4byte	0x815
 2502 07d1 1A       		.uleb128 0x1a
 2503 07d2 21060000 		.4byte	.LASF126
ARM GAS  C:\Users\Luis\AppData\Local\Temp\ccE1imUd.s 			page 46


 2504 07d6 0A       		.byte	0xa
 2505 07d7 2701     		.2byte	0x127
 2506 07d9 4C080000 		.4byte	0x84c
 2507 07dd 1A       		.uleb128 0x1a
 2508 07de A4050000 		.4byte	.LASF127
 2509 07e2 0A       		.byte	0xa
 2510 07e3 2F01     		.2byte	0x12f
 2511 07e5 04010000 		.4byte	0x104
 2512 07e9 00       		.byte	0
 2513 07ea 0A       		.uleb128 0xa
 2514 07eb 04       		.byte	0x4
 2515 07ec 4E020000 		.4byte	0x24e
 2516 07f0 06       		.uleb128 0x6
 2517 07f1 FB050000 		.4byte	.LASF128
 2518 07f5 0C       		.byte	0xc
 2519 07f6 10       		.byte	0x10
 2520 07f7 34       		.byte	0x34
 2521 07f8 15080000 		.4byte	0x815
 2522 07fc 07       		.uleb128 0x7
 2523 07fd 1C040000 		.4byte	.LASF129
 2524 0801 10       		.byte	0x10
 2525 0802 35       		.byte	0x35
 2526 0803 83020000 		.4byte	0x283
 2527 0807 00       		.byte	0
 2528 0808 07       		.uleb128 0x7
 2529 0809 63030000 		.4byte	.LASF130
 2530 080d 10       		.byte	0x10
 2531 080e 37       		.byte	0x37
 2532 080f 0F010000 		.4byte	0x10f
 2533 0813 08       		.byte	0x8
 2534 0814 00       		.byte	0
 2535 0815 0A       		.uleb128 0xa
 2536 0816 04       		.byte	0x4
 2537 0817 F0070000 		.4byte	0x7f0
 2538 081b 06       		.uleb128 0x6
 2539 081c 61080000 		.4byte	.LASF131
 2540 0820 10       		.byte	0x10
 2541 0821 11       		.byte	0x11
 2542 0822 39       		.byte	0x39
 2543 0823 4C080000 		.4byte	0x84c
 2544 0827 07       		.uleb128 0x7
 2545 0828 B9010000 		.4byte	.LASF132
 2546 082c 11       		.byte	0x11
 2547 082d 3A       		.byte	0x3a
 2548 082e 83020000 		.4byte	0x283
 2549 0832 00       		.byte	0
 2550 0833 07       		.uleb128 0x7
 2551 0834 0C090000 		.4byte	.LASF133
 2552 0838 11       		.byte	0x11
 2553 0839 3C       		.byte	0x3c
 2554 083a 59020000 		.4byte	0x259
 2555 083e 08       		.byte	0x8
 2556 083f 07       		.uleb128 0x7
 2557 0840 72070000 		.4byte	.LASF134
 2558 0844 11       		.byte	0x11
 2559 0845 3E       		.byte	0x3e
 2560 0846 90080000 		.4byte	0x890
ARM GAS  C:\Users\Luis\AppData\Local\Temp\ccE1imUd.s 			page 47


 2561 084a 0C       		.byte	0xc
 2562 084b 00       		.byte	0
 2563 084c 0A       		.uleb128 0xa
 2564 084d 04       		.byte	0x4
 2565 084e 1B080000 		.4byte	0x81b
 2566 0852 0A       		.uleb128 0xa
 2567 0853 04       		.byte	0x4
 2568 0854 58080000 		.4byte	0x858
 2569 0858 1B       		.uleb128 0x1b
 2570 0859 5D080000 		.4byte	0x85d
 2571 085d 04       		.uleb128 0x4
 2572 085e 01       		.byte	0x1
 2573 085f 08       		.byte	0x8
 2574 0860 67060000 		.4byte	.LASF135
 2575 0864 0A       		.uleb128 0xa
 2576 0865 04       		.byte	0x4
 2577 0866 A3050000 		.4byte	0x5a3
 2578 086a 0A       		.uleb128 0xa
 2579 086b 04       		.byte	0x4
 2580 086c 38030000 		.4byte	0x338
 2581 0870 05       		.uleb128 0x5
 2582 0871 52080000 		.4byte	0x852
 2583 0875 17       		.uleb128 0x17
 2584 0876 A3050000 		.4byte	0x5a3
 2585 087a 85080000 		.4byte	0x885
 2586 087e 18       		.uleb128 0x18
 2587 087f A5040000 		.4byte	0x4a5
 2588 0883 1F       		.byte	0x1f
 2589 0884 00       		.byte	0
 2590 0885 03       		.uleb128 0x3
 2591 0886 E1020000 		.4byte	.LASF136
 2592 088a 11       		.byte	0x11
 2593 088b 34       		.byte	0x34
 2594 088c 1B080000 		.4byte	0x81b
 2595 0890 0A       		.uleb128 0xa
 2596 0891 04       		.byte	0x4
 2597 0892 85080000 		.4byte	0x885
 2598 0896 15       		.uleb128 0x15
 2599 0897 0C       		.byte	0xc
 2600 0898 12       		.byte	0x12
 2601 0899 DA       		.byte	0xda
 2602 089a DB080000 		.4byte	0x8db
 2603 089e 07       		.uleb128 0x7
 2604 089f 98000000 		.4byte	.LASF137
 2605 08a3 12       		.byte	0x12
 2606 08a4 DB       		.byte	0xdb
 2607 08a5 DB080000 		.4byte	0x8db
 2608 08a9 00       		.byte	0
 2609 08aa 07       		.uleb128 0x7
 2610 08ab 13060000 		.4byte	.LASF138
 2611 08af 12       		.byte	0x12
 2612 08b0 DC       		.byte	0xdc
 2613 08b1 E1080000 		.4byte	0x8e1
 2614 08b5 04       		.byte	0x4
 2615 08b6 07       		.uleb128 0x7
 2616 08b7 5C030000 		.4byte	.LASF139
 2617 08bb 12       		.byte	0x12
ARM GAS  C:\Users\Luis\AppData\Local\Temp\ccE1imUd.s 			page 48


 2618 08bc DD       		.byte	0xdd
 2619 08bd 45000000 		.4byte	0x45
 2620 08c1 08       		.byte	0x8
 2621 08c2 07       		.uleb128 0x7
 2622 08c3 40080000 		.4byte	.LASF140
 2623 08c7 12       		.byte	0x12
 2624 08c8 DF       		.byte	0xdf
 2625 08c9 45000000 		.4byte	0x45
 2626 08cd 09       		.byte	0x9
 2627 08ce 07       		.uleb128 0x7
 2628 08cf 13010000 		.4byte	.LASF141
 2629 08d3 12       		.byte	0x12
 2630 08d4 E0       		.byte	0xe0
 2631 08d5 45000000 		.4byte	0x45
 2632 08d9 0A       		.byte	0xa
 2633 08da 00       		.byte	0
 2634 08db 0A       		.uleb128 0xa
 2635 08dc 04       		.byte	0x4
 2636 08dd 03050000 		.4byte	0x503
 2637 08e1 0A       		.uleb128 0xa
 2638 08e2 04       		.byte	0x4
 2639 08e3 B2000000 		.4byte	0xb2
 2640 08e7 03       		.uleb128 0x3
 2641 08e8 1F050000 		.4byte	.LASF142
 2642 08ec 12       		.byte	0x12
 2643 08ed E1       		.byte	0xe1
 2644 08ee 96080000 		.4byte	0x896
 2645 08f2 04       		.uleb128 0x4
 2646 08f3 01       		.byte	0x1
 2647 08f4 02       		.byte	0x2
 2648 08f5 51050000 		.4byte	.LASF143
 2649 08f9 15       		.uleb128 0x15
 2650 08fa 04       		.byte	0x4
 2651 08fb 13       		.byte	0x13
 2652 08fc B3       		.byte	0xb3
 2653 08fd 1A090000 		.4byte	0x91a
 2654 0901 14       		.uleb128 0x14
 2655 0902 73657400 		.ascii	"set\000"
 2656 0906 13       		.byte	0x13
 2657 0907 B4       		.byte	0xb4
 2658 0908 5E000000 		.4byte	0x5e
 2659 090c 00       		.byte	0
 2660 090d 07       		.uleb128 0x7
 2661 090e 73040000 		.4byte	.LASF144
 2662 0912 13       		.byte	0x13
 2663 0913 B5       		.byte	0xb5
 2664 0914 5E000000 		.4byte	0x5e
 2665 0918 02       		.byte	0x2
 2666 0919 00       		.byte	0
 2667 091a 19       		.uleb128 0x19
 2668 091b 04       		.byte	0x4
 2669 091c 13       		.byte	0x13
 2670 091d B1       		.byte	0xb1
 2671 091e 35090000 		.4byte	0x935
 2672 0922 1C       		.uleb128 0x1c
 2673 0923 5700     		.ascii	"W\000"
 2674 0925 13       		.byte	0x13
ARM GAS  C:\Users\Luis\AppData\Local\Temp\ccE1imUd.s 			page 49


 2675 0926 B2       		.byte	0xb2
 2676 0927 82000000 		.4byte	0x82
 2677 092b 1C       		.uleb128 0x1c
 2678 092c 4800     		.ascii	"H\000"
 2679 092e 13       		.byte	0x13
 2680 092f B6       		.byte	0xb6
 2681 0930 F9080000 		.4byte	0x8f9
 2682 0934 00       		.byte	0
 2683 0935 15       		.uleb128 0x15
 2684 0936 2C       		.byte	0x2c
 2685 0937 13       		.byte	0x13
 2686 0938 A9       		.byte	0xa9
 2687 0939 C2090000 		.4byte	0x9c2
 2688 093d 07       		.uleb128 0x7
 2689 093e C2000000 		.4byte	.LASF145
 2690 0942 13       		.byte	0x13
 2691 0943 AB       		.byte	0xab
 2692 0944 B2000000 		.4byte	0xb2
 2693 0948 00       		.byte	0
 2694 0949 07       		.uleb128 0x7
 2695 094a 91000000 		.4byte	.LASF146
 2696 094e 13       		.byte	0x13
 2697 094f AC       		.byte	0xac
 2698 0950 B2000000 		.4byte	0xb2
 2699 0954 04       		.byte	0x4
 2700 0955 07       		.uleb128 0x7
 2701 0956 99020000 		.4byte	.LASF147
 2702 095a 13       		.byte	0x13
 2703 095b AD       		.byte	0xad
 2704 095c B2000000 		.4byte	0xb2
 2705 0960 08       		.byte	0x8
 2706 0961 07       		.uleb128 0x7
 2707 0962 04010000 		.4byte	.LASF148
 2708 0966 13       		.byte	0x13
 2709 0967 AE       		.byte	0xae
 2710 0968 B2000000 		.4byte	0xb2
 2711 096c 0C       		.byte	0xc
 2712 096d 14       		.uleb128 0x14
 2713 096e 49445200 		.ascii	"IDR\000"
 2714 0972 13       		.byte	0x13
 2715 0973 AF       		.byte	0xaf
 2716 0974 B2000000 		.4byte	0xb2
 2717 0978 10       		.byte	0x10
 2718 0979 14       		.uleb128 0x14
 2719 097a 4F445200 		.ascii	"ODR\000"
 2720 097e 13       		.byte	0x13
 2721 097f B0       		.byte	0xb0
 2722 0980 B2000000 		.4byte	0xb2
 2723 0984 14       		.byte	0x14
 2724 0985 07       		.uleb128 0x7
 2725 0986 A3010000 		.4byte	.LASF149
 2726 098a 13       		.byte	0x13
 2727 098b B7       		.byte	0xb7
 2728 098c C2090000 		.4byte	0x9c2
 2729 0990 18       		.byte	0x18
 2730 0991 07       		.uleb128 0x7
 2731 0992 57030000 		.4byte	.LASF150
ARM GAS  C:\Users\Luis\AppData\Local\Temp\ccE1imUd.s 			page 50


 2732 0996 13       		.byte	0x13
 2733 0997 B8       		.byte	0xb8
 2734 0998 B2000000 		.4byte	0xb2
 2735 099c 1C       		.byte	0x1c
 2736 099d 07       		.uleb128 0x7
 2737 099e F2040000 		.4byte	.LASF151
 2738 09a2 13       		.byte	0x13
 2739 09a3 B9       		.byte	0xb9
 2740 09a4 B2000000 		.4byte	0xb2
 2741 09a8 20       		.byte	0x20
 2742 09a9 07       		.uleb128 0x7
 2743 09aa DC040000 		.4byte	.LASF152
 2744 09ae 13       		.byte	0x13
 2745 09af BA       		.byte	0xba
 2746 09b0 B2000000 		.4byte	0xb2
 2747 09b4 24       		.byte	0x24
 2748 09b5 14       		.uleb128 0x14
 2749 09b6 42525200 		.ascii	"BRR\000"
 2750 09ba 13       		.byte	0x13
 2751 09bb BB       		.byte	0xbb
 2752 09bc B2000000 		.4byte	0xb2
 2753 09c0 28       		.byte	0x28
 2754 09c1 00       		.byte	0
 2755 09c2 05       		.uleb128 0x5
 2756 09c3 1A090000 		.4byte	0x91a
 2757 09c7 03       		.uleb128 0x3
 2758 09c8 89050000 		.4byte	.LASF153
 2759 09cc 13       		.byte	0x13
 2760 09cd BC       		.byte	0xbc
 2761 09ce 35090000 		.4byte	0x935
 2762 09d2 13       		.uleb128 0x13
 2763 09d3 FA070000 		.4byte	.LASF154
 2764 09d7 13       		.byte	0x13
 2765 09d8 1B01     		.2byte	0x11b
 2766 09da DE090000 		.4byte	0x9de
 2767 09de 0A       		.uleb128 0xa
 2768 09df 04       		.byte	0x4
 2769 09e0 C7090000 		.4byte	0x9c7
 2770 09e4 0A       		.uleb128 0xa
 2771 09e5 04       		.byte	0x4
 2772 09e6 EA090000 		.4byte	0x9ea
 2773 09ea 1B       		.uleb128 0x1b
 2774 09eb E7080000 		.4byte	0x8e7
 2775 09ef 1D       		.uleb128 0x1d
 2776 09f0 01       		.byte	0x1
 2777 09f1 14       		.byte	0x14
 2778 09f2 46       		.byte	0x46
 2779 09f3 160A0000 		.4byte	0xa16
 2780 09f7 1E       		.uleb128 0x1e
 2781 09f8 35080000 		.4byte	.LASF155
 2782 09fc 00       		.sleb128 0
 2783 09fd 1E       		.uleb128 0x1e
 2784 09fe A8010000 		.4byte	.LASF156
 2785 0a02 01       		.sleb128 1
 2786 0a03 1E       		.uleb128 0x1e
 2787 0a04 F1000000 		.4byte	.LASF157
 2788 0a08 02       		.sleb128 2
ARM GAS  C:\Users\Luis\AppData\Local\Temp\ccE1imUd.s 			page 51


 2789 0a09 1E       		.uleb128 0x1e
 2790 0a0a 4C000000 		.4byte	.LASF158
 2791 0a0e 03       		.sleb128 3
 2792 0a0f 1E       		.uleb128 0x1e
 2793 0a10 6C060000 		.4byte	.LASF159
 2794 0a14 04       		.sleb128 4
 2795 0a15 00       		.byte	0
 2796 0a16 03       		.uleb128 0x3
 2797 0a17 67070000 		.4byte	.LASF160
 2798 0a1b 14       		.byte	0x14
 2799 0a1c 4C       		.byte	0x4c
 2800 0a1d EF090000 		.4byte	0x9ef
 2801 0a21 13       		.uleb128 0x13
 2802 0a22 25010000 		.4byte	.LASF161
 2803 0a26 15       		.byte	0x15
 2804 0a27 9601     		.2byte	0x196
 2805 0a29 2D0A0000 		.4byte	0xa2d
 2806 0a2d 0B       		.uleb128 0xb
 2807 0a2e 25010000 		.4byte	.LASF161
 2808 0a32 30       		.byte	0x30
 2809 0a33 15       		.byte	0x15
 2810 0a34 BA01     		.2byte	0x1ba
 2811 0a36 B00A0000 		.4byte	0xab0
 2812 0a3a 09       		.uleb128 0x9
 2813 0a3b 1B020000 		.4byte	.LASF162
 2814 0a3f 15       		.byte	0x15
 2815 0a40 BE01     		.2byte	0x1be
 2816 0a42 160A0000 		.4byte	0xa16
 2817 0a46 00       		.byte	0
 2818 0a47 09       		.uleb128 0x9
 2819 0a48 79060000 		.4byte	.LASF163
 2820 0a4c 15       		.byte	0x15
 2821 0a4d C201     		.2byte	0x1c2
 2822 0a4f 1D0B0000 		.4byte	0xb1d
 2823 0a53 04       		.byte	0x4
 2824 0a54 09       		.uleb128 0x9
 2825 0a55 4D020000 		.4byte	.LASF164
 2826 0a59 15       		.byte	0x15
 2827 0a5a C701     		.2byte	0x1c7
 2828 0a5c 4E020000 		.4byte	0x24e
 2829 0a60 08       		.byte	0x8
 2830 0a61 09       		.uleb128 0x9
 2831 0a62 42050000 		.4byte	.LASF165
 2832 0a66 15       		.byte	0x15
 2833 0a67 CD01     		.2byte	0x1cd
 2834 0a69 85080000 		.4byte	0x885
 2835 0a6d 0C       		.byte	0xc
 2836 0a6e 08       		.uleb128 0x8
 2837 0a6f 73706900 		.ascii	"spi\000"
 2838 0a73 15       		.byte	0x15
 2839 0a74 D601     		.2byte	0x1d6
 2840 0a76 280B0000 		.4byte	0xb28
 2841 0a7a 1C       		.byte	0x1c
 2842 0a7b 09       		.uleb128 0x9
 2843 0a7c 00000000 		.4byte	.LASF166
 2844 0a80 15       		.byte	0x15
 2845 0a81 DA01     		.2byte	0x1da
ARM GAS  C:\Users\Luis\AppData\Local\Temp\ccE1imUd.s 			page 52


 2846 0a83 E4090000 		.4byte	0x9e4
 2847 0a87 20       		.byte	0x20
 2848 0a88 09       		.uleb128 0x9
 2849 0a89 8B020000 		.4byte	.LASF167
 2850 0a8d 15       		.byte	0x15
 2851 0a8e DE01     		.2byte	0x1de
 2852 0a90 E4090000 		.4byte	0x9e4
 2853 0a94 24       		.byte	0x24
 2854 0a95 09       		.uleb128 0x9
 2855 0a96 81020000 		.4byte	.LASF168
 2856 0a9a 15       		.byte	0x15
 2857 0a9b E201     		.2byte	0x1e2
 2858 0a9d 82000000 		.4byte	0x82
 2859 0aa1 28       		.byte	0x28
 2860 0aa2 09       		.uleb128 0x9
 2861 0aa3 AF040000 		.4byte	.LASF169
 2862 0aa7 15       		.byte	0x15
 2863 0aa8 E601     		.2byte	0x1e6
 2864 0aaa 82000000 		.4byte	0x82
 2865 0aae 2C       		.byte	0x2c
 2866 0aaf 00       		.byte	0
 2867 0ab0 13       		.uleb128 0x13
 2868 0ab1 0D020000 		.4byte	.LASF170
 2869 0ab5 15       		.byte	0x15
 2870 0ab6 9E01     		.2byte	0x19e
 2871 0ab8 BC0A0000 		.4byte	0xabc
 2872 0abc 0A       		.uleb128 0xa
 2873 0abd 04       		.byte	0x4
 2874 0abe C20A0000 		.4byte	0xac2
 2875 0ac2 0C       		.uleb128 0xc
 2876 0ac3 CD0A0000 		.4byte	0xacd
 2877 0ac7 0D       		.uleb128 0xd
 2878 0ac8 CD0A0000 		.4byte	0xacd
 2879 0acc 00       		.byte	0
 2880 0acd 0A       		.uleb128 0xa
 2881 0ace 04       		.byte	0x4
 2882 0acf 210A0000 		.4byte	0xa21
 2883 0ad3 12       		.uleb128 0x12
 2884 0ad4 0C       		.byte	0xc
 2885 0ad5 15       		.byte	0x15
 2886 0ad6 A301     		.2byte	0x1a3
 2887 0ad8 110B0000 		.4byte	0xb11
 2888 0adc 09       		.uleb128 0x9
 2889 0add 7A020000 		.4byte	.LASF171
 2890 0ae1 15       		.byte	0x15
 2891 0ae2 A701     		.2byte	0x1a7
 2892 0ae4 B00A0000 		.4byte	0xab0
 2893 0ae8 00       		.byte	0
 2894 0ae9 09       		.uleb128 0x9
 2895 0aea 2F010000 		.4byte	.LASF172
 2896 0aee 15       		.byte	0x15
 2897 0aef AC01     		.2byte	0x1ac
 2898 0af1 D2090000 		.4byte	0x9d2
 2899 0af5 04       		.byte	0x4
 2900 0af6 09       		.uleb128 0x9
 2901 0af7 6F010000 		.4byte	.LASF173
 2902 0afb 15       		.byte	0x15
ARM GAS  C:\Users\Luis\AppData\Local\Temp\ccE1imUd.s 			page 53


 2903 0afc B001     		.2byte	0x1b0
 2904 0afe 5E000000 		.4byte	0x5e
 2905 0b02 08       		.byte	0x8
 2906 0b03 08       		.uleb128 0x8
 2907 0b04 63723100 		.ascii	"cr1\000"
 2908 0b08 15       		.byte	0x15
 2909 0b09 B401     		.2byte	0x1b4
 2910 0b0b 5E000000 		.4byte	0x5e
 2911 0b0f 0A       		.byte	0xa
 2912 0b10 00       		.byte	0
 2913 0b11 13       		.uleb128 0x13
 2914 0b12 0D080000 		.4byte	.LASF174
 2915 0b16 15       		.byte	0x15
 2916 0b17 B501     		.2byte	0x1b5
 2917 0b19 D30A0000 		.4byte	0xad3
 2918 0b1d 0A       		.uleb128 0xa
 2919 0b1e 04       		.byte	0x4
 2920 0b1f 230B0000 		.4byte	0xb23
 2921 0b23 1B       		.uleb128 0x1b
 2922 0b24 110B0000 		.4byte	0xb11
 2923 0b28 0A       		.uleb128 0xa
 2924 0b29 04       		.byte	0x4
 2925 0b2a 8C050000 		.4byte	0x58c
 2926 0b2e 1F       		.uleb128 0x1f
 2927 0b2f 9D070000 		.4byte	.LASF207
 2928 0b33 02       		.byte	0x2
 2929 0b34 2002     		.2byte	0x220
 2930 0b36 03       		.byte	0x3
 2931 0b37 480B0000 		.4byte	0xb48
 2932 0b3b 20       		.uleb128 0x20
 2933 0b3c E9020000 		.4byte	.LASF208
 2934 0b40 02       		.byte	0x2
 2935 0b41 2002     		.2byte	0x220
 2936 0b43 82000000 		.4byte	0x82
 2937 0b47 00       		.byte	0
 2938 0b48 21       		.uleb128 0x21
 2939 0b49 9F000000 		.4byte	.LASF175
 2940 0b4d 01       		.byte	0x1
 2941 0b4e BC01     		.2byte	0x1bc
 2942 0b50 00000000 		.4byte	.LFB116
 2943 0b54 1A000000 		.4byte	.LFE116-.LFB116
 2944 0b58 01       		.uleb128 0x1
 2945 0b59 9C       		.byte	0x9c
 2946 0b5a 780B0000 		.4byte	0xb78
 2947 0b5e 22       		.uleb128 0x22
 2948 0b5f 2E0B0000 		.4byte	0xb2e
 2949 0b63 0A000000 		.4byte	.LBB6
 2950 0b67 06000000 		.4byte	.LBE6-.LBB6
 2951 0b6b 01       		.byte	0x1
 2952 0b6c BF01     		.2byte	0x1bf
 2953 0b6e 23       		.uleb128 0x23
 2954 0b6f 3B0B0000 		.4byte	0xb3b
 2955 0b73 02       		.uleb128 0x2
 2956 0b74 91       		.byte	0x91
 2957 0b75 74       		.sleb128 -12
 2958 0b76 00       		.byte	0
 2959 0b77 00       		.byte	0
ARM GAS  C:\Users\Luis\AppData\Local\Temp\ccE1imUd.s 			page 54


 2960 0b78 21       		.uleb128 0x21
 2961 0b79 C8010000 		.4byte	.LASF176
 2962 0b7d 01       		.byte	0x1
 2963 0b7e CA01     		.2byte	0x1ca
 2964 0b80 00000000 		.4byte	.LFB117
 2965 0b84 1A000000 		.4byte	.LFE117-.LFB117
 2966 0b88 01       		.uleb128 0x1
 2967 0b89 9C       		.byte	0x9c
 2968 0b8a A80B0000 		.4byte	0xba8
 2969 0b8e 22       		.uleb128 0x22
 2970 0b8f 2E0B0000 		.4byte	0xb2e
 2971 0b93 0A000000 		.4byte	.LBB8
 2972 0b97 06000000 		.4byte	.LBE8-.LBB8
 2973 0b9b 01       		.byte	0x1
 2974 0b9c CD01     		.2byte	0x1cd
 2975 0b9e 23       		.uleb128 0x23
 2976 0b9f 3B0B0000 		.4byte	0xb3b
 2977 0ba3 02       		.uleb128 0x2
 2978 0ba4 91       		.byte	0x91
 2979 0ba5 74       		.sleb128 -12
 2980 0ba6 00       		.byte	0
 2981 0ba7 00       		.byte	0
 2982 0ba8 24       		.uleb128 0x24
 2983 0ba9 D3050000 		.4byte	.LASF178
 2984 0bad 03       		.byte	0x3
 2985 0bae 5A01     		.2byte	0x15a
 2986 0bb0 00000000 		.4byte	.LFB156
 2987 0bb4 12000000 		.4byte	.LFE156-.LFB156
 2988 0bb8 01       		.uleb128 0x1
 2989 0bb9 9C       		.byte	0x9c
 2990 0bba 25       		.uleb128 0x25
 2991 0bbb E5080000 		.4byte	.LASF177
 2992 0bbf 03       		.byte	0x3
 2993 0bc0 6601     		.2byte	0x166
 2994 0bc2 00000000 		.4byte	.LFB157
 2995 0bc6 3C000000 		.4byte	.LFE157-.LFB157
 2996 0bca 01       		.uleb128 0x1
 2997 0bcb 9C       		.byte	0x9c
 2998 0bcc E00B0000 		.4byte	0xbe0
 2999 0bd0 26       		.uleb128 0x26
 3000 0bd1 C2050000 		.4byte	.LASF187
 3001 0bd5 F00B0000 		.4byte	0xbf0
 3002 0bd9 05       		.uleb128 0x5
 3003 0bda 03       		.byte	0x3
 3004 0bdb 00000000 		.4byte	__func__.5842
 3005 0bdf 00       		.byte	0
 3006 0be0 17       		.uleb128 0x17
 3007 0be1 5D080000 		.4byte	0x85d
 3008 0be5 F00B0000 		.4byte	0xbf0
 3009 0be9 18       		.uleb128 0x18
 3010 0bea A5040000 		.4byte	0x4a5
 3011 0bee 0B       		.byte	0xb
 3012 0bef 00       		.byte	0
 3013 0bf0 1B       		.uleb128 0x1b
 3014 0bf1 E00B0000 		.4byte	0xbe0
 3015 0bf5 24       		.uleb128 0x24
 3016 0bf6 D5020000 		.4byte	.LASF179
ARM GAS  C:\Users\Luis\AppData\Local\Temp\ccE1imUd.s 			page 55


 3017 0bfa 04       		.byte	0x4
 3018 0bfb EB01     		.2byte	0x1eb
 3019 0bfd 00000000 		.4byte	.LFB233
 3020 0c01 0A000000 		.4byte	.LFE233-.LFB233
 3021 0c05 01       		.uleb128 0x1
 3022 0c06 9C       		.byte	0x9c
 3023 0c07 24       		.uleb128 0x24
 3024 0c08 E7050000 		.4byte	.LASF180
 3025 0c0c 04       		.byte	0x4
 3026 0c0d F601     		.2byte	0x1f6
 3027 0c0f 00000000 		.4byte	.LFB234
 3028 0c13 0A000000 		.4byte	.LFE234-.LFB234
 3029 0c17 01       		.uleb128 0x1
 3030 0c18 9C       		.byte	0x9c
 3031 0c19 27       		.uleb128 0x27
 3032 0c1a A2030000 		.4byte	.LASF209
 3033 0c1e 04       		.byte	0x4
 3034 0c1f AE02     		.2byte	0x2ae
 3035 0c21 F9000000 		.4byte	0xf9
 3036 0c25 00000000 		.4byte	.LFB246
 3037 0c29 18000000 		.4byte	.LFE246-.LFB246
 3038 0c2d 01       		.uleb128 0x1
 3039 0c2e 9C       		.byte	0x9c
 3040 0c2f 430C0000 		.4byte	0xc43
 3041 0c33 28       		.uleb128 0x28
 3042 0c34 74727000 		.ascii	"trp\000"
 3043 0c38 04       		.byte	0x4
 3044 0c39 AE02     		.2byte	0x2ae
 3045 0c3b EA070000 		.4byte	0x7ea
 3046 0c3f 02       		.uleb128 0x2
 3047 0c40 91       		.byte	0x91
 3048 0c41 74       		.sleb128 -12
 3049 0c42 00       		.byte	0
 3050 0c43 25       		.uleb128 0x25
 3051 0c44 75010000 		.4byte	.LASF181
 3052 0c48 04       		.byte	0x4
 3053 0c49 7403     		.2byte	0x374
 3054 0c4b 00000000 		.4byte	.LFB257
 3055 0c4f 14000000 		.4byte	.LFE257-.LFB257
 3056 0c53 01       		.uleb128 0x1
 3057 0c54 9C       		.byte	0x9c
 3058 0c55 680C0000 		.4byte	0xc68
 3059 0c59 28       		.uleb128 0x28
 3060 0c5a 6D7000   		.ascii	"mp\000"
 3061 0c5d 04       		.byte	0x4
 3062 0c5e 7403     		.2byte	0x374
 3063 0c60 90080000 		.4byte	0x890
 3064 0c64 02       		.uleb128 0x2
 3065 0c65 91       		.byte	0x91
 3066 0c66 74       		.sleb128 -12
 3067 0c67 00       		.byte	0
 3068 0c68 25       		.uleb128 0x25
 3069 0c69 AB070000 		.4byte	.LASF182
 3070 0c6d 04       		.byte	0x4
 3071 0c6e 8803     		.2byte	0x388
 3072 0c70 00000000 		.4byte	.LFB258
 3073 0c74 14000000 		.4byte	.LFE258-.LFB258
ARM GAS  C:\Users\Luis\AppData\Local\Temp\ccE1imUd.s 			page 56


 3074 0c78 01       		.uleb128 0x1
 3075 0c79 9C       		.byte	0x9c
 3076 0c7a 8D0C0000 		.4byte	0xc8d
 3077 0c7e 28       		.uleb128 0x28
 3078 0c7f 6D7000   		.ascii	"mp\000"
 3079 0c82 04       		.byte	0x4
 3080 0c83 8803     		.2byte	0x388
 3081 0c85 90080000 		.4byte	0x890
 3082 0c89 02       		.uleb128 0x2
 3083 0c8a 91       		.byte	0x91
 3084 0c8b 74       		.sleb128 -12
 3085 0c8c 00       		.byte	0
 3086 0c8d 25       		.uleb128 0x25
 3087 0c8e 80060000 		.4byte	.LASF183
 3088 0c92 04       		.byte	0x4
 3089 0c93 A003     		.2byte	0x3a0
 3090 0c95 00000000 		.4byte	.LFB259
 3091 0c99 14000000 		.4byte	.LFE259-.LFB259
 3092 0c9d 01       		.uleb128 0x1
 3093 0c9e 9C       		.byte	0x9c
 3094 0c9f B20C0000 		.4byte	0xcb2
 3095 0ca3 28       		.uleb128 0x28
 3096 0ca4 6D7000   		.ascii	"mp\000"
 3097 0ca7 04       		.byte	0x4
 3098 0ca8 A003     		.2byte	0x3a0
 3099 0caa 90080000 		.4byte	0x890
 3100 0cae 02       		.uleb128 0x2
 3101 0caf 91       		.byte	0x91
 3102 0cb0 74       		.sleb128 -12
 3103 0cb1 00       		.byte	0
 3104 0cb2 29       		.uleb128 0x29
 3105 0cb3 14040000 		.4byte	.LASF210
 3106 0cb7 05       		.byte	0x5
 3107 0cb8 38       		.byte	0x38
 3108 0cb9 00000000 		.4byte	.LFB260
 3109 0cbd 0A000000 		.4byte	.LFE260-.LFB260
 3110 0cc1 01       		.uleb128 0x1
 3111 0cc2 9C       		.byte	0x9c
 3112 0cc3 2A       		.uleb128 0x2a
 3113 0cc4 96050000 		.4byte	.LASF185
 3114 0cc8 05       		.byte	0x5
 3115 0cc9 44       		.byte	0x44
 3116 0cca 00000000 		.4byte	.LFB261
 3117 0cce 2A000000 		.4byte	.LFE261-.LFB261
 3118 0cd2 01       		.uleb128 0x1
 3119 0cd3 9C       		.byte	0x9c
 3120 0cd4 E70C0000 		.4byte	0xce7
 3121 0cd8 2B       		.uleb128 0x2b
 3122 0cd9 A8080000 		.4byte	.LASF184
 3123 0cdd 05       		.byte	0x5
 3124 0cde 44       		.byte	0x44
 3125 0cdf CD0A0000 		.4byte	0xacd
 3126 0ce3 02       		.uleb128 0x2
 3127 0ce4 91       		.byte	0x91
 3128 0ce5 74       		.sleb128 -12
 3129 0ce6 00       		.byte	0
 3130 0ce7 2A       		.uleb128 0x2a
ARM GAS  C:\Users\Luis\AppData\Local\Temp\ccE1imUd.s 			page 57


 3131 0ce8 C0030000 		.4byte	.LASF186
 3132 0cec 05       		.byte	0x5
 3133 0ced 5B       		.byte	0x5b
 3134 0cee 00000000 		.4byte	.LFB262
 3135 0cf2 58000000 		.4byte	.LFE262-.LFB262
 3136 0cf6 01       		.uleb128 0x1
 3137 0cf7 9C       		.byte	0x9c
 3138 0cf8 280D0000 		.4byte	0xd28
 3139 0cfc 2B       		.uleb128 0x2b
 3140 0cfd A8080000 		.4byte	.LASF184
 3141 0d01 05       		.byte	0x5
 3142 0d02 5B       		.byte	0x5b
 3143 0d03 CD0A0000 		.4byte	0xacd
 3144 0d07 02       		.uleb128 0x2
 3145 0d08 91       		.byte	0x91
 3146 0d09 74       		.sleb128 -12
 3147 0d0a 2B       		.uleb128 0x2b
 3148 0d0b 79060000 		.4byte	.LASF163
 3149 0d0f 05       		.byte	0x5
 3150 0d10 5B       		.byte	0x5b
 3151 0d11 1D0B0000 		.4byte	0xb1d
 3152 0d15 02       		.uleb128 0x2
 3153 0d16 91       		.byte	0x91
 3154 0d17 70       		.sleb128 -16
 3155 0d18 26       		.uleb128 0x26
 3156 0d19 C2050000 		.4byte	.LASF187
 3157 0d1d 380D0000 		.4byte	0xd38
 3158 0d21 05       		.uleb128 0x5
 3159 0d22 03       		.byte	0x3
 3160 0d23 00000000 		.4byte	__func__.7913
 3161 0d27 00       		.byte	0
 3162 0d28 17       		.uleb128 0x17
 3163 0d29 5D080000 		.4byte	0x85d
 3164 0d2d 380D0000 		.4byte	0xd38
 3165 0d31 18       		.uleb128 0x18
 3166 0d32 A5040000 		.4byte	0x4a5
 3167 0d36 08       		.byte	0x8
 3168 0d37 00       		.byte	0
 3169 0d38 1B       		.uleb128 0x1b
 3170 0d39 280D0000 		.4byte	0xd28
 3171 0d3d 2A       		.uleb128 0x2a
 3172 0d3e B2050000 		.4byte	.LASF188
 3173 0d42 05       		.byte	0x5
 3174 0d43 71       		.byte	0x71
 3175 0d44 00000000 		.4byte	.LFB263
 3176 0d48 48000000 		.4byte	.LFE263-.LFB263
 3177 0d4c 01       		.uleb128 0x1
 3178 0d4d 9C       		.byte	0x9c
 3179 0d4e 700D0000 		.4byte	0xd70
 3180 0d52 2B       		.uleb128 0x2b
 3181 0d53 A8080000 		.4byte	.LASF184
 3182 0d57 05       		.byte	0x5
 3183 0d58 71       		.byte	0x71
 3184 0d59 CD0A0000 		.4byte	0xacd
 3185 0d5d 02       		.uleb128 0x2
 3186 0d5e 91       		.byte	0x91
 3187 0d5f 74       		.sleb128 -12
ARM GAS  C:\Users\Luis\AppData\Local\Temp\ccE1imUd.s 			page 58


 3188 0d60 26       		.uleb128 0x26
 3189 0d61 C2050000 		.4byte	.LASF187
 3190 0d65 800D0000 		.4byte	0xd80
 3191 0d69 05       		.uleb128 0x5
 3192 0d6a 03       		.byte	0x3
 3193 0d6b 00000000 		.4byte	__func__.7917
 3194 0d6f 00       		.byte	0
 3195 0d70 17       		.uleb128 0x17
 3196 0d71 5D080000 		.4byte	0x85d
 3197 0d75 800D0000 		.4byte	0xd80
 3198 0d79 18       		.uleb128 0x18
 3199 0d7a A5040000 		.4byte	0x4a5
 3200 0d7e 07       		.byte	0x7
 3201 0d7f 00       		.byte	0
 3202 0d80 1B       		.uleb128 0x1b
 3203 0d81 700D0000 		.4byte	0xd70
 3204 0d85 2A       		.uleb128 0x2a
 3205 0d86 DD050000 		.4byte	.LASF189
 3206 0d8a 05       		.byte	0x5
 3207 0d8b 84       		.byte	0x84
 3208 0d8c 00000000 		.4byte	.LFB264
 3209 0d90 3C000000 		.4byte	.LFE264-.LFB264
 3210 0d94 01       		.uleb128 0x1
 3211 0d95 9C       		.byte	0x9c
 3212 0d96 B80D0000 		.4byte	0xdb8
 3213 0d9a 2B       		.uleb128 0x2b
 3214 0d9b A8080000 		.4byte	.LASF184
 3215 0d9f 05       		.byte	0x5
 3216 0da0 84       		.byte	0x84
 3217 0da1 CD0A0000 		.4byte	0xacd
 3218 0da5 02       		.uleb128 0x2
 3219 0da6 91       		.byte	0x91
 3220 0da7 74       		.sleb128 -12
 3221 0da8 26       		.uleb128 0x26
 3222 0da9 C2050000 		.4byte	.LASF187
 3223 0dad C80D0000 		.4byte	0xdc8
 3224 0db1 05       		.uleb128 0x5
 3225 0db2 03       		.byte	0x3
 3226 0db3 00000000 		.4byte	__func__.7921
 3227 0db7 00       		.byte	0
 3228 0db8 17       		.uleb128 0x17
 3229 0db9 5D080000 		.4byte	0x85d
 3230 0dbd C80D0000 		.4byte	0xdc8
 3231 0dc1 18       		.uleb128 0x18
 3232 0dc2 A5040000 		.4byte	0x4a5
 3233 0dc6 09       		.byte	0x9
 3234 0dc7 00       		.byte	0
 3235 0dc8 1B       		.uleb128 0x1b
 3236 0dc9 B80D0000 		.4byte	0xdb8
 3237 0dcd 2A       		.uleb128 0x2a
 3238 0dce C9020000 		.4byte	.LASF190
 3239 0dd2 05       		.byte	0x5
 3240 0dd3 96       		.byte	0x96
 3241 0dd4 00000000 		.4byte	.LFB265
 3242 0dd8 3C000000 		.4byte	.LFE265-.LFB265
 3243 0ddc 01       		.uleb128 0x1
 3244 0ddd 9C       		.byte	0x9c
ARM GAS  C:\Users\Luis\AppData\Local\Temp\ccE1imUd.s 			page 59


 3245 0dde 000E0000 		.4byte	0xe00
 3246 0de2 2B       		.uleb128 0x2b
 3247 0de3 A8080000 		.4byte	.LASF184
 3248 0de7 05       		.byte	0x5
 3249 0de8 96       		.byte	0x96
 3250 0de9 CD0A0000 		.4byte	0xacd
 3251 0ded 02       		.uleb128 0x2
 3252 0dee 91       		.byte	0x91
 3253 0def 74       		.sleb128 -12
 3254 0df0 26       		.uleb128 0x26
 3255 0df1 C2050000 		.4byte	.LASF187
 3256 0df5 000E0000 		.4byte	0xe00
 3257 0df9 05       		.uleb128 0x5
 3258 0dfa 03       		.byte	0x3
 3259 0dfb 00000000 		.4byte	__func__.7925
 3260 0dff 00       		.byte	0
 3261 0e00 1B       		.uleb128 0x1b
 3262 0e01 E00B0000 		.4byte	0xbe0
 3263 0e05 2A       		.uleb128 0x2a
 3264 0e06 63020000 		.4byte	.LASF191
 3265 0e0a 05       		.byte	0x5
 3266 0e0b AD       		.byte	0xad
 3267 0e0c 00000000 		.4byte	.LFB266
 3268 0e10 4C000000 		.4byte	.LFE266-.LFB266
 3269 0e14 01       		.uleb128 0x1
 3270 0e15 9C       		.byte	0x9c
 3271 0e16 440E0000 		.4byte	0xe44
 3272 0e1a 2B       		.uleb128 0x2b
 3273 0e1b A8080000 		.4byte	.LASF184
 3274 0e1f 05       		.byte	0x5
 3275 0e20 AD       		.byte	0xad
 3276 0e21 CD0A0000 		.4byte	0xacd
 3277 0e25 02       		.uleb128 0x2
 3278 0e26 91       		.byte	0x91
 3279 0e27 74       		.sleb128 -12
 3280 0e28 2C       		.uleb128 0x2c
 3281 0e29 6E00     		.ascii	"n\000"
 3282 0e2b 05       		.byte	0x5
 3283 0e2c AD       		.byte	0xad
 3284 0e2d 2C000000 		.4byte	0x2c
 3285 0e31 02       		.uleb128 0x2
 3286 0e32 91       		.byte	0x91
 3287 0e33 70       		.sleb128 -16
 3288 0e34 26       		.uleb128 0x26
 3289 0e35 C2050000 		.4byte	.LASF187
 3290 0e39 540E0000 		.4byte	0xe54
 3291 0e3d 05       		.uleb128 0x5
 3292 0e3e 03       		.byte	0x3
 3293 0e3f 00000000 		.4byte	__func__.7930
 3294 0e43 00       		.byte	0
 3295 0e44 17       		.uleb128 0x17
 3296 0e45 5D080000 		.4byte	0x85d
 3297 0e49 540E0000 		.4byte	0xe54
 3298 0e4d 18       		.uleb128 0x18
 3299 0e4e A5040000 		.4byte	0x4a5
 3300 0e52 0E       		.byte	0xe
 3301 0e53 00       		.byte	0
ARM GAS  C:\Users\Luis\AppData\Local\Temp\ccE1imUd.s 			page 60


 3302 0e54 1B       		.uleb128 0x1b
 3303 0e55 440E0000 		.4byte	0xe44
 3304 0e59 2A       		.uleb128 0x2a
 3305 0e5a 79080000 		.4byte	.LASF192
 3306 0e5e 05       		.byte	0x5
 3307 0e5f C8       		.byte	0xc8
 3308 0e60 00000000 		.4byte	.LFB267
 3309 0e64 60000000 		.4byte	.LFE267-.LFB267
 3310 0e68 01       		.uleb128 0x1
 3311 0e69 9C       		.byte	0x9c
 3312 0e6a B40E0000 		.4byte	0xeb4
 3313 0e6e 2B       		.uleb128 0x2b
 3314 0e6f A8080000 		.4byte	.LASF184
 3315 0e73 05       		.byte	0x5
 3316 0e74 C8       		.byte	0xc8
 3317 0e75 CD0A0000 		.4byte	0xacd
 3318 0e79 02       		.uleb128 0x2
 3319 0e7a 91       		.byte	0x91
 3320 0e7b 74       		.sleb128 -12
 3321 0e7c 2C       		.uleb128 0x2c
 3322 0e7d 6E00     		.ascii	"n\000"
 3323 0e7f 05       		.byte	0x5
 3324 0e80 C8       		.byte	0xc8
 3325 0e81 2C000000 		.4byte	0x2c
 3326 0e85 02       		.uleb128 0x2
 3327 0e86 91       		.byte	0x91
 3328 0e87 70       		.sleb128 -16
 3329 0e88 2B       		.uleb128 0x2b
 3330 0e89 2D030000 		.4byte	.LASF193
 3331 0e8d 05       		.byte	0x5
 3332 0e8e C9       		.byte	0xc9
 3333 0e8f B40E0000 		.4byte	0xeb4
 3334 0e93 02       		.uleb128 0x2
 3335 0e94 91       		.byte	0x91
 3336 0e95 6C       		.sleb128 -20
 3337 0e96 2B       		.uleb128 0x2b
 3338 0e97 59010000 		.4byte	.LASF194
 3339 0e9b 05       		.byte	0x5
 3340 0e9c C9       		.byte	0xc9
 3341 0e9d 36030000 		.4byte	0x336
 3342 0ea1 02       		.uleb128 0x2
 3343 0ea2 91       		.byte	0x91
 3344 0ea3 68       		.sleb128 -24
 3345 0ea4 26       		.uleb128 0x26
 3346 0ea5 C2050000 		.4byte	.LASF187
 3347 0ea9 CB0E0000 		.4byte	0xecb
 3348 0ead 05       		.uleb128 0x5
 3349 0eae 03       		.byte	0x3
 3350 0eaf 00000000 		.4byte	__func__.7937
 3351 0eb3 00       		.byte	0
 3352 0eb4 0A       		.uleb128 0xa
 3353 0eb5 04       		.byte	0x4
 3354 0eb6 BA0E0000 		.4byte	0xeba
 3355 0eba 2D       		.uleb128 0x2d
 3356 0ebb 17       		.uleb128 0x17
 3357 0ebc 5D080000 		.4byte	0x85d
 3358 0ec0 CB0E0000 		.4byte	0xecb
ARM GAS  C:\Users\Luis\AppData\Local\Temp\ccE1imUd.s 			page 61


 3359 0ec4 18       		.uleb128 0x18
 3360 0ec5 A5040000 		.4byte	0x4a5
 3361 0ec9 10       		.byte	0x10
 3362 0eca 00       		.byte	0
 3363 0ecb 1B       		.uleb128 0x1b
 3364 0ecc BB0E0000 		.4byte	0xebb
 3365 0ed0 2A       		.uleb128 0x2a
 3366 0ed1 69030000 		.4byte	.LASF195
 3367 0ed5 05       		.byte	0x5
 3368 0ed6 E3       		.byte	0xe3
 3369 0ed7 00000000 		.4byte	.LFB268
 3370 0edb 54000000 		.4byte	.LFE268-.LFB268
 3371 0edf 01       		.uleb128 0x1
 3372 0ee0 9C       		.byte	0x9c
 3373 0ee1 1D0F0000 		.4byte	0xf1d
 3374 0ee5 2B       		.uleb128 0x2b
 3375 0ee6 A8080000 		.4byte	.LASF184
 3376 0eea 05       		.byte	0x5
 3377 0eeb E3       		.byte	0xe3
 3378 0eec CD0A0000 		.4byte	0xacd
 3379 0ef0 02       		.uleb128 0x2
 3380 0ef1 91       		.byte	0x91
 3381 0ef2 74       		.sleb128 -12
 3382 0ef3 2C       		.uleb128 0x2c
 3383 0ef4 6E00     		.ascii	"n\000"
 3384 0ef6 05       		.byte	0x5
 3385 0ef7 E3       		.byte	0xe3
 3386 0ef8 2C000000 		.4byte	0x2c
 3387 0efc 02       		.uleb128 0x2
 3388 0efd 91       		.byte	0x91
 3389 0efe 70       		.sleb128 -16
 3390 0eff 2B       		.uleb128 0x2b
 3391 0f00 2D030000 		.4byte	.LASF193
 3392 0f04 05       		.byte	0x5
 3393 0f05 E3       		.byte	0xe3
 3394 0f06 B40E0000 		.4byte	0xeb4
 3395 0f0a 02       		.uleb128 0x2
 3396 0f0b 91       		.byte	0x91
 3397 0f0c 6C       		.sleb128 -20
 3398 0f0d 26       		.uleb128 0x26
 3399 0f0e C2050000 		.4byte	.LASF187
 3400 0f12 2D0F0000 		.4byte	0xf2d
 3401 0f16 05       		.uleb128 0x5
 3402 0f17 03       		.byte	0x3
 3403 0f18 00000000 		.4byte	__func__.7943
 3404 0f1c 00       		.byte	0
 3405 0f1d 17       		.uleb128 0x17
 3406 0f1e 5D080000 		.4byte	0x85d
 3407 0f22 2D0F0000 		.4byte	0xf2d
 3408 0f26 18       		.uleb128 0x18
 3409 0f27 A5040000 		.4byte	0x4a5
 3410 0f2b 0C       		.byte	0xc
 3411 0f2c 00       		.byte	0
 3412 0f2d 1B       		.uleb128 0x1b
 3413 0f2e 1D0F0000 		.4byte	0xf1d
 3414 0f32 2A       		.uleb128 0x2a
 3415 0f33 3D020000 		.4byte	.LASF196
ARM GAS  C:\Users\Luis\AppData\Local\Temp\ccE1imUd.s 			page 62


 3416 0f37 05       		.byte	0x5
 3417 0f38 FC       		.byte	0xfc
 3418 0f39 00000000 		.4byte	.LFB269
 3419 0f3d 54000000 		.4byte	.LFE269-.LFB269
 3420 0f41 01       		.uleb128 0x1
 3421 0f42 9C       		.byte	0x9c
 3422 0f43 7F0F0000 		.4byte	0xf7f
 3423 0f47 2B       		.uleb128 0x2b
 3424 0f48 A8080000 		.4byte	.LASF184
 3425 0f4c 05       		.byte	0x5
 3426 0f4d FC       		.byte	0xfc
 3427 0f4e CD0A0000 		.4byte	0xacd
 3428 0f52 02       		.uleb128 0x2
 3429 0f53 91       		.byte	0x91
 3430 0f54 74       		.sleb128 -12
 3431 0f55 2C       		.uleb128 0x2c
 3432 0f56 6E00     		.ascii	"n\000"
 3433 0f58 05       		.byte	0x5
 3434 0f59 FC       		.byte	0xfc
 3435 0f5a 2C000000 		.4byte	0x2c
 3436 0f5e 02       		.uleb128 0x2
 3437 0f5f 91       		.byte	0x91
 3438 0f60 70       		.sleb128 -16
 3439 0f61 2B       		.uleb128 0x2b
 3440 0f62 59010000 		.4byte	.LASF194
 3441 0f66 05       		.byte	0x5
 3442 0f67 FC       		.byte	0xfc
 3443 0f68 36030000 		.4byte	0x336
 3444 0f6c 02       		.uleb128 0x2
 3445 0f6d 91       		.byte	0x91
 3446 0f6e 6C       		.sleb128 -20
 3447 0f6f 26       		.uleb128 0x26
 3448 0f70 C2050000 		.4byte	.LASF187
 3449 0f74 8F0F0000 		.4byte	0xf8f
 3450 0f78 05       		.uleb128 0x5
 3451 0f79 03       		.byte	0x3
 3452 0f7a 00000000 		.4byte	__func__.7949
 3453 0f7e 00       		.byte	0
 3454 0f7f 17       		.uleb128 0x17
 3455 0f80 5D080000 		.4byte	0x85d
 3456 0f84 8F0F0000 		.4byte	0xf8f
 3457 0f88 18       		.uleb128 0x18
 3458 0f89 A5040000 		.4byte	0x4a5
 3459 0f8d 0F       		.byte	0xf
 3460 0f8e 00       		.byte	0
 3461 0f8f 1B       		.uleb128 0x1b
 3462 0f90 7F0F0000 		.4byte	0xf7f
 3463 0f94 2E       		.uleb128 0x2e
 3464 0f95 D6070000 		.4byte	.LASF197
 3465 0f99 05       		.byte	0x5
 3466 0f9a 1501     		.2byte	0x115
 3467 0f9c 00000000 		.4byte	.LFB270
 3468 0fa0 64000000 		.4byte	.LFE270-.LFB270
 3469 0fa4 01       		.uleb128 0x1
 3470 0fa5 9C       		.byte	0x9c
 3471 0fa6 D60F0000 		.4byte	0xfd6
 3472 0faa 2F       		.uleb128 0x2f
ARM GAS  C:\Users\Luis\AppData\Local\Temp\ccE1imUd.s 			page 63


 3473 0fab A8080000 		.4byte	.LASF184
 3474 0faf 05       		.byte	0x5
 3475 0fb0 1501     		.2byte	0x115
 3476 0fb2 CD0A0000 		.4byte	0xacd
 3477 0fb6 02       		.uleb128 0x2
 3478 0fb7 91       		.byte	0x91
 3479 0fb8 74       		.sleb128 -12
 3480 0fb9 28       		.uleb128 0x28
 3481 0fba 6E00     		.ascii	"n\000"
 3482 0fbc 05       		.byte	0x5
 3483 0fbd 1501     		.2byte	0x115
 3484 0fbf 2C000000 		.4byte	0x2c
 3485 0fc3 02       		.uleb128 0x2
 3486 0fc4 91       		.byte	0x91
 3487 0fc5 70       		.sleb128 -16
 3488 0fc6 26       		.uleb128 0x26
 3489 0fc7 C2050000 		.4byte	.LASF187
 3490 0fcb D60F0000 		.4byte	0xfd6
 3491 0fcf 05       		.uleb128 0x5
 3492 0fd0 03       		.byte	0x3
 3493 0fd1 00000000 		.4byte	__func__.7954
 3494 0fd5 00       		.byte	0
 3495 0fd6 1B       		.uleb128 0x1b
 3496 0fd7 B80D0000 		.4byte	0xdb8
 3497 0fdb 2E       		.uleb128 0x2e
 3498 0fdc 24040000 		.4byte	.LASF198
 3499 0fe0 05       		.byte	0x5
 3500 0fe1 3301     		.2byte	0x133
 3501 0fe3 00000000 		.4byte	.LFB271
 3502 0fe7 78000000 		.4byte	.LFE271-.LFB271
 3503 0feb 01       		.uleb128 0x1
 3504 0fec 9C       		.byte	0x9c
 3505 0fed 3B100000 		.4byte	0x103b
 3506 0ff1 2F       		.uleb128 0x2f
 3507 0ff2 A8080000 		.4byte	.LASF184
 3508 0ff6 05       		.byte	0x5
 3509 0ff7 3301     		.2byte	0x133
 3510 0ff9 CD0A0000 		.4byte	0xacd
 3511 0ffd 02       		.uleb128 0x2
 3512 0ffe 91       		.byte	0x91
 3513 0fff 74       		.sleb128 -12
 3514 1000 28       		.uleb128 0x28
 3515 1001 6E00     		.ascii	"n\000"
 3516 1003 05       		.byte	0x5
 3517 1004 3301     		.2byte	0x133
 3518 1006 2C000000 		.4byte	0x2c
 3519 100a 02       		.uleb128 0x2
 3520 100b 91       		.byte	0x91
 3521 100c 70       		.sleb128 -16
 3522 100d 2F       		.uleb128 0x2f
 3523 100e 2D030000 		.4byte	.LASF193
 3524 1012 05       		.byte	0x5
 3525 1013 3401     		.2byte	0x134
 3526 1015 B40E0000 		.4byte	0xeb4
 3527 1019 02       		.uleb128 0x2
 3528 101a 91       		.byte	0x91
 3529 101b 6C       		.sleb128 -20
ARM GAS  C:\Users\Luis\AppData\Local\Temp\ccE1imUd.s 			page 64


 3530 101c 2F       		.uleb128 0x2f
 3531 101d 59010000 		.4byte	.LASF194
 3532 1021 05       		.byte	0x5
 3533 1022 3401     		.2byte	0x134
 3534 1024 36030000 		.4byte	0x336
 3535 1028 02       		.uleb128 0x2
 3536 1029 91       		.byte	0x91
 3537 102a 68       		.sleb128 -24
 3538 102b 26       		.uleb128 0x26
 3539 102c C2050000 		.4byte	.LASF187
 3540 1030 3B100000 		.4byte	0x103b
 3541 1034 05       		.uleb128 0x5
 3542 1035 03       		.byte	0x3
 3543 1036 00000000 		.4byte	__func__.7961
 3544 103a 00       		.byte	0
 3545 103b 1B       		.uleb128 0x1b
 3546 103c E00B0000 		.4byte	0xbe0
 3547 1040 2E       		.uleb128 0x2e
 3548 1041 32050000 		.4byte	.LASF199
 3549 1045 05       		.byte	0x5
 3550 1046 5101     		.2byte	0x151
 3551 1048 00000000 		.4byte	.LFB272
 3552 104c 70000000 		.4byte	.LFE272-.LFB272
 3553 1050 01       		.uleb128 0x1
 3554 1051 9C       		.byte	0x9c
 3555 1052 91100000 		.4byte	0x1091
 3556 1056 2F       		.uleb128 0x2f
 3557 1057 A8080000 		.4byte	.LASF184
 3558 105b 05       		.byte	0x5
 3559 105c 5101     		.2byte	0x151
 3560 105e CD0A0000 		.4byte	0xacd
 3561 1062 02       		.uleb128 0x2
 3562 1063 91       		.byte	0x91
 3563 1064 74       		.sleb128 -12
 3564 1065 28       		.uleb128 0x28
 3565 1066 6E00     		.ascii	"n\000"
 3566 1068 05       		.byte	0x5
 3567 1069 5101     		.2byte	0x151
 3568 106b 2C000000 		.4byte	0x2c
 3569 106f 02       		.uleb128 0x2
 3570 1070 91       		.byte	0x91
 3571 1071 70       		.sleb128 -16
 3572 1072 2F       		.uleb128 0x2f
 3573 1073 2D030000 		.4byte	.LASF193
 3574 1077 05       		.byte	0x5
 3575 1078 5101     		.2byte	0x151
 3576 107a B40E0000 		.4byte	0xeb4
 3577 107e 02       		.uleb128 0x2
 3578 107f 91       		.byte	0x91
 3579 1080 6C       		.sleb128 -20
 3580 1081 26       		.uleb128 0x26
 3581 1082 C2050000 		.4byte	.LASF187
 3582 1086 91100000 		.4byte	0x1091
 3583 108a 05       		.uleb128 0x5
 3584 108b 03       		.byte	0x3
 3585 108c 00000000 		.4byte	__func__.7967
 3586 1090 00       		.byte	0
ARM GAS  C:\Users\Luis\AppData\Local\Temp\ccE1imUd.s 			page 65


 3587 1091 1B       		.uleb128 0x1b
 3588 1092 700D0000 		.4byte	0xd70
 3589 1096 2E       		.uleb128 0x2e
 3590 1097 3A030000 		.4byte	.LASF200
 3591 109b 05       		.byte	0x5
 3592 109c 6D01     		.2byte	0x16d
 3593 109e 00000000 		.4byte	.LFB273
 3594 10a2 70000000 		.4byte	.LFE273-.LFB273
 3595 10a6 01       		.uleb128 0x1
 3596 10a7 9C       		.byte	0x9c
 3597 10a8 E7100000 		.4byte	0x10e7
 3598 10ac 2F       		.uleb128 0x2f
 3599 10ad A8080000 		.4byte	.LASF184
 3600 10b1 05       		.byte	0x5
 3601 10b2 6D01     		.2byte	0x16d
 3602 10b4 CD0A0000 		.4byte	0xacd
 3603 10b8 02       		.uleb128 0x2
 3604 10b9 91       		.byte	0x91
 3605 10ba 74       		.sleb128 -12
 3606 10bb 28       		.uleb128 0x28
 3607 10bc 6E00     		.ascii	"n\000"
 3608 10be 05       		.byte	0x5
 3609 10bf 6D01     		.2byte	0x16d
 3610 10c1 2C000000 		.4byte	0x2c
 3611 10c5 02       		.uleb128 0x2
 3612 10c6 91       		.byte	0x91
 3613 10c7 70       		.sleb128 -16
 3614 10c8 2F       		.uleb128 0x2f
 3615 10c9 59010000 		.4byte	.LASF194
 3616 10cd 05       		.byte	0x5
 3617 10ce 6D01     		.2byte	0x16d
 3618 10d0 36030000 		.4byte	0x336
 3619 10d4 02       		.uleb128 0x2
 3620 10d5 91       		.byte	0x91
 3621 10d6 6C       		.sleb128 -20
 3622 10d7 26       		.uleb128 0x26
 3623 10d8 C2050000 		.4byte	.LASF187
 3624 10dc F7100000 		.4byte	0x10f7
 3625 10e0 05       		.uleb128 0x5
 3626 10e1 03       		.byte	0x3
 3627 10e2 00000000 		.4byte	__func__.7973
 3628 10e6 00       		.byte	0
 3629 10e7 17       		.uleb128 0x17
 3630 10e8 5D080000 		.4byte	0x85d
 3631 10ec F7100000 		.4byte	0x10f7
 3632 10f0 18       		.uleb128 0x18
 3633 10f1 A5040000 		.4byte	0x4a5
 3634 10f5 0A       		.byte	0xa
 3635 10f6 00       		.byte	0
 3636 10f7 1B       		.uleb128 0x1b
 3637 10f8 E7100000 		.4byte	0x10e7
 3638 10fc 2E       		.uleb128 0x2e
 3639 10fd CA080000 		.4byte	.LASF201
 3640 1101 05       		.byte	0x5
 3641 1102 8601     		.2byte	0x186
 3642 1104 00000000 		.4byte	.LFB274
 3643 1108 28000000 		.4byte	.LFE274-.LFB274
ARM GAS  C:\Users\Luis\AppData\Local\Temp\ccE1imUd.s 			page 66


 3644 110c 01       		.uleb128 0x1
 3645 110d 9C       		.byte	0x9c
 3646 110e 31110000 		.4byte	0x1131
 3647 1112 2F       		.uleb128 0x2f
 3648 1113 A8080000 		.4byte	.LASF184
 3649 1117 05       		.byte	0x5
 3650 1118 8601     		.2byte	0x186
 3651 111a CD0A0000 		.4byte	0xacd
 3652 111e 02       		.uleb128 0x2
 3653 111f 91       		.byte	0x91
 3654 1120 74       		.sleb128 -12
 3655 1121 26       		.uleb128 0x26
 3656 1122 C2050000 		.4byte	.LASF187
 3657 1126 41110000 		.4byte	0x1141
 3658 112a 05       		.uleb128 0x5
 3659 112b 03       		.byte	0x3
 3660 112c 00000000 		.4byte	__func__.7977
 3661 1130 00       		.byte	0
 3662 1131 17       		.uleb128 0x17
 3663 1132 5D080000 		.4byte	0x85d
 3664 1136 41110000 		.4byte	0x1141
 3665 113a 18       		.uleb128 0x18
 3666 113b A5040000 		.4byte	0x4a5
 3667 113f 0D       		.byte	0xd
 3668 1140 00       		.byte	0
 3669 1141 1B       		.uleb128 0x1b
 3670 1142 31110000 		.4byte	0x1131
 3671 1146 2E       		.uleb128 0x2e
 3672 1147 C8070000 		.4byte	.LASF202
 3673 114b 05       		.byte	0x5
 3674 114c 9601     		.2byte	0x196
 3675 114e 00000000 		.4byte	.LFB275
 3676 1152 28000000 		.4byte	.LFE275-.LFB275
 3677 1156 01       		.uleb128 0x1
 3678 1157 9C       		.byte	0x9c
 3679 1158 7B110000 		.4byte	0x117b
 3680 115c 2F       		.uleb128 0x2f
 3681 115d A8080000 		.4byte	.LASF184
 3682 1161 05       		.byte	0x5
 3683 1162 9601     		.2byte	0x196
 3684 1164 CD0A0000 		.4byte	0xacd
 3685 1168 02       		.uleb128 0x2
 3686 1169 91       		.byte	0x91
 3687 116a 74       		.sleb128 -12
 3688 116b 26       		.uleb128 0x26
 3689 116c C2050000 		.4byte	.LASF187
 3690 1170 7B110000 		.4byte	0x117b
 3691 1174 05       		.uleb128 0x5
 3692 1175 03       		.byte	0x3
 3693 1176 00000000 		.4byte	__func__.7981
 3694 117a 00       		.byte	0
 3695 117b 1B       		.uleb128 0x1b
 3696 117c 31110000 		.4byte	0x1131
 3697 1180 30       		.uleb128 0x30
 3698 1181 4C010000 		.4byte	.LASF203
 3699 1185 16       		.byte	0x16
 3700 1186 A706     		.2byte	0x6a7
ARM GAS  C:\Users\Luis\AppData\Local\Temp\ccE1imUd.s 			page 67


 3701 1188 AD000000 		.4byte	0xad
 3702 118c 31       		.uleb128 0x31
 3703 118d 636800   		.ascii	"ch\000"
 3704 1190 0A       		.byte	0xa
 3705 1191 0902     		.2byte	0x209
 3706 1193 2D040000 		.4byte	0x42d
 3707 1197 00       		.byte	0
 3708              		.section	.debug_abbrev,"",%progbits
 3709              	.Ldebug_abbrev0:
 3710 0000 01       		.uleb128 0x1
 3711 0001 11       		.uleb128 0x11
 3712 0002 01       		.byte	0x1
 3713 0003 25       		.uleb128 0x25
 3714 0004 0E       		.uleb128 0xe
 3715 0005 13       		.uleb128 0x13
 3716 0006 0B       		.uleb128 0xb
 3717 0007 03       		.uleb128 0x3
 3718 0008 0E       		.uleb128 0xe
 3719 0009 1B       		.uleb128 0x1b
 3720 000a 0E       		.uleb128 0xe
 3721 000b 55       		.uleb128 0x55
 3722 000c 17       		.uleb128 0x17
 3723 000d 11       		.uleb128 0x11
 3724 000e 01       		.uleb128 0x1
 3725 000f 10       		.uleb128 0x10
 3726 0010 17       		.uleb128 0x17
 3727 0011 00       		.byte	0
 3728 0012 00       		.byte	0
 3729 0013 02       		.uleb128 0x2
 3730 0014 24       		.uleb128 0x24
 3731 0015 00       		.byte	0
 3732 0016 0B       		.uleb128 0xb
 3733 0017 0B       		.uleb128 0xb
 3734 0018 3E       		.uleb128 0x3e
 3735 0019 0B       		.uleb128 0xb
 3736 001a 03       		.uleb128 0x3
 3737 001b 08       		.uleb128 0x8
 3738 001c 00       		.byte	0
 3739 001d 00       		.byte	0
 3740 001e 03       		.uleb128 0x3
 3741 001f 16       		.uleb128 0x16
 3742 0020 00       		.byte	0
 3743 0021 03       		.uleb128 0x3
 3744 0022 0E       		.uleb128 0xe
 3745 0023 3A       		.uleb128 0x3a
 3746 0024 0B       		.uleb128 0xb
 3747 0025 3B       		.uleb128 0x3b
 3748 0026 0B       		.uleb128 0xb
 3749 0027 49       		.uleb128 0x49
 3750 0028 13       		.uleb128 0x13
 3751 0029 00       		.byte	0
 3752 002a 00       		.byte	0
 3753 002b 04       		.uleb128 0x4
 3754 002c 24       		.uleb128 0x24
 3755 002d 00       		.byte	0
 3756 002e 0B       		.uleb128 0xb
 3757 002f 0B       		.uleb128 0xb
ARM GAS  C:\Users\Luis\AppData\Local\Temp\ccE1imUd.s 			page 68


 3758 0030 3E       		.uleb128 0x3e
 3759 0031 0B       		.uleb128 0xb
 3760 0032 03       		.uleb128 0x3
 3761 0033 0E       		.uleb128 0xe
 3762 0034 00       		.byte	0
 3763 0035 00       		.byte	0
 3764 0036 05       		.uleb128 0x5
 3765 0037 35       		.uleb128 0x35
 3766 0038 00       		.byte	0
 3767 0039 49       		.uleb128 0x49
 3768 003a 13       		.uleb128 0x13
 3769 003b 00       		.byte	0
 3770 003c 00       		.byte	0
 3771 003d 06       		.uleb128 0x6
 3772 003e 13       		.uleb128 0x13
 3773 003f 01       		.byte	0x1
 3774 0040 03       		.uleb128 0x3
 3775 0041 0E       		.uleb128 0xe
 3776 0042 0B       		.uleb128 0xb
 3777 0043 0B       		.uleb128 0xb
 3778 0044 3A       		.uleb128 0x3a
 3779 0045 0B       		.uleb128 0xb
 3780 0046 3B       		.uleb128 0x3b
 3781 0047 0B       		.uleb128 0xb
 3782 0048 01       		.uleb128 0x1
 3783 0049 13       		.uleb128 0x13
 3784 004a 00       		.byte	0
 3785 004b 00       		.byte	0
 3786 004c 07       		.uleb128 0x7
 3787 004d 0D       		.uleb128 0xd
 3788 004e 00       		.byte	0
 3789 004f 03       		.uleb128 0x3
 3790 0050 0E       		.uleb128 0xe
 3791 0051 3A       		.uleb128 0x3a
 3792 0052 0B       		.uleb128 0xb
 3793 0053 3B       		.uleb128 0x3b
 3794 0054 0B       		.uleb128 0xb
 3795 0055 49       		.uleb128 0x49
 3796 0056 13       		.uleb128 0x13
 3797 0057 38       		.uleb128 0x38
 3798 0058 0B       		.uleb128 0xb
 3799 0059 00       		.byte	0
 3800 005a 00       		.byte	0
 3801 005b 08       		.uleb128 0x8
 3802 005c 0D       		.uleb128 0xd
 3803 005d 00       		.byte	0
 3804 005e 03       		.uleb128 0x3
 3805 005f 08       		.uleb128 0x8
 3806 0060 3A       		.uleb128 0x3a
 3807 0061 0B       		.uleb128 0xb
 3808 0062 3B       		.uleb128 0x3b
 3809 0063 05       		.uleb128 0x5
 3810 0064 49       		.uleb128 0x49
 3811 0065 13       		.uleb128 0x13
 3812 0066 38       		.uleb128 0x38
 3813 0067 0B       		.uleb128 0xb
 3814 0068 00       		.byte	0
ARM GAS  C:\Users\Luis\AppData\Local\Temp\ccE1imUd.s 			page 69


 3815 0069 00       		.byte	0
 3816 006a 09       		.uleb128 0x9
 3817 006b 0D       		.uleb128 0xd
 3818 006c 00       		.byte	0
 3819 006d 03       		.uleb128 0x3
 3820 006e 0E       		.uleb128 0xe
 3821 006f 3A       		.uleb128 0x3a
 3822 0070 0B       		.uleb128 0xb
 3823 0071 3B       		.uleb128 0x3b
 3824 0072 05       		.uleb128 0x5
 3825 0073 49       		.uleb128 0x49
 3826 0074 13       		.uleb128 0x13
 3827 0075 38       		.uleb128 0x38
 3828 0076 0B       		.uleb128 0xb
 3829 0077 00       		.byte	0
 3830 0078 00       		.byte	0
 3831 0079 0A       		.uleb128 0xa
 3832 007a 0F       		.uleb128 0xf
 3833 007b 00       		.byte	0
 3834 007c 0B       		.uleb128 0xb
 3835 007d 0B       		.uleb128 0xb
 3836 007e 49       		.uleb128 0x49
 3837 007f 13       		.uleb128 0x13
 3838 0080 00       		.byte	0
 3839 0081 00       		.byte	0
 3840 0082 0B       		.uleb128 0xb
 3841 0083 13       		.uleb128 0x13
 3842 0084 01       		.byte	0x1
 3843 0085 03       		.uleb128 0x3
 3844 0086 0E       		.uleb128 0xe
 3845 0087 0B       		.uleb128 0xb
 3846 0088 0B       		.uleb128 0xb
 3847 0089 3A       		.uleb128 0x3a
 3848 008a 0B       		.uleb128 0xb
 3849 008b 3B       		.uleb128 0x3b
 3850 008c 05       		.uleb128 0x5
 3851 008d 01       		.uleb128 0x1
 3852 008e 13       		.uleb128 0x13
 3853 008f 00       		.byte	0
 3854 0090 00       		.byte	0
 3855 0091 0C       		.uleb128 0xc
 3856 0092 15       		.uleb128 0x15
 3857 0093 01       		.byte	0x1
 3858 0094 27       		.uleb128 0x27
 3859 0095 19       		.uleb128 0x19
 3860 0096 01       		.uleb128 0x1
 3861 0097 13       		.uleb128 0x13
 3862 0098 00       		.byte	0
 3863 0099 00       		.byte	0
 3864 009a 0D       		.uleb128 0xd
 3865 009b 05       		.uleb128 0x5
 3866 009c 00       		.byte	0
 3867 009d 49       		.uleb128 0x49
 3868 009e 13       		.uleb128 0x13
 3869 009f 00       		.byte	0
 3870 00a0 00       		.byte	0
 3871 00a1 0E       		.uleb128 0xe
ARM GAS  C:\Users\Luis\AppData\Local\Temp\ccE1imUd.s 			page 70


 3872 00a2 0F       		.uleb128 0xf
 3873 00a3 00       		.byte	0
 3874 00a4 0B       		.uleb128 0xb
 3875 00a5 0B       		.uleb128 0xb
 3876 00a6 00       		.byte	0
 3877 00a7 00       		.byte	0
 3878 00a8 0F       		.uleb128 0xf
 3879 00a9 13       		.uleb128 0x13
 3880 00aa 01       		.byte	0x1
 3881 00ab 03       		.uleb128 0x3
 3882 00ac 0E       		.uleb128 0xe
 3883 00ad 0B       		.uleb128 0xb
 3884 00ae 05       		.uleb128 0x5
 3885 00af 3A       		.uleb128 0x3a
 3886 00b0 0B       		.uleb128 0xb
 3887 00b1 3B       		.uleb128 0x3b
 3888 00b2 05       		.uleb128 0x5
 3889 00b3 01       		.uleb128 0x1
 3890 00b4 13       		.uleb128 0x13
 3891 00b5 00       		.byte	0
 3892 00b6 00       		.byte	0
 3893 00b7 10       		.uleb128 0x10
 3894 00b8 0D       		.uleb128 0xd
 3895 00b9 00       		.byte	0
 3896 00ba 03       		.uleb128 0x3
 3897 00bb 0E       		.uleb128 0xe
 3898 00bc 3A       		.uleb128 0x3a
 3899 00bd 0B       		.uleb128 0xb
 3900 00be 3B       		.uleb128 0x3b
 3901 00bf 05       		.uleb128 0x5
 3902 00c0 49       		.uleb128 0x49
 3903 00c1 13       		.uleb128 0x13
 3904 00c2 38       		.uleb128 0x38
 3905 00c3 05       		.uleb128 0x5
 3906 00c4 00       		.byte	0
 3907 00c5 00       		.byte	0
 3908 00c6 11       		.uleb128 0x11
 3909 00c7 0D       		.uleb128 0xd
 3910 00c8 00       		.byte	0
 3911 00c9 03       		.uleb128 0x3
 3912 00ca 08       		.uleb128 0x8
 3913 00cb 3A       		.uleb128 0x3a
 3914 00cc 0B       		.uleb128 0xb
 3915 00cd 3B       		.uleb128 0x3b
 3916 00ce 05       		.uleb128 0x5
 3917 00cf 49       		.uleb128 0x49
 3918 00d0 13       		.uleb128 0x13
 3919 00d1 38       		.uleb128 0x38
 3920 00d2 05       		.uleb128 0x5
 3921 00d3 00       		.byte	0
 3922 00d4 00       		.byte	0
 3923 00d5 12       		.uleb128 0x12
 3924 00d6 13       		.uleb128 0x13
 3925 00d7 01       		.byte	0x1
 3926 00d8 0B       		.uleb128 0xb
 3927 00d9 0B       		.uleb128 0xb
 3928 00da 3A       		.uleb128 0x3a
ARM GAS  C:\Users\Luis\AppData\Local\Temp\ccE1imUd.s 			page 71


 3929 00db 0B       		.uleb128 0xb
 3930 00dc 3B       		.uleb128 0x3b
 3931 00dd 05       		.uleb128 0x5
 3932 00de 01       		.uleb128 0x1
 3933 00df 13       		.uleb128 0x13
 3934 00e0 00       		.byte	0
 3935 00e1 00       		.byte	0
 3936 00e2 13       		.uleb128 0x13
 3937 00e3 16       		.uleb128 0x16
 3938 00e4 00       		.byte	0
 3939 00e5 03       		.uleb128 0x3
 3940 00e6 0E       		.uleb128 0xe
 3941 00e7 3A       		.uleb128 0x3a
 3942 00e8 0B       		.uleb128 0xb
 3943 00e9 3B       		.uleb128 0x3b
 3944 00ea 05       		.uleb128 0x5
 3945 00eb 49       		.uleb128 0x49
 3946 00ec 13       		.uleb128 0x13
 3947 00ed 00       		.byte	0
 3948 00ee 00       		.byte	0
 3949 00ef 14       		.uleb128 0x14
 3950 00f0 0D       		.uleb128 0xd
 3951 00f1 00       		.byte	0
 3952 00f2 03       		.uleb128 0x3
 3953 00f3 08       		.uleb128 0x8
 3954 00f4 3A       		.uleb128 0x3a
 3955 00f5 0B       		.uleb128 0xb
 3956 00f6 3B       		.uleb128 0x3b
 3957 00f7 0B       		.uleb128 0xb
 3958 00f8 49       		.uleb128 0x49
 3959 00f9 13       		.uleb128 0x13
 3960 00fa 38       		.uleb128 0x38
 3961 00fb 0B       		.uleb128 0xb
 3962 00fc 00       		.byte	0
 3963 00fd 00       		.byte	0
 3964 00fe 15       		.uleb128 0x15
 3965 00ff 13       		.uleb128 0x13
 3966 0100 01       		.byte	0x1
 3967 0101 0B       		.uleb128 0xb
 3968 0102 0B       		.uleb128 0xb
 3969 0103 3A       		.uleb128 0x3a
 3970 0104 0B       		.uleb128 0xb
 3971 0105 3B       		.uleb128 0x3b
 3972 0106 0B       		.uleb128 0xb
 3973 0107 01       		.uleb128 0x1
 3974 0108 13       		.uleb128 0x13
 3975 0109 00       		.byte	0
 3976 010a 00       		.byte	0
 3977 010b 16       		.uleb128 0x16
 3978 010c 13       		.uleb128 0x13
 3979 010d 01       		.byte	0x1
 3980 010e 0B       		.uleb128 0xb
 3981 010f 05       		.uleb128 0x5
 3982 0110 3A       		.uleb128 0x3a
 3983 0111 0B       		.uleb128 0xb
 3984 0112 3B       		.uleb128 0x3b
 3985 0113 0B       		.uleb128 0xb
ARM GAS  C:\Users\Luis\AppData\Local\Temp\ccE1imUd.s 			page 72


 3986 0114 01       		.uleb128 0x1
 3987 0115 13       		.uleb128 0x13
 3988 0116 00       		.byte	0
 3989 0117 00       		.byte	0
 3990 0118 17       		.uleb128 0x17
 3991 0119 01       		.uleb128 0x1
 3992 011a 01       		.byte	0x1
 3993 011b 49       		.uleb128 0x49
 3994 011c 13       		.uleb128 0x13
 3995 011d 01       		.uleb128 0x1
 3996 011e 13       		.uleb128 0x13
 3997 011f 00       		.byte	0
 3998 0120 00       		.byte	0
 3999 0121 18       		.uleb128 0x18
 4000 0122 21       		.uleb128 0x21
 4001 0123 00       		.byte	0
 4002 0124 49       		.uleb128 0x49
 4003 0125 13       		.uleb128 0x13
 4004 0126 2F       		.uleb128 0x2f
 4005 0127 0B       		.uleb128 0xb
 4006 0128 00       		.byte	0
 4007 0129 00       		.byte	0
 4008 012a 19       		.uleb128 0x19
 4009 012b 17       		.uleb128 0x17
 4010 012c 01       		.byte	0x1
 4011 012d 0B       		.uleb128 0xb
 4012 012e 0B       		.uleb128 0xb
 4013 012f 3A       		.uleb128 0x3a
 4014 0130 0B       		.uleb128 0xb
 4015 0131 3B       		.uleb128 0x3b
 4016 0132 0B       		.uleb128 0xb
 4017 0133 01       		.uleb128 0x1
 4018 0134 13       		.uleb128 0x13
 4019 0135 00       		.byte	0
 4020 0136 00       		.byte	0
 4021 0137 1A       		.uleb128 0x1a
 4022 0138 0D       		.uleb128 0xd
 4023 0139 00       		.byte	0
 4024 013a 03       		.uleb128 0x3
 4025 013b 0E       		.uleb128 0xe
 4026 013c 3A       		.uleb128 0x3a
 4027 013d 0B       		.uleb128 0xb
 4028 013e 3B       		.uleb128 0x3b
 4029 013f 05       		.uleb128 0x5
 4030 0140 49       		.uleb128 0x49
 4031 0141 13       		.uleb128 0x13
 4032 0142 00       		.byte	0
 4033 0143 00       		.byte	0
 4034 0144 1B       		.uleb128 0x1b
 4035 0145 26       		.uleb128 0x26
 4036 0146 00       		.byte	0
 4037 0147 49       		.uleb128 0x49
 4038 0148 13       		.uleb128 0x13
 4039 0149 00       		.byte	0
 4040 014a 00       		.byte	0
 4041 014b 1C       		.uleb128 0x1c
 4042 014c 0D       		.uleb128 0xd
ARM GAS  C:\Users\Luis\AppData\Local\Temp\ccE1imUd.s 			page 73


 4043 014d 00       		.byte	0
 4044 014e 03       		.uleb128 0x3
 4045 014f 08       		.uleb128 0x8
 4046 0150 3A       		.uleb128 0x3a
 4047 0151 0B       		.uleb128 0xb
 4048 0152 3B       		.uleb128 0x3b
 4049 0153 0B       		.uleb128 0xb
 4050 0154 49       		.uleb128 0x49
 4051 0155 13       		.uleb128 0x13
 4052 0156 00       		.byte	0
 4053 0157 00       		.byte	0
 4054 0158 1D       		.uleb128 0x1d
 4055 0159 04       		.uleb128 0x4
 4056 015a 01       		.byte	0x1
 4057 015b 0B       		.uleb128 0xb
 4058 015c 0B       		.uleb128 0xb
 4059 015d 3A       		.uleb128 0x3a
 4060 015e 0B       		.uleb128 0xb
 4061 015f 3B       		.uleb128 0x3b
 4062 0160 0B       		.uleb128 0xb
 4063 0161 01       		.uleb128 0x1
 4064 0162 13       		.uleb128 0x13
 4065 0163 00       		.byte	0
 4066 0164 00       		.byte	0
 4067 0165 1E       		.uleb128 0x1e
 4068 0166 28       		.uleb128 0x28
 4069 0167 00       		.byte	0
 4070 0168 03       		.uleb128 0x3
 4071 0169 0E       		.uleb128 0xe
 4072 016a 1C       		.uleb128 0x1c
 4073 016b 0D       		.uleb128 0xd
 4074 016c 00       		.byte	0
 4075 016d 00       		.byte	0
 4076 016e 1F       		.uleb128 0x1f
 4077 016f 2E       		.uleb128 0x2e
 4078 0170 01       		.byte	0x1
 4079 0171 03       		.uleb128 0x3
 4080 0172 0E       		.uleb128 0xe
 4081 0173 3A       		.uleb128 0x3a
 4082 0174 0B       		.uleb128 0xb
 4083 0175 3B       		.uleb128 0x3b
 4084 0176 05       		.uleb128 0x5
 4085 0177 27       		.uleb128 0x27
 4086 0178 19       		.uleb128 0x19
 4087 0179 20       		.uleb128 0x20
 4088 017a 0B       		.uleb128 0xb
 4089 017b 01       		.uleb128 0x1
 4090 017c 13       		.uleb128 0x13
 4091 017d 00       		.byte	0
 4092 017e 00       		.byte	0
 4093 017f 20       		.uleb128 0x20
 4094 0180 05       		.uleb128 0x5
 4095 0181 00       		.byte	0
 4096 0182 03       		.uleb128 0x3
 4097 0183 0E       		.uleb128 0xe
 4098 0184 3A       		.uleb128 0x3a
 4099 0185 0B       		.uleb128 0xb
ARM GAS  C:\Users\Luis\AppData\Local\Temp\ccE1imUd.s 			page 74


 4100 0186 3B       		.uleb128 0x3b
 4101 0187 05       		.uleb128 0x5
 4102 0188 49       		.uleb128 0x49
 4103 0189 13       		.uleb128 0x13
 4104 018a 00       		.byte	0
 4105 018b 00       		.byte	0
 4106 018c 21       		.uleb128 0x21
 4107 018d 2E       		.uleb128 0x2e
 4108 018e 01       		.byte	0x1
 4109 018f 03       		.uleb128 0x3
 4110 0190 0E       		.uleb128 0xe
 4111 0191 3A       		.uleb128 0x3a
 4112 0192 0B       		.uleb128 0xb
 4113 0193 3B       		.uleb128 0x3b
 4114 0194 05       		.uleb128 0x5
 4115 0195 27       		.uleb128 0x27
 4116 0196 19       		.uleb128 0x19
 4117 0197 11       		.uleb128 0x11
 4118 0198 01       		.uleb128 0x1
 4119 0199 12       		.uleb128 0x12
 4120 019a 06       		.uleb128 0x6
 4121 019b 40       		.uleb128 0x40
 4122 019c 18       		.uleb128 0x18
 4123 019d 9742     		.uleb128 0x2117
 4124 019f 19       		.uleb128 0x19
 4125 01a0 01       		.uleb128 0x1
 4126 01a1 13       		.uleb128 0x13
 4127 01a2 00       		.byte	0
 4128 01a3 00       		.byte	0
 4129 01a4 22       		.uleb128 0x22
 4130 01a5 1D       		.uleb128 0x1d
 4131 01a6 01       		.byte	0x1
 4132 01a7 31       		.uleb128 0x31
 4133 01a8 13       		.uleb128 0x13
 4134 01a9 11       		.uleb128 0x11
 4135 01aa 01       		.uleb128 0x1
 4136 01ab 12       		.uleb128 0x12
 4137 01ac 06       		.uleb128 0x6
 4138 01ad 58       		.uleb128 0x58
 4139 01ae 0B       		.uleb128 0xb
 4140 01af 59       		.uleb128 0x59
 4141 01b0 05       		.uleb128 0x5
 4142 01b1 00       		.byte	0
 4143 01b2 00       		.byte	0
 4144 01b3 23       		.uleb128 0x23
 4145 01b4 05       		.uleb128 0x5
 4146 01b5 00       		.byte	0
 4147 01b6 31       		.uleb128 0x31
 4148 01b7 13       		.uleb128 0x13
 4149 01b8 02       		.uleb128 0x2
 4150 01b9 18       		.uleb128 0x18
 4151 01ba 00       		.byte	0
 4152 01bb 00       		.byte	0
 4153 01bc 24       		.uleb128 0x24
 4154 01bd 2E       		.uleb128 0x2e
 4155 01be 00       		.byte	0
 4156 01bf 03       		.uleb128 0x3
ARM GAS  C:\Users\Luis\AppData\Local\Temp\ccE1imUd.s 			page 75


 4157 01c0 0E       		.uleb128 0xe
 4158 01c1 3A       		.uleb128 0x3a
 4159 01c2 0B       		.uleb128 0xb
 4160 01c3 3B       		.uleb128 0x3b
 4161 01c4 05       		.uleb128 0x5
 4162 01c5 27       		.uleb128 0x27
 4163 01c6 19       		.uleb128 0x19
 4164 01c7 11       		.uleb128 0x11
 4165 01c8 01       		.uleb128 0x1
 4166 01c9 12       		.uleb128 0x12
 4167 01ca 06       		.uleb128 0x6
 4168 01cb 40       		.uleb128 0x40
 4169 01cc 18       		.uleb128 0x18
 4170 01cd 9642     		.uleb128 0x2116
 4171 01cf 19       		.uleb128 0x19
 4172 01d0 00       		.byte	0
 4173 01d1 00       		.byte	0
 4174 01d2 25       		.uleb128 0x25
 4175 01d3 2E       		.uleb128 0x2e
 4176 01d4 01       		.byte	0x1
 4177 01d5 03       		.uleb128 0x3
 4178 01d6 0E       		.uleb128 0xe
 4179 01d7 3A       		.uleb128 0x3a
 4180 01d8 0B       		.uleb128 0xb
 4181 01d9 3B       		.uleb128 0x3b
 4182 01da 05       		.uleb128 0x5
 4183 01db 27       		.uleb128 0x27
 4184 01dc 19       		.uleb128 0x19
 4185 01dd 11       		.uleb128 0x11
 4186 01de 01       		.uleb128 0x1
 4187 01df 12       		.uleb128 0x12
 4188 01e0 06       		.uleb128 0x6
 4189 01e1 40       		.uleb128 0x40
 4190 01e2 18       		.uleb128 0x18
 4191 01e3 9642     		.uleb128 0x2116
 4192 01e5 19       		.uleb128 0x19
 4193 01e6 01       		.uleb128 0x1
 4194 01e7 13       		.uleb128 0x13
 4195 01e8 00       		.byte	0
 4196 01e9 00       		.byte	0
 4197 01ea 26       		.uleb128 0x26
 4198 01eb 34       		.uleb128 0x34
 4199 01ec 00       		.byte	0
 4200 01ed 03       		.uleb128 0x3
 4201 01ee 0E       		.uleb128 0xe
 4202 01ef 49       		.uleb128 0x49
 4203 01f0 13       		.uleb128 0x13
 4204 01f1 34       		.uleb128 0x34
 4205 01f2 19       		.uleb128 0x19
 4206 01f3 02       		.uleb128 0x2
 4207 01f4 18       		.uleb128 0x18
 4208 01f5 00       		.byte	0
 4209 01f6 00       		.byte	0
 4210 01f7 27       		.uleb128 0x27
 4211 01f8 2E       		.uleb128 0x2e
 4212 01f9 01       		.byte	0x1
 4213 01fa 03       		.uleb128 0x3
ARM GAS  C:\Users\Luis\AppData\Local\Temp\ccE1imUd.s 			page 76


 4214 01fb 0E       		.uleb128 0xe
 4215 01fc 3A       		.uleb128 0x3a
 4216 01fd 0B       		.uleb128 0xb
 4217 01fe 3B       		.uleb128 0x3b
 4218 01ff 05       		.uleb128 0x5
 4219 0200 27       		.uleb128 0x27
 4220 0201 19       		.uleb128 0x19
 4221 0202 49       		.uleb128 0x49
 4222 0203 13       		.uleb128 0x13
 4223 0204 11       		.uleb128 0x11
 4224 0205 01       		.uleb128 0x1
 4225 0206 12       		.uleb128 0x12
 4226 0207 06       		.uleb128 0x6
 4227 0208 40       		.uleb128 0x40
 4228 0209 18       		.uleb128 0x18
 4229 020a 9642     		.uleb128 0x2116
 4230 020c 19       		.uleb128 0x19
 4231 020d 01       		.uleb128 0x1
 4232 020e 13       		.uleb128 0x13
 4233 020f 00       		.byte	0
 4234 0210 00       		.byte	0
 4235 0211 28       		.uleb128 0x28
 4236 0212 05       		.uleb128 0x5
 4237 0213 00       		.byte	0
 4238 0214 03       		.uleb128 0x3
 4239 0215 08       		.uleb128 0x8
 4240 0216 3A       		.uleb128 0x3a
 4241 0217 0B       		.uleb128 0xb
 4242 0218 3B       		.uleb128 0x3b
 4243 0219 05       		.uleb128 0x5
 4244 021a 49       		.uleb128 0x49
 4245 021b 13       		.uleb128 0x13
 4246 021c 02       		.uleb128 0x2
 4247 021d 18       		.uleb128 0x18
 4248 021e 00       		.byte	0
 4249 021f 00       		.byte	0
 4250 0220 29       		.uleb128 0x29
 4251 0221 2E       		.uleb128 0x2e
 4252 0222 00       		.byte	0
 4253 0223 3F       		.uleb128 0x3f
 4254 0224 19       		.uleb128 0x19
 4255 0225 03       		.uleb128 0x3
 4256 0226 0E       		.uleb128 0xe
 4257 0227 3A       		.uleb128 0x3a
 4258 0228 0B       		.uleb128 0xb
 4259 0229 3B       		.uleb128 0x3b
 4260 022a 0B       		.uleb128 0xb
 4261 022b 27       		.uleb128 0x27
 4262 022c 19       		.uleb128 0x19
 4263 022d 11       		.uleb128 0x11
 4264 022e 01       		.uleb128 0x1
 4265 022f 12       		.uleb128 0x12
 4266 0230 06       		.uleb128 0x6
 4267 0231 40       		.uleb128 0x40
 4268 0232 18       		.uleb128 0x18
 4269 0233 9642     		.uleb128 0x2116
 4270 0235 19       		.uleb128 0x19
ARM GAS  C:\Users\Luis\AppData\Local\Temp\ccE1imUd.s 			page 77


 4271 0236 00       		.byte	0
 4272 0237 00       		.byte	0
 4273 0238 2A       		.uleb128 0x2a
 4274 0239 2E       		.uleb128 0x2e
 4275 023a 01       		.byte	0x1
 4276 023b 3F       		.uleb128 0x3f
 4277 023c 19       		.uleb128 0x19
 4278 023d 03       		.uleb128 0x3
 4279 023e 0E       		.uleb128 0xe
 4280 023f 3A       		.uleb128 0x3a
 4281 0240 0B       		.uleb128 0xb
 4282 0241 3B       		.uleb128 0x3b
 4283 0242 0B       		.uleb128 0xb
 4284 0243 27       		.uleb128 0x27
 4285 0244 19       		.uleb128 0x19
 4286 0245 11       		.uleb128 0x11
 4287 0246 01       		.uleb128 0x1
 4288 0247 12       		.uleb128 0x12
 4289 0248 06       		.uleb128 0x6
 4290 0249 40       		.uleb128 0x40
 4291 024a 18       		.uleb128 0x18
 4292 024b 9642     		.uleb128 0x2116
 4293 024d 19       		.uleb128 0x19
 4294 024e 01       		.uleb128 0x1
 4295 024f 13       		.uleb128 0x13
 4296 0250 00       		.byte	0
 4297 0251 00       		.byte	0
 4298 0252 2B       		.uleb128 0x2b
 4299 0253 05       		.uleb128 0x5
 4300 0254 00       		.byte	0
 4301 0255 03       		.uleb128 0x3
 4302 0256 0E       		.uleb128 0xe
 4303 0257 3A       		.uleb128 0x3a
 4304 0258 0B       		.uleb128 0xb
 4305 0259 3B       		.uleb128 0x3b
 4306 025a 0B       		.uleb128 0xb
 4307 025b 49       		.uleb128 0x49
 4308 025c 13       		.uleb128 0x13
 4309 025d 02       		.uleb128 0x2
 4310 025e 18       		.uleb128 0x18
 4311 025f 00       		.byte	0
 4312 0260 00       		.byte	0
 4313 0261 2C       		.uleb128 0x2c
 4314 0262 05       		.uleb128 0x5
 4315 0263 00       		.byte	0
 4316 0264 03       		.uleb128 0x3
 4317 0265 08       		.uleb128 0x8
 4318 0266 3A       		.uleb128 0x3a
 4319 0267 0B       		.uleb128 0xb
 4320 0268 3B       		.uleb128 0x3b
 4321 0269 0B       		.uleb128 0xb
 4322 026a 49       		.uleb128 0x49
 4323 026b 13       		.uleb128 0x13
 4324 026c 02       		.uleb128 0x2
 4325 026d 18       		.uleb128 0x18
 4326 026e 00       		.byte	0
 4327 026f 00       		.byte	0
ARM GAS  C:\Users\Luis\AppData\Local\Temp\ccE1imUd.s 			page 78


 4328 0270 2D       		.uleb128 0x2d
 4329 0271 26       		.uleb128 0x26
 4330 0272 00       		.byte	0
 4331 0273 00       		.byte	0
 4332 0274 00       		.byte	0
 4333 0275 2E       		.uleb128 0x2e
 4334 0276 2E       		.uleb128 0x2e
 4335 0277 01       		.byte	0x1
 4336 0278 3F       		.uleb128 0x3f
 4337 0279 19       		.uleb128 0x19
 4338 027a 03       		.uleb128 0x3
 4339 027b 0E       		.uleb128 0xe
 4340 027c 3A       		.uleb128 0x3a
 4341 027d 0B       		.uleb128 0xb
 4342 027e 3B       		.uleb128 0x3b
 4343 027f 05       		.uleb128 0x5
 4344 0280 27       		.uleb128 0x27
 4345 0281 19       		.uleb128 0x19
 4346 0282 11       		.uleb128 0x11
 4347 0283 01       		.uleb128 0x1
 4348 0284 12       		.uleb128 0x12
 4349 0285 06       		.uleb128 0x6
 4350 0286 40       		.uleb128 0x40
 4351 0287 18       		.uleb128 0x18
 4352 0288 9642     		.uleb128 0x2116
 4353 028a 19       		.uleb128 0x19
 4354 028b 01       		.uleb128 0x1
 4355 028c 13       		.uleb128 0x13
 4356 028d 00       		.byte	0
 4357 028e 00       		.byte	0
 4358 028f 2F       		.uleb128 0x2f
 4359 0290 05       		.uleb128 0x5
 4360 0291 00       		.byte	0
 4361 0292 03       		.uleb128 0x3
 4362 0293 0E       		.uleb128 0xe
 4363 0294 3A       		.uleb128 0x3a
 4364 0295 0B       		.uleb128 0xb
 4365 0296 3B       		.uleb128 0x3b
 4366 0297 05       		.uleb128 0x5
 4367 0298 49       		.uleb128 0x49
 4368 0299 13       		.uleb128 0x13
 4369 029a 02       		.uleb128 0x2
 4370 029b 18       		.uleb128 0x18
 4371 029c 00       		.byte	0
 4372 029d 00       		.byte	0
 4373 029e 30       		.uleb128 0x30
 4374 029f 34       		.uleb128 0x34
 4375 02a0 00       		.byte	0
 4376 02a1 03       		.uleb128 0x3
 4377 02a2 0E       		.uleb128 0xe
 4378 02a3 3A       		.uleb128 0x3a
 4379 02a4 0B       		.uleb128 0xb
 4380 02a5 3B       		.uleb128 0x3b
 4381 02a6 05       		.uleb128 0x5
 4382 02a7 49       		.uleb128 0x49
 4383 02a8 13       		.uleb128 0x13
 4384 02a9 3F       		.uleb128 0x3f
ARM GAS  C:\Users\Luis\AppData\Local\Temp\ccE1imUd.s 			page 79


 4385 02aa 19       		.uleb128 0x19
 4386 02ab 3C       		.uleb128 0x3c
 4387 02ac 19       		.uleb128 0x19
 4388 02ad 00       		.byte	0
 4389 02ae 00       		.byte	0
 4390 02af 31       		.uleb128 0x31
 4391 02b0 34       		.uleb128 0x34
 4392 02b1 00       		.byte	0
 4393 02b2 03       		.uleb128 0x3
 4394 02b3 08       		.uleb128 0x8
 4395 02b4 3A       		.uleb128 0x3a
 4396 02b5 0B       		.uleb128 0xb
 4397 02b6 3B       		.uleb128 0x3b
 4398 02b7 05       		.uleb128 0x5
 4399 02b8 49       		.uleb128 0x49
 4400 02b9 13       		.uleb128 0x13
 4401 02ba 3F       		.uleb128 0x3f
 4402 02bb 19       		.uleb128 0x19
 4403 02bc 3C       		.uleb128 0x3c
 4404 02bd 19       		.uleb128 0x19
 4405 02be 00       		.byte	0
 4406 02bf 00       		.byte	0
 4407 02c0 00       		.byte	0
 4408              		.section	.debug_aranges,"",%progbits
 4409 0000 E4000000 		.4byte	0xe4
 4410 0004 0200     		.2byte	0x2
 4411 0006 00000000 		.4byte	.Ldebug_info0
 4412 000a 04       		.byte	0x4
 4413 000b 00       		.byte	0
 4414 000c 0000     		.2byte	0
 4415 000e 0000     		.2byte	0
 4416 0010 00000000 		.4byte	.LFB116
 4417 0014 1A000000 		.4byte	.LFE116-.LFB116
 4418 0018 00000000 		.4byte	.LFB117
 4419 001c 1A000000 		.4byte	.LFE117-.LFB117
 4420 0020 00000000 		.4byte	.LFB156
 4421 0024 12000000 		.4byte	.LFE156-.LFB156
 4422 0028 00000000 		.4byte	.LFB157
 4423 002c 3C000000 		.4byte	.LFE157-.LFB157
 4424 0030 00000000 		.4byte	.LFB233
 4425 0034 0A000000 		.4byte	.LFE233-.LFB233
 4426 0038 00000000 		.4byte	.LFB234
 4427 003c 0A000000 		.4byte	.LFE234-.LFB234
 4428 0040 00000000 		.4byte	.LFB246
 4429 0044 18000000 		.4byte	.LFE246-.LFB246
 4430 0048 00000000 		.4byte	.LFB257
 4431 004c 14000000 		.4byte	.LFE257-.LFB257
 4432 0050 00000000 		.4byte	.LFB258
 4433 0054 14000000 		.4byte	.LFE258-.LFB258
 4434 0058 00000000 		.4byte	.LFB259
 4435 005c 14000000 		.4byte	.LFE259-.LFB259
 4436 0060 00000000 		.4byte	.LFB260
 4437 0064 0A000000 		.4byte	.LFE260-.LFB260
 4438 0068 00000000 		.4byte	.LFB261
 4439 006c 2A000000 		.4byte	.LFE261-.LFB261
 4440 0070 00000000 		.4byte	.LFB262
 4441 0074 58000000 		.4byte	.LFE262-.LFB262
ARM GAS  C:\Users\Luis\AppData\Local\Temp\ccE1imUd.s 			page 80


 4442 0078 00000000 		.4byte	.LFB263
 4443 007c 48000000 		.4byte	.LFE263-.LFB263
 4444 0080 00000000 		.4byte	.LFB264
 4445 0084 3C000000 		.4byte	.LFE264-.LFB264
 4446 0088 00000000 		.4byte	.LFB265
 4447 008c 3C000000 		.4byte	.LFE265-.LFB265
 4448 0090 00000000 		.4byte	.LFB266
 4449 0094 4C000000 		.4byte	.LFE266-.LFB266
 4450 0098 00000000 		.4byte	.LFB267
 4451 009c 60000000 		.4byte	.LFE267-.LFB267
 4452 00a0 00000000 		.4byte	.LFB268
 4453 00a4 54000000 		.4byte	.LFE268-.LFB268
 4454 00a8 00000000 		.4byte	.LFB269
 4455 00ac 54000000 		.4byte	.LFE269-.LFB269
 4456 00b0 00000000 		.4byte	.LFB270
 4457 00b4 64000000 		.4byte	.LFE270-.LFB270
 4458 00b8 00000000 		.4byte	.LFB271
 4459 00bc 78000000 		.4byte	.LFE271-.LFB271
 4460 00c0 00000000 		.4byte	.LFB272
 4461 00c4 70000000 		.4byte	.LFE272-.LFB272
 4462 00c8 00000000 		.4byte	.LFB273
 4463 00cc 70000000 		.4byte	.LFE273-.LFB273
 4464 00d0 00000000 		.4byte	.LFB274
 4465 00d4 28000000 		.4byte	.LFE274-.LFB274
 4466 00d8 00000000 		.4byte	.LFB275
 4467 00dc 28000000 		.4byte	.LFE275-.LFB275
 4468 00e0 00000000 		.4byte	0
 4469 00e4 00000000 		.4byte	0
 4470              		.section	.debug_ranges,"",%progbits
 4471              	.Ldebug_ranges0:
 4472 0000 00000000 		.4byte	.LFB116
 4473 0004 1A000000 		.4byte	.LFE116
 4474 0008 00000000 		.4byte	.LFB117
 4475 000c 1A000000 		.4byte	.LFE117
 4476 0010 00000000 		.4byte	.LFB156
 4477 0014 12000000 		.4byte	.LFE156
 4478 0018 00000000 		.4byte	.LFB157
 4479 001c 3C000000 		.4byte	.LFE157
 4480 0020 00000000 		.4byte	.LFB233
 4481 0024 0A000000 		.4byte	.LFE233
 4482 0028 00000000 		.4byte	.LFB234
 4483 002c 0A000000 		.4byte	.LFE234
 4484 0030 00000000 		.4byte	.LFB246
 4485 0034 18000000 		.4byte	.LFE246
 4486 0038 00000000 		.4byte	.LFB257
 4487 003c 14000000 		.4byte	.LFE257
 4488 0040 00000000 		.4byte	.LFB258
 4489 0044 14000000 		.4byte	.LFE258
 4490 0048 00000000 		.4byte	.LFB259
 4491 004c 14000000 		.4byte	.LFE259
 4492 0050 00000000 		.4byte	.LFB260
 4493 0054 0A000000 		.4byte	.LFE260
 4494 0058 00000000 		.4byte	.LFB261
 4495 005c 2A000000 		.4byte	.LFE261
 4496 0060 00000000 		.4byte	.LFB262
 4497 0064 58000000 		.4byte	.LFE262
 4498 0068 00000000 		.4byte	.LFB263
ARM GAS  C:\Users\Luis\AppData\Local\Temp\ccE1imUd.s 			page 81


 4499 006c 48000000 		.4byte	.LFE263
 4500 0070 00000000 		.4byte	.LFB264
 4501 0074 3C000000 		.4byte	.LFE264
 4502 0078 00000000 		.4byte	.LFB265
 4503 007c 3C000000 		.4byte	.LFE265
 4504 0080 00000000 		.4byte	.LFB266
 4505 0084 4C000000 		.4byte	.LFE266
 4506 0088 00000000 		.4byte	.LFB267
 4507 008c 60000000 		.4byte	.LFE267
 4508 0090 00000000 		.4byte	.LFB268
 4509 0094 54000000 		.4byte	.LFE268
 4510 0098 00000000 		.4byte	.LFB269
 4511 009c 54000000 		.4byte	.LFE269
 4512 00a0 00000000 		.4byte	.LFB270
 4513 00a4 64000000 		.4byte	.LFE270
 4514 00a8 00000000 		.4byte	.LFB271
 4515 00ac 78000000 		.4byte	.LFE271
 4516 00b0 00000000 		.4byte	.LFB272
 4517 00b4 70000000 		.4byte	.LFE272
 4518 00b8 00000000 		.4byte	.LFB273
 4519 00bc 70000000 		.4byte	.LFE273
 4520 00c0 00000000 		.4byte	.LFB274
 4521 00c4 28000000 		.4byte	.LFE274
 4522 00c8 00000000 		.4byte	.LFB275
 4523 00cc 28000000 		.4byte	.LFE275
 4524 00d0 00000000 		.4byte	0
 4525 00d4 00000000 		.4byte	0
 4526              		.section	.debug_line,"",%progbits
 4527              	.Ldebug_line0:
 4528 0000 66060000 		.section	.debug_str,"MS",%progbits,1
 4528      02000A03 
 4528      00000201 
 4528      FB0E0D00 
 4528      01010101 
 4529              	.LASF166:
 4530 0000 646D6172 		.ascii	"dmarx\000"
 4530      7800
 4531              	.LASF19:
 4532 0006 74726566 		.ascii	"trefs_t\000"
 4532      735F7400 
 4533              	.LASF53:
 4534 000e 72656164 		.ascii	"ready_list_t\000"
 4534      795F6C69 
 4534      73745F74 
 4534      00
 4535              	.LASF100:
 4536 001b 73655F74 		.ascii	"se_time\000"
 4536      696D6500 
 4537              	.LASF87:
 4538 0023 4D304152 		.ascii	"M0AR\000"
 4538      00
 4539              	.LASF2:
 4540 0028 73697A65 		.ascii	"size_t\000"
 4540      5F7400
 4541              	.LASF121:
 4542 002f 7264796D 		.ascii	"rdymsg\000"
 4542      736700
ARM GAS  C:\Users\Luis\AppData\Local\Temp\ccE1imUd.s 			page 82


 4543              	.LASF13:
 4544 0036 75696E74 		.ascii	"uint64_t\000"
 4544      36345F74 
 4544      00
 4545              	.LASF83:
 4546 003f 6B65726E 		.ascii	"kernel_stats\000"
 4546      656C5F73 
 4546      74617473 
 4546      00
 4547              	.LASF158:
 4548 004c 5350495F 		.ascii	"SPI_ACTIVE\000"
 4548      41435449 
 4548      564500
 4549              	.LASF99:
 4550 0057 706F7274 		.ascii	"port_intctx\000"
 4550      5F696E74 
 4550      63747800 
 4551              	.LASF205:
 4552 0063 2E2E2F2E 		.ascii	"../../ChibiOS/os/hal/src/spi.c\000"
 4552      2E2F4368 
 4552      6962694F 
 4552      532F6F73 
 4552      2F68616C 
 4553              	.LASF72:
 4554 0082 73797374 		.ascii	"system_debug_t\000"
 4554      656D5F64 
 4554      65627567 
 4554      5F7400
 4555              	.LASF146:
 4556 0091 4F545950 		.ascii	"OTYPER\000"
 4556      455200
 4557              	.LASF137:
 4558 0098 73747265 		.ascii	"stream\000"
 4558      616D00
 4559              	.LASF175:
 4560 009f 706F7274 		.ascii	"port_lock\000"
 4560      5F6C6F63 
 4560      6B00
 4561              	.LASF112:
 4562 00a9 776F7273 		.ascii	"worst\000"
 4562      7400
 4563              	.LASF115:
 4564 00af 74696D65 		.ascii	"time_measurement_t\000"
 4564      5F6D6561 
 4564      73757265 
 4564      6D656E74 
 4564      5F7400
 4565              	.LASF145:
 4566 00c2 4D4F4445 		.ascii	"MODER\000"
 4566      5200
 4567              	.LASF14:
 4568 00c8 6C6F6E67 		.ascii	"long long unsigned int\000"
 4568      206C6F6E 
 4568      6720756E 
 4568      7369676E 
 4568      65642069 
 4569              	.LASF108:
ARM GAS  C:\Users\Luis\AppData\Local\Temp\ccE1imUd.s 			page 83


 4570 00df 63685F74 		.ascii	"ch_trace_buffer_t\000"
 4570      72616365 
 4570      5F627566 
 4570      6665725F 
 4570      7400
 4571              	.LASF157:
 4572 00f1 5350495F 		.ascii	"SPI_READY\000"
 4572      52454144 
 4572      5900
 4573              	.LASF103:
 4574 00fb 73655F73 		.ascii	"se_state\000"
 4574      74617465 
 4574      00
 4575              	.LASF148:
 4576 0104 50555044 		.ascii	"PUPDR\000"
 4576      5200
 4577              	.LASF122:
 4578 010a 65786974 		.ascii	"exitcode\000"
 4578      636F6465 
 4578      00
 4579              	.LASF141:
 4580 0113 76656374 		.ascii	"vector\000"
 4580      6F7200
 4581              	.LASF82:
 4582 011a 6D61696E 		.ascii	"mainthread\000"
 4582      74687265 
 4582      616400
 4583              	.LASF161:
 4584 0125 53504944 		.ascii	"SPIDriver\000"
 4584      72697665 
 4584      7200
 4585              	.LASF172:
 4586 012f 7373706F 		.ascii	"ssport\000"
 4586      727400
 4587              	.LASF69:
 4588 0136 76697274 		.ascii	"virtual_timers_list_t\000"
 4588      75616C5F 
 4588      74696D65 
 4588      72735F6C 
 4588      6973745F 
 4589              	.LASF203:
 4590 014c 49544D5F 		.ascii	"ITM_RxBuffer\000"
 4590      52784275 
 4590      66666572 
 4590      00
 4591              	.LASF194:
 4592 0159 72786275 		.ascii	"rxbuf\000"
 4592      6600
 4593              	.LASF16:
 4594 015f 72747469 		.ascii	"rttime_t\000"
 4594      6D655F74 
 4594      00
 4595              	.LASF29:
 4596 0168 705F7072 		.ascii	"p_prio\000"
 4596      696F00
 4597              	.LASF173:
 4598 016f 73737061 		.ascii	"sspad\000"
ARM GAS  C:\Users\Luis\AppData\Local\Temp\ccE1imUd.s 			page 84


 4598      6400
 4599              	.LASF181:
 4600 0175 6F73616C 		.ascii	"osalMutexObjectInit\000"
 4600      4D757465 
 4600      784F626A 
 4600      65637449 
 4600      6E697400 
 4601              	.LASF12:
 4602 0189 6C6F6E67 		.ascii	"long long int\000"
 4602      206C6F6E 
 4602      6720696E 
 4602      7400
 4603              	.LASF1:
 4604 0197 7369676E 		.ascii	"signed char\000"
 4604      65642063 
 4604      68617200 
 4605              	.LASF149:
 4606 01a3 42535252 		.ascii	"BSRR\000"
 4606      00
 4607              	.LASF156:
 4608 01a8 5350495F 		.ascii	"SPI_STOP\000"
 4608      53544F50 
 4608      00
 4609              	.LASF93:
 4610 01b1 49325343 		.ascii	"I2SCFGR\000"
 4610      46475200 
 4611              	.LASF132:
 4612 01b9 6D5F7175 		.ascii	"m_queue\000"
 4612      65756500 
 4613              	.LASF81:
 4614 01c1 76746C69 		.ascii	"vtlist\000"
 4614      737400
 4615              	.LASF176:
 4616 01c8 706F7274 		.ascii	"port_unlock\000"
 4616      5F756E6C 
 4616      6F636B00 
 4617              	.LASF206:
 4618 01d4 433A5C55 		.ascii	"C:\\Users\\Luis\\git\\DSP-Library-Lanin\\examples\\"
 4618      73657273 
 4618      5C4C7569 
 4618      735C6769 
 4618      745C4453 
 4619 0201 4453502D 		.ascii	"DSP-Library\000"
 4619      4C696272 
 4619      61727900 
 4620              	.LASF170:
 4621 020d 73706963 		.ascii	"spicallback_t\000"
 4621      616C6C62 
 4621      61636B5F 
 4621      7400
 4622              	.LASF162:
 4623 021b 73746174 		.ascii	"state\000"
 4623      6500
 4624              	.LASF79:
 4625 0221 63685F73 		.ascii	"ch_system\000"
 4625      79737465 
 4625      6D00
ARM GAS  C:\Users\Luis\AppData\Local\Temp\ccE1imUd.s 			page 85


 4626              	.LASF9:
 4627 022b 6C6F6E67 		.ascii	"long int\000"
 4627      20696E74 
 4627      00
 4628              	.LASF18:
 4629 0234 74737461 		.ascii	"tstate_t\000"
 4629      74655F74 
 4629      00
 4630              	.LASF196:
 4631 023d 73706953 		.ascii	"spiStartReceive\000"
 4631      74617274 
 4631      52656365 
 4631      69766500 
 4632              	.LASF164:
 4633 024d 74687265 		.ascii	"thread\000"
 4633      616400
 4634              	.LASF101:
 4635 0254 73655F74 		.ascii	"se_tp\000"
 4635      7000
 4636              	.LASF6:
 4637 025a 75696E74 		.ascii	"uint16_t\000"
 4637      31365F74 
 4637      00
 4638              	.LASF191:
 4639 0263 73706953 		.ascii	"spiStartIgnore\000"
 4639      74617274 
 4639      49676E6F 
 4639      726500
 4640              	.LASF31:
 4641 0272 705F6E65 		.ascii	"p_newer\000"
 4641      77657200 
 4642              	.LASF171:
 4643 027a 656E645F 		.ascii	"end_cb\000"
 4643      636200
 4644              	.LASF168:
 4645 0281 7278646D 		.ascii	"rxdmamode\000"
 4645      616D6F64 
 4645      6500
 4646              	.LASF167:
 4647 028b 646D6174 		.ascii	"dmatx\000"
 4647      7800
 4648              	.LASF105:
 4649 0291 74625F73 		.ascii	"tb_size\000"
 4649      697A6500 
 4650              	.LASF147:
 4651 0299 4F535045 		.ascii	"OSPEEDR\000"
 4651      45445200 
 4652              	.LASF58:
 4653 02a1 725F6E65 		.ascii	"r_newer\000"
 4653      77657200 
 4654              	.LASF44:
 4655 02a9 705F6D70 		.ascii	"p_mpool\000"
 4655      6F6F6C00 
 4656              	.LASF96:
 4657 02b1 72656761 		.ascii	"regarm_t\000"
 4657      726D5F74 
 4657      00
ARM GAS  C:\Users\Luis\AppData\Local\Temp\ccE1imUd.s 			page 86


 4658              	.LASF65:
 4659 02ba 76745F70 		.ascii	"vt_prev\000"
 4659      72657600 
 4660              	.LASF56:
 4661 02c2 725F7072 		.ascii	"r_prio\000"
 4661      696F00
 4662              	.LASF190:
 4663 02c9 73706955 		.ascii	"spiUnselect\000"
 4663      6E73656C 
 4663      65637400 
 4664              	.LASF179:
 4665 02d5 6F73616C 		.ascii	"osalSysLock\000"
 4665      5379734C 
 4665      6F636B00 
 4666              	.LASF136:
 4667 02e1 6D757465 		.ascii	"mutex_t\000"
 4667      785F7400 
 4668              	.LASF208:
 4669 02e9 76616C75 		.ascii	"value\000"
 4669      6500
 4670              	.LASF76:
 4671 02ef 6C6F636B 		.ascii	"lock_cnt\000"
 4671      5F636E74 
 4671      00
 4672              	.LASF84:
 4673 02f8 69646C65 		.ascii	"idle_thread_wa\000"
 4673      5F746872 
 4673      6561645F 
 4673      776100
 4674              	.LASF23:
 4675 0307 636E745F 		.ascii	"cnt_t\000"
 4675      7400
 4676              	.LASF34:
 4677 030d 705F7374 		.ascii	"p_stklimit\000"
 4677      6B6C696D 
 4677      697400
 4678              	.LASF0:
 4679 0318 756E7369 		.ascii	"unsigned int\000"
 4679      676E6564 
 4679      20696E74 
 4679      00
 4680              	.LASF64:
 4681 0325 76745F6E 		.ascii	"vt_next\000"
 4681      65787400 
 4682              	.LASF193:
 4683 032d 74786275 		.ascii	"txbuf\000"
 4683      6600
 4684              	.LASF125:
 4685 0333 77747365 		.ascii	"wtsemp\000"
 4685      6D7000
 4686              	.LASF200:
 4687 033a 73706952 		.ascii	"spiReceive\000"
 4687      65636569 
 4687      766500
 4688              	.LASF39:
 4689 0345 705F6D73 		.ascii	"p_msgqueue\000"
 4689      67717565 
ARM GAS  C:\Users\Luis\AppData\Local\Temp\ccE1imUd.s 			page 87


 4689      756500
 4690              	.LASF46:
 4691 0350 746C7350 		.ascii	"tlsPtr\000"
 4691      747200
 4692              	.LASF150:
 4693 0357 4C434B52 		.ascii	"LCKR\000"
 4693      00
 4694              	.LASF139:
 4695 035c 69736869 		.ascii	"ishift\000"
 4695      667400
 4696              	.LASF130:
 4697 0363 735F636E 		.ascii	"s_cnt\000"
 4697      7400
 4698              	.LASF195:
 4699 0369 73706953 		.ascii	"spiStartSend\000"
 4699      74617274 
 4699      53656E64 
 4699      00
 4700              	.LASF7:
 4701 0376 73686F72 		.ascii	"short unsigned int\000"
 4701      7420756E 
 4701      7369676E 
 4701      65642069 
 4701      6E7400
 4702              	.LASF120:
 4703 0389 6B65726E 		.ascii	"kernel_stats_t\000"
 4703      656C5F73 
 4703      74617473 
 4703      5F7400
 4704              	.LASF49:
 4705 0398 63685F74 		.ascii	"ch_thread\000"
 4705      68726561 
 4705      6400
 4706              	.LASF209:
 4707 03a2 6F73616C 		.ascii	"osalThreadSuspendS\000"
 4707      54687265 
 4707      61645375 
 4707      7370656E 
 4707      645300
 4708              	.LASF21:
 4709 03b5 6D73675F 		.ascii	"msg_t\000"
 4709      7400
 4710              	.LASF113:
 4711 03bb 6C617374 		.ascii	"last\000"
 4711      00
 4712              	.LASF186:
 4713 03c0 73706953 		.ascii	"spiStart\000"
 4713      74617274 
 4713      00
 4714              	.LASF24:
 4715 03c9 75636E74 		.ascii	"ucnt_t\000"
 4715      5F7400
 4716              	.LASF78:
 4717 03d0 63685F73 		.ascii	"ch_system_t\000"
 4717      79737465 
 4717      6D5F7400 
 4718              	.LASF17:
ARM GAS  C:\Users\Luis\AppData\Local\Temp\ccE1imUd.s 			page 88


 4719 03dc 746D6F64 		.ascii	"tmode_t\000"
 4719      655F7400 
 4720              	.LASF119:
 4721 03e4 6D5F6372 		.ascii	"m_crit_isr\000"
 4721      69745F69 
 4721      737200
 4722              	.LASF54:
 4723 03ef 63685F72 		.ascii	"ch_ready_list\000"
 4723      65616479 
 4723      5F6C6973 
 4723      7400
 4724              	.LASF22:
 4725 03fd 6576656E 		.ascii	"eventmask_t\000"
 4725      746D6173 
 4725      6B5F7400 
 4726              	.LASF97:
 4727 0409 73746B61 		.ascii	"stkalign_t\000"
 4727      6C69676E 
 4727      5F7400
 4728              	.LASF210:
 4729 0414 73706949 		.ascii	"spiInit\000"
 4729      6E697400 
 4730              	.LASF129:
 4731 041c 735F7175 		.ascii	"s_queue\000"
 4731      65756500 
 4732              	.LASF198:
 4733 0424 73706945 		.ascii	"spiExchange\000"
 4733      78636861 
 4733      6E676500 
 4734              	.LASF38:
 4735 0430 705F7761 		.ascii	"p_waiting\000"
 4735      6974696E 
 4735      6700
 4736              	.LASF94:
 4737 043a 49325350 		.ascii	"I2SPR\000"
 4737      5200
 4738              	.LASF85:
 4739 0440 73697A65 		.ascii	"sizetype\000"
 4739      74797065 
 4739      00
 4740              	.LASF47:
 4741 0449 74687265 		.ascii	"thread_reference_t\000"
 4741      61645F72 
 4741      65666572 
 4741      656E6365 
 4741      5F7400
 4742              	.LASF70:
 4743 045c 63685F76 		.ascii	"ch_virtual_timers_list\000"
 4743      69727475 
 4743      616C5F74 
 4743      696D6572 
 4743      735F6C69 
 4744              	.LASF144:
 4745 0473 636C6561 		.ascii	"clear\000"
 4745      7200
 4746              	.LASF124:
 4747 0479 77747472 		.ascii	"wttrp\000"
ARM GAS  C:\Users\Luis\AppData\Local\Temp\ccE1imUd.s 			page 89


 4747      7000
 4748              	.LASF106:
 4749 047f 74625F70 		.ascii	"tb_ptr\000"
 4749      747200
 4750              	.LASF104:
 4751 0486 63685F73 		.ascii	"ch_swc_event_t\000"
 4751      77635F65 
 4751      76656E74 
 4751      5F7400
 4752              	.LASF71:
 4753 0495 76745F6C 		.ascii	"vt_lasttime\000"
 4753      61737474 
 4753      696D6500 
 4754              	.LASF32:
 4755 04a1 705F6F6C 		.ascii	"p_older\000"
 4755      64657200 
 4756              	.LASF57:
 4757 04a9 725F6374 		.ascii	"r_ctx\000"
 4757      7800
 4758              	.LASF169:
 4759 04af 7478646D 		.ascii	"txdmamode\000"
 4759      616D6F64 
 4759      6500
 4760              	.LASF110:
 4761 04b9 746D5F63 		.ascii	"tm_calibration_t\000"
 4761      616C6962 
 4761      72617469 
 4761      6F6E5F74 
 4761      00
 4762              	.LASF60:
 4763 04ca 725F6375 		.ascii	"r_current\000"
 4763      7272656E 
 4763      7400
 4764              	.LASF59:
 4765 04d4 725F6F6C 		.ascii	"r_older\000"
 4765      64657200 
 4766              	.LASF152:
 4767 04dc 41465248 		.ascii	"AFRH\000"
 4767      00
 4768              	.LASF114:
 4769 04e1 63756D75 		.ascii	"cumulative\000"
 4769      6C617469 
 4769      766500
 4770              	.LASF90:
 4771 04ec 43524350 		.ascii	"CRCPR\000"
 4771      5200
 4772              	.LASF151:
 4773 04f2 4146524C 		.ascii	"AFRL\000"
 4773      00
 4774              	.LASF92:
 4775 04f7 54584352 		.ascii	"TXCRCR\000"
 4775      435200
 4776              	.LASF107:
 4777 04fe 74625F62 		.ascii	"tb_buffer\000"
 4777      75666665 
 4777      7200
 4778              	.LASF62:
ARM GAS  C:\Users\Luis\AppData\Local\Temp\ccE1imUd.s 			page 90


 4779 0508 76697274 		.ascii	"virtual_timer_t\000"
 4779      75616C5F 
 4779      74696D65 
 4779      725F7400 
 4780              	.LASF28:
 4781 0518 705F7072 		.ascii	"p_prev\000"
 4781      657600
 4782              	.LASF142:
 4783 051f 73746D33 		.ascii	"stm32_dma_stream_t\000"
 4783      325F646D 
 4783      615F7374 
 4783      7265616D 
 4783      5F7400
 4784              	.LASF199:
 4785 0532 73706953 		.ascii	"spiSend\000"
 4785      656E6400 
 4786              	.LASF20:
 4787 053a 74707269 		.ascii	"tprio_t\000"
 4787      6F5F7400 
 4788              	.LASF165:
 4789 0542 6D757465 		.ascii	"mutex\000"
 4789      7800
 4790              	.LASF117:
 4791 0548 6E5F6374 		.ascii	"n_ctxswc\000"
 4791      78737763 
 4791      00
 4792              	.LASF143:
 4793 0551 5F426F6F 		.ascii	"_Bool\000"
 4793      6C00
 4794              	.LASF8:
 4795 0557 696E7433 		.ascii	"int32_t\000"
 4795      325F7400 
 4796              	.LASF4:
 4797 055f 756E7369 		.ascii	"unsigned char\000"
 4797      676E6564 
 4797      20636861 
 4797      7200
 4798              	.LASF42:
 4799 056d 705F6D74 		.ascii	"p_mtxlist\000"
 4799      786C6973 
 4799      7400
 4800              	.LASF5:
 4801 0577 73686F72 		.ascii	"short int\000"
 4801      7420696E 
 4801      7400
 4802              	.LASF35:
 4803 0581 705F7374 		.ascii	"p_state\000"
 4803      61746500 
 4804              	.LASF153:
 4805 0589 73746D33 		.ascii	"stm32_gpio_t\000"
 4805      325F6770 
 4805      696F5F74 
 4805      00
 4806              	.LASF185:
 4807 0596 7370694F 		.ascii	"spiObjectInit\000"
 4807      626A6563 
 4807      74496E69 
ARM GAS  C:\Users\Luis\AppData\Local\Temp\ccE1imUd.s 			page 91


 4807      7400
 4808              	.LASF127:
 4809 05a4 65776D61 		.ascii	"ewmask\000"
 4809      736B00
 4810              	.LASF27:
 4811 05ab 705F6E65 		.ascii	"p_next\000"
 4811      787400
 4812              	.LASF188:
 4813 05b2 73706953 		.ascii	"spiStop\000"
 4813      746F7000 
 4814              	.LASF36:
 4815 05ba 705F666C 		.ascii	"p_flags\000"
 4815      61677300 
 4816              	.LASF187:
 4817 05c2 5F5F6675 		.ascii	"__func__\000"
 4817      6E635F5F 
 4817      00
 4818              	.LASF45:
 4819 05cb 705F7374 		.ascii	"p_stats\000"
 4819      61747300 
 4820              	.LASF178:
 4821 05d3 63685379 		.ascii	"chSysLock\000"
 4821      734C6F63 
 4821      6B00
 4822              	.LASF189:
 4823 05dd 73706953 		.ascii	"spiSelect\000"
 4823      656C6563 
 4823      7400
 4824              	.LASF180:
 4825 05e7 6F73616C 		.ascii	"osalSysUnlock\000"
 4825      53797355 
 4825      6E6C6F63 
 4825      6B00
 4826              	.LASF40:
 4827 05f5 705F6D73 		.ascii	"p_msg\000"
 4827      6700
 4828              	.LASF128:
 4829 05fb 63685F73 		.ascii	"ch_semaphore\000"
 4829      656D6170 
 4829      686F7265 
 4829      00
 4830              	.LASF41:
 4831 0608 705F6570 		.ascii	"p_epending\000"
 4831      656E6469 
 4831      6E6700
 4832              	.LASF138:
 4833 0613 69666372 		.ascii	"ifcr\000"
 4833      00
 4834              	.LASF10:
 4835 0618 75696E74 		.ascii	"uint32_t\000"
 4835      33325F74 
 4835      00
 4836              	.LASF126:
 4837 0621 77746D74 		.ascii	"wtmtxp\000"
 4837      787000
 4838              	.LASF55:
 4839 0628 725F7175 		.ascii	"r_queue\000"
ARM GAS  C:\Users\Luis\AppData\Local\Temp\ccE1imUd.s 			page 92


 4839      65756500 
 4840              	.LASF66:
 4841 0630 76745F64 		.ascii	"vt_delta\000"
 4841      656C7461 
 4841      00
 4842              	.LASF50:
 4843 0639 63685F74 		.ascii	"ch_threads_list\000"
 4843      68726561 
 4843      64735F6C 
 4843      69737400 
 4844              	.LASF11:
 4845 0649 6C6F6E67 		.ascii	"long unsigned int\000"
 4845      20756E73 
 4845      69676E65 
 4845      6420696E 
 4845      7400
 4846              	.LASF95:
 4847 065b 5350495F 		.ascii	"SPI_TypeDef\000"
 4847      54797065 
 4847      44656600 
 4848              	.LASF135:
 4849 0667 63686172 		.ascii	"char\000"
 4849      00
 4850              	.LASF159:
 4851 066c 5350495F 		.ascii	"SPI_COMPLETE\000"
 4851      434F4D50 
 4851      4C455445 
 4851      00
 4852              	.LASF163:
 4853 0679 636F6E66 		.ascii	"config\000"
 4853      696700
 4854              	.LASF183:
 4855 0680 6F73616C 		.ascii	"osalMutexUnlock\000"
 4855      4D757465 
 4855      78556E6C 
 4855      6F636B00 
 4856              	.LASF204:
 4857 0690 474E5520 		.ascii	"GNU C 4.8.3 20131129 (release) [ARM/embedded-4_8-br"
 4857      4320342E 
 4857      382E3320 
 4857      32303133 
 4857      31313239 
 4858 06c3 616E6368 		.ascii	"anch revision 205641] -mcpu=cortex-m4 -mapcs-frame "
 4858      20726576 
 4858      6973696F 
 4858      6E203230 
 4858      35363431 
 4859 06f6 2D6D6E6F 		.ascii	"-mno-thumb-interwork -mthumb -ggdb -O0 -falign-func"
 4859      2D746875 
 4859      6D622D69 
 4859      6E746572 
 4859      776F726B 
 4860 0729 74696F6E 		.ascii	"tions=16 -ffunction-sections -fdata-sections -fno-c"
 4860      733D3136 
 4860      202D6666 
 4860      756E6374 
 4860      696F6E2D 
ARM GAS  C:\Users\Luis\AppData\Local\Temp\ccE1imUd.s 			page 93


 4861 075c 6F6D6D6F 		.ascii	"ommon\000"
 4861      6E00
 4862              	.LASF111:
 4863 0762 62657374 		.ascii	"best\000"
 4863      00
 4864              	.LASF160:
 4865 0767 73706973 		.ascii	"spistate_t\000"
 4865      74617465 
 4865      5F7400
 4866              	.LASF134:
 4867 0772 6D5F6E65 		.ascii	"m_next\000"
 4867      787400
 4868              	.LASF25:
 4869 0779 73797374 		.ascii	"systime_t\000"
 4869      696D655F 
 4869      7400
 4870              	.LASF43:
 4871 0783 705F7265 		.ascii	"p_realprio\000"
 4871      616C7072 
 4871      696F00
 4872              	.LASF61:
 4873 078e 76746675 		.ascii	"vtfunc_t\000"
 4873      6E635F74 
 4873      00
 4874              	.LASF116:
 4875 0797 6E5F6972 		.ascii	"n_irq\000"
 4875      7100
 4876              	.LASF207:
 4877 079d 5F5F7365 		.ascii	"__set_BASEPRI\000"
 4877      745F4241 
 4877      53455052 
 4877      4900
 4878              	.LASF182:
 4879 07ab 6F73616C 		.ascii	"osalMutexLock\000"
 4879      4D757465 
 4879      784C6F63 
 4879      6B00
 4880              	.LASF86:
 4881 07b9 4E445452 		.ascii	"NDTR\000"
 4881      00
 4882              	.LASF74:
 4883 07be 70616E69 		.ascii	"panic_msg\000"
 4883      635F6D73 
 4883      6700
 4884              	.LASF202:
 4885 07c8 73706952 		.ascii	"spiReleaseBus\000"
 4885      656C6561 
 4885      73654275 
 4885      7300
 4886              	.LASF197:
 4887 07d6 73706949 		.ascii	"spiIgnore\000"
 4887      676E6F72 
 4887      6500
 4888              	.LASF109:
 4889 07e0 6F666673 		.ascii	"offset\000"
 4889      657400
 4890              	.LASF89:
ARM GAS  C:\Users\Luis\AppData\Local\Temp\ccE1imUd.s 			page 94


 4891 07e7 444D415F 		.ascii	"DMA_Stream_TypeDef\000"
 4891      53747265 
 4891      616D5F54 
 4891      79706544 
 4891      656600
 4892              	.LASF154:
 4893 07fa 696F706F 		.ascii	"ioportid_t\000"
 4893      72746964 
 4893      5F7400
 4894              	.LASF98:
 4895 0805 636F6E74 		.ascii	"context\000"
 4895      65787400 
 4896              	.LASF174:
 4897 080d 53504943 		.ascii	"SPIConfig\000"
 4897      6F6E6669 
 4897      6700
 4898              	.LASF63:
 4899 0817 63685F76 		.ascii	"ch_virtual_timer\000"
 4899      69727475 
 4899      616C5F74 
 4899      696D6572 
 4899      00
 4900              	.LASF15:
 4901 0828 7274636E 		.ascii	"rtcnt_t\000"
 4901      745F7400 
 4902              	.LASF88:
 4903 0830 4D314152 		.ascii	"M1AR\000"
 4903      00
 4904              	.LASF155:
 4905 0835 5350495F 		.ascii	"SPI_UNINIT\000"
 4905      554E494E 
 4905      495400
 4906              	.LASF140:
 4907 0840 73656C66 		.ascii	"selfindex\000"
 4907      696E6465 
 4907      7800
 4908              	.LASF68:
 4909 084a 76745F70 		.ascii	"vt_par\000"
 4909      617200
 4910              	.LASF51:
 4911 0851 74687265 		.ascii	"threads_queue_t\000"
 4911      6164735F 
 4911      71756575 
 4911      655F7400 
 4912              	.LASF131:
 4913 0861 63685F6D 		.ascii	"ch_mutex\000"
 4913      75746578 
 4913      00
 4914              	.LASF37:
 4915 086a 705F7265 		.ascii	"p_refs\000"
 4915      667300
 4916              	.LASF75:
 4917 0871 6973725F 		.ascii	"isr_cnt\000"
 4917      636E7400 
 4918              	.LASF192:
 4919 0879 73706953 		.ascii	"spiStartExchange\000"
 4919      74617274 
ARM GAS  C:\Users\Luis\AppData\Local\Temp\ccE1imUd.s 			page 95


 4919      45786368 
 4919      616E6765 
 4919      00
 4920              	.LASF26:
 4921 088a 74687265 		.ascii	"thread_t\000"
 4921      61645F74 
 4921      00
 4922              	.LASF91:
 4923 0893 52584352 		.ascii	"RXCRCR\000"
 4923      435200
 4924              	.LASF80:
 4925 089a 726C6973 		.ascii	"rlist\000"
 4925      7400
 4926              	.LASF3:
 4927 08a0 75696E74 		.ascii	"uint8_t\000"
 4927      385F7400 
 4928              	.LASF184:
 4929 08a8 73706970 		.ascii	"spip\000"
 4929      00
 4930              	.LASF123:
 4931 08ad 77746F62 		.ascii	"wtobjp\000"
 4931      6A7000
 4932              	.LASF33:
 4933 08b4 705F6E61 		.ascii	"p_name\000"
 4933      6D6500
 4934              	.LASF48:
 4935 08bb 74687265 		.ascii	"threads_list_t\000"
 4935      6164735F 
 4935      6C697374 
 4935      5F7400
 4936              	.LASF201:
 4937 08ca 73706941 		.ascii	"spiAcquireBus\000"
 4937      63717569 
 4937      72654275 
 4937      7300
 4938              	.LASF77:
 4939 08d8 74726163 		.ascii	"trace_buffer\000"
 4939      655F6275 
 4939      66666572 
 4939      00
 4940              	.LASF177:
 4941 08e5 63685379 		.ascii	"chSysUnlock\000"
 4941      73556E6C 
 4941      6F636B00 
 4942              	.LASF73:
 4943 08f1 63685F73 		.ascii	"ch_system_debug\000"
 4943      79737465 
 4943      6D5F6465 
 4943      62756700 
 4944              	.LASF118:
 4945 0901 6D5F6372 		.ascii	"m_crit_thd\000"
 4945      69745F74 
 4945      686400
 4946              	.LASF133:
 4947 090c 6D5F6F77 		.ascii	"m_owner\000"
 4947      6E657200 
 4948              	.LASF102:
ARM GAS  C:\Users\Luis\AppData\Local\Temp\ccE1imUd.s 			page 96


 4949 0914 73655F77 		.ascii	"se_wtobjp\000"
 4949      746F626A 
 4949      7000
 4950              	.LASF30:
 4951 091e 705F6374 		.ascii	"p_ctx\000"
 4951      7800
 4952              	.LASF67:
 4953 0924 76745F66 		.ascii	"vt_func\000"
 4953      756E6300 
 4954              	.LASF52:
 4955 092c 63685F74 		.ascii	"ch_threads_queue\000"
 4955      68726561 
 4955      64735F71 
 4955      75657565 
 4955      00
 4956              		.ident	"GCC: (GNU Tools for ARM Embedded Processors) 4.8.3 20131129 (release) [ARM/embedded-4_8-br
ARM GAS  C:\Users\Luis\AppData\Local\Temp\ccE1imUd.s 			page 97


DEFINED SYMBOLS
                            *ABS*:00000000 spi.c
C:\Users\Luis\AppData\Local\Temp\ccE1imUd.s:19     .text.port_lock:00000000 $t
C:\Users\Luis\AppData\Local\Temp\ccE1imUd.s:24     .text.port_lock:00000000 port_lock
C:\Users\Luis\AppData\Local\Temp\ccE1imUd.s:62     .text.port_unlock:00000000 $t
C:\Users\Luis\AppData\Local\Temp\ccE1imUd.s:67     .text.port_unlock:00000000 port_unlock
C:\Users\Luis\AppData\Local\Temp\ccE1imUd.s:103    .text.chSysLock:00000000 $t
C:\Users\Luis\AppData\Local\Temp\ccE1imUd.s:108    .text.chSysLock:00000000 chSysLock
C:\Users\Luis\AppData\Local\Temp\ccE1imUd.s:133    .text.chSysUnlock:00000000 $t
C:\Users\Luis\AppData\Local\Temp\ccE1imUd.s:138    .text.chSysUnlock:00000000 chSysUnlock
C:\Users\Luis\AppData\Local\Temp\ccE1imUd.s:179    .text.chSysUnlock:00000034 $d
C:\Users\Luis\AppData\Local\Temp\ccE1imUd.s:1441   .rodata.__func__.5842:00000000 __func__.5842
C:\Users\Luis\AppData\Local\Temp\ccE1imUd.s:185    .text.osalSysLock:00000000 $t
C:\Users\Luis\AppData\Local\Temp\ccE1imUd.s:190    .text.osalSysLock:00000000 osalSysLock
C:\Users\Luis\AppData\Local\Temp\ccE1imUd.s:211    .text.osalSysUnlock:00000000 $t
C:\Users\Luis\AppData\Local\Temp\ccE1imUd.s:216    .text.osalSysUnlock:00000000 osalSysUnlock
C:\Users\Luis\AppData\Local\Temp\ccE1imUd.s:236    .text.osalThreadSuspendS:00000000 $t
C:\Users\Luis\AppData\Local\Temp\ccE1imUd.s:241    .text.osalThreadSuspendS:00000000 osalThreadSuspendS
C:\Users\Luis\AppData\Local\Temp\ccE1imUd.s:270    .text.osalMutexObjectInit:00000000 $t
C:\Users\Luis\AppData\Local\Temp\ccE1imUd.s:275    .text.osalMutexObjectInit:00000000 osalMutexObjectInit
C:\Users\Luis\AppData\Local\Temp\ccE1imUd.s:302    .text.osalMutexLock:00000000 $t
C:\Users\Luis\AppData\Local\Temp\ccE1imUd.s:307    .text.osalMutexLock:00000000 osalMutexLock
C:\Users\Luis\AppData\Local\Temp\ccE1imUd.s:334    .text.osalMutexUnlock:00000000 $t
C:\Users\Luis\AppData\Local\Temp\ccE1imUd.s:339    .text.osalMutexUnlock:00000000 osalMutexUnlock
C:\Users\Luis\AppData\Local\Temp\ccE1imUd.s:366    .text.spiInit:00000000 $t
C:\Users\Luis\AppData\Local\Temp\ccE1imUd.s:372    .text.spiInit:00000000 spiInit
C:\Users\Luis\AppData\Local\Temp\ccE1imUd.s:393    .text.spiObjectInit:00000000 $t
C:\Users\Luis\AppData\Local\Temp\ccE1imUd.s:399    .text.spiObjectInit:00000000 spiObjectInit
C:\Users\Luis\AppData\Local\Temp\ccE1imUd.s:440    .text.spiStart:00000000 $t
C:\Users\Luis\AppData\Local\Temp\ccE1imUd.s:446    .text.spiStart:00000000 spiStart
C:\Users\Luis\AppData\Local\Temp\ccE1imUd.s:511    .text.spiStart:00000054 $d
C:\Users\Luis\AppData\Local\Temp\ccE1imUd.s:1435   .rodata.__func__.7913:00000000 __func__.7913
C:\Users\Luis\AppData\Local\Temp\ccE1imUd.s:516    .text.spiStop:00000000 $t
C:\Users\Luis\AppData\Local\Temp\ccE1imUd.s:522    .text.spiStop:00000000 spiStop
C:\Users\Luis\AppData\Local\Temp\ccE1imUd.s:577    .text.spiStop:00000044 $d
C:\Users\Luis\AppData\Local\Temp\ccE1imUd.s:1447   .rodata.__func__.7917:00000000 __func__.7917
C:\Users\Luis\AppData\Local\Temp\ccE1imUd.s:582    .text.spiSelect:00000000 $t
C:\Users\Luis\AppData\Local\Temp\ccE1imUd.s:588    .text.spiSelect:00000000 spiSelect
C:\Users\Luis\AppData\Local\Temp\ccE1imUd.s:635    .text.spiSelect:00000038 $d
C:\Users\Luis\AppData\Local\Temp\ccE1imUd.s:1453   .rodata.__func__.7921:00000000 __func__.7921
C:\Users\Luis\AppData\Local\Temp\ccE1imUd.s:640    .text.spiUnselect:00000000 $t
C:\Users\Luis\AppData\Local\Temp\ccE1imUd.s:646    .text.spiUnselect:00000000 spiUnselect
C:\Users\Luis\AppData\Local\Temp\ccE1imUd.s:693    .text.spiUnselect:00000038 $d
C:\Users\Luis\AppData\Local\Temp\ccE1imUd.s:1459   .rodata.__func__.7925:00000000 __func__.7925
C:\Users\Luis\AppData\Local\Temp\ccE1imUd.s:698    .text.spiStartIgnore:00000000 $t
C:\Users\Luis\AppData\Local\Temp\ccE1imUd.s:704    .text.spiStartIgnore:00000000 spiStartIgnore
C:\Users\Luis\AppData\Local\Temp\ccE1imUd.s:761    .text.spiStartIgnore:00000048 $d
C:\Users\Luis\AppData\Local\Temp\ccE1imUd.s:1465   .rodata.__func__.7930:00000000 __func__.7930
C:\Users\Luis\AppData\Local\Temp\ccE1imUd.s:766    .text.spiStartExchange:00000000 $t
C:\Users\Luis\AppData\Local\Temp\ccE1imUd.s:772    .text.spiStartExchange:00000000 spiStartExchange
C:\Users\Luis\AppData\Local\Temp\ccE1imUd.s:839    .text.spiStartExchange:0000005c $d
C:\Users\Luis\AppData\Local\Temp\ccE1imUd.s:1471   .rodata.__func__.7937:00000000 __func__.7937
C:\Users\Luis\AppData\Local\Temp\ccE1imUd.s:844    .text.spiStartSend:00000000 $t
C:\Users\Luis\AppData\Local\Temp\ccE1imUd.s:850    .text.spiStartSend:00000000 spiStartSend
C:\Users\Luis\AppData\Local\Temp\ccE1imUd.s:912    .text.spiStartSend:00000050 $d
C:\Users\Luis\AppData\Local\Temp\ccE1imUd.s:1477   .rodata.__func__.7943:00000000 __func__.7943
C:\Users\Luis\AppData\Local\Temp\ccE1imUd.s:917    .text.spiStartReceive:00000000 $t
ARM GAS  C:\Users\Luis\AppData\Local\Temp\ccE1imUd.s 			page 98


C:\Users\Luis\AppData\Local\Temp\ccE1imUd.s:923    .text.spiStartReceive:00000000 spiStartReceive
C:\Users\Luis\AppData\Local\Temp\ccE1imUd.s:985    .text.spiStartReceive:00000050 $d
C:\Users\Luis\AppData\Local\Temp\ccE1imUd.s:1483   .rodata.__func__.7949:00000000 __func__.7949
C:\Users\Luis\AppData\Local\Temp\ccE1imUd.s:990    .text.spiIgnore:00000000 $t
C:\Users\Luis\AppData\Local\Temp\ccE1imUd.s:996    .text.spiIgnore:00000000 spiIgnore
C:\Users\Luis\AppData\Local\Temp\ccE1imUd.s:1067   .text.spiIgnore:00000060 $d
C:\Users\Luis\AppData\Local\Temp\ccE1imUd.s:1489   .rodata.__func__.7954:00000000 __func__.7954
C:\Users\Luis\AppData\Local\Temp\ccE1imUd.s:1072   .text.spiExchange:00000000 $t
C:\Users\Luis\AppData\Local\Temp\ccE1imUd.s:1078   .text.spiExchange:00000000 spiExchange
C:\Users\Luis\AppData\Local\Temp\ccE1imUd.s:1159   .text.spiExchange:00000074 $d
C:\Users\Luis\AppData\Local\Temp\ccE1imUd.s:1495   .rodata.__func__.7961:00000000 __func__.7961
C:\Users\Luis\AppData\Local\Temp\ccE1imUd.s:1164   .text.spiSend:00000000 $t
C:\Users\Luis\AppData\Local\Temp\ccE1imUd.s:1170   .text.spiSend:00000000 spiSend
C:\Users\Luis\AppData\Local\Temp\ccE1imUd.s:1246   .text.spiSend:0000006c $d
C:\Users\Luis\AppData\Local\Temp\ccE1imUd.s:1501   .rodata.__func__.7967:00000000 __func__.7967
C:\Users\Luis\AppData\Local\Temp\ccE1imUd.s:1251   .text.spiReceive:00000000 $t
C:\Users\Luis\AppData\Local\Temp\ccE1imUd.s:1257   .text.spiReceive:00000000 spiReceive
C:\Users\Luis\AppData\Local\Temp\ccE1imUd.s:1333   .text.spiReceive:0000006c $d
C:\Users\Luis\AppData\Local\Temp\ccE1imUd.s:1507   .rodata.__func__.7973:00000000 __func__.7973
C:\Users\Luis\AppData\Local\Temp\ccE1imUd.s:1338   .text.spiAcquireBus:00000000 $t
C:\Users\Luis\AppData\Local\Temp\ccE1imUd.s:1344   .text.spiAcquireBus:00000000 spiAcquireBus
C:\Users\Luis\AppData\Local\Temp\ccE1imUd.s:1380   .text.spiAcquireBus:00000024 $d
C:\Users\Luis\AppData\Local\Temp\ccE1imUd.s:1513   .rodata.__func__.7977:00000000 __func__.7977
C:\Users\Luis\AppData\Local\Temp\ccE1imUd.s:1385   .text.spiReleaseBus:00000000 $t
C:\Users\Luis\AppData\Local\Temp\ccE1imUd.s:1391   .text.spiReleaseBus:00000000 spiReleaseBus
C:\Users\Luis\AppData\Local\Temp\ccE1imUd.s:1427   .text.spiReleaseBus:00000024 $d
C:\Users\Luis\AppData\Local\Temp\ccE1imUd.s:1519   .rodata.__func__.7981:00000000 __func__.7981
C:\Users\Luis\AppData\Local\Temp\ccE1imUd.s:1432   .rodata.__func__.7913:00000000 $d
C:\Users\Luis\AppData\Local\Temp\ccE1imUd.s:1438   .rodata.__func__.5842:00000000 $d
C:\Users\Luis\AppData\Local\Temp\ccE1imUd.s:1444   .rodata.__func__.7917:00000000 $d
C:\Users\Luis\AppData\Local\Temp\ccE1imUd.s:1450   .rodata.__func__.7921:00000000 $d
C:\Users\Luis\AppData\Local\Temp\ccE1imUd.s:1456   .rodata.__func__.7925:00000000 $d
C:\Users\Luis\AppData\Local\Temp\ccE1imUd.s:1462   .rodata.__func__.7930:00000000 $d
C:\Users\Luis\AppData\Local\Temp\ccE1imUd.s:1468   .rodata.__func__.7937:00000000 $d
C:\Users\Luis\AppData\Local\Temp\ccE1imUd.s:1474   .rodata.__func__.7943:00000000 $d
C:\Users\Luis\AppData\Local\Temp\ccE1imUd.s:1480   .rodata.__func__.7949:00000000 $d
C:\Users\Luis\AppData\Local\Temp\ccE1imUd.s:1486   .rodata.__func__.7954:00000000 $d
C:\Users\Luis\AppData\Local\Temp\ccE1imUd.s:1492   .rodata.__func__.7961:00000000 $d
C:\Users\Luis\AppData\Local\Temp\ccE1imUd.s:1498   .rodata.__func__.7967:00000000 $d
C:\Users\Luis\AppData\Local\Temp\ccE1imUd.s:1504   .rodata.__func__.7973:00000000 $d
C:\Users\Luis\AppData\Local\Temp\ccE1imUd.s:1510   .rodata.__func__.7977:00000000 $d
C:\Users\Luis\AppData\Local\Temp\ccE1imUd.s:1516   .rodata.__func__.7981:00000000 $d
                     .debug_frame:00000010 $d
C:\Users\Luis\AppData\Local\Temp\ccE1imUd.s:184    .text.chSysUnlock:0000003c $t
C:\Users\Luis\AppData\Local\Temp\ccE1imUd.s:515    .text.spiStart:00000058 $t
C:\Users\Luis\AppData\Local\Temp\ccE1imUd.s:581    .text.spiStop:00000048 $t
C:\Users\Luis\AppData\Local\Temp\ccE1imUd.s:639    .text.spiSelect:0000003c $t
C:\Users\Luis\AppData\Local\Temp\ccE1imUd.s:697    .text.spiUnselect:0000003c $t
C:\Users\Luis\AppData\Local\Temp\ccE1imUd.s:765    .text.spiStartIgnore:0000004c $t
C:\Users\Luis\AppData\Local\Temp\ccE1imUd.s:916    .text.spiStartSend:00000054 $t
C:\Users\Luis\AppData\Local\Temp\ccE1imUd.s:989    .text.spiStartReceive:00000054 $t
C:\Users\Luis\AppData\Local\Temp\ccE1imUd.s:1071   .text.spiIgnore:00000064 $t
C:\Users\Luis\AppData\Local\Temp\ccE1imUd.s:1163   .text.spiExchange:00000078 $t
C:\Users\Luis\AppData\Local\Temp\ccE1imUd.s:1384   .text.spiAcquireBus:00000028 $t
C:\Users\Luis\AppData\Local\Temp\ccE1imUd.s:1431   .text.spiReleaseBus:00000028 $t

UNDEFINED SYMBOLS
ARM GAS  C:\Users\Luis\AppData\Local\Temp\ccE1imUd.s 			page 99


_stats_start_measure_crit_thd
_dbg_check_lock
_dbg_check_unlock
_stats_stop_measure_crit_thd
chSysHalt
ch
chThdSuspendS
chMtxObjectInit
chMtxLock
chMtxUnlock
spi_lld_init
spi_lld_start
spi_lld_stop
spi_lld_select
spi_lld_unselect
spi_lld_ignore
spi_lld_exchange
spi_lld_send
spi_lld_receive
