ARM GAS  C:\Users\Luis\AppData\Local\Temp\ccE1imUd.s 			page 1


   1              		.syntax unified
   2              		.cpu cortex-m4
   3              		.fpu softvfp
   4              		.eabi_attribute 20, 1
   5              		.eabi_attribute 21, 1
   6              		.eabi_attribute 23, 3
   7              		.eabi_attribute 24, 1
   8              		.eabi_attribute 25, 1
   9              		.eabi_attribute 26, 1
  10              		.eabi_attribute 30, 6
  11              		.eabi_attribute 34, 1
  12              		.eabi_attribute 18, 4
  13              		.thumb
  14              		.file	"spi.c"
  15              		.text
  16              	.Ltext0:
  17              		.cfi_sections	.debug_frame
  18              		.section	.text.port_lock,"ax",%progbits
  19              		.align	2
  20              		.p2align 4,,15
  21              		.thumb
  22              		.thumb_func
  23              		.type	port_lock, %function
  24              	port_lock:
  25              	.LFB116:
  26              		.file 1 "../../ChibiOS/os/rt/ports/ARMCMx/chcore_v7m.h"
  27              		.loc 1 444 0
  28              		.cfi_startproc
  29              		@ args = 0, pretend = 0, frame = 8
  30              		@ frame_needed = 1, uses_anonymous_args = 0
  31              		@ link register save eliminated.
  32 0000 80B4     		push	{r7}
  33              		.cfi_def_cfa_offset 4
  34              		.cfi_offset 7, -4
  35 0002 83B0     		sub	sp, sp, #12
  36              		.cfi_def_cfa_offset 16
  37 0004 00AF     		add	r7, sp, #0
  38              		.cfi_def_cfa_register 7
  39 0006 2023     		movs	r3, #32
  40 0008 7B60     		str	r3, [r7, #4]
  41              	.LBB6:
  42              	.LBB7:
  43              		.file 2 "../../ChibiOS/os/ext/CMSIS/include/core_cmFunc.h"
  44              		.loc 2 546 0
  45 000a 7B68     		ldr	r3, [r7, #4]
  46              	@ 546 "../../ChibiOS/os/ext/CMSIS/include/core_cmFunc.h" 1
  47 000c 83F31188 		MSR basepri, r3
  48              	@ 0 "" 2
  49              		.thumb
  50              	.LBE7:
  51              	.LBE6:
  52              		.loc 1 451 0
  53 0010 0C37     		adds	r7, r7, #12
  54 0012 BD46     		mov	sp, r7
  55              		@ sp needed
  56 0014 5DF8047B 		ldr	r7, [sp], #4
  57 0018 7047     		bx	lr
ARM GAS  C:\Users\Luis\AppData\Local\Temp\ccE1imUd.s 			page 2


  58              		.cfi_endproc
  59              	.LFE116:
  60              		.size	port_lock, .-port_lock
  61 001a 00BFAFF3 		.section	.text.port_unlock,"ax",%progbits
  61      0080
  62              		.align	2
  63              		.p2align 4,,15
  64              		.thumb
  65              		.thumb_func
  66              		.type	port_unlock, %function
  67              	port_unlock:
  68              	.LFB117:
  69              		.loc 1 458 0
  70              		.cfi_startproc
  71              		@ args = 0, pretend = 0, frame = 8
  72              		@ frame_needed = 1, uses_anonymous_args = 0
  73              		@ link register save eliminated.
  74 0000 80B4     		push	{r7}
  75              		.cfi_def_cfa_offset 4
  76              		.cfi_offset 7, -4
  77 0002 83B0     		sub	sp, sp, #12
  78              		.cfi_def_cfa_offset 16
  79 0004 00AF     		add	r7, sp, #0
  80              		.cfi_def_cfa_register 7
  81 0006 0023     		movs	r3, #0
  82 0008 7B60     		str	r3, [r7, #4]
  83              	.LBB8:
  84              	.LBB9:
  85              		.loc 2 546 0
  86 000a 7B68     		ldr	r3, [r7, #4]
  87              	@ 546 "../../ChibiOS/os/ext/CMSIS/include/core_cmFunc.h" 1
  88 000c 83F31188 		MSR basepri, r3
  89              	@ 0 "" 2
  90              		.thumb
  91              	.LBE9:
  92              	.LBE8:
  93              		.loc 1 465 0
  94 0010 0C37     		adds	r7, r7, #12
  95 0012 BD46     		mov	sp, r7
  96              		@ sp needed
  97 0014 5DF8047B 		ldr	r7, [sp], #4
  98 0018 7047     		bx	lr
  99              		.cfi_endproc
 100              	.LFE117:
 101              		.size	port_unlock, .-port_unlock
 102 001a 00BFAFF3 		.section	.text.chSysLock,"ax",%progbits
 102      0080
 103              		.align	2
 104              		.p2align 4,,15
 105              		.thumb
 106              		.thumb_func
 107              		.type	chSysLock, %function
 108              	chSysLock:
 109              	.LFB156:
 110              		.file 3 "../../ChibiOS/os/rt/include/chsys.h"
 111              		.loc 3 346 0
 112              		.cfi_startproc
ARM GAS  C:\Users\Luis\AppData\Local\Temp\ccE1imUd.s 			page 3


 113              		@ args = 0, pretend = 0, frame = 0
 114              		@ frame_needed = 1, uses_anonymous_args = 0
 115 0000 80B5     		push	{r7, lr}
 116              		.cfi_def_cfa_offset 8
 117              		.cfi_offset 7, -8
 118              		.cfi_offset 14, -4
 119 0002 00AF     		add	r7, sp, #0
 120              		.cfi_def_cfa_register 7
 121              		.loc 3 348 0
 122 0004 FFF7FEFF 		bl	port_lock
 123              		.loc 3 349 0
 124 0008 FFF7FEFF 		bl	_stats_start_measure_crit_thd
 125              		.loc 3 350 0
 126 000c FFF7FEFF 		bl	_dbg_check_lock
 127              		.loc 3 351 0
 128 0010 80BD     		pop	{r7, pc}
 129              		.cfi_endproc
 130              	.LFE156:
 131              		.size	chSysLock, .-chSysLock
 132 0012 00BFAFF3 		.section	.text.chSysUnlock,"ax",%progbits
 132      0080AFF3 
 132      0080AFF3 
 132      0080
 133              		.align	2
 134              		.p2align 4,,15
 135              		.thumb
 136              		.thumb_func
 137              		.type	chSysUnlock, %function
 138              	chSysUnlock:
 139              	.LFB157:
 140              		.loc 3 358 0
 141              		.cfi_startproc
 142              		@ args = 0, pretend = 0, frame = 0
 143              		@ frame_needed = 1, uses_anonymous_args = 0
 144 0000 80B5     		push	{r7, lr}
 145              		.cfi_def_cfa_offset 8
 146              		.cfi_offset 7, -8
 147              		.cfi_offset 14, -4
 148 0002 00AF     		add	r7, sp, #0
 149              		.cfi_def_cfa_register 7
 150              		.loc 3 360 0
 151 0004 FFF7FEFF 		bl	_dbg_check_unlock
 152              		.loc 3 361 0
 153 0008 FFF7FEFF 		bl	_stats_stop_measure_crit_thd
 154              		.loc 3 367 0
 155 000c 094B     		ldr	r3, .L6
 156 000e 1A68     		ldr	r2, [r3]
 157 0010 084B     		ldr	r3, .L6
 158 0012 9A42     		cmp	r2, r3
 159 0014 0AD0     		beq	.L5
 160              		.loc 3 367 0 is_stmt 0 discriminator 1
 161 0016 074B     		ldr	r3, .L6
 162 0018 9B69     		ldr	r3, [r3, #24]
 163 001a 9A68     		ldr	r2, [r3, #8]
 164 001c 054B     		ldr	r3, .L6
 165 001e 1B68     		ldr	r3, [r3]
 166 0020 9B68     		ldr	r3, [r3, #8]
ARM GAS  C:\Users\Luis\AppData\Local\Temp\ccE1imUd.s 			page 4


 167 0022 9A42     		cmp	r2, r3
 168 0024 02D2     		bcs	.L5
 169 0026 0448     		ldr	r0, .L6+4
 170 0028 FFF7FEFF 		bl	chSysHalt
 171              	.L5:
 172              		.loc 3 371 0 is_stmt 1
 173 002c FFF7FEFF 		bl	port_unlock
 174              		.loc 3 372 0
 175 0030 80BD     		pop	{r7, pc}
 176              	.L7:
 177 0032 00BF     		.align	2
 178              	.L6:
 179 0034 00000000 		.word	ch
 180 0038 00000000 		.word	__func__.5842
 181              		.cfi_endproc
 182              	.LFE157:
 183              		.size	chSysUnlock, .-chSysUnlock
 184 003c AFF30080 		.section	.text.osalSysLock,"ax",%progbits
 185              		.align	2
 186              		.p2align 4,,15
 187              		.thumb
 188              		.thumb_func
 189              		.type	osalSysLock, %function
 190              	osalSysLock:
 191              	.LFB233:
 192              		.file 4 "../../ChibiOS/os/hal/osal/rt/osal.h"
 193              		.loc 4 491 0
 194              		.cfi_startproc
 195              		@ args = 0, pretend = 0, frame = 0
 196              		@ frame_needed = 1, uses_anonymous_args = 0
 197 0000 80B5     		push	{r7, lr}
 198              		.cfi_def_cfa_offset 8
 199              		.cfi_offset 7, -8
 200              		.cfi_offset 14, -4
 201 0002 00AF     		add	r7, sp, #0
 202              		.cfi_def_cfa_register 7
 203              		.loc 4 493 0
 204 0004 FFF7FEFF 		bl	chSysLock
 205              		.loc 4 494 0
 206 0008 80BD     		pop	{r7, pc}
 207              		.cfi_endproc
 208              	.LFE233:
 209              		.size	osalSysLock, .-osalSysLock
 210 000a 00BFAFF3 		.section	.text.osalSysUnlock,"ax",%progbits
 210      0080
 211              		.align	2
 212              		.p2align 4,,15
 213              		.thumb
 214              		.thumb_func
 215              		.type	osalSysUnlock, %function
 216              	osalSysUnlock:
 217              	.LFB234:
 218              		.loc 4 502 0
 219              		.cfi_startproc
 220              		@ args = 0, pretend = 0, frame = 0
 221              		@ frame_needed = 1, uses_anonymous_args = 0
 222 0000 80B5     		push	{r7, lr}
ARM GAS  C:\Users\Luis\AppData\Local\Temp\ccE1imUd.s 			page 5


 223              		.cfi_def_cfa_offset 8
 224              		.cfi_offset 7, -8
 225              		.cfi_offset 14, -4
 226 0002 00AF     		add	r7, sp, #0
 227              		.cfi_def_cfa_register 7
 228              		.loc 4 504 0
 229 0004 FFF7FEFF 		bl	chSysUnlock
 230              		.loc 4 505 0
 231 0008 80BD     		pop	{r7, pc}
 232              		.cfi_endproc
 233              	.LFE234:
 234              		.size	osalSysUnlock, .-osalSysUnlock
 235 000a 00BFAFF3 		.section	.text.osalThreadSuspendS,"ax",%progbits
 235      0080
 236              		.align	2
 237              		.p2align 4,,15
 238              		.thumb
 239              		.thumb_func
 240              		.type	osalThreadSuspendS, %function
 241              	osalThreadSuspendS:
 242              	.LFB246:
 243              		.loc 4 686 0
 244              		.cfi_startproc
 245              		@ args = 0, pretend = 0, frame = 8
 246              		@ frame_needed = 1, uses_anonymous_args = 0
 247 0000 80B5     		push	{r7, lr}
 248              		.cfi_def_cfa_offset 8
 249              		.cfi_offset 7, -8
 250              		.cfi_offset 14, -4
 251 0002 82B0     		sub	sp, sp, #8
 252              		.cfi_def_cfa_offset 16
 253 0004 00AF     		add	r7, sp, #0
 254              		.cfi_def_cfa_register 7
 255 0006 7860     		str	r0, [r7, #4]
 256              		.loc 4 688 0
 257 0008 7868     		ldr	r0, [r7, #4]
 258 000a FFF7FEFF 		bl	chThdSuspendS
 259 000e 0346     		mov	r3, r0
 260              		.loc 4 689 0
 261 0010 1846     		mov	r0, r3
 262 0012 0837     		adds	r7, r7, #8
 263 0014 BD46     		mov	sp, r7
 264              		@ sp needed
 265 0016 80BD     		pop	{r7, pc}
 266              		.cfi_endproc
 267              	.LFE246:
 268              		.size	osalThreadSuspendS, .-osalThreadSuspendS
 269 0018 AFF30080 		.section	.text.osalMutexObjectInit,"ax",%progbits
 269      AFF30080 
 270              		.align	2
 271              		.p2align 4,,15
 272              		.thumb
 273              		.thumb_func
 274              		.type	osalMutexObjectInit, %function
 275              	osalMutexObjectInit:
 276              	.LFB257:
 277              		.loc 4 884 0
ARM GAS  C:\Users\Luis\AppData\Local\Temp\ccE1imUd.s 			page 6


 278              		.cfi_startproc
 279              		@ args = 0, pretend = 0, frame = 8
 280              		@ frame_needed = 1, uses_anonymous_args = 0
 281 0000 80B5     		push	{r7, lr}
 282              		.cfi_def_cfa_offset 8
 283              		.cfi_offset 7, -8
 284              		.cfi_offset 14, -4
 285 0002 82B0     		sub	sp, sp, #8
 286              		.cfi_def_cfa_offset 16
 287 0004 00AF     		add	r7, sp, #0
 288              		.cfi_def_cfa_register 7
 289 0006 7860     		str	r0, [r7, #4]
 290              		.loc 4 887 0
 291 0008 7868     		ldr	r0, [r7, #4]
 292 000a FFF7FEFF 		bl	chMtxObjectInit
 293              		.loc 4 893 0
 294 000e 0837     		adds	r7, r7, #8
 295 0010 BD46     		mov	sp, r7
 296              		@ sp needed
 297 0012 80BD     		pop	{r7, pc}
 298              		.cfi_endproc
 299              	.LFE257:
 300              		.size	osalMutexObjectInit, .-osalMutexObjectInit
 301 0014 AFF30080 		.section	.text.osalMutexLock,"ax",%progbits
 301      AFF30080 
 301      AFF30080 
 302              		.align	2
 303              		.p2align 4,,15
 304              		.thumb
 305              		.thumb_func
 306              		.type	osalMutexLock, %function
 307              	osalMutexLock:
 308              	.LFB258:
 309              		.loc 4 904 0
 310              		.cfi_startproc
 311              		@ args = 0, pretend = 0, frame = 8
 312              		@ frame_needed = 1, uses_anonymous_args = 0
 313 0000 80B5     		push	{r7, lr}
 314              		.cfi_def_cfa_offset 8
 315              		.cfi_offset 7, -8
 316              		.cfi_offset 14, -4
 317 0002 82B0     		sub	sp, sp, #8
 318              		.cfi_def_cfa_offset 16
 319 0004 00AF     		add	r7, sp, #0
 320              		.cfi_def_cfa_register 7
 321 0006 7860     		str	r0, [r7, #4]
 322              		.loc 4 907 0
 323 0008 7868     		ldr	r0, [r7, #4]
 324 000a FFF7FEFF 		bl	chMtxLock
 325              		.loc 4 913 0
 326 000e 0837     		adds	r7, r7, #8
 327 0010 BD46     		mov	sp, r7
 328              		@ sp needed
 329 0012 80BD     		pop	{r7, pc}
 330              		.cfi_endproc
 331              	.LFE258:
 332              		.size	osalMutexLock, .-osalMutexLock
ARM GAS  C:\Users\Luis\AppData\Local\Temp\ccE1imUd.s 			page 7


 333 0014 AFF30080 		.section	.text.osalMutexUnlock,"ax",%progbits
 333      AFF30080 
 333      AFF30080 
 334              		.align	2
 335              		.p2align 4,,15
 336              		.thumb
 337              		.thumb_func
 338              		.type	osalMutexUnlock, %function
 339              	osalMutexUnlock:
 340              	.LFB259:
 341              		.loc 4 928 0
 342              		.cfi_startproc
 343              		@ args = 0, pretend = 0, frame = 8
 344              		@ frame_needed = 1, uses_anonymous_args = 0
 345 0000 80B5     		push	{r7, lr}
 346              		.cfi_def_cfa_offset 8
 347              		.cfi_offset 7, -8
 348              		.cfi_offset 14, -4
 349 0002 82B0     		sub	sp, sp, #8
 350              		.cfi_def_cfa_offset 16
 351 0004 00AF     		add	r7, sp, #0
 352              		.cfi_def_cfa_register 7
 353 0006 7860     		str	r0, [r7, #4]
 354              		.loc 4 931 0
 355 0008 7868     		ldr	r0, [r7, #4]
 356 000a FFF7FEFF 		bl	chMtxUnlock
 357              		.loc 4 937 0
 358 000e 0837     		adds	r7, r7, #8
 359 0010 BD46     		mov	sp, r7
 360              		@ sp needed
 361 0012 80BD     		pop	{r7, pc}
 362              		.cfi_endproc
 363              	.LFE259:
 364              		.size	osalMutexUnlock, .-osalMutexUnlock
 365 0014 AFF30080 		.section	.text.spiInit,"ax",%progbits
 365      AFF30080 
 365      AFF30080 
 366              		.align	2
 367              		.p2align 4,,15
 368              		.global	spiInit
 369              		.thumb
 370              		.thumb_func
 371              		.type	spiInit, %function
 372              	spiInit:
 373              	.LFB260:
 374              		.file 5 "../../ChibiOS/os/hal/src/spi.c"
 375              		.loc 5 56 0
 376              		.cfi_startproc
 377              		@ args = 0, pretend = 0, frame = 0
 378              		@ frame_needed = 1, uses_anonymous_args = 0
 379 0000 80B5     		push	{r7, lr}
 380              		.cfi_def_cfa_offset 8
 381              		.cfi_offset 7, -8
 382              		.cfi_offset 14, -4
 383 0002 00AF     		add	r7, sp, #0
 384              		.cfi_def_cfa_register 7
 385              		.loc 5 58 0
ARM GAS  C:\Users\Luis\AppData\Local\Temp\ccE1imUd.s 			page 8


 386 0004 FFF7FEFF 		bl	spi_lld_init
 387              		.loc 5 59 0
 388 0008 80BD     		pop	{r7, pc}
 389              		.cfi_endproc
 390              	.LFE260:
 391              		.size	spiInit, .-spiInit
 392 000a 00BFAFF3 		.section	.text.spiObjectInit,"ax",%progbits
 392      0080
 393              		.align	2
 394              		.p2align 4,,15
 395              		.global	spiObjectInit
 396              		.thumb
 397              		.thumb_func
 398              		.type	spiObjectInit, %function
 399              	spiObjectInit:
 400              	.LFB261:
 401              		.loc 5 68 0
 402              		.cfi_startproc
 403              		@ args = 0, pretend = 0, frame = 8
 404              		@ frame_needed = 1, uses_anonymous_args = 0
 405 0000 80B5     		push	{r7, lr}
 406              		.cfi_def_cfa_offset 8
 407              		.cfi_offset 7, -8
 408              		.cfi_offset 14, -4
 409 0002 82B0     		sub	sp, sp, #8
 410              		.cfi_def_cfa_offset 16
 411 0004 00AF     		add	r7, sp, #0
 412              		.cfi_def_cfa_register 7
 413 0006 7860     		str	r0, [r7, #4]
 414              		.loc 5 70 0
 415 0008 7B68     		ldr	r3, [r7, #4]
 416 000a 0122     		movs	r2, #1
 417 000c 1A70     		strb	r2, [r3]
 418              		.loc 5 71 0
 419 000e 7B68     		ldr	r3, [r7, #4]
 420 0010 0022     		movs	r2, #0
 421 0012 5A60     		str	r2, [r3, #4]
 422              		.loc 5 73 0
 423 0014 7B68     		ldr	r3, [r7, #4]
 424 0016 0022     		movs	r2, #0
 425 0018 9A60     		str	r2, [r3, #8]
 426              		.loc 5 76 0
 427 001a 7B68     		ldr	r3, [r7, #4]
 428 001c 0C33     		adds	r3, r3, #12
 429 001e 1846     		mov	r0, r3
 430 0020 FFF7FEFF 		bl	osalMutexObjectInit
 431              		.loc 5 81 0
 432 0024 0837     		adds	r7, r7, #8
 433 0026 BD46     		mov	sp, r7
 434              		@ sp needed
 435 0028 80BD     		pop	{r7, pc}
 436              		.cfi_endproc
 437              	.LFE261:
 438              		.size	spiObjectInit, .-spiObjectInit
 439 002a 00BFAFF3 		.section	.text.spiStart,"ax",%progbits
 439      0080
 440              		.align	2
ARM GAS  C:\Users\Luis\AppData\Local\Temp\ccE1imUd.s 			page 9


 441              		.p2align 4,,15
 442              		.global	spiStart
 443              		.thumb
 444              		.thumb_func
 445              		.type	spiStart, %function
 446              	spiStart:
 447              	.LFB262:
 448              		.loc 5 91 0
 449              		.cfi_startproc
 450              		@ args = 0, pretend = 0, frame = 8
 451              		@ frame_needed = 1, uses_anonymous_args = 0
 452 0000 80B5     		push	{r7, lr}
 453              		.cfi_def_cfa_offset 8
 454              		.cfi_offset 7, -8
 455              		.cfi_offset 14, -4
 456 0002 82B0     		sub	sp, sp, #8
 457              		.cfi_def_cfa_offset 16
 458 0004 00AF     		add	r7, sp, #0
 459              		.cfi_def_cfa_register 7
 460 0006 7860     		str	r0, [r7, #4]
 461 0008 3960     		str	r1, [r7]
 462              		.loc 5 93 0
 463 000a 7B68     		ldr	r3, [r7, #4]
 464 000c 002B     		cmp	r3, #0
 465 000e 02D0     		beq	.L18
 466              		.loc 5 93 0 is_stmt 0 discriminator 2
 467 0010 3B68     		ldr	r3, [r7]
 468 0012 002B     		cmp	r3, #0
 469 0014 02D1     		bne	.L19
 470              	.L18:
 471              		.loc 5 93 0 discriminator 1
 472 0016 0F48     		ldr	r0, .L21
 473 0018 FFF7FEFF 		bl	chSysHalt
 474              	.L19:
 475              		.loc 5 95 0 is_stmt 1
 476 001c FFF7FEFF 		bl	osalSysLock
 477              		.loc 5 96 0
 478 0020 7B68     		ldr	r3, [r7, #4]
 479 0022 1B78     		ldrb	r3, [r3]	@ zero_extendqisi2
 480 0024 012B     		cmp	r3, #1
 481 0026 06D0     		beq	.L20
 482              		.loc 5 96 0 is_stmt 0 discriminator 1
 483 0028 7B68     		ldr	r3, [r7, #4]
 484 002a 1B78     		ldrb	r3, [r3]	@ zero_extendqisi2
 485 002c 022B     		cmp	r3, #2
 486 002e 02D0     		beq	.L20
 487 0030 0848     		ldr	r0, .L21
 488 0032 FFF7FEFF 		bl	chSysHalt
 489              	.L20:
 490              		.loc 5 98 0 is_stmt 1
 491 0036 7B68     		ldr	r3, [r7, #4]
 492 0038 3A68     		ldr	r2, [r7]
 493 003a 5A60     		str	r2, [r3, #4]
 494              		.loc 5 99 0
 495 003c 7868     		ldr	r0, [r7, #4]
 496 003e FFF7FEFF 		bl	spi_lld_start
 497              		.loc 5 100 0
ARM GAS  C:\Users\Luis\AppData\Local\Temp\ccE1imUd.s 			page 10


 498 0042 7B68     		ldr	r3, [r7, #4]
 499 0044 0222     		movs	r2, #2
 500 0046 1A70     		strb	r2, [r3]
 501              		.loc 5 101 0
 502 0048 FFF7FEFF 		bl	osalSysUnlock
 503              		.loc 5 102 0
 504 004c 0837     		adds	r7, r7, #8
 505 004e BD46     		mov	sp, r7
 506              		@ sp needed
 507 0050 80BD     		pop	{r7, pc}
 508              	.L22:
 509 0052 00BF     		.align	2
 510              	.L21:
 511 0054 00000000 		.word	__func__.7913
 512              		.cfi_endproc
 513              	.LFE262:
 514              		.size	spiStart, .-spiStart
 515 0058 AFF30080 		.section	.text.spiStop,"ax",%progbits
 515      AFF30080 
 516              		.align	2
 517              		.p2align 4,,15
 518              		.global	spiStop
 519              		.thumb
 520              		.thumb_func
 521              		.type	spiStop, %function
 522              	spiStop:
 523              	.LFB263:
 524              		.loc 5 113 0
 525              		.cfi_startproc
 526              		@ args = 0, pretend = 0, frame = 8
 527              		@ frame_needed = 1, uses_anonymous_args = 0
 528 0000 80B5     		push	{r7, lr}
 529              		.cfi_def_cfa_offset 8
 530              		.cfi_offset 7, -8
 531              		.cfi_offset 14, -4
 532 0002 82B0     		sub	sp, sp, #8
 533              		.cfi_def_cfa_offset 16
 534 0004 00AF     		add	r7, sp, #0
 535              		.cfi_def_cfa_register 7
 536 0006 7860     		str	r0, [r7, #4]
 537              		.loc 5 115 0
 538 0008 7B68     		ldr	r3, [r7, #4]
 539 000a 002B     		cmp	r3, #0
 540 000c 02D1     		bne	.L24
 541              		.loc 5 115 0 is_stmt 0 discriminator 1
 542 000e 0D48     		ldr	r0, .L26
 543 0010 FFF7FEFF 		bl	chSysHalt
 544              	.L24:
 545              		.loc 5 117 0 is_stmt 1
 546 0014 FFF7FEFF 		bl	osalSysLock
 547              		.loc 5 118 0
 548 0018 7B68     		ldr	r3, [r7, #4]
 549 001a 1B78     		ldrb	r3, [r3]	@ zero_extendqisi2
 550 001c 012B     		cmp	r3, #1
 551 001e 06D0     		beq	.L25
 552              		.loc 5 118 0 is_stmt 0 discriminator 1
 553 0020 7B68     		ldr	r3, [r7, #4]
ARM GAS  C:\Users\Luis\AppData\Local\Temp\ccE1imUd.s 			page 11


 554 0022 1B78     		ldrb	r3, [r3]	@ zero_extendqisi2
 555 0024 022B     		cmp	r3, #2
 556 0026 02D0     		beq	.L25
 557 0028 0648     		ldr	r0, .L26
 558 002a FFF7FEFF 		bl	chSysHalt
 559              	.L25:
 560              		.loc 5 120 0 is_stmt 1
 561 002e 7868     		ldr	r0, [r7, #4]
 562 0030 FFF7FEFF 		bl	spi_lld_stop
 563              		.loc 5 121 0
 564 0034 7B68     		ldr	r3, [r7, #4]
 565 0036 0122     		movs	r2, #1
 566 0038 1A70     		strb	r2, [r3]
 567              		.loc 5 122 0
 568 003a FFF7FEFF 		bl	osalSysUnlock
 569              		.loc 5 123 0
 570 003e 0837     		adds	r7, r7, #8
 571 0040 BD46     		mov	sp, r7
 572              		@ sp needed
 573 0042 80BD     		pop	{r7, pc}
 574              	.L27:
 575              		.align	2
 576              	.L26:
 577 0044 00000000 		.word	__func__.7917
 578              		.cfi_endproc
 579              	.LFE263:
 580              		.size	spiStop, .-spiStop
 581 0048 AFF30080 		.section	.text.spiSelect,"ax",%progbits
 581      AFF30080 
 582              		.align	2
 583              		.p2align 4,,15
 584              		.global	spiSelect
 585              		.thumb
 586              		.thumb_func
 587              		.type	spiSelect, %function
 588              	spiSelect:
 589              	.LFB264:
 590              		.loc 5 132 0
 591              		.cfi_startproc
 592              		@ args = 0, pretend = 0, frame = 8
 593              		@ frame_needed = 1, uses_anonymous_args = 0
 594 0000 80B5     		push	{r7, lr}
 595              		.cfi_def_cfa_offset 8
 596              		.cfi_offset 7, -8
 597              		.cfi_offset 14, -4
 598 0002 82B0     		sub	sp, sp, #8
 599              		.cfi_def_cfa_offset 16
 600 0004 00AF     		add	r7, sp, #0
 601              		.cfi_def_cfa_register 7
 602 0006 7860     		str	r0, [r7, #4]
 603              		.loc 5 134 0
 604 0008 7B68     		ldr	r3, [r7, #4]
 605 000a 002B     		cmp	r3, #0
 606 000c 02D1     		bne	.L29
 607              		.loc 5 134 0 is_stmt 0 discriminator 1
 608 000e 0A48     		ldr	r0, .L31
 609 0010 FFF7FEFF 		bl	chSysHalt
ARM GAS  C:\Users\Luis\AppData\Local\Temp\ccE1imUd.s 			page 12


 610              	.L29:
 611              		.loc 5 136 0 is_stmt 1
 612 0014 FFF7FEFF 		bl	osalSysLock
 613              		.loc 5 137 0
 614 0018 7B68     		ldr	r3, [r7, #4]
 615 001a 1B78     		ldrb	r3, [r3]	@ zero_extendqisi2
 616 001c 022B     		cmp	r3, #2
 617 001e 02D0     		beq	.L30
 618              		.loc 5 137 0 is_stmt 0 discriminator 1
 619 0020 0548     		ldr	r0, .L31
 620 0022 FFF7FEFF 		bl	chSysHalt
 621              	.L30:
 622              		.loc 5 138 0 is_stmt 1
 623 0026 7868     		ldr	r0, [r7, #4]
 624 0028 FFF7FEFF 		bl	spi_lld_select
 625              		.loc 5 139 0
 626 002c FFF7FEFF 		bl	osalSysUnlock
 627              		.loc 5 140 0
 628 0030 0837     		adds	r7, r7, #8
 629 0032 BD46     		mov	sp, r7
 630              		@ sp needed
 631 0034 80BD     		pop	{r7, pc}
 632              	.L32:
 633 0036 00BF     		.align	2
 634              	.L31:
 635 0038 00000000 		.word	__func__.7921
 636              		.cfi_endproc
 637              	.LFE264:
 638              		.size	spiSelect, .-spiSelect
 639 003c AFF30080 		.section	.text.spiUnselect,"ax",%progbits
 640              		.align	2
 641              		.p2align 4,,15
 642              		.global	spiUnselect
 643              		.thumb
 644              		.thumb_func
 645              		.type	spiUnselect, %function
 646              	spiUnselect:
 647              	.LFB265:
 648              		.loc 5 150 0
 649              		.cfi_startproc
 650              		@ args = 0, pretend = 0, frame = 8
 651              		@ frame_needed = 1, uses_anonymous_args = 0
 652 0000 80B5     		push	{r7, lr}
 653              		.cfi_def_cfa_offset 8
 654              		.cfi_offset 7, -8
 655              		.cfi_offset 14, -4
 656 0002 82B0     		sub	sp, sp, #8
 657              		.cfi_def_cfa_offset 16
 658 0004 00AF     		add	r7, sp, #0
 659              		.cfi_def_cfa_register 7
 660 0006 7860     		str	r0, [r7, #4]
 661              		.loc 5 152 0
 662 0008 7B68     		ldr	r3, [r7, #4]
 663 000a 002B     		cmp	r3, #0
 664 000c 02D1     		bne	.L34
 665              		.loc 5 152 0 is_stmt 0 discriminator 1
 666 000e 0A48     		ldr	r0, .L36
ARM GAS  C:\Users\Luis\AppData\Local\Temp\ccE1imUd.s 			page 13


 667 0010 FFF7FEFF 		bl	chSysHalt
 668              	.L34:
 669              		.loc 5 154 0 is_stmt 1
 670 0014 FFF7FEFF 		bl	osalSysLock
 671              		.loc 5 155 0
 672 0018 7B68     		ldr	r3, [r7, #4]
 673 001a 1B78     		ldrb	r3, [r3]	@ zero_extendqisi2
 674 001c 022B     		cmp	r3, #2
 675 001e 02D0     		beq	.L35
 676              		.loc 5 155 0 is_stmt 0 discriminator 1
 677 0020 0548     		ldr	r0, .L36
 678 0022 FFF7FEFF 		bl	chSysHalt
 679              	.L35:
 680              		.loc 5 156 0 is_stmt 1
 681 0026 7868     		ldr	r0, [r7, #4]
 682 0028 FFF7FEFF 		bl	spi_lld_unselect
 683              		.loc 5 157 0
 684 002c FFF7FEFF 		bl	osalSysUnlock
 685              		.loc 5 158 0
 686 0030 0837     		adds	r7, r7, #8
 687 0032 BD46     		mov	sp, r7
 688              		@ sp needed
 689 0034 80BD     		pop	{r7, pc}
 690              	.L37:
 691 0036 00BF     		.align	2
 692              	.L36:
 693 0038 00000000 		.word	__func__.7925
 694              		.cfi_endproc
 695              	.LFE265:
 696              		.size	spiUnselect, .-spiUnselect
 697 003c AFF30080 		.section	.text.spiStartIgnore,"ax",%progbits
 698              		.align	2
 699              		.p2align 4,,15
 700              		.global	spiStartIgnore
 701              		.thumb
 702              		.thumb_func
 703              		.type	spiStartIgnore, %function
 704              	spiStartIgnore:
 705              	.LFB266:
 706              		.loc 5 173 0
 707              		.cfi_startproc
 708              		@ args = 0, pretend = 0, frame = 8
 709              		@ frame_needed = 1, uses_anonymous_args = 0
 710 0000 80B5     		push	{r7, lr}
 711              		.cfi_def_cfa_offset 8
 712              		.cfi_offset 7, -8
 713              		.cfi_offset 14, -4
 714 0002 82B0     		sub	sp, sp, #8
 715              		.cfi_def_cfa_offset 16
 716 0004 00AF     		add	r7, sp, #0
 717              		.cfi_def_cfa_register 7
 718 0006 7860     		str	r0, [r7, #4]
 719 0008 3960     		str	r1, [r7]
 720              		.loc 5 175 0
 721 000a 7B68     		ldr	r3, [r7, #4]
 722 000c 002B     		cmp	r3, #0
 723 000e 02D0     		beq	.L39
ARM GAS  C:\Users\Luis\AppData\Local\Temp\ccE1imUd.s 			page 14


 724              		.loc 5 175 0 is_stmt 0 discriminator 2
 725 0010 3B68     		ldr	r3, [r7]
 726 0012 002B     		cmp	r3, #0
 727 0014 02D1     		bne	.L40
 728              	.L39:
 729              		.loc 5 175 0 discriminator 1
 730 0016 0C48     		ldr	r0, .L42
 731 0018 FFF7FEFF 		bl	chSysHalt
 732              	.L40:
 733              		.loc 5 177 0 is_stmt 1
 734 001c FFF7FEFF 		bl	osalSysLock
 735              		.loc 5 178 0
 736 0020 7B68     		ldr	r3, [r7, #4]
 737 0022 1B78     		ldrb	r3, [r3]	@ zero_extendqisi2
 738 0024 022B     		cmp	r3, #2
 739 0026 02D0     		beq	.L41
 740              		.loc 5 178 0 is_stmt 0 discriminator 1
 741 0028 0748     		ldr	r0, .L42
 742 002a FFF7FEFF 		bl	chSysHalt
 743              	.L41:
 744              		.loc 5 179 0 is_stmt 1
 745 002e 7B68     		ldr	r3, [r7, #4]
 746 0030 0322     		movs	r2, #3
 747 0032 1A70     		strb	r2, [r3]
 748 0034 7868     		ldr	r0, [r7, #4]
 749 0036 3968     		ldr	r1, [r7]
 750 0038 FFF7FEFF 		bl	spi_lld_ignore
 751              		.loc 5 180 0
 752 003c FFF7FEFF 		bl	osalSysUnlock
 753              		.loc 5 181 0
 754 0040 0837     		adds	r7, r7, #8
 755 0042 BD46     		mov	sp, r7
 756              		@ sp needed
 757 0044 80BD     		pop	{r7, pc}
 758              	.L43:
 759 0046 00BF     		.align	2
 760              	.L42:
 761 0048 00000000 		.word	__func__.7930
 762              		.cfi_endproc
 763              	.LFE266:
 764              		.size	spiStartIgnore, .-spiStartIgnore
 765 004c AFF30080 		.section	.text.spiStartExchange,"ax",%progbits
 766              		.align	2
 767              		.p2align 4,,15
 768              		.global	spiStartExchange
 769              		.thumb
 770              		.thumb_func
 771              		.type	spiStartExchange, %function
 772              	spiStartExchange:
 773              	.LFB267:
 774              		.loc 5 201 0
 775              		.cfi_startproc
 776              		@ args = 0, pretend = 0, frame = 16
 777              		@ frame_needed = 1, uses_anonymous_args = 0
 778 0000 80B5     		push	{r7, lr}
 779              		.cfi_def_cfa_offset 8
 780              		.cfi_offset 7, -8
ARM GAS  C:\Users\Luis\AppData\Local\Temp\ccE1imUd.s 			page 15


 781              		.cfi_offset 14, -4
 782 0002 84B0     		sub	sp, sp, #16
 783              		.cfi_def_cfa_offset 24
 784 0004 00AF     		add	r7, sp, #0
 785              		.cfi_def_cfa_register 7
 786 0006 F860     		str	r0, [r7, #12]
 787 0008 B960     		str	r1, [r7, #8]
 788 000a 7A60     		str	r2, [r7, #4]
 789 000c 3B60     		str	r3, [r7]
 790              		.loc 5 203 0
 791 000e FB68     		ldr	r3, [r7, #12]
 792 0010 002B     		cmp	r3, #0
 793 0012 08D0     		beq	.L45
 794              		.loc 5 203 0 is_stmt 0 discriminator 2
 795 0014 BB68     		ldr	r3, [r7, #8]
 796 0016 002B     		cmp	r3, #0
 797 0018 05D0     		beq	.L45
 798              		.loc 5 203 0 discriminator 1
 799 001a 3B68     		ldr	r3, [r7]
 800 001c 002B     		cmp	r3, #0
 801 001e 02D0     		beq	.L45
 802 0020 7B68     		ldr	r3, [r7, #4]
 803 0022 002B     		cmp	r3, #0
 804 0024 02D1     		bne	.L46
 805              	.L45:
 806 0026 0D48     		ldr	r0, .L48
 807 0028 FFF7FEFF 		bl	chSysHalt
 808              	.L46:
 809              		.loc 5 206 0 is_stmt 1
 810 002c FFF7FEFF 		bl	osalSysLock
 811              		.loc 5 207 0
 812 0030 FB68     		ldr	r3, [r7, #12]
 813 0032 1B78     		ldrb	r3, [r3]	@ zero_extendqisi2
 814 0034 022B     		cmp	r3, #2
 815 0036 02D0     		beq	.L47
 816              		.loc 5 207 0 is_stmt 0 discriminator 1
 817 0038 0848     		ldr	r0, .L48
 818 003a FFF7FEFF 		bl	chSysHalt
 819              	.L47:
 820              		.loc 5 208 0 is_stmt 1
 821 003e FB68     		ldr	r3, [r7, #12]
 822 0040 0322     		movs	r2, #3
 823 0042 1A70     		strb	r2, [r3]
 824 0044 F868     		ldr	r0, [r7, #12]
 825 0046 B968     		ldr	r1, [r7, #8]
 826 0048 7A68     		ldr	r2, [r7, #4]
 827 004a 3B68     		ldr	r3, [r7]
 828 004c FFF7FEFF 		bl	spi_lld_exchange
 829              		.loc 5 209 0
 830 0050 FFF7FEFF 		bl	osalSysUnlock
 831              		.loc 5 210 0
 832 0054 1037     		adds	r7, r7, #16
 833 0056 BD46     		mov	sp, r7
 834              		@ sp needed
 835 0058 80BD     		pop	{r7, pc}
 836              	.L49:
 837 005a 00BF     		.align	2
ARM GAS  C:\Users\Luis\AppData\Local\Temp\ccE1imUd.s 			page 16


 838              	.L48:
 839 005c 00000000 		.word	__func__.7937
 840              		.cfi_endproc
 841              	.LFE267:
 842              		.size	spiStartExchange, .-spiStartExchange
 843              		.section	.text.spiStartSend,"ax",%progbits
 844              		.align	2
 845              		.p2align 4,,15
 846              		.global	spiStartSend
 847              		.thumb
 848              		.thumb_func
 849              		.type	spiStartSend, %function
 850              	spiStartSend:
 851              	.LFB268:
 852              		.loc 5 227 0
 853              		.cfi_startproc
 854              		@ args = 0, pretend = 0, frame = 16
 855              		@ frame_needed = 1, uses_anonymous_args = 0
 856 0000 80B5     		push	{r7, lr}
 857              		.cfi_def_cfa_offset 8
 858              		.cfi_offset 7, -8
 859              		.cfi_offset 14, -4
 860 0002 84B0     		sub	sp, sp, #16
 861              		.cfi_def_cfa_offset 24
 862 0004 00AF     		add	r7, sp, #0
 863              		.cfi_def_cfa_register 7
 864 0006 F860     		str	r0, [r7, #12]
 865 0008 B960     		str	r1, [r7, #8]
 866 000a 7A60     		str	r2, [r7, #4]
 867              		.loc 5 229 0
 868 000c FB68     		ldr	r3, [r7, #12]
 869 000e 002B     		cmp	r3, #0
 870 0010 05D0     		beq	.L51
 871              		.loc 5 229 0 is_stmt 0 discriminator 2
 872 0012 BB68     		ldr	r3, [r7, #8]
 873 0014 002B     		cmp	r3, #0
 874 0016 02D0     		beq	.L51
 875              		.loc 5 229 0 discriminator 1
 876 0018 7B68     		ldr	r3, [r7, #4]
 877 001a 002B     		cmp	r3, #0
 878 001c 02D1     		bne	.L52
 879              	.L51:
 880 001e 0C48     		ldr	r0, .L54
 881 0020 FFF7FEFF 		bl	chSysHalt
 882              	.L52:
 883              		.loc 5 231 0 is_stmt 1
 884 0024 FFF7FEFF 		bl	osalSysLock
 885              		.loc 5 232 0
 886 0028 FB68     		ldr	r3, [r7, #12]
 887 002a 1B78     		ldrb	r3, [r3]	@ zero_extendqisi2
 888 002c 022B     		cmp	r3, #2
 889 002e 02D0     		beq	.L53
 890              		.loc 5 232 0 is_stmt 0 discriminator 1
 891 0030 0748     		ldr	r0, .L54
 892 0032 FFF7FEFF 		bl	chSysHalt
 893              	.L53:
 894              		.loc 5 233 0 is_stmt 1
ARM GAS  C:\Users\Luis\AppData\Local\Temp\ccE1imUd.s 			page 17


 895 0036 FB68     		ldr	r3, [r7, #12]
 896 0038 0322     		movs	r2, #3
 897 003a 1A70     		strb	r2, [r3]
 898 003c F868     		ldr	r0, [r7, #12]
 899 003e B968     		ldr	r1, [r7, #8]
 900 0040 7A68     		ldr	r2, [r7, #4]
 901 0042 FFF7FEFF 		bl	spi_lld_send
 902              		.loc 5 234 0
 903 0046 FFF7FEFF 		bl	osalSysUnlock
 904              		.loc 5 235 0
 905 004a 1037     		adds	r7, r7, #16
 906 004c BD46     		mov	sp, r7
 907              		@ sp needed
 908 004e 80BD     		pop	{r7, pc}
 909              	.L55:
 910              		.align	2
 911              	.L54:
 912 0050 00000000 		.word	__func__.7943
 913              		.cfi_endproc
 914              	.LFE268:
 915              		.size	spiStartSend, .-spiStartSend
 916 0054 AFF30080 		.section	.text.spiStartReceive,"ax",%progbits
 916      AFF30080 
 916      AFF30080 
 917              		.align	2
 918              		.p2align 4,,15
 919              		.global	spiStartReceive
 920              		.thumb
 921              		.thumb_func
 922              		.type	spiStartReceive, %function
 923              	spiStartReceive:
 924              	.LFB269:
 925              		.loc 5 252 0
 926              		.cfi_startproc
 927              		@ args = 0, pretend = 0, frame = 16
 928              		@ frame_needed = 1, uses_anonymous_args = 0
 929 0000 80B5     		push	{r7, lr}
 930              		.cfi_def_cfa_offset 8
 931              		.cfi_offset 7, -8
 932              		.cfi_offset 14, -4
 933 0002 84B0     		sub	sp, sp, #16
 934              		.cfi_def_cfa_offset 24
 935 0004 00AF     		add	r7, sp, #0
 936              		.cfi_def_cfa_register 7
 937 0006 F860     		str	r0, [r7, #12]
 938 0008 B960     		str	r1, [r7, #8]
 939 000a 7A60     		str	r2, [r7, #4]
 940              		.loc 5 254 0
 941 000c FB68     		ldr	r3, [r7, #12]
 942 000e 002B     		cmp	r3, #0
 943 0010 05D0     		beq	.L57
 944              		.loc 5 254 0 is_stmt 0 discriminator 2
 945 0012 BB68     		ldr	r3, [r7, #8]
 946 0014 002B     		cmp	r3, #0
 947 0016 02D0     		beq	.L57
 948              		.loc 5 254 0 discriminator 1
 949 0018 7B68     		ldr	r3, [r7, #4]
ARM GAS  C:\Users\Luis\AppData\Local\Temp\ccE1imUd.s 			page 18


 950 001a 002B     		cmp	r3, #0
 951 001c 02D1     		bne	.L58
 952              	.L57:
 953 001e 0C48     		ldr	r0, .L60
 954 0020 FFF7FEFF 		bl	chSysHalt
 955              	.L58:
 956              		.loc 5 256 0 is_stmt 1
 957 0024 FFF7FEFF 		bl	osalSysLock
 958              		.loc 5 257 0
 959 0028 FB68     		ldr	r3, [r7, #12]
 960 002a 1B78     		ldrb	r3, [r3]	@ zero_extendqisi2
 961 002c 022B     		cmp	r3, #2
 962 002e 02D0     		beq	.L59
 963              		.loc 5 257 0 is_stmt 0 discriminator 1
 964 0030 0748     		ldr	r0, .L60
 965 0032 FFF7FEFF 		bl	chSysHalt
 966              	.L59:
 967              		.loc 5 258 0 is_stmt 1
 968 0036 FB68     		ldr	r3, [r7, #12]
 969 0038 0322     		movs	r2, #3
 970 003a 1A70     		strb	r2, [r3]
 971 003c F868     		ldr	r0, [r7, #12]
 972 003e B968     		ldr	r1, [r7, #8]
 973 0040 7A68     		ldr	r2, [r7, #4]
 974 0042 FFF7FEFF 		bl	spi_lld_receive
 975              		.loc 5 259 0
 976 0046 FFF7FEFF 		bl	osalSysUnlock
 977              		.loc 5 260 0
 978 004a 1037     		adds	r7, r7, #16
 979 004c BD46     		mov	sp, r7
 980              		@ sp needed
 981 004e 80BD     		pop	{r7, pc}
 982              	.L61:
 983              		.align	2
 984              	.L60:
 985 0050 00000000 		.word	__func__.7949
 986              		.cfi_endproc
 987              	.LFE269:
 988              		.size	spiStartReceive, .-spiStartReceive
 989 0054 AFF30080 		.section	.text.spiIgnore,"ax",%progbits
 989      AFF30080 
 989      AFF30080 
 990              		.align	2
 991              		.p2align 4,,15
 992              		.global	spiIgnore
 993              		.thumb
 994              		.thumb_func
 995              		.type	spiIgnore, %function
 996              	spiIgnore:
 997              	.LFB270:
 998              		.loc 5 277 0
 999              		.cfi_startproc
 1000              		@ args = 0, pretend = 0, frame = 8
 1001              		@ frame_needed = 1, uses_anonymous_args = 0
 1002 0000 80B5     		push	{r7, lr}
 1003              		.cfi_def_cfa_offset 8
 1004              		.cfi_offset 7, -8
ARM GAS  C:\Users\Luis\AppData\Local\Temp\ccE1imUd.s 			page 19


 1005              		.cfi_offset 14, -4
 1006 0002 82B0     		sub	sp, sp, #8
 1007              		.cfi_def_cfa_offset 16
 1008 0004 00AF     		add	r7, sp, #0
 1009              		.cfi_def_cfa_register 7
 1010 0006 7860     		str	r0, [r7, #4]
 1011 0008 3960     		str	r1, [r7]
 1012              		.loc 5 279 0
 1013 000a 7B68     		ldr	r3, [r7, #4]
 1014 000c 002B     		cmp	r3, #0
 1015 000e 02D0     		beq	.L63
 1016              		.loc 5 279 0 is_stmt 0 discriminator 2
 1017 0010 3B68     		ldr	r3, [r7]
 1018 0012 002B     		cmp	r3, #0
 1019 0014 02D1     		bne	.L64
 1020              	.L63:
 1021              		.loc 5 279 0 discriminator 1
 1022 0016 1248     		ldr	r0, .L68
 1023 0018 FFF7FEFF 		bl	chSysHalt
 1024              	.L64:
 1025              		.loc 5 281 0 is_stmt 1
 1026 001c FFF7FEFF 		bl	osalSysLock
 1027              		.loc 5 282 0
 1028 0020 7B68     		ldr	r3, [r7, #4]
 1029 0022 1B78     		ldrb	r3, [r3]	@ zero_extendqisi2
 1030 0024 022B     		cmp	r3, #2
 1031 0026 02D0     		beq	.L67
 1032              		.loc 5 282 0 is_stmt 0 discriminator 1
 1033 0028 0D48     		ldr	r0, .L68
 1034 002a FFF7FEFF 		bl	chSysHalt
 1035              	.L67:
 1036              		.loc 5 283 0 is_stmt 1 discriminator 1
 1037 002e 7B68     		ldr	r3, [r7, #4]
 1038 0030 5B68     		ldr	r3, [r3, #4]
 1039 0032 1B68     		ldr	r3, [r3]
 1040 0034 002B     		cmp	r3, #0
 1041 0036 02D0     		beq	.L66
 1042 0038 0948     		ldr	r0, .L68
 1043 003a FFF7FEFF 		bl	chSysHalt
 1044              	.L66:
 1045              		.loc 5 284 0
 1046 003e 7B68     		ldr	r3, [r7, #4]
 1047 0040 0322     		movs	r2, #3
 1048 0042 1A70     		strb	r2, [r3]
 1049 0044 7868     		ldr	r0, [r7, #4]
 1050 0046 3968     		ldr	r1, [r7]
 1051 0048 FFF7FEFF 		bl	spi_lld_ignore
 1052              		.loc 5 285 0
 1053 004c 7B68     		ldr	r3, [r7, #4]
 1054 004e 0833     		adds	r3, r3, #8
 1055 0050 1846     		mov	r0, r3
 1056 0052 FFF7FEFF 		bl	osalThreadSuspendS
 1057              		.loc 5 286 0
 1058 0056 FFF7FEFF 		bl	osalSysUnlock
 1059              		.loc 5 287 0
 1060 005a 0837     		adds	r7, r7, #8
 1061 005c BD46     		mov	sp, r7
ARM GAS  C:\Users\Luis\AppData\Local\Temp\ccE1imUd.s 			page 20


 1062              		@ sp needed
 1063 005e 80BD     		pop	{r7, pc}
 1064              	.L69:
 1065              		.align	2
 1066              	.L68:
 1067 0060 00000000 		.word	__func__.7954
 1068              		.cfi_endproc
 1069              	.LFE270:
 1070              		.size	spiIgnore, .-spiIgnore
 1071 0064 AFF30080 		.section	.text.spiExchange,"ax",%progbits
 1071      AFF30080 
 1071      AFF30080 
 1072              		.align	2
 1073              		.p2align 4,,15
 1074              		.global	spiExchange
 1075              		.thumb
 1076              		.thumb_func
 1077              		.type	spiExchange, %function
 1078              	spiExchange:
 1079              	.LFB271:
 1080              		.loc 5 308 0
 1081              		.cfi_startproc
 1082              		@ args = 0, pretend = 0, frame = 16
 1083              		@ frame_needed = 1, uses_anonymous_args = 0
 1084 0000 80B5     		push	{r7, lr}
 1085              		.cfi_def_cfa_offset 8
 1086              		.cfi_offset 7, -8
 1087              		.cfi_offset 14, -4
 1088 0002 84B0     		sub	sp, sp, #16
 1089              		.cfi_def_cfa_offset 24
 1090 0004 00AF     		add	r7, sp, #0
 1091              		.cfi_def_cfa_register 7
 1092 0006 F860     		str	r0, [r7, #12]
 1093 0008 B960     		str	r1, [r7, #8]
 1094 000a 7A60     		str	r2, [r7, #4]
 1095 000c 3B60     		str	r3, [r7]
 1096              		.loc 5 310 0
 1097 000e FB68     		ldr	r3, [r7, #12]
 1098 0010 002B     		cmp	r3, #0
 1099 0012 08D0     		beq	.L71
 1100              		.loc 5 310 0 is_stmt 0 discriminator 2
 1101 0014 BB68     		ldr	r3, [r7, #8]
 1102 0016 002B     		cmp	r3, #0
 1103 0018 05D0     		beq	.L71
 1104              		.loc 5 310 0 discriminator 1
 1105 001a 3B68     		ldr	r3, [r7]
 1106 001c 002B     		cmp	r3, #0
 1107 001e 02D0     		beq	.L71
 1108 0020 7B68     		ldr	r3, [r7, #4]
 1109 0022 002B     		cmp	r3, #0
 1110 0024 02D1     		bne	.L72
 1111              	.L71:
 1112 0026 1348     		ldr	r0, .L76
 1113 0028 FFF7FEFF 		bl	chSysHalt
 1114              	.L72:
 1115              		.loc 5 313 0 is_stmt 1
 1116 002c FFF7FEFF 		bl	osalSysLock
ARM GAS  C:\Users\Luis\AppData\Local\Temp\ccE1imUd.s 			page 21


 1117              		.loc 5 314 0
 1118 0030 FB68     		ldr	r3, [r7, #12]
 1119 0032 1B78     		ldrb	r3, [r3]	@ zero_extendqisi2
 1120 0034 022B     		cmp	r3, #2
 1121 0036 02D0     		beq	.L75
 1122              		.loc 5 314 0 is_stmt 0 discriminator 1
 1123 0038 0E48     		ldr	r0, .L76
 1124 003a FFF7FEFF 		bl	chSysHalt
 1125              	.L75:
 1126              		.loc 5 315 0 is_stmt 1 discriminator 1
 1127 003e FB68     		ldr	r3, [r7, #12]
 1128 0040 5B68     		ldr	r3, [r3, #4]
 1129 0042 1B68     		ldr	r3, [r3]
 1130 0044 002B     		cmp	r3, #0
 1131 0046 02D0     		beq	.L74
 1132 0048 0A48     		ldr	r0, .L76
 1133 004a FFF7FEFF 		bl	chSysHalt
 1134              	.L74:
 1135              		.loc 5 316 0
 1136 004e FB68     		ldr	r3, [r7, #12]
 1137 0050 0322     		movs	r2, #3
 1138 0052 1A70     		strb	r2, [r3]
 1139 0054 F868     		ldr	r0, [r7, #12]
 1140 0056 B968     		ldr	r1, [r7, #8]
 1141 0058 7A68     		ldr	r2, [r7, #4]
 1142 005a 3B68     		ldr	r3, [r7]
 1143 005c FFF7FEFF 		bl	spi_lld_exchange
 1144              		.loc 5 317 0
 1145 0060 FB68     		ldr	r3, [r7, #12]
 1146 0062 0833     		adds	r3, r3, #8
 1147 0064 1846     		mov	r0, r3
 1148 0066 FFF7FEFF 		bl	osalThreadSuspendS
 1149              		.loc 5 318 0
 1150 006a FFF7FEFF 		bl	osalSysUnlock
 1151              		.loc 5 319 0
 1152 006e 1037     		adds	r7, r7, #16
 1153 0070 BD46     		mov	sp, r7
 1154              		@ sp needed
 1155 0072 80BD     		pop	{r7, pc}
 1156              	.L77:
 1157              		.align	2
 1158              	.L76:
 1159 0074 00000000 		.word	__func__.7961
 1160              		.cfi_endproc
 1161              	.LFE271:
 1162              		.size	spiExchange, .-spiExchange
 1163 0078 AFF30080 		.section	.text.spiSend,"ax",%progbits
 1163      AFF30080 
 1164              		.align	2
 1165              		.p2align 4,,15
 1166              		.global	spiSend
 1167              		.thumb
 1168              		.thumb_func
 1169              		.type	spiSend, %function
 1170              	spiSend:
 1171              	.LFB272:
 1172              		.loc 5 337 0
ARM GAS  C:\Users\Luis\AppData\Local\Temp\ccE1imUd.s 			page 22


 1173              		.cfi_startproc
 1174              		@ args = 0, pretend = 0, frame = 16
 1175              		@ frame_needed = 1, uses_anonymous_args = 0
 1176 0000 80B5     		push	{r7, lr}
 1177              		.cfi_def_cfa_offset 8
 1178              		.cfi_offset 7, -8
 1179              		.cfi_offset 14, -4
 1180 0002 84B0     		sub	sp, sp, #16
 1181              		.cfi_def_cfa_offset 24
 1182 0004 00AF     		add	r7, sp, #0
 1183              		.cfi_def_cfa_register 7
 1184 0006 F860     		str	r0, [r7, #12]
 1185 0008 B960     		str	r1, [r7, #8]
 1186 000a 7A60     		str	r2, [r7, #4]
 1187              		.loc 5 339 0
 1188 000c FB68     		ldr	r3, [r7, #12]
 1189 000e 002B     		cmp	r3, #0
 1190 0010 05D0     		beq	.L79
 1191              		.loc 5 339 0 is_stmt 0 discriminator 2
 1192 0012 BB68     		ldr	r3, [r7, #8]
 1193 0014 002B     		cmp	r3, #0
 1194 0016 02D0     		beq	.L79
 1195              		.loc 5 339 0 discriminator 1
 1196 0018 7B68     		ldr	r3, [r7, #4]
 1197 001a 002B     		cmp	r3, #0
 1198 001c 02D1     		bne	.L80
 1199              	.L79:
 1200 001e 1348     		ldr	r0, .L84
 1201 0020 FFF7FEFF 		bl	chSysHalt
 1202              	.L80:
 1203              		.loc 5 341 0 is_stmt 1
 1204 0024 FFF7FEFF 		bl	osalSysLock
 1205              		.loc 5 342 0
 1206 0028 FB68     		ldr	r3, [r7, #12]
 1207 002a 1B78     		ldrb	r3, [r3]	@ zero_extendqisi2
 1208 002c 022B     		cmp	r3, #2
 1209 002e 02D0     		beq	.L83
 1210              		.loc 5 342 0 is_stmt 0 discriminator 1
 1211 0030 0E48     		ldr	r0, .L84
 1212 0032 FFF7FEFF 		bl	chSysHalt
 1213              	.L83:
 1214              		.loc 5 343 0 is_stmt 1 discriminator 1
 1215 0036 FB68     		ldr	r3, [r7, #12]
 1216 0038 5B68     		ldr	r3, [r3, #4]
 1217 003a 1B68     		ldr	r3, [r3]
 1218 003c 002B     		cmp	r3, #0
 1219 003e 02D0     		beq	.L82
 1220 0040 0A48     		ldr	r0, .L84
 1221 0042 FFF7FEFF 		bl	chSysHalt
 1222              	.L82:
 1223              		.loc 5 344 0
 1224 0046 FB68     		ldr	r3, [r7, #12]
 1225 0048 0322     		movs	r2, #3
 1226 004a 1A70     		strb	r2, [r3]
 1227 004c F868     		ldr	r0, [r7, #12]
 1228 004e B968     		ldr	r1, [r7, #8]
 1229 0050 7A68     		ldr	r2, [r7, #4]
ARM GAS  C:\Users\Luis\AppData\Local\Temp\ccE1imUd.s 			page 23


 1230 0052 FFF7FEFF 		bl	spi_lld_send
 1231              		.loc 5 345 0
 1232 0056 FB68     		ldr	r3, [r7, #12]
 1233 0058 0833     		adds	r3, r3, #8
 1234 005a 1846     		mov	r0, r3
 1235 005c FFF7FEFF 		bl	osalThreadSuspendS
 1236              		.loc 5 346 0
 1237 0060 FFF7FEFF 		bl	osalSysUnlock
 1238              		.loc 5 347 0
 1239 0064 1037     		adds	r7, r7, #16
 1240 0066 BD46     		mov	sp, r7
 1241              		@ sp needed
 1242 0068 80BD     		pop	{r7, pc}
 1243              	.L85:
 1244 006a 00BF     		.align	2
 1245              	.L84:
 1246 006c 00000000 		.word	__func__.7967
 1247              		.cfi_endproc
 1248              	.LFE272:
 1249              		.size	spiSend, .-spiSend
 1250              		.section	.text.spiReceive,"ax",%progbits
 1251              		.align	2
 1252              		.p2align 4,,15
 1253              		.global	spiReceive
 1254              		.thumb
 1255              		.thumb_func
 1256              		.type	spiReceive, %function
 1257              	spiReceive:
 1258              	.LFB273:
 1259              		.loc 5 365 0
 1260              		.cfi_startproc
 1261              		@ args = 0, pretend = 0, frame = 16
 1262              		@ frame_needed = 1, uses_anonymous_args = 0
 1263 0000 80B5     		push	{r7, lr}
 1264              		.cfi_def_cfa_offset 8
 1265              		.cfi_offset 7, -8
 1266              		.cfi_offset 14, -4
 1267 0002 84B0     		sub	sp, sp, #16
 1268              		.cfi_def_cfa_offset 24
 1269 0004 00AF     		add	r7, sp, #0
 1270              		.cfi_def_cfa_register 7
 1271 0006 F860     		str	r0, [r7, #12]
 1272 0008 B960     		str	r1, [r7, #8]
 1273 000a 7A60     		str	r2, [r7, #4]
 1274              		.loc 5 367 0
 1275 000c FB68     		ldr	r3, [r7, #12]
 1276 000e 002B     		cmp	r3, #0
 1277 0010 05D0     		beq	.L87
 1278              		.loc 5 367 0 is_stmt 0 discriminator 2
 1279 0012 BB68     		ldr	r3, [r7, #8]
 1280 0014 002B     		cmp	r3, #0
 1281 0016 02D0     		beq	.L87
 1282              		.loc 5 367 0 discriminator 1
 1283 0018 7B68     		ldr	r3, [r7, #4]
 1284 001a 002B     		cmp	r3, #0
 1285 001c 02D1     		bne	.L88
 1286              	.L87:
ARM GAS  C:\Users\Luis\AppData\Local\Temp\ccE1imUd.s 			page 24


 1287 001e 1348     		ldr	r0, .L92
 1288 0020 FFF7FEFF 		bl	chSysHalt
 1289              	.L88:
 1290              		.loc 5 369 0 is_stmt 1
 1291 0024 FFF7FEFF 		bl	osalSysLock
 1292              		.loc 5 370 0
 1293 0028 FB68     		ldr	r3, [r7, #12]
 1294 002a 1B78     		ldrb	r3, [r3]	@ zero_extendqisi2
 1295 002c 022B     		cmp	r3, #2
 1296 002e 02D0     		beq	.L91
 1297              		.loc 5 370 0 is_stmt 0 discriminator 1
 1298 0030 0E48     		ldr	r0, .L92
 1299 0032 FFF7FEFF 		bl	chSysHalt
 1300              	.L91:
 1301              		.loc 5 371 0 is_stmt 1 discriminator 1
 1302 0036 FB68     		ldr	r3, [r7, #12]
 1303 0038 5B68     		ldr	r3, [r3, #4]
 1304 003a 1B68     		ldr	r3, [r3]
 1305 003c 002B     		cmp	r3, #0
 1306 003e 02D0     		beq	.L90
 1307 0040 0A48     		ldr	r0, .L92
 1308 0042 FFF7FEFF 		bl	chSysHalt
 1309              	.L90:
 1310              		.loc 5 372 0
 1311 0046 FB68     		ldr	r3, [r7, #12]
 1312 0048 0322     		movs	r2, #3
 1313 004a 1A70     		strb	r2, [r3]
 1314 004c F868     		ldr	r0, [r7, #12]
 1315 004e B968     		ldr	r1, [r7, #8]
 1316 0050 7A68     		ldr	r2, [r7, #4]
 1317 0052 FFF7FEFF 		bl	spi_lld_receive
 1318              		.loc 5 373 0
 1319 0056 FB68     		ldr	r3, [r7, #12]
 1320 0058 0833     		adds	r3, r3, #8
 1321 005a 1846     		mov	r0, r3
 1322 005c FFF7FEFF 		bl	osalThreadSuspendS
 1323              		.loc 5 374 0
 1324 0060 FFF7FEFF 		bl	osalSysUnlock
 1325              		.loc 5 375 0
 1326 0064 1037     		adds	r7, r7, #16
 1327 0066 BD46     		mov	sp, r7
 1328              		@ sp needed
 1329 0068 80BD     		pop	{r7, pc}
 1330              	.L93:
 1331 006a 00BF     		.align	2
 1332              	.L92:
 1333 006c 00000000 		.word	__func__.7973
 1334              		.cfi_endproc
 1335              	.LFE273:
 1336              		.size	spiReceive, .-spiReceive
 1337              		.section	.text.spiAcquireBus,"ax",%progbits
 1338              		.align	2
 1339              		.p2align 4,,15
 1340              		.global	spiAcquireBus
 1341              		.thumb
 1342              		.thumb_func
 1343              		.type	spiAcquireBus, %function
ARM GAS  C:\Users\Luis\AppData\Local\Temp\ccE1imUd.s 			page 25


 1344              	spiAcquireBus:
 1345              	.LFB274:
 1346              		.loc 5 390 0
 1347              		.cfi_startproc
 1348              		@ args = 0, pretend = 0, frame = 8
 1349              		@ frame_needed = 1, uses_anonymous_args = 0
 1350 0000 80B5     		push	{r7, lr}
 1351              		.cfi_def_cfa_offset 8
 1352              		.cfi_offset 7, -8
 1353              		.cfi_offset 14, -4
 1354 0002 82B0     		sub	sp, sp, #8
 1355              		.cfi_def_cfa_offset 16
 1356 0004 00AF     		add	r7, sp, #0
 1357              		.cfi_def_cfa_register 7
 1358 0006 7860     		str	r0, [r7, #4]
 1359              		.loc 5 392 0
 1360 0008 7B68     		ldr	r3, [r7, #4]
 1361 000a 002B     		cmp	r3, #0
 1362 000c 02D1     		bne	.L95
 1363              		.loc 5 392 0 is_stmt 0 discriminator 1
 1364 000e 0548     		ldr	r0, .L96
 1365 0010 FFF7FEFF 		bl	chSysHalt
 1366              	.L95:
 1367              		.loc 5 394 0 is_stmt 1
 1368 0014 7B68     		ldr	r3, [r7, #4]
 1369 0016 0C33     		adds	r3, r3, #12
 1370 0018 1846     		mov	r0, r3
 1371 001a FFF7FEFF 		bl	osalMutexLock
 1372              		.loc 5 395 0
 1373 001e 0837     		adds	r7, r7, #8
 1374 0020 BD46     		mov	sp, r7
 1375              		@ sp needed
 1376 0022 80BD     		pop	{r7, pc}
 1377              	.L97:
 1378              		.align	2
 1379              	.L96:
 1380 0024 00000000 		.word	__func__.7977
 1381              		.cfi_endproc
 1382              	.LFE274:
 1383              		.size	spiAcquireBus, .-spiAcquireBus
 1384 0028 AFF30080 		.section	.text.spiReleaseBus,"ax",%progbits
 1384      AFF30080 
 1385              		.align	2
 1386              		.p2align 4,,15
 1387              		.global	spiReleaseBus
 1388              		.thumb
 1389              		.thumb_func
 1390              		.type	spiReleaseBus, %function
 1391              	spiReleaseBus:
 1392              	.LFB275:
 1393              		.loc 5 406 0
 1394              		.cfi_startproc
 1395              		@ args = 0, pretend = 0, frame = 8
 1396              		@ frame_needed = 1, uses_anonymous_args = 0
 1397 0000 80B5     		push	{r7, lr}
 1398              		.cfi_def_cfa_offset 8
 1399              		.cfi_offset 7, -8
ARM GAS  C:\Users\Luis\AppData\Local\Temp\ccE1imUd.s 			page 26


 1400              		.cfi_offset 14, -4
 1401 0002 82B0     		sub	sp, sp, #8
 1402              		.cfi_def_cfa_offset 16
 1403 0004 00AF     		add	r7, sp, #0
 1404              		.cfi_def_cfa_register 7
 1405 0006 7860     		str	r0, [r7, #4]
 1406              		.loc 5 408 0
 1407 0008 7B68     		ldr	r3, [r7, #4]
 1408 000a 002B     		cmp	r3, #0
 1409 000c 02D1     		bne	.L99
 1410              		.loc 5 408 0 is_stmt 0 discriminator 1
 1411 000e 0548     		ldr	r0, .L100
 1412 0010 FFF7FEFF 		bl	chSysHalt
 1413              	.L99:
 1414              		.loc 5 410 0 is_stmt 1
 1415 0014 7B68     		ldr	r3, [r7, #4]
 1416 0016 0C33     		adds	r3, r3, #12
 1417 0018 1846     		mov	r0, r3
 1418 001a FFF7FEFF 		bl	osalMutexUnlock
 1419              		.loc 5 411 0
 1420 001e 0837     		adds	r7, r7, #8
 1421 0020 BD46     		mov	sp, r7
 1422              		@ sp needed
 1423 0022 80BD     		pop	{r7, pc}
 1424              	.L101:
 1425              		.align	2
 1426              	.L100:
 1427 0024 00000000 		.word	__func__.7981
 1428              		.cfi_endproc
 1429              	.LFE275:
 1430              		.size	spiReleaseBus, .-spiReleaseBus
 1431 0028 AFF30080 		.section	.rodata.__func__.7913,"a",%progbits
 1431      AFF30080 
 1432              		.align	2
 1433              		.type	__func__.7913, %object
 1434              		.size	__func__.7913, 9
 1435              	__func__.7913:
 1436 0000 73706953 		.ascii	"spiStart\000"
 1436      74617274 
 1436      00
 1437 0009 000000   		.section	.rodata.__func__.5842,"a",%progbits
 1438              		.align	2
 1439              		.type	__func__.5842, %object
 1440              		.size	__func__.5842, 12
 1441              	__func__.5842:
 1442 0000 63685379 		.ascii	"chSysUnlock\000"
 1442      73556E6C 
 1442      6F636B00 
 1443              		.section	.rodata.__func__.7917,"a",%progbits
 1444              		.align	2
 1445              		.type	__func__.7917, %object
 1446              		.size	__func__.7917, 8
 1447              	__func__.7917:
 1448 0000 73706953 		.ascii	"spiStop\000"
 1448      746F7000 
 1449              		.section	.rodata.__func__.7921,"a",%progbits
 1450              		.align	2
ARM GAS  C:\Users\Luis\AppData\Local\Temp\ccE1imUd.s 			page 27


 1451              		.type	__func__.7921, %object
 1452              		.size	__func__.7921, 10
 1453              	__func__.7921:
 1454 0000 73706953 		.ascii	"spiSelect\000"
 1454      656C6563 
 1454      7400
 1455 000a 0000     		.section	.rodata.__func__.7925,"a",%progbits
 1456              		.align	2
 1457              		.type	__func__.7925, %object
 1458              		.size	__func__.7925, 12
 1459              	__func__.7925:
 1460 0000 73706955 		.ascii	"spiUnselect\000"
 1460      6E73656C 
 1460      65637400 
 1461              		.section	.rodata.__func__.7930,"a",%progbits
 1462              		.align	2
 1463              		.type	__func__.7930, %object
 1464              		.size	__func__.7930, 15
 1465              	__func__.7930:
 1466 0000 73706953 		.ascii	"spiStartIgnore\000"
 1466      74617274 
 1466      49676E6F 
 1466      726500
 1467 000f 00       		.section	.rodata.__func__.7937,"a",%progbits
 1468              		.align	2
 1469              		.type	__func__.7937, %object
 1470              		.size	__func__.7937, 17
 1471              	__func__.7937:
 1472 0000 73706953 		.ascii	"spiStartExchange\000"
 1472      74617274 
 1472      45786368 
 1472      616E6765 
 1472      00
 1473 0011 000000   		.section	.rodata.__func__.7943,"a",%progbits
 1474              		.align	2
 1475              		.type	__func__.7943, %object
 1476              		.size	__func__.7943, 13
 1477              	__func__.7943:
 1478 0000 73706953 		.ascii	"spiStartSend\000"
 1478      74617274 
 1478      53656E64 
 1478      00
 1479 000d 000000   		.section	.rodata.__func__.7949,"a",%progbits
 1480              		.align	2
 1481              		.type	__func__.7949, %object
 1482              		.size	__func__.7949, 16
 1483              	__func__.7949:
 1484 0000 73706953 		.ascii	"spiStartReceive\000"
 1484      74617274 
 1484      52656365 
 1484      69766500 
 1485              		.section	.rodata.__func__.7954,"a",%progbits
 1486              		.align	2
 1487              		.type	__func__.7954, %object
 1488              		.size	__func__.7954, 10
 1489              	__func__.7954:
 1490 0000 73706949 		.ascii	"spiIgnore\000"
ARM GAS  C:\Users\Luis\AppData\Local\Temp\ccE1imUd.s 			page 28


 1490      676E6F72 
 1490      6500
 1491 000a 0000     		.section	.rodata.__func__.7961,"a",%progbits
 1492              		.align	2
 1493              		.type	__func__.7961, %object
 1494              		.size	__func__.7961, 12
 1495              	__func__.7961:
 1496 0000 73706945 		.ascii	"spiExchange\000"
 1496      78636861 
 1496      6E676500 
 1497              		.section	.rodata.__func__.7967,"a",%progbits
 1498              		.align	2
 1499              		.type	__func__.7967, %object
 1500              		.size	__func__.7967, 8
 1501              	__func__.7967:
 1502 0000 73706953 		.ascii	"spiSend\000"
 1502      656E6400 
 1503              		.section	.rodata.__func__.7973,"a",%progbits
 1504              		.align	2
 1505              		.type	__func__.7973, %object
 1506              		.size	__func__.7973, 11
 1507              	__func__.7973:
 1508 0000 73706952 		.ascii	"spiReceive\000"
 1508      65636569 
 1508      766500
 1509 000b 00       		.section	.rodata.__func__.7977,"a",%progbits
 1510              		.align	2
 1511              		.type	__func__.7977, %object
 1512              		.size	__func__.7977, 14
 1513              	__func__.7977:
 1514 0000 73706941 		.ascii	"spiAcquireBus\000"
 1514      63717569 
 1514      72654275 
 1514      7300
 1515 000e 0000     		.section	.rodata.__func__.7981,"a",%progbits
 1516              		.align	2
 1517              		.type	__func__.7981, %object
 1518              		.size	__func__.7981, 14
 1519              	__func__.7981:
 1520 0000 73706952 		.ascii	"spiReleaseBus\000"
 1520      656C6561 
 1520      73654275 
 1520      7300
 1521 000e 0000     		.text
 1522              	.Letext0:
 1523              		.file 6 "c:\\emtechesdk\\gcc\\lib\\gcc\\arm-none-eabi\\4.8.3\\include\\stddef.h"
 1524              		.file 7 "c:\\emtechesdk\\gcc\\arm-none-eabi\\include\\stdint.h"
 1525              		.file 8 "../../ChibiOS/os/rt/ports/ARMCMx/compilers/GCC/chtypes.h"
 1526              		.file 9 "../../ChibiOS/os/rt/include/chsystypes.h"
 1527              		.file 10 "../../ChibiOS/os/rt/include/chschd.h"
 1528              		.file 11 "../../ChibiOS/os/ext/CMSIS/ST/stm32f407xx.h"
 1529              		.file 12 "../../ChibiOS/os/rt/ports/ARMCMx/chcore.h"
 1530              		.file 13 "../../ChibiOS/os/rt/include/chdebug.h"
 1531              		.file 14 "../../ChibiOS/os/rt/include/chtm.h"
 1532              		.file 15 "../../ChibiOS/os/rt/include/chstats.h"
 1533              		.file 16 "../../ChibiOS/os/rt/include/chsem.h"
 1534              		.file 17 "../../ChibiOS/os/rt/include/chmtx.h"
ARM GAS  C:\Users\Luis\AppData\Local\Temp\ccE1imUd.s 			page 29


 1535              		.file 18 "../../ChibiOS/os/hal/ports/STM32/STM32F4xx/stm32_dma.h"
 1536              		.file 19 "../../ChibiOS/os/hal/ports/STM32/LLD/GPIOv2/pal_lld.h"
 1537              		.file 20 "../../ChibiOS/os/hal/include/spi.h"
 1538              		.file 21 "../../ChibiOS/os/hal/ports/STM32/LLD/SPIv1/spi_lld.h"
 1539              		.file 22 "../../ChibiOS/os/ext/CMSIS/include/core_cm4.h"