ARM GAS  C:\Users\Luis\AppData\Local\Temp\cc0Zr6zf.s 			page 1


   1              		.syntax unified
   2              		.cpu cortex-m4
   3              		.fpu softvfp
   4              		.eabi_attribute 20, 1
   5              		.eabi_attribute 21, 1
   6              		.eabi_attribute 23, 3
   7              		.eabi_attribute 24, 1
   8              		.eabi_attribute 25, 1
   9              		.eabi_attribute 26, 1
  10              		.eabi_attribute 30, 6
  11              		.eabi_attribute 34, 1
  12              		.eabi_attribute 18, 4
  13              		.thumb
  14              		.file	"st_lld.c"
  15              		.text
  16              	.Ltext0:
  17              		.cfi_sections	.debug_frame
  18              		.section	.text.port_lock,"ax",%progbits
  19              		.align	2
  20              		.p2align 4,,15
  21              		.thumb
  22              		.thumb_func
  23              		.type	port_lock, %function
  24              	port_lock:
  25              	.LFB116:
  26              		.file 1 "../../ChibiOS/os/rt/ports/ARMCMx/chcore_v7m.h"
  27              		.loc 1 444 0
  28              		.cfi_startproc
  29              		@ args = 0, pretend = 0, frame = 8
  30              		@ frame_needed = 1, uses_anonymous_args = 0
  31              		@ link register save eliminated.
  32 0000 80B4     		push	{r7}
  33              		.cfi_def_cfa_offset 4
  34              		.cfi_offset 7, -4
  35 0002 83B0     		sub	sp, sp, #12
  36              		.cfi_def_cfa_offset 16
  37 0004 00AF     		add	r7, sp, #0
  38              		.cfi_def_cfa_register 7
  39 0006 2023     		movs	r3, #32
  40 0008 7B60     		str	r3, [r7, #4]
  41              	.LBB6:
  42              	.LBB7:
  43              		.file 2 "../../ChibiOS/os/ext/CMSIS/include/core_cmFunc.h"
  44              		.loc 2 546 0
  45 000a 7B68     		ldr	r3, [r7, #4]
  46              	@ 546 "../../ChibiOS/os/ext/CMSIS/include/core_cmFunc.h" 1
  47 000c 83F31188 		MSR basepri, r3
  48              	@ 0 "" 2
  49              		.thumb
  50              	.LBE7:
  51              	.LBE6:
  52              		.loc 1 451 0
  53 0010 0C37     		adds	r7, r7, #12
  54 0012 BD46     		mov	sp, r7
  55              		@ sp needed
  56 0014 5DF8047B 		ldr	r7, [sp], #4
  57 0018 7047     		bx	lr
ARM GAS  C:\Users\Luis\AppData\Local\Temp\cc0Zr6zf.s 			page 2


  58              		.cfi_endproc
  59              	.LFE116:
  60              		.size	port_lock, .-port_lock
  61 001a 00BFAFF3 		.section	.text.port_unlock,"ax",%progbits
  61      0080
  62              		.align	2
  63              		.p2align 4,,15
  64              		.thumb
  65              		.thumb_func
  66              		.type	port_unlock, %function
  67              	port_unlock:
  68              	.LFB117:
  69              		.loc 1 458 0
  70              		.cfi_startproc
  71              		@ args = 0, pretend = 0, frame = 8
  72              		@ frame_needed = 1, uses_anonymous_args = 0
  73              		@ link register save eliminated.
  74 0000 80B4     		push	{r7}
  75              		.cfi_def_cfa_offset 4
  76              		.cfi_offset 7, -4
  77 0002 83B0     		sub	sp, sp, #12
  78              		.cfi_def_cfa_offset 16
  79 0004 00AF     		add	r7, sp, #0
  80              		.cfi_def_cfa_register 7
  81 0006 0023     		movs	r3, #0
  82 0008 7B60     		str	r3, [r7, #4]
  83              	.LBB8:
  84              	.LBB9:
  85              		.loc 2 546 0
  86 000a 7B68     		ldr	r3, [r7, #4]
  87              	@ 546 "../../ChibiOS/os/ext/CMSIS/include/core_cmFunc.h" 1
  88 000c 83F31188 		MSR basepri, r3
  89              	@ 0 "" 2
  90              		.thumb
  91              	.LBE9:
  92              	.LBE8:
  93              		.loc 1 465 0
  94 0010 0C37     		adds	r7, r7, #12
  95 0012 BD46     		mov	sp, r7
  96              		@ sp needed
  97 0014 5DF8047B 		ldr	r7, [sp], #4
  98 0018 7047     		bx	lr
  99              		.cfi_endproc
 100              	.LFE117:
 101              		.size	port_unlock, .-port_unlock
 102 001a 00BFAFF3 		.section	.text.port_lock_from_isr,"ax",%progbits
 102      0080
 103              		.align	2
 104              		.p2align 4,,15
 105              		.thumb
 106              		.thumb_func
 107              		.type	port_lock_from_isr, %function
 108              	port_lock_from_isr:
 109              	.LFB118:
 110              		.loc 1 473 0
 111              		.cfi_startproc
 112              		@ args = 0, pretend = 0, frame = 0
ARM GAS  C:\Users\Luis\AppData\Local\Temp\cc0Zr6zf.s 			page 3


 113              		@ frame_needed = 1, uses_anonymous_args = 0
 114 0000 80B5     		push	{r7, lr}
 115              		.cfi_def_cfa_offset 8
 116              		.cfi_offset 7, -8
 117              		.cfi_offset 14, -4
 118 0002 00AF     		add	r7, sp, #0
 119              		.cfi_def_cfa_register 7
 120              		.loc 1 475 0
 121 0004 FFF7FEFF 		bl	port_lock
 122              		.loc 1 476 0
 123 0008 80BD     		pop	{r7, pc}
 124              		.cfi_endproc
 125              	.LFE118:
 126              		.size	port_lock_from_isr, .-port_lock_from_isr
 127 000a 00BFAFF3 		.section	.text.port_unlock_from_isr,"ax",%progbits
 127      0080
 128              		.align	2
 129              		.p2align 4,,15
 130              		.thumb
 131              		.thumb_func
 132              		.type	port_unlock_from_isr, %function
 133              	port_unlock_from_isr:
 134              	.LFB119:
 135              		.loc 1 484 0
 136              		.cfi_startproc
 137              		@ args = 0, pretend = 0, frame = 0
 138              		@ frame_needed = 1, uses_anonymous_args = 0
 139 0000 80B5     		push	{r7, lr}
 140              		.cfi_def_cfa_offset 8
 141              		.cfi_offset 7, -8
 142              		.cfi_offset 14, -4
 143 0002 00AF     		add	r7, sp, #0
 144              		.cfi_def_cfa_register 7
 145              		.loc 1 486 0
 146 0004 FFF7FEFF 		bl	port_unlock
 147              		.loc 1 487 0
 148 0008 80BD     		pop	{r7, pc}
 149              		.cfi_endproc
 150              	.LFE119:
 151              		.size	port_unlock_from_isr, .-port_unlock_from_isr
 152 000a 00BFAFF3 		.section	.text.chSysLockFromISR,"ax",%progbits
 152      0080
 153              		.align	2
 154              		.p2align 4,,15
 155              		.thumb
 156              		.thumb_func
 157              		.type	chSysLockFromISR, %function
 158              	chSysLockFromISR:
 159              	.LFB158:
 160              		.file 3 "../../ChibiOS/os/rt/include/chsys.h"
 161              		.loc 3 386 0
 162              		.cfi_startproc
 163              		@ args = 0, pretend = 0, frame = 0
 164              		@ frame_needed = 1, uses_anonymous_args = 0
 165 0000 80B5     		push	{r7, lr}
 166              		.cfi_def_cfa_offset 8
 167              		.cfi_offset 7, -8
ARM GAS  C:\Users\Luis\AppData\Local\Temp\cc0Zr6zf.s 			page 4


 168              		.cfi_offset 14, -4
 169 0002 00AF     		add	r7, sp, #0
 170              		.cfi_def_cfa_register 7
 171              		.loc 3 388 0
 172 0004 FFF7FEFF 		bl	port_lock_from_isr
 173              		.loc 3 389 0
 174 0008 FFF7FEFF 		bl	_stats_start_measure_crit_isr
 175              		.loc 3 390 0
 176 000c FFF7FEFF 		bl	_dbg_check_lock_from_isr
 177              		.loc 3 391 0
 178 0010 80BD     		pop	{r7, pc}
 179              		.cfi_endproc
 180              	.LFE158:
 181              		.size	chSysLockFromISR, .-chSysLockFromISR
 182 0012 00BFAFF3 		.section	.text.chSysUnlockFromISR,"ax",%progbits
 182      0080AFF3 
 182      0080AFF3 
 182      0080
 183              		.align	2
 184              		.p2align 4,,15
 185              		.thumb
 186              		.thumb_func
 187              		.type	chSysUnlockFromISR, %function
 188              	chSysUnlockFromISR:
 189              	.LFB159:
 190              		.loc 3 406 0
 191              		.cfi_startproc
 192              		@ args = 0, pretend = 0, frame = 0
 193              		@ frame_needed = 1, uses_anonymous_args = 0
 194 0000 80B5     		push	{r7, lr}
 195              		.cfi_def_cfa_offset 8
 196              		.cfi_offset 7, -8
 197              		.cfi_offset 14, -4
 198 0002 00AF     		add	r7, sp, #0
 199              		.cfi_def_cfa_register 7
 200              		.loc 3 408 0
 201 0004 FFF7FEFF 		bl	_dbg_check_unlock_from_isr
 202              		.loc 3 409 0
 203 0008 FFF7FEFF 		bl	_stats_stop_measure_crit_isr
 204              		.loc 3 410 0
 205 000c FFF7FEFF 		bl	port_unlock_from_isr
 206              		.loc 3 411 0
 207 0010 80BD     		pop	{r7, pc}
 208              		.cfi_endproc
 209              	.LFE159:
 210              		.size	chSysUnlockFromISR, .-chSysUnlockFromISR
 211 0012 00BFAFF3 		.section	.text.osalSysLockFromISR,"ax",%progbits
 211      0080AFF3 
 211      0080AFF3 
 211      0080
 212              		.align	2
 213              		.p2align 4,,15
 214              		.thumb
 215              		.thumb_func
 216              		.type	osalSysLockFromISR, %function
 217              	osalSysLockFromISR:
 218              	.LFB235:
ARM GAS  C:\Users\Luis\AppData\Local\Temp\cc0Zr6zf.s 			page 5


 219              		.file 4 "../../ChibiOS/os/hal/osal/rt/osal.h"
 220              		.loc 4 513 0
 221              		.cfi_startproc
 222              		@ args = 0, pretend = 0, frame = 0
 223              		@ frame_needed = 1, uses_anonymous_args = 0
 224 0000 80B5     		push	{r7, lr}
 225              		.cfi_def_cfa_offset 8
 226              		.cfi_offset 7, -8
 227              		.cfi_offset 14, -4
 228 0002 00AF     		add	r7, sp, #0
 229              		.cfi_def_cfa_register 7
 230              		.loc 4 515 0
 231 0004 FFF7FEFF 		bl	chSysLockFromISR
 232              		.loc 4 516 0
 233 0008 80BD     		pop	{r7, pc}
 234              		.cfi_endproc
 235              	.LFE235:
 236              		.size	osalSysLockFromISR, .-osalSysLockFromISR
 237 000a 00BFAFF3 		.section	.text.osalSysUnlockFromISR,"ax",%progbits
 237      0080
 238              		.align	2
 239              		.p2align 4,,15
 240              		.thumb
 241              		.thumb_func
 242              		.type	osalSysUnlockFromISR, %function
 243              	osalSysUnlockFromISR:
 244              	.LFB236:
 245              		.loc 4 524 0
 246              		.cfi_startproc
 247              		@ args = 0, pretend = 0, frame = 0
 248              		@ frame_needed = 1, uses_anonymous_args = 0
 249 0000 80B5     		push	{r7, lr}
 250              		.cfi_def_cfa_offset 8
 251              		.cfi_offset 7, -8
 252              		.cfi_offset 14, -4
 253 0002 00AF     		add	r7, sp, #0
 254              		.cfi_def_cfa_register 7
 255              		.loc 4 526 0
 256 0004 FFF7FEFF 		bl	chSysUnlockFromISR
 257              		.loc 4 527 0
 258 0008 80BD     		pop	{r7, pc}
 259              		.cfi_endproc
 260              	.LFE236:
 261              		.size	osalSysUnlockFromISR, .-osalSysUnlockFromISR
 262 000a 00BFAFF3 		.section	.text.osalOsTimerHandlerI,"ax",%progbits
 262      0080
 263              		.align	2
 264              		.p2align 4,,15
 265              		.thumb
 266              		.thumb_func
 267              		.type	osalOsTimerHandlerI, %function
 268              	osalOsTimerHandlerI:
 269              	.LFB240:
 270              		.loc 4 583 0
 271              		.cfi_startproc
 272              		@ args = 0, pretend = 0, frame = 0
 273              		@ frame_needed = 1, uses_anonymous_args = 0
ARM GAS  C:\Users\Luis\AppData\Local\Temp\cc0Zr6zf.s 			page 6


 274 0000 80B5     		push	{r7, lr}
 275              		.cfi_def_cfa_offset 8
 276              		.cfi_offset 7, -8
 277              		.cfi_offset 14, -4
 278 0002 00AF     		add	r7, sp, #0
 279              		.cfi_def_cfa_register 7
 280              		.loc 4 585 0
 281 0004 FFF7FEFF 		bl	chSysTimerHandlerI
 282              		.loc 4 586 0
 283 0008 80BD     		pop	{r7, pc}
 284              		.cfi_endproc
 285              	.LFE240:
 286              		.size	osalOsTimerHandlerI, .-osalOsTimerHandlerI
 287 000a 00BFAFF3 		.section	.text.VectorB0,"ax",%progbits
 287      0080
 288              		.align	2
 289              		.p2align 4,,15
 290              		.global	VectorB0
 291              		.thumb
 292              		.thumb_func
 293              		.type	VectorB0, %function
 294              	VectorB0:
 295              	.LFB260:
 296              		.file 5 "../../ChibiOS/os/hal/ports/STM32/LLD/TIMv1/st_lld.c"
 297              		.loc 5 173 0
 298              		.cfi_startproc
 299              		@ args = 0, pretend = 0, frame = 0
 300              		@ frame_needed = 1, uses_anonymous_args = 0
 301 0000 80B5     		push	{r7, lr}
 302              		.cfi_def_cfa_offset 8
 303              		.cfi_offset 7, -8
 304              		.cfi_offset 14, -4
 305 0002 00AF     		add	r7, sp, #0
 306              		.cfi_def_cfa_register 7
 307              		.loc 5 175 0
 308 0004 FFF7FEFF 		bl	_stats_increase_irq
 309 0008 FFF7FEFF 		bl	_dbg_check_enter_isr
 310              		.loc 5 180 0
 311 000c 4FF08043 		mov	r3, #1073741824
 312 0010 1B69     		ldr	r3, [r3, #16]
 313 0012 03F00203 		and	r3, r3, #2
 314 0016 002B     		cmp	r3, #0
 315 0018 09D0     		beq	.L11
 316              		.loc 5 181 0
 317 001a 4FF08043 		mov	r3, #1073741824
 318 001e 0022     		movs	r2, #0
 319 0020 1A61     		str	r2, [r3, #16]
 320              		.loc 5 183 0
 321 0022 FFF7FEFF 		bl	osalSysLockFromISR
 322              		.loc 5 184 0
 323 0026 FFF7FEFF 		bl	osalOsTimerHandlerI
 324              		.loc 5 185 0
 325 002a FFF7FEFF 		bl	osalSysUnlockFromISR
 326              	.L11:
 327              		.loc 5 188 0
 328 002e FFF7FEFF 		bl	_dbg_check_leave_isr
 329 0032 FFF7FEFF 		bl	_port_irq_epilogue
ARM GAS  C:\Users\Luis\AppData\Local\Temp\cc0Zr6zf.s 			page 7


 330              		.loc 5 189 0
 331 0036 80BD     		pop	{r7, pc}
 332              		.cfi_endproc
 333              	.LFE260:
 334              		.size	VectorB0, .-VectorB0
 335 0038 AFF30080 		.section	.text.st_lld_init,"ax",%progbits
 335      AFF30080 
 336              		.align	2
 337              		.p2align 4,,15
 338              		.global	st_lld_init
 339              		.thumb
 340              		.thumb_func
 341              		.type	st_lld_init, %function
 342              	st_lld_init:
 343              	.LFB261:
 344              		.loc 5 201 0
 345              		.cfi_startproc
 346              		@ args = 0, pretend = 0, frame = 0
 347              		@ frame_needed = 1, uses_anonymous_args = 0
 348 0000 80B5     		push	{r7, lr}
 349              		.cfi_def_cfa_offset 8
 350              		.cfi_offset 7, -8
 351              		.cfi_offset 14, -4
 352 0002 00AF     		add	r7, sp, #0
 353              		.cfi_def_cfa_register 7
 354              		.loc 5 207 0
 355 0004 194B     		ldr	r3, .L13
 356 0006 194A     		ldr	r2, .L13
 357 0008 126C     		ldr	r2, [r2, #64]
 358 000a 42F00102 		orr	r2, r2, #1
 359 000e 1A64     		str	r2, [r3, #64]
 360              		.loc 5 210 0
 361 0010 174B     		ldr	r3, .L13+4
 362 0012 174A     		ldr	r2, .L13+4
 363 0014 9268     		ldr	r2, [r2, #8]
 364 0016 42F00102 		orr	r2, r2, #1
 365 001a 9A60     		str	r2, [r3, #8]
 366              		.loc 5 213 0
 367 001c 4FF08043 		mov	r3, #1073741824
 368 0020 42F2CF02 		movw	r2, #8399
 369 0024 9A62     		str	r2, [r3, #40]
 370              		.loc 5 214 0
 371 0026 4FF08043 		mov	r3, #1073741824
 372 002a 4FF0FF32 		mov	r2, #-1
 373 002e DA62     		str	r2, [r3, #44]
 374              		.loc 5 215 0
 375 0030 4FF08043 		mov	r3, #1073741824
 376 0034 0022     		movs	r2, #0
 377 0036 9A61     		str	r2, [r3, #24]
 378              		.loc 5 216 0
 379 0038 4FF08043 		mov	r3, #1073741824
 380 003c 0022     		movs	r2, #0
 381 003e 5A63     		str	r2, [r3, #52]
 382              		.loc 5 217 0
 383 0040 4FF08043 		mov	r3, #1073741824
 384 0044 0022     		movs	r2, #0
 385 0046 DA60     		str	r2, [r3, #12]
ARM GAS  C:\Users\Luis\AppData\Local\Temp\cc0Zr6zf.s 			page 8


 386              		.loc 5 218 0
 387 0048 4FF08043 		mov	r3, #1073741824
 388 004c 0022     		movs	r2, #0
 389 004e 5A60     		str	r2, [r3, #4]
 390              		.loc 5 219 0
 391 0050 4FF08043 		mov	r3, #1073741824
 392 0054 0122     		movs	r2, #1
 393 0056 5A61     		str	r2, [r3, #20]
 394              		.loc 5 220 0
 395 0058 4FF08043 		mov	r3, #1073741824
 396 005c 0122     		movs	r2, #1
 397 005e 1A60     		str	r2, [r3]
 398              		.loc 5 223 0
 399 0060 1C20     		movs	r0, #28
 400 0062 0821     		movs	r1, #8
 401 0064 FFF7FEFF 		bl	nvicEnableVector
 402              		.loc 5 238 0
 403 0068 80BD     		pop	{r7, pc}
 404              	.L14:
 405 006a 00BF     		.align	2
 406              	.L13:
 407 006c 00380240 		.word	1073887232
 408 0070 002004E0 		.word	-536600576
 409              		.cfi_endproc
 410              	.LFE261:
 411              		.size	st_lld_init, .-st_lld_init
 412 0074 AFF30080 		.text
 412      AFF30080 
 412      AFF30080 
 413              	.Letext0:
 414              		.file 6 "c:\\emtechesdk\\gcc\\arm-none-eabi\\include\\stdint.h"
 415              		.file 7 "../../ChibiOS/os/rt/ports/ARMCMx/compilers/GCC/chtypes.h"
 416              		.file 8 "../../ChibiOS/os/rt/include/chsystypes.h"
 417              		.file 9 "../../ChibiOS/os/rt/include/chschd.h"
 418              		.file 10 "../../ChibiOS/os/ext/CMSIS/ST/stm32f407xx.h"
 419              		.file 11 "../../ChibiOS/os/rt/ports/ARMCMx/chcore.h"
 420              		.file 12 "../../ChibiOS/os/hal/ports/STM32/LLD/TIMv1/stm32_tim.h"
 421              		.file 13 "../../ChibiOS/os/rt/include/chdebug.h"
 422              		.file 14 "../../ChibiOS/os/rt/include/chtm.h"
 423              		.file 15 "../../ChibiOS/os/rt/include/chstats.h"
 424              		.file 16 "../../ChibiOS/os/rt/include/chsem.h"
 425              		.file 17 "../../ChibiOS/os/rt/include/chmtx.h"
 426              		.file 18 "../../ChibiOS/os/ext/CMSIS/include/core_cm4.h"