ARM GAS  C:\Users\Luis\AppData\Local\Temp\ccMQOx1f.s 			page 1


   1              		.syntax unified
   2              		.cpu cortex-m4
   3              		.fpu softvfp
   4              		.eabi_attribute 20, 1
   5              		.eabi_attribute 21, 1
   6              		.eabi_attribute 23, 3
   7              		.eabi_attribute 24, 1
   8              		.eabi_attribute 25, 1
   9              		.eabi_attribute 26, 1
  10              		.eabi_attribute 30, 6
  11              		.eabi_attribute 34, 1
  12              		.eabi_attribute 18, 4
  13              		.thumb
  14              		.file	"testsem.c"
  15              		.text
  16              	.Ltext0:
  17              		.cfi_sections	.debug_frame
  18              		.section	.text.port_lock,"ax",%progbits
  19              		.align	2
  20              		.p2align 4,,15
  21              		.thumb
  22              		.thumb_func
  23              		.type	port_lock, %function
  24              	port_lock:
  25              	.LFB116:
  26              		.file 1 "../../ChibiOS/os/rt/ports/ARMCMx/chcore_v7m.h"
  27              		.loc 1 444 0
  28              		.cfi_startproc
  29              		@ args = 0, pretend = 0, frame = 8
  30              		@ frame_needed = 1, uses_anonymous_args = 0
  31              		@ link register save eliminated.
  32 0000 80B4     		push	{r7}
  33              		.cfi_def_cfa_offset 4
  34              		.cfi_offset 7, -4
  35 0002 83B0     		sub	sp, sp, #12
  36              		.cfi_def_cfa_offset 16
  37 0004 00AF     		add	r7, sp, #0
  38              		.cfi_def_cfa_register 7
  39 0006 2023     		movs	r3, #32
  40 0008 7B60     		str	r3, [r7, #4]
  41              	.LBB6:
  42              	.LBB7:
  43              		.file 2 "../../ChibiOS/os/ext/CMSIS/include/core_cmFunc.h"
  44              		.loc 2 546 0
  45 000a 7B68     		ldr	r3, [r7, #4]
  46              	@ 546 "../../ChibiOS/os/ext/CMSIS/include/core_cmFunc.h" 1
  47 000c 83F31188 		MSR basepri, r3
  48              	@ 0 "" 2
  49              		.thumb
  50              	.LBE7:
  51              	.LBE6:
  52              		.loc 1 451 0
  53 0010 0C37     		adds	r7, r7, #12
  54 0012 BD46     		mov	sp, r7
  55              		@ sp needed
  56 0014 5DF8047B 		ldr	r7, [sp], #4
  57 0018 7047     		bx	lr
ARM GAS  C:\Users\Luis\AppData\Local\Temp\ccMQOx1f.s 			page 2


  58              		.cfi_endproc
  59              	.LFE116:
  60              		.size	port_lock, .-port_lock
  61 001a 00BFAFF3 		.section	.text.port_unlock,"ax",%progbits
  61      0080
  62              		.align	2
  63              		.p2align 4,,15
  64              		.thumb
  65              		.thumb_func
  66              		.type	port_unlock, %function
  67              	port_unlock:
  68              	.LFB117:
  69              		.loc 1 458 0
  70              		.cfi_startproc
  71              		@ args = 0, pretend = 0, frame = 8
  72              		@ frame_needed = 1, uses_anonymous_args = 0
  73              		@ link register save eliminated.
  74 0000 80B4     		push	{r7}
  75              		.cfi_def_cfa_offset 4
  76              		.cfi_offset 7, -4
  77 0002 83B0     		sub	sp, sp, #12
  78              		.cfi_def_cfa_offset 16
  79 0004 00AF     		add	r7, sp, #0
  80              		.cfi_def_cfa_register 7
  81 0006 0023     		movs	r3, #0
  82 0008 7B60     		str	r3, [r7, #4]
  83              	.LBB8:
  84              	.LBB9:
  85              		.loc 2 546 0
  86 000a 7B68     		ldr	r3, [r7, #4]
  87              	@ 546 "../../ChibiOS/os/ext/CMSIS/include/core_cmFunc.h" 1
  88 000c 83F31188 		MSR basepri, r3
  89              	@ 0 "" 2
  90              		.thumb
  91              	.LBE9:
  92              	.LBE8:
  93              		.loc 1 465 0
  94 0010 0C37     		adds	r7, r7, #12
  95 0012 BD46     		mov	sp, r7
  96              		@ sp needed
  97 0014 5DF8047B 		ldr	r7, [sp], #4
  98 0018 7047     		bx	lr
  99              		.cfi_endproc
 100              	.LFE117:
 101              		.size	port_unlock, .-port_unlock
 102 001a 00BFAFF3 		.section	.text.st_lld_get_counter,"ax",%progbits
 102      0080
 103              		.align	2
 104              		.p2align 4,,15
 105              		.thumb
 106              		.thumb_func
 107              		.type	st_lld_get_counter, %function
 108              	st_lld_get_counter:
 109              	.LFB125:
 110              		.file 3 "../../ChibiOS/os/hal/ports/STM32/LLD/TIMv1/st_lld.h"
 111              		.loc 3 127 0
 112              		.cfi_startproc
ARM GAS  C:\Users\Luis\AppData\Local\Temp\ccMQOx1f.s 			page 3


 113              		@ args = 0, pretend = 0, frame = 0
 114              		@ frame_needed = 1, uses_anonymous_args = 0
 115              		@ link register save eliminated.
 116 0000 80B4     		push	{r7}
 117              		.cfi_def_cfa_offset 4
 118              		.cfi_offset 7, -4
 119 0002 00AF     		add	r7, sp, #0
 120              		.cfi_def_cfa_register 7
 121              		.loc 3 129 0
 122 0004 4FF08043 		mov	r3, #1073741824
 123 0008 5B6A     		ldr	r3, [r3, #36]
 124              		.loc 3 130 0
 125 000a 1846     		mov	r0, r3
 126 000c BD46     		mov	sp, r7
 127              		@ sp needed
 128 000e 5DF8047B 		ldr	r7, [sp], #4
 129 0012 7047     		bx	lr
 130              		.cfi_endproc
 131              	.LFE125:
 132              		.size	st_lld_get_counter, .-st_lld_get_counter
 133 0014 AFF30080 		.section	.text.port_timer_get_time,"ax",%progbits
 133      AFF30080 
 133      AFF30080 
 134              		.align	2
 135              		.p2align 4,,15
 136              		.thumb
 137              		.thumb_func
 138              		.type	port_timer_get_time, %function
 139              	port_timer_get_time:
 140              	.LFB134:
 141              		.file 4 "../../ChibiOS/os/rt/ports/ARMCMx/chcore_timer.h"
 142              		.loc 4 105 0
 143              		.cfi_startproc
 144              		@ args = 0, pretend = 0, frame = 0
 145              		@ frame_needed = 1, uses_anonymous_args = 0
 146 0000 80B5     		push	{r7, lr}
 147              		.cfi_def_cfa_offset 8
 148              		.cfi_offset 7, -8
 149              		.cfi_offset 14, -4
 150 0002 00AF     		add	r7, sp, #0
 151              		.cfi_def_cfa_register 7
 152              		.loc 4 107 0
 153 0004 FFF7FEFF 		bl	st_lld_get_counter
 154 0008 0346     		mov	r3, r0
 155              		.loc 4 108 0
 156 000a 1846     		mov	r0, r3
 157 000c 80BD     		pop	{r7, pc}
 158              		.cfi_endproc
 159              	.LFE134:
 160              		.size	port_timer_get_time, .-port_timer_get_time
 161 000e 00BF     		.section	.text.queue_isempty,"ax",%progbits
 162              		.align	2
 163              		.p2align 4,,15
 164              		.thumb
 165              		.thumb_func
 166              		.type	queue_isempty, %function
 167              	queue_isempty:
ARM GAS  C:\Users\Luis\AppData\Local\Temp\ccMQOx1f.s 			page 4


 168              	.LFB140:
 169              		.file 5 "../../ChibiOS/os/rt/include/chschd.h"
 170              		.loc 5 616 0
 171              		.cfi_startproc
 172              		@ args = 0, pretend = 0, frame = 8
 173              		@ frame_needed = 1, uses_anonymous_args = 0
 174              		@ link register save eliminated.
 175 0000 80B4     		push	{r7}
 176              		.cfi_def_cfa_offset 4
 177              		.cfi_offset 7, -4
 178 0002 83B0     		sub	sp, sp, #12
 179              		.cfi_def_cfa_offset 16
 180 0004 00AF     		add	r7, sp, #0
 181              		.cfi_def_cfa_register 7
 182 0006 7860     		str	r0, [r7, #4]
 183              		.loc 5 618 0
 184 0008 7B68     		ldr	r3, [r7, #4]
 185 000a 1A68     		ldr	r2, [r3]
 186 000c 7B68     		ldr	r3, [r7, #4]
 187 000e 9A42     		cmp	r2, r3
 188 0010 14BF     		ite	ne
 189 0012 0023     		movne	r3, #0
 190 0014 0123     		moveq	r3, #1
 191 0016 DBB2     		uxtb	r3, r3
 192              		.loc 5 619 0
 193 0018 1846     		mov	r0, r3
 194 001a 0C37     		adds	r7, r7, #12
 195 001c BD46     		mov	sp, r7
 196              		@ sp needed
 197 001e 5DF8047B 		ldr	r7, [sp], #4
 198 0022 7047     		bx	lr
 199              		.cfi_endproc
 200              	.LFE140:
 201              		.size	queue_isempty, .-queue_isempty
 202 0024 AFF30080 		.section	.text.chSysLock,"ax",%progbits
 202      AFF30080 
 202      AFF30080 
 203              		.align	2
 204              		.p2align 4,,15
 205              		.thumb
 206              		.thumb_func
 207              		.type	chSysLock, %function
 208              	chSysLock:
 209              	.LFB156:
 210              		.file 6 "../../ChibiOS/os/rt/include/chsys.h"
 211              		.loc 6 346 0
 212              		.cfi_startproc
 213              		@ args = 0, pretend = 0, frame = 0
 214              		@ frame_needed = 1, uses_anonymous_args = 0
 215 0000 80B5     		push	{r7, lr}
 216              		.cfi_def_cfa_offset 8
 217              		.cfi_offset 7, -8
 218              		.cfi_offset 14, -4
 219 0002 00AF     		add	r7, sp, #0
 220              		.cfi_def_cfa_register 7
 221              		.loc 6 348 0
 222 0004 FFF7FEFF 		bl	port_lock
ARM GAS  C:\Users\Luis\AppData\Local\Temp\ccMQOx1f.s 			page 5


 223              		.loc 6 349 0
 224 0008 FFF7FEFF 		bl	_stats_start_measure_crit_thd
 225              		.loc 6 350 0
 226 000c FFF7FEFF 		bl	_dbg_check_lock
 227              		.loc 6 351 0
 228 0010 80BD     		pop	{r7, pc}
 229              		.cfi_endproc
 230              	.LFE156:
 231              		.size	chSysLock, .-chSysLock
 232 0012 00BFAFF3 		.section	.text.chSysUnlock,"ax",%progbits
 232      0080AFF3 
 232      0080AFF3 
 232      0080
 233              		.align	2
 234              		.p2align 4,,15
 235              		.thumb
 236              		.thumb_func
 237              		.type	chSysUnlock, %function
 238              	chSysUnlock:
 239              	.LFB157:
 240              		.loc 6 358 0
 241              		.cfi_startproc
 242              		@ args = 0, pretend = 0, frame = 0
 243              		@ frame_needed = 1, uses_anonymous_args = 0
 244 0000 80B5     		push	{r7, lr}
 245              		.cfi_def_cfa_offset 8
 246              		.cfi_offset 7, -8
 247              		.cfi_offset 14, -4
 248 0002 00AF     		add	r7, sp, #0
 249              		.cfi_def_cfa_register 7
 250              		.loc 6 360 0
 251 0004 FFF7FEFF 		bl	_dbg_check_unlock
 252              		.loc 6 361 0
 253 0008 FFF7FEFF 		bl	_stats_stop_measure_crit_thd
 254              		.loc 6 367 0
 255 000c 094B     		ldr	r3, .L12
 256 000e 1A68     		ldr	r2, [r3]
 257 0010 084B     		ldr	r3, .L12
 258 0012 9A42     		cmp	r2, r3
 259 0014 0AD0     		beq	.L11
 260              		.loc 6 367 0 is_stmt 0 discriminator 1
 261 0016 074B     		ldr	r3, .L12
 262 0018 9B69     		ldr	r3, [r3, #24]
 263 001a 9A68     		ldr	r2, [r3, #8]
 264 001c 054B     		ldr	r3, .L12
 265 001e 1B68     		ldr	r3, [r3]
 266 0020 9B68     		ldr	r3, [r3, #8]
 267 0022 9A42     		cmp	r2, r3
 268 0024 02D2     		bcs	.L11
 269 0026 0448     		ldr	r0, .L12+4
 270 0028 FFF7FEFF 		bl	chSysHalt
 271              	.L11:
 272              		.loc 6 371 0 is_stmt 1
 273 002c FFF7FEFF 		bl	port_unlock
 274              		.loc 6 372 0
 275 0030 80BD     		pop	{r7, pc}
 276              	.L13:
ARM GAS  C:\Users\Luis\AppData\Local\Temp\ccMQOx1f.s 			page 6


 277 0032 00BF     		.align	2
 278              	.L12:
 279 0034 00000000 		.word	ch
 280 0038 00000000 		.word	__func__.5842
 281              		.cfi_endproc
 282              	.LFE157:
 283              		.size	chSysUnlock, .-chSysUnlock
 284 003c AFF30080 		.section	.text.chVTGetSystemTimeX,"ax",%progbits
 285              		.align	2
 286              		.p2align 4,,15
 287              		.thumb
 288              		.thumb_func
 289              		.type	chVTGetSystemTimeX, %function
 290              	chVTGetSystemTimeX:
 291              	.LFB164:
 292              		.file 7 "../../ChibiOS/os/rt/include/chvt.h"
 293              		.loc 7 228 0
 294              		.cfi_startproc
 295              		@ args = 0, pretend = 0, frame = 0
 296              		@ frame_needed = 1, uses_anonymous_args = 0
 297 0000 80B5     		push	{r7, lr}
 298              		.cfi_def_cfa_offset 8
 299              		.cfi_offset 7, -8
 300              		.cfi_offset 14, -4
 301 0002 00AF     		add	r7, sp, #0
 302              		.cfi_def_cfa_register 7
 303              		.loc 7 233 0
 304 0004 FFF7FEFF 		bl	port_timer_get_time
 305 0008 0346     		mov	r3, r0
 306              		.loc 7 235 0
 307 000a 1846     		mov	r0, r3
 308 000c 80BD     		pop	{r7, pc}
 309              		.cfi_endproc
 310              	.LFE164:
 311              		.size	chVTGetSystemTimeX, .-chVTGetSystemTimeX
 312 000e 00BF     		.section	.text.chVTGetSystemTime,"ax",%progbits
 313              		.align	2
 314              		.p2align 4,,15
 315              		.thumb
 316              		.thumb_func
 317              		.type	chVTGetSystemTime, %function
 318              	chVTGetSystemTime:
 319              	.LFB165:
 320              		.loc 7 247 0
 321              		.cfi_startproc
 322              		@ args = 0, pretend = 0, frame = 8
 323              		@ frame_needed = 1, uses_anonymous_args = 0
 324 0000 80B5     		push	{r7, lr}
 325              		.cfi_def_cfa_offset 8
 326              		.cfi_offset 7, -8
 327              		.cfi_offset 14, -4
 328 0002 82B0     		sub	sp, sp, #8
 329              		.cfi_def_cfa_offset 16
 330 0004 00AF     		add	r7, sp, #0
 331              		.cfi_def_cfa_register 7
 332              		.loc 7 250 0
 333 0006 FFF7FEFF 		bl	chSysLock
ARM GAS  C:\Users\Luis\AppData\Local\Temp\ccMQOx1f.s 			page 7


 334              		.loc 7 251 0
 335 000a FFF7FEFF 		bl	chVTGetSystemTimeX
 336 000e 7860     		str	r0, [r7, #4]
 337              		.loc 7 252 0
 338 0010 FFF7FEFF 		bl	chSysUnlock
 339              		.loc 7 254 0
 340 0014 7B68     		ldr	r3, [r7, #4]
 341              		.loc 7 255 0
 342 0016 1846     		mov	r0, r3
 343 0018 0837     		adds	r7, r7, #8
 344 001a BD46     		mov	sp, r7
 345              		@ sp needed
 346 001c 80BD     		pop	{r7, pc}
 347              		.cfi_endproc
 348              	.LFE165:
 349              		.size	chVTGetSystemTime, .-chVTGetSystemTime
 350 001e 00BF     		.section	.text.chThdGetSelfX,"ax",%progbits
 351              		.align	2
 352              		.p2align 4,,15
 353              		.thumb
 354              		.thumb_func
 355              		.type	chThdGetSelfX, %function
 356              	chThdGetSelfX:
 357              	.LFB177:
 358              		.file 8 "../../ChibiOS/os/rt/include/chthreads.h"
 359              		.loc 8 174 0
 360              		.cfi_startproc
 361              		@ args = 0, pretend = 0, frame = 0
 362              		@ frame_needed = 1, uses_anonymous_args = 0
 363              		@ link register save eliminated.
 364 0000 80B4     		push	{r7}
 365              		.cfi_def_cfa_offset 4
 366              		.cfi_offset 7, -4
 367 0002 00AF     		add	r7, sp, #0
 368              		.cfi_def_cfa_register 7
 369              		.loc 8 176 0
 370 0004 034B     		ldr	r3, .L20
 371 0006 9B69     		ldr	r3, [r3, #24]
 372              		.loc 8 177 0
 373 0008 1846     		mov	r0, r3
 374 000a BD46     		mov	sp, r7
 375              		@ sp needed
 376 000c 5DF8047B 		ldr	r7, [sp], #4
 377 0010 7047     		bx	lr
 378              	.L21:
 379 0012 00BF     		.align	2
 380              	.L20:
 381 0014 00000000 		.word	ch
 382              		.cfi_endproc
 383              	.LFE177:
 384              		.size	chThdGetSelfX, .-chThdGetSelfX
 385 0018 AFF30080 		.section	.text.chThdGetPriorityX,"ax",%progbits
 385      AFF30080 
 386              		.align	2
 387              		.p2align 4,,15
 388              		.thumb
 389              		.thumb_func
ARM GAS  C:\Users\Luis\AppData\Local\Temp\ccMQOx1f.s 			page 8


 390              		.type	chThdGetPriorityX, %function
 391              	chThdGetPriorityX:
 392              	.LFB178:
 393              		.loc 8 187 0
 394              		.cfi_startproc
 395              		@ args = 0, pretend = 0, frame = 0
 396              		@ frame_needed = 1, uses_anonymous_args = 0
 397 0000 80B5     		push	{r7, lr}
 398              		.cfi_def_cfa_offset 8
 399              		.cfi_offset 7, -8
 400              		.cfi_offset 14, -4
 401 0002 00AF     		add	r7, sp, #0
 402              		.cfi_def_cfa_register 7
 403              		.loc 8 189 0
 404 0004 FFF7FEFF 		bl	chThdGetSelfX
 405 0008 0346     		mov	r3, r0
 406 000a 9B68     		ldr	r3, [r3, #8]
 407              		.loc 8 190 0
 408 000c 1846     		mov	r0, r3
 409 000e 80BD     		pop	{r7, pc}
 410              		.cfi_endproc
 411              	.LFE178:
 412              		.size	chThdGetPriorityX, .-chThdGetPriorityX
 413              		.section	.text.chSemGetCounterI,"ax",%progbits
 414              		.align	2
 415              		.p2align 4,,15
 416              		.thumb
 417              		.thumb_func
 418              		.type	chSemGetCounterI, %function
 419              	chSemGetCounterI:
 420              	.LFB191:
 421              		.file 9 "../../ChibiOS/os/rt/include/chsem.h"
 422              		.loc 9 149 0
 423              		.cfi_startproc
 424              		@ args = 0, pretend = 0, frame = 8
 425              		@ frame_needed = 1, uses_anonymous_args = 0
 426 0000 80B5     		push	{r7, lr}
 427              		.cfi_def_cfa_offset 8
 428              		.cfi_offset 7, -8
 429              		.cfi_offset 14, -4
 430 0002 82B0     		sub	sp, sp, #8
 431              		.cfi_def_cfa_offset 16
 432 0004 00AF     		add	r7, sp, #0
 433              		.cfi_def_cfa_register 7
 434 0006 7860     		str	r0, [r7, #4]
 435              		.loc 9 151 0
 436 0008 FFF7FEFF 		bl	chDbgCheckClassI
 437              		.loc 9 153 0
 438 000c 7B68     		ldr	r3, [r7, #4]
 439 000e 9B68     		ldr	r3, [r3, #8]
 440              		.loc 9 154 0
 441 0010 1846     		mov	r0, r3
 442 0012 0837     		adds	r7, r7, #8
 443 0014 BD46     		mov	sp, r7
 444              		@ sp needed
 445 0016 80BD     		pop	{r7, pc}
 446              		.cfi_endproc
ARM GAS  C:\Users\Luis\AppData\Local\Temp\ccMQOx1f.s 			page 9


 447              	.LFE191:
 448              		.size	chSemGetCounterI, .-chSemGetCounterI
 449 0018 AFF30080 		.section	.text.chBSemObjectInit,"ax",%progbits
 449      AFF30080 
 450              		.align	2
 451              		.p2align 4,,15
 452              		.thumb
 453              		.thumb_func
 454              		.type	chBSemObjectInit, %function
 455              	chBSemObjectInit:
 456              	.LFB192:
 457              		.file 10 "../../ChibiOS/os/rt/include/chbsem.h"
 458              		.loc 10 124 0
 459              		.cfi_startproc
 460              		@ args = 0, pretend = 0, frame = 8
 461              		@ frame_needed = 1, uses_anonymous_args = 0
 462 0000 80B5     		push	{r7, lr}
 463              		.cfi_def_cfa_offset 8
 464              		.cfi_offset 7, -8
 465              		.cfi_offset 14, -4
 466 0002 82B0     		sub	sp, sp, #8
 467              		.cfi_def_cfa_offset 16
 468 0004 00AF     		add	r7, sp, #0
 469              		.cfi_def_cfa_register 7
 470 0006 7860     		str	r0, [r7, #4]
 471 0008 0B46     		mov	r3, r1
 472 000a FB70     		strb	r3, [r7, #3]
 473              		.loc 10 126 0
 474 000c 7A68     		ldr	r2, [r7, #4]
 475 000e FB78     		ldrb	r3, [r7, #3]	@ zero_extendqisi2
 476 0010 002B     		cmp	r3, #0
 477 0012 01D0     		beq	.L27
 478              		.loc 10 126 0 is_stmt 0 discriminator 1
 479 0014 0023     		movs	r3, #0
 480 0016 00E0     		b	.L28
 481              	.L27:
 482              		.loc 10 126 0 discriminator 2
 483 0018 0123     		movs	r3, #1
 484              	.L28:
 485              		.loc 10 126 0 discriminator 3
 486 001a 1046     		mov	r0, r2
 487 001c 1946     		mov	r1, r3
 488 001e FFF7FEFF 		bl	chSemObjectInit
 489              		.loc 10 127 0 is_stmt 1 discriminator 3
 490 0022 0837     		adds	r7, r7, #8
 491 0024 BD46     		mov	sp, r7
 492              		@ sp needed
 493 0026 80BD     		pop	{r7, pc}
 494              		.cfi_endproc
 495              	.LFE192:
 496              		.size	chBSemObjectInit, .-chBSemObjectInit
 497 0028 AFF30080 		.section	.text.chBSemWait,"ax",%progbits
 497      AFF30080 
 498              		.align	2
 499              		.p2align 4,,15
 500              		.thumb
 501              		.thumb_func
ARM GAS  C:\Users\Luis\AppData\Local\Temp\ccMQOx1f.s 			page 10


 502              		.type	chBSemWait, %function
 503              	chBSemWait:
 504              	.LFB193:
 505              		.loc 10 141 0
 506              		.cfi_startproc
 507              		@ args = 0, pretend = 0, frame = 8
 508              		@ frame_needed = 1, uses_anonymous_args = 0
 509 0000 80B5     		push	{r7, lr}
 510              		.cfi_def_cfa_offset 8
 511              		.cfi_offset 7, -8
 512              		.cfi_offset 14, -4
 513 0002 82B0     		sub	sp, sp, #8
 514              		.cfi_def_cfa_offset 16
 515 0004 00AF     		add	r7, sp, #0
 516              		.cfi_def_cfa_register 7
 517 0006 7860     		str	r0, [r7, #4]
 518              		.loc 10 143 0
 519 0008 7B68     		ldr	r3, [r7, #4]
 520 000a 1846     		mov	r0, r3
 521 000c FFF7FEFF 		bl	chSemWait
 522 0010 0346     		mov	r3, r0
 523              		.loc 10 144 0
 524 0012 1846     		mov	r0, r3
 525 0014 0837     		adds	r7, r7, #8
 526 0016 BD46     		mov	sp, r7
 527              		@ sp needed
 528 0018 80BD     		pop	{r7, pc}
 529              		.cfi_endproc
 530              	.LFE193:
 531              		.size	chBSemWait, .-chBSemWait
 532 001a 00BFAFF3 		.section	.text.chBSemReset,"ax",%progbits
 532      0080
 533              		.align	2
 534              		.p2align 4,,15
 535              		.thumb
 536              		.thumb_func
 537              		.type	chBSemReset, %function
 538              	chBSemReset:
 539              	.LFB198:
 540              		.loc 10 253 0
 541              		.cfi_startproc
 542              		@ args = 0, pretend = 0, frame = 8
 543              		@ frame_needed = 1, uses_anonymous_args = 0
 544 0000 80B5     		push	{r7, lr}
 545              		.cfi_def_cfa_offset 8
 546              		.cfi_offset 7, -8
 547              		.cfi_offset 14, -4
 548 0002 82B0     		sub	sp, sp, #8
 549              		.cfi_def_cfa_offset 16
 550 0004 00AF     		add	r7, sp, #0
 551              		.cfi_def_cfa_register 7
 552 0006 7860     		str	r0, [r7, #4]
 553 0008 0B46     		mov	r3, r1
 554 000a FB70     		strb	r3, [r7, #3]
 555              		.loc 10 255 0
 556 000c 7A68     		ldr	r2, [r7, #4]
 557 000e FB78     		ldrb	r3, [r7, #3]	@ zero_extendqisi2
ARM GAS  C:\Users\Luis\AppData\Local\Temp\ccMQOx1f.s 			page 11


 558 0010 002B     		cmp	r3, #0
 559 0012 01D0     		beq	.L32
 560              		.loc 10 255 0 is_stmt 0 discriminator 1
 561 0014 0023     		movs	r3, #0
 562 0016 00E0     		b	.L33
 563              	.L32:
 564              		.loc 10 255 0 discriminator 2
 565 0018 0123     		movs	r3, #1
 566              	.L33:
 567              		.loc 10 255 0 discriminator 3
 568 001a 1046     		mov	r0, r2
 569 001c 1946     		mov	r1, r3
 570 001e FFF7FEFF 		bl	chSemReset
 571              		.loc 10 256 0 is_stmt 1 discriminator 3
 572 0022 0837     		adds	r7, r7, #8
 573 0024 BD46     		mov	sp, r7
 574              		@ sp needed
 575 0026 80BD     		pop	{r7, pc}
 576              		.cfi_endproc
 577              	.LFE198:
 578              		.size	chBSemReset, .-chBSemReset
 579 0028 AFF30080 		.section	.text.chBSemSignalI,"ax",%progbits
 579      AFF30080 
 580              		.align	2
 581              		.p2align 4,,15
 582              		.thumb
 583              		.thumb_func
 584              		.type	chBSemSignalI, %function
 585              	chBSemSignalI:
 586              	.LFB199:
 587              		.loc 10 266 0
 588              		.cfi_startproc
 589              		@ args = 0, pretend = 0, frame = 8
 590              		@ frame_needed = 1, uses_anonymous_args = 0
 591 0000 80B5     		push	{r7, lr}
 592              		.cfi_def_cfa_offset 8
 593              		.cfi_offset 7, -8
 594              		.cfi_offset 14, -4
 595 0002 82B0     		sub	sp, sp, #8
 596              		.cfi_def_cfa_offset 16
 597 0004 00AF     		add	r7, sp, #0
 598              		.cfi_def_cfa_register 7
 599 0006 7860     		str	r0, [r7, #4]
 600              		.loc 10 268 0
 601 0008 FFF7FEFF 		bl	chDbgCheckClassI
 602              		.loc 10 270 0
 603 000c 7B68     		ldr	r3, [r7, #4]
 604 000e 9B68     		ldr	r3, [r3, #8]
 605 0010 002B     		cmp	r3, #0
 606 0012 03DC     		bgt	.L34
 607              		.loc 10 271 0
 608 0014 7B68     		ldr	r3, [r7, #4]
 609 0016 1846     		mov	r0, r3
 610 0018 FFF7FEFF 		bl	chSemSignalI
 611              	.L34:
 612              		.loc 10 273 0
 613 001c 0837     		adds	r7, r7, #8
ARM GAS  C:\Users\Luis\AppData\Local\Temp\ccMQOx1f.s 			page 12


 614 001e BD46     		mov	sp, r7
 615              		@ sp needed
 616 0020 80BD     		pop	{r7, pc}
 617              		.cfi_endproc
 618              	.LFE199:
 619              		.size	chBSemSignalI, .-chBSemSignalI
 620 0022 00BFAFF3 		.section	.text.chBSemSignal,"ax",%progbits
 620      0080AFF3 
 620      0080AFF3 
 620      0080
 621              		.align	2
 622              		.p2align 4,,15
 623              		.thumb
 624              		.thumb_func
 625              		.type	chBSemSignal, %function
 626              	chBSemSignal:
 627              	.LFB200:
 628              		.loc 10 282 0
 629              		.cfi_startproc
 630              		@ args = 0, pretend = 0, frame = 8
 631              		@ frame_needed = 1, uses_anonymous_args = 0
 632 0000 80B5     		push	{r7, lr}
 633              		.cfi_def_cfa_offset 8
 634              		.cfi_offset 7, -8
 635              		.cfi_offset 14, -4
 636 0002 82B0     		sub	sp, sp, #8
 637              		.cfi_def_cfa_offset 16
 638 0004 00AF     		add	r7, sp, #0
 639              		.cfi_def_cfa_register 7
 640 0006 7860     		str	r0, [r7, #4]
 641              		.loc 10 284 0
 642 0008 FFF7FEFF 		bl	chSysLock
 643              		.loc 10 285 0
 644 000c 7868     		ldr	r0, [r7, #4]
 645 000e FFF7FEFF 		bl	chBSemSignalI
 646              		.loc 10 286 0
 647 0012 FFF7FEFF 		bl	chSchRescheduleS
 648              		.loc 10 287 0
 649 0016 FFF7FEFF 		bl	chSysUnlock
 650              		.loc 10 288 0
 651 001a 0837     		adds	r7, r7, #8
 652 001c BD46     		mov	sp, r7
 653              		@ sp needed
 654 001e 80BD     		pop	{r7, pc}
 655              		.cfi_endproc
 656              	.LFE200:
 657              		.size	chBSemSignal, .-chBSemSignal
 658              		.section	.text.chBSemGetStateI,"ax",%progbits
 659              		.align	2
 660              		.p2align 4,,15
 661              		.thumb
 662              		.thumb_func
 663              		.type	chBSemGetStateI, %function
 664              	chBSemGetStateI:
 665              	.LFB201:
 666              		.loc 10 300 0
 667              		.cfi_startproc
ARM GAS  C:\Users\Luis\AppData\Local\Temp\ccMQOx1f.s 			page 13


 668              		@ args = 0, pretend = 0, frame = 8
 669              		@ frame_needed = 1, uses_anonymous_args = 0
 670 0000 80B5     		push	{r7, lr}
 671              		.cfi_def_cfa_offset 8
 672              		.cfi_offset 7, -8
 673              		.cfi_offset 14, -4
 674 0002 82B0     		sub	sp, sp, #8
 675              		.cfi_def_cfa_offset 16
 676 0004 00AF     		add	r7, sp, #0
 677              		.cfi_def_cfa_register 7
 678 0006 7860     		str	r0, [r7, #4]
 679              		.loc 10 302 0
 680 0008 FFF7FEFF 		bl	chDbgCheckClassI
 681              		.loc 10 304 0
 682 000c 7B68     		ldr	r3, [r7, #4]
 683 000e 9B68     		ldr	r3, [r3, #8]
 684 0010 002B     		cmp	r3, #0
 685 0012 CCBF     		ite	gt
 686 0014 0023     		movgt	r3, #0
 687 0016 0123     		movle	r3, #1
 688 0018 DBB2     		uxtb	r3, r3
 689              		.loc 10 305 0
 690 001a 1846     		mov	r0, r3
 691 001c 0837     		adds	r7, r7, #8
 692 001e BD46     		mov	sp, r7
 693              		@ sp needed
 694 0020 80BD     		pop	{r7, pc}
 695              		.cfi_endproc
 696              	.LFE201:
 697              		.size	chBSemGetStateI, .-chBSemGetStateI
 698 0022 00BFAFF3 		.section	.data.sem1,"aw",%progbits
 698      0080AFF3 
 698      0080AFF3 
 698      0080
 699              		.align	2
 700              		.type	sem1, %object
 701              		.size	sem1, 12
 702              	sem1:
 703 0000 00000000 		.word	sem1
 704 0004 00000000 		.word	sem1
 705 0008 00000000 		.word	0
 706              		.section	.text.sem1_setup,"ax",%progbits
 707              		.align	2
 708              		.p2align 4,,15
 709              		.thumb
 710              		.thumb_func
 711              		.type	sem1_setup, %function
 712              	sem1_setup:
 713              	.LFB229:
 714              		.file 11 "../../ChibiOS/test/rt/testsem.c"
 715              		.loc 11 72 0
 716              		.cfi_startproc
 717              		@ args = 0, pretend = 0, frame = 0
 718              		@ frame_needed = 1, uses_anonymous_args = 0
 719 0000 80B5     		push	{r7, lr}
 720              		.cfi_def_cfa_offset 8
 721              		.cfi_offset 7, -8
ARM GAS  C:\Users\Luis\AppData\Local\Temp\ccMQOx1f.s 			page 14


 722              		.cfi_offset 14, -4
 723 0002 00AF     		add	r7, sp, #0
 724              		.cfi_def_cfa_register 7
 725              		.loc 11 74 0
 726 0004 0248     		ldr	r0, .L40
 727 0006 0021     		movs	r1, #0
 728 0008 FFF7FEFF 		bl	chSemObjectInit
 729              		.loc 11 75 0
 730 000c 80BD     		pop	{r7, pc}
 731              	.L41:
 732 000e 00BF     		.align	2
 733              	.L40:
 734 0010 00000000 		.word	sem1
 735              		.cfi_endproc
 736              	.LFE229:
 737              		.size	sem1_setup, .-sem1_setup
 738 0014 AFF30080 		.section	.text.thread1,"ax",%progbits
 738      AFF30080 
 738      AFF30080 
 739              		.align	2
 740              		.p2align 4,,15
 741              		.thumb
 742              		.thumb_func
 743              		.type	thread1, %function
 744              	thread1:
 745              	.LFB230:
 746              		.loc 11 77 0
 747              		.cfi_startproc
 748              		@ args = 0, pretend = 0, frame = 8
 749              		@ frame_needed = 1, uses_anonymous_args = 0
 750 0000 80B5     		push	{r7, lr}
 751              		.cfi_def_cfa_offset 8
 752              		.cfi_offset 7, -8
 753              		.cfi_offset 14, -4
 754 0002 82B0     		sub	sp, sp, #8
 755              		.cfi_def_cfa_offset 16
 756 0004 00AF     		add	r7, sp, #0
 757              		.cfi_def_cfa_register 7
 758 0006 7860     		str	r0, [r7, #4]
 759              		.loc 11 79 0
 760 0008 0548     		ldr	r0, .L43
 761 000a FFF7FEFF 		bl	chSemWait
 762              		.loc 11 80 0
 763 000e 7B68     		ldr	r3, [r7, #4]
 764 0010 1B78     		ldrb	r3, [r3]	@ zero_extendqisi2
 765 0012 1846     		mov	r0, r3
 766 0014 FFF7FEFF 		bl	test_emit_token
 767              		.loc 11 81 0
 768 0018 0837     		adds	r7, r7, #8
 769 001a BD46     		mov	sp, r7
 770              		@ sp needed
 771 001c 80BD     		pop	{r7, pc}
 772              	.L44:
 773 001e 00BF     		.align	2
 774              	.L43:
 775 0020 00000000 		.word	sem1
 776              		.cfi_endproc
ARM GAS  C:\Users\Luis\AppData\Local\Temp\ccMQOx1f.s 			page 15


 777              	.LFE230:
 778              		.size	thread1, .-thread1
 779 0024 AFF30080 		.section	.rodata
 779      AFF30080 
 779      AFF30080 
 780              		.align	2
 781              	.LC0:
 782 0000 4100     		.ascii	"A\000"
 783 0002 0000     		.align	2
 784              	.LC1:
 785 0004 4200     		.ascii	"B\000"
 786 0006 0000     		.align	2
 787              	.LC2:
 788 0008 4300     		.ascii	"C\000"
 789 000a 0000     		.align	2
 790              	.LC3:
 791 000c 4400     		.ascii	"D\000"
 792 000e 0000     		.align	2
 793              	.LC4:
 794 0010 4500     		.ascii	"E\000"
 795 0012 0000     		.align	2
 796              	.LC5:
 797 0014 41424344 		.ascii	"ABCDE\000"
 797      4500
 798              		.section	.text.sem1_execute,"ax",%progbits
 799              		.align	2
 800              		.p2align 4,,15
 801              		.thumb
 802              		.thumb_func
 803              		.type	sem1_execute, %function
 804              	sem1_execute:
 805              	.LFB231:
 806              		.loc 11 83 0
 807              		.cfi_startproc
 808              		@ args = 0, pretend = 0, frame = 0
 809              		@ frame_needed = 1, uses_anonymous_args = 0
 810 0000 90B5     		push	{r4, r7, lr}
 811              		.cfi_def_cfa_offset 12
 812              		.cfi_offset 4, -12
 813              		.cfi_offset 7, -8
 814              		.cfi_offset 14, -4
 815 0002 83B0     		sub	sp, sp, #12
 816              		.cfi_def_cfa_offset 24
 817 0004 02AF     		add	r7, sp, #8
 818              		.cfi_def_cfa 7, 16
 819              		.loc 11 85 0
 820 0006 554B     		ldr	r3, .L49
 821 0008 1C68     		ldr	r4, [r3]
 822 000a FFF7FEFF 		bl	chThdGetPriorityX
 823 000e 0346     		mov	r3, r0
 824 0010 0533     		adds	r3, r3, #5
 825 0012 534A     		ldr	r2, .L49+4
 826 0014 0092     		str	r2, [sp]
 827 0016 2046     		mov	r0, r4
 828 0018 4FF4B871 		mov	r1, #368
 829 001c 1A46     		mov	r2, r3
 830 001e 514B     		ldr	r3, .L49+8
ARM GAS  C:\Users\Luis\AppData\Local\Temp\ccMQOx1f.s 			page 16


 831 0020 FFF7FEFF 		bl	chThdCreateStatic
 832 0024 0246     		mov	r2, r0
 833 0026 504B     		ldr	r3, .L49+12
 834 0028 1A60     		str	r2, [r3]
 835              		.loc 11 86 0
 836 002a 4C4B     		ldr	r3, .L49
 837 002c 5C68     		ldr	r4, [r3, #4]
 838 002e FFF7FEFF 		bl	chThdGetPriorityX
 839 0032 0346     		mov	r3, r0
 840 0034 0133     		adds	r3, r3, #1
 841 0036 4D4A     		ldr	r2, .L49+16
 842 0038 0092     		str	r2, [sp]
 843 003a 2046     		mov	r0, r4
 844 003c 4FF4B871 		mov	r1, #368
 845 0040 1A46     		mov	r2, r3
 846 0042 484B     		ldr	r3, .L49+8
 847 0044 FFF7FEFF 		bl	chThdCreateStatic
 848 0048 0246     		mov	r2, r0
 849 004a 474B     		ldr	r3, .L49+12
 850 004c 5A60     		str	r2, [r3, #4]
 851              		.loc 11 87 0
 852 004e 434B     		ldr	r3, .L49
 853 0050 9C68     		ldr	r4, [r3, #8]
 854 0052 FFF7FEFF 		bl	chThdGetPriorityX
 855 0056 0346     		mov	r3, r0
 856 0058 0333     		adds	r3, r3, #3
 857 005a 454A     		ldr	r2, .L49+20
 858 005c 0092     		str	r2, [sp]
 859 005e 2046     		mov	r0, r4
 860 0060 4FF4B871 		mov	r1, #368
 861 0064 1A46     		mov	r2, r3
 862 0066 3F4B     		ldr	r3, .L49+8
 863 0068 FFF7FEFF 		bl	chThdCreateStatic
 864 006c 0246     		mov	r2, r0
 865 006e 3E4B     		ldr	r3, .L49+12
 866 0070 9A60     		str	r2, [r3, #8]
 867              		.loc 11 88 0
 868 0072 3A4B     		ldr	r3, .L49
 869 0074 DC68     		ldr	r4, [r3, #12]
 870 0076 FFF7FEFF 		bl	chThdGetPriorityX
 871 007a 0346     		mov	r3, r0
 872 007c 0433     		adds	r3, r3, #4
 873 007e 3D4A     		ldr	r2, .L49+24
 874 0080 0092     		str	r2, [sp]
 875 0082 2046     		mov	r0, r4
 876 0084 4FF4B871 		mov	r1, #368
 877 0088 1A46     		mov	r2, r3
 878 008a 364B     		ldr	r3, .L49+8
 879 008c FFF7FEFF 		bl	chThdCreateStatic
 880 0090 0246     		mov	r2, r0
 881 0092 354B     		ldr	r3, .L49+12
 882 0094 DA60     		str	r2, [r3, #12]
 883              		.loc 11 89 0
 884 0096 314B     		ldr	r3, .L49
 885 0098 1C69     		ldr	r4, [r3, #16]
 886 009a FFF7FEFF 		bl	chThdGetPriorityX
 887 009e 0346     		mov	r3, r0
ARM GAS  C:\Users\Luis\AppData\Local\Temp\ccMQOx1f.s 			page 17


 888 00a0 0233     		adds	r3, r3, #2
 889 00a2 354A     		ldr	r2, .L49+28
 890 00a4 0092     		str	r2, [sp]
 891 00a6 2046     		mov	r0, r4
 892 00a8 4FF4B871 		mov	r1, #368
 893 00ac 1A46     		mov	r2, r3
 894 00ae 2D4B     		ldr	r3, .L49+8
 895 00b0 FFF7FEFF 		bl	chThdCreateStatic
 896 00b4 0246     		mov	r2, r0
 897 00b6 2C4B     		ldr	r3, .L49+12
 898 00b8 1A61     		str	r2, [r3, #16]
 899              		.loc 11 90 0
 900 00ba 3048     		ldr	r0, .L49+32
 901 00bc FFF7FEFF 		bl	chSemSignal
 902              		.loc 11 91 0
 903 00c0 2E48     		ldr	r0, .L49+32
 904 00c2 FFF7FEFF 		bl	chSemSignal
 905              		.loc 11 92 0
 906 00c6 2D48     		ldr	r0, .L49+32
 907 00c8 FFF7FEFF 		bl	chSemSignal
 908              		.loc 11 93 0
 909 00cc 2B48     		ldr	r0, .L49+32
 910 00ce FFF7FEFF 		bl	chSemSignal
 911              		.loc 11 94 0
 912 00d2 2A48     		ldr	r0, .L49+32
 913 00d4 FFF7FEFF 		bl	chSemSignal
 914              		.loc 11 95 0
 915 00d8 FFF7FEFF 		bl	test_wait_threads
 916              		.loc 11 99 0
 917 00dc 0120     		movs	r0, #1
 918 00de 2849     		ldr	r1, .L49+36
 919 00e0 FFF7FEFF 		bl	_test_assert_sequence
 920 00e4 0346     		mov	r3, r0
 921 00e6 002B     		cmp	r3, #0
 922 00e8 00D0     		beq	.L46
 923              		.loc 11 99 0 is_stmt 0 discriminator 1
 924 00ea 34E0     		b	.L45
 925              	.L46:
 926              		.loc 11 101 0 is_stmt 1
 927 00ec 1B4B     		ldr	r3, .L49
 928 00ee 1C68     		ldr	r4, [r3]
 929 00f0 FFF7FEFF 		bl	chThdGetPriorityX
 930 00f4 0346     		mov	r3, r0
 931 00f6 0533     		adds	r3, r3, #5
 932 00f8 194A     		ldr	r2, .L49+4
 933 00fa 0092     		str	r2, [sp]
 934 00fc 2046     		mov	r0, r4
 935 00fe 4FF4B871 		mov	r1, #368
 936 0102 1A46     		mov	r2, r3
 937 0104 174B     		ldr	r3, .L49+8
 938 0106 FFF7FEFF 		bl	chThdCreateStatic
 939 010a 0246     		mov	r2, r0
 940 010c 164B     		ldr	r3, .L49+12
 941 010e 1A60     		str	r2, [r3]
 942              		.loc 11 102 0
 943 0110 FFF7FEFF 		bl	chSysLock
 944              		.loc 11 103 0
ARM GAS  C:\Users\Luis\AppData\Local\Temp\ccMQOx1f.s 			page 18


 945 0114 1948     		ldr	r0, .L49+32
 946 0116 0221     		movs	r1, #2
 947 0118 FFF7FEFF 		bl	chSemAddCounterI
 948              		.loc 11 104 0
 949 011c FFF7FEFF 		bl	chSchRescheduleS
 950              		.loc 11 105 0
 951 0120 FFF7FEFF 		bl	chSysUnlock
 952              		.loc 11 106 0
 953 0124 FFF7FEFF 		bl	test_wait_threads
 954              		.loc 11 107 0
 955 0128 FFF7FEFF 		bl	chSysLock
 956 012c 1348     		ldr	r0, .L49+32
 957 012e FFF7FEFF 		bl	chSemGetCounterI
 958 0132 0346     		mov	r3, r0
 959 0134 012B     		cmp	r3, #1
 960 0136 14BF     		ite	ne
 961 0138 0023     		movne	r3, #0
 962 013a 0123     		moveq	r3, #1
 963 013c DBB2     		uxtb	r3, r3
 964 013e 0220     		movs	r0, #2
 965 0140 1946     		mov	r1, r3
 966 0142 FFF7FEFF 		bl	_test_assert
 967 0146 0346     		mov	r3, r0
 968 0148 002B     		cmp	r3, #0
 969 014a 02D0     		beq	.L48
 970              		.loc 11 107 0 is_stmt 0 discriminator 1
 971 014c FFF7FEFF 		bl	chSysUnlock
 972 0150 01E0     		b	.L45
 973              	.L48:
 974              		.loc 11 107 0 discriminator 2
 975 0152 FFF7FEFF 		bl	chSysUnlock
 976              	.L45:
 977              		.loc 11 108 0 is_stmt 1
 978 0156 0437     		adds	r7, r7, #4
 979 0158 BD46     		mov	sp, r7
 980              		@ sp needed
 981 015a 90BD     		pop	{r4, r7, pc}
 982              	.L50:
 983              		.align	2
 984              	.L49:
 985 015c 00000000 		.word	wa
 986 0160 00000000 		.word	.LC0
 987 0164 00000000 		.word	thread1
 988 0168 00000000 		.word	threads
 989 016c 04000000 		.word	.LC1
 990 0170 08000000 		.word	.LC2
 991 0174 0C000000 		.word	.LC3
 992 0178 10000000 		.word	.LC4
 993 017c 00000000 		.word	sem1
 994 0180 14000000 		.word	.LC5
 995              		.cfi_endproc
 996              	.LFE231:
 997              		.size	sem1_execute, .-sem1_execute
 998              		.global	testsem1
 999 0184 AFF30080 		.section	.rodata
 999      AFF30080 
 999      AFF30080 
ARM GAS  C:\Users\Luis\AppData\Local\Temp\ccMQOx1f.s 			page 19


 1000 001a 0000     		.align	2
 1001              	.LC6:
 1002 001c 53656D61 		.ascii	"Semaphores, enqueuing\000"
 1002      70686F72 
 1002      65732C20 
 1002      656E7175 
 1002      6575696E 
 1003              		.section	.rodata.testsem1,"a",%progbits
 1004              		.align	2
 1005              		.type	testsem1, %object
 1006              		.size	testsem1, 16
 1007              	testsem1:
 1008 0000 1C000000 		.word	.LC6
 1009 0004 00000000 		.word	sem1_setup
 1010 0008 00000000 		.word	0
 1011 000c 00000000 		.word	sem1_execute
 1012              		.section	.text.sem2_setup,"ax",%progbits
 1013              		.align	2
 1014              		.p2align 4,,15
 1015              		.thumb
 1016              		.thumb_func
 1017              		.type	sem2_setup, %function
 1018              	sem2_setup:
 1019              	.LFB232:
 1020              		.loc 11 128 0
 1021              		.cfi_startproc
 1022              		@ args = 0, pretend = 0, frame = 0
 1023              		@ frame_needed = 1, uses_anonymous_args = 0
 1024 0000 80B5     		push	{r7, lr}
 1025              		.cfi_def_cfa_offset 8
 1026              		.cfi_offset 7, -8
 1027              		.cfi_offset 14, -4
 1028 0002 00AF     		add	r7, sp, #0
 1029              		.cfi_def_cfa_register 7
 1030              		.loc 11 130 0
 1031 0004 0248     		ldr	r0, .L52
 1032 0006 0021     		movs	r1, #0
 1033 0008 FFF7FEFF 		bl	chSemObjectInit
 1034              		.loc 11 131 0
 1035 000c 80BD     		pop	{r7, pc}
 1036              	.L53:
 1037 000e 00BF     		.align	2
 1038              	.L52:
 1039 0010 00000000 		.word	sem1
 1040              		.cfi_endproc
 1041              	.LFE232:
 1042              		.size	sem2_setup, .-sem2_setup
 1043 0014 AFF30080 		.section	.text.thread2,"ax",%progbits
 1043      AFF30080 
 1043      AFF30080 
 1044              		.align	2
 1045              		.p2align 4,,15
 1046              		.thumb
 1047              		.thumb_func
 1048              		.type	thread2, %function
 1049              	thread2:
 1050              	.LFB233:
ARM GAS  C:\Users\Luis\AppData\Local\Temp\ccMQOx1f.s 			page 20


 1051              		.loc 11 133 0
 1052              		.cfi_startproc
 1053              		@ args = 0, pretend = 0, frame = 8
 1054              		@ frame_needed = 1, uses_anonymous_args = 0
 1055 0000 80B5     		push	{r7, lr}
 1056              		.cfi_def_cfa_offset 8
 1057              		.cfi_offset 7, -8
 1058              		.cfi_offset 14, -4
 1059 0002 82B0     		sub	sp, sp, #8
 1060              		.cfi_def_cfa_offset 16
 1061 0004 00AF     		add	r7, sp, #0
 1062              		.cfi_def_cfa_register 7
 1063 0006 7860     		str	r0, [r7, #4]
 1064              		.loc 11 136 0
 1065 0008 4FF4FA70 		mov	r0, #500
 1066 000c FFF7FEFF 		bl	chThdSleep
 1067              		.loc 11 137 0
 1068 0010 FFF7FEFF 		bl	chSysLock
 1069              		.loc 11 138 0
 1070 0014 0448     		ldr	r0, .L55
 1071 0016 FFF7FEFF 		bl	chSemSignalI
 1072              		.loc 11 139 0
 1073 001a FFF7FEFF 		bl	chSchRescheduleS
 1074              		.loc 11 140 0
 1075 001e FFF7FEFF 		bl	chSysUnlock
 1076              		.loc 11 141 0
 1077 0022 0837     		adds	r7, r7, #8
 1078 0024 BD46     		mov	sp, r7
 1079              		@ sp needed
 1080 0026 80BD     		pop	{r7, pc}
 1081              	.L56:
 1082              		.align	2
 1083              	.L55:
 1084 0028 00000000 		.word	sem1
 1085              		.cfi_endproc
 1086              	.LFE233:
 1087              		.size	thread2, .-thread2
 1088 002c AFF30080 		.section	.text.sem2_execute,"ax",%progbits
 1089              		.align	2
 1090              		.p2align 4,,15
 1091              		.thumb
 1092              		.thumb_func
 1093              		.type	sem2_execute, %function
 1094              	sem2_execute:
 1095              	.LFB234:
 1096              		.loc 11 143 0
 1097              		.cfi_startproc
 1098              		@ args = 0, pretend = 0, frame = 16
 1099              		@ frame_needed = 1, uses_anonymous_args = 0
 1100 0000 90B5     		push	{r4, r7, lr}
 1101              		.cfi_def_cfa_offset 12
 1102              		.cfi_offset 4, -12
 1103              		.cfi_offset 7, -8
 1104              		.cfi_offset 14, -4
 1105 0002 87B0     		sub	sp, sp, #28
 1106              		.cfi_def_cfa_offset 40
 1107 0004 02AF     		add	r7, sp, #8
ARM GAS  C:\Users\Luis\AppData\Local\Temp\ccMQOx1f.s 			page 21


 1108              		.cfi_def_cfa 7, 32
 1109              		.loc 11 151 0
 1110 0006 6848     		ldr	r0, .L71
 1111 0008 0021     		movs	r1, #0
 1112 000a FFF7FEFF 		bl	chSemWaitTimeout
 1113 000e B860     		str	r0, [r7, #8]
 1114              		.loc 11 152 0
 1115 0010 BB68     		ldr	r3, [r7, #8]
 1116 0012 B3F1FF3F 		cmp	r3, #-1
 1117 0016 14BF     		ite	ne
 1118 0018 0023     		movne	r3, #0
 1119 001a 0123     		moveq	r3, #1
 1120 001c DBB2     		uxtb	r3, r3
 1121 001e 0120     		movs	r0, #1
 1122 0020 1946     		mov	r1, r3
 1123 0022 FFF7FEFF 		bl	_test_assert
 1124 0026 0346     		mov	r3, r0
 1125 0028 002B     		cmp	r3, #0
 1126 002a 00D0     		beq	.L58
 1127              		.loc 11 152 0 is_stmt 0 discriminator 1
 1128 002c B8E0     		b	.L57
 1129              	.L58:
 1130              		.loc 11 153 0 is_stmt 1
 1131 002e 5E48     		ldr	r0, .L71
 1132 0030 FFF7FEFF 		bl	queue_isempty
 1133 0034 0346     		mov	r3, r0
 1134 0036 0220     		movs	r0, #2
 1135 0038 1946     		mov	r1, r3
 1136 003a FFF7FEFF 		bl	_test_assert
 1137 003e 0346     		mov	r3, r0
 1138 0040 002B     		cmp	r3, #0
 1139 0042 00D0     		beq	.L60
 1140              		.loc 11 153 0 is_stmt 0 discriminator 1
 1141 0044 ACE0     		b	.L57
 1142              	.L60:
 1143              		.loc 11 154 0 is_stmt 1
 1144 0046 584B     		ldr	r3, .L71
 1145 0048 9B68     		ldr	r3, [r3, #8]
 1146 004a 002B     		cmp	r3, #0
 1147 004c 14BF     		ite	ne
 1148 004e 0023     		movne	r3, #0
 1149 0050 0123     		moveq	r3, #1
 1150 0052 DBB2     		uxtb	r3, r3
 1151 0054 0320     		movs	r0, #3
 1152 0056 1946     		mov	r1, r3
 1153 0058 FFF7FEFF 		bl	_test_assert
 1154 005c 0346     		mov	r3, r0
 1155 005e 002B     		cmp	r3, #0
 1156 0060 00D0     		beq	.L61
 1157              		.loc 11 154 0 is_stmt 0 discriminator 1
 1158 0062 9DE0     		b	.L57
 1159              	.L61:
 1160              		.loc 11 159 0 is_stmt 1
 1161 0064 514B     		ldr	r3, .L71+4
 1162 0066 1C68     		ldr	r4, [r3]
 1163 0068 FFF7FEFF 		bl	chThdGetPriorityX
 1164 006c 0346     		mov	r3, r0
ARM GAS  C:\Users\Luis\AppData\Local\Temp\ccMQOx1f.s 			page 22


 1165 006e 013B     		subs	r3, r3, #1
 1166 0070 0022     		movs	r2, #0
 1167 0072 0092     		str	r2, [sp]
 1168 0074 2046     		mov	r0, r4
 1169 0076 4FF4B871 		mov	r1, #368
 1170 007a 1A46     		mov	r2, r3
 1171 007c 4C4B     		ldr	r3, .L71+8
 1172 007e FFF7FEFF 		bl	chThdCreateStatic
 1173 0082 0246     		mov	r2, r0
 1174 0084 4B4B     		ldr	r3, .L71+12
 1175 0086 1A60     		str	r2, [r3]
 1176              		.loc 11 161 0
 1177 0088 4748     		ldr	r0, .L71
 1178 008a 41F28831 		movw	r1, #5000
 1179 008e FFF7FEFF 		bl	chSemWaitTimeout
 1180 0092 B860     		str	r0, [r7, #8]
 1181              		.loc 11 162 0
 1182 0094 FFF7FEFF 		bl	test_wait_threads
 1183              		.loc 11 163 0
 1184 0098 BB68     		ldr	r3, [r7, #8]
 1185 009a 002B     		cmp	r3, #0
 1186 009c 14BF     		ite	ne
 1187 009e 0023     		movne	r3, #0
 1188 00a0 0123     		moveq	r3, #1
 1189 00a2 DBB2     		uxtb	r3, r3
 1190 00a4 0420     		movs	r0, #4
 1191 00a6 1946     		mov	r1, r3
 1192 00a8 FFF7FEFF 		bl	_test_assert
 1193 00ac 0346     		mov	r3, r0
 1194 00ae 002B     		cmp	r3, #0
 1195 00b0 00D0     		beq	.L62
 1196              		.loc 11 163 0 is_stmt 0 discriminator 1
 1197 00b2 75E0     		b	.L57
 1198              	.L62:
 1199              		.loc 11 164 0 is_stmt 1
 1200 00b4 3C48     		ldr	r0, .L71
 1201 00b6 FFF7FEFF 		bl	queue_isempty
 1202 00ba 0346     		mov	r3, r0
 1203 00bc 0520     		movs	r0, #5
 1204 00be 1946     		mov	r1, r3
 1205 00c0 FFF7FEFF 		bl	_test_assert
 1206 00c4 0346     		mov	r3, r0
 1207 00c6 002B     		cmp	r3, #0
 1208 00c8 00D0     		beq	.L63
 1209              		.loc 11 164 0 is_stmt 0 discriminator 1
 1210 00ca 69E0     		b	.L57
 1211              	.L63:
 1212              		.loc 11 165 0 is_stmt 1
 1213 00cc 364B     		ldr	r3, .L71
 1214 00ce 9B68     		ldr	r3, [r3, #8]
 1215 00d0 002B     		cmp	r3, #0
 1216 00d2 14BF     		ite	ne
 1217 00d4 0023     		movne	r3, #0
 1218 00d6 0123     		moveq	r3, #1
 1219 00d8 DBB2     		uxtb	r3, r3
 1220 00da 0620     		movs	r0, #6
 1221 00dc 1946     		mov	r1, r3
ARM GAS  C:\Users\Luis\AppData\Local\Temp\ccMQOx1f.s 			page 23


 1222 00de FFF7FEFF 		bl	_test_assert
 1223 00e2 0346     		mov	r3, r0
 1224 00e4 002B     		cmp	r3, #0
 1225 00e6 00D0     		beq	.L64
 1226              		.loc 11 165 0 is_stmt 0 discriminator 1
 1227 00e8 5AE0     		b	.L57
 1228              	.L64:
 1229              		.loc 11 170 0 is_stmt 1
 1230 00ea FFF7FEFF 		bl	test_wait_tick
 1231              		.loc 11 171 0
 1232 00ee FFF7FEFF 		bl	chVTGetSystemTime
 1233 00f2 0346     		mov	r3, r0
 1234 00f4 03F6C413 		addw	r3, r3, #2500
 1235 00f8 7B60     		str	r3, [r7, #4]
 1236              		.loc 11 172 0
 1237 00fa 0023     		movs	r3, #0
 1238 00fc FB60     		str	r3, [r7, #12]
 1239 00fe 39E0     		b	.L65
 1240              	.L69:
 1241              		.loc 11 173 0
 1242 0100 FB68     		ldr	r3, [r7, #12]
 1243 0102 DBB2     		uxtb	r3, r3
 1244 0104 4133     		adds	r3, r3, #65
 1245 0106 DBB2     		uxtb	r3, r3
 1246 0108 1846     		mov	r0, r3
 1247 010a FFF7FEFF 		bl	test_emit_token
 1248              		.loc 11 174 0
 1249 010e 2648     		ldr	r0, .L71
 1250 0110 4FF4FA71 		mov	r1, #500
 1251 0114 FFF7FEFF 		bl	chSemWaitTimeout
 1252 0118 B860     		str	r0, [r7, #8]
 1253              		.loc 11 175 0
 1254 011a BB68     		ldr	r3, [r7, #8]
 1255 011c B3F1FF3F 		cmp	r3, #-1
 1256 0120 14BF     		ite	ne
 1257 0122 0023     		movne	r3, #0
 1258 0124 0123     		moveq	r3, #1
 1259 0126 DBB2     		uxtb	r3, r3
 1260 0128 0720     		movs	r0, #7
 1261 012a 1946     		mov	r1, r3
 1262 012c FFF7FEFF 		bl	_test_assert
 1263 0130 0346     		mov	r3, r0
 1264 0132 002B     		cmp	r3, #0
 1265 0134 00D0     		beq	.L66
 1266              		.loc 11 175 0 is_stmt 0 discriminator 1
 1267 0136 33E0     		b	.L57
 1268              	.L66:
 1269              		.loc 11 176 0 is_stmt 1
 1270 0138 1B48     		ldr	r0, .L71
 1271 013a FFF7FEFF 		bl	queue_isempty
 1272 013e 0346     		mov	r3, r0
 1273 0140 0820     		movs	r0, #8
 1274 0142 1946     		mov	r1, r3
 1275 0144 FFF7FEFF 		bl	_test_assert
 1276 0148 0346     		mov	r3, r0
 1277 014a 002B     		cmp	r3, #0
 1278 014c 00D0     		beq	.L67
ARM GAS  C:\Users\Luis\AppData\Local\Temp\ccMQOx1f.s 			page 24


 1279              		.loc 11 176 0 is_stmt 0 discriminator 1
 1280 014e 27E0     		b	.L57
 1281              	.L67:
 1282              		.loc 11 177 0 is_stmt 1
 1283 0150 154B     		ldr	r3, .L71
 1284 0152 9B68     		ldr	r3, [r3, #8]
 1285 0154 002B     		cmp	r3, #0
 1286 0156 14BF     		ite	ne
 1287 0158 0023     		movne	r3, #0
 1288 015a 0123     		moveq	r3, #1
 1289 015c DBB2     		uxtb	r3, r3
 1290 015e 0920     		movs	r0, #9
 1291 0160 1946     		mov	r1, r3
 1292 0162 FFF7FEFF 		bl	_test_assert
 1293 0166 0346     		mov	r3, r0
 1294 0168 002B     		cmp	r3, #0
 1295 016a 00D0     		beq	.L68
 1296              		.loc 11 177 0 is_stmt 0 discriminator 1
 1297 016c 18E0     		b	.L57
 1298              	.L68:
 1299              		.loc 11 172 0 is_stmt 1
 1300 016e FB68     		ldr	r3, [r7, #12]
 1301 0170 0133     		adds	r3, r3, #1
 1302 0172 FB60     		str	r3, [r7, #12]
 1303              	.L65:
 1304              		.loc 11 172 0 is_stmt 0 discriminator 1
 1305 0174 FB68     		ldr	r3, [r7, #12]
 1306 0176 042B     		cmp	r3, #4
 1307 0178 C2DD     		ble	.L69
 1308              		.loc 11 179 0 is_stmt 1
 1309 017a 0A20     		movs	r0, #10
 1310 017c 0E49     		ldr	r1, .L71+16
 1311 017e FFF7FEFF 		bl	_test_assert_sequence
 1312 0182 0346     		mov	r3, r0
 1313 0184 002B     		cmp	r3, #0
 1314 0186 00D0     		beq	.L70
 1315              		.loc 11 179 0 is_stmt 0 discriminator 1
 1316 0188 0AE0     		b	.L57
 1317              	.L70:
 1318              		.loc 11 180 0 is_stmt 1
 1319 018a 7B68     		ldr	r3, [r7, #4]
 1320 018c 1433     		adds	r3, r3, #20
 1321 018e 0B20     		movs	r0, #11
 1322 0190 7968     		ldr	r1, [r7, #4]
 1323 0192 1A46     		mov	r2, r3
 1324 0194 FFF7FEFF 		bl	_test_assert_time_window
 1325 0198 0346     		mov	r3, r0
 1326 019a 002B     		cmp	r3, #0
 1327 019c 00D0     		beq	.L57
 1328              		.loc 11 180 0 is_stmt 0 discriminator 1
 1329 019e 00BF     		nop
 1330              	.L57:
 1331              		.loc 11 181 0 is_stmt 1
 1332 01a0 1437     		adds	r7, r7, #20
 1333 01a2 BD46     		mov	sp, r7
 1334              		@ sp needed
 1335 01a4 90BD     		pop	{r4, r7, pc}
ARM GAS  C:\Users\Luis\AppData\Local\Temp\ccMQOx1f.s 			page 25


 1336              	.L72:
 1337 01a6 00BF     		.align	2
 1338              	.L71:
 1339 01a8 00000000 		.word	sem1
 1340 01ac 00000000 		.word	wa
 1341 01b0 00000000 		.word	thread2
 1342 01b4 00000000 		.word	threads
 1343 01b8 14000000 		.word	.LC5
 1344              		.cfi_endproc
 1345              	.LFE234:
 1346              		.size	sem2_execute, .-sem2_execute
 1347              		.global	testsem2
 1348 01bc AFF30080 		.section	.rodata
 1349 0032 0000     		.align	2
 1350              	.LC7:
 1351 0034 53656D61 		.ascii	"Semaphores, timeout\000"
 1351      70686F72 
 1351      65732C20 
 1351      74696D65 
 1351      6F757400 
 1352              		.section	.rodata.testsem2,"a",%progbits
 1353              		.align	2
 1354              		.type	testsem2, %object
 1355              		.size	testsem2, 16
 1356              	testsem2:
 1357 0000 34000000 		.word	.LC7
 1358 0004 00000000 		.word	sem2_setup
 1359 0008 00000000 		.word	0
 1360 000c 00000000 		.word	sem2_execute
 1361              		.section	.text.sem3_setup,"ax",%progbits
 1362              		.align	2
 1363              		.p2align 4,,15
 1364              		.thumb
 1365              		.thumb_func
 1366              		.type	sem3_setup, %function
 1367              	sem3_setup:
 1368              	.LFB235:
 1369              		.loc 11 202 0
 1370              		.cfi_startproc
 1371              		@ args = 0, pretend = 0, frame = 0
 1372              		@ frame_needed = 1, uses_anonymous_args = 0
 1373 0000 80B5     		push	{r7, lr}
 1374              		.cfi_def_cfa_offset 8
 1375              		.cfi_offset 7, -8
 1376              		.cfi_offset 14, -4
 1377 0002 00AF     		add	r7, sp, #0
 1378              		.cfi_def_cfa_register 7
 1379              		.loc 11 204 0
 1380 0004 0248     		ldr	r0, .L74
 1381 0006 0021     		movs	r1, #0
 1382 0008 FFF7FEFF 		bl	chSemObjectInit
 1383              		.loc 11 205 0
 1384 000c 80BD     		pop	{r7, pc}
 1385              	.L75:
 1386 000e 00BF     		.align	2
 1387              	.L74:
 1388 0010 00000000 		.word	sem1
ARM GAS  C:\Users\Luis\AppData\Local\Temp\ccMQOx1f.s 			page 26


 1389              		.cfi_endproc
 1390              	.LFE235:
 1391              		.size	sem3_setup, .-sem3_setup
 1392 0014 AFF30080 		.section	.text.thread3,"ax",%progbits
 1392      AFF30080 
 1392      AFF30080 
 1393              		.align	2
 1394              		.p2align 4,,15
 1395              		.thumb
 1396              		.thumb_func
 1397              		.type	thread3, %function
 1398              	thread3:
 1399              	.LFB236:
 1400              		.loc 11 207 0
 1401              		.cfi_startproc
 1402              		@ args = 0, pretend = 0, frame = 8
 1403              		@ frame_needed = 1, uses_anonymous_args = 0
 1404 0000 80B5     		push	{r7, lr}
 1405              		.cfi_def_cfa_offset 8
 1406              		.cfi_offset 7, -8
 1407              		.cfi_offset 14, -4
 1408 0002 82B0     		sub	sp, sp, #8
 1409              		.cfi_def_cfa_offset 16
 1410 0004 00AF     		add	r7, sp, #0
 1411              		.cfi_def_cfa_register 7
 1412 0006 7860     		str	r0, [r7, #4]
 1413              		.loc 11 210 0
 1414 0008 0448     		ldr	r0, .L77
 1415 000a FFF7FEFF 		bl	chSemWait
 1416              		.loc 11 211 0
 1417 000e 0348     		ldr	r0, .L77
 1418 0010 FFF7FEFF 		bl	chSemSignal
 1419              		.loc 11 212 0
 1420 0014 0837     		adds	r7, r7, #8
 1421 0016 BD46     		mov	sp, r7
 1422              		@ sp needed
 1423 0018 80BD     		pop	{r7, pc}
 1424              	.L78:
 1425 001a 00BF     		.align	2
 1426              	.L77:
 1427 001c 00000000 		.word	sem1
 1428              		.cfi_endproc
 1429              	.LFE236:
 1430              		.size	thread3, .-thread3
 1431              		.section	.text.sem3_execute,"ax",%progbits
 1432              		.align	2
 1433              		.p2align 4,,15
 1434              		.thumb
 1435              		.thumb_func
 1436              		.type	sem3_execute, %function
 1437              	sem3_execute:
 1438              	.LFB237:
 1439              		.loc 11 214 0
 1440              		.cfi_startproc
 1441              		@ args = 0, pretend = 0, frame = 0
 1442              		@ frame_needed = 1, uses_anonymous_args = 0
 1443 0000 90B5     		push	{r4, r7, lr}
ARM GAS  C:\Users\Luis\AppData\Local\Temp\ccMQOx1f.s 			page 27


 1444              		.cfi_def_cfa_offset 12
 1445              		.cfi_offset 4, -12
 1446              		.cfi_offset 7, -8
 1447              		.cfi_offset 14, -4
 1448 0002 83B0     		sub	sp, sp, #12
 1449              		.cfi_def_cfa_offset 24
 1450 0004 02AF     		add	r7, sp, #8
 1451              		.cfi_def_cfa 7, 16
 1452              		.loc 11 216 0
 1453 0006 294B     		ldr	r3, .L84
 1454 0008 1C68     		ldr	r4, [r3]
 1455 000a FFF7FEFF 		bl	chThdGetPriorityX
 1456 000e 0346     		mov	r3, r0
 1457 0010 0133     		adds	r3, r3, #1
 1458 0012 0022     		movs	r2, #0
 1459 0014 0092     		str	r2, [sp]
 1460 0016 2046     		mov	r0, r4
 1461 0018 4FF4B871 		mov	r1, #368
 1462 001c 1A46     		mov	r2, r3
 1463 001e 244B     		ldr	r3, .L84+4
 1464 0020 FFF7FEFF 		bl	chThdCreateStatic
 1465 0024 0246     		mov	r2, r0
 1466 0026 234B     		ldr	r3, .L84+8
 1467 0028 1A60     		str	r2, [r3]
 1468              		.loc 11 217 0
 1469 002a 2348     		ldr	r0, .L84+12
 1470 002c 2249     		ldr	r1, .L84+12
 1471 002e FFF7FEFF 		bl	chSemSignalWait
 1472              		.loc 11 218 0
 1473 0032 2148     		ldr	r0, .L84+12
 1474 0034 FFF7FEFF 		bl	queue_isempty
 1475 0038 0346     		mov	r3, r0
 1476 003a 0120     		movs	r0, #1
 1477 003c 1946     		mov	r1, r3
 1478 003e FFF7FEFF 		bl	_test_assert
 1479 0042 0346     		mov	r3, r0
 1480 0044 002B     		cmp	r3, #0
 1481 0046 00D0     		beq	.L80
 1482              		.loc 11 218 0 is_stmt 0 discriminator 1
 1483 0048 2DE0     		b	.L79
 1484              	.L80:
 1485              		.loc 11 219 0 is_stmt 1
 1486 004a 1B4B     		ldr	r3, .L84+12
 1487 004c 9B68     		ldr	r3, [r3, #8]
 1488 004e 002B     		cmp	r3, #0
 1489 0050 14BF     		ite	ne
 1490 0052 0023     		movne	r3, #0
 1491 0054 0123     		moveq	r3, #1
 1492 0056 DBB2     		uxtb	r3, r3
 1493 0058 0220     		movs	r0, #2
 1494 005a 1946     		mov	r1, r3
 1495 005c FFF7FEFF 		bl	_test_assert
 1496 0060 0346     		mov	r3, r0
 1497 0062 002B     		cmp	r3, #0
 1498 0064 00D0     		beq	.L82
 1499              		.loc 11 219 0 is_stmt 0 discriminator 1
 1500 0066 1EE0     		b	.L79
ARM GAS  C:\Users\Luis\AppData\Local\Temp\ccMQOx1f.s 			page 28


 1501              	.L82:
 1502              		.loc 11 221 0 is_stmt 1
 1503 0068 1348     		ldr	r0, .L84+12
 1504 006a 1349     		ldr	r1, .L84+12
 1505 006c FFF7FEFF 		bl	chSemSignalWait
 1506              		.loc 11 222 0
 1507 0070 1148     		ldr	r0, .L84+12
 1508 0072 FFF7FEFF 		bl	queue_isempty
 1509 0076 0346     		mov	r3, r0
 1510 0078 0320     		movs	r0, #3
 1511 007a 1946     		mov	r1, r3
 1512 007c FFF7FEFF 		bl	_test_assert
 1513 0080 0346     		mov	r3, r0
 1514 0082 002B     		cmp	r3, #0
 1515 0084 00D0     		beq	.L83
 1516              		.loc 11 222 0 is_stmt 0 discriminator 1
 1517 0086 0EE0     		b	.L79
 1518              	.L83:
 1519              		.loc 11 223 0 is_stmt 1
 1520 0088 0B4B     		ldr	r3, .L84+12
 1521 008a 9B68     		ldr	r3, [r3, #8]
 1522 008c 002B     		cmp	r3, #0
 1523 008e 14BF     		ite	ne
 1524 0090 0023     		movne	r3, #0
 1525 0092 0123     		moveq	r3, #1
 1526 0094 DBB2     		uxtb	r3, r3
 1527 0096 0420     		movs	r0, #4
 1528 0098 1946     		mov	r1, r3
 1529 009a FFF7FEFF 		bl	_test_assert
 1530 009e 0346     		mov	r3, r0
 1531 00a0 002B     		cmp	r3, #0
 1532 00a2 00D0     		beq	.L79
 1533              		.loc 11 223 0 is_stmt 0 discriminator 1
 1534 00a4 00BF     		nop
 1535              	.L79:
 1536              		.loc 11 224 0 is_stmt 1
 1537 00a6 0437     		adds	r7, r7, #4
 1538 00a8 BD46     		mov	sp, r7
 1539              		@ sp needed
 1540 00aa 90BD     		pop	{r4, r7, pc}
 1541              	.L85:
 1542              		.align	2
 1543              	.L84:
 1544 00ac 00000000 		.word	wa
 1545 00b0 00000000 		.word	thread3
 1546 00b4 00000000 		.word	threads
 1547 00b8 00000000 		.word	sem1
 1548              		.cfi_endproc
 1549              	.LFE237:
 1550              		.size	sem3_execute, .-sem3_execute
 1551              		.global	testsem3
 1552 00bc AFF30080 		.section	.rodata
 1553              		.align	2
 1554              	.LC8:
 1555 0048 53656D61 		.ascii	"Semaphores, atomic signal-wait\000"
 1555      70686F72 
 1555      65732C20 
ARM GAS  C:\Users\Luis\AppData\Local\Temp\ccMQOx1f.s 			page 29


 1555      61746F6D 
 1555      69632073 
 1556              		.section	.rodata.testsem3,"a",%progbits
 1557              		.align	2
 1558              		.type	testsem3, %object
 1559              		.size	testsem3, 16
 1560              	testsem3:
 1561 0000 48000000 		.word	.LC8
 1562 0004 00000000 		.word	sem3_setup
 1563 0008 00000000 		.word	0
 1564 000c 00000000 		.word	sem3_execute
 1565              		.section	.text.thread4,"ax",%progbits
 1566              		.align	2
 1567              		.p2align 4,,15
 1568              		.thumb
 1569              		.thumb_func
 1570              		.type	thread4, %function
 1571              	thread4:
 1572              	.LFB238:
 1573              		.loc 11 241 0
 1574              		.cfi_startproc
 1575              		@ args = 0, pretend = 0, frame = 8
 1576              		@ frame_needed = 1, uses_anonymous_args = 0
 1577 0000 80B5     		push	{r7, lr}
 1578              		.cfi_def_cfa_offset 8
 1579              		.cfi_offset 7, -8
 1580              		.cfi_offset 14, -4
 1581 0002 82B0     		sub	sp, sp, #8
 1582              		.cfi_def_cfa_offset 16
 1583 0004 00AF     		add	r7, sp, #0
 1584              		.cfi_def_cfa_register 7
 1585 0006 7860     		str	r0, [r7, #4]
 1586              		.loc 11 243 0
 1587 0008 7868     		ldr	r0, [r7, #4]
 1588 000a FFF7FEFF 		bl	chBSemSignal
 1589              		.loc 11 244 0
 1590 000e 0837     		adds	r7, r7, #8
 1591 0010 BD46     		mov	sp, r7
 1592              		@ sp needed
 1593 0012 80BD     		pop	{r7, pc}
 1594              		.cfi_endproc
 1595              	.LFE238:
 1596              		.size	thread4, .-thread4
 1597 0014 AFF30080 		.section	.text.sem4_execute,"ax",%progbits
 1597      AFF30080 
 1597      AFF30080 
 1598              		.align	2
 1599              		.p2align 4,,15
 1600              		.thumb
 1601              		.thumb_func
 1602              		.type	sem4_execute, %function
 1603              	sem4_execute:
 1604              	.LFB239:
 1605              		.loc 11 246 0
 1606              		.cfi_startproc
 1607              		@ args = 0, pretend = 0, frame = 16
 1608              		@ frame_needed = 1, uses_anonymous_args = 0
ARM GAS  C:\Users\Luis\AppData\Local\Temp\ccMQOx1f.s 			page 30


 1609 0000 90B5     		push	{r4, r7, lr}
 1610              		.cfi_def_cfa_offset 12
 1611              		.cfi_offset 4, -12
 1612              		.cfi_offset 7, -8
 1613              		.cfi_offset 14, -4
 1614 0002 87B0     		sub	sp, sp, #28
 1615              		.cfi_def_cfa_offset 40
 1616 0004 02AF     		add	r7, sp, #8
 1617              		.cfi_def_cfa 7, 32
 1618              		.loc 11 250 0
 1619 0006 3B1D     		adds	r3, r7, #4
 1620 0008 1846     		mov	r0, r3
 1621 000a 0121     		movs	r1, #1
 1622 000c FFF7FEFF 		bl	chBSemObjectInit
 1623              		.loc 11 251 0
 1624 0010 3B1D     		adds	r3, r7, #4
 1625 0012 1846     		mov	r0, r3
 1626 0014 0121     		movs	r1, #1
 1627 0016 FFF7FEFF 		bl	chBSemReset
 1628              		.loc 11 252 0
 1629 001a FFF7FEFF 		bl	chSysLock
 1630 001e 3B1D     		adds	r3, r7, #4
 1631 0020 1846     		mov	r0, r3
 1632 0022 FFF7FEFF 		bl	chBSemGetStateI
 1633 0026 0346     		mov	r3, r0
 1634 0028 002B     		cmp	r3, #0
 1635 002a 0CBF     		ite	eq
 1636 002c 0023     		moveq	r3, #0
 1637 002e 0123     		movne	r3, #1
 1638 0030 DBB2     		uxtb	r3, r3
 1639 0032 0120     		movs	r0, #1
 1640 0034 1946     		mov	r1, r3
 1641 0036 FFF7FEFF 		bl	_test_assert
 1642 003a 0346     		mov	r3, r0
 1643 003c 002B     		cmp	r3, #0
 1644 003e 02D0     		beq	.L88
 1645              		.loc 11 252 0 is_stmt 0 discriminator 1
 1646 0040 FFF7FEFF 		bl	chSysUnlock
 1647 0044 A3E0     		b	.L87
 1648              	.L88:
 1649              		.loc 11 252 0 discriminator 2
 1650 0046 FFF7FEFF 		bl	chSysUnlock
 1651              		.loc 11 255 0 is_stmt 1 discriminator 2
 1652 004a 524B     		ldr	r3, .L96
 1653 004c 1C68     		ldr	r4, [r3]
 1654              		.loc 11 256 0 discriminator 2
 1655 004e FFF7FEFF 		bl	chThdGetPriorityX
 1656 0052 0346     		mov	r3, r0
 1657              		.loc 11 255 0 discriminator 2
 1658 0054 013B     		subs	r3, r3, #1
 1659 0056 3A1D     		adds	r2, r7, #4
 1660 0058 0092     		str	r2, [sp]
 1661 005a 2046     		mov	r0, r4
 1662 005c 4FF4B871 		mov	r1, #368
 1663 0060 1A46     		mov	r2, r3
 1664 0062 4D4B     		ldr	r3, .L96+4
 1665 0064 FFF7FEFF 		bl	chThdCreateStatic
ARM GAS  C:\Users\Luis\AppData\Local\Temp\ccMQOx1f.s 			page 31


 1666 0068 0246     		mov	r2, r0
 1667 006a 4C4B     		ldr	r3, .L96+8
 1668 006c 1A60     		str	r2, [r3]
 1669              		.loc 11 259 0 discriminator 2
 1670 006e 3B1D     		adds	r3, r7, #4
 1671 0070 1846     		mov	r0, r3
 1672 0072 FFF7FEFF 		bl	chBSemWait
 1673              		.loc 11 262 0 discriminator 2
 1674 0076 FFF7FEFF 		bl	chSysLock
 1675 007a 3B1D     		adds	r3, r7, #4
 1676 007c 1846     		mov	r0, r3
 1677 007e FFF7FEFF 		bl	chBSemGetStateI
 1678 0082 0346     		mov	r3, r0
 1679 0084 002B     		cmp	r3, #0
 1680 0086 0CBF     		ite	eq
 1681 0088 0023     		moveq	r3, #0
 1682 008a 0123     		movne	r3, #1
 1683 008c DBB2     		uxtb	r3, r3
 1684 008e 0220     		movs	r0, #2
 1685 0090 1946     		mov	r1, r3
 1686 0092 FFF7FEFF 		bl	_test_assert
 1687 0096 0346     		mov	r3, r0
 1688 0098 002B     		cmp	r3, #0
 1689 009a 02D0     		beq	.L90
 1690              		.loc 11 262 0 is_stmt 0 discriminator 1
 1691 009c FFF7FEFF 		bl	chSysUnlock
 1692 00a0 75E0     		b	.L87
 1693              	.L90:
 1694              		.loc 11 262 0 discriminator 2
 1695 00a2 FFF7FEFF 		bl	chSysUnlock
 1696              		.loc 11 266 0 is_stmt 1 discriminator 2
 1697 00a6 3B1D     		adds	r3, r7, #4
 1698 00a8 1846     		mov	r0, r3
 1699 00aa FFF7FEFF 		bl	chBSemSignal
 1700              		.loc 11 267 0 discriminator 2
 1701 00ae FFF7FEFF 		bl	chSysLock
 1702 00b2 3B1D     		adds	r3, r7, #4
 1703 00b4 1846     		mov	r0, r3
 1704 00b6 FFF7FEFF 		bl	chBSemGetStateI
 1705 00ba 0346     		mov	r3, r0
 1706 00bc 002B     		cmp	r3, #0
 1707 00be 0CBF     		ite	eq
 1708 00c0 0023     		moveq	r3, #0
 1709 00c2 0123     		movne	r3, #1
 1710 00c4 DBB2     		uxtb	r3, r3
 1711 00c6 83F00103 		eor	r3, r3, #1
 1712 00ca DBB2     		uxtb	r3, r3
 1713 00cc 03F00103 		and	r3, r3, #1
 1714 00d0 DBB2     		uxtb	r3, r3
 1715 00d2 0320     		movs	r0, #3
 1716 00d4 1946     		mov	r1, r3
 1717 00d6 FFF7FEFF 		bl	_test_assert
 1718 00da 0346     		mov	r3, r0
 1719 00dc 002B     		cmp	r3, #0
 1720 00de 02D0     		beq	.L91
 1721              		.loc 11 267 0 is_stmt 0 discriminator 1
 1722 00e0 FFF7FEFF 		bl	chSysUnlock
ARM GAS  C:\Users\Luis\AppData\Local\Temp\ccMQOx1f.s 			page 32


 1723 00e4 53E0     		b	.L87
 1724              	.L91:
 1725              		.loc 11 267 0 discriminator 2
 1726 00e6 FFF7FEFF 		bl	chSysUnlock
 1727              		.loc 11 268 0 is_stmt 1 discriminator 2
 1728 00ea FFF7FEFF 		bl	chSysLock
 1729 00ee 3B1D     		adds	r3, r7, #4
 1730 00f0 1846     		mov	r0, r3
 1731 00f2 FFF7FEFF 		bl	chSemGetCounterI
 1732 00f6 0346     		mov	r3, r0
 1733 00f8 012B     		cmp	r3, #1
 1734 00fa 14BF     		ite	ne
 1735 00fc 0023     		movne	r3, #0
 1736 00fe 0123     		moveq	r3, #1
 1737 0100 DBB2     		uxtb	r3, r3
 1738 0102 0420     		movs	r0, #4
 1739 0104 1946     		mov	r1, r3
 1740 0106 FFF7FEFF 		bl	_test_assert
 1741 010a 0346     		mov	r3, r0
 1742 010c 002B     		cmp	r3, #0
 1743 010e 02D0     		beq	.L92
 1744              		.loc 11 268 0 is_stmt 0 discriminator 1
 1745 0110 FFF7FEFF 		bl	chSysUnlock
 1746 0114 3BE0     		b	.L87
 1747              	.L92:
 1748              		.loc 11 268 0 discriminator 2
 1749 0116 FFF7FEFF 		bl	chSysUnlock
 1750              		.loc 11 271 0 is_stmt 1 discriminator 2
 1751 011a 3B1D     		adds	r3, r7, #4
 1752 011c 1846     		mov	r0, r3
 1753 011e FFF7FEFF 		bl	chBSemSignal
 1754              		.loc 11 272 0 discriminator 2
 1755 0122 FFF7FEFF 		bl	chSysLock
 1756 0126 3B1D     		adds	r3, r7, #4
 1757 0128 1846     		mov	r0, r3
 1758 012a FFF7FEFF 		bl	chBSemGetStateI
 1759 012e 0346     		mov	r3, r0
 1760 0130 002B     		cmp	r3, #0
 1761 0132 0CBF     		ite	eq
 1762 0134 0023     		moveq	r3, #0
 1763 0136 0123     		movne	r3, #1
 1764 0138 DBB2     		uxtb	r3, r3
 1765 013a 83F00103 		eor	r3, r3, #1
 1766 013e DBB2     		uxtb	r3, r3
 1767 0140 03F00103 		and	r3, r3, #1
 1768 0144 DBB2     		uxtb	r3, r3
 1769 0146 0320     		movs	r0, #3
 1770 0148 1946     		mov	r1, r3
 1771 014a FFF7FEFF 		bl	_test_assert
 1772 014e 0346     		mov	r3, r0
 1773 0150 002B     		cmp	r3, #0
 1774 0152 02D0     		beq	.L93
 1775              		.loc 11 272 0 is_stmt 0 discriminator 1
 1776 0154 FFF7FEFF 		bl	chSysUnlock
 1777 0158 19E0     		b	.L87
 1778              	.L93:
 1779              		.loc 11 272 0 discriminator 2
ARM GAS  C:\Users\Luis\AppData\Local\Temp\ccMQOx1f.s 			page 33


 1780 015a FFF7FEFF 		bl	chSysUnlock
 1781              		.loc 11 273 0 is_stmt 1 discriminator 2
 1782 015e FFF7FEFF 		bl	chSysLock
 1783 0162 3B1D     		adds	r3, r7, #4
 1784 0164 1846     		mov	r0, r3
 1785 0166 FFF7FEFF 		bl	chSemGetCounterI
 1786 016a 0346     		mov	r3, r0
 1787 016c 012B     		cmp	r3, #1
 1788 016e 14BF     		ite	ne
 1789 0170 0023     		movne	r3, #0
 1790 0172 0123     		moveq	r3, #1
 1791 0174 DBB2     		uxtb	r3, r3
 1792 0176 0520     		movs	r0, #5
 1793 0178 1946     		mov	r1, r3
 1794 017a FFF7FEFF 		bl	_test_assert
 1795 017e 0346     		mov	r3, r0
 1796 0180 002B     		cmp	r3, #0
 1797 0182 02D0     		beq	.L94
 1798              		.loc 11 273 0 is_stmt 0 discriminator 1
 1799 0184 FFF7FEFF 		bl	chSysUnlock
 1800 0188 01E0     		b	.L87
 1801              	.L94:
 1802              		.loc 11 273 0 discriminator 2
 1803 018a FFF7FEFF 		bl	chSysUnlock
 1804              	.L87:
 1805              		.loc 11 274 0 is_stmt 1
 1806 018e 1437     		adds	r7, r7, #20
 1807 0190 BD46     		mov	sp, r7
 1808              		@ sp needed
 1809 0192 90BD     		pop	{r4, r7, pc}
 1810              	.L97:
 1811              		.align	2
 1812              	.L96:
 1813 0194 00000000 		.word	wa
 1814 0198 00000000 		.word	thread4
 1815 019c 00000000 		.word	threads
 1816              		.cfi_endproc
 1817              	.LFE239:
 1818              		.size	sem4_execute, .-sem4_execute
 1819              		.global	testsem4
 1820              		.section	.rodata
 1821 0067 00       		.align	2
 1822              	.LC9:
 1823 0068 42696E61 		.ascii	"Binary Semaphores, functionality\000"
 1823      72792053 
 1823      656D6170 
 1823      686F7265 
 1823      732C2066 
 1824 0089 000000   		.section	.rodata.testsem4,"a",%progbits
 1825              		.align	2
 1826              		.type	testsem4, %object
 1827              		.size	testsem4, 16
 1828              	testsem4:
 1829 0000 68000000 		.word	.LC9
 1830 0004 00000000 		.word	0
 1831 0008 00000000 		.word	0
 1832 000c 00000000 		.word	sem4_execute
ARM GAS  C:\Users\Luis\AppData\Local\Temp\ccMQOx1f.s 			page 34


 1833              		.global	patternsem
 1834              		.section	.rodata.patternsem,"a",%progbits
 1835              		.align	2
 1836              		.type	patternsem, %object
 1837              		.size	patternsem, 20
 1838              	patternsem:
 1839 0000 00000000 		.word	testsem1
 1840 0004 00000000 		.word	testsem2
 1841 0008 00000000 		.word	testsem3
 1842 000c 00000000 		.word	testsem4
 1843 0010 00000000 		.word	0
 1844              		.section	.rodata.__func__.5842,"a",%progbits
 1845              		.align	2
 1846              		.type	__func__.5842, %object
 1847              		.size	__func__.5842, 12
 1848              	__func__.5842:
 1849 0000 63685379 		.ascii	"chSysUnlock\000"
 1849      73556E6C 
 1849      6F636B00 
 1850              		.text
 1851              	.Letext0:
 1852              		.file 12 "c:\\emtechesdk\\gcc\\lib\\gcc\\arm-none-eabi\\4.8.3\\include\\stddef.h"
 1853              		.file 13 "c:\\emtechesdk\\gcc\\arm-none-eabi\\include\\stdint.h"
 1854              		.file 14 "../../ChibiOS/os/rt/ports/ARMCMx/compilers/GCC/chtypes.h"
 1855              		.file 15 "../../ChibiOS/os/rt/include/chsystypes.h"
 1856              		.file 16 "../../ChibiOS/os/rt/ports/ARMCMx/chcore.h"
 1857              		.file 17 "../../ChibiOS/os/hal/ports/STM32/LLD/TIMv1/stm32_tim.h"
 1858              		.file 18 "../../ChibiOS/os/rt/include/chdebug.h"
 1859              		.file 19 "../../ChibiOS/os/rt/include/chtm.h"
 1860              		.file 20 "../../ChibiOS/os/rt/include/chstats.h"
 1861              		.file 21 "../../ChibiOS/os/rt/include/chmtx.h"
 1862              		.file 22 "../../ChibiOS/test/rt/test.h"
 1863              		.file 23 "../../ChibiOS/os/ext/CMSIS/include/core_cm4.h"
 1864              		.section	.debug_info,"",%progbits
 1865              	.Ldebug_info0:
 1866 0000 290E0000 		.4byte	0xe29
 1867 0004 0400     		.2byte	0x4
 1868 0006 00000000 		.4byte	.Ldebug_abbrev0
 1869 000a 04       		.byte	0x4
 1870 000b 01       		.uleb128 0x1
 1871 000c 3A060000 		.4byte	.LASF186
 1872 0010 01       		.byte	0x1
 1873 0011 11070000 		.4byte	.LASF187
 1874 0015 73010000 		.4byte	.LASF188
 1875 0019 00000000 		.4byte	.Ldebug_ranges0+0
 1876 001d 00000000 		.4byte	0
 1877 0021 00000000 		.4byte	.Ldebug_line0
 1878 0025 02       		.uleb128 0x2
 1879 0026 04       		.byte	0x4
 1880 0027 05       		.byte	0x5
 1881 0028 696E7400 		.ascii	"int\000"
 1882 002c 03       		.uleb128 0x3
 1883 002d 19000000 		.4byte	.LASF2
 1884 0031 0C       		.byte	0xc
 1885 0032 D4       		.byte	0xd4
 1886 0033 37000000 		.4byte	0x37
 1887 0037 04       		.uleb128 0x4
ARM GAS  C:\Users\Luis\AppData\Local\Temp\ccMQOx1f.s 			page 35


 1888 0038 04       		.byte	0x4
 1889 0039 07       		.byte	0x7
 1890 003a A7020000 		.4byte	.LASF0
 1891 003e 04       		.uleb128 0x4
 1892 003f 01       		.byte	0x1
 1893 0040 06       		.byte	0x6
 1894 0041 3C010000 		.4byte	.LASF1
 1895 0045 03       		.uleb128 0x3
 1896 0046 03080000 		.4byte	.LASF3
 1897 004a 0D       		.byte	0xd
 1898 004b 2A       		.byte	0x2a
 1899 004c 50000000 		.4byte	0x50
 1900 0050 04       		.uleb128 0x4
 1901 0051 01       		.byte	0x1
 1902 0052 08       		.byte	0x8
 1903 0053 14050000 		.4byte	.LASF4
 1904 0057 04       		.uleb128 0x4
 1905 0058 02       		.byte	0x2
 1906 0059 05       		.byte	0x5
 1907 005a 34050000 		.4byte	.LASF5
 1908 005e 04       		.uleb128 0x4
 1909 005f 02       		.byte	0x2
 1910 0060 07       		.byte	0x7
 1911 0061 17010000 		.4byte	.LASF6
 1912 0065 03       		.uleb128 0x3
 1913 0066 0C050000 		.4byte	.LASF7
 1914 006a 0D       		.byte	0xd
 1915 006b 4F       		.byte	0x4f
 1916 006c 70000000 		.4byte	0x70
 1917 0070 04       		.uleb128 0x4
 1918 0071 04       		.byte	0x4
 1919 0072 05       		.byte	0x5
 1920 0073 C9010000 		.4byte	.LASF8
 1921 0077 03       		.uleb128 0x3
 1922 0078 DC050000 		.4byte	.LASF9
 1923 007c 0D       		.byte	0xd
 1924 007d 50       		.byte	0x50
 1925 007e 82000000 		.4byte	0x82
 1926 0082 04       		.uleb128 0x4
 1927 0083 04       		.byte	0x4
 1928 0084 07       		.byte	0x7
 1929 0085 0D060000 		.4byte	.LASF10
 1930 0089 04       		.uleb128 0x4
 1931 008a 08       		.byte	0x8
 1932 008b 05       		.byte	0x5
 1933 008c F2010000 		.4byte	.LASF11
 1934 0090 03       		.uleb128 0x3
 1935 0091 34000000 		.4byte	.LASF12
 1936 0095 0D       		.byte	0xd
 1937 0096 78       		.byte	0x78
 1938 0097 9B000000 		.4byte	0x9b
 1939 009b 04       		.uleb128 0x4
 1940 009c 08       		.byte	0x8
 1941 009d 07       		.byte	0x7
 1942 009e 99000000 		.4byte	.LASF13
 1943 00a2 05       		.uleb128 0x5
 1944 00a3 65000000 		.4byte	0x65
ARM GAS  C:\Users\Luis\AppData\Local\Temp\ccMQOx1f.s 			page 36


 1945 00a7 05       		.uleb128 0x5
 1946 00a8 77000000 		.4byte	0x77
 1947 00ac 03       		.uleb128 0x3
 1948 00ad A2070000 		.4byte	.LASF14
 1949 00b1 0E       		.byte	0xe
 1950 00b2 45       		.byte	0x45
 1951 00b3 77000000 		.4byte	0x77
 1952 00b7 03       		.uleb128 0x3
 1953 00b8 07010000 		.4byte	.LASF15
 1954 00bc 0E       		.byte	0xe
 1955 00bd 46       		.byte	0x46
 1956 00be 90000000 		.4byte	0x90
 1957 00c2 03       		.uleb128 0x3
 1958 00c3 47080000 		.4byte	.LASF16
 1959 00c7 0E       		.byte	0xe
 1960 00c8 48       		.byte	0x48
 1961 00c9 45000000 		.4byte	0x45
 1962 00cd 03       		.uleb128 0x3
 1963 00ce DE010000 		.4byte	.LASF17
 1964 00d2 0E       		.byte	0xe
 1965 00d3 49       		.byte	0x49
 1966 00d4 45000000 		.4byte	0x45
 1967 00d8 03       		.uleb128 0x3
 1968 00d9 B9040000 		.4byte	.LASF18
 1969 00dd 0E       		.byte	0xe
 1970 00de 4A       		.byte	0x4a
 1971 00df 45000000 		.4byte	0x45
 1972 00e3 03       		.uleb128 0x3
 1973 00e4 F5040000 		.4byte	.LASF19
 1974 00e8 0E       		.byte	0xe
 1975 00e9 4C       		.byte	0x4c
 1976 00ea 77000000 		.4byte	0x77
 1977 00ee 03       		.uleb128 0x3
 1978 00ef 4A030000 		.4byte	.LASF20
 1979 00f3 0E       		.byte	0xe
 1980 00f4 4D       		.byte	0x4d
 1981 00f5 65000000 		.4byte	0x65
 1982 00f9 03       		.uleb128 0x3
 1983 00fa 95030000 		.4byte	.LASF21
 1984 00fe 0E       		.byte	0xe
 1985 00ff 4F       		.byte	0x4f
 1986 0100 77000000 		.4byte	0x77
 1987 0104 03       		.uleb128 0x3
 1988 0105 83020000 		.4byte	.LASF22
 1989 0109 0E       		.byte	0xe
 1990 010a 51       		.byte	0x51
 1991 010b 65000000 		.4byte	0x65
 1992 010f 03       		.uleb128 0x3
 1993 0110 55030000 		.4byte	.LASF23
 1994 0114 0E       		.byte	0xe
 1995 0115 52       		.byte	0x52
 1996 0116 77000000 		.4byte	0x77
 1997 011a 03       		.uleb128 0x3
 1998 011b 38070000 		.4byte	.LASF24
 1999 011f 0F       		.byte	0xf
 2000 0120 33       		.byte	0x33
 2001 0121 77000000 		.4byte	0x77
ARM GAS  C:\Users\Luis\AppData\Local\Temp\ccMQOx1f.s 			page 37


 2002 0125 03       		.uleb128 0x3
 2003 0126 E6070000 		.4byte	.LASF25
 2004 012a 0F       		.byte	0xf
 2005 012b 3F       		.byte	0x3f
 2006 012c 30010000 		.4byte	0x130
 2007 0130 06       		.uleb128 0x6
 2008 0131 3B030000 		.4byte	.LASF48
 2009 0135 68       		.byte	0x68
 2010 0136 05       		.byte	0x5
 2011 0137 C2       		.byte	0xc2
 2012 0138 43020000 		.4byte	0x243
 2013 013c 07       		.uleb128 0x7
 2014 013d 5C050000 		.4byte	.LASF26
 2015 0141 05       		.byte	0x5
 2016 0142 C3       		.byte	0xc3
 2017 0143 4E020000 		.4byte	0x24e
 2018 0147 00       		.byte	0
 2019 0148 07       		.uleb128 0x7
 2020 0149 DB040000 		.4byte	.LASF27
 2021 014d 05       		.byte	0x5
 2022 014e C5       		.byte	0xc5
 2023 014f 4E020000 		.4byte	0x24e
 2024 0153 04       		.byte	0x4
 2025 0154 07       		.uleb128 0x7
 2026 0155 10010000 		.4byte	.LASF28
 2027 0159 05       		.byte	0x5
 2028 015a C7       		.byte	0xc7
 2029 015b E3000000 		.4byte	0xe3
 2030 015f 08       		.byte	0x8
 2031 0160 07       		.uleb128 0x7
 2032 0161 A8080000 		.4byte	.LASF29
 2033 0165 05       		.byte	0x5
 2034 0166 C8       		.byte	0xc8
 2035 0167 D7040000 		.4byte	0x4d7
 2036 016b 0C       		.byte	0xc
 2037 016c 07       		.uleb128 0x7
 2038 016d 00020000 		.4byte	.LASF30
 2039 0171 05       		.byte	0x5
 2040 0172 CA       		.byte	0xca
 2041 0173 4E020000 		.4byte	0x24e
 2042 0177 10       		.byte	0x10
 2043 0178 07       		.uleb128 0x7
 2044 0179 36040000 		.4byte	.LASF31
 2045 017d 05       		.byte	0x5
 2046 017e CB       		.byte	0xcb
 2047 017f 4E020000 		.4byte	0x24e
 2048 0183 14       		.byte	0x14
 2049 0184 07       		.uleb128 0x7
 2050 0185 20080000 		.4byte	.LASF32
 2051 0189 05       		.byte	0x5
 2052 018a D2       		.byte	0xd2
 2053 018b 9D080000 		.4byte	0x89d
 2054 018f 18       		.byte	0x18
 2055 0190 07       		.uleb128 0x7
 2056 0191 9C020000 		.4byte	.LASF33
 2057 0195 05       		.byte	0x5
 2058 0196 D8       		.byte	0xd8
ARM GAS  C:\Users\Luis\AppData\Local\Temp\ccMQOx1f.s 			page 38


 2059 0197 AF080000 		.4byte	0x8af
 2060 019b 1C       		.byte	0x1c
 2061 019c 07       		.uleb128 0x7
 2062 019d 3E050000 		.4byte	.LASF34
 2063 01a1 05       		.byte	0x5
 2064 01a2 DD       		.byte	0xdd
 2065 01a3 CD000000 		.4byte	0xcd
 2066 01a7 20       		.byte	0x20
 2067 01a8 07       		.uleb128 0x7
 2068 01a9 63050000 		.4byte	.LASF35
 2069 01ad 05       		.byte	0x5
 2070 01ae E1       		.byte	0xe1
 2071 01af C2000000 		.4byte	0xc2
 2072 01b3 21       		.byte	0x21
 2073 01b4 07       		.uleb128 0x7
 2074 01b5 D7070000 		.4byte	.LASF36
 2075 01b9 05       		.byte	0x5
 2076 01ba E6       		.byte	0xe6
 2077 01bb D8000000 		.4byte	0xd8
 2078 01bf 22       		.byte	0x22
 2079 01c0 08       		.uleb128 0x8
 2080 01c1 705F7500 		.ascii	"p_u\000"
 2081 01c5 05       		.byte	0x5
 2082 01c6 3101     		.2byte	0x131
 2083 01c8 D8070000 		.4byte	0x7d8
 2084 01cc 24       		.byte	0x24
 2085 01cd 09       		.uleb128 0x9
 2086 01ce C2030000 		.4byte	.LASF37
 2087 01d2 05       		.byte	0x5
 2088 01d3 3601     		.2byte	0x136
 2089 01d5 54020000 		.4byte	0x254
 2090 01d9 28       		.byte	0x28
 2091 01da 09       		.uleb128 0x9
 2092 01db EB020000 		.4byte	.LASF38
 2093 01df 05       		.byte	0x5
 2094 01e0 3C01     		.2byte	0x13c
 2095 01e2 78020000 		.4byte	0x278
 2096 01e6 2C       		.byte	0x2c
 2097 01e7 09       		.uleb128 0x9
 2098 01e8 24060000 		.4byte	.LASF39
 2099 01ec 05       		.byte	0x5
 2100 01ed 4001     		.2byte	0x140
 2101 01ef EE000000 		.4byte	0xee
 2102 01f3 34       		.byte	0x34
 2103 01f4 09       		.uleb128 0x9
 2104 01f5 BE050000 		.4byte	.LASF40
 2105 01f9 05       		.byte	0x5
 2106 01fa 4601     		.2byte	0x146
 2107 01fc F9000000 		.4byte	0xf9
 2108 0200 38       		.byte	0x38
 2109 0201 09       		.uleb128 0x9
 2110 0202 2A050000 		.4byte	.LASF41
 2111 0206 05       		.byte	0x5
 2112 0207 4D01     		.2byte	0x14d
 2113 0209 97080000 		.4byte	0x897
 2114 020d 3C       		.byte	0x3c
 2115 020e 09       		.uleb128 0x9
ARM GAS  C:\Users\Luis\AppData\Local\Temp\ccMQOx1f.s 			page 39


 2116 020f 42070000 		.4byte	.LASF42
 2117 0213 05       		.byte	0x5
 2118 0214 5101     		.2byte	0x151
 2119 0216 E3000000 		.4byte	0xe3
 2120 021a 40       		.byte	0x40
 2121 021b 09       		.uleb128 0x9
 2122 021c 2E020000 		.4byte	.LASF43
 2123 0220 05       		.byte	0x5
 2124 0221 5801     		.2byte	0x158
 2125 0223 2B030000 		.4byte	0x32b
 2126 0227 44       		.byte	0x44
 2127 0228 09       		.uleb128 0x9
 2128 0229 74050000 		.4byte	.LASF44
 2129 022d 05       		.byte	0x5
 2130 022e 5E01     		.2byte	0x15e
 2131 0230 89070000 		.4byte	0x789
 2132 0234 48       		.byte	0x48
 2133 0235 09       		.uleb128 0x9
 2134 0236 0F030000 		.4byte	.LASF45
 2135 023a 05       		.byte	0x5
 2136 023b 6201     		.2byte	0x162
 2137 023d 2B030000 		.4byte	0x32b
 2138 0241 60       		.byte	0x60
 2139 0242 00       		.byte	0
 2140 0243 03       		.uleb128 0x3
 2141 0244 D5030000 		.4byte	.LASF46
 2142 0248 0F       		.byte	0xf
 2143 0249 44       		.byte	0x44
 2144 024a 4E020000 		.4byte	0x24e
 2145 024e 0A       		.uleb128 0xa
 2146 024f 04       		.byte	0x4
 2147 0250 25010000 		.4byte	0x125
 2148 0254 03       		.uleb128 0x3
 2149 0255 38080000 		.4byte	.LASF47
 2150 0259 0F       		.byte	0xf
 2151 025a 49       		.byte	0x49
 2152 025b 5F020000 		.4byte	0x25f
 2153 025f 06       		.uleb128 0x6
 2154 0260 FD050000 		.4byte	.LASF49
 2155 0264 04       		.byte	0x4
 2156 0265 05       		.byte	0x5
 2157 0266 B0       		.byte	0xb0
 2158 0267 78020000 		.4byte	0x278
 2159 026b 07       		.uleb128 0x7
 2160 026c 5C050000 		.4byte	.LASF26
 2161 0270 05       		.byte	0x5
 2162 0271 B1       		.byte	0xb1
 2163 0272 4E020000 		.4byte	0x24e
 2164 0276 00       		.byte	0
 2165 0277 00       		.byte	0
 2166 0278 03       		.uleb128 0x3
 2167 0279 BE070000 		.4byte	.LASF50
 2168 027d 0F       		.byte	0xf
 2169 027e 50       		.byte	0x50
 2170 027f 83020000 		.4byte	0x283
 2171 0283 06       		.uleb128 0x6
 2172 0284 56000000 		.4byte	.LASF51
ARM GAS  C:\Users\Luis\AppData\Local\Temp\ccMQOx1f.s 			page 40


 2173 0288 08       		.byte	0x8
 2174 0289 05       		.byte	0x5
 2175 028a B7       		.byte	0xb7
 2176 028b A8020000 		.4byte	0x2a8
 2177 028f 07       		.uleb128 0x7
 2178 0290 5C050000 		.4byte	.LASF26
 2179 0294 05       		.byte	0x5
 2180 0295 B8       		.byte	0xb8
 2181 0296 4E020000 		.4byte	0x24e
 2182 029a 00       		.byte	0
 2183 029b 07       		.uleb128 0x7
 2184 029c DB040000 		.4byte	.LASF27
 2185 02a0 05       		.byte	0x5
 2186 02a1 B9       		.byte	0xb9
 2187 02a2 4E020000 		.4byte	0x24e
 2188 02a6 04       		.byte	0x4
 2189 02a7 00       		.byte	0
 2190 02a8 03       		.uleb128 0x3
 2191 02a9 07000000 		.4byte	.LASF52
 2192 02ad 0F       		.byte	0xf
 2193 02ae 57       		.byte	0x57
 2194 02af B3020000 		.4byte	0x2b3
 2195 02b3 0B       		.uleb128 0xb
 2196 02b4 87030000 		.4byte	.LASF53
 2197 02b8 1C       		.byte	0x1c
 2198 02b9 05       		.byte	0x5
 2199 02ba 9001     		.2byte	0x190
 2200 02bc 0F030000 		.4byte	0x30f
 2201 02c0 09       		.uleb128 0x9
 2202 02c1 EC050000 		.4byte	.LASF54
 2203 02c5 05       		.byte	0x5
 2204 02c6 9101     		.2byte	0x191
 2205 02c8 78020000 		.4byte	0x278
 2206 02cc 00       		.byte	0
 2207 02cd 09       		.uleb128 0x9
 2208 02ce 4E050000 		.4byte	.LASF55
 2209 02d2 05       		.byte	0x5
 2210 02d3 9201     		.2byte	0x192
 2211 02d5 E3000000 		.4byte	0xe3
 2212 02d9 08       		.byte	0x8
 2213 02da 09       		.uleb128 0x9
 2214 02db 4E040000 		.4byte	.LASF56
 2215 02df 05       		.byte	0x5
 2216 02e0 9401     		.2byte	0x194
 2217 02e2 D7040000 		.4byte	0x4d7
 2218 02e6 0C       		.byte	0xc
 2219 02e7 09       		.uleb128 0x9
 2220 02e8 26020000 		.4byte	.LASF57
 2221 02ec 05       		.byte	0x5
 2222 02ed 9701     		.2byte	0x197
 2223 02ef 4E020000 		.4byte	0x24e
 2224 02f3 10       		.byte	0x10
 2225 02f4 09       		.uleb128 0x9
 2226 02f5 9B040000 		.4byte	.LASF58
 2227 02f9 05       		.byte	0x5
 2228 02fa 9801     		.2byte	0x198
 2229 02fc 4E020000 		.4byte	0x24e
ARM GAS  C:\Users\Luis\AppData\Local\Temp\ccMQOx1f.s 			page 41


 2230 0300 14       		.byte	0x14
 2231 0301 09       		.uleb128 0x9
 2232 0302 91040000 		.4byte	.LASF59
 2233 0306 05       		.byte	0x5
 2234 0307 9B01     		.2byte	0x19b
 2235 0309 4E020000 		.4byte	0x24e
 2236 030d 18       		.byte	0x18
 2237 030e 00       		.byte	0
 2238 030f 03       		.uleb128 0x3
 2239 0310 4D070000 		.4byte	.LASF60
 2240 0314 0F       		.byte	0xf
 2241 0315 5C       		.byte	0x5c
 2242 0316 1A030000 		.4byte	0x31a
 2243 031a 0A       		.uleb128 0xa
 2244 031b 04       		.byte	0x4
 2245 031c 20030000 		.4byte	0x320
 2246 0320 0C       		.uleb128 0xc
 2247 0321 2B030000 		.4byte	0x32b
 2248 0325 0D       		.uleb128 0xd
 2249 0326 2B030000 		.4byte	0x32b
 2250 032a 00       		.byte	0
 2251 032b 0E       		.uleb128 0xe
 2252 032c 04       		.byte	0x4
 2253 032d 03       		.uleb128 0x3
 2254 032e CB040000 		.4byte	.LASF61
 2255 0332 0F       		.byte	0xf
 2256 0333 61       		.byte	0x61
 2257 0334 38030000 		.4byte	0x338
 2258 0338 0B       		.uleb128 0xb
 2259 0339 92050000 		.4byte	.LASF62
 2260 033d 14       		.byte	0x14
 2261 033e 05       		.byte	0x5
 2262 033f 6B01     		.2byte	0x16b
 2263 0341 87030000 		.4byte	0x387
 2264 0345 09       		.uleb128 0x9
 2265 0346 B4020000 		.4byte	.LASF63
 2266 034a 05       		.byte	0x5
 2267 034b 6C01     		.2byte	0x16c
 2268 034d B5080000 		.4byte	0x8b5
 2269 0351 00       		.byte	0
 2270 0352 09       		.uleb128 0x9
 2271 0353 3F020000 		.4byte	.LASF64
 2272 0357 05       		.byte	0x5
 2273 0358 6D01     		.2byte	0x16d
 2274 035a B5080000 		.4byte	0x8b5
 2275 035e 04       		.byte	0x4
 2276 035f 09       		.uleb128 0x9
 2277 0360 F4050000 		.4byte	.LASF65
 2278 0364 05       		.byte	0x5
 2279 0365 6E01     		.2byte	0x16e
 2280 0367 1A010000 		.4byte	0x11a
 2281 036b 08       		.byte	0x8
 2282 036c 09       		.uleb128 0x9
 2283 036d AE080000 		.4byte	.LASF66
 2284 0371 05       		.byte	0x5
 2285 0372 6F01     		.2byte	0x16f
 2286 0374 0F030000 		.4byte	0x30f
ARM GAS  C:\Users\Luis\AppData\Local\Temp\ccMQOx1f.s 			page 42


 2287 0378 0C       		.byte	0xc
 2288 0379 09       		.uleb128 0x9
 2289 037a B7070000 		.4byte	.LASF67
 2290 037e 05       		.byte	0x5
 2291 037f 7101     		.2byte	0x171
 2292 0381 2B030000 		.4byte	0x32b
 2293 0385 10       		.byte	0x10
 2294 0386 00       		.byte	0
 2295 0387 03       		.uleb128 0x3
 2296 0388 DF000000 		.4byte	.LASF68
 2297 038c 0F       		.byte	0xf
 2298 038d 66       		.byte	0x66
 2299 038e 92030000 		.4byte	0x392
 2300 0392 0B       		.uleb128 0xb
 2301 0393 F9030000 		.4byte	.LASF69
 2302 0397 10       		.byte	0x10
 2303 0398 05       		.byte	0x5
 2304 0399 7B01     		.2byte	0x17b
 2305 039b D4030000 		.4byte	0x3d4
 2306 039f 09       		.uleb128 0x9
 2307 03a0 B4020000 		.4byte	.LASF63
 2308 03a4 05       		.byte	0x5
 2309 03a5 7C01     		.2byte	0x17c
 2310 03a7 B5080000 		.4byte	0x8b5
 2311 03ab 00       		.byte	0
 2312 03ac 09       		.uleb128 0x9
 2313 03ad 3F020000 		.4byte	.LASF64
 2314 03b1 05       		.byte	0x5
 2315 03b2 7E01     		.2byte	0x17e
 2316 03b4 B5080000 		.4byte	0x8b5
 2317 03b8 04       		.byte	0x4
 2318 03b9 09       		.uleb128 0x9
 2319 03ba F4050000 		.4byte	.LASF65
 2320 03be 05       		.byte	0x5
 2321 03bf 8001     		.2byte	0x180
 2322 03c1 1A010000 		.4byte	0x11a
 2323 03c5 08       		.byte	0x8
 2324 03c6 09       		.uleb128 0x9
 2325 03c7 2A040000 		.4byte	.LASF70
 2326 03cb 05       		.byte	0x5
 2327 03cc 8801     		.2byte	0x188
 2328 03ce 1A010000 		.4byte	0x11a
 2329 03d2 0C       		.byte	0xc
 2330 03d3 00       		.byte	0
 2331 03d4 03       		.uleb128 0x3
 2332 03d5 67000000 		.4byte	.LASF71
 2333 03d9 0F       		.byte	0xf
 2334 03da 6B       		.byte	0x6b
 2335 03db DF030000 		.4byte	0x3df
 2336 03df 0F       		.uleb128 0xf
 2337 03e0 6F080000 		.4byte	.LASF72
 2338 03e4 1404     		.2byte	0x414
 2339 03e6 05       		.byte	0x5
 2340 03e7 A201     		.2byte	0x1a2
 2341 03e9 22040000 		.4byte	0x422
 2342 03ed 09       		.uleb128 0x9
 2343 03ee 75070000 		.4byte	.LASF73
ARM GAS  C:\Users\Luis\AppData\Local\Temp\ccMQOx1f.s 			page 43


 2344 03f2 05       		.byte	0x5
 2345 03f3 AA01     		.2byte	0x1aa
 2346 03f5 BB080000 		.4byte	0x8bb
 2347 03f9 00       		.byte	0
 2348 03fa 09       		.uleb128 0x9
 2349 03fb DE070000 		.4byte	.LASF74
 2350 03ff 05       		.byte	0x5
 2351 0400 AF01     		.2byte	0x1af
 2352 0402 04010000 		.4byte	0x104
 2353 0406 04       		.byte	0x4
 2354 0407 09       		.uleb128 0x9
 2355 0408 6B020000 		.4byte	.LASF75
 2356 040c 05       		.byte	0x5
 2357 040d B301     		.2byte	0x1b3
 2358 040f 04010000 		.4byte	0x104
 2359 0413 08       		.byte	0x8
 2360 0414 09       		.uleb128 0x9
 2361 0415 4F080000 		.4byte	.LASF76
 2362 0419 05       		.byte	0x5
 2363 041a B901     		.2byte	0x1b9
 2364 041c 1B070000 		.4byte	0x71b
 2365 0420 0C       		.byte	0xc
 2366 0421 00       		.byte	0
 2367 0422 03       		.uleb128 0x3
 2368 0423 5C030000 		.4byte	.LASF77
 2369 0427 0F       		.byte	0xf
 2370 0428 70       		.byte	0x70
 2371 0429 2D040000 		.4byte	0x42d
 2372 042d 0F       		.uleb128 0xf
 2373 042e BF010000 		.4byte	.LASF78
 2374 0432 E805     		.2byte	0x5e8
 2375 0434 05       		.byte	0x5
 2376 0435 C201     		.2byte	0x1c2
 2377 0437 9A040000 		.4byte	0x49a
 2378 043b 09       		.uleb128 0x9
 2379 043c EF070000 		.4byte	.LASF79
 2380 0440 05       		.byte	0x5
 2381 0441 C601     		.2byte	0x1c6
 2382 0443 A8020000 		.4byte	0x2a8
 2383 0447 00       		.byte	0
 2384 0448 09       		.uleb128 0x9
 2385 0449 60010000 		.4byte	.LASF80
 2386 044d 05       		.byte	0x5
 2387 044e CA01     		.2byte	0x1ca
 2388 0450 87030000 		.4byte	0x387
 2389 0454 1C       		.byte	0x1c
 2390 0455 08       		.uleb128 0x8
 2391 0456 64626700 		.ascii	"dbg\000"
 2392 045a 05       		.byte	0x5
 2393 045b CE01     		.2byte	0x1ce
 2394 045d D4030000 		.4byte	0x3d4
 2395 0461 2C       		.byte	0x2c
 2396 0462 10       		.uleb128 0x10
 2397 0463 D4000000 		.4byte	.LASF81
 2398 0467 05       		.byte	0x5
 2399 0468 D201     		.2byte	0x1d2
 2400 046a 25010000 		.4byte	0x125
ARM GAS  C:\Users\Luis\AppData\Local\Temp\ccMQOx1f.s 			page 44


 2401 046e 4004     		.2byte	0x440
 2402 0470 11       		.uleb128 0x11
 2403 0471 746D00   		.ascii	"tm\000"
 2404 0474 05       		.byte	0x5
 2405 0475 D701     		.2byte	0x1d7
 2406 0477 3B070000 		.4byte	0x73b
 2407 047b A804     		.2byte	0x4a8
 2408 047d 10       		.uleb128 0x10
 2409 047e 3D000000 		.4byte	.LASF82
 2410 0482 05       		.byte	0x5
 2411 0483 DD01     		.2byte	0x1dd
 2412 0485 CD070000 		.4byte	0x7cd
 2413 0489 B004     		.2byte	0x4b0
 2414 048b 10       		.uleb128 0x10
 2415 048c 74020000 		.4byte	.LASF83
 2416 0490 05       		.byte	0x5
 2417 0491 E301     		.2byte	0x1e3
 2418 0493 C0080000 		.4byte	0x8c0
 2419 0497 E804     		.2byte	0x4e8
 2420 0499 00       		.byte	0
 2421 049a 04       		.uleb128 0x4
 2422 049b 04       		.byte	0x4
 2423 049c 07       		.byte	0x7
 2424 049d CC030000 		.4byte	.LASF84
 2425 04a1 12       		.uleb128 0x12
 2426 04a2 77000000 		.4byte	0x77
 2427 04a6 B1040000 		.4byte	0x4b1
 2428 04aa 13       		.uleb128 0x13
 2429 04ab 9A040000 		.4byte	0x49a
 2430 04af 01       		.byte	0x1
 2431 04b0 00       		.byte	0
 2432 04b1 12       		.uleb128 0x12
 2433 04b2 77000000 		.4byte	0x77
 2434 04b6 C1040000 		.4byte	0x4c1
 2435 04ba 13       		.uleb128 0x13
 2436 04bb 9A040000 		.4byte	0x49a
 2437 04bf 03       		.byte	0x3
 2438 04c0 00       		.byte	0
 2439 04c1 03       		.uleb128 0x3
 2440 04c2 36020000 		.4byte	.LASF85
 2441 04c6 10       		.byte	0x10
 2442 04c7 65       		.byte	0x65
 2443 04c8 2B030000 		.4byte	0x32b
 2444 04cc 03       		.uleb128 0x3
 2445 04cd A1030000 		.4byte	.LASF86
 2446 04d1 10       		.byte	0x10
 2447 04d2 6D       		.byte	0x6d
 2448 04d3 90000000 		.4byte	0x90
 2449 04d7 06       		.uleb128 0x6
 2450 04d8 86070000 		.4byte	.LASF87
 2451 04dc 04       		.byte	0x4
 2452 04dd 10       		.byte	0x10
 2453 04de 89       		.byte	0x89
 2454 04df F0040000 		.4byte	0x4f0
 2455 04e3 14       		.uleb128 0x14
 2456 04e4 72313300 		.ascii	"r13\000"
 2457 04e8 10       		.byte	0x10
ARM GAS  C:\Users\Luis\AppData\Local\Temp\ccMQOx1f.s 			page 45


 2458 04e9 8A       		.byte	0x8a
 2459 04ea 6B050000 		.4byte	0x56b
 2460 04ee 00       		.byte	0
 2461 04ef 00       		.byte	0
 2462 04f0 06       		.uleb128 0x6
 2463 04f1 4A000000 		.4byte	.LASF88
 2464 04f5 24       		.byte	0x24
 2465 04f6 01       		.byte	0x1
 2466 04f7 F4       		.byte	0xf4
 2467 04f8 6B050000 		.4byte	0x56b
 2468 04fc 08       		.uleb128 0x8
 2469 04fd 723400   		.ascii	"r4\000"
 2470 0500 01       		.byte	0x1
 2471 0501 0701     		.2byte	0x107
 2472 0503 C1040000 		.4byte	0x4c1
 2473 0507 00       		.byte	0
 2474 0508 08       		.uleb128 0x8
 2475 0509 723500   		.ascii	"r5\000"
 2476 050c 01       		.byte	0x1
 2477 050d 0801     		.2byte	0x108
 2478 050f C1040000 		.4byte	0x4c1
 2479 0513 04       		.byte	0x4
 2480 0514 08       		.uleb128 0x8
 2481 0515 723600   		.ascii	"r6\000"
 2482 0518 01       		.byte	0x1
 2483 0519 0901     		.2byte	0x109
 2484 051b C1040000 		.4byte	0x4c1
 2485 051f 08       		.byte	0x8
 2486 0520 08       		.uleb128 0x8
 2487 0521 723700   		.ascii	"r7\000"
 2488 0524 01       		.byte	0x1
 2489 0525 0A01     		.2byte	0x10a
 2490 0527 C1040000 		.4byte	0x4c1
 2491 052b 0C       		.byte	0xc
 2492 052c 08       		.uleb128 0x8
 2493 052d 723800   		.ascii	"r8\000"
 2494 0530 01       		.byte	0x1
 2495 0531 0B01     		.2byte	0x10b
 2496 0533 C1040000 		.4byte	0x4c1
 2497 0537 10       		.byte	0x10
 2498 0538 08       		.uleb128 0x8
 2499 0539 723900   		.ascii	"r9\000"
 2500 053c 01       		.byte	0x1
 2501 053d 0C01     		.2byte	0x10c
 2502 053f C1040000 		.4byte	0x4c1
 2503 0543 14       		.byte	0x14
 2504 0544 08       		.uleb128 0x8
 2505 0545 72313000 		.ascii	"r10\000"
 2506 0549 01       		.byte	0x1
 2507 054a 0D01     		.2byte	0x10d
 2508 054c C1040000 		.4byte	0x4c1
 2509 0550 18       		.byte	0x18
 2510 0551 08       		.uleb128 0x8
 2511 0552 72313100 		.ascii	"r11\000"
 2512 0556 01       		.byte	0x1
 2513 0557 0E01     		.2byte	0x10e
 2514 0559 C1040000 		.4byte	0x4c1
ARM GAS  C:\Users\Luis\AppData\Local\Temp\ccMQOx1f.s 			page 46


 2515 055d 1C       		.byte	0x1c
 2516 055e 08       		.uleb128 0x8
 2517 055f 6C7200   		.ascii	"lr\000"
 2518 0562 01       		.byte	0x1
 2519 0563 0F01     		.2byte	0x10f
 2520 0565 C1040000 		.4byte	0x4c1
 2521 0569 20       		.byte	0x20
 2522 056a 00       		.byte	0
 2523 056b 0A       		.uleb128 0xa
 2524 056c 04       		.byte	0x4
 2525 056d F0040000 		.4byte	0x4f0
 2526 0571 15       		.uleb128 0x15
 2527 0572 60       		.byte	0x60
 2528 0573 11       		.byte	0x11
 2529 0574 9E01     		.2byte	0x19e
 2530 0576 7D060000 		.4byte	0x67d
 2531 057a 08       		.uleb128 0x8
 2532 057b 43523100 		.ascii	"CR1\000"
 2533 057f 11       		.byte	0x11
 2534 0580 9F01     		.2byte	0x19f
 2535 0582 A7000000 		.4byte	0xa7
 2536 0586 00       		.byte	0
 2537 0587 08       		.uleb128 0x8
 2538 0588 43523200 		.ascii	"CR2\000"
 2539 058c 11       		.byte	0x11
 2540 058d A001     		.2byte	0x1a0
 2541 058f A7000000 		.4byte	0xa7
 2542 0593 04       		.byte	0x4
 2543 0594 09       		.uleb128 0x9
 2544 0595 27030000 		.4byte	.LASF89
 2545 0599 11       		.byte	0x11
 2546 059a A101     		.2byte	0x1a1
 2547 059c A7000000 		.4byte	0xa7
 2548 05a0 08       		.byte	0x8
 2549 05a1 09       		.uleb128 0x9
 2550 05a2 14000000 		.4byte	.LASF90
 2551 05a6 11       		.byte	0x11
 2552 05a7 A201     		.2byte	0x1a2
 2553 05a9 A7000000 		.4byte	0xa7
 2554 05ad 0C       		.byte	0xc
 2555 05ae 08       		.uleb128 0x8
 2556 05af 535200   		.ascii	"SR\000"
 2557 05b2 11       		.byte	0x11
 2558 05b3 A301     		.2byte	0x1a3
 2559 05b5 A7000000 		.4byte	0xa7
 2560 05b9 10       		.byte	0x10
 2561 05ba 08       		.uleb128 0x8
 2562 05bb 45475200 		.ascii	"EGR\000"
 2563 05bf 11       		.byte	0x11
 2564 05c0 A401     		.2byte	0x1a4
 2565 05c2 A7000000 		.4byte	0xa7
 2566 05c6 14       		.byte	0x14
 2567 05c7 09       		.uleb128 0x9
 2568 05c8 2A010000 		.4byte	.LASF91
 2569 05cc 11       		.byte	0x11
 2570 05cd A501     		.2byte	0x1a5
 2571 05cf A7000000 		.4byte	0xa7
ARM GAS  C:\Users\Luis\AppData\Local\Temp\ccMQOx1f.s 			page 47


 2572 05d3 18       		.byte	0x18
 2573 05d4 09       		.uleb128 0x9
 2574 05d5 30010000 		.4byte	.LASF92
 2575 05d9 11       		.byte	0x11
 2576 05da A601     		.2byte	0x1a6
 2577 05dc A7000000 		.4byte	0xa7
 2578 05e0 1C       		.byte	0x1c
 2579 05e1 09       		.uleb128 0x9
 2580 05e2 E7010000 		.4byte	.LASF93
 2581 05e6 11       		.byte	0x11
 2582 05e7 A701     		.2byte	0x1a7
 2583 05e9 A7000000 		.4byte	0xa7
 2584 05ed 20       		.byte	0x20
 2585 05ee 08       		.uleb128 0x8
 2586 05ef 434E5400 		.ascii	"CNT\000"
 2587 05f3 11       		.byte	0x11
 2588 05f4 A801     		.2byte	0x1a8
 2589 05f6 A7000000 		.4byte	0xa7
 2590 05fa 24       		.byte	0x24
 2591 05fb 08       		.uleb128 0x8
 2592 05fc 50534300 		.ascii	"PSC\000"
 2593 0600 11       		.byte	0x11
 2594 0601 A901     		.2byte	0x1a9
 2595 0603 A7000000 		.4byte	0xa7
 2596 0607 28       		.byte	0x28
 2597 0608 08       		.uleb128 0x8
 2598 0609 41525200 		.ascii	"ARR\000"
 2599 060d 11       		.byte	0x11
 2600 060e AA01     		.2byte	0x1aa
 2601 0610 A7000000 		.4byte	0xa7
 2602 0614 2C       		.byte	0x2c
 2603 0615 08       		.uleb128 0x8
 2604 0616 52435200 		.ascii	"RCR\000"
 2605 061a 11       		.byte	0x11
 2606 061b AB01     		.2byte	0x1ab
 2607 061d A7000000 		.4byte	0xa7
 2608 0621 30       		.byte	0x30
 2609 0622 08       		.uleb128 0x8
 2610 0623 43435200 		.ascii	"CCR\000"
 2611 0627 11       		.byte	0x11
 2612 0628 AC01     		.2byte	0x1ac
 2613 062a 7D060000 		.4byte	0x67d
 2614 062e 34       		.byte	0x34
 2615 062f 09       		.uleb128 0x9
 2616 0630 02010000 		.4byte	.LASF94
 2617 0634 11       		.byte	0x11
 2618 0635 AD01     		.2byte	0x1ad
 2619 0637 A7000000 		.4byte	0xa7
 2620 063b 44       		.byte	0x44
 2621 063c 08       		.uleb128 0x8
 2622 063d 44435200 		.ascii	"DCR\000"
 2623 0641 11       		.byte	0x11
 2624 0642 AE01     		.2byte	0x1ae
 2625 0644 A7000000 		.4byte	0xa7
 2626 0648 48       		.byte	0x48
 2627 0649 09       		.uleb128 0x9
 2628 064a 2A060000 		.4byte	.LASF95
ARM GAS  C:\Users\Luis\AppData\Local\Temp\ccMQOx1f.s 			page 48


 2629 064e 11       		.byte	0x11
 2630 064f AF01     		.2byte	0x1af
 2631 0651 A7000000 		.4byte	0xa7
 2632 0655 4C       		.byte	0x4c
 2633 0656 08       		.uleb128 0x8
 2634 0657 4F5200   		.ascii	"OR\000"
 2635 065a 11       		.byte	0x11
 2636 065b B001     		.2byte	0x1b0
 2637 065d A7000000 		.4byte	0xa7
 2638 0661 50       		.byte	0x50
 2639 0662 09       		.uleb128 0x9
 2640 0663 36010000 		.4byte	.LASF96
 2641 0667 11       		.byte	0x11
 2642 0668 B101     		.2byte	0x1b1
 2643 066a A7000000 		.4byte	0xa7
 2644 066e 54       		.byte	0x54
 2645 066f 09       		.uleb128 0x9
 2646 0670 B9050000 		.4byte	.LASF97
 2647 0674 11       		.byte	0x11
 2648 0675 B201     		.2byte	0x1b2
 2649 0677 82060000 		.4byte	0x682
 2650 067b 58       		.byte	0x58
 2651 067c 00       		.byte	0
 2652 067d 05       		.uleb128 0x5
 2653 067e B1040000 		.4byte	0x4b1
 2654 0682 05       		.uleb128 0x5
 2655 0683 A1040000 		.4byte	0x4a1
 2656 0687 16       		.uleb128 0x16
 2657 0688 68030000 		.4byte	.LASF98
 2658 068c 11       		.byte	0x11
 2659 068d B301     		.2byte	0x1b3
 2660 068f 71050000 		.4byte	0x571
 2661 0693 17       		.uleb128 0x17
 2662 0694 10       		.byte	0x10
 2663 0695 12       		.byte	0x12
 2664 0696 51       		.byte	0x51
 2665 0697 CC060000 		.4byte	0x6cc
 2666 069b 07       		.uleb128 0x7
 2667 069c 48010000 		.4byte	.LASF99
 2668 06a0 12       		.byte	0x12
 2669 06a1 55       		.byte	0x55
 2670 06a2 1A010000 		.4byte	0x11a
 2671 06a6 00       		.byte	0
 2672 06a7 07       		.uleb128 0x7
 2673 06a8 EC010000 		.4byte	.LASF100
 2674 06ac 12       		.byte	0x12
 2675 06ad 59       		.byte	0x59
 2676 06ae 4E020000 		.4byte	0x24e
 2677 06b2 04       		.byte	0x4
 2678 06b3 07       		.uleb128 0x7
 2679 06b4 9E080000 		.4byte	.LASF101
 2680 06b8 12       		.byte	0x12
 2681 06b9 5D       		.byte	0x5d
 2682 06ba 2B030000 		.4byte	0x32b
 2683 06be 08       		.byte	0x8
 2684 06bf 07       		.uleb128 0x7
 2685 06c0 C2000000 		.4byte	.LASF102
ARM GAS  C:\Users\Luis\AppData\Local\Temp\ccMQOx1f.s 			page 49


 2686 06c4 12       		.byte	0x12
 2687 06c5 61       		.byte	0x61
 2688 06c6 45000000 		.4byte	0x45
 2689 06ca 0C       		.byte	0xc
 2690 06cb 00       		.byte	0
 2691 06cc 03       		.uleb128 0x3
 2692 06cd 1B040000 		.4byte	.LASF103
 2693 06d1 12       		.byte	0x12
 2694 06d2 62       		.byte	0x62
 2695 06d3 93060000 		.4byte	0x693
 2696 06d7 18       		.uleb128 0x18
 2697 06d8 0804     		.2byte	0x408
 2698 06da 12       		.byte	0x12
 2699 06db 67       		.byte	0x67
 2700 06dc 05070000 		.4byte	0x705
 2701 06e0 07       		.uleb128 0x7
 2702 06e1 1E020000 		.4byte	.LASF104
 2703 06e5 12       		.byte	0x12
 2704 06e6 6B       		.byte	0x6b
 2705 06e7 37000000 		.4byte	0x37
 2706 06eb 00       		.byte	0
 2707 06ec 07       		.uleb128 0x7
 2708 06ed 00000000 		.4byte	.LASF105
 2709 06f1 12       		.byte	0x12
 2710 06f2 6F       		.byte	0x6f
 2711 06f3 05070000 		.4byte	0x705
 2712 06f7 04       		.byte	0x4
 2713 06f8 07       		.uleb128 0x7
 2714 06f9 C1040000 		.4byte	.LASF106
 2715 06fd 12       		.byte	0x12
 2716 06fe 73       		.byte	0x73
 2717 06ff 0B070000 		.4byte	0x70b
 2718 0703 08       		.byte	0x8
 2719 0704 00       		.byte	0
 2720 0705 0A       		.uleb128 0xa
 2721 0706 04       		.byte	0x4
 2722 0707 CC060000 		.4byte	0x6cc
 2723 070b 12       		.uleb128 0x12
 2724 070c CC060000 		.4byte	0x6cc
 2725 0710 1B070000 		.4byte	0x71b
 2726 0714 13       		.uleb128 0x13
 2727 0715 9A040000 		.4byte	0x49a
 2728 0719 3F       		.byte	0x3f
 2729 071a 00       		.byte	0
 2730 071b 03       		.uleb128 0x3
 2731 071c B0000000 		.4byte	.LASF107
 2732 0720 12       		.byte	0x12
 2733 0721 74       		.byte	0x74
 2734 0722 D7060000 		.4byte	0x6d7
 2735 0726 17       		.uleb128 0x17
 2736 0727 04       		.byte	0x4
 2737 0728 13       		.byte	0x13
 2738 0729 38       		.byte	0x38
 2739 072a 3B070000 		.4byte	0x73b
 2740 072e 07       		.uleb128 0x7
 2741 072f 7F070000 		.4byte	.LASF108
 2742 0733 13       		.byte	0x13
ARM GAS  C:\Users\Luis\AppData\Local\Temp\ccMQOx1f.s 			page 50


 2743 0734 3C       		.byte	0x3c
 2744 0735 AC000000 		.4byte	0xac
 2745 0739 00       		.byte	0
 2746 073a 00       		.byte	0
 2747 073b 03       		.uleb128 0x3
 2748 073c E8030000 		.4byte	.LASF109
 2749 0740 13       		.byte	0x13
 2750 0741 3D       		.byte	0x3d
 2751 0742 26070000 		.4byte	0x726
 2752 0746 17       		.uleb128 0x17
 2753 0747 18       		.byte	0x18
 2754 0748 13       		.byte	0x13
 2755 0749 48       		.byte	0x48
 2756 074a 89070000 		.4byte	0x789
 2757 074e 07       		.uleb128 0x7
 2758 074f 0C070000 		.4byte	.LASF110
 2759 0753 13       		.byte	0x13
 2760 0754 49       		.byte	0x49
 2761 0755 AC000000 		.4byte	0xac
 2762 0759 00       		.byte	0
 2763 075a 07       		.uleb128 0x7
 2764 075b 80000000 		.4byte	.LASF111
 2765 075f 13       		.byte	0x13
 2766 0760 4A       		.byte	0x4a
 2767 0761 AC000000 		.4byte	0xac
 2768 0765 04       		.byte	0x4
 2769 0766 07       		.uleb128 0x7
 2770 0767 50030000 		.4byte	.LASF112
 2771 076b 13       		.byte	0x13
 2772 076c 4B       		.byte	0x4b
 2773 076d AC000000 		.4byte	0xac
 2774 0771 08       		.byte	0x8
 2775 0772 14       		.uleb128 0x14
 2776 0773 6E00     		.ascii	"n\000"
 2777 0775 13       		.byte	0x13
 2778 0776 4C       		.byte	0x4c
 2779 0777 0F010000 		.4byte	0x10f
 2780 077b 0C       		.byte	0xc
 2781 077c 07       		.uleb128 0x7
 2782 077d AE040000 		.4byte	.LASF113
 2783 0781 13       		.byte	0x13
 2784 0782 4D       		.byte	0x4d
 2785 0783 B7000000 		.4byte	0xb7
 2786 0787 10       		.byte	0x10
 2787 0788 00       		.byte	0
 2788 0789 03       		.uleb128 0x3
 2789 078a 86000000 		.4byte	.LASF114
 2790 078e 13       		.byte	0x13
 2791 078f 4E       		.byte	0x4e
 2792 0790 46070000 		.4byte	0x746
 2793 0794 17       		.uleb128 0x17
 2794 0795 38       		.byte	0x38
 2795 0796 14       		.byte	0x14
 2796 0797 38       		.byte	0x38
 2797 0798 CD070000 		.4byte	0x7cd
 2798 079c 07       		.uleb128 0x7
 2799 079d 16030000 		.4byte	.LASF115
ARM GAS  C:\Users\Luis\AppData\Local\Temp\ccMQOx1f.s 			page 51


 2800 07a1 14       		.byte	0x14
 2801 07a2 39       		.byte	0x39
 2802 07a3 0F010000 		.4byte	0x10f
 2803 07a7 00       		.byte	0
 2804 07a8 07       		.uleb128 0x7
 2805 07a9 FD040000 		.4byte	.LASF116
 2806 07ad 14       		.byte	0x14
 2807 07ae 3A       		.byte	0x3a
 2808 07af 0F010000 		.4byte	0x10f
 2809 07b3 04       		.byte	0x4
 2810 07b4 07       		.uleb128 0x7
 2811 07b5 8B080000 		.4byte	.LASF117
 2812 07b9 14       		.byte	0x14
 2813 07ba 3B       		.byte	0x3b
 2814 07bb 89070000 		.4byte	0x789
 2815 07bf 08       		.byte	0x8
 2816 07c0 07       		.uleb128 0x7
 2817 07c1 7C030000 		.4byte	.LASF118
 2818 07c5 14       		.byte	0x14
 2819 07c6 3D       		.byte	0x3d
 2820 07c7 89070000 		.4byte	0x789
 2821 07cb 20       		.byte	0x20
 2822 07cc 00       		.byte	0
 2823 07cd 03       		.uleb128 0x3
 2824 07ce 2C030000 		.4byte	.LASF119
 2825 07d2 14       		.byte	0x14
 2826 07d3 3F       		.byte	0x3f
 2827 07d4 94070000 		.4byte	0x794
 2828 07d8 19       		.uleb128 0x19
 2829 07d9 04       		.byte	0x4
 2830 07da 05       		.byte	0x5
 2831 07db FA       		.byte	0xfa
 2832 07dc 35080000 		.4byte	0x835
 2833 07e0 1A       		.uleb128 0x1a
 2834 07e1 20000000 		.4byte	.LASF120
 2835 07e5 05       		.byte	0x5
 2836 07e6 0101     		.2byte	0x101
 2837 07e8 EE000000 		.4byte	0xee
 2838 07ec 1A       		.uleb128 0x1a
 2839 07ed CB000000 		.4byte	.LASF121
 2840 07f1 05       		.byte	0x5
 2841 07f2 0801     		.2byte	0x108
 2842 07f4 EE000000 		.4byte	0xee
 2843 07f8 1A       		.uleb128 0x1a
 2844 07f9 19080000 		.4byte	.LASF122
 2845 07fd 05       		.byte	0x5
 2846 07fe 0F01     		.2byte	0x10f
 2847 0800 2B030000 		.4byte	0x32b
 2848 0804 1A       		.uleb128 0x1a
 2849 0805 B9010000 		.4byte	.LASF123
 2850 0809 05       		.byte	0x5
 2851 080a 1601     		.2byte	0x116
 2852 080c 35080000 		.4byte	0x835
 2853 0810 1A       		.uleb128 0x1a
 2854 0811 C9020000 		.4byte	.LASF124
 2855 0815 05       		.byte	0x5
 2856 0816 1E01     		.2byte	0x11e
ARM GAS  C:\Users\Luis\AppData\Local\Temp\ccMQOx1f.s 			page 52


 2857 0818 60080000 		.4byte	0x860
 2858 081c 1A       		.uleb128 0x1a
 2859 081d E5050000 		.4byte	.LASF125
 2860 0821 05       		.byte	0x5
 2861 0822 2701     		.2byte	0x127
 2862 0824 97080000 		.4byte	0x897
 2863 0828 1A       		.uleb128 0x1a
 2864 0829 55050000 		.4byte	.LASF126
 2865 082d 05       		.byte	0x5
 2866 082e 2F01     		.2byte	0x12f
 2867 0830 F9000000 		.4byte	0xf9
 2868 0834 00       		.byte	0
 2869 0835 0A       		.uleb128 0xa
 2870 0836 04       		.byte	0x4
 2871 0837 43020000 		.4byte	0x243
 2872 083b 06       		.uleb128 0x6
 2873 083c AC050000 		.4byte	.LASF127
 2874 0840 0C       		.byte	0xc
 2875 0841 09       		.byte	0x9
 2876 0842 34       		.byte	0x34
 2877 0843 60080000 		.4byte	0x860
 2878 0847 07       		.uleb128 0x7
 2879 0848 16020000 		.4byte	.LASF128
 2880 084c 09       		.byte	0x9
 2881 084d 35       		.byte	0x35
 2882 084e 78020000 		.4byte	0x278
 2883 0852 00       		.byte	0
 2884 0853 07       		.uleb128 0x7
 2885 0854 1C030000 		.4byte	.LASF129
 2886 0858 09       		.byte	0x9
 2887 0859 37       		.byte	0x37
 2888 085a 04010000 		.4byte	0x104
 2889 085e 08       		.byte	0x8
 2890 085f 00       		.byte	0
 2891 0860 0A       		.uleb128 0xa
 2892 0861 04       		.byte	0x4
 2893 0862 3B080000 		.4byte	0x83b
 2894 0866 06       		.uleb128 0x6
 2895 0867 CE070000 		.4byte	.LASF130
 2896 086b 10       		.byte	0x10
 2897 086c 15       		.byte	0x15
 2898 086d 39       		.byte	0x39
 2899 086e 97080000 		.4byte	0x897
 2900 0872 07       		.uleb128 0x7
 2901 0873 50010000 		.4byte	.LASF131
 2902 0877 15       		.byte	0x15
 2903 0878 3A       		.byte	0x3a
 2904 0879 78020000 		.4byte	0x278
 2905 087d 00       		.byte	0
 2906 087e 07       		.uleb128 0x7
 2907 087f 96080000 		.4byte	.LASF132
 2908 0883 15       		.byte	0x15
 2909 0884 3C       		.byte	0x3c
 2910 0885 4E020000 		.4byte	0x24e
 2911 0889 08       		.byte	0x8
 2912 088a 07       		.uleb128 0x7
 2913 088b 31070000 		.4byte	.LASF133
ARM GAS  C:\Users\Luis\AppData\Local\Temp\ccMQOx1f.s 			page 53


 2914 088f 15       		.byte	0x15
 2915 0890 3E       		.byte	0x3e
 2916 0891 06090000 		.4byte	0x906
 2917 0895 0C       		.byte	0xc
 2918 0896 00       		.byte	0
 2919 0897 0A       		.uleb128 0xa
 2920 0898 04       		.byte	0x4
 2921 0899 66080000 		.4byte	0x866
 2922 089d 0A       		.uleb128 0xa
 2923 089e 04       		.byte	0x4
 2924 089f A3080000 		.4byte	0x8a3
 2925 08a3 1B       		.uleb128 0x1b
 2926 08a4 A8080000 		.4byte	0x8a8
 2927 08a8 04       		.uleb128 0x4
 2928 08a9 01       		.byte	0x1
 2929 08aa 08       		.byte	0x8
 2930 08ab 1F060000 		.4byte	.LASF134
 2931 08af 0A       		.uleb128 0xa
 2932 08b0 04       		.byte	0x4
 2933 08b1 CC040000 		.4byte	0x4cc
 2934 08b5 0A       		.uleb128 0xa
 2935 08b6 04       		.byte	0x4
 2936 08b7 2D030000 		.4byte	0x32d
 2937 08bb 05       		.uleb128 0x5
 2938 08bc 9D080000 		.4byte	0x89d
 2939 08c0 12       		.uleb128 0x12
 2940 08c1 CC040000 		.4byte	0x4cc
 2941 08c5 D0080000 		.4byte	0x8d0
 2942 08c9 13       		.uleb128 0x13
 2943 08ca 9A040000 		.4byte	0x49a
 2944 08ce 1F       		.byte	0x1f
 2945 08cf 00       		.byte	0
 2946 08d0 03       		.uleb128 0x3
 2947 08d1 86050000 		.4byte	.LASF135
 2948 08d5 09       		.byte	0x9
 2949 08d6 38       		.byte	0x38
 2950 08d7 3B080000 		.4byte	0x83b
 2951 08db 17       		.uleb128 0x17
 2952 08dc 0C       		.byte	0xc
 2953 08dd 0A       		.byte	0xa
 2954 08de 4B       		.byte	0x4b
 2955 08df F0080000 		.4byte	0x8f0
 2956 08e3 07       		.uleb128 0x7
 2957 08e4 5C080000 		.4byte	.LASF136
 2958 08e8 0A       		.byte	0xa
 2959 08e9 4C       		.byte	0x4c
 2960 08ea D0080000 		.4byte	0x8d0
 2961 08ee 00       		.byte	0
 2962 08ef 00       		.byte	0
 2963 08f0 03       		.uleb128 0x3
 2964 08f1 E2040000 		.4byte	.LASF137
 2965 08f5 0A       		.byte	0xa
 2966 08f6 4D       		.byte	0x4d
 2967 08f7 DB080000 		.4byte	0x8db
 2968 08fb 03       		.uleb128 0x3
 2969 08fc 5D020000 		.4byte	.LASF138
 2970 0900 15       		.byte	0x15
ARM GAS  C:\Users\Luis\AppData\Local\Temp\ccMQOx1f.s 			page 54


 2971 0901 34       		.byte	0x34
 2972 0902 66080000 		.4byte	0x866
 2973 0906 0A       		.uleb128 0xa
 2974 0907 04       		.byte	0x4
 2975 0908 FB080000 		.4byte	0x8fb
 2976 090c 06       		.uleb128 0x6
 2977 090d A3050000 		.4byte	.LASF139
 2978 0911 10       		.byte	0x10
 2979 0912 16       		.byte	0x16
 2980 0913 3B       		.byte	0x3b
 2981 0914 49090000 		.4byte	0x949
 2982 0918 07       		.uleb128 0x7
 2983 0919 22030000 		.4byte	.LASF140
 2984 091d 16       		.byte	0x16
 2985 091e 3C       		.byte	0x3c
 2986 091f 9D080000 		.4byte	0x89d
 2987 0923 00       		.byte	0
 2988 0924 07       		.uleb128 0x7
 2989 0925 79040000 		.4byte	.LASF141
 2990 0929 16       		.byte	0x16
 2991 092a 3D       		.byte	0x3d
 2992 092b 4A090000 		.4byte	0x94a
 2993 092f 04       		.byte	0x4
 2994 0930 07       		.uleb128 0x7
 2995 0931 06030000 		.4byte	.LASF142
 2996 0935 16       		.byte	0x16
 2997 0936 3E       		.byte	0x3e
 2998 0937 4A090000 		.4byte	0x94a
 2999 093b 08       		.byte	0x8
 3000 093c 07       		.uleb128 0x7
 3001 093d 22050000 		.4byte	.LASF143
 3002 0941 16       		.byte	0x16
 3003 0942 3F       		.byte	0x3f
 3004 0943 4A090000 		.4byte	0x94a
 3005 0947 0C       		.byte	0xc
 3006 0948 00       		.byte	0
 3007 0949 1C       		.uleb128 0x1c
 3008 094a 0A       		.uleb128 0xa
 3009 094b 04       		.byte	0x4
 3010 094c 49090000 		.4byte	0x949
 3011 0950 1D       		.uleb128 0x1d
 3012 0951 67070000 		.4byte	.LASF189
 3013 0955 02       		.byte	0x2
 3014 0956 2002     		.2byte	0x220
 3015 0958 03       		.byte	0x3
 3016 0959 6A090000 		.4byte	0x96a
 3017 095d 1E       		.uleb128 0x1e
 3018 095e 65020000 		.4byte	.LASF190
 3019 0962 02       		.byte	0x2
 3020 0963 2002     		.2byte	0x220
 3021 0965 77000000 		.4byte	0x77
 3022 0969 00       		.byte	0
 3023 096a 1F       		.uleb128 0x1f
 3024 096b 76000000 		.4byte	.LASF144
 3025 096f 01       		.byte	0x1
 3026 0970 BC01     		.2byte	0x1bc
 3027 0972 00000000 		.4byte	.LFB116
ARM GAS  C:\Users\Luis\AppData\Local\Temp\ccMQOx1f.s 			page 55


 3028 0976 1A000000 		.4byte	.LFE116-.LFB116
 3029 097a 01       		.uleb128 0x1
 3030 097b 9C       		.byte	0x9c
 3031 097c 9A090000 		.4byte	0x99a
 3032 0980 20       		.uleb128 0x20
 3033 0981 50090000 		.4byte	0x950
 3034 0985 0A000000 		.4byte	.LBB6
 3035 0989 06000000 		.4byte	.LBE6-.LBB6
 3036 098d 01       		.byte	0x1
 3037 098e BF01     		.2byte	0x1bf
 3038 0990 21       		.uleb128 0x21
 3039 0991 5D090000 		.4byte	0x95d
 3040 0995 02       		.uleb128 0x2
 3041 0996 91       		.byte	0x91
 3042 0997 74       		.sleb128 -12
 3043 0998 00       		.byte	0
 3044 0999 00       		.byte	0
 3045 099a 1F       		.uleb128 0x1f
 3046 099b 67010000 		.4byte	.LASF145
 3047 099f 01       		.byte	0x1
 3048 09a0 CA01     		.2byte	0x1ca
 3049 09a2 00000000 		.4byte	.LFB117
 3050 09a6 1A000000 		.4byte	.LFE117-.LFB117
 3051 09aa 01       		.uleb128 0x1
 3052 09ab 9C       		.byte	0x9c
 3053 09ac CA090000 		.4byte	0x9ca
 3054 09b0 20       		.uleb128 0x20
 3055 09b1 50090000 		.4byte	0x950
 3056 09b5 0A000000 		.4byte	.LBB8
 3057 09b9 06000000 		.4byte	.LBE8-.LBB8
 3058 09bd 01       		.byte	0x1
 3059 09be CD01     		.2byte	0x1cd
 3060 09c0 21       		.uleb128 0x21
 3061 09c1 5D090000 		.4byte	0x95d
 3062 09c5 02       		.uleb128 0x2
 3063 09c6 91       		.byte	0x91
 3064 09c7 74       		.sleb128 -12
 3065 09c8 00       		.byte	0
 3066 09c9 00       		.byte	0
 3067 09ca 22       		.uleb128 0x22
 3068 09cb C9050000 		.4byte	.LASF146
 3069 09cf 03       		.byte	0x3
 3070 09d0 7F       		.byte	0x7f
 3071 09d1 1A010000 		.4byte	0x11a
 3072 09d5 00000000 		.4byte	.LFB125
 3073 09d9 14000000 		.4byte	.LFE125-.LFB125
 3074 09dd 01       		.uleb128 0x1
 3075 09de 9C       		.byte	0x9c
 3076 09df 23       		.uleb128 0x23
 3077 09e0 8E070000 		.4byte	.LASF147
 3078 09e4 04       		.byte	0x4
 3079 09e5 69       		.byte	0x69
 3080 09e6 1A010000 		.4byte	0x11a
 3081 09ea 00000000 		.4byte	.LFB134
 3082 09ee 0E000000 		.4byte	.LFE134-.LFB134
 3083 09f2 01       		.uleb128 0x1
 3084 09f3 9C       		.byte	0x9c
ARM GAS  C:\Users\Luis\AppData\Local\Temp\ccMQOx1f.s 			page 56


 3085 09f4 24       		.uleb128 0x24
 3086 09f5 08020000 		.4byte	.LASF151
 3087 09f9 05       		.byte	0x5
 3088 09fa 6802     		.2byte	0x268
 3089 09fc 1E0A0000 		.4byte	0xa1e
 3090 0a00 00000000 		.4byte	.LFB140
 3091 0a04 24000000 		.4byte	.LFE140-.LFB140
 3092 0a08 01       		.uleb128 0x1
 3093 0a09 9C       		.byte	0x9c
 3094 0a0a 1E0A0000 		.4byte	0xa1e
 3095 0a0e 25       		.uleb128 0x25
 3096 0a0f 74717000 		.ascii	"tqp\000"
 3097 0a13 05       		.byte	0x5
 3098 0a14 6802     		.2byte	0x268
 3099 0a16 250A0000 		.4byte	0xa25
 3100 0a1a 02       		.uleb128 0x2
 3101 0a1b 91       		.byte	0x91
 3102 0a1c 74       		.sleb128 -12
 3103 0a1d 00       		.byte	0
 3104 0a1e 04       		.uleb128 0x4
 3105 0a1f 01       		.byte	0x1
 3106 0a20 02       		.byte	0x2
 3107 0a21 06050000 		.4byte	.LASF148
 3108 0a25 0A       		.uleb128 0xa
 3109 0a26 04       		.byte	0x4
 3110 0a27 2B0A0000 		.4byte	0xa2b
 3111 0a2b 1B       		.uleb128 0x1b
 3112 0a2c 78020000 		.4byte	0x278
 3113 0a30 26       		.uleb128 0x26
 3114 0a31 7C050000 		.4byte	.LASF163
 3115 0a35 06       		.byte	0x6
 3116 0a36 5A01     		.2byte	0x15a
 3117 0a38 00000000 		.4byte	.LFB156
 3118 0a3c 12000000 		.4byte	.LFE156-.LFB156
 3119 0a40 01       		.uleb128 0x1
 3120 0a41 9C       		.byte	0x9c
 3121 0a42 27       		.uleb128 0x27
 3122 0a43 63080000 		.4byte	.LASF149
 3123 0a47 06       		.byte	0x6
 3124 0a48 6601     		.2byte	0x166
 3125 0a4a 00000000 		.4byte	.LFB157
 3126 0a4e 3C000000 		.4byte	.LFE157-.LFB157
 3127 0a52 01       		.uleb128 0x1
 3128 0a53 9C       		.byte	0x9c
 3129 0a54 680A0000 		.4byte	0xa68
 3130 0a58 28       		.uleb128 0x28
 3131 0a59 6B050000 		.4byte	.LASF191
 3132 0a5d 780A0000 		.4byte	0xa78
 3133 0a61 05       		.uleb128 0x5
 3134 0a62 03       		.byte	0x3
 3135 0a63 00000000 		.4byte	__func__.5842
 3136 0a67 00       		.byte	0
 3137 0a68 12       		.uleb128 0x12
 3138 0a69 A8080000 		.4byte	0x8a8
 3139 0a6d 780A0000 		.4byte	0xa78
 3140 0a71 13       		.uleb128 0x13
 3141 0a72 9A040000 		.4byte	0x49a
ARM GAS  C:\Users\Luis\AppData\Local\Temp\ccMQOx1f.s 			page 57


 3142 0a76 0B       		.byte	0xb
 3143 0a77 00       		.byte	0
 3144 0a78 1B       		.uleb128 0x1b
 3145 0a79 680A0000 		.4byte	0xa68
 3146 0a7d 23       		.uleb128 0x23
 3147 0a7e 89020000 		.4byte	.LASF150
 3148 0a82 07       		.byte	0x7
 3149 0a83 E4       		.byte	0xe4
 3150 0a84 1A010000 		.4byte	0x11a
 3151 0a88 00000000 		.4byte	.LFB164
 3152 0a8c 0E000000 		.4byte	.LFE164-.LFB164
 3153 0a90 01       		.uleb128 0x1
 3154 0a91 9C       		.byte	0x9c
 3155 0a92 29       		.uleb128 0x29
 3156 0a93 7F040000 		.4byte	.LASF152
 3157 0a97 07       		.byte	0x7
 3158 0a98 F7       		.byte	0xf7
 3159 0a99 1A010000 		.4byte	0x11a
 3160 0a9d 00000000 		.4byte	.LFB165
 3161 0aa1 1E000000 		.4byte	.LFE165-.LFB165
 3162 0aa5 01       		.uleb128 0x1
 3163 0aa6 9C       		.byte	0x9c
 3164 0aa7 BA0A0000 		.4byte	0xaba
 3165 0aab 2A       		.uleb128 0x2a
 3166 0aac 74030000 		.4byte	.LASF170
 3167 0ab0 07       		.byte	0x7
 3168 0ab1 F8       		.byte	0xf8
 3169 0ab2 1A010000 		.4byte	0x11a
 3170 0ab6 02       		.uleb128 0x2
 3171 0ab7 91       		.byte	0x91
 3172 0ab8 74       		.sleb128 -12
 3173 0ab9 00       		.byte	0
 3174 0aba 22       		.uleb128 0x22
 3175 0abb F5070000 		.4byte	.LASF153
 3176 0abf 08       		.byte	0x8
 3177 0ac0 AE       		.byte	0xae
 3178 0ac1 4E020000 		.4byte	0x24e
 3179 0ac5 00000000 		.4byte	.LFB177
 3180 0ac9 18000000 		.4byte	.LFE177-.LFB177
 3181 0acd 01       		.uleb128 0x1
 3182 0ace 9C       		.byte	0x9c
 3183 0acf 23       		.uleb128 0x23
 3184 0ad0 67040000 		.4byte	.LASF154
 3185 0ad4 08       		.byte	0x8
 3186 0ad5 BB       		.byte	0xbb
 3187 0ad6 E3000000 		.4byte	0xe3
 3188 0ada 00000000 		.4byte	.LFB178
 3189 0ade 10000000 		.4byte	.LFE178-.LFB178
 3190 0ae2 01       		.uleb128 0x1
 3191 0ae3 9C       		.byte	0x9c
 3192 0ae4 29       		.uleb128 0x29
 3193 0ae5 56070000 		.4byte	.LASF155
 3194 0ae9 09       		.byte	0x9
 3195 0aea 95       		.byte	0x95
 3196 0aeb 04010000 		.4byte	0x104
 3197 0aef 00000000 		.4byte	.LFB191
 3198 0af3 18000000 		.4byte	.LFE191-.LFB191
ARM GAS  C:\Users\Luis\AppData\Local\Temp\ccMQOx1f.s 			page 58


 3199 0af7 01       		.uleb128 0x1
 3200 0af8 9C       		.byte	0x9c
 3201 0af9 0B0B0000 		.4byte	0xb0b
 3202 0afd 2B       		.uleb128 0x2b
 3203 0afe 737000   		.ascii	"sp\000"
 3204 0b01 09       		.byte	0x9
 3205 0b02 95       		.byte	0x95
 3206 0b03 0B0B0000 		.4byte	0xb0b
 3207 0b07 02       		.uleb128 0x2
 3208 0b08 91       		.byte	0x91
 3209 0b09 74       		.sleb128 -12
 3210 0b0a 00       		.byte	0
 3211 0b0b 0A       		.uleb128 0xa
 3212 0b0c 04       		.byte	0x4
 3213 0b0d D0080000 		.4byte	0x8d0
 3214 0b11 2C       		.uleb128 0x2c
 3215 0b12 27080000 		.4byte	.LASF156
 3216 0b16 0A       		.byte	0xa
 3217 0b17 7C       		.byte	0x7c
 3218 0b18 00000000 		.4byte	.LFB192
 3219 0b1c 28000000 		.4byte	.LFE192-.LFB192
 3220 0b20 01       		.uleb128 0x1
 3221 0b21 9C       		.byte	0x9c
 3222 0b22 430B0000 		.4byte	0xb43
 3223 0b26 2B       		.uleb128 0x2b
 3224 0b27 62737000 		.ascii	"bsp\000"
 3225 0b2b 0A       		.byte	0xa
 3226 0b2c 7C       		.byte	0x7c
 3227 0b2d 430B0000 		.4byte	0xb43
 3228 0b31 02       		.uleb128 0x2
 3229 0b32 91       		.byte	0x91
 3230 0b33 74       		.sleb128 -12
 3231 0b34 2D       		.uleb128 0x2d
 3232 0b35 57020000 		.4byte	.LASF157
 3233 0b39 0A       		.byte	0xa
 3234 0b3a 7C       		.byte	0x7c
 3235 0b3b 1E0A0000 		.4byte	0xa1e
 3236 0b3f 02       		.uleb128 0x2
 3237 0b40 91       		.byte	0x91
 3238 0b41 73       		.sleb128 -13
 3239 0b42 00       		.byte	0
 3240 0b43 0A       		.uleb128 0xa
 3241 0b44 04       		.byte	0x4
 3242 0b45 F0080000 		.4byte	0x8f0
 3243 0b49 29       		.uleb128 0x29
 3244 0b4a 2F060000 		.4byte	.LASF158
 3245 0b4e 0A       		.byte	0xa
 3246 0b4f 8D       		.byte	0x8d
 3247 0b50 EE000000 		.4byte	0xee
 3248 0b54 00000000 		.4byte	.LFB193
 3249 0b58 1A000000 		.4byte	.LFE193-.LFB193
 3250 0b5c 01       		.uleb128 0x1
 3251 0b5d 9C       		.byte	0x9c
 3252 0b5e 710B0000 		.4byte	0xb71
 3253 0b62 2B       		.uleb128 0x2b
 3254 0b63 62737000 		.ascii	"bsp\000"
 3255 0b67 0A       		.byte	0xa
ARM GAS  C:\Users\Luis\AppData\Local\Temp\ccMQOx1f.s 			page 59


 3256 0b68 8D       		.byte	0x8d
 3257 0b69 430B0000 		.4byte	0xb43
 3258 0b6d 02       		.uleb128 0x2
 3259 0b6e 91       		.byte	0x91
 3260 0b6f 74       		.sleb128 -12
 3261 0b70 00       		.byte	0
 3262 0b71 2C       		.uleb128 0x2c
 3263 0b72 7F080000 		.4byte	.LASF159
 3264 0b76 0A       		.byte	0xa
 3265 0b77 FD       		.byte	0xfd
 3266 0b78 00000000 		.4byte	.LFB198
 3267 0b7c 28000000 		.4byte	.LFE198-.LFB198
 3268 0b80 01       		.uleb128 0x1
 3269 0b81 9C       		.byte	0x9c
 3270 0b82 A30B0000 		.4byte	0xba3
 3271 0b86 2B       		.uleb128 0x2b
 3272 0b87 62737000 		.ascii	"bsp\000"
 3273 0b8b 0A       		.byte	0xa
 3274 0b8c FD       		.byte	0xfd
 3275 0b8d 430B0000 		.4byte	0xb43
 3276 0b91 02       		.uleb128 0x2
 3277 0b92 91       		.byte	0x91
 3278 0b93 74       		.sleb128 -12
 3279 0b94 2D       		.uleb128 0x2d
 3280 0b95 57020000 		.4byte	.LASF157
 3281 0b99 0A       		.byte	0xa
 3282 0b9a FD       		.byte	0xfd
 3283 0b9b 1E0A0000 		.4byte	0xa1e
 3284 0b9f 02       		.uleb128 0x2
 3285 0ba0 91       		.byte	0x91
 3286 0ba1 73       		.sleb128 -13
 3287 0ba2 00       		.byte	0
 3288 0ba3 27       		.uleb128 0x27
 3289 0ba4 0B080000 		.4byte	.LASF160
 3290 0ba8 0A       		.byte	0xa
 3291 0ba9 0A01     		.2byte	0x10a
 3292 0bab 00000000 		.4byte	.LFB199
 3293 0baf 22000000 		.4byte	.LFE199-.LFB199
 3294 0bb3 01       		.uleb128 0x1
 3295 0bb4 9C       		.byte	0x9c
 3296 0bb5 C90B0000 		.4byte	0xbc9
 3297 0bb9 25       		.uleb128 0x25
 3298 0bba 62737000 		.ascii	"bsp\000"
 3299 0bbe 0A       		.byte	0xa
 3300 0bbf 0A01     		.2byte	0x10a
 3301 0bc1 430B0000 		.4byte	0xb43
 3302 0bc5 02       		.uleb128 0x2
 3303 0bc6 91       		.byte	0x91
 3304 0bc7 74       		.sleb128 -12
 3305 0bc8 00       		.byte	0
 3306 0bc9 27       		.uleb128 0x27
 3307 0bca AC010000 		.4byte	.LASF161
 3308 0bce 0A       		.byte	0xa
 3309 0bcf 1A01     		.2byte	0x11a
 3310 0bd1 00000000 		.4byte	.LFB200
 3311 0bd5 20000000 		.4byte	.LFE200-.LFB200
 3312 0bd9 01       		.uleb128 0x1
ARM GAS  C:\Users\Luis\AppData\Local\Temp\ccMQOx1f.s 			page 60


 3313 0bda 9C       		.byte	0x9c
 3314 0bdb EF0B0000 		.4byte	0xbef
 3315 0bdf 25       		.uleb128 0x25
 3316 0be0 62737000 		.ascii	"bsp\000"
 3317 0be4 0A       		.byte	0xa
 3318 0be5 1A01     		.2byte	0x11a
 3319 0be7 430B0000 		.4byte	0xb43
 3320 0beb 02       		.uleb128 0x2
 3321 0bec 91       		.byte	0x91
 3322 0bed 74       		.sleb128 -12
 3323 0bee 00       		.byte	0
 3324 0bef 2E       		.uleb128 0x2e
 3325 0bf0 F6020000 		.4byte	.LASF162
 3326 0bf4 0A       		.byte	0xa
 3327 0bf5 2C01     		.2byte	0x12c
 3328 0bf7 1E0A0000 		.4byte	0xa1e
 3329 0bfb 00000000 		.4byte	.LFB201
 3330 0bff 22000000 		.4byte	.LFE201-.LFB201
 3331 0c03 01       		.uleb128 0x1
 3332 0c04 9C       		.byte	0x9c
 3333 0c05 190C0000 		.4byte	0xc19
 3334 0c09 25       		.uleb128 0x25
 3335 0c0a 62737000 		.ascii	"bsp\000"
 3336 0c0e 0A       		.byte	0xa
 3337 0c0f 2C01     		.2byte	0x12c
 3338 0c11 430B0000 		.4byte	0xb43
 3339 0c15 02       		.uleb128 0x2
 3340 0c16 91       		.byte	0x91
 3341 0c17 74       		.sleb128 -12
 3342 0c18 00       		.byte	0
 3343 0c19 2F       		.uleb128 0x2f
 3344 0c1a 10040000 		.4byte	.LASF164
 3345 0c1e 0B       		.byte	0xb
 3346 0c1f 48       		.byte	0x48
 3347 0c20 00000000 		.4byte	.LFB229
 3348 0c24 14000000 		.4byte	.LFE229-.LFB229
 3349 0c28 01       		.uleb128 0x1
 3350 0c29 9C       		.byte	0x9c
 3351 0c2a 2C       		.uleb128 0x2c
 3352 0c2b 3E040000 		.4byte	.LASF165
 3353 0c2f 0B       		.byte	0xb
 3354 0c30 4D       		.byte	0x4d
 3355 0c31 00000000 		.4byte	.LFB230
 3356 0c35 24000000 		.4byte	.LFE230-.LFB230
 3357 0c39 01       		.uleb128 0x1
 3358 0c3a 9C       		.byte	0x9c
 3359 0c3b 4C0C0000 		.4byte	0xc4c
 3360 0c3f 2B       		.uleb128 0x2b
 3361 0c40 7000     		.ascii	"p\000"
 3362 0c42 0B       		.byte	0xb
 3363 0c43 4D       		.byte	0x4d
 3364 0c44 2B030000 		.4byte	0x32b
 3365 0c48 02       		.uleb128 0x2
 3366 0c49 91       		.byte	0x91
 3367 0c4a 74       		.sleb128 -12
 3368 0c4b 00       		.byte	0
 3369 0c4c 2F       		.uleb128 0x2f
ARM GAS  C:\Users\Luis\AppData\Local\Temp\ccMQOx1f.s 			page 61


 3370 0c4d 27000000 		.4byte	.LASF166
 3371 0c51 0B       		.byte	0xb
 3372 0c52 53       		.byte	0x53
 3373 0c53 00000000 		.4byte	.LFB231
 3374 0c57 84010000 		.4byte	.LFE231-.LFB231
 3375 0c5b 01       		.uleb128 0x1
 3376 0c5c 9C       		.byte	0x9c
 3377 0c5d 2F       		.uleb128 0x2f
 3378 0c5e 47020000 		.4byte	.LASF167
 3379 0c62 0B       		.byte	0xb
 3380 0c63 80       		.byte	0x80
 3381 0c64 00000000 		.4byte	.LFB232
 3382 0c68 14000000 		.4byte	.LFE232-.LFB232
 3383 0c6c 01       		.uleb128 0x1
 3384 0c6d 9C       		.byte	0x9c
 3385 0c6e 2C       		.uleb128 0x2c
 3386 0c6f 46040000 		.4byte	.LASF168
 3387 0c73 0B       		.byte	0xb
 3388 0c74 85       		.byte	0x85
 3389 0c75 00000000 		.4byte	.LFB233
 3390 0c79 2C000000 		.4byte	.LFE233-.LFB233
 3391 0c7d 01       		.uleb128 0x1
 3392 0c7e 9C       		.byte	0x9c
 3393 0c7f 900C0000 		.4byte	0xc90
 3394 0c83 2B       		.uleb128 0x2b
 3395 0c84 7000     		.ascii	"p\000"
 3396 0c86 0B       		.byte	0xb
 3397 0c87 85       		.byte	0x85
 3398 0c88 2B030000 		.4byte	0x32b
 3399 0c8c 02       		.uleb128 0x2
 3400 0c8d 91       		.byte	0x91
 3401 0c8e 74       		.sleb128 -12
 3402 0c8f 00       		.byte	0
 3403 0c90 2C       		.uleb128 0x2c
 3404 0c91 AA070000 		.4byte	.LASF169
 3405 0c95 0B       		.byte	0xb
 3406 0c96 8F       		.byte	0x8f
 3407 0c97 00000000 		.4byte	.LFB234
 3408 0c9b BC010000 		.4byte	.LFE234-.LFB234
 3409 0c9f 01       		.uleb128 0x1
 3410 0ca0 9C       		.byte	0x9c
 3411 0ca1 CE0C0000 		.4byte	0xcce
 3412 0ca5 30       		.uleb128 0x30
 3413 0ca6 6900     		.ascii	"i\000"
 3414 0ca8 0B       		.byte	0xb
 3415 0ca9 90       		.byte	0x90
 3416 0caa 25000000 		.4byte	0x25
 3417 0cae 02       		.uleb128 0x2
 3418 0caf 91       		.byte	0x91
 3419 0cb0 6C       		.sleb128 -20
 3420 0cb1 2A       		.uleb128 0x2a
 3421 0cb2 D2010000 		.4byte	.LASF171
 3422 0cb6 0B       		.byte	0xb
 3423 0cb7 91       		.byte	0x91
 3424 0cb8 1A010000 		.4byte	0x11a
 3425 0cbc 02       		.uleb128 0x2
 3426 0cbd 91       		.byte	0x91
ARM GAS  C:\Users\Luis\AppData\Local\Temp\ccMQOx1f.s 			page 62


 3427 0cbe 64       		.sleb128 -28
 3428 0cbf 30       		.uleb128 0x30
 3429 0cc0 6D736700 		.ascii	"msg\000"
 3430 0cc4 0B       		.byte	0xb
 3431 0cc5 92       		.byte	0x92
 3432 0cc6 EE000000 		.4byte	0xee
 3433 0cca 02       		.uleb128 0x2
 3434 0ccb 91       		.byte	0x91
 3435 0ccc 68       		.sleb128 -24
 3436 0ccd 00       		.byte	0
 3437 0cce 2F       		.uleb128 0x2f
 3438 0ccf 5C040000 		.4byte	.LASF172
 3439 0cd3 0B       		.byte	0xb
 3440 0cd4 CA       		.byte	0xca
 3441 0cd5 00000000 		.4byte	.LFB235
 3442 0cd9 14000000 		.4byte	.LFE235-.LFB235
 3443 0cdd 01       		.uleb128 0x1
 3444 0cde 9C       		.byte	0x9c
 3445 0cdf 2C       		.uleb128 0x2c
 3446 0ce0 58010000 		.4byte	.LASF173
 3447 0ce4 0B       		.byte	0xb
 3448 0ce5 CF       		.byte	0xcf
 3449 0ce6 00000000 		.4byte	.LFB236
 3450 0cea 20000000 		.4byte	.LFE236-.LFB236
 3451 0cee 01       		.uleb128 0x1
 3452 0cef 9C       		.byte	0x9c
 3453 0cf0 010D0000 		.4byte	0xd01
 3454 0cf4 2B       		.uleb128 0x2b
 3455 0cf5 7000     		.ascii	"p\000"
 3456 0cf7 0B       		.byte	0xb
 3457 0cf8 CF       		.byte	0xcf
 3458 0cf9 2B030000 		.4byte	0x32b
 3459 0cfd 02       		.uleb128 0x2
 3460 0cfe 91       		.byte	0x91
 3461 0cff 74       		.sleb128 -12
 3462 0d00 00       		.byte	0
 3463 0d01 2F       		.uleb128 0x2f
 3464 0d02 BC020000 		.4byte	.LASF174
 3465 0d06 0B       		.byte	0xb
 3466 0d07 D6       		.byte	0xd6
 3467 0d08 00000000 		.4byte	.LFB237
 3468 0d0c BC000000 		.4byte	.LFE237-.LFB237
 3469 0d10 01       		.uleb128 0x1
 3470 0d11 9C       		.byte	0x9c
 3471 0d12 2C       		.uleb128 0x2c
 3472 0d13 54040000 		.4byte	.LASF175
 3473 0d17 0B       		.byte	0xb
 3474 0d18 F1       		.byte	0xf1
 3475 0d19 00000000 		.4byte	.LFB238
 3476 0d1d 14000000 		.4byte	.LFE238-.LFB238
 3477 0d21 01       		.uleb128 0x1
 3478 0d22 9C       		.byte	0x9c
 3479 0d23 340D0000 		.4byte	0xd34
 3480 0d27 2B       		.uleb128 0x2b
 3481 0d28 7000     		.ascii	"p\000"
 3482 0d2a 0B       		.byte	0xb
 3483 0d2b F1       		.byte	0xf1
ARM GAS  C:\Users\Luis\AppData\Local\Temp\ccMQOx1f.s 			page 63


 3484 0d2c 2B030000 		.4byte	0x32b
 3485 0d30 02       		.uleb128 0x2
 3486 0d31 91       		.byte	0x91
 3487 0d32 74       		.sleb128 -12
 3488 0d33 00       		.byte	0
 3489 0d34 2C       		.uleb128 0x2c
 3490 0d35 B5030000 		.4byte	.LASF176
 3491 0d39 0B       		.byte	0xb
 3492 0d3a F6       		.byte	0xf6
 3493 0d3b 00000000 		.4byte	.LFB239
 3494 0d3f A0010000 		.4byte	.LFE239-.LFB239
 3495 0d43 01       		.uleb128 0x1
 3496 0d44 9C       		.byte	0x9c
 3497 0d45 580D0000 		.4byte	0xd58
 3498 0d49 2A       		.uleb128 0x2a
 3499 0d4a 45030000 		.4byte	.LASF177
 3500 0d4e 0B       		.byte	0xb
 3501 0d4f F7       		.byte	0xf7
 3502 0d50 F0080000 		.4byte	0x8f0
 3503 0d54 02       		.uleb128 0x2
 3504 0d55 91       		.byte	0x91
 3505 0d56 64       		.sleb128 -28
 3506 0d57 00       		.byte	0
 3507 0d58 2A       		.uleb128 0x2a
 3508 0d59 52020000 		.4byte	.LASF178
 3509 0d5d 0B       		.byte	0xb
 3510 0d5e 3B       		.byte	0x3b
 3511 0d5f D0080000 		.4byte	0x8d0
 3512 0d63 05       		.uleb128 0x5
 3513 0d64 03       		.byte	0x3
 3514 0d65 00000000 		.4byte	sem1
 3515 0d69 31       		.uleb128 0x31
 3516 0d6a F5000000 		.4byte	.LASF179
 3517 0d6e 17       		.byte	0x17
 3518 0d6f A706     		.2byte	0x6a7
 3519 0d71 A2000000 		.4byte	0xa2
 3520 0d75 32       		.uleb128 0x32
 3521 0d76 636800   		.ascii	"ch\000"
 3522 0d79 05       		.byte	0x5
 3523 0d7a 0902     		.2byte	0x209
 3524 0d7c 22040000 		.4byte	0x422
 3525 0d80 12       		.uleb128 0x12
 3526 0d81 4E020000 		.4byte	0x24e
 3527 0d85 900D0000 		.4byte	0xd90
 3528 0d89 13       		.uleb128 0x13
 3529 0d8a 9A040000 		.4byte	0x49a
 3530 0d8e 04       		.byte	0x4
 3531 0d8f 00       		.byte	0
 3532 0d90 33       		.uleb128 0x33
 3533 0d91 46050000 		.4byte	.LASF180
 3534 0d95 16       		.byte	0x16
 3535 0d96 A7       		.byte	0xa7
 3536 0d97 800D0000 		.4byte	0xd80
 3537 0d9b 12       		.uleb128 0x12
 3538 0d9c 2B030000 		.4byte	0x32b
 3539 0da0 A60D0000 		.4byte	0xda6
 3540 0da4 34       		.uleb128 0x34
ARM GAS  C:\Users\Luis\AppData\Local\Temp\ccMQOx1f.s 			page 64


 3541 0da5 00       		.byte	0
 3542 0da6 35       		.uleb128 0x35
 3543 0da7 776100   		.ascii	"wa\000"
 3544 0daa 16       		.byte	0x16
 3545 0dab A9       		.byte	0xa9
 3546 0dac B00D0000 		.4byte	0xdb0
 3547 0db0 1B       		.uleb128 0x1b
 3548 0db1 9B0D0000 		.4byte	0xd9b
 3549 0db5 36       		.uleb128 0x36
 3550 0db6 D0020000 		.4byte	.LASF181
 3551 0dba 0B       		.byte	0xb
 3552 0dbb 6E       		.byte	0x6e
 3553 0dbc C60D0000 		.4byte	0xdc6
 3554 0dc0 05       		.uleb128 0x5
 3555 0dc1 03       		.byte	0x3
 3556 0dc2 00000000 		.4byte	testsem1
 3557 0dc6 1B       		.uleb128 0x1b
 3558 0dc7 0C090000 		.4byte	0x90c
 3559 0dcb 36       		.uleb128 0x36
 3560 0dcc D9020000 		.4byte	.LASF182
 3561 0dd0 0B       		.byte	0xb
 3562 0dd1 B7       		.byte	0xb7
 3563 0dd2 C60D0000 		.4byte	0xdc6
 3564 0dd6 05       		.uleb128 0x5
 3565 0dd7 03       		.byte	0x3
 3566 0dd8 00000000 		.4byte	testsem2
 3567 0ddc 36       		.uleb128 0x36
 3568 0ddd E2020000 		.4byte	.LASF183
 3569 0de1 0B       		.byte	0xb
 3570 0de2 E2       		.byte	0xe2
 3571 0de3 C60D0000 		.4byte	0xdc6
 3572 0de7 05       		.uleb128 0x5
 3573 0de8 03       		.byte	0x3
 3574 0de9 00000000 		.4byte	testsem3
 3575 0ded 37       		.uleb128 0x37
 3576 0dee AC030000 		.4byte	.LASF184
 3577 0df2 0B       		.byte	0xb
 3578 0df3 1401     		.2byte	0x114
 3579 0df5 C60D0000 		.4byte	0xdc6
 3580 0df9 05       		.uleb128 0x5
 3581 0dfa 03       		.byte	0x3
 3582 0dfb 00000000 		.4byte	testsem4
 3583 0dff 12       		.uleb128 0x12
 3584 0e00 0F0E0000 		.4byte	0xe0f
 3585 0e04 0F0E0000 		.4byte	0xe0f
 3586 0e08 13       		.uleb128 0x13
 3587 0e09 9A040000 		.4byte	0x49a
 3588 0e0d 04       		.byte	0x4
 3589 0e0e 00       		.byte	0
 3590 0e0f 0A       		.uleb128 0xa
 3591 0e10 04       		.byte	0x4
 3592 0e11 C60D0000 		.4byte	0xdc6
 3593 0e15 37       		.uleb128 0x37
 3594 0e16 A3040000 		.4byte	.LASF185
 3595 0e1a 0B       		.byte	0xb
 3596 0e1b 1F01     		.2byte	0x11f
 3597 0e1d 270E0000 		.4byte	0xe27
ARM GAS  C:\Users\Luis\AppData\Local\Temp\ccMQOx1f.s 			page 65


 3598 0e21 05       		.uleb128 0x5
 3599 0e22 03       		.byte	0x3
 3600 0e23 00000000 		.4byte	patternsem
 3601 0e27 1B       		.uleb128 0x1b
 3602 0e28 FF0D0000 		.4byte	0xdff
 3603 0e2c 00       		.byte	0
 3604              		.section	.debug_abbrev,"",%progbits
 3605              	.Ldebug_abbrev0:
 3606 0000 01       		.uleb128 0x1
 3607 0001 11       		.uleb128 0x11
 3608 0002 01       		.byte	0x1
 3609 0003 25       		.uleb128 0x25
 3610 0004 0E       		.uleb128 0xe
 3611 0005 13       		.uleb128 0x13
 3612 0006 0B       		.uleb128 0xb
 3613 0007 03       		.uleb128 0x3
 3614 0008 0E       		.uleb128 0xe
 3615 0009 1B       		.uleb128 0x1b
 3616 000a 0E       		.uleb128 0xe
 3617 000b 55       		.uleb128 0x55
 3618 000c 17       		.uleb128 0x17
 3619 000d 11       		.uleb128 0x11
 3620 000e 01       		.uleb128 0x1
 3621 000f 10       		.uleb128 0x10
 3622 0010 17       		.uleb128 0x17
 3623 0011 00       		.byte	0
 3624 0012 00       		.byte	0
 3625 0013 02       		.uleb128 0x2
 3626 0014 24       		.uleb128 0x24
 3627 0015 00       		.byte	0
 3628 0016 0B       		.uleb128 0xb
 3629 0017 0B       		.uleb128 0xb
 3630 0018 3E       		.uleb128 0x3e
 3631 0019 0B       		.uleb128 0xb
 3632 001a 03       		.uleb128 0x3
 3633 001b 08       		.uleb128 0x8
 3634 001c 00       		.byte	0
 3635 001d 00       		.byte	0
 3636 001e 03       		.uleb128 0x3
 3637 001f 16       		.uleb128 0x16
 3638 0020 00       		.byte	0
 3639 0021 03       		.uleb128 0x3
 3640 0022 0E       		.uleb128 0xe
 3641 0023 3A       		.uleb128 0x3a
 3642 0024 0B       		.uleb128 0xb
 3643 0025 3B       		.uleb128 0x3b
 3644 0026 0B       		.uleb128 0xb
 3645 0027 49       		.uleb128 0x49
 3646 0028 13       		.uleb128 0x13
 3647 0029 00       		.byte	0
 3648 002a 00       		.byte	0
 3649 002b 04       		.uleb128 0x4
 3650 002c 24       		.uleb128 0x24
 3651 002d 00       		.byte	0
 3652 002e 0B       		.uleb128 0xb
 3653 002f 0B       		.uleb128 0xb
 3654 0030 3E       		.uleb128 0x3e
ARM GAS  C:\Users\Luis\AppData\Local\Temp\ccMQOx1f.s 			page 66


 3655 0031 0B       		.uleb128 0xb
 3656 0032 03       		.uleb128 0x3
 3657 0033 0E       		.uleb128 0xe
 3658 0034 00       		.byte	0
 3659 0035 00       		.byte	0
 3660 0036 05       		.uleb128 0x5
 3661 0037 35       		.uleb128 0x35
 3662 0038 00       		.byte	0
 3663 0039 49       		.uleb128 0x49
 3664 003a 13       		.uleb128 0x13
 3665 003b 00       		.byte	0
 3666 003c 00       		.byte	0
 3667 003d 06       		.uleb128 0x6
 3668 003e 13       		.uleb128 0x13
 3669 003f 01       		.byte	0x1
 3670 0040 03       		.uleb128 0x3
 3671 0041 0E       		.uleb128 0xe
 3672 0042 0B       		.uleb128 0xb
 3673 0043 0B       		.uleb128 0xb
 3674 0044 3A       		.uleb128 0x3a
 3675 0045 0B       		.uleb128 0xb
 3676 0046 3B       		.uleb128 0x3b
 3677 0047 0B       		.uleb128 0xb
 3678 0048 01       		.uleb128 0x1
 3679 0049 13       		.uleb128 0x13
 3680 004a 00       		.byte	0
 3681 004b 00       		.byte	0
 3682 004c 07       		.uleb128 0x7
 3683 004d 0D       		.uleb128 0xd
 3684 004e 00       		.byte	0
 3685 004f 03       		.uleb128 0x3
 3686 0050 0E       		.uleb128 0xe
 3687 0051 3A       		.uleb128 0x3a
 3688 0052 0B       		.uleb128 0xb
 3689 0053 3B       		.uleb128 0x3b
 3690 0054 0B       		.uleb128 0xb
 3691 0055 49       		.uleb128 0x49
 3692 0056 13       		.uleb128 0x13
 3693 0057 38       		.uleb128 0x38
 3694 0058 0B       		.uleb128 0xb
 3695 0059 00       		.byte	0
 3696 005a 00       		.byte	0
 3697 005b 08       		.uleb128 0x8
 3698 005c 0D       		.uleb128 0xd
 3699 005d 00       		.byte	0
 3700 005e 03       		.uleb128 0x3
 3701 005f 08       		.uleb128 0x8
 3702 0060 3A       		.uleb128 0x3a
 3703 0061 0B       		.uleb128 0xb
 3704 0062 3B       		.uleb128 0x3b
 3705 0063 05       		.uleb128 0x5
 3706 0064 49       		.uleb128 0x49
 3707 0065 13       		.uleb128 0x13
 3708 0066 38       		.uleb128 0x38
 3709 0067 0B       		.uleb128 0xb
 3710 0068 00       		.byte	0
 3711 0069 00       		.byte	0
ARM GAS  C:\Users\Luis\AppData\Local\Temp\ccMQOx1f.s 			page 67


 3712 006a 09       		.uleb128 0x9
 3713 006b 0D       		.uleb128 0xd
 3714 006c 00       		.byte	0
 3715 006d 03       		.uleb128 0x3
 3716 006e 0E       		.uleb128 0xe
 3717 006f 3A       		.uleb128 0x3a
 3718 0070 0B       		.uleb128 0xb
 3719 0071 3B       		.uleb128 0x3b
 3720 0072 05       		.uleb128 0x5
 3721 0073 49       		.uleb128 0x49
 3722 0074 13       		.uleb128 0x13
 3723 0075 38       		.uleb128 0x38
 3724 0076 0B       		.uleb128 0xb
 3725 0077 00       		.byte	0
 3726 0078 00       		.byte	0
 3727 0079 0A       		.uleb128 0xa
 3728 007a 0F       		.uleb128 0xf
 3729 007b 00       		.byte	0
 3730 007c 0B       		.uleb128 0xb
 3731 007d 0B       		.uleb128 0xb
 3732 007e 49       		.uleb128 0x49
 3733 007f 13       		.uleb128 0x13
 3734 0080 00       		.byte	0
 3735 0081 00       		.byte	0
 3736 0082 0B       		.uleb128 0xb
 3737 0083 13       		.uleb128 0x13
 3738 0084 01       		.byte	0x1
 3739 0085 03       		.uleb128 0x3
 3740 0086 0E       		.uleb128 0xe
 3741 0087 0B       		.uleb128 0xb
 3742 0088 0B       		.uleb128 0xb
 3743 0089 3A       		.uleb128 0x3a
 3744 008a 0B       		.uleb128 0xb
 3745 008b 3B       		.uleb128 0x3b
 3746 008c 05       		.uleb128 0x5
 3747 008d 01       		.uleb128 0x1
 3748 008e 13       		.uleb128 0x13
 3749 008f 00       		.byte	0
 3750 0090 00       		.byte	0
 3751 0091 0C       		.uleb128 0xc
 3752 0092 15       		.uleb128 0x15
 3753 0093 01       		.byte	0x1
 3754 0094 27       		.uleb128 0x27
 3755 0095 19       		.uleb128 0x19
 3756 0096 01       		.uleb128 0x1
 3757 0097 13       		.uleb128 0x13
 3758 0098 00       		.byte	0
 3759 0099 00       		.byte	0
 3760 009a 0D       		.uleb128 0xd
 3761 009b 05       		.uleb128 0x5
 3762 009c 00       		.byte	0
 3763 009d 49       		.uleb128 0x49
 3764 009e 13       		.uleb128 0x13
 3765 009f 00       		.byte	0
 3766 00a0 00       		.byte	0
 3767 00a1 0E       		.uleb128 0xe
 3768 00a2 0F       		.uleb128 0xf
ARM GAS  C:\Users\Luis\AppData\Local\Temp\ccMQOx1f.s 			page 68


 3769 00a3 00       		.byte	0
 3770 00a4 0B       		.uleb128 0xb
 3771 00a5 0B       		.uleb128 0xb
 3772 00a6 00       		.byte	0
 3773 00a7 00       		.byte	0
 3774 00a8 0F       		.uleb128 0xf
 3775 00a9 13       		.uleb128 0x13
 3776 00aa 01       		.byte	0x1
 3777 00ab 03       		.uleb128 0x3
 3778 00ac 0E       		.uleb128 0xe
 3779 00ad 0B       		.uleb128 0xb
 3780 00ae 05       		.uleb128 0x5
 3781 00af 3A       		.uleb128 0x3a
 3782 00b0 0B       		.uleb128 0xb
 3783 00b1 3B       		.uleb128 0x3b
 3784 00b2 05       		.uleb128 0x5
 3785 00b3 01       		.uleb128 0x1
 3786 00b4 13       		.uleb128 0x13
 3787 00b5 00       		.byte	0
 3788 00b6 00       		.byte	0
 3789 00b7 10       		.uleb128 0x10
 3790 00b8 0D       		.uleb128 0xd
 3791 00b9 00       		.byte	0
 3792 00ba 03       		.uleb128 0x3
 3793 00bb 0E       		.uleb128 0xe
 3794 00bc 3A       		.uleb128 0x3a
 3795 00bd 0B       		.uleb128 0xb
 3796 00be 3B       		.uleb128 0x3b
 3797 00bf 05       		.uleb128 0x5
 3798 00c0 49       		.uleb128 0x49
 3799 00c1 13       		.uleb128 0x13
 3800 00c2 38       		.uleb128 0x38
 3801 00c3 05       		.uleb128 0x5
 3802 00c4 00       		.byte	0
 3803 00c5 00       		.byte	0
 3804 00c6 11       		.uleb128 0x11
 3805 00c7 0D       		.uleb128 0xd
 3806 00c8 00       		.byte	0
 3807 00c9 03       		.uleb128 0x3
 3808 00ca 08       		.uleb128 0x8
 3809 00cb 3A       		.uleb128 0x3a
 3810 00cc 0B       		.uleb128 0xb
 3811 00cd 3B       		.uleb128 0x3b
 3812 00ce 05       		.uleb128 0x5
 3813 00cf 49       		.uleb128 0x49
 3814 00d0 13       		.uleb128 0x13
 3815 00d1 38       		.uleb128 0x38
 3816 00d2 05       		.uleb128 0x5
 3817 00d3 00       		.byte	0
 3818 00d4 00       		.byte	0
 3819 00d5 12       		.uleb128 0x12
 3820 00d6 01       		.uleb128 0x1
 3821 00d7 01       		.byte	0x1
 3822 00d8 49       		.uleb128 0x49
 3823 00d9 13       		.uleb128 0x13
 3824 00da 01       		.uleb128 0x1
 3825 00db 13       		.uleb128 0x13
ARM GAS  C:\Users\Luis\AppData\Local\Temp\ccMQOx1f.s 			page 69


 3826 00dc 00       		.byte	0
 3827 00dd 00       		.byte	0
 3828 00de 13       		.uleb128 0x13
 3829 00df 21       		.uleb128 0x21
 3830 00e0 00       		.byte	0
 3831 00e1 49       		.uleb128 0x49
 3832 00e2 13       		.uleb128 0x13
 3833 00e3 2F       		.uleb128 0x2f
 3834 00e4 0B       		.uleb128 0xb
 3835 00e5 00       		.byte	0
 3836 00e6 00       		.byte	0
 3837 00e7 14       		.uleb128 0x14
 3838 00e8 0D       		.uleb128 0xd
 3839 00e9 00       		.byte	0
 3840 00ea 03       		.uleb128 0x3
 3841 00eb 08       		.uleb128 0x8
 3842 00ec 3A       		.uleb128 0x3a
 3843 00ed 0B       		.uleb128 0xb
 3844 00ee 3B       		.uleb128 0x3b
 3845 00ef 0B       		.uleb128 0xb
 3846 00f0 49       		.uleb128 0x49
 3847 00f1 13       		.uleb128 0x13
 3848 00f2 38       		.uleb128 0x38
 3849 00f3 0B       		.uleb128 0xb
 3850 00f4 00       		.byte	0
 3851 00f5 00       		.byte	0
 3852 00f6 15       		.uleb128 0x15
 3853 00f7 13       		.uleb128 0x13
 3854 00f8 01       		.byte	0x1
 3855 00f9 0B       		.uleb128 0xb
 3856 00fa 0B       		.uleb128 0xb
 3857 00fb 3A       		.uleb128 0x3a
 3858 00fc 0B       		.uleb128 0xb
 3859 00fd 3B       		.uleb128 0x3b
 3860 00fe 05       		.uleb128 0x5
 3861 00ff 01       		.uleb128 0x1
 3862 0100 13       		.uleb128 0x13
 3863 0101 00       		.byte	0
 3864 0102 00       		.byte	0
 3865 0103 16       		.uleb128 0x16
 3866 0104 16       		.uleb128 0x16
 3867 0105 00       		.byte	0
 3868 0106 03       		.uleb128 0x3
 3869 0107 0E       		.uleb128 0xe
 3870 0108 3A       		.uleb128 0x3a
 3871 0109 0B       		.uleb128 0xb
 3872 010a 3B       		.uleb128 0x3b
 3873 010b 05       		.uleb128 0x5
 3874 010c 49       		.uleb128 0x49
 3875 010d 13       		.uleb128 0x13
 3876 010e 00       		.byte	0
 3877 010f 00       		.byte	0
 3878 0110 17       		.uleb128 0x17
 3879 0111 13       		.uleb128 0x13
 3880 0112 01       		.byte	0x1
 3881 0113 0B       		.uleb128 0xb
 3882 0114 0B       		.uleb128 0xb
ARM GAS  C:\Users\Luis\AppData\Local\Temp\ccMQOx1f.s 			page 70


 3883 0115 3A       		.uleb128 0x3a
 3884 0116 0B       		.uleb128 0xb
 3885 0117 3B       		.uleb128 0x3b
 3886 0118 0B       		.uleb128 0xb
 3887 0119 01       		.uleb128 0x1
 3888 011a 13       		.uleb128 0x13
 3889 011b 00       		.byte	0
 3890 011c 00       		.byte	0
 3891 011d 18       		.uleb128 0x18
 3892 011e 13       		.uleb128 0x13
 3893 011f 01       		.byte	0x1
 3894 0120 0B       		.uleb128 0xb
 3895 0121 05       		.uleb128 0x5
 3896 0122 3A       		.uleb128 0x3a
 3897 0123 0B       		.uleb128 0xb
 3898 0124 3B       		.uleb128 0x3b
 3899 0125 0B       		.uleb128 0xb
 3900 0126 01       		.uleb128 0x1
 3901 0127 13       		.uleb128 0x13
 3902 0128 00       		.byte	0
 3903 0129 00       		.byte	0
 3904 012a 19       		.uleb128 0x19
 3905 012b 17       		.uleb128 0x17
 3906 012c 01       		.byte	0x1
 3907 012d 0B       		.uleb128 0xb
 3908 012e 0B       		.uleb128 0xb
 3909 012f 3A       		.uleb128 0x3a
 3910 0130 0B       		.uleb128 0xb
 3911 0131 3B       		.uleb128 0x3b
 3912 0132 0B       		.uleb128 0xb
 3913 0133 01       		.uleb128 0x1
 3914 0134 13       		.uleb128 0x13
 3915 0135 00       		.byte	0
 3916 0136 00       		.byte	0
 3917 0137 1A       		.uleb128 0x1a
 3918 0138 0D       		.uleb128 0xd
 3919 0139 00       		.byte	0
 3920 013a 03       		.uleb128 0x3
 3921 013b 0E       		.uleb128 0xe
 3922 013c 3A       		.uleb128 0x3a
 3923 013d 0B       		.uleb128 0xb
 3924 013e 3B       		.uleb128 0x3b
 3925 013f 05       		.uleb128 0x5
 3926 0140 49       		.uleb128 0x49
 3927 0141 13       		.uleb128 0x13
 3928 0142 00       		.byte	0
 3929 0143 00       		.byte	0
 3930 0144 1B       		.uleb128 0x1b
 3931 0145 26       		.uleb128 0x26
 3932 0146 00       		.byte	0
 3933 0147 49       		.uleb128 0x49
 3934 0148 13       		.uleb128 0x13
 3935 0149 00       		.byte	0
 3936 014a 00       		.byte	0
 3937 014b 1C       		.uleb128 0x1c
 3938 014c 15       		.uleb128 0x15
 3939 014d 00       		.byte	0
ARM GAS  C:\Users\Luis\AppData\Local\Temp\ccMQOx1f.s 			page 71


 3940 014e 27       		.uleb128 0x27
 3941 014f 19       		.uleb128 0x19
 3942 0150 00       		.byte	0
 3943 0151 00       		.byte	0
 3944 0152 1D       		.uleb128 0x1d
 3945 0153 2E       		.uleb128 0x2e
 3946 0154 01       		.byte	0x1
 3947 0155 03       		.uleb128 0x3
 3948 0156 0E       		.uleb128 0xe
 3949 0157 3A       		.uleb128 0x3a
 3950 0158 0B       		.uleb128 0xb
 3951 0159 3B       		.uleb128 0x3b
 3952 015a 05       		.uleb128 0x5
 3953 015b 27       		.uleb128 0x27
 3954 015c 19       		.uleb128 0x19
 3955 015d 20       		.uleb128 0x20
 3956 015e 0B       		.uleb128 0xb
 3957 015f 01       		.uleb128 0x1
 3958 0160 13       		.uleb128 0x13
 3959 0161 00       		.byte	0
 3960 0162 00       		.byte	0
 3961 0163 1E       		.uleb128 0x1e
 3962 0164 05       		.uleb128 0x5
 3963 0165 00       		.byte	0
 3964 0166 03       		.uleb128 0x3
 3965 0167 0E       		.uleb128 0xe
 3966 0168 3A       		.uleb128 0x3a
 3967 0169 0B       		.uleb128 0xb
 3968 016a 3B       		.uleb128 0x3b
 3969 016b 05       		.uleb128 0x5
 3970 016c 49       		.uleb128 0x49
 3971 016d 13       		.uleb128 0x13
 3972 016e 00       		.byte	0
 3973 016f 00       		.byte	0
 3974 0170 1F       		.uleb128 0x1f
 3975 0171 2E       		.uleb128 0x2e
 3976 0172 01       		.byte	0x1
 3977 0173 03       		.uleb128 0x3
 3978 0174 0E       		.uleb128 0xe
 3979 0175 3A       		.uleb128 0x3a
 3980 0176 0B       		.uleb128 0xb
 3981 0177 3B       		.uleb128 0x3b
 3982 0178 05       		.uleb128 0x5
 3983 0179 27       		.uleb128 0x27
 3984 017a 19       		.uleb128 0x19
 3985 017b 11       		.uleb128 0x11
 3986 017c 01       		.uleb128 0x1
 3987 017d 12       		.uleb128 0x12
 3988 017e 06       		.uleb128 0x6
 3989 017f 40       		.uleb128 0x40
 3990 0180 18       		.uleb128 0x18
 3991 0181 9742     		.uleb128 0x2117
 3992 0183 19       		.uleb128 0x19
 3993 0184 01       		.uleb128 0x1
 3994 0185 13       		.uleb128 0x13
 3995 0186 00       		.byte	0
 3996 0187 00       		.byte	0
ARM GAS  C:\Users\Luis\AppData\Local\Temp\ccMQOx1f.s 			page 72


 3997 0188 20       		.uleb128 0x20
 3998 0189 1D       		.uleb128 0x1d
 3999 018a 01       		.byte	0x1
 4000 018b 31       		.uleb128 0x31
 4001 018c 13       		.uleb128 0x13
 4002 018d 11       		.uleb128 0x11
 4003 018e 01       		.uleb128 0x1
 4004 018f 12       		.uleb128 0x12
 4005 0190 06       		.uleb128 0x6
 4006 0191 58       		.uleb128 0x58
 4007 0192 0B       		.uleb128 0xb
 4008 0193 59       		.uleb128 0x59
 4009 0194 05       		.uleb128 0x5
 4010 0195 00       		.byte	0
 4011 0196 00       		.byte	0
 4012 0197 21       		.uleb128 0x21
 4013 0198 05       		.uleb128 0x5
 4014 0199 00       		.byte	0
 4015 019a 31       		.uleb128 0x31
 4016 019b 13       		.uleb128 0x13
 4017 019c 02       		.uleb128 0x2
 4018 019d 18       		.uleb128 0x18
 4019 019e 00       		.byte	0
 4020 019f 00       		.byte	0
 4021 01a0 22       		.uleb128 0x22
 4022 01a1 2E       		.uleb128 0x2e
 4023 01a2 00       		.byte	0
 4024 01a3 03       		.uleb128 0x3
 4025 01a4 0E       		.uleb128 0xe
 4026 01a5 3A       		.uleb128 0x3a
 4027 01a6 0B       		.uleb128 0xb
 4028 01a7 3B       		.uleb128 0x3b
 4029 01a8 0B       		.uleb128 0xb
 4030 01a9 27       		.uleb128 0x27
 4031 01aa 19       		.uleb128 0x19
 4032 01ab 49       		.uleb128 0x49
 4033 01ac 13       		.uleb128 0x13
 4034 01ad 11       		.uleb128 0x11
 4035 01ae 01       		.uleb128 0x1
 4036 01af 12       		.uleb128 0x12
 4037 01b0 06       		.uleb128 0x6
 4038 01b1 40       		.uleb128 0x40
 4039 01b2 18       		.uleb128 0x18
 4040 01b3 9742     		.uleb128 0x2117
 4041 01b5 19       		.uleb128 0x19
 4042 01b6 00       		.byte	0
 4043 01b7 00       		.byte	0
 4044 01b8 23       		.uleb128 0x23
 4045 01b9 2E       		.uleb128 0x2e
 4046 01ba 00       		.byte	0
 4047 01bb 03       		.uleb128 0x3
 4048 01bc 0E       		.uleb128 0xe
 4049 01bd 3A       		.uleb128 0x3a
 4050 01be 0B       		.uleb128 0xb
 4051 01bf 3B       		.uleb128 0x3b
 4052 01c0 0B       		.uleb128 0xb
 4053 01c1 27       		.uleb128 0x27
ARM GAS  C:\Users\Luis\AppData\Local\Temp\ccMQOx1f.s 			page 73


 4054 01c2 19       		.uleb128 0x19
 4055 01c3 49       		.uleb128 0x49
 4056 01c4 13       		.uleb128 0x13
 4057 01c5 11       		.uleb128 0x11
 4058 01c6 01       		.uleb128 0x1
 4059 01c7 12       		.uleb128 0x12
 4060 01c8 06       		.uleb128 0x6
 4061 01c9 40       		.uleb128 0x40
 4062 01ca 18       		.uleb128 0x18
 4063 01cb 9642     		.uleb128 0x2116
 4064 01cd 19       		.uleb128 0x19
 4065 01ce 00       		.byte	0
 4066 01cf 00       		.byte	0
 4067 01d0 24       		.uleb128 0x24
 4068 01d1 2E       		.uleb128 0x2e
 4069 01d2 01       		.byte	0x1
 4070 01d3 03       		.uleb128 0x3
 4071 01d4 0E       		.uleb128 0xe
 4072 01d5 3A       		.uleb128 0x3a
 4073 01d6 0B       		.uleb128 0xb
 4074 01d7 3B       		.uleb128 0x3b
 4075 01d8 05       		.uleb128 0x5
 4076 01d9 27       		.uleb128 0x27
 4077 01da 19       		.uleb128 0x19
 4078 01db 49       		.uleb128 0x49
 4079 01dc 13       		.uleb128 0x13
 4080 01dd 11       		.uleb128 0x11
 4081 01de 01       		.uleb128 0x1
 4082 01df 12       		.uleb128 0x12
 4083 01e0 06       		.uleb128 0x6
 4084 01e1 40       		.uleb128 0x40
 4085 01e2 18       		.uleb128 0x18
 4086 01e3 9742     		.uleb128 0x2117
 4087 01e5 19       		.uleb128 0x19
 4088 01e6 01       		.uleb128 0x1
 4089 01e7 13       		.uleb128 0x13
 4090 01e8 00       		.byte	0
 4091 01e9 00       		.byte	0
 4092 01ea 25       		.uleb128 0x25
 4093 01eb 05       		.uleb128 0x5
 4094 01ec 00       		.byte	0
 4095 01ed 03       		.uleb128 0x3
 4096 01ee 08       		.uleb128 0x8
 4097 01ef 3A       		.uleb128 0x3a
 4098 01f0 0B       		.uleb128 0xb
 4099 01f1 3B       		.uleb128 0x3b
 4100 01f2 05       		.uleb128 0x5
 4101 01f3 49       		.uleb128 0x49
 4102 01f4 13       		.uleb128 0x13
 4103 01f5 02       		.uleb128 0x2
 4104 01f6 18       		.uleb128 0x18
 4105 01f7 00       		.byte	0
 4106 01f8 00       		.byte	0
 4107 01f9 26       		.uleb128 0x26
 4108 01fa 2E       		.uleb128 0x2e
 4109 01fb 00       		.byte	0
 4110 01fc 03       		.uleb128 0x3
ARM GAS  C:\Users\Luis\AppData\Local\Temp\ccMQOx1f.s 			page 74


 4111 01fd 0E       		.uleb128 0xe
 4112 01fe 3A       		.uleb128 0x3a
 4113 01ff 0B       		.uleb128 0xb
 4114 0200 3B       		.uleb128 0x3b
 4115 0201 05       		.uleb128 0x5
 4116 0202 27       		.uleb128 0x27
 4117 0203 19       		.uleb128 0x19
 4118 0204 11       		.uleb128 0x11
 4119 0205 01       		.uleb128 0x1
 4120 0206 12       		.uleb128 0x12
 4121 0207 06       		.uleb128 0x6
 4122 0208 40       		.uleb128 0x40
 4123 0209 18       		.uleb128 0x18
 4124 020a 9642     		.uleb128 0x2116
 4125 020c 19       		.uleb128 0x19
 4126 020d 00       		.byte	0
 4127 020e 00       		.byte	0
 4128 020f 27       		.uleb128 0x27
 4129 0210 2E       		.uleb128 0x2e
 4130 0211 01       		.byte	0x1
 4131 0212 03       		.uleb128 0x3
 4132 0213 0E       		.uleb128 0xe
 4133 0214 3A       		.uleb128 0x3a
 4134 0215 0B       		.uleb128 0xb
 4135 0216 3B       		.uleb128 0x3b
 4136 0217 05       		.uleb128 0x5
 4137 0218 27       		.uleb128 0x27
 4138 0219 19       		.uleb128 0x19
 4139 021a 11       		.uleb128 0x11
 4140 021b 01       		.uleb128 0x1
 4141 021c 12       		.uleb128 0x12
 4142 021d 06       		.uleb128 0x6
 4143 021e 40       		.uleb128 0x40
 4144 021f 18       		.uleb128 0x18
 4145 0220 9642     		.uleb128 0x2116
 4146 0222 19       		.uleb128 0x19
 4147 0223 01       		.uleb128 0x1
 4148 0224 13       		.uleb128 0x13
 4149 0225 00       		.byte	0
 4150 0226 00       		.byte	0
 4151 0227 28       		.uleb128 0x28
 4152 0228 34       		.uleb128 0x34
 4153 0229 00       		.byte	0
 4154 022a 03       		.uleb128 0x3
 4155 022b 0E       		.uleb128 0xe
 4156 022c 49       		.uleb128 0x49
 4157 022d 13       		.uleb128 0x13
 4158 022e 34       		.uleb128 0x34
 4159 022f 19       		.uleb128 0x19
 4160 0230 02       		.uleb128 0x2
 4161 0231 18       		.uleb128 0x18
 4162 0232 00       		.byte	0
 4163 0233 00       		.byte	0
 4164 0234 29       		.uleb128 0x29
 4165 0235 2E       		.uleb128 0x2e
 4166 0236 01       		.byte	0x1
 4167 0237 03       		.uleb128 0x3
ARM GAS  C:\Users\Luis\AppData\Local\Temp\ccMQOx1f.s 			page 75


 4168 0238 0E       		.uleb128 0xe
 4169 0239 3A       		.uleb128 0x3a
 4170 023a 0B       		.uleb128 0xb
 4171 023b 3B       		.uleb128 0x3b
 4172 023c 0B       		.uleb128 0xb
 4173 023d 27       		.uleb128 0x27
 4174 023e 19       		.uleb128 0x19
 4175 023f 49       		.uleb128 0x49
 4176 0240 13       		.uleb128 0x13
 4177 0241 11       		.uleb128 0x11
 4178 0242 01       		.uleb128 0x1
 4179 0243 12       		.uleb128 0x12
 4180 0244 06       		.uleb128 0x6
 4181 0245 40       		.uleb128 0x40
 4182 0246 18       		.uleb128 0x18
 4183 0247 9642     		.uleb128 0x2116
 4184 0249 19       		.uleb128 0x19
 4185 024a 01       		.uleb128 0x1
 4186 024b 13       		.uleb128 0x13
 4187 024c 00       		.byte	0
 4188 024d 00       		.byte	0
 4189 024e 2A       		.uleb128 0x2a
 4190 024f 34       		.uleb128 0x34
 4191 0250 00       		.byte	0
 4192 0251 03       		.uleb128 0x3
 4193 0252 0E       		.uleb128 0xe
 4194 0253 3A       		.uleb128 0x3a
 4195 0254 0B       		.uleb128 0xb
 4196 0255 3B       		.uleb128 0x3b
 4197 0256 0B       		.uleb128 0xb
 4198 0257 49       		.uleb128 0x49
 4199 0258 13       		.uleb128 0x13
 4200 0259 02       		.uleb128 0x2
 4201 025a 18       		.uleb128 0x18
 4202 025b 00       		.byte	0
 4203 025c 00       		.byte	0
 4204 025d 2B       		.uleb128 0x2b
 4205 025e 05       		.uleb128 0x5
 4206 025f 00       		.byte	0
 4207 0260 03       		.uleb128 0x3
 4208 0261 08       		.uleb128 0x8
 4209 0262 3A       		.uleb128 0x3a
 4210 0263 0B       		.uleb128 0xb
 4211 0264 3B       		.uleb128 0x3b
 4212 0265 0B       		.uleb128 0xb
 4213 0266 49       		.uleb128 0x49
 4214 0267 13       		.uleb128 0x13
 4215 0268 02       		.uleb128 0x2
 4216 0269 18       		.uleb128 0x18
 4217 026a 00       		.byte	0
 4218 026b 00       		.byte	0
 4219 026c 2C       		.uleb128 0x2c
 4220 026d 2E       		.uleb128 0x2e
 4221 026e 01       		.byte	0x1
 4222 026f 03       		.uleb128 0x3
 4223 0270 0E       		.uleb128 0xe
 4224 0271 3A       		.uleb128 0x3a
ARM GAS  C:\Users\Luis\AppData\Local\Temp\ccMQOx1f.s 			page 76


 4225 0272 0B       		.uleb128 0xb
 4226 0273 3B       		.uleb128 0x3b
 4227 0274 0B       		.uleb128 0xb
 4228 0275 27       		.uleb128 0x27
 4229 0276 19       		.uleb128 0x19
 4230 0277 11       		.uleb128 0x11
 4231 0278 01       		.uleb128 0x1
 4232 0279 12       		.uleb128 0x12
 4233 027a 06       		.uleb128 0x6
 4234 027b 40       		.uleb128 0x40
 4235 027c 18       		.uleb128 0x18
 4236 027d 9642     		.uleb128 0x2116
 4237 027f 19       		.uleb128 0x19
 4238 0280 01       		.uleb128 0x1
 4239 0281 13       		.uleb128 0x13
 4240 0282 00       		.byte	0
 4241 0283 00       		.byte	0
 4242 0284 2D       		.uleb128 0x2d
 4243 0285 05       		.uleb128 0x5
 4244 0286 00       		.byte	0
 4245 0287 03       		.uleb128 0x3
 4246 0288 0E       		.uleb128 0xe
 4247 0289 3A       		.uleb128 0x3a
 4248 028a 0B       		.uleb128 0xb
 4249 028b 3B       		.uleb128 0x3b
 4250 028c 0B       		.uleb128 0xb
 4251 028d 49       		.uleb128 0x49
 4252 028e 13       		.uleb128 0x13
 4253 028f 02       		.uleb128 0x2
 4254 0290 18       		.uleb128 0x18
 4255 0291 00       		.byte	0
 4256 0292 00       		.byte	0
 4257 0293 2E       		.uleb128 0x2e
 4258 0294 2E       		.uleb128 0x2e
 4259 0295 01       		.byte	0x1
 4260 0296 03       		.uleb128 0x3
 4261 0297 0E       		.uleb128 0xe
 4262 0298 3A       		.uleb128 0x3a
 4263 0299 0B       		.uleb128 0xb
 4264 029a 3B       		.uleb128 0x3b
 4265 029b 05       		.uleb128 0x5
 4266 029c 27       		.uleb128 0x27
 4267 029d 19       		.uleb128 0x19
 4268 029e 49       		.uleb128 0x49
 4269 029f 13       		.uleb128 0x13
 4270 02a0 11       		.uleb128 0x11
 4271 02a1 01       		.uleb128 0x1
 4272 02a2 12       		.uleb128 0x12
 4273 02a3 06       		.uleb128 0x6
 4274 02a4 40       		.uleb128 0x40
 4275 02a5 18       		.uleb128 0x18
 4276 02a6 9642     		.uleb128 0x2116
 4277 02a8 19       		.uleb128 0x19
 4278 02a9 01       		.uleb128 0x1
 4279 02aa 13       		.uleb128 0x13
 4280 02ab 00       		.byte	0
 4281 02ac 00       		.byte	0
ARM GAS  C:\Users\Luis\AppData\Local\Temp\ccMQOx1f.s 			page 77


 4282 02ad 2F       		.uleb128 0x2f
 4283 02ae 2E       		.uleb128 0x2e
 4284 02af 00       		.byte	0
 4285 02b0 03       		.uleb128 0x3
 4286 02b1 0E       		.uleb128 0xe
 4287 02b2 3A       		.uleb128 0x3a
 4288 02b3 0B       		.uleb128 0xb
 4289 02b4 3B       		.uleb128 0x3b
 4290 02b5 0B       		.uleb128 0xb
 4291 02b6 27       		.uleb128 0x27
 4292 02b7 19       		.uleb128 0x19
 4293 02b8 11       		.uleb128 0x11
 4294 02b9 01       		.uleb128 0x1
 4295 02ba 12       		.uleb128 0x12
 4296 02bb 06       		.uleb128 0x6
 4297 02bc 40       		.uleb128 0x40
 4298 02bd 18       		.uleb128 0x18
 4299 02be 9642     		.uleb128 0x2116
 4300 02c0 19       		.uleb128 0x19
 4301 02c1 00       		.byte	0
 4302 02c2 00       		.byte	0
 4303 02c3 30       		.uleb128 0x30
 4304 02c4 34       		.uleb128 0x34
 4305 02c5 00       		.byte	0
 4306 02c6 03       		.uleb128 0x3
 4307 02c7 08       		.uleb128 0x8
 4308 02c8 3A       		.uleb128 0x3a
 4309 02c9 0B       		.uleb128 0xb
 4310 02ca 3B       		.uleb128 0x3b
 4311 02cb 0B       		.uleb128 0xb
 4312 02cc 49       		.uleb128 0x49
 4313 02cd 13       		.uleb128 0x13
 4314 02ce 02       		.uleb128 0x2
 4315 02cf 18       		.uleb128 0x18
 4316 02d0 00       		.byte	0
 4317 02d1 00       		.byte	0
 4318 02d2 31       		.uleb128 0x31
 4319 02d3 34       		.uleb128 0x34
 4320 02d4 00       		.byte	0
 4321 02d5 03       		.uleb128 0x3
 4322 02d6 0E       		.uleb128 0xe
 4323 02d7 3A       		.uleb128 0x3a
 4324 02d8 0B       		.uleb128 0xb
 4325 02d9 3B       		.uleb128 0x3b
 4326 02da 05       		.uleb128 0x5
 4327 02db 49       		.uleb128 0x49
 4328 02dc 13       		.uleb128 0x13
 4329 02dd 3F       		.uleb128 0x3f
 4330 02de 19       		.uleb128 0x19
 4331 02df 3C       		.uleb128 0x3c
 4332 02e0 19       		.uleb128 0x19
 4333 02e1 00       		.byte	0
 4334 02e2 00       		.byte	0
 4335 02e3 32       		.uleb128 0x32
 4336 02e4 34       		.uleb128 0x34
 4337 02e5 00       		.byte	0
 4338 02e6 03       		.uleb128 0x3
ARM GAS  C:\Users\Luis\AppData\Local\Temp\ccMQOx1f.s 			page 78


 4339 02e7 08       		.uleb128 0x8
 4340 02e8 3A       		.uleb128 0x3a
 4341 02e9 0B       		.uleb128 0xb
 4342 02ea 3B       		.uleb128 0x3b
 4343 02eb 05       		.uleb128 0x5
 4344 02ec 49       		.uleb128 0x49
 4345 02ed 13       		.uleb128 0x13
 4346 02ee 3F       		.uleb128 0x3f
 4347 02ef 19       		.uleb128 0x19
 4348 02f0 3C       		.uleb128 0x3c
 4349 02f1 19       		.uleb128 0x19
 4350 02f2 00       		.byte	0
 4351 02f3 00       		.byte	0
 4352 02f4 33       		.uleb128 0x33
 4353 02f5 34       		.uleb128 0x34
 4354 02f6 00       		.byte	0
 4355 02f7 03       		.uleb128 0x3
 4356 02f8 0E       		.uleb128 0xe
 4357 02f9 3A       		.uleb128 0x3a
 4358 02fa 0B       		.uleb128 0xb
 4359 02fb 3B       		.uleb128 0x3b
 4360 02fc 0B       		.uleb128 0xb
 4361 02fd 49       		.uleb128 0x49
 4362 02fe 13       		.uleb128 0x13
 4363 02ff 3F       		.uleb128 0x3f
 4364 0300 19       		.uleb128 0x19
 4365 0301 3C       		.uleb128 0x3c
 4366 0302 19       		.uleb128 0x19
 4367 0303 00       		.byte	0
 4368 0304 00       		.byte	0
 4369 0305 34       		.uleb128 0x34
 4370 0306 21       		.uleb128 0x21
 4371 0307 00       		.byte	0
 4372 0308 00       		.byte	0
 4373 0309 00       		.byte	0
 4374 030a 35       		.uleb128 0x35
 4375 030b 34       		.uleb128 0x34
 4376 030c 00       		.byte	0
 4377 030d 03       		.uleb128 0x3
 4378 030e 08       		.uleb128 0x8
 4379 030f 3A       		.uleb128 0x3a
 4380 0310 0B       		.uleb128 0xb
 4381 0311 3B       		.uleb128 0x3b
 4382 0312 0B       		.uleb128 0xb
 4383 0313 49       		.uleb128 0x49
 4384 0314 13       		.uleb128 0x13
 4385 0315 3F       		.uleb128 0x3f
 4386 0316 19       		.uleb128 0x19
 4387 0317 3C       		.uleb128 0x3c
 4388 0318 19       		.uleb128 0x19
 4389 0319 00       		.byte	0
 4390 031a 00       		.byte	0
 4391 031b 36       		.uleb128 0x36
 4392 031c 34       		.uleb128 0x34
 4393 031d 00       		.byte	0
 4394 031e 03       		.uleb128 0x3
 4395 031f 0E       		.uleb128 0xe
ARM GAS  C:\Users\Luis\AppData\Local\Temp\ccMQOx1f.s 			page 79


 4396 0320 3A       		.uleb128 0x3a
 4397 0321 0B       		.uleb128 0xb
 4398 0322 3B       		.uleb128 0x3b
 4399 0323 0B       		.uleb128 0xb
 4400 0324 49       		.uleb128 0x49
 4401 0325 13       		.uleb128 0x13
 4402 0326 3F       		.uleb128 0x3f
 4403 0327 19       		.uleb128 0x19
 4404 0328 02       		.uleb128 0x2
 4405 0329 18       		.uleb128 0x18
 4406 032a 00       		.byte	0
 4407 032b 00       		.byte	0
 4408 032c 37       		.uleb128 0x37
 4409 032d 34       		.uleb128 0x34
 4410 032e 00       		.byte	0
 4411 032f 03       		.uleb128 0x3
 4412 0330 0E       		.uleb128 0xe
 4413 0331 3A       		.uleb128 0x3a
 4414 0332 0B       		.uleb128 0xb
 4415 0333 3B       		.uleb128 0x3b
 4416 0334 05       		.uleb128 0x5
 4417 0335 49       		.uleb128 0x49
 4418 0336 13       		.uleb128 0x13
 4419 0337 3F       		.uleb128 0x3f
 4420 0338 19       		.uleb128 0x19
 4421 0339 02       		.uleb128 0x2
 4422 033a 18       		.uleb128 0x18
 4423 033b 00       		.byte	0
 4424 033c 00       		.byte	0
 4425 033d 00       		.byte	0
 4426              		.section	.debug_aranges,"",%progbits
 4427 0000 FC000000 		.4byte	0xfc
 4428 0004 0200     		.2byte	0x2
 4429 0006 00000000 		.4byte	.Ldebug_info0
 4430 000a 04       		.byte	0x4
 4431 000b 00       		.byte	0
 4432 000c 0000     		.2byte	0
 4433 000e 0000     		.2byte	0
 4434 0010 00000000 		.4byte	.LFB116
 4435 0014 1A000000 		.4byte	.LFE116-.LFB116
 4436 0018 00000000 		.4byte	.LFB117
 4437 001c 1A000000 		.4byte	.LFE117-.LFB117
 4438 0020 00000000 		.4byte	.LFB125
 4439 0024 14000000 		.4byte	.LFE125-.LFB125
 4440 0028 00000000 		.4byte	.LFB134
 4441 002c 0E000000 		.4byte	.LFE134-.LFB134
 4442 0030 00000000 		.4byte	.LFB140
 4443 0034 24000000 		.4byte	.LFE140-.LFB140
 4444 0038 00000000 		.4byte	.LFB156
 4445 003c 12000000 		.4byte	.LFE156-.LFB156
 4446 0040 00000000 		.4byte	.LFB157
 4447 0044 3C000000 		.4byte	.LFE157-.LFB157
 4448 0048 00000000 		.4byte	.LFB164
 4449 004c 0E000000 		.4byte	.LFE164-.LFB164
 4450 0050 00000000 		.4byte	.LFB165
 4451 0054 1E000000 		.4byte	.LFE165-.LFB165
 4452 0058 00000000 		.4byte	.LFB177
ARM GAS  C:\Users\Luis\AppData\Local\Temp\ccMQOx1f.s 			page 80


 4453 005c 18000000 		.4byte	.LFE177-.LFB177
 4454 0060 00000000 		.4byte	.LFB178
 4455 0064 10000000 		.4byte	.LFE178-.LFB178
 4456 0068 00000000 		.4byte	.LFB191
 4457 006c 18000000 		.4byte	.LFE191-.LFB191
 4458 0070 00000000 		.4byte	.LFB192
 4459 0074 28000000 		.4byte	.LFE192-.LFB192
 4460 0078 00000000 		.4byte	.LFB193
 4461 007c 1A000000 		.4byte	.LFE193-.LFB193
 4462 0080 00000000 		.4byte	.LFB198
 4463 0084 28000000 		.4byte	.LFE198-.LFB198
 4464 0088 00000000 		.4byte	.LFB199
 4465 008c 22000000 		.4byte	.LFE199-.LFB199
 4466 0090 00000000 		.4byte	.LFB200
 4467 0094 20000000 		.4byte	.LFE200-.LFB200
 4468 0098 00000000 		.4byte	.LFB201
 4469 009c 22000000 		.4byte	.LFE201-.LFB201
 4470 00a0 00000000 		.4byte	.LFB229
 4471 00a4 14000000 		.4byte	.LFE229-.LFB229
 4472 00a8 00000000 		.4byte	.LFB230
 4473 00ac 24000000 		.4byte	.LFE230-.LFB230
 4474 00b0 00000000 		.4byte	.LFB231
 4475 00b4 84010000 		.4byte	.LFE231-.LFB231
 4476 00b8 00000000 		.4byte	.LFB232
 4477 00bc 14000000 		.4byte	.LFE232-.LFB232
 4478 00c0 00000000 		.4byte	.LFB233
 4479 00c4 2C000000 		.4byte	.LFE233-.LFB233
 4480 00c8 00000000 		.4byte	.LFB234
 4481 00cc BC010000 		.4byte	.LFE234-.LFB234
 4482 00d0 00000000 		.4byte	.LFB235
 4483 00d4 14000000 		.4byte	.LFE235-.LFB235
 4484 00d8 00000000 		.4byte	.LFB236
 4485 00dc 20000000 		.4byte	.LFE236-.LFB236
 4486 00e0 00000000 		.4byte	.LFB237
 4487 00e4 BC000000 		.4byte	.LFE237-.LFB237
 4488 00e8 00000000 		.4byte	.LFB238
 4489 00ec 14000000 		.4byte	.LFE238-.LFB238
 4490 00f0 00000000 		.4byte	.LFB239
 4491 00f4 A0010000 		.4byte	.LFE239-.LFB239
 4492 00f8 00000000 		.4byte	0
 4493 00fc 00000000 		.4byte	0
 4494              		.section	.debug_ranges,"",%progbits
 4495              	.Ldebug_ranges0:
 4496 0000 00000000 		.4byte	.LFB116
 4497 0004 1A000000 		.4byte	.LFE116
 4498 0008 00000000 		.4byte	.LFB117
 4499 000c 1A000000 		.4byte	.LFE117
 4500 0010 00000000 		.4byte	.LFB125
 4501 0014 14000000 		.4byte	.LFE125
 4502 0018 00000000 		.4byte	.LFB134
 4503 001c 0E000000 		.4byte	.LFE134
 4504 0020 00000000 		.4byte	.LFB140
 4505 0024 24000000 		.4byte	.LFE140
 4506 0028 00000000 		.4byte	.LFB156
 4507 002c 12000000 		.4byte	.LFE156
 4508 0030 00000000 		.4byte	.LFB157
 4509 0034 3C000000 		.4byte	.LFE157
ARM GAS  C:\Users\Luis\AppData\Local\Temp\ccMQOx1f.s 			page 81


 4510 0038 00000000 		.4byte	.LFB164
 4511 003c 0E000000 		.4byte	.LFE164
 4512 0040 00000000 		.4byte	.LFB165
 4513 0044 1E000000 		.4byte	.LFE165
 4514 0048 00000000 		.4byte	.LFB177
 4515 004c 18000000 		.4byte	.LFE177
 4516 0050 00000000 		.4byte	.LFB178
 4517 0054 10000000 		.4byte	.LFE178
 4518 0058 00000000 		.4byte	.LFB191
 4519 005c 18000000 		.4byte	.LFE191
 4520 0060 00000000 		.4byte	.LFB192
 4521 0064 28000000 		.4byte	.LFE192
 4522 0068 00000000 		.4byte	.LFB193
 4523 006c 1A000000 		.4byte	.LFE193
 4524 0070 00000000 		.4byte	.LFB198
 4525 0074 28000000 		.4byte	.LFE198
 4526 0078 00000000 		.4byte	.LFB199
 4527 007c 22000000 		.4byte	.LFE199
 4528 0080 00000000 		.4byte	.LFB200
 4529 0084 20000000 		.4byte	.LFE200
 4530 0088 00000000 		.4byte	.LFB201
 4531 008c 22000000 		.4byte	.LFE201
 4532 0090 00000000 		.4byte	.LFB229
 4533 0094 14000000 		.4byte	.LFE229
 4534 0098 00000000 		.4byte	.LFB230
 4535 009c 24000000 		.4byte	.LFE230
 4536 00a0 00000000 		.4byte	.LFB231
 4537 00a4 84010000 		.4byte	.LFE231
 4538 00a8 00000000 		.4byte	.LFB232
 4539 00ac 14000000 		.4byte	.LFE232
 4540 00b0 00000000 		.4byte	.LFB233
 4541 00b4 2C000000 		.4byte	.LFE233
 4542 00b8 00000000 		.4byte	.LFB234
 4543 00bc BC010000 		.4byte	.LFE234
 4544 00c0 00000000 		.4byte	.LFB235
 4545 00c4 14000000 		.4byte	.LFE235
 4546 00c8 00000000 		.4byte	.LFB236
 4547 00cc 20000000 		.4byte	.LFE236
 4548 00d0 00000000 		.4byte	.LFB237
 4549 00d4 BC000000 		.4byte	.LFE237
 4550 00d8 00000000 		.4byte	.LFB238
 4551 00dc 14000000 		.4byte	.LFE238
 4552 00e0 00000000 		.4byte	.LFB239
 4553 00e4 A0010000 		.4byte	.LFE239
 4554 00e8 00000000 		.4byte	0
 4555 00ec 00000000 		.4byte	0
 4556              		.section	.debug_line,"",%progbits
 4557              	.Ldebug_line0:
 4558 0000 4A060000 		.section	.debug_str,"MS",%progbits,1
 4558      02006B02 
 4558      00000201 
 4558      FB0E0D00 
 4558      01010101 
 4559              	.LASF105:
 4560 0000 74625F70 		.ascii	"tb_ptr\000"
 4560      747200
 4561              	.LASF52:
ARM GAS  C:\Users\Luis\AppData\Local\Temp\ccMQOx1f.s 			page 82


 4562 0007 72656164 		.ascii	"ready_list_t\000"
 4562      795F6C69 
 4562      73745F74 
 4562      00
 4563              	.LASF90:
 4564 0014 44494552 		.ascii	"DIER\000"
 4564      00
 4565              	.LASF2:
 4566 0019 73697A65 		.ascii	"size_t\000"
 4566      5F7400
 4567              	.LASF120:
 4568 0020 7264796D 		.ascii	"rdymsg\000"
 4568      736700
 4569              	.LASF166:
 4570 0027 73656D31 		.ascii	"sem1_execute\000"
 4570      5F657865 
 4570      63757465 
 4570      00
 4571              	.LASF12:
 4572 0034 75696E74 		.ascii	"uint64_t\000"
 4572      36345F74 
 4572      00
 4573              	.LASF82:
 4574 003d 6B65726E 		.ascii	"kernel_stats\000"
 4574      656C5F73 
 4574      74617473 
 4574      00
 4575              	.LASF88:
 4576 004a 706F7274 		.ascii	"port_intctx\000"
 4576      5F696E74 
 4576      63747800 
 4577              	.LASF51:
 4578 0056 63685F74 		.ascii	"ch_threads_queue\000"
 4578      68726561 
 4578      64735F71 
 4578      75657565 
 4578      00
 4579              	.LASF71:
 4580 0067 73797374 		.ascii	"system_debug_t\000"
 4580      656D5F64 
 4580      65627567 
 4580      5F7400
 4581              	.LASF144:
 4582 0076 706F7274 		.ascii	"port_lock\000"
 4582      5F6C6F63 
 4582      6B00
 4583              	.LASF111:
 4584 0080 776F7273 		.ascii	"worst\000"
 4584      7400
 4585              	.LASF114:
 4586 0086 74696D65 		.ascii	"time_measurement_t\000"
 4586      5F6D6561 
 4586      73757265 
 4586      6D656E74 
 4586      5F7400
 4587              	.LASF13:
 4588 0099 6C6F6E67 		.ascii	"long long unsigned int\000"
ARM GAS  C:\Users\Luis\AppData\Local\Temp\ccMQOx1f.s 			page 83


 4588      206C6F6E 
 4588      6720756E 
 4588      7369676E 
 4588      65642069 
 4589              	.LASF107:
 4590 00b0 63685F74 		.ascii	"ch_trace_buffer_t\000"
 4590      72616365 
 4590      5F627566 
 4590      6665725F 
 4590      7400
 4591              	.LASF102:
 4592 00c2 73655F73 		.ascii	"se_state\000"
 4592      74617465 
 4592      00
 4593              	.LASF121:
 4594 00cb 65786974 		.ascii	"exitcode\000"
 4594      636F6465 
 4594      00
 4595              	.LASF81:
 4596 00d4 6D61696E 		.ascii	"mainthread\000"
 4596      74687265 
 4596      616400
 4597              	.LASF68:
 4598 00df 76697274 		.ascii	"virtual_timers_list_t\000"
 4598      75616C5F 
 4598      74696D65 
 4598      72735F6C 
 4598      6973745F 
 4599              	.LASF179:
 4600 00f5 49544D5F 		.ascii	"ITM_RxBuffer\000"
 4600      52784275 
 4600      66666572 
 4600      00
 4601              	.LASF94:
 4602 0102 42445452 		.ascii	"BDTR\000"
 4602      00
 4603              	.LASF15:
 4604 0107 72747469 		.ascii	"rttime_t\000"
 4604      6D655F74 
 4604      00
 4605              	.LASF28:
 4606 0110 705F7072 		.ascii	"p_prio\000"
 4606      696F00
 4607              	.LASF6:
 4608 0117 73686F72 		.ascii	"short unsigned int\000"
 4608      7420756E 
 4608      7369676E 
 4608      65642069 
 4608      6E7400
 4609              	.LASF91:
 4610 012a 43434D52 		.ascii	"CCMR1\000"
 4610      3100
 4611              	.LASF92:
 4612 0130 43434D52 		.ascii	"CCMR2\000"
 4612      3200
 4613              	.LASF96:
 4614 0136 43434D52 		.ascii	"CCMR3\000"
ARM GAS  C:\Users\Luis\AppData\Local\Temp\ccMQOx1f.s 			page 84


 4614      3300
 4615              	.LASF1:
 4616 013c 7369676E 		.ascii	"signed char\000"
 4616      65642063 
 4616      68617200 
 4617              	.LASF99:
 4618 0148 73655F74 		.ascii	"se_time\000"
 4618      696D6500 
 4619              	.LASF131:
 4620 0150 6D5F7175 		.ascii	"m_queue\000"
 4620      65756500 
 4621              	.LASF173:
 4622 0158 74687265 		.ascii	"thread3\000"
 4622      61643300 
 4623              	.LASF80:
 4624 0160 76746C69 		.ascii	"vtlist\000"
 4624      737400
 4625              	.LASF145:
 4626 0167 706F7274 		.ascii	"port_unlock\000"
 4626      5F756E6C 
 4626      6F636B00 
 4627              	.LASF188:
 4628 0173 433A5C55 		.ascii	"C:\\Users\\Luis\\git\\DSP-Library-Lanin\\examples\\"
 4628      73657273 
 4628      5C4C7569 
 4628      735C6769 
 4628      745C4453 
 4629 01a0 4453502D 		.ascii	"DSP-Library\000"
 4629      4C696272 
 4629      61727900 
 4630              	.LASF161:
 4631 01ac 63684253 		.ascii	"chBSemSignal\000"
 4631      656D5369 
 4631      676E616C 
 4631      00
 4632              	.LASF123:
 4633 01b9 77747472 		.ascii	"wttrp\000"
 4633      7000
 4634              	.LASF78:
 4635 01bf 63685F73 		.ascii	"ch_system\000"
 4635      79737465 
 4635      6D00
 4636              	.LASF8:
 4637 01c9 6C6F6E67 		.ascii	"long int\000"
 4637      20696E74 
 4637      00
 4638              	.LASF171:
 4639 01d2 74617267 		.ascii	"target_time\000"
 4639      65745F74 
 4639      696D6500 
 4640              	.LASF17:
 4641 01de 74737461 		.ascii	"tstate_t\000"
 4641      74655F74 
 4641      00
 4642              	.LASF93:
 4643 01e7 43434552 		.ascii	"CCER\000"
 4643      00
ARM GAS  C:\Users\Luis\AppData\Local\Temp\ccMQOx1f.s 			page 85


 4644              	.LASF100:
 4645 01ec 73655F74 		.ascii	"se_tp\000"
 4645      7000
 4646              	.LASF11:
 4647 01f2 6C6F6E67 		.ascii	"long long int\000"
 4647      206C6F6E 
 4647      6720696E 
 4647      7400
 4648              	.LASF30:
 4649 0200 705F6E65 		.ascii	"p_newer\000"
 4649      77657200 
 4650              	.LASF151:
 4651 0208 71756575 		.ascii	"queue_isempty\000"
 4651      655F6973 
 4651      656D7074 
 4651      7900
 4652              	.LASF128:
 4653 0216 735F7175 		.ascii	"s_queue\000"
 4653      65756500 
 4654              	.LASF104:
 4655 021e 74625F73 		.ascii	"tb_size\000"
 4655      697A6500 
 4656              	.LASF57:
 4657 0226 725F6E65 		.ascii	"r_newer\000"
 4657      77657200 
 4658              	.LASF43:
 4659 022e 705F6D70 		.ascii	"p_mpool\000"
 4659      6F6F6C00 
 4660              	.LASF85:
 4661 0236 72656761 		.ascii	"regarm_t\000"
 4661      726D5F74 
 4661      00
 4662              	.LASF64:
 4663 023f 76745F70 		.ascii	"vt_prev\000"
 4663      72657600 
 4664              	.LASF167:
 4665 0247 73656D32 		.ascii	"sem2_setup\000"
 4665      5F736574 
 4665      757000
 4666              	.LASF178:
 4667 0252 73656D31 		.ascii	"sem1\000"
 4667      00
 4668              	.LASF157:
 4669 0257 74616B65 		.ascii	"taken\000"
 4669      6E00
 4670              	.LASF138:
 4671 025d 6D757465 		.ascii	"mutex_t\000"
 4671      785F7400 
 4672              	.LASF190:
 4673 0265 76616C75 		.ascii	"value\000"
 4673      6500
 4674              	.LASF75:
 4675 026b 6C6F636B 		.ascii	"lock_cnt\000"
 4675      5F636E74 
 4675      00
 4676              	.LASF83:
 4677 0274 69646C65 		.ascii	"idle_thread_wa\000"
ARM GAS  C:\Users\Luis\AppData\Local\Temp\ccMQOx1f.s 			page 86


 4677      5F746872 
 4677      6561645F 
 4677      776100
 4678              	.LASF22:
 4679 0283 636E745F 		.ascii	"cnt_t\000"
 4679      7400
 4680              	.LASF150:
 4681 0289 63685654 		.ascii	"chVTGetSystemTimeX\000"
 4681      47657453 
 4681      79737465 
 4681      6D54696D 
 4681      655800
 4682              	.LASF33:
 4683 029c 705F7374 		.ascii	"p_stklimit\000"
 4683      6B6C696D 
 4683      697400
 4684              	.LASF0:
 4685 02a7 756E7369 		.ascii	"unsigned int\000"
 4685      676E6564 
 4685      20696E74 
 4685      00
 4686              	.LASF63:
 4687 02b4 76745F6E 		.ascii	"vt_next\000"
 4687      65787400 
 4688              	.LASF174:
 4689 02bc 73656D33 		.ascii	"sem3_execute\000"
 4689      5F657865 
 4689      63757465 
 4689      00
 4690              	.LASF124:
 4691 02c9 77747365 		.ascii	"wtsemp\000"
 4691      6D7000
 4692              	.LASF181:
 4693 02d0 74657374 		.ascii	"testsem1\000"
 4693      73656D31 
 4693      00
 4694              	.LASF182:
 4695 02d9 74657374 		.ascii	"testsem2\000"
 4695      73656D32 
 4695      00
 4696              	.LASF183:
 4697 02e2 74657374 		.ascii	"testsem3\000"
 4697      73656D33 
 4697      00
 4698              	.LASF38:
 4699 02eb 705F6D73 		.ascii	"p_msgqueue\000"
 4699      67717565 
 4699      756500
 4700              	.LASF162:
 4701 02f6 63684253 		.ascii	"chBSemGetStateI\000"
 4701      656D4765 
 4701      74537461 
 4701      74654900 
 4702              	.LASF142:
 4703 0306 74656172 		.ascii	"teardown\000"
 4703      646F776E 
 4703      00
ARM GAS  C:\Users\Luis\AppData\Local\Temp\ccMQOx1f.s 			page 87


 4704              	.LASF45:
 4705 030f 746C7350 		.ascii	"tlsPtr\000"
 4705      747200
 4706              	.LASF115:
 4707 0316 6E5F6972 		.ascii	"n_irq\000"
 4707      7100
 4708              	.LASF129:
 4709 031c 735F636E 		.ascii	"s_cnt\000"
 4709      7400
 4710              	.LASF140:
 4711 0322 6E616D65 		.ascii	"name\000"
 4711      00
 4712              	.LASF89:
 4713 0327 534D4352 		.ascii	"SMCR\000"
 4713      00
 4714              	.LASF119:
 4715 032c 6B65726E 		.ascii	"kernel_stats_t\000"
 4715      656C5F73 
 4715      74617473 
 4715      5F7400
 4716              	.LASF48:
 4717 033b 63685F74 		.ascii	"ch_thread\000"
 4717      68726561 
 4717      6400
 4718              	.LASF177:
 4719 0345 6273656D 		.ascii	"bsem\000"
 4719      00
 4720              	.LASF20:
 4721 034a 6D73675F 		.ascii	"msg_t\000"
 4721      7400
 4722              	.LASF112:
 4723 0350 6C617374 		.ascii	"last\000"
 4723      00
 4724              	.LASF23:
 4725 0355 75636E74 		.ascii	"ucnt_t\000"
 4725      5F7400
 4726              	.LASF77:
 4727 035c 63685F73 		.ascii	"ch_system_t\000"
 4727      79737465 
 4727      6D5F7400 
 4728              	.LASF98:
 4729 0368 73746D33 		.ascii	"stm32_tim_t\000"
 4729      325F7469 
 4729      6D5F7400 
 4730              	.LASF170:
 4731 0374 73797374 		.ascii	"systime\000"
 4731      696D6500 
 4732              	.LASF118:
 4733 037c 6D5F6372 		.ascii	"m_crit_isr\000"
 4733      69745F69 
 4733      737200
 4734              	.LASF53:
 4735 0387 63685F72 		.ascii	"ch_ready_list\000"
 4735      65616479 
 4735      5F6C6973 
 4735      7400
 4736              	.LASF21:
ARM GAS  C:\Users\Luis\AppData\Local\Temp\ccMQOx1f.s 			page 88


 4737 0395 6576656E 		.ascii	"eventmask_t\000"
 4737      746D6173 
 4737      6B5F7400 
 4738              	.LASF86:
 4739 03a1 73746B61 		.ascii	"stkalign_t\000"
 4739      6C69676E 
 4739      5F7400
 4740              	.LASF184:
 4741 03ac 74657374 		.ascii	"testsem4\000"
 4741      73656D34 
 4741      00
 4742              	.LASF176:
 4743 03b5 73656D34 		.ascii	"sem4_execute\000"
 4743      5F657865 
 4743      63757465 
 4743      00
 4744              	.LASF37:
 4745 03c2 705F7761 		.ascii	"p_waiting\000"
 4745      6974696E 
 4745      6700
 4746              	.LASF84:
 4747 03cc 73697A65 		.ascii	"sizetype\000"
 4747      74797065 
 4747      00
 4748              	.LASF46:
 4749 03d5 74687265 		.ascii	"thread_reference_t\000"
 4749      61645F72 
 4749      65666572 
 4749      656E6365 
 4749      5F7400
 4750              	.LASF109:
 4751 03e8 746D5F63 		.ascii	"tm_calibration_t\000"
 4751      616C6962 
 4751      72617469 
 4751      6F6E5F74 
 4751      00
 4752              	.LASF69:
 4753 03f9 63685F76 		.ascii	"ch_virtual_timers_list\000"
 4753      69727475 
 4753      616C5F74 
 4753      696D6572 
 4753      735F6C69 
 4754              	.LASF164:
 4755 0410 73656D31 		.ascii	"sem1_setup\000"
 4755      5F736574 
 4755      757000
 4756              	.LASF103:
 4757 041b 63685F73 		.ascii	"ch_swc_event_t\000"
 4757      77635F65 
 4757      76656E74 
 4757      5F7400
 4758              	.LASF70:
 4759 042a 76745F6C 		.ascii	"vt_lasttime\000"
 4759      61737474 
 4759      696D6500 
 4760              	.LASF31:
 4761 0436 705F6F6C 		.ascii	"p_older\000"
ARM GAS  C:\Users\Luis\AppData\Local\Temp\ccMQOx1f.s 			page 89


 4761      64657200 
 4762              	.LASF165:
 4763 043e 74687265 		.ascii	"thread1\000"
 4763      61643100 
 4764              	.LASF168:
 4765 0446 74687265 		.ascii	"thread2\000"
 4765      61643200 
 4766              	.LASF56:
 4767 044e 725F6374 		.ascii	"r_ctx\000"
 4767      7800
 4768              	.LASF175:
 4769 0454 74687265 		.ascii	"thread4\000"
 4769      61643400 
 4770              	.LASF172:
 4771 045c 73656D33 		.ascii	"sem3_setup\000"
 4771      5F736574 
 4771      757000
 4772              	.LASF154:
 4773 0467 63685468 		.ascii	"chThdGetPriorityX\000"
 4773      64476574 
 4773      5072696F 
 4773      72697479 
 4773      5800
 4774              	.LASF141:
 4775 0479 73657475 		.ascii	"setup\000"
 4775      7000
 4776              	.LASF152:
 4777 047f 63685654 		.ascii	"chVTGetSystemTime\000"
 4777      47657453 
 4777      79737465 
 4777      6D54696D 
 4777      6500
 4778              	.LASF59:
 4779 0491 725F6375 		.ascii	"r_current\000"
 4779      7272656E 
 4779      7400
 4780              	.LASF58:
 4781 049b 725F6F6C 		.ascii	"r_older\000"
 4781      64657200 
 4782              	.LASF185:
 4783 04a3 70617474 		.ascii	"patternsem\000"
 4783      65726E73 
 4783      656D00
 4784              	.LASF113:
 4785 04ae 63756D75 		.ascii	"cumulative\000"
 4785      6C617469 
 4785      766500
 4786              	.LASF18:
 4787 04b9 74726566 		.ascii	"trefs_t\000"
 4787      735F7400 
 4788              	.LASF106:
 4789 04c1 74625F62 		.ascii	"tb_buffer\000"
 4789      75666665 
 4789      7200
 4790              	.LASF61:
 4791 04cb 76697274 		.ascii	"virtual_timer_t\000"
 4791      75616C5F 
ARM GAS  C:\Users\Luis\AppData\Local\Temp\ccMQOx1f.s 			page 90


 4791      74696D65 
 4791      725F7400 
 4792              	.LASF27:
 4793 04db 705F7072 		.ascii	"p_prev\000"
 4793      657600
 4794              	.LASF137:
 4795 04e2 62696E61 		.ascii	"binary_semaphore_t\000"
 4795      72795F73 
 4795      656D6170 
 4795      686F7265 
 4795      5F7400
 4796              	.LASF19:
 4797 04f5 74707269 		.ascii	"tprio_t\000"
 4797      6F5F7400 
 4798              	.LASF116:
 4799 04fd 6E5F6374 		.ascii	"n_ctxswc\000"
 4799      78737763 
 4799      00
 4800              	.LASF148:
 4801 0506 5F426F6F 		.ascii	"_Bool\000"
 4801      6C00
 4802              	.LASF7:
 4803 050c 696E7433 		.ascii	"int32_t\000"
 4803      325F7400 
 4804              	.LASF4:
 4805 0514 756E7369 		.ascii	"unsigned char\000"
 4805      676E6564 
 4805      20636861 
 4805      7200
 4806              	.LASF143:
 4807 0522 65786563 		.ascii	"execute\000"
 4807      75746500 
 4808              	.LASF41:
 4809 052a 705F6D74 		.ascii	"p_mtxlist\000"
 4809      786C6973 
 4809      7400
 4810              	.LASF5:
 4811 0534 73686F72 		.ascii	"short int\000"
 4811      7420696E 
 4811      7400
 4812              	.LASF34:
 4813 053e 705F7374 		.ascii	"p_state\000"
 4813      61746500 
 4814              	.LASF180:
 4815 0546 74687265 		.ascii	"threads\000"
 4815      61647300 
 4816              	.LASF55:
 4817 054e 725F7072 		.ascii	"r_prio\000"
 4817      696F00
 4818              	.LASF126:
 4819 0555 65776D61 		.ascii	"ewmask\000"
 4819      736B00
 4820              	.LASF26:
 4821 055c 705F6E65 		.ascii	"p_next\000"
 4821      787400
 4822              	.LASF35:
 4823 0563 705F666C 		.ascii	"p_flags\000"
ARM GAS  C:\Users\Luis\AppData\Local\Temp\ccMQOx1f.s 			page 91


 4823      61677300 
 4824              	.LASF191:
 4825 056b 5F5F6675 		.ascii	"__func__\000"
 4825      6E635F5F 
 4825      00
 4826              	.LASF44:
 4827 0574 705F7374 		.ascii	"p_stats\000"
 4827      61747300 
 4828              	.LASF163:
 4829 057c 63685379 		.ascii	"chSysLock\000"
 4829      734C6F63 
 4829      6B00
 4830              	.LASF135:
 4831 0586 73656D61 		.ascii	"semaphore_t\000"
 4831      70686F72 
 4831      655F7400 
 4832              	.LASF62:
 4833 0592 63685F76 		.ascii	"ch_virtual_timer\000"
 4833      69727475 
 4833      616C5F74 
 4833      696D6572 
 4833      00
 4834              	.LASF139:
 4835 05a3 74657374 		.ascii	"testcase\000"
 4835      63617365 
 4835      00
 4836              	.LASF127:
 4837 05ac 63685F73 		.ascii	"ch_semaphore\000"
 4837      656D6170 
 4837      686F7265 
 4837      00
 4838              	.LASF97:
 4839 05b9 43435852 		.ascii	"CCXR\000"
 4839      00
 4840              	.LASF40:
 4841 05be 705F6570 		.ascii	"p_epending\000"
 4841      656E6469 
 4841      6E6700
 4842              	.LASF146:
 4843 05c9 73745F6C 		.ascii	"st_lld_get_counter\000"
 4843      6C645F67 
 4843      65745F63 
 4843      6F756E74 
 4843      657200
 4844              	.LASF9:
 4845 05dc 75696E74 		.ascii	"uint32_t\000"
 4845      33325F74 
 4845      00
 4846              	.LASF125:
 4847 05e5 77746D74 		.ascii	"wtmtxp\000"
 4847      787000
 4848              	.LASF54:
 4849 05ec 725F7175 		.ascii	"r_queue\000"
 4849      65756500 
 4850              	.LASF65:
 4851 05f4 76745F64 		.ascii	"vt_delta\000"
 4851      656C7461 
ARM GAS  C:\Users\Luis\AppData\Local\Temp\ccMQOx1f.s 			page 92


 4851      00
 4852              	.LASF49:
 4853 05fd 63685F74 		.ascii	"ch_threads_list\000"
 4853      68726561 
 4853      64735F6C 
 4853      69737400 
 4854              	.LASF10:
 4855 060d 6C6F6E67 		.ascii	"long unsigned int\000"
 4855      20756E73 
 4855      69676E65 
 4855      6420696E 
 4855      7400
 4856              	.LASF134:
 4857 061f 63686172 		.ascii	"char\000"
 4857      00
 4858              	.LASF39:
 4859 0624 705F6D73 		.ascii	"p_msg\000"
 4859      6700
 4860              	.LASF95:
 4861 062a 444D4152 		.ascii	"DMAR\000"
 4861      00
 4862              	.LASF158:
 4863 062f 63684253 		.ascii	"chBSemWait\000"
 4863      656D5761 
 4863      697400
 4864              	.LASF186:
 4865 063a 474E5520 		.ascii	"GNU C 4.8.3 20131129 (release) [ARM/embedded-4_8-br"
 4865      4320342E 
 4865      382E3320 
 4865      32303133 
 4865      31313239 
 4866 066d 616E6368 		.ascii	"anch revision 205641] -mcpu=cortex-m4 -mapcs-frame "
 4866      20726576 
 4866      6973696F 
 4866      6E203230 
 4866      35363431 
 4867 06a0 2D6D6E6F 		.ascii	"-mno-thumb-interwork -mthumb -ggdb -O0 -falign-func"
 4867      2D746875 
 4867      6D622D69 
 4867      6E746572 
 4867      776F726B 
 4868 06d3 74696F6E 		.ascii	"tions=16 -ffunction-sections -fdata-sections -fno-c"
 4868      733D3136 
 4868      202D6666 
 4868      756E6374 
 4868      696F6E2D 
 4869 0706 6F6D6D6F 		.ascii	"ommon\000"
 4869      6E00
 4870              	.LASF110:
 4871 070c 62657374 		.ascii	"best\000"
 4871      00
 4872              	.LASF187:
 4873 0711 2E2E2F2E 		.ascii	"../../ChibiOS/test/rt/testsem.c\000"
 4873      2E2F4368 
 4873      6962694F 
 4873      532F7465 
 4873      73742F72 
ARM GAS  C:\Users\Luis\AppData\Local\Temp\ccMQOx1f.s 			page 93


 4874              	.LASF133:
 4875 0731 6D5F6E65 		.ascii	"m_next\000"
 4875      787400
 4876              	.LASF24:
 4877 0738 73797374 		.ascii	"systime_t\000"
 4877      696D655F 
 4877      7400
 4878              	.LASF42:
 4879 0742 705F7265 		.ascii	"p_realprio\000"
 4879      616C7072 
 4879      696F00
 4880              	.LASF60:
 4881 074d 76746675 		.ascii	"vtfunc_t\000"
 4881      6E635F74 
 4881      00
 4882              	.LASF155:
 4883 0756 63685365 		.ascii	"chSemGetCounterI\000"
 4883      6D476574 
 4883      436F756E 
 4883      74657249 
 4883      00
 4884              	.LASF189:
 4885 0767 5F5F7365 		.ascii	"__set_BASEPRI\000"
 4885      745F4241 
 4885      53455052 
 4885      4900
 4886              	.LASF73:
 4887 0775 70616E69 		.ascii	"panic_msg\000"
 4887      635F6D73 
 4887      6700
 4888              	.LASF108:
 4889 077f 6F666673 		.ascii	"offset\000"
 4889      657400
 4890              	.LASF87:
 4891 0786 636F6E74 		.ascii	"context\000"
 4891      65787400 
 4892              	.LASF147:
 4893 078e 706F7274 		.ascii	"port_timer_get_time\000"
 4893      5F74696D 
 4893      65725F67 
 4893      65745F74 
 4893      696D6500 
 4894              	.LASF14:
 4895 07a2 7274636E 		.ascii	"rtcnt_t\000"
 4895      745F7400 
 4896              	.LASF169:
 4897 07aa 73656D32 		.ascii	"sem2_execute\000"
 4897      5F657865 
 4897      63757465 
 4897      00
 4898              	.LASF67:
 4899 07b7 76745F70 		.ascii	"vt_par\000"
 4899      617200
 4900              	.LASF50:
 4901 07be 74687265 		.ascii	"threads_queue_t\000"
 4901      6164735F 
 4901      71756575 
ARM GAS  C:\Users\Luis\AppData\Local\Temp\ccMQOx1f.s 			page 94


 4901      655F7400 
 4902              	.LASF130:
 4903 07ce 63685F6D 		.ascii	"ch_mutex\000"
 4903      75746578 
 4903      00
 4904              	.LASF36:
 4905 07d7 705F7265 		.ascii	"p_refs\000"
 4905      667300
 4906              	.LASF74:
 4907 07de 6973725F 		.ascii	"isr_cnt\000"
 4907      636E7400 
 4908              	.LASF25:
 4909 07e6 74687265 		.ascii	"thread_t\000"
 4909      61645F74 
 4909      00
 4910              	.LASF79:
 4911 07ef 726C6973 		.ascii	"rlist\000"
 4911      7400
 4912              	.LASF153:
 4913 07f5 63685468 		.ascii	"chThdGetSelfX\000"
 4913      64476574 
 4913      53656C66 
 4913      5800
 4914              	.LASF3:
 4915 0803 75696E74 		.ascii	"uint8_t\000"
 4915      385F7400 
 4916              	.LASF160:
 4917 080b 63684253 		.ascii	"chBSemSignalI\000"
 4917      656D5369 
 4917      676E616C 
 4917      4900
 4918              	.LASF122:
 4919 0819 77746F62 		.ascii	"wtobjp\000"
 4919      6A7000
 4920              	.LASF32:
 4921 0820 705F6E61 		.ascii	"p_name\000"
 4921      6D6500
 4922              	.LASF156:
 4923 0827 63684253 		.ascii	"chBSemObjectInit\000"
 4923      656D4F62 
 4923      6A656374 
 4923      496E6974 
 4923      00
 4924              	.LASF47:
 4925 0838 74687265 		.ascii	"threads_list_t\000"
 4925      6164735F 
 4925      6C697374 
 4925      5F7400
 4926              	.LASF16:
 4927 0847 746D6F64 		.ascii	"tmode_t\000"
 4927      655F7400 
 4928              	.LASF76:
 4929 084f 74726163 		.ascii	"trace_buffer\000"
 4929      655F6275 
 4929      66666572 
 4929      00
 4930              	.LASF136:
ARM GAS  C:\Users\Luis\AppData\Local\Temp\ccMQOx1f.s 			page 95


 4931 085c 62735F73 		.ascii	"bs_sem\000"
 4931      656D00
 4932              	.LASF149:
 4933 0863 63685379 		.ascii	"chSysUnlock\000"
 4933      73556E6C 
 4933      6F636B00 
 4934              	.LASF72:
 4935 086f 63685F73 		.ascii	"ch_system_debug\000"
 4935      79737465 
 4935      6D5F6465 
 4935      62756700 
 4936              	.LASF159:
 4937 087f 63684253 		.ascii	"chBSemReset\000"
 4937      656D5265 
 4937      73657400 
 4938              	.LASF117:
 4939 088b 6D5F6372 		.ascii	"m_crit_thd\000"
 4939      69745F74 
 4939      686400
 4940              	.LASF132:
 4941 0896 6D5F6F77 		.ascii	"m_owner\000"
 4941      6E657200 
 4942              	.LASF101:
 4943 089e 73655F77 		.ascii	"se_wtobjp\000"
 4943      746F626A 
 4943      7000
 4944              	.LASF29:
 4945 08a8 705F6374 		.ascii	"p_ctx\000"
 4945      7800
 4946              	.LASF66:
 4947 08ae 76745F66 		.ascii	"vt_func\000"
 4947      756E6300 
 4948              		.ident	"GCC: (GNU Tools for ARM Embedded Processors) 4.8.3 20131129 (release) [ARM/embedded-4_8-br
ARM GAS  C:\Users\Luis\AppData\Local\Temp\ccMQOx1f.s 			page 96


DEFINED SYMBOLS
                            *ABS*:00000000 testsem.c
C:\Users\Luis\AppData\Local\Temp\ccMQOx1f.s:19     .text.port_lock:00000000 $t
C:\Users\Luis\AppData\Local\Temp\ccMQOx1f.s:24     .text.port_lock:00000000 port_lock
C:\Users\Luis\AppData\Local\Temp\ccMQOx1f.s:62     .text.port_unlock:00000000 $t
C:\Users\Luis\AppData\Local\Temp\ccMQOx1f.s:67     .text.port_unlock:00000000 port_unlock
C:\Users\Luis\AppData\Local\Temp\ccMQOx1f.s:103    .text.st_lld_get_counter:00000000 $t
C:\Users\Luis\AppData\Local\Temp\ccMQOx1f.s:108    .text.st_lld_get_counter:00000000 st_lld_get_counter
C:\Users\Luis\AppData\Local\Temp\ccMQOx1f.s:134    .text.port_timer_get_time:00000000 $t
C:\Users\Luis\AppData\Local\Temp\ccMQOx1f.s:139    .text.port_timer_get_time:00000000 port_timer_get_time
C:\Users\Luis\AppData\Local\Temp\ccMQOx1f.s:162    .text.queue_isempty:00000000 $t
C:\Users\Luis\AppData\Local\Temp\ccMQOx1f.s:167    .text.queue_isempty:00000000 queue_isempty
C:\Users\Luis\AppData\Local\Temp\ccMQOx1f.s:203    .text.chSysLock:00000000 $t
C:\Users\Luis\AppData\Local\Temp\ccMQOx1f.s:208    .text.chSysLock:00000000 chSysLock
C:\Users\Luis\AppData\Local\Temp\ccMQOx1f.s:233    .text.chSysUnlock:00000000 $t
C:\Users\Luis\AppData\Local\Temp\ccMQOx1f.s:238    .text.chSysUnlock:00000000 chSysUnlock
C:\Users\Luis\AppData\Local\Temp\ccMQOx1f.s:279    .text.chSysUnlock:00000034 $d
C:\Users\Luis\AppData\Local\Temp\ccMQOx1f.s:1848   .rodata.__func__.5842:00000000 __func__.5842
C:\Users\Luis\AppData\Local\Temp\ccMQOx1f.s:285    .text.chVTGetSystemTimeX:00000000 $t
C:\Users\Luis\AppData\Local\Temp\ccMQOx1f.s:290    .text.chVTGetSystemTimeX:00000000 chVTGetSystemTimeX
C:\Users\Luis\AppData\Local\Temp\ccMQOx1f.s:313    .text.chVTGetSystemTime:00000000 $t
C:\Users\Luis\AppData\Local\Temp\ccMQOx1f.s:318    .text.chVTGetSystemTime:00000000 chVTGetSystemTime
C:\Users\Luis\AppData\Local\Temp\ccMQOx1f.s:351    .text.chThdGetSelfX:00000000 $t
C:\Users\Luis\AppData\Local\Temp\ccMQOx1f.s:356    .text.chThdGetSelfX:00000000 chThdGetSelfX
C:\Users\Luis\AppData\Local\Temp\ccMQOx1f.s:381    .text.chThdGetSelfX:00000014 $d
C:\Users\Luis\AppData\Local\Temp\ccMQOx1f.s:386    .text.chThdGetPriorityX:00000000 $t
C:\Users\Luis\AppData\Local\Temp\ccMQOx1f.s:391    .text.chThdGetPriorityX:00000000 chThdGetPriorityX
C:\Users\Luis\AppData\Local\Temp\ccMQOx1f.s:414    .text.chSemGetCounterI:00000000 $t
C:\Users\Luis\AppData\Local\Temp\ccMQOx1f.s:419    .text.chSemGetCounterI:00000000 chSemGetCounterI
C:\Users\Luis\AppData\Local\Temp\ccMQOx1f.s:450    .text.chBSemObjectInit:00000000 $t
C:\Users\Luis\AppData\Local\Temp\ccMQOx1f.s:455    .text.chBSemObjectInit:00000000 chBSemObjectInit
C:\Users\Luis\AppData\Local\Temp\ccMQOx1f.s:498    .text.chBSemWait:00000000 $t
C:\Users\Luis\AppData\Local\Temp\ccMQOx1f.s:503    .text.chBSemWait:00000000 chBSemWait
C:\Users\Luis\AppData\Local\Temp\ccMQOx1f.s:533    .text.chBSemReset:00000000 $t
C:\Users\Luis\AppData\Local\Temp\ccMQOx1f.s:538    .text.chBSemReset:00000000 chBSemReset
C:\Users\Luis\AppData\Local\Temp\ccMQOx1f.s:580    .text.chBSemSignalI:00000000 $t
C:\Users\Luis\AppData\Local\Temp\ccMQOx1f.s:585    .text.chBSemSignalI:00000000 chBSemSignalI
C:\Users\Luis\AppData\Local\Temp\ccMQOx1f.s:621    .text.chBSemSignal:00000000 $t
C:\Users\Luis\AppData\Local\Temp\ccMQOx1f.s:626    .text.chBSemSignal:00000000 chBSemSignal
C:\Users\Luis\AppData\Local\Temp\ccMQOx1f.s:659    .text.chBSemGetStateI:00000000 $t
C:\Users\Luis\AppData\Local\Temp\ccMQOx1f.s:664    .text.chBSemGetStateI:00000000 chBSemGetStateI
C:\Users\Luis\AppData\Local\Temp\ccMQOx1f.s:699    .data.sem1:00000000 $d
C:\Users\Luis\AppData\Local\Temp\ccMQOx1f.s:702    .data.sem1:00000000 sem1
C:\Users\Luis\AppData\Local\Temp\ccMQOx1f.s:707    .text.sem1_setup:00000000 $t
C:\Users\Luis\AppData\Local\Temp\ccMQOx1f.s:712    .text.sem1_setup:00000000 sem1_setup
C:\Users\Luis\AppData\Local\Temp\ccMQOx1f.s:734    .text.sem1_setup:00000010 $d
C:\Users\Luis\AppData\Local\Temp\ccMQOx1f.s:739    .text.thread1:00000000 $t
C:\Users\Luis\AppData\Local\Temp\ccMQOx1f.s:744    .text.thread1:00000000 thread1
C:\Users\Luis\AppData\Local\Temp\ccMQOx1f.s:775    .text.thread1:00000020 $d
C:\Users\Luis\AppData\Local\Temp\ccMQOx1f.s:780    .rodata:00000000 $d
C:\Users\Luis\AppData\Local\Temp\ccMQOx1f.s:799    .text.sem1_execute:00000000 $t
C:\Users\Luis\AppData\Local\Temp\ccMQOx1f.s:804    .text.sem1_execute:00000000 sem1_execute
C:\Users\Luis\AppData\Local\Temp\ccMQOx1f.s:985    .text.sem1_execute:0000015c $d
C:\Users\Luis\AppData\Local\Temp\ccMQOx1f.s:1007   .rodata.testsem1:00000000 testsem1
C:\Users\Luis\AppData\Local\Temp\ccMQOx1f.s:1004   .rodata.testsem1:00000000 $d
C:\Users\Luis\AppData\Local\Temp\ccMQOx1f.s:1013   .text.sem2_setup:00000000 $t
C:\Users\Luis\AppData\Local\Temp\ccMQOx1f.s:1018   .text.sem2_setup:00000000 sem2_setup
ARM GAS  C:\Users\Luis\AppData\Local\Temp\ccMQOx1f.s 			page 97


C:\Users\Luis\AppData\Local\Temp\ccMQOx1f.s:1039   .text.sem2_setup:00000010 $d
C:\Users\Luis\AppData\Local\Temp\ccMQOx1f.s:1044   .text.thread2:00000000 $t
C:\Users\Luis\AppData\Local\Temp\ccMQOx1f.s:1049   .text.thread2:00000000 thread2
C:\Users\Luis\AppData\Local\Temp\ccMQOx1f.s:1084   .text.thread2:00000028 $d
C:\Users\Luis\AppData\Local\Temp\ccMQOx1f.s:1089   .text.sem2_execute:00000000 $t
C:\Users\Luis\AppData\Local\Temp\ccMQOx1f.s:1094   .text.sem2_execute:00000000 sem2_execute
C:\Users\Luis\AppData\Local\Temp\ccMQOx1f.s:1339   .text.sem2_execute:000001a8 $d
C:\Users\Luis\AppData\Local\Temp\ccMQOx1f.s:1356   .rodata.testsem2:00000000 testsem2
C:\Users\Luis\AppData\Local\Temp\ccMQOx1f.s:1353   .rodata.testsem2:00000000 $d
C:\Users\Luis\AppData\Local\Temp\ccMQOx1f.s:1362   .text.sem3_setup:00000000 $t
C:\Users\Luis\AppData\Local\Temp\ccMQOx1f.s:1367   .text.sem3_setup:00000000 sem3_setup
C:\Users\Luis\AppData\Local\Temp\ccMQOx1f.s:1388   .text.sem3_setup:00000010 $d
C:\Users\Luis\AppData\Local\Temp\ccMQOx1f.s:1393   .text.thread3:00000000 $t
C:\Users\Luis\AppData\Local\Temp\ccMQOx1f.s:1398   .text.thread3:00000000 thread3
C:\Users\Luis\AppData\Local\Temp\ccMQOx1f.s:1427   .text.thread3:0000001c $d
C:\Users\Luis\AppData\Local\Temp\ccMQOx1f.s:1432   .text.sem3_execute:00000000 $t
C:\Users\Luis\AppData\Local\Temp\ccMQOx1f.s:1437   .text.sem3_execute:00000000 sem3_execute
C:\Users\Luis\AppData\Local\Temp\ccMQOx1f.s:1544   .text.sem3_execute:000000ac $d
C:\Users\Luis\AppData\Local\Temp\ccMQOx1f.s:1560   .rodata.testsem3:00000000 testsem3
C:\Users\Luis\AppData\Local\Temp\ccMQOx1f.s:1557   .rodata.testsem3:00000000 $d
C:\Users\Luis\AppData\Local\Temp\ccMQOx1f.s:1566   .text.thread4:00000000 $t
C:\Users\Luis\AppData\Local\Temp\ccMQOx1f.s:1571   .text.thread4:00000000 thread4
C:\Users\Luis\AppData\Local\Temp\ccMQOx1f.s:1598   .text.sem4_execute:00000000 $t
C:\Users\Luis\AppData\Local\Temp\ccMQOx1f.s:1603   .text.sem4_execute:00000000 sem4_execute
C:\Users\Luis\AppData\Local\Temp\ccMQOx1f.s:1813   .text.sem4_execute:00000194 $d
C:\Users\Luis\AppData\Local\Temp\ccMQOx1f.s:1828   .rodata.testsem4:00000000 testsem4
C:\Users\Luis\AppData\Local\Temp\ccMQOx1f.s:1825   .rodata.testsem4:00000000 $d
C:\Users\Luis\AppData\Local\Temp\ccMQOx1f.s:1838   .rodata.patternsem:00000000 patternsem
C:\Users\Luis\AppData\Local\Temp\ccMQOx1f.s:1835   .rodata.patternsem:00000000 $d
C:\Users\Luis\AppData\Local\Temp\ccMQOx1f.s:1845   .rodata.__func__.5842:00000000 $d
                     .debug_frame:00000010 $d
C:\Users\Luis\AppData\Local\Temp\ccMQOx1f.s:284    .text.chSysUnlock:0000003c $t
C:\Users\Luis\AppData\Local\Temp\ccMQOx1f.s:385    .text.chThdGetSelfX:00000018 $t
C:\Users\Luis\AppData\Local\Temp\ccMQOx1f.s:738    .text.sem1_setup:00000014 $t
C:\Users\Luis\AppData\Local\Temp\ccMQOx1f.s:779    .text.thread1:00000024 $t
C:\Users\Luis\AppData\Local\Temp\ccMQOx1f.s:999    .text.sem1_execute:00000184 $t
C:\Users\Luis\AppData\Local\Temp\ccMQOx1f.s:1043   .text.sem2_setup:00000014 $t
C:\Users\Luis\AppData\Local\Temp\ccMQOx1f.s:1088   .text.thread2:0000002c $t
C:\Users\Luis\AppData\Local\Temp\ccMQOx1f.s:1348   .text.sem2_execute:000001bc $t
C:\Users\Luis\AppData\Local\Temp\ccMQOx1f.s:1392   .text.sem3_setup:00000014 $t
C:\Users\Luis\AppData\Local\Temp\ccMQOx1f.s:1552   .text.sem3_execute:000000bc $t

UNDEFINED SYMBOLS
_stats_start_measure_crit_thd
_dbg_check_lock
_dbg_check_unlock
_stats_stop_measure_crit_thd
chSysHalt
ch
chDbgCheckClassI
chSemObjectInit
chSemWait
chSemReset
chSemSignalI
chSchRescheduleS
test_emit_token
chThdCreateStatic
ARM GAS  C:\Users\Luis\AppData\Local\Temp\ccMQOx1f.s 			page 98


chSemSignal
test_wait_threads
_test_assert_sequence
chSemAddCounterI
_test_assert
wa
threads
chThdSleep
chSemWaitTimeout
test_wait_tick
_test_assert_time_window
chSemSignalWait
