ARM GAS  C:\Users\Luis\AppData\Local\Temp\ccdFa5ak.s 			page 1


   1              		.syntax unified
   2              		.cpu cortex-m4
   3              		.fpu softvfp
   4              		.eabi_attribute 20, 1
   5              		.eabi_attribute 21, 1
   6              		.eabi_attribute 23, 3
   7              		.eabi_attribute 24, 1
   8              		.eabi_attribute 25, 1
   9              		.eabi_attribute 26, 1
  10              		.eabi_attribute 30, 6
  11              		.eabi_attribute 34, 1
  12              		.eabi_attribute 18, 4
  13              		.thumb
  14              		.file	"testpools.c"
  15              		.text
  16              	.Ltext0:
  17              		.cfi_sections	.debug_frame
  18              		.section	.data.mp1,"aw",%progbits
  19              		.align	2
  20              		.type	mp1, %object
  21              		.size	mp1, 12
  22              	mp1:
  23 0000 00000000 		.word	0
  24 0004 70010000 		.word	368
  25 0008 00000000 		.word	0
  26              		.section	.text.null_provider,"ax",%progbits
  27              		.align	2
  28              		.p2align 4,,15
  29              		.thumb
  30              		.thumb_func
  31              		.type	null_provider, %function
  32              	null_provider:
  33              	.LFB229:
  34              		.file 1 "../../ChibiOS/test/rt/testpools.c"
  35              		.loc 1 60 0
  36              		.cfi_startproc
  37              		@ args = 0, pretend = 0, frame = 8
  38              		@ frame_needed = 1, uses_anonymous_args = 0
  39              		@ link register save eliminated.
  40 0000 80B4     		push	{r7}
  41              		.cfi_def_cfa_offset 4
  42              		.cfi_offset 7, -4
  43 0002 83B0     		sub	sp, sp, #12
  44              		.cfi_def_cfa_offset 16
  45 0004 00AF     		add	r7, sp, #0
  46              		.cfi_def_cfa_register 7
  47 0006 7860     		str	r0, [r7, #4]
  48              		.loc 1 63 0
  49 0008 0023     		movs	r3, #0
  50              		.loc 1 64 0
  51 000a 1846     		mov	r0, r3
  52 000c 0C37     		adds	r7, r7, #12
  53 000e BD46     		mov	sp, r7
  54              		@ sp needed
  55 0010 5DF8047B 		ldr	r7, [sp], #4
  56 0014 7047     		bx	lr
  57              		.cfi_endproc
ARM GAS  C:\Users\Luis\AppData\Local\Temp\ccdFa5ak.s 			page 2


  58              	.LFE229:
  59              		.size	null_provider, .-null_provider
  60 0016 00BFAFF3 		.section	.text.pools1_setup,"ax",%progbits
  60      0080AFF3 
  60      0080
  61              		.align	2
  62              		.p2align 4,,15
  63              		.thumb
  64              		.thumb_func
  65              		.type	pools1_setup, %function
  66              	pools1_setup:
  67              	.LFB230:
  68              		.loc 1 66 0
  69              		.cfi_startproc
  70              		@ args = 0, pretend = 0, frame = 0
  71              		@ frame_needed = 1, uses_anonymous_args = 0
  72 0000 80B5     		push	{r7, lr}
  73              		.cfi_def_cfa_offset 8
  74              		.cfi_offset 7, -8
  75              		.cfi_offset 14, -4
  76 0002 00AF     		add	r7, sp, #0
  77              		.cfi_def_cfa_register 7
  78              		.loc 1 68 0
  79 0004 0348     		ldr	r0, .L4
  80 0006 4FF4B871 		mov	r1, #368
  81 000a 0022     		movs	r2, #0
  82 000c FFF7FEFF 		bl	chPoolObjectInit
  83              		.loc 1 69 0
  84 0010 80BD     		pop	{r7, pc}
  85              	.L5:
  86 0012 00BF     		.align	2
  87              	.L4:
  88 0014 00000000 		.word	mp1
  89              		.cfi_endproc
  90              	.LFE230:
  91              		.size	pools1_setup, .-pools1_setup
  92 0018 AFF30080 		.section	.text.pools1_execute,"ax",%progbits
  92      AFF30080 
  93              		.align	2
  94              		.p2align 4,,15
  95              		.thumb
  96              		.thumb_func
  97              		.type	pools1_execute, %function
  98              	pools1_execute:
  99              	.LFB231:
 100              		.loc 1 71 0
 101              		.cfi_startproc
 102              		@ args = 0, pretend = 0, frame = 8
 103              		@ frame_needed = 1, uses_anonymous_args = 0
 104 0000 80B5     		push	{r7, lr}
 105              		.cfi_def_cfa_offset 8
 106              		.cfi_offset 7, -8
 107              		.cfi_offset 14, -4
 108 0002 82B0     		sub	sp, sp, #8
 109              		.cfi_def_cfa_offset 16
 110 0004 00AF     		add	r7, sp, #0
 111              		.cfi_def_cfa_register 7
ARM GAS  C:\Users\Luis\AppData\Local\Temp\ccdFa5ak.s 			page 3


 112              		.loc 1 75 0
 113 0006 434B     		ldr	r3, .L18
 114 0008 1B68     		ldr	r3, [r3]
 115 000a 4348     		ldr	r0, .L18+4
 116 000c 1946     		mov	r1, r3
 117 000e 0522     		movs	r2, #5
 118 0010 FFF7FEFF 		bl	chPoolLoadArray
 119              		.loc 1 78 0
 120 0014 0023     		movs	r3, #0
 121 0016 7B60     		str	r3, [r7, #4]
 122 0018 13E0     		b	.L7
 123              	.L10:
 124              		.loc 1 79 0
 125 001a 3F48     		ldr	r0, .L18+4
 126 001c FFF7FEFF 		bl	chPoolAlloc
 127 0020 0346     		mov	r3, r0
 128 0022 002B     		cmp	r3, #0
 129 0024 0CBF     		ite	eq
 130 0026 0023     		moveq	r3, #0
 131 0028 0123     		movne	r3, #1
 132 002a DBB2     		uxtb	r3, r3
 133 002c 0120     		movs	r0, #1
 134 002e 1946     		mov	r1, r3
 135 0030 FFF7FEFF 		bl	_test_assert
 136 0034 0346     		mov	r3, r0
 137 0036 002B     		cmp	r3, #0
 138 0038 00D0     		beq	.L8
 139              		.loc 1 79 0 is_stmt 0 discriminator 1
 140 003a 68E0     		b	.L6
 141              	.L8:
 142              		.loc 1 78 0 is_stmt 1
 143 003c 7B68     		ldr	r3, [r7, #4]
 144 003e 0133     		adds	r3, r3, #1
 145 0040 7B60     		str	r3, [r7, #4]
 146              	.L7:
 147              		.loc 1 78 0 is_stmt 0 discriminator 1
 148 0042 7B68     		ldr	r3, [r7, #4]
 149 0044 042B     		cmp	r3, #4
 150 0046 E8DD     		ble	.L10
 151              		.loc 1 82 0 is_stmt 1
 152 0048 3348     		ldr	r0, .L18+4
 153 004a FFF7FEFF 		bl	chPoolAlloc
 154 004e 0346     		mov	r3, r0
 155 0050 002B     		cmp	r3, #0
 156 0052 14BF     		ite	ne
 157 0054 0023     		movne	r3, #0
 158 0056 0123     		moveq	r3, #1
 159 0058 DBB2     		uxtb	r3, r3
 160 005a 0220     		movs	r0, #2
 161 005c 1946     		mov	r1, r3
 162 005e FFF7FEFF 		bl	_test_assert
 163 0062 0346     		mov	r3, r0
 164 0064 002B     		cmp	r3, #0
 165 0066 00D0     		beq	.L11
 166              		.loc 1 82 0 is_stmt 0 discriminator 1
 167 0068 51E0     		b	.L6
 168              	.L11:
ARM GAS  C:\Users\Luis\AppData\Local\Temp\ccdFa5ak.s 			page 4


 169              		.loc 1 85 0 is_stmt 1
 170 006a 0023     		movs	r3, #0
 171 006c 7B60     		str	r3, [r7, #4]
 172 006e 0AE0     		b	.L12
 173              	.L13:
 174              		.loc 1 86 0 discriminator 2
 175 0070 284B     		ldr	r3, .L18
 176 0072 7A68     		ldr	r2, [r7, #4]
 177 0074 53F82230 		ldr	r3, [r3, r2, lsl #2]
 178 0078 2748     		ldr	r0, .L18+4
 179 007a 1946     		mov	r1, r3
 180 007c FFF7FEFF 		bl	chPoolFree
 181              		.loc 1 85 0 discriminator 2
 182 0080 7B68     		ldr	r3, [r7, #4]
 183 0082 0133     		adds	r3, r3, #1
 184 0084 7B60     		str	r3, [r7, #4]
 185              	.L12:
 186              		.loc 1 85 0 is_stmt 0 discriminator 1
 187 0086 7B68     		ldr	r3, [r7, #4]
 188 0088 042B     		cmp	r3, #4
 189 008a F1DD     		ble	.L13
 190              		.loc 1 89 0 is_stmt 1
 191 008c 0023     		movs	r3, #0
 192 008e 7B60     		str	r3, [r7, #4]
 193 0090 13E0     		b	.L14
 194              	.L16:
 195              		.loc 1 90 0
 196 0092 2148     		ldr	r0, .L18+4
 197 0094 FFF7FEFF 		bl	chPoolAlloc
 198 0098 0346     		mov	r3, r0
 199 009a 002B     		cmp	r3, #0
 200 009c 0CBF     		ite	eq
 201 009e 0023     		moveq	r3, #0
 202 00a0 0123     		movne	r3, #1
 203 00a2 DBB2     		uxtb	r3, r3
 204 00a4 0320     		movs	r0, #3
 205 00a6 1946     		mov	r1, r3
 206 00a8 FFF7FEFF 		bl	_test_assert
 207 00ac 0346     		mov	r3, r0
 208 00ae 002B     		cmp	r3, #0
 209 00b0 00D0     		beq	.L15
 210              		.loc 1 90 0 is_stmt 0 discriminator 1
 211 00b2 2CE0     		b	.L6
 212              	.L15:
 213              		.loc 1 89 0 is_stmt 1
 214 00b4 7B68     		ldr	r3, [r7, #4]
 215 00b6 0133     		adds	r3, r3, #1
 216 00b8 7B60     		str	r3, [r7, #4]
 217              	.L14:
 218              		.loc 1 89 0 is_stmt 0 discriminator 1
 219 00ba 7B68     		ldr	r3, [r7, #4]
 220 00bc 042B     		cmp	r3, #4
 221 00be E8DD     		ble	.L16
 222              		.loc 1 93 0 is_stmt 1
 223 00c0 1548     		ldr	r0, .L18+4
 224 00c2 FFF7FEFF 		bl	chPoolAlloc
 225 00c6 0346     		mov	r3, r0
ARM GAS  C:\Users\Luis\AppData\Local\Temp\ccdFa5ak.s 			page 5


 226 00c8 002B     		cmp	r3, #0
 227 00ca 14BF     		ite	ne
 228 00cc 0023     		movne	r3, #0
 229 00ce 0123     		moveq	r3, #1
 230 00d0 DBB2     		uxtb	r3, r3
 231 00d2 0420     		movs	r0, #4
 232 00d4 1946     		mov	r1, r3
 233 00d6 FFF7FEFF 		bl	_test_assert
 234 00da 0346     		mov	r3, r0
 235 00dc 002B     		cmp	r3, #0
 236 00de 00D0     		beq	.L17
 237              		.loc 1 93 0 is_stmt 0 discriminator 1
 238 00e0 15E0     		b	.L6
 239              	.L17:
 240              		.loc 1 96 0 is_stmt 1
 241 00e2 0D48     		ldr	r0, .L18+4
 242 00e4 1021     		movs	r1, #16
 243 00e6 0D4A     		ldr	r2, .L18+8
 244 00e8 FFF7FEFF 		bl	chPoolObjectInit
 245              		.loc 1 97 0
 246 00ec 0A48     		ldr	r0, .L18+4
 247 00ee FFF7FEFF 		bl	chPoolAlloc
 248 00f2 0346     		mov	r3, r0
 249 00f4 002B     		cmp	r3, #0
 250 00f6 14BF     		ite	ne
 251 00f8 0023     		movne	r3, #0
 252 00fa 0123     		moveq	r3, #1
 253 00fc DBB2     		uxtb	r3, r3
 254 00fe 0520     		movs	r0, #5
 255 0100 1946     		mov	r1, r3
 256 0102 FFF7FEFF 		bl	_test_assert
 257 0106 0346     		mov	r3, r0
 258 0108 002B     		cmp	r3, #0
 259 010a 00D0     		beq	.L6
 260              		.loc 1 97 0 is_stmt 0 discriminator 1
 261 010c 00BF     		nop
 262              	.L6:
 263              		.loc 1 98 0 is_stmt 1
 264 010e 0837     		adds	r7, r7, #8
 265 0110 BD46     		mov	sp, r7
 266              		@ sp needed
 267 0112 80BD     		pop	{r7, pc}
 268              	.L19:
 269              		.align	2
 270              	.L18:
 271 0114 00000000 		.word	wa
 272 0118 00000000 		.word	mp1
 273 011c 00000000 		.word	null_provider
 274              		.cfi_endproc
 275              	.LFE231:
 276              		.size	pools1_execute, .-pools1_execute
 277              		.global	testpools1
 278              		.section	.rodata
 279              		.align	2
 280              	.LC0:
 281 0000 4D656D6F 		.ascii	"Memory Pools, queue/dequeue\000"
 281      72792050 
ARM GAS  C:\Users\Luis\AppData\Local\Temp\ccdFa5ak.s 			page 6


 281      6F6F6C73 
 281      2C207175 
 281      6575652F 
 282              		.section	.rodata.testpools1,"a",%progbits
 283              		.align	2
 284              		.type	testpools1, %object
 285              		.size	testpools1, 16
 286              	testpools1:
 287 0000 00000000 		.word	.LC0
 288 0004 00000000 		.word	pools1_setup
 289 0008 00000000 		.word	0
 290 000c 00000000 		.word	pools1_execute
 291              		.global	patternpools
 292              		.section	.rodata.patternpools,"a",%progbits
 293              		.align	2
 294              		.type	patternpools, %object
 295              		.size	patternpools, 8
 296              	patternpools:
 297 0000 00000000 		.word	testpools1
 298 0004 00000000 		.word	0
 299              		.text
 300              	.Letext0:
 301              		.file 2 "c:\\emtechesdk\\gcc\\lib\\gcc\\arm-none-eabi\\4.8.3\\include\\stddef.h"
 302              		.file 3 "c:\\emtechesdk\\gcc\\arm-none-eabi\\include\\stdint.h"
 303              		.file 4 "../../ChibiOS/os/rt/ports/ARMCMx/compilers/GCC/chtypes.h"
 304              		.file 5 "../../ChibiOS/os/rt/include/chsystypes.h"
 305              		.file 6 "../../ChibiOS/os/rt/include/chschd.h"
 306              		.file 7 "../../ChibiOS/os/rt/ports/ARMCMx/chcore.h"
 307              		.file 8 "../../ChibiOS/os/rt/ports/ARMCMx/chcore_v7m.h"
 308              		.file 9 "../../ChibiOS/os/rt/include/chdebug.h"
 309              		.file 10 "../../ChibiOS/os/rt/include/chtm.h"
 310              		.file 11 "../../ChibiOS/os/rt/include/chstats.h"
 311              		.file 12 "../../ChibiOS/os/rt/include/chsem.h"
 312              		.file 13 "../../ChibiOS/os/rt/include/chmtx.h"
 313              		.file 14 "../../ChibiOS/os/rt/include/chmemcore.h"
 314              		.file 15 "../../ChibiOS/os/rt/include/chmempools.h"
 315              		.file 16 "../../ChibiOS/test/rt/test.h"
 316              		.file 17 "../../ChibiOS/os/ext/CMSIS/include/core_cm4.h"