ARM GAS  C:\Users\Luis\AppData\Local\Temp\ccU6SHIR.s 			page 1


   1              		.syntax unified
   2              		.cpu cortex-m4
   3              		.fpu softvfp
   4              		.eabi_attribute 20, 1
   5              		.eabi_attribute 21, 1
   6              		.eabi_attribute 23, 3
   7              		.eabi_attribute 24, 1
   8              		.eabi_attribute 25, 1
   9              		.eabi_attribute 26, 1
  10              		.eabi_attribute 30, 6
  11              		.eabi_attribute 34, 1
  12              		.eabi_attribute 18, 4
  13              		.thumb
  14              		.file	"testdyn.c"
  15              		.text
  16              	.Ltext0:
  17              		.cfi_sections	.debug_frame
  18              		.section	.text.chThdGetSelfX,"ax",%progbits
  19              		.align	2
  20              		.p2align 4,,15
  21              		.thumb
  22              		.thumb_func
  23              		.type	chThdGetSelfX, %function
  24              	chThdGetSelfX:
  25              	.LFB177:
  26              		.file 1 "../../ChibiOS/os/rt/include/chthreads.h"
  27              		.loc 1 174 0
  28              		.cfi_startproc
  29              		@ args = 0, pretend = 0, frame = 0
  30              		@ frame_needed = 1, uses_anonymous_args = 0
  31              		@ link register save eliminated.
  32 0000 80B4     		push	{r7}
  33              		.cfi_def_cfa_offset 4
  34              		.cfi_offset 7, -4
  35 0002 00AF     		add	r7, sp, #0
  36              		.cfi_def_cfa_register 7
  37              		.loc 1 176 0
  38 0004 034B     		ldr	r3, .L3
  39 0006 9B69     		ldr	r3, [r3, #24]
  40              		.loc 1 177 0
  41 0008 1846     		mov	r0, r3
  42 000a BD46     		mov	sp, r7
  43              		@ sp needed
  44 000c 5DF8047B 		ldr	r7, [sp], #4
  45 0010 7047     		bx	lr
  46              	.L4:
  47 0012 00BF     		.align	2
  48              	.L3:
  49 0014 00000000 		.word	ch
  50              		.cfi_endproc
  51              	.LFE177:
  52              		.size	chThdGetSelfX, .-chThdGetSelfX
  53 0018 AFF30080 		.section	.text.chThdGetPriorityX,"ax",%progbits
  53      AFF30080 
  54              		.align	2
  55              		.p2align 4,,15
  56              		.thumb
ARM GAS  C:\Users\Luis\AppData\Local\Temp\ccU6SHIR.s 			page 2


  57              		.thumb_func
  58              		.type	chThdGetPriorityX, %function
  59              	chThdGetPriorityX:
  60              	.LFB178:
  61              		.loc 1 187 0
  62              		.cfi_startproc
  63              		@ args = 0, pretend = 0, frame = 0
  64              		@ frame_needed = 1, uses_anonymous_args = 0
  65 0000 80B5     		push	{r7, lr}
  66              		.cfi_def_cfa_offset 8
  67              		.cfi_offset 7, -8
  68              		.cfi_offset 14, -4
  69 0002 00AF     		add	r7, sp, #0
  70              		.cfi_def_cfa_register 7
  71              		.loc 1 189 0
  72 0004 FFF7FEFF 		bl	chThdGetSelfX
  73 0008 0346     		mov	r3, r0
  74 000a 9B68     		ldr	r3, [r3, #8]
  75              		.loc 1 190 0
  76 000c 1846     		mov	r0, r3
  77 000e 80BD     		pop	{r7, pc}
  78              		.cfi_endproc
  79              	.LFE178:
  80              		.size	chThdGetPriorityX, .-chThdGetPriorityX
  81              		.section	.bss.heap1,"aw",%nobits
  82              		.align	3
  83              		.type	heap1, %object
  84              		.size	heap1, 32
  85              	heap1:
  86 0000 00000000 		.space	32
  86      00000000 
  86      00000000 
  86      00000000 
  86      00000000 
  87              		.section	.bss.mp1,"aw",%nobits
  88              		.align	2
  89              		.type	mp1, %object
  90              		.size	mp1, 12
  91              	mp1:
  92 0000 00000000 		.space	12
  92      00000000 
  92      00000000 
  93              		.section	.text.thread,"ax",%progbits
  94              		.align	2
  95              		.p2align 4,,15
  96              		.thumb
  97              		.thumb_func
  98              		.type	thread, %function
  99              	thread:
 100              	.LFB229:
 101              		.file 2 "../../ChibiOS/test/rt/testdyn.c"
 102              		.loc 2 71 0
 103              		.cfi_startproc
 104              		@ args = 0, pretend = 0, frame = 8
 105              		@ frame_needed = 1, uses_anonymous_args = 0
 106 0000 80B5     		push	{r7, lr}
 107              		.cfi_def_cfa_offset 8
ARM GAS  C:\Users\Luis\AppData\Local\Temp\ccU6SHIR.s 			page 3


 108              		.cfi_offset 7, -8
 109              		.cfi_offset 14, -4
 110 0002 82B0     		sub	sp, sp, #8
 111              		.cfi_def_cfa_offset 16
 112 0004 00AF     		add	r7, sp, #0
 113              		.cfi_def_cfa_register 7
 114 0006 7860     		str	r0, [r7, #4]
 115              		.loc 2 73 0
 116 0008 7B68     		ldr	r3, [r7, #4]
 117 000a 1B78     		ldrb	r3, [r3]	@ zero_extendqisi2
 118 000c 1846     		mov	r0, r3
 119 000e FFF7FEFF 		bl	test_emit_token
 120              		.loc 2 74 0
 121 0012 0837     		adds	r7, r7, #8
 122 0014 BD46     		mov	sp, r7
 123              		@ sp needed
 124 0016 80BD     		pop	{r7, pc}
 125              		.cfi_endproc
 126              	.LFE229:
 127              		.size	thread, .-thread
 128 0018 AFF30080 		.section	.text.dyn1_setup,"ax",%progbits
 128      AFF30080 
 129              		.align	2
 130              		.p2align 4,,15
 131              		.thumb
 132              		.thumb_func
 133              		.type	dyn1_setup, %function
 134              	dyn1_setup:
 135              	.LFB230:
 136              		.loc 2 77 0
 137              		.cfi_startproc
 138              		@ args = 0, pretend = 0, frame = 0
 139              		@ frame_needed = 1, uses_anonymous_args = 0
 140 0000 80B5     		push	{r7, lr}
 141              		.cfi_def_cfa_offset 8
 142              		.cfi_offset 7, -8
 143              		.cfi_offset 14, -4
 144 0002 00AF     		add	r7, sp, #0
 145              		.cfi_def_cfa_register 7
 146              		.loc 2 79 0
 147 0004 0348     		ldr	r0, .L9
 148 0006 0449     		ldr	r1, .L9+4
 149 0008 4FF4E662 		mov	r2, #1840
 150 000c FFF7FEFF 		bl	chHeapObjectInit
 151              		.loc 2 80 0
 152 0010 80BD     		pop	{r7, pc}
 153              	.L10:
 154 0012 00BF     		.align	2
 155              	.L9:
 156 0014 00000000 		.word	heap1
 157 0018 00000000 		.word	test
 158              		.cfi_endproc
 159              	.LFE230:
 160              		.size	dyn1_setup, .-dyn1_setup
 161 001c AFF30080 		.section	.rodata
 162              		.align	2
 163              	.LC0:
ARM GAS  C:\Users\Luis\AppData\Local\Temp\ccU6SHIR.s 			page 4


 164 0000 4100     		.ascii	"A\000"
 165 0002 0000     		.align	2
 166              	.LC1:
 167 0004 4200     		.ascii	"B\000"
 168 0006 0000     		.align	2
 169              	.LC2:
 170 0008 4300     		.ascii	"C\000"
 171 000a 0000     		.align	2
 172              	.LC3:
 173 000c 414200   		.ascii	"AB\000"
 174              		.section	.text.dyn1_execute,"ax",%progbits
 175              		.align	2
 176              		.p2align 4,,15
 177              		.thumb
 178              		.thumb_func
 179              		.type	dyn1_execute, %function
 180              	dyn1_execute:
 181              	.LFB231:
 182              		.loc 2 82 0
 183              		.cfi_startproc
 184              		@ args = 0, pretend = 0, frame = 16
 185              		@ frame_needed = 1, uses_anonymous_args = 0
 186 0000 80B5     		push	{r7, lr}
 187              		.cfi_def_cfa_offset 8
 188              		.cfi_offset 7, -8
 189              		.cfi_offset 14, -4
 190 0002 86B0     		sub	sp, sp, #24
 191              		.cfi_def_cfa_offset 32
 192 0004 02AF     		add	r7, sp, #8
 193              		.cfi_def_cfa 7, 24
 194              		.loc 2 85 0
 195 0006 FFF7FEFF 		bl	chThdGetPriorityX
 196 000a F860     		str	r0, [r7, #12]
 197              		.loc 2 87 0
 198 000c 3B46     		mov	r3, r7
 199 000e 4648     		ldr	r0, .L20
 200 0010 1946     		mov	r1, r3
 201 0012 FFF7FEFF 		bl	chHeapStatus
 202              		.loc 2 89 0
 203 0016 FB68     		ldr	r3, [r7, #12]
 204 0018 013B     		subs	r3, r3, #1
 205 001a 444A     		ldr	r2, .L20+4
 206 001c 0092     		str	r2, [sp]
 207 001e 4248     		ldr	r0, .L20
 208 0020 4FF4B871 		mov	r1, #368
 209 0024 1A46     		mov	r2, r3
 210 0026 424B     		ldr	r3, .L20+8
 211 0028 FFF7FEFF 		bl	chThdCreateFromHeap
 212 002c 0246     		mov	r2, r0
 213 002e 414B     		ldr	r3, .L20+12
 214 0030 1A60     		str	r2, [r3]
 215              		.loc 2 92 0
 216 0032 FB68     		ldr	r3, [r7, #12]
 217 0034 023B     		subs	r3, r3, #2
 218 0036 404A     		ldr	r2, .L20+16
 219 0038 0092     		str	r2, [sp]
 220 003a 3B48     		ldr	r0, .L20
ARM GAS  C:\Users\Luis\AppData\Local\Temp\ccU6SHIR.s 			page 5


 221 003c 4FF4B871 		mov	r1, #368
 222 0040 1A46     		mov	r2, r3
 223 0042 3B4B     		ldr	r3, .L20+8
 224 0044 FFF7FEFF 		bl	chThdCreateFromHeap
 225 0048 0246     		mov	r2, r0
 226 004a 3A4B     		ldr	r3, .L20+12
 227 004c 5A60     		str	r2, [r3, #4]
 228              		.loc 2 96 0
 229 004e 3B1D     		adds	r3, r7, #4
 230 0050 3548     		ldr	r0, .L20
 231 0052 1946     		mov	r1, r3
 232 0054 FFF7FEFF 		bl	chHeapStatus
 233              		.loc 2 97 0
 234 0058 7B68     		ldr	r3, [r7, #4]
 235 005a 3348     		ldr	r0, .L20
 236 005c 1946     		mov	r1, r3
 237 005e FFF7FEFF 		bl	chHeapAlloc
 238 0062 B860     		str	r0, [r7, #8]
 239              		.loc 2 98 0
 240 0064 FB68     		ldr	r3, [r7, #12]
 241 0066 033B     		subs	r3, r3, #3
 242 0068 344A     		ldr	r2, .L20+20
 243 006a 0092     		str	r2, [sp]
 244 006c 2E48     		ldr	r0, .L20
 245 006e 4FF4B871 		mov	r1, #368
 246 0072 1A46     		mov	r2, r3
 247 0074 2E4B     		ldr	r3, .L20+8
 248 0076 FFF7FEFF 		bl	chThdCreateFromHeap
 249 007a 0246     		mov	r2, r0
 250 007c 2D4B     		ldr	r3, .L20+12
 251 007e 9A60     		str	r2, [r3, #8]
 252              		.loc 2 101 0
 253 0080 B868     		ldr	r0, [r7, #8]
 254 0082 FFF7FEFF 		bl	chHeapFree
 255              		.loc 2 103 0
 256 0086 2B4B     		ldr	r3, .L20+12
 257 0088 1B68     		ldr	r3, [r3]
 258 008a 002B     		cmp	r3, #0
 259 008c 11D0     		beq	.L12
 260              		.loc 2 103 0 is_stmt 0 discriminator 1
 261 008e 294B     		ldr	r3, .L20+12
 262 0090 5B68     		ldr	r3, [r3, #4]
 263 0092 002B     		cmp	r3, #0
 264 0094 0DD0     		beq	.L12
 265 0096 274B     		ldr	r3, .L20+12
 266 0098 9B68     		ldr	r3, [r3, #8]
 267 009a 002B     		cmp	r3, #0
 268 009c 09D1     		bne	.L12
 269 009e 254B     		ldr	r3, .L20+12
 270 00a0 DB68     		ldr	r3, [r3, #12]
 271 00a2 002B     		cmp	r3, #0
 272 00a4 05D1     		bne	.L12
 273 00a6 234B     		ldr	r3, .L20+12
 274 00a8 1B69     		ldr	r3, [r3, #16]
 275 00aa 002B     		cmp	r3, #0
 276 00ac 01D1     		bne	.L12
 277              		.loc 2 103 0 discriminator 3
ARM GAS  C:\Users\Luis\AppData\Local\Temp\ccU6SHIR.s 			page 6


 278 00ae 0123     		movs	r3, #1
 279 00b0 00E0     		b	.L13
 280              	.L12:
 281              		.loc 2 103 0 discriminator 2
 282 00b2 0023     		movs	r3, #0
 283              	.L13:
 284              		.loc 2 103 0 discriminator 4
 285 00b4 03F00103 		and	r3, r3, #1
 286 00b8 DBB2     		uxtb	r3, r3
 287 00ba 0120     		movs	r0, #1
 288 00bc 1946     		mov	r1, r3
 289 00be FFF7FEFF 		bl	_test_assert
 290 00c2 0346     		mov	r3, r0
 291 00c4 002B     		cmp	r3, #0
 292 00c6 00D0     		beq	.L14
 293              		.loc 2 103 0 discriminator 1
 294 00c8 2BE0     		b	.L11
 295              	.L14:
 296              		.loc 2 111 0 is_stmt 1
 297 00ca FFF7FEFF 		bl	test_wait_threads
 298              		.loc 2 112 0
 299 00ce 0220     		movs	r0, #2
 300 00d0 1B49     		ldr	r1, .L20+24
 301 00d2 FFF7FEFF 		bl	_test_assert_sequence
 302 00d6 0346     		mov	r3, r0
 303 00d8 002B     		cmp	r3, #0
 304 00da 00D0     		beq	.L16
 305              		.loc 2 112 0 is_stmt 0 discriminator 1
 306 00dc 21E0     		b	.L11
 307              	.L16:
 308              		.loc 2 115 0 is_stmt 1
 309 00de 3B1D     		adds	r3, r7, #4
 310 00e0 1148     		ldr	r0, .L20
 311 00e2 1946     		mov	r1, r3
 312 00e4 FFF7FEFF 		bl	chHeapStatus
 313 00e8 0346     		mov	r3, r0
 314 00ea 012B     		cmp	r3, #1
 315 00ec 14BF     		ite	ne
 316 00ee 0023     		movne	r3, #0
 317 00f0 0123     		moveq	r3, #1
 318 00f2 DBB2     		uxtb	r3, r3
 319 00f4 0320     		movs	r0, #3
 320 00f6 1946     		mov	r1, r3
 321 00f8 FFF7FEFF 		bl	_test_assert
 322 00fc 0346     		mov	r3, r0
 323 00fe 002B     		cmp	r3, #0
 324 0100 00D0     		beq	.L17
 325              		.loc 2 115 0 is_stmt 0 discriminator 1
 326 0102 0EE0     		b	.L11
 327              	.L17:
 328              		.loc 2 116 0 is_stmt 1
 329 0104 7A68     		ldr	r2, [r7, #4]
 330 0106 3B68     		ldr	r3, [r7]
 331 0108 9A42     		cmp	r2, r3
 332 010a 14BF     		ite	ne
 333 010c 0023     		movne	r3, #0
 334 010e 0123     		moveq	r3, #1
ARM GAS  C:\Users\Luis\AppData\Local\Temp\ccU6SHIR.s 			page 7


 335 0110 DBB2     		uxtb	r3, r3
 336 0112 0420     		movs	r0, #4
 337 0114 1946     		mov	r1, r3
 338 0116 FFF7FEFF 		bl	_test_assert
 339 011a 0346     		mov	r3, r0
 340 011c 002B     		cmp	r3, #0
 341 011e 00D0     		beq	.L11
 342 0120 00BF     		nop
 343              	.L11:
 344              		.loc 2 117 0
 345 0122 1037     		adds	r7, r7, #16
 346 0124 BD46     		mov	sp, r7
 347              		@ sp needed
 348 0126 80BD     		pop	{r7, pc}
 349              	.L21:
 350              		.align	2
 351              	.L20:
 352 0128 00000000 		.word	heap1
 353 012c 00000000 		.word	.LC0
 354 0130 00000000 		.word	thread
 355 0134 00000000 		.word	threads
 356 0138 04000000 		.word	.LC1
 357 013c 08000000 		.word	.LC2
 358 0140 0C000000 		.word	.LC3
 359              		.cfi_endproc
 360              	.LFE231:
 361              		.size	dyn1_execute, .-dyn1_execute
 362              		.global	testdyn1
 363 0144 AFF30080 		.section	.rodata
 363      AFF30080 
 363      AFF30080 
 364 000f 00       		.align	2
 365              	.LC4:
 366 0010 44796E61 		.ascii	"Dynamic APIs, threads creation from heap\000"
 366      6D696320 
 366      41504973 
 366      2C207468 
 366      72656164 
 367              		.section	.rodata.testdyn1,"a",%progbits
 368              		.align	2
 369              		.type	testdyn1, %object
 370              		.size	testdyn1, 16
 371              	testdyn1:
 372 0000 10000000 		.word	.LC4
 373 0004 00000000 		.word	dyn1_setup
 374 0008 00000000 		.word	0
 375 000c 00000000 		.word	dyn1_execute
 376              		.section	.text.dyn2_setup,"ax",%progbits
 377              		.align	2
 378              		.p2align 4,,15
 379              		.thumb
 380              		.thumb_func
 381              		.type	dyn2_setup, %function
 382              	dyn2_setup:
 383              	.LFB232:
 384              		.loc 2 138 0
 385              		.cfi_startproc
ARM GAS  C:\Users\Luis\AppData\Local\Temp\ccU6SHIR.s 			page 8


 386              		@ args = 0, pretend = 0, frame = 0
 387              		@ frame_needed = 1, uses_anonymous_args = 0
 388 0000 80B5     		push	{r7, lr}
 389              		.cfi_def_cfa_offset 8
 390              		.cfi_offset 7, -8
 391              		.cfi_offset 14, -4
 392 0002 00AF     		add	r7, sp, #0
 393              		.cfi_def_cfa_register 7
 394              		.loc 2 140 0
 395 0004 0348     		ldr	r0, .L23
 396 0006 4FF4B871 		mov	r1, #368
 397 000a 0022     		movs	r2, #0
 398 000c FFF7FEFF 		bl	chPoolObjectInit
 399              		.loc 2 141 0
 400 0010 80BD     		pop	{r7, pc}
 401              	.L24:
 402 0012 00BF     		.align	2
 403              	.L23:
 404 0014 00000000 		.word	mp1
 405              		.cfi_endproc
 406              	.LFE232:
 407              		.size	dyn2_setup, .-dyn2_setup
 408 0018 AFF30080 		.section	.rodata
 408      AFF30080 
 409 0039 000000   		.align	2
 410              	.LC5:
 411 003c 4400     		.ascii	"D\000"
 412 003e 0000     		.align	2
 413              	.LC6:
 414 0040 4500     		.ascii	"E\000"
 415 0042 0000     		.align	2
 416              	.LC7:
 417 0044 41424344 		.ascii	"ABCD\000"
 417      00
 418              		.section	.text.dyn2_execute,"ax",%progbits
 419              		.align	2
 420              		.p2align 4,,15
 421              		.thumb
 422              		.thumb_func
 423              		.type	dyn2_execute, %function
 424              	dyn2_execute:
 425              	.LFB233:
 426              		.loc 2 143 0
 427              		.cfi_startproc
 428              		@ args = 0, pretend = 0, frame = 8
 429              		@ frame_needed = 1, uses_anonymous_args = 0
 430 0000 80B5     		push	{r7, lr}
 431              		.cfi_def_cfa_offset 8
 432              		.cfi_offset 7, -8
 433              		.cfi_offset 14, -4
 434 0002 82B0     		sub	sp, sp, #8
 435              		.cfi_def_cfa_offset 16
 436 0004 00AF     		add	r7, sp, #0
 437              		.cfi_def_cfa_register 7
 438              		.loc 2 145 0
 439 0006 FFF7FEFF 		bl	chThdGetPriorityX
 440 000a 3860     		str	r0, [r7]
ARM GAS  C:\Users\Luis\AppData\Local\Temp\ccU6SHIR.s 			page 9


 441              		.loc 2 148 0
 442 000c 0023     		movs	r3, #0
 443 000e 7B60     		str	r3, [r7, #4]
 444 0010 0AE0     		b	.L26
 445              	.L27:
 446              		.loc 2 149 0 discriminator 2
 447 0012 4F4B     		ldr	r3, .L36
 448 0014 7A68     		ldr	r2, [r7, #4]
 449 0016 53F82230 		ldr	r3, [r3, r2, lsl #2]
 450 001a 4E48     		ldr	r0, .L36+4
 451 001c 1946     		mov	r1, r3
 452 001e FFF7FEFF 		bl	chPoolFree
 453              		.loc 2 148 0 discriminator 2
 454 0022 7B68     		ldr	r3, [r7, #4]
 455 0024 0133     		adds	r3, r3, #1
 456 0026 7B60     		str	r3, [r7, #4]
 457              	.L26:
 458              		.loc 2 148 0 is_stmt 0 discriminator 1
 459 0028 7B68     		ldr	r3, [r7, #4]
 460 002a 032B     		cmp	r3, #3
 461 002c F1DD     		ble	.L27
 462              		.loc 2 152 0 is_stmt 1
 463 002e 3B68     		ldr	r3, [r7]
 464 0030 013B     		subs	r3, r3, #1
 465 0032 4848     		ldr	r0, .L36+4
 466 0034 1946     		mov	r1, r3
 467 0036 484A     		ldr	r2, .L36+8
 468 0038 484B     		ldr	r3, .L36+12
 469 003a FFF7FEFF 		bl	chThdCreateFromMemoryPool
 470 003e 0246     		mov	r2, r0
 471 0040 474B     		ldr	r3, .L36+16
 472 0042 1A60     		str	r2, [r3]
 473              		.loc 2 153 0
 474 0044 3B68     		ldr	r3, [r7]
 475 0046 023B     		subs	r3, r3, #2
 476 0048 4248     		ldr	r0, .L36+4
 477 004a 1946     		mov	r1, r3
 478 004c 424A     		ldr	r2, .L36+8
 479 004e 454B     		ldr	r3, .L36+20
 480 0050 FFF7FEFF 		bl	chThdCreateFromMemoryPool
 481 0054 0246     		mov	r2, r0
 482 0056 424B     		ldr	r3, .L36+16
 483 0058 5A60     		str	r2, [r3, #4]
 484              		.loc 2 154 0
 485 005a 3B68     		ldr	r3, [r7]
 486 005c 033B     		subs	r3, r3, #3
 487 005e 3D48     		ldr	r0, .L36+4
 488 0060 1946     		mov	r1, r3
 489 0062 3D4A     		ldr	r2, .L36+8
 490 0064 404B     		ldr	r3, .L36+24
 491 0066 FFF7FEFF 		bl	chThdCreateFromMemoryPool
 492 006a 0246     		mov	r2, r0
 493 006c 3C4B     		ldr	r3, .L36+16
 494 006e 9A60     		str	r2, [r3, #8]
 495              		.loc 2 155 0
 496 0070 3B68     		ldr	r3, [r7]
 497 0072 043B     		subs	r3, r3, #4
ARM GAS  C:\Users\Luis\AppData\Local\Temp\ccU6SHIR.s 			page 10


 498 0074 3748     		ldr	r0, .L36+4
 499 0076 1946     		mov	r1, r3
 500 0078 374A     		ldr	r2, .L36+8
 501 007a 3C4B     		ldr	r3, .L36+28
 502 007c FFF7FEFF 		bl	chThdCreateFromMemoryPool
 503 0080 0246     		mov	r2, r0
 504 0082 374B     		ldr	r3, .L36+16
 505 0084 DA60     		str	r2, [r3, #12]
 506              		.loc 2 156 0
 507 0086 3B68     		ldr	r3, [r7]
 508 0088 053B     		subs	r3, r3, #5
 509 008a 3248     		ldr	r0, .L36+4
 510 008c 1946     		mov	r1, r3
 511 008e 324A     		ldr	r2, .L36+8
 512 0090 374B     		ldr	r3, .L36+32
 513 0092 FFF7FEFF 		bl	chThdCreateFromMemoryPool
 514 0096 0246     		mov	r2, r0
 515 0098 314B     		ldr	r3, .L36+16
 516 009a 1A61     		str	r2, [r3, #16]
 517              		.loc 2 158 0
 518 009c 304B     		ldr	r3, .L36+16
 519 009e 1B68     		ldr	r3, [r3]
 520 00a0 002B     		cmp	r3, #0
 521 00a2 11D0     		beq	.L28
 522              		.loc 2 158 0 is_stmt 0 discriminator 1
 523 00a4 2E4B     		ldr	r3, .L36+16
 524 00a6 5B68     		ldr	r3, [r3, #4]
 525 00a8 002B     		cmp	r3, #0
 526 00aa 0DD0     		beq	.L28
 527 00ac 2C4B     		ldr	r3, .L36+16
 528 00ae 9B68     		ldr	r3, [r3, #8]
 529 00b0 002B     		cmp	r3, #0
 530 00b2 09D0     		beq	.L28
 531 00b4 2A4B     		ldr	r3, .L36+16
 532 00b6 DB68     		ldr	r3, [r3, #12]
 533 00b8 002B     		cmp	r3, #0
 534 00ba 05D0     		beq	.L28
 535 00bc 284B     		ldr	r3, .L36+16
 536 00be 1B69     		ldr	r3, [r3, #16]
 537 00c0 002B     		cmp	r3, #0
 538 00c2 01D1     		bne	.L28
 539              		.loc 2 158 0 discriminator 3
 540 00c4 0123     		movs	r3, #1
 541 00c6 00E0     		b	.L29
 542              	.L28:
 543              		.loc 2 158 0 discriminator 2
 544 00c8 0023     		movs	r3, #0
 545              	.L29:
 546              		.loc 2 158 0 discriminator 4
 547 00ca 03F00103 		and	r3, r3, #1
 548 00ce DBB2     		uxtb	r3, r3
 549 00d0 0120     		movs	r0, #1
 550 00d2 1946     		mov	r1, r3
 551 00d4 FFF7FEFF 		bl	_test_assert
 552 00d8 0346     		mov	r3, r0
 553 00da 002B     		cmp	r3, #0
 554 00dc 00D0     		beq	.L30
ARM GAS  C:\Users\Luis\AppData\Local\Temp\ccU6SHIR.s 			page 11


 555              		.loc 2 158 0 discriminator 1
 556 00de 34E0     		b	.L25
 557              	.L30:
 558              		.loc 2 166 0 is_stmt 1
 559 00e0 FFF7FEFF 		bl	test_wait_threads
 560              		.loc 2 167 0
 561 00e4 0220     		movs	r0, #2
 562 00e6 2349     		ldr	r1, .L36+36
 563 00e8 FFF7FEFF 		bl	_test_assert_sequence
 564 00ec 0346     		mov	r3, r0
 565 00ee 002B     		cmp	r3, #0
 566 00f0 00D0     		beq	.L32
 567              		.loc 2 167 0 is_stmt 0 discriminator 1
 568 00f2 2AE0     		b	.L25
 569              	.L32:
 570              		.loc 2 170 0 is_stmt 1
 571 00f4 0023     		movs	r3, #0
 572 00f6 7B60     		str	r3, [r7, #4]
 573 00f8 13E0     		b	.L33
 574              	.L35:
 575              		.loc 2 171 0
 576 00fa 1648     		ldr	r0, .L36+4
 577 00fc FFF7FEFF 		bl	chPoolAlloc
 578 0100 0346     		mov	r3, r0
 579 0102 002B     		cmp	r3, #0
 580 0104 0CBF     		ite	eq
 581 0106 0023     		moveq	r3, #0
 582 0108 0123     		movne	r3, #1
 583 010a DBB2     		uxtb	r3, r3
 584 010c 0320     		movs	r0, #3
 585 010e 1946     		mov	r1, r3
 586 0110 FFF7FEFF 		bl	_test_assert
 587 0114 0346     		mov	r3, r0
 588 0116 002B     		cmp	r3, #0
 589 0118 00D0     		beq	.L34
 590              		.loc 2 171 0 is_stmt 0 discriminator 1
 591 011a 16E0     		b	.L25
 592              	.L34:
 593              		.loc 2 170 0 is_stmt 1
 594 011c 7B68     		ldr	r3, [r7, #4]
 595 011e 0133     		adds	r3, r3, #1
 596 0120 7B60     		str	r3, [r7, #4]
 597              	.L33:
 598              		.loc 2 170 0 is_stmt 0 discriminator 1
 599 0122 7B68     		ldr	r3, [r7, #4]
 600 0124 032B     		cmp	r3, #3
 601 0126 E8DD     		ble	.L35
 602              		.loc 2 172 0 is_stmt 1
 603 0128 0A48     		ldr	r0, .L36+4
 604 012a FFF7FEFF 		bl	chPoolAlloc
 605 012e 0346     		mov	r3, r0
 606 0130 002B     		cmp	r3, #0
 607 0132 14BF     		ite	ne
 608 0134 0023     		movne	r3, #0
 609 0136 0123     		moveq	r3, #1
 610 0138 DBB2     		uxtb	r3, r3
 611 013a 0420     		movs	r0, #4
ARM GAS  C:\Users\Luis\AppData\Local\Temp\ccU6SHIR.s 			page 12


 612 013c 1946     		mov	r1, r3
 613 013e FFF7FEFF 		bl	_test_assert
 614 0142 0346     		mov	r3, r0
 615 0144 002B     		cmp	r3, #0
 616 0146 00D0     		beq	.L25
 617              		.loc 2 172 0 is_stmt 0 discriminator 1
 618 0148 00BF     		nop
 619              	.L25:
 620              		.loc 2 173 0 is_stmt 1
 621 014a 0837     		adds	r7, r7, #8
 622 014c BD46     		mov	sp, r7
 623              		@ sp needed
 624 014e 80BD     		pop	{r7, pc}
 625              	.L37:
 626              		.align	2
 627              	.L36:
 628 0150 00000000 		.word	wa
 629 0154 00000000 		.word	mp1
 630 0158 00000000 		.word	thread
 631 015c 00000000 		.word	.LC0
 632 0160 00000000 		.word	threads
 633 0164 04000000 		.word	.LC1
 634 0168 08000000 		.word	.LC2
 635 016c 3C000000 		.word	.LC5
 636 0170 40000000 		.word	.LC6
 637 0174 44000000 		.word	.LC7
 638              		.cfi_endproc
 639              	.LFE233:
 640              		.size	dyn2_execute, .-dyn2_execute
 641              		.global	testdyn2
 642 0178 AFF30080 		.section	.rodata
 642      AFF30080 
 643 0049 000000   		.align	2
 644              	.LC8:
 645 004c 44796E61 		.ascii	"Dynamic APIs, threads creation from memory pool\000"
 645      6D696320 
 645      41504973 
 645      2C207468 
 645      72656164 
 646              		.section	.rodata.testdyn2,"a",%progbits
 647              		.align	2
 648              		.type	testdyn2, %object
 649              		.size	testdyn2, 16
 650              	testdyn2:
 651 0000 4C000000 		.word	.LC8
 652 0004 00000000 		.word	dyn2_setup
 653 0008 00000000 		.word	0
 654 000c 00000000 		.word	dyn2_execute
 655              		.section	.text.regfind,"ax",%progbits
 656              		.align	2
 657              		.p2align 4,,15
 658              		.thumb
 659              		.thumb_func
 660              		.type	regfind, %function
 661              	regfind:
 662              	.LFB234:
 663              		.loc 2 192 0
ARM GAS  C:\Users\Luis\AppData\Local\Temp\ccU6SHIR.s 			page 13


 664              		.cfi_startproc
 665              		@ args = 0, pretend = 0, frame = 16
 666              		@ frame_needed = 1, uses_anonymous_args = 0
 667 0000 80B5     		push	{r7, lr}
 668              		.cfi_def_cfa_offset 8
 669              		.cfi_offset 7, -8
 670              		.cfi_offset 14, -4
 671 0002 84B0     		sub	sp, sp, #16
 672              		.cfi_def_cfa_offset 24
 673 0004 00AF     		add	r7, sp, #0
 674              		.cfi_def_cfa_register 7
 675 0006 7860     		str	r0, [r7, #4]
 676              		.loc 2 194 0
 677 0008 0023     		movs	r3, #0
 678 000a FB72     		strb	r3, [r7, #11]
 679              		.loc 2 196 0
 680 000c FFF7FEFF 		bl	chRegFirstThread
 681 0010 F860     		str	r0, [r7, #12]
 682              	.L39:
 683              		.loc 2 198 0 discriminator 1
 684 0012 FA7A     		ldrb	r2, [r7, #11]	@ zero_extendqisi2
 685 0014 F968     		ldr	r1, [r7, #12]
 686 0016 7B68     		ldr	r3, [r7, #4]
 687 0018 9942     		cmp	r1, r3
 688 001a 14BF     		ite	ne
 689 001c 0023     		movne	r3, #0
 690 001e 0123     		moveq	r3, #1
 691 0020 DBB2     		uxtb	r3, r3
 692 0022 1343     		orrs	r3, r3, r2
 693 0024 002B     		cmp	r3, #0
 694 0026 0CBF     		ite	eq
 695 0028 0023     		moveq	r3, #0
 696 002a 0123     		movne	r3, #1
 697 002c FB72     		strb	r3, [r7, #11]
 698              		.loc 2 199 0 discriminator 1
 699 002e F868     		ldr	r0, [r7, #12]
 700 0030 FFF7FEFF 		bl	chRegNextThread
 701 0034 F860     		str	r0, [r7, #12]
 702              		.loc 2 200 0 discriminator 1
 703 0036 FB68     		ldr	r3, [r7, #12]
 704 0038 002B     		cmp	r3, #0
 705 003a EAD1     		bne	.L39
 706              		.loc 2 201 0
 707 003c FB7A     		ldrb	r3, [r7, #11]	@ zero_extendqisi2
 708              		.loc 2 202 0
 709 003e 1846     		mov	r0, r3
 710 0040 1037     		adds	r7, r7, #16
 711 0042 BD46     		mov	sp, r7
 712              		@ sp needed
 713 0044 80BD     		pop	{r7, pc}
 714              		.cfi_endproc
 715              	.LFE234:
 716              		.size	regfind, .-regfind
 717 0046 00BFAFF3 		.section	.text.dyn3_setup,"ax",%progbits
 717      0080AFF3 
 717      0080
 718              		.align	2
ARM GAS  C:\Users\Luis\AppData\Local\Temp\ccU6SHIR.s 			page 14


 719              		.p2align 4,,15
 720              		.thumb
 721              		.thumb_func
 722              		.type	dyn3_setup, %function
 723              	dyn3_setup:
 724              	.LFB235:
 725              		.loc 2 204 0
 726              		.cfi_startproc
 727              		@ args = 0, pretend = 0, frame = 0
 728              		@ frame_needed = 1, uses_anonymous_args = 0
 729 0000 80B5     		push	{r7, lr}
 730              		.cfi_def_cfa_offset 8
 731              		.cfi_offset 7, -8
 732              		.cfi_offset 14, -4
 733 0002 00AF     		add	r7, sp, #0
 734              		.cfi_def_cfa_register 7
 735              		.loc 2 206 0
 736 0004 0348     		ldr	r0, .L42
 737 0006 0449     		ldr	r1, .L42+4
 738 0008 4FF4E662 		mov	r2, #1840
 739 000c FFF7FEFF 		bl	chHeapObjectInit
 740              		.loc 2 207 0
 741 0010 80BD     		pop	{r7, pc}
 742              	.L43:
 743 0012 00BF     		.align	2
 744              	.L42:
 745 0014 00000000 		.word	heap1
 746 0018 00000000 		.word	test
 747              		.cfi_endproc
 748              	.LFE235:
 749              		.size	dyn3_setup, .-dyn3_setup
 750 001c AFF30080 		.section	.text.dyn3_execute,"ax",%progbits
 751              		.align	2
 752              		.p2align 4,,15
 753              		.thumb
 754              		.thumb_func
 755              		.type	dyn3_execute, %function
 756              	dyn3_execute:
 757              	.LFB236:
 758              		.loc 2 209 0
 759              		.cfi_startproc
 760              		@ args = 0, pretend = 0, frame = 8
 761              		@ frame_needed = 1, uses_anonymous_args = 0
 762 0000 80B5     		push	{r7, lr}
 763              		.cfi_def_cfa_offset 8
 764              		.cfi_offset 7, -8
 765              		.cfi_offset 14, -4
 766 0002 84B0     		sub	sp, sp, #16
 767              		.cfi_def_cfa_offset 24
 768 0004 02AF     		add	r7, sp, #8
 769              		.cfi_def_cfa 7, 16
 770              		.loc 2 211 0
 771 0006 FFF7FEFF 		bl	chThdGetPriorityX
 772 000a 7860     		str	r0, [r7, #4]
 773              		.loc 2 214 0
 774 000c 7B68     		ldr	r3, [r7, #4]
 775 000e 013B     		subs	r3, r3, #1
ARM GAS  C:\Users\Luis\AppData\Local\Temp\ccU6SHIR.s 			page 15


 776 0010 664A     		ldr	r2, .L57
 777 0012 0092     		str	r2, [sp]
 778 0014 6648     		ldr	r0, .L57+4
 779 0016 4FF4B871 		mov	r1, #368
 780 001a 1A46     		mov	r2, r3
 781 001c 654B     		ldr	r3, .L57+8
 782 001e FFF7FEFF 		bl	chThdCreateFromHeap
 783 0022 3860     		str	r0, [r7]
 784              		.loc 2 215 0
 785 0024 3B68     		ldr	r3, [r7]
 786 0026 93F82230 		ldrb	r3, [r3, #34]	@ zero_extendqisi2
 787 002a 012B     		cmp	r3, #1
 788 002c 14BF     		ite	ne
 789 002e 0023     		movne	r3, #0
 790 0030 0123     		moveq	r3, #1
 791 0032 DBB2     		uxtb	r3, r3
 792 0034 0120     		movs	r0, #1
 793 0036 1946     		mov	r1, r3
 794 0038 FFF7FEFF 		bl	_test_assert
 795 003c 0346     		mov	r3, r0
 796 003e 002B     		cmp	r3, #0
 797 0040 00D0     		beq	.L45
 798              		.loc 2 215 0 is_stmt 0 discriminator 1
 799 0042 AFE0     		b	.L44
 800              	.L45:
 801              		.loc 2 216 0 is_stmt 1
 802 0044 3868     		ldr	r0, [r7]
 803 0046 FFF7FEFF 		bl	chThdAddRef
 804              		.loc 2 217 0
 805 004a 3B68     		ldr	r3, [r7]
 806 004c 93F82230 		ldrb	r3, [r3, #34]	@ zero_extendqisi2
 807 0050 022B     		cmp	r3, #2
 808 0052 14BF     		ite	ne
 809 0054 0023     		movne	r3, #0
 810 0056 0123     		moveq	r3, #1
 811 0058 DBB2     		uxtb	r3, r3
 812 005a 0220     		movs	r0, #2
 813 005c 1946     		mov	r1, r3
 814 005e FFF7FEFF 		bl	_test_assert
 815 0062 0346     		mov	r3, r0
 816 0064 002B     		cmp	r3, #0
 817 0066 00D0     		beq	.L47
 818              		.loc 2 217 0 is_stmt 0 discriminator 1
 819 0068 9CE0     		b	.L44
 820              	.L47:
 821              		.loc 2 218 0 is_stmt 1
 822 006a 3868     		ldr	r0, [r7]
 823 006c FFF7FEFF 		bl	chThdRelease
 824              		.loc 2 219 0
 825 0070 3B68     		ldr	r3, [r7]
 826 0072 93F82230 		ldrb	r3, [r3, #34]	@ zero_extendqisi2
 827 0076 012B     		cmp	r3, #1
 828 0078 14BF     		ite	ne
 829 007a 0023     		movne	r3, #0
 830 007c 0123     		moveq	r3, #1
 831 007e DBB2     		uxtb	r3, r3
 832 0080 0320     		movs	r0, #3
ARM GAS  C:\Users\Luis\AppData\Local\Temp\ccU6SHIR.s 			page 16


 833 0082 1946     		mov	r1, r3
 834 0084 FFF7FEFF 		bl	_test_assert
 835 0088 0346     		mov	r3, r0
 836 008a 002B     		cmp	r3, #0
 837 008c 00D0     		beq	.L48
 838              		.loc 2 219 0 is_stmt 0 discriminator 1
 839 008e 89E0     		b	.L44
 840              	.L48:
 841              		.loc 2 222 0 is_stmt 1
 842 0090 3868     		ldr	r0, [r7]
 843 0092 FFF7FEFF 		bl	regfind
 844 0096 0346     		mov	r3, r0
 845 0098 0420     		movs	r0, #4
 846 009a 1946     		mov	r1, r3
 847 009c FFF7FEFF 		bl	_test_assert
 848 00a0 0346     		mov	r3, r0
 849 00a2 002B     		cmp	r3, #0
 850 00a4 00D0     		beq	.L49
 851              		.loc 2 222 0 is_stmt 0 discriminator 1
 852 00a6 7DE0     		b	.L44
 853              	.L49:
 854              		.loc 2 223 0 is_stmt 1
 855 00a8 3868     		ldr	r0, [r7]
 856 00aa FFF7FEFF 		bl	regfind
 857 00ae 0346     		mov	r3, r0
 858 00b0 0520     		movs	r0, #5
 859 00b2 1946     		mov	r1, r3
 860 00b4 FFF7FEFF 		bl	_test_assert
 861 00b8 0346     		mov	r3, r0
 862 00ba 002B     		cmp	r3, #0
 863 00bc 00D0     		beq	.L50
 864              		.loc 2 223 0 is_stmt 0 discriminator 1
 865 00be 71E0     		b	.L44
 866              	.L50:
 867              		.loc 2 226 0 is_stmt 1
 868 00c0 3868     		ldr	r0, [r7]
 869 00c2 FFF7FEFF 		bl	chThdRelease
 870              		.loc 2 227 0
 871 00c6 3B68     		ldr	r3, [r7]
 872 00c8 93F82230 		ldrb	r3, [r3, #34]	@ zero_extendqisi2
 873 00cc 002B     		cmp	r3, #0
 874 00ce 14BF     		ite	ne
 875 00d0 0023     		movne	r3, #0
 876 00d2 0123     		moveq	r3, #1
 877 00d4 DBB2     		uxtb	r3, r3
 878 00d6 0620     		movs	r0, #6
 879 00d8 1946     		mov	r1, r3
 880 00da FFF7FEFF 		bl	_test_assert
 881 00de 0346     		mov	r3, r0
 882 00e0 002B     		cmp	r3, #0
 883 00e2 00D0     		beq	.L51
 884              		.loc 2 227 0 is_stmt 0 discriminator 1
 885 00e4 5EE0     		b	.L44
 886              	.L51:
 887              		.loc 2 228 0 is_stmt 1
 888 00e6 3B68     		ldr	r3, [r7]
 889 00e8 93F82030 		ldrb	r3, [r3, #32]	@ zero_extendqisi2
ARM GAS  C:\Users\Luis\AppData\Local\Temp\ccU6SHIR.s 			page 17


 890 00ec 002B     		cmp	r3, #0
 891 00ee 14BF     		ite	ne
 892 00f0 0023     		movne	r3, #0
 893 00f2 0123     		moveq	r3, #1
 894 00f4 DBB2     		uxtb	r3, r3
 895 00f6 0720     		movs	r0, #7
 896 00f8 1946     		mov	r1, r3
 897 00fa FFF7FEFF 		bl	_test_assert
 898 00fe 0346     		mov	r3, r0
 899 0100 002B     		cmp	r3, #0
 900 0102 00D0     		beq	.L52
 901              		.loc 2 228 0 is_stmt 0 discriminator 1
 902 0104 4EE0     		b	.L44
 903              	.L52:
 904              		.loc 2 229 0 is_stmt 1
 905 0106 3868     		ldr	r0, [r7]
 906 0108 FFF7FEFF 		bl	regfind
 907 010c 0346     		mov	r3, r0
 908 010e 0820     		movs	r0, #8
 909 0110 1946     		mov	r1, r3
 910 0112 FFF7FEFF 		bl	_test_assert
 911 0116 0346     		mov	r3, r0
 912 0118 002B     		cmp	r3, #0
 913 011a 00D0     		beq	.L53
 914              		.loc 2 229 0 is_stmt 0 discriminator 1
 915 011c 42E0     		b	.L44
 916              	.L53:
 917              		.loc 2 230 0 is_stmt 1
 918 011e 3868     		ldr	r0, [r7]
 919 0120 FFF7FEFF 		bl	regfind
 920 0124 0346     		mov	r3, r0
 921 0126 0920     		movs	r0, #9
 922 0128 1946     		mov	r1, r3
 923 012a FFF7FEFF 		bl	_test_assert
 924 012e 0346     		mov	r3, r0
 925 0130 002B     		cmp	r3, #0
 926 0132 00D0     		beq	.L54
 927              		.loc 2 230 0 is_stmt 0 discriminator 1
 928 0134 36E0     		b	.L44
 929              	.L54:
 930              		.loc 2 231 0 is_stmt 1
 931 0136 4FF4FA70 		mov	r0, #500
 932 013a FFF7FEFF 		bl	chThdSleep
 933              		.loc 2 232 0
 934 013e 3B68     		ldr	r3, [r7]
 935 0140 93F82030 		ldrb	r3, [r3, #32]	@ zero_extendqisi2
 936 0144 0F2B     		cmp	r3, #15
 937 0146 14BF     		ite	ne
 938 0148 0023     		movne	r3, #0
 939 014a 0123     		moveq	r3, #1
 940 014c DBB2     		uxtb	r3, r3
 941 014e 0A20     		movs	r0, #10
 942 0150 1946     		mov	r1, r3
 943 0152 FFF7FEFF 		bl	_test_assert
 944 0156 0346     		mov	r3, r0
 945 0158 002B     		cmp	r3, #0
 946 015a 00D0     		beq	.L55
ARM GAS  C:\Users\Luis\AppData\Local\Temp\ccU6SHIR.s 			page 18


 947              		.loc 2 232 0 is_stmt 0 discriminator 1
 948 015c 22E0     		b	.L44
 949              	.L55:
 950              		.loc 2 235 0 is_stmt 1
 951 015e 3868     		ldr	r0, [r7]
 952 0160 FFF7FEFF 		bl	regfind
 953 0164 0346     		mov	r3, r0
 954 0166 0B20     		movs	r0, #11
 955 0168 1946     		mov	r1, r3
 956 016a FFF7FEFF 		bl	_test_assert
 957 016e 0346     		mov	r3, r0
 958 0170 002B     		cmp	r3, #0
 959 0172 00D0     		beq	.L56
 960              		.loc 2 235 0 is_stmt 0 discriminator 1
 961 0174 16E0     		b	.L44
 962              	.L56:
 963              		.loc 2 236 0 is_stmt 1
 964 0176 3868     		ldr	r0, [r7]
 965 0178 FFF7FEFF 		bl	regfind
 966 017c 0346     		mov	r3, r0
 967 017e 002B     		cmp	r3, #0
 968 0180 0CBF     		ite	eq
 969 0182 0023     		moveq	r3, #0
 970 0184 0123     		movne	r3, #1
 971 0186 DBB2     		uxtb	r3, r3
 972 0188 83F00103 		eor	r3, r3, #1
 973 018c DBB2     		uxtb	r3, r3
 974 018e 03F00103 		and	r3, r3, #1
 975 0192 DBB2     		uxtb	r3, r3
 976 0194 0C20     		movs	r0, #12
 977 0196 1946     		mov	r1, r3
 978 0198 FFF7FEFF 		bl	_test_assert
 979 019c 0346     		mov	r3, r0
 980 019e 002B     		cmp	r3, #0
 981 01a0 00D0     		beq	.L44
 982              		.loc 2 236 0 is_stmt 0 discriminator 1
 983 01a2 00BF     		nop
 984              	.L44:
 985              		.loc 2 237 0 is_stmt 1
 986 01a4 0837     		adds	r7, r7, #8
 987 01a6 BD46     		mov	sp, r7
 988              		@ sp needed
 989 01a8 80BD     		pop	{r7, pc}
 990              	.L58:
 991 01aa 00BF     		.align	2
 992              	.L57:
 993 01ac 00000000 		.word	.LC0
 994 01b0 00000000 		.word	heap1
 995 01b4 00000000 		.word	thread
 996              		.cfi_endproc
 997              	.LFE236:
 998              		.size	dyn3_execute, .-dyn3_execute
 999              		.global	testdyn3
 1000 01b8 AFF30080 		.section	.rodata
 1000      AFF30080 
 1001              		.align	2
 1002              	.LC9:
ARM GAS  C:\Users\Luis\AppData\Local\Temp\ccU6SHIR.s 			page 19


 1003 007c 44796E61 		.ascii	"Dynamic APIs, registry and references\000"
 1003      6D696320 
 1003      41504973 
 1003      2C207265 
 1003      67697374 
 1004 00a2 0000     		.section	.rodata.testdyn3,"a",%progbits
 1005              		.align	2
 1006              		.type	testdyn3, %object
 1007              		.size	testdyn3, 16
 1008              	testdyn3:
 1009 0000 7C000000 		.word	.LC9
 1010 0004 00000000 		.word	dyn3_setup
 1011 0008 00000000 		.word	0
 1012 000c 00000000 		.word	dyn3_execute
 1013              		.global	patterndyn
 1014              		.section	.rodata.patterndyn,"a",%progbits
 1015              		.align	2
 1016              		.type	patterndyn, %object
 1017              		.size	patterndyn, 16
 1018              	patterndyn:
 1019 0000 00000000 		.word	testdyn1
 1020 0004 00000000 		.word	testdyn2
 1021 0008 00000000 		.word	testdyn3
 1022 000c 00000000 		.word	0
 1023              		.text
 1024              	.Letext0:
 1025              		.file 3 "c:\\emtechesdk\\gcc\\lib\\gcc\\arm-none-eabi\\4.8.3\\include\\stddef.h"
 1026              		.file 4 "c:\\emtechesdk\\gcc\\arm-none-eabi\\include\\stdint.h"
 1027              		.file 5 "../../ChibiOS/os/rt/ports/ARMCMx/compilers/GCC/chtypes.h"
 1028              		.file 6 "../../ChibiOS/os/rt/include/chsystypes.h"
 1029              		.file 7 "../../ChibiOS/os/rt/include/chschd.h"
 1030              		.file 8 "../../ChibiOS/os/rt/ports/ARMCMx/chcore.h"
 1031              		.file 9 "../../ChibiOS/os/rt/ports/ARMCMx/chcore_v7m.h"
 1032              		.file 10 "../../ChibiOS/os/rt/include/chdebug.h"
 1033              		.file 11 "../../ChibiOS/os/rt/include/chtm.h"
 1034              		.file 12 "../../ChibiOS/os/rt/include/chstats.h"
 1035              		.file 13 "../../ChibiOS/os/rt/include/chsem.h"
 1036              		.file 14 "../../ChibiOS/os/rt/include/chmtx.h"
 1037              		.file 15 "../../ChibiOS/os/rt/include/chmemcore.h"
 1038              		.file 16 "../../ChibiOS/os/rt/include/chheap.h"
 1039              		.file 17 "../../ChibiOS/os/rt/include/chmempools.h"
 1040              		.file 18 "../../ChibiOS/test/rt/test.h"
 1041              		.file 19 "../../ChibiOS/os/ext/CMSIS/include/core_cm4.h"