ARM GAS  C:\Users\Luis\AppData\Local\Temp\cckNqlc0.s 			page 1


   1              		.syntax unified
   2              		.cpu cortex-m4
   3              		.fpu softvfp
   4              		.eabi_attribute 20, 1
   5              		.eabi_attribute 21, 1
   6              		.eabi_attribute 23, 3
   7              		.eabi_attribute 24, 1
   8              		.eabi_attribute 25, 1
   9              		.eabi_attribute 26, 1
  10              		.eabi_attribute 30, 6
  11              		.eabi_attribute 34, 1
  12              		.eabi_attribute 18, 4
  13              		.thumb
  14              		.file	"testmtx.c"
  15              		.text
  16              	.Ltext0:
  17              		.cfi_sections	.debug_frame
  18              		.section	.text.port_lock,"ax",%progbits
  19              		.align	2
  20              		.p2align 4,,15
  21              		.thumb
  22              		.thumb_func
  23              		.type	port_lock, %function
  24              	port_lock:
  25              	.LFB116:
  26              		.file 1 "../../ChibiOS/os/rt/ports/ARMCMx/chcore_v7m.h"
  27              		.loc 1 444 0
  28              		.cfi_startproc
  29              		@ args = 0, pretend = 0, frame = 8
  30              		@ frame_needed = 1, uses_anonymous_args = 0
  31              		@ link register save eliminated.
  32 0000 80B4     		push	{r7}
  33              		.cfi_def_cfa_offset 4
  34              		.cfi_offset 7, -4
  35 0002 83B0     		sub	sp, sp, #12
  36              		.cfi_def_cfa_offset 16
  37 0004 00AF     		add	r7, sp, #0
  38              		.cfi_def_cfa_register 7
  39 0006 2023     		movs	r3, #32
  40 0008 7B60     		str	r3, [r7, #4]
  41              	.LBB6:
  42              	.LBB7:
  43              		.file 2 "../../ChibiOS/os/ext/CMSIS/include/core_cmFunc.h"
  44              		.loc 2 546 0
  45 000a 7B68     		ldr	r3, [r7, #4]
  46              	@ 546 "../../ChibiOS/os/ext/CMSIS/include/core_cmFunc.h" 1
  47 000c 83F31188 		MSR basepri, r3
  48              	@ 0 "" 2
  49              		.thumb
  50              	.LBE7:
  51              	.LBE6:
  52              		.loc 1 451 0
  53 0010 0C37     		adds	r7, r7, #12
  54 0012 BD46     		mov	sp, r7
  55              		@ sp needed
  56 0014 5DF8047B 		ldr	r7, [sp], #4
  57 0018 7047     		bx	lr
ARM GAS  C:\Users\Luis\AppData\Local\Temp\cckNqlc0.s 			page 2


  58              		.cfi_endproc
  59              	.LFE116:
  60              		.size	port_lock, .-port_lock
  61 001a 00BFAFF3 		.section	.text.port_unlock,"ax",%progbits
  61      0080
  62              		.align	2
  63              		.p2align 4,,15
  64              		.thumb
  65              		.thumb_func
  66              		.type	port_unlock, %function
  67              	port_unlock:
  68              	.LFB117:
  69              		.loc 1 458 0
  70              		.cfi_startproc
  71              		@ args = 0, pretend = 0, frame = 8
  72              		@ frame_needed = 1, uses_anonymous_args = 0
  73              		@ link register save eliminated.
  74 0000 80B4     		push	{r7}
  75              		.cfi_def_cfa_offset 4
  76              		.cfi_offset 7, -4
  77 0002 83B0     		sub	sp, sp, #12
  78              		.cfi_def_cfa_offset 16
  79 0004 00AF     		add	r7, sp, #0
  80              		.cfi_def_cfa_register 7
  81 0006 0023     		movs	r3, #0
  82 0008 7B60     		str	r3, [r7, #4]
  83              	.LBB8:
  84              	.LBB9:
  85              		.loc 2 546 0
  86 000a 7B68     		ldr	r3, [r7, #4]
  87              	@ 546 "../../ChibiOS/os/ext/CMSIS/include/core_cmFunc.h" 1
  88 000c 83F31188 		MSR basepri, r3
  89              	@ 0 "" 2
  90              		.thumb
  91              	.LBE9:
  92              	.LBE8:
  93              		.loc 1 465 0
  94 0010 0C37     		adds	r7, r7, #12
  95 0012 BD46     		mov	sp, r7
  96              		@ sp needed
  97 0014 5DF8047B 		ldr	r7, [sp], #4
  98 0018 7047     		bx	lr
  99              		.cfi_endproc
 100              	.LFE117:
 101              		.size	port_unlock, .-port_unlock
 102 001a 00BFAFF3 		.section	.text.queue_isempty,"ax",%progbits
 102      0080
 103              		.align	2
 104              		.p2align 4,,15
 105              		.thumb
 106              		.thumb_func
 107              		.type	queue_isempty, %function
 108              	queue_isempty:
 109              	.LFB140:
 110              		.file 3 "../../ChibiOS/os/rt/include/chschd.h"
 111              		.loc 3 616 0
 112              		.cfi_startproc
ARM GAS  C:\Users\Luis\AppData\Local\Temp\cckNqlc0.s 			page 3


 113              		@ args = 0, pretend = 0, frame = 8
 114              		@ frame_needed = 1, uses_anonymous_args = 0
 115              		@ link register save eliminated.
 116 0000 80B4     		push	{r7}
 117              		.cfi_def_cfa_offset 4
 118              		.cfi_offset 7, -4
 119 0002 83B0     		sub	sp, sp, #12
 120              		.cfi_def_cfa_offset 16
 121 0004 00AF     		add	r7, sp, #0
 122              		.cfi_def_cfa_register 7
 123 0006 7860     		str	r0, [r7, #4]
 124              		.loc 3 618 0
 125 0008 7B68     		ldr	r3, [r7, #4]
 126 000a 1A68     		ldr	r2, [r3]
 127 000c 7B68     		ldr	r3, [r7, #4]
 128 000e 9A42     		cmp	r2, r3
 129 0010 14BF     		ite	ne
 130 0012 0023     		movne	r3, #0
 131 0014 0123     		moveq	r3, #1
 132 0016 DBB2     		uxtb	r3, r3
 133              		.loc 3 619 0
 134 0018 1846     		mov	r0, r3
 135 001a 0C37     		adds	r7, r7, #12
 136 001c BD46     		mov	sp, r7
 137              		@ sp needed
 138 001e 5DF8047B 		ldr	r7, [sp], #4
 139 0022 7047     		bx	lr
 140              		.cfi_endproc
 141              	.LFE140:
 142              		.size	queue_isempty, .-queue_isempty
 143 0024 AFF30080 		.section	.text.chSysLock,"ax",%progbits
 143      AFF30080 
 143      AFF30080 
 144              		.align	2
 145              		.p2align 4,,15
 146              		.thumb
 147              		.thumb_func
 148              		.type	chSysLock, %function
 149              	chSysLock:
 150              	.LFB156:
 151              		.file 4 "../../ChibiOS/os/rt/include/chsys.h"
 152              		.loc 4 346 0
 153              		.cfi_startproc
 154              		@ args = 0, pretend = 0, frame = 0
 155              		@ frame_needed = 1, uses_anonymous_args = 0
 156 0000 80B5     		push	{r7, lr}
 157              		.cfi_def_cfa_offset 8
 158              		.cfi_offset 7, -8
 159              		.cfi_offset 14, -4
 160 0002 00AF     		add	r7, sp, #0
 161              		.cfi_def_cfa_register 7
 162              		.loc 4 348 0
 163 0004 FFF7FEFF 		bl	port_lock
 164              		.loc 4 349 0
 165 0008 FFF7FEFF 		bl	_stats_start_measure_crit_thd
 166              		.loc 4 350 0
 167 000c FFF7FEFF 		bl	_dbg_check_lock
ARM GAS  C:\Users\Luis\AppData\Local\Temp\cckNqlc0.s 			page 4


 168              		.loc 4 351 0
 169 0010 80BD     		pop	{r7, pc}
 170              		.cfi_endproc
 171              	.LFE156:
 172              		.size	chSysLock, .-chSysLock
 173 0012 00BFAFF3 		.section	.text.chSysUnlock,"ax",%progbits
 173      0080AFF3 
 173      0080AFF3 
 173      0080
 174              		.align	2
 175              		.p2align 4,,15
 176              		.thumb
 177              		.thumb_func
 178              		.type	chSysUnlock, %function
 179              	chSysUnlock:
 180              	.LFB157:
 181              		.loc 4 358 0
 182              		.cfi_startproc
 183              		@ args = 0, pretend = 0, frame = 0
 184              		@ frame_needed = 1, uses_anonymous_args = 0
 185 0000 80B5     		push	{r7, lr}
 186              		.cfi_def_cfa_offset 8
 187              		.cfi_offset 7, -8
 188              		.cfi_offset 14, -4
 189 0002 00AF     		add	r7, sp, #0
 190              		.cfi_def_cfa_register 7
 191              		.loc 4 360 0
 192 0004 FFF7FEFF 		bl	_dbg_check_unlock
 193              		.loc 4 361 0
 194 0008 FFF7FEFF 		bl	_stats_stop_measure_crit_thd
 195              		.loc 4 367 0
 196 000c 094B     		ldr	r3, .L8
 197 000e 1A68     		ldr	r2, [r3]
 198 0010 084B     		ldr	r3, .L8
 199 0012 9A42     		cmp	r2, r3
 200 0014 0AD0     		beq	.L7
 201              		.loc 4 367 0 is_stmt 0 discriminator 1
 202 0016 074B     		ldr	r3, .L8
 203 0018 9B69     		ldr	r3, [r3, #24]
 204 001a 9A68     		ldr	r2, [r3, #8]
 205 001c 054B     		ldr	r3, .L8
 206 001e 1B68     		ldr	r3, [r3]
 207 0020 9B68     		ldr	r3, [r3, #8]
 208 0022 9A42     		cmp	r2, r3
 209 0024 02D2     		bcs	.L7
 210 0026 0448     		ldr	r0, .L8+4
 211 0028 FFF7FEFF 		bl	chSysHalt
 212              	.L7:
 213              		.loc 4 371 0 is_stmt 1
 214 002c FFF7FEFF 		bl	port_unlock
 215              		.loc 4 372 0
 216 0030 80BD     		pop	{r7, pc}
 217              	.L9:
 218 0032 00BF     		.align	2
 219              	.L8:
 220 0034 00000000 		.word	ch
 221 0038 00000000 		.word	__func__.5842
ARM GAS  C:\Users\Luis\AppData\Local\Temp\cckNqlc0.s 			page 5


 222              		.cfi_endproc
 223              	.LFE157:
 224              		.size	chSysUnlock, .-chSysUnlock
 225 003c AFF30080 		.section	.text.chThdGetSelfX,"ax",%progbits
 226              		.align	2
 227              		.p2align 4,,15
 228              		.thumb
 229              		.thumb_func
 230              		.type	chThdGetSelfX, %function
 231              	chThdGetSelfX:
 232              	.LFB177:
 233              		.file 5 "../../ChibiOS/os/rt/include/chthreads.h"
 234              		.loc 5 174 0
 235              		.cfi_startproc
 236              		@ args = 0, pretend = 0, frame = 0
 237              		@ frame_needed = 1, uses_anonymous_args = 0
 238              		@ link register save eliminated.
 239 0000 80B4     		push	{r7}
 240              		.cfi_def_cfa_offset 4
 241              		.cfi_offset 7, -4
 242 0002 00AF     		add	r7, sp, #0
 243              		.cfi_def_cfa_register 7
 244              		.loc 5 176 0
 245 0004 034B     		ldr	r3, .L12
 246 0006 9B69     		ldr	r3, [r3, #24]
 247              		.loc 5 177 0
 248 0008 1846     		mov	r0, r3
 249 000a BD46     		mov	sp, r7
 250              		@ sp needed
 251 000c 5DF8047B 		ldr	r7, [sp], #4
 252 0010 7047     		bx	lr
 253              	.L13:
 254 0012 00BF     		.align	2
 255              	.L12:
 256 0014 00000000 		.word	ch
 257              		.cfi_endproc
 258              	.LFE177:
 259              		.size	chThdGetSelfX, .-chThdGetSelfX
 260 0018 AFF30080 		.section	.text.chThdGetPriorityX,"ax",%progbits
 260      AFF30080 
 261              		.align	2
 262              		.p2align 4,,15
 263              		.thumb
 264              		.thumb_func
 265              		.type	chThdGetPriorityX, %function
 266              	chThdGetPriorityX:
 267              	.LFB178:
 268              		.loc 5 187 0
 269              		.cfi_startproc
 270              		@ args = 0, pretend = 0, frame = 0
 271              		@ frame_needed = 1, uses_anonymous_args = 0
 272 0000 80B5     		push	{r7, lr}
 273              		.cfi_def_cfa_offset 8
 274              		.cfi_offset 7, -8
 275              		.cfi_offset 14, -4
 276 0002 00AF     		add	r7, sp, #0
 277              		.cfi_def_cfa_register 7
ARM GAS  C:\Users\Luis\AppData\Local\Temp\cckNqlc0.s 			page 6


 278              		.loc 5 189 0
 279 0004 FFF7FEFF 		bl	chThdGetSelfX
 280 0008 0346     		mov	r3, r0
 281 000a 9B68     		ldr	r3, [r3, #8]
 282              		.loc 5 190 0
 283 000c 1846     		mov	r0, r3
 284 000e 80BD     		pop	{r7, pc}
 285              		.cfi_endproc
 286              	.LFE178:
 287              		.size	chThdGetPriorityX, .-chThdGetPriorityX
 288              		.section	.data.m1,"aw",%progbits
 289              		.align	2
 290              		.type	m1, %object
 291              		.size	m1, 16
 292              	m1:
 293 0000 00000000 		.word	m1
 294 0004 00000000 		.word	m1
 295 0008 00000000 		.word	0
 296 000c 00000000 		.word	0
 297              		.section	.data.m2,"aw",%progbits
 298              		.align	2
 299              		.type	m2, %object
 300              		.size	m2, 16
 301              	m2:
 302 0000 00000000 		.word	m2
 303 0004 00000000 		.word	m2
 304 0008 00000000 		.word	0
 305 000c 00000000 		.word	0
 306              		.section	.data.c1,"aw",%progbits
 307              		.align	2
 308              		.type	c1, %object
 309              		.size	c1, 8
 310              	c1:
 311 0000 00000000 		.word	c1
 312 0004 00000000 		.word	c1
 313              		.section	.text.mtx1_setup,"ax",%progbits
 314              		.align	2
 315              		.p2align 4,,15
 316              		.thumb
 317              		.thumb_func
 318              		.type	mtx1_setup, %function
 319              	mtx1_setup:
 320              	.LFB229:
 321              		.file 6 "../../ChibiOS/test/rt/testmtx.c"
 322              		.loc 6 84 0
 323              		.cfi_startproc
 324              		@ args = 0, pretend = 0, frame = 0
 325              		@ frame_needed = 1, uses_anonymous_args = 0
 326 0000 80B5     		push	{r7, lr}
 327              		.cfi_def_cfa_offset 8
 328              		.cfi_offset 7, -8
 329              		.cfi_offset 14, -4
 330 0002 00AF     		add	r7, sp, #0
 331              		.cfi_def_cfa_register 7
 332              		.loc 6 86 0
 333 0004 0148     		ldr	r0, .L17
 334 0006 FFF7FEFF 		bl	chMtxObjectInit
ARM GAS  C:\Users\Luis\AppData\Local\Temp\cckNqlc0.s 			page 7


 335              		.loc 6 87 0
 336 000a 80BD     		pop	{r7, pc}
 337              	.L18:
 338              		.align	2
 339              	.L17:
 340 000c 00000000 		.word	m1
 341              		.cfi_endproc
 342              	.LFE229:
 343              		.size	mtx1_setup, .-mtx1_setup
 344              		.section	.text.thread1,"ax",%progbits
 345              		.align	2
 346              		.p2align 4,,15
 347              		.thumb
 348              		.thumb_func
 349              		.type	thread1, %function
 350              	thread1:
 351              	.LFB230:
 352              		.loc 6 89 0
 353              		.cfi_startproc
 354              		@ args = 0, pretend = 0, frame = 8
 355              		@ frame_needed = 1, uses_anonymous_args = 0
 356 0000 80B5     		push	{r7, lr}
 357              		.cfi_def_cfa_offset 8
 358              		.cfi_offset 7, -8
 359              		.cfi_offset 14, -4
 360 0002 82B0     		sub	sp, sp, #8
 361              		.cfi_def_cfa_offset 16
 362 0004 00AF     		add	r7, sp, #0
 363              		.cfi_def_cfa_register 7
 364 0006 7860     		str	r0, [r7, #4]
 365              		.loc 6 91 0
 366 0008 0648     		ldr	r0, .L20
 367 000a FFF7FEFF 		bl	chMtxLock
 368              		.loc 6 92 0
 369 000e 7B68     		ldr	r3, [r7, #4]
 370 0010 1B78     		ldrb	r3, [r3]	@ zero_extendqisi2
 371 0012 1846     		mov	r0, r3
 372 0014 FFF7FEFF 		bl	test_emit_token
 373              		.loc 6 93 0
 374 0018 0248     		ldr	r0, .L20
 375 001a FFF7FEFF 		bl	chMtxUnlock
 376              		.loc 6 94 0
 377 001e 0837     		adds	r7, r7, #8
 378 0020 BD46     		mov	sp, r7
 379              		@ sp needed
 380 0022 80BD     		pop	{r7, pc}
 381              	.L21:
 382              		.align	2
 383              	.L20:
 384 0024 00000000 		.word	m1
 385              		.cfi_endproc
 386              	.LFE230:
 387              		.size	thread1, .-thread1
 388 0028 AFF30080 		.section	.rodata
 388      AFF30080 
 389              		.align	2
 390              	.LC0:
ARM GAS  C:\Users\Luis\AppData\Local\Temp\cckNqlc0.s 			page 8


 391 0000 4500     		.ascii	"E\000"
 392 0002 0000     		.align	2
 393              	.LC1:
 394 0004 4400     		.ascii	"D\000"
 395 0006 0000     		.align	2
 396              	.LC2:
 397 0008 4300     		.ascii	"C\000"
 398 000a 0000     		.align	2
 399              	.LC3:
 400 000c 4200     		.ascii	"B\000"
 401 000e 0000     		.align	2
 402              	.LC4:
 403 0010 4100     		.ascii	"A\000"
 404 0012 0000     		.align	2
 405              	.LC5:
 406 0014 41424344 		.ascii	"ABCDE\000"
 406      4500
 407              		.section	.text.mtx1_execute,"ax",%progbits
 408              		.align	2
 409              		.p2align 4,,15
 410              		.thumb
 411              		.thumb_func
 412              		.type	mtx1_execute, %function
 413              	mtx1_execute:
 414              	.LFB231:
 415              		.loc 6 96 0
 416              		.cfi_startproc
 417              		@ args = 0, pretend = 0, frame = 8
 418              		@ frame_needed = 1, uses_anonymous_args = 0
 419 0000 80B5     		push	{r7, lr}
 420              		.cfi_def_cfa_offset 8
 421              		.cfi_offset 7, -8
 422              		.cfi_offset 14, -4
 423 0002 84B0     		sub	sp, sp, #16
 424              		.cfi_def_cfa_offset 24
 425 0004 02AF     		add	r7, sp, #8
 426              		.cfi_def_cfa 7, 16
 427              		.loc 6 98 0
 428 0006 FFF7FEFF 		bl	chThdGetPriorityX
 429 000a 7860     		str	r0, [r7, #4]
 430              		.loc 6 99 0
 431 000c 3948     		ldr	r0, .L25
 432 000e FFF7FEFF 		bl	chMtxLock
 433              		.loc 6 100 0
 434 0012 394B     		ldr	r3, .L25+4
 435 0014 1A68     		ldr	r2, [r3]
 436 0016 7B68     		ldr	r3, [r7, #4]
 437 0018 0133     		adds	r3, r3, #1
 438 001a 3849     		ldr	r1, .L25+8
 439 001c 0091     		str	r1, [sp]
 440 001e 1046     		mov	r0, r2
 441 0020 4FF4B871 		mov	r1, #368
 442 0024 1A46     		mov	r2, r3
 443 0026 364B     		ldr	r3, .L25+12
 444 0028 FFF7FEFF 		bl	chThdCreateStatic
 445 002c 0246     		mov	r2, r0
 446 002e 354B     		ldr	r3, .L25+16
ARM GAS  C:\Users\Luis\AppData\Local\Temp\cckNqlc0.s 			page 9


 447 0030 1A60     		str	r2, [r3]
 448              		.loc 6 101 0
 449 0032 314B     		ldr	r3, .L25+4
 450 0034 5A68     		ldr	r2, [r3, #4]
 451 0036 7B68     		ldr	r3, [r7, #4]
 452 0038 0233     		adds	r3, r3, #2
 453 003a 3349     		ldr	r1, .L25+20
 454 003c 0091     		str	r1, [sp]
 455 003e 1046     		mov	r0, r2
 456 0040 4FF4B871 		mov	r1, #368
 457 0044 1A46     		mov	r2, r3
 458 0046 2E4B     		ldr	r3, .L25+12
 459 0048 FFF7FEFF 		bl	chThdCreateStatic
 460 004c 0246     		mov	r2, r0
 461 004e 2D4B     		ldr	r3, .L25+16
 462 0050 5A60     		str	r2, [r3, #4]
 463              		.loc 6 102 0
 464 0052 294B     		ldr	r3, .L25+4
 465 0054 9A68     		ldr	r2, [r3, #8]
 466 0056 7B68     		ldr	r3, [r7, #4]
 467 0058 0333     		adds	r3, r3, #3
 468 005a 2C49     		ldr	r1, .L25+24
 469 005c 0091     		str	r1, [sp]
 470 005e 1046     		mov	r0, r2
 471 0060 4FF4B871 		mov	r1, #368
 472 0064 1A46     		mov	r2, r3
 473 0066 264B     		ldr	r3, .L25+12
 474 0068 FFF7FEFF 		bl	chThdCreateStatic
 475 006c 0246     		mov	r2, r0
 476 006e 254B     		ldr	r3, .L25+16
 477 0070 9A60     		str	r2, [r3, #8]
 478              		.loc 6 103 0
 479 0072 214B     		ldr	r3, .L25+4
 480 0074 DA68     		ldr	r2, [r3, #12]
 481 0076 7B68     		ldr	r3, [r7, #4]
 482 0078 0433     		adds	r3, r3, #4
 483 007a 2549     		ldr	r1, .L25+28
 484 007c 0091     		str	r1, [sp]
 485 007e 1046     		mov	r0, r2
 486 0080 4FF4B871 		mov	r1, #368
 487 0084 1A46     		mov	r2, r3
 488 0086 1E4B     		ldr	r3, .L25+12
 489 0088 FFF7FEFF 		bl	chThdCreateStatic
 490 008c 0246     		mov	r2, r0
 491 008e 1D4B     		ldr	r3, .L25+16
 492 0090 DA60     		str	r2, [r3, #12]
 493              		.loc 6 104 0
 494 0092 194B     		ldr	r3, .L25+4
 495 0094 1A69     		ldr	r2, [r3, #16]
 496 0096 7B68     		ldr	r3, [r7, #4]
 497 0098 0533     		adds	r3, r3, #5
 498 009a 1E49     		ldr	r1, .L25+32
 499 009c 0091     		str	r1, [sp]
 500 009e 1046     		mov	r0, r2
 501 00a0 4FF4B871 		mov	r1, #368
 502 00a4 1A46     		mov	r2, r3
 503 00a6 164B     		ldr	r3, .L25+12
ARM GAS  C:\Users\Luis\AppData\Local\Temp\cckNqlc0.s 			page 10


 504 00a8 FFF7FEFF 		bl	chThdCreateStatic
 505 00ac 0246     		mov	r2, r0
 506 00ae 154B     		ldr	r3, .L25+16
 507 00b0 1A61     		str	r2, [r3, #16]
 508              		.loc 6 105 0
 509 00b2 1048     		ldr	r0, .L25
 510 00b4 FFF7FEFF 		bl	chMtxUnlock
 511              		.loc 6 106 0
 512 00b8 FFF7FEFF 		bl	test_wait_threads
 513              		.loc 6 107 0
 514 00bc FFF7FEFF 		bl	chThdGetPriorityX
 515 00c0 0246     		mov	r2, r0
 516 00c2 7B68     		ldr	r3, [r7, #4]
 517 00c4 9A42     		cmp	r2, r3
 518 00c6 14BF     		ite	ne
 519 00c8 0023     		movne	r3, #0
 520 00ca 0123     		moveq	r3, #1
 521 00cc DBB2     		uxtb	r3, r3
 522 00ce 0120     		movs	r0, #1
 523 00d0 1946     		mov	r1, r3
 524 00d2 FFF7FEFF 		bl	_test_assert
 525 00d6 0346     		mov	r3, r0
 526 00d8 002B     		cmp	r3, #0
 527 00da 00D0     		beq	.L23
 528              		.loc 6 107 0 is_stmt 0 discriminator 1
 529 00dc 07E0     		b	.L22
 530              	.L23:
 531              		.loc 6 108 0 is_stmt 1
 532 00de 0220     		movs	r0, #2
 533 00e0 0D49     		ldr	r1, .L25+36
 534 00e2 FFF7FEFF 		bl	_test_assert_sequence
 535 00e6 0346     		mov	r3, r0
 536 00e8 002B     		cmp	r3, #0
 537 00ea 00D0     		beq	.L22
 538              		.loc 6 108 0 is_stmt 0 discriminator 1
 539 00ec 00BF     		nop
 540              	.L22:
 541              		.loc 6 109 0 is_stmt 1
 542 00ee 0837     		adds	r7, r7, #8
 543 00f0 BD46     		mov	sp, r7
 544              		@ sp needed
 545 00f2 80BD     		pop	{r7, pc}
 546              	.L26:
 547              		.align	2
 548              	.L25:
 549 00f4 00000000 		.word	m1
 550 00f8 00000000 		.word	wa
 551 00fc 00000000 		.word	.LC0
 552 0100 00000000 		.word	thread1
 553 0104 00000000 		.word	threads
 554 0108 04000000 		.word	.LC1
 555 010c 08000000 		.word	.LC2
 556 0110 0C000000 		.word	.LC3
 557 0114 10000000 		.word	.LC4
 558 0118 14000000 		.word	.LC5
 559              		.cfi_endproc
 560              	.LFE231:
ARM GAS  C:\Users\Luis\AppData\Local\Temp\cckNqlc0.s 			page 11


 561              		.size	mtx1_execute, .-mtx1_execute
 562              		.global	testmtx1
 563 011c AFF30080 		.section	.rodata
 564 001a 0000     		.align	2
 565              	.LC6:
 566 001c 4D757465 		.ascii	"Mutexes, priority enqueuing test\000"
 566      7865732C 
 566      20707269 
 566      6F726974 
 566      7920656E 
 567              		.section	.rodata.testmtx1,"a",%progbits
 568              		.align	2
 569              		.type	testmtx1, %object
 570              		.size	testmtx1, 16
 571              	testmtx1:
 572 0000 1C000000 		.word	.LC6
 573 0004 00000000 		.word	mtx1_setup
 574 0008 00000000 		.word	0
 575 000c 00000000 		.word	mtx1_execute
 576              		.section	.text.mtx4_setup,"ax",%progbits
 577              		.align	2
 578              		.p2align 4,,15
 579              		.thumb
 580              		.thumb_func
 581              		.type	mtx4_setup, %function
 582              	mtx4_setup:
 583              	.LFB232:
 584              		.loc 6 332 0
 585              		.cfi_startproc
 586              		@ args = 0, pretend = 0, frame = 0
 587              		@ frame_needed = 1, uses_anonymous_args = 0
 588 0000 80B5     		push	{r7, lr}
 589              		.cfi_def_cfa_offset 8
 590              		.cfi_offset 7, -8
 591              		.cfi_offset 14, -4
 592 0002 00AF     		add	r7, sp, #0
 593              		.cfi_def_cfa_register 7
 594              		.loc 6 334 0
 595 0004 0348     		ldr	r0, .L28
 596 0006 FFF7FEFF 		bl	chMtxObjectInit
 597              		.loc 6 335 0
 598 000a 0348     		ldr	r0, .L28+4
 599 000c FFF7FEFF 		bl	chMtxObjectInit
 600              		.loc 6 336 0
 601 0010 80BD     		pop	{r7, pc}
 602              	.L29:
 603 0012 00BF     		.align	2
 604              	.L28:
 605 0014 00000000 		.word	m1
 606 0018 00000000 		.word	m2
 607              		.cfi_endproc
 608              	.LFE232:
 609              		.size	mtx4_setup, .-mtx4_setup
 610 001c AFF30080 		.section	.text.thread4a,"ax",%progbits
 611              		.align	2
 612              		.p2align 4,,15
 613              		.thumb
ARM GAS  C:\Users\Luis\AppData\Local\Temp\cckNqlc0.s 			page 12


 614              		.thumb_func
 615              		.type	thread4a, %function
 616              	thread4a:
 617              	.LFB233:
 618              		.loc 6 338 0
 619              		.cfi_startproc
 620              		@ args = 0, pretend = 0, frame = 8
 621              		@ frame_needed = 1, uses_anonymous_args = 0
 622 0000 80B5     		push	{r7, lr}
 623              		.cfi_def_cfa_offset 8
 624              		.cfi_offset 7, -8
 625              		.cfi_offset 14, -4
 626 0002 82B0     		sub	sp, sp, #8
 627              		.cfi_def_cfa_offset 16
 628 0004 00AF     		add	r7, sp, #0
 629              		.cfi_def_cfa_register 7
 630 0006 7860     		str	r0, [r7, #4]
 631              		.loc 6 341 0
 632 0008 4FF4FA70 		mov	r0, #500
 633 000c FFF7FEFF 		bl	chThdSleep
 634              		.loc 6 342 0
 635 0010 0448     		ldr	r0, .L31
 636 0012 FFF7FEFF 		bl	chMtxLock
 637              		.loc 6 343 0
 638 0016 0348     		ldr	r0, .L31
 639 0018 FFF7FEFF 		bl	chMtxUnlock
 640              		.loc 6 344 0
 641 001c 0837     		adds	r7, r7, #8
 642 001e BD46     		mov	sp, r7
 643              		@ sp needed
 644 0020 80BD     		pop	{r7, pc}
 645              	.L32:
 646 0022 00BF     		.align	2
 647              	.L31:
 648 0024 00000000 		.word	m2
 649              		.cfi_endproc
 650              	.LFE233:
 651              		.size	thread4a, .-thread4a
 652 0028 AFF30080 		.section	.text.thread4b,"ax",%progbits
 652      AFF30080 
 653              		.align	2
 654              		.p2align 4,,15
 655              		.thumb
 656              		.thumb_func
 657              		.type	thread4b, %function
 658              	thread4b:
 659              	.LFB234:
 660              		.loc 6 346 0
 661              		.cfi_startproc
 662              		@ args = 0, pretend = 0, frame = 8
 663              		@ frame_needed = 1, uses_anonymous_args = 0
 664 0000 80B5     		push	{r7, lr}
 665              		.cfi_def_cfa_offset 8
 666              		.cfi_offset 7, -8
 667              		.cfi_offset 14, -4
 668 0002 82B0     		sub	sp, sp, #8
 669              		.cfi_def_cfa_offset 16
ARM GAS  C:\Users\Luis\AppData\Local\Temp\cckNqlc0.s 			page 13


 670 0004 00AF     		add	r7, sp, #0
 671              		.cfi_def_cfa_register 7
 672 0006 7860     		str	r0, [r7, #4]
 673              		.loc 6 349 0
 674 0008 40F2DC50 		movw	r0, #1500
 675 000c FFF7FEFF 		bl	chThdSleep
 676              		.loc 6 350 0
 677 0010 0448     		ldr	r0, .L34
 678 0012 FFF7FEFF 		bl	chMtxLock
 679              		.loc 6 351 0
 680 0016 0348     		ldr	r0, .L34
 681 0018 FFF7FEFF 		bl	chMtxUnlock
 682              		.loc 6 352 0
 683 001c 0837     		adds	r7, r7, #8
 684 001e BD46     		mov	sp, r7
 685              		@ sp needed
 686 0020 80BD     		pop	{r7, pc}
 687              	.L35:
 688 0022 00BF     		.align	2
 689              	.L34:
 690 0024 00000000 		.word	m1
 691              		.cfi_endproc
 692              	.LFE234:
 693              		.size	thread4b, .-thread4b
 694 0028 AFF30080 		.section	.text.mtx4_execute,"ax",%progbits
 694      AFF30080 
 695              		.align	2
 696              		.p2align 4,,15
 697              		.thumb
 698              		.thumb_func
 699              		.type	mtx4_execute, %function
 700              	mtx4_execute:
 701              	.LFB235:
 702              		.loc 6 354 0
 703              		.cfi_startproc
 704              		@ args = 0, pretend = 0, frame = 16
 705              		@ frame_needed = 1, uses_anonymous_args = 0
 706 0000 80B5     		push	{r7, lr}
 707              		.cfi_def_cfa_offset 8
 708              		.cfi_offset 7, -8
 709              		.cfi_offset 14, -4
 710 0002 86B0     		sub	sp, sp, #24
 711              		.cfi_def_cfa_offset 32
 712 0004 02AF     		add	r7, sp, #8
 713              		.cfi_def_cfa 7, 24
 714              		.loc 6 357 0
 715 0006 FFF7FEFF 		bl	chThdGetPriorityX
 716 000a F860     		str	r0, [r7, #12]
 717              		.loc 6 358 0
 718 000c FB68     		ldr	r3, [r7, #12]
 719 000e 0133     		adds	r3, r3, #1
 720 0010 BB60     		str	r3, [r7, #8]
 721              		.loc 6 359 0
 722 0012 FB68     		ldr	r3, [r7, #12]
 723 0014 0233     		adds	r3, r3, #2
 724 0016 7B60     		str	r3, [r7, #4]
 725              		.loc 6 360 0
ARM GAS  C:\Users\Luis\AppData\Local\Temp\cckNqlc0.s 			page 14


 726 0018 A44B     		ldr	r3, .L52
 727 001a 1B68     		ldr	r3, [r3]
 728 001c A44A     		ldr	r2, .L52+4
 729 001e 0092     		str	r2, [sp]
 730 0020 1846     		mov	r0, r3
 731 0022 4FF4B871 		mov	r1, #368
 732 0026 BA68     		ldr	r2, [r7, #8]
 733 0028 A24B     		ldr	r3, .L52+8
 734 002a FFF7FEFF 		bl	chThdCreateStatic
 735 002e 0246     		mov	r2, r0
 736 0030 A14B     		ldr	r3, .L52+12
 737 0032 1A60     		str	r2, [r3]
 738              		.loc 6 361 0
 739 0034 9D4B     		ldr	r3, .L52
 740 0036 5B68     		ldr	r3, [r3, #4]
 741 0038 A04A     		ldr	r2, .L52+16
 742 003a 0092     		str	r2, [sp]
 743 003c 1846     		mov	r0, r3
 744 003e 4FF4B871 		mov	r1, #368
 745 0042 7A68     		ldr	r2, [r7, #4]
 746 0044 9E4B     		ldr	r3, .L52+20
 747 0046 FFF7FEFF 		bl	chThdCreateStatic
 748 004a 0246     		mov	r2, r0
 749 004c 9A4B     		ldr	r3, .L52+12
 750 004e 5A60     		str	r2, [r3, #4]
 751              		.loc 6 362 0
 752 0050 9C48     		ldr	r0, .L52+24
 753 0052 FFF7FEFF 		bl	chMtxLock
 754              		.loc 6 363 0
 755 0056 FFF7FEFF 		bl	chThdGetPriorityX
 756 005a 0246     		mov	r2, r0
 757 005c FB68     		ldr	r3, [r7, #12]
 758 005e 9A42     		cmp	r2, r3
 759 0060 14BF     		ite	ne
 760 0062 0023     		movne	r3, #0
 761 0064 0123     		moveq	r3, #1
 762 0066 DBB2     		uxtb	r3, r3
 763 0068 0120     		movs	r0, #1
 764 006a 1946     		mov	r1, r3
 765 006c FFF7FEFF 		bl	_test_assert
 766 0070 0346     		mov	r3, r0
 767 0072 002B     		cmp	r3, #0
 768 0074 00D0     		beq	.L37
 769              		.loc 6 363 0 is_stmt 0 discriminator 1
 770 0076 42E1     		b	.L36
 771              	.L37:
 772              		.loc 6 364 0 is_stmt 1
 773 0078 4FF47A70 		mov	r0, #1000
 774 007c FFF7FEFF 		bl	chThdSleep
 775              		.loc 6 365 0
 776 0080 FFF7FEFF 		bl	chThdGetPriorityX
 777 0084 0246     		mov	r2, r0
 778 0086 BB68     		ldr	r3, [r7, #8]
 779 0088 9A42     		cmp	r2, r3
 780 008a 14BF     		ite	ne
 781 008c 0023     		movne	r3, #0
 782 008e 0123     		moveq	r3, #1
ARM GAS  C:\Users\Luis\AppData\Local\Temp\cckNqlc0.s 			page 15


 783 0090 DBB2     		uxtb	r3, r3
 784 0092 0220     		movs	r0, #2
 785 0094 1946     		mov	r1, r3
 786 0096 FFF7FEFF 		bl	_test_assert
 787 009a 0346     		mov	r3, r0
 788 009c 002B     		cmp	r3, #0
 789 009e 00D0     		beq	.L39
 790              		.loc 6 365 0 is_stmt 0 discriminator 1
 791 00a0 2DE1     		b	.L36
 792              	.L39:
 793              		.loc 6 366 0 is_stmt 1
 794 00a2 8948     		ldr	r0, .L52+28
 795 00a4 FFF7FEFF 		bl	chMtxLock
 796              		.loc 6 367 0
 797 00a8 FFF7FEFF 		bl	chThdGetPriorityX
 798 00ac 0246     		mov	r2, r0
 799 00ae BB68     		ldr	r3, [r7, #8]
 800 00b0 9A42     		cmp	r2, r3
 801 00b2 14BF     		ite	ne
 802 00b4 0023     		movne	r3, #0
 803 00b6 0123     		moveq	r3, #1
 804 00b8 DBB2     		uxtb	r3, r3
 805 00ba 0320     		movs	r0, #3
 806 00bc 1946     		mov	r1, r3
 807 00be FFF7FEFF 		bl	_test_assert
 808 00c2 0346     		mov	r3, r0
 809 00c4 002B     		cmp	r3, #0
 810 00c6 00D0     		beq	.L40
 811              		.loc 6 367 0 is_stmt 0 discriminator 1
 812 00c8 19E1     		b	.L36
 813              	.L40:
 814              		.loc 6 368 0 is_stmt 1
 815 00ca 4FF47A70 		mov	r0, #1000
 816 00ce FFF7FEFF 		bl	chThdSleep
 817              		.loc 6 369 0
 818 00d2 FFF7FEFF 		bl	chThdGetPriorityX
 819 00d6 0246     		mov	r2, r0
 820 00d8 7B68     		ldr	r3, [r7, #4]
 821 00da 9A42     		cmp	r2, r3
 822 00dc 14BF     		ite	ne
 823 00de 0023     		movne	r3, #0
 824 00e0 0123     		moveq	r3, #1
 825 00e2 DBB2     		uxtb	r3, r3
 826 00e4 0420     		movs	r0, #4
 827 00e6 1946     		mov	r1, r3
 828 00e8 FFF7FEFF 		bl	_test_assert
 829 00ec 0346     		mov	r3, r0
 830 00ee 002B     		cmp	r3, #0
 831 00f0 00D0     		beq	.L41
 832              		.loc 6 369 0 is_stmt 0 discriminator 1
 833 00f2 04E1     		b	.L36
 834              	.L41:
 835              		.loc 6 370 0 is_stmt 1
 836 00f4 7448     		ldr	r0, .L52+28
 837 00f6 FFF7FEFF 		bl	chMtxUnlock
 838              		.loc 6 371 0
 839 00fa FFF7FEFF 		bl	chThdGetPriorityX
ARM GAS  C:\Users\Luis\AppData\Local\Temp\cckNqlc0.s 			page 16


 840 00fe 0246     		mov	r2, r0
 841 0100 BB68     		ldr	r3, [r7, #8]
 842 0102 9A42     		cmp	r2, r3
 843 0104 14BF     		ite	ne
 844 0106 0023     		movne	r3, #0
 845 0108 0123     		moveq	r3, #1
 846 010a DBB2     		uxtb	r3, r3
 847 010c 0520     		movs	r0, #5
 848 010e 1946     		mov	r1, r3
 849 0110 FFF7FEFF 		bl	_test_assert
 850 0114 0346     		mov	r3, r0
 851 0116 002B     		cmp	r3, #0
 852 0118 00D0     		beq	.L42
 853              		.loc 6 371 0 is_stmt 0 discriminator 1
 854 011a F0E0     		b	.L36
 855              	.L42:
 856              		.loc 6 372 0 is_stmt 1
 857 011c 4FF47A70 		mov	r0, #1000
 858 0120 FFF7FEFF 		bl	chThdSleep
 859              		.loc 6 373 0
 860 0124 FFF7FEFF 		bl	chThdGetPriorityX
 861 0128 0246     		mov	r2, r0
 862 012a BB68     		ldr	r3, [r7, #8]
 863 012c 9A42     		cmp	r2, r3
 864 012e 14BF     		ite	ne
 865 0130 0023     		movne	r3, #0
 866 0132 0123     		moveq	r3, #1
 867 0134 DBB2     		uxtb	r3, r3
 868 0136 0620     		movs	r0, #6
 869 0138 1946     		mov	r1, r3
 870 013a FFF7FEFF 		bl	_test_assert
 871 013e 0346     		mov	r3, r0
 872 0140 002B     		cmp	r3, #0
 873 0142 00D0     		beq	.L43
 874              		.loc 6 373 0 is_stmt 0 discriminator 1
 875 0144 DBE0     		b	.L36
 876              	.L43:
 877              		.loc 6 374 0 is_stmt 1
 878 0146 FFF7FEFF 		bl	chMtxUnlockAll
 879              		.loc 6 375 0
 880 014a FFF7FEFF 		bl	chThdGetPriorityX
 881 014e 0246     		mov	r2, r0
 882 0150 FB68     		ldr	r3, [r7, #12]
 883 0152 9A42     		cmp	r2, r3
 884 0154 14BF     		ite	ne
 885 0156 0023     		movne	r3, #0
 886 0158 0123     		moveq	r3, #1
 887 015a DBB2     		uxtb	r3, r3
 888 015c 0720     		movs	r0, #7
 889 015e 1946     		mov	r1, r3
 890 0160 FFF7FEFF 		bl	_test_assert
 891 0164 0346     		mov	r3, r0
 892 0166 002B     		cmp	r3, #0
 893 0168 00D0     		beq	.L44
 894              		.loc 6 375 0 is_stmt 0 discriminator 1
 895 016a C8E0     		b	.L36
 896              	.L44:
ARM GAS  C:\Users\Luis\AppData\Local\Temp\cckNqlc0.s 			page 17


 897              		.loc 6 376 0 is_stmt 1
 898 016c FFF7FEFF 		bl	test_wait_threads
 899              		.loc 6 379 0
 900 0170 4E4B     		ldr	r3, .L52
 901 0172 1B68     		ldr	r3, [r3]
 902 0174 554A     		ldr	r2, .L52+32
 903 0176 0092     		str	r2, [sp]
 904 0178 1846     		mov	r0, r3
 905 017a 4FF4B871 		mov	r1, #368
 906 017e BA68     		ldr	r2, [r7, #8]
 907 0180 4C4B     		ldr	r3, .L52+8
 908 0182 FFF7FEFF 		bl	chThdCreateStatic
 909 0186 0246     		mov	r2, r0
 910 0188 4B4B     		ldr	r3, .L52+12
 911 018a 1A60     		str	r2, [r3]
 912              		.loc 6 380 0
 913 018c 474B     		ldr	r3, .L52
 914 018e 5B68     		ldr	r3, [r3, #4]
 915 0190 4F4A     		ldr	r2, .L52+36
 916 0192 0092     		str	r2, [sp]
 917 0194 1846     		mov	r0, r3
 918 0196 4FF4B871 		mov	r1, #368
 919 019a 7A68     		ldr	r2, [r7, #4]
 920 019c 484B     		ldr	r3, .L52+20
 921 019e FFF7FEFF 		bl	chThdCreateStatic
 922 01a2 0246     		mov	r2, r0
 923 01a4 444B     		ldr	r3, .L52+12
 924 01a6 5A60     		str	r2, [r3, #4]
 925              		.loc 6 381 0
 926 01a8 4648     		ldr	r0, .L52+24
 927 01aa FFF7FEFF 		bl	chMtxLock
 928              		.loc 6 382 0
 929 01ae FFF7FEFF 		bl	chThdGetPriorityX
 930 01b2 0246     		mov	r2, r0
 931 01b4 FB68     		ldr	r3, [r7, #12]
 932 01b6 9A42     		cmp	r2, r3
 933 01b8 14BF     		ite	ne
 934 01ba 0023     		movne	r3, #0
 935 01bc 0123     		moveq	r3, #1
 936 01be DBB2     		uxtb	r3, r3
 937 01c0 0820     		movs	r0, #8
 938 01c2 1946     		mov	r1, r3
 939 01c4 FFF7FEFF 		bl	_test_assert
 940 01c8 0346     		mov	r3, r0
 941 01ca 002B     		cmp	r3, #0
 942 01cc 00D0     		beq	.L45
 943              		.loc 6 382 0 is_stmt 0 discriminator 1
 944 01ce 96E0     		b	.L36
 945              	.L45:
 946              		.loc 6 383 0 is_stmt 1
 947 01d0 4FF47A70 		mov	r0, #1000
 948 01d4 FFF7FEFF 		bl	chThdSleep
 949              		.loc 6 384 0
 950 01d8 FFF7FEFF 		bl	chThdGetPriorityX
 951 01dc 0246     		mov	r2, r0
 952 01de BB68     		ldr	r3, [r7, #8]
 953 01e0 9A42     		cmp	r2, r3
ARM GAS  C:\Users\Luis\AppData\Local\Temp\cckNqlc0.s 			page 18


 954 01e2 14BF     		ite	ne
 955 01e4 0023     		movne	r3, #0
 956 01e6 0123     		moveq	r3, #1
 957 01e8 DBB2     		uxtb	r3, r3
 958 01ea 0920     		movs	r0, #9
 959 01ec 1946     		mov	r1, r3
 960 01ee FFF7FEFF 		bl	_test_assert
 961 01f2 0346     		mov	r3, r0
 962 01f4 002B     		cmp	r3, #0
 963 01f6 00D0     		beq	.L46
 964              		.loc 6 384 0 is_stmt 0 discriminator 1
 965 01f8 81E0     		b	.L36
 966              	.L46:
 967              		.loc 6 385 0 is_stmt 1
 968 01fa 3348     		ldr	r0, .L52+28
 969 01fc FFF7FEFF 		bl	chMtxLock
 970              		.loc 6 386 0
 971 0200 FFF7FEFF 		bl	chThdGetPriorityX
 972 0204 0246     		mov	r2, r0
 973 0206 BB68     		ldr	r3, [r7, #8]
 974 0208 9A42     		cmp	r2, r3
 975 020a 14BF     		ite	ne
 976 020c 0023     		movne	r3, #0
 977 020e 0123     		moveq	r3, #1
 978 0210 DBB2     		uxtb	r3, r3
 979 0212 0A20     		movs	r0, #10
 980 0214 1946     		mov	r1, r3
 981 0216 FFF7FEFF 		bl	_test_assert
 982 021a 0346     		mov	r3, r0
 983 021c 002B     		cmp	r3, #0
 984 021e 00D0     		beq	.L47
 985              		.loc 6 386 0 is_stmt 0 discriminator 1
 986 0220 6DE0     		b	.L36
 987              	.L47:
 988              		.loc 6 387 0 is_stmt 1
 989 0222 4FF47A70 		mov	r0, #1000
 990 0226 FFF7FEFF 		bl	chThdSleep
 991              		.loc 6 388 0
 992 022a FFF7FEFF 		bl	chThdGetPriorityX
 993 022e 0246     		mov	r2, r0
 994 0230 7B68     		ldr	r3, [r7, #4]
 995 0232 9A42     		cmp	r2, r3
 996 0234 14BF     		ite	ne
 997 0236 0023     		movne	r3, #0
 998 0238 0123     		moveq	r3, #1
 999 023a DBB2     		uxtb	r3, r3
 1000 023c 0B20     		movs	r0, #11
 1001 023e 1946     		mov	r1, r3
 1002 0240 FFF7FEFF 		bl	_test_assert
 1003 0244 0346     		mov	r3, r0
 1004 0246 002B     		cmp	r3, #0
 1005 0248 00D0     		beq	.L48
 1006              		.loc 6 388 0 is_stmt 0 discriminator 1
 1007 024a 58E0     		b	.L36
 1008              	.L48:
 1009              		.loc 6 389 0 is_stmt 1
 1010 024c FFF7FEFF 		bl	chSysLock
ARM GAS  C:\Users\Luis\AppData\Local\Temp\cckNqlc0.s 			page 19


 1011              		.loc 6 390 0
 1012 0250 1D48     		ldr	r0, .L52+28
 1013 0252 FFF7FEFF 		bl	chMtxUnlockS
 1014              		.loc 6 391 0
 1015 0256 FFF7FEFF 		bl	chSchRescheduleS
 1016              		.loc 6 392 0
 1017 025a FFF7FEFF 		bl	chSysUnlock
 1018              		.loc 6 393 0
 1019 025e FFF7FEFF 		bl	chThdGetPriorityX
 1020 0262 0246     		mov	r2, r0
 1021 0264 BB68     		ldr	r3, [r7, #8]
 1022 0266 9A42     		cmp	r2, r3
 1023 0268 14BF     		ite	ne
 1024 026a 0023     		movne	r3, #0
 1025 026c 0123     		moveq	r3, #1
 1026 026e DBB2     		uxtb	r3, r3
 1027 0270 0C20     		movs	r0, #12
 1028 0272 1946     		mov	r1, r3
 1029 0274 FFF7FEFF 		bl	_test_assert
 1030 0278 0346     		mov	r3, r0
 1031 027a 002B     		cmp	r3, #0
 1032 027c 00D0     		beq	.L49
 1033              		.loc 6 393 0 is_stmt 0 discriminator 1
 1034 027e 3EE0     		b	.L36
 1035              	.L49:
 1036              		.loc 6 394 0 is_stmt 1
 1037 0280 4FF47A70 		mov	r0, #1000
 1038 0284 FFF7FEFF 		bl	chThdSleep
 1039              		.loc 6 395 0
 1040 0288 FFF7FEFF 		bl	chThdGetPriorityX
 1041 028c 0246     		mov	r2, r0
 1042 028e BB68     		ldr	r3, [r7, #8]
 1043 0290 9A42     		cmp	r2, r3
 1044 0292 14BF     		ite	ne
 1045 0294 0023     		movne	r3, #0
 1046 0296 0123     		moveq	r3, #1
 1047 0298 DBB2     		uxtb	r3, r3
 1048 029a 0D20     		movs	r0, #13
 1049 029c 1946     		mov	r1, r3
 1050 029e FFF7FEFF 		bl	_test_assert
 1051 02a2 0346     		mov	r3, r0
 1052 02a4 002B     		cmp	r3, #0
 1053 02a6 15D0     		beq	.L50
 1054              		.loc 6 395 0 is_stmt 0 discriminator 1
 1055 02a8 29E0     		b	.L36
 1056              	.L53:
 1057 02aa 00BF     		.align	2
 1058              	.L52:
 1059 02ac 00000000 		.word	wa
 1060 02b0 0C000000 		.word	.LC3
 1061 02b4 00000000 		.word	thread4a
 1062 02b8 00000000 		.word	threads
 1063 02bc 10000000 		.word	.LC4
 1064 02c0 00000000 		.word	thread4b
 1065 02c4 00000000 		.word	m2
 1066 02c8 00000000 		.word	m1
 1067 02cc 04000000 		.word	.LC1
ARM GAS  C:\Users\Luis\AppData\Local\Temp\cckNqlc0.s 			page 20


 1068 02d0 08000000 		.word	.LC2
 1069              	.L50:
 1070              		.loc 6 396 0 is_stmt 1
 1071 02d4 FFF7FEFF 		bl	chMtxUnlockAll
 1072              		.loc 6 397 0
 1073 02d8 FFF7FEFF 		bl	chThdGetPriorityX
 1074 02dc 0246     		mov	r2, r0
 1075 02de FB68     		ldr	r3, [r7, #12]
 1076 02e0 9A42     		cmp	r2, r3
 1077 02e2 14BF     		ite	ne
 1078 02e4 0023     		movne	r3, #0
 1079 02e6 0123     		moveq	r3, #1
 1080 02e8 DBB2     		uxtb	r3, r3
 1081 02ea 0E20     		movs	r0, #14
 1082 02ec 1946     		mov	r1, r3
 1083 02ee FFF7FEFF 		bl	_test_assert
 1084 02f2 0346     		mov	r3, r0
 1085 02f4 002B     		cmp	r3, #0
 1086 02f6 00D0     		beq	.L51
 1087              		.loc 6 397 0 is_stmt 0 discriminator 1
 1088 02f8 01E0     		b	.L36
 1089              	.L51:
 1090              		.loc 6 398 0 is_stmt 1
 1091 02fa FFF7FEFF 		bl	test_wait_threads
 1092              	.L36:
 1093              		.loc 6 399 0
 1094 02fe 1037     		adds	r7, r7, #16
 1095 0300 BD46     		mov	sp, r7
 1096              		@ sp needed
 1097 0302 80BD     		pop	{r7, pc}
 1098              		.cfi_endproc
 1099              	.LFE235:
 1100              		.size	mtx4_execute, .-mtx4_execute
 1101              		.global	testmtx4
 1102 0304 AFF30080 		.section	.rodata
 1102      AFF30080 
 1102      AFF30080 
 1103 003d 000000   		.align	2
 1104              	.LC7:
 1105 0040 4D757465 		.ascii	"Mutexes, priority return\000"
 1105      7865732C 
 1105      20707269 
 1105      6F726974 
 1105      79207265 
 1106              		.section	.rodata.testmtx4,"a",%progbits
 1107              		.align	2
 1108              		.type	testmtx4, %object
 1109              		.size	testmtx4, 16
 1110              	testmtx4:
 1111 0000 40000000 		.word	.LC7
 1112 0004 00000000 		.word	mtx4_setup
 1113 0008 00000000 		.word	0
 1114 000c 00000000 		.word	mtx4_execute
 1115              		.section	.text.mtx5_setup,"ax",%progbits
 1116              		.align	2
 1117              		.p2align 4,,15
 1118              		.thumb
ARM GAS  C:\Users\Luis\AppData\Local\Temp\cckNqlc0.s 			page 21


 1119              		.thumb_func
 1120              		.type	mtx5_setup, %function
 1121              	mtx5_setup:
 1122              	.LFB236:
 1123              		.loc 6 418 0
 1124              		.cfi_startproc
 1125              		@ args = 0, pretend = 0, frame = 0
 1126              		@ frame_needed = 1, uses_anonymous_args = 0
 1127 0000 80B5     		push	{r7, lr}
 1128              		.cfi_def_cfa_offset 8
 1129              		.cfi_offset 7, -8
 1130              		.cfi_offset 14, -4
 1131 0002 00AF     		add	r7, sp, #0
 1132              		.cfi_def_cfa_register 7
 1133              		.loc 6 420 0
 1134 0004 0148     		ldr	r0, .L55
 1135 0006 FFF7FEFF 		bl	chMtxObjectInit
 1136              		.loc 6 421 0
 1137 000a 80BD     		pop	{r7, pc}
 1138              	.L56:
 1139              		.align	2
 1140              	.L55:
 1141 000c 00000000 		.word	m1
 1142              		.cfi_endproc
 1143              	.LFE236:
 1144              		.size	mtx5_setup, .-mtx5_setup
 1145              		.section	.text.mtx5_execute,"ax",%progbits
 1146              		.align	2
 1147              		.p2align 4,,15
 1148              		.thumb
 1149              		.thumb_func
 1150              		.type	mtx5_execute, %function
 1151              	mtx5_execute:
 1152              	.LFB237:
 1153              		.loc 6 423 0
 1154              		.cfi_startproc
 1155              		@ args = 0, pretend = 0, frame = 8
 1156              		@ frame_needed = 1, uses_anonymous_args = 0
 1157 0000 80B5     		push	{r7, lr}
 1158              		.cfi_def_cfa_offset 8
 1159              		.cfi_offset 7, -8
 1160              		.cfi_offset 14, -4
 1161 0002 82B0     		sub	sp, sp, #8
 1162              		.cfi_def_cfa_offset 16
 1163 0004 00AF     		add	r7, sp, #0
 1164              		.cfi_def_cfa_register 7
 1165              		.loc 6 427 0
 1166 0006 FFF7FEFF 		bl	chThdGetPriorityX
 1167 000a 7860     		str	r0, [r7, #4]
 1168              		.loc 6 429 0
 1169 000c 3E48     		ldr	r0, .L65
 1170 000e FFF7FEFF 		bl	chMtxTryLock
 1171 0012 0346     		mov	r3, r0
 1172 0014 FB70     		strb	r3, [r7, #3]
 1173              		.loc 6 430 0
 1174 0016 FB78     		ldrb	r3, [r7, #3]	@ zero_extendqisi2
 1175 0018 0120     		movs	r0, #1
ARM GAS  C:\Users\Luis\AppData\Local\Temp\cckNqlc0.s 			page 22


 1176 001a 1946     		mov	r1, r3
 1177 001c FFF7FEFF 		bl	_test_assert
 1178 0020 0346     		mov	r3, r0
 1179 0022 002B     		cmp	r3, #0
 1180 0024 00D0     		beq	.L58
 1181              		.loc 6 430 0 is_stmt 0 discriminator 1
 1182 0026 6BE0     		b	.L57
 1183              	.L58:
 1184              		.loc 6 432 0 is_stmt 1
 1185 0028 3748     		ldr	r0, .L65
 1186 002a FFF7FEFF 		bl	chMtxTryLock
 1187 002e 0346     		mov	r3, r0
 1188 0030 FB70     		strb	r3, [r7, #3]
 1189              		.loc 6 433 0
 1190 0032 FB78     		ldrb	r3, [r7, #3]	@ zero_extendqisi2
 1191 0034 002B     		cmp	r3, #0
 1192 0036 0CBF     		ite	eq
 1193 0038 0023     		moveq	r3, #0
 1194 003a 0123     		movne	r3, #1
 1195 003c DBB2     		uxtb	r3, r3
 1196 003e 83F00103 		eor	r3, r3, #1
 1197 0042 DBB2     		uxtb	r3, r3
 1198 0044 03F00103 		and	r3, r3, #1
 1199 0048 DBB2     		uxtb	r3, r3
 1200 004a 0220     		movs	r0, #2
 1201 004c 1946     		mov	r1, r3
 1202 004e FFF7FEFF 		bl	_test_assert
 1203 0052 0346     		mov	r3, r0
 1204 0054 002B     		cmp	r3, #0
 1205 0056 00D0     		beq	.L60
 1206              		.loc 6 433 0 is_stmt 0 discriminator 1
 1207 0058 52E0     		b	.L57
 1208              	.L60:
 1209              		.loc 6 435 0 is_stmt 1
 1210 005a FFF7FEFF 		bl	chSysLock
 1211              		.loc 6 436 0
 1212 005e 2A48     		ldr	r0, .L65
 1213 0060 FFF7FEFF 		bl	chMtxUnlockS
 1214              		.loc 6 437 0
 1215 0064 FFF7FEFF 		bl	chSysUnlock
 1216              		.loc 6 439 0
 1217 0068 2748     		ldr	r0, .L65
 1218 006a FFF7FEFF 		bl	queue_isempty
 1219 006e 0346     		mov	r3, r0
 1220 0070 0320     		movs	r0, #3
 1221 0072 1946     		mov	r1, r3
 1222 0074 FFF7FEFF 		bl	_test_assert
 1223 0078 0346     		mov	r3, r0
 1224 007a 002B     		cmp	r3, #0
 1225 007c 00D0     		beq	.L61
 1226              		.loc 6 439 0 is_stmt 0 discriminator 1
 1227 007e 3FE0     		b	.L57
 1228              	.L61:
 1229              		.loc 6 440 0 is_stmt 1
 1230 0080 214B     		ldr	r3, .L65
 1231 0082 9B68     		ldr	r3, [r3, #8]
 1232 0084 002B     		cmp	r3, #0
ARM GAS  C:\Users\Luis\AppData\Local\Temp\cckNqlc0.s 			page 23


 1233 0086 14BF     		ite	ne
 1234 0088 0023     		movne	r3, #0
 1235 008a 0123     		moveq	r3, #1
 1236 008c DBB2     		uxtb	r3, r3
 1237 008e 0420     		movs	r0, #4
 1238 0090 1946     		mov	r1, r3
 1239 0092 FFF7FEFF 		bl	_test_assert
 1240 0096 0346     		mov	r3, r0
 1241 0098 002B     		cmp	r3, #0
 1242 009a 00D0     		beq	.L62
 1243              		.loc 6 440 0 is_stmt 0 discriminator 1
 1244 009c 30E0     		b	.L57
 1245              	.L62:
 1246              		.loc 6 441 0 is_stmt 1
 1247 009e FFF7FEFF 		bl	chThdGetPriorityX
 1248 00a2 0246     		mov	r2, r0
 1249 00a4 7B68     		ldr	r3, [r7, #4]
 1250 00a6 9A42     		cmp	r2, r3
 1251 00a8 14BF     		ite	ne
 1252 00aa 0023     		movne	r3, #0
 1253 00ac 0123     		moveq	r3, #1
 1254 00ae DBB2     		uxtb	r3, r3
 1255 00b0 0520     		movs	r0, #5
 1256 00b2 1946     		mov	r1, r3
 1257 00b4 FFF7FEFF 		bl	_test_assert
 1258 00b8 0346     		mov	r3, r0
 1259 00ba 002B     		cmp	r3, #0
 1260 00bc 00D0     		beq	.L63
 1261              		.loc 6 441 0 is_stmt 0 discriminator 1
 1262 00be 1FE0     		b	.L57
 1263              	.L63:
 1264              		.loc 6 444 0 is_stmt 1
 1265 00c0 1148     		ldr	r0, .L65
 1266 00c2 FFF7FEFF 		bl	chMtxLock
 1267              		.loc 6 445 0
 1268 00c6 FFF7FEFF 		bl	chMtxUnlockAll
 1269              		.loc 6 446 0
 1270 00ca 0F48     		ldr	r0, .L65
 1271 00cc FFF7FEFF 		bl	queue_isempty
 1272 00d0 0346     		mov	r3, r0
 1273 00d2 0620     		movs	r0, #6
 1274 00d4 1946     		mov	r1, r3
 1275 00d6 FFF7FEFF 		bl	_test_assert
 1276 00da 0346     		mov	r3, r0
 1277 00dc 002B     		cmp	r3, #0
 1278 00de 00D0     		beq	.L64
 1279              		.loc 6 446 0 is_stmt 0 discriminator 1
 1280 00e0 0EE0     		b	.L57
 1281              	.L64:
 1282              		.loc 6 447 0 is_stmt 1
 1283 00e2 094B     		ldr	r3, .L65
 1284 00e4 9B68     		ldr	r3, [r3, #8]
 1285 00e6 002B     		cmp	r3, #0
 1286 00e8 14BF     		ite	ne
 1287 00ea 0023     		movne	r3, #0
 1288 00ec 0123     		moveq	r3, #1
 1289 00ee DBB2     		uxtb	r3, r3
ARM GAS  C:\Users\Luis\AppData\Local\Temp\cckNqlc0.s 			page 24


 1290 00f0 0720     		movs	r0, #7
 1291 00f2 1946     		mov	r1, r3
 1292 00f4 FFF7FEFF 		bl	_test_assert
 1293 00f8 0346     		mov	r3, r0
 1294 00fa 002B     		cmp	r3, #0
 1295 00fc 00D0     		beq	.L57
 1296              		.loc 6 447 0 is_stmt 0 discriminator 1
 1297 00fe 00BF     		nop
 1298              	.L57:
 1299              		.loc 6 448 0 is_stmt 1
 1300 0100 0837     		adds	r7, r7, #8
 1301 0102 BD46     		mov	sp, r7
 1302              		@ sp needed
 1303 0104 80BD     		pop	{r7, pc}
 1304              	.L66:
 1305 0106 00BF     		.align	2
 1306              	.L65:
 1307 0108 00000000 		.word	m1
 1308              		.cfi_endproc
 1309              	.LFE237:
 1310              		.size	mtx5_execute, .-mtx5_execute
 1311              		.global	testmtx5
 1312 010c AFF30080 		.section	.rodata
 1313 0059 000000   		.align	2
 1314              	.LC8:
 1315 005c 4D757465 		.ascii	"Mutexes, status\000"
 1315      7865732C 
 1315      20737461 
 1315      74757300 
 1316              		.section	.rodata.testmtx5,"a",%progbits
 1317              		.align	2
 1318              		.type	testmtx5, %object
 1319              		.size	testmtx5, 16
 1320              	testmtx5:
 1321 0000 5C000000 		.word	.LC8
 1322 0004 00000000 		.word	mtx5_setup
 1323 0008 00000000 		.word	0
 1324 000c 00000000 		.word	mtx5_execute
 1325              		.section	.text.mtx6_setup,"ax",%progbits
 1326              		.align	2
 1327              		.p2align 4,,15
 1328              		.thumb
 1329              		.thumb_func
 1330              		.type	mtx6_setup, %function
 1331              	mtx6_setup:
 1332              	.LFB238:
 1333              		.loc 6 469 0
 1334              		.cfi_startproc
 1335              		@ args = 0, pretend = 0, frame = 0
 1336              		@ frame_needed = 1, uses_anonymous_args = 0
 1337 0000 80B5     		push	{r7, lr}
 1338              		.cfi_def_cfa_offset 8
 1339              		.cfi_offset 7, -8
 1340              		.cfi_offset 14, -4
 1341 0002 00AF     		add	r7, sp, #0
 1342              		.cfi_def_cfa_register 7
 1343              		.loc 6 471 0
ARM GAS  C:\Users\Luis\AppData\Local\Temp\cckNqlc0.s 			page 25


 1344 0004 0348     		ldr	r0, .L68
 1345 0006 FFF7FEFF 		bl	chCondObjectInit
 1346              		.loc 6 472 0
 1347 000a 0348     		ldr	r0, .L68+4
 1348 000c FFF7FEFF 		bl	chMtxObjectInit
 1349              		.loc 6 473 0
 1350 0010 80BD     		pop	{r7, pc}
 1351              	.L69:
 1352 0012 00BF     		.align	2
 1353              	.L68:
 1354 0014 00000000 		.word	c1
 1355 0018 00000000 		.word	m1
 1356              		.cfi_endproc
 1357              	.LFE238:
 1358              		.size	mtx6_setup, .-mtx6_setup
 1359 001c AFF30080 		.section	.text.thread10,"ax",%progbits
 1360              		.align	2
 1361              		.p2align 4,,15
 1362              		.thumb
 1363              		.thumb_func
 1364              		.type	thread10, %function
 1365              	thread10:
 1366              	.LFB239:
 1367              		.loc 6 475 0
 1368              		.cfi_startproc
 1369              		@ args = 0, pretend = 0, frame = 8
 1370              		@ frame_needed = 1, uses_anonymous_args = 0
 1371 0000 80B5     		push	{r7, lr}
 1372              		.cfi_def_cfa_offset 8
 1373              		.cfi_offset 7, -8
 1374              		.cfi_offset 14, -4
 1375 0002 82B0     		sub	sp, sp, #8
 1376              		.cfi_def_cfa_offset 16
 1377 0004 00AF     		add	r7, sp, #0
 1378              		.cfi_def_cfa_register 7
 1379 0006 7860     		str	r0, [r7, #4]
 1380              		.loc 6 477 0
 1381 0008 0848     		ldr	r0, .L71
 1382 000a FFF7FEFF 		bl	chMtxLock
 1383              		.loc 6 478 0
 1384 000e 0848     		ldr	r0, .L71+4
 1385 0010 FFF7FEFF 		bl	chCondWait
 1386              		.loc 6 479 0
 1387 0014 7B68     		ldr	r3, [r7, #4]
 1388 0016 1B78     		ldrb	r3, [r3]	@ zero_extendqisi2
 1389 0018 1846     		mov	r0, r3
 1390 001a FFF7FEFF 		bl	test_emit_token
 1391              		.loc 6 480 0
 1392 001e 0348     		ldr	r0, .L71
 1393 0020 FFF7FEFF 		bl	chMtxUnlock
 1394              		.loc 6 481 0
 1395 0024 0837     		adds	r7, r7, #8
 1396 0026 BD46     		mov	sp, r7
 1397              		@ sp needed
 1398 0028 80BD     		pop	{r7, pc}
 1399              	.L72:
 1400 002a 00BF     		.align	2
ARM GAS  C:\Users\Luis\AppData\Local\Temp\cckNqlc0.s 			page 26


 1401              	.L71:
 1402 002c 00000000 		.word	m1
 1403 0030 00000000 		.word	c1
 1404              		.cfi_endproc
 1405              	.LFE239:
 1406              		.size	thread10, .-thread10
 1407 0034 AFF30080 		.section	.text.mtx6_execute,"ax",%progbits
 1407      AFF30080 
 1407      AFF30080 
 1408              		.align	2
 1409              		.p2align 4,,15
 1410              		.thumb
 1411              		.thumb_func
 1412              		.type	mtx6_execute, %function
 1413              	mtx6_execute:
 1414              	.LFB240:
 1415              		.loc 6 483 0
 1416              		.cfi_startproc
 1417              		@ args = 0, pretend = 0, frame = 8
 1418              		@ frame_needed = 1, uses_anonymous_args = 0
 1419 0000 80B5     		push	{r7, lr}
 1420              		.cfi_def_cfa_offset 8
 1421              		.cfi_offset 7, -8
 1422              		.cfi_offset 14, -4
 1423 0002 84B0     		sub	sp, sp, #16
 1424              		.cfi_def_cfa_offset 24
 1425 0004 02AF     		add	r7, sp, #8
 1426              		.cfi_def_cfa 7, 16
 1427              		.loc 6 485 0
 1428 0006 FFF7FEFF 		bl	chThdGetPriorityX
 1429 000a 7860     		str	r0, [r7, #4]
 1430              		.loc 6 486 0
 1431 000c 384B     		ldr	r3, .L75
 1432 000e 1A68     		ldr	r2, [r3]
 1433 0010 7B68     		ldr	r3, [r7, #4]
 1434 0012 0133     		adds	r3, r3, #1
 1435 0014 3749     		ldr	r1, .L75+4
 1436 0016 0091     		str	r1, [sp]
 1437 0018 1046     		mov	r0, r2
 1438 001a 4FF4B871 		mov	r1, #368
 1439 001e 1A46     		mov	r2, r3
 1440 0020 354B     		ldr	r3, .L75+8
 1441 0022 FFF7FEFF 		bl	chThdCreateStatic
 1442 0026 0246     		mov	r2, r0
 1443 0028 344B     		ldr	r3, .L75+12
 1444 002a 1A60     		str	r2, [r3]
 1445              		.loc 6 487 0
 1446 002c 304B     		ldr	r3, .L75
 1447 002e 5A68     		ldr	r2, [r3, #4]
 1448 0030 7B68     		ldr	r3, [r7, #4]
 1449 0032 0233     		adds	r3, r3, #2
 1450 0034 3249     		ldr	r1, .L75+16
 1451 0036 0091     		str	r1, [sp]
 1452 0038 1046     		mov	r0, r2
 1453 003a 4FF4B871 		mov	r1, #368
 1454 003e 1A46     		mov	r2, r3
 1455 0040 2D4B     		ldr	r3, .L75+8
ARM GAS  C:\Users\Luis\AppData\Local\Temp\cckNqlc0.s 			page 27


 1456 0042 FFF7FEFF 		bl	chThdCreateStatic
 1457 0046 0246     		mov	r2, r0
 1458 0048 2C4B     		ldr	r3, .L75+12
 1459 004a 5A60     		str	r2, [r3, #4]
 1460              		.loc 6 488 0
 1461 004c 284B     		ldr	r3, .L75
 1462 004e 9A68     		ldr	r2, [r3, #8]
 1463 0050 7B68     		ldr	r3, [r7, #4]
 1464 0052 0333     		adds	r3, r3, #3
 1465 0054 2B49     		ldr	r1, .L75+20
 1466 0056 0091     		str	r1, [sp]
 1467 0058 1046     		mov	r0, r2
 1468 005a 4FF4B871 		mov	r1, #368
 1469 005e 1A46     		mov	r2, r3
 1470 0060 254B     		ldr	r3, .L75+8
 1471 0062 FFF7FEFF 		bl	chThdCreateStatic
 1472 0066 0246     		mov	r2, r0
 1473 0068 244B     		ldr	r3, .L75+12
 1474 006a 9A60     		str	r2, [r3, #8]
 1475              		.loc 6 489 0
 1476 006c 204B     		ldr	r3, .L75
 1477 006e DA68     		ldr	r2, [r3, #12]
 1478 0070 7B68     		ldr	r3, [r7, #4]
 1479 0072 0433     		adds	r3, r3, #4
 1480 0074 2449     		ldr	r1, .L75+24
 1481 0076 0091     		str	r1, [sp]
 1482 0078 1046     		mov	r0, r2
 1483 007a 4FF4B871 		mov	r1, #368
 1484 007e 1A46     		mov	r2, r3
 1485 0080 1D4B     		ldr	r3, .L75+8
 1486 0082 FFF7FEFF 		bl	chThdCreateStatic
 1487 0086 0246     		mov	r2, r0
 1488 0088 1C4B     		ldr	r3, .L75+12
 1489 008a DA60     		str	r2, [r3, #12]
 1490              		.loc 6 490 0
 1491 008c 184B     		ldr	r3, .L75
 1492 008e 1A69     		ldr	r2, [r3, #16]
 1493 0090 7B68     		ldr	r3, [r7, #4]
 1494 0092 0533     		adds	r3, r3, #5
 1495 0094 1D49     		ldr	r1, .L75+28
 1496 0096 0091     		str	r1, [sp]
 1497 0098 1046     		mov	r0, r2
 1498 009a 4FF4B871 		mov	r1, #368
 1499 009e 1A46     		mov	r2, r3
 1500 00a0 154B     		ldr	r3, .L75+8
 1501 00a2 FFF7FEFF 		bl	chThdCreateStatic
 1502 00a6 0246     		mov	r2, r0
 1503 00a8 144B     		ldr	r3, .L75+12
 1504 00aa 1A61     		str	r2, [r3, #16]
 1505              		.loc 6 491 0
 1506 00ac FFF7FEFF 		bl	chSysLock
 1507              		.loc 6 492 0
 1508 00b0 1748     		ldr	r0, .L75+32
 1509 00b2 FFF7FEFF 		bl	chCondSignalI
 1510              		.loc 6 493 0
 1511 00b6 1648     		ldr	r0, .L75+32
 1512 00b8 FFF7FEFF 		bl	chCondSignalI
ARM GAS  C:\Users\Luis\AppData\Local\Temp\cckNqlc0.s 			page 28


 1513              		.loc 6 494 0
 1514 00bc 1448     		ldr	r0, .L75+32
 1515 00be FFF7FEFF 		bl	chCondSignalI
 1516              		.loc 6 495 0
 1517 00c2 1348     		ldr	r0, .L75+32
 1518 00c4 FFF7FEFF 		bl	chCondSignalI
 1519              		.loc 6 496 0
 1520 00c8 1148     		ldr	r0, .L75+32
 1521 00ca FFF7FEFF 		bl	chCondSignalI
 1522              		.loc 6 497 0
 1523 00ce FFF7FEFF 		bl	chSchRescheduleS
 1524              		.loc 6 498 0
 1525 00d2 FFF7FEFF 		bl	chSysUnlock
 1526              		.loc 6 499 0
 1527 00d6 FFF7FEFF 		bl	test_wait_threads
 1528              		.loc 6 500 0
 1529 00da 0120     		movs	r0, #1
 1530 00dc 0D49     		ldr	r1, .L75+36
 1531 00de FFF7FEFF 		bl	_test_assert_sequence
 1532 00e2 0346     		mov	r3, r0
 1533 00e4 002B     		cmp	r3, #0
 1534 00e6 00D0     		beq	.L73
 1535              		.loc 6 500 0 is_stmt 0 discriminator 1
 1536 00e8 00BF     		nop
 1537              	.L73:
 1538              		.loc 6 501 0 is_stmt 1
 1539 00ea 0837     		adds	r7, r7, #8
 1540 00ec BD46     		mov	sp, r7
 1541              		@ sp needed
 1542 00ee 80BD     		pop	{r7, pc}
 1543              	.L76:
 1544              		.align	2
 1545              	.L75:
 1546 00f0 00000000 		.word	wa
 1547 00f4 00000000 		.word	.LC0
 1548 00f8 00000000 		.word	thread10
 1549 00fc 00000000 		.word	threads
 1550 0100 04000000 		.word	.LC1
 1551 0104 08000000 		.word	.LC2
 1552 0108 0C000000 		.word	.LC3
 1553 010c 10000000 		.word	.LC4
 1554 0110 00000000 		.word	c1
 1555 0114 14000000 		.word	.LC5
 1556              		.cfi_endproc
 1557              	.LFE240:
 1558              		.size	mtx6_execute, .-mtx6_execute
 1559              		.global	testmtx6
 1560 0118 AFF30080 		.section	.rodata
 1560      AFF30080 
 1561              		.align	2
 1562              	.LC9:
 1563 006c 436F6E64 		.ascii	"CondVar, signal test\000"
 1563      5661722C 
 1563      20736967 
 1563      6E616C20 
 1563      74657374 
 1564              		.section	.rodata.testmtx6,"a",%progbits
ARM GAS  C:\Users\Luis\AppData\Local\Temp\cckNqlc0.s 			page 29


 1565              		.align	2
 1566              		.type	testmtx6, %object
 1567              		.size	testmtx6, 16
 1568              	testmtx6:
 1569 0000 6C000000 		.word	.LC9
 1570 0004 00000000 		.word	mtx6_setup
 1571 0008 00000000 		.word	0
 1572 000c 00000000 		.word	mtx6_execute
 1573              		.section	.text.mtx7_setup,"ax",%progbits
 1574              		.align	2
 1575              		.p2align 4,,15
 1576              		.thumb
 1577              		.thumb_func
 1578              		.type	mtx7_setup, %function
 1579              	mtx7_setup:
 1580              	.LFB241:
 1581              		.loc 6 520 0
 1582              		.cfi_startproc
 1583              		@ args = 0, pretend = 0, frame = 0
 1584              		@ frame_needed = 1, uses_anonymous_args = 0
 1585 0000 80B5     		push	{r7, lr}
 1586              		.cfi_def_cfa_offset 8
 1587              		.cfi_offset 7, -8
 1588              		.cfi_offset 14, -4
 1589 0002 00AF     		add	r7, sp, #0
 1590              		.cfi_def_cfa_register 7
 1591              		.loc 6 522 0
 1592 0004 0348     		ldr	r0, .L78
 1593 0006 FFF7FEFF 		bl	chCondObjectInit
 1594              		.loc 6 523 0
 1595 000a 0348     		ldr	r0, .L78+4
 1596 000c FFF7FEFF 		bl	chMtxObjectInit
 1597              		.loc 6 524 0
 1598 0010 80BD     		pop	{r7, pc}
 1599              	.L79:
 1600 0012 00BF     		.align	2
 1601              	.L78:
 1602 0014 00000000 		.word	c1
 1603 0018 00000000 		.word	m1
 1604              		.cfi_endproc
 1605              	.LFE241:
 1606              		.size	mtx7_setup, .-mtx7_setup
 1607 001c AFF30080 		.section	.text.mtx7_execute,"ax",%progbits
 1608              		.align	2
 1609              		.p2align 4,,15
 1610              		.thumb
 1611              		.thumb_func
 1612              		.type	mtx7_execute, %function
 1613              	mtx7_execute:
 1614              	.LFB242:
 1615              		.loc 6 526 0
 1616              		.cfi_startproc
 1617              		@ args = 0, pretend = 0, frame = 8
 1618              		@ frame_needed = 1, uses_anonymous_args = 0
 1619 0000 80B5     		push	{r7, lr}
 1620              		.cfi_def_cfa_offset 8
 1621              		.cfi_offset 7, -8
ARM GAS  C:\Users\Luis\AppData\Local\Temp\cckNqlc0.s 			page 30


 1622              		.cfi_offset 14, -4
 1623 0002 84B0     		sub	sp, sp, #16
 1624              		.cfi_def_cfa_offset 24
 1625 0004 02AF     		add	r7, sp, #8
 1626              		.cfi_def_cfa 7, 16
 1627              		.loc 6 528 0
 1628 0006 FFF7FEFF 		bl	chThdGetPriorityX
 1629 000a 7860     		str	r0, [r7, #4]
 1630              		.loc 6 529 0
 1631 000c 2F4B     		ldr	r3, .L82
 1632 000e 1A68     		ldr	r2, [r3]
 1633 0010 7B68     		ldr	r3, [r7, #4]
 1634 0012 0133     		adds	r3, r3, #1
 1635 0014 2E49     		ldr	r1, .L82+4
 1636 0016 0091     		str	r1, [sp]
 1637 0018 1046     		mov	r0, r2
 1638 001a 4FF4B871 		mov	r1, #368
 1639 001e 1A46     		mov	r2, r3
 1640 0020 2C4B     		ldr	r3, .L82+8
 1641 0022 FFF7FEFF 		bl	chThdCreateStatic
 1642 0026 0246     		mov	r2, r0
 1643 0028 2B4B     		ldr	r3, .L82+12
 1644 002a 1A60     		str	r2, [r3]
 1645              		.loc 6 530 0
 1646 002c 274B     		ldr	r3, .L82
 1647 002e 5A68     		ldr	r2, [r3, #4]
 1648 0030 7B68     		ldr	r3, [r7, #4]
 1649 0032 0233     		adds	r3, r3, #2
 1650 0034 2949     		ldr	r1, .L82+16
 1651 0036 0091     		str	r1, [sp]
 1652 0038 1046     		mov	r0, r2
 1653 003a 4FF4B871 		mov	r1, #368
 1654 003e 1A46     		mov	r2, r3
 1655 0040 244B     		ldr	r3, .L82+8
 1656 0042 FFF7FEFF 		bl	chThdCreateStatic
 1657 0046 0246     		mov	r2, r0
 1658 0048 234B     		ldr	r3, .L82+12
 1659 004a 5A60     		str	r2, [r3, #4]
 1660              		.loc 6 531 0
 1661 004c 1F4B     		ldr	r3, .L82
 1662 004e 9A68     		ldr	r2, [r3, #8]
 1663 0050 7B68     		ldr	r3, [r7, #4]
 1664 0052 0333     		adds	r3, r3, #3
 1665 0054 2249     		ldr	r1, .L82+20
 1666 0056 0091     		str	r1, [sp]
 1667 0058 1046     		mov	r0, r2
 1668 005a 4FF4B871 		mov	r1, #368
 1669 005e 1A46     		mov	r2, r3
 1670 0060 1C4B     		ldr	r3, .L82+8
 1671 0062 FFF7FEFF 		bl	chThdCreateStatic
 1672 0066 0246     		mov	r2, r0
 1673 0068 1B4B     		ldr	r3, .L82+12
 1674 006a 9A60     		str	r2, [r3, #8]
 1675              		.loc 6 532 0
 1676 006c 174B     		ldr	r3, .L82
 1677 006e DA68     		ldr	r2, [r3, #12]
 1678 0070 7B68     		ldr	r3, [r7, #4]
ARM GAS  C:\Users\Luis\AppData\Local\Temp\cckNqlc0.s 			page 31


 1679 0072 0433     		adds	r3, r3, #4
 1680 0074 1B49     		ldr	r1, .L82+24
 1681 0076 0091     		str	r1, [sp]
 1682 0078 1046     		mov	r0, r2
 1683 007a 4FF4B871 		mov	r1, #368
 1684 007e 1A46     		mov	r2, r3
 1685 0080 144B     		ldr	r3, .L82+8
 1686 0082 FFF7FEFF 		bl	chThdCreateStatic
 1687 0086 0246     		mov	r2, r0
 1688 0088 134B     		ldr	r3, .L82+12
 1689 008a DA60     		str	r2, [r3, #12]
 1690              		.loc 6 533 0
 1691 008c 0F4B     		ldr	r3, .L82
 1692 008e 1A69     		ldr	r2, [r3, #16]
 1693 0090 7B68     		ldr	r3, [r7, #4]
 1694 0092 0533     		adds	r3, r3, #5
 1695 0094 1449     		ldr	r1, .L82+28
 1696 0096 0091     		str	r1, [sp]
 1697 0098 1046     		mov	r0, r2
 1698 009a 4FF4B871 		mov	r1, #368
 1699 009e 1A46     		mov	r2, r3
 1700 00a0 0C4B     		ldr	r3, .L82+8
 1701 00a2 FFF7FEFF 		bl	chThdCreateStatic
 1702 00a6 0246     		mov	r2, r0
 1703 00a8 0B4B     		ldr	r3, .L82+12
 1704 00aa 1A61     		str	r2, [r3, #16]
 1705              		.loc 6 534 0
 1706 00ac 0F48     		ldr	r0, .L82+32
 1707 00ae FFF7FEFF 		bl	chCondBroadcast
 1708              		.loc 6 535 0
 1709 00b2 FFF7FEFF 		bl	test_wait_threads
 1710              		.loc 6 536 0
 1711 00b6 0120     		movs	r0, #1
 1712 00b8 0D49     		ldr	r1, .L82+36
 1713 00ba FFF7FEFF 		bl	_test_assert_sequence
 1714 00be 0346     		mov	r3, r0
 1715 00c0 002B     		cmp	r3, #0
 1716 00c2 00D0     		beq	.L80
 1717              		.loc 6 536 0 is_stmt 0 discriminator 1
 1718 00c4 00BF     		nop
 1719              	.L80:
 1720              		.loc 6 537 0 is_stmt 1
 1721 00c6 0837     		adds	r7, r7, #8
 1722 00c8 BD46     		mov	sp, r7
 1723              		@ sp needed
 1724 00ca 80BD     		pop	{r7, pc}
 1725              	.L83:
 1726              		.align	2
 1727              	.L82:
 1728 00cc 00000000 		.word	wa
 1729 00d0 00000000 		.word	.LC0
 1730 00d4 00000000 		.word	thread10
 1731 00d8 00000000 		.word	threads
 1732 00dc 04000000 		.word	.LC1
 1733 00e0 08000000 		.word	.LC2
 1734 00e4 0C000000 		.word	.LC3
 1735 00e8 10000000 		.word	.LC4
ARM GAS  C:\Users\Luis\AppData\Local\Temp\cckNqlc0.s 			page 32


 1736 00ec 00000000 		.word	c1
 1737 00f0 14000000 		.word	.LC5
 1738              		.cfi_endproc
 1739              	.LFE242:
 1740              		.size	mtx7_execute, .-mtx7_execute
 1741              		.global	testmtx7
 1742 00f4 AFF30080 		.section	.rodata
 1742      AFF30080 
 1742      AFF30080 
 1743 0081 000000   		.align	2
 1744              	.LC10:
 1745 0084 436F6E64 		.ascii	"CondVar, broadcast test\000"
 1745      5661722C 
 1745      2062726F 
 1745      61646361 
 1745      73742074 
 1746              		.section	.rodata.testmtx7,"a",%progbits
 1747              		.align	2
 1748              		.type	testmtx7, %object
 1749              		.size	testmtx7, 16
 1750              	testmtx7:
 1751 0000 84000000 		.word	.LC10
 1752 0004 00000000 		.word	mtx7_setup
 1753 0008 00000000 		.word	0
 1754 000c 00000000 		.word	mtx7_execute
 1755              		.section	.text.mtx8_setup,"ax",%progbits
 1756              		.align	2
 1757              		.p2align 4,,15
 1758              		.thumb
 1759              		.thumb_func
 1760              		.type	mtx8_setup, %function
 1761              	mtx8_setup:
 1762              	.LFB243:
 1763              		.loc 6 555 0
 1764              		.cfi_startproc
 1765              		@ args = 0, pretend = 0, frame = 0
 1766              		@ frame_needed = 1, uses_anonymous_args = 0
 1767 0000 80B5     		push	{r7, lr}
 1768              		.cfi_def_cfa_offset 8
 1769              		.cfi_offset 7, -8
 1770              		.cfi_offset 14, -4
 1771 0002 00AF     		add	r7, sp, #0
 1772              		.cfi_def_cfa_register 7
 1773              		.loc 6 557 0
 1774 0004 0448     		ldr	r0, .L85
 1775 0006 FFF7FEFF 		bl	chCondObjectInit
 1776              		.loc 6 558 0
 1777 000a 0448     		ldr	r0, .L85+4
 1778 000c FFF7FEFF 		bl	chMtxObjectInit
 1779              		.loc 6 559 0
 1780 0010 0348     		ldr	r0, .L85+8
 1781 0012 FFF7FEFF 		bl	chMtxObjectInit
 1782              		.loc 6 560 0
 1783 0016 80BD     		pop	{r7, pc}
 1784              	.L86:
 1785              		.align	2
 1786              	.L85:
ARM GAS  C:\Users\Luis\AppData\Local\Temp\cckNqlc0.s 			page 33


 1787 0018 00000000 		.word	c1
 1788 001c 00000000 		.word	m1
 1789 0020 00000000 		.word	m2
 1790              		.cfi_endproc
 1791              	.LFE243:
 1792              		.size	mtx8_setup, .-mtx8_setup
 1793 0024 AFF30080 		.section	.text.thread11,"ax",%progbits
 1793      AFF30080 
 1793      AFF30080 
 1794              		.align	2
 1795              		.p2align 4,,15
 1796              		.thumb
 1797              		.thumb_func
 1798              		.type	thread11, %function
 1799              	thread11:
 1800              	.LFB244:
 1801              		.loc 6 562 0
 1802              		.cfi_startproc
 1803              		@ args = 0, pretend = 0, frame = 8
 1804              		@ frame_needed = 1, uses_anonymous_args = 0
 1805 0000 80B5     		push	{r7, lr}
 1806              		.cfi_def_cfa_offset 8
 1807              		.cfi_offset 7, -8
 1808              		.cfi_offset 14, -4
 1809 0002 82B0     		sub	sp, sp, #8
 1810              		.cfi_def_cfa_offset 16
 1811 0004 00AF     		add	r7, sp, #0
 1812              		.cfi_def_cfa_register 7
 1813 0006 7860     		str	r0, [r7, #4]
 1814              		.loc 6 564 0
 1815 0008 0C48     		ldr	r0, .L88
 1816 000a FFF7FEFF 		bl	chMtxLock
 1817              		.loc 6 565 0
 1818 000e 0C48     		ldr	r0, .L88+4
 1819 0010 FFF7FEFF 		bl	chMtxLock
 1820              		.loc 6 567 0
 1821 0014 0B48     		ldr	r0, .L88+8
 1822 0016 4FF0FF31 		mov	r1, #-1
 1823 001a FFF7FEFF 		bl	chCondWaitTimeout
 1824              		.loc 6 571 0
 1825 001e 7B68     		ldr	r3, [r7, #4]
 1826 0020 1B78     		ldrb	r3, [r3]	@ zero_extendqisi2
 1827 0022 1846     		mov	r0, r3
 1828 0024 FFF7FEFF 		bl	test_emit_token
 1829              		.loc 6 572 0
 1830 0028 0548     		ldr	r0, .L88+4
 1831 002a FFF7FEFF 		bl	chMtxUnlock
 1832              		.loc 6 573 0
 1833 002e 0348     		ldr	r0, .L88
 1834 0030 FFF7FEFF 		bl	chMtxUnlock
 1835              		.loc 6 574 0
 1836 0034 0837     		adds	r7, r7, #8
 1837 0036 BD46     		mov	sp, r7
 1838              		@ sp needed
 1839 0038 80BD     		pop	{r7, pc}
 1840              	.L89:
 1841 003a 00BF     		.align	2
ARM GAS  C:\Users\Luis\AppData\Local\Temp\cckNqlc0.s 			page 34


 1842              	.L88:
 1843 003c 00000000 		.word	m2
 1844 0040 00000000 		.word	m1
 1845 0044 00000000 		.word	c1
 1846              		.cfi_endproc
 1847              	.LFE244:
 1848              		.size	thread11, .-thread11
 1849 0048 AFF30080 		.section	.text.thread12,"ax",%progbits
 1849      AFF30080 
 1850              		.align	2
 1851              		.p2align 4,,15
 1852              		.thumb
 1853              		.thumb_func
 1854              		.type	thread12, %function
 1855              	thread12:
 1856              	.LFB245:
 1857              		.loc 6 576 0
 1858              		.cfi_startproc
 1859              		@ args = 0, pretend = 0, frame = 8
 1860              		@ frame_needed = 1, uses_anonymous_args = 0
 1861 0000 80B5     		push	{r7, lr}
 1862              		.cfi_def_cfa_offset 8
 1863              		.cfi_offset 7, -8
 1864              		.cfi_offset 14, -4
 1865 0002 82B0     		sub	sp, sp, #8
 1866              		.cfi_def_cfa_offset 16
 1867 0004 00AF     		add	r7, sp, #0
 1868              		.cfi_def_cfa_register 7
 1869 0006 7860     		str	r0, [r7, #4]
 1870              		.loc 6 578 0
 1871 0008 0648     		ldr	r0, .L91
 1872 000a FFF7FEFF 		bl	chMtxLock
 1873              		.loc 6 579 0
 1874 000e 7B68     		ldr	r3, [r7, #4]
 1875 0010 1B78     		ldrb	r3, [r3]	@ zero_extendqisi2
 1876 0012 1846     		mov	r0, r3
 1877 0014 FFF7FEFF 		bl	test_emit_token
 1878              		.loc 6 580 0
 1879 0018 0248     		ldr	r0, .L91
 1880 001a FFF7FEFF 		bl	chMtxUnlock
 1881              		.loc 6 581 0
 1882 001e 0837     		adds	r7, r7, #8
 1883 0020 BD46     		mov	sp, r7
 1884              		@ sp needed
 1885 0022 80BD     		pop	{r7, pc}
 1886              	.L92:
 1887              		.align	2
 1888              	.L91:
 1889 0024 00000000 		.word	m2
 1890              		.cfi_endproc
 1891              	.LFE245:
 1892              		.size	thread12, .-thread12
 1893 0028 AFF30080 		.section	.rodata
 1893      AFF30080 
 1894              		.align	2
 1895              	.LC11:
 1896 009c 41424300 		.ascii	"ABC\000"
ARM GAS  C:\Users\Luis\AppData\Local\Temp\cckNqlc0.s 			page 35


 1897              		.section	.text.mtx8_execute,"ax",%progbits
 1898              		.align	2
 1899              		.p2align 4,,15
 1900              		.thumb
 1901              		.thumb_func
 1902              		.type	mtx8_execute, %function
 1903              	mtx8_execute:
 1904              	.LFB246:
 1905              		.loc 6 583 0
 1906              		.cfi_startproc
 1907              		@ args = 0, pretend = 0, frame = 8
 1908              		@ frame_needed = 1, uses_anonymous_args = 0
 1909 0000 80B5     		push	{r7, lr}
 1910              		.cfi_def_cfa_offset 8
 1911              		.cfi_offset 7, -8
 1912              		.cfi_offset 14, -4
 1913 0002 84B0     		sub	sp, sp, #16
 1914              		.cfi_def_cfa_offset 24
 1915 0004 02AF     		add	r7, sp, #8
 1916              		.cfi_def_cfa 7, 16
 1917              		.loc 6 585 0
 1918 0006 FFF7FEFF 		bl	chThdGetPriorityX
 1919 000a 7860     		str	r0, [r7, #4]
 1920              		.loc 6 586 0
 1921 000c 214B     		ldr	r3, .L95
 1922 000e 1A68     		ldr	r2, [r3]
 1923 0010 7B68     		ldr	r3, [r7, #4]
 1924 0012 0133     		adds	r3, r3, #1
 1925 0014 2049     		ldr	r1, .L95+4
 1926 0016 0091     		str	r1, [sp]
 1927 0018 1046     		mov	r0, r2
 1928 001a 4FF4B871 		mov	r1, #368
 1929 001e 1A46     		mov	r2, r3
 1930 0020 1E4B     		ldr	r3, .L95+8
 1931 0022 FFF7FEFF 		bl	chThdCreateStatic
 1932 0026 0246     		mov	r2, r0
 1933 0028 1D4B     		ldr	r3, .L95+12
 1934 002a 1A60     		str	r2, [r3]
 1935              		.loc 6 587 0
 1936 002c 194B     		ldr	r3, .L95
 1937 002e 5A68     		ldr	r2, [r3, #4]
 1938 0030 7B68     		ldr	r3, [r7, #4]
 1939 0032 0233     		adds	r3, r3, #2
 1940 0034 1B49     		ldr	r1, .L95+16
 1941 0036 0091     		str	r1, [sp]
 1942 0038 1046     		mov	r0, r2
 1943 003a 4FF4B871 		mov	r1, #368
 1944 003e 1A46     		mov	r2, r3
 1945 0040 194B     		ldr	r3, .L95+20
 1946 0042 FFF7FEFF 		bl	chThdCreateStatic
 1947 0046 0246     		mov	r2, r0
 1948 0048 154B     		ldr	r3, .L95+12
 1949 004a 5A60     		str	r2, [r3, #4]
 1950              		.loc 6 588 0
 1951 004c 114B     		ldr	r3, .L95
 1952 004e 9A68     		ldr	r2, [r3, #8]
 1953 0050 7B68     		ldr	r3, [r7, #4]
ARM GAS  C:\Users\Luis\AppData\Local\Temp\cckNqlc0.s 			page 36


 1954 0052 0333     		adds	r3, r3, #3
 1955 0054 1549     		ldr	r1, .L95+24
 1956 0056 0091     		str	r1, [sp]
 1957 0058 1046     		mov	r0, r2
 1958 005a 4FF4B871 		mov	r1, #368
 1959 005e 1A46     		mov	r2, r3
 1960 0060 134B     		ldr	r3, .L95+28
 1961 0062 FFF7FEFF 		bl	chThdCreateStatic
 1962 0066 0246     		mov	r2, r0
 1963 0068 0D4B     		ldr	r3, .L95+12
 1964 006a 9A60     		str	r2, [r3, #8]
 1965              		.loc 6 589 0
 1966 006c 1148     		ldr	r0, .L95+32
 1967 006e FFF7FEFF 		bl	chCondSignal
 1968              		.loc 6 590 0
 1969 0072 1048     		ldr	r0, .L95+32
 1970 0074 FFF7FEFF 		bl	chCondSignal
 1971              		.loc 6 591 0
 1972 0078 FFF7FEFF 		bl	test_wait_threads
 1973              		.loc 6 592 0
 1974 007c 0120     		movs	r0, #1
 1975 007e 0E49     		ldr	r1, .L95+36
 1976 0080 FFF7FEFF 		bl	_test_assert_sequence
 1977 0084 0346     		mov	r3, r0
 1978 0086 002B     		cmp	r3, #0
 1979 0088 00D0     		beq	.L93
 1980              		.loc 6 592 0 is_stmt 0 discriminator 1
 1981 008a 00BF     		nop
 1982              	.L93:
 1983              		.loc 6 593 0 is_stmt 1
 1984 008c 0837     		adds	r7, r7, #8
 1985 008e BD46     		mov	sp, r7
 1986              		@ sp needed
 1987 0090 80BD     		pop	{r7, pc}
 1988              	.L96:
 1989 0092 00BF     		.align	2
 1990              	.L95:
 1991 0094 00000000 		.word	wa
 1992 0098 10000000 		.word	.LC4
 1993 009c 00000000 		.word	thread11
 1994 00a0 00000000 		.word	threads
 1995 00a4 08000000 		.word	.LC2
 1996 00a8 00000000 		.word	thread10
 1997 00ac 0C000000 		.word	.LC3
 1998 00b0 00000000 		.word	thread12
 1999 00b4 00000000 		.word	c1
 2000 00b8 9C000000 		.word	.LC11
 2001              		.cfi_endproc
 2002              	.LFE246:
 2003              		.size	mtx8_execute, .-mtx8_execute
 2004              		.global	testmtx8
 2005 00bc AFF30080 		.section	.rodata
 2006              		.align	2
 2007              	.LC12:
 2008 00a0 436F6E64 		.ascii	"CondVar, boost test\000"
 2008      5661722C 
 2008      20626F6F 
ARM GAS  C:\Users\Luis\AppData\Local\Temp\cckNqlc0.s 			page 37


 2008      73742074 
 2008      65737400 
 2009              		.section	.rodata.testmtx8,"a",%progbits
 2010              		.align	2
 2011              		.type	testmtx8, %object
 2012              		.size	testmtx8, 16
 2013              	testmtx8:
 2014 0000 A0000000 		.word	.LC12
 2015 0004 00000000 		.word	mtx8_setup
 2016 0008 00000000 		.word	0
 2017 000c 00000000 		.word	mtx8_execute
 2018              		.global	patternmtx
 2019              		.section	.rodata.patternmtx,"a",%progbits
 2020              		.align	2
 2021              		.type	patternmtx, %object
 2022              		.size	patternmtx, 28
 2023              	patternmtx:
 2024 0000 00000000 		.word	testmtx1
 2025 0004 00000000 		.word	testmtx4
 2026 0008 00000000 		.word	testmtx5
 2027 000c 00000000 		.word	testmtx6
 2028 0010 00000000 		.word	testmtx7
 2029 0014 00000000 		.word	testmtx8
 2030 0018 00000000 		.word	0
 2031              		.section	.rodata.__func__.5842,"a",%progbits
 2032              		.align	2
 2033              		.type	__func__.5842, %object
 2034              		.size	__func__.5842, 12
 2035              	__func__.5842:
 2036 0000 63685379 		.ascii	"chSysUnlock\000"
 2036      73556E6C 
 2036      6F636B00 
 2037              		.text
 2038              	.Letext0:
 2039              		.file 7 "c:\\emtechesdk\\gcc\\lib\\gcc\\arm-none-eabi\\4.8.3\\include\\stddef.h"
 2040              		.file 8 "c:\\emtechesdk\\gcc\\arm-none-eabi\\include\\stdint.h"
 2041              		.file 9 "../../ChibiOS/os/rt/ports/ARMCMx/compilers/GCC/chtypes.h"
 2042              		.file 10 "../../ChibiOS/os/rt/include/chsystypes.h"
 2043              		.file 11 "../../ChibiOS/os/rt/ports/ARMCMx/chcore.h"
 2044              		.file 12 "../../ChibiOS/os/rt/include/chdebug.h"
 2045              		.file 13 "../../ChibiOS/os/rt/include/chtm.h"
 2046              		.file 14 "../../ChibiOS/os/rt/include/chstats.h"
 2047              		.file 15 "../../ChibiOS/os/rt/include/chsem.h"
 2048              		.file 16 "../../ChibiOS/os/rt/include/chmtx.h"
 2049              		.file 17 "../../ChibiOS/os/rt/include/chcond.h"
 2050              		.file 18 "../../ChibiOS/test/rt/test.h"
 2051              		.file 19 "../../ChibiOS/os/ext/CMSIS/include/core_cm4.h"