ARM GAS  C:\Users\Luis\AppData\Local\Temp\ccjUYh3h.s 			page 1


   1              		.syntax unified
   2              		.cpu cortex-m4
   3              		.fpu softvfp
   4              		.eabi_attribute 20, 1
   5              		.eabi_attribute 21, 1
   6              		.eabi_attribute 23, 3
   7              		.eabi_attribute 24, 1
   8              		.eabi_attribute 25, 1
   9              		.eabi_attribute 26, 1
  10              		.eabi_attribute 30, 6
  11              		.eabi_attribute 34, 1
  12              		.eabi_attribute 18, 4
  13              		.thumb
  14              		.file	"testqueues.c"
  15              		.text
  16              	.Ltext0:
  17              		.cfi_sections	.debug_frame
  18              		.section	.text.port_lock,"ax",%progbits
  19              		.align	2
  20              		.p2align 4,,15
  21              		.thumb
  22              		.thumb_func
  23              		.type	port_lock, %function
  24              	port_lock:
  25              	.LFB116:
  26              		.file 1 "../../ChibiOS/os/rt/ports/ARMCMx/chcore_v7m.h"
  27              		.loc 1 444 0
  28              		.cfi_startproc
  29              		@ args = 0, pretend = 0, frame = 8
  30              		@ frame_needed = 1, uses_anonymous_args = 0
  31              		@ link register save eliminated.
  32 0000 80B4     		push	{r7}
  33              		.cfi_def_cfa_offset 4
  34              		.cfi_offset 7, -4
  35 0002 83B0     		sub	sp, sp, #12
  36              		.cfi_def_cfa_offset 16
  37 0004 00AF     		add	r7, sp, #0
  38              		.cfi_def_cfa_register 7
  39 0006 2023     		movs	r3, #32
  40 0008 7B60     		str	r3, [r7, #4]
  41              	.LBB6:
  42              	.LBB7:
  43              		.file 2 "../../ChibiOS/os/ext/CMSIS/include/core_cmFunc.h"
  44              		.loc 2 546 0
  45 000a 7B68     		ldr	r3, [r7, #4]
  46              	@ 546 "../../ChibiOS/os/ext/CMSIS/include/core_cmFunc.h" 1
  47 000c 83F31188 		MSR basepri, r3
  48              	@ 0 "" 2
  49              		.thumb
  50              	.LBE7:
  51              	.LBE6:
  52              		.loc 1 451 0
  53 0010 0C37     		adds	r7, r7, #12
  54 0012 BD46     		mov	sp, r7
  55              		@ sp needed
  56 0014 5DF8047B 		ldr	r7, [sp], #4
  57 0018 7047     		bx	lr
ARM GAS  C:\Users\Luis\AppData\Local\Temp\ccjUYh3h.s 			page 2


  58              		.cfi_endproc
  59              	.LFE116:
  60              		.size	port_lock, .-port_lock
  61 001a 00BFAFF3 		.section	.text.port_unlock,"ax",%progbits
  61      0080
  62              		.align	2
  63              		.p2align 4,,15
  64              		.thumb
  65              		.thumb_func
  66              		.type	port_unlock, %function
  67              	port_unlock:
  68              	.LFB117:
  69              		.loc 1 458 0
  70              		.cfi_startproc
  71              		@ args = 0, pretend = 0, frame = 8
  72              		@ frame_needed = 1, uses_anonymous_args = 0
  73              		@ link register save eliminated.
  74 0000 80B4     		push	{r7}
  75              		.cfi_def_cfa_offset 4
  76              		.cfi_offset 7, -4
  77 0002 83B0     		sub	sp, sp, #12
  78              		.cfi_def_cfa_offset 16
  79 0004 00AF     		add	r7, sp, #0
  80              		.cfi_def_cfa_register 7
  81 0006 0023     		movs	r3, #0
  82 0008 7B60     		str	r3, [r7, #4]
  83              	.LBB8:
  84              	.LBB9:
  85              		.loc 2 546 0
  86 000a 7B68     		ldr	r3, [r7, #4]
  87              	@ 546 "../../ChibiOS/os/ext/CMSIS/include/core_cmFunc.h" 1
  88 000c 83F31188 		MSR basepri, r3
  89              	@ 0 "" 2
  90              		.thumb
  91              	.LBE9:
  92              	.LBE8:
  93              		.loc 1 465 0
  94 0010 0C37     		adds	r7, r7, #12
  95 0012 BD46     		mov	sp, r7
  96              		@ sp needed
  97 0014 5DF8047B 		ldr	r7, [sp], #4
  98 0018 7047     		bx	lr
  99              		.cfi_endproc
 100              	.LFE117:
 101              		.size	port_unlock, .-port_unlock
 102 001a 00BFAFF3 		.section	.text.chSysLock,"ax",%progbits
 102      0080
 103              		.align	2
 104              		.p2align 4,,15
 105              		.thumb
 106              		.thumb_func
 107              		.type	chSysLock, %function
 108              	chSysLock:
 109              	.LFB156:
 110              		.file 3 "../../ChibiOS/os/rt/include/chsys.h"
 111              		.loc 3 346 0
 112              		.cfi_startproc
ARM GAS  C:\Users\Luis\AppData\Local\Temp\ccjUYh3h.s 			page 3


 113              		@ args = 0, pretend = 0, frame = 0
 114              		@ frame_needed = 1, uses_anonymous_args = 0
 115 0000 80B5     		push	{r7, lr}
 116              		.cfi_def_cfa_offset 8
 117              		.cfi_offset 7, -8
 118              		.cfi_offset 14, -4
 119 0002 00AF     		add	r7, sp, #0
 120              		.cfi_def_cfa_register 7
 121              		.loc 3 348 0
 122 0004 FFF7FEFF 		bl	port_lock
 123              		.loc 3 349 0
 124 0008 FFF7FEFF 		bl	_stats_start_measure_crit_thd
 125              		.loc 3 350 0
 126 000c FFF7FEFF 		bl	_dbg_check_lock
 127              		.loc 3 351 0
 128 0010 80BD     		pop	{r7, pc}
 129              		.cfi_endproc
 130              	.LFE156:
 131              		.size	chSysLock, .-chSysLock
 132 0012 00BFAFF3 		.section	.text.chSysUnlock,"ax",%progbits
 132      0080AFF3 
 132      0080AFF3 
 132      0080
 133              		.align	2
 134              		.p2align 4,,15
 135              		.thumb
 136              		.thumb_func
 137              		.type	chSysUnlock, %function
 138              	chSysUnlock:
 139              	.LFB157:
 140              		.loc 3 358 0
 141              		.cfi_startproc
 142              		@ args = 0, pretend = 0, frame = 0
 143              		@ frame_needed = 1, uses_anonymous_args = 0
 144 0000 80B5     		push	{r7, lr}
 145              		.cfi_def_cfa_offset 8
 146              		.cfi_offset 7, -8
 147              		.cfi_offset 14, -4
 148 0002 00AF     		add	r7, sp, #0
 149              		.cfi_def_cfa_register 7
 150              		.loc 3 360 0
 151 0004 FFF7FEFF 		bl	_dbg_check_unlock
 152              		.loc 3 361 0
 153 0008 FFF7FEFF 		bl	_stats_stop_measure_crit_thd
 154              		.loc 3 367 0
 155 000c 094B     		ldr	r3, .L6
 156 000e 1A68     		ldr	r2, [r3]
 157 0010 084B     		ldr	r3, .L6
 158 0012 9A42     		cmp	r2, r3
 159 0014 0AD0     		beq	.L5
 160              		.loc 3 367 0 is_stmt 0 discriminator 1
 161 0016 074B     		ldr	r3, .L6
 162 0018 9B69     		ldr	r3, [r3, #24]
 163 001a 9A68     		ldr	r2, [r3, #8]
 164 001c 054B     		ldr	r3, .L6
 165 001e 1B68     		ldr	r3, [r3]
 166 0020 9B68     		ldr	r3, [r3, #8]
ARM GAS  C:\Users\Luis\AppData\Local\Temp\ccjUYh3h.s 			page 4


 167 0022 9A42     		cmp	r2, r3
 168 0024 02D2     		bcs	.L5
 169 0026 0448     		ldr	r0, .L6+4
 170 0028 FFF7FEFF 		bl	chSysHalt
 171              	.L5:
 172              		.loc 3 371 0 is_stmt 1
 173 002c FFF7FEFF 		bl	port_unlock
 174              		.loc 3 372 0
 175 0030 80BD     		pop	{r7, pc}
 176              	.L7:
 177 0032 00BF     		.align	2
 178              	.L6:
 179 0034 00000000 		.word	ch
 180 0038 00000000 		.word	__func__.5842
 181              		.cfi_endproc
 182              	.LFE157:
 183              		.size	chSysUnlock, .-chSysUnlock
 184 003c AFF30080 		.section	.text.chThdGetSelfX,"ax",%progbits
 185              		.align	2
 186              		.p2align 4,,15
 187              		.thumb
 188              		.thumb_func
 189              		.type	chThdGetSelfX, %function
 190              	chThdGetSelfX:
 191              	.LFB177:
 192              		.file 4 "../../ChibiOS/os/rt/include/chthreads.h"
 193              		.loc 4 174 0
 194              		.cfi_startproc
 195              		@ args = 0, pretend = 0, frame = 0
 196              		@ frame_needed = 1, uses_anonymous_args = 0
 197              		@ link register save eliminated.
 198 0000 80B4     		push	{r7}
 199              		.cfi_def_cfa_offset 4
 200              		.cfi_offset 7, -4
 201 0002 00AF     		add	r7, sp, #0
 202              		.cfi_def_cfa_register 7
 203              		.loc 4 176 0
 204 0004 034B     		ldr	r3, .L10
 205 0006 9B69     		ldr	r3, [r3, #24]
 206              		.loc 4 177 0
 207 0008 1846     		mov	r0, r3
 208 000a BD46     		mov	sp, r7
 209              		@ sp needed
 210 000c 5DF8047B 		ldr	r7, [sp], #4
 211 0010 7047     		bx	lr
 212              	.L11:
 213 0012 00BF     		.align	2
 214              	.L10:
 215 0014 00000000 		.word	ch
 216              		.cfi_endproc
 217              	.LFE177:
 218              		.size	chThdGetSelfX, .-chThdGetSelfX
 219 0018 AFF30080 		.section	.text.chThdGetPriorityX,"ax",%progbits
 219      AFF30080 
 220              		.align	2
 221              		.p2align 4,,15
 222              		.thumb
ARM GAS  C:\Users\Luis\AppData\Local\Temp\ccjUYh3h.s 			page 5


 223              		.thumb_func
 224              		.type	chThdGetPriorityX, %function
 225              	chThdGetPriorityX:
 226              	.LFB178:
 227              		.loc 4 187 0
 228              		.cfi_startproc
 229              		@ args = 0, pretend = 0, frame = 0
 230              		@ frame_needed = 1, uses_anonymous_args = 0
 231 0000 80B5     		push	{r7, lr}
 232              		.cfi_def_cfa_offset 8
 233              		.cfi_offset 7, -8
 234              		.cfi_offset 14, -4
 235 0002 00AF     		add	r7, sp, #0
 236              		.cfi_def_cfa_register 7
 237              		.loc 4 189 0
 238 0004 FFF7FEFF 		bl	chThdGetSelfX
 239 0008 0346     		mov	r3, r0
 240 000a 9B68     		ldr	r3, [r3, #8]
 241              		.loc 4 190 0
 242 000c 1846     		mov	r0, r3
 243 000e 80BD     		pop	{r7, pc}
 244              		.cfi_endproc
 245              	.LFE178:
 246              		.size	chThdGetPriorityX, .-chThdGetPriorityX
 247              		.section	.text.chIQGetFullI,"ax",%progbits
 248              		.align	2
 249              		.p2align 4,,15
 250              		.thumb
 251              		.thumb_func
 252              		.type	chIQGetFullI, %function
 253              	chIQGetFullI:
 254              	.LFB219:
 255              		.file 5 "../../ChibiOS/os/rt/include/chqueues.h"
 256              		.loc 5 270 0
 257              		.cfi_startproc
 258              		@ args = 0, pretend = 0, frame = 8
 259              		@ frame_needed = 1, uses_anonymous_args = 0
 260 0000 80B5     		push	{r7, lr}
 261              		.cfi_def_cfa_offset 8
 262              		.cfi_offset 7, -8
 263              		.cfi_offset 14, -4
 264 0002 82B0     		sub	sp, sp, #8
 265              		.cfi_def_cfa_offset 16
 266 0004 00AF     		add	r7, sp, #0
 267              		.cfi_def_cfa_register 7
 268 0006 7860     		str	r0, [r7, #4]
 269              		.loc 5 272 0
 270 0008 FFF7FEFF 		bl	chDbgCheckClassI
 271              		.loc 5 274 0
 272 000c 7B68     		ldr	r3, [r7, #4]
 273 000e 9B68     		ldr	r3, [r3, #8]
 274              		.loc 5 275 0
 275 0010 1846     		mov	r0, r3
 276 0012 0837     		adds	r7, r7, #8
 277 0014 BD46     		mov	sp, r7
 278              		@ sp needed
 279 0016 80BD     		pop	{r7, pc}
ARM GAS  C:\Users\Luis\AppData\Local\Temp\ccjUYh3h.s 			page 6


 280              		.cfi_endproc
 281              	.LFE219:
 282              		.size	chIQGetFullI, .-chIQGetFullI
 283 0018 AFF30080 		.section	.text.chIQIsEmptyI,"ax",%progbits
 283      AFF30080 
 284              		.align	2
 285              		.p2align 4,,15
 286              		.thumb
 287              		.thumb_func
 288              		.type	chIQIsEmptyI, %function
 289              	chIQIsEmptyI:
 290              	.LFB221:
 291              		.loc 5 303 0
 292              		.cfi_startproc
 293              		@ args = 0, pretend = 0, frame = 8
 294              		@ frame_needed = 1, uses_anonymous_args = 0
 295 0000 80B5     		push	{r7, lr}
 296              		.cfi_def_cfa_offset 8
 297              		.cfi_offset 7, -8
 298              		.cfi_offset 14, -4
 299 0002 82B0     		sub	sp, sp, #8
 300              		.cfi_def_cfa_offset 16
 301 0004 00AF     		add	r7, sp, #0
 302              		.cfi_def_cfa_register 7
 303 0006 7860     		str	r0, [r7, #4]
 304              		.loc 5 305 0
 305 0008 FFF7FEFF 		bl	chDbgCheckClassI
 306              		.loc 5 307 0
 307 000c 7B68     		ldr	r3, [r7, #4]
 308 000e 9B68     		ldr	r3, [r3, #8]
 309 0010 002B     		cmp	r3, #0
 310 0012 14BF     		ite	ne
 311 0014 0023     		movne	r3, #0
 312 0016 0123     		moveq	r3, #1
 313 0018 DBB2     		uxtb	r3, r3
 314              		.loc 5 308 0
 315 001a 1846     		mov	r0, r3
 316 001c 0837     		adds	r7, r7, #8
 317 001e BD46     		mov	sp, r7
 318              		@ sp needed
 319 0020 80BD     		pop	{r7, pc}
 320              		.cfi_endproc
 321              	.LFE221:
 322              		.size	chIQIsEmptyI, .-chIQIsEmptyI
 323 0022 00BFAFF3 		.section	.text.chIQIsFullI,"ax",%progbits
 323      0080AFF3 
 323      0080AFF3 
 323      0080
 324              		.align	2
 325              		.p2align 4,,15
 326              		.thumb
 327              		.thumb_func
 328              		.type	chIQIsFullI, %function
 329              	chIQIsFullI:
 330              	.LFB222:
 331              		.loc 5 320 0
 332              		.cfi_startproc
ARM GAS  C:\Users\Luis\AppData\Local\Temp\ccjUYh3h.s 			page 7


 333              		@ args = 0, pretend = 0, frame = 8
 334              		@ frame_needed = 1, uses_anonymous_args = 0
 335 0000 80B5     		push	{r7, lr}
 336              		.cfi_def_cfa_offset 8
 337              		.cfi_offset 7, -8
 338              		.cfi_offset 14, -4
 339 0002 82B0     		sub	sp, sp, #8
 340              		.cfi_def_cfa_offset 16
 341 0004 00AF     		add	r7, sp, #0
 342              		.cfi_def_cfa_register 7
 343 0006 7860     		str	r0, [r7, #4]
 344              		.loc 5 322 0
 345 0008 FFF7FEFF 		bl	chDbgCheckClassI
 346              		.loc 5 324 0
 347 000c 7B68     		ldr	r3, [r7, #4]
 348 000e 5A69     		ldr	r2, [r3, #20]
 349 0010 7B68     		ldr	r3, [r7, #4]
 350 0012 9B69     		ldr	r3, [r3, #24]
 351 0014 9A42     		cmp	r2, r3
 352 0016 05D1     		bne	.L19
 353              		.loc 5 324 0 is_stmt 0 discriminator 1
 354 0018 7B68     		ldr	r3, [r7, #4]
 355 001a 9B68     		ldr	r3, [r3, #8]
 356 001c 002B     		cmp	r3, #0
 357 001e 01D0     		beq	.L19
 358              		.loc 5 324 0 discriminator 3
 359 0020 0123     		movs	r3, #1
 360 0022 00E0     		b	.L20
 361              	.L19:
 362              		.loc 5 324 0 discriminator 2
 363 0024 0023     		movs	r3, #0
 364              	.L20:
 365              		.loc 5 324 0 discriminator 4
 366 0026 03F00103 		and	r3, r3, #1
 367 002a DBB2     		uxtb	r3, r3
 368              		.loc 5 325 0 is_stmt 1 discriminator 4
 369 002c 1846     		mov	r0, r3
 370 002e 0837     		adds	r7, r7, #8
 371 0030 BD46     		mov	sp, r7
 372              		@ sp needed
 373 0032 80BD     		pop	{r7, pc}
 374              		.cfi_endproc
 375              	.LFE222:
 376              		.size	chIQIsFullI, .-chIQIsFullI
 377 0034 AFF30080 		.section	.text.chIQGet,"ax",%progbits
 377      AFF30080 
 377      AFF30080 
 378              		.align	2
 379              		.p2align 4,,15
 380              		.thumb
 381              		.thumb_func
 382              		.type	chIQGet, %function
 383              	chIQGet:
 384              	.LFB223:
 385              		.loc 5 339 0
 386              		.cfi_startproc
 387              		@ args = 0, pretend = 0, frame = 8
ARM GAS  C:\Users\Luis\AppData\Local\Temp\ccjUYh3h.s 			page 8


 388              		@ frame_needed = 1, uses_anonymous_args = 0
 389 0000 80B5     		push	{r7, lr}
 390              		.cfi_def_cfa_offset 8
 391              		.cfi_offset 7, -8
 392              		.cfi_offset 14, -4
 393 0002 82B0     		sub	sp, sp, #8
 394              		.cfi_def_cfa_offset 16
 395 0004 00AF     		add	r7, sp, #0
 396              		.cfi_def_cfa_register 7
 397 0006 7860     		str	r0, [r7, #4]
 398              		.loc 5 341 0
 399 0008 7868     		ldr	r0, [r7, #4]
 400 000a 4FF0FF31 		mov	r1, #-1
 401 000e FFF7FEFF 		bl	chIQGetTimeout
 402 0012 0346     		mov	r3, r0
 403              		.loc 5 342 0
 404 0014 1846     		mov	r0, r3
 405 0016 0837     		adds	r7, r7, #8
 406 0018 BD46     		mov	sp, r7
 407              		@ sp needed
 408 001a 80BD     		pop	{r7, pc}
 409              		.cfi_endproc
 410              	.LFE223:
 411              		.size	chIQGet, .-chIQGet
 412 001c AFF30080 		.section	.text.chOQGetFullI,"ax",%progbits
 413              		.align	2
 414              		.p2align 4,,15
 415              		.thumb
 416              		.thumb_func
 417              		.type	chOQGetFullI, %function
 418              	chOQGetFullI:
 419              	.LFB224:
 420              		.loc 5 353 0
 421              		.cfi_startproc
 422              		@ args = 0, pretend = 0, frame = 8
 423              		@ frame_needed = 1, uses_anonymous_args = 0
 424 0000 80B5     		push	{r7, lr}
 425              		.cfi_def_cfa_offset 8
 426              		.cfi_offset 7, -8
 427              		.cfi_offset 14, -4
 428 0002 82B0     		sub	sp, sp, #8
 429              		.cfi_def_cfa_offset 16
 430 0004 00AF     		add	r7, sp, #0
 431              		.cfi_def_cfa_register 7
 432 0006 7860     		str	r0, [r7, #4]
 433              		.loc 5 355 0
 434 0008 FFF7FEFF 		bl	chDbgCheckClassI
 435              		.loc 5 357 0
 436 000c 7B68     		ldr	r3, [r7, #4]
 437 000e 1B69     		ldr	r3, [r3, #16]
 438 0010 1A46     		mov	r2, r3
 439 0012 7B68     		ldr	r3, [r7, #4]
 440 0014 DB68     		ldr	r3, [r3, #12]
 441 0016 D31A     		subs	r3, r2, r3
 442 0018 1A46     		mov	r2, r3
 443 001a 7B68     		ldr	r3, [r7, #4]
 444 001c 9B68     		ldr	r3, [r3, #8]
ARM GAS  C:\Users\Luis\AppData\Local\Temp\ccjUYh3h.s 			page 9


 445 001e D31A     		subs	r3, r2, r3
 446              		.loc 5 358 0
 447 0020 1846     		mov	r0, r3
 448 0022 0837     		adds	r7, r7, #8
 449 0024 BD46     		mov	sp, r7
 450              		@ sp needed
 451 0026 80BD     		pop	{r7, pc}
 452              		.cfi_endproc
 453              	.LFE224:
 454              		.size	chOQGetFullI, .-chOQGetFullI
 455 0028 AFF30080 		.section	.text.chOQIsEmptyI,"ax",%progbits
 455      AFF30080 
 456              		.align	2
 457              		.p2align 4,,15
 458              		.thumb
 459              		.thumb_func
 460              		.type	chOQIsEmptyI, %function
 461              	chOQIsEmptyI:
 462              	.LFB226:
 463              		.loc 5 386 0
 464              		.cfi_startproc
 465              		@ args = 0, pretend = 0, frame = 8
 466              		@ frame_needed = 1, uses_anonymous_args = 0
 467 0000 80B5     		push	{r7, lr}
 468              		.cfi_def_cfa_offset 8
 469              		.cfi_offset 7, -8
 470              		.cfi_offset 14, -4
 471 0002 82B0     		sub	sp, sp, #8
 472              		.cfi_def_cfa_offset 16
 473 0004 00AF     		add	r7, sp, #0
 474              		.cfi_def_cfa_register 7
 475 0006 7860     		str	r0, [r7, #4]
 476              		.loc 5 388 0
 477 0008 FFF7FEFF 		bl	chDbgCheckClassI
 478              		.loc 5 390 0
 479 000c 7B68     		ldr	r3, [r7, #4]
 480 000e 5A69     		ldr	r2, [r3, #20]
 481 0010 7B68     		ldr	r3, [r7, #4]
 482 0012 9B69     		ldr	r3, [r3, #24]
 483 0014 9A42     		cmp	r2, r3
 484 0016 05D1     		bne	.L27
 485              		.loc 5 390 0 is_stmt 0 discriminator 1
 486 0018 7B68     		ldr	r3, [r7, #4]
 487 001a 9B68     		ldr	r3, [r3, #8]
 488 001c 002B     		cmp	r3, #0
 489 001e 01D0     		beq	.L27
 490              		.loc 5 390 0 discriminator 3
 491 0020 0123     		movs	r3, #1
 492 0022 00E0     		b	.L28
 493              	.L27:
 494              		.loc 5 390 0 discriminator 2
 495 0024 0023     		movs	r3, #0
 496              	.L28:
 497              		.loc 5 390 0 discriminator 4
 498 0026 03F00103 		and	r3, r3, #1
 499 002a DBB2     		uxtb	r3, r3
 500              		.loc 5 391 0 is_stmt 1 discriminator 4
ARM GAS  C:\Users\Luis\AppData\Local\Temp\ccjUYh3h.s 			page 10


 501 002c 1846     		mov	r0, r3
 502 002e 0837     		adds	r7, r7, #8
 503 0030 BD46     		mov	sp, r7
 504              		@ sp needed
 505 0032 80BD     		pop	{r7, pc}
 506              		.cfi_endproc
 507              	.LFE226:
 508              		.size	chOQIsEmptyI, .-chOQIsEmptyI
 509 0034 AFF30080 		.section	.text.chOQIsFullI,"ax",%progbits
 509      AFF30080 
 509      AFF30080 
 510              		.align	2
 511              		.p2align 4,,15
 512              		.thumb
 513              		.thumb_func
 514              		.type	chOQIsFullI, %function
 515              	chOQIsFullI:
 516              	.LFB227:
 517              		.loc 5 403 0
 518              		.cfi_startproc
 519              		@ args = 0, pretend = 0, frame = 8
 520              		@ frame_needed = 1, uses_anonymous_args = 0
 521 0000 80B5     		push	{r7, lr}
 522              		.cfi_def_cfa_offset 8
 523              		.cfi_offset 7, -8
 524              		.cfi_offset 14, -4
 525 0002 82B0     		sub	sp, sp, #8
 526              		.cfi_def_cfa_offset 16
 527 0004 00AF     		add	r7, sp, #0
 528              		.cfi_def_cfa_register 7
 529 0006 7860     		str	r0, [r7, #4]
 530              		.loc 5 405 0
 531 0008 FFF7FEFF 		bl	chDbgCheckClassI
 532              		.loc 5 407 0
 533 000c 7B68     		ldr	r3, [r7, #4]
 534 000e 9B68     		ldr	r3, [r3, #8]
 535 0010 002B     		cmp	r3, #0
 536 0012 14BF     		ite	ne
 537 0014 0023     		movne	r3, #0
 538 0016 0123     		moveq	r3, #1
 539 0018 DBB2     		uxtb	r3, r3
 540              		.loc 5 408 0
 541 001a 1846     		mov	r0, r3
 542 001c 0837     		adds	r7, r7, #8
 543 001e BD46     		mov	sp, r7
 544              		@ sp needed
 545 0020 80BD     		pop	{r7, pc}
 546              		.cfi_endproc
 547              	.LFE227:
 548              		.size	chOQIsFullI, .-chOQIsFullI
 549 0022 00BFAFF3 		.section	.text.chOQPut,"ax",%progbits
 549      0080AFF3 
 549      0080AFF3 
 549      0080
 550              		.align	2
 551              		.p2align 4,,15
 552              		.thumb
ARM GAS  C:\Users\Luis\AppData\Local\Temp\ccjUYh3h.s 			page 11


 553              		.thumb_func
 554              		.type	chOQPut, %function
 555              	chOQPut:
 556              	.LFB228:
 557              		.loc 5 424 0
 558              		.cfi_startproc
 559              		@ args = 0, pretend = 0, frame = 8
 560              		@ frame_needed = 1, uses_anonymous_args = 0
 561 0000 80B5     		push	{r7, lr}
 562              		.cfi_def_cfa_offset 8
 563              		.cfi_offset 7, -8
 564              		.cfi_offset 14, -4
 565 0002 82B0     		sub	sp, sp, #8
 566              		.cfi_def_cfa_offset 16
 567 0004 00AF     		add	r7, sp, #0
 568              		.cfi_def_cfa_register 7
 569 0006 7860     		str	r0, [r7, #4]
 570 0008 0B46     		mov	r3, r1
 571 000a FB70     		strb	r3, [r7, #3]
 572              		.loc 5 426 0
 573 000c FB78     		ldrb	r3, [r7, #3]	@ zero_extendqisi2
 574 000e 7868     		ldr	r0, [r7, #4]
 575 0010 1946     		mov	r1, r3
 576 0012 4FF0FF32 		mov	r2, #-1
 577 0016 FFF7FEFF 		bl	chOQPutTimeout
 578 001a 0346     		mov	r3, r0
 579              		.loc 5 427 0
 580 001c 1846     		mov	r0, r3
 581 001e 0837     		adds	r7, r7, #8
 582 0020 BD46     		mov	sp, r7
 583              		@ sp needed
 584 0022 80BD     		pop	{r7, pc}
 585              		.cfi_endproc
 586              	.LFE228:
 587              		.size	chOQPut, .-chOQPut
 588 0024 AFF30080 		.section	.text.notify,"ax",%progbits
 588      AFF30080 
 588      AFF30080 
 589              		.align	2
 590              		.p2align 4,,15
 591              		.thumb
 592              		.thumb_func
 593              		.type	notify, %function
 594              	notify:
 595              	.LFB229:
 596              		.file 6 "../../ChibiOS/test/rt/testqueues.c"
 597              		.loc 6 57 0
 598              		.cfi_startproc
 599              		@ args = 0, pretend = 0, frame = 8
 600              		@ frame_needed = 1, uses_anonymous_args = 0
 601              		@ link register save eliminated.
 602 0000 80B4     		push	{r7}
 603              		.cfi_def_cfa_offset 4
 604              		.cfi_offset 7, -4
 605 0002 83B0     		sub	sp, sp, #12
 606              		.cfi_def_cfa_offset 16
 607 0004 00AF     		add	r7, sp, #0
ARM GAS  C:\Users\Luis\AppData\Local\Temp\ccjUYh3h.s 			page 12


 608              		.cfi_def_cfa_register 7
 609 0006 7860     		str	r0, [r7, #4]
 610              		.loc 6 59 0
 611 0008 0C37     		adds	r7, r7, #12
 612 000a BD46     		mov	sp, r7
 613              		@ sp needed
 614 000c 5DF8047B 		ldr	r7, [sp], #4
 615 0010 7047     		bx	lr
 616              		.cfi_endproc
 617              	.LFE229:
 618              		.size	notify, .-notify
 619 0012 00BFAFF3 		.section	.data.iq,"aw",%progbits
 619      0080AFF3 
 619      0080AFF3 
 619      0080
 620              		.align	2
 621              		.type	iq, %object
 622              		.size	iq, 36
 623              	iq:
 624 0000 00000000 		.word	iq
 625 0004 00000000 		.word	iq
 626 0008 00000000 		.word	0
 627 000c 00000000 		.word	test
 628 0010 04000000 		.word	test+4
 629 0014 00000000 		.word	test
 630 0018 00000000 		.word	test
 631 001c 00000000 		.word	notify
 632 0020 00000000 		.word	0
 633              		.section	.data.oq,"aw",%progbits
 634              		.align	2
 635              		.type	oq, %object
 636              		.size	oq, 36
 637              	oq:
 638 0000 00000000 		.word	oq
 639 0004 00000000 		.word	oq
 640 0008 04000000 		.word	4
 641 000c 70010000 		.word	test+368
 642 0010 74010000 		.word	test+372
 643 0014 70010000 		.word	test+368
 644 0018 70010000 		.word	test+368
 645 001c 00000000 		.word	notify
 646 0020 00000000 		.word	0
 647              		.section	.text.queues1_setup,"ax",%progbits
 648              		.align	2
 649              		.p2align 4,,15
 650              		.thumb
 651              		.thumb_func
 652              		.type	queues1_setup, %function
 653              	queues1_setup:
 654              	.LFB230:
 655              		.loc 6 78 0
 656              		.cfi_startproc
 657              		@ args = 0, pretend = 0, frame = 0
 658              		@ frame_needed = 1, uses_anonymous_args = 0
 659 0000 80B5     		push	{r7, lr}
 660              		.cfi_def_cfa_offset 8
 661              		.cfi_offset 7, -8
ARM GAS  C:\Users\Luis\AppData\Local\Temp\ccjUYh3h.s 			page 13


 662              		.cfi_offset 14, -4
 663 0002 82B0     		sub	sp, sp, #8
 664              		.cfi_def_cfa_offset 16
 665 0004 02AF     		add	r7, sp, #8
 666              		.cfi_def_cfa 7, 8
 667              		.loc 6 80 0
 668 0006 064B     		ldr	r3, .L36
 669 0008 1B68     		ldr	r3, [r3]
 670 000a 0022     		movs	r2, #0
 671 000c 0092     		str	r2, [sp]
 672 000e 0548     		ldr	r0, .L36+4
 673 0010 1946     		mov	r1, r3
 674 0012 0422     		movs	r2, #4
 675 0014 044B     		ldr	r3, .L36+8
 676 0016 FFF7FEFF 		bl	chIQObjectInit
 677              		.loc 6 81 0
 678 001a BD46     		mov	sp, r7
 679              		@ sp needed
 680 001c 80BD     		pop	{r7, pc}
 681              	.L37:
 682 001e 00BF     		.align	2
 683              	.L36:
 684 0020 00000000 		.word	wa
 685 0024 00000000 		.word	iq
 686 0028 00000000 		.word	notify
 687              		.cfi_endproc
 688              	.LFE230:
 689              		.size	queues1_setup, .-queues1_setup
 690 002c AFF30080 		.section	.text.thread1,"ax",%progbits
 691              		.align	2
 692              		.p2align 4,,15
 693              		.thumb
 694              		.thumb_func
 695              		.type	thread1, %function
 696              	thread1:
 697              	.LFB231:
 698              		.loc 6 83 0
 699              		.cfi_startproc
 700              		@ args = 0, pretend = 0, frame = 8
 701              		@ frame_needed = 1, uses_anonymous_args = 0
 702 0000 80B5     		push	{r7, lr}
 703              		.cfi_def_cfa_offset 8
 704              		.cfi_offset 7, -8
 705              		.cfi_offset 14, -4
 706 0002 82B0     		sub	sp, sp, #8
 707              		.cfi_def_cfa_offset 16
 708 0004 00AF     		add	r7, sp, #0
 709              		.cfi_def_cfa_register 7
 710 0006 7860     		str	r0, [r7, #4]
 711              		.loc 6 86 0
 712 0008 0348     		ldr	r0, .L39
 713 000a 4FF4FA61 		mov	r1, #2000
 714 000e FFF7FEFF 		bl	chIQGetTimeout
 715              		.loc 6 87 0
 716 0012 0837     		adds	r7, r7, #8
 717 0014 BD46     		mov	sp, r7
 718              		@ sp needed
ARM GAS  C:\Users\Luis\AppData\Local\Temp\ccjUYh3h.s 			page 14


 719 0016 80BD     		pop	{r7, pc}
 720              	.L40:
 721              		.align	2
 722              	.L39:
 723 0018 00000000 		.word	iq
 724              		.cfi_endproc
 725              	.LFE231:
 726              		.size	thread1, .-thread1
 727 001c AFF30080 		.section	.rodata
 728              		.align	2
 729              	.LC0:
 730 0000 41424344 		.ascii	"ABCD\000"
 730      00
 731              		.section	.text.queues1_execute,"ax",%progbits
 732              		.align	2
 733              		.p2align 4,,15
 734              		.thumb
 735              		.thumb_func
 736              		.type	queues1_execute, %function
 737              	queues1_execute:
 738              	.LFB232:
 739              		.loc 6 89 0
 740              		.cfi_startproc
 741              		@ args = 0, pretend = 0, frame = 8
 742              		@ frame_needed = 1, uses_anonymous_args = 0
 743 0000 90B5     		push	{r4, r7, lr}
 744              		.cfi_def_cfa_offset 12
 745              		.cfi_offset 4, -12
 746              		.cfi_offset 7, -8
 747              		.cfi_offset 14, -4
 748 0002 85B0     		sub	sp, sp, #20
 749              		.cfi_def_cfa_offset 32
 750 0004 02AF     		add	r7, sp, #8
 751              		.cfi_def_cfa 7, 24
 752              		.loc 6 94 0
 753 0006 FFF7FEFF 		bl	chSysLock
 754 000a AB48     		ldr	r0, .L63
 755 000c FFF7FEFF 		bl	chIQIsEmptyI
 756 0010 0346     		mov	r3, r0
 757 0012 0120     		movs	r0, #1
 758 0014 1946     		mov	r1, r3
 759 0016 FFF7FEFF 		bl	_test_assert
 760 001a 0346     		mov	r3, r0
 761 001c 002B     		cmp	r3, #0
 762 001e 02D0     		beq	.L42
 763              		.loc 6 94 0 is_stmt 0 discriminator 1
 764 0020 FFF7FEFF 		bl	chSysUnlock
 765 0024 69E1     		b	.L41
 766              	.L42:
 767              		.loc 6 94 0 discriminator 2
 768 0026 FFF7FEFF 		bl	chSysUnlock
 769              		.loc 6 97 0 is_stmt 1 discriminator 2
 770 002a FFF7FEFF 		bl	chSysLock
 771              		.loc 6 98 0 discriminator 2
 772 002e 0023     		movs	r3, #0
 773 0030 7B60     		str	r3, [r7, #4]
 774 0032 0AE0     		b	.L44
ARM GAS  C:\Users\Luis\AppData\Local\Temp\ccjUYh3h.s 			page 15


 775              	.L45:
 776              		.loc 6 99 0 discriminator 2
 777 0034 7B68     		ldr	r3, [r7, #4]
 778 0036 DBB2     		uxtb	r3, r3
 779 0038 4133     		adds	r3, r3, #65
 780 003a DBB2     		uxtb	r3, r3
 781 003c 9E48     		ldr	r0, .L63
 782 003e 1946     		mov	r1, r3
 783 0040 FFF7FEFF 		bl	chIQPutI
 784              		.loc 6 98 0 discriminator 2
 785 0044 7B68     		ldr	r3, [r7, #4]
 786 0046 0133     		adds	r3, r3, #1
 787 0048 7B60     		str	r3, [r7, #4]
 788              	.L44:
 789              		.loc 6 98 0 is_stmt 0 discriminator 1
 790 004a 7B68     		ldr	r3, [r7, #4]
 791 004c 032B     		cmp	r3, #3
 792 004e F1D9     		bls	.L45
 793              		.loc 6 100 0 is_stmt 1
 794 0050 FFF7FEFF 		bl	chSysUnlock
 795              		.loc 6 101 0
 796 0054 FFF7FEFF 		bl	chSysLock
 797 0058 9748     		ldr	r0, .L63
 798 005a FFF7FEFF 		bl	chIQIsFullI
 799 005e 0346     		mov	r3, r0
 800 0060 0220     		movs	r0, #2
 801 0062 1946     		mov	r1, r3
 802 0064 FFF7FEFF 		bl	_test_assert
 803 0068 0346     		mov	r3, r0
 804 006a 002B     		cmp	r3, #0
 805 006c 02D0     		beq	.L46
 806              		.loc 6 101 0 is_stmt 0 discriminator 1
 807 006e FFF7FEFF 		bl	chSysUnlock
 808 0072 42E1     		b	.L41
 809              	.L46:
 810              		.loc 6 101 0 discriminator 2
 811 0074 FFF7FEFF 		bl	chSysUnlock
 812              		.loc 6 102 0 is_stmt 1 discriminator 2
 813 0078 FFF7FEFF 		bl	chSysLock
 814 007c 8E48     		ldr	r0, .L63
 815 007e 0021     		movs	r1, #0
 816 0080 FFF7FEFF 		bl	chIQPutI
 817 0084 0346     		mov	r3, r0
 818 0086 13F1040F 		cmn	r3, #4
 819 008a 14BF     		ite	ne
 820 008c 0023     		movne	r3, #0
 821 008e 0123     		moveq	r3, #1
 822 0090 DBB2     		uxtb	r3, r3
 823 0092 0320     		movs	r0, #3
 824 0094 1946     		mov	r1, r3
 825 0096 FFF7FEFF 		bl	_test_assert
 826 009a 0346     		mov	r3, r0
 827 009c 002B     		cmp	r3, #0
 828 009e 02D0     		beq	.L47
 829              		.loc 6 102 0 is_stmt 0 discriminator 1
 830 00a0 FFF7FEFF 		bl	chSysUnlock
 831 00a4 29E1     		b	.L41
ARM GAS  C:\Users\Luis\AppData\Local\Temp\ccjUYh3h.s 			page 16


 832              	.L47:
 833              		.loc 6 102 0 discriminator 2
 834 00a6 FFF7FEFF 		bl	chSysUnlock
 835              		.loc 6 105 0 is_stmt 1 discriminator 2
 836 00aa 0023     		movs	r3, #0
 837 00ac 7B60     		str	r3, [r7, #4]
 838 00ae 0AE0     		b	.L48
 839              	.L49:
 840              		.loc 6 106 0 discriminator 2
 841 00b0 8148     		ldr	r0, .L63
 842 00b2 FFF7FEFF 		bl	chIQGet
 843 00b6 0346     		mov	r3, r0
 844 00b8 DBB2     		uxtb	r3, r3
 845 00ba 1846     		mov	r0, r3
 846 00bc FFF7FEFF 		bl	test_emit_token
 847              		.loc 6 105 0 discriminator 2
 848 00c0 7B68     		ldr	r3, [r7, #4]
 849 00c2 0133     		adds	r3, r3, #1
 850 00c4 7B60     		str	r3, [r7, #4]
 851              	.L48:
 852              		.loc 6 105 0 is_stmt 0 discriminator 1
 853 00c6 7B68     		ldr	r3, [r7, #4]
 854 00c8 032B     		cmp	r3, #3
 855 00ca F1D9     		bls	.L49
 856              		.loc 6 107 0 is_stmt 1
 857 00cc FFF7FEFF 		bl	chSysLock
 858 00d0 7948     		ldr	r0, .L63
 859 00d2 FFF7FEFF 		bl	chIQIsEmptyI
 860 00d6 0346     		mov	r3, r0
 861 00d8 0420     		movs	r0, #4
 862 00da 1946     		mov	r1, r3
 863 00dc FFF7FEFF 		bl	_test_assert
 864 00e0 0346     		mov	r3, r0
 865 00e2 002B     		cmp	r3, #0
 866 00e4 02D0     		beq	.L50
 867              		.loc 6 107 0 is_stmt 0 discriminator 1
 868 00e6 FFF7FEFF 		bl	chSysUnlock
 869 00ea 06E1     		b	.L41
 870              	.L50:
 871              		.loc 6 107 0 discriminator 2
 872 00ec FFF7FEFF 		bl	chSysUnlock
 873              		.loc 6 108 0 is_stmt 1 discriminator 2
 874 00f0 0520     		movs	r0, #5
 875 00f2 7249     		ldr	r1, .L63+4
 876 00f4 FFF7FEFF 		bl	_test_assert_sequence
 877 00f8 0346     		mov	r3, r0
 878 00fa 002B     		cmp	r3, #0
 879 00fc 00D0     		beq	.L51
 880              		.loc 6 108 0 is_stmt 0 discriminator 1
 881 00fe FCE0     		b	.L41
 882              	.L51:
 883              		.loc 6 111 0 is_stmt 1
 884 0100 FFF7FEFF 		bl	chSysLock
 885              		.loc 6 112 0
 886 0104 0023     		movs	r3, #0
 887 0106 7B60     		str	r3, [r7, #4]
 888 0108 0AE0     		b	.L52
ARM GAS  C:\Users\Luis\AppData\Local\Temp\ccjUYh3h.s 			page 17


 889              	.L53:
 890              		.loc 6 113 0 discriminator 2
 891 010a 7B68     		ldr	r3, [r7, #4]
 892 010c DBB2     		uxtb	r3, r3
 893 010e 4133     		adds	r3, r3, #65
 894 0110 DBB2     		uxtb	r3, r3
 895 0112 6948     		ldr	r0, .L63
 896 0114 1946     		mov	r1, r3
 897 0116 FFF7FEFF 		bl	chIQPutI
 898              		.loc 6 112 0 discriminator 2
 899 011a 7B68     		ldr	r3, [r7, #4]
 900 011c 0133     		adds	r3, r3, #1
 901 011e 7B60     		str	r3, [r7, #4]
 902              	.L52:
 903              		.loc 6 112 0 is_stmt 0 discriminator 1
 904 0120 7B68     		ldr	r3, [r7, #4]
 905 0122 032B     		cmp	r3, #3
 906 0124 F1D9     		bls	.L53
 907              		.loc 6 114 0 is_stmt 1
 908 0126 FFF7FEFF 		bl	chSysUnlock
 909              		.loc 6 117 0
 910 012a 654B     		ldr	r3, .L63+8
 911 012c 5B68     		ldr	r3, [r3, #4]
 912 012e 6248     		ldr	r0, .L63
 913 0130 1946     		mov	r1, r3
 914 0132 0822     		movs	r2, #8
 915 0134 0023     		movs	r3, #0
 916 0136 FFF7FEFF 		bl	chIQReadTimeout
 917 013a 3860     		str	r0, [r7]
 918              		.loc 6 118 0
 919 013c 3B68     		ldr	r3, [r7]
 920 013e 042B     		cmp	r3, #4
 921 0140 14BF     		ite	ne
 922 0142 0023     		movne	r3, #0
 923 0144 0123     		moveq	r3, #1
 924 0146 DBB2     		uxtb	r3, r3
 925 0148 0620     		movs	r0, #6
 926 014a 1946     		mov	r1, r3
 927 014c FFF7FEFF 		bl	_test_assert
 928 0150 0346     		mov	r3, r0
 929 0152 002B     		cmp	r3, #0
 930 0154 00D0     		beq	.L54
 931              		.loc 6 118 0 is_stmt 0 discriminator 1
 932 0156 D0E0     		b	.L41
 933              	.L54:
 934              		.loc 6 119 0 is_stmt 1
 935 0158 FFF7FEFF 		bl	chSysLock
 936 015c 5648     		ldr	r0, .L63
 937 015e FFF7FEFF 		bl	chIQIsEmptyI
 938 0162 0346     		mov	r3, r0
 939 0164 0720     		movs	r0, #7
 940 0166 1946     		mov	r1, r3
 941 0168 FFF7FEFF 		bl	_test_assert
 942 016c 0346     		mov	r3, r0
 943 016e 002B     		cmp	r3, #0
 944 0170 02D0     		beq	.L55
 945              		.loc 6 119 0 is_stmt 0 discriminator 1
ARM GAS  C:\Users\Luis\AppData\Local\Temp\ccjUYh3h.s 			page 18


 946 0172 FFF7FEFF 		bl	chSysUnlock
 947 0176 C0E0     		b	.L41
 948              	.L55:
 949              		.loc 6 119 0 discriminator 2
 950 0178 FFF7FEFF 		bl	chSysUnlock
 951              		.loc 6 122 0 is_stmt 1 discriminator 2
 952 017c FFF7FEFF 		bl	chSysLock
 953              		.loc 6 123 0 discriminator 2
 954 0180 0023     		movs	r3, #0
 955 0182 7B60     		str	r3, [r7, #4]
 956 0184 0AE0     		b	.L56
 957              	.L57:
 958              		.loc 6 124 0 discriminator 2
 959 0186 7B68     		ldr	r3, [r7, #4]
 960 0188 DBB2     		uxtb	r3, r3
 961 018a 4133     		adds	r3, r3, #65
 962 018c DBB2     		uxtb	r3, r3
 963 018e 4A48     		ldr	r0, .L63
 964 0190 1946     		mov	r1, r3
 965 0192 FFF7FEFF 		bl	chIQPutI
 966              		.loc 6 123 0 discriminator 2
 967 0196 7B68     		ldr	r3, [r7, #4]
 968 0198 0133     		adds	r3, r3, #1
 969 019a 7B60     		str	r3, [r7, #4]
 970              	.L56:
 971              		.loc 6 123 0 is_stmt 0 discriminator 1
 972 019c 7B68     		ldr	r3, [r7, #4]
 973 019e 032B     		cmp	r3, #3
 974 01a0 F1D9     		bls	.L57
 975              		.loc 6 125 0 is_stmt 1
 976 01a2 FFF7FEFF 		bl	chSysUnlock
 977              		.loc 6 128 0
 978 01a6 464B     		ldr	r3, .L63+8
 979 01a8 5B68     		ldr	r3, [r3, #4]
 980 01aa 4348     		ldr	r0, .L63
 981 01ac 1946     		mov	r1, r3
 982 01ae 0222     		movs	r2, #2
 983 01b0 0023     		movs	r3, #0
 984 01b2 FFF7FEFF 		bl	chIQReadTimeout
 985 01b6 3860     		str	r0, [r7]
 986              		.loc 6 129 0
 987 01b8 3B68     		ldr	r3, [r7]
 988 01ba 022B     		cmp	r3, #2
 989 01bc 14BF     		ite	ne
 990 01be 0023     		movne	r3, #0
 991 01c0 0123     		moveq	r3, #1
 992 01c2 DBB2     		uxtb	r3, r3
 993 01c4 0820     		movs	r0, #8
 994 01c6 1946     		mov	r1, r3
 995 01c8 FFF7FEFF 		bl	_test_assert
 996 01cc 0346     		mov	r3, r0
 997 01ce 002B     		cmp	r3, #0
 998 01d0 00D0     		beq	.L58
 999              		.loc 6 129 0 is_stmt 0 discriminator 1
 1000 01d2 92E0     		b	.L41
 1001              	.L58:
 1002              		.loc 6 130 0 is_stmt 1
ARM GAS  C:\Users\Luis\AppData\Local\Temp\ccjUYh3h.s 			page 19


 1003 01d4 3A4B     		ldr	r3, .L63+8
 1004 01d6 5B68     		ldr	r3, [r3, #4]
 1005 01d8 3748     		ldr	r0, .L63
 1006 01da 1946     		mov	r1, r3
 1007 01dc 0222     		movs	r2, #2
 1008 01de 0023     		movs	r3, #0
 1009 01e0 FFF7FEFF 		bl	chIQReadTimeout
 1010 01e4 3860     		str	r0, [r7]
 1011              		.loc 6 131 0
 1012 01e6 3B68     		ldr	r3, [r7]
 1013 01e8 022B     		cmp	r3, #2
 1014 01ea 14BF     		ite	ne
 1015 01ec 0023     		movne	r3, #0
 1016 01ee 0123     		moveq	r3, #1
 1017 01f0 DBB2     		uxtb	r3, r3
 1018 01f2 0920     		movs	r0, #9
 1019 01f4 1946     		mov	r1, r3
 1020 01f6 FFF7FEFF 		bl	_test_assert
 1021 01fa 0346     		mov	r3, r0
 1022 01fc 002B     		cmp	r3, #0
 1023 01fe 00D0     		beq	.L59
 1024              		.loc 6 131 0 is_stmt 0 discriminator 1
 1025 0200 7BE0     		b	.L41
 1026              	.L59:
 1027              		.loc 6 132 0 is_stmt 1
 1028 0202 FFF7FEFF 		bl	chSysLock
 1029 0206 2C48     		ldr	r0, .L63
 1030 0208 FFF7FEFF 		bl	chIQIsEmptyI
 1031 020c 0346     		mov	r3, r0
 1032 020e 0A20     		movs	r0, #10
 1033 0210 1946     		mov	r1, r3
 1034 0212 FFF7FEFF 		bl	_test_assert
 1035 0216 0346     		mov	r3, r0
 1036 0218 002B     		cmp	r3, #0
 1037 021a 02D0     		beq	.L60
 1038              		.loc 6 132 0 is_stmt 0 discriminator 1
 1039 021c FFF7FEFF 		bl	chSysUnlock
 1040 0220 6BE0     		b	.L41
 1041              	.L60:
 1042              		.loc 6 132 0 discriminator 2
 1043 0222 FFF7FEFF 		bl	chSysUnlock
 1044              		.loc 6 135 0 is_stmt 1 discriminator 2
 1045 0226 FFF7FEFF 		bl	chSysLock
 1046              		.loc 6 136 0 discriminator 2
 1047 022a 2348     		ldr	r0, .L63
 1048 022c 0021     		movs	r1, #0
 1049 022e FFF7FEFF 		bl	chIQPutI
 1050              		.loc 6 137 0 discriminator 2
 1051 0232 2148     		ldr	r0, .L63
 1052 0234 FFF7FEFF 		bl	chIQResetI
 1053              		.loc 6 138 0 discriminator 2
 1054 0238 FFF7FEFF 		bl	chSysUnlock
 1055              		.loc 6 139 0 discriminator 2
 1056 023c FFF7FEFF 		bl	chSysLock
 1057 0240 1D48     		ldr	r0, .L63
 1058 0242 FFF7FEFF 		bl	chIQGetFullI
 1059 0246 0346     		mov	r3, r0
ARM GAS  C:\Users\Luis\AppData\Local\Temp\ccjUYh3h.s 			page 20


 1060 0248 002B     		cmp	r3, #0
 1061 024a 14BF     		ite	ne
 1062 024c 0023     		movne	r3, #0
 1063 024e 0123     		moveq	r3, #1
 1064 0250 DBB2     		uxtb	r3, r3
 1065 0252 0B20     		movs	r0, #11
 1066 0254 1946     		mov	r1, r3
 1067 0256 FFF7FEFF 		bl	_test_assert
 1068 025a 0346     		mov	r3, r0
 1069 025c 002B     		cmp	r3, #0
 1070 025e 02D0     		beq	.L61
 1071              		.loc 6 139 0 is_stmt 0 discriminator 1
 1072 0260 FFF7FEFF 		bl	chSysUnlock
 1073 0264 49E0     		b	.L41
 1074              	.L61:
 1075              		.loc 6 139 0 discriminator 2
 1076 0266 FFF7FEFF 		bl	chSysUnlock
 1077              		.loc 6 140 0 is_stmt 1 discriminator 2
 1078 026a 154B     		ldr	r3, .L63+8
 1079 026c 1C68     		ldr	r4, [r3]
 1080 026e FFF7FEFF 		bl	chThdGetPriorityX
 1081 0272 0346     		mov	r3, r0
 1082 0274 0133     		adds	r3, r3, #1
 1083 0276 0022     		movs	r2, #0
 1084 0278 0092     		str	r2, [sp]
 1085 027a 2046     		mov	r0, r4
 1086 027c 4FF4B871 		mov	r1, #368
 1087 0280 1A46     		mov	r2, r3
 1088 0282 104B     		ldr	r3, .L63+12
 1089 0284 FFF7FEFF 		bl	chThdCreateStatic
 1090 0288 0246     		mov	r2, r0
 1091 028a 0F4B     		ldr	r3, .L63+16
 1092 028c 1A60     		str	r2, [r3]
 1093              		.loc 6 141 0 discriminator 2
 1094 028e FFF7FEFF 		bl	chSysLock
 1095 0292 0948     		ldr	r0, .L63
 1096 0294 FFF7FEFF 		bl	chIQGetFullI
 1097 0298 0346     		mov	r3, r0
 1098 029a 002B     		cmp	r3, #0
 1099 029c 14BF     		ite	ne
 1100 029e 0023     		movne	r3, #0
 1101 02a0 0123     		moveq	r3, #1
 1102 02a2 DBB2     		uxtb	r3, r3
 1103 02a4 0C20     		movs	r0, #12
 1104 02a6 1946     		mov	r1, r3
 1105 02a8 FFF7FEFF 		bl	_test_assert
 1106 02ac 0346     		mov	r3, r0
 1107 02ae 002B     		cmp	r3, #0
 1108 02b0 0CD0     		beq	.L62
 1109              		.loc 6 141 0 is_stmt 0 discriminator 1
 1110 02b2 FFF7FEFF 		bl	chSysUnlock
 1111 02b6 20E0     		b	.L41
 1112              	.L64:
 1113              		.align	2
 1114              	.L63:
 1115 02b8 00000000 		.word	iq
 1116 02bc 00000000 		.word	.LC0
ARM GAS  C:\Users\Luis\AppData\Local\Temp\ccjUYh3h.s 			page 21


 1117 02c0 00000000 		.word	wa
 1118 02c4 00000000 		.word	thread1
 1119 02c8 00000000 		.word	threads
 1120              	.L62:
 1121              		.loc 6 141 0 discriminator 2
 1122 02cc FFF7FEFF 		bl	chSysUnlock
 1123              		.loc 6 142 0 is_stmt 1 discriminator 2
 1124 02d0 FFF7FEFF 		bl	test_wait_threads
 1125              		.loc 6 145 0 discriminator 2
 1126 02d4 0A48     		ldr	r0, .L65
 1127 02d6 0A21     		movs	r1, #10
 1128 02d8 FFF7FEFF 		bl	chIQGetTimeout
 1129 02dc 0346     		mov	r3, r0
 1130 02de B3F1FF3F 		cmp	r3, #-1
 1131 02e2 14BF     		ite	ne
 1132 02e4 0023     		movne	r3, #0
 1133 02e6 0123     		moveq	r3, #1
 1134 02e8 DBB2     		uxtb	r3, r3
 1135 02ea 0D20     		movs	r0, #13
 1136 02ec 1946     		mov	r1, r3
 1137 02ee FFF7FEFF 		bl	_test_assert
 1138 02f2 0346     		mov	r3, r0
 1139 02f4 002B     		cmp	r3, #0
 1140 02f6 00D0     		beq	.L41
 1141              		.loc 6 145 0 is_stmt 0 discriminator 1
 1142 02f8 00BF     		nop
 1143              	.L41:
 1144              		.loc 6 146 0 is_stmt 1
 1145 02fa 0C37     		adds	r7, r7, #12
 1146 02fc BD46     		mov	sp, r7
 1147              		@ sp needed
 1148 02fe 90BD     		pop	{r4, r7, pc}
 1149              	.L66:
 1150              		.align	2
 1151              	.L65:
 1152 0300 00000000 		.word	iq
 1153              		.cfi_endproc
 1154              	.LFE232:
 1155              		.size	queues1_execute, .-queues1_execute
 1156              		.global	testqueues1
 1157 0304 AFF30080 		.section	.rodata
 1157      AFF30080 
 1157      AFF30080 
 1158 0005 000000   		.align	2
 1159              	.LC1:
 1160 0008 51756575 		.ascii	"Queues, input queues\000"
 1160      65732C20 
 1160      696E7075 
 1160      74207175 
 1160      65756573 
 1161              		.section	.rodata.testqueues1,"a",%progbits
 1162              		.align	2
 1163              		.type	testqueues1, %object
 1164              		.size	testqueues1, 16
 1165              	testqueues1:
 1166 0000 08000000 		.word	.LC1
 1167 0004 00000000 		.word	queues1_setup
ARM GAS  C:\Users\Luis\AppData\Local\Temp\ccjUYh3h.s 			page 22


 1168 0008 00000000 		.word	0
 1169 000c 00000000 		.word	queues1_execute
 1170              		.section	.text.queues2_setup,"ax",%progbits
 1171              		.align	2
 1172              		.p2align 4,,15
 1173              		.thumb
 1174              		.thumb_func
 1175              		.type	queues2_setup, %function
 1176              	queues2_setup:
 1177              	.LFB233:
 1178              		.loc 6 164 0
 1179              		.cfi_startproc
 1180              		@ args = 0, pretend = 0, frame = 0
 1181              		@ frame_needed = 1, uses_anonymous_args = 0
 1182 0000 80B5     		push	{r7, lr}
 1183              		.cfi_def_cfa_offset 8
 1184              		.cfi_offset 7, -8
 1185              		.cfi_offset 14, -4
 1186 0002 82B0     		sub	sp, sp, #8
 1187              		.cfi_def_cfa_offset 16
 1188 0004 02AF     		add	r7, sp, #8
 1189              		.cfi_def_cfa 7, 8
 1190              		.loc 6 166 0
 1191 0006 064B     		ldr	r3, .L68
 1192 0008 1B68     		ldr	r3, [r3]
 1193 000a 0022     		movs	r2, #0
 1194 000c 0092     		str	r2, [sp]
 1195 000e 0548     		ldr	r0, .L68+4
 1196 0010 1946     		mov	r1, r3
 1197 0012 0422     		movs	r2, #4
 1198 0014 044B     		ldr	r3, .L68+8
 1199 0016 FFF7FEFF 		bl	chOQObjectInit
 1200              		.loc 6 167 0
 1201 001a BD46     		mov	sp, r7
 1202              		@ sp needed
 1203 001c 80BD     		pop	{r7, pc}
 1204              	.L69:
 1205 001e 00BF     		.align	2
 1206              	.L68:
 1207 0020 00000000 		.word	wa
 1208 0024 00000000 		.word	oq
 1209 0028 00000000 		.word	notify
 1210              		.cfi_endproc
 1211              	.LFE233:
 1212              		.size	queues2_setup, .-queues2_setup
 1213 002c AFF30080 		.section	.text.thread2,"ax",%progbits
 1214              		.align	2
 1215              		.p2align 4,,15
 1216              		.thumb
 1217              		.thumb_func
 1218              		.type	thread2, %function
 1219              	thread2:
 1220              	.LFB234:
 1221              		.loc 6 169 0
 1222              		.cfi_startproc
 1223              		@ args = 0, pretend = 0, frame = 8
 1224              		@ frame_needed = 1, uses_anonymous_args = 0
ARM GAS  C:\Users\Luis\AppData\Local\Temp\ccjUYh3h.s 			page 23


 1225 0000 80B5     		push	{r7, lr}
 1226              		.cfi_def_cfa_offset 8
 1227              		.cfi_offset 7, -8
 1228              		.cfi_offset 14, -4
 1229 0002 82B0     		sub	sp, sp, #8
 1230              		.cfi_def_cfa_offset 16
 1231 0004 00AF     		add	r7, sp, #0
 1232              		.cfi_def_cfa_register 7
 1233 0006 7860     		str	r0, [r7, #4]
 1234              		.loc 6 172 0
 1235 0008 0448     		ldr	r0, .L71
 1236 000a 0021     		movs	r1, #0
 1237 000c 4FF4FA62 		mov	r2, #2000
 1238 0010 FFF7FEFF 		bl	chOQPutTimeout
 1239              		.loc 6 173 0
 1240 0014 0837     		adds	r7, r7, #8
 1241 0016 BD46     		mov	sp, r7
 1242              		@ sp needed
 1243 0018 80BD     		pop	{r7, pc}
 1244              	.L72:
 1245 001a 00BF     		.align	2
 1246              	.L71:
 1247 001c 00000000 		.word	oq
 1248              		.cfi_endproc
 1249              	.LFE234:
 1250              		.size	thread2, .-thread2
 1251              		.section	.text.queues2_execute,"ax",%progbits
 1252              		.align	2
 1253              		.p2align 4,,15
 1254              		.thumb
 1255              		.thumb_func
 1256              		.type	queues2_execute, %function
 1257              	queues2_execute:
 1258              	.LFB235:
 1259              		.loc 6 175 0
 1260              		.cfi_startproc
 1261              		@ args = 0, pretend = 0, frame = 16
 1262              		@ frame_needed = 1, uses_anonymous_args = 0
 1263 0000 90B5     		push	{r4, r7, lr}
 1264              		.cfi_def_cfa_offset 12
 1265              		.cfi_offset 4, -12
 1266              		.cfi_offset 7, -8
 1267              		.cfi_offset 14, -4
 1268 0002 87B0     		sub	sp, sp, #28
 1269              		.cfi_def_cfa_offset 40
 1270 0004 02AF     		add	r7, sp, #8
 1271              		.cfi_def_cfa 7, 32
 1272              		.loc 6 180 0
 1273 0006 FFF7FEFF 		bl	chSysLock
 1274 000a A248     		ldr	r0, .L91
 1275 000c FFF7FEFF 		bl	chOQIsEmptyI
 1276 0010 0346     		mov	r3, r0
 1277 0012 0120     		movs	r0, #1
 1278 0014 1946     		mov	r1, r3
 1279 0016 FFF7FEFF 		bl	_test_assert
 1280 001a 0346     		mov	r3, r0
 1281 001c 002B     		cmp	r3, #0
ARM GAS  C:\Users\Luis\AppData\Local\Temp\ccjUYh3h.s 			page 24


 1282 001e 02D0     		beq	.L74
 1283              		.loc 6 180 0 is_stmt 0 discriminator 1
 1284 0020 FFF7FEFF 		bl	chSysUnlock
 1285 0024 32E1     		b	.L73
 1286              	.L74:
 1287              		.loc 6 180 0 discriminator 2
 1288 0026 FFF7FEFF 		bl	chSysUnlock
 1289              		.loc 6 183 0 is_stmt 1 discriminator 2
 1290 002a 0023     		movs	r3, #0
 1291 002c FB60     		str	r3, [r7, #12]
 1292 002e 0AE0     		b	.L76
 1293              	.L77:
 1294              		.loc 6 184 0 discriminator 2
 1295 0030 FB68     		ldr	r3, [r7, #12]
 1296 0032 DBB2     		uxtb	r3, r3
 1297 0034 4133     		adds	r3, r3, #65
 1298 0036 DBB2     		uxtb	r3, r3
 1299 0038 9648     		ldr	r0, .L91
 1300 003a 1946     		mov	r1, r3
 1301 003c FFF7FEFF 		bl	chOQPut
 1302              		.loc 6 183 0 discriminator 2
 1303 0040 FB68     		ldr	r3, [r7, #12]
 1304 0042 0133     		adds	r3, r3, #1
 1305 0044 FB60     		str	r3, [r7, #12]
 1306              	.L76:
 1307              		.loc 6 183 0 is_stmt 0 discriminator 1
 1308 0046 FB68     		ldr	r3, [r7, #12]
 1309 0048 032B     		cmp	r3, #3
 1310 004a F1D9     		bls	.L77
 1311              		.loc 6 185 0 is_stmt 1
 1312 004c FFF7FEFF 		bl	chSysLock
 1313 0050 9048     		ldr	r0, .L91
 1314 0052 FFF7FEFF 		bl	chOQIsFullI
 1315 0056 0346     		mov	r3, r0
 1316 0058 0220     		movs	r0, #2
 1317 005a 1946     		mov	r1, r3
 1318 005c FFF7FEFF 		bl	_test_assert
 1319 0060 0346     		mov	r3, r0
 1320 0062 002B     		cmp	r3, #0
 1321 0064 02D0     		beq	.L78
 1322              		.loc 6 185 0 is_stmt 0 discriminator 1
 1323 0066 FFF7FEFF 		bl	chSysUnlock
 1324 006a 0FE1     		b	.L73
 1325              	.L78:
 1326              		.loc 6 185 0 discriminator 2
 1327 006c FFF7FEFF 		bl	chSysUnlock
 1328              		.loc 6 188 0 is_stmt 1 discriminator 2
 1329 0070 0023     		movs	r3, #0
 1330 0072 FB60     		str	r3, [r7, #12]
 1331 0074 0FE0     		b	.L79
 1332              	.L80:
 1333              	.LBB10:
 1334              		.loc 6 191 0 discriminator 2
 1335 0076 FFF7FEFF 		bl	chSysLock
 1336              		.loc 6 192 0 discriminator 2
 1337 007a 8648     		ldr	r0, .L91
 1338 007c FFF7FEFF 		bl	chOQGetI
ARM GAS  C:\Users\Luis\AppData\Local\Temp\ccjUYh3h.s 			page 25


 1339 0080 0346     		mov	r3, r0
 1340 0082 FB72     		strb	r3, [r7, #11]
 1341              		.loc 6 193 0 discriminator 2
 1342 0084 FFF7FEFF 		bl	chSysUnlock
 1343              		.loc 6 194 0 discriminator 2
 1344 0088 FB7A     		ldrb	r3, [r7, #11]	@ zero_extendqisi2
 1345 008a 1846     		mov	r0, r3
 1346 008c FFF7FEFF 		bl	test_emit_token
 1347              	.LBE10:
 1348              		.loc 6 188 0 discriminator 2
 1349 0090 FB68     		ldr	r3, [r7, #12]
 1350 0092 0133     		adds	r3, r3, #1
 1351 0094 FB60     		str	r3, [r7, #12]
 1352              	.L79:
 1353              		.loc 6 188 0 is_stmt 0 discriminator 1
 1354 0096 FB68     		ldr	r3, [r7, #12]
 1355 0098 032B     		cmp	r3, #3
 1356 009a ECD9     		bls	.L80
 1357              		.loc 6 196 0 is_stmt 1
 1358 009c FFF7FEFF 		bl	chSysLock
 1359 00a0 7C48     		ldr	r0, .L91
 1360 00a2 FFF7FEFF 		bl	chOQIsEmptyI
 1361 00a6 0346     		mov	r3, r0
 1362 00a8 0320     		movs	r0, #3
 1363 00aa 1946     		mov	r1, r3
 1364 00ac FFF7FEFF 		bl	_test_assert
 1365 00b0 0346     		mov	r3, r0
 1366 00b2 002B     		cmp	r3, #0
 1367 00b4 02D0     		beq	.L81
 1368              		.loc 6 196 0 is_stmt 0 discriminator 1
 1369 00b6 FFF7FEFF 		bl	chSysUnlock
 1370 00ba E7E0     		b	.L73
 1371              	.L81:
 1372              		.loc 6 196 0 discriminator 2
 1373 00bc FFF7FEFF 		bl	chSysUnlock
 1374              		.loc 6 197 0 is_stmt 1 discriminator 2
 1375 00c0 0420     		movs	r0, #4
 1376 00c2 7549     		ldr	r1, .L91+4
 1377 00c4 FFF7FEFF 		bl	_test_assert_sequence
 1378 00c8 0346     		mov	r3, r0
 1379 00ca 002B     		cmp	r3, #0
 1380 00cc 00D0     		beq	.L82
 1381              		.loc 6 197 0 is_stmt 0 discriminator 1
 1382 00ce DDE0     		b	.L73
 1383              	.L82:
 1384              		.loc 6 198 0 is_stmt 1
 1385 00d0 FFF7FEFF 		bl	chSysLock
 1386 00d4 6F48     		ldr	r0, .L91
 1387 00d6 FFF7FEFF 		bl	chOQGetI
 1388 00da 0346     		mov	r3, r0
 1389 00dc 13F1030F 		cmn	r3, #3
 1390 00e0 14BF     		ite	ne
 1391 00e2 0023     		movne	r3, #0
 1392 00e4 0123     		moveq	r3, #1
 1393 00e6 DBB2     		uxtb	r3, r3
 1394 00e8 0520     		movs	r0, #5
 1395 00ea 1946     		mov	r1, r3
ARM GAS  C:\Users\Luis\AppData\Local\Temp\ccjUYh3h.s 			page 26


 1396 00ec FFF7FEFF 		bl	_test_assert
 1397 00f0 0346     		mov	r3, r0
 1398 00f2 002B     		cmp	r3, #0
 1399 00f4 02D0     		beq	.L83
 1400              		.loc 6 198 0 is_stmt 0 discriminator 1
 1401 00f6 FFF7FEFF 		bl	chSysUnlock
 1402 00fa C7E0     		b	.L73
 1403              	.L83:
 1404              		.loc 6 198 0 discriminator 2
 1405 00fc FFF7FEFF 		bl	chSysUnlock
 1406              		.loc 6 201 0 is_stmt 1 discriminator 2
 1407 0100 664B     		ldr	r3, .L91+8
 1408 0102 5B68     		ldr	r3, [r3, #4]
 1409 0104 6348     		ldr	r0, .L91
 1410 0106 1946     		mov	r1, r3
 1411 0108 0822     		movs	r2, #8
 1412 010a 0023     		movs	r3, #0
 1413 010c FFF7FEFF 		bl	chOQWriteTimeout
 1414 0110 7860     		str	r0, [r7, #4]
 1415              		.loc 6 202 0 discriminator 2
 1416 0112 7B68     		ldr	r3, [r7, #4]
 1417 0114 042B     		cmp	r3, #4
 1418 0116 14BF     		ite	ne
 1419 0118 0023     		movne	r3, #0
 1420 011a 0123     		moveq	r3, #1
 1421 011c DBB2     		uxtb	r3, r3
 1422 011e 0620     		movs	r0, #6
 1423 0120 1946     		mov	r1, r3
 1424 0122 FFF7FEFF 		bl	_test_assert
 1425 0126 0346     		mov	r3, r0
 1426 0128 002B     		cmp	r3, #0
 1427 012a 00D0     		beq	.L84
 1428              		.loc 6 202 0 is_stmt 0 discriminator 1
 1429 012c AEE0     		b	.L73
 1430              	.L84:
 1431              		.loc 6 203 0 is_stmt 1
 1432 012e FFF7FEFF 		bl	chSysLock
 1433 0132 5848     		ldr	r0, .L91
 1434 0134 FFF7FEFF 		bl	chOQIsFullI
 1435 0138 0346     		mov	r3, r0
 1436 013a 0720     		movs	r0, #7
 1437 013c 1946     		mov	r1, r3
 1438 013e FFF7FEFF 		bl	_test_assert
 1439 0142 0346     		mov	r3, r0
 1440 0144 002B     		cmp	r3, #0
 1441 0146 02D0     		beq	.L85
 1442              		.loc 6 203 0 is_stmt 0 discriminator 1
 1443 0148 FFF7FEFF 		bl	chSysUnlock
 1444 014c 9EE0     		b	.L73
 1445              	.L85:
 1446              		.loc 6 203 0 discriminator 2
 1447 014e FFF7FEFF 		bl	chSysUnlock
 1448              		.loc 6 204 0 is_stmt 1 discriminator 2
 1449 0152 524B     		ldr	r3, .L91+8
 1450 0154 1C68     		ldr	r4, [r3]
 1451 0156 FFF7FEFF 		bl	chThdGetPriorityX
 1452 015a 0346     		mov	r3, r0
ARM GAS  C:\Users\Luis\AppData\Local\Temp\ccjUYh3h.s 			page 27


 1453 015c 0133     		adds	r3, r3, #1
 1454 015e 0022     		movs	r2, #0
 1455 0160 0092     		str	r2, [sp]
 1456 0162 2046     		mov	r0, r4
 1457 0164 4FF4B871 		mov	r1, #368
 1458 0168 1A46     		mov	r2, r3
 1459 016a 4D4B     		ldr	r3, .L91+12
 1460 016c FFF7FEFF 		bl	chThdCreateStatic
 1461 0170 0246     		mov	r2, r0
 1462 0172 4C4B     		ldr	r3, .L91+16
 1463 0174 1A60     		str	r2, [r3]
 1464              		.loc 6 205 0 discriminator 2
 1465 0176 FFF7FEFF 		bl	chSysLock
 1466 017a 4648     		ldr	r0, .L91
 1467 017c FFF7FEFF 		bl	chOQGetFullI
 1468 0180 0346     		mov	r3, r0
 1469 0182 042B     		cmp	r3, #4
 1470 0184 14BF     		ite	ne
 1471 0186 0023     		movne	r3, #0
 1472 0188 0123     		moveq	r3, #1
 1473 018a DBB2     		uxtb	r3, r3
 1474 018c 0820     		movs	r0, #8
 1475 018e 1946     		mov	r1, r3
 1476 0190 FFF7FEFF 		bl	_test_assert
 1477 0194 0346     		mov	r3, r0
 1478 0196 002B     		cmp	r3, #0
 1479 0198 02D0     		beq	.L86
 1480              		.loc 6 205 0 is_stmt 0 discriminator 1
 1481 019a FFF7FEFF 		bl	chSysUnlock
 1482 019e 75E0     		b	.L73
 1483              	.L86:
 1484              		.loc 6 205 0 discriminator 2
 1485 01a0 FFF7FEFF 		bl	chSysUnlock
 1486              		.loc 6 206 0 is_stmt 1 discriminator 2
 1487 01a4 FFF7FEFF 		bl	test_wait_threads
 1488              		.loc 6 209 0 discriminator 2
 1489 01a8 FFF7FEFF 		bl	chSysLock
 1490              		.loc 6 210 0 discriminator 2
 1491 01ac 3948     		ldr	r0, .L91
 1492 01ae FFF7FEFF 		bl	chOQResetI
 1493              		.loc 6 211 0 discriminator 2
 1494 01b2 FFF7FEFF 		bl	chSysUnlock
 1495              		.loc 6 212 0 discriminator 2
 1496 01b6 FFF7FEFF 		bl	chSysLock
 1497 01ba 3648     		ldr	r0, .L91
 1498 01bc FFF7FEFF 		bl	chOQGetFullI
 1499 01c0 0346     		mov	r3, r0
 1500 01c2 002B     		cmp	r3, #0
 1501 01c4 14BF     		ite	ne
 1502 01c6 0023     		movne	r3, #0
 1503 01c8 0123     		moveq	r3, #1
 1504 01ca DBB2     		uxtb	r3, r3
 1505 01cc 0920     		movs	r0, #9
 1506 01ce 1946     		mov	r1, r3
 1507 01d0 FFF7FEFF 		bl	_test_assert
 1508 01d4 0346     		mov	r3, r0
 1509 01d6 002B     		cmp	r3, #0
ARM GAS  C:\Users\Luis\AppData\Local\Temp\ccjUYh3h.s 			page 28


 1510 01d8 02D0     		beq	.L87
 1511              		.loc 6 212 0 is_stmt 0 discriminator 1
 1512 01da FFF7FEFF 		bl	chSysUnlock
 1513 01de 55E0     		b	.L73
 1514              	.L87:
 1515              		.loc 6 212 0 discriminator 2
 1516 01e0 FFF7FEFF 		bl	chSysUnlock
 1517              		.loc 6 215 0 is_stmt 1 discriminator 2
 1518 01e4 2D4B     		ldr	r3, .L91+8
 1519 01e6 5B68     		ldr	r3, [r3, #4]
 1520 01e8 2A48     		ldr	r0, .L91
 1521 01ea 1946     		mov	r1, r3
 1522 01ec 0222     		movs	r2, #2
 1523 01ee 0023     		movs	r3, #0
 1524 01f0 FFF7FEFF 		bl	chOQWriteTimeout
 1525 01f4 7860     		str	r0, [r7, #4]
 1526              		.loc 6 216 0 discriminator 2
 1527 01f6 7B68     		ldr	r3, [r7, #4]
 1528 01f8 022B     		cmp	r3, #2
 1529 01fa 14BF     		ite	ne
 1530 01fc 0023     		movne	r3, #0
 1531 01fe 0123     		moveq	r3, #1
 1532 0200 DBB2     		uxtb	r3, r3
 1533 0202 0A20     		movs	r0, #10
 1534 0204 1946     		mov	r1, r3
 1535 0206 FFF7FEFF 		bl	_test_assert
 1536 020a 0346     		mov	r3, r0
 1537 020c 002B     		cmp	r3, #0
 1538 020e 00D0     		beq	.L88
 1539              		.loc 6 216 0 is_stmt 0 discriminator 1
 1540 0210 3CE0     		b	.L73
 1541              	.L88:
 1542              		.loc 6 217 0 is_stmt 1
 1543 0212 224B     		ldr	r3, .L91+8
 1544 0214 5B68     		ldr	r3, [r3, #4]
 1545 0216 1F48     		ldr	r0, .L91
 1546 0218 1946     		mov	r1, r3
 1547 021a 0222     		movs	r2, #2
 1548 021c 0023     		movs	r3, #0
 1549 021e FFF7FEFF 		bl	chOQWriteTimeout
 1550 0222 7860     		str	r0, [r7, #4]
 1551              		.loc 6 218 0
 1552 0224 7B68     		ldr	r3, [r7, #4]
 1553 0226 022B     		cmp	r3, #2
 1554 0228 14BF     		ite	ne
 1555 022a 0023     		movne	r3, #0
 1556 022c 0123     		moveq	r3, #1
 1557 022e DBB2     		uxtb	r3, r3
 1558 0230 0B20     		movs	r0, #11
 1559 0232 1946     		mov	r1, r3
 1560 0234 FFF7FEFF 		bl	_test_assert
 1561 0238 0346     		mov	r3, r0
 1562 023a 002B     		cmp	r3, #0
 1563 023c 00D0     		beq	.L89
 1564              		.loc 6 218 0 is_stmt 0 discriminator 1
 1565 023e 25E0     		b	.L73
 1566              	.L89:
ARM GAS  C:\Users\Luis\AppData\Local\Temp\ccjUYh3h.s 			page 29


 1567              		.loc 6 219 0 is_stmt 1
 1568 0240 FFF7FEFF 		bl	chSysLock
 1569 0244 1348     		ldr	r0, .L91
 1570 0246 FFF7FEFF 		bl	chOQIsFullI
 1571 024a 0346     		mov	r3, r0
 1572 024c 0C20     		movs	r0, #12
 1573 024e 1946     		mov	r1, r3
 1574 0250 FFF7FEFF 		bl	_test_assert
 1575 0254 0346     		mov	r3, r0
 1576 0256 002B     		cmp	r3, #0
 1577 0258 02D0     		beq	.L90
 1578              		.loc 6 219 0 is_stmt 0 discriminator 1
 1579 025a FFF7FEFF 		bl	chSysUnlock
 1580 025e 15E0     		b	.L73
 1581              	.L90:
 1582              		.loc 6 219 0 discriminator 2
 1583 0260 FFF7FEFF 		bl	chSysUnlock
 1584              		.loc 6 222 0 is_stmt 1 discriminator 2
 1585 0264 0B48     		ldr	r0, .L91
 1586 0266 0021     		movs	r1, #0
 1587 0268 0A22     		movs	r2, #10
 1588 026a FFF7FEFF 		bl	chOQPutTimeout
 1589 026e 0346     		mov	r3, r0
 1590 0270 B3F1FF3F 		cmp	r3, #-1
 1591 0274 14BF     		ite	ne
 1592 0276 0023     		movne	r3, #0
 1593 0278 0123     		moveq	r3, #1
 1594 027a DBB2     		uxtb	r3, r3
 1595 027c 0D20     		movs	r0, #13
 1596 027e 1946     		mov	r1, r3
 1597 0280 FFF7FEFF 		bl	_test_assert
 1598 0284 0346     		mov	r3, r0
 1599 0286 002B     		cmp	r3, #0
 1600 0288 00D0     		beq	.L73
 1601              		.loc 6 222 0 is_stmt 0 discriminator 1
 1602 028a 00BF     		nop
 1603              	.L73:
 1604              		.loc 6 223 0 is_stmt 1
 1605 028c 1437     		adds	r7, r7, #20
 1606 028e BD46     		mov	sp, r7
 1607              		@ sp needed
 1608 0290 90BD     		pop	{r4, r7, pc}
 1609              	.L92:
 1610 0292 00BF     		.align	2
 1611              	.L91:
 1612 0294 00000000 		.word	oq
 1613 0298 00000000 		.word	.LC0
 1614 029c 00000000 		.word	wa
 1615 02a0 00000000 		.word	thread2
 1616 02a4 00000000 		.word	threads
 1617              		.cfi_endproc
 1618              	.LFE235:
 1619              		.size	queues2_execute, .-queues2_execute
 1620              		.global	testqueues2
 1621 02a8 AFF30080 		.section	.rodata
 1621      AFF30080 
 1622 001d 000000   		.align	2
ARM GAS  C:\Users\Luis\AppData\Local\Temp\ccjUYh3h.s 			page 30


 1623              	.LC2:
 1624 0020 51756575 		.ascii	"Queues, output queues\000"
 1624      65732C20 
 1624      6F757470 
 1624      75742071 
 1624      75657565 
 1625 0036 0000     		.section	.rodata.testqueues2,"a",%progbits
 1626              		.align	2
 1627              		.type	testqueues2, %object
 1628              		.size	testqueues2, 16
 1629              	testqueues2:
 1630 0000 20000000 		.word	.LC2
 1631 0004 00000000 		.word	queues2_setup
 1632 0008 00000000 		.word	0
 1633 000c 00000000 		.word	queues2_execute
 1634              		.global	patternqueues
 1635              		.section	.rodata.patternqueues,"a",%progbits
 1636              		.align	2
 1637              		.type	patternqueues, %object
 1638              		.size	patternqueues, 12
 1639              	patternqueues:
 1640 0000 00000000 		.word	testqueues1
 1641 0004 00000000 		.word	testqueues2
 1642 0008 00000000 		.word	0
 1643              		.section	.rodata.__func__.5842,"a",%progbits
 1644              		.align	2
 1645              		.type	__func__.5842, %object
 1646              		.size	__func__.5842, 12
 1647              	__func__.5842:
 1648 0000 63685379 		.ascii	"chSysUnlock\000"
 1648      73556E6C 
 1648      6F636B00 
 1649              		.text
 1650              	.Letext0:
 1651              		.file 7 "c:\\emtechesdk\\gcc\\lib\\gcc\\arm-none-eabi\\4.8.3\\include\\stddef.h"
 1652              		.file 8 "c:\\emtechesdk\\gcc\\arm-none-eabi\\include\\stdint.h"
 1653              		.file 9 "../../ChibiOS/os/rt/ports/ARMCMx/compilers/GCC/chtypes.h"
 1654              		.file 10 "../../ChibiOS/os/rt/include/chsystypes.h"
 1655              		.file 11 "../../ChibiOS/os/rt/include/chschd.h"
 1656              		.file 12 "../../ChibiOS/os/rt/ports/ARMCMx/chcore.h"
 1657              		.file 13 "../../ChibiOS/os/rt/include/chdebug.h"
 1658              		.file 14 "../../ChibiOS/os/rt/include/chtm.h"
 1659              		.file 15 "../../ChibiOS/os/rt/include/chstats.h"
 1660              		.file 16 "../../ChibiOS/os/rt/include/chsem.h"
 1661              		.file 17 "../../ChibiOS/os/rt/include/chmtx.h"
 1662              		.file 18 "../../ChibiOS/test/rt/test.h"
 1663              		.file 19 "../../ChibiOS/os/ext/CMSIS/include/core_cm4.h"