ARM GAS  C:\Users\Luis\AppData\Local\Temp\cc7Z94dP.s 			page 1


   1              		.syntax unified
   2              		.cpu cortex-m4
   3              		.fpu softvfp
   4              		.eabi_attribute 20, 1
   5              		.eabi_attribute 21, 1
   6              		.eabi_attribute 23, 3
   7              		.eabi_attribute 24, 1
   8              		.eabi_attribute 25, 1
   9              		.eabi_attribute 26, 1
  10              		.eabi_attribute 30, 6
  11              		.eabi_attribute 34, 1
  12              		.eabi_attribute 18, 4
  13              		.thumb
  14              		.file	"testsys.c"
  15              		.text
  16              	.Ltext0:
  17              		.cfi_sections	.debug_frame
  18              		.section	.text.port_get_irq_status,"ax",%progbits
  19              		.align	2
  20              		.p2align 4,,15
  21              		.thumb
  22              		.thumb_func
  23              		.type	port_get_irq_status, %function
  24              	port_get_irq_status:
  25              	.LFB113:
  26              		.file 1 "../../ChibiOS/os/rt/ports/ARMCMx/chcore_v7m.h"
  27              		.loc 1 398 0
  28              		.cfi_startproc
  29              		@ args = 0, pretend = 0, frame = 8
  30              		@ frame_needed = 1, uses_anonymous_args = 0
  31              		@ link register save eliminated.
  32 0000 80B4     		push	{r7}
  33              		.cfi_def_cfa_offset 4
  34              		.cfi_offset 7, -4
  35 0002 83B0     		sub	sp, sp, #12
  36              		.cfi_def_cfa_offset 16
  37 0004 00AF     		add	r7, sp, #0
  38              		.cfi_def_cfa_register 7
  39              	.LBB18:
  40              	.LBB19:
  41              		.file 2 "../../ChibiOS/os/ext/CMSIS/include/core_cmFunc.h"
  42              		.loc 2 533 0
  43              	@ 533 "../../ChibiOS/os/ext/CMSIS/include/core_cmFunc.h" 1
  44 0006 EFF31283 		MRS r3, basepri_max
  45              	@ 0 "" 2
  46              		.thumb
  47 000a 3B60     		str	r3, [r7]
  48              		.loc 2 534 0
  49 000c 3B68     		ldr	r3, [r7]
  50              	.LBE19:
  51              	.LBE18:
  52              		.loc 1 402 0
  53 000e 7B60     		str	r3, [r7, #4]
  54              		.loc 1 406 0
  55 0010 7B68     		ldr	r3, [r7, #4]
  56              		.loc 1 407 0
  57 0012 1846     		mov	r0, r3
ARM GAS  C:\Users\Luis\AppData\Local\Temp\cc7Z94dP.s 			page 2


  58 0014 0C37     		adds	r7, r7, #12
  59 0016 BD46     		mov	sp, r7
  60              		@ sp needed
  61 0018 5DF8047B 		ldr	r7, [sp], #4
  62 001c 7047     		bx	lr
  63              		.cfi_endproc
  64              	.LFE113:
  65              		.size	port_get_irq_status, .-port_get_irq_status
  66 001e 00BF     		.section	.text.port_irq_enabled,"ax",%progbits
  67              		.align	2
  68              		.p2align 4,,15
  69              		.thumb
  70              		.thumb_func
  71              		.type	port_irq_enabled, %function
  72              	port_irq_enabled:
  73              	.LFB114:
  74              		.loc 1 418 0
  75              		.cfi_startproc
  76              		@ args = 0, pretend = 0, frame = 8
  77              		@ frame_needed = 1, uses_anonymous_args = 0
  78              		@ link register save eliminated.
  79 0000 80B4     		push	{r7}
  80              		.cfi_def_cfa_offset 4
  81              		.cfi_offset 7, -4
  82 0002 83B0     		sub	sp, sp, #12
  83              		.cfi_def_cfa_offset 16
  84 0004 00AF     		add	r7, sp, #0
  85              		.cfi_def_cfa_register 7
  86 0006 7860     		str	r0, [r7, #4]
  87              		.loc 1 421 0
  88 0008 7B68     		ldr	r3, [r7, #4]
  89 000a 002B     		cmp	r3, #0
  90 000c 14BF     		ite	ne
  91 000e 0023     		movne	r3, #0
  92 0010 0123     		moveq	r3, #1
  93 0012 DBB2     		uxtb	r3, r3
  94              		.loc 1 425 0
  95 0014 1846     		mov	r0, r3
  96 0016 0C37     		adds	r7, r7, #12
  97 0018 BD46     		mov	sp, r7
  98              		@ sp needed
  99 001a 5DF8047B 		ldr	r7, [sp], #4
 100 001e 7047     		bx	lr
 101              		.cfi_endproc
 102              	.LFE114:
 103              		.size	port_irq_enabled, .-port_irq_enabled
 104              		.section	.text.port_lock,"ax",%progbits
 105              		.align	2
 106              		.p2align 4,,15
 107              		.thumb
 108              		.thumb_func
 109              		.type	port_lock, %function
 110              	port_lock:
 111              	.LFB116:
 112              		.loc 1 444 0
 113              		.cfi_startproc
 114              		@ args = 0, pretend = 0, frame = 8
ARM GAS  C:\Users\Luis\AppData\Local\Temp\cc7Z94dP.s 			page 3


 115              		@ frame_needed = 1, uses_anonymous_args = 0
 116              		@ link register save eliminated.
 117 0000 80B4     		push	{r7}
 118              		.cfi_def_cfa_offset 4
 119              		.cfi_offset 7, -4
 120 0002 83B0     		sub	sp, sp, #12
 121              		.cfi_def_cfa_offset 16
 122 0004 00AF     		add	r7, sp, #0
 123              		.cfi_def_cfa_register 7
 124 0006 2023     		movs	r3, #32
 125 0008 7B60     		str	r3, [r7, #4]
 126              	.LBB20:
 127              	.LBB21:
 128              		.loc 2 546 0
 129 000a 7B68     		ldr	r3, [r7, #4]
 130              	@ 546 "../../ChibiOS/os/ext/CMSIS/include/core_cmFunc.h" 1
 131 000c 83F31188 		MSR basepri, r3
 132              	@ 0 "" 2
 133              		.thumb
 134              	.LBE21:
 135              	.LBE20:
 136              		.loc 1 451 0
 137 0010 0C37     		adds	r7, r7, #12
 138 0012 BD46     		mov	sp, r7
 139              		@ sp needed
 140 0014 5DF8047B 		ldr	r7, [sp], #4
 141 0018 7047     		bx	lr
 142              		.cfi_endproc
 143              	.LFE116:
 144              		.size	port_lock, .-port_lock
 145 001a 00BFAFF3 		.section	.text.port_unlock,"ax",%progbits
 145      0080
 146              		.align	2
 147              		.p2align 4,,15
 148              		.thumb
 149              		.thumb_func
 150              		.type	port_unlock, %function
 151              	port_unlock:
 152              	.LFB117:
 153              		.loc 1 458 0
 154              		.cfi_startproc
 155              		@ args = 0, pretend = 0, frame = 8
 156              		@ frame_needed = 1, uses_anonymous_args = 0
 157              		@ link register save eliminated.
 158 0000 80B4     		push	{r7}
 159              		.cfi_def_cfa_offset 4
 160              		.cfi_offset 7, -4
 161 0002 83B0     		sub	sp, sp, #12
 162              		.cfi_def_cfa_offset 16
 163 0004 00AF     		add	r7, sp, #0
 164              		.cfi_def_cfa_register 7
 165 0006 0023     		movs	r3, #0
 166 0008 7B60     		str	r3, [r7, #4]
 167              	.LBB22:
 168              	.LBB23:
 169              		.loc 2 546 0
 170 000a 7B68     		ldr	r3, [r7, #4]
ARM GAS  C:\Users\Luis\AppData\Local\Temp\cc7Z94dP.s 			page 4


 171              	@ 546 "../../ChibiOS/os/ext/CMSIS/include/core_cmFunc.h" 1
 172 000c 83F31188 		MSR basepri, r3
 173              	@ 0 "" 2
 174              		.thumb
 175              	.LBE23:
 176              	.LBE22:
 177              		.loc 1 465 0
 178 0010 0C37     		adds	r7, r7, #12
 179 0012 BD46     		mov	sp, r7
 180              		@ sp needed
 181 0014 5DF8047B 		ldr	r7, [sp], #4
 182 0018 7047     		bx	lr
 183              		.cfi_endproc
 184              	.LFE117:
 185              		.size	port_unlock, .-port_unlock
 186 001a 00BFAFF3 		.section	.text.port_lock_from_isr,"ax",%progbits
 186      0080
 187              		.align	2
 188              		.p2align 4,,15
 189              		.thumb
 190              		.thumb_func
 191              		.type	port_lock_from_isr, %function
 192              	port_lock_from_isr:
 193              	.LFB118:
 194              		.loc 1 473 0
 195              		.cfi_startproc
 196              		@ args = 0, pretend = 0, frame = 0
 197              		@ frame_needed = 1, uses_anonymous_args = 0
 198 0000 80B5     		push	{r7, lr}
 199              		.cfi_def_cfa_offset 8
 200              		.cfi_offset 7, -8
 201              		.cfi_offset 14, -4
 202 0002 00AF     		add	r7, sp, #0
 203              		.cfi_def_cfa_register 7
 204              		.loc 1 475 0
 205 0004 FFF7FEFF 		bl	port_lock
 206              		.loc 1 476 0
 207 0008 80BD     		pop	{r7, pc}
 208              		.cfi_endproc
 209              	.LFE118:
 210              		.size	port_lock_from_isr, .-port_lock_from_isr
 211 000a 00BFAFF3 		.section	.text.port_unlock_from_isr,"ax",%progbits
 211      0080
 212              		.align	2
 213              		.p2align 4,,15
 214              		.thumb
 215              		.thumb_func
 216              		.type	port_unlock_from_isr, %function
 217              	port_unlock_from_isr:
 218              	.LFB119:
 219              		.loc 1 484 0
 220              		.cfi_startproc
 221              		@ args = 0, pretend = 0, frame = 0
 222              		@ frame_needed = 1, uses_anonymous_args = 0
 223 0000 80B5     		push	{r7, lr}
 224              		.cfi_def_cfa_offset 8
 225              		.cfi_offset 7, -8
ARM GAS  C:\Users\Luis\AppData\Local\Temp\cc7Z94dP.s 			page 5


 226              		.cfi_offset 14, -4
 227 0002 00AF     		add	r7, sp, #0
 228              		.cfi_def_cfa_register 7
 229              		.loc 1 486 0
 230 0004 FFF7FEFF 		bl	port_unlock
 231              		.loc 1 487 0
 232 0008 80BD     		pop	{r7, pc}
 233              		.cfi_endproc
 234              	.LFE119:
 235              		.size	port_unlock_from_isr, .-port_unlock_from_isr
 236 000a 00BFAFF3 		.section	.text.port_disable,"ax",%progbits
 236      0080
 237              		.align	2
 238              		.p2align 4,,15
 239              		.thumb
 240              		.thumb_func
 241              		.type	port_disable, %function
 242              	port_disable:
 243              	.LFB120:
 244              		.loc 1 494 0
 245              		.cfi_startproc
 246              		@ args = 0, pretend = 0, frame = 0
 247              		@ frame_needed = 1, uses_anonymous_args = 0
 248              		@ link register save eliminated.
 249 0000 80B4     		push	{r7}
 250              		.cfi_def_cfa_offset 4
 251              		.cfi_offset 7, -4
 252 0002 00AF     		add	r7, sp, #0
 253              		.cfi_def_cfa_register 7
 254              	.LBB24:
 255              	.LBB25:
 256              		.loc 2 342 0
 257              	@ 342 "../../ChibiOS/os/ext/CMSIS/include/core_cmFunc.h" 1
 258 0004 72B6     		cpsid i
 259              	@ 0 "" 2
 260              		.thumb
 261              	.LBE25:
 262              	.LBE24:
 263              		.loc 1 497 0
 264 0006 BD46     		mov	sp, r7
 265              		@ sp needed
 266 0008 5DF8047B 		ldr	r7, [sp], #4
 267 000c 7047     		bx	lr
 268              		.cfi_endproc
 269              	.LFE120:
 270              		.size	port_disable, .-port_disable
 271 000e 00BF     		.section	.text.port_suspend,"ax",%progbits
 272              		.align	2
 273              		.p2align 4,,15
 274              		.thumb
 275              		.thumb_func
 276              		.type	port_suspend, %function
 277              	port_suspend:
 278              	.LFB121:
 279              		.loc 1 504 0
 280              		.cfi_startproc
 281              		@ args = 0, pretend = 0, frame = 8
ARM GAS  C:\Users\Luis\AppData\Local\Temp\cc7Z94dP.s 			page 6


 282              		@ frame_needed = 1, uses_anonymous_args = 0
 283              		@ link register save eliminated.
 284 0000 80B4     		push	{r7}
 285              		.cfi_def_cfa_offset 4
 286              		.cfi_offset 7, -4
 287 0002 83B0     		sub	sp, sp, #12
 288              		.cfi_def_cfa_offset 16
 289 0004 00AF     		add	r7, sp, #0
 290              		.cfi_def_cfa_register 7
 291 0006 2023     		movs	r3, #32
 292 0008 7B60     		str	r3, [r7, #4]
 293              	.LBB26:
 294              	.LBB27:
 295              		.loc 2 546 0
 296 000a 7B68     		ldr	r3, [r7, #4]
 297              	@ 546 "../../ChibiOS/os/ext/CMSIS/include/core_cmFunc.h" 1
 298 000c 83F31188 		MSR basepri, r3
 299              	@ 0 "" 2
 300              		.thumb
 301              	.LBE27:
 302              	.LBE26:
 303              	.LBB28:
 304              	.LBB29:
 305              		.loc 2 331 0
 306              	@ 331 "../../ChibiOS/os/ext/CMSIS/include/core_cmFunc.h" 1
 307 0010 62B6     		cpsie i
 308              	@ 0 "" 2
 309              		.thumb
 310              	.LBE29:
 311              	.LBE28:
 312              		.loc 1 512 0
 313 0012 0C37     		adds	r7, r7, #12
 314 0014 BD46     		mov	sp, r7
 315              		@ sp needed
 316 0016 5DF8047B 		ldr	r7, [sp], #4
 317 001a 7047     		bx	lr
 318              		.cfi_endproc
 319              	.LFE121:
 320              		.size	port_suspend, .-port_suspend
 321 001c AFF30080 		.section	.text.port_enable,"ax",%progbits
 322              		.align	2
 323              		.p2align 4,,15
 324              		.thumb
 325              		.thumb_func
 326              		.type	port_enable, %function
 327              	port_enable:
 328              	.LFB122:
 329              		.loc 1 518 0
 330              		.cfi_startproc
 331              		@ args = 0, pretend = 0, frame = 8
 332              		@ frame_needed = 1, uses_anonymous_args = 0
 333              		@ link register save eliminated.
 334 0000 80B4     		push	{r7}
 335              		.cfi_def_cfa_offset 4
 336              		.cfi_offset 7, -4
 337 0002 83B0     		sub	sp, sp, #12
 338              		.cfi_def_cfa_offset 16
ARM GAS  C:\Users\Luis\AppData\Local\Temp\cc7Z94dP.s 			page 7


 339 0004 00AF     		add	r7, sp, #0
 340              		.cfi_def_cfa_register 7
 341 0006 0023     		movs	r3, #0
 342 0008 7B60     		str	r3, [r7, #4]
 343              	.LBB30:
 344              	.LBB31:
 345              		.loc 2 546 0
 346 000a 7B68     		ldr	r3, [r7, #4]
 347              	@ 546 "../../ChibiOS/os/ext/CMSIS/include/core_cmFunc.h" 1
 348 000c 83F31188 		MSR basepri, r3
 349              	@ 0 "" 2
 350              		.thumb
 351              	.LBE31:
 352              	.LBE30:
 353              	.LBB32:
 354              	.LBB33:
 355              		.loc 2 331 0
 356              	@ 331 "../../ChibiOS/os/ext/CMSIS/include/core_cmFunc.h" 1
 357 0010 62B6     		cpsie i
 358              	@ 0 "" 2
 359              		.thumb
 360              	.LBE33:
 361              	.LBE32:
 362              		.loc 1 524 0
 363 0012 0C37     		adds	r7, r7, #12
 364 0014 BD46     		mov	sp, r7
 365              		@ sp needed
 366 0016 5DF8047B 		ldr	r7, [sp], #4
 367 001a 7047     		bx	lr
 368              		.cfi_endproc
 369              	.LFE122:
 370              		.size	port_enable, .-port_enable
 371 001c AFF30080 		.section	.text.chSysDisable,"ax",%progbits
 372              		.align	2
 373              		.p2align 4,,15
 374              		.thumb
 375              		.thumb_func
 376              		.type	chSysDisable, %function
 377              	chSysDisable:
 378              	.LFB153:
 379              		.file 3 "../../ChibiOS/os/rt/include/chsys.h"
 380              		.loc 3 303 0
 381              		.cfi_startproc
 382              		@ args = 0, pretend = 0, frame = 0
 383              		@ frame_needed = 1, uses_anonymous_args = 0
 384 0000 80B5     		push	{r7, lr}
 385              		.cfi_def_cfa_offset 8
 386              		.cfi_offset 7, -8
 387              		.cfi_offset 14, -4
 388 0002 00AF     		add	r7, sp, #0
 389              		.cfi_def_cfa_register 7
 390              		.loc 3 305 0
 391 0004 FFF7FEFF 		bl	port_disable
 392              		.loc 3 306 0
 393 0008 FFF7FEFF 		bl	_dbg_check_disable
 394              		.loc 3 307 0
 395 000c 80BD     		pop	{r7, pc}
ARM GAS  C:\Users\Luis\AppData\Local\Temp\cc7Z94dP.s 			page 8


 396              		.cfi_endproc
 397              	.LFE153:
 398              		.size	chSysDisable, .-chSysDisable
 399 000e 00BF     		.section	.text.chSysSuspend,"ax",%progbits
 400              		.align	2
 401              		.p2align 4,,15
 402              		.thumb
 403              		.thumb_func
 404              		.type	chSysSuspend, %function
 405              	chSysSuspend:
 406              	.LFB154:
 407              		.loc 3 320 0
 408              		.cfi_startproc
 409              		@ args = 0, pretend = 0, frame = 0
 410              		@ frame_needed = 1, uses_anonymous_args = 0
 411 0000 80B5     		push	{r7, lr}
 412              		.cfi_def_cfa_offset 8
 413              		.cfi_offset 7, -8
 414              		.cfi_offset 14, -4
 415 0002 00AF     		add	r7, sp, #0
 416              		.cfi_def_cfa_register 7
 417              		.loc 3 322 0
 418 0004 FFF7FEFF 		bl	port_suspend
 419              		.loc 3 323 0
 420 0008 FFF7FEFF 		bl	_dbg_check_suspend
 421              		.loc 3 324 0
 422 000c 80BD     		pop	{r7, pc}
 423              		.cfi_endproc
 424              	.LFE154:
 425              		.size	chSysSuspend, .-chSysSuspend
 426 000e 00BF     		.section	.text.chSysEnable,"ax",%progbits
 427              		.align	2
 428              		.p2align 4,,15
 429              		.thumb
 430              		.thumb_func
 431              		.type	chSysEnable, %function
 432              	chSysEnable:
 433              	.LFB155:
 434              		.loc 3 335 0
 435              		.cfi_startproc
 436              		@ args = 0, pretend = 0, frame = 0
 437              		@ frame_needed = 1, uses_anonymous_args = 0
 438 0000 80B5     		push	{r7, lr}
 439              		.cfi_def_cfa_offset 8
 440              		.cfi_offset 7, -8
 441              		.cfi_offset 14, -4
 442 0002 00AF     		add	r7, sp, #0
 443              		.cfi_def_cfa_register 7
 444              		.loc 3 337 0
 445 0004 FFF7FEFF 		bl	_dbg_check_enable
 446              		.loc 3 338 0
 447 0008 FFF7FEFF 		bl	port_enable
 448              		.loc 3 339 0
 449 000c 80BD     		pop	{r7, pc}
 450              		.cfi_endproc
 451              	.LFE155:
 452              		.size	chSysEnable, .-chSysEnable
ARM GAS  C:\Users\Luis\AppData\Local\Temp\cc7Z94dP.s 			page 9


 453 000e 00BF     		.section	.text.chSysLock,"ax",%progbits
 454              		.align	2
 455              		.p2align 4,,15
 456              		.thumb
 457              		.thumb_func
 458              		.type	chSysLock, %function
 459              	chSysLock:
 460              	.LFB156:
 461              		.loc 3 346 0
 462              		.cfi_startproc
 463              		@ args = 0, pretend = 0, frame = 0
 464              		@ frame_needed = 1, uses_anonymous_args = 0
 465 0000 80B5     		push	{r7, lr}
 466              		.cfi_def_cfa_offset 8
 467              		.cfi_offset 7, -8
 468              		.cfi_offset 14, -4
 469 0002 00AF     		add	r7, sp, #0
 470              		.cfi_def_cfa_register 7
 471              		.loc 3 348 0
 472 0004 FFF7FEFF 		bl	port_lock
 473              		.loc 3 349 0
 474 0008 FFF7FEFF 		bl	_stats_start_measure_crit_thd
 475              		.loc 3 350 0
 476 000c FFF7FEFF 		bl	_dbg_check_lock
 477              		.loc 3 351 0
 478 0010 80BD     		pop	{r7, pc}
 479              		.cfi_endproc
 480              	.LFE156:
 481              		.size	chSysLock, .-chSysLock
 482 0012 00BFAFF3 		.section	.text.chSysUnlock,"ax",%progbits
 482      0080AFF3 
 482      0080AFF3 
 482      0080
 483              		.align	2
 484              		.p2align 4,,15
 485              		.thumb
 486              		.thumb_func
 487              		.type	chSysUnlock, %function
 488              	chSysUnlock:
 489              	.LFB157:
 490              		.loc 3 358 0
 491              		.cfi_startproc
 492              		@ args = 0, pretend = 0, frame = 0
 493              		@ frame_needed = 1, uses_anonymous_args = 0
 494 0000 80B5     		push	{r7, lr}
 495              		.cfi_def_cfa_offset 8
 496              		.cfi_offset 7, -8
 497              		.cfi_offset 14, -4
 498 0002 00AF     		add	r7, sp, #0
 499              		.cfi_def_cfa_register 7
 500              		.loc 3 360 0
 501 0004 FFF7FEFF 		bl	_dbg_check_unlock
 502              		.loc 3 361 0
 503 0008 FFF7FEFF 		bl	_stats_stop_measure_crit_thd
 504              		.loc 3 367 0
 505 000c 094B     		ldr	r3, .L19
 506 000e 1A68     		ldr	r2, [r3]
ARM GAS  C:\Users\Luis\AppData\Local\Temp\cc7Z94dP.s 			page 10


 507 0010 084B     		ldr	r3, .L19
 508 0012 9A42     		cmp	r2, r3
 509 0014 0AD0     		beq	.L18
 510              		.loc 3 367 0 is_stmt 0 discriminator 1
 511 0016 074B     		ldr	r3, .L19
 512 0018 9B69     		ldr	r3, [r3, #24]
 513 001a 9A68     		ldr	r2, [r3, #8]
 514 001c 054B     		ldr	r3, .L19
 515 001e 1B68     		ldr	r3, [r3]
 516 0020 9B68     		ldr	r3, [r3, #8]
 517 0022 9A42     		cmp	r2, r3
 518 0024 02D2     		bcs	.L18
 519 0026 0448     		ldr	r0, .L19+4
 520 0028 FFF7FEFF 		bl	chSysHalt
 521              	.L18:
 522              		.loc 3 371 0 is_stmt 1
 523 002c FFF7FEFF 		bl	port_unlock
 524              		.loc 3 372 0
 525 0030 80BD     		pop	{r7, pc}
 526              	.L20:
 527 0032 00BF     		.align	2
 528              	.L19:
 529 0034 00000000 		.word	ch
 530 0038 00000000 		.word	__func__.5842
 531              		.cfi_endproc
 532              	.LFE157:
 533              		.size	chSysUnlock, .-chSysUnlock
 534 003c AFF30080 		.section	.text.chSysLockFromISR,"ax",%progbits
 535              		.align	2
 536              		.p2align 4,,15
 537              		.thumb
 538              		.thumb_func
 539              		.type	chSysLockFromISR, %function
 540              	chSysLockFromISR:
 541              	.LFB158:
 542              		.loc 3 386 0
 543              		.cfi_startproc
 544              		@ args = 0, pretend = 0, frame = 0
 545              		@ frame_needed = 1, uses_anonymous_args = 0
 546 0000 80B5     		push	{r7, lr}
 547              		.cfi_def_cfa_offset 8
 548              		.cfi_offset 7, -8
 549              		.cfi_offset 14, -4
 550 0002 00AF     		add	r7, sp, #0
 551              		.cfi_def_cfa_register 7
 552              		.loc 3 388 0
 553 0004 FFF7FEFF 		bl	port_lock_from_isr
 554              		.loc 3 389 0
 555 0008 FFF7FEFF 		bl	_stats_start_measure_crit_isr
 556              		.loc 3 390 0
 557 000c FFF7FEFF 		bl	_dbg_check_lock_from_isr
 558              		.loc 3 391 0
 559 0010 80BD     		pop	{r7, pc}
 560              		.cfi_endproc
 561              	.LFE158:
 562              		.size	chSysLockFromISR, .-chSysLockFromISR
 563 0012 00BFAFF3 		.section	.text.chSysUnlockFromISR,"ax",%progbits
ARM GAS  C:\Users\Luis\AppData\Local\Temp\cc7Z94dP.s 			page 11


 563      0080AFF3 
 563      0080AFF3 
 563      0080
 564              		.align	2
 565              		.p2align 4,,15
 566              		.thumb
 567              		.thumb_func
 568              		.type	chSysUnlockFromISR, %function
 569              	chSysUnlockFromISR:
 570              	.LFB159:
 571              		.loc 3 406 0
 572              		.cfi_startproc
 573              		@ args = 0, pretend = 0, frame = 0
 574              		@ frame_needed = 1, uses_anonymous_args = 0
 575 0000 80B5     		push	{r7, lr}
 576              		.cfi_def_cfa_offset 8
 577              		.cfi_offset 7, -8
 578              		.cfi_offset 14, -4
 579 0002 00AF     		add	r7, sp, #0
 580              		.cfi_def_cfa_register 7
 581              		.loc 3 408 0
 582 0004 FFF7FEFF 		bl	_dbg_check_unlock_from_isr
 583              		.loc 3 409 0
 584 0008 FFF7FEFF 		bl	_stats_stop_measure_crit_isr
 585              		.loc 3 410 0
 586 000c FFF7FEFF 		bl	port_unlock_from_isr
 587              		.loc 3 411 0
 588 0010 80BD     		pop	{r7, pc}
 589              		.cfi_endproc
 590              	.LFE159:
 591              		.size	chSysUnlockFromISR, .-chSysUnlockFromISR
 592 0012 00BFAFF3 		.section	.text.chSysUnconditionalLock,"ax",%progbits
 592      0080AFF3 
 592      0080AFF3 
 592      0080
 593              		.align	2
 594              		.p2align 4,,15
 595              		.thumb
 596              		.thumb_func
 597              		.type	chSysUnconditionalLock, %function
 598              	chSysUnconditionalLock:
 599              	.LFB160:
 600              		.loc 3 420 0
 601              		.cfi_startproc
 602              		@ args = 0, pretend = 0, frame = 0
 603              		@ frame_needed = 1, uses_anonymous_args = 0
 604 0000 80B5     		push	{r7, lr}
 605              		.cfi_def_cfa_offset 8
 606              		.cfi_offset 7, -8
 607              		.cfi_offset 14, -4
 608 0002 00AF     		add	r7, sp, #0
 609              		.cfi_def_cfa_register 7
 610              		.loc 3 422 0
 611 0004 FFF7FEFF 		bl	port_get_irq_status
 612 0008 0346     		mov	r3, r0
 613 000a 1846     		mov	r0, r3
 614 000c FFF7FEFF 		bl	port_irq_enabled
ARM GAS  C:\Users\Luis\AppData\Local\Temp\cc7Z94dP.s 			page 12


 615 0010 0346     		mov	r3, r0
 616 0012 002B     		cmp	r3, #0
 617 0014 01D0     		beq	.L23
 618              		.loc 3 423 0
 619 0016 FFF7FEFF 		bl	chSysLock
 620              	.L23:
 621              		.loc 3 425 0
 622 001a 80BD     		pop	{r7, pc}
 623              		.cfi_endproc
 624              	.LFE160:
 625              		.size	chSysUnconditionalLock, .-chSysUnconditionalLock
 626 001c AFF30080 		.section	.text.chSysUnconditionalUnlock,"ax",%progbits
 627              		.align	2
 628              		.p2align 4,,15
 629              		.thumb
 630              		.thumb_func
 631              		.type	chSysUnconditionalUnlock, %function
 632              	chSysUnconditionalUnlock:
 633              	.LFB161:
 634              		.loc 3 434 0
 635              		.cfi_startproc
 636              		@ args = 0, pretend = 0, frame = 0
 637              		@ frame_needed = 1, uses_anonymous_args = 0
 638 0000 80B5     		push	{r7, lr}
 639              		.cfi_def_cfa_offset 8
 640              		.cfi_offset 7, -8
 641              		.cfi_offset 14, -4
 642 0002 00AF     		add	r7, sp, #0
 643              		.cfi_def_cfa_register 7
 644              		.loc 3 436 0
 645 0004 FFF7FEFF 		bl	port_get_irq_status
 646 0008 0346     		mov	r3, r0
 647 000a 1846     		mov	r0, r3
 648 000c FFF7FEFF 		bl	port_irq_enabled
 649 0010 0346     		mov	r3, r0
 650 0012 83F00103 		eor	r3, r3, #1
 651 0016 DBB2     		uxtb	r3, r3
 652 0018 002B     		cmp	r3, #0
 653 001a 01D0     		beq	.L25
 654              		.loc 3 437 0
 655 001c FFF7FEFF 		bl	chSysUnlock
 656              	.L25:
 657              		.loc 3 439 0
 658 0020 80BD     		pop	{r7, pc}
 659              		.cfi_endproc
 660              	.LFE161:
 661              		.size	chSysUnconditionalUnlock, .-chSysUnconditionalUnlock
 662 0022 00BFAFF3 		.section	.text.chVTObjectInit,"ax",%progbits
 662      0080AFF3 
 662      0080AFF3 
 662      0080
 663              		.align	2
 664              		.p2align 4,,15
 665              		.thumb
 666              		.thumb_func
 667              		.type	chVTObjectInit, %function
 668              	chVTObjectInit:
ARM GAS  C:\Users\Luis\AppData\Local\Temp\cc7Z94dP.s 			page 13


 669              	.LFB163:
 670              		.file 4 "../../ChibiOS/os/rt/include/chvt.h"
 671              		.loc 4 210 0
 672              		.cfi_startproc
 673              		@ args = 0, pretend = 0, frame = 8
 674              		@ frame_needed = 1, uses_anonymous_args = 0
 675              		@ link register save eliminated.
 676 0000 80B4     		push	{r7}
 677              		.cfi_def_cfa_offset 4
 678              		.cfi_offset 7, -4
 679 0002 83B0     		sub	sp, sp, #12
 680              		.cfi_def_cfa_offset 16
 681 0004 00AF     		add	r7, sp, #0
 682              		.cfi_def_cfa_register 7
 683 0006 7860     		str	r0, [r7, #4]
 684              		.loc 4 212 0
 685 0008 7B68     		ldr	r3, [r7, #4]
 686 000a 0022     		movs	r2, #0
 687 000c DA60     		str	r2, [r3, #12]
 688              		.loc 4 213 0
 689 000e 0C37     		adds	r7, r7, #12
 690 0010 BD46     		mov	sp, r7
 691              		@ sp needed
 692 0012 5DF8047B 		ldr	r7, [sp], #4
 693 0016 7047     		bx	lr
 694              		.cfi_endproc
 695              	.LFE163:
 696              		.size	chVTObjectInit, .-chVTObjectInit
 697 0018 AFF30080 		.section	.text.chVTIsArmedI,"ax",%progbits
 697      AFF30080 
 698              		.align	2
 699              		.p2align 4,,15
 700              		.thumb
 701              		.thumb_func
 702              		.type	chVTIsArmedI, %function
 703              	chVTIsArmedI:
 704              	.LFB170:
 705              		.loc 4 337 0
 706              		.cfi_startproc
 707              		@ args = 0, pretend = 0, frame = 8
 708              		@ frame_needed = 1, uses_anonymous_args = 0
 709 0000 80B5     		push	{r7, lr}
 710              		.cfi_def_cfa_offset 8
 711              		.cfi_offset 7, -8
 712              		.cfi_offset 14, -4
 713 0002 82B0     		sub	sp, sp, #8
 714              		.cfi_def_cfa_offset 16
 715 0004 00AF     		add	r7, sp, #0
 716              		.cfi_def_cfa_register 7
 717 0006 7860     		str	r0, [r7, #4]
 718              		.loc 4 339 0
 719 0008 FFF7FEFF 		bl	chDbgCheckClassI
 720              		.loc 4 341 0
 721 000c 7B68     		ldr	r3, [r7, #4]
 722 000e DB68     		ldr	r3, [r3, #12]
 723 0010 002B     		cmp	r3, #0
 724 0012 0CBF     		ite	eq
ARM GAS  C:\Users\Luis\AppData\Local\Temp\cc7Z94dP.s 			page 14


 725 0014 0023     		moveq	r3, #0
 726 0016 0123     		movne	r3, #1
 727 0018 DBB2     		uxtb	r3, r3
 728              		.loc 4 342 0
 729 001a 1846     		mov	r0, r3
 730 001c 0837     		adds	r7, r7, #8
 731 001e BD46     		mov	sp, r7
 732              		@ sp needed
 733 0020 80BD     		pop	{r7, pc}
 734              		.cfi_endproc
 735              	.LFE170:
 736              		.size	chVTIsArmedI, .-chVTIsArmedI
 737 0022 00BFAFF3 		.section	.text.chVTIsArmed,"ax",%progbits
 737      0080AFF3 
 737      0080AFF3 
 737      0080
 738              		.align	2
 739              		.p2align 4,,15
 740              		.thumb
 741              		.thumb_func
 742              		.type	chVTIsArmed, %function
 743              	chVTIsArmed:
 744              	.LFB171:
 745              		.loc 4 354 0
 746              		.cfi_startproc
 747              		@ args = 0, pretend = 0, frame = 16
 748              		@ frame_needed = 1, uses_anonymous_args = 0
 749 0000 80B5     		push	{r7, lr}
 750              		.cfi_def_cfa_offset 8
 751              		.cfi_offset 7, -8
 752              		.cfi_offset 14, -4
 753 0002 84B0     		sub	sp, sp, #16
 754              		.cfi_def_cfa_offset 24
 755 0004 00AF     		add	r7, sp, #0
 756              		.cfi_def_cfa_register 7
 757 0006 7860     		str	r0, [r7, #4]
 758              		.loc 4 357 0
 759 0008 FFF7FEFF 		bl	chSysLock
 760              		.loc 4 358 0
 761 000c 7868     		ldr	r0, [r7, #4]
 762 000e FFF7FEFF 		bl	chVTIsArmedI
 763 0012 0346     		mov	r3, r0
 764 0014 FB73     		strb	r3, [r7, #15]
 765              		.loc 4 359 0
 766 0016 FFF7FEFF 		bl	chSysUnlock
 767              		.loc 4 361 0
 768 001a FB7B     		ldrb	r3, [r7, #15]	@ zero_extendqisi2
 769              		.loc 4 362 0
 770 001c 1846     		mov	r0, r3
 771 001e 1037     		adds	r7, r7, #16
 772 0020 BD46     		mov	sp, r7
 773              		@ sp needed
 774 0022 80BD     		pop	{r7, pc}
 775              		.cfi_endproc
 776              	.LFE171:
 777              		.size	chVTIsArmed, .-chVTIsArmed
 778 0024 AFF30080 		.section	.text.chVTResetI,"ax",%progbits
ARM GAS  C:\Users\Luis\AppData\Local\Temp\cc7Z94dP.s 			page 15


 778      AFF30080 
 778      AFF30080 
 779              		.align	2
 780              		.p2align 4,,15
 781              		.thumb
 782              		.thumb_func
 783              		.type	chVTResetI, %function
 784              	chVTResetI:
 785              	.LFB172:
 786              		.loc 4 374 0
 787              		.cfi_startproc
 788              		@ args = 0, pretend = 0, frame = 8
 789              		@ frame_needed = 1, uses_anonymous_args = 0
 790 0000 80B5     		push	{r7, lr}
 791              		.cfi_def_cfa_offset 8
 792              		.cfi_offset 7, -8
 793              		.cfi_offset 14, -4
 794 0002 82B0     		sub	sp, sp, #8
 795              		.cfi_def_cfa_offset 16
 796 0004 00AF     		add	r7, sp, #0
 797              		.cfi_def_cfa_register 7
 798 0006 7860     		str	r0, [r7, #4]
 799              		.loc 4 376 0
 800 0008 7868     		ldr	r0, [r7, #4]
 801 000a FFF7FEFF 		bl	chVTIsArmedI
 802 000e 0346     		mov	r3, r0
 803 0010 002B     		cmp	r3, #0
 804 0012 02D0     		beq	.L32
 805              		.loc 4 377 0
 806 0014 7868     		ldr	r0, [r7, #4]
 807 0016 FFF7FEFF 		bl	chVTDoResetI
 808              	.L32:
 809              		.loc 4 379 0
 810 001a 0837     		adds	r7, r7, #8
 811 001c BD46     		mov	sp, r7
 812              		@ sp needed
 813 001e 80BD     		pop	{r7, pc}
 814              		.cfi_endproc
 815              	.LFE172:
 816              		.size	chVTResetI, .-chVTResetI
 817              		.section	.text.chVTSetI,"ax",%progbits
 818              		.align	2
 819              		.p2align 4,,15
 820              		.thumb
 821              		.thumb_func
 822              		.type	chVTSetI, %function
 823              	chVTSetI:
 824              	.LFB174:
 825              		.loc 4 421 0
 826              		.cfi_startproc
 827              		@ args = 0, pretend = 0, frame = 16
 828              		@ frame_needed = 1, uses_anonymous_args = 0
 829 0000 80B5     		push	{r7, lr}
 830              		.cfi_def_cfa_offset 8
 831              		.cfi_offset 7, -8
 832              		.cfi_offset 14, -4
 833 0002 84B0     		sub	sp, sp, #16
ARM GAS  C:\Users\Luis\AppData\Local\Temp\cc7Z94dP.s 			page 16


 834              		.cfi_def_cfa_offset 24
 835 0004 00AF     		add	r7, sp, #0
 836              		.cfi_def_cfa_register 7
 837 0006 F860     		str	r0, [r7, #12]
 838 0008 B960     		str	r1, [r7, #8]
 839 000a 7A60     		str	r2, [r7, #4]
 840 000c 3B60     		str	r3, [r7]
 841              		.loc 4 423 0
 842 000e F868     		ldr	r0, [r7, #12]
 843 0010 FFF7FEFF 		bl	chVTResetI
 844              		.loc 4 424 0
 845 0014 F868     		ldr	r0, [r7, #12]
 846 0016 B968     		ldr	r1, [r7, #8]
 847 0018 7A68     		ldr	r2, [r7, #4]
 848 001a 3B68     		ldr	r3, [r7]
 849 001c FFF7FEFF 		bl	chVTDoSetI
 850              		.loc 4 425 0
 851 0020 1037     		adds	r7, r7, #16
 852 0022 BD46     		mov	sp, r7
 853              		@ sp needed
 854 0024 80BD     		pop	{r7, pc}
 855              		.cfi_endproc
 856              	.LFE174:
 857              		.size	chVTSetI, .-chVTSetI
 858 0026 00BFAFF3 		.section	.text.chVTSet,"ax",%progbits
 858      0080AFF3 
 858      0080
 859              		.align	2
 860              		.p2align 4,,15
 861              		.thumb
 862              		.thumb_func
 863              		.type	chVTSet, %function
 864              	chVTSet:
 865              	.LFB175:
 866              		.loc 4 450 0
 867              		.cfi_startproc
 868              		@ args = 0, pretend = 0, frame = 16
 869              		@ frame_needed = 1, uses_anonymous_args = 0
 870 0000 80B5     		push	{r7, lr}
 871              		.cfi_def_cfa_offset 8
 872              		.cfi_offset 7, -8
 873              		.cfi_offset 14, -4
 874 0002 84B0     		sub	sp, sp, #16
 875              		.cfi_def_cfa_offset 24
 876 0004 00AF     		add	r7, sp, #0
 877              		.cfi_def_cfa_register 7
 878 0006 F860     		str	r0, [r7, #12]
 879 0008 B960     		str	r1, [r7, #8]
 880 000a 7A60     		str	r2, [r7, #4]
 881 000c 3B60     		str	r3, [r7]
 882              		.loc 4 452 0
 883 000e FFF7FEFF 		bl	chSysLock
 884              		.loc 4 453 0
 885 0012 F868     		ldr	r0, [r7, #12]
 886 0014 B968     		ldr	r1, [r7, #8]
 887 0016 7A68     		ldr	r2, [r7, #4]
 888 0018 3B68     		ldr	r3, [r7]
ARM GAS  C:\Users\Luis\AppData\Local\Temp\cc7Z94dP.s 			page 17


 889 001a FFF7FEFF 		bl	chVTSetI
 890              		.loc 4 454 0
 891 001e FFF7FEFF 		bl	chSysUnlock
 892              		.loc 4 455 0
 893 0022 1037     		adds	r7, r7, #16
 894 0024 BD46     		mov	sp, r7
 895              		@ sp needed
 896 0026 80BD     		pop	{r7, pc}
 897              		.cfi_endproc
 898              	.LFE175:
 899              		.size	chVTSet, .-chVTSet
 900 0028 AFF30080 		.section	.text.vtcb,"ax",%progbits
 900      AFF30080 
 901              		.align	2
 902              		.p2align 4,,15
 903              		.thumb
 904              		.thumb_func
 905              		.type	vtcb, %function
 906              	vtcb:
 907              	.LFB229:
 908              		.file 5 "../../ChibiOS/test/rt/testsys.c"
 909              		.loc 5 53 0
 910              		.cfi_startproc
 911              		@ args = 0, pretend = 0, frame = 16
 912              		@ frame_needed = 1, uses_anonymous_args = 0
 913 0000 80B5     		push	{r7, lr}
 914              		.cfi_def_cfa_offset 8
 915              		.cfi_offset 7, -8
 916              		.cfi_offset 14, -4
 917 0002 84B0     		sub	sp, sp, #16
 918              		.cfi_def_cfa_offset 24
 919 0004 00AF     		add	r7, sp, #0
 920              		.cfi_def_cfa_register 7
 921 0006 7860     		str	r0, [r7, #4]
 922              		.loc 5 59 0
 923 0008 FFF7FEFF 		bl	chSysLockFromISR
 924              		.loc 5 60 0
 925 000c FFF7FEFF 		bl	chSysUnlockFromISR
 926              		.loc 5 63 0
 927 0010 FFF7FEFF 		bl	chSysLockFromISR
 928              		.loc 5 64 0
 929 0014 FFF7FEFF 		bl	chSysGetStatusAndLockX
 930 0018 F860     		str	r0, [r7, #12]
 931              		.loc 5 65 0
 932 001a F868     		ldr	r0, [r7, #12]
 933 001c FFF7FEFF 		bl	chSysRestoreStatusX
 934              		.loc 5 66 0
 935 0020 FFF7FEFF 		bl	chSysUnlockFromISR
 936              		.loc 5 67 0
 937 0024 1037     		adds	r7, r7, #16
 938 0026 BD46     		mov	sp, r7
 939              		@ sp needed
 940 0028 80BD     		pop	{r7, pc}
 941              		.cfi_endproc
 942              	.LFE229:
 943              		.size	vtcb, .-vtcb
 944 002a 00BFAFF3 		.section	.text.sys1_execute,"ax",%progbits
ARM GAS  C:\Users\Luis\AppData\Local\Temp\cc7Z94dP.s 			page 18


 944      0080
 945              		.align	2
 946              		.p2align 4,,15
 947              		.thumb
 948              		.thumb_func
 949              		.type	sys1_execute, %function
 950              	sys1_execute:
 951              	.LFB230:
 952              		.loc 5 69 0
 953              		.cfi_startproc
 954              		@ args = 0, pretend = 0, frame = 24
 955              		@ frame_needed = 1, uses_anonymous_args = 0
 956 0000 80B5     		push	{r7, lr}
 957              		.cfi_def_cfa_offset 8
 958              		.cfi_offset 7, -8
 959              		.cfi_offset 14, -4
 960 0002 86B0     		sub	sp, sp, #24
 961              		.cfi_def_cfa_offset 32
 962 0004 00AF     		add	r7, sp, #0
 963              		.cfi_def_cfa_register 7
 964              		.loc 5 74 0
 965 0006 FFF7FEFF 		bl	chSysGetStatusAndLockX
 966 000a 7861     		str	r0, [r7, #20]
 967              		.loc 5 75 0
 968 000c 7869     		ldr	r0, [r7, #20]
 969 000e FFF7FEFF 		bl	chSysRestoreStatusX
 970              		.loc 5 78 0
 971 0012 FFF7FEFF 		bl	chSysLock
 972              		.loc 5 79 0
 973 0016 FFF7FEFF 		bl	chSysGetStatusAndLockX
 974 001a 7861     		str	r0, [r7, #20]
 975              		.loc 5 80 0
 976 001c 7869     		ldr	r0, [r7, #20]
 977 001e FFF7FEFF 		bl	chSysRestoreStatusX
 978              		.loc 5 81 0
 979 0022 FFF7FEFF 		bl	chSysUnlock
 980              		.loc 5 84 0
 981 0026 FFF7FEFF 		bl	chSysUnconditionalLock
 982              		.loc 5 85 0
 983 002a FFF7FEFF 		bl	chSysUnconditionalLock
 984              		.loc 5 86 0
 985 002e FFF7FEFF 		bl	chSysUnlock
 986              		.loc 5 89 0
 987 0032 FFF7FEFF 		bl	chSysLock
 988              		.loc 5 90 0
 989 0036 FFF7FEFF 		bl	chSysUnconditionalUnlock
 990              		.loc 5 91 0
 991 003a FFF7FEFF 		bl	chSysUnconditionalUnlock
 992              		.loc 5 94 0
 993 003e 3B46     		mov	r3, r7
 994 0040 1846     		mov	r0, r3
 995 0042 FFF7FEFF 		bl	chVTObjectInit
 996              		.loc 5 95 0
 997 0046 3B46     		mov	r3, r7
 998 0048 1846     		mov	r0, r3
 999 004a 0121     		movs	r1, #1
 1000 004c 0F4A     		ldr	r2, .L40
ARM GAS  C:\Users\Luis\AppData\Local\Temp\cc7Z94dP.s 			page 19


 1001 004e 0023     		movs	r3, #0
 1002 0050 FFF7FEFF 		bl	chVTSet
 1003              		.loc 5 96 0
 1004 0054 0A20     		movs	r0, #10
 1005 0056 FFF7FEFF 		bl	chThdSleep
 1006              		.loc 5 98 0
 1007 005a 3B46     		mov	r3, r7
 1008 005c 1846     		mov	r0, r3
 1009 005e FFF7FEFF 		bl	chVTIsArmed
 1010 0062 0346     		mov	r3, r0
 1011 0064 002B     		cmp	r3, #0
 1012 0066 0CBF     		ite	eq
 1013 0068 0023     		moveq	r3, #0
 1014 006a 0123     		movne	r3, #1
 1015 006c DBB2     		uxtb	r3, r3
 1016 006e 83F00103 		eor	r3, r3, #1
 1017 0072 DBB2     		uxtb	r3, r3
 1018 0074 03F00103 		and	r3, r3, #1
 1019 0078 DBB2     		uxtb	r3, r3
 1020 007a 0120     		movs	r0, #1
 1021 007c 1946     		mov	r1, r3
 1022 007e FFF7FEFF 		bl	_test_assert
 1023 0082 0346     		mov	r3, r0
 1024 0084 002B     		cmp	r3, #0
 1025              		.loc 5 99 0
 1026 0086 1837     		adds	r7, r7, #24
 1027 0088 BD46     		mov	sp, r7
 1028              		@ sp needed
 1029 008a 80BD     		pop	{r7, pc}
 1030              	.L41:
 1031              		.align	2
 1032              	.L40:
 1033 008c 00000000 		.word	vtcb
 1034              		.cfi_endproc
 1035              	.LFE230:
 1036              		.size	sys1_execute, .-sys1_execute
 1037              		.global	testsys1
 1038              		.section	.rodata
 1039              		.align	2
 1040              	.LC0:
 1041 0000 53797374 		.ascii	"System, critical zones\000"
 1041      656D2C20 
 1041      63726974 
 1041      6963616C 
 1041      207A6F6E 
 1042              		.section	.rodata.testsys1,"a",%progbits
 1043              		.align	2
 1044              		.type	testsys1, %object
 1045              		.size	testsys1, 16
 1046              	testsys1:
 1047 0000 00000000 		.word	.LC0
 1048 0004 00000000 		.word	0
 1049 0008 00000000 		.word	0
 1050 000c 00000000 		.word	sys1_execute
 1051              		.section	.text.sys2_execute,"ax",%progbits
 1052              		.align	2
 1053              		.p2align 4,,15
ARM GAS  C:\Users\Luis\AppData\Local\Temp\cc7Z94dP.s 			page 20


 1054              		.thumb
 1055              		.thumb_func
 1056              		.type	sys2_execute, %function
 1057              	sys2_execute:
 1058              	.LFB231:
 1059              		.loc 5 115 0
 1060              		.cfi_startproc
 1061              		@ args = 0, pretend = 0, frame = 0
 1062              		@ frame_needed = 1, uses_anonymous_args = 0
 1063 0000 80B5     		push	{r7, lr}
 1064              		.cfi_def_cfa_offset 8
 1065              		.cfi_offset 7, -8
 1066              		.cfi_offset 14, -4
 1067 0002 00AF     		add	r7, sp, #0
 1068              		.cfi_def_cfa_register 7
 1069              		.loc 5 117 0
 1070 0004 FFF7FEFF 		bl	chSysSuspend
 1071              		.loc 5 118 0
 1072 0008 FFF7FEFF 		bl	chSysDisable
 1073              		.loc 5 119 0
 1074 000c FFF7FEFF 		bl	chSysSuspend
 1075              		.loc 5 120 0
 1076 0010 FFF7FEFF 		bl	chSysEnable
 1077              		.loc 5 121 0
 1078 0014 80BD     		pop	{r7, pc}
 1079              		.cfi_endproc
 1080              	.LFE231:
 1081              		.size	sys2_execute, .-sys2_execute
 1082              		.global	testsys2
 1083 0016 00BFAFF3 		.section	.rodata
 1083      0080AFF3 
 1083      0080
 1084 0017 00       		.align	2
 1085              	.LC1:
 1086 0018 53797374 		.ascii	"System, interrupts handling\000"
 1086      656D2C20 
 1086      696E7465 
 1086      72727570 
 1086      74732068 
 1087              		.section	.rodata.testsys2,"a",%progbits
 1088              		.align	2
 1089              		.type	testsys2, %object
 1090              		.size	testsys2, 16
 1091              	testsys2:
 1092 0000 18000000 		.word	.LC1
 1093 0004 00000000 		.word	0
 1094 0008 00000000 		.word	0
 1095 000c 00000000 		.word	sys2_execute
 1096              		.section	.text.sys3_execute,"ax",%progbits
 1097              		.align	2
 1098              		.p2align 4,,15
 1099              		.thumb
 1100              		.thumb_func
 1101              		.type	sys3_execute, %function
 1102              	sys3_execute:
 1103              	.LFB232:
 1104              		.loc 5 138 0
ARM GAS  C:\Users\Luis\AppData\Local\Temp\cc7Z94dP.s 			page 21


 1105              		.cfi_startproc
 1106              		@ args = 0, pretend = 0, frame = 8
 1107              		@ frame_needed = 1, uses_anonymous_args = 0
 1108 0000 80B5     		push	{r7, lr}
 1109              		.cfi_def_cfa_offset 8
 1110              		.cfi_offset 7, -8
 1111              		.cfi_offset 14, -4
 1112 0002 82B0     		sub	sp, sp, #8
 1113              		.cfi_def_cfa_offset 16
 1114 0004 00AF     		add	r7, sp, #0
 1115              		.cfi_def_cfa_register 7
 1116              		.loc 5 141 0
 1117 0006 FFF7FEFF 		bl	chSysLock
 1118              		.loc 5 142 0
 1119 000a 0120     		movs	r0, #1
 1120 000c FFF7FEFF 		bl	chSysIntegrityCheckI
 1121 0010 0346     		mov	r3, r0
 1122 0012 FB71     		strb	r3, [r7, #7]
 1123              		.loc 5 143 0
 1124 0014 FFF7FEFF 		bl	chSysUnlock
 1125              		.loc 5 144 0
 1126 0018 FB79     		ldrb	r3, [r7, #7]	@ zero_extendqisi2
 1127 001a 002B     		cmp	r3, #0
 1128 001c 0CBF     		ite	eq
 1129 001e 0023     		moveq	r3, #0
 1130 0020 0123     		movne	r3, #1
 1131 0022 DBB2     		uxtb	r3, r3
 1132 0024 83F00103 		eor	r3, r3, #1
 1133 0028 DBB2     		uxtb	r3, r3
 1134 002a 03F00103 		and	r3, r3, #1
 1135 002e DBB2     		uxtb	r3, r3
 1136 0030 0120     		movs	r0, #1
 1137 0032 1946     		mov	r1, r3
 1138 0034 FFF7FEFF 		bl	_test_assert
 1139 0038 0346     		mov	r3, r0
 1140 003a 002B     		cmp	r3, #0
 1141 003c 00D0     		beq	.L44
 1142              		.loc 5 144 0 is_stmt 0 discriminator 1
 1143 003e 56E0     		b	.L43
 1144              	.L44:
 1145              		.loc 5 146 0 is_stmt 1
 1146 0040 FFF7FEFF 		bl	chSysLock
 1147              		.loc 5 147 0
 1148 0044 0220     		movs	r0, #2
 1149 0046 FFF7FEFF 		bl	chSysIntegrityCheckI
 1150 004a 0346     		mov	r3, r0
 1151 004c FB71     		strb	r3, [r7, #7]
 1152              		.loc 5 148 0
 1153 004e FFF7FEFF 		bl	chSysUnlock
 1154              		.loc 5 149 0
 1155 0052 FB79     		ldrb	r3, [r7, #7]	@ zero_extendqisi2
 1156 0054 002B     		cmp	r3, #0
 1157 0056 0CBF     		ite	eq
 1158 0058 0023     		moveq	r3, #0
 1159 005a 0123     		movne	r3, #1
 1160 005c DBB2     		uxtb	r3, r3
 1161 005e 83F00103 		eor	r3, r3, #1
ARM GAS  C:\Users\Luis\AppData\Local\Temp\cc7Z94dP.s 			page 22


 1162 0062 DBB2     		uxtb	r3, r3
 1163 0064 03F00103 		and	r3, r3, #1
 1164 0068 DBB2     		uxtb	r3, r3
 1165 006a 0220     		movs	r0, #2
 1166 006c 1946     		mov	r1, r3
 1167 006e FFF7FEFF 		bl	_test_assert
 1168 0072 0346     		mov	r3, r0
 1169 0074 002B     		cmp	r3, #0
 1170 0076 00D0     		beq	.L46
 1171              		.loc 5 149 0 is_stmt 0 discriminator 1
 1172 0078 39E0     		b	.L43
 1173              	.L46:
 1174              		.loc 5 151 0 is_stmt 1
 1175 007a FFF7FEFF 		bl	chSysLock
 1176              		.loc 5 152 0
 1177 007e 0420     		movs	r0, #4
 1178 0080 FFF7FEFF 		bl	chSysIntegrityCheckI
 1179 0084 0346     		mov	r3, r0
 1180 0086 FB71     		strb	r3, [r7, #7]
 1181              		.loc 5 153 0
 1182 0088 FFF7FEFF 		bl	chSysUnlock
 1183              		.loc 5 154 0
 1184 008c FB79     		ldrb	r3, [r7, #7]	@ zero_extendqisi2
 1185 008e 002B     		cmp	r3, #0
 1186 0090 0CBF     		ite	eq
 1187 0092 0023     		moveq	r3, #0
 1188 0094 0123     		movne	r3, #1
 1189 0096 DBB2     		uxtb	r3, r3
 1190 0098 83F00103 		eor	r3, r3, #1
 1191 009c DBB2     		uxtb	r3, r3
 1192 009e 03F00103 		and	r3, r3, #1
 1193 00a2 DBB2     		uxtb	r3, r3
 1194 00a4 0320     		movs	r0, #3
 1195 00a6 1946     		mov	r1, r3
 1196 00a8 FFF7FEFF 		bl	_test_assert
 1197 00ac 0346     		mov	r3, r0
 1198 00ae 002B     		cmp	r3, #0
 1199 00b0 00D0     		beq	.L47
 1200              		.loc 5 154 0 is_stmt 0 discriminator 1
 1201 00b2 1CE0     		b	.L43
 1202              	.L47:
 1203              		.loc 5 156 0 is_stmt 1
 1204 00b4 FFF7FEFF 		bl	chSysLock
 1205              		.loc 5 157 0
 1206 00b8 0820     		movs	r0, #8
 1207 00ba FFF7FEFF 		bl	chSysIntegrityCheckI
 1208 00be 0346     		mov	r3, r0
 1209 00c0 FB71     		strb	r3, [r7, #7]
 1210              		.loc 5 158 0
 1211 00c2 FFF7FEFF 		bl	chSysUnlock
 1212              		.loc 5 159 0
 1213 00c6 FB79     		ldrb	r3, [r7, #7]	@ zero_extendqisi2
 1214 00c8 002B     		cmp	r3, #0
 1215 00ca 0CBF     		ite	eq
 1216 00cc 0023     		moveq	r3, #0
 1217 00ce 0123     		movne	r3, #1
 1218 00d0 DBB2     		uxtb	r3, r3
ARM GAS  C:\Users\Luis\AppData\Local\Temp\cc7Z94dP.s 			page 23


 1219 00d2 83F00103 		eor	r3, r3, #1
 1220 00d6 DBB2     		uxtb	r3, r3
 1221 00d8 03F00103 		and	r3, r3, #1
 1222 00dc DBB2     		uxtb	r3, r3
 1223 00de 0420     		movs	r0, #4
 1224 00e0 1946     		mov	r1, r3
 1225 00e2 FFF7FEFF 		bl	_test_assert
 1226 00e6 0346     		mov	r3, r0
 1227 00e8 002B     		cmp	r3, #0
 1228 00ea 00D0     		beq	.L43
 1229              		.loc 5 159 0 is_stmt 0 discriminator 1
 1230 00ec 00BF     		nop
 1231              	.L43:
 1232              		.loc 5 160 0 is_stmt 1
 1233 00ee 0837     		adds	r7, r7, #8
 1234 00f0 BD46     		mov	sp, r7
 1235              		@ sp needed
 1236 00f2 80BD     		pop	{r7, pc}
 1237              		.cfi_endproc
 1238              	.LFE232:
 1239              		.size	sys3_execute, .-sys3_execute
 1240              		.global	testsys3
 1241 00f4 AFF30080 		.section	.rodata
 1241      AFF30080 
 1241      AFF30080 
 1242              		.align	2
 1243              	.LC2:
 1244 0034 53797374 		.ascii	"System, integrity\000"
 1244      656D2C20 
 1244      696E7465 
 1244      67726974 
 1244      7900
 1245 0046 0000     		.section	.rodata.testsys3,"a",%progbits
 1246              		.align	2
 1247              		.type	testsys3, %object
 1248              		.size	testsys3, 16
 1249              	testsys3:
 1250 0000 34000000 		.word	.LC2
 1251 0004 00000000 		.word	0
 1252 0008 00000000 		.word	0
 1253 000c 00000000 		.word	sys3_execute
 1254              		.global	patternsys
 1255              		.section	.rodata.patternsys,"a",%progbits
 1256              		.align	2
 1257              		.type	patternsys, %object
 1258              		.size	patternsys, 16
 1259              	patternsys:
 1260 0000 00000000 		.word	testsys1
 1261 0004 00000000 		.word	testsys2
 1262 0008 00000000 		.word	testsys3
 1263 000c 00000000 		.word	0
 1264              		.section	.rodata.__func__.5842,"a",%progbits
 1265              		.align	2
 1266              		.type	__func__.5842, %object
 1267              		.size	__func__.5842, 12
 1268              	__func__.5842:
 1269 0000 63685379 		.ascii	"chSysUnlock\000"
ARM GAS  C:\Users\Luis\AppData\Local\Temp\cc7Z94dP.s 			page 24


 1269      73556E6C 
 1269      6F636B00 
 1270              		.text
 1271              	.Letext0:
 1272              		.file 6 "c:\\emtechesdk\\gcc\\lib\\gcc\\arm-none-eabi\\4.8.3\\include\\stddef.h"
 1273              		.file 7 "c:\\emtechesdk\\gcc\\arm-none-eabi\\include\\stdint.h"
 1274              		.file 8 "../../ChibiOS/os/rt/ports/ARMCMx/compilers/GCC/chtypes.h"
 1275              		.file 9 "../../ChibiOS/os/rt/include/chsystypes.h"
 1276              		.file 10 "../../ChibiOS/os/rt/include/chschd.h"
 1277              		.file 11 "../../ChibiOS/os/rt/ports/ARMCMx/chcore.h"
 1278              		.file 12 "../../ChibiOS/os/rt/include/chdebug.h"
 1279              		.file 13 "../../ChibiOS/os/rt/include/chtm.h"
 1280              		.file 14 "../../ChibiOS/os/rt/include/chstats.h"
 1281              		.file 15 "../../ChibiOS/os/rt/include/chsem.h"
 1282              		.file 16 "../../ChibiOS/os/rt/include/chmtx.h"
 1283              		.file 17 "../../ChibiOS/test/rt/test.h"
 1284              		.file 18 "../../ChibiOS/os/ext/CMSIS/include/core_cm4.h"