ARM GAS  C:\Users\Luis\AppData\Local\Temp\ccbrxzu2.s 			page 1


   1              		.syntax unified
   2              		.cpu cortex-m4
   3              		.fpu softvfp
   4              		.eabi_attribute 20, 1
   5              		.eabi_attribute 21, 1
   6              		.eabi_attribute 23, 3
   7              		.eabi_attribute 24, 1
   8              		.eabi_attribute 25, 1
   9              		.eabi_attribute 26, 1
  10              		.eabi_attribute 30, 6
  11              		.eabi_attribute 34, 1
  12              		.eabi_attribute 18, 4
  13              		.thumb
  14              		.file	"testevt.c"
  15              		.text
  16              	.Ltext0:
  17              		.cfi_sections	.debug_frame
  18              		.section	.text.port_lock,"ax",%progbits
  19              		.align	2
  20              		.p2align 4,,15
  21              		.thumb
  22              		.thumb_func
  23              		.type	port_lock, %function
  24              	port_lock:
  25              	.LFB116:
  26              		.file 1 "../../ChibiOS/os/rt/ports/ARMCMx/chcore_v7m.h"
  27              		.loc 1 444 0
  28              		.cfi_startproc
  29              		@ args = 0, pretend = 0, frame = 8
  30              		@ frame_needed = 1, uses_anonymous_args = 0
  31              		@ link register save eliminated.
  32 0000 80B4     		push	{r7}
  33              		.cfi_def_cfa_offset 4
  34              		.cfi_offset 7, -4
  35 0002 83B0     		sub	sp, sp, #12
  36              		.cfi_def_cfa_offset 16
  37 0004 00AF     		add	r7, sp, #0
  38              		.cfi_def_cfa_register 7
  39 0006 2023     		movs	r3, #32
  40 0008 7B60     		str	r3, [r7, #4]
  41              	.LBB6:
  42              	.LBB7:
  43              		.file 2 "../../ChibiOS/os/ext/CMSIS/include/core_cmFunc.h"
  44              		.loc 2 546 0
  45 000a 7B68     		ldr	r3, [r7, #4]
  46              	@ 546 "../../ChibiOS/os/ext/CMSIS/include/core_cmFunc.h" 1
  47 000c 83F31188 		MSR basepri, r3
  48              	@ 0 "" 2
  49              		.thumb
  50              	.LBE7:
  51              	.LBE6:
  52              		.loc 1 451 0
  53 0010 0C37     		adds	r7, r7, #12
  54 0012 BD46     		mov	sp, r7
  55              		@ sp needed
  56 0014 5DF8047B 		ldr	r7, [sp], #4
  57 0018 7047     		bx	lr
ARM GAS  C:\Users\Luis\AppData\Local\Temp\ccbrxzu2.s 			page 2


  58              		.cfi_endproc
  59              	.LFE116:
  60              		.size	port_lock, .-port_lock
  61 001a 00BFAFF3 		.section	.text.port_unlock,"ax",%progbits
  61      0080
  62              		.align	2
  63              		.p2align 4,,15
  64              		.thumb
  65              		.thumb_func
  66              		.type	port_unlock, %function
  67              	port_unlock:
  68              	.LFB117:
  69              		.loc 1 458 0
  70              		.cfi_startproc
  71              		@ args = 0, pretend = 0, frame = 8
  72              		@ frame_needed = 1, uses_anonymous_args = 0
  73              		@ link register save eliminated.
  74 0000 80B4     		push	{r7}
  75              		.cfi_def_cfa_offset 4
  76              		.cfi_offset 7, -4
  77 0002 83B0     		sub	sp, sp, #12
  78              		.cfi_def_cfa_offset 16
  79 0004 00AF     		add	r7, sp, #0
  80              		.cfi_def_cfa_register 7
  81 0006 0023     		movs	r3, #0
  82 0008 7B60     		str	r3, [r7, #4]
  83              	.LBB8:
  84              	.LBB9:
  85              		.loc 2 546 0
  86 000a 7B68     		ldr	r3, [r7, #4]
  87              	@ 546 "../../ChibiOS/os/ext/CMSIS/include/core_cmFunc.h" 1
  88 000c 83F31188 		MSR basepri, r3
  89              	@ 0 "" 2
  90              		.thumb
  91              	.LBE9:
  92              	.LBE8:
  93              		.loc 1 465 0
  94 0010 0C37     		adds	r7, r7, #12
  95 0012 BD46     		mov	sp, r7
  96              		@ sp needed
  97 0014 5DF8047B 		ldr	r7, [sp], #4
  98 0018 7047     		bx	lr
  99              		.cfi_endproc
 100              	.LFE117:
 101              		.size	port_unlock, .-port_unlock
 102 001a 00BFAFF3 		.section	.text.st_lld_get_counter,"ax",%progbits
 102      0080
 103              		.align	2
 104              		.p2align 4,,15
 105              		.thumb
 106              		.thumb_func
 107              		.type	st_lld_get_counter, %function
 108              	st_lld_get_counter:
 109              	.LFB125:
 110              		.file 3 "../../ChibiOS/os/hal/ports/STM32/LLD/TIMv1/st_lld.h"
 111              		.loc 3 127 0
 112              		.cfi_startproc
ARM GAS  C:\Users\Luis\AppData\Local\Temp\ccbrxzu2.s 			page 3


 113              		@ args = 0, pretend = 0, frame = 0
 114              		@ frame_needed = 1, uses_anonymous_args = 0
 115              		@ link register save eliminated.
 116 0000 80B4     		push	{r7}
 117              		.cfi_def_cfa_offset 4
 118              		.cfi_offset 7, -4
 119 0002 00AF     		add	r7, sp, #0
 120              		.cfi_def_cfa_register 7
 121              		.loc 3 129 0
 122 0004 4FF08043 		mov	r3, #1073741824
 123 0008 5B6A     		ldr	r3, [r3, #36]
 124              		.loc 3 130 0
 125 000a 1846     		mov	r0, r3
 126 000c BD46     		mov	sp, r7
 127              		@ sp needed
 128 000e 5DF8047B 		ldr	r7, [sp], #4
 129 0012 7047     		bx	lr
 130              		.cfi_endproc
 131              	.LFE125:
 132              		.size	st_lld_get_counter, .-st_lld_get_counter
 133 0014 AFF30080 		.section	.text.port_timer_get_time,"ax",%progbits
 133      AFF30080 
 133      AFF30080 
 134              		.align	2
 135              		.p2align 4,,15
 136              		.thumb
 137              		.thumb_func
 138              		.type	port_timer_get_time, %function
 139              	port_timer_get_time:
 140              	.LFB134:
 141              		.file 4 "../../ChibiOS/os/rt/ports/ARMCMx/chcore_timer.h"
 142              		.loc 4 105 0
 143              		.cfi_startproc
 144              		@ args = 0, pretend = 0, frame = 0
 145              		@ frame_needed = 1, uses_anonymous_args = 0
 146 0000 80B5     		push	{r7, lr}
 147              		.cfi_def_cfa_offset 8
 148              		.cfi_offset 7, -8
 149              		.cfi_offset 14, -4
 150 0002 00AF     		add	r7, sp, #0
 151              		.cfi_def_cfa_register 7
 152              		.loc 4 107 0
 153 0004 FFF7FEFF 		bl	st_lld_get_counter
 154 0008 0346     		mov	r3, r0
 155              		.loc 4 108 0
 156 000a 1846     		mov	r0, r3
 157 000c 80BD     		pop	{r7, pc}
 158              		.cfi_endproc
 159              	.LFE134:
 160              		.size	port_timer_get_time, .-port_timer_get_time
 161 000e 00BF     		.section	.text.chSysLock,"ax",%progbits
 162              		.align	2
 163              		.p2align 4,,15
 164              		.thumb
 165              		.thumb_func
 166              		.type	chSysLock, %function
 167              	chSysLock:
ARM GAS  C:\Users\Luis\AppData\Local\Temp\ccbrxzu2.s 			page 4


 168              	.LFB156:
 169              		.file 5 "../../ChibiOS/os/rt/include/chsys.h"
 170              		.loc 5 346 0
 171              		.cfi_startproc
 172              		@ args = 0, pretend = 0, frame = 0
 173              		@ frame_needed = 1, uses_anonymous_args = 0
 174 0000 80B5     		push	{r7, lr}
 175              		.cfi_def_cfa_offset 8
 176              		.cfi_offset 7, -8
 177              		.cfi_offset 14, -4
 178 0002 00AF     		add	r7, sp, #0
 179              		.cfi_def_cfa_register 7
 180              		.loc 5 348 0
 181 0004 FFF7FEFF 		bl	port_lock
 182              		.loc 5 349 0
 183 0008 FFF7FEFF 		bl	_stats_start_measure_crit_thd
 184              		.loc 5 350 0
 185 000c FFF7FEFF 		bl	_dbg_check_lock
 186              		.loc 5 351 0
 187 0010 80BD     		pop	{r7, pc}
 188              		.cfi_endproc
 189              	.LFE156:
 190              		.size	chSysLock, .-chSysLock
 191 0012 00BFAFF3 		.section	.text.chSysUnlock,"ax",%progbits
 191      0080AFF3 
 191      0080AFF3 
 191      0080
 192              		.align	2
 193              		.p2align 4,,15
 194              		.thumb
 195              		.thumb_func
 196              		.type	chSysUnlock, %function
 197              	chSysUnlock:
 198              	.LFB157:
 199              		.loc 5 358 0
 200              		.cfi_startproc
 201              		@ args = 0, pretend = 0, frame = 0
 202              		@ frame_needed = 1, uses_anonymous_args = 0
 203 0000 80B5     		push	{r7, lr}
 204              		.cfi_def_cfa_offset 8
 205              		.cfi_offset 7, -8
 206              		.cfi_offset 14, -4
 207 0002 00AF     		add	r7, sp, #0
 208              		.cfi_def_cfa_register 7
 209              		.loc 5 360 0
 210 0004 FFF7FEFF 		bl	_dbg_check_unlock
 211              		.loc 5 361 0
 212 0008 FFF7FEFF 		bl	_stats_stop_measure_crit_thd
 213              		.loc 5 367 0
 214 000c 094B     		ldr	r3, .L10
 215 000e 1A68     		ldr	r2, [r3]
 216 0010 084B     		ldr	r3, .L10
 217 0012 9A42     		cmp	r2, r3
 218 0014 0AD0     		beq	.L9
 219              		.loc 5 367 0 is_stmt 0 discriminator 1
 220 0016 074B     		ldr	r3, .L10
 221 0018 9B69     		ldr	r3, [r3, #24]
ARM GAS  C:\Users\Luis\AppData\Local\Temp\ccbrxzu2.s 			page 5


 222 001a 9A68     		ldr	r2, [r3, #8]
 223 001c 054B     		ldr	r3, .L10
 224 001e 1B68     		ldr	r3, [r3]
 225 0020 9B68     		ldr	r3, [r3, #8]
 226 0022 9A42     		cmp	r2, r3
 227 0024 02D2     		bcs	.L9
 228 0026 0448     		ldr	r0, .L10+4
 229 0028 FFF7FEFF 		bl	chSysHalt
 230              	.L9:
 231              		.loc 5 371 0 is_stmt 1
 232 002c FFF7FEFF 		bl	port_unlock
 233              		.loc 5 372 0
 234 0030 80BD     		pop	{r7, pc}
 235              	.L11:
 236 0032 00BF     		.align	2
 237              	.L10:
 238 0034 00000000 		.word	ch
 239 0038 00000000 		.word	__func__.5842
 240              		.cfi_endproc
 241              	.LFE157:
 242              		.size	chSysUnlock, .-chSysUnlock
 243 003c AFF30080 		.section	.text.chVTGetSystemTimeX,"ax",%progbits
 244              		.align	2
 245              		.p2align 4,,15
 246              		.thumb
 247              		.thumb_func
 248              		.type	chVTGetSystemTimeX, %function
 249              	chVTGetSystemTimeX:
 250              	.LFB164:
 251              		.file 6 "../../ChibiOS/os/rt/include/chvt.h"
 252              		.loc 6 228 0
 253              		.cfi_startproc
 254              		@ args = 0, pretend = 0, frame = 0
 255              		@ frame_needed = 1, uses_anonymous_args = 0
 256 0000 80B5     		push	{r7, lr}
 257              		.cfi_def_cfa_offset 8
 258              		.cfi_offset 7, -8
 259              		.cfi_offset 14, -4
 260 0002 00AF     		add	r7, sp, #0
 261              		.cfi_def_cfa_register 7
 262              		.loc 6 233 0
 263 0004 FFF7FEFF 		bl	port_timer_get_time
 264 0008 0346     		mov	r3, r0
 265              		.loc 6 235 0
 266 000a 1846     		mov	r0, r3
 267 000c 80BD     		pop	{r7, pc}
 268              		.cfi_endproc
 269              	.LFE164:
 270              		.size	chVTGetSystemTimeX, .-chVTGetSystemTimeX
 271 000e 00BF     		.section	.text.chVTGetSystemTime,"ax",%progbits
 272              		.align	2
 273              		.p2align 4,,15
 274              		.thumb
 275              		.thumb_func
 276              		.type	chVTGetSystemTime, %function
 277              	chVTGetSystemTime:
 278              	.LFB165:
ARM GAS  C:\Users\Luis\AppData\Local\Temp\ccbrxzu2.s 			page 6


 279              		.loc 6 247 0
 280              		.cfi_startproc
 281              		@ args = 0, pretend = 0, frame = 8
 282              		@ frame_needed = 1, uses_anonymous_args = 0
 283 0000 80B5     		push	{r7, lr}
 284              		.cfi_def_cfa_offset 8
 285              		.cfi_offset 7, -8
 286              		.cfi_offset 14, -4
 287 0002 82B0     		sub	sp, sp, #8
 288              		.cfi_def_cfa_offset 16
 289 0004 00AF     		add	r7, sp, #0
 290              		.cfi_def_cfa_register 7
 291              		.loc 6 250 0
 292 0006 FFF7FEFF 		bl	chSysLock
 293              		.loc 6 251 0
 294 000a FFF7FEFF 		bl	chVTGetSystemTimeX
 295 000e 7860     		str	r0, [r7, #4]
 296              		.loc 6 252 0
 297 0010 FFF7FEFF 		bl	chSysUnlock
 298              		.loc 6 254 0
 299 0014 7B68     		ldr	r3, [r7, #4]
 300              		.loc 6 255 0
 301 0016 1846     		mov	r0, r3
 302 0018 0837     		adds	r7, r7, #8
 303 001a BD46     		mov	sp, r7
 304              		@ sp needed
 305 001c 80BD     		pop	{r7, pc}
 306              		.cfi_endproc
 307              	.LFE165:
 308              		.size	chVTGetSystemTime, .-chVTGetSystemTime
 309 001e 00BF     		.section	.text.chThdGetSelfX,"ax",%progbits
 310              		.align	2
 311              		.p2align 4,,15
 312              		.thumb
 313              		.thumb_func
 314              		.type	chThdGetSelfX, %function
 315              	chThdGetSelfX:
 316              	.LFB177:
 317              		.file 7 "../../ChibiOS/os/rt/include/chthreads.h"
 318              		.loc 7 174 0
 319              		.cfi_startproc
 320              		@ args = 0, pretend = 0, frame = 0
 321              		@ frame_needed = 1, uses_anonymous_args = 0
 322              		@ link register save eliminated.
 323 0000 80B4     		push	{r7}
 324              		.cfi_def_cfa_offset 4
 325              		.cfi_offset 7, -4
 326 0002 00AF     		add	r7, sp, #0
 327              		.cfi_def_cfa_register 7
 328              		.loc 7 176 0
 329 0004 034B     		ldr	r3, .L18
 330 0006 9B69     		ldr	r3, [r3, #24]
 331              		.loc 7 177 0
 332 0008 1846     		mov	r0, r3
 333 000a BD46     		mov	sp, r7
 334              		@ sp needed
 335 000c 5DF8047B 		ldr	r7, [sp], #4
ARM GAS  C:\Users\Luis\AppData\Local\Temp\ccbrxzu2.s 			page 7


 336 0010 7047     		bx	lr
 337              	.L19:
 338 0012 00BF     		.align	2
 339              	.L18:
 340 0014 00000000 		.word	ch
 341              		.cfi_endproc
 342              	.LFE177:
 343              		.size	chThdGetSelfX, .-chThdGetSelfX
 344 0018 AFF30080 		.section	.text.chThdGetPriorityX,"ax",%progbits
 344      AFF30080 
 345              		.align	2
 346              		.p2align 4,,15
 347              		.thumb
 348              		.thumb_func
 349              		.type	chThdGetPriorityX, %function
 350              	chThdGetPriorityX:
 351              	.LFB178:
 352              		.loc 7 187 0
 353              		.cfi_startproc
 354              		@ args = 0, pretend = 0, frame = 0
 355              		@ frame_needed = 1, uses_anonymous_args = 0
 356 0000 80B5     		push	{r7, lr}
 357              		.cfi_def_cfa_offset 8
 358              		.cfi_offset 7, -8
 359              		.cfi_offset 14, -4
 360 0002 00AF     		add	r7, sp, #0
 361              		.cfi_def_cfa_register 7
 362              		.loc 7 189 0
 363 0004 FFF7FEFF 		bl	chThdGetSelfX
 364 0008 0346     		mov	r3, r0
 365 000a 9B68     		ldr	r3, [r3, #8]
 366              		.loc 7 190 0
 367 000c 1846     		mov	r0, r3
 368 000e 80BD     		pop	{r7, pc}
 369              		.cfi_endproc
 370              	.LFE178:
 371              		.size	chThdGetPriorityX, .-chThdGetPriorityX
 372              		.section	.text.chEvtObjectInit,"ax",%progbits
 373              		.align	2
 374              		.p2align 4,,15
 375              		.thumb
 376              		.thumb_func
 377              		.type	chEvtObjectInit, %function
 378              	chEvtObjectInit:
 379              	.LFB204:
 380              		.file 8 "../../ChibiOS/os/rt/include/chevents.h"
 381              		.loc 8 170 0
 382              		.cfi_startproc
 383              		@ args = 0, pretend = 0, frame = 8
 384              		@ frame_needed = 1, uses_anonymous_args = 0
 385              		@ link register save eliminated.
 386 0000 80B4     		push	{r7}
 387              		.cfi_def_cfa_offset 4
 388              		.cfi_offset 7, -4
 389 0002 83B0     		sub	sp, sp, #12
 390              		.cfi_def_cfa_offset 16
 391 0004 00AF     		add	r7, sp, #0
ARM GAS  C:\Users\Luis\AppData\Local\Temp\ccbrxzu2.s 			page 8


 392              		.cfi_def_cfa_register 7
 393 0006 7860     		str	r0, [r7, #4]
 394              		.loc 8 172 0
 395 0008 7B68     		ldr	r3, [r7, #4]
 396 000a 7A68     		ldr	r2, [r7, #4]
 397 000c 1A60     		str	r2, [r3]
 398              		.loc 8 173 0
 399 000e 0C37     		adds	r7, r7, #12
 400 0010 BD46     		mov	sp, r7
 401              		@ sp needed
 402 0012 5DF8047B 		ldr	r7, [sp], #4
 403 0016 7047     		bx	lr
 404              		.cfi_endproc
 405              	.LFE204:
 406              		.size	chEvtObjectInit, .-chEvtObjectInit
 407 0018 AFF30080 		.section	.text.chEvtRegisterMask,"ax",%progbits
 407      AFF30080 
 408              		.align	2
 409              		.p2align 4,,15
 410              		.thumb
 411              		.thumb_func
 412              		.type	chEvtRegisterMask, %function
 413              	chEvtRegisterMask:
 414              	.LFB205:
 415              		.loc 8 191 0
 416              		.cfi_startproc
 417              		@ args = 0, pretend = 0, frame = 16
 418              		@ frame_needed = 1, uses_anonymous_args = 0
 419 0000 80B5     		push	{r7, lr}
 420              		.cfi_def_cfa_offset 8
 421              		.cfi_offset 7, -8
 422              		.cfi_offset 14, -4
 423 0002 84B0     		sub	sp, sp, #16
 424              		.cfi_def_cfa_offset 24
 425 0004 00AF     		add	r7, sp, #0
 426              		.cfi_def_cfa_register 7
 427 0006 F860     		str	r0, [r7, #12]
 428 0008 B960     		str	r1, [r7, #8]
 429 000a 7A60     		str	r2, [r7, #4]
 430              		.loc 8 193 0
 431 000c F868     		ldr	r0, [r7, #12]
 432 000e B968     		ldr	r1, [r7, #8]
 433 0010 7A68     		ldr	r2, [r7, #4]
 434 0012 4FF0FF33 		mov	r3, #-1
 435 0016 FFF7FEFF 		bl	chEvtRegisterMaskWithFlags
 436              		.loc 8 194 0
 437 001a 1037     		adds	r7, r7, #16
 438 001c BD46     		mov	sp, r7
 439              		@ sp needed
 440 001e 80BD     		pop	{r7, pc}
 441              		.cfi_endproc
 442              	.LFE205:
 443              		.size	chEvtRegisterMask, .-chEvtRegisterMask
 444              		.section	.text.chEvtIsListeningI,"ax",%progbits
 445              		.align	2
 446              		.p2align 4,,15
 447              		.thumb
ARM GAS  C:\Users\Luis\AppData\Local\Temp\ccbrxzu2.s 			page 9


 448              		.thumb_func
 449              		.type	chEvtIsListeningI, %function
 450              	chEvtIsListeningI:
 451              	.LFB207:
 452              		.loc 8 224 0
 453              		.cfi_startproc
 454              		@ args = 0, pretend = 0, frame = 8
 455              		@ frame_needed = 1, uses_anonymous_args = 0
 456              		@ link register save eliminated.
 457 0000 80B4     		push	{r7}
 458              		.cfi_def_cfa_offset 4
 459              		.cfi_offset 7, -4
 460 0002 83B0     		sub	sp, sp, #12
 461              		.cfi_def_cfa_offset 16
 462 0004 00AF     		add	r7, sp, #0
 463              		.cfi_def_cfa_register 7
 464 0006 7860     		str	r0, [r7, #4]
 465              		.loc 8 226 0
 466 0008 7B68     		ldr	r3, [r7, #4]
 467 000a 1A68     		ldr	r2, [r3]
 468 000c 7B68     		ldr	r3, [r7, #4]
 469 000e 9A42     		cmp	r2, r3
 470 0010 0CBF     		ite	eq
 471 0012 0023     		moveq	r3, #0
 472 0014 0123     		movne	r3, #1
 473 0016 DBB2     		uxtb	r3, r3
 474              		.loc 8 227 0
 475 0018 1846     		mov	r0, r3
 476 001a 0C37     		adds	r7, r7, #12
 477 001c BD46     		mov	sp, r7
 478              		@ sp needed
 479 001e 5DF8047B 		ldr	r7, [sp], #4
 480 0022 7047     		bx	lr
 481              		.cfi_endproc
 482              	.LFE207:
 483              		.size	chEvtIsListeningI, .-chEvtIsListeningI
 484 0024 AFF30080 		.section	.text.chEvtBroadcast,"ax",%progbits
 484      AFF30080 
 484      AFF30080 
 485              		.align	2
 486              		.p2align 4,,15
 487              		.thumb
 488              		.thumb_func
 489              		.type	chEvtBroadcast, %function
 490              	chEvtBroadcast:
 491              	.LFB208:
 492              		.loc 8 237 0
 493              		.cfi_startproc
 494              		@ args = 0, pretend = 0, frame = 8
 495              		@ frame_needed = 1, uses_anonymous_args = 0
 496 0000 80B5     		push	{r7, lr}
 497              		.cfi_def_cfa_offset 8
 498              		.cfi_offset 7, -8
 499              		.cfi_offset 14, -4
 500 0002 82B0     		sub	sp, sp, #8
 501              		.cfi_def_cfa_offset 16
 502 0004 00AF     		add	r7, sp, #0
ARM GAS  C:\Users\Luis\AppData\Local\Temp\ccbrxzu2.s 			page 10


 503              		.cfi_def_cfa_register 7
 504 0006 7860     		str	r0, [r7, #4]
 505              		.loc 8 239 0
 506 0008 7868     		ldr	r0, [r7, #4]
 507 000a 0021     		movs	r1, #0
 508 000c FFF7FEFF 		bl	chEvtBroadcastFlags
 509              		.loc 8 240 0
 510 0010 0837     		adds	r7, r7, #8
 511 0012 BD46     		mov	sp, r7
 512              		@ sp needed
 513 0014 80BD     		pop	{r7, pc}
 514              		.cfi_endproc
 515              	.LFE208:
 516              		.size	chEvtBroadcast, .-chEvtBroadcast
 517 0016 00BFAFF3 		.section	.data.es1,"aw",%progbits
 517      0080AFF3 
 517      0080
 518              		.align	2
 519              		.type	es1, %object
 520              		.size	es1, 4
 521              	es1:
 522 0000 00000000 		.word	es1
 523              		.section	.data.es2,"aw",%progbits
 524              		.align	2
 525              		.type	es2, %object
 526              		.size	es2, 4
 527              	es2:
 528 0000 00000000 		.word	es2
 529              		.section	.text.evt1_setup,"ax",%progbits
 530              		.align	2
 531              		.p2align 4,,15
 532              		.thumb
 533              		.thumb_func
 534              		.type	evt1_setup, %function
 535              	evt1_setup:
 536              	.LFB229:
 537              		.file 9 "../../ChibiOS/test/rt/testevt.c"
 538              		.loc 9 75 0
 539              		.cfi_startproc
 540              		@ args = 0, pretend = 0, frame = 0
 541              		@ frame_needed = 1, uses_anonymous_args = 0
 542 0000 80B5     		push	{r7, lr}
 543              		.cfi_def_cfa_offset 8
 544              		.cfi_offset 7, -8
 545              		.cfi_offset 14, -4
 546 0002 00AF     		add	r7, sp, #0
 547              		.cfi_def_cfa_register 7
 548              		.loc 9 77 0
 549 0004 4FF0FF30 		mov	r0, #-1
 550 0008 FFF7FEFF 		bl	chEvtGetAndClearEvents
 551              		.loc 9 78 0
 552 000c 80BD     		pop	{r7, pc}
 553              		.cfi_endproc
 554              	.LFE229:
 555              		.size	evt1_setup, .-evt1_setup
 556 000e 00BF     		.section	.text.h1,"ax",%progbits
 557              		.align	2
ARM GAS  C:\Users\Luis\AppData\Local\Temp\ccbrxzu2.s 			page 11


 558              		.p2align 4,,15
 559              		.thumb
 560              		.thumb_func
 561              		.type	h1, %function
 562              	h1:
 563              	.LFB230:
 564              		.loc 9 80 0
 565              		.cfi_startproc
 566              		@ args = 0, pretend = 0, frame = 8
 567              		@ frame_needed = 1, uses_anonymous_args = 0
 568 0000 80B5     		push	{r7, lr}
 569              		.cfi_def_cfa_offset 8
 570              		.cfi_offset 7, -8
 571              		.cfi_offset 14, -4
 572 0002 82B0     		sub	sp, sp, #8
 573              		.cfi_def_cfa_offset 16
 574 0004 00AF     		add	r7, sp, #0
 575              		.cfi_def_cfa_register 7
 576 0006 7860     		str	r0, [r7, #4]
 577              		.loc 9 80 0
 578 0008 4120     		movs	r0, #65
 579 000a FFF7FEFF 		bl	test_emit_token
 580 000e 0837     		adds	r7, r7, #8
 581 0010 BD46     		mov	sp, r7
 582              		@ sp needed
 583 0012 80BD     		pop	{r7, pc}
 584              		.cfi_endproc
 585              	.LFE230:
 586              		.size	h1, .-h1
 587 0014 AFF30080 		.section	.text.h2,"ax",%progbits
 587      AFF30080 
 587      AFF30080 
 588              		.align	2
 589              		.p2align 4,,15
 590              		.thumb
 591              		.thumb_func
 592              		.type	h2, %function
 593              	h2:
 594              	.LFB231:
 595              		.loc 9 81 0
 596              		.cfi_startproc
 597              		@ args = 0, pretend = 0, frame = 8
 598              		@ frame_needed = 1, uses_anonymous_args = 0
 599 0000 80B5     		push	{r7, lr}
 600              		.cfi_def_cfa_offset 8
 601              		.cfi_offset 7, -8
 602              		.cfi_offset 14, -4
 603 0002 82B0     		sub	sp, sp, #8
 604              		.cfi_def_cfa_offset 16
 605 0004 00AF     		add	r7, sp, #0
 606              		.cfi_def_cfa_register 7
 607 0006 7860     		str	r0, [r7, #4]
 608              		.loc 9 81 0
 609 0008 4220     		movs	r0, #66
 610 000a FFF7FEFF 		bl	test_emit_token
 611 000e 0837     		adds	r7, r7, #8
 612 0010 BD46     		mov	sp, r7
ARM GAS  C:\Users\Luis\AppData\Local\Temp\ccbrxzu2.s 			page 12


 613              		@ sp needed
 614 0012 80BD     		pop	{r7, pc}
 615              		.cfi_endproc
 616              	.LFE231:
 617              		.size	h2, .-h2
 618 0014 AFF30080 		.section	.text.h3,"ax",%progbits
 618      AFF30080 
 618      AFF30080 
 619              		.align	2
 620              		.p2align 4,,15
 621              		.thumb
 622              		.thumb_func
 623              		.type	h3, %function
 624              	h3:
 625              	.LFB232:
 626              		.loc 9 82 0
 627              		.cfi_startproc
 628              		@ args = 0, pretend = 0, frame = 8
 629              		@ frame_needed = 1, uses_anonymous_args = 0
 630 0000 80B5     		push	{r7, lr}
 631              		.cfi_def_cfa_offset 8
 632              		.cfi_offset 7, -8
 633              		.cfi_offset 14, -4
 634 0002 82B0     		sub	sp, sp, #8
 635              		.cfi_def_cfa_offset 16
 636 0004 00AF     		add	r7, sp, #0
 637              		.cfi_def_cfa_register 7
 638 0006 7860     		str	r0, [r7, #4]
 639              		.loc 9 82 0
 640 0008 4320     		movs	r0, #67
 641 000a FFF7FEFF 		bl	test_emit_token
 642 000e 0837     		adds	r7, r7, #8
 643 0010 BD46     		mov	sp, r7
 644              		@ sp needed
 645 0012 80BD     		pop	{r7, pc}
 646              		.cfi_endproc
 647              	.LFE232:
 648              		.size	h3, .-h3
 649 0014 AFF30080 		.section	.rodata.evhndl,"a",%progbits
 649      AFF30080 
 649      AFF30080 
 650              		.align	2
 651              		.type	evhndl, %object
 652              		.size	evhndl, 12
 653              	evhndl:
 654 0000 00000000 		.word	h1
 655 0004 00000000 		.word	h2
 656 0008 00000000 		.word	h3
 657              		.section	.rodata
 658              		.align	2
 659              	.LC0:
 660 0000 41424300 		.ascii	"ABC\000"
 661              		.section	.text.evt1_execute,"ax",%progbits
 662              		.align	2
 663              		.p2align 4,,15
 664              		.thumb
 665              		.thumb_func
ARM GAS  C:\Users\Luis\AppData\Local\Temp\ccbrxzu2.s 			page 13


 666              		.type	evt1_execute, %function
 667              	evt1_execute:
 668              	.LFB233:
 669              		.loc 9 85 0
 670              		.cfi_startproc
 671              		@ args = 0, pretend = 0, frame = 40
 672              		@ frame_needed = 1, uses_anonymous_args = 0
 673 0000 80B5     		push	{r7, lr}
 674              		.cfi_def_cfa_offset 8
 675              		.cfi_offset 7, -8
 676              		.cfi_offset 14, -4
 677 0002 8AB0     		sub	sp, sp, #40
 678              		.cfi_def_cfa_offset 48
 679 0004 00AF     		add	r7, sp, #0
 680              		.cfi_def_cfa_register 7
 681              		.loc 9 91 0
 682 0006 2C48     		ldr	r0, .L38
 683 0008 FFF7FEFF 		bl	chEvtObjectInit
 684              		.loc 9 92 0
 685 000c 07F11403 		add	r3, r7, #20
 686 0010 2948     		ldr	r0, .L38
 687 0012 1946     		mov	r1, r3
 688 0014 0122     		movs	r2, #1
 689 0016 FFF7FEFF 		bl	chEvtRegisterMask
 690              		.loc 9 93 0
 691 001a 3B46     		mov	r3, r7
 692 001c 2648     		ldr	r0, .L38
 693 001e 1946     		mov	r1, r3
 694 0020 0222     		movs	r2, #2
 695 0022 FFF7FEFF 		bl	chEvtRegisterMask
 696              		.loc 9 94 0
 697 0026 2448     		ldr	r0, .L38
 698 0028 FFF7FEFF 		bl	chEvtIsListeningI
 699 002c 0346     		mov	r3, r0
 700 002e 0120     		movs	r0, #1
 701 0030 1946     		mov	r1, r3
 702 0032 FFF7FEFF 		bl	_test_assert
 703 0036 0346     		mov	r3, r0
 704 0038 002B     		cmp	r3, #0
 705 003a 00D0     		beq	.L32
 706              		.loc 9 94 0 is_stmt 0 discriminator 1
 707 003c 39E0     		b	.L31
 708              	.L32:
 709              		.loc 9 95 0 is_stmt 1
 710 003e 07F11403 		add	r3, r7, #20
 711 0042 1D48     		ldr	r0, .L38
 712 0044 1946     		mov	r1, r3
 713 0046 FFF7FEFF 		bl	chEvtUnregister
 714              		.loc 9 96 0
 715 004a 1B48     		ldr	r0, .L38
 716 004c FFF7FEFF 		bl	chEvtIsListeningI
 717 0050 0346     		mov	r3, r0
 718 0052 0220     		movs	r0, #2
 719 0054 1946     		mov	r1, r3
 720 0056 FFF7FEFF 		bl	_test_assert
 721 005a 0346     		mov	r3, r0
 722 005c 002B     		cmp	r3, #0
ARM GAS  C:\Users\Luis\AppData\Local\Temp\ccbrxzu2.s 			page 14


 723 005e 00D0     		beq	.L34
 724              		.loc 9 96 0 is_stmt 0 discriminator 1
 725 0060 27E0     		b	.L31
 726              	.L34:
 727              		.loc 9 97 0 is_stmt 1
 728 0062 3B46     		mov	r3, r7
 729 0064 1448     		ldr	r0, .L38
 730 0066 1946     		mov	r1, r3
 731 0068 FFF7FEFF 		bl	chEvtUnregister
 732              		.loc 9 98 0
 733 006c 1248     		ldr	r0, .L38
 734 006e FFF7FEFF 		bl	chEvtIsListeningI
 735 0072 0346     		mov	r3, r0
 736 0074 002B     		cmp	r3, #0
 737 0076 0CBF     		ite	eq
 738 0078 0023     		moveq	r3, #0
 739 007a 0123     		movne	r3, #1
 740 007c DBB2     		uxtb	r3, r3
 741 007e 83F00103 		eor	r3, r3, #1
 742 0082 DBB2     		uxtb	r3, r3
 743 0084 03F00103 		and	r3, r3, #1
 744 0088 DBB2     		uxtb	r3, r3
 745 008a 0320     		movs	r0, #3
 746 008c 1946     		mov	r1, r3
 747 008e FFF7FEFF 		bl	_test_assert
 748 0092 0346     		mov	r3, r0
 749 0094 002B     		cmp	r3, #0
 750 0096 00D0     		beq	.L35
 751              		.loc 9 98 0 is_stmt 0 discriminator 1
 752 0098 0BE0     		b	.L31
 753              	.L35:
 754              		.loc 9 103 0 is_stmt 1
 755 009a 0848     		ldr	r0, .L38+4
 756 009c 0721     		movs	r1, #7
 757 009e FFF7FEFF 		bl	chEvtDispatch
 758              		.loc 9 104 0
 759 00a2 0420     		movs	r0, #4
 760 00a4 0649     		ldr	r1, .L38+8
 761 00a6 FFF7FEFF 		bl	_test_assert_sequence
 762 00aa 0346     		mov	r3, r0
 763 00ac 002B     		cmp	r3, #0
 764 00ae 00D0     		beq	.L31
 765 00b0 00BF     		nop
 766              	.L31:
 767              		.loc 9 105 0
 768 00b2 2837     		adds	r7, r7, #40
 769 00b4 BD46     		mov	sp, r7
 770              		@ sp needed
 771 00b6 80BD     		pop	{r7, pc}
 772              	.L39:
 773              		.align	2
 774              	.L38:
 775 00b8 00000000 		.word	es1
 776 00bc 00000000 		.word	evhndl
 777 00c0 00000000 		.word	.LC0
 778              		.cfi_endproc
 779              	.LFE233:
ARM GAS  C:\Users\Luis\AppData\Local\Temp\ccbrxzu2.s 			page 15


 780              		.size	evt1_execute, .-evt1_execute
 781              		.global	testevt1
 782 00c4 AFF30080 		.section	.rodata
 782      AFF30080 
 782      AFF30080 
 783              		.align	2
 784              	.LC1:
 785 0004 4576656E 		.ascii	"Events, registration and dispatch\000"
 785      74732C20 
 785      72656769 
 785      73747261 
 785      74696F6E 
 786              		.section	.rodata.testevt1,"a",%progbits
 787              		.align	2
 788              		.type	testevt1, %object
 789              		.size	testevt1, 16
 790              	testevt1:
 791 0000 04000000 		.word	.LC1
 792 0004 00000000 		.word	evt1_setup
 793 0008 00000000 		.word	0
 794 000c 00000000 		.word	evt1_execute
 795              		.section	.text.evt2_setup,"ax",%progbits
 796              		.align	2
 797              		.p2align 4,,15
 798              		.thumb
 799              		.thumb_func
 800              		.type	evt2_setup, %function
 801              	evt2_setup:
 802              	.LFB234:
 803              		.loc 9 128 0
 804              		.cfi_startproc
 805              		@ args = 0, pretend = 0, frame = 0
 806              		@ frame_needed = 1, uses_anonymous_args = 0
 807 0000 80B5     		push	{r7, lr}
 808              		.cfi_def_cfa_offset 8
 809              		.cfi_offset 7, -8
 810              		.cfi_offset 14, -4
 811 0002 00AF     		add	r7, sp, #0
 812              		.cfi_def_cfa_register 7
 813              		.loc 9 130 0
 814 0004 4FF0FF30 		mov	r0, #-1
 815 0008 FFF7FEFF 		bl	chEvtGetAndClearEvents
 816              		.loc 9 131 0
 817 000c 80BD     		pop	{r7, pc}
 818              		.cfi_endproc
 819              	.LFE234:
 820              		.size	evt2_setup, .-evt2_setup
 821 000e 00BF     		.section	.text.thread1,"ax",%progbits
 822              		.align	2
 823              		.p2align 4,,15
 824              		.thumb
 825              		.thumb_func
 826              		.type	thread1, %function
 827              	thread1:
 828              	.LFB235:
 829              		.loc 9 133 0
 830              		.cfi_startproc
ARM GAS  C:\Users\Luis\AppData\Local\Temp\ccbrxzu2.s 			page 16


 831              		@ args = 0, pretend = 0, frame = 8
 832              		@ frame_needed = 1, uses_anonymous_args = 0
 833 0000 80B5     		push	{r7, lr}
 834              		.cfi_def_cfa_offset 8
 835              		.cfi_offset 7, -8
 836              		.cfi_offset 14, -4
 837 0002 82B0     		sub	sp, sp, #8
 838              		.cfi_def_cfa_offset 16
 839 0004 00AF     		add	r7, sp, #0
 840              		.cfi_def_cfa_register 7
 841 0006 7860     		str	r0, [r7, #4]
 842              		.loc 9 135 0
 843 0008 4FF4FA70 		mov	r0, #500
 844 000c FFF7FEFF 		bl	chThdSleep
 845              		.loc 9 136 0
 846 0010 7868     		ldr	r0, [r7, #4]
 847 0012 0121     		movs	r1, #1
 848 0014 FFF7FEFF 		bl	chEvtSignal
 849              		.loc 9 137 0
 850 0018 0837     		adds	r7, r7, #8
 851 001a BD46     		mov	sp, r7
 852              		@ sp needed
 853 001c 80BD     		pop	{r7, pc}
 854              		.cfi_endproc
 855              	.LFE235:
 856              		.size	thread1, .-thread1
 857 001e 00BF     		.section	.text.thread2,"ax",%progbits
 858              		.align	2
 859              		.p2align 4,,15
 860              		.thumb
 861              		.thumb_func
 862              		.type	thread2, %function
 863              	thread2:
 864              	.LFB236:
 865              		.loc 9 139 0
 866              		.cfi_startproc
 867              		@ args = 0, pretend = 0, frame = 8
 868              		@ frame_needed = 1, uses_anonymous_args = 0
 869 0000 80B5     		push	{r7, lr}
 870              		.cfi_def_cfa_offset 8
 871              		.cfi_offset 7, -8
 872              		.cfi_offset 14, -4
 873 0002 82B0     		sub	sp, sp, #8
 874              		.cfi_def_cfa_offset 16
 875 0004 00AF     		add	r7, sp, #0
 876              		.cfi_def_cfa_register 7
 877 0006 7860     		str	r0, [r7, #4]
 878              		.loc 9 142 0
 879 0008 0648     		ldr	r0, .L43
 880 000a FFF7FEFF 		bl	chEvtBroadcast
 881              		.loc 9 143 0
 882 000e 4FF4FA70 		mov	r0, #500
 883 0012 FFF7FEFF 		bl	chThdSleep
 884              		.loc 9 144 0
 885 0016 0448     		ldr	r0, .L43+4
 886 0018 FFF7FEFF 		bl	chEvtBroadcast
 887              		.loc 9 145 0
ARM GAS  C:\Users\Luis\AppData\Local\Temp\ccbrxzu2.s 			page 17


 888 001c 0837     		adds	r7, r7, #8
 889 001e BD46     		mov	sp, r7
 890              		@ sp needed
 891 0020 80BD     		pop	{r7, pc}
 892              	.L44:
 893 0022 00BF     		.align	2
 894              	.L43:
 895 0024 00000000 		.word	es1
 896 0028 00000000 		.word	es2
 897              		.cfi_endproc
 898              	.LFE236:
 899              		.size	thread2, .-thread2
 900 002c AFF30080 		.section	.rodata
 901 0026 0000     		.align	2
 902              	.LC2:
 903 0028 4100     		.ascii	"A\000"
 904              		.section	.text.evt2_execute,"ax",%progbits
 905              		.align	2
 906              		.p2align 4,,15
 907              		.thumb
 908              		.thumb_func
 909              		.type	evt2_execute, %function
 910              	evt2_execute:
 911              	.LFB237:
 912              		.loc 9 147 0
 913              		.cfi_startproc
 914              		@ args = 0, pretend = 0, frame = 48
 915              		@ frame_needed = 1, uses_anonymous_args = 0
 916 0000 B0B5     		push	{r4, r5, r7, lr}
 917              		.cfi_def_cfa_offset 16
 918              		.cfi_offset 4, -16
 919              		.cfi_offset 5, -12
 920              		.cfi_offset 7, -8
 921              		.cfi_offset 14, -4
 922 0002 8EB0     		sub	sp, sp, #56
 923              		.cfi_def_cfa_offset 72
 924 0004 02AF     		add	r7, sp, #8
 925              		.cfi_def_cfa 7, 64
 926              		.loc 9 155 0
 927 0006 0720     		movs	r0, #7
 928 0008 FFF7FEFF 		bl	chEvtAddEvents
 929              		.loc 9 156 0
 930 000c 4FF0FF30 		mov	r0, #-1
 931 0010 FFF7FEFF 		bl	chEvtWaitOne
 932 0014 F862     		str	r0, [r7, #44]
 933              		.loc 9 157 0
 934 0016 FB6A     		ldr	r3, [r7, #44]
 935 0018 012B     		cmp	r3, #1
 936 001a 14BF     		ite	ne
 937 001c 0023     		movne	r3, #0
 938 001e 0123     		moveq	r3, #1
 939 0020 DBB2     		uxtb	r3, r3
 940 0022 0120     		movs	r0, #1
 941 0024 1946     		mov	r1, r3
 942 0026 FFF7FEFF 		bl	_test_assert
 943 002a 0346     		mov	r3, r0
 944 002c 002B     		cmp	r3, #0
ARM GAS  C:\Users\Luis\AppData\Local\Temp\ccbrxzu2.s 			page 18


 945 002e 00D0     		beq	.L46
 946              		.loc 9 157 0 is_stmt 0 discriminator 1
 947 0030 89E1     		b	.L45
 948              	.L46:
 949              		.loc 9 158 0 is_stmt 1
 950 0032 4FF0FF30 		mov	r0, #-1
 951 0036 FFF7FEFF 		bl	chEvtWaitOne
 952 003a F862     		str	r0, [r7, #44]
 953              		.loc 9 159 0
 954 003c FB6A     		ldr	r3, [r7, #44]
 955 003e 022B     		cmp	r3, #2
 956 0040 14BF     		ite	ne
 957 0042 0023     		movne	r3, #0
 958 0044 0123     		moveq	r3, #1
 959 0046 DBB2     		uxtb	r3, r3
 960 0048 0220     		movs	r0, #2
 961 004a 1946     		mov	r1, r3
 962 004c FFF7FEFF 		bl	_test_assert
 963 0050 0346     		mov	r3, r0
 964 0052 002B     		cmp	r3, #0
 965 0054 00D0     		beq	.L48
 966              		.loc 9 159 0 is_stmt 0 discriminator 1
 967 0056 76E1     		b	.L45
 968              	.L48:
 969              		.loc 9 160 0 is_stmt 1
 970 0058 4FF0FF30 		mov	r0, #-1
 971 005c FFF7FEFF 		bl	chEvtWaitOne
 972 0060 F862     		str	r0, [r7, #44]
 973              		.loc 9 161 0
 974 0062 FB6A     		ldr	r3, [r7, #44]
 975 0064 042B     		cmp	r3, #4
 976 0066 14BF     		ite	ne
 977 0068 0023     		movne	r3, #0
 978 006a 0123     		moveq	r3, #1
 979 006c DBB2     		uxtb	r3, r3
 980 006e 0320     		movs	r0, #3
 981 0070 1946     		mov	r1, r3
 982 0072 FFF7FEFF 		bl	_test_assert
 983 0076 0346     		mov	r3, r0
 984 0078 002B     		cmp	r3, #0
 985 007a 00D0     		beq	.L49
 986              		.loc 9 161 0 is_stmt 0 discriminator 1
 987 007c 63E1     		b	.L45
 988              	.L49:
 989              		.loc 9 162 0 is_stmt 1
 990 007e 4FF0FF30 		mov	r0, #-1
 991 0082 FFF7FEFF 		bl	chEvtGetAndClearEvents
 992 0086 F862     		str	r0, [r7, #44]
 993              		.loc 9 163 0
 994 0088 FB6A     		ldr	r3, [r7, #44]
 995 008a 002B     		cmp	r3, #0
 996 008c 14BF     		ite	ne
 997 008e 0023     		movne	r3, #0
 998 0090 0123     		moveq	r3, #1
 999 0092 DBB2     		uxtb	r3, r3
 1000 0094 0420     		movs	r0, #4
 1001 0096 1946     		mov	r1, r3
ARM GAS  C:\Users\Luis\AppData\Local\Temp\ccbrxzu2.s 			page 19


 1002 0098 FFF7FEFF 		bl	_test_assert
 1003 009c 0346     		mov	r3, r0
 1004 009e 002B     		cmp	r3, #0
 1005 00a0 00D0     		beq	.L50
 1006              		.loc 9 163 0 is_stmt 0 discriminator 1
 1007 00a2 50E1     		b	.L45
 1008              	.L50:
 1009              		.loc 9 168 0 is_stmt 1
 1010 00a4 FFF7FEFF 		bl	test_wait_tick
 1011              		.loc 9 169 0
 1012 00a8 FFF7FEFF 		bl	chVTGetSystemTime
 1013 00ac 0346     		mov	r3, r0
 1014 00ae 03F5FA73 		add	r3, r3, #500
 1015 00b2 BB62     		str	r3, [r7, #40]
 1016              		.loc 9 170 0
 1017 00b4 A54B     		ldr	r3, .L64
 1018 00b6 1D68     		ldr	r5, [r3]
 1019 00b8 FFF7FEFF 		bl	chThdGetPriorityX
 1020 00bc 0346     		mov	r3, r0
 1021 00be 5C1E     		subs	r4, r3, #1
 1022              		.loc 9 171 0
 1023 00c0 FFF7FEFF 		bl	chThdGetSelfX
 1024 00c4 0346     		mov	r3, r0
 1025              		.loc 9 170 0
 1026 00c6 0093     		str	r3, [sp]
 1027 00c8 2846     		mov	r0, r5
 1028 00ca 4FF4B871 		mov	r1, #368
 1029 00ce 2246     		mov	r2, r4
 1030 00d0 9F4B     		ldr	r3, .L64+4
 1031 00d2 FFF7FEFF 		bl	chThdCreateStatic
 1032 00d6 0246     		mov	r2, r0
 1033 00d8 9E4B     		ldr	r3, .L64+8
 1034 00da 1A60     		str	r2, [r3]
 1035              		.loc 9 172 0
 1036 00dc 4FF0FF30 		mov	r0, #-1
 1037 00e0 FFF7FEFF 		bl	chEvtWaitOne
 1038 00e4 F862     		str	r0, [r7, #44]
 1039              		.loc 9 173 0
 1040 00e6 BB6A     		ldr	r3, [r7, #40]
 1041 00e8 3233     		adds	r3, r3, #50
 1042 00ea 0520     		movs	r0, #5
 1043 00ec B96A     		ldr	r1, [r7, #40]
 1044 00ee 1A46     		mov	r2, r3
 1045 00f0 FFF7FEFF 		bl	_test_assert_time_window
 1046 00f4 0346     		mov	r3, r0
 1047 00f6 002B     		cmp	r3, #0
 1048 00f8 00D0     		beq	.L51
 1049              		.loc 9 173 0 is_stmt 0 discriminator 1
 1050 00fa 24E1     		b	.L45
 1051              	.L51:
 1052              		.loc 9 174 0 is_stmt 1
 1053 00fc FB6A     		ldr	r3, [r7, #44]
 1054 00fe 012B     		cmp	r3, #1
 1055 0100 14BF     		ite	ne
 1056 0102 0023     		movne	r3, #0
 1057 0104 0123     		moveq	r3, #1
 1058 0106 DBB2     		uxtb	r3, r3
ARM GAS  C:\Users\Luis\AppData\Local\Temp\ccbrxzu2.s 			page 20


 1059 0108 0620     		movs	r0, #6
 1060 010a 1946     		mov	r1, r3
 1061 010c FFF7FEFF 		bl	_test_assert
 1062 0110 0346     		mov	r3, r0
 1063 0112 002B     		cmp	r3, #0
 1064 0114 00D0     		beq	.L52
 1065              		.loc 9 174 0 is_stmt 0 discriminator 1
 1066 0116 16E1     		b	.L45
 1067              	.L52:
 1068              		.loc 9 175 0 is_stmt 1
 1069 0118 4FF0FF30 		mov	r0, #-1
 1070 011c FFF7FEFF 		bl	chEvtGetAndClearEvents
 1071 0120 F862     		str	r0, [r7, #44]
 1072              		.loc 9 176 0
 1073 0122 FB6A     		ldr	r3, [r7, #44]
 1074 0124 002B     		cmp	r3, #0
 1075 0126 14BF     		ite	ne
 1076 0128 0023     		movne	r3, #0
 1077 012a 0123     		moveq	r3, #1
 1078 012c DBB2     		uxtb	r3, r3
 1079 012e 0720     		movs	r0, #7
 1080 0130 1946     		mov	r1, r3
 1081 0132 FFF7FEFF 		bl	_test_assert
 1082 0136 0346     		mov	r3, r0
 1083 0138 002B     		cmp	r3, #0
 1084 013a 00D0     		beq	.L53
 1085              		.loc 9 176 0 is_stmt 0 discriminator 1
 1086 013c 03E1     		b	.L45
 1087              	.L53:
 1088              		.loc 9 177 0 is_stmt 1
 1089 013e FFF7FEFF 		bl	test_wait_threads
 1090              		.loc 9 182 0
 1091 0142 0520     		movs	r0, #5
 1092 0144 FFF7FEFF 		bl	chEvtAddEvents
 1093              		.loc 9 183 0
 1094 0148 4FF0FF30 		mov	r0, #-1
 1095 014c FFF7FEFF 		bl	chEvtWaitAny
 1096 0150 F862     		str	r0, [r7, #44]
 1097              		.loc 9 184 0
 1098 0152 FB6A     		ldr	r3, [r7, #44]
 1099 0154 052B     		cmp	r3, #5
 1100 0156 14BF     		ite	ne
 1101 0158 0023     		movne	r3, #0
 1102 015a 0123     		moveq	r3, #1
 1103 015c DBB2     		uxtb	r3, r3
 1104 015e 0820     		movs	r0, #8
 1105 0160 1946     		mov	r1, r3
 1106 0162 FFF7FEFF 		bl	_test_assert
 1107 0166 0346     		mov	r3, r0
 1108 0168 002B     		cmp	r3, #0
 1109 016a 00D0     		beq	.L54
 1110              		.loc 9 184 0 is_stmt 0 discriminator 1
 1111 016c EBE0     		b	.L45
 1112              	.L54:
 1113              		.loc 9 185 0 is_stmt 1
 1114 016e 4FF0FF30 		mov	r0, #-1
 1115 0172 FFF7FEFF 		bl	chEvtGetAndClearEvents
ARM GAS  C:\Users\Luis\AppData\Local\Temp\ccbrxzu2.s 			page 21


 1116 0176 F862     		str	r0, [r7, #44]
 1117              		.loc 9 186 0
 1118 0178 FB6A     		ldr	r3, [r7, #44]
 1119 017a 002B     		cmp	r3, #0
 1120 017c 14BF     		ite	ne
 1121 017e 0023     		movne	r3, #0
 1122 0180 0123     		moveq	r3, #1
 1123 0182 DBB2     		uxtb	r3, r3
 1124 0184 0920     		movs	r0, #9
 1125 0186 1946     		mov	r1, r3
 1126 0188 FFF7FEFF 		bl	_test_assert
 1127 018c 0346     		mov	r3, r0
 1128 018e 002B     		cmp	r3, #0
 1129 0190 00D0     		beq	.L55
 1130              		.loc 9 186 0 is_stmt 0 discriminator 1
 1131 0192 D8E0     		b	.L45
 1132              	.L55:
 1133              		.loc 9 191 0 is_stmt 1
 1134 0194 FFF7FEFF 		bl	test_wait_tick
 1135              		.loc 9 192 0
 1136 0198 FFF7FEFF 		bl	chVTGetSystemTime
 1137 019c 0346     		mov	r3, r0
 1138 019e 03F5FA73 		add	r3, r3, #500
 1139 01a2 BB62     		str	r3, [r7, #40]
 1140              		.loc 9 193 0
 1141 01a4 694B     		ldr	r3, .L64
 1142 01a6 1D68     		ldr	r5, [r3]
 1143 01a8 FFF7FEFF 		bl	chThdGetPriorityX
 1144 01ac 0346     		mov	r3, r0
 1145 01ae 5C1E     		subs	r4, r3, #1
 1146              		.loc 9 194 0
 1147 01b0 FFF7FEFF 		bl	chThdGetSelfX
 1148 01b4 0346     		mov	r3, r0
 1149              		.loc 9 193 0
 1150 01b6 0093     		str	r3, [sp]
 1151 01b8 2846     		mov	r0, r5
 1152 01ba 4FF4B871 		mov	r1, #368
 1153 01be 2246     		mov	r2, r4
 1154 01c0 634B     		ldr	r3, .L64+4
 1155 01c2 FFF7FEFF 		bl	chThdCreateStatic
 1156 01c6 0246     		mov	r2, r0
 1157 01c8 624B     		ldr	r3, .L64+8
 1158 01ca 1A60     		str	r2, [r3]
 1159              		.loc 9 195 0
 1160 01cc 4FF0FF30 		mov	r0, #-1
 1161 01d0 FFF7FEFF 		bl	chEvtWaitAny
 1162 01d4 F862     		str	r0, [r7, #44]
 1163              		.loc 9 196 0
 1164 01d6 BB6A     		ldr	r3, [r7, #40]
 1165 01d8 3233     		adds	r3, r3, #50
 1166 01da 0A20     		movs	r0, #10
 1167 01dc B96A     		ldr	r1, [r7, #40]
 1168 01de 1A46     		mov	r2, r3
 1169 01e0 FFF7FEFF 		bl	_test_assert_time_window
 1170 01e4 0346     		mov	r3, r0
 1171 01e6 002B     		cmp	r3, #0
 1172 01e8 00D0     		beq	.L56
ARM GAS  C:\Users\Luis\AppData\Local\Temp\ccbrxzu2.s 			page 22


 1173              		.loc 9 196 0 is_stmt 0 discriminator 1
 1174 01ea ACE0     		b	.L45
 1175              	.L56:
 1176              		.loc 9 197 0 is_stmt 1
 1177 01ec FB6A     		ldr	r3, [r7, #44]
 1178 01ee 012B     		cmp	r3, #1
 1179 01f0 14BF     		ite	ne
 1180 01f2 0023     		movne	r3, #0
 1181 01f4 0123     		moveq	r3, #1
 1182 01f6 DBB2     		uxtb	r3, r3
 1183 01f8 0B20     		movs	r0, #11
 1184 01fa 1946     		mov	r1, r3
 1185 01fc FFF7FEFF 		bl	_test_assert
 1186 0200 0346     		mov	r3, r0
 1187 0202 002B     		cmp	r3, #0
 1188 0204 00D0     		beq	.L57
 1189              		.loc 9 197 0 is_stmt 0 discriminator 1
 1190 0206 9EE0     		b	.L45
 1191              	.L57:
 1192              		.loc 9 198 0 is_stmt 1
 1193 0208 4FF0FF30 		mov	r0, #-1
 1194 020c FFF7FEFF 		bl	chEvtGetAndClearEvents
 1195 0210 F862     		str	r0, [r7, #44]
 1196              		.loc 9 199 0
 1197 0212 FB6A     		ldr	r3, [r7, #44]
 1198 0214 002B     		cmp	r3, #0
 1199 0216 14BF     		ite	ne
 1200 0218 0023     		movne	r3, #0
 1201 021a 0123     		moveq	r3, #1
 1202 021c DBB2     		uxtb	r3, r3
 1203 021e 0C20     		movs	r0, #12
 1204 0220 1946     		mov	r1, r3
 1205 0222 FFF7FEFF 		bl	_test_assert
 1206 0226 0346     		mov	r3, r0
 1207 0228 002B     		cmp	r3, #0
 1208 022a 00D0     		beq	.L58
 1209              		.loc 9 199 0 is_stmt 0 discriminator 1
 1210 022c 8BE0     		b	.L45
 1211              	.L58:
 1212              		.loc 9 200 0 is_stmt 1
 1213 022e FFF7FEFF 		bl	test_wait_threads
 1214              		.loc 9 205 0
 1215 0232 4948     		ldr	r0, .L64+12
 1216 0234 FFF7FEFF 		bl	chEvtObjectInit
 1217              		.loc 9 206 0
 1218 0238 4848     		ldr	r0, .L64+16
 1219 023a FFF7FEFF 		bl	chEvtObjectInit
 1220              		.loc 9 207 0
 1221 023e 07F11403 		add	r3, r7, #20
 1222 0242 4548     		ldr	r0, .L64+12
 1223 0244 1946     		mov	r1, r3
 1224 0246 0122     		movs	r2, #1
 1225 0248 FFF7FEFF 		bl	chEvtRegisterMask
 1226              		.loc 9 208 0
 1227 024c 3B46     		mov	r3, r7
 1228 024e 4348     		ldr	r0, .L64+16
 1229 0250 1946     		mov	r1, r3
ARM GAS  C:\Users\Luis\AppData\Local\Temp\ccbrxzu2.s 			page 23


 1230 0252 0422     		movs	r2, #4
 1231 0254 FFF7FEFF 		bl	chEvtRegisterMask
 1232              		.loc 9 209 0
 1233 0258 FFF7FEFF 		bl	test_wait_tick
 1234              		.loc 9 210 0
 1235 025c FFF7FEFF 		bl	chVTGetSystemTime
 1236 0260 0346     		mov	r3, r0
 1237 0262 03F5FA73 		add	r3, r3, #500
 1238 0266 BB62     		str	r3, [r7, #40]
 1239              		.loc 9 211 0
 1240 0268 384B     		ldr	r3, .L64
 1241 026a 1C68     		ldr	r4, [r3]
 1242 026c FFF7FEFF 		bl	chThdGetPriorityX
 1243 0270 0346     		mov	r3, r0
 1244 0272 013B     		subs	r3, r3, #1
 1245 0274 3A4A     		ldr	r2, .L64+20
 1246 0276 0092     		str	r2, [sp]
 1247 0278 2046     		mov	r0, r4
 1248 027a 4FF4B871 		mov	r1, #368
 1249 027e 1A46     		mov	r2, r3
 1250 0280 384B     		ldr	r3, .L64+24
 1251 0282 FFF7FEFF 		bl	chThdCreateStatic
 1252 0286 0246     		mov	r2, r0
 1253 0288 324B     		ldr	r3, .L64+8
 1254 028a 1A60     		str	r2, [r3]
 1255              		.loc 9 213 0
 1256 028c 0520     		movs	r0, #5
 1257 028e FFF7FEFF 		bl	chEvtWaitAll
 1258 0292 F862     		str	r0, [r7, #44]
 1259              		.loc 9 214 0
 1260 0294 BB6A     		ldr	r3, [r7, #40]
 1261 0296 3233     		adds	r3, r3, #50
 1262 0298 0D20     		movs	r0, #13
 1263 029a B96A     		ldr	r1, [r7, #40]
 1264 029c 1A46     		mov	r2, r3
 1265 029e FFF7FEFF 		bl	_test_assert_time_window
 1266 02a2 0346     		mov	r3, r0
 1267 02a4 002B     		cmp	r3, #0
 1268 02a6 00D0     		beq	.L59
 1269              		.loc 9 214 0 is_stmt 0 discriminator 1
 1270 02a8 4DE0     		b	.L45
 1271              	.L59:
 1272              		.loc 9 215 0 is_stmt 1
 1273 02aa 4FF0FF30 		mov	r0, #-1
 1274 02ae FFF7FEFF 		bl	chEvtGetAndClearEvents
 1275 02b2 F862     		str	r0, [r7, #44]
 1276              		.loc 9 216 0
 1277 02b4 FB6A     		ldr	r3, [r7, #44]
 1278 02b6 002B     		cmp	r3, #0
 1279 02b8 14BF     		ite	ne
 1280 02ba 0023     		movne	r3, #0
 1281 02bc 0123     		moveq	r3, #1
 1282 02be DBB2     		uxtb	r3, r3
 1283 02c0 0E20     		movs	r0, #14
 1284 02c2 1946     		mov	r1, r3
 1285 02c4 FFF7FEFF 		bl	_test_assert
 1286 02c8 0346     		mov	r3, r0
ARM GAS  C:\Users\Luis\AppData\Local\Temp\ccbrxzu2.s 			page 24


 1287 02ca 002B     		cmp	r3, #0
 1288 02cc 00D0     		beq	.L60
 1289              		.loc 9 216 0 is_stmt 0 discriminator 1
 1290 02ce 3AE0     		b	.L45
 1291              	.L60:
 1292              		.loc 9 217 0 is_stmt 1
 1293 02d0 FFF7FEFF 		bl	test_wait_threads
 1294              		.loc 9 218 0
 1295 02d4 07F11403 		add	r3, r7, #20
 1296 02d8 1F48     		ldr	r0, .L64+12
 1297 02da 1946     		mov	r1, r3
 1298 02dc FFF7FEFF 		bl	chEvtUnregister
 1299              		.loc 9 219 0
 1300 02e0 3B46     		mov	r3, r7
 1301 02e2 1E48     		ldr	r0, .L64+16
 1302 02e4 1946     		mov	r1, r3
 1303 02e6 FFF7FEFF 		bl	chEvtUnregister
 1304              		.loc 9 220 0
 1305 02ea 1B48     		ldr	r0, .L64+12
 1306 02ec FFF7FEFF 		bl	chEvtIsListeningI
 1307 02f0 0346     		mov	r3, r0
 1308 02f2 002B     		cmp	r3, #0
 1309 02f4 0CBF     		ite	eq
 1310 02f6 0023     		moveq	r3, #0
 1311 02f8 0123     		movne	r3, #1
 1312 02fa DBB2     		uxtb	r3, r3
 1313 02fc 83F00103 		eor	r3, r3, #1
 1314 0300 DBB2     		uxtb	r3, r3
 1315 0302 03F00103 		and	r3, r3, #1
 1316 0306 DBB2     		uxtb	r3, r3
 1317 0308 0F20     		movs	r0, #15
 1318 030a 1946     		mov	r1, r3
 1319 030c FFF7FEFF 		bl	_test_assert
 1320 0310 0346     		mov	r3, r0
 1321 0312 002B     		cmp	r3, #0
 1322 0314 00D0     		beq	.L61
 1323              		.loc 9 220 0 is_stmt 0 discriminator 1
 1324 0316 16E0     		b	.L45
 1325              	.L61:
 1326              		.loc 9 221 0 is_stmt 1
 1327 0318 1048     		ldr	r0, .L64+16
 1328 031a FFF7FEFF 		bl	chEvtIsListeningI
 1329 031e 0346     		mov	r3, r0
 1330 0320 002B     		cmp	r3, #0
 1331 0322 0CBF     		ite	eq
 1332 0324 0023     		moveq	r3, #0
 1333 0326 0123     		movne	r3, #1
 1334 0328 DBB2     		uxtb	r3, r3
 1335 032a 83F00103 		eor	r3, r3, #1
 1336 032e DBB2     		uxtb	r3, r3
 1337 0330 03F00103 		and	r3, r3, #1
 1338 0334 DBB2     		uxtb	r3, r3
 1339 0336 1020     		movs	r0, #16
 1340 0338 1946     		mov	r1, r3
 1341 033a FFF7FEFF 		bl	_test_assert
 1342 033e 0346     		mov	r3, r0
 1343 0340 002B     		cmp	r3, #0
ARM GAS  C:\Users\Luis\AppData\Local\Temp\ccbrxzu2.s 			page 25


 1344 0342 00D0     		beq	.L45
 1345 0344 00BF     		nop
 1346              	.L45:
 1347              		.loc 9 222 0
 1348 0346 3037     		adds	r7, r7, #48
 1349 0348 BD46     		mov	sp, r7
 1350              		@ sp needed
 1351 034a B0BD     		pop	{r4, r5, r7, pc}
 1352              	.L65:
 1353              		.align	2
 1354              	.L64:
 1355 034c 00000000 		.word	wa
 1356 0350 00000000 		.word	thread1
 1357 0354 00000000 		.word	threads
 1358 0358 00000000 		.word	es1
 1359 035c 00000000 		.word	es2
 1360 0360 28000000 		.word	.LC2
 1361 0364 00000000 		.word	thread2
 1362              		.cfi_endproc
 1363              	.LFE237:
 1364              		.size	evt2_execute, .-evt2_execute
 1365              		.global	testevt2
 1366 0368 AFF30080 		.section	.rodata
 1366      AFF30080 
 1367 002a 0000     		.align	2
 1368              	.LC3:
 1369 002c 4576656E 		.ascii	"Events, wait and broadcast\000"
 1369      74732C20 
 1369      77616974 
 1369      20616E64 
 1369      2062726F 
 1370              		.section	.rodata.testevt2,"a",%progbits
 1371              		.align	2
 1372              		.type	testevt2, %object
 1373              		.size	testevt2, 16
 1374              	testevt2:
 1375 0000 2C000000 		.word	.LC3
 1376 0004 00000000 		.word	evt2_setup
 1377 0008 00000000 		.word	0
 1378 000c 00000000 		.word	evt2_execute
 1379              		.section	.text.evt3_setup,"ax",%progbits
 1380              		.align	2
 1381              		.p2align 4,,15
 1382              		.thumb
 1383              		.thumb_func
 1384              		.type	evt3_setup, %function
 1385              	evt3_setup:
 1386              	.LFB238:
 1387              		.loc 9 247 0
 1388              		.cfi_startproc
 1389              		@ args = 0, pretend = 0, frame = 0
 1390              		@ frame_needed = 1, uses_anonymous_args = 0
 1391 0000 80B5     		push	{r7, lr}
 1392              		.cfi_def_cfa_offset 8
 1393              		.cfi_offset 7, -8
 1394              		.cfi_offset 14, -4
 1395 0002 00AF     		add	r7, sp, #0
ARM GAS  C:\Users\Luis\AppData\Local\Temp\ccbrxzu2.s 			page 26


 1396              		.cfi_def_cfa_register 7
 1397              		.loc 9 249 0
 1398 0004 4FF0FF30 		mov	r0, #-1
 1399 0008 FFF7FEFF 		bl	chEvtGetAndClearEvents
 1400              		.loc 9 250 0
 1401 000c 80BD     		pop	{r7, pc}
 1402              		.cfi_endproc
 1403              	.LFE238:
 1404              		.size	evt3_setup, .-evt3_setup
 1405 000e 00BF     		.section	.text.evt3_execute,"ax",%progbits
 1406              		.align	2
 1407              		.p2align 4,,15
 1408              		.thumb
 1409              		.thumb_func
 1410              		.type	evt3_execute, %function
 1411              	evt3_execute:
 1412              	.LFB239:
 1413              		.loc 9 252 0
 1414              		.cfi_startproc
 1415              		@ args = 0, pretend = 0, frame = 8
 1416              		@ frame_needed = 1, uses_anonymous_args = 0
 1417 0000 80B5     		push	{r7, lr}
 1418              		.cfi_def_cfa_offset 8
 1419              		.cfi_offset 7, -8
 1420              		.cfi_offset 14, -4
 1421 0002 82B0     		sub	sp, sp, #8
 1422              		.cfi_def_cfa_offset 16
 1423 0004 00AF     		add	r7, sp, #0
 1424              		.cfi_def_cfa_register 7
 1425              		.loc 9 258 0
 1426 0006 4FF0FF30 		mov	r0, #-1
 1427 000a 0021     		movs	r1, #0
 1428 000c FFF7FEFF 		bl	chEvtWaitOneTimeout
 1429 0010 7860     		str	r0, [r7, #4]
 1430              		.loc 9 259 0
 1431 0012 7B68     		ldr	r3, [r7, #4]
 1432 0014 002B     		cmp	r3, #0
 1433 0016 14BF     		ite	ne
 1434 0018 0023     		movne	r3, #0
 1435 001a 0123     		moveq	r3, #1
 1436 001c DBB2     		uxtb	r3, r3
 1437 001e 0120     		movs	r0, #1
 1438 0020 1946     		mov	r1, r3
 1439 0022 FFF7FEFF 		bl	_test_assert
 1440 0026 0346     		mov	r3, r0
 1441 0028 002B     		cmp	r3, #0
 1442 002a 00D0     		beq	.L68
 1443              		.loc 9 259 0 is_stmt 0 discriminator 1
 1444 002c 63E0     		b	.L67
 1445              	.L68:
 1446              		.loc 9 260 0 is_stmt 1
 1447 002e 4FF0FF30 		mov	r0, #-1
 1448 0032 0021     		movs	r1, #0
 1449 0034 FFF7FEFF 		bl	chEvtWaitAnyTimeout
 1450 0038 7860     		str	r0, [r7, #4]
 1451              		.loc 9 261 0
 1452 003a 7B68     		ldr	r3, [r7, #4]
ARM GAS  C:\Users\Luis\AppData\Local\Temp\ccbrxzu2.s 			page 27


 1453 003c 002B     		cmp	r3, #0
 1454 003e 14BF     		ite	ne
 1455 0040 0023     		movne	r3, #0
 1456 0042 0123     		moveq	r3, #1
 1457 0044 DBB2     		uxtb	r3, r3
 1458 0046 0220     		movs	r0, #2
 1459 0048 1946     		mov	r1, r3
 1460 004a FFF7FEFF 		bl	_test_assert
 1461 004e 0346     		mov	r3, r0
 1462 0050 002B     		cmp	r3, #0
 1463 0052 00D0     		beq	.L70
 1464              		.loc 9 261 0 is_stmt 0 discriminator 1
 1465 0054 4FE0     		b	.L67
 1466              	.L70:
 1467              		.loc 9 262 0 is_stmt 1
 1468 0056 4FF0FF30 		mov	r0, #-1
 1469 005a 0021     		movs	r1, #0
 1470 005c FFF7FEFF 		bl	chEvtWaitAllTimeout
 1471 0060 7860     		str	r0, [r7, #4]
 1472              		.loc 9 263 0
 1473 0062 7B68     		ldr	r3, [r7, #4]
 1474 0064 002B     		cmp	r3, #0
 1475 0066 14BF     		ite	ne
 1476 0068 0023     		movne	r3, #0
 1477 006a 0123     		moveq	r3, #1
 1478 006c DBB2     		uxtb	r3, r3
 1479 006e 0320     		movs	r0, #3
 1480 0070 1946     		mov	r1, r3
 1481 0072 FFF7FEFF 		bl	_test_assert
 1482 0076 0346     		mov	r3, r0
 1483 0078 002B     		cmp	r3, #0
 1484 007a 00D0     		beq	.L71
 1485              		.loc 9 263 0 is_stmt 0 discriminator 1
 1486 007c 3BE0     		b	.L67
 1487              	.L71:
 1488              		.loc 9 264 0 is_stmt 1
 1489 007e 4FF0FF30 		mov	r0, #-1
 1490 0082 0A21     		movs	r1, #10
 1491 0084 FFF7FEFF 		bl	chEvtWaitOneTimeout
 1492 0088 7860     		str	r0, [r7, #4]
 1493              		.loc 9 265 0
 1494 008a 7B68     		ldr	r3, [r7, #4]
 1495 008c 002B     		cmp	r3, #0
 1496 008e 14BF     		ite	ne
 1497 0090 0023     		movne	r3, #0
 1498 0092 0123     		moveq	r3, #1
 1499 0094 DBB2     		uxtb	r3, r3
 1500 0096 0420     		movs	r0, #4
 1501 0098 1946     		mov	r1, r3
 1502 009a FFF7FEFF 		bl	_test_assert
 1503 009e 0346     		mov	r3, r0
 1504 00a0 002B     		cmp	r3, #0
 1505 00a2 00D0     		beq	.L72
 1506              		.loc 9 265 0 is_stmt 0 discriminator 1
 1507 00a4 27E0     		b	.L67
 1508              	.L72:
 1509              		.loc 9 266 0 is_stmt 1
ARM GAS  C:\Users\Luis\AppData\Local\Temp\ccbrxzu2.s 			page 28


 1510 00a6 4FF0FF30 		mov	r0, #-1
 1511 00aa 0A21     		movs	r1, #10
 1512 00ac FFF7FEFF 		bl	chEvtWaitAnyTimeout
 1513 00b0 7860     		str	r0, [r7, #4]
 1514              		.loc 9 267 0
 1515 00b2 7B68     		ldr	r3, [r7, #4]
 1516 00b4 002B     		cmp	r3, #0
 1517 00b6 14BF     		ite	ne
 1518 00b8 0023     		movne	r3, #0
 1519 00ba 0123     		moveq	r3, #1
 1520 00bc DBB2     		uxtb	r3, r3
 1521 00be 0520     		movs	r0, #5
 1522 00c0 1946     		mov	r1, r3
 1523 00c2 FFF7FEFF 		bl	_test_assert
 1524 00c6 0346     		mov	r3, r0
 1525 00c8 002B     		cmp	r3, #0
 1526 00ca 00D0     		beq	.L73
 1527              		.loc 9 267 0 is_stmt 0 discriminator 1
 1528 00cc 13E0     		b	.L67
 1529              	.L73:
 1530              		.loc 9 268 0 is_stmt 1
 1531 00ce 4FF0FF30 		mov	r0, #-1
 1532 00d2 0A21     		movs	r1, #10
 1533 00d4 FFF7FEFF 		bl	chEvtWaitAllTimeout
 1534 00d8 7860     		str	r0, [r7, #4]
 1535              		.loc 9 269 0
 1536 00da 7B68     		ldr	r3, [r7, #4]
 1537 00dc 002B     		cmp	r3, #0
 1538 00de 14BF     		ite	ne
 1539 00e0 0023     		movne	r3, #0
 1540 00e2 0123     		moveq	r3, #1
 1541 00e4 DBB2     		uxtb	r3, r3
 1542 00e6 0620     		movs	r0, #6
 1543 00e8 1946     		mov	r1, r3
 1544 00ea FFF7FEFF 		bl	_test_assert
 1545 00ee 0346     		mov	r3, r0
 1546 00f0 002B     		cmp	r3, #0
 1547 00f2 00D0     		beq	.L67
 1548              		.loc 9 269 0 is_stmt 0 discriminator 1
 1549 00f4 00BF     		nop
 1550              	.L67:
 1551              		.loc 9 270 0 is_stmt 1
 1552 00f6 0837     		adds	r7, r7, #8
 1553 00f8 BD46     		mov	sp, r7
 1554              		@ sp needed
 1555 00fa 80BD     		pop	{r7, pc}
 1556              		.cfi_endproc
 1557              	.LFE239:
 1558              		.size	evt3_execute, .-evt3_execute
 1559              		.global	testevt3
 1560 00fc AFF30080 		.section	.rodata
 1561 0047 00       		.align	2
 1562              	.LC4:
 1563 0048 4576656E 		.ascii	"Events, timeouts\000"
 1563      74732C20 
 1563      74696D65 
 1563      6F757473 
ARM GAS  C:\Users\Luis\AppData\Local\Temp\ccbrxzu2.s 			page 29


 1563      00
 1564 0059 000000   		.section	.rodata.testevt3,"a",%progbits
 1565              		.align	2
 1566              		.type	testevt3, %object
 1567              		.size	testevt3, 16
 1568              	testevt3:
 1569 0000 48000000 		.word	.LC4
 1570 0004 00000000 		.word	evt3_setup
 1571 0008 00000000 		.word	0
 1572 000c 00000000 		.word	evt3_execute
 1573              		.global	patternevt
 1574              		.section	.rodata.patternevt,"a",%progbits
 1575              		.align	2
 1576              		.type	patternevt, %object
 1577              		.size	patternevt, 16
 1578              	patternevt:
 1579 0000 00000000 		.word	testevt1
 1580 0004 00000000 		.word	testevt2
 1581 0008 00000000 		.word	testevt3
 1582 000c 00000000 		.word	0
 1583              		.section	.rodata.__func__.5842,"a",%progbits
 1584              		.align	2
 1585              		.type	__func__.5842, %object
 1586              		.size	__func__.5842, 12
 1587              	__func__.5842:
 1588 0000 63685379 		.ascii	"chSysUnlock\000"
 1588      73556E6C 
 1588      6F636B00 
 1589              		.text
 1590              	.Letext0:
 1591              		.file 10 "c:\\emtechesdk\\gcc\\lib\\gcc\\arm-none-eabi\\4.8.3\\include\\stddef.h"
 1592              		.file 11 "c:\\emtechesdk\\gcc\\arm-none-eabi\\include\\stdint.h"
 1593              		.file 12 "../../ChibiOS/os/rt/ports/ARMCMx/compilers/GCC/chtypes.h"
 1594              		.file 13 "../../ChibiOS/os/rt/include/chsystypes.h"
 1595              		.file 14 "../../ChibiOS/os/rt/include/chschd.h"
 1596              		.file 15 "../../ChibiOS/os/rt/ports/ARMCMx/chcore.h"
 1597              		.file 16 "../../ChibiOS/os/hal/ports/STM32/LLD/TIMv1/stm32_tim.h"
 1598              		.file 17 "../../ChibiOS/os/rt/include/chdebug.h"
 1599              		.file 18 "../../ChibiOS/os/rt/include/chtm.h"
 1600              		.file 19 "../../ChibiOS/os/rt/include/chstats.h"
 1601              		.file 20 "../../ChibiOS/os/rt/include/chsem.h"
 1602              		.file 21 "../../ChibiOS/os/rt/include/chmtx.h"
 1603              		.file 22 "../../ChibiOS/test/rt/test.h"
 1604              		.file 23 "../../ChibiOS/os/ext/CMSIS/include/core_cm4.h"