ARM GAS  C:\Users\Luis\AppData\Local\Temp\ccMQOx1f.s 			page 1


   1              		.syntax unified
   2              		.cpu cortex-m4
   3              		.fpu softvfp
   4              		.eabi_attribute 20, 1
   5              		.eabi_attribute 21, 1
   6              		.eabi_attribute 23, 3
   7              		.eabi_attribute 24, 1
   8              		.eabi_attribute 25, 1
   9              		.eabi_attribute 26, 1
  10              		.eabi_attribute 30, 6
  11              		.eabi_attribute 34, 1
  12              		.eabi_attribute 18, 4
  13              		.thumb
  14              		.file	"testsem.c"
  15              		.text
  16              	.Ltext0:
  17              		.cfi_sections	.debug_frame
  18              		.section	.text.port_lock,"ax",%progbits
  19              		.align	2
  20              		.p2align 4,,15
  21              		.thumb
  22              		.thumb_func
  23              		.type	port_lock, %function
  24              	port_lock:
  25              	.LFB116:
  26              		.file 1 "../../ChibiOS/os/rt/ports/ARMCMx/chcore_v7m.h"
  27              		.loc 1 444 0
  28              		.cfi_startproc
  29              		@ args = 0, pretend = 0, frame = 8
  30              		@ frame_needed = 1, uses_anonymous_args = 0
  31              		@ link register save eliminated.
  32 0000 80B4     		push	{r7}
  33              		.cfi_def_cfa_offset 4
  34              		.cfi_offset 7, -4
  35 0002 83B0     		sub	sp, sp, #12
  36              		.cfi_def_cfa_offset 16
  37 0004 00AF     		add	r7, sp, #0
  38              		.cfi_def_cfa_register 7
  39 0006 2023     		movs	r3, #32
  40 0008 7B60     		str	r3, [r7, #4]
  41              	.LBB6:
  42              	.LBB7:
  43              		.file 2 "../../ChibiOS/os/ext/CMSIS/include/core_cmFunc.h"
  44              		.loc 2 546 0
  45 000a 7B68     		ldr	r3, [r7, #4]
  46              	@ 546 "../../ChibiOS/os/ext/CMSIS/include/core_cmFunc.h" 1
  47 000c 83F31188 		MSR basepri, r3
  48              	@ 0 "" 2
  49              		.thumb
  50              	.LBE7:
  51              	.LBE6:
  52              		.loc 1 451 0
  53 0010 0C37     		adds	r7, r7, #12
  54 0012 BD46     		mov	sp, r7
  55              		@ sp needed
  56 0014 5DF8047B 		ldr	r7, [sp], #4
  57 0018 7047     		bx	lr
ARM GAS  C:\Users\Luis\AppData\Local\Temp\ccMQOx1f.s 			page 2


  58              		.cfi_endproc
  59              	.LFE116:
  60              		.size	port_lock, .-port_lock
  61 001a 00BFAFF3 		.section	.text.port_unlock,"ax",%progbits
  61      0080
  62              		.align	2
  63              		.p2align 4,,15
  64              		.thumb
  65              		.thumb_func
  66              		.type	port_unlock, %function
  67              	port_unlock:
  68              	.LFB117:
  69              		.loc 1 458 0
  70              		.cfi_startproc
  71              		@ args = 0, pretend = 0, frame = 8
  72              		@ frame_needed = 1, uses_anonymous_args = 0
  73              		@ link register save eliminated.
  74 0000 80B4     		push	{r7}
  75              		.cfi_def_cfa_offset 4
  76              		.cfi_offset 7, -4
  77 0002 83B0     		sub	sp, sp, #12
  78              		.cfi_def_cfa_offset 16
  79 0004 00AF     		add	r7, sp, #0
  80              		.cfi_def_cfa_register 7
  81 0006 0023     		movs	r3, #0
  82 0008 7B60     		str	r3, [r7, #4]
  83              	.LBB8:
  84              	.LBB9:
  85              		.loc 2 546 0
  86 000a 7B68     		ldr	r3, [r7, #4]
  87              	@ 546 "../../ChibiOS/os/ext/CMSIS/include/core_cmFunc.h" 1
  88 000c 83F31188 		MSR basepri, r3
  89              	@ 0 "" 2
  90              		.thumb
  91              	.LBE9:
  92              	.LBE8:
  93              		.loc 1 465 0
  94 0010 0C37     		adds	r7, r7, #12
  95 0012 BD46     		mov	sp, r7
  96              		@ sp needed
  97 0014 5DF8047B 		ldr	r7, [sp], #4
  98 0018 7047     		bx	lr
  99              		.cfi_endproc
 100              	.LFE117:
 101              		.size	port_unlock, .-port_unlock
 102 001a 00BFAFF3 		.section	.text.st_lld_get_counter,"ax",%progbits
 102      0080
 103              		.align	2
 104              		.p2align 4,,15
 105              		.thumb
 106              		.thumb_func
 107              		.type	st_lld_get_counter, %function
 108              	st_lld_get_counter:
 109              	.LFB125:
 110              		.file 3 "../../ChibiOS/os/hal/ports/STM32/LLD/TIMv1/st_lld.h"
 111              		.loc 3 127 0
 112              		.cfi_startproc
ARM GAS  C:\Users\Luis\AppData\Local\Temp\ccMQOx1f.s 			page 3


 113              		@ args = 0, pretend = 0, frame = 0
 114              		@ frame_needed = 1, uses_anonymous_args = 0
 115              		@ link register save eliminated.
 116 0000 80B4     		push	{r7}
 117              		.cfi_def_cfa_offset 4
 118              		.cfi_offset 7, -4
 119 0002 00AF     		add	r7, sp, #0
 120              		.cfi_def_cfa_register 7
 121              		.loc 3 129 0
 122 0004 4FF08043 		mov	r3, #1073741824
 123 0008 5B6A     		ldr	r3, [r3, #36]
 124              		.loc 3 130 0
 125 000a 1846     		mov	r0, r3
 126 000c BD46     		mov	sp, r7
 127              		@ sp needed
 128 000e 5DF8047B 		ldr	r7, [sp], #4
 129 0012 7047     		bx	lr
 130              		.cfi_endproc
 131              	.LFE125:
 132              		.size	st_lld_get_counter, .-st_lld_get_counter
 133 0014 AFF30080 		.section	.text.port_timer_get_time,"ax",%progbits
 133      AFF30080 
 133      AFF30080 
 134              		.align	2
 135              		.p2align 4,,15
 136              		.thumb
 137              		.thumb_func
 138              		.type	port_timer_get_time, %function
 139              	port_timer_get_time:
 140              	.LFB134:
 141              		.file 4 "../../ChibiOS/os/rt/ports/ARMCMx/chcore_timer.h"
 142              		.loc 4 105 0
 143              		.cfi_startproc
 144              		@ args = 0, pretend = 0, frame = 0
 145              		@ frame_needed = 1, uses_anonymous_args = 0
 146 0000 80B5     		push	{r7, lr}
 147              		.cfi_def_cfa_offset 8
 148              		.cfi_offset 7, -8
 149              		.cfi_offset 14, -4
 150 0002 00AF     		add	r7, sp, #0
 151              		.cfi_def_cfa_register 7
 152              		.loc 4 107 0
 153 0004 FFF7FEFF 		bl	st_lld_get_counter
 154 0008 0346     		mov	r3, r0
 155              		.loc 4 108 0
 156 000a 1846     		mov	r0, r3
 157 000c 80BD     		pop	{r7, pc}
 158              		.cfi_endproc
 159              	.LFE134:
 160              		.size	port_timer_get_time, .-port_timer_get_time
 161 000e 00BF     		.section	.text.queue_isempty,"ax",%progbits
 162              		.align	2
 163              		.p2align 4,,15
 164              		.thumb
 165              		.thumb_func
 166              		.type	queue_isempty, %function
 167              	queue_isempty:
ARM GAS  C:\Users\Luis\AppData\Local\Temp\ccMQOx1f.s 			page 4


 168              	.LFB140:
 169              		.file 5 "../../ChibiOS/os/rt/include/chschd.h"
 170              		.loc 5 616 0
 171              		.cfi_startproc
 172              		@ args = 0, pretend = 0, frame = 8
 173              		@ frame_needed = 1, uses_anonymous_args = 0
 174              		@ link register save eliminated.
 175 0000 80B4     		push	{r7}
 176              		.cfi_def_cfa_offset 4
 177              		.cfi_offset 7, -4
 178 0002 83B0     		sub	sp, sp, #12
 179              		.cfi_def_cfa_offset 16
 180 0004 00AF     		add	r7, sp, #0
 181              		.cfi_def_cfa_register 7
 182 0006 7860     		str	r0, [r7, #4]
 183              		.loc 5 618 0
 184 0008 7B68     		ldr	r3, [r7, #4]
 185 000a 1A68     		ldr	r2, [r3]
 186 000c 7B68     		ldr	r3, [r7, #4]
 187 000e 9A42     		cmp	r2, r3
 188 0010 14BF     		ite	ne
 189 0012 0023     		movne	r3, #0
 190 0014 0123     		moveq	r3, #1
 191 0016 DBB2     		uxtb	r3, r3
 192              		.loc 5 619 0
 193 0018 1846     		mov	r0, r3
 194 001a 0C37     		adds	r7, r7, #12
 195 001c BD46     		mov	sp, r7
 196              		@ sp needed
 197 001e 5DF8047B 		ldr	r7, [sp], #4
 198 0022 7047     		bx	lr
 199              		.cfi_endproc
 200              	.LFE140:
 201              		.size	queue_isempty, .-queue_isempty
 202 0024 AFF30080 		.section	.text.chSysLock,"ax",%progbits
 202      AFF30080 
 202      AFF30080 
 203              		.align	2
 204              		.p2align 4,,15
 205              		.thumb
 206              		.thumb_func
 207              		.type	chSysLock, %function
 208              	chSysLock:
 209              	.LFB156:
 210              		.file 6 "../../ChibiOS/os/rt/include/chsys.h"
 211              		.loc 6 346 0
 212              		.cfi_startproc
 213              		@ args = 0, pretend = 0, frame = 0
 214              		@ frame_needed = 1, uses_anonymous_args = 0
 215 0000 80B5     		push	{r7, lr}
 216              		.cfi_def_cfa_offset 8
 217              		.cfi_offset 7, -8
 218              		.cfi_offset 14, -4
 219 0002 00AF     		add	r7, sp, #0
 220              		.cfi_def_cfa_register 7
 221              		.loc 6 348 0
 222 0004 FFF7FEFF 		bl	port_lock
ARM GAS  C:\Users\Luis\AppData\Local\Temp\ccMQOx1f.s 			page 5


 223              		.loc 6 349 0
 224 0008 FFF7FEFF 		bl	_stats_start_measure_crit_thd
 225              		.loc 6 350 0
 226 000c FFF7FEFF 		bl	_dbg_check_lock
 227              		.loc 6 351 0
 228 0010 80BD     		pop	{r7, pc}
 229              		.cfi_endproc
 230              	.LFE156:
 231              		.size	chSysLock, .-chSysLock
 232 0012 00BFAFF3 		.section	.text.chSysUnlock,"ax",%progbits
 232      0080AFF3 
 232      0080AFF3 
 232      0080
 233              		.align	2
 234              		.p2align 4,,15
 235              		.thumb
 236              		.thumb_func
 237              		.type	chSysUnlock, %function
 238              	chSysUnlock:
 239              	.LFB157:
 240              		.loc 6 358 0
 241              		.cfi_startproc
 242              		@ args = 0, pretend = 0, frame = 0
 243              		@ frame_needed = 1, uses_anonymous_args = 0
 244 0000 80B5     		push	{r7, lr}
 245              		.cfi_def_cfa_offset 8
 246              		.cfi_offset 7, -8
 247              		.cfi_offset 14, -4
 248 0002 00AF     		add	r7, sp, #0
 249              		.cfi_def_cfa_register 7
 250              		.loc 6 360 0
 251 0004 FFF7FEFF 		bl	_dbg_check_unlock
 252              		.loc 6 361 0
 253 0008 FFF7FEFF 		bl	_stats_stop_measure_crit_thd
 254              		.loc 6 367 0
 255 000c 094B     		ldr	r3, .L12
 256 000e 1A68     		ldr	r2, [r3]
 257 0010 084B     		ldr	r3, .L12
 258 0012 9A42     		cmp	r2, r3
 259 0014 0AD0     		beq	.L11
 260              		.loc 6 367 0 is_stmt 0 discriminator 1
 261 0016 074B     		ldr	r3, .L12
 262 0018 9B69     		ldr	r3, [r3, #24]
 263 001a 9A68     		ldr	r2, [r3, #8]
 264 001c 054B     		ldr	r3, .L12
 265 001e 1B68     		ldr	r3, [r3]
 266 0020 9B68     		ldr	r3, [r3, #8]
 267 0022 9A42     		cmp	r2, r3
 268 0024 02D2     		bcs	.L11
 269 0026 0448     		ldr	r0, .L12+4
 270 0028 FFF7FEFF 		bl	chSysHalt
 271              	.L11:
 272              		.loc 6 371 0 is_stmt 1
 273 002c FFF7FEFF 		bl	port_unlock
 274              		.loc 6 372 0
 275 0030 80BD     		pop	{r7, pc}
 276              	.L13:
ARM GAS  C:\Users\Luis\AppData\Local\Temp\ccMQOx1f.s 			page 6


 277 0032 00BF     		.align	2
 278              	.L12:
 279 0034 00000000 		.word	ch
 280 0038 00000000 		.word	__func__.5842
 281              		.cfi_endproc
 282              	.LFE157:
 283              		.size	chSysUnlock, .-chSysUnlock
 284 003c AFF30080 		.section	.text.chVTGetSystemTimeX,"ax",%progbits
 285              		.align	2
 286              		.p2align 4,,15
 287              		.thumb
 288              		.thumb_func
 289              		.type	chVTGetSystemTimeX, %function
 290              	chVTGetSystemTimeX:
 291              	.LFB164:
 292              		.file 7 "../../ChibiOS/os/rt/include/chvt.h"
 293              		.loc 7 228 0
 294              		.cfi_startproc
 295              		@ args = 0, pretend = 0, frame = 0
 296              		@ frame_needed = 1, uses_anonymous_args = 0
 297 0000 80B5     		push	{r7, lr}
 298              		.cfi_def_cfa_offset 8
 299              		.cfi_offset 7, -8
 300              		.cfi_offset 14, -4
 301 0002 00AF     		add	r7, sp, #0
 302              		.cfi_def_cfa_register 7
 303              		.loc 7 233 0
 304 0004 FFF7FEFF 		bl	port_timer_get_time
 305 0008 0346     		mov	r3, r0
 306              		.loc 7 235 0
 307 000a 1846     		mov	r0, r3
 308 000c 80BD     		pop	{r7, pc}
 309              		.cfi_endproc
 310              	.LFE164:
 311              		.size	chVTGetSystemTimeX, .-chVTGetSystemTimeX
 312 000e 00BF     		.section	.text.chVTGetSystemTime,"ax",%progbits
 313              		.align	2
 314              		.p2align 4,,15
 315              		.thumb
 316              		.thumb_func
 317              		.type	chVTGetSystemTime, %function
 318              	chVTGetSystemTime:
 319              	.LFB165:
 320              		.loc 7 247 0
 321              		.cfi_startproc
 322              		@ args = 0, pretend = 0, frame = 8
 323              		@ frame_needed = 1, uses_anonymous_args = 0
 324 0000 80B5     		push	{r7, lr}
 325              		.cfi_def_cfa_offset 8
 326              		.cfi_offset 7, -8
 327              		.cfi_offset 14, -4
 328 0002 82B0     		sub	sp, sp, #8
 329              		.cfi_def_cfa_offset 16
 330 0004 00AF     		add	r7, sp, #0
 331              		.cfi_def_cfa_register 7
 332              		.loc 7 250 0
 333 0006 FFF7FEFF 		bl	chSysLock
ARM GAS  C:\Users\Luis\AppData\Local\Temp\ccMQOx1f.s 			page 7


 334              		.loc 7 251 0
 335 000a FFF7FEFF 		bl	chVTGetSystemTimeX
 336 000e 7860     		str	r0, [r7, #4]
 337              		.loc 7 252 0
 338 0010 FFF7FEFF 		bl	chSysUnlock
 339              		.loc 7 254 0
 340 0014 7B68     		ldr	r3, [r7, #4]
 341              		.loc 7 255 0
 342 0016 1846     		mov	r0, r3
 343 0018 0837     		adds	r7, r7, #8
 344 001a BD46     		mov	sp, r7
 345              		@ sp needed
 346 001c 80BD     		pop	{r7, pc}
 347              		.cfi_endproc
 348              	.LFE165:
 349              		.size	chVTGetSystemTime, .-chVTGetSystemTime
 350 001e 00BF     		.section	.text.chThdGetSelfX,"ax",%progbits
 351              		.align	2
 352              		.p2align 4,,15
 353              		.thumb
 354              		.thumb_func
 355              		.type	chThdGetSelfX, %function
 356              	chThdGetSelfX:
 357              	.LFB177:
 358              		.file 8 "../../ChibiOS/os/rt/include/chthreads.h"
 359              		.loc 8 174 0
 360              		.cfi_startproc
 361              		@ args = 0, pretend = 0, frame = 0
 362              		@ frame_needed = 1, uses_anonymous_args = 0
 363              		@ link register save eliminated.
 364 0000 80B4     		push	{r7}
 365              		.cfi_def_cfa_offset 4
 366              		.cfi_offset 7, -4
 367 0002 00AF     		add	r7, sp, #0
 368              		.cfi_def_cfa_register 7
 369              		.loc 8 176 0
 370 0004 034B     		ldr	r3, .L20
 371 0006 9B69     		ldr	r3, [r3, #24]
 372              		.loc 8 177 0
 373 0008 1846     		mov	r0, r3
 374 000a BD46     		mov	sp, r7
 375              		@ sp needed
 376 000c 5DF8047B 		ldr	r7, [sp], #4
 377 0010 7047     		bx	lr
 378              	.L21:
 379 0012 00BF     		.align	2
 380              	.L20:
 381 0014 00000000 		.word	ch
 382              		.cfi_endproc
 383              	.LFE177:
 384              		.size	chThdGetSelfX, .-chThdGetSelfX
 385 0018 AFF30080 		.section	.text.chThdGetPriorityX,"ax",%progbits
 385      AFF30080 
 386              		.align	2
 387              		.p2align 4,,15
 388              		.thumb
 389              		.thumb_func
ARM GAS  C:\Users\Luis\AppData\Local\Temp\ccMQOx1f.s 			page 8


 390              		.type	chThdGetPriorityX, %function
 391              	chThdGetPriorityX:
 392              	.LFB178:
 393              		.loc 8 187 0
 394              		.cfi_startproc
 395              		@ args = 0, pretend = 0, frame = 0
 396              		@ frame_needed = 1, uses_anonymous_args = 0
 397 0000 80B5     		push	{r7, lr}
 398              		.cfi_def_cfa_offset 8
 399              		.cfi_offset 7, -8
 400              		.cfi_offset 14, -4
 401 0002 00AF     		add	r7, sp, #0
 402              		.cfi_def_cfa_register 7
 403              		.loc 8 189 0
 404 0004 FFF7FEFF 		bl	chThdGetSelfX
 405 0008 0346     		mov	r3, r0
 406 000a 9B68     		ldr	r3, [r3, #8]
 407              		.loc 8 190 0
 408 000c 1846     		mov	r0, r3
 409 000e 80BD     		pop	{r7, pc}
 410              		.cfi_endproc
 411              	.LFE178:
 412              		.size	chThdGetPriorityX, .-chThdGetPriorityX
 413              		.section	.text.chSemGetCounterI,"ax",%progbits
 414              		.align	2
 415              		.p2align 4,,15
 416              		.thumb
 417              		.thumb_func
 418              		.type	chSemGetCounterI, %function
 419              	chSemGetCounterI:
 420              	.LFB191:
 421              		.file 9 "../../ChibiOS/os/rt/include/chsem.h"
 422              		.loc 9 149 0
 423              		.cfi_startproc
 424              		@ args = 0, pretend = 0, frame = 8
 425              		@ frame_needed = 1, uses_anonymous_args = 0
 426 0000 80B5     		push	{r7, lr}
 427              		.cfi_def_cfa_offset 8
 428              		.cfi_offset 7, -8
 429              		.cfi_offset 14, -4
 430 0002 82B0     		sub	sp, sp, #8
 431              		.cfi_def_cfa_offset 16
 432 0004 00AF     		add	r7, sp, #0
 433              		.cfi_def_cfa_register 7
 434 0006 7860     		str	r0, [r7, #4]
 435              		.loc 9 151 0
 436 0008 FFF7FEFF 		bl	chDbgCheckClassI
 437              		.loc 9 153 0
 438 000c 7B68     		ldr	r3, [r7, #4]
 439 000e 9B68     		ldr	r3, [r3, #8]
 440              		.loc 9 154 0
 441 0010 1846     		mov	r0, r3
 442 0012 0837     		adds	r7, r7, #8
 443 0014 BD46     		mov	sp, r7
 444              		@ sp needed
 445 0016 80BD     		pop	{r7, pc}
 446              		.cfi_endproc
ARM GAS  C:\Users\Luis\AppData\Local\Temp\ccMQOx1f.s 			page 9


 447              	.LFE191:
 448              		.size	chSemGetCounterI, .-chSemGetCounterI
 449 0018 AFF30080 		.section	.text.chBSemObjectInit,"ax",%progbits
 449      AFF30080 
 450              		.align	2
 451              		.p2align 4,,15
 452              		.thumb
 453              		.thumb_func
 454              		.type	chBSemObjectInit, %function
 455              	chBSemObjectInit:
 456              	.LFB192:
 457              		.file 10 "../../ChibiOS/os/rt/include/chbsem.h"
 458              		.loc 10 124 0
 459              		.cfi_startproc
 460              		@ args = 0, pretend = 0, frame = 8
 461              		@ frame_needed = 1, uses_anonymous_args = 0
 462 0000 80B5     		push	{r7, lr}
 463              		.cfi_def_cfa_offset 8
 464              		.cfi_offset 7, -8
 465              		.cfi_offset 14, -4
 466 0002 82B0     		sub	sp, sp, #8
 467              		.cfi_def_cfa_offset 16
 468 0004 00AF     		add	r7, sp, #0
 469              		.cfi_def_cfa_register 7
 470 0006 7860     		str	r0, [r7, #4]
 471 0008 0B46     		mov	r3, r1
 472 000a FB70     		strb	r3, [r7, #3]
 473              		.loc 10 126 0
 474 000c 7A68     		ldr	r2, [r7, #4]
 475 000e FB78     		ldrb	r3, [r7, #3]	@ zero_extendqisi2
 476 0010 002B     		cmp	r3, #0
 477 0012 01D0     		beq	.L27
 478              		.loc 10 126 0 is_stmt 0 discriminator 1
 479 0014 0023     		movs	r3, #0
 480 0016 00E0     		b	.L28
 481              	.L27:
 482              		.loc 10 126 0 discriminator 2
 483 0018 0123     		movs	r3, #1
 484              	.L28:
 485              		.loc 10 126 0 discriminator 3
 486 001a 1046     		mov	r0, r2
 487 001c 1946     		mov	r1, r3
 488 001e FFF7FEFF 		bl	chSemObjectInit
 489              		.loc 10 127 0 is_stmt 1 discriminator 3
 490 0022 0837     		adds	r7, r7, #8
 491 0024 BD46     		mov	sp, r7
 492              		@ sp needed
 493 0026 80BD     		pop	{r7, pc}
 494              		.cfi_endproc
 495              	.LFE192:
 496              		.size	chBSemObjectInit, .-chBSemObjectInit
 497 0028 AFF30080 		.section	.text.chBSemWait,"ax",%progbits
 497      AFF30080 
 498              		.align	2
 499              		.p2align 4,,15
 500              		.thumb
 501              		.thumb_func
ARM GAS  C:\Users\Luis\AppData\Local\Temp\ccMQOx1f.s 			page 10


 502              		.type	chBSemWait, %function
 503              	chBSemWait:
 504              	.LFB193:
 505              		.loc 10 141 0
 506              		.cfi_startproc
 507              		@ args = 0, pretend = 0, frame = 8
 508              		@ frame_needed = 1, uses_anonymous_args = 0
 509 0000 80B5     		push	{r7, lr}
 510              		.cfi_def_cfa_offset 8
 511              		.cfi_offset 7, -8
 512              		.cfi_offset 14, -4
 513 0002 82B0     		sub	sp, sp, #8
 514              		.cfi_def_cfa_offset 16
 515 0004 00AF     		add	r7, sp, #0
 516              		.cfi_def_cfa_register 7
 517 0006 7860     		str	r0, [r7, #4]
 518              		.loc 10 143 0
 519 0008 7B68     		ldr	r3, [r7, #4]
 520 000a 1846     		mov	r0, r3
 521 000c FFF7FEFF 		bl	chSemWait
 522 0010 0346     		mov	r3, r0
 523              		.loc 10 144 0
 524 0012 1846     		mov	r0, r3
 525 0014 0837     		adds	r7, r7, #8
 526 0016 BD46     		mov	sp, r7
 527              		@ sp needed
 528 0018 80BD     		pop	{r7, pc}
 529              		.cfi_endproc
 530              	.LFE193:
 531              		.size	chBSemWait, .-chBSemWait
 532 001a 00BFAFF3 		.section	.text.chBSemReset,"ax",%progbits
 532      0080
 533              		.align	2
 534              		.p2align 4,,15
 535              		.thumb
 536              		.thumb_func
 537              		.type	chBSemReset, %function
 538              	chBSemReset:
 539              	.LFB198:
 540              		.loc 10 253 0
 541              		.cfi_startproc
 542              		@ args = 0, pretend = 0, frame = 8
 543              		@ frame_needed = 1, uses_anonymous_args = 0
 544 0000 80B5     		push	{r7, lr}
 545              		.cfi_def_cfa_offset 8
 546              		.cfi_offset 7, -8
 547              		.cfi_offset 14, -4
 548 0002 82B0     		sub	sp, sp, #8
 549              		.cfi_def_cfa_offset 16
 550 0004 00AF     		add	r7, sp, #0
 551              		.cfi_def_cfa_register 7
 552 0006 7860     		str	r0, [r7, #4]
 553 0008 0B46     		mov	r3, r1
 554 000a FB70     		strb	r3, [r7, #3]
 555              		.loc 10 255 0
 556 000c 7A68     		ldr	r2, [r7, #4]
 557 000e FB78     		ldrb	r3, [r7, #3]	@ zero_extendqisi2
ARM GAS  C:\Users\Luis\AppData\Local\Temp\ccMQOx1f.s 			page 11


 558 0010 002B     		cmp	r3, #0
 559 0012 01D0     		beq	.L32
 560              		.loc 10 255 0 is_stmt 0 discriminator 1
 561 0014 0023     		movs	r3, #0
 562 0016 00E0     		b	.L33
 563              	.L32:
 564              		.loc 10 255 0 discriminator 2
 565 0018 0123     		movs	r3, #1
 566              	.L33:
 567              		.loc 10 255 0 discriminator 3
 568 001a 1046     		mov	r0, r2
 569 001c 1946     		mov	r1, r3
 570 001e FFF7FEFF 		bl	chSemReset
 571              		.loc 10 256 0 is_stmt 1 discriminator 3
 572 0022 0837     		adds	r7, r7, #8
 573 0024 BD46     		mov	sp, r7
 574              		@ sp needed
 575 0026 80BD     		pop	{r7, pc}
 576              		.cfi_endproc
 577              	.LFE198:
 578              		.size	chBSemReset, .-chBSemReset
 579 0028 AFF30080 		.section	.text.chBSemSignalI,"ax",%progbits
 579      AFF30080 
 580              		.align	2
 581              		.p2align 4,,15
 582              		.thumb
 583              		.thumb_func
 584              		.type	chBSemSignalI, %function
 585              	chBSemSignalI:
 586              	.LFB199:
 587              		.loc 10 266 0
 588              		.cfi_startproc
 589              		@ args = 0, pretend = 0, frame = 8
 590              		@ frame_needed = 1, uses_anonymous_args = 0
 591 0000 80B5     		push	{r7, lr}
 592              		.cfi_def_cfa_offset 8
 593              		.cfi_offset 7, -8
 594              		.cfi_offset 14, -4
 595 0002 82B0     		sub	sp, sp, #8
 596              		.cfi_def_cfa_offset 16
 597 0004 00AF     		add	r7, sp, #0
 598              		.cfi_def_cfa_register 7
 599 0006 7860     		str	r0, [r7, #4]
 600              		.loc 10 268 0
 601 0008 FFF7FEFF 		bl	chDbgCheckClassI
 602              		.loc 10 270 0
 603 000c 7B68     		ldr	r3, [r7, #4]
 604 000e 9B68     		ldr	r3, [r3, #8]
 605 0010 002B     		cmp	r3, #0
 606 0012 03DC     		bgt	.L34
 607              		.loc 10 271 0
 608 0014 7B68     		ldr	r3, [r7, #4]
 609 0016 1846     		mov	r0, r3
 610 0018 FFF7FEFF 		bl	chSemSignalI
 611              	.L34:
 612              		.loc 10 273 0
 613 001c 0837     		adds	r7, r7, #8
ARM GAS  C:\Users\Luis\AppData\Local\Temp\ccMQOx1f.s 			page 12


 614 001e BD46     		mov	sp, r7
 615              		@ sp needed
 616 0020 80BD     		pop	{r7, pc}
 617              		.cfi_endproc
 618              	.LFE199:
 619              		.size	chBSemSignalI, .-chBSemSignalI
 620 0022 00BFAFF3 		.section	.text.chBSemSignal,"ax",%progbits
 620      0080AFF3 
 620      0080AFF3 
 620      0080
 621              		.align	2
 622              		.p2align 4,,15
 623              		.thumb
 624              		.thumb_func
 625              		.type	chBSemSignal, %function
 626              	chBSemSignal:
 627              	.LFB200:
 628              		.loc 10 282 0
 629              		.cfi_startproc
 630              		@ args = 0, pretend = 0, frame = 8
 631              		@ frame_needed = 1, uses_anonymous_args = 0
 632 0000 80B5     		push	{r7, lr}
 633              		.cfi_def_cfa_offset 8
 634              		.cfi_offset 7, -8
 635              		.cfi_offset 14, -4
 636 0002 82B0     		sub	sp, sp, #8
 637              		.cfi_def_cfa_offset 16
 638 0004 00AF     		add	r7, sp, #0
 639              		.cfi_def_cfa_register 7
 640 0006 7860     		str	r0, [r7, #4]
 641              		.loc 10 284 0
 642 0008 FFF7FEFF 		bl	chSysLock
 643              		.loc 10 285 0
 644 000c 7868     		ldr	r0, [r7, #4]
 645 000e FFF7FEFF 		bl	chBSemSignalI
 646              		.loc 10 286 0
 647 0012 FFF7FEFF 		bl	chSchRescheduleS
 648              		.loc 10 287 0
 649 0016 FFF7FEFF 		bl	chSysUnlock
 650              		.loc 10 288 0
 651 001a 0837     		adds	r7, r7, #8
 652 001c BD46     		mov	sp, r7
 653              		@ sp needed
 654 001e 80BD     		pop	{r7, pc}
 655              		.cfi_endproc
 656              	.LFE200:
 657              		.size	chBSemSignal, .-chBSemSignal
 658              		.section	.text.chBSemGetStateI,"ax",%progbits
 659              		.align	2
 660              		.p2align 4,,15
 661              		.thumb
 662              		.thumb_func
 663              		.type	chBSemGetStateI, %function
 664              	chBSemGetStateI:
 665              	.LFB201:
 666              		.loc 10 300 0
 667              		.cfi_startproc
ARM GAS  C:\Users\Luis\AppData\Local\Temp\ccMQOx1f.s 			page 13


 668              		@ args = 0, pretend = 0, frame = 8
 669              		@ frame_needed = 1, uses_anonymous_args = 0
 670 0000 80B5     		push	{r7, lr}
 671              		.cfi_def_cfa_offset 8
 672              		.cfi_offset 7, -8
 673              		.cfi_offset 14, -4
 674 0002 82B0     		sub	sp, sp, #8
 675              		.cfi_def_cfa_offset 16
 676 0004 00AF     		add	r7, sp, #0
 677              		.cfi_def_cfa_register 7
 678 0006 7860     		str	r0, [r7, #4]
 679              		.loc 10 302 0
 680 0008 FFF7FEFF 		bl	chDbgCheckClassI
 681              		.loc 10 304 0
 682 000c 7B68     		ldr	r3, [r7, #4]
 683 000e 9B68     		ldr	r3, [r3, #8]
 684 0010 002B     		cmp	r3, #0
 685 0012 CCBF     		ite	gt
 686 0014 0023     		movgt	r3, #0
 687 0016 0123     		movle	r3, #1
 688 0018 DBB2     		uxtb	r3, r3
 689              		.loc 10 305 0
 690 001a 1846     		mov	r0, r3
 691 001c 0837     		adds	r7, r7, #8
 692 001e BD46     		mov	sp, r7
 693              		@ sp needed
 694 0020 80BD     		pop	{r7, pc}
 695              		.cfi_endproc
 696              	.LFE201:
 697              		.size	chBSemGetStateI, .-chBSemGetStateI
 698 0022 00BFAFF3 		.section	.data.sem1,"aw",%progbits
 698      0080AFF3 
 698      0080AFF3 
 698      0080
 699              		.align	2
 700              		.type	sem1, %object
 701              		.size	sem1, 12
 702              	sem1:
 703 0000 00000000 		.word	sem1
 704 0004 00000000 		.word	sem1
 705 0008 00000000 		.word	0
 706              		.section	.text.sem1_setup,"ax",%progbits
 707              		.align	2
 708              		.p2align 4,,15
 709              		.thumb
 710              		.thumb_func
 711              		.type	sem1_setup, %function
 712              	sem1_setup:
 713              	.LFB229:
 714              		.file 11 "../../ChibiOS/test/rt/testsem.c"
 715              		.loc 11 72 0
 716              		.cfi_startproc
 717              		@ args = 0, pretend = 0, frame = 0
 718              		@ frame_needed = 1, uses_anonymous_args = 0
 719 0000 80B5     		push	{r7, lr}
 720              		.cfi_def_cfa_offset 8
 721              		.cfi_offset 7, -8
ARM GAS  C:\Users\Luis\AppData\Local\Temp\ccMQOx1f.s 			page 14


 722              		.cfi_offset 14, -4
 723 0002 00AF     		add	r7, sp, #0
 724              		.cfi_def_cfa_register 7
 725              		.loc 11 74 0
 726 0004 0248     		ldr	r0, .L40
 727 0006 0021     		movs	r1, #0
 728 0008 FFF7FEFF 		bl	chSemObjectInit
 729              		.loc 11 75 0
 730 000c 80BD     		pop	{r7, pc}
 731              	.L41:
 732 000e 00BF     		.align	2
 733              	.L40:
 734 0010 00000000 		.word	sem1
 735              		.cfi_endproc
 736              	.LFE229:
 737              		.size	sem1_setup, .-sem1_setup
 738 0014 AFF30080 		.section	.text.thread1,"ax",%progbits
 738      AFF30080 
 738      AFF30080 
 739              		.align	2
 740              		.p2align 4,,15
 741              		.thumb
 742              		.thumb_func
 743              		.type	thread1, %function
 744              	thread1:
 745              	.LFB230:
 746              		.loc 11 77 0
 747              		.cfi_startproc
 748              		@ args = 0, pretend = 0, frame = 8
 749              		@ frame_needed = 1, uses_anonymous_args = 0
 750 0000 80B5     		push	{r7, lr}
 751              		.cfi_def_cfa_offset 8
 752              		.cfi_offset 7, -8
 753              		.cfi_offset 14, -4
 754 0002 82B0     		sub	sp, sp, #8
 755              		.cfi_def_cfa_offset 16
 756 0004 00AF     		add	r7, sp, #0
 757              		.cfi_def_cfa_register 7
 758 0006 7860     		str	r0, [r7, #4]
 759              		.loc 11 79 0
 760 0008 0548     		ldr	r0, .L43
 761 000a FFF7FEFF 		bl	chSemWait
 762              		.loc 11 80 0
 763 000e 7B68     		ldr	r3, [r7, #4]
 764 0010 1B78     		ldrb	r3, [r3]	@ zero_extendqisi2
 765 0012 1846     		mov	r0, r3
 766 0014 FFF7FEFF 		bl	test_emit_token
 767              		.loc 11 81 0
 768 0018 0837     		adds	r7, r7, #8
 769 001a BD46     		mov	sp, r7
 770              		@ sp needed
 771 001c 80BD     		pop	{r7, pc}
 772              	.L44:
 773 001e 00BF     		.align	2
 774              	.L43:
 775 0020 00000000 		.word	sem1
 776              		.cfi_endproc
ARM GAS  C:\Users\Luis\AppData\Local\Temp\ccMQOx1f.s 			page 15


 777              	.LFE230:
 778              		.size	thread1, .-thread1
 779 0024 AFF30080 		.section	.rodata
 779      AFF30080 
 779      AFF30080 
 780              		.align	2
 781              	.LC0:
 782 0000 4100     		.ascii	"A\000"
 783 0002 0000     		.align	2
 784              	.LC1:
 785 0004 4200     		.ascii	"B\000"
 786 0006 0000     		.align	2
 787              	.LC2:
 788 0008 4300     		.ascii	"C\000"
 789 000a 0000     		.align	2
 790              	.LC3:
 791 000c 4400     		.ascii	"D\000"
 792 000e 0000     		.align	2
 793              	.LC4:
 794 0010 4500     		.ascii	"E\000"
 795 0012 0000     		.align	2
 796              	.LC5:
 797 0014 41424344 		.ascii	"ABCDE\000"
 797      4500
 798              		.section	.text.sem1_execute,"ax",%progbits
 799              		.align	2
 800              		.p2align 4,,15
 801              		.thumb
 802              		.thumb_func
 803              		.type	sem1_execute, %function
 804              	sem1_execute:
 805              	.LFB231:
 806              		.loc 11 83 0
 807              		.cfi_startproc
 808              		@ args = 0, pretend = 0, frame = 0
 809              		@ frame_needed = 1, uses_anonymous_args = 0
 810 0000 90B5     		push	{r4, r7, lr}
 811              		.cfi_def_cfa_offset 12
 812              		.cfi_offset 4, -12
 813              		.cfi_offset 7, -8
 814              		.cfi_offset 14, -4
 815 0002 83B0     		sub	sp, sp, #12
 816              		.cfi_def_cfa_offset 24
 817 0004 02AF     		add	r7, sp, #8
 818              		.cfi_def_cfa 7, 16
 819              		.loc 11 85 0
 820 0006 554B     		ldr	r3, .L49
 821 0008 1C68     		ldr	r4, [r3]
 822 000a FFF7FEFF 		bl	chThdGetPriorityX
 823 000e 0346     		mov	r3, r0
 824 0010 0533     		adds	r3, r3, #5
 825 0012 534A     		ldr	r2, .L49+4
 826 0014 0092     		str	r2, [sp]
 827 0016 2046     		mov	r0, r4
 828 0018 4FF4B871 		mov	r1, #368
 829 001c 1A46     		mov	r2, r3
 830 001e 514B     		ldr	r3, .L49+8
ARM GAS  C:\Users\Luis\AppData\Local\Temp\ccMQOx1f.s 			page 16


 831 0020 FFF7FEFF 		bl	chThdCreateStatic
 832 0024 0246     		mov	r2, r0
 833 0026 504B     		ldr	r3, .L49+12
 834 0028 1A60     		str	r2, [r3]
 835              		.loc 11 86 0
 836 002a 4C4B     		ldr	r3, .L49
 837 002c 5C68     		ldr	r4, [r3, #4]
 838 002e FFF7FEFF 		bl	chThdGetPriorityX
 839 0032 0346     		mov	r3, r0
 840 0034 0133     		adds	r3, r3, #1
 841 0036 4D4A     		ldr	r2, .L49+16
 842 0038 0092     		str	r2, [sp]
 843 003a 2046     		mov	r0, r4
 844 003c 4FF4B871 		mov	r1, #368
 845 0040 1A46     		mov	r2, r3
 846 0042 484B     		ldr	r3, .L49+8
 847 0044 FFF7FEFF 		bl	chThdCreateStatic
 848 0048 0246     		mov	r2, r0
 849 004a 474B     		ldr	r3, .L49+12
 850 004c 5A60     		str	r2, [r3, #4]
 851              		.loc 11 87 0
 852 004e 434B     		ldr	r3, .L49
 853 0050 9C68     		ldr	r4, [r3, #8]
 854 0052 FFF7FEFF 		bl	chThdGetPriorityX
 855 0056 0346     		mov	r3, r0
 856 0058 0333     		adds	r3, r3, #3
 857 005a 454A     		ldr	r2, .L49+20
 858 005c 0092     		str	r2, [sp]
 859 005e 2046     		mov	r0, r4
 860 0060 4FF4B871 		mov	r1, #368
 861 0064 1A46     		mov	r2, r3
 862 0066 3F4B     		ldr	r3, .L49+8
 863 0068 FFF7FEFF 		bl	chThdCreateStatic
 864 006c 0246     		mov	r2, r0
 865 006e 3E4B     		ldr	r3, .L49+12
 866 0070 9A60     		str	r2, [r3, #8]
 867              		.loc 11 88 0
 868 0072 3A4B     		ldr	r3, .L49
 869 0074 DC68     		ldr	r4, [r3, #12]
 870 0076 FFF7FEFF 		bl	chThdGetPriorityX
 871 007a 0346     		mov	r3, r0
 872 007c 0433     		adds	r3, r3, #4
 873 007e 3D4A     		ldr	r2, .L49+24
 874 0080 0092     		str	r2, [sp]
 875 0082 2046     		mov	r0, r4
 876 0084 4FF4B871 		mov	r1, #368
 877 0088 1A46     		mov	r2, r3
 878 008a 364B     		ldr	r3, .L49+8
 879 008c FFF7FEFF 		bl	chThdCreateStatic
 880 0090 0246     		mov	r2, r0
 881 0092 354B     		ldr	r3, .L49+12
 882 0094 DA60     		str	r2, [r3, #12]
 883              		.loc 11 89 0
 884 0096 314B     		ldr	r3, .L49
 885 0098 1C69     		ldr	r4, [r3, #16]
 886 009a FFF7FEFF 		bl	chThdGetPriorityX
 887 009e 0346     		mov	r3, r0
ARM GAS  C:\Users\Luis\AppData\Local\Temp\ccMQOx1f.s 			page 17


 888 00a0 0233     		adds	r3, r3, #2
 889 00a2 354A     		ldr	r2, .L49+28
 890 00a4 0092     		str	r2, [sp]
 891 00a6 2046     		mov	r0, r4
 892 00a8 4FF4B871 		mov	r1, #368
 893 00ac 1A46     		mov	r2, r3
 894 00ae 2D4B     		ldr	r3, .L49+8
 895 00b0 FFF7FEFF 		bl	chThdCreateStatic
 896 00b4 0246     		mov	r2, r0
 897 00b6 2C4B     		ldr	r3, .L49+12
 898 00b8 1A61     		str	r2, [r3, #16]
 899              		.loc 11 90 0
 900 00ba 3048     		ldr	r0, .L49+32
 901 00bc FFF7FEFF 		bl	chSemSignal
 902              		.loc 11 91 0
 903 00c0 2E48     		ldr	r0, .L49+32
 904 00c2 FFF7FEFF 		bl	chSemSignal
 905              		.loc 11 92 0
 906 00c6 2D48     		ldr	r0, .L49+32
 907 00c8 FFF7FEFF 		bl	chSemSignal
 908              		.loc 11 93 0
 909 00cc 2B48     		ldr	r0, .L49+32
 910 00ce FFF7FEFF 		bl	chSemSignal
 911              		.loc 11 94 0
 912 00d2 2A48     		ldr	r0, .L49+32
 913 00d4 FFF7FEFF 		bl	chSemSignal
 914              		.loc 11 95 0
 915 00d8 FFF7FEFF 		bl	test_wait_threads
 916              		.loc 11 99 0
 917 00dc 0120     		movs	r0, #1
 918 00de 2849     		ldr	r1, .L49+36
 919 00e0 FFF7FEFF 		bl	_test_assert_sequence
 920 00e4 0346     		mov	r3, r0
 921 00e6 002B     		cmp	r3, #0
 922 00e8 00D0     		beq	.L46
 923              		.loc 11 99 0 is_stmt 0 discriminator 1
 924 00ea 34E0     		b	.L45
 925              	.L46:
 926              		.loc 11 101 0 is_stmt 1
 927 00ec 1B4B     		ldr	r3, .L49
 928 00ee 1C68     		ldr	r4, [r3]
 929 00f0 FFF7FEFF 		bl	chThdGetPriorityX
 930 00f4 0346     		mov	r3, r0
 931 00f6 0533     		adds	r3, r3, #5
 932 00f8 194A     		ldr	r2, .L49+4
 933 00fa 0092     		str	r2, [sp]
 934 00fc 2046     		mov	r0, r4
 935 00fe 4FF4B871 		mov	r1, #368
 936 0102 1A46     		mov	r2, r3
 937 0104 174B     		ldr	r3, .L49+8
 938 0106 FFF7FEFF 		bl	chThdCreateStatic
 939 010a 0246     		mov	r2, r0
 940 010c 164B     		ldr	r3, .L49+12
 941 010e 1A60     		str	r2, [r3]
 942              		.loc 11 102 0
 943 0110 FFF7FEFF 		bl	chSysLock
 944              		.loc 11 103 0
ARM GAS  C:\Users\Luis\AppData\Local\Temp\ccMQOx1f.s 			page 18


 945 0114 1948     		ldr	r0, .L49+32
 946 0116 0221     		movs	r1, #2
 947 0118 FFF7FEFF 		bl	chSemAddCounterI
 948              		.loc 11 104 0
 949 011c FFF7FEFF 		bl	chSchRescheduleS
 950              		.loc 11 105 0
 951 0120 FFF7FEFF 		bl	chSysUnlock
 952              		.loc 11 106 0
 953 0124 FFF7FEFF 		bl	test_wait_threads
 954              		.loc 11 107 0
 955 0128 FFF7FEFF 		bl	chSysLock
 956 012c 1348     		ldr	r0, .L49+32
 957 012e FFF7FEFF 		bl	chSemGetCounterI
 958 0132 0346     		mov	r3, r0
 959 0134 012B     		cmp	r3, #1
 960 0136 14BF     		ite	ne
 961 0138 0023     		movne	r3, #0
 962 013a 0123     		moveq	r3, #1
 963 013c DBB2     		uxtb	r3, r3
 964 013e 0220     		movs	r0, #2
 965 0140 1946     		mov	r1, r3
 966 0142 FFF7FEFF 		bl	_test_assert
 967 0146 0346     		mov	r3, r0
 968 0148 002B     		cmp	r3, #0
 969 014a 02D0     		beq	.L48
 970              		.loc 11 107 0 is_stmt 0 discriminator 1
 971 014c FFF7FEFF 		bl	chSysUnlock
 972 0150 01E0     		b	.L45
 973              	.L48:
 974              		.loc 11 107 0 discriminator 2
 975 0152 FFF7FEFF 		bl	chSysUnlock
 976              	.L45:
 977              		.loc 11 108 0 is_stmt 1
 978 0156 0437     		adds	r7, r7, #4
 979 0158 BD46     		mov	sp, r7
 980              		@ sp needed
 981 015a 90BD     		pop	{r4, r7, pc}
 982              	.L50:
 983              		.align	2
 984              	.L49:
 985 015c 00000000 		.word	wa
 986 0160 00000000 		.word	.LC0
 987 0164 00000000 		.word	thread1
 988 0168 00000000 		.word	threads
 989 016c 04000000 		.word	.LC1
 990 0170 08000000 		.word	.LC2
 991 0174 0C000000 		.word	.LC3
 992 0178 10000000 		.word	.LC4
 993 017c 00000000 		.word	sem1
 994 0180 14000000 		.word	.LC5
 995              		.cfi_endproc
 996              	.LFE231:
 997              		.size	sem1_execute, .-sem1_execute
 998              		.global	testsem1
 999 0184 AFF30080 		.section	.rodata
 999      AFF30080 
 999      AFF30080 
ARM GAS  C:\Users\Luis\AppData\Local\Temp\ccMQOx1f.s 			page 19


 1000 001a 0000     		.align	2
 1001              	.LC6:
 1002 001c 53656D61 		.ascii	"Semaphores, enqueuing\000"
 1002      70686F72 
 1002      65732C20 
 1002      656E7175 
 1002      6575696E 
 1003              		.section	.rodata.testsem1,"a",%progbits
 1004              		.align	2
 1005              		.type	testsem1, %object
 1006              		.size	testsem1, 16
 1007              	testsem1:
 1008 0000 1C000000 		.word	.LC6
 1009 0004 00000000 		.word	sem1_setup
 1010 0008 00000000 		.word	0
 1011 000c 00000000 		.word	sem1_execute
 1012              		.section	.text.sem2_setup,"ax",%progbits
 1013              		.align	2
 1014              		.p2align 4,,15
 1015              		.thumb
 1016              		.thumb_func
 1017              		.type	sem2_setup, %function
 1018              	sem2_setup:
 1019              	.LFB232:
 1020              		.loc 11 128 0
 1021              		.cfi_startproc
 1022              		@ args = 0, pretend = 0, frame = 0
 1023              		@ frame_needed = 1, uses_anonymous_args = 0
 1024 0000 80B5     		push	{r7, lr}
 1025              		.cfi_def_cfa_offset 8
 1026              		.cfi_offset 7, -8
 1027              		.cfi_offset 14, -4
 1028 0002 00AF     		add	r7, sp, #0
 1029              		.cfi_def_cfa_register 7
 1030              		.loc 11 130 0
 1031 0004 0248     		ldr	r0, .L52
 1032 0006 0021     		movs	r1, #0
 1033 0008 FFF7FEFF 		bl	chSemObjectInit
 1034              		.loc 11 131 0
 1035 000c 80BD     		pop	{r7, pc}
 1036              	.L53:
 1037 000e 00BF     		.align	2
 1038              	.L52:
 1039 0010 00000000 		.word	sem1
 1040              		.cfi_endproc
 1041              	.LFE232:
 1042              		.size	sem2_setup, .-sem2_setup
 1043 0014 AFF30080 		.section	.text.thread2,"ax",%progbits
 1043      AFF30080 
 1043      AFF30080 
 1044              		.align	2
 1045              		.p2align 4,,15
 1046              		.thumb
 1047              		.thumb_func
 1048              		.type	thread2, %function
 1049              	thread2:
 1050              	.LFB233:
ARM GAS  C:\Users\Luis\AppData\Local\Temp\ccMQOx1f.s 			page 20


 1051              		.loc 11 133 0
 1052              		.cfi_startproc
 1053              		@ args = 0, pretend = 0, frame = 8
 1054              		@ frame_needed = 1, uses_anonymous_args = 0
 1055 0000 80B5     		push	{r7, lr}
 1056              		.cfi_def_cfa_offset 8
 1057              		.cfi_offset 7, -8
 1058              		.cfi_offset 14, -4
 1059 0002 82B0     		sub	sp, sp, #8
 1060              		.cfi_def_cfa_offset 16
 1061 0004 00AF     		add	r7, sp, #0
 1062              		.cfi_def_cfa_register 7
 1063 0006 7860     		str	r0, [r7, #4]
 1064              		.loc 11 136 0
 1065 0008 4FF4FA70 		mov	r0, #500
 1066 000c FFF7FEFF 		bl	chThdSleep
 1067              		.loc 11 137 0
 1068 0010 FFF7FEFF 		bl	chSysLock
 1069              		.loc 11 138 0
 1070 0014 0448     		ldr	r0, .L55
 1071 0016 FFF7FEFF 		bl	chSemSignalI
 1072              		.loc 11 139 0
 1073 001a FFF7FEFF 		bl	chSchRescheduleS
 1074              		.loc 11 140 0
 1075 001e FFF7FEFF 		bl	chSysUnlock
 1076              		.loc 11 141 0
 1077 0022 0837     		adds	r7, r7, #8
 1078 0024 BD46     		mov	sp, r7
 1079              		@ sp needed
 1080 0026 80BD     		pop	{r7, pc}
 1081              	.L56:
 1082              		.align	2
 1083              	.L55:
 1084 0028 00000000 		.word	sem1
 1085              		.cfi_endproc
 1086              	.LFE233:
 1087              		.size	thread2, .-thread2
 1088 002c AFF30080 		.section	.text.sem2_execute,"ax",%progbits
 1089              		.align	2
 1090              		.p2align 4,,15
 1091              		.thumb
 1092              		.thumb_func
 1093              		.type	sem2_execute, %function
 1094              	sem2_execute:
 1095              	.LFB234:
 1096              		.loc 11 143 0
 1097              		.cfi_startproc
 1098              		@ args = 0, pretend = 0, frame = 16
 1099              		@ frame_needed = 1, uses_anonymous_args = 0
 1100 0000 90B5     		push	{r4, r7, lr}
 1101              		.cfi_def_cfa_offset 12
 1102              		.cfi_offset 4, -12
 1103              		.cfi_offset 7, -8
 1104              		.cfi_offset 14, -4
 1105 0002 87B0     		sub	sp, sp, #28
 1106              		.cfi_def_cfa_offset 40
 1107 0004 02AF     		add	r7, sp, #8
ARM GAS  C:\Users\Luis\AppData\Local\Temp\ccMQOx1f.s 			page 21


 1108              		.cfi_def_cfa 7, 32
 1109              		.loc 11 151 0
 1110 0006 6848     		ldr	r0, .L71
 1111 0008 0021     		movs	r1, #0
 1112 000a FFF7FEFF 		bl	chSemWaitTimeout
 1113 000e B860     		str	r0, [r7, #8]
 1114              		.loc 11 152 0
 1115 0010 BB68     		ldr	r3, [r7, #8]
 1116 0012 B3F1FF3F 		cmp	r3, #-1
 1117 0016 14BF     		ite	ne
 1118 0018 0023     		movne	r3, #0
 1119 001a 0123     		moveq	r3, #1
 1120 001c DBB2     		uxtb	r3, r3
 1121 001e 0120     		movs	r0, #1
 1122 0020 1946     		mov	r1, r3
 1123 0022 FFF7FEFF 		bl	_test_assert
 1124 0026 0346     		mov	r3, r0
 1125 0028 002B     		cmp	r3, #0
 1126 002a 00D0     		beq	.L58
 1127              		.loc 11 152 0 is_stmt 0 discriminator 1
 1128 002c B8E0     		b	.L57
 1129              	.L58:
 1130              		.loc 11 153 0 is_stmt 1
 1131 002e 5E48     		ldr	r0, .L71
 1132 0030 FFF7FEFF 		bl	queue_isempty
 1133 0034 0346     		mov	r3, r0
 1134 0036 0220     		movs	r0, #2
 1135 0038 1946     		mov	r1, r3
 1136 003a FFF7FEFF 		bl	_test_assert
 1137 003e 0346     		mov	r3, r0
 1138 0040 002B     		cmp	r3, #0
 1139 0042 00D0     		beq	.L60
 1140              		.loc 11 153 0 is_stmt 0 discriminator 1
 1141 0044 ACE0     		b	.L57
 1142              	.L60:
 1143              		.loc 11 154 0 is_stmt 1
 1144 0046 584B     		ldr	r3, .L71
 1145 0048 9B68     		ldr	r3, [r3, #8]
 1146 004a 002B     		cmp	r3, #0
 1147 004c 14BF     		ite	ne
 1148 004e 0023     		movne	r3, #0
 1149 0050 0123     		moveq	r3, #1
 1150 0052 DBB2     		uxtb	r3, r3
 1151 0054 0320     		movs	r0, #3
 1152 0056 1946     		mov	r1, r3
 1153 0058 FFF7FEFF 		bl	_test_assert
 1154 005c 0346     		mov	r3, r0
 1155 005e 002B     		cmp	r3, #0
 1156 0060 00D0     		beq	.L61
 1157              		.loc 11 154 0 is_stmt 0 discriminator 1
 1158 0062 9DE0     		b	.L57
 1159              	.L61:
 1160              		.loc 11 159 0 is_stmt 1
 1161 0064 514B     		ldr	r3, .L71+4
 1162 0066 1C68     		ldr	r4, [r3]
 1163 0068 FFF7FEFF 		bl	chThdGetPriorityX
 1164 006c 0346     		mov	r3, r0
ARM GAS  C:\Users\Luis\AppData\Local\Temp\ccMQOx1f.s 			page 22


 1165 006e 013B     		subs	r3, r3, #1
 1166 0070 0022     		movs	r2, #0
 1167 0072 0092     		str	r2, [sp]
 1168 0074 2046     		mov	r0, r4
 1169 0076 4FF4B871 		mov	r1, #368
 1170 007a 1A46     		mov	r2, r3
 1171 007c 4C4B     		ldr	r3, .L71+8
 1172 007e FFF7FEFF 		bl	chThdCreateStatic
 1173 0082 0246     		mov	r2, r0
 1174 0084 4B4B     		ldr	r3, .L71+12
 1175 0086 1A60     		str	r2, [r3]
 1176              		.loc 11 161 0
 1177 0088 4748     		ldr	r0, .L71
 1178 008a 41F28831 		movw	r1, #5000
 1179 008e FFF7FEFF 		bl	chSemWaitTimeout
 1180 0092 B860     		str	r0, [r7, #8]
 1181              		.loc 11 162 0
 1182 0094 FFF7FEFF 		bl	test_wait_threads
 1183              		.loc 11 163 0
 1184 0098 BB68     		ldr	r3, [r7, #8]
 1185 009a 002B     		cmp	r3, #0
 1186 009c 14BF     		ite	ne
 1187 009e 0023     		movne	r3, #0
 1188 00a0 0123     		moveq	r3, #1
 1189 00a2 DBB2     		uxtb	r3, r3
 1190 00a4 0420     		movs	r0, #4
 1191 00a6 1946     		mov	r1, r3
 1192 00a8 FFF7FEFF 		bl	_test_assert
 1193 00ac 0346     		mov	r3, r0
 1194 00ae 002B     		cmp	r3, #0
 1195 00b0 00D0     		beq	.L62
 1196              		.loc 11 163 0 is_stmt 0 discriminator 1
 1197 00b2 75E0     		b	.L57
 1198              	.L62:
 1199              		.loc 11 164 0 is_stmt 1
 1200 00b4 3C48     		ldr	r0, .L71
 1201 00b6 FFF7FEFF 		bl	queue_isempty
 1202 00ba 0346     		mov	r3, r0
 1203 00bc 0520     		movs	r0, #5
 1204 00be 1946     		mov	r1, r3
 1205 00c0 FFF7FEFF 		bl	_test_assert
 1206 00c4 0346     		mov	r3, r0
 1207 00c6 002B     		cmp	r3, #0
 1208 00c8 00D0     		beq	.L63
 1209              		.loc 11 164 0 is_stmt 0 discriminator 1
 1210 00ca 69E0     		b	.L57
 1211              	.L63:
 1212              		.loc 11 165 0 is_stmt 1
 1213 00cc 364B     		ldr	r3, .L71
 1214 00ce 9B68     		ldr	r3, [r3, #8]
 1215 00d0 002B     		cmp	r3, #0
 1216 00d2 14BF     		ite	ne
 1217 00d4 0023     		movne	r3, #0
 1218 00d6 0123     		moveq	r3, #1
 1219 00d8 DBB2     		uxtb	r3, r3
 1220 00da 0620     		movs	r0, #6
 1221 00dc 1946     		mov	r1, r3
ARM GAS  C:\Users\Luis\AppData\Local\Temp\ccMQOx1f.s 			page 23


 1222 00de FFF7FEFF 		bl	_test_assert
 1223 00e2 0346     		mov	r3, r0
 1224 00e4 002B     		cmp	r3, #0
 1225 00e6 00D0     		beq	.L64
 1226              		.loc 11 165 0 is_stmt 0 discriminator 1
 1227 00e8 5AE0     		b	.L57
 1228              	.L64:
 1229              		.loc 11 170 0 is_stmt 1
 1230 00ea FFF7FEFF 		bl	test_wait_tick
 1231              		.loc 11 171 0
 1232 00ee FFF7FEFF 		bl	chVTGetSystemTime
 1233 00f2 0346     		mov	r3, r0
 1234 00f4 03F6C413 		addw	r3, r3, #2500
 1235 00f8 7B60     		str	r3, [r7, #4]
 1236              		.loc 11 172 0
 1237 00fa 0023     		movs	r3, #0
 1238 00fc FB60     		str	r3, [r7, #12]
 1239 00fe 39E0     		b	.L65
 1240              	.L69:
 1241              		.loc 11 173 0
 1242 0100 FB68     		ldr	r3, [r7, #12]
 1243 0102 DBB2     		uxtb	r3, r3
 1244 0104 4133     		adds	r3, r3, #65
 1245 0106 DBB2     		uxtb	r3, r3
 1246 0108 1846     		mov	r0, r3
 1247 010a FFF7FEFF 		bl	test_emit_token
 1248              		.loc 11 174 0
 1249 010e 2648     		ldr	r0, .L71
 1250 0110 4FF4FA71 		mov	r1, #500
 1251 0114 FFF7FEFF 		bl	chSemWaitTimeout
 1252 0118 B860     		str	r0, [r7, #8]
 1253              		.loc 11 175 0
 1254 011a BB68     		ldr	r3, [r7, #8]
 1255 011c B3F1FF3F 		cmp	r3, #-1
 1256 0120 14BF     		ite	ne
 1257 0122 0023     		movne	r3, #0
 1258 0124 0123     		moveq	r3, #1
 1259 0126 DBB2     		uxtb	r3, r3
 1260 0128 0720     		movs	r0, #7
 1261 012a 1946     		mov	r1, r3
 1262 012c FFF7FEFF 		bl	_test_assert
 1263 0130 0346     		mov	r3, r0
 1264 0132 002B     		cmp	r3, #0
 1265 0134 00D0     		beq	.L66
 1266              		.loc 11 175 0 is_stmt 0 discriminator 1
 1267 0136 33E0     		b	.L57
 1268              	.L66:
 1269              		.loc 11 176 0 is_stmt 1
 1270 0138 1B48     		ldr	r0, .L71
 1271 013a FFF7FEFF 		bl	queue_isempty
 1272 013e 0346     		mov	r3, r0
 1273 0140 0820     		movs	r0, #8
 1274 0142 1946     		mov	r1, r3
 1275 0144 FFF7FEFF 		bl	_test_assert
 1276 0148 0346     		mov	r3, r0
 1277 014a 002B     		cmp	r3, #0
 1278 014c 00D0     		beq	.L67
ARM GAS  C:\Users\Luis\AppData\Local\Temp\ccMQOx1f.s 			page 24


 1279              		.loc 11 176 0 is_stmt 0 discriminator 1
 1280 014e 27E0     		b	.L57
 1281              	.L67:
 1282              		.loc 11 177 0 is_stmt 1
 1283 0150 154B     		ldr	r3, .L71
 1284 0152 9B68     		ldr	r3, [r3, #8]
 1285 0154 002B     		cmp	r3, #0
 1286 0156 14BF     		ite	ne
 1287 0158 0023     		movne	r3, #0
 1288 015a 0123     		moveq	r3, #1
 1289 015c DBB2     		uxtb	r3, r3
 1290 015e 0920     		movs	r0, #9
 1291 0160 1946     		mov	r1, r3
 1292 0162 FFF7FEFF 		bl	_test_assert
 1293 0166 0346     		mov	r3, r0
 1294 0168 002B     		cmp	r3, #0
 1295 016a 00D0     		beq	.L68
 1296              		.loc 11 177 0 is_stmt 0 discriminator 1
 1297 016c 18E0     		b	.L57
 1298              	.L68:
 1299              		.loc 11 172 0 is_stmt 1
 1300 016e FB68     		ldr	r3, [r7, #12]
 1301 0170 0133     		adds	r3, r3, #1
 1302 0172 FB60     		str	r3, [r7, #12]
 1303              	.L65:
 1304              		.loc 11 172 0 is_stmt 0 discriminator 1
 1305 0174 FB68     		ldr	r3, [r7, #12]
 1306 0176 042B     		cmp	r3, #4
 1307 0178 C2DD     		ble	.L69
 1308              		.loc 11 179 0 is_stmt 1
 1309 017a 0A20     		movs	r0, #10
 1310 017c 0E49     		ldr	r1, .L71+16
 1311 017e FFF7FEFF 		bl	_test_assert_sequence
 1312 0182 0346     		mov	r3, r0
 1313 0184 002B     		cmp	r3, #0
 1314 0186 00D0     		beq	.L70
 1315              		.loc 11 179 0 is_stmt 0 discriminator 1
 1316 0188 0AE0     		b	.L57
 1317              	.L70:
 1318              		.loc 11 180 0 is_stmt 1
 1319 018a 7B68     		ldr	r3, [r7, #4]
 1320 018c 1433     		adds	r3, r3, #20
 1321 018e 0B20     		movs	r0, #11
 1322 0190 7968     		ldr	r1, [r7, #4]
 1323 0192 1A46     		mov	r2, r3
 1324 0194 FFF7FEFF 		bl	_test_assert_time_window
 1325 0198 0346     		mov	r3, r0
 1326 019a 002B     		cmp	r3, #0
 1327 019c 00D0     		beq	.L57
 1328              		.loc 11 180 0 is_stmt 0 discriminator 1
 1329 019e 00BF     		nop
 1330              	.L57:
 1331              		.loc 11 181 0 is_stmt 1
 1332 01a0 1437     		adds	r7, r7, #20
 1333 01a2 BD46     		mov	sp, r7
 1334              		@ sp needed
 1335 01a4 90BD     		pop	{r4, r7, pc}
ARM GAS  C:\Users\Luis\AppData\Local\Temp\ccMQOx1f.s 			page 25


 1336              	.L72:
 1337 01a6 00BF     		.align	2
 1338              	.L71:
 1339 01a8 00000000 		.word	sem1
 1340 01ac 00000000 		.word	wa
 1341 01b0 00000000 		.word	thread2
 1342 01b4 00000000 		.word	threads
 1343 01b8 14000000 		.word	.LC5
 1344              		.cfi_endproc
 1345              	.LFE234:
 1346              		.size	sem2_execute, .-sem2_execute
 1347              		.global	testsem2
 1348 01bc AFF30080 		.section	.rodata
 1349 0032 0000     		.align	2
 1350              	.LC7:
 1351 0034 53656D61 		.ascii	"Semaphores, timeout\000"
 1351      70686F72 
 1351      65732C20 
 1351      74696D65 
 1351      6F757400 
 1352              		.section	.rodata.testsem2,"a",%progbits
 1353              		.align	2
 1354              		.type	testsem2, %object
 1355              		.size	testsem2, 16
 1356              	testsem2:
 1357 0000 34000000 		.word	.LC7
 1358 0004 00000000 		.word	sem2_setup
 1359 0008 00000000 		.word	0
 1360 000c 00000000 		.word	sem2_execute
 1361              		.section	.text.sem3_setup,"ax",%progbits
 1362              		.align	2
 1363              		.p2align 4,,15
 1364              		.thumb
 1365              		.thumb_func
 1366              		.type	sem3_setup, %function
 1367              	sem3_setup:
 1368              	.LFB235:
 1369              		.loc 11 202 0
 1370              		.cfi_startproc
 1371              		@ args = 0, pretend = 0, frame = 0
 1372              		@ frame_needed = 1, uses_anonymous_args = 0
 1373 0000 80B5     		push	{r7, lr}
 1374              		.cfi_def_cfa_offset 8
 1375              		.cfi_offset 7, -8
 1376              		.cfi_offset 14, -4
 1377 0002 00AF     		add	r7, sp, #0
 1378              		.cfi_def_cfa_register 7
 1379              		.loc 11 204 0
 1380 0004 0248     		ldr	r0, .L74
 1381 0006 0021     		movs	r1, #0
 1382 0008 FFF7FEFF 		bl	chSemObjectInit
 1383              		.loc 11 205 0
 1384 000c 80BD     		pop	{r7, pc}
 1385              	.L75:
 1386 000e 00BF     		.align	2
 1387              	.L74:
 1388 0010 00000000 		.word	sem1
ARM GAS  C:\Users\Luis\AppData\Local\Temp\ccMQOx1f.s 			page 26


 1389              		.cfi_endproc
 1390              	.LFE235:
 1391              		.size	sem3_setup, .-sem3_setup
 1392 0014 AFF30080 		.section	.text.thread3,"ax",%progbits
 1392      AFF30080 
 1392      AFF30080 
 1393              		.align	2
 1394              		.p2align 4,,15
 1395              		.thumb
 1396              		.thumb_func
 1397              		.type	thread3, %function
 1398              	thread3:
 1399              	.LFB236:
 1400              		.loc 11 207 0
 1401              		.cfi_startproc
 1402              		@ args = 0, pretend = 0, frame = 8
 1403              		@ frame_needed = 1, uses_anonymous_args = 0
 1404 0000 80B5     		push	{r7, lr}
 1405              		.cfi_def_cfa_offset 8
 1406              		.cfi_offset 7, -8
 1407              		.cfi_offset 14, -4
 1408 0002 82B0     		sub	sp, sp, #8
 1409              		.cfi_def_cfa_offset 16
 1410 0004 00AF     		add	r7, sp, #0
 1411              		.cfi_def_cfa_register 7
 1412 0006 7860     		str	r0, [r7, #4]
 1413              		.loc 11 210 0
 1414 0008 0448     		ldr	r0, .L77
 1415 000a FFF7FEFF 		bl	chSemWait
 1416              		.loc 11 211 0
 1417 000e 0348     		ldr	r0, .L77
 1418 0010 FFF7FEFF 		bl	chSemSignal
 1419              		.loc 11 212 0
 1420 0014 0837     		adds	r7, r7, #8
 1421 0016 BD46     		mov	sp, r7
 1422              		@ sp needed
 1423 0018 80BD     		pop	{r7, pc}
 1424              	.L78:
 1425 001a 00BF     		.align	2
 1426              	.L77:
 1427 001c 00000000 		.word	sem1
 1428              		.cfi_endproc
 1429              	.LFE236:
 1430              		.size	thread3, .-thread3
 1431              		.section	.text.sem3_execute,"ax",%progbits
 1432              		.align	2
 1433              		.p2align 4,,15
 1434              		.thumb
 1435              		.thumb_func
 1436              		.type	sem3_execute, %function
 1437              	sem3_execute:
 1438              	.LFB237:
 1439              		.loc 11 214 0
 1440              		.cfi_startproc
 1441              		@ args = 0, pretend = 0, frame = 0
 1442              		@ frame_needed = 1, uses_anonymous_args = 0
 1443 0000 90B5     		push	{r4, r7, lr}
ARM GAS  C:\Users\Luis\AppData\Local\Temp\ccMQOx1f.s 			page 27


 1444              		.cfi_def_cfa_offset 12
 1445              		.cfi_offset 4, -12
 1446              		.cfi_offset 7, -8
 1447              		.cfi_offset 14, -4
 1448 0002 83B0     		sub	sp, sp, #12
 1449              		.cfi_def_cfa_offset 24
 1450 0004 02AF     		add	r7, sp, #8
 1451              		.cfi_def_cfa 7, 16
 1452              		.loc 11 216 0
 1453 0006 294B     		ldr	r3, .L84
 1454 0008 1C68     		ldr	r4, [r3]
 1455 000a FFF7FEFF 		bl	chThdGetPriorityX
 1456 000e 0346     		mov	r3, r0
 1457 0010 0133     		adds	r3, r3, #1
 1458 0012 0022     		movs	r2, #0
 1459 0014 0092     		str	r2, [sp]
 1460 0016 2046     		mov	r0, r4
 1461 0018 4FF4B871 		mov	r1, #368
 1462 001c 1A46     		mov	r2, r3
 1463 001e 244B     		ldr	r3, .L84+4
 1464 0020 FFF7FEFF 		bl	chThdCreateStatic
 1465 0024 0246     		mov	r2, r0
 1466 0026 234B     		ldr	r3, .L84+8
 1467 0028 1A60     		str	r2, [r3]
 1468              		.loc 11 217 0
 1469 002a 2348     		ldr	r0, .L84+12
 1470 002c 2249     		ldr	r1, .L84+12
 1471 002e FFF7FEFF 		bl	chSemSignalWait
 1472              		.loc 11 218 0
 1473 0032 2148     		ldr	r0, .L84+12
 1474 0034 FFF7FEFF 		bl	queue_isempty
 1475 0038 0346     		mov	r3, r0
 1476 003a 0120     		movs	r0, #1
 1477 003c 1946     		mov	r1, r3
 1478 003e FFF7FEFF 		bl	_test_assert
 1479 0042 0346     		mov	r3, r0
 1480 0044 002B     		cmp	r3, #0
 1481 0046 00D0     		beq	.L80
 1482              		.loc 11 218 0 is_stmt 0 discriminator 1
 1483 0048 2DE0     		b	.L79
 1484              	.L80:
 1485              		.loc 11 219 0 is_stmt 1
 1486 004a 1B4B     		ldr	r3, .L84+12
 1487 004c 9B68     		ldr	r3, [r3, #8]
 1488 004e 002B     		cmp	r3, #0
 1489 0050 14BF     		ite	ne
 1490 0052 0023     		movne	r3, #0
 1491 0054 0123     		moveq	r3, #1
 1492 0056 DBB2     		uxtb	r3, r3
 1493 0058 0220     		movs	r0, #2
 1494 005a 1946     		mov	r1, r3
 1495 005c FFF7FEFF 		bl	_test_assert
 1496 0060 0346     		mov	r3, r0
 1497 0062 002B     		cmp	r3, #0
 1498 0064 00D0     		beq	.L82
 1499              		.loc 11 219 0 is_stmt 0 discriminator 1
 1500 0066 1EE0     		b	.L79
ARM GAS  C:\Users\Luis\AppData\Local\Temp\ccMQOx1f.s 			page 28


 1501              	.L82:
 1502              		.loc 11 221 0 is_stmt 1
 1503 0068 1348     		ldr	r0, .L84+12
 1504 006a 1349     		ldr	r1, .L84+12
 1505 006c FFF7FEFF 		bl	chSemSignalWait
 1506              		.loc 11 222 0
 1507 0070 1148     		ldr	r0, .L84+12
 1508 0072 FFF7FEFF 		bl	queue_isempty
 1509 0076 0346     		mov	r3, r0
 1510 0078 0320     		movs	r0, #3
 1511 007a 1946     		mov	r1, r3
 1512 007c FFF7FEFF 		bl	_test_assert
 1513 0080 0346     		mov	r3, r0
 1514 0082 002B     		cmp	r3, #0
 1515 0084 00D0     		beq	.L83
 1516              		.loc 11 222 0 is_stmt 0 discriminator 1
 1517 0086 0EE0     		b	.L79
 1518              	.L83:
 1519              		.loc 11 223 0 is_stmt 1
 1520 0088 0B4B     		ldr	r3, .L84+12
 1521 008a 9B68     		ldr	r3, [r3, #8]
 1522 008c 002B     		cmp	r3, #0
 1523 008e 14BF     		ite	ne
 1524 0090 0023     		movne	r3, #0
 1525 0092 0123     		moveq	r3, #1
 1526 0094 DBB2     		uxtb	r3, r3
 1527 0096 0420     		movs	r0, #4
 1528 0098 1946     		mov	r1, r3
 1529 009a FFF7FEFF 		bl	_test_assert
 1530 009e 0346     		mov	r3, r0
 1531 00a0 002B     		cmp	r3, #0
 1532 00a2 00D0     		beq	.L79
 1533              		.loc 11 223 0 is_stmt 0 discriminator 1
 1534 00a4 00BF     		nop
 1535              	.L79:
 1536              		.loc 11 224 0 is_stmt 1
 1537 00a6 0437     		adds	r7, r7, #4
 1538 00a8 BD46     		mov	sp, r7
 1539              		@ sp needed
 1540 00aa 90BD     		pop	{r4, r7, pc}
 1541              	.L85:
 1542              		.align	2
 1543              	.L84:
 1544 00ac 00000000 		.word	wa
 1545 00b0 00000000 		.word	thread3
 1546 00b4 00000000 		.word	threads
 1547 00b8 00000000 		.word	sem1
 1548              		.cfi_endproc
 1549              	.LFE237:
 1550              		.size	sem3_execute, .-sem3_execute
 1551              		.global	testsem3
 1552 00bc AFF30080 		.section	.rodata
 1553              		.align	2
 1554              	.LC8:
 1555 0048 53656D61 		.ascii	"Semaphores, atomic signal-wait\000"
 1555      70686F72 
 1555      65732C20 
ARM GAS  C:\Users\Luis\AppData\Local\Temp\ccMQOx1f.s 			page 29


 1555      61746F6D 
 1555      69632073 
 1556              		.section	.rodata.testsem3,"a",%progbits
 1557              		.align	2
 1558              		.type	testsem3, %object
 1559              		.size	testsem3, 16
 1560              	testsem3:
 1561 0000 48000000 		.word	.LC8
 1562 0004 00000000 		.word	sem3_setup
 1563 0008 00000000 		.word	0
 1564 000c 00000000 		.word	sem3_execute
 1565              		.section	.text.thread4,"ax",%progbits
 1566              		.align	2
 1567              		.p2align 4,,15
 1568              		.thumb
 1569              		.thumb_func
 1570              		.type	thread4, %function
 1571              	thread4:
 1572              	.LFB238:
 1573              		.loc 11 241 0
 1574              		.cfi_startproc
 1575              		@ args = 0, pretend = 0, frame = 8
 1576              		@ frame_needed = 1, uses_anonymous_args = 0
 1577 0000 80B5     		push	{r7, lr}
 1578              		.cfi_def_cfa_offset 8
 1579              		.cfi_offset 7, -8
 1580              		.cfi_offset 14, -4
 1581 0002 82B0     		sub	sp, sp, #8
 1582              		.cfi_def_cfa_offset 16
 1583 0004 00AF     		add	r7, sp, #0
 1584              		.cfi_def_cfa_register 7
 1585 0006 7860     		str	r0, [r7, #4]
 1586              		.loc 11 243 0
 1587 0008 7868     		ldr	r0, [r7, #4]
 1588 000a FFF7FEFF 		bl	chBSemSignal
 1589              		.loc 11 244 0
 1590 000e 0837     		adds	r7, r7, #8
 1591 0010 BD46     		mov	sp, r7
 1592              		@ sp needed
 1593 0012 80BD     		pop	{r7, pc}
 1594              		.cfi_endproc
 1595              	.LFE238:
 1596              		.size	thread4, .-thread4
 1597 0014 AFF30080 		.section	.text.sem4_execute,"ax",%progbits
 1597      AFF30080 
 1597      AFF30080 
 1598              		.align	2
 1599              		.p2align 4,,15
 1600              		.thumb
 1601              		.thumb_func
 1602              		.type	sem4_execute, %function
 1603              	sem4_execute:
 1604              	.LFB239:
 1605              		.loc 11 246 0
 1606              		.cfi_startproc
 1607              		@ args = 0, pretend = 0, frame = 16
 1608              		@ frame_needed = 1, uses_anonymous_args = 0
ARM GAS  C:\Users\Luis\AppData\Local\Temp\ccMQOx1f.s 			page 30


 1609 0000 90B5     		push	{r4, r7, lr}
 1610              		.cfi_def_cfa_offset 12
 1611              		.cfi_offset 4, -12
 1612              		.cfi_offset 7, -8
 1613              		.cfi_offset 14, -4
 1614 0002 87B0     		sub	sp, sp, #28
 1615              		.cfi_def_cfa_offset 40
 1616 0004 02AF     		add	r7, sp, #8
 1617              		.cfi_def_cfa 7, 32
 1618              		.loc 11 250 0
 1619 0006 3B1D     		adds	r3, r7, #4
 1620 0008 1846     		mov	r0, r3
 1621 000a 0121     		movs	r1, #1
 1622 000c FFF7FEFF 		bl	chBSemObjectInit
 1623              		.loc 11 251 0
 1624 0010 3B1D     		adds	r3, r7, #4
 1625 0012 1846     		mov	r0, r3
 1626 0014 0121     		movs	r1, #1
 1627 0016 FFF7FEFF 		bl	chBSemReset
 1628              		.loc 11 252 0
 1629 001a FFF7FEFF 		bl	chSysLock
 1630 001e 3B1D     		adds	r3, r7, #4
 1631 0020 1846     		mov	r0, r3
 1632 0022 FFF7FEFF 		bl	chBSemGetStateI
 1633 0026 0346     		mov	r3, r0
 1634 0028 002B     		cmp	r3, #0
 1635 002a 0CBF     		ite	eq
 1636 002c 0023     		moveq	r3, #0
 1637 002e 0123     		movne	r3, #1
 1638 0030 DBB2     		uxtb	r3, r3
 1639 0032 0120     		movs	r0, #1
 1640 0034 1946     		mov	r1, r3
 1641 0036 FFF7FEFF 		bl	_test_assert
 1642 003a 0346     		mov	r3, r0
 1643 003c 002B     		cmp	r3, #0
 1644 003e 02D0     		beq	.L88
 1645              		.loc 11 252 0 is_stmt 0 discriminator 1
 1646 0040 FFF7FEFF 		bl	chSysUnlock
 1647 0044 A3E0     		b	.L87
 1648              	.L88:
 1649              		.loc 11 252 0 discriminator 2
 1650 0046 FFF7FEFF 		bl	chSysUnlock
 1651              		.loc 11 255 0 is_stmt 1 discriminator 2
 1652 004a 524B     		ldr	r3, .L96
 1653 004c 1C68     		ldr	r4, [r3]
 1654              		.loc 11 256 0 discriminator 2
 1655 004e FFF7FEFF 		bl	chThdGetPriorityX
 1656 0052 0346     		mov	r3, r0
 1657              		.loc 11 255 0 discriminator 2
 1658 0054 013B     		subs	r3, r3, #1
 1659 0056 3A1D     		adds	r2, r7, #4
 1660 0058 0092     		str	r2, [sp]
 1661 005a 2046     		mov	r0, r4
 1662 005c 4FF4B871 		mov	r1, #368
 1663 0060 1A46     		mov	r2, r3
 1664 0062 4D4B     		ldr	r3, .L96+4
 1665 0064 FFF7FEFF 		bl	chThdCreateStatic
ARM GAS  C:\Users\Luis\AppData\Local\Temp\ccMQOx1f.s 			page 31


 1666 0068 0246     		mov	r2, r0
 1667 006a 4C4B     		ldr	r3, .L96+8
 1668 006c 1A60     		str	r2, [r3]
 1669              		.loc 11 259 0 discriminator 2
 1670 006e 3B1D     		adds	r3, r7, #4
 1671 0070 1846     		mov	r0, r3
 1672 0072 FFF7FEFF 		bl	chBSemWait
 1673              		.loc 11 262 0 discriminator 2
 1674 0076 FFF7FEFF 		bl	chSysLock
 1675 007a 3B1D     		adds	r3, r7, #4
 1676 007c 1846     		mov	r0, r3
 1677 007e FFF7FEFF 		bl	chBSemGetStateI
 1678 0082 0346     		mov	r3, r0
 1679 0084 002B     		cmp	r3, #0
 1680 0086 0CBF     		ite	eq
 1681 0088 0023     		moveq	r3, #0
 1682 008a 0123     		movne	r3, #1
 1683 008c DBB2     		uxtb	r3, r3
 1684 008e 0220     		movs	r0, #2
 1685 0090 1946     		mov	r1, r3
 1686 0092 FFF7FEFF 		bl	_test_assert
 1687 0096 0346     		mov	r3, r0
 1688 0098 002B     		cmp	r3, #0
 1689 009a 02D0     		beq	.L90
 1690              		.loc 11 262 0 is_stmt 0 discriminator 1
 1691 009c FFF7FEFF 		bl	chSysUnlock
 1692 00a0 75E0     		b	.L87
 1693              	.L90:
 1694              		.loc 11 262 0 discriminator 2
 1695 00a2 FFF7FEFF 		bl	chSysUnlock
 1696              		.loc 11 266 0 is_stmt 1 discriminator 2
 1697 00a6 3B1D     		adds	r3, r7, #4
 1698 00a8 1846     		mov	r0, r3
 1699 00aa FFF7FEFF 		bl	chBSemSignal
 1700              		.loc 11 267 0 discriminator 2
 1701 00ae FFF7FEFF 		bl	chSysLock
 1702 00b2 3B1D     		adds	r3, r7, #4
 1703 00b4 1846     		mov	r0, r3
 1704 00b6 FFF7FEFF 		bl	chBSemGetStateI
 1705 00ba 0346     		mov	r3, r0
 1706 00bc 002B     		cmp	r3, #0
 1707 00be 0CBF     		ite	eq
 1708 00c0 0023     		moveq	r3, #0
 1709 00c2 0123     		movne	r3, #1
 1710 00c4 DBB2     		uxtb	r3, r3
 1711 00c6 83F00103 		eor	r3, r3, #1
 1712 00ca DBB2     		uxtb	r3, r3
 1713 00cc 03F00103 		and	r3, r3, #1
 1714 00d0 DBB2     		uxtb	r3, r3
 1715 00d2 0320     		movs	r0, #3
 1716 00d4 1946     		mov	r1, r3
 1717 00d6 FFF7FEFF 		bl	_test_assert
 1718 00da 0346     		mov	r3, r0
 1719 00dc 002B     		cmp	r3, #0
 1720 00de 02D0     		beq	.L91
 1721              		.loc 11 267 0 is_stmt 0 discriminator 1
 1722 00e0 FFF7FEFF 		bl	chSysUnlock
ARM GAS  C:\Users\Luis\AppData\Local\Temp\ccMQOx1f.s 			page 32


 1723 00e4 53E0     		b	.L87
 1724              	.L91:
 1725              		.loc 11 267 0 discriminator 2
 1726 00e6 FFF7FEFF 		bl	chSysUnlock
 1727              		.loc 11 268 0 is_stmt 1 discriminator 2
 1728 00ea FFF7FEFF 		bl	chSysLock
 1729 00ee 3B1D     		adds	r3, r7, #4
 1730 00f0 1846     		mov	r0, r3
 1731 00f2 FFF7FEFF 		bl	chSemGetCounterI
 1732 00f6 0346     		mov	r3, r0
 1733 00f8 012B     		cmp	r3, #1
 1734 00fa 14BF     		ite	ne
 1735 00fc 0023     		movne	r3, #0
 1736 00fe 0123     		moveq	r3, #1
 1737 0100 DBB2     		uxtb	r3, r3
 1738 0102 0420     		movs	r0, #4
 1739 0104 1946     		mov	r1, r3
 1740 0106 FFF7FEFF 		bl	_test_assert
 1741 010a 0346     		mov	r3, r0
 1742 010c 002B     		cmp	r3, #0
 1743 010e 02D0     		beq	.L92
 1744              		.loc 11 268 0 is_stmt 0 discriminator 1
 1745 0110 FFF7FEFF 		bl	chSysUnlock
 1746 0114 3BE0     		b	.L87
 1747              	.L92:
 1748              		.loc 11 268 0 discriminator 2
 1749 0116 FFF7FEFF 		bl	chSysUnlock
 1750              		.loc 11 271 0 is_stmt 1 discriminator 2
 1751 011a 3B1D     		adds	r3, r7, #4
 1752 011c 1846     		mov	r0, r3
 1753 011e FFF7FEFF 		bl	chBSemSignal
 1754              		.loc 11 272 0 discriminator 2
 1755 0122 FFF7FEFF 		bl	chSysLock
 1756 0126 3B1D     		adds	r3, r7, #4
 1757 0128 1846     		mov	r0, r3
 1758 012a FFF7FEFF 		bl	chBSemGetStateI
 1759 012e 0346     		mov	r3, r0
 1760 0130 002B     		cmp	r3, #0
 1761 0132 0CBF     		ite	eq
 1762 0134 0023     		moveq	r3, #0
 1763 0136 0123     		movne	r3, #1
 1764 0138 DBB2     		uxtb	r3, r3
 1765 013a 83F00103 		eor	r3, r3, #1
 1766 013e DBB2     		uxtb	r3, r3
 1767 0140 03F00103 		and	r3, r3, #1
 1768 0144 DBB2     		uxtb	r3, r3
 1769 0146 0320     		movs	r0, #3
 1770 0148 1946     		mov	r1, r3
 1771 014a FFF7FEFF 		bl	_test_assert
 1772 014e 0346     		mov	r3, r0
 1773 0150 002B     		cmp	r3, #0
 1774 0152 02D0     		beq	.L93
 1775              		.loc 11 272 0 is_stmt 0 discriminator 1
 1776 0154 FFF7FEFF 		bl	chSysUnlock
 1777 0158 19E0     		b	.L87
 1778              	.L93:
 1779              		.loc 11 272 0 discriminator 2
ARM GAS  C:\Users\Luis\AppData\Local\Temp\ccMQOx1f.s 			page 33


 1780 015a FFF7FEFF 		bl	chSysUnlock
 1781              		.loc 11 273 0 is_stmt 1 discriminator 2
 1782 015e FFF7FEFF 		bl	chSysLock
 1783 0162 3B1D     		adds	r3, r7, #4
 1784 0164 1846     		mov	r0, r3
 1785 0166 FFF7FEFF 		bl	chSemGetCounterI
 1786 016a 0346     		mov	r3, r0
 1787 016c 012B     		cmp	r3, #1
 1788 016e 14BF     		ite	ne
 1789 0170 0023     		movne	r3, #0
 1790 0172 0123     		moveq	r3, #1
 1791 0174 DBB2     		uxtb	r3, r3
 1792 0176 0520     		movs	r0, #5
 1793 0178 1946     		mov	r1, r3
 1794 017a FFF7FEFF 		bl	_test_assert
 1795 017e 0346     		mov	r3, r0
 1796 0180 002B     		cmp	r3, #0
 1797 0182 02D0     		beq	.L94
 1798              		.loc 11 273 0 is_stmt 0 discriminator 1
 1799 0184 FFF7FEFF 		bl	chSysUnlock
 1800 0188 01E0     		b	.L87
 1801              	.L94:
 1802              		.loc 11 273 0 discriminator 2
 1803 018a FFF7FEFF 		bl	chSysUnlock
 1804              	.L87:
 1805              		.loc 11 274 0 is_stmt 1
 1806 018e 1437     		adds	r7, r7, #20
 1807 0190 BD46     		mov	sp, r7
 1808              		@ sp needed
 1809 0192 90BD     		pop	{r4, r7, pc}
 1810              	.L97:
 1811              		.align	2
 1812              	.L96:
 1813 0194 00000000 		.word	wa
 1814 0198 00000000 		.word	thread4
 1815 019c 00000000 		.word	threads
 1816              		.cfi_endproc
 1817              	.LFE239:
 1818              		.size	sem4_execute, .-sem4_execute
 1819              		.global	testsem4
 1820              		.section	.rodata
 1821 0067 00       		.align	2
 1822              	.LC9:
 1823 0068 42696E61 		.ascii	"Binary Semaphores, functionality\000"
 1823      72792053 
 1823      656D6170 
 1823      686F7265 
 1823      732C2066 
 1824 0089 000000   		.section	.rodata.testsem4,"a",%progbits
 1825              		.align	2
 1826              		.type	testsem4, %object
 1827              		.size	testsem4, 16
 1828              	testsem4:
 1829 0000 68000000 		.word	.LC9
 1830 0004 00000000 		.word	0
 1831 0008 00000000 		.word	0
 1832 000c 00000000 		.word	sem4_execute
ARM GAS  C:\Users\Luis\AppData\Local\Temp\ccMQOx1f.s 			page 34


 1833              		.global	patternsem
 1834              		.section	.rodata.patternsem,"a",%progbits
 1835              		.align	2
 1836              		.type	patternsem, %object
 1837              		.size	patternsem, 20
 1838              	patternsem:
 1839 0000 00000000 		.word	testsem1
 1840 0004 00000000 		.word	testsem2
 1841 0008 00000000 		.word	testsem3
 1842 000c 00000000 		.word	testsem4
 1843 0010 00000000 		.word	0
 1844              		.section	.rodata.__func__.5842,"a",%progbits
 1845              		.align	2
 1846              		.type	__func__.5842, %object
 1847              		.size	__func__.5842, 12
 1848              	__func__.5842:
 1849 0000 63685379 		.ascii	"chSysUnlock\000"
 1849      73556E6C 
 1849      6F636B00 
 1850              		.text
 1851              	.Letext0:
 1852              		.file 12 "c:\\emtechesdk\\gcc\\lib\\gcc\\arm-none-eabi\\4.8.3\\include\\stddef.h"
 1853              		.file 13 "c:\\emtechesdk\\gcc\\arm-none-eabi\\include\\stdint.h"
 1854              		.file 14 "../../ChibiOS/os/rt/ports/ARMCMx/compilers/GCC/chtypes.h"
 1855              		.file 15 "../../ChibiOS/os/rt/include/chsystypes.h"
 1856              		.file 16 "../../ChibiOS/os/rt/ports/ARMCMx/chcore.h"
 1857              		.file 17 "../../ChibiOS/os/hal/ports/STM32/LLD/TIMv1/stm32_tim.h"
 1858              		.file 18 "../../ChibiOS/os/rt/include/chdebug.h"
 1859              		.file 19 "../../ChibiOS/os/rt/include/chtm.h"
 1860              		.file 20 "../../ChibiOS/os/rt/include/chstats.h"
 1861              		.file 21 "../../ChibiOS/os/rt/include/chmtx.h"
 1862              		.file 22 "../../ChibiOS/test/rt/test.h"
 1863              		.file 23 "../../ChibiOS/os/ext/CMSIS/include/core_cm4.h"