ARM GAS  C:\Users\Luis\AppData\Local\Temp\ccYSiMce.s 			page 1


   1              		.syntax unified
   2              		.cpu cortex-m4
   3              		.fpu softvfp
   4              		.eabi_attribute 20, 1
   5              		.eabi_attribute 21, 1
   6              		.eabi_attribute 23, 3
   7              		.eabi_attribute 24, 1
   8              		.eabi_attribute 25, 1
   9              		.eabi_attribute 26, 1
  10              		.eabi_attribute 30, 6
  11              		.eabi_attribute 34, 1
  12              		.eabi_attribute 18, 4
  13              		.thumb
  14              		.file	"testheap.c"
  15              		.text
  16              	.Ltext0:
  17              		.cfi_sections	.debug_frame
  18              		.section	.bss.test_heap,"aw",%nobits
  19              		.align	3
  20              		.type	test_heap, %object
  21              		.size	test_heap, 32
  22              	test_heap:
  23 0000 00000000 		.space	32
  23      00000000 
  23      00000000 
  23      00000000 
  23      00000000 
  24              		.section	.text.heap1_setup,"ax",%progbits
  25              		.align	2
  26              		.p2align 4,,15
  27              		.thumb
  28              		.thumb_func
  29              		.type	heap1_setup, %function
  30              	heap1_setup:
  31              	.LFB229:
  32              		.file 1 "../../ChibiOS/test/rt/testheap.c"
  33              		.loc 1 64 0
  34              		.cfi_startproc
  35              		@ args = 0, pretend = 0, frame = 0
  36              		@ frame_needed = 1, uses_anonymous_args = 0
  37 0000 80B5     		push	{r7, lr}
  38              		.cfi_def_cfa_offset 8
  39              		.cfi_offset 7, -8
  40              		.cfi_offset 14, -4
  41 0002 00AF     		add	r7, sp, #0
  42              		.cfi_def_cfa_register 7
  43              		.loc 1 66 0
  44 0004 0348     		ldr	r0, .L2
  45 0006 0449     		ldr	r1, .L2+4
  46 0008 4FF4E662 		mov	r2, #1840
  47 000c FFF7FEFF 		bl	chHeapObjectInit
  48              		.loc 1 67 0
  49 0010 80BD     		pop	{r7, pc}
  50              	.L3:
  51 0012 00BF     		.align	2
  52              	.L2:
  53 0014 00000000 		.word	test_heap
ARM GAS  C:\Users\Luis\AppData\Local\Temp\ccYSiMce.s 			page 2


  54 0018 00000000 		.word	test
  55              		.cfi_endproc
  56              	.LFE229:
  57              		.size	heap1_setup, .-heap1_setup
  58 001c AFF30080 		.section	.text.heap1_execute,"ax",%progbits
  59              		.align	2
  60              		.p2align 4,,15
  61              		.thumb
  62              		.thumb_func
  63              		.type	heap1_execute, %function
  64              	heap1_execute:
  65              	.LFB230:
  66              		.loc 1 69 0
  67              		.cfi_startproc
  68              		@ args = 0, pretend = 0, frame = 24
  69              		@ frame_needed = 1, uses_anonymous_args = 0
  70 0000 80B5     		push	{r7, lr}
  71              		.cfi_def_cfa_offset 8
  72              		.cfi_offset 7, -8
  73              		.cfi_offset 14, -4
  74 0002 86B0     		sub	sp, sp, #24
  75              		.cfi_def_cfa_offset 32
  76 0004 00AF     		add	r7, sp, #0
  77              		.cfi_def_cfa_register 7
  78              		.loc 1 74 0
  79 0006 FFF7FEFF 		bl	chCoreGetStatusX
  80              		.loc 1 80 0
  81 000a 3B1D     		adds	r3, r7, #4
  82 000c 0020     		movs	r0, #0
  83 000e 1946     		mov	r1, r3
  84 0010 FFF7FEFF 		bl	chHeapStatus
  85              		.loc 1 81 0
  86 0014 0020     		movs	r0, #0
  87 0016 1021     		movs	r1, #16
  88 0018 FFF7FEFF 		bl	chHeapAlloc
  89 001c 7861     		str	r0, [r7, #20]
  90              		.loc 1 82 0
  91 001e 7B69     		ldr	r3, [r7, #20]
  92 0020 002B     		cmp	r3, #0
  93 0022 0CBF     		ite	eq
  94 0024 0023     		moveq	r3, #0
  95 0026 0123     		movne	r3, #1
  96 0028 DBB2     		uxtb	r3, r3
  97 002a 0120     		movs	r0, #1
  98 002c 1946     		mov	r1, r3
  99 002e FFF7FEFF 		bl	_test_assert
 100 0032 0346     		mov	r3, r0
 101 0034 002B     		cmp	r3, #0
 102 0036 00D0     		beq	.L5
 103              		.loc 1 82 0 is_stmt 0 discriminator 1
 104 0038 59E1     		b	.L4
 105              	.L5:
 106              		.loc 1 83 0 is_stmt 1
 107 003a 7869     		ldr	r0, [r7, #20]
 108 003c FFF7FEFF 		bl	chHeapFree
 109              		.loc 1 84 0
 110 0040 0020     		movs	r0, #0
ARM GAS  C:\Users\Luis\AppData\Local\Temp\ccYSiMce.s 			page 3


 111 0042 6FF0FF01 		mvn	r1, #255
 112 0046 FFF7FEFF 		bl	chHeapAlloc
 113 004a 7861     		str	r0, [r7, #20]
 114              		.loc 1 85 0
 115 004c 7B69     		ldr	r3, [r7, #20]
 116 004e 002B     		cmp	r3, #0
 117 0050 14BF     		ite	ne
 118 0052 0023     		movne	r3, #0
 119 0054 0123     		moveq	r3, #1
 120 0056 DBB2     		uxtb	r3, r3
 121 0058 0220     		movs	r0, #2
 122 005a 1946     		mov	r1, r3
 123 005c FFF7FEFF 		bl	_test_assert
 124 0060 0346     		mov	r3, r0
 125 0062 002B     		cmp	r3, #0
 126 0064 00D0     		beq	.L7
 127              		.loc 1 85 0 is_stmt 0 discriminator 1
 128 0066 42E1     		b	.L4
 129              	.L7:
 130              		.loc 1 88 0 is_stmt 1
 131 0068 3B1D     		adds	r3, r7, #4
 132 006a A248     		ldr	r0, .L22
 133 006c 1946     		mov	r1, r3
 134 006e FFF7FEFF 		bl	chHeapStatus
 135              		.loc 1 91 0
 136 0072 A048     		ldr	r0, .L22
 137 0074 1021     		movs	r1, #16
 138 0076 FFF7FEFF 		bl	chHeapAlloc
 139 007a 7861     		str	r0, [r7, #20]
 140              		.loc 1 92 0
 141 007c 9D48     		ldr	r0, .L22
 142 007e 1021     		movs	r1, #16
 143 0080 FFF7FEFF 		bl	chHeapAlloc
 144 0084 3861     		str	r0, [r7, #16]
 145              		.loc 1 93 0
 146 0086 9B48     		ldr	r0, .L22
 147 0088 1021     		movs	r1, #16
 148 008a FFF7FEFF 		bl	chHeapAlloc
 149 008e F860     		str	r0, [r7, #12]
 150              		.loc 1 94 0
 151 0090 7869     		ldr	r0, [r7, #20]
 152 0092 FFF7FEFF 		bl	chHeapFree
 153              		.loc 1 95 0
 154 0096 3869     		ldr	r0, [r7, #16]
 155 0098 FFF7FEFF 		bl	chHeapFree
 156              		.loc 1 96 0
 157 009c F868     		ldr	r0, [r7, #12]
 158 009e FFF7FEFF 		bl	chHeapFree
 159              		.loc 1 97 0
 160 00a2 07F10803 		add	r3, r7, #8
 161 00a6 9348     		ldr	r0, .L22
 162 00a8 1946     		mov	r1, r3
 163 00aa FFF7FEFF 		bl	chHeapStatus
 164 00ae 0346     		mov	r3, r0
 165 00b0 012B     		cmp	r3, #1
 166 00b2 14BF     		ite	ne
 167 00b4 0023     		movne	r3, #0
ARM GAS  C:\Users\Luis\AppData\Local\Temp\ccYSiMce.s 			page 4


 168 00b6 0123     		moveq	r3, #1
 169 00b8 DBB2     		uxtb	r3, r3
 170 00ba 0320     		movs	r0, #3
 171 00bc 1946     		mov	r1, r3
 172 00be FFF7FEFF 		bl	_test_assert
 173 00c2 0346     		mov	r3, r0
 174 00c4 002B     		cmp	r3, #0
 175 00c6 00D0     		beq	.L8
 176              		.loc 1 97 0 is_stmt 0 discriminator 1
 177 00c8 11E1     		b	.L4
 178              	.L8:
 179              		.loc 1 100 0 is_stmt 1
 180 00ca 8A48     		ldr	r0, .L22
 181 00cc 1021     		movs	r1, #16
 182 00ce FFF7FEFF 		bl	chHeapAlloc
 183 00d2 7861     		str	r0, [r7, #20]
 184              		.loc 1 101 0
 185 00d4 8748     		ldr	r0, .L22
 186 00d6 1021     		movs	r1, #16
 187 00d8 FFF7FEFF 		bl	chHeapAlloc
 188 00dc 3861     		str	r0, [r7, #16]
 189              		.loc 1 102 0
 190 00de 8548     		ldr	r0, .L22
 191 00e0 1021     		movs	r1, #16
 192 00e2 FFF7FEFF 		bl	chHeapAlloc
 193 00e6 F860     		str	r0, [r7, #12]
 194              		.loc 1 103 0
 195 00e8 F868     		ldr	r0, [r7, #12]
 196 00ea FFF7FEFF 		bl	chHeapFree
 197              		.loc 1 104 0
 198 00ee 3869     		ldr	r0, [r7, #16]
 199 00f0 FFF7FEFF 		bl	chHeapFree
 200              		.loc 1 105 0
 201 00f4 7869     		ldr	r0, [r7, #20]
 202 00f6 FFF7FEFF 		bl	chHeapFree
 203              		.loc 1 106 0
 204 00fa 07F10803 		add	r3, r7, #8
 205 00fe 7D48     		ldr	r0, .L22
 206 0100 1946     		mov	r1, r3
 207 0102 FFF7FEFF 		bl	chHeapStatus
 208 0106 0346     		mov	r3, r0
 209 0108 012B     		cmp	r3, #1
 210 010a 14BF     		ite	ne
 211 010c 0023     		movne	r3, #0
 212 010e 0123     		moveq	r3, #1
 213 0110 DBB2     		uxtb	r3, r3
 214 0112 0420     		movs	r0, #4
 215 0114 1946     		mov	r1, r3
 216 0116 FFF7FEFF 		bl	_test_assert
 217 011a 0346     		mov	r3, r0
 218 011c 002B     		cmp	r3, #0
 219 011e 00D0     		beq	.L9
 220              		.loc 1 106 0 is_stmt 0 discriminator 1
 221 0120 E5E0     		b	.L4
 222              	.L9:
 223              		.loc 1 109 0 is_stmt 1
 224 0122 7448     		ldr	r0, .L22
ARM GAS  C:\Users\Luis\AppData\Local\Temp\ccYSiMce.s 			page 5


 225 0124 1121     		movs	r1, #17
 226 0126 FFF7FEFF 		bl	chHeapAlloc
 227 012a 7861     		str	r0, [r7, #20]
 228              		.loc 1 110 0
 229 012c 7148     		ldr	r0, .L22
 230 012e 1021     		movs	r1, #16
 231 0130 FFF7FEFF 		bl	chHeapAlloc
 232 0134 3861     		str	r0, [r7, #16]
 233              		.loc 1 111 0
 234 0136 7869     		ldr	r0, [r7, #20]
 235 0138 FFF7FEFF 		bl	chHeapFree
 236              		.loc 1 112 0
 237 013c 07F10803 		add	r3, r7, #8
 238 0140 6C48     		ldr	r0, .L22
 239 0142 1946     		mov	r1, r3
 240 0144 FFF7FEFF 		bl	chHeapStatus
 241 0148 0346     		mov	r3, r0
 242 014a 022B     		cmp	r3, #2
 243 014c 14BF     		ite	ne
 244 014e 0023     		movne	r3, #0
 245 0150 0123     		moveq	r3, #1
 246 0152 DBB2     		uxtb	r3, r3
 247 0154 0520     		movs	r0, #5
 248 0156 1946     		mov	r1, r3
 249 0158 FFF7FEFF 		bl	_test_assert
 250 015c 0346     		mov	r3, r0
 251 015e 002B     		cmp	r3, #0
 252 0160 00D0     		beq	.L10
 253              		.loc 1 112 0 is_stmt 0 discriminator 1
 254 0162 C4E0     		b	.L4
 255              	.L10:
 256              		.loc 1 113 0 is_stmt 1
 257 0164 6348     		ldr	r0, .L22
 258 0166 1021     		movs	r1, #16
 259 0168 FFF7FEFF 		bl	chHeapAlloc
 260 016c 7861     		str	r0, [r7, #20]
 261              		.loc 1 116 0
 262 016e 07F10803 		add	r3, r7, #8
 263 0172 6048     		ldr	r0, .L22
 264 0174 1946     		mov	r1, r3
 265 0176 FFF7FEFF 		bl	chHeapStatus
 266 017a 0346     		mov	r3, r0
 267 017c 012B     		cmp	r3, #1
 268 017e 08D0     		beq	.L11
 269              		.loc 1 116 0 is_stmt 0 discriminator 2
 270 0180 07F10803 		add	r3, r7, #8
 271 0184 5B48     		ldr	r0, .L22
 272 0186 1946     		mov	r1, r3
 273 0188 FFF7FEFF 		bl	chHeapStatus
 274 018c 0346     		mov	r3, r0
 275 018e 022B     		cmp	r3, #2
 276 0190 01D1     		bne	.L12
 277              	.L11:
 278              		.loc 1 116 0 discriminator 1
 279 0192 0123     		movs	r3, #1
 280 0194 00E0     		b	.L13
 281              	.L12:
ARM GAS  C:\Users\Luis\AppData\Local\Temp\ccYSiMce.s 			page 6


 282              		.loc 1 116 0 discriminator 3
 283 0196 0023     		movs	r3, #0
 284              	.L13:
 285              		.loc 1 116 0 discriminator 4
 286 0198 03F00103 		and	r3, r3, #1
 287 019c DBB2     		uxtb	r3, r3
 288 019e 0620     		movs	r0, #6
 289 01a0 1946     		mov	r1, r3
 290 01a2 FFF7FEFF 		bl	_test_assert
 291 01a6 0346     		mov	r3, r0
 292 01a8 002B     		cmp	r3, #0
 293 01aa 00D0     		beq	.L14
 294              		.loc 1 116 0 discriminator 1
 295 01ac 9FE0     		b	.L4
 296              	.L14:
 297              		.loc 1 118 0 is_stmt 1
 298 01ae 3869     		ldr	r0, [r7, #16]
 299 01b0 FFF7FEFF 		bl	chHeapFree
 300              		.loc 1 119 0
 301 01b4 7869     		ldr	r0, [r7, #20]
 302 01b6 FFF7FEFF 		bl	chHeapFree
 303              		.loc 1 120 0
 304 01ba 07F10803 		add	r3, r7, #8
 305 01be 4D48     		ldr	r0, .L22
 306 01c0 1946     		mov	r1, r3
 307 01c2 FFF7FEFF 		bl	chHeapStatus
 308 01c6 0346     		mov	r3, r0
 309 01c8 012B     		cmp	r3, #1
 310 01ca 14BF     		ite	ne
 311 01cc 0023     		movne	r3, #0
 312 01ce 0123     		moveq	r3, #1
 313 01d0 DBB2     		uxtb	r3, r3
 314 01d2 0720     		movs	r0, #7
 315 01d4 1946     		mov	r1, r3
 316 01d6 FFF7FEFF 		bl	_test_assert
 317 01da 0346     		mov	r3, r0
 318 01dc 002B     		cmp	r3, #0
 319 01de 00D0     		beq	.L15
 320              		.loc 1 120 0 is_stmt 0 discriminator 1
 321 01e0 85E0     		b	.L4
 322              	.L15:
 323              		.loc 1 123 0 is_stmt 1
 324 01e2 4448     		ldr	r0, .L22
 325 01e4 1021     		movs	r1, #16
 326 01e6 FFF7FEFF 		bl	chHeapAlloc
 327 01ea 7861     		str	r0, [r7, #20]
 328              		.loc 1 124 0
 329 01ec 4148     		ldr	r0, .L22
 330 01ee 1021     		movs	r1, #16
 331 01f0 FFF7FEFF 		bl	chHeapAlloc
 332 01f4 3861     		str	r0, [r7, #16]
 333              		.loc 1 125 0
 334 01f6 7869     		ldr	r0, [r7, #20]
 335 01f8 FFF7FEFF 		bl	chHeapFree
 336              		.loc 1 126 0
 337 01fc 07F10803 		add	r3, r7, #8
 338 0200 3C48     		ldr	r0, .L22
ARM GAS  C:\Users\Luis\AppData\Local\Temp\ccYSiMce.s 			page 7


 339 0202 1946     		mov	r1, r3
 340 0204 FFF7FEFF 		bl	chHeapStatus
 341 0208 0346     		mov	r3, r0
 342 020a 022B     		cmp	r3, #2
 343 020c 14BF     		ite	ne
 344 020e 0023     		movne	r3, #0
 345 0210 0123     		moveq	r3, #1
 346 0212 DBB2     		uxtb	r3, r3
 347 0214 0820     		movs	r0, #8
 348 0216 1946     		mov	r1, r3
 349 0218 FFF7FEFF 		bl	_test_assert
 350 021c 0346     		mov	r3, r0
 351 021e 002B     		cmp	r3, #0
 352 0220 00D0     		beq	.L16
 353              		.loc 1 126 0 is_stmt 0 discriminator 1
 354 0222 64E0     		b	.L4
 355              	.L16:
 356              		.loc 1 127 0 is_stmt 1
 357 0224 3348     		ldr	r0, .L22
 358 0226 2021     		movs	r1, #32
 359 0228 FFF7FEFF 		bl	chHeapAlloc
 360 022c 7861     		str	r0, [r7, #20]
 361              		.loc 1 128 0
 362 022e 7869     		ldr	r0, [r7, #20]
 363 0230 FFF7FEFF 		bl	chHeapFree
 364              		.loc 1 129 0
 365 0234 3869     		ldr	r0, [r7, #16]
 366 0236 FFF7FEFF 		bl	chHeapFree
 367              		.loc 1 130 0
 368 023a 07F10803 		add	r3, r7, #8
 369 023e 2D48     		ldr	r0, .L22
 370 0240 1946     		mov	r1, r3
 371 0242 FFF7FEFF 		bl	chHeapStatus
 372 0246 0346     		mov	r3, r0
 373 0248 012B     		cmp	r3, #1
 374 024a 14BF     		ite	ne
 375 024c 0023     		movne	r3, #0
 376 024e 0123     		moveq	r3, #1
 377 0250 DBB2     		uxtb	r3, r3
 378 0252 0920     		movs	r0, #9
 379 0254 1946     		mov	r1, r3
 380 0256 FFF7FEFF 		bl	_test_assert
 381 025a 0346     		mov	r3, r0
 382 025c 002B     		cmp	r3, #0
 383 025e 00D0     		beq	.L17
 384              		.loc 1 130 0 is_stmt 0 discriminator 1
 385 0260 45E0     		b	.L4
 386              	.L17:
 387              		.loc 1 133 0 is_stmt 1
 388 0262 07F10803 		add	r3, r7, #8
 389 0266 2348     		ldr	r0, .L22
 390 0268 1946     		mov	r1, r3
 391 026a FFF7FEFF 		bl	chHeapStatus
 392              		.loc 1 134 0
 393 026e BB68     		ldr	r3, [r7, #8]
 394 0270 2048     		ldr	r0, .L22
 395 0272 1946     		mov	r1, r3
ARM GAS  C:\Users\Luis\AppData\Local\Temp\ccYSiMce.s 			page 8


 396 0274 FFF7FEFF 		bl	chHeapAlloc
 397 0278 7861     		str	r0, [r7, #20]
 398              		.loc 1 135 0
 399 027a 07F10803 		add	r3, r7, #8
 400 027e 1D48     		ldr	r0, .L22
 401 0280 1946     		mov	r1, r3
 402 0282 FFF7FEFF 		bl	chHeapStatus
 403 0286 0346     		mov	r3, r0
 404 0288 002B     		cmp	r3, #0
 405 028a 14BF     		ite	ne
 406 028c 0023     		movne	r3, #0
 407 028e 0123     		moveq	r3, #1
 408 0290 DBB2     		uxtb	r3, r3
 409 0292 0A20     		movs	r0, #10
 410 0294 1946     		mov	r1, r3
 411 0296 FFF7FEFF 		bl	_test_assert
 412 029a 0346     		mov	r3, r0
 413 029c 002B     		cmp	r3, #0
 414 029e 00D0     		beq	.L18
 415              		.loc 1 135 0 is_stmt 0 discriminator 1
 416 02a0 25E0     		b	.L4
 417              	.L18:
 418              		.loc 1 136 0 is_stmt 1
 419 02a2 7869     		ldr	r0, [r7, #20]
 420 02a4 FFF7FEFF 		bl	chHeapFree
 421              		.loc 1 138 0
 422 02a8 07F10803 		add	r3, r7, #8
 423 02ac 1148     		ldr	r0, .L22
 424 02ae 1946     		mov	r1, r3
 425 02b0 FFF7FEFF 		bl	chHeapStatus
 426 02b4 0346     		mov	r3, r0
 427 02b6 012B     		cmp	r3, #1
 428 02b8 14BF     		ite	ne
 429 02ba 0023     		movne	r3, #0
 430 02bc 0123     		moveq	r3, #1
 431 02be DBB2     		uxtb	r3, r3
 432 02c0 0B20     		movs	r0, #11
 433 02c2 1946     		mov	r1, r3
 434 02c4 FFF7FEFF 		bl	_test_assert
 435 02c8 0346     		mov	r3, r0
 436 02ca 002B     		cmp	r3, #0
 437 02cc 00D0     		beq	.L19
 438              		.loc 1 138 0 is_stmt 0 discriminator 1
 439 02ce 0EE0     		b	.L4
 440              	.L19:
 441              		.loc 1 139 0 is_stmt 1
 442 02d0 BA68     		ldr	r2, [r7, #8]
 443 02d2 7B68     		ldr	r3, [r7, #4]
 444 02d4 9A42     		cmp	r2, r3
 445 02d6 14BF     		ite	ne
 446 02d8 0023     		movne	r3, #0
 447 02da 0123     		moveq	r3, #1
 448 02dc DBB2     		uxtb	r3, r3
 449 02de 0C20     		movs	r0, #12
 450 02e0 1946     		mov	r1, r3
 451 02e2 FFF7FEFF 		bl	_test_assert
 452 02e6 0346     		mov	r3, r0
ARM GAS  C:\Users\Luis\AppData\Local\Temp\ccYSiMce.s 			page 9


 453 02e8 002B     		cmp	r3, #0
 454 02ea 00D0     		beq	.L4
 455 02ec 00BF     		nop
 456              	.L4:
 457              		.loc 1 140 0
 458 02ee 1837     		adds	r7, r7, #24
 459 02f0 BD46     		mov	sp, r7
 460              		@ sp needed
 461 02f2 80BD     		pop	{r7, pc}
 462              	.L23:
 463              		.align	2
 464              	.L22:
 465 02f4 00000000 		.word	test_heap
 466              		.cfi_endproc
 467              	.LFE230:
 468              		.size	heap1_execute, .-heap1_execute
 469              		.global	testheap1
 470 02f8 AFF30080 		.section	.rodata
 470      AFF30080 
 471              		.align	2
 472              	.LC0:
 473 0000 48656170 		.ascii	"Heap, allocation and fragmentation test\000"
 473      2C20616C 
 473      6C6F6361 
 473      74696F6E 
 473      20616E64 
 474              		.section	.rodata.testheap1,"a",%progbits
 475              		.align	2
 476              		.type	testheap1, %object
 477              		.size	testheap1, 16
 478              	testheap1:
 479 0000 00000000 		.word	.LC0
 480 0004 00000000 		.word	heap1_setup
 481 0008 00000000 		.word	0
 482 000c 00000000 		.word	heap1_execute
 483              		.global	patternheap
 484              		.section	.rodata.patternheap,"a",%progbits
 485              		.align	2
 486              		.type	patternheap, %object
 487              		.size	patternheap, 8
 488              	patternheap:
 489 0000 00000000 		.word	testheap1
 490 0004 00000000 		.word	0
 491              		.text
 492              	.Letext0:
 493              		.file 2 "c:\\emtechesdk\\gcc\\lib\\gcc\\arm-none-eabi\\4.8.3\\include\\stddef.h"
 494              		.file 3 "c:\\emtechesdk\\gcc\\arm-none-eabi\\include\\stdint.h"
 495              		.file 4 "../../ChibiOS/os/rt/ports/ARMCMx/compilers/GCC/chtypes.h"
 496              		.file 5 "../../ChibiOS/os/rt/include/chsystypes.h"
 497              		.file 6 "../../ChibiOS/os/rt/include/chschd.h"
 498              		.file 7 "../../ChibiOS/os/rt/ports/ARMCMx/chcore.h"
 499              		.file 8 "../../ChibiOS/os/rt/ports/ARMCMx/chcore_v7m.h"
 500              		.file 9 "../../ChibiOS/os/rt/include/chdebug.h"
 501              		.file 10 "../../ChibiOS/os/rt/include/chtm.h"
 502              		.file 11 "../../ChibiOS/os/rt/include/chstats.h"
 503              		.file 12 "../../ChibiOS/os/rt/include/chsem.h"
 504              		.file 13 "../../ChibiOS/os/rt/include/chmtx.h"
ARM GAS  C:\Users\Luis\AppData\Local\Temp\ccYSiMce.s 			page 10


 505              		.file 14 "../../ChibiOS/os/rt/include/chmemcore.h"
 506              		.file 15 "../../ChibiOS/os/rt/include/chheap.h"
 507              		.file 16 "../../ChibiOS/test/rt/test.h"
 508              		.file 17 "../../ChibiOS/os/ext/CMSIS/include/core_cm4.h"