ARM GAS  C:\Users\Luis\AppData\Local\Temp\cckNqlc0.s 			page 1


   1              		.syntax unified
   2              		.cpu cortex-m4
   3              		.fpu softvfp
   4              		.eabi_attribute 20, 1
   5              		.eabi_attribute 21, 1
   6              		.eabi_attribute 23, 3
   7              		.eabi_attribute 24, 1
   8              		.eabi_attribute 25, 1
   9              		.eabi_attribute 26, 1
  10              		.eabi_attribute 30, 6
  11              		.eabi_attribute 34, 1
  12              		.eabi_attribute 18, 4
  13              		.thumb
  14              		.file	"testmtx.c"
  15              		.text
  16              	.Ltext0:
  17              		.cfi_sections	.debug_frame
  18              		.section	.text.port_lock,"ax",%progbits
  19              		.align	2
  20              		.p2align 4,,15
  21              		.thumb
  22              		.thumb_func
  23              		.type	port_lock, %function
  24              	port_lock:
  25              	.LFB116:
  26              		.file 1 "../../ChibiOS/os/rt/ports/ARMCMx/chcore_v7m.h"
  27              		.loc 1 444 0
  28              		.cfi_startproc
  29              		@ args = 0, pretend = 0, frame = 8
  30              		@ frame_needed = 1, uses_anonymous_args = 0
  31              		@ link register save eliminated.
  32 0000 80B4     		push	{r7}
  33              		.cfi_def_cfa_offset 4
  34              		.cfi_offset 7, -4
  35 0002 83B0     		sub	sp, sp, #12
  36              		.cfi_def_cfa_offset 16
  37 0004 00AF     		add	r7, sp, #0
  38              		.cfi_def_cfa_register 7
  39 0006 2023     		movs	r3, #32
  40 0008 7B60     		str	r3, [r7, #4]
  41              	.LBB6:
  42              	.LBB7:
  43              		.file 2 "../../ChibiOS/os/ext/CMSIS/include/core_cmFunc.h"
  44              		.loc 2 546 0
  45 000a 7B68     		ldr	r3, [r7, #4]
  46              	@ 546 "../../ChibiOS/os/ext/CMSIS/include/core_cmFunc.h" 1
  47 000c 83F31188 		MSR basepri, r3
  48              	@ 0 "" 2
  49              		.thumb
  50              	.LBE7:
  51              	.LBE6:
  52              		.loc 1 451 0
  53 0010 0C37     		adds	r7, r7, #12
  54 0012 BD46     		mov	sp, r7
  55              		@ sp needed
  56 0014 5DF8047B 		ldr	r7, [sp], #4
  57 0018 7047     		bx	lr
ARM GAS  C:\Users\Luis\AppData\Local\Temp\cckNqlc0.s 			page 2


  58              		.cfi_endproc
  59              	.LFE116:
  60              		.size	port_lock, .-port_lock
  61 001a 00BFAFF3 		.section	.text.port_unlock,"ax",%progbits
  61      0080
  62              		.align	2
  63              		.p2align 4,,15
  64              		.thumb
  65              		.thumb_func
  66              		.type	port_unlock, %function
  67              	port_unlock:
  68              	.LFB117:
  69              		.loc 1 458 0
  70              		.cfi_startproc
  71              		@ args = 0, pretend = 0, frame = 8
  72              		@ frame_needed = 1, uses_anonymous_args = 0
  73              		@ link register save eliminated.
  74 0000 80B4     		push	{r7}
  75              		.cfi_def_cfa_offset 4
  76              		.cfi_offset 7, -4
  77 0002 83B0     		sub	sp, sp, #12
  78              		.cfi_def_cfa_offset 16
  79 0004 00AF     		add	r7, sp, #0
  80              		.cfi_def_cfa_register 7
  81 0006 0023     		movs	r3, #0
  82 0008 7B60     		str	r3, [r7, #4]
  83              	.LBB8:
  84              	.LBB9:
  85              		.loc 2 546 0
  86 000a 7B68     		ldr	r3, [r7, #4]
  87              	@ 546 "../../ChibiOS/os/ext/CMSIS/include/core_cmFunc.h" 1
  88 000c 83F31188 		MSR basepri, r3
  89              	@ 0 "" 2
  90              		.thumb
  91              	.LBE9:
  92              	.LBE8:
  93              		.loc 1 465 0
  94 0010 0C37     		adds	r7, r7, #12
  95 0012 BD46     		mov	sp, r7
  96              		@ sp needed
  97 0014 5DF8047B 		ldr	r7, [sp], #4
  98 0018 7047     		bx	lr
  99              		.cfi_endproc
 100              	.LFE117:
 101              		.size	port_unlock, .-port_unlock
 102 001a 00BFAFF3 		.section	.text.queue_isempty,"ax",%progbits
 102      0080
 103              		.align	2
 104              		.p2align 4,,15
 105              		.thumb
 106              		.thumb_func
 107              		.type	queue_isempty, %function
 108              	queue_isempty:
 109              	.LFB140:
 110              		.file 3 "../../ChibiOS/os/rt/include/chschd.h"
 111              		.loc 3 616 0
 112              		.cfi_startproc
ARM GAS  C:\Users\Luis\AppData\Local\Temp\cckNqlc0.s 			page 3


 113              		@ args = 0, pretend = 0, frame = 8
 114              		@ frame_needed = 1, uses_anonymous_args = 0
 115              		@ link register save eliminated.
 116 0000 80B4     		push	{r7}
 117              		.cfi_def_cfa_offset 4
 118              		.cfi_offset 7, -4
 119 0002 83B0     		sub	sp, sp, #12
 120              		.cfi_def_cfa_offset 16
 121 0004 00AF     		add	r7, sp, #0
 122              		.cfi_def_cfa_register 7
 123 0006 7860     		str	r0, [r7, #4]
 124              		.loc 3 618 0
 125 0008 7B68     		ldr	r3, [r7, #4]
 126 000a 1A68     		ldr	r2, [r3]
 127 000c 7B68     		ldr	r3, [r7, #4]
 128 000e 9A42     		cmp	r2, r3
 129 0010 14BF     		ite	ne
 130 0012 0023     		movne	r3, #0
 131 0014 0123     		moveq	r3, #1
 132 0016 DBB2     		uxtb	r3, r3
 133              		.loc 3 619 0
 134 0018 1846     		mov	r0, r3
 135 001a 0C37     		adds	r7, r7, #12
 136 001c BD46     		mov	sp, r7
 137              		@ sp needed
 138 001e 5DF8047B 		ldr	r7, [sp], #4
 139 0022 7047     		bx	lr
 140              		.cfi_endproc
 141              	.LFE140:
 142              		.size	queue_isempty, .-queue_isempty
 143 0024 AFF30080 		.section	.text.chSysLock,"ax",%progbits
 143      AFF30080 
 143      AFF30080 
 144              		.align	2
 145              		.p2align 4,,15
 146              		.thumb
 147              		.thumb_func
 148              		.type	chSysLock, %function
 149              	chSysLock:
 150              	.LFB156:
 151              		.file 4 "../../ChibiOS/os/rt/include/chsys.h"
 152              		.loc 4 346 0
 153              		.cfi_startproc
 154              		@ args = 0, pretend = 0, frame = 0
 155              		@ frame_needed = 1, uses_anonymous_args = 0
 156 0000 80B5     		push	{r7, lr}
 157              		.cfi_def_cfa_offset 8
 158              		.cfi_offset 7, -8
 159              		.cfi_offset 14, -4
 160 0002 00AF     		add	r7, sp, #0
 161              		.cfi_def_cfa_register 7
 162              		.loc 4 348 0
 163 0004 FFF7FEFF 		bl	port_lock
 164              		.loc 4 349 0
 165 0008 FFF7FEFF 		bl	_stats_start_measure_crit_thd
 166              		.loc 4 350 0
 167 000c FFF7FEFF 		bl	_dbg_check_lock
ARM GAS  C:\Users\Luis\AppData\Local\Temp\cckNqlc0.s 			page 4


 168              		.loc 4 351 0
 169 0010 80BD     		pop	{r7, pc}
 170              		.cfi_endproc
 171              	.LFE156:
 172              		.size	chSysLock, .-chSysLock
 173 0012 00BFAFF3 		.section	.text.chSysUnlock,"ax",%progbits
 173      0080AFF3 
 173      0080AFF3 
 173      0080
 174              		.align	2
 175              		.p2align 4,,15
 176              		.thumb
 177              		.thumb_func
 178              		.type	chSysUnlock, %function
 179              	chSysUnlock:
 180              	.LFB157:
 181              		.loc 4 358 0
 182              		.cfi_startproc
 183              		@ args = 0, pretend = 0, frame = 0
 184              		@ frame_needed = 1, uses_anonymous_args = 0
 185 0000 80B5     		push	{r7, lr}
 186              		.cfi_def_cfa_offset 8
 187              		.cfi_offset 7, -8
 188              		.cfi_offset 14, -4
 189 0002 00AF     		add	r7, sp, #0
 190              		.cfi_def_cfa_register 7
 191              		.loc 4 360 0
 192 0004 FFF7FEFF 		bl	_dbg_check_unlock
 193              		.loc 4 361 0
 194 0008 FFF7FEFF 		bl	_stats_stop_measure_crit_thd
 195              		.loc 4 367 0
 196 000c 094B     		ldr	r3, .L8
 197 000e 1A68     		ldr	r2, [r3]
 198 0010 084B     		ldr	r3, .L8
 199 0012 9A42     		cmp	r2, r3
 200 0014 0AD0     		beq	.L7
 201              		.loc 4 367 0 is_stmt 0 discriminator 1
 202 0016 074B     		ldr	r3, .L8
 203 0018 9B69     		ldr	r3, [r3, #24]
 204 001a 9A68     		ldr	r2, [r3, #8]
 205 001c 054B     		ldr	r3, .L8
 206 001e 1B68     		ldr	r3, [r3]
 207 0020 9B68     		ldr	r3, [r3, #8]
 208 0022 9A42     		cmp	r2, r3
 209 0024 02D2     		bcs	.L7
 210 0026 0448     		ldr	r0, .L8+4
 211 0028 FFF7FEFF 		bl	chSysHalt
 212              	.L7:
 213              		.loc 4 371 0 is_stmt 1
 214 002c FFF7FEFF 		bl	port_unlock
 215              		.loc 4 372 0
 216 0030 80BD     		pop	{r7, pc}
 217              	.L9:
 218 0032 00BF     		.align	2
 219              	.L8:
 220 0034 00000000 		.word	ch
 221 0038 00000000 		.word	__func__.5842
ARM GAS  C:\Users\Luis\AppData\Local\Temp\cckNqlc0.s 			page 5


 222              		.cfi_endproc
 223              	.LFE157:
 224              		.size	chSysUnlock, .-chSysUnlock
 225 003c AFF30080 		.section	.text.chThdGetSelfX,"ax",%progbits
 226              		.align	2
 227              		.p2align 4,,15
 228              		.thumb
 229              		.thumb_func
 230              		.type	chThdGetSelfX, %function
 231              	chThdGetSelfX:
 232              	.LFB177:
 233              		.file 5 "../../ChibiOS/os/rt/include/chthreads.h"
 234              		.loc 5 174 0
 235              		.cfi_startproc
 236              		@ args = 0, pretend = 0, frame = 0
 237              		@ frame_needed = 1, uses_anonymous_args = 0
 238              		@ link register save eliminated.
 239 0000 80B4     		push	{r7}
 240              		.cfi_def_cfa_offset 4
 241              		.cfi_offset 7, -4
 242 0002 00AF     		add	r7, sp, #0
 243              		.cfi_def_cfa_register 7
 244              		.loc 5 176 0
 245 0004 034B     		ldr	r3, .L12
 246 0006 9B69     		ldr	r3, [r3, #24]
 247              		.loc 5 177 0
 248 0008 1846     		mov	r0, r3
 249 000a BD46     		mov	sp, r7
 250              		@ sp needed
 251 000c 5DF8047B 		ldr	r7, [sp], #4
 252 0010 7047     		bx	lr
 253              	.L13:
 254 0012 00BF     		.align	2
 255              	.L12:
 256 0014 00000000 		.word	ch
 257              		.cfi_endproc
 258              	.LFE177:
 259              		.size	chThdGetSelfX, .-chThdGetSelfX
 260 0018 AFF30080 		.section	.text.chThdGetPriorityX,"ax",%progbits
 260      AFF30080 
 261              		.align	2
 262              		.p2align 4,,15
 263              		.thumb
 264              		.thumb_func
 265              		.type	chThdGetPriorityX, %function
 266              	chThdGetPriorityX:
 267              	.LFB178:
 268              		.loc 5 187 0
 269              		.cfi_startproc
 270              		@ args = 0, pretend = 0, frame = 0
 271              		@ frame_needed = 1, uses_anonymous_args = 0
 272 0000 80B5     		push	{r7, lr}
 273              		.cfi_def_cfa_offset 8
 274              		.cfi_offset 7, -8
 275              		.cfi_offset 14, -4
 276 0002 00AF     		add	r7, sp, #0
 277              		.cfi_def_cfa_register 7
ARM GAS  C:\Users\Luis\AppData\Local\Temp\cckNqlc0.s 			page 6


 278              		.loc 5 189 0
 279 0004 FFF7FEFF 		bl	chThdGetSelfX
 280 0008 0346     		mov	r3, r0
 281 000a 9B68     		ldr	r3, [r3, #8]
 282              		.loc 5 190 0
 283 000c 1846     		mov	r0, r3
 284 000e 80BD     		pop	{r7, pc}
 285              		.cfi_endproc
 286              	.LFE178:
 287              		.size	chThdGetPriorityX, .-chThdGetPriorityX
 288              		.section	.data.m1,"aw",%progbits
 289              		.align	2
 290              		.type	m1, %object
 291              		.size	m1, 16
 292              	m1:
 293 0000 00000000 		.word	m1
 294 0004 00000000 		.word	m1
 295 0008 00000000 		.word	0
 296 000c 00000000 		.word	0
 297              		.section	.data.m2,"aw",%progbits
 298              		.align	2
 299              		.type	m2, %object
 300              		.size	m2, 16
 301              	m2:
 302 0000 00000000 		.word	m2
 303 0004 00000000 		.word	m2
 304 0008 00000000 		.word	0
 305 000c 00000000 		.word	0
 306              		.section	.data.c1,"aw",%progbits
 307              		.align	2
 308              		.type	c1, %object
 309              		.size	c1, 8
 310              	c1:
 311 0000 00000000 		.word	c1
 312 0004 00000000 		.word	c1
 313              		.section	.text.mtx1_setup,"ax",%progbits
 314              		.align	2
 315              		.p2align 4,,15
 316              		.thumb
 317              		.thumb_func
 318              		.type	mtx1_setup, %function
 319              	mtx1_setup:
 320              	.LFB229:
 321              		.file 6 "../../ChibiOS/test/rt/testmtx.c"
 322              		.loc 6 84 0
 323              		.cfi_startproc
 324              		@ args = 0, pretend = 0, frame = 0
 325              		@ frame_needed = 1, uses_anonymous_args = 0
 326 0000 80B5     		push	{r7, lr}
 327              		.cfi_def_cfa_offset 8
 328              		.cfi_offset 7, -8
 329              		.cfi_offset 14, -4
 330 0002 00AF     		add	r7, sp, #0
 331              		.cfi_def_cfa_register 7
 332              		.loc 6 86 0
 333 0004 0148     		ldr	r0, .L17
 334 0006 FFF7FEFF 		bl	chMtxObjectInit
ARM GAS  C:\Users\Luis\AppData\Local\Temp\cckNqlc0.s 			page 7


 335              		.loc 6 87 0
 336 000a 80BD     		pop	{r7, pc}
 337              	.L18:
 338              		.align	2
 339              	.L17:
 340 000c 00000000 		.word	m1
 341              		.cfi_endproc
 342              	.LFE229:
 343              		.size	mtx1_setup, .-mtx1_setup
 344              		.section	.text.thread1,"ax",%progbits
 345              		.align	2
 346              		.p2align 4,,15
 347              		.thumb
 348              		.thumb_func
 349              		.type	thread1, %function
 350              	thread1:
 351              	.LFB230:
 352              		.loc 6 89 0
 353              		.cfi_startproc
 354              		@ args = 0, pretend = 0, frame = 8
 355              		@ frame_needed = 1, uses_anonymous_args = 0
 356 0000 80B5     		push	{r7, lr}
 357              		.cfi_def_cfa_offset 8
 358              		.cfi_offset 7, -8
 359              		.cfi_offset 14, -4
 360 0002 82B0     		sub	sp, sp, #8
 361              		.cfi_def_cfa_offset 16
 362 0004 00AF     		add	r7, sp, #0
 363              		.cfi_def_cfa_register 7
 364 0006 7860     		str	r0, [r7, #4]
 365              		.loc 6 91 0
 366 0008 0648     		ldr	r0, .L20
 367 000a FFF7FEFF 		bl	chMtxLock
 368              		.loc 6 92 0
 369 000e 7B68     		ldr	r3, [r7, #4]
 370 0010 1B78     		ldrb	r3, [r3]	@ zero_extendqisi2
 371 0012 1846     		mov	r0, r3
 372 0014 FFF7FEFF 		bl	test_emit_token
 373              		.loc 6 93 0
 374 0018 0248     		ldr	r0, .L20
 375 001a FFF7FEFF 		bl	chMtxUnlock
 376              		.loc 6 94 0
 377 001e 0837     		adds	r7, r7, #8
 378 0020 BD46     		mov	sp, r7
 379              		@ sp needed
 380 0022 80BD     		pop	{r7, pc}
 381              	.L21:
 382              		.align	2
 383              	.L20:
 384 0024 00000000 		.word	m1
 385              		.cfi_endproc
 386              	.LFE230:
 387              		.size	thread1, .-thread1
 388 0028 AFF30080 		.section	.rodata
 388      AFF30080 
 389              		.align	2
 390              	.LC0:
ARM GAS  C:\Users\Luis\AppData\Local\Temp\cckNqlc0.s 			page 8


 391 0000 4500     		.ascii	"E\000"
 392 0002 0000     		.align	2
 393              	.LC1:
 394 0004 4400     		.ascii	"D\000"
 395 0006 0000     		.align	2
 396              	.LC2:
 397 0008 4300     		.ascii	"C\000"
 398 000a 0000     		.align	2
 399              	.LC3:
 400 000c 4200     		.ascii	"B\000"
 401 000e 0000     		.align	2
 402              	.LC4:
 403 0010 4100     		.ascii	"A\000"
 404 0012 0000     		.align	2
 405              	.LC5:
 406 0014 41424344 		.ascii	"ABCDE\000"
 406      4500
 407              		.section	.text.mtx1_execute,"ax",%progbits
 408              		.align	2
 409              		.p2align 4,,15
 410              		.thumb
 411              		.thumb_func
 412              		.type	mtx1_execute, %function
 413              	mtx1_execute:
 414              	.LFB231:
 415              		.loc 6 96 0
 416              		.cfi_startproc
 417              		@ args = 0, pretend = 0, frame = 8
 418              		@ frame_needed = 1, uses_anonymous_args = 0
 419 0000 80B5     		push	{r7, lr}
 420              		.cfi_def_cfa_offset 8
 421              		.cfi_offset 7, -8
 422              		.cfi_offset 14, -4
 423 0002 84B0     		sub	sp, sp, #16
 424              		.cfi_def_cfa_offset 24
 425 0004 02AF     		add	r7, sp, #8
 426              		.cfi_def_cfa 7, 16
 427              		.loc 6 98 0
 428 0006 FFF7FEFF 		bl	chThdGetPriorityX
 429 000a 7860     		str	r0, [r7, #4]
 430              		.loc 6 99 0
 431 000c 3948     		ldr	r0, .L25
 432 000e FFF7FEFF 		bl	chMtxLock
 433              		.loc 6 100 0
 434 0012 394B     		ldr	r3, .L25+4
 435 0014 1A68     		ldr	r2, [r3]
 436 0016 7B68     		ldr	r3, [r7, #4]
 437 0018 0133     		adds	r3, r3, #1
 438 001a 3849     		ldr	r1, .L25+8
 439 001c 0091     		str	r1, [sp]
 440 001e 1046     		mov	r0, r2
 441 0020 4FF4B871 		mov	r1, #368
 442 0024 1A46     		mov	r2, r3
 443 0026 364B     		ldr	r3, .L25+12
 444 0028 FFF7FEFF 		bl	chThdCreateStatic
 445 002c 0246     		mov	r2, r0
 446 002e 354B     		ldr	r3, .L25+16
ARM GAS  C:\Users\Luis\AppData\Local\Temp\cckNqlc0.s 			page 9


 447 0030 1A60     		str	r2, [r3]
 448              		.loc 6 101 0
 449 0032 314B     		ldr	r3, .L25+4
 450 0034 5A68     		ldr	r2, [r3, #4]
 451 0036 7B68     		ldr	r3, [r7, #4]
 452 0038 0233     		adds	r3, r3, #2
 453 003a 3349     		ldr	r1, .L25+20
 454 003c 0091     		str	r1, [sp]
 455 003e 1046     		mov	r0, r2
 456 0040 4FF4B871 		mov	r1, #368
 457 0044 1A46     		mov	r2, r3
 458 0046 2E4B     		ldr	r3, .L25+12
 459 0048 FFF7FEFF 		bl	chThdCreateStatic
 460 004c 0246     		mov	r2, r0
 461 004e 2D4B     		ldr	r3, .L25+16
 462 0050 5A60     		str	r2, [r3, #4]
 463              		.loc 6 102 0
 464 0052 294B     		ldr	r3, .L25+4
 465 0054 9A68     		ldr	r2, [r3, #8]
 466 0056 7B68     		ldr	r3, [r7, #4]
 467 0058 0333     		adds	r3, r3, #3
 468 005a 2C49     		ldr	r1, .L25+24
 469 005c 0091     		str	r1, [sp]
 470 005e 1046     		mov	r0, r2
 471 0060 4FF4B871 		mov	r1, #368
 472 0064 1A46     		mov	r2, r3
 473 0066 264B     		ldr	r3, .L25+12
 474 0068 FFF7FEFF 		bl	chThdCreateStatic
 475 006c 0246     		mov	r2, r0
 476 006e 254B     		ldr	r3, .L25+16
 477 0070 9A60     		str	r2, [r3, #8]
 478              		.loc 6 103 0
 479 0072 214B     		ldr	r3, .L25+4
 480 0074 DA68     		ldr	r2, [r3, #12]
 481 0076 7B68     		ldr	r3, [r7, #4]
 482 0078 0433     		adds	r3, r3, #4
 483 007a 2549     		ldr	r1, .L25+28
 484 007c 0091     		str	r1, [sp]
 485 007e 1046     		mov	r0, r2
 486 0080 4FF4B871 		mov	r1, #368
 487 0084 1A46     		mov	r2, r3
 488 0086 1E4B     		ldr	r3, .L25+12
 489 0088 FFF7FEFF 		bl	chThdCreateStatic
 490 008c 0246     		mov	r2, r0
 491 008e 1D4B     		ldr	r3, .L25+16
 492 0090 DA60     		str	r2, [r3, #12]
 493              		.loc 6 104 0
 494 0092 194B     		ldr	r3, .L25+4
 495 0094 1A69     		ldr	r2, [r3, #16]
 496 0096 7B68     		ldr	r3, [r7, #4]
 497 0098 0533     		adds	r3, r3, #5
 498 009a 1E49     		ldr	r1, .L25+32
 499 009c 0091     		str	r1, [sp]
 500 009e 1046     		mov	r0, r2
 501 00a0 4FF4B871 		mov	r1, #368
 502 00a4 1A46     		mov	r2, r3
 503 00a6 164B     		ldr	r3, .L25+12
ARM GAS  C:\Users\Luis\AppData\Local\Temp\cckNqlc0.s 			page 10


 504 00a8 FFF7FEFF 		bl	chThdCreateStatic
 505 00ac 0246     		mov	r2, r0
 506 00ae 154B     		ldr	r3, .L25+16
 507 00b0 1A61     		str	r2, [r3, #16]
 508              		.loc 6 105 0
 509 00b2 1048     		ldr	r0, .L25
 510 00b4 FFF7FEFF 		bl	chMtxUnlock
 511              		.loc 6 106 0
 512 00b8 FFF7FEFF 		bl	test_wait_threads
 513              		.loc 6 107 0
 514 00bc FFF7FEFF 		bl	chThdGetPriorityX
 515 00c0 0246     		mov	r2, r0
 516 00c2 7B68     		ldr	r3, [r7, #4]
 517 00c4 9A42     		cmp	r2, r3
 518 00c6 14BF     		ite	ne
 519 00c8 0023     		movne	r3, #0
 520 00ca 0123     		moveq	r3, #1
 521 00cc DBB2     		uxtb	r3, r3
 522 00ce 0120     		movs	r0, #1
 523 00d0 1946     		mov	r1, r3
 524 00d2 FFF7FEFF 		bl	_test_assert
 525 00d6 0346     		mov	r3, r0
 526 00d8 002B     		cmp	r3, #0
 527 00da 00D0     		beq	.L23
 528              		.loc 6 107 0 is_stmt 0 discriminator 1
 529 00dc 07E0     		b	.L22
 530              	.L23:
 531              		.loc 6 108 0 is_stmt 1
 532 00de 0220     		movs	r0, #2
 533 00e0 0D49     		ldr	r1, .L25+36
 534 00e2 FFF7FEFF 		bl	_test_assert_sequence
 535 00e6 0346     		mov	r3, r0
 536 00e8 002B     		cmp	r3, #0
 537 00ea 00D0     		beq	.L22
 538              		.loc 6 108 0 is_stmt 0 discriminator 1
 539 00ec 00BF     		nop
 540              	.L22:
 541              		.loc 6 109 0 is_stmt 1
 542 00ee 0837     		adds	r7, r7, #8
 543 00f0 BD46     		mov	sp, r7
 544              		@ sp needed
 545 00f2 80BD     		pop	{r7, pc}
 546              	.L26:
 547              		.align	2
 548              	.L25:
 549 00f4 00000000 		.word	m1
 550 00f8 00000000 		.word	wa
 551 00fc 00000000 		.word	.LC0
 552 0100 00000000 		.word	thread1
 553 0104 00000000 		.word	threads
 554 0108 04000000 		.word	.LC1
 555 010c 08000000 		.word	.LC2
 556 0110 0C000000 		.word	.LC3
 557 0114 10000000 		.word	.LC4
 558 0118 14000000 		.word	.LC5
 559              		.cfi_endproc
 560              	.LFE231:
ARM GAS  C:\Users\Luis\AppData\Local\Temp\cckNqlc0.s 			page 11


 561              		.size	mtx1_execute, .-mtx1_execute
 562              		.global	testmtx1
 563 011c AFF30080 		.section	.rodata
 564 001a 0000     		.align	2
 565              	.LC6:
 566 001c 4D757465 		.ascii	"Mutexes, priority enqueuing test\000"
 566      7865732C 
 566      20707269 
 566      6F726974 
 566      7920656E 
 567              		.section	.rodata.testmtx1,"a",%progbits
 568              		.align	2
 569              		.type	testmtx1, %object
 570              		.size	testmtx1, 16
 571              	testmtx1:
 572 0000 1C000000 		.word	.LC6
 573 0004 00000000 		.word	mtx1_setup
 574 0008 00000000 		.word	0
 575 000c 00000000 		.word	mtx1_execute
 576              		.section	.text.mtx4_setup,"ax",%progbits
 577              		.align	2
 578              		.p2align 4,,15
 579              		.thumb
 580              		.thumb_func
 581              		.type	mtx4_setup, %function
 582              	mtx4_setup:
 583              	.LFB232:
 584              		.loc 6 332 0
 585              		.cfi_startproc
 586              		@ args = 0, pretend = 0, frame = 0
 587              		@ frame_needed = 1, uses_anonymous_args = 0
 588 0000 80B5     		push	{r7, lr}
 589              		.cfi_def_cfa_offset 8
 590              		.cfi_offset 7, -8
 591              		.cfi_offset 14, -4
 592 0002 00AF     		add	r7, sp, #0
 593              		.cfi_def_cfa_register 7
 594              		.loc 6 334 0
 595 0004 0348     		ldr	r0, .L28
 596 0006 FFF7FEFF 		bl	chMtxObjectInit
 597              		.loc 6 335 0
 598 000a 0348     		ldr	r0, .L28+4
 599 000c FFF7FEFF 		bl	chMtxObjectInit
 600              		.loc 6 336 0
 601 0010 80BD     		pop	{r7, pc}
 602              	.L29:
 603 0012 00BF     		.align	2
 604              	.L28:
 605 0014 00000000 		.word	m1
 606 0018 00000000 		.word	m2
 607              		.cfi_endproc
 608              	.LFE232:
 609              		.size	mtx4_setup, .-mtx4_setup
 610 001c AFF30080 		.section	.text.thread4a,"ax",%progbits
 611              		.align	2
 612              		.p2align 4,,15
 613              		.thumb
ARM GAS  C:\Users\Luis\AppData\Local\Temp\cckNqlc0.s 			page 12


 614              		.thumb_func
 615              		.type	thread4a, %function
 616              	thread4a:
 617              	.LFB233:
 618              		.loc 6 338 0
 619              		.cfi_startproc
 620              		@ args = 0, pretend = 0, frame = 8
 621              		@ frame_needed = 1, uses_anonymous_args = 0
 622 0000 80B5     		push	{r7, lr}
 623              		.cfi_def_cfa_offset 8
 624              		.cfi_offset 7, -8
 625              		.cfi_offset 14, -4
 626 0002 82B0     		sub	sp, sp, #8
 627              		.cfi_def_cfa_offset 16
 628 0004 00AF     		add	r7, sp, #0
 629              		.cfi_def_cfa_register 7
 630 0006 7860     		str	r0, [r7, #4]
 631              		.loc 6 341 0
 632 0008 4FF4FA70 		mov	r0, #500
 633 000c FFF7FEFF 		bl	chThdSleep
 634              		.loc 6 342 0
 635 0010 0448     		ldr	r0, .L31
 636 0012 FFF7FEFF 		bl	chMtxLock
 637              		.loc 6 343 0
 638 0016 0348     		ldr	r0, .L31
 639 0018 FFF7FEFF 		bl	chMtxUnlock
 640              		.loc 6 344 0
 641 001c 0837     		adds	r7, r7, #8
 642 001e BD46     		mov	sp, r7
 643              		@ sp needed
 644 0020 80BD     		pop	{r7, pc}
 645              	.L32:
 646 0022 00BF     		.align	2
 647              	.L31:
 648 0024 00000000 		.word	m2
 649              		.cfi_endproc
 650              	.LFE233:
 651              		.size	thread4a, .-thread4a
 652 0028 AFF30080 		.section	.text.thread4b,"ax",%progbits
 652      AFF30080 
 653              		.align	2
 654              		.p2align 4,,15
 655              		.thumb
 656              		.thumb_func
 657              		.type	thread4b, %function
 658              	thread4b:
 659              	.LFB234:
 660              		.loc 6 346 0
 661              		.cfi_startproc
 662              		@ args = 0, pretend = 0, frame = 8
 663              		@ frame_needed = 1, uses_anonymous_args = 0
 664 0000 80B5     		push	{r7, lr}
 665              		.cfi_def_cfa_offset 8
 666              		.cfi_offset 7, -8
 667              		.cfi_offset 14, -4
 668 0002 82B0     		sub	sp, sp, #8
 669              		.cfi_def_cfa_offset 16
ARM GAS  C:\Users\Luis\AppData\Local\Temp\cckNqlc0.s 			page 13


 670 0004 00AF     		add	r7, sp, #0
 671              		.cfi_def_cfa_register 7
 672 0006 7860     		str	r0, [r7, #4]
 673              		.loc 6 349 0
 674 0008 40F2DC50 		movw	r0, #1500
 675 000c FFF7FEFF 		bl	chThdSleep
 676              		.loc 6 350 0
 677 0010 0448     		ldr	r0, .L34
 678 0012 FFF7FEFF 		bl	chMtxLock
 679              		.loc 6 351 0
 680 0016 0348     		ldr	r0, .L34
 681 0018 FFF7FEFF 		bl	chMtxUnlock
 682              		.loc 6 352 0
 683 001c 0837     		adds	r7, r7, #8
 684 001e BD46     		mov	sp, r7
 685              		@ sp needed
 686 0020 80BD     		pop	{r7, pc}
 687              	.L35:
 688 0022 00BF     		.align	2
 689              	.L34:
 690 0024 00000000 		.word	m1
 691              		.cfi_endproc
 692              	.LFE234:
 693              		.size	thread4b, .-thread4b
 694 0028 AFF30080 		.section	.text.mtx4_execute,"ax",%progbits
 694      AFF30080 
 695              		.align	2
 696              		.p2align 4,,15
 697              		.thumb
 698              		.thumb_func
 699              		.type	mtx4_execute, %function
 700              	mtx4_execute:
 701              	.LFB235:
 702              		.loc 6 354 0
 703              		.cfi_startproc
 704              		@ args = 0, pretend = 0, frame = 16
 705              		@ frame_needed = 1, uses_anonymous_args = 0
 706 0000 80B5     		push	{r7, lr}
 707              		.cfi_def_cfa_offset 8
 708              		.cfi_offset 7, -8
 709              		.cfi_offset 14, -4
 710 0002 86B0     		sub	sp, sp, #24
 711              		.cfi_def_cfa_offset 32
 712 0004 02AF     		add	r7, sp, #8
 713              		.cfi_def_cfa 7, 24
 714              		.loc 6 357 0
 715 0006 FFF7FEFF 		bl	chThdGetPriorityX
 716 000a F860     		str	r0, [r7, #12]
 717              		.loc 6 358 0
 718 000c FB68     		ldr	r3, [r7, #12]
 719 000e 0133     		adds	r3, r3, #1
 720 0010 BB60     		str	r3, [r7, #8]
 721              		.loc 6 359 0
 722 0012 FB68     		ldr	r3, [r7, #12]
 723 0014 0233     		adds	r3, r3, #2
 724 0016 7B60     		str	r3, [r7, #4]
 725              		.loc 6 360 0
ARM GAS  C:\Users\Luis\AppData\Local\Temp\cckNqlc0.s 			page 14


 726 0018 A44B     		ldr	r3, .L52
 727 001a 1B68     		ldr	r3, [r3]
 728 001c A44A     		ldr	r2, .L52+4
 729 001e 0092     		str	r2, [sp]
 730 0020 1846     		mov	r0, r3
 731 0022 4FF4B871 		mov	r1, #368
 732 0026 BA68     		ldr	r2, [r7, #8]
 733 0028 A24B     		ldr	r3, .L52+8
 734 002a FFF7FEFF 		bl	chThdCreateStatic
 735 002e 0246     		mov	r2, r0
 736 0030 A14B     		ldr	r3, .L52+12
 737 0032 1A60     		str	r2, [r3]
 738              		.loc 6 361 0
 739 0034 9D4B     		ldr	r3, .L52
 740 0036 5B68     		ldr	r3, [r3, #4]
 741 0038 A04A     		ldr	r2, .L52+16
 742 003a 0092     		str	r2, [sp]
 743 003c 1846     		mov	r0, r3
 744 003e 4FF4B871 		mov	r1, #368
 745 0042 7A68     		ldr	r2, [r7, #4]
 746 0044 9E4B     		ldr	r3, .L52+20
 747 0046 FFF7FEFF 		bl	chThdCreateStatic
 748 004a 0246     		mov	r2, r0
 749 004c 9A4B     		ldr	r3, .L52+12
 750 004e 5A60     		str	r2, [r3, #4]
 751              		.loc 6 362 0
 752 0050 9C48     		ldr	r0, .L52+24
 753 0052 FFF7FEFF 		bl	chMtxLock
 754              		.loc 6 363 0
 755 0056 FFF7FEFF 		bl	chThdGetPriorityX
 756 005a 0246     		mov	r2, r0
 757 005c FB68     		ldr	r3, [r7, #12]
 758 005e 9A42     		cmp	r2, r3
 759 0060 14BF     		ite	ne
 760 0062 0023     		movne	r3, #0
 761 0064 0123     		moveq	r3, #1
 762 0066 DBB2     		uxtb	r3, r3
 763 0068 0120     		movs	r0, #1
 764 006a 1946     		mov	r1, r3
 765 006c FFF7FEFF 		bl	_test_assert
 766 0070 0346     		mov	r3, r0
 767 0072 002B     		cmp	r3, #0
 768 0074 00D0     		beq	.L37
 769              		.loc 6 363 0 is_stmt 0 discriminator 1
 770 0076 42E1     		b	.L36
 771              	.L37:
 772              		.loc 6 364 0 is_stmt 1
 773 0078 4FF47A70 		mov	r0, #1000
 774 007c FFF7FEFF 		bl	chThdSleep
 775              		.loc 6 365 0
 776 0080 FFF7FEFF 		bl	chThdGetPriorityX
 777 0084 0246     		mov	r2, r0
 778 0086 BB68     		ldr	r3, [r7, #8]
 779 0088 9A42     		cmp	r2, r3
 780 008a 14BF     		ite	ne
 781 008c 0023     		movne	r3, #0
 782 008e 0123     		moveq	r3, #1
ARM GAS  C:\Users\Luis\AppData\Local\Temp\cckNqlc0.s 			page 15


 783 0090 DBB2     		uxtb	r3, r3
 784 0092 0220     		movs	r0, #2
 785 0094 1946     		mov	r1, r3
 786 0096 FFF7FEFF 		bl	_test_assert
 787 009a 0346     		mov	r3, r0
 788 009c 002B     		cmp	r3, #0
 789 009e 00D0     		beq	.L39
 790              		.loc 6 365 0 is_stmt 0 discriminator 1
 791 00a0 2DE1     		b	.L36
 792              	.L39:
 793              		.loc 6 366 0 is_stmt 1
 794 00a2 8948     		ldr	r0, .L52+28
 795 00a4 FFF7FEFF 		bl	chMtxLock
 796              		.loc 6 367 0
 797 00a8 FFF7FEFF 		bl	chThdGetPriorityX
 798 00ac 0246     		mov	r2, r0
 799 00ae BB68     		ldr	r3, [r7, #8]
 800 00b0 9A42     		cmp	r2, r3
 801 00b2 14BF     		ite	ne
 802 00b4 0023     		movne	r3, #0
 803 00b6 0123     		moveq	r3, #1
 804 00b8 DBB2     		uxtb	r3, r3
 805 00ba 0320     		movs	r0, #3
 806 00bc 1946     		mov	r1, r3
 807 00be FFF7FEFF 		bl	_test_assert
 808 00c2 0346     		mov	r3, r0
 809 00c4 002B     		cmp	r3, #0
 810 00c6 00D0     		beq	.L40
 811              		.loc 6 367 0 is_stmt 0 discriminator 1
 812 00c8 19E1     		b	.L36
 813              	.L40:
 814              		.loc 6 368 0 is_stmt 1
 815 00ca 4FF47A70 		mov	r0, #1000
 816 00ce FFF7FEFF 		bl	chThdSleep
 817              		.loc 6 369 0
 818 00d2 FFF7FEFF 		bl	chThdGetPriorityX
 819 00d6 0246     		mov	r2, r0
 820 00d8 7B68     		ldr	r3, [r7, #4]
 821 00da 9A42     		cmp	r2, r3
 822 00dc 14BF     		ite	ne
 823 00de 0023     		movne	r3, #0
 824 00e0 0123     		moveq	r3, #1
 825 00e2 DBB2     		uxtb	r3, r3
 826 00e4 0420     		movs	r0, #4
 827 00e6 1946     		mov	r1, r3
 828 00e8 FFF7FEFF 		bl	_test_assert
 829 00ec 0346     		mov	r3, r0
 830 00ee 002B     		cmp	r3, #0
 831 00f0 00D0     		beq	.L41
 832              		.loc 6 369 0 is_stmt 0 discriminator 1
 833 00f2 04E1     		b	.L36
 834              	.L41:
 835              		.loc 6 370 0 is_stmt 1
 836 00f4 7448     		ldr	r0, .L52+28
 837 00f6 FFF7FEFF 		bl	chMtxUnlock
 838              		.loc 6 371 0
 839 00fa FFF7FEFF 		bl	chThdGetPriorityX
ARM GAS  C:\Users\Luis\AppData\Local\Temp\cckNqlc0.s 			page 16


 840 00fe 0246     		mov	r2, r0
 841 0100 BB68     		ldr	r3, [r7, #8]
 842 0102 9A42     		cmp	r2, r3
 843 0104 14BF     		ite	ne
 844 0106 0023     		movne	r3, #0
 845 0108 0123     		moveq	r3, #1
 846 010a DBB2     		uxtb	r3, r3
 847 010c 0520     		movs	r0, #5
 848 010e 1946     		mov	r1, r3
 849 0110 FFF7FEFF 		bl	_test_assert
 850 0114 0346     		mov	r3, r0
 851 0116 002B     		cmp	r3, #0
 852 0118 00D0     		beq	.L42
 853              		.loc 6 371 0 is_stmt 0 discriminator 1
 854 011a F0E0     		b	.L36
 855              	.L42:
 856              		.loc 6 372 0 is_stmt 1
 857 011c 4FF47A70 		mov	r0, #1000
 858 0120 FFF7FEFF 		bl	chThdSleep
 859              		.loc 6 373 0
 860 0124 FFF7FEFF 		bl	chThdGetPriorityX
 861 0128 0246     		mov	r2, r0
 862 012a BB68     		ldr	r3, [r7, #8]
 863 012c 9A42     		cmp	r2, r3
 864 012e 14BF     		ite	ne
 865 0130 0023     		movne	r3, #0
 866 0132 0123     		moveq	r3, #1
 867 0134 DBB2     		uxtb	r3, r3
 868 0136 0620     		movs	r0, #6
 869 0138 1946     		mov	r1, r3
 870 013a FFF7FEFF 		bl	_test_assert
 871 013e 0346     		mov	r3, r0
 872 0140 002B     		cmp	r3, #0
 873 0142 00D0     		beq	.L43
 874              		.loc 6 373 0 is_stmt 0 discriminator 1
 875 0144 DBE0     		b	.L36
 876              	.L43:
 877              		.loc 6 374 0 is_stmt 1
 878 0146 FFF7FEFF 		bl	chMtxUnlockAll
 879              		.loc 6 375 0
 880 014a FFF7FEFF 		bl	chThdGetPriorityX
 881 014e 0246     		mov	r2, r0
 882 0150 FB68     		ldr	r3, [r7, #12]
 883 0152 9A42     		cmp	r2, r3
 884 0154 14BF     		ite	ne
 885 0156 0023     		movne	r3, #0
 886 0158 0123     		moveq	r3, #1
 887 015a DBB2     		uxtb	r3, r3
 888 015c 0720     		movs	r0, #7
 889 015e 1946     		mov	r1, r3
 890 0160 FFF7FEFF 		bl	_test_assert
 891 0164 0346     		mov	r3, r0
 892 0166 002B     		cmp	r3, #0
 893 0168 00D0     		beq	.L44
 894              		.loc 6 375 0 is_stmt 0 discriminator 1
 895 016a C8E0     		b	.L36
 896              	.L44:
ARM GAS  C:\Users\Luis\AppData\Local\Temp\cckNqlc0.s 			page 17


 897              		.loc 6 376 0 is_stmt 1
 898 016c FFF7FEFF 		bl	test_wait_threads
 899              		.loc 6 379 0
 900 0170 4E4B     		ldr	r3, .L52
 901 0172 1B68     		ldr	r3, [r3]
 902 0174 554A     		ldr	r2, .L52+32
 903 0176 0092     		str	r2, [sp]
 904 0178 1846     		mov	r0, r3
 905 017a 4FF4B871 		mov	r1, #368
 906 017e BA68     		ldr	r2, [r7, #8]
 907 0180 4C4B     		ldr	r3, .L52+8
 908 0182 FFF7FEFF 		bl	chThdCreateStatic
 909 0186 0246     		mov	r2, r0
 910 0188 4B4B     		ldr	r3, .L52+12
 911 018a 1A60     		str	r2, [r3]
 912              		.loc 6 380 0
 913 018c 474B     		ldr	r3, .L52
 914 018e 5B68     		ldr	r3, [r3, #4]
 915 0190 4F4A     		ldr	r2, .L52+36
 916 0192 0092     		str	r2, [sp]
 917 0194 1846     		mov	r0, r3
 918 0196 4FF4B871 		mov	r1, #368
 919 019a 7A68     		ldr	r2, [r7, #4]
 920 019c 484B     		ldr	r3, .L52+20
 921 019e FFF7FEFF 		bl	chThdCreateStatic
 922 01a2 0246     		mov	r2, r0
 923 01a4 444B     		ldr	r3, .L52+12
 924 01a6 5A60     		str	r2, [r3, #4]
 925              		.loc 6 381 0
 926 01a8 4648     		ldr	r0, .L52+24
 927 01aa FFF7FEFF 		bl	chMtxLock
 928              		.loc 6 382 0
 929 01ae FFF7FEFF 		bl	chThdGetPriorityX
 930 01b2 0246     		mov	r2, r0
 931 01b4 FB68     		ldr	r3, [r7, #12]
 932 01b6 9A42     		cmp	r2, r3
 933 01b8 14BF     		ite	ne
 934 01ba 0023     		movne	r3, #0
 935 01bc 0123     		moveq	r3, #1
 936 01be DBB2     		uxtb	r3, r3
 937 01c0 0820     		movs	r0, #8
 938 01c2 1946     		mov	r1, r3
 939 01c4 FFF7FEFF 		bl	_test_assert
 940 01c8 0346     		mov	r3, r0
 941 01ca 002B     		cmp	r3, #0
 942 01cc 00D0     		beq	.L45
 943              		.loc 6 382 0 is_stmt 0 discriminator 1
 944 01ce 96E0     		b	.L36
 945              	.L45:
 946              		.loc 6 383 0 is_stmt 1
 947 01d0 4FF47A70 		mov	r0, #1000
 948 01d4 FFF7FEFF 		bl	chThdSleep
 949              		.loc 6 384 0
 950 01d8 FFF7FEFF 		bl	chThdGetPriorityX
 951 01dc 0246     		mov	r2, r0
 952 01de BB68     		ldr	r3, [r7, #8]
 953 01e0 9A42     		cmp	r2, r3
ARM GAS  C:\Users\Luis\AppData\Local\Temp\cckNqlc0.s 			page 18


 954 01e2 14BF     		ite	ne
 955 01e4 0023     		movne	r3, #0
 956 01e6 0123     		moveq	r3, #1
 957 01e8 DBB2     		uxtb	r3, r3
 958 01ea 0920     		movs	r0, #9
 959 01ec 1946     		mov	r1, r3
 960 01ee FFF7FEFF 		bl	_test_assert
 961 01f2 0346     		mov	r3, r0
 962 01f4 002B     		cmp	r3, #0
 963 01f6 00D0     		beq	.L46
 964              		.loc 6 384 0 is_stmt 0 discriminator 1
 965 01f8 81E0     		b	.L36
 966              	.L46:
 967              		.loc 6 385 0 is_stmt 1
 968 01fa 3348     		ldr	r0, .L52+28
 969 01fc FFF7FEFF 		bl	chMtxLock
 970              		.loc 6 386 0
 971 0200 FFF7FEFF 		bl	chThdGetPriorityX
 972 0204 0246     		mov	r2, r0
 973 0206 BB68     		ldr	r3, [r7, #8]
 974 0208 9A42     		cmp	r2, r3
 975 020a 14BF     		ite	ne
 976 020c 0023     		movne	r3, #0
 977 020e 0123     		moveq	r3, #1
 978 0210 DBB2     		uxtb	r3, r3
 979 0212 0A20     		movs	r0, #10
 980 0214 1946     		mov	r1, r3
 981 0216 FFF7FEFF 		bl	_test_assert
 982 021a 0346     		mov	r3, r0
 983 021c 002B     		cmp	r3, #0
 984 021e 00D0     		beq	.L47
 985              		.loc 6 386 0 is_stmt 0 discriminator 1
 986 0220 6DE0     		b	.L36
 987              	.L47:
 988              		.loc 6 387 0 is_stmt 1
 989 0222 4FF47A70 		mov	r0, #1000
 990 0226 FFF7FEFF 		bl	chThdSleep
 991              		.loc 6 388 0
 992 022a FFF7FEFF 		bl	chThdGetPriorityX
 993 022e 0246     		mov	r2, r0
 994 0230 7B68     		ldr	r3, [r7, #4]
 995 0232 9A42     		cmp	r2, r3
 996 0234 14BF     		ite	ne
 997 0236 0023     		movne	r3, #0
 998 0238 0123     		moveq	r3, #1
 999 023a DBB2     		uxtb	r3, r3
 1000 023c 0B20     		movs	r0, #11
 1001 023e 1946     		mov	r1, r3
 1002 0240 FFF7FEFF 		bl	_test_assert
 1003 0244 0346     		mov	r3, r0
 1004 0246 002B     		cmp	r3, #0
 1005 0248 00D0     		beq	.L48
 1006              		.loc 6 388 0 is_stmt 0 discriminator 1
 1007 024a 58E0     		b	.L36
 1008              	.L48:
 1009              		.loc 6 389 0 is_stmt 1
 1010 024c FFF7FEFF 		bl	chSysLock
ARM GAS  C:\Users\Luis\AppData\Local\Temp\cckNqlc0.s 			page 19


 1011              		.loc 6 390 0
 1012 0250 1D48     		ldr	r0, .L52+28
 1013 0252 FFF7FEFF 		bl	chMtxUnlockS
 1014              		.loc 6 391 0
 1015 0256 FFF7FEFF 		bl	chSchRescheduleS
 1016              		.loc 6 392 0
 1017 025a FFF7FEFF 		bl	chSysUnlock
 1018              		.loc 6 393 0
 1019 025e FFF7FEFF 		bl	chThdGetPriorityX
 1020 0262 0246     		mov	r2, r0
 1021 0264 BB68     		ldr	r3, [r7, #8]
 1022 0266 9A42     		cmp	r2, r3
 1023 0268 14BF     		ite	ne
 1024 026a 0023     		movne	r3, #0
 1025 026c 0123     		moveq	r3, #1
 1026 026e DBB2     		uxtb	r3, r3
 1027 0270 0C20     		movs	r0, #12
 1028 0272 1946     		mov	r1, r3
 1029 0274 FFF7FEFF 		bl	_test_assert
 1030 0278 0346     		mov	r3, r0
 1031 027a 002B     		cmp	r3, #0
 1032 027c 00D0     		beq	.L49
 1033              		.loc 6 393 0 is_stmt 0 discriminator 1
 1034 027e 3EE0     		b	.L36
 1035              	.L49:
 1036              		.loc 6 394 0 is_stmt 1
 1037 0280 4FF47A70 		mov	r0, #1000
 1038 0284 FFF7FEFF 		bl	chThdSleep
 1039              		.loc 6 395 0
 1040 0288 FFF7FEFF 		bl	chThdGetPriorityX
 1041 028c 0246     		mov	r2, r0
 1042 028e BB68     		ldr	r3, [r7, #8]
 1043 0290 9A42     		cmp	r2, r3
 1044 0292 14BF     		ite	ne
 1045 0294 0023     		movne	r3, #0
 1046 0296 0123     		moveq	r3, #1
 1047 0298 DBB2     		uxtb	r3, r3
 1048 029a 0D20     		movs	r0, #13
 1049 029c 1946     		mov	r1, r3
 1050 029e FFF7FEFF 		bl	_test_assert
 1051 02a2 0346     		mov	r3, r0
 1052 02a4 002B     		cmp	r3, #0
 1053 02a6 15D0     		beq	.L50
 1054              		.loc 6 395 0 is_stmt 0 discriminator 1
 1055 02a8 29E0     		b	.L36
 1056              	.L53:
 1057 02aa 00BF     		.align	2
 1058              	.L52:
 1059 02ac 00000000 		.word	wa
 1060 02b0 0C000000 		.word	.LC3
 1061 02b4 00000000 		.word	thread4a
 1062 02b8 00000000 		.word	threads
 1063 02bc 10000000 		.word	.LC4
 1064 02c0 00000000 		.word	thread4b
 1065 02c4 00000000 		.word	m2
 1066 02c8 00000000 		.word	m1
 1067 02cc 04000000 		.word	.LC1
ARM GAS  C:\Users\Luis\AppData\Local\Temp\cckNqlc0.s 			page 20


 1068 02d0 08000000 		.word	.LC2
 1069              	.L50:
 1070              		.loc 6 396 0 is_stmt 1
 1071 02d4 FFF7FEFF 		bl	chMtxUnlockAll
 1072              		.loc 6 397 0
 1073 02d8 FFF7FEFF 		bl	chThdGetPriorityX
 1074 02dc 0246     		mov	r2, r0
 1075 02de FB68     		ldr	r3, [r7, #12]
 1076 02e0 9A42     		cmp	r2, r3
 1077 02e2 14BF     		ite	ne
 1078 02e4 0023     		movne	r3, #0
 1079 02e6 0123     		moveq	r3, #1
 1080 02e8 DBB2     		uxtb	r3, r3
 1081 02ea 0E20     		movs	r0, #14
 1082 02ec 1946     		mov	r1, r3
 1083 02ee FFF7FEFF 		bl	_test_assert
 1084 02f2 0346     		mov	r3, r0
 1085 02f4 002B     		cmp	r3, #0
 1086 02f6 00D0     		beq	.L51
 1087              		.loc 6 397 0 is_stmt 0 discriminator 1
 1088 02f8 01E0     		b	.L36
 1089              	.L51:
 1090              		.loc 6 398 0 is_stmt 1
 1091 02fa FFF7FEFF 		bl	test_wait_threads
 1092              	.L36:
 1093              		.loc 6 399 0
 1094 02fe 1037     		adds	r7, r7, #16
 1095 0300 BD46     		mov	sp, r7
 1096              		@ sp needed
 1097 0302 80BD     		pop	{r7, pc}
 1098              		.cfi_endproc
 1099              	.LFE235:
 1100              		.size	mtx4_execute, .-mtx4_execute
 1101              		.global	testmtx4
 1102 0304 AFF30080 		.section	.rodata
 1102      AFF30080 
 1102      AFF30080 
 1103 003d 000000   		.align	2
 1104              	.LC7:
 1105 0040 4D757465 		.ascii	"Mutexes, priority return\000"
 1105      7865732C 
 1105      20707269 
 1105      6F726974 
 1105      79207265 
 1106              		.section	.rodata.testmtx4,"a",%progbits
 1107              		.align	2
 1108              		.type	testmtx4, %object
 1109              		.size	testmtx4, 16
 1110              	testmtx4:
 1111 0000 40000000 		.word	.LC7
 1112 0004 00000000 		.word	mtx4_setup
 1113 0008 00000000 		.word	0
 1114 000c 00000000 		.word	mtx4_execute
 1115              		.section	.text.mtx5_setup,"ax",%progbits
 1116              		.align	2
 1117              		.p2align 4,,15
 1118              		.thumb
ARM GAS  C:\Users\Luis\AppData\Local\Temp\cckNqlc0.s 			page 21


 1119              		.thumb_func
 1120              		.type	mtx5_setup, %function
 1121              	mtx5_setup:
 1122              	.LFB236:
 1123              		.loc 6 418 0
 1124              		.cfi_startproc
 1125              		@ args = 0, pretend = 0, frame = 0
 1126              		@ frame_needed = 1, uses_anonymous_args = 0
 1127 0000 80B5     		push	{r7, lr}
 1128              		.cfi_def_cfa_offset 8
 1129              		.cfi_offset 7, -8
 1130              		.cfi_offset 14, -4
 1131 0002 00AF     		add	r7, sp, #0
 1132              		.cfi_def_cfa_register 7
 1133              		.loc 6 420 0
 1134 0004 0148     		ldr	r0, .L55
 1135 0006 FFF7FEFF 		bl	chMtxObjectInit
 1136              		.loc 6 421 0
 1137 000a 80BD     		pop	{r7, pc}
 1138              	.L56:
 1139              		.align	2
 1140              	.L55:
 1141 000c 00000000 		.word	m1
 1142              		.cfi_endproc
 1143              	.LFE236:
 1144              		.size	mtx5_setup, .-mtx5_setup
 1145              		.section	.text.mtx5_execute,"ax",%progbits
 1146              		.align	2
 1147              		.p2align 4,,15
 1148              		.thumb
 1149              		.thumb_func
 1150              		.type	mtx5_execute, %function
 1151              	mtx5_execute:
 1152              	.LFB237:
 1153              		.loc 6 423 0
 1154              		.cfi_startproc
 1155              		@ args = 0, pretend = 0, frame = 8
 1156              		@ frame_needed = 1, uses_anonymous_args = 0
 1157 0000 80B5     		push	{r7, lr}
 1158              		.cfi_def_cfa_offset 8
 1159              		.cfi_offset 7, -8
 1160              		.cfi_offset 14, -4
 1161 0002 82B0     		sub	sp, sp, #8
 1162              		.cfi_def_cfa_offset 16
 1163 0004 00AF     		add	r7, sp, #0
 1164              		.cfi_def_cfa_register 7
 1165              		.loc 6 427 0
 1166 0006 FFF7FEFF 		bl	chThdGetPriorityX
 1167 000a 7860     		str	r0, [r7, #4]
 1168              		.loc 6 429 0
 1169 000c 3E48     		ldr	r0, .L65
 1170 000e FFF7FEFF 		bl	chMtxTryLock
 1171 0012 0346     		mov	r3, r0
 1172 0014 FB70     		strb	r3, [r7, #3]
 1173              		.loc 6 430 0
 1174 0016 FB78     		ldrb	r3, [r7, #3]	@ zero_extendqisi2
 1175 0018 0120     		movs	r0, #1
ARM GAS  C:\Users\Luis\AppData\Local\Temp\cckNqlc0.s 			page 22


 1176 001a 1946     		mov	r1, r3
 1177 001c FFF7FEFF 		bl	_test_assert
 1178 0020 0346     		mov	r3, r0
 1179 0022 002B     		cmp	r3, #0
 1180 0024 00D0     		beq	.L58
 1181              		.loc 6 430 0 is_stmt 0 discriminator 1
 1182 0026 6BE0     		b	.L57
 1183              	.L58:
 1184              		.loc 6 432 0 is_stmt 1
 1185 0028 3748     		ldr	r0, .L65
 1186 002a FFF7FEFF 		bl	chMtxTryLock
 1187 002e 0346     		mov	r3, r0
 1188 0030 FB70     		strb	r3, [r7, #3]
 1189              		.loc 6 433 0
 1190 0032 FB78     		ldrb	r3, [r7, #3]	@ zero_extendqisi2
 1191 0034 002B     		cmp	r3, #0
 1192 0036 0CBF     		ite	eq
 1193 0038 0023     		moveq	r3, #0
 1194 003a 0123     		movne	r3, #1
 1195 003c DBB2     		uxtb	r3, r3
 1196 003e 83F00103 		eor	r3, r3, #1
 1197 0042 DBB2     		uxtb	r3, r3
 1198 0044 03F00103 		and	r3, r3, #1
 1199 0048 DBB2     		uxtb	r3, r3
 1200 004a 0220     		movs	r0, #2
 1201 004c 1946     		mov	r1, r3
 1202 004e FFF7FEFF 		bl	_test_assert
 1203 0052 0346     		mov	r3, r0
 1204 0054 002B     		cmp	r3, #0
 1205 0056 00D0     		beq	.L60
 1206              		.loc 6 433 0 is_stmt 0 discriminator 1
 1207 0058 52E0     		b	.L57
 1208              	.L60:
 1209              		.loc 6 435 0 is_stmt 1
 1210 005a FFF7FEFF 		bl	chSysLock
 1211              		.loc 6 436 0
 1212 005e 2A48     		ldr	r0, .L65
 1213 0060 FFF7FEFF 		bl	chMtxUnlockS
 1214              		.loc 6 437 0
 1215 0064 FFF7FEFF 		bl	chSysUnlock
 1216              		.loc 6 439 0
 1217 0068 2748     		ldr	r0, .L65
 1218 006a FFF7FEFF 		bl	queue_isempty
 1219 006e 0346     		mov	r3, r0
 1220 0070 0320     		movs	r0, #3
 1221 0072 1946     		mov	r1, r3
 1222 0074 FFF7FEFF 		bl	_test_assert
 1223 0078 0346     		mov	r3, r0
 1224 007a 002B     		cmp	r3, #0
 1225 007c 00D0     		beq	.L61
 1226              		.loc 6 439 0 is_stmt 0 discriminator 1
 1227 007e 3FE0     		b	.L57
 1228              	.L61:
 1229              		.loc 6 440 0 is_stmt 1
 1230 0080 214B     		ldr	r3, .L65
 1231 0082 9B68     		ldr	r3, [r3, #8]
 1232 0084 002B     		cmp	r3, #0
ARM GAS  C:\Users\Luis\AppData\Local\Temp\cckNqlc0.s 			page 23


 1233 0086 14BF     		ite	ne
 1234 0088 0023     		movne	r3, #0
 1235 008a 0123     		moveq	r3, #1
 1236 008c DBB2     		uxtb	r3, r3
 1237 008e 0420     		movs	r0, #4
 1238 0090 1946     		mov	r1, r3
 1239 0092 FFF7FEFF 		bl	_test_assert
 1240 0096 0346     		mov	r3, r0
 1241 0098 002B     		cmp	r3, #0
 1242 009a 00D0     		beq	.L62
 1243              		.loc 6 440 0 is_stmt 0 discriminator 1
 1244 009c 30E0     		b	.L57
 1245              	.L62:
 1246              		.loc 6 441 0 is_stmt 1
 1247 009e FFF7FEFF 		bl	chThdGetPriorityX
 1248 00a2 0246     		mov	r2, r0
 1249 00a4 7B68     		ldr	r3, [r7, #4]
 1250 00a6 9A42     		cmp	r2, r3
 1251 00a8 14BF     		ite	ne
 1252 00aa 0023     		movne	r3, #0
 1253 00ac 0123     		moveq	r3, #1
 1254 00ae DBB2     		uxtb	r3, r3
 1255 00b0 0520     		movs	r0, #5
 1256 00b2 1946     		mov	r1, r3
 1257 00b4 FFF7FEFF 		bl	_test_assert
 1258 00b8 0346     		mov	r3, r0
 1259 00ba 002B     		cmp	r3, #0
 1260 00bc 00D0     		beq	.L63
 1261              		.loc 6 441 0 is_stmt 0 discriminator 1
 1262 00be 1FE0     		b	.L57
 1263              	.L63:
 1264              		.loc 6 444 0 is_stmt 1
 1265 00c0 1148     		ldr	r0, .L65
 1266 00c2 FFF7FEFF 		bl	chMtxLock
 1267              		.loc 6 445 0
 1268 00c6 FFF7FEFF 		bl	chMtxUnlockAll
 1269              		.loc 6 446 0
 1270 00ca 0F48     		ldr	r0, .L65
 1271 00cc FFF7FEFF 		bl	queue_isempty
 1272 00d0 0346     		mov	r3, r0
 1273 00d2 0620     		movs	r0, #6
 1274 00d4 1946     		mov	r1, r3
 1275 00d6 FFF7FEFF 		bl	_test_assert
 1276 00da 0346     		mov	r3, r0
 1277 00dc 002B     		cmp	r3, #0
 1278 00de 00D0     		beq	.L64
 1279              		.loc 6 446 0 is_stmt 0 discriminator 1
 1280 00e0 0EE0     		b	.L57
 1281              	.L64:
 1282              		.loc 6 447 0 is_stmt 1
 1283 00e2 094B     		ldr	r3, .L65
 1284 00e4 9B68     		ldr	r3, [r3, #8]
 1285 00e6 002B     		cmp	r3, #0
 1286 00e8 14BF     		ite	ne
 1287 00ea 0023     		movne	r3, #0
 1288 00ec 0123     		moveq	r3, #1
 1289 00ee DBB2     		uxtb	r3, r3
ARM GAS  C:\Users\Luis\AppData\Local\Temp\cckNqlc0.s 			page 24


 1290 00f0 0720     		movs	r0, #7
 1291 00f2 1946     		mov	r1, r3
 1292 00f4 FFF7FEFF 		bl	_test_assert
 1293 00f8 0346     		mov	r3, r0
 1294 00fa 002B     		cmp	r3, #0
 1295 00fc 00D0     		beq	.L57
 1296              		.loc 6 447 0 is_stmt 0 discriminator 1
 1297 00fe 00BF     		nop
 1298              	.L57:
 1299              		.loc 6 448 0 is_stmt 1
 1300 0100 0837     		adds	r7, r7, #8
 1301 0102 BD46     		mov	sp, r7
 1302              		@ sp needed
 1303 0104 80BD     		pop	{r7, pc}
 1304              	.L66:
 1305 0106 00BF     		.align	2
 1306              	.L65:
 1307 0108 00000000 		.word	m1
 1308              		.cfi_endproc
 1309              	.LFE237:
 1310              		.size	mtx5_execute, .-mtx5_execute
 1311              		.global	testmtx5
 1312 010c AFF30080 		.section	.rodata
 1313 0059 000000   		.align	2
 1314              	.LC8:
 1315 005c 4D757465 		.ascii	"Mutexes, status\000"
 1315      7865732C 
 1315      20737461 
 1315      74757300 
 1316              		.section	.rodata.testmtx5,"a",%progbits
 1317              		.align	2
 1318              		.type	testmtx5, %object
 1319              		.size	testmtx5, 16
 1320              	testmtx5:
 1321 0000 5C000000 		.word	.LC8
 1322 0004 00000000 		.word	mtx5_setup
 1323 0008 00000000 		.word	0
 1324 000c 00000000 		.word	mtx5_execute
 1325              		.section	.text.mtx6_setup,"ax",%progbits
 1326              		.align	2
 1327              		.p2align 4,,15
 1328              		.thumb
 1329              		.thumb_func
 1330              		.type	mtx6_setup, %function
 1331              	mtx6_setup:
 1332              	.LFB238:
 1333              		.loc 6 469 0
 1334              		.cfi_startproc
 1335              		@ args = 0, pretend = 0, frame = 0
 1336              		@ frame_needed = 1, uses_anonymous_args = 0
 1337 0000 80B5     		push	{r7, lr}
 1338              		.cfi_def_cfa_offset 8
 1339              		.cfi_offset 7, -8
 1340              		.cfi_offset 14, -4
 1341 0002 00AF     		add	r7, sp, #0
 1342              		.cfi_def_cfa_register 7
 1343              		.loc 6 471 0
ARM GAS  C:\Users\Luis\AppData\Local\Temp\cckNqlc0.s 			page 25


 1344 0004 0348     		ldr	r0, .L68
 1345 0006 FFF7FEFF 		bl	chCondObjectInit
 1346              		.loc 6 472 0
 1347 000a 0348     		ldr	r0, .L68+4
 1348 000c FFF7FEFF 		bl	chMtxObjectInit
 1349              		.loc 6 473 0
 1350 0010 80BD     		pop	{r7, pc}
 1351              	.L69:
 1352 0012 00BF     		.align	2
 1353              	.L68:
 1354 0014 00000000 		.word	c1
 1355 0018 00000000 		.word	m1
 1356              		.cfi_endproc
 1357              	.LFE238:
 1358              		.size	mtx6_setup, .-mtx6_setup
 1359 001c AFF30080 		.section	.text.thread10,"ax",%progbits
 1360              		.align	2
 1361              		.p2align 4,,15
 1362              		.thumb
 1363              		.thumb_func
 1364              		.type	thread10, %function
 1365              	thread10:
 1366              	.LFB239:
 1367              		.loc 6 475 0
 1368              		.cfi_startproc
 1369              		@ args = 0, pretend = 0, frame = 8
 1370              		@ frame_needed = 1, uses_anonymous_args = 0
 1371 0000 80B5     		push	{r7, lr}
 1372              		.cfi_def_cfa_offset 8
 1373              		.cfi_offset 7, -8
 1374              		.cfi_offset 14, -4
 1375 0002 82B0     		sub	sp, sp, #8
 1376              		.cfi_def_cfa_offset 16
 1377 0004 00AF     		add	r7, sp, #0
 1378              		.cfi_def_cfa_register 7
 1379 0006 7860     		str	r0, [r7, #4]
 1380              		.loc 6 477 0
 1381 0008 0848     		ldr	r0, .L71
 1382 000a FFF7FEFF 		bl	chMtxLock
 1383              		.loc 6 478 0
 1384 000e 0848     		ldr	r0, .L71+4
 1385 0010 FFF7FEFF 		bl	chCondWait
 1386              		.loc 6 479 0
 1387 0014 7B68     		ldr	r3, [r7, #4]
 1388 0016 1B78     		ldrb	r3, [r3]	@ zero_extendqisi2
 1389 0018 1846     		mov	r0, r3
 1390 001a FFF7FEFF 		bl	test_emit_token
 1391              		.loc 6 480 0
 1392 001e 0348     		ldr	r0, .L71
 1393 0020 FFF7FEFF 		bl	chMtxUnlock
 1394              		.loc 6 481 0
 1395 0024 0837     		adds	r7, r7, #8
 1396 0026 BD46     		mov	sp, r7
 1397              		@ sp needed
 1398 0028 80BD     		pop	{r7, pc}
 1399              	.L72:
 1400 002a 00BF     		.align	2
ARM GAS  C:\Users\Luis\AppData\Local\Temp\cckNqlc0.s 			page 26


 1401              	.L71:
 1402 002c 00000000 		.word	m1
 1403 0030 00000000 		.word	c1
 1404              		.cfi_endproc
 1405              	.LFE239:
 1406              		.size	thread10, .-thread10
 1407 0034 AFF30080 		.section	.text.mtx6_execute,"ax",%progbits
 1407      AFF30080 
 1407      AFF30080 
 1408              		.align	2
 1409              		.p2align 4,,15
 1410              		.thumb
 1411              		.thumb_func
 1412              		.type	mtx6_execute, %function
 1413              	mtx6_execute:
 1414              	.LFB240:
 1415              		.loc 6 483 0
 1416              		.cfi_startproc
 1417              		@ args = 0, pretend = 0, frame = 8
 1418              		@ frame_needed = 1, uses_anonymous_args = 0
 1419 0000 80B5     		push	{r7, lr}
 1420              		.cfi_def_cfa_offset 8
 1421              		.cfi_offset 7, -8
 1422              		.cfi_offset 14, -4
 1423 0002 84B0     		sub	sp, sp, #16
 1424              		.cfi_def_cfa_offset 24
 1425 0004 02AF     		add	r7, sp, #8
 1426              		.cfi_def_cfa 7, 16
 1427              		.loc 6 485 0
 1428 0006 FFF7FEFF 		bl	chThdGetPriorityX
 1429 000a 7860     		str	r0, [r7, #4]
 1430              		.loc 6 486 0
 1431 000c 384B     		ldr	r3, .L75
 1432 000e 1A68     		ldr	r2, [r3]
 1433 0010 7B68     		ldr	r3, [r7, #4]
 1434 0012 0133     		adds	r3, r3, #1
 1435 0014 3749     		ldr	r1, .L75+4
 1436 0016 0091     		str	r1, [sp]
 1437 0018 1046     		mov	r0, r2
 1438 001a 4FF4B871 		mov	r1, #368
 1439 001e 1A46     		mov	r2, r3
 1440 0020 354B     		ldr	r3, .L75+8
 1441 0022 FFF7FEFF 		bl	chThdCreateStatic
 1442 0026 0246     		mov	r2, r0
 1443 0028 344B     		ldr	r3, .L75+12
 1444 002a 1A60     		str	r2, [r3]
 1445              		.loc 6 487 0
 1446 002c 304B     		ldr	r3, .L75
 1447 002e 5A68     		ldr	r2, [r3, #4]
 1448 0030 7B68     		ldr	r3, [r7, #4]
 1449 0032 0233     		adds	r3, r3, #2
 1450 0034 3249     		ldr	r1, .L75+16
 1451 0036 0091     		str	r1, [sp]
 1452 0038 1046     		mov	r0, r2
 1453 003a 4FF4B871 		mov	r1, #368
 1454 003e 1A46     		mov	r2, r3
 1455 0040 2D4B     		ldr	r3, .L75+8
ARM GAS  C:\Users\Luis\AppData\Local\Temp\cckNqlc0.s 			page 27


 1456 0042 FFF7FEFF 		bl	chThdCreateStatic
 1457 0046 0246     		mov	r2, r0
 1458 0048 2C4B     		ldr	r3, .L75+12
 1459 004a 5A60     		str	r2, [r3, #4]
 1460              		.loc 6 488 0
 1461 004c 284B     		ldr	r3, .L75
 1462 004e 9A68     		ldr	r2, [r3, #8]
 1463 0050 7B68     		ldr	r3, [r7, #4]
 1464 0052 0333     		adds	r3, r3, #3
 1465 0054 2B49     		ldr	r1, .L75+20
 1466 0056 0091     		str	r1, [sp]
 1467 0058 1046     		mov	r0, r2
 1468 005a 4FF4B871 		mov	r1, #368
 1469 005e 1A46     		mov	r2, r3
 1470 0060 254B     		ldr	r3, .L75+8
 1471 0062 FFF7FEFF 		bl	chThdCreateStatic
 1472 0066 0246     		mov	r2, r0
 1473 0068 244B     		ldr	r3, .L75+12
 1474 006a 9A60     		str	r2, [r3, #8]
 1475              		.loc 6 489 0
 1476 006c 204B     		ldr	r3, .L75
 1477 006e DA68     		ldr	r2, [r3, #12]
 1478 0070 7B68     		ldr	r3, [r7, #4]
 1479 0072 0433     		adds	r3, r3, #4
 1480 0074 2449     		ldr	r1, .L75+24
 1481 0076 0091     		str	r1, [sp]
 1482 0078 1046     		mov	r0, r2
 1483 007a 4FF4B871 		mov	r1, #368
 1484 007e 1A46     		mov	r2, r3
 1485 0080 1D4B     		ldr	r3, .L75+8
 1486 0082 FFF7FEFF 		bl	chThdCreateStatic
 1487 0086 0246     		mov	r2, r0
 1488 0088 1C4B     		ldr	r3, .L75+12
 1489 008a DA60     		str	r2, [r3, #12]
 1490              		.loc 6 490 0
 1491 008c 184B     		ldr	r3, .L75
 1492 008e 1A69     		ldr	r2, [r3, #16]
 1493 0090 7B68     		ldr	r3, [r7, #4]
 1494 0092 0533     		adds	r3, r3, #5
 1495 0094 1D49     		ldr	r1, .L75+28
 1496 0096 0091     		str	r1, [sp]
 1497 0098 1046     		mov	r0, r2
 1498 009a 4FF4B871 		mov	r1, #368
 1499 009e 1A46     		mov	r2, r3
 1500 00a0 154B     		ldr	r3, .L75+8
 1501 00a2 FFF7FEFF 		bl	chThdCreateStatic
 1502 00a6 0246     		mov	r2, r0
 1503 00a8 144B     		ldr	r3, .L75+12
 1504 00aa 1A61     		str	r2, [r3, #16]
 1505              		.loc 6 491 0
 1506 00ac FFF7FEFF 		bl	chSysLock
 1507              		.loc 6 492 0
 1508 00b0 1748     		ldr	r0, .L75+32
 1509 00b2 FFF7FEFF 		bl	chCondSignalI
 1510              		.loc 6 493 0
 1511 00b6 1648     		ldr	r0, .L75+32
 1512 00b8 FFF7FEFF 		bl	chCondSignalI
ARM GAS  C:\Users\Luis\AppData\Local\Temp\cckNqlc0.s 			page 28


 1513              		.loc 6 494 0
 1514 00bc 1448     		ldr	r0, .L75+32
 1515 00be FFF7FEFF 		bl	chCondSignalI
 1516              		.loc 6 495 0
 1517 00c2 1348     		ldr	r0, .L75+32
 1518 00c4 FFF7FEFF 		bl	chCondSignalI
 1519              		.loc 6 496 0
 1520 00c8 1148     		ldr	r0, .L75+32
 1521 00ca FFF7FEFF 		bl	chCondSignalI
 1522              		.loc 6 497 0
 1523 00ce FFF7FEFF 		bl	chSchRescheduleS
 1524              		.loc 6 498 0
 1525 00d2 FFF7FEFF 		bl	chSysUnlock
 1526              		.loc 6 499 0
 1527 00d6 FFF7FEFF 		bl	test_wait_threads
 1528              		.loc 6 500 0
 1529 00da 0120     		movs	r0, #1
 1530 00dc 0D49     		ldr	r1, .L75+36
 1531 00de FFF7FEFF 		bl	_test_assert_sequence
 1532 00e2 0346     		mov	r3, r0
 1533 00e4 002B     		cmp	r3, #0
 1534 00e6 00D0     		beq	.L73
 1535              		.loc 6 500 0 is_stmt 0 discriminator 1
 1536 00e8 00BF     		nop
 1537              	.L73:
 1538              		.loc 6 501 0 is_stmt 1
 1539 00ea 0837     		adds	r7, r7, #8
 1540 00ec BD46     		mov	sp, r7
 1541              		@ sp needed
 1542 00ee 80BD     		pop	{r7, pc}
 1543              	.L76:
 1544              		.align	2
 1545              	.L75:
 1546 00f0 00000000 		.word	wa
 1547 00f4 00000000 		.word	.LC0
 1548 00f8 00000000 		.word	thread10
 1549 00fc 00000000 		.word	threads
 1550 0100 04000000 		.word	.LC1
 1551 0104 08000000 		.word	.LC2
 1552 0108 0C000000 		.word	.LC3
 1553 010c 10000000 		.word	.LC4
 1554 0110 00000000 		.word	c1
 1555 0114 14000000 		.word	.LC5
 1556              		.cfi_endproc
 1557              	.LFE240:
 1558              		.size	mtx6_execute, .-mtx6_execute
 1559              		.global	testmtx6
 1560 0118 AFF30080 		.section	.rodata
 1560      AFF30080 
 1561              		.align	2
 1562              	.LC9:
 1563 006c 436F6E64 		.ascii	"CondVar, signal test\000"
 1563      5661722C 
 1563      20736967 
 1563      6E616C20 
 1563      74657374 
 1564              		.section	.rodata.testmtx6,"a",%progbits
ARM GAS  C:\Users\Luis\AppData\Local\Temp\cckNqlc0.s 			page 29


 1565              		.align	2
 1566              		.type	testmtx6, %object
 1567              		.size	testmtx6, 16
 1568              	testmtx6:
 1569 0000 6C000000 		.word	.LC9
 1570 0004 00000000 		.word	mtx6_setup
 1571 0008 00000000 		.word	0
 1572 000c 00000000 		.word	mtx6_execute
 1573              		.section	.text.mtx7_setup,"ax",%progbits
 1574              		.align	2
 1575              		.p2align 4,,15
 1576              		.thumb
 1577              		.thumb_func
 1578              		.type	mtx7_setup, %function
 1579              	mtx7_setup:
 1580              	.LFB241:
 1581              		.loc 6 520 0
 1582              		.cfi_startproc
 1583              		@ args = 0, pretend = 0, frame = 0
 1584              		@ frame_needed = 1, uses_anonymous_args = 0
 1585 0000 80B5     		push	{r7, lr}
 1586              		.cfi_def_cfa_offset 8
 1587              		.cfi_offset 7, -8
 1588              		.cfi_offset 14, -4
 1589 0002 00AF     		add	r7, sp, #0
 1590              		.cfi_def_cfa_register 7
 1591              		.loc 6 522 0
 1592 0004 0348     		ldr	r0, .L78
 1593 0006 FFF7FEFF 		bl	chCondObjectInit
 1594              		.loc 6 523 0
 1595 000a 0348     		ldr	r0, .L78+4
 1596 000c FFF7FEFF 		bl	chMtxObjectInit
 1597              		.loc 6 524 0
 1598 0010 80BD     		pop	{r7, pc}
 1599              	.L79:
 1600 0012 00BF     		.align	2
 1601              	.L78:
 1602 0014 00000000 		.word	c1
 1603 0018 00000000 		.word	m1
 1604              		.cfi_endproc
 1605              	.LFE241:
 1606              		.size	mtx7_setup, .-mtx7_setup
 1607 001c AFF30080 		.section	.text.mtx7_execute,"ax",%progbits
 1608              		.align	2
 1609              		.p2align 4,,15
 1610              		.thumb
 1611              		.thumb_func
 1612              		.type	mtx7_execute, %function
 1613              	mtx7_execute:
 1614              	.LFB242:
 1615              		.loc 6 526 0
 1616              		.cfi_startproc
 1617              		@ args = 0, pretend = 0, frame = 8
 1618              		@ frame_needed = 1, uses_anonymous_args = 0
 1619 0000 80B5     		push	{r7, lr}
 1620              		.cfi_def_cfa_offset 8
 1621              		.cfi_offset 7, -8
ARM GAS  C:\Users\Luis\AppData\Local\Temp\cckNqlc0.s 			page 30


 1622              		.cfi_offset 14, -4
 1623 0002 84B0     		sub	sp, sp, #16
 1624              		.cfi_def_cfa_offset 24
 1625 0004 02AF     		add	r7, sp, #8
 1626              		.cfi_def_cfa 7, 16
 1627              		.loc 6 528 0
 1628 0006 FFF7FEFF 		bl	chThdGetPriorityX
 1629 000a 7860     		str	r0, [r7, #4]
 1630              		.loc 6 529 0
 1631 000c 2F4B     		ldr	r3, .L82
 1632 000e 1A68     		ldr	r2, [r3]
 1633 0010 7B68     		ldr	r3, [r7, #4]
 1634 0012 0133     		adds	r3, r3, #1
 1635 0014 2E49     		ldr	r1, .L82+4
 1636 0016 0091     		str	r1, [sp]
 1637 0018 1046     		mov	r0, r2
 1638 001a 4FF4B871 		mov	r1, #368
 1639 001e 1A46     		mov	r2, r3
 1640 0020 2C4B     		ldr	r3, .L82+8
 1641 0022 FFF7FEFF 		bl	chThdCreateStatic
 1642 0026 0246     		mov	r2, r0
 1643 0028 2B4B     		ldr	r3, .L82+12
 1644 002a 1A60     		str	r2, [r3]
 1645              		.loc 6 530 0
 1646 002c 274B     		ldr	r3, .L82
 1647 002e 5A68     		ldr	r2, [r3, #4]
 1648 0030 7B68     		ldr	r3, [r7, #4]
 1649 0032 0233     		adds	r3, r3, #2
 1650 0034 2949     		ldr	r1, .L82+16
 1651 0036 0091     		str	r1, [sp]
 1652 0038 1046     		mov	r0, r2
 1653 003a 4FF4B871 		mov	r1, #368
 1654 003e 1A46     		mov	r2, r3
 1655 0040 244B     		ldr	r3, .L82+8
 1656 0042 FFF7FEFF 		bl	chThdCreateStatic
 1657 0046 0246     		mov	r2, r0
 1658 0048 234B     		ldr	r3, .L82+12
 1659 004a 5A60     		str	r2, [r3, #4]
 1660              		.loc 6 531 0
 1661 004c 1F4B     		ldr	r3, .L82
 1662 004e 9A68     		ldr	r2, [r3, #8]
 1663 0050 7B68     		ldr	r3, [r7, #4]
 1664 0052 0333     		adds	r3, r3, #3
 1665 0054 2249     		ldr	r1, .L82+20
 1666 0056 0091     		str	r1, [sp]
 1667 0058 1046     		mov	r0, r2
 1668 005a 4FF4B871 		mov	r1, #368
 1669 005e 1A46     		mov	r2, r3
 1670 0060 1C4B     		ldr	r3, .L82+8
 1671 0062 FFF7FEFF 		bl	chThdCreateStatic
 1672 0066 0246     		mov	r2, r0
 1673 0068 1B4B     		ldr	r3, .L82+12
 1674 006a 9A60     		str	r2, [r3, #8]
 1675              		.loc 6 532 0
 1676 006c 174B     		ldr	r3, .L82
 1677 006e DA68     		ldr	r2, [r3, #12]
 1678 0070 7B68     		ldr	r3, [r7, #4]
ARM GAS  C:\Users\Luis\AppData\Local\Temp\cckNqlc0.s 			page 31


 1679 0072 0433     		adds	r3, r3, #4
 1680 0074 1B49     		ldr	r1, .L82+24
 1681 0076 0091     		str	r1, [sp]
 1682 0078 1046     		mov	r0, r2
 1683 007a 4FF4B871 		mov	r1, #368
 1684 007e 1A46     		mov	r2, r3
 1685 0080 144B     		ldr	r3, .L82+8
 1686 0082 FFF7FEFF 		bl	chThdCreateStatic
 1687 0086 0246     		mov	r2, r0
 1688 0088 134B     		ldr	r3, .L82+12
 1689 008a DA60     		str	r2, [r3, #12]
 1690              		.loc 6 533 0
 1691 008c 0F4B     		ldr	r3, .L82
 1692 008e 1A69     		ldr	r2, [r3, #16]
 1693 0090 7B68     		ldr	r3, [r7, #4]
 1694 0092 0533     		adds	r3, r3, #5
 1695 0094 1449     		ldr	r1, .L82+28
 1696 0096 0091     		str	r1, [sp]
 1697 0098 1046     		mov	r0, r2
 1698 009a 4FF4B871 		mov	r1, #368
 1699 009e 1A46     		mov	r2, r3
 1700 00a0 0C4B     		ldr	r3, .L82+8
 1701 00a2 FFF7FEFF 		bl	chThdCreateStatic
 1702 00a6 0246     		mov	r2, r0
 1703 00a8 0B4B     		ldr	r3, .L82+12
 1704 00aa 1A61     		str	r2, [r3, #16]
 1705              		.loc 6 534 0
 1706 00ac 0F48     		ldr	r0, .L82+32
 1707 00ae FFF7FEFF 		bl	chCondBroadcast
 1708              		.loc 6 535 0
 1709 00b2 FFF7FEFF 		bl	test_wait_threads
 1710              		.loc 6 536 0
 1711 00b6 0120     		movs	r0, #1
 1712 00b8 0D49     		ldr	r1, .L82+36
 1713 00ba FFF7FEFF 		bl	_test_assert_sequence
 1714 00be 0346     		mov	r3, r0
 1715 00c0 002B     		cmp	r3, #0
 1716 00c2 00D0     		beq	.L80
 1717              		.loc 6 536 0 is_stmt 0 discriminator 1
 1718 00c4 00BF     		nop
 1719              	.L80:
 1720              		.loc 6 537 0 is_stmt 1
 1721 00c6 0837     		adds	r7, r7, #8
 1722 00c8 BD46     		mov	sp, r7
 1723              		@ sp needed
 1724 00ca 80BD     		pop	{r7, pc}
 1725              	.L83:
 1726              		.align	2
 1727              	.L82:
 1728 00cc 00000000 		.word	wa
 1729 00d0 00000000 		.word	.LC0
 1730 00d4 00000000 		.word	thread10
 1731 00d8 00000000 		.word	threads
 1732 00dc 04000000 		.word	.LC1
 1733 00e0 08000000 		.word	.LC2
 1734 00e4 0C000000 		.word	.LC3
 1735 00e8 10000000 		.word	.LC4
ARM GAS  C:\Users\Luis\AppData\Local\Temp\cckNqlc0.s 			page 32


 1736 00ec 00000000 		.word	c1
 1737 00f0 14000000 		.word	.LC5
 1738              		.cfi_endproc
 1739              	.LFE242:
 1740              		.size	mtx7_execute, .-mtx7_execute
 1741              		.global	testmtx7
 1742 00f4 AFF30080 		.section	.rodata
 1742      AFF30080 
 1742      AFF30080 
 1743 0081 000000   		.align	2
 1744              	.LC10:
 1745 0084 436F6E64 		.ascii	"CondVar, broadcast test\000"
 1745      5661722C 
 1745      2062726F 
 1745      61646361 
 1745      73742074 
 1746              		.section	.rodata.testmtx7,"a",%progbits
 1747              		.align	2
 1748              		.type	testmtx7, %object
 1749              		.size	testmtx7, 16
 1750              	testmtx7:
 1751 0000 84000000 		.word	.LC10
 1752 0004 00000000 		.word	mtx7_setup
 1753 0008 00000000 		.word	0
 1754 000c 00000000 		.word	mtx7_execute
 1755              		.section	.text.mtx8_setup,"ax",%progbits
 1756              		.align	2
 1757              		.p2align 4,,15
 1758              		.thumb
 1759              		.thumb_func
 1760              		.type	mtx8_setup, %function
 1761              	mtx8_setup:
 1762              	.LFB243:
 1763              		.loc 6 555 0
 1764              		.cfi_startproc
 1765              		@ args = 0, pretend = 0, frame = 0
 1766              		@ frame_needed = 1, uses_anonymous_args = 0
 1767 0000 80B5     		push	{r7, lr}
 1768              		.cfi_def_cfa_offset 8
 1769              		.cfi_offset 7, -8
 1770              		.cfi_offset 14, -4
 1771 0002 00AF     		add	r7, sp, #0
 1772              		.cfi_def_cfa_register 7
 1773              		.loc 6 557 0
 1774 0004 0448     		ldr	r0, .L85
 1775 0006 FFF7FEFF 		bl	chCondObjectInit
 1776              		.loc 6 558 0
 1777 000a 0448     		ldr	r0, .L85+4
 1778 000c FFF7FEFF 		bl	chMtxObjectInit
 1779              		.loc 6 559 0
 1780 0010 0348     		ldr	r0, .L85+8
 1781 0012 FFF7FEFF 		bl	chMtxObjectInit
 1782              		.loc 6 560 0
 1783 0016 80BD     		pop	{r7, pc}
 1784              	.L86:
 1785              		.align	2
 1786              	.L85:
ARM GAS  C:\Users\Luis\AppData\Local\Temp\cckNqlc0.s 			page 33


 1787 0018 00000000 		.word	c1
 1788 001c 00000000 		.word	m1
 1789 0020 00000000 		.word	m2
 1790              		.cfi_endproc
 1791              	.LFE243:
 1792              		.size	mtx8_setup, .-mtx8_setup
 1793 0024 AFF30080 		.section	.text.thread11,"ax",%progbits
 1793      AFF30080 
 1793      AFF30080 
 1794              		.align	2
 1795              		.p2align 4,,15
 1796              		.thumb
 1797              		.thumb_func
 1798              		.type	thread11, %function
 1799              	thread11:
 1800              	.LFB244:
 1801              		.loc 6 562 0
 1802              		.cfi_startproc
 1803              		@ args = 0, pretend = 0, frame = 8
 1804              		@ frame_needed = 1, uses_anonymous_args = 0
 1805 0000 80B5     		push	{r7, lr}
 1806              		.cfi_def_cfa_offset 8
 1807              		.cfi_offset 7, -8
 1808              		.cfi_offset 14, -4
 1809 0002 82B0     		sub	sp, sp, #8
 1810              		.cfi_def_cfa_offset 16
 1811 0004 00AF     		add	r7, sp, #0
 1812              		.cfi_def_cfa_register 7
 1813 0006 7860     		str	r0, [r7, #4]
 1814              		.loc 6 564 0
 1815 0008 0C48     		ldr	r0, .L88
 1816 000a FFF7FEFF 		bl	chMtxLock
 1817              		.loc 6 565 0
 1818 000e 0C48     		ldr	r0, .L88+4
 1819 0010 FFF7FEFF 		bl	chMtxLock
 1820              		.loc 6 567 0
 1821 0014 0B48     		ldr	r0, .L88+8
 1822 0016 4FF0FF31 		mov	r1, #-1
 1823 001a FFF7FEFF 		bl	chCondWaitTimeout
 1824              		.loc 6 571 0
 1825 001e 7B68     		ldr	r3, [r7, #4]
 1826 0020 1B78     		ldrb	r3, [r3]	@ zero_extendqisi2
 1827 0022 1846     		mov	r0, r3
 1828 0024 FFF7FEFF 		bl	test_emit_token
 1829              		.loc 6 572 0
 1830 0028 0548     		ldr	r0, .L88+4
 1831 002a FFF7FEFF 		bl	chMtxUnlock
 1832              		.loc 6 573 0
 1833 002e 0348     		ldr	r0, .L88
 1834 0030 FFF7FEFF 		bl	chMtxUnlock
 1835              		.loc 6 574 0
 1836 0034 0837     		adds	r7, r7, #8
 1837 0036 BD46     		mov	sp, r7
 1838              		@ sp needed
 1839 0038 80BD     		pop	{r7, pc}
 1840              	.L89:
 1841 003a 00BF     		.align	2
ARM GAS  C:\Users\Luis\AppData\Local\Temp\cckNqlc0.s 			page 34


 1842              	.L88:
 1843 003c 00000000 		.word	m2
 1844 0040 00000000 		.word	m1
 1845 0044 00000000 		.word	c1
 1846              		.cfi_endproc
 1847              	.LFE244:
 1848              		.size	thread11, .-thread11
 1849 0048 AFF30080 		.section	.text.thread12,"ax",%progbits
 1849      AFF30080 
 1850              		.align	2
 1851              		.p2align 4,,15
 1852              		.thumb
 1853              		.thumb_func
 1854              		.type	thread12, %function
 1855              	thread12:
 1856              	.LFB245:
 1857              		.loc 6 576 0
 1858              		.cfi_startproc
 1859              		@ args = 0, pretend = 0, frame = 8
 1860              		@ frame_needed = 1, uses_anonymous_args = 0
 1861 0000 80B5     		push	{r7, lr}
 1862              		.cfi_def_cfa_offset 8
 1863              		.cfi_offset 7, -8
 1864              		.cfi_offset 14, -4
 1865 0002 82B0     		sub	sp, sp, #8
 1866              		.cfi_def_cfa_offset 16
 1867 0004 00AF     		add	r7, sp, #0
 1868              		.cfi_def_cfa_register 7
 1869 0006 7860     		str	r0, [r7, #4]
 1870              		.loc 6 578 0
 1871 0008 0648     		ldr	r0, .L91
 1872 000a FFF7FEFF 		bl	chMtxLock
 1873              		.loc 6 579 0
 1874 000e 7B68     		ldr	r3, [r7, #4]
 1875 0010 1B78     		ldrb	r3, [r3]	@ zero_extendqisi2
 1876 0012 1846     		mov	r0, r3
 1877 0014 FFF7FEFF 		bl	test_emit_token
 1878              		.loc 6 580 0
 1879 0018 0248     		ldr	r0, .L91
 1880 001a FFF7FEFF 		bl	chMtxUnlock
 1881              		.loc 6 581 0
 1882 001e 0837     		adds	r7, r7, #8
 1883 0020 BD46     		mov	sp, r7
 1884              		@ sp needed
 1885 0022 80BD     		pop	{r7, pc}
 1886              	.L92:
 1887              		.align	2
 1888              	.L91:
 1889 0024 00000000 		.word	m2
 1890              		.cfi_endproc
 1891              	.LFE245:
 1892              		.size	thread12, .-thread12
 1893 0028 AFF30080 		.section	.rodata
 1893      AFF30080 
 1894              		.align	2
 1895              	.LC11:
 1896 009c 41424300 		.ascii	"ABC\000"
ARM GAS  C:\Users\Luis\AppData\Local\Temp\cckNqlc0.s 			page 35


 1897              		.section	.text.mtx8_execute,"ax",%progbits
 1898              		.align	2
 1899              		.p2align 4,,15
 1900              		.thumb
 1901              		.thumb_func
 1902              		.type	mtx8_execute, %function
 1903              	mtx8_execute:
 1904              	.LFB246:
 1905              		.loc 6 583 0
 1906              		.cfi_startproc
 1907              		@ args = 0, pretend = 0, frame = 8
 1908              		@ frame_needed = 1, uses_anonymous_args = 0
 1909 0000 80B5     		push	{r7, lr}
 1910              		.cfi_def_cfa_offset 8
 1911              		.cfi_offset 7, -8
 1912              		.cfi_offset 14, -4
 1913 0002 84B0     		sub	sp, sp, #16
 1914              		.cfi_def_cfa_offset 24
 1915 0004 02AF     		add	r7, sp, #8
 1916              		.cfi_def_cfa 7, 16
 1917              		.loc 6 585 0
 1918 0006 FFF7FEFF 		bl	chThdGetPriorityX
 1919 000a 7860     		str	r0, [r7, #4]
 1920              		.loc 6 586 0
 1921 000c 214B     		ldr	r3, .L95
 1922 000e 1A68     		ldr	r2, [r3]
 1923 0010 7B68     		ldr	r3, [r7, #4]
 1924 0012 0133     		adds	r3, r3, #1
 1925 0014 2049     		ldr	r1, .L95+4
 1926 0016 0091     		str	r1, [sp]
 1927 0018 1046     		mov	r0, r2
 1928 001a 4FF4B871 		mov	r1, #368
 1929 001e 1A46     		mov	r2, r3
 1930 0020 1E4B     		ldr	r3, .L95+8
 1931 0022 FFF7FEFF 		bl	chThdCreateStatic
 1932 0026 0246     		mov	r2, r0
 1933 0028 1D4B     		ldr	r3, .L95+12
 1934 002a 1A60     		str	r2, [r3]
 1935              		.loc 6 587 0
 1936 002c 194B     		ldr	r3, .L95
 1937 002e 5A68     		ldr	r2, [r3, #4]
 1938 0030 7B68     		ldr	r3, [r7, #4]
 1939 0032 0233     		adds	r3, r3, #2
 1940 0034 1B49     		ldr	r1, .L95+16
 1941 0036 0091     		str	r1, [sp]
 1942 0038 1046     		mov	r0, r2
 1943 003a 4FF4B871 		mov	r1, #368
 1944 003e 1A46     		mov	r2, r3
 1945 0040 194B     		ldr	r3, .L95+20
 1946 0042 FFF7FEFF 		bl	chThdCreateStatic
 1947 0046 0246     		mov	r2, r0
 1948 0048 154B     		ldr	r3, .L95+12
 1949 004a 5A60     		str	r2, [r3, #4]
 1950              		.loc 6 588 0
 1951 004c 114B     		ldr	r3, .L95
 1952 004e 9A68     		ldr	r2, [r3, #8]
 1953 0050 7B68     		ldr	r3, [r7, #4]
ARM GAS  C:\Users\Luis\AppData\Local\Temp\cckNqlc0.s 			page 36


 1954 0052 0333     		adds	r3, r3, #3
 1955 0054 1549     		ldr	r1, .L95+24
 1956 0056 0091     		str	r1, [sp]
 1957 0058 1046     		mov	r0, r2
 1958 005a 4FF4B871 		mov	r1, #368
 1959 005e 1A46     		mov	r2, r3
 1960 0060 134B     		ldr	r3, .L95+28
 1961 0062 FFF7FEFF 		bl	chThdCreateStatic
 1962 0066 0246     		mov	r2, r0
 1963 0068 0D4B     		ldr	r3, .L95+12
 1964 006a 9A60     		str	r2, [r3, #8]
 1965              		.loc 6 589 0
 1966 006c 1148     		ldr	r0, .L95+32
 1967 006e FFF7FEFF 		bl	chCondSignal
 1968              		.loc 6 590 0
 1969 0072 1048     		ldr	r0, .L95+32
 1970 0074 FFF7FEFF 		bl	chCondSignal
 1971              		.loc 6 591 0
 1972 0078 FFF7FEFF 		bl	test_wait_threads
 1973              		.loc 6 592 0
 1974 007c 0120     		movs	r0, #1
 1975 007e 0E49     		ldr	r1, .L95+36
 1976 0080 FFF7FEFF 		bl	_test_assert_sequence
 1977 0084 0346     		mov	r3, r0
 1978 0086 002B     		cmp	r3, #0
 1979 0088 00D0     		beq	.L93
 1980              		.loc 6 592 0 is_stmt 0 discriminator 1
 1981 008a 00BF     		nop
 1982              	.L93:
 1983              		.loc 6 593 0 is_stmt 1
 1984 008c 0837     		adds	r7, r7, #8
 1985 008e BD46     		mov	sp, r7
 1986              		@ sp needed
 1987 0090 80BD     		pop	{r7, pc}
 1988              	.L96:
 1989 0092 00BF     		.align	2
 1990              	.L95:
 1991 0094 00000000 		.word	wa
 1992 0098 10000000 		.word	.LC4
 1993 009c 00000000 		.word	thread11
 1994 00a0 00000000 		.word	threads
 1995 00a4 08000000 		.word	.LC2
 1996 00a8 00000000 		.word	thread10
 1997 00ac 0C000000 		.word	.LC3
 1998 00b0 00000000 		.word	thread12
 1999 00b4 00000000 		.word	c1
 2000 00b8 9C000000 		.word	.LC11
 2001              		.cfi_endproc
 2002              	.LFE246:
 2003              		.size	mtx8_execute, .-mtx8_execute
 2004              		.global	testmtx8
 2005 00bc AFF30080 		.section	.rodata
 2006              		.align	2
 2007              	.LC12:
 2008 00a0 436F6E64 		.ascii	"CondVar, boost test\000"
 2008      5661722C 
 2008      20626F6F 
ARM GAS  C:\Users\Luis\AppData\Local\Temp\cckNqlc0.s 			page 37


 2008      73742074 
 2008      65737400 
 2009              		.section	.rodata.testmtx8,"a",%progbits
 2010              		.align	2
 2011              		.type	testmtx8, %object
 2012              		.size	testmtx8, 16
 2013              	testmtx8:
 2014 0000 A0000000 		.word	.LC12
 2015 0004 00000000 		.word	mtx8_setup
 2016 0008 00000000 		.word	0
 2017 000c 00000000 		.word	mtx8_execute
 2018              		.global	patternmtx
 2019              		.section	.rodata.patternmtx,"a",%progbits
 2020              		.align	2
 2021              		.type	patternmtx, %object
 2022              		.size	patternmtx, 28
 2023              	patternmtx:
 2024 0000 00000000 		.word	testmtx1
 2025 0004 00000000 		.word	testmtx4
 2026 0008 00000000 		.word	testmtx5
 2027 000c 00000000 		.word	testmtx6
 2028 0010 00000000 		.word	testmtx7
 2029 0014 00000000 		.word	testmtx8
 2030 0018 00000000 		.word	0
 2031              		.section	.rodata.__func__.5842,"a",%progbits
 2032              		.align	2
 2033              		.type	__func__.5842, %object
 2034              		.size	__func__.5842, 12
 2035              	__func__.5842:
 2036 0000 63685379 		.ascii	"chSysUnlock\000"
 2036      73556E6C 
 2036      6F636B00 
 2037              		.text
 2038              	.Letext0:
 2039              		.file 7 "c:\\emtechesdk\\gcc\\lib\\gcc\\arm-none-eabi\\4.8.3\\include\\stddef.h"
 2040              		.file 8 "c:\\emtechesdk\\gcc\\arm-none-eabi\\include\\stdint.h"
 2041              		.file 9 "../../ChibiOS/os/rt/ports/ARMCMx/compilers/GCC/chtypes.h"
 2042              		.file 10 "../../ChibiOS/os/rt/include/chsystypes.h"
 2043              		.file 11 "../../ChibiOS/os/rt/ports/ARMCMx/chcore.h"
 2044              		.file 12 "../../ChibiOS/os/rt/include/chdebug.h"
 2045              		.file 13 "../../ChibiOS/os/rt/include/chtm.h"
 2046              		.file 14 "../../ChibiOS/os/rt/include/chstats.h"
 2047              		.file 15 "../../ChibiOS/os/rt/include/chsem.h"
 2048              		.file 16 "../../ChibiOS/os/rt/include/chmtx.h"
 2049              		.file 17 "../../ChibiOS/os/rt/include/chcond.h"
 2050              		.file 18 "../../ChibiOS/test/rt/test.h"
 2051              		.file 19 "../../ChibiOS/os/ext/CMSIS/include/core_cm4.h"
 2052              		.section	.debug_info,"",%progbits
 2053              	.Ldebug_info0:
 2054 0000 8F0C0000 		.4byte	0xc8f
 2055 0004 0400     		.2byte	0x4
 2056 0006 00000000 		.4byte	.Ldebug_abbrev0
 2057 000a 04       		.byte	0x4
 2058 000b 01       		.uleb128 0x1
 2059 000c 09060000 		.4byte	.LASF169
 2060 0010 01       		.byte	0x1
 2061 0011 7A020000 		.4byte	.LASF170
ARM GAS  C:\Users\Luis\AppData\Local\Temp\cckNqlc0.s 			page 38


 2062 0015 E3030000 		.4byte	.LASF171
 2063 0019 00000000 		.4byte	.Ldebug_ranges0+0
 2064 001d 00000000 		.4byte	0
 2065 0021 00000000 		.4byte	.Ldebug_line0
 2066 0025 02       		.uleb128 0x2
 2067 0026 04       		.byte	0x4
 2068 0027 05       		.byte	0x5
 2069 0028 696E7400 		.ascii	"int\000"
 2070 002c 03       		.uleb128 0x3
 2071 002d 1C000000 		.4byte	.LASF2
 2072 0031 07       		.byte	0x7
 2073 0032 D4       		.byte	0xd4
 2074 0033 37000000 		.4byte	0x37
 2075 0037 04       		.uleb128 0x4
 2076 0038 04       		.byte	0x4
 2077 0039 07       		.byte	0x7
 2078 003a 3D020000 		.4byte	.LASF0
 2079 003e 04       		.uleb128 0x4
 2080 003f 01       		.byte	0x1
 2081 0040 06       		.byte	0x6
 2082 0041 33010000 		.4byte	.LASF1
 2083 0045 03       		.uleb128 0x3
 2084 0046 95070000 		.4byte	.LASF3
 2085 004a 08       		.byte	0x8
 2086 004b 2A       		.byte	0x2a
 2087 004c 50000000 		.4byte	0x50
 2088 0050 04       		.uleb128 0x4
 2089 0051 01       		.byte	0x1
 2090 0052 08       		.byte	0x8
 2091 0053 CC040000 		.4byte	.LASF4
 2092 0057 04       		.uleb128 0x4
 2093 0058 02       		.byte	0x2
 2094 0059 05       		.byte	0x5
 2095 005a F7040000 		.4byte	.LASF5
 2096 005e 04       		.uleb128 0x4
 2097 005f 02       		.byte	0x2
 2098 0060 07       		.byte	0x7
 2099 0061 A5020000 		.4byte	.LASF6
 2100 0065 03       		.uleb128 0x3
 2101 0066 C4040000 		.4byte	.LASF7
 2102 006a 08       		.byte	0x8
 2103 006b 4F       		.byte	0x4f
 2104 006c 70000000 		.4byte	0x70
 2105 0070 04       		.uleb128 0x4
 2106 0071 04       		.byte	0x4
 2107 0072 05       		.byte	0x5
 2108 0073 94010000 		.4byte	.LASF8
 2109 0077 03       		.uleb128 0x3
 2110 0078 7F050000 		.4byte	.LASF9
 2111 007c 08       		.byte	0x8
 2112 007d 50       		.byte	0x50
 2113 007e 82000000 		.4byte	0x82
 2114 0082 04       		.uleb128 0x4
 2115 0083 04       		.byte	0x4
 2116 0084 07       		.byte	0x7
 2117 0085 DD050000 		.4byte	.LASF10
 2118 0089 04       		.uleb128 0x4
ARM GAS  C:\Users\Luis\AppData\Local\Temp\cckNqlc0.s 			page 39


 2119 008a 08       		.byte	0x8
 2120 008b 05       		.byte	0x5
 2121 008c 25010000 		.4byte	.LASF11
 2122 0090 03       		.uleb128 0x3
 2123 0091 2A000000 		.4byte	.LASF12
 2124 0095 08       		.byte	0x8
 2125 0096 78       		.byte	0x78
 2126 0097 9B000000 		.4byte	0x9b
 2127 009b 04       		.uleb128 0x4
 2128 009c 08       		.byte	0x8
 2129 009d 07       		.byte	0x7
 2130 009e 94000000 		.4byte	.LASF13
 2131 00a2 05       		.uleb128 0x5
 2132 00a3 65000000 		.4byte	0x65
 2133 00a7 03       		.uleb128 0x3
 2134 00a8 38070000 		.4byte	.LASF14
 2135 00ac 09       		.byte	0x9
 2136 00ad 45       		.byte	0x45
 2137 00ae 77000000 		.4byte	0x77
 2138 00b2 03       		.uleb128 0x3
 2139 00b3 15010000 		.4byte	.LASF15
 2140 00b7 09       		.byte	0x9
 2141 00b8 46       		.byte	0x46
 2142 00b9 90000000 		.4byte	0x90
 2143 00bd 03       		.uleb128 0x3
 2144 00be EF020000 		.4byte	.LASF16
 2145 00c2 09       		.byte	0x9
 2146 00c3 48       		.byte	0x48
 2147 00c4 45000000 		.4byte	0x45
 2148 00c8 03       		.uleb128 0x3
 2149 00c9 9D010000 		.4byte	.LASF17
 2150 00cd 09       		.byte	0x9
 2151 00ce 49       		.byte	0x49
 2152 00cf 45000000 		.4byte	0x45
 2153 00d3 03       		.uleb128 0x3
 2154 00d4 7C040000 		.4byte	.LASF18
 2155 00d8 09       		.byte	0x9
 2156 00d9 4A       		.byte	0x4a
 2157 00da 45000000 		.4byte	0x45
 2158 00de 03       		.uleb128 0x3
 2159 00df AD040000 		.4byte	.LASF19
 2160 00e3 09       		.byte	0x9
 2161 00e4 4C       		.byte	0x4c
 2162 00e5 77000000 		.4byte	0x77
 2163 00e9 03       		.uleb128 0x3
 2164 00ea D1020000 		.4byte	.LASF20
 2165 00ee 09       		.byte	0x9
 2166 00ef 4D       		.byte	0x4d
 2167 00f0 65000000 		.4byte	0x65
 2168 00f4 03       		.uleb128 0x3
 2169 00f5 10030000 		.4byte	.LASF21
 2170 00f9 09       		.byte	0x9
 2171 00fa 4F       		.byte	0x4f
 2172 00fb 77000000 		.4byte	0x77
 2173 00ff 03       		.uleb128 0x3
 2174 0100 2C020000 		.4byte	.LASF22
 2175 0104 09       		.byte	0x9
ARM GAS  C:\Users\Luis\AppData\Local\Temp\cckNqlc0.s 			page 40


 2176 0105 51       		.byte	0x51
 2177 0106 65000000 		.4byte	0x65
 2178 010a 03       		.uleb128 0x3
 2179 010b DC020000 		.4byte	.LASF23
 2180 010f 09       		.byte	0x9
 2181 0110 52       		.byte	0x52
 2182 0111 77000000 		.4byte	0x77
 2183 0115 03       		.uleb128 0x3
 2184 0116 E7060000 		.4byte	.LASF24
 2185 011a 0A       		.byte	0xa
 2186 011b 33       		.byte	0x33
 2187 011c 77000000 		.4byte	0x77
 2188 0120 03       		.uleb128 0x3
 2189 0121 78070000 		.4byte	.LASF25
 2190 0125 0A       		.byte	0xa
 2191 0126 3F       		.byte	0x3f
 2192 0127 2B010000 		.4byte	0x12b
 2193 012b 06       		.uleb128 0x6
 2194 012c C7020000 		.4byte	.LASF48
 2195 0130 68       		.byte	0x68
 2196 0131 03       		.byte	0x3
 2197 0132 C2       		.byte	0xc2
 2198 0133 3E020000 		.4byte	0x23e
 2199 0137 07       		.uleb128 0x7
 2200 0138 17050000 		.4byte	.LASF26
 2201 013c 03       		.byte	0x3
 2202 013d C3       		.byte	0xc3
 2203 013e 49020000 		.4byte	0x249
 2204 0142 00       		.byte	0
 2205 0143 07       		.uleb128 0x7
 2206 0144 9E040000 		.4byte	.LASF27
 2207 0148 03       		.byte	0x3
 2208 0149 C5       		.byte	0xc5
 2209 014a 49020000 		.4byte	0x249
 2210 014e 04       		.byte	0x4
 2211 014f 07       		.uleb128 0x7
 2212 0150 1E010000 		.4byte	.LASF28
 2213 0154 03       		.byte	0x3
 2214 0155 C7       		.byte	0xc7
 2215 0156 DE000000 		.4byte	0xde
 2216 015a 08       		.byte	0x8
 2217 015b 07       		.uleb128 0x7
 2218 015c 0B080000 		.4byte	.LASF29
 2219 0160 03       		.byte	0x3
 2220 0161 C8       		.byte	0xc8
 2221 0162 B2040000 		.4byte	0x4b2
 2222 0166 0C       		.byte	0xc
 2223 0167 07       		.uleb128 0x7
 2224 0168 B7010000 		.4byte	.LASF30
 2225 016c 03       		.byte	0x3
 2226 016d CA       		.byte	0xca
 2227 016e 49020000 		.4byte	0x249
 2228 0172 10       		.byte	0x10
 2229 0173 07       		.uleb128 0x7
 2230 0174 B0030000 		.4byte	.LASF31
 2231 0178 03       		.byte	0x3
 2232 0179 CB       		.byte	0xcb
ARM GAS  C:\Users\Luis\AppData\Local\Temp\cckNqlc0.s 			page 41


 2233 017a 49020000 		.4byte	0x249
 2234 017e 14       		.byte	0x14
 2235 017f 07       		.uleb128 0x7
 2236 0180 B9070000 		.4byte	.LASF32
 2237 0184 03       		.byte	0x3
 2238 0185 D2       		.byte	0xd2
 2239 0186 56070000 		.4byte	0x756
 2240 018a 18       		.byte	0x18
 2241 018b 07       		.uleb128 0x7
 2242 018c 32020000 		.4byte	.LASF33
 2243 0190 03       		.byte	0x3
 2244 0191 D8       		.byte	0xd8
 2245 0192 68070000 		.4byte	0x768
 2246 0196 1C       		.byte	0x1c
 2247 0197 07       		.uleb128 0x7
 2248 0198 54010000 		.4byte	.LASF34
 2249 019c 03       		.byte	0x3
 2250 019d DD       		.byte	0xdd
 2251 019e C8000000 		.4byte	0xc8
 2252 01a2 20       		.byte	0x20
 2253 01a3 07       		.uleb128 0x7
 2254 01a4 1E050000 		.4byte	.LASF35
 2255 01a8 03       		.byte	0x3
 2256 01a9 E1       		.byte	0xe1
 2257 01aa BD000000 		.4byte	0xbd
 2258 01ae 21       		.byte	0x21
 2259 01af 07       		.uleb128 0x7
 2260 01b0 69070000 		.4byte	.LASF36
 2261 01b4 03       		.byte	0x3
 2262 01b5 E6       		.byte	0xe6
 2263 01b6 D3000000 		.4byte	0xd3
 2264 01ba 22       		.byte	0x22
 2265 01bb 08       		.uleb128 0x8
 2266 01bc 705F7500 		.ascii	"p_u\000"
 2267 01c0 03       		.byte	0x3
 2268 01c1 3101     		.2byte	0x131
 2269 01c3 91060000 		.4byte	0x691
 2270 01c7 24       		.byte	0x24
 2271 01c8 09       		.uleb128 0x9
 2272 01c9 27030000 		.4byte	.LASF37
 2273 01cd 03       		.byte	0x3
 2274 01ce 3601     		.2byte	0x136
 2275 01d0 4F020000 		.4byte	0x24f
 2276 01d4 28       		.byte	0x28
 2277 01d5 09       		.uleb128 0x9
 2278 01d6 59020000 		.4byte	.LASF38
 2279 01da 03       		.byte	0x3
 2280 01db 3C01     		.2byte	0x13c
 2281 01dd 73020000 		.4byte	0x273
 2282 01e1 2C       		.byte	0x2c
 2283 01e2 09       		.uleb128 0x9
 2284 01e3 E8070000 		.4byte	.LASF39
 2285 01e7 03       		.byte	0x3
 2286 01e8 4001     		.2byte	0x140
 2287 01ea E9000000 		.4byte	0xe9
 2288 01ee 34       		.byte	0x34
 2289 01ef 09       		.uleb128 0x9
ARM GAS  C:\Users\Luis\AppData\Local\Temp\cckNqlc0.s 			page 42


 2290 01f0 74050000 		.4byte	.LASF40
 2291 01f4 03       		.byte	0x3
 2292 01f5 4601     		.2byte	0x146
 2293 01f7 F4000000 		.4byte	0xf4
 2294 01fb 38       		.byte	0x38
 2295 01fc 09       		.uleb128 0x9
 2296 01fd ED040000 		.4byte	.LASF41
 2297 0201 03       		.byte	0x3
 2298 0202 4D01     		.2byte	0x14d
 2299 0204 50070000 		.4byte	0x750
 2300 0208 3C       		.byte	0x3c
 2301 0209 09       		.uleb128 0x9
 2302 020a F1060000 		.4byte	.LASF42
 2303 020e 03       		.byte	0x3
 2304 020f 5101     		.2byte	0x151
 2305 0211 DE000000 		.4byte	0xde
 2306 0215 40       		.byte	0x40
 2307 0216 09       		.uleb128 0x9
 2308 0217 5C010000 		.4byte	.LASF43
 2309 021b 03       		.byte	0x3
 2310 021c 5801     		.2byte	0x158
 2311 021e 26030000 		.4byte	0x326
 2312 0222 44       		.byte	0x44
 2313 0223 09       		.uleb128 0x9
 2314 0224 2F050000 		.4byte	.LASF44
 2315 0228 03       		.byte	0x3
 2316 0229 5E01     		.2byte	0x15e
 2317 022b 42060000 		.4byte	0x642
 2318 022f 48       		.byte	0x48
 2319 0230 09       		.uleb128 0x9
 2320 0231 6D020000 		.4byte	.LASF45
 2321 0235 03       		.byte	0x3
 2322 0236 6201     		.2byte	0x162
 2323 0238 26030000 		.4byte	0x326
 2324 023c 60       		.byte	0x60
 2325 023d 00       		.byte	0
 2326 023e 03       		.uleb128 0x3
 2327 023f 3A030000 		.4byte	.LASF46
 2328 0243 0A       		.byte	0xa
 2329 0244 44       		.byte	0x44
 2330 0245 49020000 		.4byte	0x249
 2331 0249 0A       		.uleb128 0xa
 2332 024a 04       		.byte	0x4
 2333 024b 20010000 		.4byte	0x120
 2334 024f 03       		.uleb128 0x3
 2335 0250 C0070000 		.4byte	.LASF47
 2336 0254 0A       		.byte	0xa
 2337 0255 49       		.byte	0x49
 2338 0256 5A020000 		.4byte	0x25a
 2339 025a 06       		.uleb128 0x6
 2340 025b A0050000 		.4byte	.LASF49
 2341 025f 04       		.byte	0x4
 2342 0260 03       		.byte	0x3
 2343 0261 B0       		.byte	0xb0
 2344 0262 73020000 		.4byte	0x273
 2345 0266 07       		.uleb128 0x7
 2346 0267 17050000 		.4byte	.LASF26
ARM GAS  C:\Users\Luis\AppData\Local\Temp\cckNqlc0.s 			page 43


 2347 026b 03       		.byte	0x3
 2348 026c B1       		.byte	0xb1
 2349 026d 49020000 		.4byte	0x249
 2350 0271 00       		.byte	0
 2351 0272 00       		.byte	0
 2352 0273 03       		.uleb128 0x3
 2353 0274 50070000 		.4byte	.LASF50
 2354 0278 0A       		.byte	0xa
 2355 0279 50       		.byte	0x50
 2356 027a 7E020000 		.4byte	0x27e
 2357 027e 06       		.uleb128 0x6
 2358 027f 3F000000 		.4byte	.LASF51
 2359 0283 08       		.byte	0x8
 2360 0284 03       		.byte	0x3
 2361 0285 B7       		.byte	0xb7
 2362 0286 A3020000 		.4byte	0x2a3
 2363 028a 07       		.uleb128 0x7
 2364 028b 17050000 		.4byte	.LASF26
 2365 028f 03       		.byte	0x3
 2366 0290 B8       		.byte	0xb8
 2367 0291 49020000 		.4byte	0x249
 2368 0295 00       		.byte	0
 2369 0296 07       		.uleb128 0x7
 2370 0297 9E040000 		.4byte	.LASF27
 2371 029b 03       		.byte	0x3
 2372 029c B9       		.byte	0xb9
 2373 029d 49020000 		.4byte	0x249
 2374 02a1 04       		.byte	0x4
 2375 02a2 00       		.byte	0
 2376 02a3 03       		.uleb128 0x3
 2377 02a4 07000000 		.4byte	.LASF52
 2378 02a8 0A       		.byte	0xa
 2379 02a9 57       		.byte	0x57
 2380 02aa AE020000 		.4byte	0x2ae
 2381 02ae 0B       		.uleb128 0xb
 2382 02af 02030000 		.4byte	.LASF53
 2383 02b3 1C       		.byte	0x1c
 2384 02b4 03       		.byte	0x3
 2385 02b5 9001     		.2byte	0x190
 2386 02b7 0A030000 		.4byte	0x30a
 2387 02bb 09       		.uleb128 0x9
 2388 02bc 8F050000 		.4byte	.LASF54
 2389 02c0 03       		.byte	0x3
 2390 02c1 9101     		.2byte	0x191
 2391 02c3 73020000 		.4byte	0x273
 2392 02c7 00       		.byte	0
 2393 02c8 09       		.uleb128 0x9
 2394 02c9 09050000 		.4byte	.LASF55
 2395 02cd 03       		.byte	0x3
 2396 02ce 9201     		.2byte	0x192
 2397 02d0 DE000000 		.4byte	0xde
 2398 02d4 08       		.byte	0x8
 2399 02d5 09       		.uleb128 0x9
 2400 02d6 C0030000 		.4byte	.LASF56
 2401 02da 03       		.byte	0x3
 2402 02db 9401     		.2byte	0x194
 2403 02dd B2040000 		.4byte	0x4b2
ARM GAS  C:\Users\Luis\AppData\Local\Temp\cckNqlc0.s 			page 44


 2404 02e1 0C       		.byte	0xc
 2405 02e2 09       		.uleb128 0x9
 2406 02e3 DD010000 		.4byte	.LASF57
 2407 02e7 03       		.byte	0x3
 2408 02e8 9701     		.2byte	0x197
 2409 02ea 49020000 		.4byte	0x249
 2410 02ee 10       		.byte	0x10
 2411 02ef 09       		.uleb128 0x9
 2412 02f0 30040000 		.4byte	.LASF58
 2413 02f4 03       		.byte	0x3
 2414 02f5 9801     		.2byte	0x198
 2415 02f7 49020000 		.4byte	0x249
 2416 02fb 14       		.byte	0x14
 2417 02fc 09       		.uleb128 0x9
 2418 02fd EF050000 		.4byte	.LASF59
 2419 0301 03       		.byte	0x3
 2420 0302 9B01     		.2byte	0x19b
 2421 0304 49020000 		.4byte	0x249
 2422 0308 18       		.byte	0x18
 2423 0309 00       		.byte	0
 2424 030a 03       		.uleb128 0x3
 2425 030b FC060000 		.4byte	.LASF60
 2426 030f 0A       		.byte	0xa
 2427 0310 5C       		.byte	0x5c
 2428 0311 15030000 		.4byte	0x315
 2429 0315 0A       		.uleb128 0xa
 2430 0316 04       		.byte	0x4
 2431 0317 1B030000 		.4byte	0x31b
 2432 031b 0C       		.uleb128 0xc
 2433 031c 26030000 		.4byte	0x326
 2434 0320 0D       		.uleb128 0xd
 2435 0321 26030000 		.4byte	0x326
 2436 0325 00       		.byte	0
 2437 0326 0E       		.uleb128 0xe
 2438 0327 04       		.byte	0x4
 2439 0328 03       		.uleb128 0x3
 2440 0329 8E040000 		.4byte	.LASF61
 2441 032d 0A       		.byte	0xa
 2442 032e 61       		.byte	0x61
 2443 032f 33030000 		.4byte	0x333
 2444 0333 0B       		.uleb128 0xb
 2445 0334 41050000 		.4byte	.LASF62
 2446 0338 14       		.byte	0x14
 2447 0339 03       		.byte	0x3
 2448 033a 6B01     		.2byte	0x16b
 2449 033c 82030000 		.4byte	0x382
 2450 0340 09       		.uleb128 0x9
 2451 0341 4A020000 		.4byte	.LASF63
 2452 0345 03       		.byte	0x3
 2453 0346 6C01     		.2byte	0x16c
 2454 0348 6E070000 		.4byte	0x76e
 2455 034c 00       		.byte	0
 2456 034d 09       		.uleb128 0x9
 2457 034e EE010000 		.4byte	.LASF64
 2458 0352 03       		.byte	0x3
 2459 0353 6D01     		.2byte	0x16d
 2460 0355 6E070000 		.4byte	0x76e
ARM GAS  C:\Users\Luis\AppData\Local\Temp\cckNqlc0.s 			page 45


 2461 0359 04       		.byte	0x4
 2462 035a 09       		.uleb128 0x9
 2463 035b 97050000 		.4byte	.LASF65
 2464 035f 03       		.byte	0x3
 2465 0360 6E01     		.2byte	0x16e
 2466 0362 15010000 		.4byte	0x115
 2467 0366 08       		.byte	0x8
 2468 0367 09       		.uleb128 0x9
 2469 0368 11080000 		.4byte	.LASF66
 2470 036c 03       		.byte	0x3
 2471 036d 6F01     		.2byte	0x16f
 2472 036f 0A030000 		.4byte	0x30a
 2473 0373 0C       		.byte	0xc
 2474 0374 09       		.uleb128 0x9
 2475 0375 40070000 		.4byte	.LASF67
 2476 0379 03       		.byte	0x3
 2477 037a 7101     		.2byte	0x171
 2478 037c 26030000 		.4byte	0x326
 2479 0380 10       		.byte	0x10
 2480 0381 00       		.byte	0
 2481 0382 03       		.uleb128 0x3
 2482 0383 E5000000 		.4byte	.LASF68
 2483 0387 0A       		.byte	0xa
 2484 0388 66       		.byte	0x66
 2485 0389 8D030000 		.4byte	0x38d
 2486 038d 0B       		.uleb128 0xb
 2487 038e 5E030000 		.4byte	.LASF69
 2488 0392 10       		.byte	0x10
 2489 0393 03       		.byte	0x3
 2490 0394 7B01     		.2byte	0x17b
 2491 0396 CF030000 		.4byte	0x3cf
 2492 039a 09       		.uleb128 0x9
 2493 039b 4A020000 		.4byte	.LASF63
 2494 039f 03       		.byte	0x3
 2495 03a0 7C01     		.2byte	0x17c
 2496 03a2 6E070000 		.4byte	0x76e
 2497 03a6 00       		.byte	0
 2498 03a7 09       		.uleb128 0x9
 2499 03a8 EE010000 		.4byte	.LASF64
 2500 03ac 03       		.byte	0x3
 2501 03ad 7E01     		.2byte	0x17e
 2502 03af 6E070000 		.4byte	0x76e
 2503 03b3 04       		.byte	0x4
 2504 03b4 09       		.uleb128 0x9
 2505 03b5 97050000 		.4byte	.LASF65
 2506 03b9 03       		.byte	0x3
 2507 03ba 8001     		.2byte	0x180
 2508 03bc 15010000 		.4byte	0x115
 2509 03c0 08       		.byte	0x8
 2510 03c1 09       		.uleb128 0x9
 2511 03c2 A4030000 		.4byte	.LASF70
 2512 03c6 03       		.byte	0x3
 2513 03c7 8801     		.2byte	0x188
 2514 03c9 15010000 		.4byte	0x115
 2515 03cd 0C       		.byte	0xc
 2516 03ce 00       		.byte	0
 2517 03cf 03       		.uleb128 0x3
ARM GAS  C:\Users\Luis\AppData\Local\Temp\cckNqlc0.s 			page 46


 2518 03d0 50000000 		.4byte	.LASF71
 2519 03d4 0A       		.byte	0xa
 2520 03d5 6B       		.byte	0x6b
 2521 03d6 DA030000 		.4byte	0x3da
 2522 03da 0F       		.uleb128 0xf
 2523 03db F6010000 		.4byte	.LASF72
 2524 03df 1404     		.2byte	0x414
 2525 03e1 03       		.byte	0x3
 2526 03e2 A201     		.2byte	0x1a2
 2527 03e4 1D040000 		.4byte	0x41d
 2528 03e8 09       		.uleb128 0x9
 2529 03e9 9D070000 		.4byte	.LASF73
 2530 03ed 03       		.byte	0x3
 2531 03ee AA01     		.2byte	0x1aa
 2532 03f0 74070000 		.4byte	0x774
 2533 03f4 00       		.byte	0
 2534 03f5 09       		.uleb128 0x9
 2535 03f6 70070000 		.4byte	.LASF74
 2536 03fa 03       		.byte	0x3
 2537 03fb AF01     		.2byte	0x1af
 2538 03fd FF000000 		.4byte	0xff
 2539 0401 04       		.byte	0x4
 2540 0402 09       		.uleb128 0x9
 2541 0403 14020000 		.4byte	.LASF75
 2542 0407 03       		.byte	0x3
 2543 0408 B301     		.2byte	0x1b3
 2544 040a FF000000 		.4byte	0xff
 2545 040e 08       		.byte	0x8
 2546 040f 09       		.uleb128 0x9
 2547 0410 CF070000 		.4byte	.LASF76
 2548 0414 03       		.byte	0x3
 2549 0415 B901     		.2byte	0x1b9
 2550 0417 D4050000 		.4byte	0x5d4
 2551 041b 0C       		.byte	0xc
 2552 041c 00       		.byte	0
 2553 041d 03       		.uleb128 0x3
 2554 041e E3020000 		.4byte	.LASF77
 2555 0422 0A       		.byte	0xa
 2556 0423 70       		.byte	0x70
 2557 0424 28040000 		.4byte	0x428
 2558 0428 0F       		.uleb128 0xf
 2559 0429 8A010000 		.4byte	.LASF78
 2560 042d E805     		.2byte	0x5e8
 2561 042f 03       		.byte	0x3
 2562 0430 C201     		.2byte	0x1c2
 2563 0432 95040000 		.4byte	0x495
 2564 0436 09       		.uleb128 0x9
 2565 0437 81070000 		.4byte	.LASF79
 2566 043b 03       		.byte	0x3
 2567 043c C601     		.2byte	0x1c6
 2568 043e A3020000 		.4byte	0x2a3
 2569 0442 00       		.byte	0
 2570 0443 09       		.uleb128 0x9
 2571 0444 71010000 		.4byte	.LASF80
 2572 0448 03       		.byte	0x3
 2573 0449 CA01     		.2byte	0x1ca
 2574 044b 82030000 		.4byte	0x382
ARM GAS  C:\Users\Luis\AppData\Local\Temp\cckNqlc0.s 			page 47


 2575 044f 1C       		.byte	0x1c
 2576 0450 08       		.uleb128 0x8
 2577 0451 64626700 		.ascii	"dbg\000"
 2578 0455 03       		.byte	0x3
 2579 0456 CE01     		.2byte	0x1ce
 2580 0458 CF030000 		.4byte	0x3cf
 2581 045c 2C       		.byte	0x2c
 2582 045d 10       		.uleb128 0x10
 2583 045e DA000000 		.4byte	.LASF81
 2584 0462 03       		.byte	0x3
 2585 0463 D201     		.2byte	0x1d2
 2586 0465 20010000 		.4byte	0x120
 2587 0469 4004     		.2byte	0x440
 2588 046b 11       		.uleb128 0x11
 2589 046c 746D00   		.ascii	"tm\000"
 2590 046f 03       		.byte	0x3
 2591 0470 D701     		.2byte	0x1d7
 2592 0472 F4050000 		.4byte	0x5f4
 2593 0476 A804     		.2byte	0x4a8
 2594 0478 10       		.uleb128 0x10
 2595 0479 6F040000 		.4byte	.LASF82
 2596 047d 03       		.byte	0x3
 2597 047e DD01     		.2byte	0x1dd
 2598 0480 86060000 		.4byte	0x686
 2599 0484 B004     		.2byte	0x4b0
 2600 0486 10       		.uleb128 0x10
 2601 0487 1D020000 		.4byte	.LASF83
 2602 048b 03       		.byte	0x3
 2603 048c E301     		.2byte	0x1e3
 2604 048e 79070000 		.4byte	0x779
 2605 0492 E804     		.2byte	0x4e8
 2606 0494 00       		.byte	0
 2607 0495 04       		.uleb128 0x4
 2608 0496 04       		.byte	0x4
 2609 0497 07       		.byte	0x7
 2610 0498 31030000 		.4byte	.LASF84
 2611 049c 03       		.uleb128 0x3
 2612 049d E5010000 		.4byte	.LASF85
 2613 04a1 0B       		.byte	0xb
 2614 04a2 65       		.byte	0x65
 2615 04a3 26030000 		.4byte	0x326
 2616 04a7 03       		.uleb128 0x3
 2617 04a8 1C030000 		.4byte	.LASF86
 2618 04ac 0B       		.byte	0xb
 2619 04ad 6D       		.byte	0x6d
 2620 04ae 90000000 		.4byte	0x90
 2621 04b2 06       		.uleb128 0x6
 2622 04b3 30070000 		.4byte	.LASF87
 2623 04b7 04       		.byte	0x4
 2624 04b8 0B       		.byte	0xb
 2625 04b9 89       		.byte	0x89
 2626 04ba CB040000 		.4byte	0x4cb
 2627 04be 12       		.uleb128 0x12
 2628 04bf 72313300 		.ascii	"r13\000"
 2629 04c3 0B       		.byte	0xb
 2630 04c4 8A       		.byte	0x8a
 2631 04c5 46050000 		.4byte	0x546
ARM GAS  C:\Users\Luis\AppData\Local\Temp\cckNqlc0.s 			page 48


 2632 04c9 00       		.byte	0
 2633 04ca 00       		.byte	0
 2634 04cb 06       		.uleb128 0x6
 2635 04cc 33000000 		.4byte	.LASF88
 2636 04d0 24       		.byte	0x24
 2637 04d1 01       		.byte	0x1
 2638 04d2 F4       		.byte	0xf4
 2639 04d3 46050000 		.4byte	0x546
 2640 04d7 08       		.uleb128 0x8
 2641 04d8 723400   		.ascii	"r4\000"
 2642 04db 01       		.byte	0x1
 2643 04dc 0701     		.2byte	0x107
 2644 04de 9C040000 		.4byte	0x49c
 2645 04e2 00       		.byte	0
 2646 04e3 08       		.uleb128 0x8
 2647 04e4 723500   		.ascii	"r5\000"
 2648 04e7 01       		.byte	0x1
 2649 04e8 0801     		.2byte	0x108
 2650 04ea 9C040000 		.4byte	0x49c
 2651 04ee 04       		.byte	0x4
 2652 04ef 08       		.uleb128 0x8
 2653 04f0 723600   		.ascii	"r6\000"
 2654 04f3 01       		.byte	0x1
 2655 04f4 0901     		.2byte	0x109
 2656 04f6 9C040000 		.4byte	0x49c
 2657 04fa 08       		.byte	0x8
 2658 04fb 08       		.uleb128 0x8
 2659 04fc 723700   		.ascii	"r7\000"
 2660 04ff 01       		.byte	0x1
 2661 0500 0A01     		.2byte	0x10a
 2662 0502 9C040000 		.4byte	0x49c
 2663 0506 0C       		.byte	0xc
 2664 0507 08       		.uleb128 0x8
 2665 0508 723800   		.ascii	"r8\000"
 2666 050b 01       		.byte	0x1
 2667 050c 0B01     		.2byte	0x10b
 2668 050e 9C040000 		.4byte	0x49c
 2669 0512 10       		.byte	0x10
 2670 0513 08       		.uleb128 0x8
 2671 0514 723900   		.ascii	"r9\000"
 2672 0517 01       		.byte	0x1
 2673 0518 0C01     		.2byte	0x10c
 2674 051a 9C040000 		.4byte	0x49c
 2675 051e 14       		.byte	0x14
 2676 051f 08       		.uleb128 0x8
 2677 0520 72313000 		.ascii	"r10\000"
 2678 0524 01       		.byte	0x1
 2679 0525 0D01     		.2byte	0x10d
 2680 0527 9C040000 		.4byte	0x49c
 2681 052b 18       		.byte	0x18
 2682 052c 08       		.uleb128 0x8
 2683 052d 72313100 		.ascii	"r11\000"
 2684 0531 01       		.byte	0x1
 2685 0532 0E01     		.2byte	0x10e
 2686 0534 9C040000 		.4byte	0x49c
 2687 0538 1C       		.byte	0x1c
 2688 0539 08       		.uleb128 0x8
ARM GAS  C:\Users\Luis\AppData\Local\Temp\cckNqlc0.s 			page 49


 2689 053a 6C7200   		.ascii	"lr\000"
 2690 053d 01       		.byte	0x1
 2691 053e 0F01     		.2byte	0x10f
 2692 0540 9C040000 		.4byte	0x49c
 2693 0544 20       		.byte	0x20
 2694 0545 00       		.byte	0
 2695 0546 0A       		.uleb128 0xa
 2696 0547 04       		.byte	0x4
 2697 0548 CB040000 		.4byte	0x4cb
 2698 054c 13       		.uleb128 0x13
 2699 054d 10       		.byte	0x10
 2700 054e 0C       		.byte	0xc
 2701 054f 51       		.byte	0x51
 2702 0550 85050000 		.4byte	0x585
 2703 0554 07       		.uleb128 0x7
 2704 0555 14000000 		.4byte	.LASF89
 2705 0559 0C       		.byte	0xc
 2706 055a 55       		.byte	0x55
 2707 055b 15010000 		.4byte	0x115
 2708 055f 00       		.byte	0
 2709 0560 07       		.uleb128 0x7
 2710 0561 B1010000 		.4byte	.LASF90
 2711 0565 0C       		.byte	0xc
 2712 0566 59       		.byte	0x59
 2713 0567 49020000 		.4byte	0x249
 2714 056b 04       		.byte	0x4
 2715 056c 07       		.uleb128 0x7
 2716 056d 01080000 		.4byte	.LASF91
 2717 0571 0C       		.byte	0xc
 2718 0572 5D       		.byte	0x5d
 2719 0573 26030000 		.4byte	0x326
 2720 0577 08       		.byte	0x8
 2721 0578 07       		.uleb128 0x7
 2722 0579 BD000000 		.4byte	.LASF92
 2723 057d 0C       		.byte	0xc
 2724 057e 61       		.byte	0x61
 2725 057f 45000000 		.4byte	0x45
 2726 0583 0C       		.byte	0xc
 2727 0584 00       		.byte	0
 2728 0585 03       		.uleb128 0x3
 2729 0586 95030000 		.4byte	.LASF93
 2730 058a 0C       		.byte	0xc
 2731 058b 62       		.byte	0x62
 2732 058c 4C050000 		.4byte	0x54c
 2733 0590 14       		.uleb128 0x14
 2734 0591 0804     		.2byte	0x408
 2735 0593 0C       		.byte	0xc
 2736 0594 67       		.byte	0x67
 2737 0595 BE050000 		.4byte	0x5be
 2738 0599 07       		.uleb128 0x7
 2739 059a D5010000 		.4byte	.LASF94
 2740 059e 0C       		.byte	0xc
 2741 059f 6B       		.byte	0x6b
 2742 05a0 37000000 		.4byte	0x37
 2743 05a4 00       		.byte	0
 2744 05a5 07       		.uleb128 0x7
 2745 05a6 00000000 		.4byte	.LASF95
ARM GAS  C:\Users\Luis\AppData\Local\Temp\cckNqlc0.s 			page 50


 2746 05aa 0C       		.byte	0xc
 2747 05ab 6F       		.byte	0x6f
 2748 05ac BE050000 		.4byte	0x5be
 2749 05b0 04       		.byte	0x4
 2750 05b1 07       		.uleb128 0x7
 2751 05b2 84040000 		.4byte	.LASF96
 2752 05b6 0C       		.byte	0xc
 2753 05b7 73       		.byte	0x73
 2754 05b8 C4050000 		.4byte	0x5c4
 2755 05bc 08       		.byte	0x8
 2756 05bd 00       		.byte	0
 2757 05be 0A       		.uleb128 0xa
 2758 05bf 04       		.byte	0x4
 2759 05c0 85050000 		.4byte	0x585
 2760 05c4 15       		.uleb128 0x15
 2761 05c5 85050000 		.4byte	0x585
 2762 05c9 D4050000 		.4byte	0x5d4
 2763 05cd 16       		.uleb128 0x16
 2764 05ce 95040000 		.4byte	0x495
 2765 05d2 3F       		.byte	0x3f
 2766 05d3 00       		.byte	0
 2767 05d4 03       		.uleb128 0x3
 2768 05d5 AB000000 		.4byte	.LASF97
 2769 05d9 0C       		.byte	0xc
 2770 05da 74       		.byte	0x74
 2771 05db 90050000 		.4byte	0x590
 2772 05df 13       		.uleb128 0x13
 2773 05e0 04       		.byte	0x4
 2774 05e1 0D       		.byte	0xd
 2775 05e2 38       		.byte	0x38
 2776 05e3 F4050000 		.4byte	0x5f4
 2777 05e7 07       		.uleb128 0x7
 2778 05e8 29070000 		.4byte	.LASF98
 2779 05ec 0D       		.byte	0xd
 2780 05ed 3C       		.byte	0x3c
 2781 05ee A7000000 		.4byte	0xa7
 2782 05f2 00       		.byte	0
 2783 05f3 00       		.byte	0
 2784 05f4 03       		.uleb128 0x3
 2785 05f5 4D030000 		.4byte	.LASF99
 2786 05f9 0D       		.byte	0xd
 2787 05fa 3D       		.byte	0x3d
 2788 05fb DF050000 		.4byte	0x5df
 2789 05ff 13       		.uleb128 0x13
 2790 0600 18       		.byte	0x18
 2791 0601 0D       		.byte	0xd
 2792 0602 48       		.byte	0x48
 2793 0603 42060000 		.4byte	0x642
 2794 0607 07       		.uleb128 0x7
 2795 0608 DB060000 		.4byte	.LASF100
 2796 060c 0D       		.byte	0xd
 2797 060d 49       		.byte	0x49
 2798 060e A7000000 		.4byte	0xa7
 2799 0612 00       		.byte	0
 2800 0613 07       		.uleb128 0x7
 2801 0614 69000000 		.4byte	.LASF101
 2802 0618 0D       		.byte	0xd
ARM GAS  C:\Users\Luis\AppData\Local\Temp\cckNqlc0.s 			page 51


 2803 0619 4A       		.byte	0x4a
 2804 061a A7000000 		.4byte	0xa7
 2805 061e 04       		.byte	0x4
 2806 061f 07       		.uleb128 0x7
 2807 0620 D7020000 		.4byte	.LASF102
 2808 0624 0D       		.byte	0xd
 2809 0625 4B       		.byte	0x4b
 2810 0626 A7000000 		.4byte	0xa7
 2811 062a 08       		.byte	0x8
 2812 062b 12       		.uleb128 0x12
 2813 062c 6E00     		.ascii	"n\000"
 2814 062e 0D       		.byte	0xd
 2815 062f 4C       		.byte	0x4c
 2816 0630 0A010000 		.4byte	0x10a
 2817 0634 0C       		.byte	0xc
 2818 0635 07       		.uleb128 0x7
 2819 0636 43040000 		.4byte	.LASF103
 2820 063a 0D       		.byte	0xd
 2821 063b 4D       		.byte	0x4d
 2822 063c B2000000 		.4byte	0xb2
 2823 0640 10       		.byte	0x10
 2824 0641 00       		.byte	0
 2825 0642 03       		.uleb128 0x3
 2826 0643 6F000000 		.4byte	.LASF104
 2827 0647 0D       		.byte	0xd
 2828 0648 4E       		.byte	0x4e
 2829 0649 FF050000 		.4byte	0x5ff
 2830 064d 13       		.uleb128 0x13
 2831 064e 38       		.byte	0x38
 2832 064f 0E       		.byte	0xe
 2833 0650 38       		.byte	0x38
 2834 0651 86060000 		.4byte	0x686
 2835 0655 07       		.uleb128 0x7
 2836 0656 74020000 		.4byte	.LASF105
 2837 065a 0E       		.byte	0xe
 2838 065b 39       		.byte	0x39
 2839 065c 0A010000 		.4byte	0x10a
 2840 0660 00       		.byte	0
 2841 0661 07       		.uleb128 0x7
 2842 0662 B5040000 		.4byte	.LASF106
 2843 0666 0E       		.byte	0xe
 2844 0667 3A       		.byte	0x3a
 2845 0668 0A010000 		.4byte	0x10a
 2846 066c 04       		.byte	0x4
 2847 066d 07       		.uleb128 0x7
 2848 066e EE070000 		.4byte	.LASF107
 2849 0672 0E       		.byte	0xe
 2850 0673 3B       		.byte	0x3b
 2851 0674 42060000 		.4byte	0x642
 2852 0678 08       		.byte	0x8
 2853 0679 07       		.uleb128 0x7
 2854 067a F7020000 		.4byte	.LASF108
 2855 067e 0E       		.byte	0xe
 2856 067f 3D       		.byte	0x3d
 2857 0680 42060000 		.4byte	0x642
 2858 0684 20       		.byte	0x20
 2859 0685 00       		.byte	0
ARM GAS  C:\Users\Luis\AppData\Local\Temp\cckNqlc0.s 			page 52


 2860 0686 03       		.uleb128 0x3
 2861 0687 B8020000 		.4byte	.LASF109
 2862 068b 0E       		.byte	0xe
 2863 068c 3F       		.byte	0x3f
 2864 068d 4D060000 		.4byte	0x64d
 2865 0691 17       		.uleb128 0x17
 2866 0692 04       		.byte	0x4
 2867 0693 03       		.byte	0x3
 2868 0694 FA       		.byte	0xfa
 2869 0695 EE060000 		.4byte	0x6ee
 2870 0699 18       		.uleb128 0x18
 2871 069a 23000000 		.4byte	.LASF110
 2872 069e 03       		.byte	0x3
 2873 069f 0101     		.2byte	0x101
 2874 06a1 E9000000 		.4byte	0xe9
 2875 06a5 18       		.uleb128 0x18
 2876 06a6 C6000000 		.4byte	.LASF111
 2877 06aa 03       		.byte	0x3
 2878 06ab 0801     		.2byte	0x108
 2879 06ad E9000000 		.4byte	0xe9
 2880 06b1 18       		.uleb128 0x18
 2881 06b2 B2070000 		.4byte	.LASF112
 2882 06b6 03       		.byte	0x3
 2883 06b7 0F01     		.2byte	0x10f
 2884 06b9 26030000 		.4byte	0x326
 2885 06bd 18       		.uleb128 0x18
 2886 06be 84010000 		.4byte	.LASF113
 2887 06c2 03       		.byte	0x3
 2888 06c3 1601     		.2byte	0x116
 2889 06c5 EE060000 		.4byte	0x6ee
 2890 06c9 18       		.uleb128 0x18
 2891 06ca 52020000 		.4byte	.LASF114
 2892 06ce 03       		.byte	0x3
 2893 06cf 1E01     		.2byte	0x11e
 2894 06d1 19070000 		.4byte	0x719
 2895 06d5 18       		.uleb128 0x18
 2896 06d6 88050000 		.4byte	.LASF115
 2897 06da 03       		.byte	0x3
 2898 06db 2701     		.2byte	0x127
 2899 06dd 50070000 		.4byte	0x750
 2900 06e1 18       		.uleb128 0x18
 2901 06e2 10050000 		.4byte	.LASF116
 2902 06e6 03       		.byte	0x3
 2903 06e7 2F01     		.2byte	0x12f
 2904 06e9 F4000000 		.4byte	0xf4
 2905 06ed 00       		.byte	0
 2906 06ee 0A       		.uleb128 0xa
 2907 06ef 04       		.byte	0x4
 2908 06f0 3E020000 		.4byte	0x23e
 2909 06f4 06       		.uleb128 0x6
 2910 06f5 67050000 		.4byte	.LASF117
 2911 06f9 0C       		.byte	0xc
 2912 06fa 0F       		.byte	0xf
 2913 06fb 34       		.byte	0x34
 2914 06fc 19070000 		.4byte	0x719
 2915 0700 07       		.uleb128 0x7
 2916 0701 CD010000 		.4byte	.LASF118
ARM GAS  C:\Users\Luis\AppData\Local\Temp\cckNqlc0.s 			page 53


 2917 0705 0F       		.byte	0xf
 2918 0706 35       		.byte	0x35
 2919 0707 73020000 		.4byte	0x273
 2920 070b 00       		.byte	0
 2921 070c 07       		.uleb128 0x7
 2922 070d 9A020000 		.4byte	.LASF119
 2923 0711 0F       		.byte	0xf
 2924 0712 37       		.byte	0x37
 2925 0713 FF000000 		.4byte	0xff
 2926 0717 08       		.byte	0x8
 2927 0718 00       		.byte	0
 2928 0719 0A       		.uleb128 0xa
 2929 071a 04       		.byte	0x4
 2930 071b F4060000 		.4byte	0x6f4
 2931 071f 06       		.uleb128 0x6
 2932 0720 60070000 		.4byte	.LASF120
 2933 0724 10       		.byte	0x10
 2934 0725 10       		.byte	0x10
 2935 0726 39       		.byte	0x39
 2936 0727 50070000 		.4byte	0x750
 2937 072b 07       		.uleb128 0x7
 2938 072c DA040000 		.4byte	.LASF121
 2939 0730 10       		.byte	0x10
 2940 0731 3A       		.byte	0x3a
 2941 0732 73020000 		.4byte	0x273
 2942 0736 00       		.byte	0
 2943 0737 07       		.uleb128 0x7
 2944 0738 F9070000 		.4byte	.LASF122
 2945 073c 10       		.byte	0x10
 2946 073d 3C       		.byte	0x3c
 2947 073e 49020000 		.4byte	0x249
 2948 0742 08       		.byte	0x8
 2949 0743 07       		.uleb128 0x7
 2950 0744 E0060000 		.4byte	.LASF123
 2951 0748 10       		.byte	0x10
 2952 0749 3E       		.byte	0x3e
 2953 074a 94070000 		.4byte	0x794
 2954 074e 0C       		.byte	0xc
 2955 074f 00       		.byte	0
 2956 0750 0A       		.uleb128 0xa
 2957 0751 04       		.byte	0x4
 2958 0752 1F070000 		.4byte	0x71f
 2959 0756 0A       		.uleb128 0xa
 2960 0757 04       		.byte	0x4
 2961 0758 5C070000 		.4byte	0x75c
 2962 075c 19       		.uleb128 0x19
 2963 075d 61070000 		.4byte	0x761
 2964 0761 04       		.uleb128 0x4
 2965 0762 01       		.byte	0x1
 2966 0763 08       		.byte	0x8
 2967 0764 F9050000 		.4byte	.LASF124
 2968 0768 0A       		.uleb128 0xa
 2969 0769 04       		.byte	0x4
 2970 076a A7040000 		.4byte	0x4a7
 2971 076e 0A       		.uleb128 0xa
 2972 076f 04       		.byte	0x4
 2973 0770 28030000 		.4byte	0x328
ARM GAS  C:\Users\Luis\AppData\Local\Temp\cckNqlc0.s 			page 54


 2974 0774 05       		.uleb128 0x5
 2975 0775 56070000 		.4byte	0x756
 2976 0779 15       		.uleb128 0x15
 2977 077a A7040000 		.4byte	0x4a7
 2978 077e 89070000 		.4byte	0x789
 2979 0782 16       		.uleb128 0x16
 2980 0783 95040000 		.4byte	0x495
 2981 0787 1F       		.byte	0x1f
 2982 0788 00       		.byte	0
 2983 0789 03       		.uleb128 0x3
 2984 078a 06020000 		.4byte	.LASF125
 2985 078e 10       		.byte	0x10
 2986 078f 34       		.byte	0x34
 2987 0790 1F070000 		.4byte	0x71f
 2988 0794 0A       		.uleb128 0xa
 2989 0795 04       		.byte	0x4
 2990 0796 89070000 		.4byte	0x789
 2991 079a 06       		.uleb128 0x6
 2992 079b 75030000 		.4byte	.LASF126
 2993 079f 08       		.byte	0x8
 2994 07a0 11       		.byte	0x11
 2995 07a1 3B       		.byte	0x3b
 2996 07a2 B3070000 		.4byte	0x7b3
 2997 07a6 07       		.uleb128 0x7
 2998 07a7 52050000 		.4byte	.LASF127
 2999 07ab 11       		.byte	0x11
 3000 07ac 3C       		.byte	0x3c
 3001 07ad 73020000 		.4byte	0x273
 3002 07b1 00       		.byte	0
 3003 07b2 00       		.byte	0
 3004 07b3 03       		.uleb128 0x3
 3005 07b4 3F010000 		.4byte	.LASF128
 3006 07b8 11       		.byte	0x11
 3007 07b9 3E       		.byte	0x3e
 3008 07ba 9A070000 		.4byte	0x79a
 3009 07be 06       		.uleb128 0x6
 3010 07bf 47070000 		.4byte	.LASF129
 3011 07c3 10       		.byte	0x10
 3012 07c4 12       		.byte	0x12
 3013 07c5 3B       		.byte	0x3b
 3014 07c6 FB070000 		.4byte	0x7fb
 3015 07ca 07       		.uleb128 0x7
 3016 07cb A0020000 		.4byte	.LASF130
 3017 07cf 12       		.byte	0x12
 3018 07d0 3C       		.byte	0x3c
 3019 07d1 56070000 		.4byte	0x756
 3020 07d5 00       		.byte	0
 3021 07d6 07       		.uleb128 0x7
 3022 07d7 69040000 		.4byte	.LASF131
 3023 07db 12       		.byte	0x12
 3024 07dc 3D       		.byte	0x3d
 3025 07dd FC070000 		.4byte	0x7fc
 3026 07e1 04       		.byte	0x4
 3027 07e2 07       		.uleb128 0x7
 3028 07e3 64020000 		.4byte	.LASF132
 3029 07e7 12       		.byte	0x12
 3030 07e8 3E       		.byte	0x3e
ARM GAS  C:\Users\Luis\AppData\Local\Temp\cckNqlc0.s 			page 55


 3031 07e9 FC070000 		.4byte	0x7fc
 3032 07ed 08       		.byte	0x8
 3033 07ee 07       		.uleb128 0x7
 3034 07ef A5040000 		.4byte	.LASF133
 3035 07f3 12       		.byte	0x12
 3036 07f4 3F       		.byte	0x3f
 3037 07f5 FC070000 		.4byte	0x7fc
 3038 07f9 0C       		.byte	0xc
 3039 07fa 00       		.byte	0
 3040 07fb 1A       		.uleb128 0x1a
 3041 07fc 0A       		.uleb128 0xa
 3042 07fd 04       		.byte	0x4
 3043 07fe FB070000 		.4byte	0x7fb
 3044 0802 1B       		.uleb128 0x1b
 3045 0803 05070000 		.4byte	.LASF172
 3046 0807 02       		.byte	0x2
 3047 0808 2002     		.2byte	0x220
 3048 080a 03       		.byte	0x3
 3049 080b 1C080000 		.4byte	0x81c
 3050 080f 1C       		.uleb128 0x1c
 3051 0810 0E020000 		.4byte	.LASF173
 3052 0814 02       		.byte	0x2
 3053 0815 2002     		.2byte	0x220
 3054 0817 77000000 		.4byte	0x77
 3055 081b 00       		.byte	0
 3056 081c 1D       		.uleb128 0x1d
 3057 081d 5F000000 		.4byte	.LASF134
 3058 0821 01       		.byte	0x1
 3059 0822 BC01     		.2byte	0x1bc
 3060 0824 00000000 		.4byte	.LFB116
 3061 0828 1A000000 		.4byte	.LFE116-.LFB116
 3062 082c 01       		.uleb128 0x1
 3063 082d 9C       		.byte	0x9c
 3064 082e 4C080000 		.4byte	0x84c
 3065 0832 1E       		.uleb128 0x1e
 3066 0833 02080000 		.4byte	0x802
 3067 0837 0A000000 		.4byte	.LBB6
 3068 083b 06000000 		.4byte	.LBE6-.LBB6
 3069 083f 01       		.byte	0x1
 3070 0840 BF01     		.2byte	0x1bf
 3071 0842 1F       		.uleb128 0x1f
 3072 0843 0F080000 		.4byte	0x80f
 3073 0847 02       		.uleb128 0x2
 3074 0848 91       		.byte	0x91
 3075 0849 74       		.sleb128 -12
 3076 084a 00       		.byte	0
 3077 084b 00       		.byte	0
 3078 084c 1D       		.uleb128 0x1d
 3079 084d 78010000 		.4byte	.LASF135
 3080 0851 01       		.byte	0x1
 3081 0852 CA01     		.2byte	0x1ca
 3082 0854 00000000 		.4byte	.LFB117
 3083 0858 1A000000 		.4byte	.LFE117-.LFB117
 3084 085c 01       		.uleb128 0x1
 3085 085d 9C       		.byte	0x9c
 3086 085e 7C080000 		.4byte	0x87c
 3087 0862 1E       		.uleb128 0x1e
ARM GAS  C:\Users\Luis\AppData\Local\Temp\cckNqlc0.s 			page 56


 3088 0863 02080000 		.4byte	0x802
 3089 0867 0A000000 		.4byte	.LBB8
 3090 086b 06000000 		.4byte	.LBE8-.LBB8
 3091 086f 01       		.byte	0x1
 3092 0870 CD01     		.2byte	0x1cd
 3093 0872 1F       		.uleb128 0x1f
 3094 0873 0F080000 		.4byte	0x80f
 3095 0877 02       		.uleb128 0x2
 3096 0878 91       		.byte	0x91
 3097 0879 74       		.sleb128 -12
 3098 087a 00       		.byte	0
 3099 087b 00       		.byte	0
 3100 087c 20       		.uleb128 0x20
 3101 087d BF010000 		.4byte	.LASF174
 3102 0881 03       		.byte	0x3
 3103 0882 6802     		.2byte	0x268
 3104 0884 A6080000 		.4byte	0x8a6
 3105 0888 00000000 		.4byte	.LFB140
 3106 088c 24000000 		.4byte	.LFE140-.LFB140
 3107 0890 01       		.uleb128 0x1
 3108 0891 9C       		.byte	0x9c
 3109 0892 A6080000 		.4byte	0x8a6
 3110 0896 21       		.uleb128 0x21
 3111 0897 74717000 		.ascii	"tqp\000"
 3112 089b 03       		.byte	0x3
 3113 089c 6802     		.2byte	0x268
 3114 089e AD080000 		.4byte	0x8ad
 3115 08a2 02       		.uleb128 0x2
 3116 08a3 91       		.byte	0x91
 3117 08a4 74       		.sleb128 -12
 3118 08a5 00       		.byte	0
 3119 08a6 04       		.uleb128 0x4
 3120 08a7 01       		.byte	0x1
 3121 08a8 02       		.byte	0x2
 3122 08a9 BE040000 		.4byte	.LASF136
 3123 08ad 0A       		.uleb128 0xa
 3124 08ae 04       		.byte	0x4
 3125 08af B3080000 		.4byte	0x8b3
 3126 08b3 19       		.uleb128 0x19
 3127 08b4 73020000 		.4byte	0x273
 3128 08b8 22       		.uleb128 0x22
 3129 08b9 37050000 		.4byte	.LASF140
 3130 08bd 04       		.byte	0x4
 3131 08be 5A01     		.2byte	0x15a
 3132 08c0 00000000 		.4byte	.LFB156
 3133 08c4 12000000 		.4byte	.LFE156-.LFB156
 3134 08c8 01       		.uleb128 0x1
 3135 08c9 9C       		.byte	0x9c
 3136 08ca 23       		.uleb128 0x23
 3137 08cb DC070000 		.4byte	.LASF137
 3138 08cf 04       		.byte	0x4
 3139 08d0 6601     		.2byte	0x166
 3140 08d2 00000000 		.4byte	.LFB157
 3141 08d6 3C000000 		.4byte	.LFE157-.LFB157
 3142 08da 01       		.uleb128 0x1
 3143 08db 9C       		.byte	0x9c
 3144 08dc F0080000 		.4byte	0x8f0
ARM GAS  C:\Users\Luis\AppData\Local\Temp\cckNqlc0.s 			page 57


 3145 08e0 24       		.uleb128 0x24
 3146 08e1 26050000 		.4byte	.LASF175
 3147 08e5 00090000 		.4byte	0x900
 3148 08e9 05       		.uleb128 0x5
 3149 08ea 03       		.byte	0x3
 3150 08eb 00000000 		.4byte	__func__.5842
 3151 08ef 00       		.byte	0
 3152 08f0 15       		.uleb128 0x15
 3153 08f1 61070000 		.4byte	0x761
 3154 08f5 00090000 		.4byte	0x900
 3155 08f9 16       		.uleb128 0x16
 3156 08fa 95040000 		.4byte	0x495
 3157 08fe 0B       		.byte	0xb
 3158 08ff 00       		.byte	0
 3159 0900 19       		.uleb128 0x19
 3160 0901 F0080000 		.4byte	0x8f0
 3161 0905 25       		.uleb128 0x25
 3162 0906 87070000 		.4byte	.LASF138
 3163 090a 05       		.byte	0x5
 3164 090b AE       		.byte	0xae
 3165 090c 49020000 		.4byte	0x249
 3166 0910 00000000 		.4byte	.LFB177
 3167 0914 18000000 		.4byte	.LFE177-.LFB177
 3168 0918 01       		.uleb128 0x1
 3169 0919 9C       		.byte	0x9c
 3170 091a 26       		.uleb128 0x26
 3171 091b C6030000 		.4byte	.LASF139
 3172 091f 05       		.byte	0x5
 3173 0920 BB       		.byte	0xbb
 3174 0921 DE000000 		.4byte	0xde
 3175 0925 00000000 		.4byte	.LFB178
 3176 0929 10000000 		.4byte	.LFE178-.LFB178
 3177 092d 01       		.uleb128 0x1
 3178 092e 9C       		.byte	0x9c
 3179 092f 27       		.uleb128 0x27
 3180 0930 A6010000 		.4byte	.LASF141
 3181 0934 06       		.byte	0x6
 3182 0935 54       		.byte	0x54
 3183 0936 00000000 		.4byte	.LFB229
 3184 093a 10000000 		.4byte	.LFE229-.LFB229
 3185 093e 01       		.uleb128 0x1
 3186 093f 9C       		.byte	0x9c
 3187 0940 28       		.uleb128 0x28
 3188 0941 B8030000 		.4byte	.LASF142
 3189 0945 06       		.byte	0x6
 3190 0946 59       		.byte	0x59
 3191 0947 00000000 		.4byte	.LFB230
 3192 094b 28000000 		.4byte	.LFE230-.LFB230
 3193 094f 01       		.uleb128 0x1
 3194 0950 9C       		.byte	0x9c
 3195 0951 62090000 		.4byte	0x962
 3196 0955 29       		.uleb128 0x29
 3197 0956 7000     		.ascii	"p\000"
 3198 0958 06       		.byte	0x6
 3199 0959 59       		.byte	0x59
 3200 095a 26030000 		.4byte	0x326
 3201 095e 02       		.uleb128 0x2
ARM GAS  C:\Users\Luis\AppData\Local\Temp\cckNqlc0.s 			page 58


 3202 095f 91       		.byte	0x91
 3203 0960 74       		.sleb128 -12
 3204 0961 00       		.byte	0
 3205 0962 28       		.uleb128 0x28
 3206 0963 08010000 		.4byte	.LASF143
 3207 0967 06       		.byte	0x6
 3208 0968 60       		.byte	0x60
 3209 0969 00000000 		.4byte	.LFB231
 3210 096d 1C010000 		.4byte	.LFE231-.LFB231
 3211 0971 01       		.uleb128 0x1
 3212 0972 9C       		.byte	0x9c
 3213 0973 86090000 		.4byte	0x986
 3214 0977 2A       		.uleb128 0x2a
 3215 0978 2B040000 		.4byte	.LASF148
 3216 097c 06       		.byte	0x6
 3217 097d 62       		.byte	0x62
 3218 097e DE000000 		.4byte	0xde
 3219 0982 02       		.uleb128 0x2
 3220 0983 91       		.byte	0x91
 3221 0984 74       		.sleb128 -12
 3222 0985 00       		.byte	0
 3223 0986 22       		.uleb128 0x22
 3224 0987 D8030000 		.4byte	.LASF144
 3225 098b 06       		.byte	0x6
 3226 098c 4C01     		.2byte	0x14c
 3227 098e 00000000 		.4byte	.LFB232
 3228 0992 1C000000 		.4byte	.LFE232-.LFB232
 3229 0996 01       		.uleb128 0x1
 3230 0997 9C       		.byte	0x9c
 3231 0998 23       		.uleb128 0x23
 3232 0999 82000000 		.4byte	.LASF145
 3233 099d 06       		.byte	0x6
 3234 099e 5201     		.2byte	0x152
 3235 09a0 00000000 		.4byte	.LFB233
 3236 09a4 28000000 		.4byte	.LFE233-.LFB233
 3237 09a8 01       		.uleb128 0x1
 3238 09a9 9C       		.byte	0x9c
 3239 09aa BC090000 		.4byte	0x9bc
 3240 09ae 21       		.uleb128 0x21
 3241 09af 7000     		.ascii	"p\000"
 3242 09b1 06       		.byte	0x6
 3243 09b2 5201     		.2byte	0x152
 3244 09b4 26030000 		.4byte	0x326
 3245 09b8 02       		.uleb128 0x2
 3246 09b9 91       		.byte	0x91
 3247 09ba 74       		.sleb128 -12
 3248 09bb 00       		.byte	0
 3249 09bc 23       		.uleb128 0x23
 3250 09bd 8B000000 		.4byte	.LASF146
 3251 09c1 06       		.byte	0x6
 3252 09c2 5A01     		.2byte	0x15a
 3253 09c4 00000000 		.4byte	.LFB234
 3254 09c8 28000000 		.4byte	.LFE234-.LFB234
 3255 09cc 01       		.uleb128 0x1
 3256 09cd 9C       		.byte	0x9c
 3257 09ce E0090000 		.4byte	0x9e0
 3258 09d2 21       		.uleb128 0x21
ARM GAS  C:\Users\Luis\AppData\Local\Temp\cckNqlc0.s 			page 59


 3259 09d3 7000     		.ascii	"p\000"
 3260 09d5 06       		.byte	0x6
 3261 09d6 5A01     		.2byte	0x15a
 3262 09d8 26030000 		.4byte	0x326
 3263 09dc 02       		.uleb128 0x2
 3264 09dd 91       		.byte	0x91
 3265 09de 74       		.sleb128 -12
 3266 09df 00       		.byte	0
 3267 09e0 23       		.uleb128 0x23
 3268 09e1 1E040000 		.4byte	.LASF147
 3269 09e5 06       		.byte	0x6
 3270 09e6 6201     		.2byte	0x162
 3271 09e8 00000000 		.4byte	.LFB235
 3272 09ec 04030000 		.4byte	.LFE235-.LFB235
 3273 09f0 01       		.uleb128 0x1
 3274 09f1 9C       		.byte	0x9c
 3275 09f2 200A0000 		.4byte	0xa20
 3276 09f6 2B       		.uleb128 0x2b
 3277 09f7 7000     		.ascii	"p\000"
 3278 09f9 06       		.byte	0x6
 3279 09fa 6301     		.2byte	0x163
 3280 09fc DE000000 		.4byte	0xde
 3281 0a00 02       		.uleb128 0x2
 3282 0a01 91       		.byte	0x91
 3283 0a02 74       		.sleb128 -12
 3284 0a03 2B       		.uleb128 0x2b
 3285 0a04 703100   		.ascii	"p1\000"
 3286 0a07 06       		.byte	0x6
 3287 0a08 6301     		.2byte	0x163
 3288 0a0a DE000000 		.4byte	0xde
 3289 0a0e 02       		.uleb128 0x2
 3290 0a0f 91       		.byte	0x91
 3291 0a10 70       		.sleb128 -16
 3292 0a11 2B       		.uleb128 0x2b
 3293 0a12 703200   		.ascii	"p2\000"
 3294 0a15 06       		.byte	0x6
 3295 0a16 6301     		.2byte	0x163
 3296 0a18 DE000000 		.4byte	0xde
 3297 0a1c 02       		.uleb128 0x2
 3298 0a1d 91       		.byte	0x91
 3299 0a1e 6C       		.sleb128 -20
 3300 0a1f 00       		.byte	0
 3301 0a20 22       		.uleb128 0x22
 3302 0a21 FE050000 		.4byte	.LASF149
 3303 0a25 06       		.byte	0x6
 3304 0a26 A201     		.2byte	0x1a2
 3305 0a28 00000000 		.4byte	.LFB236
 3306 0a2c 10000000 		.4byte	.LFE236-.LFB236
 3307 0a30 01       		.uleb128 0x1
 3308 0a31 9C       		.byte	0x9c
 3309 0a32 23       		.uleb128 0x23
 3310 0a33 5A050000 		.4byte	.LASF150
 3311 0a37 06       		.byte	0x6
 3312 0a38 A701     		.2byte	0x1a7
 3313 0a3a 00000000 		.4byte	.LFB237
 3314 0a3e 0C010000 		.4byte	.LFE237-.LFB237
 3315 0a42 01       		.uleb128 0x1
ARM GAS  C:\Users\Luis\AppData\Local\Temp\cckNqlc0.s 			page 60


 3316 0a43 9C       		.byte	0x9c
 3317 0a44 650A0000 		.4byte	0xa65
 3318 0a48 2B       		.uleb128 0x2b
 3319 0a49 6200     		.ascii	"b\000"
 3320 0a4b 06       		.byte	0x6
 3321 0a4c AA01     		.2byte	0x1aa
 3322 0a4e A6080000 		.4byte	0x8a6
 3323 0a52 02       		.uleb128 0x2
 3324 0a53 91       		.byte	0x91
 3325 0a54 73       		.sleb128 -13
 3326 0a55 2C       		.uleb128 0x2c
 3327 0a56 2B040000 		.4byte	.LASF148
 3328 0a5a 06       		.byte	0x6
 3329 0a5b AB01     		.2byte	0x1ab
 3330 0a5d DE000000 		.4byte	0xde
 3331 0a61 02       		.uleb128 0x2
 3332 0a62 91       		.byte	0x91
 3333 0a63 74       		.sleb128 -12
 3334 0a64 00       		.byte	0
 3335 0a65 22       		.uleb128 0x22
 3336 0a66 38040000 		.4byte	.LASF151
 3337 0a6a 06       		.byte	0x6
 3338 0a6b D501     		.2byte	0x1d5
 3339 0a6d 00000000 		.4byte	.LFB238
 3340 0a71 1C000000 		.4byte	.LFE238-.LFB238
 3341 0a75 01       		.uleb128 0x1
 3342 0a76 9C       		.byte	0x9c
 3343 0a77 23       		.uleb128 0x23
 3344 0a78 4E040000 		.4byte	.LASF152
 3345 0a7c 06       		.byte	0x6
 3346 0a7d DB01     		.2byte	0x1db
 3347 0a7f 00000000 		.4byte	.LFB239
 3348 0a83 34000000 		.4byte	.LFE239-.LFB239
 3349 0a87 01       		.uleb128 0x1
 3350 0a88 9C       		.byte	0x9c
 3351 0a89 9B0A0000 		.4byte	0xa9b
 3352 0a8d 21       		.uleb128 0x21
 3353 0a8e 7000     		.ascii	"p\000"
 3354 0a90 06       		.byte	0x6
 3355 0a91 DB01     		.2byte	0x1db
 3356 0a93 26030000 		.4byte	0x326
 3357 0a97 02       		.uleb128 0x2
 3358 0a98 91       		.byte	0x91
 3359 0a99 74       		.sleb128 -12
 3360 0a9a 00       		.byte	0
 3361 0a9b 23       		.uleb128 0x23
 3362 0a9c 88030000 		.4byte	.LASF153
 3363 0aa0 06       		.byte	0x6
 3364 0aa1 E301     		.2byte	0x1e3
 3365 0aa3 00000000 		.4byte	.LFB240
 3366 0aa7 18010000 		.4byte	.LFE240-.LFB240
 3367 0aab 01       		.uleb128 0x1
 3368 0aac 9C       		.byte	0x9c
 3369 0aad C10A0000 		.4byte	0xac1
 3370 0ab1 2C       		.uleb128 0x2c
 3371 0ab2 2B040000 		.4byte	.LASF148
 3372 0ab6 06       		.byte	0x6
ARM GAS  C:\Users\Luis\AppData\Local\Temp\cckNqlc0.s 			page 61


 3373 0ab7 E501     		.2byte	0x1e5
 3374 0ab9 DE000000 		.4byte	0xde
 3375 0abd 02       		.uleb128 0x2
 3376 0abe 91       		.byte	0x91
 3377 0abf 74       		.sleb128 -12
 3378 0ac0 00       		.byte	0
 3379 0ac1 22       		.uleb128 0x22
 3380 0ac2 CF000000 		.4byte	.LASF154
 3381 0ac6 06       		.byte	0x6
 3382 0ac7 0802     		.2byte	0x208
 3383 0ac9 00000000 		.4byte	.LFB241
 3384 0acd 1C000000 		.4byte	.LFE241-.LFB241
 3385 0ad1 01       		.uleb128 0x1
 3386 0ad2 9C       		.byte	0x9c
 3387 0ad3 23       		.uleb128 0x23
 3388 0ad4 13070000 		.4byte	.LASF155
 3389 0ad8 06       		.byte	0x6
 3390 0ad9 0E02     		.2byte	0x20e
 3391 0adb 00000000 		.4byte	.LFB242
 3392 0adf F4000000 		.4byte	.LFE242-.LFB242
 3393 0ae3 01       		.uleb128 0x1
 3394 0ae4 9C       		.byte	0x9c
 3395 0ae5 F90A0000 		.4byte	0xaf9
 3396 0ae9 2C       		.uleb128 0x2c
 3397 0aea 2B040000 		.4byte	.LASF148
 3398 0aee 06       		.byte	0x6
 3399 0aef 1002     		.2byte	0x210
 3400 0af1 DE000000 		.4byte	0xde
 3401 0af5 02       		.uleb128 0x2
 3402 0af6 91       		.byte	0x91
 3403 0af7 74       		.sleb128 -12
 3404 0af8 00       		.byte	0
 3405 0af9 22       		.uleb128 0x22
 3406 0afa A7070000 		.4byte	.LASF156
 3407 0afe 06       		.byte	0x6
 3408 0aff 2B02     		.2byte	0x22b
 3409 0b01 00000000 		.4byte	.LFB243
 3410 0b05 24000000 		.4byte	.LFE243-.LFB243
 3411 0b09 01       		.uleb128 0x1
 3412 0b0a 9C       		.byte	0x9c
 3413 0b0b 23       		.uleb128 0x23
 3414 0b0c 57040000 		.4byte	.LASF157
 3415 0b10 06       		.byte	0x6
 3416 0b11 3202     		.2byte	0x232
 3417 0b13 00000000 		.4byte	.LFB244
 3418 0b17 48000000 		.4byte	.LFE244-.LFB244
 3419 0b1b 01       		.uleb128 0x1
 3420 0b1c 9C       		.byte	0x9c
 3421 0b1d 2F0B0000 		.4byte	0xb2f
 3422 0b21 21       		.uleb128 0x21
 3423 0b22 7000     		.ascii	"p\000"
 3424 0b24 06       		.byte	0x6
 3425 0b25 3202     		.2byte	0x232
 3426 0b27 26030000 		.4byte	0x326
 3427 0b2b 02       		.uleb128 0x2
 3428 0b2c 91       		.byte	0x91
 3429 0b2d 74       		.sleb128 -12
ARM GAS  C:\Users\Luis\AppData\Local\Temp\cckNqlc0.s 			page 62


 3430 0b2e 00       		.byte	0
 3431 0b2f 23       		.uleb128 0x23
 3432 0b30 60040000 		.4byte	.LASF158
 3433 0b34 06       		.byte	0x6
 3434 0b35 4002     		.2byte	0x240
 3435 0b37 00000000 		.4byte	.LFB245
 3436 0b3b 28000000 		.4byte	.LFE245-.LFB245
 3437 0b3f 01       		.uleb128 0x1
 3438 0b40 9C       		.byte	0x9c
 3439 0b41 530B0000 		.4byte	0xb53
 3440 0b45 21       		.uleb128 0x21
 3441 0b46 7000     		.ascii	"p\000"
 3442 0b48 06       		.byte	0x6
 3443 0b49 4002     		.2byte	0x240
 3444 0b4b 26030000 		.4byte	0x326
 3445 0b4f 02       		.uleb128 0x2
 3446 0b50 91       		.byte	0x91
 3447 0b51 74       		.sleb128 -12
 3448 0b52 00       		.byte	0
 3449 0b53 23       		.uleb128 0x23
 3450 0b54 64010000 		.4byte	.LASF159
 3451 0b58 06       		.byte	0x6
 3452 0b59 4702     		.2byte	0x247
 3453 0b5b 00000000 		.4byte	.LFB246
 3454 0b5f BC000000 		.4byte	.LFE246-.LFB246
 3455 0b63 01       		.uleb128 0x1
 3456 0b64 9C       		.byte	0x9c
 3457 0b65 790B0000 		.4byte	0xb79
 3458 0b69 2C       		.uleb128 0x2c
 3459 0b6a 2B040000 		.4byte	.LASF148
 3460 0b6e 06       		.byte	0x6
 3461 0b6f 4902     		.2byte	0x249
 3462 0b71 DE000000 		.4byte	0xde
 3463 0b75 02       		.uleb128 0x2
 3464 0b76 91       		.byte	0x91
 3465 0b77 74       		.sleb128 -12
 3466 0b78 00       		.byte	0
 3467 0b79 2D       		.uleb128 0x2d
 3468 0b7a 6D3100   		.ascii	"m1\000"
 3469 0b7d 06       		.byte	0x6
 3470 0b7e 44       		.byte	0x44
 3471 0b7f 89070000 		.4byte	0x789
 3472 0b83 05       		.uleb128 0x5
 3473 0b84 03       		.byte	0x3
 3474 0b85 00000000 		.4byte	m1
 3475 0b89 2D       		.uleb128 0x2d
 3476 0b8a 6D3200   		.ascii	"m2\000"
 3477 0b8d 06       		.byte	0x6
 3478 0b8e 45       		.byte	0x45
 3479 0b8f 89070000 		.4byte	0x789
 3480 0b93 05       		.uleb128 0x5
 3481 0b94 03       		.byte	0x3
 3482 0b95 00000000 		.4byte	m2
 3483 0b99 2D       		.uleb128 0x2d
 3484 0b9a 633100   		.ascii	"c1\000"
 3485 0b9d 06       		.byte	0x6
 3486 0b9e 47       		.byte	0x47
ARM GAS  C:\Users\Luis\AppData\Local\Temp\cckNqlc0.s 			page 63


 3487 0b9f B3070000 		.4byte	0x7b3
 3488 0ba3 05       		.uleb128 0x5
 3489 0ba4 03       		.byte	0x3
 3490 0ba5 00000000 		.4byte	c1
 3491 0ba9 2E       		.uleb128 0x2e
 3492 0baa FB000000 		.4byte	.LASF160
 3493 0bae 13       		.byte	0x13
 3494 0baf A706     		.2byte	0x6a7
 3495 0bb1 A2000000 		.4byte	0xa2
 3496 0bb5 2F       		.uleb128 0x2f
 3497 0bb6 636800   		.ascii	"ch\000"
 3498 0bb9 03       		.byte	0x3
 3499 0bba 0902     		.2byte	0x209
 3500 0bbc 1D040000 		.4byte	0x41d
 3501 0bc0 15       		.uleb128 0x15
 3502 0bc1 49020000 		.4byte	0x249
 3503 0bc5 D00B0000 		.4byte	0xbd0
 3504 0bc9 16       		.uleb128 0x16
 3505 0bca 95040000 		.4byte	0x495
 3506 0bce 04       		.byte	0x4
 3507 0bcf 00       		.byte	0
 3508 0bd0 30       		.uleb128 0x30
 3509 0bd1 01050000 		.4byte	.LASF161
 3510 0bd5 12       		.byte	0x12
 3511 0bd6 A7       		.byte	0xa7
 3512 0bd7 C00B0000 		.4byte	0xbc0
 3513 0bdb 15       		.uleb128 0x15
 3514 0bdc 26030000 		.4byte	0x326
 3515 0be0 E60B0000 		.4byte	0xbe6
 3516 0be4 31       		.uleb128 0x31
 3517 0be5 00       		.byte	0
 3518 0be6 32       		.uleb128 0x32
 3519 0be7 776100   		.ascii	"wa\000"
 3520 0bea 12       		.byte	0x12
 3521 0beb A9       		.byte	0xa9
 3522 0bec F00B0000 		.4byte	0xbf0
 3523 0bf0 19       		.uleb128 0x19
 3524 0bf1 DB0B0000 		.4byte	0xbdb
 3525 0bf5 33       		.uleb128 0x33
 3526 0bf6 20070000 		.4byte	.LASF162
 3527 0bfa 06       		.byte	0x6
 3528 0bfb 6F       		.byte	0x6f
 3529 0bfc 060C0000 		.4byte	0xc06
 3530 0c00 05       		.uleb128 0x5
 3531 0c01 03       		.byte	0x3
 3532 0c02 00000000 		.4byte	testmtx1
 3533 0c06 19       		.uleb128 0x19
 3534 0c07 BE070000 		.4byte	0x7be
 3535 0c0b 34       		.uleb128 0x34
 3536 0c0c B0050000 		.4byte	.LASF163
 3537 0c10 06       		.byte	0x6
 3538 0c11 9101     		.2byte	0x191
 3539 0c13 060C0000 		.4byte	0xc06
 3540 0c17 05       		.uleb128 0x5
 3541 0c18 03       		.byte	0x3
 3542 0c19 00000000 		.4byte	testmtx4
 3543 0c1d 34       		.uleb128 0x34
ARM GAS  C:\Users\Luis\AppData\Local\Temp\cckNqlc0.s 			page 64


 3544 0c1e B9050000 		.4byte	.LASF164
 3545 0c22 06       		.byte	0x6
 3546 0c23 C201     		.2byte	0x1c2
 3547 0c25 060C0000 		.4byte	0xc06
 3548 0c29 05       		.uleb128 0x5
 3549 0c2a 03       		.byte	0x3
 3550 0c2b 00000000 		.4byte	testmtx5
 3551 0c2f 34       		.uleb128 0x34
 3552 0c30 C2050000 		.4byte	.LASF165
 3553 0c34 06       		.byte	0x6
 3554 0c35 F701     		.2byte	0x1f7
 3555 0c37 060C0000 		.4byte	0xc06
 3556 0c3b 05       		.uleb128 0x5
 3557 0c3c 03       		.byte	0x3
 3558 0c3d 00000000 		.4byte	testmtx6
 3559 0c41 34       		.uleb128 0x34
 3560 0c42 CB050000 		.4byte	.LASF166
 3561 0c46 06       		.byte	0x6
 3562 0c47 1B02     		.2byte	0x21b
 3563 0c49 060C0000 		.4byte	0xc06
 3564 0c4d 05       		.uleb128 0x5
 3565 0c4e 03       		.byte	0x3
 3566 0c4f 00000000 		.4byte	testmtx7
 3567 0c53 34       		.uleb128 0x34
 3568 0c54 D4050000 		.4byte	.LASF167
 3569 0c58 06       		.byte	0x6
 3570 0c59 5302     		.2byte	0x253
 3571 0c5b 060C0000 		.4byte	0xc06
 3572 0c5f 05       		.uleb128 0x5
 3573 0c60 03       		.byte	0x3
 3574 0c61 00000000 		.4byte	testmtx8
 3575 0c65 15       		.uleb128 0x15
 3576 0c66 750C0000 		.4byte	0xc75
 3577 0c6a 750C0000 		.4byte	0xc75
 3578 0c6e 16       		.uleb128 0x16
 3579 0c6f 95040000 		.4byte	0x495
 3580 0c73 06       		.byte	0x6
 3581 0c74 00       		.byte	0
 3582 0c75 0A       		.uleb128 0xa
 3583 0c76 04       		.byte	0x4
 3584 0c77 060C0000 		.4byte	0xc06
 3585 0c7b 34       		.uleb128 0x34
 3586 0c7c E2040000 		.4byte	.LASF168
 3587 0c80 06       		.byte	0x6
 3588 0c81 5F02     		.2byte	0x25f
 3589 0c83 8D0C0000 		.4byte	0xc8d
 3590 0c87 05       		.uleb128 0x5
 3591 0c88 03       		.byte	0x3
 3592 0c89 00000000 		.4byte	patternmtx
 3593 0c8d 19       		.uleb128 0x19
 3594 0c8e 650C0000 		.4byte	0xc65
 3595 0c92 00       		.byte	0
 3596              		.section	.debug_abbrev,"",%progbits
 3597              	.Ldebug_abbrev0:
 3598 0000 01       		.uleb128 0x1
 3599 0001 11       		.uleb128 0x11
 3600 0002 01       		.byte	0x1
ARM GAS  C:\Users\Luis\AppData\Local\Temp\cckNqlc0.s 			page 65


 3601 0003 25       		.uleb128 0x25
 3602 0004 0E       		.uleb128 0xe
 3603 0005 13       		.uleb128 0x13
 3604 0006 0B       		.uleb128 0xb
 3605 0007 03       		.uleb128 0x3
 3606 0008 0E       		.uleb128 0xe
 3607 0009 1B       		.uleb128 0x1b
 3608 000a 0E       		.uleb128 0xe
 3609 000b 55       		.uleb128 0x55
 3610 000c 17       		.uleb128 0x17
 3611 000d 11       		.uleb128 0x11
 3612 000e 01       		.uleb128 0x1
 3613 000f 10       		.uleb128 0x10
 3614 0010 17       		.uleb128 0x17
 3615 0011 00       		.byte	0
 3616 0012 00       		.byte	0
 3617 0013 02       		.uleb128 0x2
 3618 0014 24       		.uleb128 0x24
 3619 0015 00       		.byte	0
 3620 0016 0B       		.uleb128 0xb
 3621 0017 0B       		.uleb128 0xb
 3622 0018 3E       		.uleb128 0x3e
 3623 0019 0B       		.uleb128 0xb
 3624 001a 03       		.uleb128 0x3
 3625 001b 08       		.uleb128 0x8
 3626 001c 00       		.byte	0
 3627 001d 00       		.byte	0
 3628 001e 03       		.uleb128 0x3
 3629 001f 16       		.uleb128 0x16
 3630 0020 00       		.byte	0
 3631 0021 03       		.uleb128 0x3
 3632 0022 0E       		.uleb128 0xe
 3633 0023 3A       		.uleb128 0x3a
 3634 0024 0B       		.uleb128 0xb
 3635 0025 3B       		.uleb128 0x3b
 3636 0026 0B       		.uleb128 0xb
 3637 0027 49       		.uleb128 0x49
 3638 0028 13       		.uleb128 0x13
 3639 0029 00       		.byte	0
 3640 002a 00       		.byte	0
 3641 002b 04       		.uleb128 0x4
 3642 002c 24       		.uleb128 0x24
 3643 002d 00       		.byte	0
 3644 002e 0B       		.uleb128 0xb
 3645 002f 0B       		.uleb128 0xb
 3646 0030 3E       		.uleb128 0x3e
 3647 0031 0B       		.uleb128 0xb
 3648 0032 03       		.uleb128 0x3
 3649 0033 0E       		.uleb128 0xe
 3650 0034 00       		.byte	0
 3651 0035 00       		.byte	0
 3652 0036 05       		.uleb128 0x5
 3653 0037 35       		.uleb128 0x35
 3654 0038 00       		.byte	0
 3655 0039 49       		.uleb128 0x49
 3656 003a 13       		.uleb128 0x13
 3657 003b 00       		.byte	0
ARM GAS  C:\Users\Luis\AppData\Local\Temp\cckNqlc0.s 			page 66


 3658 003c 00       		.byte	0
 3659 003d 06       		.uleb128 0x6
 3660 003e 13       		.uleb128 0x13
 3661 003f 01       		.byte	0x1
 3662 0040 03       		.uleb128 0x3
 3663 0041 0E       		.uleb128 0xe
 3664 0042 0B       		.uleb128 0xb
 3665 0043 0B       		.uleb128 0xb
 3666 0044 3A       		.uleb128 0x3a
 3667 0045 0B       		.uleb128 0xb
 3668 0046 3B       		.uleb128 0x3b
 3669 0047 0B       		.uleb128 0xb
 3670 0048 01       		.uleb128 0x1
 3671 0049 13       		.uleb128 0x13
 3672 004a 00       		.byte	0
 3673 004b 00       		.byte	0
 3674 004c 07       		.uleb128 0x7
 3675 004d 0D       		.uleb128 0xd
 3676 004e 00       		.byte	0
 3677 004f 03       		.uleb128 0x3
 3678 0050 0E       		.uleb128 0xe
 3679 0051 3A       		.uleb128 0x3a
 3680 0052 0B       		.uleb128 0xb
 3681 0053 3B       		.uleb128 0x3b
 3682 0054 0B       		.uleb128 0xb
 3683 0055 49       		.uleb128 0x49
 3684 0056 13       		.uleb128 0x13
 3685 0057 38       		.uleb128 0x38
 3686 0058 0B       		.uleb128 0xb
 3687 0059 00       		.byte	0
 3688 005a 00       		.byte	0
 3689 005b 08       		.uleb128 0x8
 3690 005c 0D       		.uleb128 0xd
 3691 005d 00       		.byte	0
 3692 005e 03       		.uleb128 0x3
 3693 005f 08       		.uleb128 0x8
 3694 0060 3A       		.uleb128 0x3a
 3695 0061 0B       		.uleb128 0xb
 3696 0062 3B       		.uleb128 0x3b
 3697 0063 05       		.uleb128 0x5
 3698 0064 49       		.uleb128 0x49
 3699 0065 13       		.uleb128 0x13
 3700 0066 38       		.uleb128 0x38
 3701 0067 0B       		.uleb128 0xb
 3702 0068 00       		.byte	0
 3703 0069 00       		.byte	0
 3704 006a 09       		.uleb128 0x9
 3705 006b 0D       		.uleb128 0xd
 3706 006c 00       		.byte	0
 3707 006d 03       		.uleb128 0x3
 3708 006e 0E       		.uleb128 0xe
 3709 006f 3A       		.uleb128 0x3a
 3710 0070 0B       		.uleb128 0xb
 3711 0071 3B       		.uleb128 0x3b
 3712 0072 05       		.uleb128 0x5
 3713 0073 49       		.uleb128 0x49
 3714 0074 13       		.uleb128 0x13
ARM GAS  C:\Users\Luis\AppData\Local\Temp\cckNqlc0.s 			page 67


 3715 0075 38       		.uleb128 0x38
 3716 0076 0B       		.uleb128 0xb
 3717 0077 00       		.byte	0
 3718 0078 00       		.byte	0
 3719 0079 0A       		.uleb128 0xa
 3720 007a 0F       		.uleb128 0xf
 3721 007b 00       		.byte	0
 3722 007c 0B       		.uleb128 0xb
 3723 007d 0B       		.uleb128 0xb
 3724 007e 49       		.uleb128 0x49
 3725 007f 13       		.uleb128 0x13
 3726 0080 00       		.byte	0
 3727 0081 00       		.byte	0
 3728 0082 0B       		.uleb128 0xb
 3729 0083 13       		.uleb128 0x13
 3730 0084 01       		.byte	0x1
 3731 0085 03       		.uleb128 0x3
 3732 0086 0E       		.uleb128 0xe
 3733 0087 0B       		.uleb128 0xb
 3734 0088 0B       		.uleb128 0xb
 3735 0089 3A       		.uleb128 0x3a
 3736 008a 0B       		.uleb128 0xb
 3737 008b 3B       		.uleb128 0x3b
 3738 008c 05       		.uleb128 0x5
 3739 008d 01       		.uleb128 0x1
 3740 008e 13       		.uleb128 0x13
 3741 008f 00       		.byte	0
 3742 0090 00       		.byte	0
 3743 0091 0C       		.uleb128 0xc
 3744 0092 15       		.uleb128 0x15
 3745 0093 01       		.byte	0x1
 3746 0094 27       		.uleb128 0x27
 3747 0095 19       		.uleb128 0x19
 3748 0096 01       		.uleb128 0x1
 3749 0097 13       		.uleb128 0x13
 3750 0098 00       		.byte	0
 3751 0099 00       		.byte	0
 3752 009a 0D       		.uleb128 0xd
 3753 009b 05       		.uleb128 0x5
 3754 009c 00       		.byte	0
 3755 009d 49       		.uleb128 0x49
 3756 009e 13       		.uleb128 0x13
 3757 009f 00       		.byte	0
 3758 00a0 00       		.byte	0
 3759 00a1 0E       		.uleb128 0xe
 3760 00a2 0F       		.uleb128 0xf
 3761 00a3 00       		.byte	0
 3762 00a4 0B       		.uleb128 0xb
 3763 00a5 0B       		.uleb128 0xb
 3764 00a6 00       		.byte	0
 3765 00a7 00       		.byte	0
 3766 00a8 0F       		.uleb128 0xf
 3767 00a9 13       		.uleb128 0x13
 3768 00aa 01       		.byte	0x1
 3769 00ab 03       		.uleb128 0x3
 3770 00ac 0E       		.uleb128 0xe
 3771 00ad 0B       		.uleb128 0xb
ARM GAS  C:\Users\Luis\AppData\Local\Temp\cckNqlc0.s 			page 68


 3772 00ae 05       		.uleb128 0x5
 3773 00af 3A       		.uleb128 0x3a
 3774 00b0 0B       		.uleb128 0xb
 3775 00b1 3B       		.uleb128 0x3b
 3776 00b2 05       		.uleb128 0x5
 3777 00b3 01       		.uleb128 0x1
 3778 00b4 13       		.uleb128 0x13
 3779 00b5 00       		.byte	0
 3780 00b6 00       		.byte	0
 3781 00b7 10       		.uleb128 0x10
 3782 00b8 0D       		.uleb128 0xd
 3783 00b9 00       		.byte	0
 3784 00ba 03       		.uleb128 0x3
 3785 00bb 0E       		.uleb128 0xe
 3786 00bc 3A       		.uleb128 0x3a
 3787 00bd 0B       		.uleb128 0xb
 3788 00be 3B       		.uleb128 0x3b
 3789 00bf 05       		.uleb128 0x5
 3790 00c0 49       		.uleb128 0x49
 3791 00c1 13       		.uleb128 0x13
 3792 00c2 38       		.uleb128 0x38
 3793 00c3 05       		.uleb128 0x5
 3794 00c4 00       		.byte	0
 3795 00c5 00       		.byte	0
 3796 00c6 11       		.uleb128 0x11
 3797 00c7 0D       		.uleb128 0xd
 3798 00c8 00       		.byte	0
 3799 00c9 03       		.uleb128 0x3
 3800 00ca 08       		.uleb128 0x8
 3801 00cb 3A       		.uleb128 0x3a
 3802 00cc 0B       		.uleb128 0xb
 3803 00cd 3B       		.uleb128 0x3b
 3804 00ce 05       		.uleb128 0x5
 3805 00cf 49       		.uleb128 0x49
 3806 00d0 13       		.uleb128 0x13
 3807 00d1 38       		.uleb128 0x38
 3808 00d2 05       		.uleb128 0x5
 3809 00d3 00       		.byte	0
 3810 00d4 00       		.byte	0
 3811 00d5 12       		.uleb128 0x12
 3812 00d6 0D       		.uleb128 0xd
 3813 00d7 00       		.byte	0
 3814 00d8 03       		.uleb128 0x3
 3815 00d9 08       		.uleb128 0x8
 3816 00da 3A       		.uleb128 0x3a
 3817 00db 0B       		.uleb128 0xb
 3818 00dc 3B       		.uleb128 0x3b
 3819 00dd 0B       		.uleb128 0xb
 3820 00de 49       		.uleb128 0x49
 3821 00df 13       		.uleb128 0x13
 3822 00e0 38       		.uleb128 0x38
 3823 00e1 0B       		.uleb128 0xb
 3824 00e2 00       		.byte	0
 3825 00e3 00       		.byte	0
 3826 00e4 13       		.uleb128 0x13
 3827 00e5 13       		.uleb128 0x13
 3828 00e6 01       		.byte	0x1
ARM GAS  C:\Users\Luis\AppData\Local\Temp\cckNqlc0.s 			page 69


 3829 00e7 0B       		.uleb128 0xb
 3830 00e8 0B       		.uleb128 0xb
 3831 00e9 3A       		.uleb128 0x3a
 3832 00ea 0B       		.uleb128 0xb
 3833 00eb 3B       		.uleb128 0x3b
 3834 00ec 0B       		.uleb128 0xb
 3835 00ed 01       		.uleb128 0x1
 3836 00ee 13       		.uleb128 0x13
 3837 00ef 00       		.byte	0
 3838 00f0 00       		.byte	0
 3839 00f1 14       		.uleb128 0x14
 3840 00f2 13       		.uleb128 0x13
 3841 00f3 01       		.byte	0x1
 3842 00f4 0B       		.uleb128 0xb
 3843 00f5 05       		.uleb128 0x5
 3844 00f6 3A       		.uleb128 0x3a
 3845 00f7 0B       		.uleb128 0xb
 3846 00f8 3B       		.uleb128 0x3b
 3847 00f9 0B       		.uleb128 0xb
 3848 00fa 01       		.uleb128 0x1
 3849 00fb 13       		.uleb128 0x13
 3850 00fc 00       		.byte	0
 3851 00fd 00       		.byte	0
 3852 00fe 15       		.uleb128 0x15
 3853 00ff 01       		.uleb128 0x1
 3854 0100 01       		.byte	0x1
 3855 0101 49       		.uleb128 0x49
 3856 0102 13       		.uleb128 0x13
 3857 0103 01       		.uleb128 0x1
 3858 0104 13       		.uleb128 0x13
 3859 0105 00       		.byte	0
 3860 0106 00       		.byte	0
 3861 0107 16       		.uleb128 0x16
 3862 0108 21       		.uleb128 0x21
 3863 0109 00       		.byte	0
 3864 010a 49       		.uleb128 0x49
 3865 010b 13       		.uleb128 0x13
 3866 010c 2F       		.uleb128 0x2f
 3867 010d 0B       		.uleb128 0xb
 3868 010e 00       		.byte	0
 3869 010f 00       		.byte	0
 3870 0110 17       		.uleb128 0x17
 3871 0111 17       		.uleb128 0x17
 3872 0112 01       		.byte	0x1
 3873 0113 0B       		.uleb128 0xb
 3874 0114 0B       		.uleb128 0xb
 3875 0115 3A       		.uleb128 0x3a
 3876 0116 0B       		.uleb128 0xb
 3877 0117 3B       		.uleb128 0x3b
 3878 0118 0B       		.uleb128 0xb
 3879 0119 01       		.uleb128 0x1
 3880 011a 13       		.uleb128 0x13
 3881 011b 00       		.byte	0
 3882 011c 00       		.byte	0
 3883 011d 18       		.uleb128 0x18
 3884 011e 0D       		.uleb128 0xd
 3885 011f 00       		.byte	0
ARM GAS  C:\Users\Luis\AppData\Local\Temp\cckNqlc0.s 			page 70


 3886 0120 03       		.uleb128 0x3
 3887 0121 0E       		.uleb128 0xe
 3888 0122 3A       		.uleb128 0x3a
 3889 0123 0B       		.uleb128 0xb
 3890 0124 3B       		.uleb128 0x3b
 3891 0125 05       		.uleb128 0x5
 3892 0126 49       		.uleb128 0x49
 3893 0127 13       		.uleb128 0x13
 3894 0128 00       		.byte	0
 3895 0129 00       		.byte	0
 3896 012a 19       		.uleb128 0x19
 3897 012b 26       		.uleb128 0x26
 3898 012c 00       		.byte	0
 3899 012d 49       		.uleb128 0x49
 3900 012e 13       		.uleb128 0x13
 3901 012f 00       		.byte	0
 3902 0130 00       		.byte	0
 3903 0131 1A       		.uleb128 0x1a
 3904 0132 15       		.uleb128 0x15
 3905 0133 00       		.byte	0
 3906 0134 27       		.uleb128 0x27
 3907 0135 19       		.uleb128 0x19
 3908 0136 00       		.byte	0
 3909 0137 00       		.byte	0
 3910 0138 1B       		.uleb128 0x1b
 3911 0139 2E       		.uleb128 0x2e
 3912 013a 01       		.byte	0x1
 3913 013b 03       		.uleb128 0x3
 3914 013c 0E       		.uleb128 0xe
 3915 013d 3A       		.uleb128 0x3a
 3916 013e 0B       		.uleb128 0xb
 3917 013f 3B       		.uleb128 0x3b
 3918 0140 05       		.uleb128 0x5
 3919 0141 27       		.uleb128 0x27
 3920 0142 19       		.uleb128 0x19
 3921 0143 20       		.uleb128 0x20
 3922 0144 0B       		.uleb128 0xb
 3923 0145 01       		.uleb128 0x1
 3924 0146 13       		.uleb128 0x13
 3925 0147 00       		.byte	0
 3926 0148 00       		.byte	0
 3927 0149 1C       		.uleb128 0x1c
 3928 014a 05       		.uleb128 0x5
 3929 014b 00       		.byte	0
 3930 014c 03       		.uleb128 0x3
 3931 014d 0E       		.uleb128 0xe
 3932 014e 3A       		.uleb128 0x3a
 3933 014f 0B       		.uleb128 0xb
 3934 0150 3B       		.uleb128 0x3b
 3935 0151 05       		.uleb128 0x5
 3936 0152 49       		.uleb128 0x49
 3937 0153 13       		.uleb128 0x13
 3938 0154 00       		.byte	0
 3939 0155 00       		.byte	0
 3940 0156 1D       		.uleb128 0x1d
 3941 0157 2E       		.uleb128 0x2e
 3942 0158 01       		.byte	0x1
ARM GAS  C:\Users\Luis\AppData\Local\Temp\cckNqlc0.s 			page 71


 3943 0159 03       		.uleb128 0x3
 3944 015a 0E       		.uleb128 0xe
 3945 015b 3A       		.uleb128 0x3a
 3946 015c 0B       		.uleb128 0xb
 3947 015d 3B       		.uleb128 0x3b
 3948 015e 05       		.uleb128 0x5
 3949 015f 27       		.uleb128 0x27
 3950 0160 19       		.uleb128 0x19
 3951 0161 11       		.uleb128 0x11
 3952 0162 01       		.uleb128 0x1
 3953 0163 12       		.uleb128 0x12
 3954 0164 06       		.uleb128 0x6
 3955 0165 40       		.uleb128 0x40
 3956 0166 18       		.uleb128 0x18
 3957 0167 9742     		.uleb128 0x2117
 3958 0169 19       		.uleb128 0x19
 3959 016a 01       		.uleb128 0x1
 3960 016b 13       		.uleb128 0x13
 3961 016c 00       		.byte	0
 3962 016d 00       		.byte	0
 3963 016e 1E       		.uleb128 0x1e
 3964 016f 1D       		.uleb128 0x1d
 3965 0170 01       		.byte	0x1
 3966 0171 31       		.uleb128 0x31
 3967 0172 13       		.uleb128 0x13
 3968 0173 11       		.uleb128 0x11
 3969 0174 01       		.uleb128 0x1
 3970 0175 12       		.uleb128 0x12
 3971 0176 06       		.uleb128 0x6
 3972 0177 58       		.uleb128 0x58
 3973 0178 0B       		.uleb128 0xb
 3974 0179 59       		.uleb128 0x59
 3975 017a 05       		.uleb128 0x5
 3976 017b 00       		.byte	0
 3977 017c 00       		.byte	0
 3978 017d 1F       		.uleb128 0x1f
 3979 017e 05       		.uleb128 0x5
 3980 017f 00       		.byte	0
 3981 0180 31       		.uleb128 0x31
 3982 0181 13       		.uleb128 0x13
 3983 0182 02       		.uleb128 0x2
 3984 0183 18       		.uleb128 0x18
 3985 0184 00       		.byte	0
 3986 0185 00       		.byte	0
 3987 0186 20       		.uleb128 0x20
 3988 0187 2E       		.uleb128 0x2e
 3989 0188 01       		.byte	0x1
 3990 0189 03       		.uleb128 0x3
 3991 018a 0E       		.uleb128 0xe
 3992 018b 3A       		.uleb128 0x3a
 3993 018c 0B       		.uleb128 0xb
 3994 018d 3B       		.uleb128 0x3b
 3995 018e 05       		.uleb128 0x5
 3996 018f 27       		.uleb128 0x27
 3997 0190 19       		.uleb128 0x19
 3998 0191 49       		.uleb128 0x49
 3999 0192 13       		.uleb128 0x13
ARM GAS  C:\Users\Luis\AppData\Local\Temp\cckNqlc0.s 			page 72


 4000 0193 11       		.uleb128 0x11
 4001 0194 01       		.uleb128 0x1
 4002 0195 12       		.uleb128 0x12
 4003 0196 06       		.uleb128 0x6
 4004 0197 40       		.uleb128 0x40
 4005 0198 18       		.uleb128 0x18
 4006 0199 9742     		.uleb128 0x2117
 4007 019b 19       		.uleb128 0x19
 4008 019c 01       		.uleb128 0x1
 4009 019d 13       		.uleb128 0x13
 4010 019e 00       		.byte	0
 4011 019f 00       		.byte	0
 4012 01a0 21       		.uleb128 0x21
 4013 01a1 05       		.uleb128 0x5
 4014 01a2 00       		.byte	0
 4015 01a3 03       		.uleb128 0x3
 4016 01a4 08       		.uleb128 0x8
 4017 01a5 3A       		.uleb128 0x3a
 4018 01a6 0B       		.uleb128 0xb
 4019 01a7 3B       		.uleb128 0x3b
 4020 01a8 05       		.uleb128 0x5
 4021 01a9 49       		.uleb128 0x49
 4022 01aa 13       		.uleb128 0x13
 4023 01ab 02       		.uleb128 0x2
 4024 01ac 18       		.uleb128 0x18
 4025 01ad 00       		.byte	0
 4026 01ae 00       		.byte	0
 4027 01af 22       		.uleb128 0x22
 4028 01b0 2E       		.uleb128 0x2e
 4029 01b1 00       		.byte	0
 4030 01b2 03       		.uleb128 0x3
 4031 01b3 0E       		.uleb128 0xe
 4032 01b4 3A       		.uleb128 0x3a
 4033 01b5 0B       		.uleb128 0xb
 4034 01b6 3B       		.uleb128 0x3b
 4035 01b7 05       		.uleb128 0x5
 4036 01b8 27       		.uleb128 0x27
 4037 01b9 19       		.uleb128 0x19
 4038 01ba 11       		.uleb128 0x11
 4039 01bb 01       		.uleb128 0x1
 4040 01bc 12       		.uleb128 0x12
 4041 01bd 06       		.uleb128 0x6
 4042 01be 40       		.uleb128 0x40
 4043 01bf 18       		.uleb128 0x18
 4044 01c0 9642     		.uleb128 0x2116
 4045 01c2 19       		.uleb128 0x19
 4046 01c3 00       		.byte	0
 4047 01c4 00       		.byte	0
 4048 01c5 23       		.uleb128 0x23
 4049 01c6 2E       		.uleb128 0x2e
 4050 01c7 01       		.byte	0x1
 4051 01c8 03       		.uleb128 0x3
 4052 01c9 0E       		.uleb128 0xe
 4053 01ca 3A       		.uleb128 0x3a
 4054 01cb 0B       		.uleb128 0xb
 4055 01cc 3B       		.uleb128 0x3b
 4056 01cd 05       		.uleb128 0x5
ARM GAS  C:\Users\Luis\AppData\Local\Temp\cckNqlc0.s 			page 73


 4057 01ce 27       		.uleb128 0x27
 4058 01cf 19       		.uleb128 0x19
 4059 01d0 11       		.uleb128 0x11
 4060 01d1 01       		.uleb128 0x1
 4061 01d2 12       		.uleb128 0x12
 4062 01d3 06       		.uleb128 0x6
 4063 01d4 40       		.uleb128 0x40
 4064 01d5 18       		.uleb128 0x18
 4065 01d6 9642     		.uleb128 0x2116
 4066 01d8 19       		.uleb128 0x19
 4067 01d9 01       		.uleb128 0x1
 4068 01da 13       		.uleb128 0x13
 4069 01db 00       		.byte	0
 4070 01dc 00       		.byte	0
 4071 01dd 24       		.uleb128 0x24
 4072 01de 34       		.uleb128 0x34
 4073 01df 00       		.byte	0
 4074 01e0 03       		.uleb128 0x3
 4075 01e1 0E       		.uleb128 0xe
 4076 01e2 49       		.uleb128 0x49
 4077 01e3 13       		.uleb128 0x13
 4078 01e4 34       		.uleb128 0x34
 4079 01e5 19       		.uleb128 0x19
 4080 01e6 02       		.uleb128 0x2
 4081 01e7 18       		.uleb128 0x18
 4082 01e8 00       		.byte	0
 4083 01e9 00       		.byte	0
 4084 01ea 25       		.uleb128 0x25
 4085 01eb 2E       		.uleb128 0x2e
 4086 01ec 00       		.byte	0
 4087 01ed 03       		.uleb128 0x3
 4088 01ee 0E       		.uleb128 0xe
 4089 01ef 3A       		.uleb128 0x3a
 4090 01f0 0B       		.uleb128 0xb
 4091 01f1 3B       		.uleb128 0x3b
 4092 01f2 0B       		.uleb128 0xb
 4093 01f3 27       		.uleb128 0x27
 4094 01f4 19       		.uleb128 0x19
 4095 01f5 49       		.uleb128 0x49
 4096 01f6 13       		.uleb128 0x13
 4097 01f7 11       		.uleb128 0x11
 4098 01f8 01       		.uleb128 0x1
 4099 01f9 12       		.uleb128 0x12
 4100 01fa 06       		.uleb128 0x6
 4101 01fb 40       		.uleb128 0x40
 4102 01fc 18       		.uleb128 0x18
 4103 01fd 9742     		.uleb128 0x2117
 4104 01ff 19       		.uleb128 0x19
 4105 0200 00       		.byte	0
 4106 0201 00       		.byte	0
 4107 0202 26       		.uleb128 0x26
 4108 0203 2E       		.uleb128 0x2e
 4109 0204 00       		.byte	0
 4110 0205 03       		.uleb128 0x3
 4111 0206 0E       		.uleb128 0xe
 4112 0207 3A       		.uleb128 0x3a
 4113 0208 0B       		.uleb128 0xb
ARM GAS  C:\Users\Luis\AppData\Local\Temp\cckNqlc0.s 			page 74


 4114 0209 3B       		.uleb128 0x3b
 4115 020a 0B       		.uleb128 0xb
 4116 020b 27       		.uleb128 0x27
 4117 020c 19       		.uleb128 0x19
 4118 020d 49       		.uleb128 0x49
 4119 020e 13       		.uleb128 0x13
 4120 020f 11       		.uleb128 0x11
 4121 0210 01       		.uleb128 0x1
 4122 0211 12       		.uleb128 0x12
 4123 0212 06       		.uleb128 0x6
 4124 0213 40       		.uleb128 0x40
 4125 0214 18       		.uleb128 0x18
 4126 0215 9642     		.uleb128 0x2116
 4127 0217 19       		.uleb128 0x19
 4128 0218 00       		.byte	0
 4129 0219 00       		.byte	0
 4130 021a 27       		.uleb128 0x27
 4131 021b 2E       		.uleb128 0x2e
 4132 021c 00       		.byte	0
 4133 021d 03       		.uleb128 0x3
 4134 021e 0E       		.uleb128 0xe
 4135 021f 3A       		.uleb128 0x3a
 4136 0220 0B       		.uleb128 0xb
 4137 0221 3B       		.uleb128 0x3b
 4138 0222 0B       		.uleb128 0xb
 4139 0223 27       		.uleb128 0x27
 4140 0224 19       		.uleb128 0x19
 4141 0225 11       		.uleb128 0x11
 4142 0226 01       		.uleb128 0x1
 4143 0227 12       		.uleb128 0x12
 4144 0228 06       		.uleb128 0x6
 4145 0229 40       		.uleb128 0x40
 4146 022a 18       		.uleb128 0x18
 4147 022b 9642     		.uleb128 0x2116
 4148 022d 19       		.uleb128 0x19
 4149 022e 00       		.byte	0
 4150 022f 00       		.byte	0
 4151 0230 28       		.uleb128 0x28
 4152 0231 2E       		.uleb128 0x2e
 4153 0232 01       		.byte	0x1
 4154 0233 03       		.uleb128 0x3
 4155 0234 0E       		.uleb128 0xe
 4156 0235 3A       		.uleb128 0x3a
 4157 0236 0B       		.uleb128 0xb
 4158 0237 3B       		.uleb128 0x3b
 4159 0238 0B       		.uleb128 0xb
 4160 0239 27       		.uleb128 0x27
 4161 023a 19       		.uleb128 0x19
 4162 023b 11       		.uleb128 0x11
 4163 023c 01       		.uleb128 0x1
 4164 023d 12       		.uleb128 0x12
 4165 023e 06       		.uleb128 0x6
 4166 023f 40       		.uleb128 0x40
 4167 0240 18       		.uleb128 0x18
 4168 0241 9642     		.uleb128 0x2116
 4169 0243 19       		.uleb128 0x19
 4170 0244 01       		.uleb128 0x1
ARM GAS  C:\Users\Luis\AppData\Local\Temp\cckNqlc0.s 			page 75


 4171 0245 13       		.uleb128 0x13
 4172 0246 00       		.byte	0
 4173 0247 00       		.byte	0
 4174 0248 29       		.uleb128 0x29
 4175 0249 05       		.uleb128 0x5
 4176 024a 00       		.byte	0
 4177 024b 03       		.uleb128 0x3
 4178 024c 08       		.uleb128 0x8
 4179 024d 3A       		.uleb128 0x3a
 4180 024e 0B       		.uleb128 0xb
 4181 024f 3B       		.uleb128 0x3b
 4182 0250 0B       		.uleb128 0xb
 4183 0251 49       		.uleb128 0x49
 4184 0252 13       		.uleb128 0x13
 4185 0253 02       		.uleb128 0x2
 4186 0254 18       		.uleb128 0x18
 4187 0255 00       		.byte	0
 4188 0256 00       		.byte	0
 4189 0257 2A       		.uleb128 0x2a
 4190 0258 34       		.uleb128 0x34
 4191 0259 00       		.byte	0
 4192 025a 03       		.uleb128 0x3
 4193 025b 0E       		.uleb128 0xe
 4194 025c 3A       		.uleb128 0x3a
 4195 025d 0B       		.uleb128 0xb
 4196 025e 3B       		.uleb128 0x3b
 4197 025f 0B       		.uleb128 0xb
 4198 0260 49       		.uleb128 0x49
 4199 0261 13       		.uleb128 0x13
 4200 0262 02       		.uleb128 0x2
 4201 0263 18       		.uleb128 0x18
 4202 0264 00       		.byte	0
 4203 0265 00       		.byte	0
 4204 0266 2B       		.uleb128 0x2b
 4205 0267 34       		.uleb128 0x34
 4206 0268 00       		.byte	0
 4207 0269 03       		.uleb128 0x3
 4208 026a 08       		.uleb128 0x8
 4209 026b 3A       		.uleb128 0x3a
 4210 026c 0B       		.uleb128 0xb
 4211 026d 3B       		.uleb128 0x3b
 4212 026e 05       		.uleb128 0x5
 4213 026f 49       		.uleb128 0x49
 4214 0270 13       		.uleb128 0x13
 4215 0271 02       		.uleb128 0x2
 4216 0272 18       		.uleb128 0x18
 4217 0273 00       		.byte	0
 4218 0274 00       		.byte	0
 4219 0275 2C       		.uleb128 0x2c
 4220 0276 34       		.uleb128 0x34
 4221 0277 00       		.byte	0
 4222 0278 03       		.uleb128 0x3
 4223 0279 0E       		.uleb128 0xe
 4224 027a 3A       		.uleb128 0x3a
 4225 027b 0B       		.uleb128 0xb
 4226 027c 3B       		.uleb128 0x3b
 4227 027d 05       		.uleb128 0x5
ARM GAS  C:\Users\Luis\AppData\Local\Temp\cckNqlc0.s 			page 76


 4228 027e 49       		.uleb128 0x49
 4229 027f 13       		.uleb128 0x13
 4230 0280 02       		.uleb128 0x2
 4231 0281 18       		.uleb128 0x18
 4232 0282 00       		.byte	0
 4233 0283 00       		.byte	0
 4234 0284 2D       		.uleb128 0x2d
 4235 0285 34       		.uleb128 0x34
 4236 0286 00       		.byte	0
 4237 0287 03       		.uleb128 0x3
 4238 0288 08       		.uleb128 0x8
 4239 0289 3A       		.uleb128 0x3a
 4240 028a 0B       		.uleb128 0xb
 4241 028b 3B       		.uleb128 0x3b
 4242 028c 0B       		.uleb128 0xb
 4243 028d 49       		.uleb128 0x49
 4244 028e 13       		.uleb128 0x13
 4245 028f 02       		.uleb128 0x2
 4246 0290 18       		.uleb128 0x18
 4247 0291 00       		.byte	0
 4248 0292 00       		.byte	0
 4249 0293 2E       		.uleb128 0x2e
 4250 0294 34       		.uleb128 0x34
 4251 0295 00       		.byte	0
 4252 0296 03       		.uleb128 0x3
 4253 0297 0E       		.uleb128 0xe
 4254 0298 3A       		.uleb128 0x3a
 4255 0299 0B       		.uleb128 0xb
 4256 029a 3B       		.uleb128 0x3b
 4257 029b 05       		.uleb128 0x5
 4258 029c 49       		.uleb128 0x49
 4259 029d 13       		.uleb128 0x13
 4260 029e 3F       		.uleb128 0x3f
 4261 029f 19       		.uleb128 0x19
 4262 02a0 3C       		.uleb128 0x3c
 4263 02a1 19       		.uleb128 0x19
 4264 02a2 00       		.byte	0
 4265 02a3 00       		.byte	0
 4266 02a4 2F       		.uleb128 0x2f
 4267 02a5 34       		.uleb128 0x34
 4268 02a6 00       		.byte	0
 4269 02a7 03       		.uleb128 0x3
 4270 02a8 08       		.uleb128 0x8
 4271 02a9 3A       		.uleb128 0x3a
 4272 02aa 0B       		.uleb128 0xb
 4273 02ab 3B       		.uleb128 0x3b
 4274 02ac 05       		.uleb128 0x5
 4275 02ad 49       		.uleb128 0x49
 4276 02ae 13       		.uleb128 0x13
 4277 02af 3F       		.uleb128 0x3f
 4278 02b0 19       		.uleb128 0x19
 4279 02b1 3C       		.uleb128 0x3c
 4280 02b2 19       		.uleb128 0x19
 4281 02b3 00       		.byte	0
 4282 02b4 00       		.byte	0
 4283 02b5 30       		.uleb128 0x30
 4284 02b6 34       		.uleb128 0x34
ARM GAS  C:\Users\Luis\AppData\Local\Temp\cckNqlc0.s 			page 77


 4285 02b7 00       		.byte	0
 4286 02b8 03       		.uleb128 0x3
 4287 02b9 0E       		.uleb128 0xe
 4288 02ba 3A       		.uleb128 0x3a
 4289 02bb 0B       		.uleb128 0xb
 4290 02bc 3B       		.uleb128 0x3b
 4291 02bd 0B       		.uleb128 0xb
 4292 02be 49       		.uleb128 0x49
 4293 02bf 13       		.uleb128 0x13
 4294 02c0 3F       		.uleb128 0x3f
 4295 02c1 19       		.uleb128 0x19
 4296 02c2 3C       		.uleb128 0x3c
 4297 02c3 19       		.uleb128 0x19
 4298 02c4 00       		.byte	0
 4299 02c5 00       		.byte	0
 4300 02c6 31       		.uleb128 0x31
 4301 02c7 21       		.uleb128 0x21
 4302 02c8 00       		.byte	0
 4303 02c9 00       		.byte	0
 4304 02ca 00       		.byte	0
 4305 02cb 32       		.uleb128 0x32
 4306 02cc 34       		.uleb128 0x34
 4307 02cd 00       		.byte	0
 4308 02ce 03       		.uleb128 0x3
 4309 02cf 08       		.uleb128 0x8
 4310 02d0 3A       		.uleb128 0x3a
 4311 02d1 0B       		.uleb128 0xb
 4312 02d2 3B       		.uleb128 0x3b
 4313 02d3 0B       		.uleb128 0xb
 4314 02d4 49       		.uleb128 0x49
 4315 02d5 13       		.uleb128 0x13
 4316 02d6 3F       		.uleb128 0x3f
 4317 02d7 19       		.uleb128 0x19
 4318 02d8 3C       		.uleb128 0x3c
 4319 02d9 19       		.uleb128 0x19
 4320 02da 00       		.byte	0
 4321 02db 00       		.byte	0
 4322 02dc 33       		.uleb128 0x33
 4323 02dd 34       		.uleb128 0x34
 4324 02de 00       		.byte	0
 4325 02df 03       		.uleb128 0x3
 4326 02e0 0E       		.uleb128 0xe
 4327 02e1 3A       		.uleb128 0x3a
 4328 02e2 0B       		.uleb128 0xb
 4329 02e3 3B       		.uleb128 0x3b
 4330 02e4 0B       		.uleb128 0xb
 4331 02e5 49       		.uleb128 0x49
 4332 02e6 13       		.uleb128 0x13
 4333 02e7 3F       		.uleb128 0x3f
 4334 02e8 19       		.uleb128 0x19
 4335 02e9 02       		.uleb128 0x2
 4336 02ea 18       		.uleb128 0x18
 4337 02eb 00       		.byte	0
 4338 02ec 00       		.byte	0
 4339 02ed 34       		.uleb128 0x34
 4340 02ee 34       		.uleb128 0x34
 4341 02ef 00       		.byte	0
ARM GAS  C:\Users\Luis\AppData\Local\Temp\cckNqlc0.s 			page 78


 4342 02f0 03       		.uleb128 0x3
 4343 02f1 0E       		.uleb128 0xe
 4344 02f2 3A       		.uleb128 0x3a
 4345 02f3 0B       		.uleb128 0xb
 4346 02f4 3B       		.uleb128 0x3b
 4347 02f5 05       		.uleb128 0x5
 4348 02f6 49       		.uleb128 0x49
 4349 02f7 13       		.uleb128 0x13
 4350 02f8 3F       		.uleb128 0x3f
 4351 02f9 19       		.uleb128 0x19
 4352 02fa 02       		.uleb128 0x2
 4353 02fb 18       		.uleb128 0x18
 4354 02fc 00       		.byte	0
 4355 02fd 00       		.byte	0
 4356 02fe 00       		.byte	0
 4357              		.section	.debug_aranges,"",%progbits
 4358 0000 DC000000 		.4byte	0xdc
 4359 0004 0200     		.2byte	0x2
 4360 0006 00000000 		.4byte	.Ldebug_info0
 4361 000a 04       		.byte	0x4
 4362 000b 00       		.byte	0
 4363 000c 0000     		.2byte	0
 4364 000e 0000     		.2byte	0
 4365 0010 00000000 		.4byte	.LFB116
 4366 0014 1A000000 		.4byte	.LFE116-.LFB116
 4367 0018 00000000 		.4byte	.LFB117
 4368 001c 1A000000 		.4byte	.LFE117-.LFB117
 4369 0020 00000000 		.4byte	.LFB140
 4370 0024 24000000 		.4byte	.LFE140-.LFB140
 4371 0028 00000000 		.4byte	.LFB156
 4372 002c 12000000 		.4byte	.LFE156-.LFB156
 4373 0030 00000000 		.4byte	.LFB157
 4374 0034 3C000000 		.4byte	.LFE157-.LFB157
 4375 0038 00000000 		.4byte	.LFB177
 4376 003c 18000000 		.4byte	.LFE177-.LFB177
 4377 0040 00000000 		.4byte	.LFB178
 4378 0044 10000000 		.4byte	.LFE178-.LFB178
 4379 0048 00000000 		.4byte	.LFB229
 4380 004c 10000000 		.4byte	.LFE229-.LFB229
 4381 0050 00000000 		.4byte	.LFB230
 4382 0054 28000000 		.4byte	.LFE230-.LFB230
 4383 0058 00000000 		.4byte	.LFB231
 4384 005c 1C010000 		.4byte	.LFE231-.LFB231
 4385 0060 00000000 		.4byte	.LFB232
 4386 0064 1C000000 		.4byte	.LFE232-.LFB232
 4387 0068 00000000 		.4byte	.LFB233
 4388 006c 28000000 		.4byte	.LFE233-.LFB233
 4389 0070 00000000 		.4byte	.LFB234
 4390 0074 28000000 		.4byte	.LFE234-.LFB234
 4391 0078 00000000 		.4byte	.LFB235
 4392 007c 04030000 		.4byte	.LFE235-.LFB235
 4393 0080 00000000 		.4byte	.LFB236
 4394 0084 10000000 		.4byte	.LFE236-.LFB236
 4395 0088 00000000 		.4byte	.LFB237
 4396 008c 0C010000 		.4byte	.LFE237-.LFB237
 4397 0090 00000000 		.4byte	.LFB238
 4398 0094 1C000000 		.4byte	.LFE238-.LFB238
ARM GAS  C:\Users\Luis\AppData\Local\Temp\cckNqlc0.s 			page 79


 4399 0098 00000000 		.4byte	.LFB239
 4400 009c 34000000 		.4byte	.LFE239-.LFB239
 4401 00a0 00000000 		.4byte	.LFB240
 4402 00a4 18010000 		.4byte	.LFE240-.LFB240
 4403 00a8 00000000 		.4byte	.LFB241
 4404 00ac 1C000000 		.4byte	.LFE241-.LFB241
 4405 00b0 00000000 		.4byte	.LFB242
 4406 00b4 F4000000 		.4byte	.LFE242-.LFB242
 4407 00b8 00000000 		.4byte	.LFB243
 4408 00bc 24000000 		.4byte	.LFE243-.LFB243
 4409 00c0 00000000 		.4byte	.LFB244
 4410 00c4 48000000 		.4byte	.LFE244-.LFB244
 4411 00c8 00000000 		.4byte	.LFB245
 4412 00cc 28000000 		.4byte	.LFE245-.LFB245
 4413 00d0 00000000 		.4byte	.LFB246
 4414 00d4 BC000000 		.4byte	.LFE246-.LFB246
 4415 00d8 00000000 		.4byte	0
 4416 00dc 00000000 		.4byte	0
 4417              		.section	.debug_ranges,"",%progbits
 4418              	.Ldebug_ranges0:
 4419 0000 00000000 		.4byte	.LFB116
 4420 0004 1A000000 		.4byte	.LFE116
 4421 0008 00000000 		.4byte	.LFB117
 4422 000c 1A000000 		.4byte	.LFE117
 4423 0010 00000000 		.4byte	.LFB140
 4424 0014 24000000 		.4byte	.LFE140
 4425 0018 00000000 		.4byte	.LFB156
 4426 001c 12000000 		.4byte	.LFE156
 4427 0020 00000000 		.4byte	.LFB157
 4428 0024 3C000000 		.4byte	.LFE157
 4429 0028 00000000 		.4byte	.LFB177
 4430 002c 18000000 		.4byte	.LFE177
 4431 0030 00000000 		.4byte	.LFB178
 4432 0034 10000000 		.4byte	.LFE178
 4433 0038 00000000 		.4byte	.LFB229
 4434 003c 10000000 		.4byte	.LFE229
 4435 0040 00000000 		.4byte	.LFB230
 4436 0044 28000000 		.4byte	.LFE230
 4437 0048 00000000 		.4byte	.LFB231
 4438 004c 1C010000 		.4byte	.LFE231
 4439 0050 00000000 		.4byte	.LFB232
 4440 0054 1C000000 		.4byte	.LFE232
 4441 0058 00000000 		.4byte	.LFB233
 4442 005c 28000000 		.4byte	.LFE233
 4443 0060 00000000 		.4byte	.LFB234
 4444 0064 28000000 		.4byte	.LFE234
 4445 0068 00000000 		.4byte	.LFB235
 4446 006c 04030000 		.4byte	.LFE235
 4447 0070 00000000 		.4byte	.LFB236
 4448 0074 10000000 		.4byte	.LFE236
 4449 0078 00000000 		.4byte	.LFB237
 4450 007c 0C010000 		.4byte	.LFE237
 4451 0080 00000000 		.4byte	.LFB238
 4452 0084 1C000000 		.4byte	.LFE238
 4453 0088 00000000 		.4byte	.LFB239
 4454 008c 34000000 		.4byte	.LFE239
 4455 0090 00000000 		.4byte	.LFB240
ARM GAS  C:\Users\Luis\AppData\Local\Temp\cckNqlc0.s 			page 80


 4456 0094 18010000 		.4byte	.LFE240
 4457 0098 00000000 		.4byte	.LFB241
 4458 009c 1C000000 		.4byte	.LFE241
 4459 00a0 00000000 		.4byte	.LFB242
 4460 00a4 F4000000 		.4byte	.LFE242
 4461 00a8 00000000 		.4byte	.LFB243
 4462 00ac 24000000 		.4byte	.LFE243
 4463 00b0 00000000 		.4byte	.LFB244
 4464 00b4 48000000 		.4byte	.LFE244
 4465 00b8 00000000 		.4byte	.LFB245
 4466 00bc 28000000 		.4byte	.LFE245
 4467 00c0 00000000 		.4byte	.LFB246
 4468 00c4 BC000000 		.4byte	.LFE246
 4469 00c8 00000000 		.4byte	0
 4470 00cc 00000000 		.4byte	0
 4471              		.section	.debug_line,"",%progbits
 4472              	.Ldebug_line0:
 4473 0000 49050000 		.section	.debug_str,"MS",%progbits,1
 4473      02000902 
 4473      00000201 
 4473      FB0E0D00 
 4473      01010101 
 4474              	.LASF95:
 4475 0000 74625F70 		.ascii	"tb_ptr\000"
 4475      747200
 4476              	.LASF52:
 4477 0007 72656164 		.ascii	"ready_list_t\000"
 4477      795F6C69 
 4477      73745F74 
 4477      00
 4478              	.LASF89:
 4479 0014 73655F74 		.ascii	"se_time\000"
 4479      696D6500 
 4480              	.LASF2:
 4481 001c 73697A65 		.ascii	"size_t\000"
 4481      5F7400
 4482              	.LASF110:
 4483 0023 7264796D 		.ascii	"rdymsg\000"
 4483      736700
 4484              	.LASF12:
 4485 002a 75696E74 		.ascii	"uint64_t\000"
 4485      36345F74 
 4485      00
 4486              	.LASF88:
 4487 0033 706F7274 		.ascii	"port_intctx\000"
 4487      5F696E74 
 4487      63747800 
 4488              	.LASF51:
 4489 003f 63685F74 		.ascii	"ch_threads_queue\000"
 4489      68726561 
 4489      64735F71 
 4489      75657565 
 4489      00
 4490              	.LASF71:
 4491 0050 73797374 		.ascii	"system_debug_t\000"
 4491      656D5F64 
 4491      65627567 
ARM GAS  C:\Users\Luis\AppData\Local\Temp\cckNqlc0.s 			page 81


 4491      5F7400
 4492              	.LASF134:
 4493 005f 706F7274 		.ascii	"port_lock\000"
 4493      5F6C6F63 
 4493      6B00
 4494              	.LASF101:
 4495 0069 776F7273 		.ascii	"worst\000"
 4495      7400
 4496              	.LASF104:
 4497 006f 74696D65 		.ascii	"time_measurement_t\000"
 4497      5F6D6561 
 4497      73757265 
 4497      6D656E74 
 4497      5F7400
 4498              	.LASF145:
 4499 0082 74687265 		.ascii	"thread4a\000"
 4499      61643461 
 4499      00
 4500              	.LASF146:
 4501 008b 74687265 		.ascii	"thread4b\000"
 4501      61643462 
 4501      00
 4502              	.LASF13:
 4503 0094 6C6F6E67 		.ascii	"long long unsigned int\000"
 4503      206C6F6E 
 4503      6720756E 
 4503      7369676E 
 4503      65642069 
 4504              	.LASF97:
 4505 00ab 63685F74 		.ascii	"ch_trace_buffer_t\000"
 4505      72616365 
 4505      5F627566 
 4505      6665725F 
 4505      7400
 4506              	.LASF92:
 4507 00bd 73655F73 		.ascii	"se_state\000"
 4507      74617465 
 4507      00
 4508              	.LASF111:
 4509 00c6 65786974 		.ascii	"exitcode\000"
 4509      636F6465 
 4509      00
 4510              	.LASF154:
 4511 00cf 6D747837 		.ascii	"mtx7_setup\000"
 4511      5F736574 
 4511      757000
 4512              	.LASF81:
 4513 00da 6D61696E 		.ascii	"mainthread\000"
 4513      74687265 
 4513      616400
 4514              	.LASF68:
 4515 00e5 76697274 		.ascii	"virtual_timers_list_t\000"
 4515      75616C5F 
 4515      74696D65 
 4515      72735F6C 
 4515      6973745F 
 4516              	.LASF160:
ARM GAS  C:\Users\Luis\AppData\Local\Temp\cckNqlc0.s 			page 82


 4517 00fb 49544D5F 		.ascii	"ITM_RxBuffer\000"
 4517      52784275 
 4517      66666572 
 4517      00
 4518              	.LASF143:
 4519 0108 6D747831 		.ascii	"mtx1_execute\000"
 4519      5F657865 
 4519      63757465 
 4519      00
 4520              	.LASF15:
 4521 0115 72747469 		.ascii	"rttime_t\000"
 4521      6D655F74 
 4521      00
 4522              	.LASF28:
 4523 011e 705F7072 		.ascii	"p_prio\000"
 4523      696F00
 4524              	.LASF11:
 4525 0125 6C6F6E67 		.ascii	"long long int\000"
 4525      206C6F6E 
 4525      6720696E 
 4525      7400
 4526              	.LASF1:
 4527 0133 7369676E 		.ascii	"signed char\000"
 4527      65642063 
 4527      68617200 
 4528              	.LASF128:
 4529 013f 636F6E64 		.ascii	"condition_variable_t\000"
 4529      6974696F 
 4529      6E5F7661 
 4529      72696162 
 4529      6C655F74 
 4530              	.LASF34:
 4531 0154 705F7374 		.ascii	"p_state\000"
 4531      61746500 
 4532              	.LASF43:
 4533 015c 705F6D70 		.ascii	"p_mpool\000"
 4533      6F6F6C00 
 4534              	.LASF159:
 4535 0164 6D747838 		.ascii	"mtx8_execute\000"
 4535      5F657865 
 4535      63757465 
 4535      00
 4536              	.LASF80:
 4537 0171 76746C69 		.ascii	"vtlist\000"
 4537      737400
 4538              	.LASF135:
 4539 0178 706F7274 		.ascii	"port_unlock\000"
 4539      5F756E6C 
 4539      6F636B00 
 4540              	.LASF113:
 4541 0184 77747472 		.ascii	"wttrp\000"
 4541      7000
 4542              	.LASF78:
 4543 018a 63685F73 		.ascii	"ch_system\000"
 4543      79737465 
 4543      6D00
 4544              	.LASF8:
ARM GAS  C:\Users\Luis\AppData\Local\Temp\cckNqlc0.s 			page 83


 4545 0194 6C6F6E67 		.ascii	"long int\000"
 4545      20696E74 
 4545      00
 4546              	.LASF17:
 4547 019d 74737461 		.ascii	"tstate_t\000"
 4547      74655F74 
 4547      00
 4548              	.LASF141:
 4549 01a6 6D747831 		.ascii	"mtx1_setup\000"
 4549      5F736574 
 4549      757000
 4550              	.LASF90:
 4551 01b1 73655F74 		.ascii	"se_tp\000"
 4551      7000
 4552              	.LASF30:
 4553 01b7 705F6E65 		.ascii	"p_newer\000"
 4553      77657200 
 4554              	.LASF174:
 4555 01bf 71756575 		.ascii	"queue_isempty\000"
 4555      655F6973 
 4555      656D7074 
 4555      7900
 4556              	.LASF118:
 4557 01cd 735F7175 		.ascii	"s_queue\000"
 4557      65756500 
 4558              	.LASF94:
 4559 01d5 74625F73 		.ascii	"tb_size\000"
 4559      697A6500 
 4560              	.LASF57:
 4561 01dd 725F6E65 		.ascii	"r_newer\000"
 4561      77657200 
 4562              	.LASF85:
 4563 01e5 72656761 		.ascii	"regarm_t\000"
 4563      726D5F74 
 4563      00
 4564              	.LASF64:
 4565 01ee 76745F70 		.ascii	"vt_prev\000"
 4565      72657600 
 4566              	.LASF72:
 4567 01f6 63685F73 		.ascii	"ch_system_debug\000"
 4567      79737465 
 4567      6D5F6465 
 4567      62756700 
 4568              	.LASF125:
 4569 0206 6D757465 		.ascii	"mutex_t\000"
 4569      785F7400 
 4570              	.LASF173:
 4571 020e 76616C75 		.ascii	"value\000"
 4571      6500
 4572              	.LASF75:
 4573 0214 6C6F636B 		.ascii	"lock_cnt\000"
 4573      5F636E74 
 4573      00
 4574              	.LASF83:
 4575 021d 69646C65 		.ascii	"idle_thread_wa\000"
 4575      5F746872 
 4575      6561645F 
ARM GAS  C:\Users\Luis\AppData\Local\Temp\cckNqlc0.s 			page 84


 4575      776100
 4576              	.LASF22:
 4577 022c 636E745F 		.ascii	"cnt_t\000"
 4577      7400
 4578              	.LASF33:
 4579 0232 705F7374 		.ascii	"p_stklimit\000"
 4579      6B6C696D 
 4579      697400
 4580              	.LASF0:
 4581 023d 756E7369 		.ascii	"unsigned int\000"
 4581      676E6564 
 4581      20696E74 
 4581      00
 4582              	.LASF63:
 4583 024a 76745F6E 		.ascii	"vt_next\000"
 4583      65787400 
 4584              	.LASF114:
 4585 0252 77747365 		.ascii	"wtsemp\000"
 4585      6D7000
 4586              	.LASF38:
 4587 0259 705F6D73 		.ascii	"p_msgqueue\000"
 4587      67717565 
 4587      756500
 4588              	.LASF132:
 4589 0264 74656172 		.ascii	"teardown\000"
 4589      646F776E 
 4589      00
 4590              	.LASF45:
 4591 026d 746C7350 		.ascii	"tlsPtr\000"
 4591      747200
 4592              	.LASF105:
 4593 0274 6E5F6972 		.ascii	"n_irq\000"
 4593      7100
 4594              	.LASF170:
 4595 027a 2E2E2F2E 		.ascii	"../../ChibiOS/test/rt/testmtx.c\000"
 4595      2E2F4368 
 4595      6962694F 
 4595      532F7465 
 4595      73742F72 
 4596              	.LASF119:
 4597 029a 735F636E 		.ascii	"s_cnt\000"
 4597      7400
 4598              	.LASF130:
 4599 02a0 6E616D65 		.ascii	"name\000"
 4599      00
 4600              	.LASF6:
 4601 02a5 73686F72 		.ascii	"short unsigned int\000"
 4601      7420756E 
 4601      7369676E 
 4601      65642069 
 4601      6E7400
 4602              	.LASF109:
 4603 02b8 6B65726E 		.ascii	"kernel_stats_t\000"
 4603      656C5F73 
 4603      74617473 
 4603      5F7400
 4604              	.LASF48:
ARM GAS  C:\Users\Luis\AppData\Local\Temp\cckNqlc0.s 			page 85


 4605 02c7 63685F74 		.ascii	"ch_thread\000"
 4605      68726561 
 4605      6400
 4606              	.LASF20:
 4607 02d1 6D73675F 		.ascii	"msg_t\000"
 4607      7400
 4608              	.LASF102:
 4609 02d7 6C617374 		.ascii	"last\000"
 4609      00
 4610              	.LASF23:
 4611 02dc 75636E74 		.ascii	"ucnt_t\000"
 4611      5F7400
 4612              	.LASF77:
 4613 02e3 63685F73 		.ascii	"ch_system_t\000"
 4613      79737465 
 4613      6D5F7400 
 4614              	.LASF16:
 4615 02ef 746D6F64 		.ascii	"tmode_t\000"
 4615      655F7400 
 4616              	.LASF108:
 4617 02f7 6D5F6372 		.ascii	"m_crit_isr\000"
 4617      69745F69 
 4617      737200
 4618              	.LASF53:
 4619 0302 63685F72 		.ascii	"ch_ready_list\000"
 4619      65616479 
 4619      5F6C6973 
 4619      7400
 4620              	.LASF21:
 4621 0310 6576656E 		.ascii	"eventmask_t\000"
 4621      746D6173 
 4621      6B5F7400 
 4622              	.LASF86:
 4623 031c 73746B61 		.ascii	"stkalign_t\000"
 4623      6C69676E 
 4623      5F7400
 4624              	.LASF37:
 4625 0327 705F7761 		.ascii	"p_waiting\000"
 4625      6974696E 
 4625      6700
 4626              	.LASF84:
 4627 0331 73697A65 		.ascii	"sizetype\000"
 4627      74797065 
 4627      00
 4628              	.LASF46:
 4629 033a 74687265 		.ascii	"thread_reference_t\000"
 4629      61645F72 
 4629      65666572 
 4629      656E6365 
 4629      5F7400
 4630              	.LASF99:
 4631 034d 746D5F63 		.ascii	"tm_calibration_t\000"
 4631      616C6962 
 4631      72617469 
 4631      6F6E5F74 
 4631      00
 4632              	.LASF69:
ARM GAS  C:\Users\Luis\AppData\Local\Temp\cckNqlc0.s 			page 86


 4633 035e 63685F76 		.ascii	"ch_virtual_timers_list\000"
 4633      69727475 
 4633      616C5F74 
 4633      696D6572 
 4633      735F6C69 
 4634              	.LASF126:
 4635 0375 636F6E64 		.ascii	"condition_variable\000"
 4635      6974696F 
 4635      6E5F7661 
 4635      72696162 
 4635      6C6500
 4636              	.LASF153:
 4637 0388 6D747836 		.ascii	"mtx6_execute\000"
 4637      5F657865 
 4637      63757465 
 4637      00
 4638              	.LASF93:
 4639 0395 63685F73 		.ascii	"ch_swc_event_t\000"
 4639      77635F65 
 4639      76656E74 
 4639      5F7400
 4640              	.LASF70:
 4641 03a4 76745F6C 		.ascii	"vt_lasttime\000"
 4641      61737474 
 4641      696D6500 
 4642              	.LASF31:
 4643 03b0 705F6F6C 		.ascii	"p_older\000"
 4643      64657200 
 4644              	.LASF142:
 4645 03b8 74687265 		.ascii	"thread1\000"
 4645      61643100 
 4646              	.LASF56:
 4647 03c0 725F6374 		.ascii	"r_ctx\000"
 4647      7800
 4648              	.LASF139:
 4649 03c6 63685468 		.ascii	"chThdGetPriorityX\000"
 4649      64476574 
 4649      5072696F 
 4649      72697479 
 4649      5800
 4650              	.LASF144:
 4651 03d8 6D747834 		.ascii	"mtx4_setup\000"
 4651      5F736574 
 4651      757000
 4652              	.LASF171:
 4653 03e3 433A5C55 		.ascii	"C:\\Users\\Luis\\workspace\\ChibiOS 3.0.2\\examples"
 4653      73657273 
 4653      5C4C7569 
 4653      735C776F 
 4653      726B7370 
 4654 0411 5C445350 		.ascii	"\\DSP-Library\000"
 4654      2D4C6962 
 4654      72617279 
 4654      00
 4655              	.LASF147:
 4656 041e 6D747834 		.ascii	"mtx4_execute\000"
 4656      5F657865 
ARM GAS  C:\Users\Luis\AppData\Local\Temp\cckNqlc0.s 			page 87


 4656      63757465 
 4656      00
 4657              	.LASF148:
 4658 042b 7072696F 		.ascii	"prio\000"
 4658      00
 4659              	.LASF58:
 4660 0430 725F6F6C 		.ascii	"r_older\000"
 4660      64657200 
 4661              	.LASF151:
 4662 0438 6D747836 		.ascii	"mtx6_setup\000"
 4662      5F736574 
 4662      757000
 4663              	.LASF103:
 4664 0443 63756D75 		.ascii	"cumulative\000"
 4664      6C617469 
 4664      766500
 4665              	.LASF152:
 4666 044e 74687265 		.ascii	"thread10\000"
 4666      61643130 
 4666      00
 4667              	.LASF157:
 4668 0457 74687265 		.ascii	"thread11\000"
 4668      61643131 
 4668      00
 4669              	.LASF158:
 4670 0460 74687265 		.ascii	"thread12\000"
 4670      61643132 
 4670      00
 4671              	.LASF131:
 4672 0469 73657475 		.ascii	"setup\000"
 4672      7000
 4673              	.LASF82:
 4674 046f 6B65726E 		.ascii	"kernel_stats\000"
 4674      656C5F73 
 4674      74617473 
 4674      00
 4675              	.LASF18:
 4676 047c 74726566 		.ascii	"trefs_t\000"
 4676      735F7400 
 4677              	.LASF96:
 4678 0484 74625F62 		.ascii	"tb_buffer\000"
 4678      75666665 
 4678      7200
 4679              	.LASF61:
 4680 048e 76697274 		.ascii	"virtual_timer_t\000"
 4680      75616C5F 
 4680      74696D65 
 4680      725F7400 
 4681              	.LASF27:
 4682 049e 705F7072 		.ascii	"p_prev\000"
 4682      657600
 4683              	.LASF133:
 4684 04a5 65786563 		.ascii	"execute\000"
 4684      75746500 
 4685              	.LASF19:
 4686 04ad 74707269 		.ascii	"tprio_t\000"
 4686      6F5F7400 
ARM GAS  C:\Users\Luis\AppData\Local\Temp\cckNqlc0.s 			page 88


 4687              	.LASF106:
 4688 04b5 6E5F6374 		.ascii	"n_ctxswc\000"
 4688      78737763 
 4688      00
 4689              	.LASF136:
 4690 04be 5F426F6F 		.ascii	"_Bool\000"
 4690      6C00
 4691              	.LASF7:
 4692 04c4 696E7433 		.ascii	"int32_t\000"
 4692      325F7400 
 4693              	.LASF4:
 4694 04cc 756E7369 		.ascii	"unsigned char\000"
 4694      676E6564 
 4694      20636861 
 4694      7200
 4695              	.LASF121:
 4696 04da 6D5F7175 		.ascii	"m_queue\000"
 4696      65756500 
 4697              	.LASF168:
 4698 04e2 70617474 		.ascii	"patternmtx\000"
 4698      65726E6D 
 4698      747800
 4699              	.LASF41:
 4700 04ed 705F6D74 		.ascii	"p_mtxlist\000"
 4700      786C6973 
 4700      7400
 4701              	.LASF5:
 4702 04f7 73686F72 		.ascii	"short int\000"
 4702      7420696E 
 4702      7400
 4703              	.LASF161:
 4704 0501 74687265 		.ascii	"threads\000"
 4704      61647300 
 4705              	.LASF55:
 4706 0509 725F7072 		.ascii	"r_prio\000"
 4706      696F00
 4707              	.LASF116:
 4708 0510 65776D61 		.ascii	"ewmask\000"
 4708      736B00
 4709              	.LASF26:
 4710 0517 705F6E65 		.ascii	"p_next\000"
 4710      787400
 4711              	.LASF35:
 4712 051e 705F666C 		.ascii	"p_flags\000"
 4712      61677300 
 4713              	.LASF175:
 4714 0526 5F5F6675 		.ascii	"__func__\000"
 4714      6E635F5F 
 4714      00
 4715              	.LASF44:
 4716 052f 705F7374 		.ascii	"p_stats\000"
 4716      61747300 
 4717              	.LASF140:
 4718 0537 63685379 		.ascii	"chSysLock\000"
 4718      734C6F63 
 4718      6B00
 4719              	.LASF62:
ARM GAS  C:\Users\Luis\AppData\Local\Temp\cckNqlc0.s 			page 89


 4720 0541 63685F76 		.ascii	"ch_virtual_timer\000"
 4720      69727475 
 4720      616C5F74 
 4720      696D6572 
 4720      00
 4721              	.LASF127:
 4722 0552 635F7175 		.ascii	"c_queue\000"
 4722      65756500 
 4723              	.LASF150:
 4724 055a 6D747835 		.ascii	"mtx5_execute\000"
 4724      5F657865 
 4724      63757465 
 4724      00
 4725              	.LASF117:
 4726 0567 63685F73 		.ascii	"ch_semaphore\000"
 4726      656D6170 
 4726      686F7265 
 4726      00
 4727              	.LASF40:
 4728 0574 705F6570 		.ascii	"p_epending\000"
 4728      656E6469 
 4728      6E6700
 4729              	.LASF9:
 4730 057f 75696E74 		.ascii	"uint32_t\000"
 4730      33325F74 
 4730      00
 4731              	.LASF115:
 4732 0588 77746D74 		.ascii	"wtmtxp\000"
 4732      787000
 4733              	.LASF54:
 4734 058f 725F7175 		.ascii	"r_queue\000"
 4734      65756500 
 4735              	.LASF65:
 4736 0597 76745F64 		.ascii	"vt_delta\000"
 4736      656C7461 
 4736      00
 4737              	.LASF49:
 4738 05a0 63685F74 		.ascii	"ch_threads_list\000"
 4738      68726561 
 4738      64735F6C 
 4738      69737400 
 4739              	.LASF163:
 4740 05b0 74657374 		.ascii	"testmtx4\000"
 4740      6D747834 
 4740      00
 4741              	.LASF164:
 4742 05b9 74657374 		.ascii	"testmtx5\000"
 4742      6D747835 
 4742      00
 4743              	.LASF165:
 4744 05c2 74657374 		.ascii	"testmtx6\000"
 4744      6D747836 
 4744      00
 4745              	.LASF166:
 4746 05cb 74657374 		.ascii	"testmtx7\000"
 4746      6D747837 
 4746      00
ARM GAS  C:\Users\Luis\AppData\Local\Temp\cckNqlc0.s 			page 90


 4747              	.LASF167:
 4748 05d4 74657374 		.ascii	"testmtx8\000"
 4748      6D747838 
 4748      00
 4749              	.LASF10:
 4750 05dd 6C6F6E67 		.ascii	"long unsigned int\000"
 4750      20756E73 
 4750      69676E65 
 4750      6420696E 
 4750      7400
 4751              	.LASF59:
 4752 05ef 725F6375 		.ascii	"r_current\000"
 4752      7272656E 
 4752      7400
 4753              	.LASF124:
 4754 05f9 63686172 		.ascii	"char\000"
 4754      00
 4755              	.LASF149:
 4756 05fe 6D747835 		.ascii	"mtx5_setup\000"
 4756      5F736574 
 4756      757000
 4757              	.LASF169:
 4758 0609 474E5520 		.ascii	"GNU C 4.8.3 20131129 (release) [ARM/embedded-4_8-br"
 4758      4320342E 
 4758      382E3320 
 4758      32303133 
 4758      31313239 
 4759 063c 616E6368 		.ascii	"anch revision 205641] -mcpu=cortex-m4 -mapcs-frame "
 4759      20726576 
 4759      6973696F 
 4759      6E203230 
 4759      35363431 
 4760 066f 2D6D6E6F 		.ascii	"-mno-thumb-interwork -mthumb -ggdb -O0 -falign-func"
 4760      2D746875 
 4760      6D622D69 
 4760      6E746572 
 4760      776F726B 
 4761 06a2 74696F6E 		.ascii	"tions=16 -ffunction-sections -fdata-sections -fno-c"
 4761      733D3136 
 4761      202D6666 
 4761      756E6374 
 4761      696F6E2D 
 4762 06d5 6F6D6D6F 		.ascii	"ommon\000"
 4762      6E00
 4763              	.LASF100:
 4764 06db 62657374 		.ascii	"best\000"
 4764      00
 4765              	.LASF123:
 4766 06e0 6D5F6E65 		.ascii	"m_next\000"
 4766      787400
 4767              	.LASF24:
 4768 06e7 73797374 		.ascii	"systime_t\000"
 4768      696D655F 
 4768      7400
 4769              	.LASF42:
 4770 06f1 705F7265 		.ascii	"p_realprio\000"
 4770      616C7072 
ARM GAS  C:\Users\Luis\AppData\Local\Temp\cckNqlc0.s 			page 91


 4770      696F00
 4771              	.LASF60:
 4772 06fc 76746675 		.ascii	"vtfunc_t\000"
 4772      6E635F74 
 4772      00
 4773              	.LASF172:
 4774 0705 5F5F7365 		.ascii	"__set_BASEPRI\000"
 4774      745F4241 
 4774      53455052 
 4774      4900
 4775              	.LASF155:
 4776 0713 6D747837 		.ascii	"mtx7_execute\000"
 4776      5F657865 
 4776      63757465 
 4776      00
 4777              	.LASF162:
 4778 0720 74657374 		.ascii	"testmtx1\000"
 4778      6D747831 
 4778      00
 4779              	.LASF98:
 4780 0729 6F666673 		.ascii	"offset\000"
 4780      657400
 4781              	.LASF87:
 4782 0730 636F6E74 		.ascii	"context\000"
 4782      65787400 
 4783              	.LASF14:
 4784 0738 7274636E 		.ascii	"rtcnt_t\000"
 4784      745F7400 
 4785              	.LASF67:
 4786 0740 76745F70 		.ascii	"vt_par\000"
 4786      617200
 4787              	.LASF129:
 4788 0747 74657374 		.ascii	"testcase\000"
 4788      63617365 
 4788      00
 4789              	.LASF50:
 4790 0750 74687265 		.ascii	"threads_queue_t\000"
 4790      6164735F 
 4790      71756575 
 4790      655F7400 
 4791              	.LASF120:
 4792 0760 63685F6D 		.ascii	"ch_mutex\000"
 4792      75746578 
 4792      00
 4793              	.LASF36:
 4794 0769 705F7265 		.ascii	"p_refs\000"
 4794      667300
 4795              	.LASF74:
 4796 0770 6973725F 		.ascii	"isr_cnt\000"
 4796      636E7400 
 4797              	.LASF25:
 4798 0778 74687265 		.ascii	"thread_t\000"
 4798      61645F74 
 4798      00
 4799              	.LASF79:
 4800 0781 726C6973 		.ascii	"rlist\000"
 4800      7400
ARM GAS  C:\Users\Luis\AppData\Local\Temp\cckNqlc0.s 			page 92


 4801              	.LASF138:
 4802 0787 63685468 		.ascii	"chThdGetSelfX\000"
 4802      64476574 
 4802      53656C66 
 4802      5800
 4803              	.LASF3:
 4804 0795 75696E74 		.ascii	"uint8_t\000"
 4804      385F7400 
 4805              	.LASF73:
 4806 079d 70616E69 		.ascii	"panic_msg\000"
 4806      635F6D73 
 4806      6700
 4807              	.LASF156:
 4808 07a7 6D747838 		.ascii	"mtx8_setup\000"
 4808      5F736574 
 4808      757000
 4809              	.LASF112:
 4810 07b2 77746F62 		.ascii	"wtobjp\000"
 4810      6A7000
 4811              	.LASF32:
 4812 07b9 705F6E61 		.ascii	"p_name\000"
 4812      6D6500
 4813              	.LASF47:
 4814 07c0 74687265 		.ascii	"threads_list_t\000"
 4814      6164735F 
 4814      6C697374 
 4814      5F7400
 4815              	.LASF76:
 4816 07cf 74726163 		.ascii	"trace_buffer\000"
 4816      655F6275 
 4816      66666572 
 4816      00
 4817              	.LASF137:
 4818 07dc 63685379 		.ascii	"chSysUnlock\000"
 4818      73556E6C 
 4818      6F636B00 
 4819              	.LASF39:
 4820 07e8 705F6D73 		.ascii	"p_msg\000"
 4820      6700
 4821              	.LASF107:
 4822 07ee 6D5F6372 		.ascii	"m_crit_thd\000"
 4822      69745F74 
 4822      686400
 4823              	.LASF122:
 4824 07f9 6D5F6F77 		.ascii	"m_owner\000"
 4824      6E657200 
 4825              	.LASF91:
 4826 0801 73655F77 		.ascii	"se_wtobjp\000"
 4826      746F626A 
 4826      7000
 4827              	.LASF29:
 4828 080b 705F6374 		.ascii	"p_ctx\000"
 4828      7800
 4829              	.LASF66:
 4830 0811 76745F66 		.ascii	"vt_func\000"
 4830      756E6300 
 4831              		.ident	"GCC: (GNU Tools for ARM Embedded Processors) 4.8.3 20131129 (release) [ARM/embedded-4_8-br
ARM GAS  C:\Users\Luis\AppData\Local\Temp\cckNqlc0.s 			page 93


ARM GAS  C:\Users\Luis\AppData\Local\Temp\cckNqlc0.s 			page 94


DEFINED SYMBOLS
                            *ABS*:00000000 testmtx.c
C:\Users\Luis\AppData\Local\Temp\cckNqlc0.s:19     .text.port_lock:00000000 $t
C:\Users\Luis\AppData\Local\Temp\cckNqlc0.s:24     .text.port_lock:00000000 port_lock
C:\Users\Luis\AppData\Local\Temp\cckNqlc0.s:62     .text.port_unlock:00000000 $t
C:\Users\Luis\AppData\Local\Temp\cckNqlc0.s:67     .text.port_unlock:00000000 port_unlock
C:\Users\Luis\AppData\Local\Temp\cckNqlc0.s:103    .text.queue_isempty:00000000 $t
C:\Users\Luis\AppData\Local\Temp\cckNqlc0.s:108    .text.queue_isempty:00000000 queue_isempty
C:\Users\Luis\AppData\Local\Temp\cckNqlc0.s:144    .text.chSysLock:00000000 $t
C:\Users\Luis\AppData\Local\Temp\cckNqlc0.s:149    .text.chSysLock:00000000 chSysLock
C:\Users\Luis\AppData\Local\Temp\cckNqlc0.s:174    .text.chSysUnlock:00000000 $t
C:\Users\Luis\AppData\Local\Temp\cckNqlc0.s:179    .text.chSysUnlock:00000000 chSysUnlock
C:\Users\Luis\AppData\Local\Temp\cckNqlc0.s:220    .text.chSysUnlock:00000034 $d
C:\Users\Luis\AppData\Local\Temp\cckNqlc0.s:2035   .rodata.__func__.5842:00000000 __func__.5842
C:\Users\Luis\AppData\Local\Temp\cckNqlc0.s:226    .text.chThdGetSelfX:00000000 $t
C:\Users\Luis\AppData\Local\Temp\cckNqlc0.s:231    .text.chThdGetSelfX:00000000 chThdGetSelfX
C:\Users\Luis\AppData\Local\Temp\cckNqlc0.s:256    .text.chThdGetSelfX:00000014 $d
C:\Users\Luis\AppData\Local\Temp\cckNqlc0.s:261    .text.chThdGetPriorityX:00000000 $t
C:\Users\Luis\AppData\Local\Temp\cckNqlc0.s:266    .text.chThdGetPriorityX:00000000 chThdGetPriorityX
C:\Users\Luis\AppData\Local\Temp\cckNqlc0.s:289    .data.m1:00000000 $d
C:\Users\Luis\AppData\Local\Temp\cckNqlc0.s:292    .data.m1:00000000 m1
C:\Users\Luis\AppData\Local\Temp\cckNqlc0.s:298    .data.m2:00000000 $d
C:\Users\Luis\AppData\Local\Temp\cckNqlc0.s:301    .data.m2:00000000 m2
C:\Users\Luis\AppData\Local\Temp\cckNqlc0.s:307    .data.c1:00000000 $d
C:\Users\Luis\AppData\Local\Temp\cckNqlc0.s:310    .data.c1:00000000 c1
C:\Users\Luis\AppData\Local\Temp\cckNqlc0.s:314    .text.mtx1_setup:00000000 $t
C:\Users\Luis\AppData\Local\Temp\cckNqlc0.s:319    .text.mtx1_setup:00000000 mtx1_setup
C:\Users\Luis\AppData\Local\Temp\cckNqlc0.s:340    .text.mtx1_setup:0000000c $d
C:\Users\Luis\AppData\Local\Temp\cckNqlc0.s:345    .text.thread1:00000000 $t
C:\Users\Luis\AppData\Local\Temp\cckNqlc0.s:350    .text.thread1:00000000 thread1
C:\Users\Luis\AppData\Local\Temp\cckNqlc0.s:384    .text.thread1:00000024 $d
C:\Users\Luis\AppData\Local\Temp\cckNqlc0.s:389    .rodata:00000000 $d
C:\Users\Luis\AppData\Local\Temp\cckNqlc0.s:408    .text.mtx1_execute:00000000 $t
C:\Users\Luis\AppData\Local\Temp\cckNqlc0.s:413    .text.mtx1_execute:00000000 mtx1_execute
C:\Users\Luis\AppData\Local\Temp\cckNqlc0.s:549    .text.mtx1_execute:000000f4 $d
C:\Users\Luis\AppData\Local\Temp\cckNqlc0.s:571    .rodata.testmtx1:00000000 testmtx1
C:\Users\Luis\AppData\Local\Temp\cckNqlc0.s:568    .rodata.testmtx1:00000000 $d
C:\Users\Luis\AppData\Local\Temp\cckNqlc0.s:577    .text.mtx4_setup:00000000 $t
C:\Users\Luis\AppData\Local\Temp\cckNqlc0.s:582    .text.mtx4_setup:00000000 mtx4_setup
C:\Users\Luis\AppData\Local\Temp\cckNqlc0.s:605    .text.mtx4_setup:00000014 $d
C:\Users\Luis\AppData\Local\Temp\cckNqlc0.s:611    .text.thread4a:00000000 $t
C:\Users\Luis\AppData\Local\Temp\cckNqlc0.s:616    .text.thread4a:00000000 thread4a
C:\Users\Luis\AppData\Local\Temp\cckNqlc0.s:648    .text.thread4a:00000024 $d
C:\Users\Luis\AppData\Local\Temp\cckNqlc0.s:653    .text.thread4b:00000000 $t
C:\Users\Luis\AppData\Local\Temp\cckNqlc0.s:658    .text.thread4b:00000000 thread4b
C:\Users\Luis\AppData\Local\Temp\cckNqlc0.s:690    .text.thread4b:00000024 $d
C:\Users\Luis\AppData\Local\Temp\cckNqlc0.s:695    .text.mtx4_execute:00000000 $t
C:\Users\Luis\AppData\Local\Temp\cckNqlc0.s:700    .text.mtx4_execute:00000000 mtx4_execute
C:\Users\Luis\AppData\Local\Temp\cckNqlc0.s:1059   .text.mtx4_execute:000002ac $d
C:\Users\Luis\AppData\Local\Temp\cckNqlc0.s:1071   .text.mtx4_execute:000002d4 $t
C:\Users\Luis\AppData\Local\Temp\cckNqlc0.s:1110   .rodata.testmtx4:00000000 testmtx4
C:\Users\Luis\AppData\Local\Temp\cckNqlc0.s:1107   .rodata.testmtx4:00000000 $d
C:\Users\Luis\AppData\Local\Temp\cckNqlc0.s:1116   .text.mtx5_setup:00000000 $t
C:\Users\Luis\AppData\Local\Temp\cckNqlc0.s:1121   .text.mtx5_setup:00000000 mtx5_setup
C:\Users\Luis\AppData\Local\Temp\cckNqlc0.s:1141   .text.mtx5_setup:0000000c $d
C:\Users\Luis\AppData\Local\Temp\cckNqlc0.s:1146   .text.mtx5_execute:00000000 $t
C:\Users\Luis\AppData\Local\Temp\cckNqlc0.s:1151   .text.mtx5_execute:00000000 mtx5_execute
ARM GAS  C:\Users\Luis\AppData\Local\Temp\cckNqlc0.s 			page 95


C:\Users\Luis\AppData\Local\Temp\cckNqlc0.s:1307   .text.mtx5_execute:00000108 $d
C:\Users\Luis\AppData\Local\Temp\cckNqlc0.s:1320   .rodata.testmtx5:00000000 testmtx5
C:\Users\Luis\AppData\Local\Temp\cckNqlc0.s:1317   .rodata.testmtx5:00000000 $d
C:\Users\Luis\AppData\Local\Temp\cckNqlc0.s:1326   .text.mtx6_setup:00000000 $t
C:\Users\Luis\AppData\Local\Temp\cckNqlc0.s:1331   .text.mtx6_setup:00000000 mtx6_setup
C:\Users\Luis\AppData\Local\Temp\cckNqlc0.s:1354   .text.mtx6_setup:00000014 $d
C:\Users\Luis\AppData\Local\Temp\cckNqlc0.s:1360   .text.thread10:00000000 $t
C:\Users\Luis\AppData\Local\Temp\cckNqlc0.s:1365   .text.thread10:00000000 thread10
C:\Users\Luis\AppData\Local\Temp\cckNqlc0.s:1402   .text.thread10:0000002c $d
C:\Users\Luis\AppData\Local\Temp\cckNqlc0.s:1408   .text.mtx6_execute:00000000 $t
C:\Users\Luis\AppData\Local\Temp\cckNqlc0.s:1413   .text.mtx6_execute:00000000 mtx6_execute
C:\Users\Luis\AppData\Local\Temp\cckNqlc0.s:1546   .text.mtx6_execute:000000f0 $d
C:\Users\Luis\AppData\Local\Temp\cckNqlc0.s:1568   .rodata.testmtx6:00000000 testmtx6
C:\Users\Luis\AppData\Local\Temp\cckNqlc0.s:1565   .rodata.testmtx6:00000000 $d
C:\Users\Luis\AppData\Local\Temp\cckNqlc0.s:1574   .text.mtx7_setup:00000000 $t
C:\Users\Luis\AppData\Local\Temp\cckNqlc0.s:1579   .text.mtx7_setup:00000000 mtx7_setup
C:\Users\Luis\AppData\Local\Temp\cckNqlc0.s:1602   .text.mtx7_setup:00000014 $d
C:\Users\Luis\AppData\Local\Temp\cckNqlc0.s:1608   .text.mtx7_execute:00000000 $t
C:\Users\Luis\AppData\Local\Temp\cckNqlc0.s:1613   .text.mtx7_execute:00000000 mtx7_execute
C:\Users\Luis\AppData\Local\Temp\cckNqlc0.s:1728   .text.mtx7_execute:000000cc $d
C:\Users\Luis\AppData\Local\Temp\cckNqlc0.s:1750   .rodata.testmtx7:00000000 testmtx7
C:\Users\Luis\AppData\Local\Temp\cckNqlc0.s:1747   .rodata.testmtx7:00000000 $d
C:\Users\Luis\AppData\Local\Temp\cckNqlc0.s:1756   .text.mtx8_setup:00000000 $t
C:\Users\Luis\AppData\Local\Temp\cckNqlc0.s:1761   .text.mtx8_setup:00000000 mtx8_setup
C:\Users\Luis\AppData\Local\Temp\cckNqlc0.s:1787   .text.mtx8_setup:00000018 $d
C:\Users\Luis\AppData\Local\Temp\cckNqlc0.s:1794   .text.thread11:00000000 $t
C:\Users\Luis\AppData\Local\Temp\cckNqlc0.s:1799   .text.thread11:00000000 thread11
C:\Users\Luis\AppData\Local\Temp\cckNqlc0.s:1843   .text.thread11:0000003c $d
C:\Users\Luis\AppData\Local\Temp\cckNqlc0.s:1850   .text.thread12:00000000 $t
C:\Users\Luis\AppData\Local\Temp\cckNqlc0.s:1855   .text.thread12:00000000 thread12
C:\Users\Luis\AppData\Local\Temp\cckNqlc0.s:1889   .text.thread12:00000024 $d
C:\Users\Luis\AppData\Local\Temp\cckNqlc0.s:1898   .text.mtx8_execute:00000000 $t
C:\Users\Luis\AppData\Local\Temp\cckNqlc0.s:1903   .text.mtx8_execute:00000000 mtx8_execute
C:\Users\Luis\AppData\Local\Temp\cckNqlc0.s:1991   .text.mtx8_execute:00000094 $d
C:\Users\Luis\AppData\Local\Temp\cckNqlc0.s:2013   .rodata.testmtx8:00000000 testmtx8
C:\Users\Luis\AppData\Local\Temp\cckNqlc0.s:2010   .rodata.testmtx8:00000000 $d
C:\Users\Luis\AppData\Local\Temp\cckNqlc0.s:2023   .rodata.patternmtx:00000000 patternmtx
C:\Users\Luis\AppData\Local\Temp\cckNqlc0.s:2020   .rodata.patternmtx:00000000 $d
C:\Users\Luis\AppData\Local\Temp\cckNqlc0.s:2032   .rodata.__func__.5842:00000000 $d
                     .debug_frame:00000010 $d
C:\Users\Luis\AppData\Local\Temp\cckNqlc0.s:225    .text.chSysUnlock:0000003c $t
C:\Users\Luis\AppData\Local\Temp\cckNqlc0.s:260    .text.chThdGetSelfX:00000018 $t
C:\Users\Luis\AppData\Local\Temp\cckNqlc0.s:388    .text.thread1:00000028 $t
C:\Users\Luis\AppData\Local\Temp\cckNqlc0.s:563    .text.mtx1_execute:0000011c $t
C:\Users\Luis\AppData\Local\Temp\cckNqlc0.s:610    .text.mtx4_setup:0000001c $t
C:\Users\Luis\AppData\Local\Temp\cckNqlc0.s:652    .text.thread4a:00000028 $t
C:\Users\Luis\AppData\Local\Temp\cckNqlc0.s:694    .text.thread4b:00000028 $t
C:\Users\Luis\AppData\Local\Temp\cckNqlc0.s:1312   .text.mtx5_execute:0000010c $t
C:\Users\Luis\AppData\Local\Temp\cckNqlc0.s:1359   .text.mtx6_setup:0000001c $t
C:\Users\Luis\AppData\Local\Temp\cckNqlc0.s:1407   .text.thread10:00000034 $t
C:\Users\Luis\AppData\Local\Temp\cckNqlc0.s:1560   .text.mtx6_execute:00000118 $t
C:\Users\Luis\AppData\Local\Temp\cckNqlc0.s:1607   .text.mtx7_setup:0000001c $t
C:\Users\Luis\AppData\Local\Temp\cckNqlc0.s:1742   .text.mtx7_execute:000000f4 $t
C:\Users\Luis\AppData\Local\Temp\cckNqlc0.s:1793   .text.mtx8_setup:00000024 $t
C:\Users\Luis\AppData\Local\Temp\cckNqlc0.s:1849   .text.thread11:00000048 $t
C:\Users\Luis\AppData\Local\Temp\cckNqlc0.s:1893   .text.thread12:00000028 $t
C:\Users\Luis\AppData\Local\Temp\cckNqlc0.s:2005   .text.mtx8_execute:000000bc $t
ARM GAS  C:\Users\Luis\AppData\Local\Temp\cckNqlc0.s 			page 96



UNDEFINED SYMBOLS
_stats_start_measure_crit_thd
_dbg_check_lock
_dbg_check_unlock
_stats_stop_measure_crit_thd
chSysHalt
ch
chMtxObjectInit
chMtxLock
test_emit_token
chMtxUnlock
chThdCreateStatic
test_wait_threads
_test_assert
_test_assert_sequence
wa
threads
chThdSleep
chMtxUnlockAll
chMtxUnlockS
chSchRescheduleS
chMtxTryLock
chCondObjectInit
chCondWait
chCondSignalI
chCondBroadcast
chCondWaitTimeout
chCondSignal
