ARM GAS  C:\Users\Luis\AppData\Local\Temp\cc1GCLAh.s 			page 1


   1              		.syntax unified
   2              		.cpu cortex-m4
   3              		.fpu softvfp
   4              		.eabi_attribute 20, 1
   5              		.eabi_attribute 21, 1
   6              		.eabi_attribute 23, 3
   7              		.eabi_attribute 24, 1
   8              		.eabi_attribute 25, 1
   9              		.eabi_attribute 26, 1
  10              		.eabi_attribute 30, 6
  11              		.eabi_attribute 34, 1
  12              		.eabi_attribute 18, 4
  13              		.thumb
  14              		.file	"testmsg.c"
  15              		.text
  16              	.Ltext0:
  17              		.cfi_sections	.debug_frame
  18              		.section	.text.chThdGetSelfX,"ax",%progbits
  19              		.align	2
  20              		.p2align 4,,15
  21              		.thumb
  22              		.thumb_func
  23              		.type	chThdGetSelfX, %function
  24              	chThdGetSelfX:
  25              	.LFB177:
  26              		.file 1 "../../ChibiOS/os/rt/include/chthreads.h"
  27              		.loc 1 174 0
  28              		.cfi_startproc
  29              		@ args = 0, pretend = 0, frame = 0
  30              		@ frame_needed = 1, uses_anonymous_args = 0
  31              		@ link register save eliminated.
  32 0000 80B4     		push	{r7}
  33              		.cfi_def_cfa_offset 4
  34              		.cfi_offset 7, -4
  35 0002 00AF     		add	r7, sp, #0
  36              		.cfi_def_cfa_register 7
  37              		.loc 1 176 0
  38 0004 034B     		ldr	r3, .L3
  39 0006 9B69     		ldr	r3, [r3, #24]
  40              		.loc 1 177 0
  41 0008 1846     		mov	r0, r3
  42 000a BD46     		mov	sp, r7
  43              		@ sp needed
  44 000c 5DF8047B 		ldr	r7, [sp], #4
  45 0010 7047     		bx	lr
  46              	.L4:
  47 0012 00BF     		.align	2
  48              	.L3:
  49 0014 00000000 		.word	ch
  50              		.cfi_endproc
  51              	.LFE177:
  52              		.size	chThdGetSelfX, .-chThdGetSelfX
  53 0018 AFF30080 		.section	.text.chThdGetPriorityX,"ax",%progbits
  53      AFF30080 
  54              		.align	2
  55              		.p2align 4,,15
  56              		.thumb
ARM GAS  C:\Users\Luis\AppData\Local\Temp\cc1GCLAh.s 			page 2


  57              		.thumb_func
  58              		.type	chThdGetPriorityX, %function
  59              	chThdGetPriorityX:
  60              	.LFB178:
  61              		.loc 1 187 0
  62              		.cfi_startproc
  63              		@ args = 0, pretend = 0, frame = 0
  64              		@ frame_needed = 1, uses_anonymous_args = 0
  65 0000 80B5     		push	{r7, lr}
  66              		.cfi_def_cfa_offset 8
  67              		.cfi_offset 7, -8
  68              		.cfi_offset 14, -4
  69 0002 00AF     		add	r7, sp, #0
  70              		.cfi_def_cfa_register 7
  71              		.loc 1 189 0
  72 0004 FFF7FEFF 		bl	chThdGetSelfX
  73 0008 0346     		mov	r3, r0
  74 000a 9B68     		ldr	r3, [r3, #8]
  75              		.loc 1 190 0
  76 000c 1846     		mov	r0, r3
  77 000e 80BD     		pop	{r7, pc}
  78              		.cfi_endproc
  79              	.LFE178:
  80              		.size	chThdGetPriorityX, .-chThdGetPriorityX
  81              		.section	.text.chMsgGet,"ax",%progbits
  82              		.align	2
  83              		.p2align 4,,15
  84              		.thumb
  85              		.thumb_func
  86              		.type	chMsgGet, %function
  87              	chMsgGet:
  88              	.LFB211:
  89              		.file 2 "../../ChibiOS/os/rt/include/chmsg.h"
  90              		.loc 2 96 0
  91              		.cfi_startproc
  92              		@ args = 0, pretend = 0, frame = 8
  93              		@ frame_needed = 1, uses_anonymous_args = 0
  94              		@ link register save eliminated.
  95 0000 80B4     		push	{r7}
  96              		.cfi_def_cfa_offset 4
  97              		.cfi_offset 7, -4
  98 0002 83B0     		sub	sp, sp, #12
  99              		.cfi_def_cfa_offset 16
 100 0004 00AF     		add	r7, sp, #0
 101              		.cfi_def_cfa_register 7
 102 0006 7860     		str	r0, [r7, #4]
 103              		.loc 2 98 0
 104 0008 7B68     		ldr	r3, [r7, #4]
 105 000a 5B6B     		ldr	r3, [r3, #52]
 106              		.loc 2 99 0
 107 000c 1846     		mov	r0, r3
 108 000e 0C37     		adds	r7, r7, #12
 109 0010 BD46     		mov	sp, r7
 110              		@ sp needed
 111 0012 5DF8047B 		ldr	r7, [sp], #4
 112 0016 7047     		bx	lr
 113              		.cfi_endproc
ARM GAS  C:\Users\Luis\AppData\Local\Temp\cc1GCLAh.s 			page 3


 114              	.LFE211:
 115              		.size	chMsgGet, .-chMsgGet
 116 0018 AFF30080 		.section	.text.thread,"ax",%progbits
 116      AFF30080 
 117              		.align	2
 118              		.p2align 4,,15
 119              		.thumb
 120              		.thumb_func
 121              		.type	thread, %function
 122              	thread:
 123              	.LFB229:
 124              		.file 3 "../../ChibiOS/test/rt/testmsg.c"
 125              		.loc 3 59 0
 126              		.cfi_startproc
 127              		@ args = 0, pretend = 0, frame = 8
 128              		@ frame_needed = 1, uses_anonymous_args = 0
 129 0000 80B5     		push	{r7, lr}
 130              		.cfi_def_cfa_offset 8
 131              		.cfi_offset 7, -8
 132              		.cfi_offset 14, -4
 133 0002 82B0     		sub	sp, sp, #8
 134              		.cfi_def_cfa_offset 16
 135 0004 00AF     		add	r7, sp, #0
 136              		.cfi_def_cfa_register 7
 137 0006 7860     		str	r0, [r7, #4]
 138              		.loc 3 61 0
 139 0008 7868     		ldr	r0, [r7, #4]
 140 000a 4121     		movs	r1, #65
 141 000c FFF7FEFF 		bl	chMsgSend
 142              		.loc 3 62 0
 143 0010 7868     		ldr	r0, [r7, #4]
 144 0012 4221     		movs	r1, #66
 145 0014 FFF7FEFF 		bl	chMsgSend
 146              		.loc 3 63 0
 147 0018 7868     		ldr	r0, [r7, #4]
 148 001a 4321     		movs	r1, #67
 149 001c FFF7FEFF 		bl	chMsgSend
 150              		.loc 3 64 0
 151 0020 0837     		adds	r7, r7, #8
 152 0022 BD46     		mov	sp, r7
 153              		@ sp needed
 154 0024 80BD     		pop	{r7, pc}
 155              		.cfi_endproc
 156              	.LFE229:
 157              		.size	thread, .-thread
 158 0026 00BFAFF3 		.section	.rodata
 158      0080AFF3 
 158      0080
 159              		.align	2
 160              	.LC0:
 161 0000 41424300 		.ascii	"ABC\000"
 162              		.section	.text.msg1_execute,"ax",%progbits
 163              		.align	2
 164              		.p2align 4,,15
 165              		.thumb
 166              		.thumb_func
 167              		.type	msg1_execute, %function
ARM GAS  C:\Users\Luis\AppData\Local\Temp\cc1GCLAh.s 			page 4


 168              	msg1_execute:
 169              	.LFB230:
 170              		.loc 3 66 0
 171              		.cfi_startproc
 172              		@ args = 0, pretend = 0, frame = 8
 173              		@ frame_needed = 1, uses_anonymous_args = 0
 174 0000 B0B5     		push	{r4, r5, r7, lr}
 175              		.cfi_def_cfa_offset 16
 176              		.cfi_offset 4, -16
 177              		.cfi_offset 5, -12
 178              		.cfi_offset 7, -8
 179              		.cfi_offset 14, -4
 180 0002 84B0     		sub	sp, sp, #16
 181              		.cfi_def_cfa_offset 32
 182 0004 02AF     		add	r7, sp, #8
 183              		.cfi_def_cfa 7, 24
 184              		.loc 3 73 0
 185 0006 274B     		ldr	r3, .L12
 186 0008 1D68     		ldr	r5, [r3]
 187 000a FFF7FEFF 		bl	chThdGetPriorityX
 188 000e 0346     		mov	r3, r0
 189 0010 5C1C     		adds	r4, r3, #1
 190              		.loc 3 74 0
 191 0012 FFF7FEFF 		bl	chThdGetSelfX
 192 0016 0346     		mov	r3, r0
 193              		.loc 3 73 0
 194 0018 0093     		str	r3, [sp]
 195 001a 2846     		mov	r0, r5
 196 001c 4FF4B871 		mov	r1, #368
 197 0020 2246     		mov	r2, r4
 198 0022 214B     		ldr	r3, .L12+4
 199 0024 FFF7FEFF 		bl	chThdCreateStatic
 200 0028 0246     		mov	r2, r0
 201 002a 204B     		ldr	r3, .L12+8
 202 002c 1A60     		str	r2, [r3]
 203              		.loc 3 75 0
 204 002e FFF7FEFF 		bl	chMsgWait
 205 0032 7860     		str	r0, [r7, #4]
 206              		.loc 3 76 0
 207 0034 7868     		ldr	r0, [r7, #4]
 208 0036 FFF7FEFF 		bl	chMsgGet
 209 003a 3860     		str	r0, [r7]
 210              		.loc 3 77 0
 211 003c 7868     		ldr	r0, [r7, #4]
 212 003e 3968     		ldr	r1, [r7]
 213 0040 FFF7FEFF 		bl	chMsgRelease
 214              		.loc 3 78 0
 215 0044 3B68     		ldr	r3, [r7]
 216 0046 DBB2     		uxtb	r3, r3
 217 0048 1846     		mov	r0, r3
 218 004a FFF7FEFF 		bl	test_emit_token
 219              		.loc 3 79 0
 220 004e FFF7FEFF 		bl	chMsgWait
 221 0052 7860     		str	r0, [r7, #4]
 222              		.loc 3 80 0
 223 0054 7868     		ldr	r0, [r7, #4]
 224 0056 FFF7FEFF 		bl	chMsgGet
ARM GAS  C:\Users\Luis\AppData\Local\Temp\cc1GCLAh.s 			page 5


 225 005a 3860     		str	r0, [r7]
 226              		.loc 3 81 0
 227 005c 7868     		ldr	r0, [r7, #4]
 228 005e 3968     		ldr	r1, [r7]
 229 0060 FFF7FEFF 		bl	chMsgRelease
 230              		.loc 3 82 0
 231 0064 3B68     		ldr	r3, [r7]
 232 0066 DBB2     		uxtb	r3, r3
 233 0068 1846     		mov	r0, r3
 234 006a FFF7FEFF 		bl	test_emit_token
 235              		.loc 3 83 0
 236 006e FFF7FEFF 		bl	chMsgWait
 237 0072 7860     		str	r0, [r7, #4]
 238              		.loc 3 84 0
 239 0074 7868     		ldr	r0, [r7, #4]
 240 0076 FFF7FEFF 		bl	chMsgGet
 241 007a 3860     		str	r0, [r7]
 242              		.loc 3 85 0
 243 007c 7868     		ldr	r0, [r7, #4]
 244 007e 3968     		ldr	r1, [r7]
 245 0080 FFF7FEFF 		bl	chMsgRelease
 246              		.loc 3 86 0
 247 0084 3B68     		ldr	r3, [r7]
 248 0086 DBB2     		uxtb	r3, r3
 249 0088 1846     		mov	r0, r3
 250 008a FFF7FEFF 		bl	test_emit_token
 251              		.loc 3 87 0
 252 008e 0120     		movs	r0, #1
 253 0090 0749     		ldr	r1, .L12+12
 254 0092 FFF7FEFF 		bl	_test_assert_sequence
 255 0096 0346     		mov	r3, r0
 256 0098 002B     		cmp	r3, #0
 257 009a 00D0     		beq	.L10
 258              		.loc 3 87 0 is_stmt 0 discriminator 1
 259 009c 00BF     		nop
 260              	.L10:
 261              		.loc 3 88 0 is_stmt 1
 262 009e 0837     		adds	r7, r7, #8
 263 00a0 BD46     		mov	sp, r7
 264              		@ sp needed
 265 00a2 B0BD     		pop	{r4, r5, r7, pc}
 266              	.L13:
 267              		.align	2
 268              	.L12:
 269 00a4 00000000 		.word	wa
 270 00a8 00000000 		.word	thread
 271 00ac 00000000 		.word	threads
 272 00b0 00000000 		.word	.LC0
 273              		.cfi_endproc
 274              	.LFE230:
 275              		.size	msg1_execute, .-msg1_execute
 276              		.global	testmsg1
 277 00b4 AFF30080 		.section	.rodata
 277      AFF30080 
 277      AFF30080 
 278              		.align	2
 279              	.LC1:
ARM GAS  C:\Users\Luis\AppData\Local\Temp\cc1GCLAh.s 			page 6


 280 0004 4D657373 		.ascii	"Messages, loop\000"
 280      61676573 
 280      2C206C6F 
 280      6F7000
 281 0013 00       		.section	.rodata.testmsg1,"a",%progbits
 282              		.align	2
 283              		.type	testmsg1, %object
 284              		.size	testmsg1, 16
 285              	testmsg1:
 286 0000 04000000 		.word	.LC1
 287 0004 00000000 		.word	0
 288 0008 00000000 		.word	0
 289 000c 00000000 		.word	msg1_execute
 290              		.global	patternmsg
 291              		.section	.rodata.patternmsg,"a",%progbits
 292              		.align	2
 293              		.type	patternmsg, %object
 294              		.size	patternmsg, 8
 295              	patternmsg:
 296 0000 00000000 		.word	testmsg1
 297 0004 00000000 		.word	0
 298              		.text
 299              	.Letext0:
 300              		.file 4 "c:\\emtechesdk\\gcc\\lib\\gcc\\arm-none-eabi\\4.8.3\\include\\stddef.h"
 301              		.file 5 "c:\\emtechesdk\\gcc\\arm-none-eabi\\include\\stdint.h"
 302              		.file 6 "../../ChibiOS/os/rt/ports/ARMCMx/compilers/GCC/chtypes.h"
 303              		.file 7 "../../ChibiOS/os/rt/include/chsystypes.h"
 304              		.file 8 "../../ChibiOS/os/rt/include/chschd.h"
 305              		.file 9 "../../ChibiOS/os/rt/ports/ARMCMx/chcore.h"
 306              		.file 10 "../../ChibiOS/os/rt/ports/ARMCMx/chcore_v7m.h"
 307              		.file 11 "../../ChibiOS/os/rt/include/chdebug.h"
 308              		.file 12 "../../ChibiOS/os/rt/include/chtm.h"
 309              		.file 13 "../../ChibiOS/os/rt/include/chstats.h"
 310              		.file 14 "../../ChibiOS/os/rt/include/chsem.h"
 311              		.file 15 "../../ChibiOS/os/rt/include/chmtx.h"
 312              		.file 16 "../../ChibiOS/test/rt/test.h"
 313              		.file 17 "../../ChibiOS/os/ext/CMSIS/include/core_cm4.h"