ARM GAS  C:\Users\Luis\AppData\Local\Temp\ccB0PfuY.s 			page 1


   1              		.syntax unified
   2              		.cpu cortex-m4
   3              		.fpu softvfp
   4              		.eabi_attribute 20, 1
   5              		.eabi_attribute 21, 1
   6              		.eabi_attribute 23, 3
   7              		.eabi_attribute 24, 1
   8              		.eabi_attribute 25, 1
   9              		.eabi_attribute 26, 1
  10              		.eabi_attribute 30, 6
  11              		.eabi_attribute 34, 1
  12              		.eabi_attribute 18, 4
  13              		.thumb
  14              		.file	"usb.c"
  15              		.text
  16              	.Ltext0:
  17              		.cfi_sections	.debug_frame
  18              		.section	.text.port_lock,"ax",%progbits
  19              		.align	2
  20              		.p2align 4,,15
  21              		.thumb
  22              		.thumb_func
  23              		.type	port_lock, %function
  24              	port_lock:
  25              	.LFB116:
  26              		.file 1 "../../ChibiOS/os/rt/ports/ARMCMx/chcore_v7m.h"
  27              		.loc 1 444 0
  28              		.cfi_startproc
  29              		@ args = 0, pretend = 0, frame = 8
  30              		@ frame_needed = 1, uses_anonymous_args = 0
  31              		@ link register save eliminated.
  32 0000 80B4     		push	{r7}
  33              		.cfi_def_cfa_offset 4
  34              		.cfi_offset 7, -4
  35 0002 83B0     		sub	sp, sp, #12
  36              		.cfi_def_cfa_offset 16
  37 0004 00AF     		add	r7, sp, #0
  38              		.cfi_def_cfa_register 7
  39 0006 2023     		movs	r3, #32
  40 0008 7B60     		str	r3, [r7, #4]
  41              	.LBB6:
  42              	.LBB7:
  43              		.file 2 "../../ChibiOS/os/ext/CMSIS/include/core_cmFunc.h"
  44              		.loc 2 546 0
  45 000a 7B68     		ldr	r3, [r7, #4]
  46              	@ 546 "../../ChibiOS/os/ext/CMSIS/include/core_cmFunc.h" 1
  47 000c 83F31188 		MSR basepri, r3
  48              	@ 0 "" 2
  49              		.thumb
  50              	.LBE7:
  51              	.LBE6:
  52              		.loc 1 451 0
  53 0010 0C37     		adds	r7, r7, #12
  54 0012 BD46     		mov	sp, r7
  55              		@ sp needed
  56 0014 5DF8047B 		ldr	r7, [sp], #4
  57 0018 7047     		bx	lr
ARM GAS  C:\Users\Luis\AppData\Local\Temp\ccB0PfuY.s 			page 2


  58              		.cfi_endproc
  59              	.LFE116:
  60              		.size	port_lock, .-port_lock
  61 001a 00BFAFF3 		.section	.text.port_unlock,"ax",%progbits
  61      0080
  62              		.align	2
  63              		.p2align 4,,15
  64              		.thumb
  65              		.thumb_func
  66              		.type	port_unlock, %function
  67              	port_unlock:
  68              	.LFB117:
  69              		.loc 1 458 0
  70              		.cfi_startproc
  71              		@ args = 0, pretend = 0, frame = 8
  72              		@ frame_needed = 1, uses_anonymous_args = 0
  73              		@ link register save eliminated.
  74 0000 80B4     		push	{r7}
  75              		.cfi_def_cfa_offset 4
  76              		.cfi_offset 7, -4
  77 0002 83B0     		sub	sp, sp, #12
  78              		.cfi_def_cfa_offset 16
  79 0004 00AF     		add	r7, sp, #0
  80              		.cfi_def_cfa_register 7
  81 0006 0023     		movs	r3, #0
  82 0008 7B60     		str	r3, [r7, #4]
  83              	.LBB8:
  84              	.LBB9:
  85              		.loc 2 546 0
  86 000a 7B68     		ldr	r3, [r7, #4]
  87              	@ 546 "../../ChibiOS/os/ext/CMSIS/include/core_cmFunc.h" 1
  88 000c 83F31188 		MSR basepri, r3
  89              	@ 0 "" 2
  90              		.thumb
  91              	.LBE9:
  92              	.LBE8:
  93              		.loc 1 465 0
  94 0010 0C37     		adds	r7, r7, #12
  95 0012 BD46     		mov	sp, r7
  96              		@ sp needed
  97 0014 5DF8047B 		ldr	r7, [sp], #4
  98 0018 7047     		bx	lr
  99              		.cfi_endproc
 100              	.LFE117:
 101              		.size	port_unlock, .-port_unlock
 102 001a 00BFAFF3 		.section	.text.port_lock_from_isr,"ax",%progbits
 102      0080
 103              		.align	2
 104              		.p2align 4,,15
 105              		.thumb
 106              		.thumb_func
 107              		.type	port_lock_from_isr, %function
 108              	port_lock_from_isr:
 109              	.LFB118:
 110              		.loc 1 473 0
 111              		.cfi_startproc
 112              		@ args = 0, pretend = 0, frame = 0
ARM GAS  C:\Users\Luis\AppData\Local\Temp\ccB0PfuY.s 			page 3


 113              		@ frame_needed = 1, uses_anonymous_args = 0
 114 0000 80B5     		push	{r7, lr}
 115              		.cfi_def_cfa_offset 8
 116              		.cfi_offset 7, -8
 117              		.cfi_offset 14, -4
 118 0002 00AF     		add	r7, sp, #0
 119              		.cfi_def_cfa_register 7
 120              		.loc 1 475 0
 121 0004 FFF7FEFF 		bl	port_lock
 122              		.loc 1 476 0
 123 0008 80BD     		pop	{r7, pc}
 124              		.cfi_endproc
 125              	.LFE118:
 126              		.size	port_lock_from_isr, .-port_lock_from_isr
 127 000a 00BFAFF3 		.section	.text.port_unlock_from_isr,"ax",%progbits
 127      0080
 128              		.align	2
 129              		.p2align 4,,15
 130              		.thumb
 131              		.thumb_func
 132              		.type	port_unlock_from_isr, %function
 133              	port_unlock_from_isr:
 134              	.LFB119:
 135              		.loc 1 484 0
 136              		.cfi_startproc
 137              		@ args = 0, pretend = 0, frame = 0
 138              		@ frame_needed = 1, uses_anonymous_args = 0
 139 0000 80B5     		push	{r7, lr}
 140              		.cfi_def_cfa_offset 8
 141              		.cfi_offset 7, -8
 142              		.cfi_offset 14, -4
 143 0002 00AF     		add	r7, sp, #0
 144              		.cfi_def_cfa_register 7
 145              		.loc 1 486 0
 146 0004 FFF7FEFF 		bl	port_unlock
 147              		.loc 1 487 0
 148 0008 80BD     		pop	{r7, pc}
 149              		.cfi_endproc
 150              	.LFE119:
 151              		.size	port_unlock_from_isr, .-port_unlock_from_isr
 152 000a 00BFAFF3 		.section	.text.chSysLock,"ax",%progbits
 152      0080
 153              		.align	2
 154              		.p2align 4,,15
 155              		.thumb
 156              		.thumb_func
 157              		.type	chSysLock, %function
 158              	chSysLock:
 159              	.LFB156:
 160              		.file 3 "../../ChibiOS/os/rt/include/chsys.h"
 161              		.loc 3 346 0
 162              		.cfi_startproc
 163              		@ args = 0, pretend = 0, frame = 0
 164              		@ frame_needed = 1, uses_anonymous_args = 0
 165 0000 80B5     		push	{r7, lr}
 166              		.cfi_def_cfa_offset 8
 167              		.cfi_offset 7, -8
ARM GAS  C:\Users\Luis\AppData\Local\Temp\ccB0PfuY.s 			page 4


 168              		.cfi_offset 14, -4
 169 0002 00AF     		add	r7, sp, #0
 170              		.cfi_def_cfa_register 7
 171              		.loc 3 348 0
 172 0004 FFF7FEFF 		bl	port_lock
 173              		.loc 3 349 0
 174 0008 FFF7FEFF 		bl	_stats_start_measure_crit_thd
 175              		.loc 3 350 0
 176 000c FFF7FEFF 		bl	_dbg_check_lock
 177              		.loc 3 351 0
 178 0010 80BD     		pop	{r7, pc}
 179              		.cfi_endproc
 180              	.LFE156:
 181              		.size	chSysLock, .-chSysLock
 182 0012 00BFAFF3 		.section	.text.chSysUnlock,"ax",%progbits
 182      0080AFF3 
 182      0080AFF3 
 182      0080
 183              		.align	2
 184              		.p2align 4,,15
 185              		.thumb
 186              		.thumb_func
 187              		.type	chSysUnlock, %function
 188              	chSysUnlock:
 189              	.LFB157:
 190              		.loc 3 358 0
 191              		.cfi_startproc
 192              		@ args = 0, pretend = 0, frame = 0
 193              		@ frame_needed = 1, uses_anonymous_args = 0
 194 0000 80B5     		push	{r7, lr}
 195              		.cfi_def_cfa_offset 8
 196              		.cfi_offset 7, -8
 197              		.cfi_offset 14, -4
 198 0002 00AF     		add	r7, sp, #0
 199              		.cfi_def_cfa_register 7
 200              		.loc 3 360 0
 201 0004 FFF7FEFF 		bl	_dbg_check_unlock
 202              		.loc 3 361 0
 203 0008 FFF7FEFF 		bl	_stats_stop_measure_crit_thd
 204              		.loc 3 367 0
 205 000c 094B     		ldr	r3, .L8
 206 000e 1A68     		ldr	r2, [r3]
 207 0010 084B     		ldr	r3, .L8
 208 0012 9A42     		cmp	r2, r3
 209 0014 0AD0     		beq	.L7
 210              		.loc 3 367 0 is_stmt 0 discriminator 1
 211 0016 074B     		ldr	r3, .L8
 212 0018 9B69     		ldr	r3, [r3, #24]
 213 001a 9A68     		ldr	r2, [r3, #8]
 214 001c 054B     		ldr	r3, .L8
 215 001e 1B68     		ldr	r3, [r3]
 216 0020 9B68     		ldr	r3, [r3, #8]
 217 0022 9A42     		cmp	r2, r3
 218 0024 02D2     		bcs	.L7
 219 0026 0448     		ldr	r0, .L8+4
 220 0028 FFF7FEFF 		bl	chSysHalt
 221              	.L7:
ARM GAS  C:\Users\Luis\AppData\Local\Temp\ccB0PfuY.s 			page 5


 222              		.loc 3 371 0 is_stmt 1
 223 002c FFF7FEFF 		bl	port_unlock
 224              		.loc 3 372 0
 225 0030 80BD     		pop	{r7, pc}
 226              	.L9:
 227 0032 00BF     		.align	2
 228              	.L8:
 229 0034 00000000 		.word	ch
 230 0038 00000000 		.word	__func__.6186
 231              		.cfi_endproc
 232              	.LFE157:
 233              		.size	chSysUnlock, .-chSysUnlock
 234 003c AFF30080 		.section	.text.chSysLockFromISR,"ax",%progbits
 235              		.align	2
 236              		.p2align 4,,15
 237              		.thumb
 238              		.thumb_func
 239              		.type	chSysLockFromISR, %function
 240              	chSysLockFromISR:
 241              	.LFB158:
 242              		.loc 3 386 0
 243              		.cfi_startproc
 244              		@ args = 0, pretend = 0, frame = 0
 245              		@ frame_needed = 1, uses_anonymous_args = 0
 246 0000 80B5     		push	{r7, lr}
 247              		.cfi_def_cfa_offset 8
 248              		.cfi_offset 7, -8
 249              		.cfi_offset 14, -4
 250 0002 00AF     		add	r7, sp, #0
 251              		.cfi_def_cfa_register 7
 252              		.loc 3 388 0
 253 0004 FFF7FEFF 		bl	port_lock_from_isr
 254              		.loc 3 389 0
 255 0008 FFF7FEFF 		bl	_stats_start_measure_crit_isr
 256              		.loc 3 390 0
 257 000c FFF7FEFF 		bl	_dbg_check_lock_from_isr
 258              		.loc 3 391 0
 259 0010 80BD     		pop	{r7, pc}
 260              		.cfi_endproc
 261              	.LFE158:
 262              		.size	chSysLockFromISR, .-chSysLockFromISR
 263 0012 00BFAFF3 		.section	.text.chSysUnlockFromISR,"ax",%progbits
 263      0080AFF3 
 263      0080AFF3 
 263      0080
 264              		.align	2
 265              		.p2align 4,,15
 266              		.thumb
 267              		.thumb_func
 268              		.type	chSysUnlockFromISR, %function
 269              	chSysUnlockFromISR:
 270              	.LFB159:
 271              		.loc 3 406 0
 272              		.cfi_startproc
 273              		@ args = 0, pretend = 0, frame = 0
 274              		@ frame_needed = 1, uses_anonymous_args = 0
 275 0000 80B5     		push	{r7, lr}
ARM GAS  C:\Users\Luis\AppData\Local\Temp\ccB0PfuY.s 			page 6


 276              		.cfi_def_cfa_offset 8
 277              		.cfi_offset 7, -8
 278              		.cfi_offset 14, -4
 279 0002 00AF     		add	r7, sp, #0
 280              		.cfi_def_cfa_register 7
 281              		.loc 3 408 0
 282 0004 FFF7FEFF 		bl	_dbg_check_unlock_from_isr
 283              		.loc 3 409 0
 284 0008 FFF7FEFF 		bl	_stats_stop_measure_crit_isr
 285              		.loc 3 410 0
 286 000c FFF7FEFF 		bl	port_unlock_from_isr
 287              		.loc 3 411 0
 288 0010 80BD     		pop	{r7, pc}
 289              		.cfi_endproc
 290              	.LFE159:
 291              		.size	chSysUnlockFromISR, .-chSysUnlockFromISR
 292 0012 00BFAFF3 		.section	.text.osalSysLock,"ax",%progbits
 292      0080AFF3 
 292      0080AFF3 
 292      0080
 293              		.align	2
 294              		.p2align 4,,15
 295              		.thumb
 296              		.thumb_func
 297              		.type	osalSysLock, %function
 298              	osalSysLock:
 299              	.LFB233:
 300              		.file 4 "../../ChibiOS/os/hal/osal/rt/osal.h"
 301              		.loc 4 491 0
 302              		.cfi_startproc
 303              		@ args = 0, pretend = 0, frame = 0
 304              		@ frame_needed = 1, uses_anonymous_args = 0
 305 0000 80B5     		push	{r7, lr}
 306              		.cfi_def_cfa_offset 8
 307              		.cfi_offset 7, -8
 308              		.cfi_offset 14, -4
 309 0002 00AF     		add	r7, sp, #0
 310              		.cfi_def_cfa_register 7
 311              		.loc 4 493 0
 312 0004 FFF7FEFF 		bl	chSysLock
 313              		.loc 4 494 0
 314 0008 80BD     		pop	{r7, pc}
 315              		.cfi_endproc
 316              	.LFE233:
 317              		.size	osalSysLock, .-osalSysLock
 318 000a 00BFAFF3 		.section	.text.osalSysUnlock,"ax",%progbits
 318      0080
 319              		.align	2
 320              		.p2align 4,,15
 321              		.thumb
 322              		.thumb_func
 323              		.type	osalSysUnlock, %function
 324              	osalSysUnlock:
 325              	.LFB234:
 326              		.loc 4 502 0
 327              		.cfi_startproc
 328              		@ args = 0, pretend = 0, frame = 0
ARM GAS  C:\Users\Luis\AppData\Local\Temp\ccB0PfuY.s 			page 7


 329              		@ frame_needed = 1, uses_anonymous_args = 0
 330 0000 80B5     		push	{r7, lr}
 331              		.cfi_def_cfa_offset 8
 332              		.cfi_offset 7, -8
 333              		.cfi_offset 14, -4
 334 0002 00AF     		add	r7, sp, #0
 335              		.cfi_def_cfa_register 7
 336              		.loc 4 504 0
 337 0004 FFF7FEFF 		bl	chSysUnlock
 338              		.loc 4 505 0
 339 0008 80BD     		pop	{r7, pc}
 340              		.cfi_endproc
 341              	.LFE234:
 342              		.size	osalSysUnlock, .-osalSysUnlock
 343 000a 00BFAFF3 		.section	.text.osalSysLockFromISR,"ax",%progbits
 343      0080
 344              		.align	2
 345              		.p2align 4,,15
 346              		.thumb
 347              		.thumb_func
 348              		.type	osalSysLockFromISR, %function
 349              	osalSysLockFromISR:
 350              	.LFB235:
 351              		.loc 4 513 0
 352              		.cfi_startproc
 353              		@ args = 0, pretend = 0, frame = 0
 354              		@ frame_needed = 1, uses_anonymous_args = 0
 355 0000 80B5     		push	{r7, lr}
 356              		.cfi_def_cfa_offset 8
 357              		.cfi_offset 7, -8
 358              		.cfi_offset 14, -4
 359 0002 00AF     		add	r7, sp, #0
 360              		.cfi_def_cfa_register 7
 361              		.loc 4 515 0
 362 0004 FFF7FEFF 		bl	chSysLockFromISR
 363              		.loc 4 516 0
 364 0008 80BD     		pop	{r7, pc}
 365              		.cfi_endproc
 366              	.LFE235:
 367              		.size	osalSysLockFromISR, .-osalSysLockFromISR
 368 000a 00BFAFF3 		.section	.text.osalSysUnlockFromISR,"ax",%progbits
 368      0080
 369              		.align	2
 370              		.p2align 4,,15
 371              		.thumb
 372              		.thumb_func
 373              		.type	osalSysUnlockFromISR, %function
 374              	osalSysUnlockFromISR:
 375              	.LFB236:
 376              		.loc 4 524 0
 377              		.cfi_startproc
 378              		@ args = 0, pretend = 0, frame = 0
 379              		@ frame_needed = 1, uses_anonymous_args = 0
 380 0000 80B5     		push	{r7, lr}
 381              		.cfi_def_cfa_offset 8
 382              		.cfi_offset 7, -8
 383              		.cfi_offset 14, -4
ARM GAS  C:\Users\Luis\AppData\Local\Temp\ccB0PfuY.s 			page 8


 384 0002 00AF     		add	r7, sp, #0
 385              		.cfi_def_cfa_register 7
 386              		.loc 4 526 0
 387 0004 FFF7FEFF 		bl	chSysUnlockFromISR
 388              		.loc 4 527 0
 389 0008 80BD     		pop	{r7, pc}
 390              		.cfi_endproc
 391              	.LFE236:
 392              		.size	osalSysUnlockFromISR, .-osalSysUnlockFromISR
 393 000a 00BFAFF3 		.section	.rodata.zero_status,"a",%progbits
 393      0080
 394              		.align	2
 395              		.type	zero_status, %object
 396              		.size	zero_status, 2
 397              	zero_status:
 398 0000 0000     		.space	2
 399 0002 0000     		.section	.rodata.active_status,"a",%progbits
 400              		.align	2
 401              		.type	active_status, %object
 402              		.size	active_status, 2
 403              	active_status:
 404 0000 0000     		.space	2
 405 0002 0000     		.section	.rodata.halted_status,"a",%progbits
 406              		.align	2
 407              		.type	halted_status, %object
 408              		.size	halted_status, 2
 409              	halted_status:
 410 0000 01       		.byte	1
 411 0001 00       		.byte	0
 412 0002 0000     		.section	.text.get_hword,"ax",%progbits
 413              		.align	2
 414              		.p2align 4,,15
 415              		.thumb
 416              		.thumb_func
 417              		.type	get_hword, %function
 418              	get_hword:
 419              	.LFB260:
 420              		.file 5 "../../ChibiOS/os/hal/src/usb.c"
 421              		.loc 5 51 0
 422              		.cfi_startproc
 423              		@ args = 0, pretend = 0, frame = 16
 424              		@ frame_needed = 1, uses_anonymous_args = 0
 425              		@ link register save eliminated.
 426 0000 80B4     		push	{r7}
 427              		.cfi_def_cfa_offset 4
 428              		.cfi_offset 7, -4
 429 0002 85B0     		sub	sp, sp, #20
 430              		.cfi_def_cfa_offset 24
 431 0004 00AF     		add	r7, sp, #0
 432              		.cfi_def_cfa_register 7
 433 0006 7860     		str	r0, [r7, #4]
 434              		.loc 5 54 0
 435 0008 7B68     		ldr	r3, [r7, #4]
 436 000a 5A1C     		adds	r2, r3, #1
 437 000c 7A60     		str	r2, [r7, #4]
 438 000e 1B78     		ldrb	r3, [r3]	@ zero_extendqisi2
 439 0010 FB81     		strh	r3, [r7, #14]	@ movhi
ARM GAS  C:\Users\Luis\AppData\Local\Temp\ccB0PfuY.s 			page 9


 440              		.loc 5 55 0
 441 0012 7B68     		ldr	r3, [r7, #4]
 442 0014 1B78     		ldrb	r3, [r3]	@ zero_extendqisi2
 443 0016 1B02     		lsls	r3, r3, #8
 444 0018 9AB2     		uxth	r2, r3
 445 001a FB89     		ldrh	r3, [r7, #14]
 446 001c 1343     		orrs	r3, r3, r2
 447 001e 9BB2     		uxth	r3, r3
 448 0020 FB81     		strh	r3, [r7, #14]	@ movhi
 449              		.loc 5 56 0
 450 0022 FB89     		ldrh	r3, [r7, #14]
 451              		.loc 5 57 0
 452 0024 1846     		mov	r0, r3
 453 0026 1437     		adds	r7, r7, #20
 454 0028 BD46     		mov	sp, r7
 455              		@ sp needed
 456 002a 5DF8047B 		ldr	r7, [sp], #4
 457 002e 7047     		bx	lr
 458              		.cfi_endproc
 459              	.LFE260:
 460              		.size	get_hword, .-get_hword
 461              		.section	.text.set_address,"ax",%progbits
 462              		.align	2
 463              		.p2align 4,,15
 464              		.thumb
 465              		.thumb_func
 466              		.type	set_address, %function
 467              	set_address:
 468              	.LFB261:
 469              		.loc 5 64 0
 470              		.cfi_startproc
 471              		@ args = 0, pretend = 0, frame = 8
 472              		@ frame_needed = 1, uses_anonymous_args = 0
 473 0000 80B5     		push	{r7, lr}
 474              		.cfi_def_cfa_offset 8
 475              		.cfi_offset 7, -8
 476              		.cfi_offset 14, -4
 477 0002 82B0     		sub	sp, sp, #8
 478              		.cfi_def_cfa_offset 16
 479 0004 00AF     		add	r7, sp, #0
 480              		.cfi_def_cfa_register 7
 481 0006 7860     		str	r0, [r7, #4]
 482              		.loc 5 66 0
 483 0008 7B68     		ldr	r3, [r7, #4]
 484 000a 93F85E20 		ldrb	r2, [r3, #94]	@ zero_extendqisi2
 485 000e 7B68     		ldr	r3, [r7, #4]
 486 0010 83F86620 		strb	r2, [r3, #102]
 487              		.loc 5 67 0
 488 0014 7868     		ldr	r0, [r7, #4]
 489 0016 FFF7FEFF 		bl	usb_lld_set_address
 490              		.loc 5 68 0
 491 001a 7B68     		ldr	r3, [r7, #4]
 492 001c 5B68     		ldr	r3, [r3, #4]
 493 001e 1B68     		ldr	r3, [r3]
 494 0020 002B     		cmp	r3, #0
 495 0022 05D0     		beq	.L19
 496              		.loc 5 68 0 is_stmt 0 discriminator 1
ARM GAS  C:\Users\Luis\AppData\Local\Temp\ccB0PfuY.s 			page 10


 497 0024 7B68     		ldr	r3, [r7, #4]
 498 0026 5B68     		ldr	r3, [r3, #4]
 499 0028 1B68     		ldr	r3, [r3]
 500 002a 7868     		ldr	r0, [r7, #4]
 501 002c 0121     		movs	r1, #1
 502 002e 9847     		blx	r3
 503              	.L19:
 504              		.loc 5 69 0 is_stmt 1
 505 0030 7B68     		ldr	r3, [r7, #4]
 506 0032 0322     		movs	r2, #3
 507 0034 1A70     		strb	r2, [r3]
 508              		.loc 5 70 0
 509 0036 0837     		adds	r7, r7, #8
 510 0038 BD46     		mov	sp, r7
 511              		@ sp needed
 512 003a 80BD     		pop	{r7, pc}
 513              		.cfi_endproc
 514              	.LFE261:
 515              		.size	set_address, .-set_address
 516 003c AFF30080 		.section	.text.default_handler,"ax",%progbits
 517              		.align	2
 518              		.p2align 4,,15
 519              		.thumb
 520              		.thumb_func
 521              		.type	default_handler, %function
 522              	default_handler:
 523              	.LFB262:
 524              		.loc 5 84 0
 525              		.cfi_startproc
 526              		@ args = 0, pretend = 0, frame = 16
 527              		@ frame_needed = 1, uses_anonymous_args = 0
 528 0000 F0B5     		push	{r4, r5, r6, r7, lr}
 529              		.cfi_def_cfa_offset 20
 530              		.cfi_offset 4, -20
 531              		.cfi_offset 5, -16
 532              		.cfi_offset 6, -12
 533              		.cfi_offset 7, -8
 534              		.cfi_offset 14, -4
 535 0002 85B0     		sub	sp, sp, #20
 536              		.cfi_def_cfa_offset 40
 537 0004 00AF     		add	r7, sp, #0
 538              		.cfi_def_cfa_register 7
 539 0006 7860     		str	r0, [r7, #4]
 540              		.loc 5 88 0
 541 0008 7B68     		ldr	r3, [r7, #4]
 542 000a 93F85C30 		ldrb	r3, [r3, #92]	@ zero_extendqisi2
 543 000e 03F07F02 		and	r2, r3, #127
 544              		.loc 5 90 0
 545 0012 7B68     		ldr	r3, [r7, #4]
 546 0014 93F85D30 		ldrb	r3, [r3, #93]	@ zero_extendqisi2
 547 0018 1B02     		lsls	r3, r3, #8
 548              		.loc 5 89 0
 549 001a 1343     		orrs	r3, r3, r2
 550              		.loc 5 88 0
 551 001c B3F5407F 		cmp	r3, #768
 552 0020 5AD0     		beq	.L22
 553 0022 B3F5407F 		cmp	r3, #768
ARM GAS  C:\Users\Luis\AppData\Local\Temp\ccB0PfuY.s 			page 11


 554 0026 12D8     		bhi	.L23
 555 0028 022B     		cmp	r3, #2
 556 002a 00F0EE80 		beq	.L24
 557 002e 022B     		cmp	r3, #2
 558 0030 05D8     		bhi	.L25
 559 0032 002B     		cmp	r3, #0
 560 0034 28D0     		beq	.L26
 561 0036 012B     		cmp	r3, #1
 562 0038 00F0DC80 		beq	.L27
 563 003c A6E1     		b	.L21
 564              	.L25:
 565 003e B3F5807F 		cmp	r3, #256
 566 0042 2ED0     		beq	.L28
 567 0044 B3F5817F 		cmp	r3, #258
 568 0048 00F03681 		beq	.L29
 569 004c 9EE1     		b	.L21
 570              	.L23:
 571 004e B3F5C06F 		cmp	r3, #1536
 572 0052 74D0     		beq	.L30
 573 0054 B3F5C06F 		cmp	r3, #1536
 574 0058 08D8     		bhi	.L31
 575 005a 40F20232 		movw	r2, #770
 576 005e 9342     		cmp	r3, r2
 577 0060 00F05F81 		beq	.L32
 578 0064 B3F5A06F 		cmp	r3, #1280
 579 0068 51D0     		beq	.L33
 580 006a 8FE1     		b	.L21
 581              	.L31:
 582 006c B3F5106F 		cmp	r3, #2304
 583 0070 00F09880 		beq	.L34
 584 0074 40F60242 		movw	r2, #3074
 585 0078 9342     		cmp	r3, r2
 586 007a 00F0BB80 		beq	.L27
 587 007e B3F5006F 		cmp	r3, #2048
 588 0082 00F08280 		beq	.L35
 589 0086 81E1     		b	.L21
 590              	.L26:
 591              		.loc 5 93 0
 592 0088 7B68     		ldr	r3, [r7, #4]
 593 008a 03F16402 		add	r2, r3, #100
 594 008e 7B68     		ldr	r3, [r7, #4]
 595 0090 1A65     		str	r2, [r3, #80]
 596 0092 7B68     		ldr	r3, [r7, #4]
 597 0094 0222     		movs	r2, #2
 598 0096 5A65     		str	r2, [r3, #84]
 599 0098 7B68     		ldr	r3, [r7, #4]
 600 009a 0022     		movs	r2, #0
 601 009c 9A65     		str	r2, [r3, #88]
 602              		.loc 5 94 0
 603 009e 0123     		movs	r3, #1
 604 00a0 75E1     		b	.L36
 605              	.L28:
 606              		.loc 5 98 0
 607 00a2 7B68     		ldr	r3, [r7, #4]
 608 00a4 93F85E30 		ldrb	r3, [r3, #94]	@ zero_extendqisi2
 609 00a8 012B     		cmp	r3, #1
 610 00aa 13D1     		bne	.L37
ARM GAS  C:\Users\Luis\AppData\Local\Temp\ccB0PfuY.s 			page 12


 611              		.loc 5 99 0
 612 00ac 7B68     		ldr	r3, [r7, #4]
 613 00ae B3F86430 		ldrh	r3, [r3, #100]
 614 00b2 23F00203 		bic	r3, r3, #2
 615 00b6 9AB2     		uxth	r2, r3
 616 00b8 7B68     		ldr	r3, [r7, #4]
 617 00ba A3F86420 		strh	r2, [r3, #100]	@ movhi
 618              		.loc 5 100 0
 619 00be 7B68     		ldr	r3, [r7, #4]
 620 00c0 0022     		movs	r2, #0
 621 00c2 1A65     		str	r2, [r3, #80]
 622 00c4 7B68     		ldr	r3, [r7, #4]
 623 00c6 0022     		movs	r2, #0
 624 00c8 5A65     		str	r2, [r3, #84]
 625 00ca 7B68     		ldr	r3, [r7, #4]
 626 00cc 0022     		movs	r2, #0
 627 00ce 9A65     		str	r2, [r3, #88]
 628              		.loc 5 101 0
 629 00d0 0123     		movs	r3, #1
 630 00d2 5CE1     		b	.L36
 631              	.L37:
 632              		.loc 5 103 0
 633 00d4 0023     		movs	r3, #0
 634 00d6 5AE1     		b	.L36
 635              	.L22:
 636              		.loc 5 107 0
 637 00d8 7B68     		ldr	r3, [r7, #4]
 638 00da 93F85E30 		ldrb	r3, [r3, #94]	@ zero_extendqisi2
 639 00de 012B     		cmp	r3, #1
 640 00e0 13D1     		bne	.L38
 641              		.loc 5 108 0
 642 00e2 7B68     		ldr	r3, [r7, #4]
 643 00e4 B3F86430 		ldrh	r3, [r3, #100]
 644 00e8 43F00203 		orr	r3, r3, #2
 645 00ec 9AB2     		uxth	r2, r3
 646 00ee 7B68     		ldr	r3, [r7, #4]
 647 00f0 A3F86420 		strh	r2, [r3, #100]	@ movhi
 648              		.loc 5 109 0
 649 00f4 7B68     		ldr	r3, [r7, #4]
 650 00f6 0022     		movs	r2, #0
 651 00f8 1A65     		str	r2, [r3, #80]
 652 00fa 7B68     		ldr	r3, [r7, #4]
 653 00fc 0022     		movs	r2, #0
 654 00fe 5A65     		str	r2, [r3, #84]
 655 0100 7B68     		ldr	r3, [r7, #4]
 656 0102 0022     		movs	r2, #0
 657 0104 9A65     		str	r2, [r3, #88]
 658              		.loc 5 110 0
 659 0106 0123     		movs	r3, #1
 660 0108 41E1     		b	.L36
 661              	.L38:
 662              		.loc 5 112 0
 663 010a 0023     		movs	r3, #0
 664 010c 3FE1     		b	.L36
 665              	.L33:
 666              		.loc 5 118 0
 667 010e 7B68     		ldr	r3, [r7, #4]
ARM GAS  C:\Users\Luis\AppData\Local\Temp\ccB0PfuY.s 			page 13


 668 0110 93F85C30 		ldrb	r3, [r3, #92]	@ zero_extendqisi2
 669 0114 002B     		cmp	r3, #0
 670 0116 07D1     		bne	.L39
 671              		.loc 5 119 0 discriminator 1
 672 0118 7B68     		ldr	r3, [r7, #4]
 673 011a 93F85D30 		ldrb	r3, [r3, #93]	@ zero_extendqisi2
 674              		.loc 5 118 0 discriminator 1
 675 011e 052B     		cmp	r3, #5
 676 0120 02D1     		bne	.L39
 677              		.loc 5 120 0
 678 0122 7868     		ldr	r0, [r7, #4]
 679 0124 FFF7FEFF 		bl	set_address
 680              	.L39:
 681              		.loc 5 122 0
 682 0128 7B68     		ldr	r3, [r7, #4]
 683 012a 0022     		movs	r2, #0
 684 012c 1A65     		str	r2, [r3, #80]
 685 012e 7B68     		ldr	r3, [r7, #4]
 686 0130 0022     		movs	r2, #0
 687 0132 5A65     		str	r2, [r3, #84]
 688 0134 7B68     		ldr	r3, [r7, #4]
 689 0136 0022     		movs	r2, #0
 690 0138 9A65     		str	r2, [r3, #88]
 691              		.loc 5 126 0
 692 013a 0123     		movs	r3, #1
 693 013c 27E1     		b	.L36
 694              	.L30:
 695              		.loc 5 129 0
 696 013e 7B68     		ldr	r3, [r7, #4]
 697 0140 5B68     		ldr	r3, [r3, #4]
 698 0142 5C68     		ldr	r4, [r3, #4]
 699 0144 7B68     		ldr	r3, [r7, #4]
 700 0146 93F85F60 		ldrb	r6, [r3, #95]	@ zero_extendqisi2
 701 014a 7B68     		ldr	r3, [r7, #4]
 702 014c 93F85E50 		ldrb	r5, [r3, #94]	@ zero_extendqisi2
 703 0150 7B68     		ldr	r3, [r7, #4]
 704 0152 6033     		adds	r3, r3, #96
 705 0154 1846     		mov	r0, r3
 706 0156 FFF7FEFF 		bl	get_hword
 707 015a 0346     		mov	r3, r0
 708 015c 7868     		ldr	r0, [r7, #4]
 709 015e 3146     		mov	r1, r6
 710 0160 2A46     		mov	r2, r5
 711 0162 A047     		blx	r4
 712 0164 F860     		str	r0, [r7, #12]
 713              		.loc 5 132 0
 714 0166 FB68     		ldr	r3, [r7, #12]
 715 0168 002B     		cmp	r3, #0
 716 016a 01D1     		bne	.L40
 717              		.loc 5 133 0
 718 016c 0023     		movs	r3, #0
 719 016e 0EE1     		b	.L36
 720              	.L40:
 721              		.loc 5 136 0
 722 0170 FB68     		ldr	r3, [r7, #12]
 723 0172 5A68     		ldr	r2, [r3, #4]
 724 0174 7B68     		ldr	r3, [r7, #4]
ARM GAS  C:\Users\Luis\AppData\Local\Temp\ccB0PfuY.s 			page 14


 725 0176 1A65     		str	r2, [r3, #80]
 726 0178 FB68     		ldr	r3, [r7, #12]
 727 017a 1A68     		ldr	r2, [r3]
 728 017c 7B68     		ldr	r3, [r7, #4]
 729 017e 5A65     		str	r2, [r3, #84]
 730 0180 7B68     		ldr	r3, [r7, #4]
 731 0182 0022     		movs	r2, #0
 732 0184 9A65     		str	r2, [r3, #88]
 733              		.loc 5 138 0
 734 0186 0123     		movs	r3, #1
 735 0188 01E1     		b	.L36
 736              	.L35:
 737              		.loc 5 141 0
 738 018a 7B68     		ldr	r3, [r7, #4]
 739 018c 03F16702 		add	r2, r3, #103
 740 0190 7B68     		ldr	r3, [r7, #4]
 741 0192 1A65     		str	r2, [r3, #80]
 742 0194 7B68     		ldr	r3, [r7, #4]
 743 0196 0122     		movs	r2, #1
 744 0198 5A65     		str	r2, [r3, #84]
 745 019a 7B68     		ldr	r3, [r7, #4]
 746 019c 0022     		movs	r2, #0
 747 019e 9A65     		str	r2, [r3, #88]
 748              		.loc 5 142 0
 749 01a0 0123     		movs	r3, #1
 750 01a2 F4E0     		b	.L36
 751              	.L34:
 752              		.loc 5 145 0
 753 01a4 7B68     		ldr	r3, [r7, #4]
 754 01a6 93F85E20 		ldrb	r2, [r3, #94]	@ zero_extendqisi2
 755 01aa 7B68     		ldr	r3, [r7, #4]
 756 01ac 83F86720 		strb	r2, [r3, #103]
 757              		.loc 5 146 0
 758 01b0 7B68     		ldr	r3, [r7, #4]
 759 01b2 93F86730 		ldrb	r3, [r3, #103]	@ zero_extendqisi2
 760 01b6 002B     		cmp	r3, #0
 761 01b8 03D1     		bne	.L41
 762              		.loc 5 147 0
 763 01ba 7B68     		ldr	r3, [r7, #4]
 764 01bc 0322     		movs	r2, #3
 765 01be 1A70     		strb	r2, [r3]
 766 01c0 02E0     		b	.L42
 767              	.L41:
 768              		.loc 5 150 0
 769 01c2 7B68     		ldr	r3, [r7, #4]
 770 01c4 0422     		movs	r2, #4
 771 01c6 1A70     		strb	r2, [r3]
 772              	.L42:
 773              		.loc 5 152 0
 774 01c8 7B68     		ldr	r3, [r7, #4]
 775 01ca 5B68     		ldr	r3, [r3, #4]
 776 01cc 1B68     		ldr	r3, [r3]
 777 01ce 002B     		cmp	r3, #0
 778 01d0 05D0     		beq	.L43
 779              		.loc 5 152 0 is_stmt 0 discriminator 1
 780 01d2 7B68     		ldr	r3, [r7, #4]
 781 01d4 5B68     		ldr	r3, [r3, #4]
ARM GAS  C:\Users\Luis\AppData\Local\Temp\ccB0PfuY.s 			page 15


 782 01d6 1B68     		ldr	r3, [r3]
 783 01d8 7868     		ldr	r0, [r7, #4]
 784 01da 0221     		movs	r1, #2
 785 01dc 9847     		blx	r3
 786              	.L43:
 787              		.loc 5 153 0 is_stmt 1
 788 01de 7B68     		ldr	r3, [r7, #4]
 789 01e0 0022     		movs	r2, #0
 790 01e2 1A65     		str	r2, [r3, #80]
 791 01e4 7B68     		ldr	r3, [r7, #4]
 792 01e6 0022     		movs	r2, #0
 793 01e8 5A65     		str	r2, [r3, #84]
 794 01ea 7B68     		ldr	r3, [r7, #4]
 795 01ec 0022     		movs	r2, #0
 796 01ee 9A65     		str	r2, [r3, #88]
 797              		.loc 5 154 0
 798 01f0 0123     		movs	r3, #1
 799 01f2 CCE0     		b	.L36
 800              	.L27:
 801              		.loc 5 160 0
 802 01f4 7B68     		ldr	r3, [r7, #4]
 803 01f6 684A     		ldr	r2, .L59
 804 01f8 1A65     		str	r2, [r3, #80]
 805 01fa 7B68     		ldr	r3, [r7, #4]
 806 01fc 0222     		movs	r2, #2
 807 01fe 5A65     		str	r2, [r3, #84]
 808 0200 7B68     		ldr	r3, [r7, #4]
 809 0202 0022     		movs	r2, #0
 810 0204 9A65     		str	r2, [r3, #88]
 811              		.loc 5 162 0
 812 0206 0123     		movs	r3, #1
 813 0208 C1E0     		b	.L36
 814              	.L24:
 815              		.loc 5 165 0
 816 020a 7B68     		ldr	r3, [r7, #4]
 817 020c 93F86030 		ldrb	r3, [r3, #96]	@ zero_extendqisi2
 818 0210 DBB2     		uxtb	r3, r3
 819 0212 5BB2     		sxtb	r3, r3
 820 0214 002B     		cmp	r3, #0
 821 0216 27DA     		bge	.L44
 822              		.loc 5 166 0
 823 0218 7B68     		ldr	r3, [r7, #4]
 824 021a 93F86030 		ldrb	r3, [r3, #96]	@ zero_extendqisi2
 825 021e 03F00F03 		and	r3, r3, #15
 826 0222 DBB2     		uxtb	r3, r3
 827 0224 7868     		ldr	r0, [r7, #4]
 828 0226 1946     		mov	r1, r3
 829 0228 FFF7FEFF 		bl	usb_lld_get_status_in
 830 022c 0346     		mov	r3, r0
 831 022e 012B     		cmp	r3, #1
 832 0230 02D0     		beq	.L46
 833 0232 022B     		cmp	r3, #2
 834 0234 0BD0     		beq	.L47
 835 0236 15E0     		b	.L57
 836              	.L46:
 837              		.loc 5 169 0
 838 0238 7B68     		ldr	r3, [r7, #4]
ARM GAS  C:\Users\Luis\AppData\Local\Temp\ccB0PfuY.s 			page 16


 839 023a 584A     		ldr	r2, .L59+4
 840 023c 1A65     		str	r2, [r3, #80]
 841 023e 7B68     		ldr	r3, [r7, #4]
 842 0240 0222     		movs	r2, #2
 843 0242 5A65     		str	r2, [r3, #84]
 844 0244 7B68     		ldr	r3, [r7, #4]
 845 0246 0022     		movs	r2, #0
 846 0248 9A65     		str	r2, [r3, #88]
 847              		.loc 5 171 0
 848 024a 0123     		movs	r3, #1
 849 024c 9FE0     		b	.L36
 850              	.L47:
 851              		.loc 5 174 0
 852 024e 7B68     		ldr	r3, [r7, #4]
 853 0250 534A     		ldr	r2, .L59+8
 854 0252 1A65     		str	r2, [r3, #80]
 855 0254 7B68     		ldr	r3, [r7, #4]
 856 0256 0222     		movs	r2, #2
 857 0258 5A65     		str	r2, [r3, #84]
 858 025a 7B68     		ldr	r3, [r7, #4]
 859 025c 0022     		movs	r2, #0
 860 025e 9A65     		str	r2, [r3, #88]
 861              		.loc 5 176 0
 862 0260 0123     		movs	r3, #1
 863 0262 94E0     		b	.L36
 864              	.L57:
 865              		.loc 5 179 0
 866 0264 0023     		movs	r3, #0
 867 0266 92E0     		b	.L36
 868              	.L44:
 869              		.loc 5 183 0
 870 0268 7B68     		ldr	r3, [r7, #4]
 871 026a 93F86030 		ldrb	r3, [r3, #96]	@ zero_extendqisi2
 872 026e 03F00F03 		and	r3, r3, #15
 873 0272 DBB2     		uxtb	r3, r3
 874 0274 7868     		ldr	r0, [r7, #4]
 875 0276 1946     		mov	r1, r3
 876 0278 FFF7FEFF 		bl	usb_lld_get_status_out
 877 027c 0346     		mov	r3, r0
 878 027e 012B     		cmp	r3, #1
 879 0280 02D0     		beq	.L49
 880 0282 022B     		cmp	r3, #2
 881 0284 0BD0     		beq	.L50
 882 0286 15E0     		b	.L58
 883              	.L49:
 884              		.loc 5 186 0
 885 0288 7B68     		ldr	r3, [r7, #4]
 886 028a 444A     		ldr	r2, .L59+4
 887 028c 1A65     		str	r2, [r3, #80]
 888 028e 7B68     		ldr	r3, [r7, #4]
 889 0290 0222     		movs	r2, #2
 890 0292 5A65     		str	r2, [r3, #84]
 891 0294 7B68     		ldr	r3, [r7, #4]
 892 0296 0022     		movs	r2, #0
 893 0298 9A65     		str	r2, [r3, #88]
 894              		.loc 5 188 0
 895 029a 0123     		movs	r3, #1
ARM GAS  C:\Users\Luis\AppData\Local\Temp\ccB0PfuY.s 			page 17


 896 029c 77E0     		b	.L36
 897              	.L50:
 898              		.loc 5 191 0
 899 029e 7B68     		ldr	r3, [r7, #4]
 900 02a0 3F4A     		ldr	r2, .L59+8
 901 02a2 1A65     		str	r2, [r3, #80]
 902 02a4 7B68     		ldr	r3, [r7, #4]
 903 02a6 0222     		movs	r2, #2
 904 02a8 5A65     		str	r2, [r3, #84]
 905 02aa 7B68     		ldr	r3, [r7, #4]
 906 02ac 0022     		movs	r2, #0
 907 02ae 9A65     		str	r2, [r3, #88]
 908              		.loc 5 193 0
 909 02b0 0123     		movs	r3, #1
 910 02b2 6CE0     		b	.L36
 911              	.L58:
 912              		.loc 5 196 0
 913 02b4 0023     		movs	r3, #0
 914 02b6 6AE0     		b	.L36
 915              	.L29:
 916              		.loc 5 201 0
 917 02b8 7B68     		ldr	r3, [r7, #4]
 918 02ba 93F85E30 		ldrb	r3, [r3, #94]	@ zero_extendqisi2
 919 02be 002B     		cmp	r3, #0
 920 02c0 01D0     		beq	.L51
 921              		.loc 5 202 0
 922 02c2 0023     		movs	r3, #0
 923 02c4 63E0     		b	.L36
 924              	.L51:
 925              		.loc 5 205 0
 926 02c6 7B68     		ldr	r3, [r7, #4]
 927 02c8 93F86030 		ldrb	r3, [r3, #96]	@ zero_extendqisi2
 928 02cc 03F00F03 		and	r3, r3, #15
 929 02d0 002B     		cmp	r3, #0
 930 02d2 1BD0     		beq	.L52
 931              		.loc 5 206 0
 932 02d4 7B68     		ldr	r3, [r7, #4]
 933 02d6 93F86030 		ldrb	r3, [r3, #96]	@ zero_extendqisi2
 934 02da DBB2     		uxtb	r3, r3
 935 02dc 5BB2     		sxtb	r3, r3
 936 02de 002B     		cmp	r3, #0
 937 02e0 0ADA     		bge	.L53
 938              		.loc 5 207 0
 939 02e2 7B68     		ldr	r3, [r7, #4]
 940 02e4 93F86030 		ldrb	r3, [r3, #96]	@ zero_extendqisi2
 941 02e8 03F00F03 		and	r3, r3, #15
 942 02ec DBB2     		uxtb	r3, r3
 943 02ee 7868     		ldr	r0, [r7, #4]
 944 02f0 1946     		mov	r1, r3
 945 02f2 FFF7FEFF 		bl	usb_lld_clear_in
 946 02f6 09E0     		b	.L52
 947              	.L53:
 948              		.loc 5 210 0
 949 02f8 7B68     		ldr	r3, [r7, #4]
 950 02fa 93F86030 		ldrb	r3, [r3, #96]	@ zero_extendqisi2
 951 02fe 03F00F03 		and	r3, r3, #15
 952 0302 DBB2     		uxtb	r3, r3
ARM GAS  C:\Users\Luis\AppData\Local\Temp\ccB0PfuY.s 			page 18


 953 0304 7868     		ldr	r0, [r7, #4]
 954 0306 1946     		mov	r1, r3
 955 0308 FFF7FEFF 		bl	usb_lld_clear_out
 956              	.L52:
 957              		.loc 5 213 0
 958 030c 7B68     		ldr	r3, [r7, #4]
 959 030e 0022     		movs	r2, #0
 960 0310 1A65     		str	r2, [r3, #80]
 961 0312 7B68     		ldr	r3, [r7, #4]
 962 0314 0022     		movs	r2, #0
 963 0316 5A65     		str	r2, [r3, #84]
 964 0318 7B68     		ldr	r3, [r7, #4]
 965 031a 0022     		movs	r2, #0
 966 031c 9A65     		str	r2, [r3, #88]
 967              		.loc 5 214 0
 968 031e 0123     		movs	r3, #1
 969 0320 35E0     		b	.L36
 970              	.L32:
 971              		.loc 5 217 0
 972 0322 7B68     		ldr	r3, [r7, #4]
 973 0324 93F85E30 		ldrb	r3, [r3, #94]	@ zero_extendqisi2
 974 0328 002B     		cmp	r3, #0
 975 032a 01D0     		beq	.L54
 976              		.loc 5 218 0
 977 032c 0023     		movs	r3, #0
 978 032e 2EE0     		b	.L36
 979              	.L54:
 980              		.loc 5 221 0
 981 0330 7B68     		ldr	r3, [r7, #4]
 982 0332 93F86030 		ldrb	r3, [r3, #96]	@ zero_extendqisi2
 983 0336 03F00F03 		and	r3, r3, #15
 984 033a 002B     		cmp	r3, #0
 985 033c 1BD0     		beq	.L55
 986              		.loc 5 222 0
 987 033e 7B68     		ldr	r3, [r7, #4]
 988 0340 93F86030 		ldrb	r3, [r3, #96]	@ zero_extendqisi2
 989 0344 DBB2     		uxtb	r3, r3
 990 0346 5BB2     		sxtb	r3, r3
 991 0348 002B     		cmp	r3, #0
 992 034a 0ADA     		bge	.L56
 993              		.loc 5 223 0
 994 034c 7B68     		ldr	r3, [r7, #4]
 995 034e 93F86030 		ldrb	r3, [r3, #96]	@ zero_extendqisi2
 996 0352 03F00F03 		and	r3, r3, #15
 997 0356 DBB2     		uxtb	r3, r3
 998 0358 7868     		ldr	r0, [r7, #4]
 999 035a 1946     		mov	r1, r3
 1000 035c FFF7FEFF 		bl	usb_lld_stall_in
 1001 0360 09E0     		b	.L55
 1002              	.L56:
 1003              		.loc 5 226 0
 1004 0362 7B68     		ldr	r3, [r7, #4]
 1005 0364 93F86030 		ldrb	r3, [r3, #96]	@ zero_extendqisi2
 1006 0368 03F00F03 		and	r3, r3, #15
 1007 036c DBB2     		uxtb	r3, r3
 1008 036e 7868     		ldr	r0, [r7, #4]
 1009 0370 1946     		mov	r1, r3
ARM GAS  C:\Users\Luis\AppData\Local\Temp\ccB0PfuY.s 			page 19


 1010 0372 FFF7FEFF 		bl	usb_lld_stall_out
 1011              	.L55:
 1012              		.loc 5 229 0
 1013 0376 7B68     		ldr	r3, [r7, #4]
 1014 0378 0022     		movs	r2, #0
 1015 037a 1A65     		str	r2, [r3, #80]
 1016 037c 7B68     		ldr	r3, [r7, #4]
 1017 037e 0022     		movs	r2, #0
 1018 0380 5A65     		str	r2, [r3, #84]
 1019 0382 7B68     		ldr	r3, [r7, #4]
 1020 0384 0022     		movs	r2, #0
 1021 0386 9A65     		str	r2, [r3, #88]
 1022              		.loc 5 230 0
 1023 0388 0123     		movs	r3, #1
 1024 038a 00E0     		b	.L36
 1025              	.L21:
 1026              		.loc 5 239 0
 1027 038c 0023     		movs	r3, #0
 1028              	.L36:
 1029              		.loc 5 241 0
 1030 038e 1846     		mov	r0, r3
 1031 0390 1437     		adds	r7, r7, #20
 1032 0392 BD46     		mov	sp, r7
 1033              		@ sp needed
 1034 0394 F0BD     		pop	{r4, r5, r6, r7, pc}
 1035              	.L60:
 1036 0396 00BF     		.align	2
 1037              	.L59:
 1038 0398 00000000 		.word	zero_status
 1039 039c 00000000 		.word	halted_status
 1040 03a0 00000000 		.word	active_status
 1041              		.cfi_endproc
 1042              	.LFE262:
 1043              		.size	default_handler, .-default_handler
 1044 03a4 AFF30080 		.section	.text.usbInit,"ax",%progbits
 1044      AFF30080 
 1044      AFF30080 
 1045              		.align	2
 1046              		.p2align 4,,15
 1047              		.global	usbInit
 1048              		.thumb
 1049              		.thumb_func
 1050              		.type	usbInit, %function
 1051              	usbInit:
 1052              	.LFB263:
 1053              		.loc 5 254 0
 1054              		.cfi_startproc
 1055              		@ args = 0, pretend = 0, frame = 0
 1056              		@ frame_needed = 1, uses_anonymous_args = 0
 1057 0000 80B5     		push	{r7, lr}
 1058              		.cfi_def_cfa_offset 8
 1059              		.cfi_offset 7, -8
 1060              		.cfi_offset 14, -4
 1061 0002 00AF     		add	r7, sp, #0
 1062              		.cfi_def_cfa_register 7
 1063              		.loc 5 256 0
 1064 0004 FFF7FEFF 		bl	usb_lld_init
ARM GAS  C:\Users\Luis\AppData\Local\Temp\ccB0PfuY.s 			page 20


 1065              		.loc 5 257 0
 1066 0008 80BD     		pop	{r7, pc}
 1067              		.cfi_endproc
 1068              	.LFE263:
 1069              		.size	usbInit, .-usbInit
 1070 000a 00BFAFF3 		.section	.text.usbObjectInit,"ax",%progbits
 1070      0080
 1071              		.align	2
 1072              		.p2align 4,,15
 1073              		.global	usbObjectInit
 1074              		.thumb
 1075              		.thumb_func
 1076              		.type	usbObjectInit, %function
 1077              	usbObjectInit:
 1078              	.LFB264:
 1079              		.loc 5 266 0
 1080              		.cfi_startproc
 1081              		@ args = 0, pretend = 0, frame = 16
 1082              		@ frame_needed = 1, uses_anonymous_args = 0
 1083              		@ link register save eliminated.
 1084 0000 80B4     		push	{r7}
 1085              		.cfi_def_cfa_offset 4
 1086              		.cfi_offset 7, -4
 1087 0002 85B0     		sub	sp, sp, #20
 1088              		.cfi_def_cfa_offset 24
 1089 0004 00AF     		add	r7, sp, #0
 1090              		.cfi_def_cfa_register 7
 1091 0006 7860     		str	r0, [r7, #4]
 1092              		.loc 5 269 0
 1093 0008 7B68     		ldr	r3, [r7, #4]
 1094 000a 0122     		movs	r2, #1
 1095 000c 1A70     		strb	r2, [r3]
 1096              		.loc 5 270 0
 1097 000e 7B68     		ldr	r3, [r7, #4]
 1098 0010 0022     		movs	r2, #0
 1099 0012 5A60     		str	r2, [r3, #4]
 1100              		.loc 5 271 0
 1101 0014 0023     		movs	r3, #0
 1102 0016 FB60     		str	r3, [r7, #12]
 1103 0018 0FE0     		b	.L63
 1104              	.L64:
 1105              		.loc 5 272 0 discriminator 2
 1106 001a 7A68     		ldr	r2, [r7, #4]
 1107 001c FB68     		ldr	r3, [r7, #12]
 1108 001e 0833     		adds	r3, r3, #8
 1109 0020 9B00     		lsls	r3, r3, #2
 1110 0022 1344     		add	r3, r3, r2
 1111 0024 0022     		movs	r2, #0
 1112 0026 5A60     		str	r2, [r3, #4]
 1113              		.loc 5 273 0 discriminator 2
 1114 0028 7B68     		ldr	r3, [r7, #4]
 1115 002a FA68     		ldr	r2, [r7, #12]
 1116 002c 0E32     		adds	r2, r2, #14
 1117 002e 0021     		movs	r1, #0
 1118 0030 43F82210 		str	r1, [r3, r2, lsl #2]
 1119              		.loc 5 271 0 discriminator 2
 1120 0034 FB68     		ldr	r3, [r7, #12]
ARM GAS  C:\Users\Luis\AppData\Local\Temp\ccB0PfuY.s 			page 21


 1121 0036 0133     		adds	r3, r3, #1
 1122 0038 FB60     		str	r3, [r7, #12]
 1123              	.L63:
 1124              		.loc 5 271 0 is_stmt 0 discriminator 1
 1125 003a FB68     		ldr	r3, [r7, #12]
 1126 003c 042B     		cmp	r3, #4
 1127 003e ECD9     		bls	.L64
 1128              		.loc 5 275 0 is_stmt 1
 1129 0040 7B68     		ldr	r3, [r7, #4]
 1130 0042 0022     		movs	r2, #0
 1131 0044 1A81     		strh	r2, [r3, #8]	@ movhi
 1132              		.loc 5 276 0
 1133 0046 7B68     		ldr	r3, [r7, #4]
 1134 0048 0022     		movs	r2, #0
 1135 004a 5A81     		strh	r2, [r3, #10]	@ movhi
 1136              		.loc 5 277 0
 1137 004c 1437     		adds	r7, r7, #20
 1138 004e BD46     		mov	sp, r7
 1139              		@ sp needed
 1140 0050 5DF8047B 		ldr	r7, [sp], #4
 1141 0054 7047     		bx	lr
 1142              		.cfi_endproc
 1143              	.LFE264:
 1144              		.size	usbObjectInit, .-usbObjectInit
 1145 0056 00BFAFF3 		.section	.text.usbStart,"ax",%progbits
 1145      0080AFF3 
 1145      0080
 1146              		.align	2
 1147              		.p2align 4,,15
 1148              		.global	usbStart
 1149              		.thumb
 1150              		.thumb_func
 1151              		.type	usbStart, %function
 1152              	usbStart:
 1153              	.LFB265:
 1154              		.loc 5 287 0
 1155              		.cfi_startproc
 1156              		@ args = 0, pretend = 0, frame = 16
 1157              		@ frame_needed = 1, uses_anonymous_args = 0
 1158 0000 80B5     		push	{r7, lr}
 1159              		.cfi_def_cfa_offset 8
 1160              		.cfi_offset 7, -8
 1161              		.cfi_offset 14, -4
 1162 0002 84B0     		sub	sp, sp, #16
 1163              		.cfi_def_cfa_offset 24
 1164 0004 00AF     		add	r7, sp, #0
 1165              		.cfi_def_cfa_register 7
 1166 0006 7860     		str	r0, [r7, #4]
 1167 0008 3960     		str	r1, [r7]
 1168              		.loc 5 290 0
 1169 000a 7B68     		ldr	r3, [r7, #4]
 1170 000c 002B     		cmp	r3, #0
 1171 000e 02D0     		beq	.L66
 1172              		.loc 5 290 0 is_stmt 0 discriminator 2
 1173 0010 3B68     		ldr	r3, [r7]
 1174 0012 002B     		cmp	r3, #0
 1175 0014 02D1     		bne	.L67
ARM GAS  C:\Users\Luis\AppData\Local\Temp\ccB0PfuY.s 			page 22


 1176              	.L66:
 1177              		.loc 5 290 0 discriminator 1
 1178 0016 1748     		ldr	r0, .L71
 1179 0018 FFF7FEFF 		bl	chSysHalt
 1180              	.L67:
 1181              		.loc 5 292 0 is_stmt 1
 1182 001c FFF7FEFF 		bl	osalSysLock
 1183              		.loc 5 293 0
 1184 0020 7B68     		ldr	r3, [r7, #4]
 1185 0022 1B78     		ldrb	r3, [r3]	@ zero_extendqisi2
 1186 0024 012B     		cmp	r3, #1
 1187 0026 06D0     		beq	.L68
 1188              		.loc 5 293 0 is_stmt 0 discriminator 1
 1189 0028 7B68     		ldr	r3, [r7, #4]
 1190 002a 1B78     		ldrb	r3, [r3]	@ zero_extendqisi2
 1191 002c 022B     		cmp	r3, #2
 1192 002e 02D0     		beq	.L68
 1193 0030 1048     		ldr	r0, .L71
 1194 0032 FFF7FEFF 		bl	chSysHalt
 1195              	.L68:
 1196              		.loc 5 295 0 is_stmt 1
 1197 0036 7B68     		ldr	r3, [r7, #4]
 1198 0038 3A68     		ldr	r2, [r7]
 1199 003a 5A60     		str	r2, [r3, #4]
 1200              		.loc 5 296 0
 1201 003c 0023     		movs	r3, #0
 1202 003e FB60     		str	r3, [r7, #12]
 1203 0040 09E0     		b	.L69
 1204              	.L70:
 1205              		.loc 5 297 0 discriminator 2
 1206 0042 7A68     		ldr	r2, [r7, #4]
 1207 0044 FB68     		ldr	r3, [r7, #12]
 1208 0046 0233     		adds	r3, r3, #2
 1209 0048 9B00     		lsls	r3, r3, #2
 1210 004a 1344     		add	r3, r3, r2
 1211 004c 0022     		movs	r2, #0
 1212 004e 5A60     		str	r2, [r3, #4]
 1213              		.loc 5 296 0 discriminator 2
 1214 0050 FB68     		ldr	r3, [r7, #12]
 1215 0052 0133     		adds	r3, r3, #1
 1216 0054 FB60     		str	r3, [r7, #12]
 1217              	.L69:
 1218              		.loc 5 296 0 is_stmt 0 discriminator 1
 1219 0056 FB68     		ldr	r3, [r7, #12]
 1220 0058 052B     		cmp	r3, #5
 1221 005a F2D9     		bls	.L70
 1222              		.loc 5 299 0 is_stmt 1
 1223 005c 7868     		ldr	r0, [r7, #4]
 1224 005e FFF7FEFF 		bl	usb_lld_start
 1225              		.loc 5 300 0
 1226 0062 7B68     		ldr	r3, [r7, #4]
 1227 0064 0222     		movs	r2, #2
 1228 0066 1A70     		strb	r2, [r3]
 1229              		.loc 5 301 0
 1230 0068 FFF7FEFF 		bl	osalSysUnlock
 1231              		.loc 5 302 0
 1232 006c 1037     		adds	r7, r7, #16
ARM GAS  C:\Users\Luis\AppData\Local\Temp\ccB0PfuY.s 			page 23


 1233 006e BD46     		mov	sp, r7
 1234              		@ sp needed
 1235 0070 80BD     		pop	{r7, pc}
 1236              	.L72:
 1237 0072 00BF     		.align	2
 1238              	.L71:
 1239 0074 00000000 		.word	__func__.8302
 1240              		.cfi_endproc
 1241              	.LFE265:
 1242              		.size	usbStart, .-usbStart
 1243 0078 AFF30080 		.section	.text.usbStop,"ax",%progbits
 1243      AFF30080 
 1244              		.align	2
 1245              		.p2align 4,,15
 1246              		.global	usbStop
 1247              		.thumb
 1248              		.thumb_func
 1249              		.type	usbStop, %function
 1250              	usbStop:
 1251              	.LFB266:
 1252              		.loc 5 311 0
 1253              		.cfi_startproc
 1254              		@ args = 0, pretend = 0, frame = 8
 1255              		@ frame_needed = 1, uses_anonymous_args = 0
 1256 0000 80B5     		push	{r7, lr}
 1257              		.cfi_def_cfa_offset 8
 1258              		.cfi_offset 7, -8
 1259              		.cfi_offset 14, -4
 1260 0002 82B0     		sub	sp, sp, #8
 1261              		.cfi_def_cfa_offset 16
 1262 0004 00AF     		add	r7, sp, #0
 1263              		.cfi_def_cfa_register 7
 1264 0006 7860     		str	r0, [r7, #4]
 1265              		.loc 5 313 0
 1266 0008 7B68     		ldr	r3, [r7, #4]
 1267 000a 002B     		cmp	r3, #0
 1268 000c 02D1     		bne	.L74
 1269              		.loc 5 313 0 is_stmt 0 discriminator 1
 1270 000e 1148     		ldr	r0, .L76
 1271 0010 FFF7FEFF 		bl	chSysHalt
 1272              	.L74:
 1273              		.loc 5 315 0 is_stmt 1
 1274 0014 FFF7FEFF 		bl	osalSysLock
 1275              		.loc 5 316 0
 1276 0018 7B68     		ldr	r3, [r7, #4]
 1277 001a 1B78     		ldrb	r3, [r3]	@ zero_extendqisi2
 1278 001c 012B     		cmp	r3, #1
 1279 001e 0ED0     		beq	.L75
 1280              		.loc 5 316 0 is_stmt 0 discriminator 1
 1281 0020 7B68     		ldr	r3, [r7, #4]
 1282 0022 1B78     		ldrb	r3, [r3]	@ zero_extendqisi2
 1283 0024 022B     		cmp	r3, #2
 1284 0026 0AD0     		beq	.L75
 1285 0028 7B68     		ldr	r3, [r7, #4]
 1286 002a 1B78     		ldrb	r3, [r3]	@ zero_extendqisi2
 1287 002c 032B     		cmp	r3, #3
 1288 002e 06D0     		beq	.L75
ARM GAS  C:\Users\Luis\AppData\Local\Temp\ccB0PfuY.s 			page 24


 1289 0030 7B68     		ldr	r3, [r7, #4]
 1290 0032 1B78     		ldrb	r3, [r3]	@ zero_extendqisi2
 1291 0034 042B     		cmp	r3, #4
 1292 0036 02D0     		beq	.L75
 1293 0038 0648     		ldr	r0, .L76
 1294 003a FFF7FEFF 		bl	chSysHalt
 1295              	.L75:
 1296              		.loc 5 319 0 is_stmt 1
 1297 003e 7868     		ldr	r0, [r7, #4]
 1298 0040 FFF7FEFF 		bl	usb_lld_stop
 1299              		.loc 5 320 0
 1300 0044 7B68     		ldr	r3, [r7, #4]
 1301 0046 0122     		movs	r2, #1
 1302 0048 1A70     		strb	r2, [r3]
 1303              		.loc 5 321 0
 1304 004a FFF7FEFF 		bl	osalSysUnlock
 1305              		.loc 5 322 0
 1306 004e 0837     		adds	r7, r7, #8
 1307 0050 BD46     		mov	sp, r7
 1308              		@ sp needed
 1309 0052 80BD     		pop	{r7, pc}
 1310              	.L77:
 1311              		.align	2
 1312              	.L76:
 1313 0054 00000000 		.word	__func__.8309
 1314              		.cfi_endproc
 1315              	.LFE266:
 1316              		.size	usbStop, .-usbStop
 1317 0058 AFF30080 		.section	.text.usbInitEndpointI,"ax",%progbits
 1317      AFF30080 
 1318              		.align	2
 1319              		.p2align 4,,15
 1320              		.global	usbInitEndpointI
 1321              		.thumb
 1322              		.thumb_func
 1323              		.type	usbInitEndpointI, %function
 1324              	usbInitEndpointI:
 1325              	.LFB267:
 1326              		.loc 5 338 0
 1327              		.cfi_startproc
 1328              		@ args = 0, pretend = 0, frame = 16
 1329              		@ frame_needed = 1, uses_anonymous_args = 0
 1330 0000 80B5     		push	{r7, lr}
 1331              		.cfi_def_cfa_offset 8
 1332              		.cfi_offset 7, -8
 1333              		.cfi_offset 14, -4
 1334 0002 84B0     		sub	sp, sp, #16
 1335              		.cfi_def_cfa_offset 24
 1336 0004 00AF     		add	r7, sp, #0
 1337              		.cfi_def_cfa_register 7
 1338 0006 F860     		str	r0, [r7, #12]
 1339 0008 0B46     		mov	r3, r1
 1340 000a 7A60     		str	r2, [r7, #4]
 1341 000c FB72     		strb	r3, [r7, #11]
 1342              		.loc 5 340 0
 1343 000e FFF7FEFF 		bl	chDbgCheckClassI
 1344              		.loc 5 341 0
ARM GAS  C:\Users\Luis\AppData\Local\Temp\ccB0PfuY.s 			page 25


 1345 0012 FB68     		ldr	r3, [r7, #12]
 1346 0014 002B     		cmp	r3, #0
 1347 0016 02D0     		beq	.L79
 1348              		.loc 5 341 0 is_stmt 0 discriminator 2
 1349 0018 7B68     		ldr	r3, [r7, #4]
 1350 001a 002B     		cmp	r3, #0
 1351 001c 02D1     		bne	.L85
 1352              	.L79:
 1353              		.loc 5 341 0 discriminator 1
 1354 001e 1D48     		ldr	r0, .L87
 1355 0020 FFF7FEFF 		bl	chSysHalt
 1356              	.L85:
 1357              		.loc 5 342 0 is_stmt 1 discriminator 1
 1358 0024 FB68     		ldr	r3, [r7, #12]
 1359 0026 1B78     		ldrb	r3, [r3]	@ zero_extendqisi2
 1360 0028 042B     		cmp	r3, #4
 1361 002a 02D0     		beq	.L86
 1362 002c 1948     		ldr	r0, .L87
 1363 002e FFF7FEFF 		bl	chSysHalt
 1364              	.L86:
 1365              		.loc 5 344 0 discriminator 1
 1366 0032 FB7A     		ldrb	r3, [r7, #11]	@ zero_extendqisi2
 1367 0034 FA68     		ldr	r2, [r7, #12]
 1368 0036 0233     		adds	r3, r3, #2
 1369 0038 9B00     		lsls	r3, r3, #2
 1370 003a 1344     		add	r3, r3, r2
 1371 003c 5B68     		ldr	r3, [r3, #4]
 1372 003e 002B     		cmp	r3, #0
 1373 0040 02D0     		beq	.L82
 1374 0042 1448     		ldr	r0, .L87
 1375 0044 FFF7FEFF 		bl	chSysHalt
 1376              	.L82:
 1377              		.loc 5 347 0
 1378 0048 7B68     		ldr	r3, [r7, #4]
 1379 004a 5B69     		ldr	r3, [r3, #20]
 1380 004c 002B     		cmp	r3, #0
 1381 004e 06D0     		beq	.L83
 1382              		.loc 5 348 0
 1383 0050 7B68     		ldr	r3, [r7, #4]
 1384 0052 5B69     		ldr	r3, [r3, #20]
 1385 0054 1846     		mov	r0, r3
 1386 0056 0021     		movs	r1, #0
 1387 0058 1422     		movs	r2, #20
 1388 005a FFF7FEFF 		bl	memset
 1389              	.L83:
 1390              		.loc 5 350 0
 1391 005e 7B68     		ldr	r3, [r7, #4]
 1392 0060 9B69     		ldr	r3, [r3, #24]
 1393 0062 002B     		cmp	r3, #0
 1394 0064 06D0     		beq	.L84
 1395              		.loc 5 351 0
 1396 0066 7B68     		ldr	r3, [r7, #4]
 1397 0068 9B69     		ldr	r3, [r3, #24]
 1398 006a 1846     		mov	r0, r3
 1399 006c 0021     		movs	r1, #0
 1400 006e 1422     		movs	r2, #20
 1401 0070 FFF7FEFF 		bl	memset
ARM GAS  C:\Users\Luis\AppData\Local\Temp\ccB0PfuY.s 			page 26


 1402              	.L84:
 1403              		.loc 5 354 0
 1404 0074 FB7A     		ldrb	r3, [r7, #11]	@ zero_extendqisi2
 1405 0076 FA68     		ldr	r2, [r7, #12]
 1406 0078 0233     		adds	r3, r3, #2
 1407 007a 9B00     		lsls	r3, r3, #2
 1408 007c 1344     		add	r3, r3, r2
 1409 007e 7A68     		ldr	r2, [r7, #4]
 1410 0080 5A60     		str	r2, [r3, #4]
 1411              		.loc 5 357 0
 1412 0082 FB7A     		ldrb	r3, [r7, #11]	@ zero_extendqisi2
 1413 0084 F868     		ldr	r0, [r7, #12]
 1414 0086 1946     		mov	r1, r3
 1415 0088 FFF7FEFF 		bl	usb_lld_init_endpoint
 1416              		.loc 5 358 0
 1417 008c 1037     		adds	r7, r7, #16
 1418 008e BD46     		mov	sp, r7
 1419              		@ sp needed
 1420 0090 80BD     		pop	{r7, pc}
 1421              	.L88:
 1422 0092 00BF     		.align	2
 1423              	.L87:
 1424 0094 00000000 		.word	__func__.8315
 1425              		.cfi_endproc
 1426              	.LFE267:
 1427              		.size	usbInitEndpointI, .-usbInitEndpointI
 1428 0098 AFF30080 		.section	.text.usbDisableEndpointsI,"ax",%progbits
 1428      AFF30080 
 1429              		.align	2
 1430              		.p2align 4,,15
 1431              		.global	usbDisableEndpointsI
 1432              		.thumb
 1433              		.thumb_func
 1434              		.type	usbDisableEndpointsI, %function
 1435              	usbDisableEndpointsI:
 1436              	.LFB268:
 1437              		.loc 5 371 0
 1438              		.cfi_startproc
 1439              		@ args = 0, pretend = 0, frame = 16
 1440              		@ frame_needed = 1, uses_anonymous_args = 0
 1441 0000 80B5     		push	{r7, lr}
 1442              		.cfi_def_cfa_offset 8
 1443              		.cfi_offset 7, -8
 1444              		.cfi_offset 14, -4
 1445 0002 84B0     		sub	sp, sp, #16
 1446              		.cfi_def_cfa_offset 24
 1447 0004 00AF     		add	r7, sp, #0
 1448              		.cfi_def_cfa_register 7
 1449 0006 7860     		str	r0, [r7, #4]
 1450              		.loc 5 374 0
 1451 0008 FFF7FEFF 		bl	chDbgCheckClassI
 1452              		.loc 5 375 0
 1453 000c 7B68     		ldr	r3, [r7, #4]
 1454 000e 002B     		cmp	r3, #0
 1455 0010 02D1     		bne	.L94
 1456              		.loc 5 375 0 is_stmt 0 discriminator 1
 1457 0012 1748     		ldr	r0, .L95
ARM GAS  C:\Users\Luis\AppData\Local\Temp\ccB0PfuY.s 			page 27


 1458 0014 FFF7FEFF 		bl	chSysHalt
 1459              	.L94:
 1460              		.loc 5 376 0 is_stmt 1 discriminator 1
 1461 0018 7B68     		ldr	r3, [r7, #4]
 1462 001a 1B78     		ldrb	r3, [r3]	@ zero_extendqisi2
 1463 001c 032B     		cmp	r3, #3
 1464 001e 02D0     		beq	.L91
 1465 0020 1348     		ldr	r0, .L95
 1466 0022 FFF7FEFF 		bl	chSysHalt
 1467              	.L91:
 1468              		.loc 5 378 0
 1469 0026 7B68     		ldr	r3, [r7, #4]
 1470 0028 1B89     		ldrh	r3, [r3, #8]
 1471 002a 23F00103 		bic	r3, r3, #1
 1472 002e 9AB2     		uxth	r2, r3
 1473 0030 7B68     		ldr	r3, [r7, #4]
 1474 0032 1A81     		strh	r2, [r3, #8]	@ movhi
 1475              		.loc 5 379 0
 1476 0034 7B68     		ldr	r3, [r7, #4]
 1477 0036 5B89     		ldrh	r3, [r3, #10]
 1478 0038 23F00103 		bic	r3, r3, #1
 1479 003c 9AB2     		uxth	r2, r3
 1480 003e 7B68     		ldr	r3, [r7, #4]
 1481 0040 5A81     		strh	r2, [r3, #10]	@ movhi
 1482              		.loc 5 380 0
 1483 0042 0123     		movs	r3, #1
 1484 0044 FB60     		str	r3, [r7, #12]
 1485 0046 09E0     		b	.L92
 1486              	.L93:
 1487              		.loc 5 381 0 discriminator 2
 1488 0048 7A68     		ldr	r2, [r7, #4]
 1489 004a FB68     		ldr	r3, [r7, #12]
 1490 004c 0233     		adds	r3, r3, #2
 1491 004e 9B00     		lsls	r3, r3, #2
 1492 0050 1344     		add	r3, r3, r2
 1493 0052 0022     		movs	r2, #0
 1494 0054 5A60     		str	r2, [r3, #4]
 1495              		.loc 5 380 0 discriminator 2
 1496 0056 FB68     		ldr	r3, [r7, #12]
 1497 0058 0133     		adds	r3, r3, #1
 1498 005a FB60     		str	r3, [r7, #12]
 1499              	.L92:
 1500              		.loc 5 380 0 is_stmt 0 discriminator 1
 1501 005c FB68     		ldr	r3, [r7, #12]
 1502 005e 052B     		cmp	r3, #5
 1503 0060 F2D9     		bls	.L93
 1504              		.loc 5 385 0 is_stmt 1
 1505 0062 7868     		ldr	r0, [r7, #4]
 1506 0064 FFF7FEFF 		bl	usb_lld_disable_endpoints
 1507              		.loc 5 386 0
 1508 0068 1037     		adds	r7, r7, #16
 1509 006a BD46     		mov	sp, r7
 1510              		@ sp needed
 1511 006c 80BD     		pop	{r7, pc}
 1512              	.L96:
 1513 006e 00BF     		.align	2
 1514              	.L95:
ARM GAS  C:\Users\Luis\AppData\Local\Temp\ccB0PfuY.s 			page 28


 1515 0070 00000000 		.word	__func__.8320
 1516              		.cfi_endproc
 1517              	.LFE268:
 1518              		.size	usbDisableEndpointsI, .-usbDisableEndpointsI
 1519 0074 AFF30080 		.section	.text.usbPrepareReceive,"ax",%progbits
 1519      AFF30080 
 1519      AFF30080 
 1520              		.align	2
 1521              		.p2align 4,,15
 1522              		.global	usbPrepareReceive
 1523              		.thumb
 1524              		.thumb_func
 1525              		.type	usbPrepareReceive, %function
 1526              	usbPrepareReceive:
 1527              	.LFB269:
 1528              		.loc 5 400 0
 1529              		.cfi_startproc
 1530              		@ args = 0, pretend = 0, frame = 24
 1531              		@ frame_needed = 1, uses_anonymous_args = 0
 1532 0000 80B5     		push	{r7, lr}
 1533              		.cfi_def_cfa_offset 8
 1534              		.cfi_offset 7, -8
 1535              		.cfi_offset 14, -4
 1536 0002 86B0     		sub	sp, sp, #24
 1537              		.cfi_def_cfa_offset 32
 1538 0004 00AF     		add	r7, sp, #0
 1539              		.cfi_def_cfa_register 7
 1540 0006 F860     		str	r0, [r7, #12]
 1541 0008 7A60     		str	r2, [r7, #4]
 1542 000a 3B60     		str	r3, [r7]
 1543 000c 0B46     		mov	r3, r1
 1544 000e FB72     		strb	r3, [r7, #11]
 1545              		.loc 5 401 0
 1546 0010 FB7A     		ldrb	r3, [r7, #11]	@ zero_extendqisi2
 1547 0012 FA68     		ldr	r2, [r7, #12]
 1548 0014 0233     		adds	r3, r3, #2
 1549 0016 9B00     		lsls	r3, r3, #2
 1550 0018 1344     		add	r3, r3, r2
 1551 001a 5B68     		ldr	r3, [r3, #4]
 1552 001c 9B69     		ldr	r3, [r3, #24]
 1553 001e 7B61     		str	r3, [r7, #20]
 1554              		.loc 5 403 0
 1555 0020 7B69     		ldr	r3, [r7, #20]
 1556 0022 0022     		movs	r2, #0
 1557 0024 1A70     		strb	r2, [r3]
 1558              		.loc 5 404 0
 1559 0026 7B69     		ldr	r3, [r7, #20]
 1560 0028 7A68     		ldr	r2, [r7, #4]
 1561 002a DA60     		str	r2, [r3, #12]
 1562              		.loc 5 405 0
 1563 002c 7B69     		ldr	r3, [r7, #20]
 1564 002e 3A68     		ldr	r2, [r7]
 1565 0030 5A60     		str	r2, [r3, #4]
 1566              		.loc 5 406 0
 1567 0032 7B69     		ldr	r3, [r7, #20]
 1568 0034 0022     		movs	r2, #0
 1569 0036 9A60     		str	r2, [r3, #8]
ARM GAS  C:\Users\Luis\AppData\Local\Temp\ccB0PfuY.s 			page 29


 1570              		.loc 5 408 0
 1571 0038 FB7A     		ldrb	r3, [r7, #11]	@ zero_extendqisi2
 1572 003a F868     		ldr	r0, [r7, #12]
 1573 003c 1946     		mov	r1, r3
 1574 003e FFF7FEFF 		bl	usb_lld_prepare_receive
 1575              		.loc 5 409 0
 1576 0042 1837     		adds	r7, r7, #24
 1577 0044 BD46     		mov	sp, r7
 1578              		@ sp needed
 1579 0046 80BD     		pop	{r7, pc}
 1580              		.cfi_endproc
 1581              	.LFE269:
 1582              		.size	usbPrepareReceive, .-usbPrepareReceive
 1583              		.section	.text.usbPrepareTransmit,"ax",%progbits
 1584              		.align	2
 1585              		.p2align 4,,15
 1586              		.global	usbPrepareTransmit
 1587              		.thumb
 1588              		.thumb_func
 1589              		.type	usbPrepareTransmit, %function
 1590              	usbPrepareTransmit:
 1591              	.LFB270:
 1592              		.loc 5 426 0
 1593              		.cfi_startproc
 1594              		@ args = 0, pretend = 0, frame = 24
 1595              		@ frame_needed = 1, uses_anonymous_args = 0
 1596 0000 80B5     		push	{r7, lr}
 1597              		.cfi_def_cfa_offset 8
 1598              		.cfi_offset 7, -8
 1599              		.cfi_offset 14, -4
 1600 0002 86B0     		sub	sp, sp, #24
 1601              		.cfi_def_cfa_offset 32
 1602 0004 00AF     		add	r7, sp, #0
 1603              		.cfi_def_cfa_register 7
 1604 0006 F860     		str	r0, [r7, #12]
 1605 0008 7A60     		str	r2, [r7, #4]
 1606 000a 3B60     		str	r3, [r7]
 1607 000c 0B46     		mov	r3, r1
 1608 000e FB72     		strb	r3, [r7, #11]
 1609              		.loc 5 427 0
 1610 0010 FB7A     		ldrb	r3, [r7, #11]	@ zero_extendqisi2
 1611 0012 FA68     		ldr	r2, [r7, #12]
 1612 0014 0233     		adds	r3, r3, #2
 1613 0016 9B00     		lsls	r3, r3, #2
 1614 0018 1344     		add	r3, r3, r2
 1615 001a 5B68     		ldr	r3, [r3, #4]
 1616 001c 5B69     		ldr	r3, [r3, #20]
 1617 001e 7B61     		str	r3, [r7, #20]
 1618              		.loc 5 429 0
 1619 0020 7B69     		ldr	r3, [r7, #20]
 1620 0022 0022     		movs	r2, #0
 1621 0024 1A70     		strb	r2, [r3]
 1622              		.loc 5 430 0
 1623 0026 7B69     		ldr	r3, [r7, #20]
 1624 0028 7A68     		ldr	r2, [r7, #4]
 1625 002a DA60     		str	r2, [r3, #12]
 1626              		.loc 5 431 0
ARM GAS  C:\Users\Luis\AppData\Local\Temp\ccB0PfuY.s 			page 30


 1627 002c 7B69     		ldr	r3, [r7, #20]
 1628 002e 3A68     		ldr	r2, [r7]
 1629 0030 5A60     		str	r2, [r3, #4]
 1630              		.loc 5 432 0
 1631 0032 7B69     		ldr	r3, [r7, #20]
 1632 0034 0022     		movs	r2, #0
 1633 0036 9A60     		str	r2, [r3, #8]
 1634              		.loc 5 434 0
 1635 0038 FB7A     		ldrb	r3, [r7, #11]	@ zero_extendqisi2
 1636 003a F868     		ldr	r0, [r7, #12]
 1637 003c 1946     		mov	r1, r3
 1638 003e FFF7FEFF 		bl	usb_lld_prepare_transmit
 1639              		.loc 5 435 0
 1640 0042 1837     		adds	r7, r7, #24
 1641 0044 BD46     		mov	sp, r7
 1642              		@ sp needed
 1643 0046 80BD     		pop	{r7, pc}
 1644              		.cfi_endproc
 1645              	.LFE270:
 1646              		.size	usbPrepareTransmit, .-usbPrepareTransmit
 1647              		.section	.text.usbPrepareQueuedReceive,"ax",%progbits
 1648              		.align	2
 1649              		.p2align 4,,15
 1650              		.global	usbPrepareQueuedReceive
 1651              		.thumb
 1652              		.thumb_func
 1653              		.type	usbPrepareQueuedReceive, %function
 1654              	usbPrepareQueuedReceive:
 1655              	.LFB271:
 1656              		.loc 5 455 0
 1657              		.cfi_startproc
 1658              		@ args = 0, pretend = 0, frame = 24
 1659              		@ frame_needed = 1, uses_anonymous_args = 0
 1660 0000 80B5     		push	{r7, lr}
 1661              		.cfi_def_cfa_offset 8
 1662              		.cfi_offset 7, -8
 1663              		.cfi_offset 14, -4
 1664 0002 86B0     		sub	sp, sp, #24
 1665              		.cfi_def_cfa_offset 32
 1666 0004 00AF     		add	r7, sp, #0
 1667              		.cfi_def_cfa_register 7
 1668 0006 F860     		str	r0, [r7, #12]
 1669 0008 7A60     		str	r2, [r7, #4]
 1670 000a 3B60     		str	r3, [r7]
 1671 000c 0B46     		mov	r3, r1
 1672 000e FB72     		strb	r3, [r7, #11]
 1673              		.loc 5 456 0
 1674 0010 FB7A     		ldrb	r3, [r7, #11]	@ zero_extendqisi2
 1675 0012 FA68     		ldr	r2, [r7, #12]
 1676 0014 0233     		adds	r3, r3, #2
 1677 0016 9B00     		lsls	r3, r3, #2
 1678 0018 1344     		add	r3, r3, r2
 1679 001a 5B68     		ldr	r3, [r3, #4]
 1680 001c 9B69     		ldr	r3, [r3, #24]
 1681 001e 7B61     		str	r3, [r7, #20]
 1682              		.loc 5 458 0
 1683 0020 7B69     		ldr	r3, [r7, #20]
ARM GAS  C:\Users\Luis\AppData\Local\Temp\ccB0PfuY.s 			page 31


 1684 0022 0122     		movs	r2, #1
 1685 0024 1A70     		strb	r2, [r3]
 1686              		.loc 5 459 0
 1687 0026 7B69     		ldr	r3, [r7, #20]
 1688 0028 7A68     		ldr	r2, [r7, #4]
 1689 002a DA60     		str	r2, [r3, #12]
 1690              		.loc 5 460 0
 1691 002c 7B69     		ldr	r3, [r7, #20]
 1692 002e 3A68     		ldr	r2, [r7]
 1693 0030 5A60     		str	r2, [r3, #4]
 1694              		.loc 5 461 0
 1695 0032 7B69     		ldr	r3, [r7, #20]
 1696 0034 0022     		movs	r2, #0
 1697 0036 9A60     		str	r2, [r3, #8]
 1698              		.loc 5 463 0
 1699 0038 FB7A     		ldrb	r3, [r7, #11]	@ zero_extendqisi2
 1700 003a F868     		ldr	r0, [r7, #12]
 1701 003c 1946     		mov	r1, r3
 1702 003e FFF7FEFF 		bl	usb_lld_prepare_receive
 1703              		.loc 5 464 0
 1704 0042 1837     		adds	r7, r7, #24
 1705 0044 BD46     		mov	sp, r7
 1706              		@ sp needed
 1707 0046 80BD     		pop	{r7, pc}
 1708              		.cfi_endproc
 1709              	.LFE271:
 1710              		.size	usbPrepareQueuedReceive, .-usbPrepareQueuedReceive
 1711              		.section	.text.usbPrepareQueuedTransmit,"ax",%progbits
 1712              		.align	2
 1713              		.p2align 4,,15
 1714              		.global	usbPrepareQueuedTransmit
 1715              		.thumb
 1716              		.thumb_func
 1717              		.type	usbPrepareQueuedTransmit, %function
 1718              	usbPrepareQueuedTransmit:
 1719              	.LFB272:
 1720              		.loc 5 481 0
 1721              		.cfi_startproc
 1722              		@ args = 0, pretend = 0, frame = 24
 1723              		@ frame_needed = 1, uses_anonymous_args = 0
 1724 0000 80B5     		push	{r7, lr}
 1725              		.cfi_def_cfa_offset 8
 1726              		.cfi_offset 7, -8
 1727              		.cfi_offset 14, -4
 1728 0002 86B0     		sub	sp, sp, #24
 1729              		.cfi_def_cfa_offset 32
 1730 0004 00AF     		add	r7, sp, #0
 1731              		.cfi_def_cfa_register 7
 1732 0006 F860     		str	r0, [r7, #12]
 1733 0008 7A60     		str	r2, [r7, #4]
 1734 000a 3B60     		str	r3, [r7]
 1735 000c 0B46     		mov	r3, r1
 1736 000e FB72     		strb	r3, [r7, #11]
 1737              		.loc 5 482 0
 1738 0010 FB7A     		ldrb	r3, [r7, #11]	@ zero_extendqisi2
 1739 0012 FA68     		ldr	r2, [r7, #12]
 1740 0014 0233     		adds	r3, r3, #2
ARM GAS  C:\Users\Luis\AppData\Local\Temp\ccB0PfuY.s 			page 32


 1741 0016 9B00     		lsls	r3, r3, #2
 1742 0018 1344     		add	r3, r3, r2
 1743 001a 5B68     		ldr	r3, [r3, #4]
 1744 001c 5B69     		ldr	r3, [r3, #20]
 1745 001e 7B61     		str	r3, [r7, #20]
 1746              		.loc 5 484 0
 1747 0020 7B69     		ldr	r3, [r7, #20]
 1748 0022 0122     		movs	r2, #1
 1749 0024 1A70     		strb	r2, [r3]
 1750              		.loc 5 485 0
 1751 0026 7B69     		ldr	r3, [r7, #20]
 1752 0028 7A68     		ldr	r2, [r7, #4]
 1753 002a DA60     		str	r2, [r3, #12]
 1754              		.loc 5 486 0
 1755 002c 7B69     		ldr	r3, [r7, #20]
 1756 002e 3A68     		ldr	r2, [r7]
 1757 0030 5A60     		str	r2, [r3, #4]
 1758              		.loc 5 487 0
 1759 0032 7B69     		ldr	r3, [r7, #20]
 1760 0034 0022     		movs	r2, #0
 1761 0036 9A60     		str	r2, [r3, #8]
 1762              		.loc 5 489 0
 1763 0038 FB7A     		ldrb	r3, [r7, #11]	@ zero_extendqisi2
 1764 003a F868     		ldr	r0, [r7, #12]
 1765 003c 1946     		mov	r1, r3
 1766 003e FFF7FEFF 		bl	usb_lld_prepare_transmit
 1767              		.loc 5 490 0
 1768 0042 1837     		adds	r7, r7, #24
 1769 0044 BD46     		mov	sp, r7
 1770              		@ sp needed
 1771 0046 80BD     		pop	{r7, pc}
 1772              		.cfi_endproc
 1773              	.LFE272:
 1774              		.size	usbPrepareQueuedTransmit, .-usbPrepareQueuedTransmit
 1775              		.section	.text.usbStartReceiveI,"ax",%progbits
 1776              		.align	2
 1777              		.p2align 4,,15
 1778              		.global	usbStartReceiveI
 1779              		.thumb
 1780              		.thumb_func
 1781              		.type	usbStartReceiveI, %function
 1782              	usbStartReceiveI:
 1783              	.LFB273:
 1784              		.loc 5 506 0
 1785              		.cfi_startproc
 1786              		@ args = 0, pretend = 0, frame = 8
 1787              		@ frame_needed = 1, uses_anonymous_args = 0
 1788 0000 80B5     		push	{r7, lr}
 1789              		.cfi_def_cfa_offset 8
 1790              		.cfi_offset 7, -8
 1791              		.cfi_offset 14, -4
 1792 0002 82B0     		sub	sp, sp, #8
 1793              		.cfi_def_cfa_offset 16
 1794 0004 00AF     		add	r7, sp, #0
 1795              		.cfi_def_cfa_register 7
 1796 0006 7860     		str	r0, [r7, #4]
 1797 0008 0B46     		mov	r3, r1
ARM GAS  C:\Users\Luis\AppData\Local\Temp\ccB0PfuY.s 			page 33


 1798 000a FB70     		strb	r3, [r7, #3]
 1799              		.loc 5 508 0
 1800 000c FFF7FEFF 		bl	chDbgCheckClassI
 1801              		.loc 5 509 0
 1802 0010 7B68     		ldr	r3, [r7, #4]
 1803 0012 002B     		cmp	r3, #0
 1804 0014 02D1     		bne	.L102
 1805              		.loc 5 509 0 is_stmt 0 discriminator 1
 1806 0016 1248     		ldr	r0, .L105
 1807 0018 FFF7FEFF 		bl	chSysHalt
 1808              	.L102:
 1809              		.loc 5 511 0 is_stmt 1
 1810 001c 7B68     		ldr	r3, [r7, #4]
 1811 001e 5A89     		ldrh	r2, [r3, #10]
 1812 0020 FB78     		ldrb	r3, [r7, #3]	@ zero_extendqisi2
 1813 0022 0121     		movs	r1, #1
 1814 0024 01FA03F3 		lsl	r3, r1, r3
 1815 0028 9BB2     		uxth	r3, r3
 1816 002a 1340     		ands	r3, r3, r2
 1817 002c 9BB2     		uxth	r3, r3
 1818 002e 002B     		cmp	r3, #0
 1819 0030 01D0     		beq	.L103
 1820              		.loc 5 512 0
 1821 0032 0123     		movs	r3, #1
 1822 0034 10E0     		b	.L104
 1823              	.L103:
 1824              		.loc 5 515 0
 1825 0036 7B68     		ldr	r3, [r7, #4]
 1826 0038 5A89     		ldrh	r2, [r3, #10]
 1827 003a FB78     		ldrb	r3, [r7, #3]	@ zero_extendqisi2
 1828 003c 0121     		movs	r1, #1
 1829 003e 01FA03F3 		lsl	r3, r1, r3
 1830 0042 9BB2     		uxth	r3, r3
 1831 0044 1343     		orrs	r3, r3, r2
 1832 0046 9AB2     		uxth	r2, r3
 1833 0048 7B68     		ldr	r3, [r7, #4]
 1834 004a 5A81     		strh	r2, [r3, #10]	@ movhi
 1835              		.loc 5 516 0
 1836 004c FB78     		ldrb	r3, [r7, #3]	@ zero_extendqisi2
 1837 004e 7868     		ldr	r0, [r7, #4]
 1838 0050 1946     		mov	r1, r3
 1839 0052 FFF7FEFF 		bl	usb_lld_start_out
 1840              		.loc 5 517 0
 1841 0056 0023     		movs	r3, #0
 1842              	.L104:
 1843              		.loc 5 518 0
 1844 0058 1846     		mov	r0, r3
 1845 005a 0837     		adds	r7, r7, #8
 1846 005c BD46     		mov	sp, r7
 1847              		@ sp needed
 1848 005e 80BD     		pop	{r7, pc}
 1849              	.L106:
 1850              		.align	2
 1851              	.L105:
 1852 0060 00000000 		.word	__func__.8356
 1853              		.cfi_endproc
 1854              	.LFE273:
ARM GAS  C:\Users\Luis\AppData\Local\Temp\ccB0PfuY.s 			page 34


 1855              		.size	usbStartReceiveI, .-usbStartReceiveI
 1856 0064 AFF30080 		.section	.text.usbStartTransmitI,"ax",%progbits
 1856      AFF30080 
 1856      AFF30080 
 1857              		.align	2
 1858              		.p2align 4,,15
 1859              		.global	usbStartTransmitI
 1860              		.thumb
 1861              		.thumb_func
 1862              		.type	usbStartTransmitI, %function
 1863              	usbStartTransmitI:
 1864              	.LFB274:
 1865              		.loc 5 534 0
 1866              		.cfi_startproc
 1867              		@ args = 0, pretend = 0, frame = 8
 1868              		@ frame_needed = 1, uses_anonymous_args = 0
 1869 0000 80B5     		push	{r7, lr}
 1870              		.cfi_def_cfa_offset 8
 1871              		.cfi_offset 7, -8
 1872              		.cfi_offset 14, -4
 1873 0002 82B0     		sub	sp, sp, #8
 1874              		.cfi_def_cfa_offset 16
 1875 0004 00AF     		add	r7, sp, #0
 1876              		.cfi_def_cfa_register 7
 1877 0006 7860     		str	r0, [r7, #4]
 1878 0008 0B46     		mov	r3, r1
 1879 000a FB70     		strb	r3, [r7, #3]
 1880              		.loc 5 536 0
 1881 000c FFF7FEFF 		bl	chDbgCheckClassI
 1882              		.loc 5 537 0
 1883 0010 7B68     		ldr	r3, [r7, #4]
 1884 0012 002B     		cmp	r3, #0
 1885 0014 02D1     		bne	.L108
 1886              		.loc 5 537 0 is_stmt 0 discriminator 1
 1887 0016 1248     		ldr	r0, .L111
 1888 0018 FFF7FEFF 		bl	chSysHalt
 1889              	.L108:
 1890              		.loc 5 539 0 is_stmt 1
 1891 001c 7B68     		ldr	r3, [r7, #4]
 1892 001e 1A89     		ldrh	r2, [r3, #8]
 1893 0020 FB78     		ldrb	r3, [r7, #3]	@ zero_extendqisi2
 1894 0022 0121     		movs	r1, #1
 1895 0024 01FA03F3 		lsl	r3, r1, r3
 1896 0028 9BB2     		uxth	r3, r3
 1897 002a 1340     		ands	r3, r3, r2
 1898 002c 9BB2     		uxth	r3, r3
 1899 002e 002B     		cmp	r3, #0
 1900 0030 01D0     		beq	.L109
 1901              		.loc 5 540 0
 1902 0032 0123     		movs	r3, #1
 1903 0034 10E0     		b	.L110
 1904              	.L109:
 1905              		.loc 5 543 0
 1906 0036 7B68     		ldr	r3, [r7, #4]
 1907 0038 1A89     		ldrh	r2, [r3, #8]
 1908 003a FB78     		ldrb	r3, [r7, #3]	@ zero_extendqisi2
 1909 003c 0121     		movs	r1, #1
ARM GAS  C:\Users\Luis\AppData\Local\Temp\ccB0PfuY.s 			page 35


 1910 003e 01FA03F3 		lsl	r3, r1, r3
 1911 0042 9BB2     		uxth	r3, r3
 1912 0044 1343     		orrs	r3, r3, r2
 1913 0046 9AB2     		uxth	r2, r3
 1914 0048 7B68     		ldr	r3, [r7, #4]
 1915 004a 1A81     		strh	r2, [r3, #8]	@ movhi
 1916              		.loc 5 544 0
 1917 004c FB78     		ldrb	r3, [r7, #3]	@ zero_extendqisi2
 1918 004e 7868     		ldr	r0, [r7, #4]
 1919 0050 1946     		mov	r1, r3
 1920 0052 FFF7FEFF 		bl	usb_lld_start_in
 1921              		.loc 5 545 0
 1922 0056 0023     		movs	r3, #0
 1923              	.L110:
 1924              		.loc 5 546 0
 1925 0058 1846     		mov	r0, r3
 1926 005a 0837     		adds	r7, r7, #8
 1927 005c BD46     		mov	sp, r7
 1928              		@ sp needed
 1929 005e 80BD     		pop	{r7, pc}
 1930              	.L112:
 1931              		.align	2
 1932              	.L111:
 1933 0060 00000000 		.word	__func__.8361
 1934              		.cfi_endproc
 1935              	.LFE274:
 1936              		.size	usbStartTransmitI, .-usbStartTransmitI
 1937 0064 AFF30080 		.section	.text.usbStallReceiveI,"ax",%progbits
 1937      AFF30080 
 1937      AFF30080 
 1938              		.align	2
 1939              		.p2align 4,,15
 1940              		.global	usbStallReceiveI
 1941              		.thumb
 1942              		.thumb_func
 1943              		.type	usbStallReceiveI, %function
 1944              	usbStallReceiveI:
 1945              	.LFB275:
 1946              		.loc 5 560 0
 1947              		.cfi_startproc
 1948              		@ args = 0, pretend = 0, frame = 8
 1949              		@ frame_needed = 1, uses_anonymous_args = 0
 1950 0000 80B5     		push	{r7, lr}
 1951              		.cfi_def_cfa_offset 8
 1952              		.cfi_offset 7, -8
 1953              		.cfi_offset 14, -4
 1954 0002 82B0     		sub	sp, sp, #8
 1955              		.cfi_def_cfa_offset 16
 1956 0004 00AF     		add	r7, sp, #0
 1957              		.cfi_def_cfa_register 7
 1958 0006 7860     		str	r0, [r7, #4]
 1959 0008 0B46     		mov	r3, r1
 1960 000a FB70     		strb	r3, [r7, #3]
 1961              		.loc 5 562 0
 1962 000c FFF7FEFF 		bl	chDbgCheckClassI
 1963              		.loc 5 563 0
 1964 0010 7B68     		ldr	r3, [r7, #4]
ARM GAS  C:\Users\Luis\AppData\Local\Temp\ccB0PfuY.s 			page 36


 1965 0012 002B     		cmp	r3, #0
 1966 0014 02D1     		bne	.L114
 1967              		.loc 5 563 0 is_stmt 0 discriminator 1
 1968 0016 0D48     		ldr	r0, .L117
 1969 0018 FFF7FEFF 		bl	chSysHalt
 1970              	.L114:
 1971              		.loc 5 565 0 is_stmt 1
 1972 001c 7B68     		ldr	r3, [r7, #4]
 1973 001e 5A89     		ldrh	r2, [r3, #10]
 1974 0020 FB78     		ldrb	r3, [r7, #3]	@ zero_extendqisi2
 1975 0022 0121     		movs	r1, #1
 1976 0024 01FA03F3 		lsl	r3, r1, r3
 1977 0028 9BB2     		uxth	r3, r3
 1978 002a 1340     		ands	r3, r3, r2
 1979 002c 9BB2     		uxth	r3, r3
 1980 002e 002B     		cmp	r3, #0
 1981 0030 01D0     		beq	.L115
 1982              		.loc 5 566 0
 1983 0032 0123     		movs	r3, #1
 1984 0034 05E0     		b	.L116
 1985              	.L115:
 1986              		.loc 5 569 0
 1987 0036 FB78     		ldrb	r3, [r7, #3]	@ zero_extendqisi2
 1988 0038 7868     		ldr	r0, [r7, #4]
 1989 003a 1946     		mov	r1, r3
 1990 003c FFF7FEFF 		bl	usb_lld_stall_out
 1991              		.loc 5 570 0
 1992 0040 0023     		movs	r3, #0
 1993              	.L116:
 1994              		.loc 5 571 0
 1995 0042 1846     		mov	r0, r3
 1996 0044 0837     		adds	r7, r7, #8
 1997 0046 BD46     		mov	sp, r7
 1998              		@ sp needed
 1999 0048 80BD     		pop	{r7, pc}
 2000              	.L118:
 2001 004a 00BF     		.align	2
 2002              	.L117:
 2003 004c 00000000 		.word	__func__.8366
 2004              		.cfi_endproc
 2005              	.LFE275:
 2006              		.size	usbStallReceiveI, .-usbStallReceiveI
 2007              		.section	.text.usbStallTransmitI,"ax",%progbits
 2008              		.align	2
 2009              		.p2align 4,,15
 2010              		.global	usbStallTransmitI
 2011              		.thumb
 2012              		.thumb_func
 2013              		.type	usbStallTransmitI, %function
 2014              	usbStallTransmitI:
 2015              	.LFB276:
 2016              		.loc 5 585 0
 2017              		.cfi_startproc
 2018              		@ args = 0, pretend = 0, frame = 8
 2019              		@ frame_needed = 1, uses_anonymous_args = 0
 2020 0000 80B5     		push	{r7, lr}
 2021              		.cfi_def_cfa_offset 8
ARM GAS  C:\Users\Luis\AppData\Local\Temp\ccB0PfuY.s 			page 37


 2022              		.cfi_offset 7, -8
 2023              		.cfi_offset 14, -4
 2024 0002 82B0     		sub	sp, sp, #8
 2025              		.cfi_def_cfa_offset 16
 2026 0004 00AF     		add	r7, sp, #0
 2027              		.cfi_def_cfa_register 7
 2028 0006 7860     		str	r0, [r7, #4]
 2029 0008 0B46     		mov	r3, r1
 2030 000a FB70     		strb	r3, [r7, #3]
 2031              		.loc 5 587 0
 2032 000c FFF7FEFF 		bl	chDbgCheckClassI
 2033              		.loc 5 588 0
 2034 0010 7B68     		ldr	r3, [r7, #4]
 2035 0012 002B     		cmp	r3, #0
 2036 0014 02D1     		bne	.L120
 2037              		.loc 5 588 0 is_stmt 0 discriminator 1
 2038 0016 0D48     		ldr	r0, .L123
 2039 0018 FFF7FEFF 		bl	chSysHalt
 2040              	.L120:
 2041              		.loc 5 590 0 is_stmt 1
 2042 001c 7B68     		ldr	r3, [r7, #4]
 2043 001e 1A89     		ldrh	r2, [r3, #8]
 2044 0020 FB78     		ldrb	r3, [r7, #3]	@ zero_extendqisi2
 2045 0022 0121     		movs	r1, #1
 2046 0024 01FA03F3 		lsl	r3, r1, r3
 2047 0028 9BB2     		uxth	r3, r3
 2048 002a 1340     		ands	r3, r3, r2
 2049 002c 9BB2     		uxth	r3, r3
 2050 002e 002B     		cmp	r3, #0
 2051 0030 01D0     		beq	.L121
 2052              		.loc 5 591 0
 2053 0032 0123     		movs	r3, #1
 2054 0034 05E0     		b	.L122
 2055              	.L121:
 2056              		.loc 5 594 0
 2057 0036 FB78     		ldrb	r3, [r7, #3]	@ zero_extendqisi2
 2058 0038 7868     		ldr	r0, [r7, #4]
 2059 003a 1946     		mov	r1, r3
 2060 003c FFF7FEFF 		bl	usb_lld_stall_in
 2061              		.loc 5 595 0
 2062 0040 0023     		movs	r3, #0
 2063              	.L122:
 2064              		.loc 5 596 0
 2065 0042 1846     		mov	r0, r3
 2066 0044 0837     		adds	r7, r7, #8
 2067 0046 BD46     		mov	sp, r7
 2068              		@ sp needed
 2069 0048 80BD     		pop	{r7, pc}
 2070              	.L124:
 2071 004a 00BF     		.align	2
 2072              	.L123:
 2073 004c 00000000 		.word	__func__.8371
 2074              		.cfi_endproc
 2075              	.LFE276:
 2076              		.size	usbStallTransmitI, .-usbStallTransmitI
 2077              		.section	.text._usb_reset,"ax",%progbits
 2078              		.align	2
ARM GAS  C:\Users\Luis\AppData\Local\Temp\ccB0PfuY.s 			page 38


 2079              		.p2align 4,,15
 2080              		.global	_usb_reset
 2081              		.thumb
 2082              		.thumb_func
 2083              		.type	_usb_reset, %function
 2084              	_usb_reset:
 2085              	.LFB277:
 2086              		.loc 5 607 0
 2087              		.cfi_startproc
 2088              		@ args = 0, pretend = 0, frame = 16
 2089              		@ frame_needed = 1, uses_anonymous_args = 0
 2090 0000 80B5     		push	{r7, lr}
 2091              		.cfi_def_cfa_offset 8
 2092              		.cfi_offset 7, -8
 2093              		.cfi_offset 14, -4
 2094 0002 84B0     		sub	sp, sp, #16
 2095              		.cfi_def_cfa_offset 24
 2096 0004 00AF     		add	r7, sp, #0
 2097              		.cfi_def_cfa_register 7
 2098 0006 7860     		str	r0, [r7, #4]
 2099              		.loc 5 610 0
 2100 0008 7B68     		ldr	r3, [r7, #4]
 2101 000a 0222     		movs	r2, #2
 2102 000c 1A70     		strb	r2, [r3]
 2103              		.loc 5 611 0
 2104 000e 7B68     		ldr	r3, [r7, #4]
 2105 0010 0022     		movs	r2, #0
 2106 0012 A3F86420 		strh	r2, [r3, #100]	@ movhi
 2107              		.loc 5 612 0
 2108 0016 7B68     		ldr	r3, [r7, #4]
 2109 0018 0022     		movs	r2, #0
 2110 001a 83F86620 		strb	r2, [r3, #102]
 2111              		.loc 5 613 0
 2112 001e 7B68     		ldr	r3, [r7, #4]
 2113 0020 0022     		movs	r2, #0
 2114 0022 83F86720 		strb	r2, [r3, #103]
 2115              		.loc 5 614 0
 2116 0026 7B68     		ldr	r3, [r7, #4]
 2117 0028 0022     		movs	r2, #0
 2118 002a 1A81     		strh	r2, [r3, #8]	@ movhi
 2119              		.loc 5 615 0
 2120 002c 7B68     		ldr	r3, [r7, #4]
 2121 002e 0022     		movs	r2, #0
 2122 0030 5A81     		strh	r2, [r3, #10]	@ movhi
 2123              		.loc 5 618 0
 2124 0032 0023     		movs	r3, #0
 2125 0034 FB60     		str	r3, [r7, #12]
 2126 0036 09E0     		b	.L126
 2127              	.L127:
 2128              		.loc 5 619 0 discriminator 2
 2129 0038 7A68     		ldr	r2, [r7, #4]
 2130 003a FB68     		ldr	r3, [r7, #12]
 2131 003c 0233     		adds	r3, r3, #2
 2132 003e 9B00     		lsls	r3, r3, #2
 2133 0040 1344     		add	r3, r3, r2
 2134 0042 0022     		movs	r2, #0
 2135 0044 5A60     		str	r2, [r3, #4]
ARM GAS  C:\Users\Luis\AppData\Local\Temp\ccB0PfuY.s 			page 39


 2136              		.loc 5 618 0 discriminator 2
 2137 0046 FB68     		ldr	r3, [r7, #12]
 2138 0048 0133     		adds	r3, r3, #1
 2139 004a FB60     		str	r3, [r7, #12]
 2140              	.L126:
 2141              		.loc 5 618 0 is_stmt 0 discriminator 1
 2142 004c FB68     		ldr	r3, [r7, #12]
 2143 004e 052B     		cmp	r3, #5
 2144 0050 F2D9     		bls	.L127
 2145              		.loc 5 623 0 is_stmt 1
 2146 0052 7B68     		ldr	r3, [r7, #4]
 2147 0054 0022     		movs	r2, #0
 2148 0056 83F84C20 		strb	r2, [r3, #76]
 2149              		.loc 5 626 0
 2150 005a 7868     		ldr	r0, [r7, #4]
 2151 005c FFF7FEFF 		bl	usb_lld_reset
 2152              		.loc 5 627 0
 2153 0060 1037     		adds	r7, r7, #16
 2154 0062 BD46     		mov	sp, r7
 2155              		@ sp needed
 2156 0064 80BD     		pop	{r7, pc}
 2157              		.cfi_endproc
 2158              	.LFE277:
 2159              		.size	_usb_reset, .-_usb_reset
 2160 0066 00BFAFF3 		.section	.text._usb_ep0setup,"ax",%progbits
 2160      0080AFF3 
 2160      0080
 2161              		.align	2
 2162              		.p2align 4,,15
 2163              		.global	_usb_ep0setup
 2164              		.thumb
 2165              		.thumb_func
 2166              		.type	_usb_ep0setup, %function
 2167              	_usb_ep0setup:
 2168              	.LFB278:
 2169              		.loc 5 639 0
 2170              		.cfi_startproc
 2171              		@ args = 0, pretend = 0, frame = 16
 2172              		@ frame_needed = 1, uses_anonymous_args = 0
 2173 0000 80B5     		push	{r7, lr}
 2174              		.cfi_def_cfa_offset 8
 2175              		.cfi_offset 7, -8
 2176              		.cfi_offset 14, -4
 2177 0002 84B0     		sub	sp, sp, #16
 2178              		.cfi_def_cfa_offset 24
 2179 0004 00AF     		add	r7, sp, #0
 2180              		.cfi_def_cfa_register 7
 2181 0006 7860     		str	r0, [r7, #4]
 2182 0008 0B46     		mov	r3, r1
 2183 000a FB70     		strb	r3, [r7, #3]
 2184              		.loc 5 642 0
 2185 000c 7B68     		ldr	r3, [r7, #4]
 2186 000e 0022     		movs	r2, #0
 2187 0010 83F84C20 		strb	r2, [r3, #76]
 2188              		.loc 5 643 0
 2189 0014 7B68     		ldr	r3, [r7, #4]
 2190 0016 5C33     		adds	r3, r3, #92
ARM GAS  C:\Users\Luis\AppData\Local\Temp\ccB0PfuY.s 			page 40


 2191 0018 FA78     		ldrb	r2, [r7, #3]	@ zero_extendqisi2
 2192 001a 7868     		ldr	r0, [r7, #4]
 2193 001c 1146     		mov	r1, r2
 2194 001e 1A46     		mov	r2, r3
 2195 0020 FFF7FEFF 		bl	usb_lld_read_setup
 2196              		.loc 5 648 0
 2197 0024 7B68     		ldr	r3, [r7, #4]
 2198 0026 5B68     		ldr	r3, [r3, #4]
 2199 0028 9B68     		ldr	r3, [r3, #8]
 2200 002a 002B     		cmp	r3, #0
 2201 002c 0AD0     		beq	.L129
 2202              		.loc 5 649 0 discriminator 1
 2203 002e 7B68     		ldr	r3, [r7, #4]
 2204 0030 5B68     		ldr	r3, [r3, #4]
 2205 0032 9B68     		ldr	r3, [r3, #8]
 2206 0034 7868     		ldr	r0, [r7, #4]
 2207 0036 9847     		blx	r3
 2208 0038 0346     		mov	r3, r0
 2209 003a 83F00103 		eor	r3, r3, #1
 2210 003e DBB2     		uxtb	r3, r3
 2211              		.loc 5 648 0 discriminator 1
 2212 0040 002B     		cmp	r3, #0
 2213 0042 27D0     		beq	.L130
 2214              	.L129:
 2215              		.loc 5 654 0
 2216 0044 7B68     		ldr	r3, [r7, #4]
 2217 0046 93F85C30 		ldrb	r3, [r3, #92]	@ zero_extendqisi2
 2218 004a 03F06003 		and	r3, r3, #96
 2219 004e 002B     		cmp	r3, #0
 2220 0050 08D1     		bne	.L131
 2221              		.loc 5 655 0 discriminator 1
 2222 0052 7868     		ldr	r0, [r7, #4]
 2223 0054 FFF7FEFF 		bl	default_handler
 2224 0058 0346     		mov	r3, r0
 2225 005a 83F00103 		eor	r3, r3, #1
 2226 005e DBB2     		uxtb	r3, r3
 2227              		.loc 5 654 0 discriminator 1
 2228 0060 002B     		cmp	r3, #0
 2229 0062 17D0     		beq	.L130
 2230              	.L131:
 2231              		.loc 5 660 0
 2232 0064 7868     		ldr	r0, [r7, #4]
 2233 0066 0021     		movs	r1, #0
 2234 0068 FFF7FEFF 		bl	usb_lld_stall_in
 2235              		.loc 5 661 0
 2236 006c 7868     		ldr	r0, [r7, #4]
 2237 006e 0021     		movs	r1, #0
 2238 0070 FFF7FEFF 		bl	usb_lld_stall_out
 2239              		.loc 5 662 0
 2240 0074 7B68     		ldr	r3, [r7, #4]
 2241 0076 5B68     		ldr	r3, [r3, #4]
 2242 0078 1B68     		ldr	r3, [r3]
 2243 007a 002B     		cmp	r3, #0
 2244 007c 05D0     		beq	.L132
 2245              		.loc 5 662 0 is_stmt 0 discriminator 1
 2246 007e 7B68     		ldr	r3, [r7, #4]
 2247 0080 5B68     		ldr	r3, [r3, #4]
ARM GAS  C:\Users\Luis\AppData\Local\Temp\ccB0PfuY.s 			page 41


 2248 0082 1B68     		ldr	r3, [r3]
 2249 0084 7868     		ldr	r0, [r7, #4]
 2250 0086 0521     		movs	r1, #5
 2251 0088 9847     		blx	r3
 2252              	.L132:
 2253              		.loc 5 663 0 is_stmt 1
 2254 008a 7B68     		ldr	r3, [r7, #4]
 2255 008c 0622     		movs	r2, #6
 2256 008e 83F84C20 		strb	r2, [r3, #76]
 2257              		.loc 5 664 0
 2258 0092 6CE0     		b	.L128
 2259              	.L130:
 2260              		.loc 5 676 0
 2261 0094 7B68     		ldr	r3, [r7, #4]
 2262 0096 6233     		adds	r3, r3, #98
 2263 0098 1846     		mov	r0, r3
 2264 009a FFF7FEFF 		bl	get_hword
 2265 009e 0346     		mov	r3, r0
 2266 00a0 FB60     		str	r3, [r7, #12]
 2267              		.loc 5 678 0
 2268 00a2 7B68     		ldr	r3, [r7, #4]
 2269 00a4 5A6D     		ldr	r2, [r3, #84]
 2270 00a6 FB68     		ldr	r3, [r7, #12]
 2271 00a8 9A42     		cmp	r2, r3
 2272 00aa 02D9     		bls	.L134
 2273              		.loc 5 679 0
 2274 00ac 7B68     		ldr	r3, [r7, #4]
 2275 00ae FA68     		ldr	r2, [r7, #12]
 2276 00b0 5A65     		str	r2, [r3, #84]
 2277              	.L134:
 2278              		.loc 5 681 0
 2279 00b2 7B68     		ldr	r3, [r7, #4]
 2280 00b4 93F85C30 		ldrb	r3, [r3, #92]	@ zero_extendqisi2
 2281 00b8 DBB2     		uxtb	r3, r3
 2282 00ba 5BB2     		sxtb	r3, r3
 2283 00bc 002B     		cmp	r3, #0
 2284 00be 2BDA     		bge	.L135
 2285              		.loc 5 683 0
 2286 00c0 7B68     		ldr	r3, [r7, #4]
 2287 00c2 5B6D     		ldr	r3, [r3, #84]
 2288 00c4 002B     		cmp	r3, #0
 2289 00c6 14D0     		beq	.L136
 2290              		.loc 5 685 0
 2291 00c8 7B68     		ldr	r3, [r7, #4]
 2292 00ca 0122     		movs	r2, #1
 2293 00cc 83F84C20 		strb	r2, [r3, #76]
 2294              		.loc 5 686 0
 2295 00d0 7B68     		ldr	r3, [r7, #4]
 2296 00d2 1A6D     		ldr	r2, [r3, #80]
 2297 00d4 7B68     		ldr	r3, [r7, #4]
 2298 00d6 5B6D     		ldr	r3, [r3, #84]
 2299 00d8 7868     		ldr	r0, [r7, #4]
 2300 00da 0021     		movs	r1, #0
 2301 00dc FFF7FEFF 		bl	usbPrepareTransmit
 2302              		.loc 5 687 0
 2303 00e0 FFF7FEFF 		bl	osalSysLockFromISR
 2304              		.loc 5 688 0
ARM GAS  C:\Users\Luis\AppData\Local\Temp\ccB0PfuY.s 			page 42


 2305 00e4 7868     		ldr	r0, [r7, #4]
 2306 00e6 0021     		movs	r1, #0
 2307 00e8 FFF7FEFF 		bl	usbStartTransmitI
 2308              		.loc 5 689 0
 2309 00ec FFF7FEFF 		bl	osalSysUnlockFromISR
 2310 00f0 3DE0     		b	.L128
 2311              	.L136:
 2312              		.loc 5 694 0
 2313 00f2 7B68     		ldr	r3, [r7, #4]
 2314 00f4 0322     		movs	r2, #3
 2315 00f6 83F84C20 		strb	r2, [r3, #76]
 2316              		.loc 5 696 0
 2317 00fa 7868     		ldr	r0, [r7, #4]
 2318 00fc 0021     		movs	r1, #0
 2319 00fe 0022     		movs	r2, #0
 2320 0100 0023     		movs	r3, #0
 2321 0102 FFF7FEFF 		bl	usbPrepareReceive
 2322              		.loc 5 697 0
 2323 0106 FFF7FEFF 		bl	osalSysLockFromISR
 2324              		.loc 5 698 0
 2325 010a 7868     		ldr	r0, [r7, #4]
 2326 010c 0021     		movs	r1, #0
 2327 010e FFF7FEFF 		bl	usbStartReceiveI
 2328              		.loc 5 699 0
 2329 0112 FFF7FEFF 		bl	osalSysUnlockFromISR
 2330 0116 2AE0     		b	.L128
 2331              	.L135:
 2332              		.loc 5 707 0
 2333 0118 7B68     		ldr	r3, [r7, #4]
 2334 011a 5B6D     		ldr	r3, [r3, #84]
 2335 011c 002B     		cmp	r3, #0
 2336 011e 14D0     		beq	.L138
 2337              		.loc 5 709 0
 2338 0120 7B68     		ldr	r3, [r7, #4]
 2339 0122 0422     		movs	r2, #4
 2340 0124 83F84C20 		strb	r2, [r3, #76]
 2341              		.loc 5 710 0
 2342 0128 7B68     		ldr	r3, [r7, #4]
 2343 012a 1A6D     		ldr	r2, [r3, #80]
 2344 012c 7B68     		ldr	r3, [r7, #4]
 2345 012e 5B6D     		ldr	r3, [r3, #84]
 2346 0130 7868     		ldr	r0, [r7, #4]
 2347 0132 0021     		movs	r1, #0
 2348 0134 FFF7FEFF 		bl	usbPrepareReceive
 2349              		.loc 5 711 0
 2350 0138 FFF7FEFF 		bl	osalSysLockFromISR
 2351              		.loc 5 712 0
 2352 013c 7868     		ldr	r0, [r7, #4]
 2353 013e 0021     		movs	r1, #0
 2354 0140 FFF7FEFF 		bl	usbStartReceiveI
 2355              		.loc 5 713 0
 2356 0144 FFF7FEFF 		bl	osalSysUnlockFromISR
 2357 0148 11E0     		b	.L128
 2358              	.L138:
 2359              		.loc 5 718 0
 2360 014a 7B68     		ldr	r3, [r7, #4]
 2361 014c 0522     		movs	r2, #5
ARM GAS  C:\Users\Luis\AppData\Local\Temp\ccB0PfuY.s 			page 43


 2362 014e 83F84C20 		strb	r2, [r3, #76]
 2363              		.loc 5 720 0
 2364 0152 7868     		ldr	r0, [r7, #4]
 2365 0154 0021     		movs	r1, #0
 2366 0156 0022     		movs	r2, #0
 2367 0158 0023     		movs	r3, #0
 2368 015a FFF7FEFF 		bl	usbPrepareTransmit
 2369              		.loc 5 721 0
 2370 015e FFF7FEFF 		bl	osalSysLockFromISR
 2371              		.loc 5 722 0
 2372 0162 7868     		ldr	r0, [r7, #4]
 2373 0164 0021     		movs	r1, #0
 2374 0166 FFF7FEFF 		bl	usbStartTransmitI
 2375              		.loc 5 723 0
 2376 016a FFF7FEFF 		bl	osalSysUnlockFromISR
 2377              	.L128:
 2378              		.loc 5 729 0
 2379 016e 1037     		adds	r7, r7, #16
 2380 0170 BD46     		mov	sp, r7
 2381              		@ sp needed
 2382 0172 80BD     		pop	{r7, pc}
 2383              		.cfi_endproc
 2384              	.LFE278:
 2385              		.size	_usb_ep0setup, .-_usb_ep0setup
 2386 0174 AFF30080 		.section	.text._usb_ep0in,"ax",%progbits
 2386      AFF30080 
 2386      AFF30080 
 2387              		.align	2
 2388              		.p2align 4,,15
 2389              		.global	_usb_ep0in
 2390              		.thumb
 2391              		.thumb_func
 2392              		.type	_usb_ep0in, %function
 2393              	_usb_ep0in:
 2394              	.LFB279:
 2395              		.loc 5 741 0
 2396              		.cfi_startproc
 2397              		@ args = 0, pretend = 0, frame = 16
 2398              		@ frame_needed = 1, uses_anonymous_args = 0
 2399 0000 80B5     		push	{r7, lr}
 2400              		.cfi_def_cfa_offset 8
 2401              		.cfi_offset 7, -8
 2402              		.cfi_offset 14, -4
 2403 0002 84B0     		sub	sp, sp, #16
 2404              		.cfi_def_cfa_offset 24
 2405 0004 00AF     		add	r7, sp, #0
 2406              		.cfi_def_cfa_register 7
 2407 0006 7860     		str	r0, [r7, #4]
 2408 0008 0B46     		mov	r3, r1
 2409 000a FB70     		strb	r3, [r7, #3]
 2410              		.loc 5 745 0
 2411 000c 7B68     		ldr	r3, [r7, #4]
 2412 000e 93F84C30 		ldrb	r3, [r3, #76]	@ zero_extendqisi2
 2413 0012 062B     		cmp	r3, #6
 2414 0014 76D8     		bhi	.L140
 2415 0016 01A2     		adr	r2, .L142
 2416 0018 52F823F0 		ldr	pc, [r2, r3, lsl #2]
ARM GAS  C:\Users\Luis\AppData\Local\Temp\ccB0PfuY.s 			page 44


 2417              		.p2align 2
 2418              	.L142:
 2419 001c CF000000 		.word	.L141+1
 2420 0020 39000000 		.word	.L143+1
 2421 0024 8F000000 		.word	.L144+1
 2422 0028 CF000000 		.word	.L141+1
 2423 002c CF000000 		.word	.L141+1
 2424 0030 B5000000 		.word	.L145+1
 2425 0034 D5000000 		.word	.L146+1
 2426              	.L143:
 2427              		.loc 5 747 0
 2428 0038 7B68     		ldr	r3, [r7, #4]
 2429 003a 6233     		adds	r3, r3, #98
 2430 003c 1846     		mov	r0, r3
 2431 003e FFF7FEFF 		bl	get_hword
 2432 0042 0346     		mov	r3, r0
 2433 0044 FB60     		str	r3, [r7, #12]
 2434              		.loc 5 751 0
 2435 0046 7B68     		ldr	r3, [r7, #4]
 2436 0048 5A6D     		ldr	r2, [r3, #84]
 2437 004a FB68     		ldr	r3, [r7, #12]
 2438 004c 9A42     		cmp	r2, r3
 2439 004e 1ED2     		bcs	.L144
 2440              		.loc 5 752 0 discriminator 1
 2441 0050 7B68     		ldr	r3, [r7, #4]
 2442 0052 5B6D     		ldr	r3, [r3, #84]
 2443 0054 7A68     		ldr	r2, [r7, #4]
 2444 0056 D268     		ldr	r2, [r2, #12]
 2445 0058 128A     		ldrh	r2, [r2, #16]
 2446 005a B3FBF2F1 		udiv	r1, r3, r2
 2447 005e 02FB01F2 		mul	r2, r2, r1
 2448 0062 9B1A     		subs	r3, r3, r2
 2449              		.loc 5 751 0 discriminator 1
 2450 0064 002B     		cmp	r3, #0
 2451 0066 12D1     		bne	.L144
 2452              		.loc 5 753 0
 2453 0068 7868     		ldr	r0, [r7, #4]
 2454 006a 0021     		movs	r1, #0
 2455 006c 0022     		movs	r2, #0
 2456 006e 0023     		movs	r3, #0
 2457 0070 FFF7FEFF 		bl	usbPrepareTransmit
 2458              		.loc 5 754 0
 2459 0074 FFF7FEFF 		bl	osalSysLockFromISR
 2460              		.loc 5 755 0
 2461 0078 7868     		ldr	r0, [r7, #4]
 2462 007a 0021     		movs	r1, #0
 2463 007c FFF7FEFF 		bl	usbStartTransmitI
 2464              		.loc 5 756 0
 2465 0080 FFF7FEFF 		bl	osalSysUnlockFromISR
 2466              		.loc 5 757 0
 2467 0084 7B68     		ldr	r3, [r7, #4]
 2468 0086 0222     		movs	r2, #2
 2469 0088 83F84C20 		strb	r2, [r3, #76]
 2470              		.loc 5 758 0
 2471 008c 3DE0     		b	.L139
 2472              	.L144:
 2473              		.loc 5 763 0
ARM GAS  C:\Users\Luis\AppData\Local\Temp\ccB0PfuY.s 			page 45


 2474 008e 7B68     		ldr	r3, [r7, #4]
 2475 0090 0322     		movs	r2, #3
 2476 0092 83F84C20 		strb	r2, [r3, #76]
 2477              		.loc 5 765 0
 2478 0096 7868     		ldr	r0, [r7, #4]
 2479 0098 0021     		movs	r1, #0
 2480 009a 0022     		movs	r2, #0
 2481 009c 0023     		movs	r3, #0
 2482 009e FFF7FEFF 		bl	usbPrepareReceive
 2483              		.loc 5 766 0
 2484 00a2 FFF7FEFF 		bl	osalSysLockFromISR
 2485              		.loc 5 767 0
 2486 00a6 7868     		ldr	r0, [r7, #4]
 2487 00a8 0021     		movs	r1, #0
 2488 00aa FFF7FEFF 		bl	usbStartReceiveI
 2489              		.loc 5 768 0
 2490 00ae FFF7FEFF 		bl	osalSysUnlockFromISR
 2491              		.loc 5 772 0
 2492 00b2 2AE0     		b	.L139
 2493              	.L145:
 2494              		.loc 5 775 0
 2495 00b4 7B68     		ldr	r3, [r7, #4]
 2496 00b6 9B6D     		ldr	r3, [r3, #88]
 2497 00b8 002B     		cmp	r3, #0
 2498 00ba 03D0     		beq	.L148
 2499              		.loc 5 776 0
 2500 00bc 7B68     		ldr	r3, [r7, #4]
 2501 00be 9B6D     		ldr	r3, [r3, #88]
 2502 00c0 7868     		ldr	r0, [r7, #4]
 2503 00c2 9847     		blx	r3
 2504              	.L148:
 2505              		.loc 5 778 0
 2506 00c4 7B68     		ldr	r3, [r7, #4]
 2507 00c6 0022     		movs	r2, #0
 2508 00c8 83F84C20 		strb	r2, [r3, #76]
 2509              		.loc 5 779 0
 2510 00cc 1DE0     		b	.L139
 2511              	.L141:
 2512              		.loc 5 784 0
 2513 00ce 1048     		ldr	r0, .L150
 2514 00d0 FFF7FEFF 		bl	chSysHalt
 2515              	.L146:
 2516              		.loc 5 790 0
 2517 00d4 7868     		ldr	r0, [r7, #4]
 2518 00d6 0021     		movs	r1, #0
 2519 00d8 FFF7FEFF 		bl	usb_lld_stall_in
 2520              		.loc 5 791 0
 2521 00dc 7868     		ldr	r0, [r7, #4]
 2522 00de 0021     		movs	r1, #0
 2523 00e0 FFF7FEFF 		bl	usb_lld_stall_out
 2524              		.loc 5 792 0
 2525 00e4 7B68     		ldr	r3, [r7, #4]
 2526 00e6 5B68     		ldr	r3, [r3, #4]
 2527 00e8 1B68     		ldr	r3, [r3]
 2528 00ea 002B     		cmp	r3, #0
 2529 00ec 05D0     		beq	.L149
 2530              		.loc 5 792 0 is_stmt 0 discriminator 1
ARM GAS  C:\Users\Luis\AppData\Local\Temp\ccB0PfuY.s 			page 46


 2531 00ee 7B68     		ldr	r3, [r7, #4]
 2532 00f0 5B68     		ldr	r3, [r3, #4]
 2533 00f2 1B68     		ldr	r3, [r3]
 2534 00f4 7868     		ldr	r0, [r7, #4]
 2535 00f6 0521     		movs	r1, #5
 2536 00f8 9847     		blx	r3
 2537              	.L149:
 2538              		.loc 5 793 0 is_stmt 1
 2539 00fa 7B68     		ldr	r3, [r7, #4]
 2540 00fc 0622     		movs	r2, #6
 2541 00fe 83F84C20 		strb	r2, [r3, #76]
 2542              		.loc 5 794 0
 2543 0102 02E0     		b	.L139
 2544              	.L140:
 2545              		.loc 5 796 0
 2546 0104 0248     		ldr	r0, .L150
 2547 0106 FFF7FEFF 		bl	chSysHalt
 2548              	.L139:
 2549              		.loc 5 798 0
 2550 010a 1037     		adds	r7, r7, #16
 2551 010c BD46     		mov	sp, r7
 2552              		@ sp needed
 2553 010e 80BD     		pop	{r7, pc}
 2554              	.L151:
 2555              		.align	2
 2556              	.L150:
 2557 0110 00000000 		.word	__func__.8395
 2558              		.cfi_endproc
 2559              	.LFE279:
 2560              		.size	_usb_ep0in, .-_usb_ep0in
 2561 0114 AFF30080 		.section	.text._usb_ep0out,"ax",%progbits
 2561      AFF30080 
 2561      AFF30080 
 2562              		.align	2
 2563              		.p2align 4,,15
 2564              		.global	_usb_ep0out
 2565              		.thumb
 2566              		.thumb_func
 2567              		.type	_usb_ep0out, %function
 2568              	_usb_ep0out:
 2569              	.LFB280:
 2570              		.loc 5 810 0
 2571              		.cfi_startproc
 2572              		@ args = 0, pretend = 0, frame = 8
 2573              		@ frame_needed = 1, uses_anonymous_args = 0
 2574 0000 80B5     		push	{r7, lr}
 2575              		.cfi_def_cfa_offset 8
 2576              		.cfi_offset 7, -8
 2577              		.cfi_offset 14, -4
 2578 0002 82B0     		sub	sp, sp, #8
 2579              		.cfi_def_cfa_offset 16
 2580 0004 00AF     		add	r7, sp, #0
 2581              		.cfi_def_cfa_register 7
 2582 0006 7860     		str	r0, [r7, #4]
 2583 0008 0B46     		mov	r3, r1
 2584 000a FB70     		strb	r3, [r7, #3]
 2585              		.loc 5 813 0
ARM GAS  C:\Users\Luis\AppData\Local\Temp\ccB0PfuY.s 			page 47


 2586 000c 7B68     		ldr	r3, [r7, #4]
 2587 000e 93F84C30 		ldrb	r3, [r3, #76]	@ zero_extendqisi2
 2588 0012 062B     		cmp	r3, #6
 2589 0014 52D8     		bhi	.L153
 2590 0016 01A2     		adr	r2, .L155
 2591 0018 52F823F0 		ldr	pc, [r2, r3, lsl #2]
 2592              		.p2align 2
 2593              	.L155:
 2594 001c 87000000 		.word	.L154+1
 2595 0020 87000000 		.word	.L154+1
 2596 0024 87000000 		.word	.L154+1
 2597 0028 5F000000 		.word	.L156+1
 2598 002c 39000000 		.word	.L157+1
 2599 0030 87000000 		.word	.L154+1
 2600 0034 8D000000 		.word	.L158+1
 2601              	.L157:
 2602              		.loc 5 816 0
 2603 0038 7B68     		ldr	r3, [r7, #4]
 2604 003a 0522     		movs	r2, #5
 2605 003c 83F84C20 		strb	r2, [r3, #76]
 2606              		.loc 5 818 0
 2607 0040 7868     		ldr	r0, [r7, #4]
 2608 0042 0021     		movs	r1, #0
 2609 0044 0022     		movs	r2, #0
 2610 0046 0023     		movs	r3, #0
 2611 0048 FFF7FEFF 		bl	usbPrepareTransmit
 2612              		.loc 5 819 0
 2613 004c FFF7FEFF 		bl	osalSysLockFromISR
 2614              		.loc 5 820 0
 2615 0050 7868     		ldr	r0, [r7, #4]
 2616 0052 0021     		movs	r1, #0
 2617 0054 FFF7FEFF 		bl	usbStartTransmitI
 2618              		.loc 5 821 0
 2619 0058 FFF7FEFF 		bl	osalSysUnlockFromISR
 2620              		.loc 5 825 0
 2621 005c 31E0     		b	.L152
 2622              	.L156:
 2623              		.loc 5 830 0
 2624 005e 7B68     		ldr	r3, [r7, #4]
 2625 0060 DB68     		ldr	r3, [r3, #12]
 2626 0062 9B69     		ldr	r3, [r3, #24]
 2627 0064 9B68     		ldr	r3, [r3, #8]
 2628 0066 002B     		cmp	r3, #0
 2629 0068 00D0     		beq	.L160
 2630              		.loc 5 831 0
 2631 006a 2AE0     		b	.L152
 2632              	.L160:
 2633              		.loc 5 834 0
 2634 006c 7B68     		ldr	r3, [r7, #4]
 2635 006e 9B6D     		ldr	r3, [r3, #88]
 2636 0070 002B     		cmp	r3, #0
 2637 0072 03D0     		beq	.L161
 2638              		.loc 5 835 0
 2639 0074 7B68     		ldr	r3, [r7, #4]
 2640 0076 9B6D     		ldr	r3, [r3, #88]
 2641 0078 7868     		ldr	r0, [r7, #4]
 2642 007a 9847     		blx	r3
ARM GAS  C:\Users\Luis\AppData\Local\Temp\ccB0PfuY.s 			page 48


 2643              	.L161:
 2644              		.loc 5 837 0
 2645 007c 7B68     		ldr	r3, [r7, #4]
 2646 007e 0022     		movs	r2, #0
 2647 0080 83F84C20 		strb	r2, [r3, #76]
 2648              		.loc 5 838 0
 2649 0084 1DE0     		b	.L152
 2650              	.L154:
 2651              		.loc 5 844 0
 2652 0086 1048     		ldr	r0, .L163
 2653 0088 FFF7FEFF 		bl	chSysHalt
 2654              	.L158:
 2655              		.loc 5 850 0
 2656 008c 7868     		ldr	r0, [r7, #4]
 2657 008e 0021     		movs	r1, #0
 2658 0090 FFF7FEFF 		bl	usb_lld_stall_in
 2659              		.loc 5 851 0
 2660 0094 7868     		ldr	r0, [r7, #4]
 2661 0096 0021     		movs	r1, #0
 2662 0098 FFF7FEFF 		bl	usb_lld_stall_out
 2663              		.loc 5 852 0
 2664 009c 7B68     		ldr	r3, [r7, #4]
 2665 009e 5B68     		ldr	r3, [r3, #4]
 2666 00a0 1B68     		ldr	r3, [r3]
 2667 00a2 002B     		cmp	r3, #0
 2668 00a4 05D0     		beq	.L162
 2669              		.loc 5 852 0 is_stmt 0 discriminator 1
 2670 00a6 7B68     		ldr	r3, [r7, #4]
 2671 00a8 5B68     		ldr	r3, [r3, #4]
 2672 00aa 1B68     		ldr	r3, [r3]
 2673 00ac 7868     		ldr	r0, [r7, #4]
 2674 00ae 0521     		movs	r1, #5
 2675 00b0 9847     		blx	r3
 2676              	.L162:
 2677              		.loc 5 853 0 is_stmt 1
 2678 00b2 7B68     		ldr	r3, [r7, #4]
 2679 00b4 0622     		movs	r2, #6
 2680 00b6 83F84C20 		strb	r2, [r3, #76]
 2681              		.loc 5 854 0
 2682 00ba 02E0     		b	.L152
 2683              	.L153:
 2684              		.loc 5 856 0
 2685 00bc 0248     		ldr	r0, .L163
 2686 00be FFF7FEFF 		bl	chSysHalt
 2687              	.L152:
 2688              		.loc 5 858 0
 2689 00c2 0837     		adds	r7, r7, #8
 2690 00c4 BD46     		mov	sp, r7
 2691              		@ sp needed
 2692 00c6 80BD     		pop	{r7, pc}
 2693              	.L164:
 2694              		.align	2
 2695              	.L163:
 2696 00c8 00000000 		.word	__func__.8409
 2697              		.cfi_endproc
 2698              	.LFE280:
 2699              		.size	_usb_ep0out, .-_usb_ep0out
ARM GAS  C:\Users\Luis\AppData\Local\Temp\ccB0PfuY.s 			page 49


 2700 00cc AFF30080 		.section	.rodata.__func__.8302,"a",%progbits
 2701              		.align	2
 2702              		.type	__func__.8302, %object
 2703              		.size	__func__.8302, 9
 2704              	__func__.8302:
 2705 0000 75736253 		.ascii	"usbStart\000"
 2705      74617274 
 2705      00
 2706 0009 000000   		.section	.rodata.__func__.6186,"a",%progbits
 2707              		.align	2
 2708              		.type	__func__.6186, %object
 2709              		.size	__func__.6186, 12
 2710              	__func__.6186:
 2711 0000 63685379 		.ascii	"chSysUnlock\000"
 2711      73556E6C 
 2711      6F636B00 
 2712              		.section	.rodata.__func__.8309,"a",%progbits
 2713              		.align	2
 2714              		.type	__func__.8309, %object
 2715              		.size	__func__.8309, 8
 2716              	__func__.8309:
 2717 0000 75736253 		.ascii	"usbStop\000"
 2717      746F7000 
 2718              		.section	.rodata.__func__.8315,"a",%progbits
 2719              		.align	2
 2720              		.type	__func__.8315, %object
 2721              		.size	__func__.8315, 17
 2722              	__func__.8315:
 2723 0000 75736249 		.ascii	"usbInitEndpointI\000"
 2723      6E697445 
 2723      6E64706F 
 2723      696E7449 
 2723      00
 2724 0011 000000   		.section	.rodata.__func__.8320,"a",%progbits
 2725              		.align	2
 2726              		.type	__func__.8320, %object
 2727              		.size	__func__.8320, 21
 2728              	__func__.8320:
 2729 0000 75736244 		.ascii	"usbDisableEndpointsI\000"
 2729      69736162 
 2729      6C65456E 
 2729      64706F69 
 2729      6E747349 
 2730 0015 000000   		.section	.rodata.__func__.8356,"a",%progbits
 2731              		.align	2
 2732              		.type	__func__.8356, %object
 2733              		.size	__func__.8356, 17
 2734              	__func__.8356:
 2735 0000 75736253 		.ascii	"usbStartReceiveI\000"
 2735      74617274 
 2735      52656365 
 2735      69766549 
 2735      00
 2736 0011 000000   		.section	.rodata.__func__.8361,"a",%progbits
 2737              		.align	2
 2738              		.type	__func__.8361, %object
 2739              		.size	__func__.8361, 18
ARM GAS  C:\Users\Luis\AppData\Local\Temp\ccB0PfuY.s 			page 50


 2740              	__func__.8361:
 2741 0000 75736253 		.ascii	"usbStartTransmitI\000"
 2741      74617274 
 2741      5472616E 
 2741      736D6974 
 2741      4900
 2742 0012 0000     		.section	.rodata.__func__.8366,"a",%progbits
 2743              		.align	2
 2744              		.type	__func__.8366, %object
 2745              		.size	__func__.8366, 17
 2746              	__func__.8366:
 2747 0000 75736253 		.ascii	"usbStallReceiveI\000"
 2747      74616C6C 
 2747      52656365 
 2747      69766549 
 2747      00
 2748 0011 000000   		.section	.rodata.__func__.8371,"a",%progbits
 2749              		.align	2
 2750              		.type	__func__.8371, %object
 2751              		.size	__func__.8371, 18
 2752              	__func__.8371:
 2753 0000 75736253 		.ascii	"usbStallTransmitI\000"
 2753      74616C6C 
 2753      5472616E 
 2753      736D6974 
 2753      4900
 2754 0012 0000     		.section	.rodata.__func__.8395,"a",%progbits
 2755              		.align	2
 2756              		.type	__func__.8395, %object
 2757              		.size	__func__.8395, 11
 2758              	__func__.8395:
 2759 0000 5F757362 		.ascii	"_usb_ep0in\000"
 2759      5F657030 
 2759      696E00
 2760 000b 00       		.section	.rodata.__func__.8409,"a",%progbits
 2761              		.align	2
 2762              		.type	__func__.8409, %object
 2763              		.size	__func__.8409, 12
 2764              	__func__.8409:
 2765 0000 5F757362 		.ascii	"_usb_ep0out\000"
 2765      5F657030 
 2765      6F757400 
 2766              		.text
 2767              	.Letext0:
 2768              		.file 6 "c:\\emtechesdk\\gcc\\lib\\gcc\\arm-none-eabi\\4.8.3\\include\\stddef.h"
 2769              		.file 7 "c:\\emtechesdk\\gcc\\arm-none-eabi\\include\\stdint.h"
 2770              		.file 8 "../../ChibiOS/os/rt/ports/ARMCMx/compilers/GCC/chtypes.h"
 2771              		.file 9 "../../ChibiOS/os/rt/include/chsystypes.h"
 2772              		.file 10 "../../ChibiOS/os/rt/include/chschd.h"
 2773              		.file 11 "../../ChibiOS/os/rt/ports/ARMCMx/chcore.h"
 2774              		.file 12 "../../ChibiOS/os/rt/include/chdebug.h"
 2775              		.file 13 "../../ChibiOS/os/rt/include/chtm.h"
 2776              		.file 14 "../../ChibiOS/os/rt/include/chstats.h"
 2777              		.file 15 "../../ChibiOS/os/rt/include/chsem.h"
 2778              		.file 16 "../../ChibiOS/os/rt/include/chmtx.h"
 2779              		.file 17 "../../ChibiOS/os/rt/include/chqueues.h"
 2780              		.file 18 "../../ChibiOS/os/hal/include/usb.h"
ARM GAS  C:\Users\Luis\AppData\Local\Temp\ccB0PfuY.s 			page 51


 2781              		.file 19 "../../ChibiOS/os/hal/ports/STM32/LLD/OTGv1/usb_lld.h"
 2782              		.file 20 "../../ChibiOS/os/hal/ports/STM32/LLD/OTGv1/stm32_otg.h"
 2783              		.file 21 "../../ChibiOS/os/ext/CMSIS/include/core_cm4.h"