ARM GAS  C:\Users\Luis\AppData\Local\Temp\ccB0PfuY.s 			page 1


   1              		.syntax unified
   2              		.cpu cortex-m4
   3              		.fpu softvfp
   4              		.eabi_attribute 20, 1
   5              		.eabi_attribute 21, 1
   6              		.eabi_attribute 23, 3
   7              		.eabi_attribute 24, 1
   8              		.eabi_attribute 25, 1
   9              		.eabi_attribute 26, 1
  10              		.eabi_attribute 30, 6
  11              		.eabi_attribute 34, 1
  12              		.eabi_attribute 18, 4
  13              		.thumb
  14              		.file	"usb.c"
  15              		.text
  16              	.Ltext0:
  17              		.cfi_sections	.debug_frame
  18              		.section	.text.port_lock,"ax",%progbits
  19              		.align	2
  20              		.p2align 4,,15
  21              		.thumb
  22              		.thumb_func
  23              		.type	port_lock, %function
  24              	port_lock:
  25              	.LFB116:
  26              		.file 1 "../../ChibiOS/os/rt/ports/ARMCMx/chcore_v7m.h"
  27              		.loc 1 444 0
  28              		.cfi_startproc
  29              		@ args = 0, pretend = 0, frame = 8
  30              		@ frame_needed = 1, uses_anonymous_args = 0
  31              		@ link register save eliminated.
  32 0000 80B4     		push	{r7}
  33              		.cfi_def_cfa_offset 4
  34              		.cfi_offset 7, -4
  35 0002 83B0     		sub	sp, sp, #12
  36              		.cfi_def_cfa_offset 16
  37 0004 00AF     		add	r7, sp, #0
  38              		.cfi_def_cfa_register 7
  39 0006 2023     		movs	r3, #32
  40 0008 7B60     		str	r3, [r7, #4]
  41              	.LBB6:
  42              	.LBB7:
  43              		.file 2 "../../ChibiOS/os/ext/CMSIS/include/core_cmFunc.h"
  44              		.loc 2 546 0
  45 000a 7B68     		ldr	r3, [r7, #4]
  46              	@ 546 "../../ChibiOS/os/ext/CMSIS/include/core_cmFunc.h" 1
  47 000c 83F31188 		MSR basepri, r3
  48              	@ 0 "" 2
  49              		.thumb
  50              	.LBE7:
  51              	.LBE6:
  52              		.loc 1 451 0
  53 0010 0C37     		adds	r7, r7, #12
  54 0012 BD46     		mov	sp, r7
  55              		@ sp needed
  56 0014 5DF8047B 		ldr	r7, [sp], #4
  57 0018 7047     		bx	lr
ARM GAS  C:\Users\Luis\AppData\Local\Temp\ccB0PfuY.s 			page 2


  58              		.cfi_endproc
  59              	.LFE116:
  60              		.size	port_lock, .-port_lock
  61 001a 00BFAFF3 		.section	.text.port_unlock,"ax",%progbits
  61      0080
  62              		.align	2
  63              		.p2align 4,,15
  64              		.thumb
  65              		.thumb_func
  66              		.type	port_unlock, %function
  67              	port_unlock:
  68              	.LFB117:
  69              		.loc 1 458 0
  70              		.cfi_startproc
  71              		@ args = 0, pretend = 0, frame = 8
  72              		@ frame_needed = 1, uses_anonymous_args = 0
  73              		@ link register save eliminated.
  74 0000 80B4     		push	{r7}
  75              		.cfi_def_cfa_offset 4
  76              		.cfi_offset 7, -4
  77 0002 83B0     		sub	sp, sp, #12
  78              		.cfi_def_cfa_offset 16
  79 0004 00AF     		add	r7, sp, #0
  80              		.cfi_def_cfa_register 7
  81 0006 0023     		movs	r3, #0
  82 0008 7B60     		str	r3, [r7, #4]
  83              	.LBB8:
  84              	.LBB9:
  85              		.loc 2 546 0
  86 000a 7B68     		ldr	r3, [r7, #4]
  87              	@ 546 "../../ChibiOS/os/ext/CMSIS/include/core_cmFunc.h" 1
  88 000c 83F31188 		MSR basepri, r3
  89              	@ 0 "" 2
  90              		.thumb
  91              	.LBE9:
  92              	.LBE8:
  93              		.loc 1 465 0
  94 0010 0C37     		adds	r7, r7, #12
  95 0012 BD46     		mov	sp, r7
  96              		@ sp needed
  97 0014 5DF8047B 		ldr	r7, [sp], #4
  98 0018 7047     		bx	lr
  99              		.cfi_endproc
 100              	.LFE117:
 101              		.size	port_unlock, .-port_unlock
 102 001a 00BFAFF3 		.section	.text.port_lock_from_isr,"ax",%progbits
 102      0080
 103              		.align	2
 104              		.p2align 4,,15
 105              		.thumb
 106              		.thumb_func
 107              		.type	port_lock_from_isr, %function
 108              	port_lock_from_isr:
 109              	.LFB118:
 110              		.loc 1 473 0
 111              		.cfi_startproc
 112              		@ args = 0, pretend = 0, frame = 0
ARM GAS  C:\Users\Luis\AppData\Local\Temp\ccB0PfuY.s 			page 3


 113              		@ frame_needed = 1, uses_anonymous_args = 0
 114 0000 80B5     		push	{r7, lr}
 115              		.cfi_def_cfa_offset 8
 116              		.cfi_offset 7, -8
 117              		.cfi_offset 14, -4
 118 0002 00AF     		add	r7, sp, #0
 119              		.cfi_def_cfa_register 7
 120              		.loc 1 475 0
 121 0004 FFF7FEFF 		bl	port_lock
 122              		.loc 1 476 0
 123 0008 80BD     		pop	{r7, pc}
 124              		.cfi_endproc
 125              	.LFE118:
 126              		.size	port_lock_from_isr, .-port_lock_from_isr
 127 000a 00BFAFF3 		.section	.text.port_unlock_from_isr,"ax",%progbits
 127      0080
 128              		.align	2
 129              		.p2align 4,,15
 130              		.thumb
 131              		.thumb_func
 132              		.type	port_unlock_from_isr, %function
 133              	port_unlock_from_isr:
 134              	.LFB119:
 135              		.loc 1 484 0
 136              		.cfi_startproc
 137              		@ args = 0, pretend = 0, frame = 0
 138              		@ frame_needed = 1, uses_anonymous_args = 0
 139 0000 80B5     		push	{r7, lr}
 140              		.cfi_def_cfa_offset 8
 141              		.cfi_offset 7, -8
 142              		.cfi_offset 14, -4
 143 0002 00AF     		add	r7, sp, #0
 144              		.cfi_def_cfa_register 7
 145              		.loc 1 486 0
 146 0004 FFF7FEFF 		bl	port_unlock
 147              		.loc 1 487 0
 148 0008 80BD     		pop	{r7, pc}
 149              		.cfi_endproc
 150              	.LFE119:
 151              		.size	port_unlock_from_isr, .-port_unlock_from_isr
 152 000a 00BFAFF3 		.section	.text.chSysLock,"ax",%progbits
 152      0080
 153              		.align	2
 154              		.p2align 4,,15
 155              		.thumb
 156              		.thumb_func
 157              		.type	chSysLock, %function
 158              	chSysLock:
 159              	.LFB156:
 160              		.file 3 "../../ChibiOS/os/rt/include/chsys.h"
 161              		.loc 3 346 0
 162              		.cfi_startproc
 163              		@ args = 0, pretend = 0, frame = 0
 164              		@ frame_needed = 1, uses_anonymous_args = 0
 165 0000 80B5     		push	{r7, lr}
 166              		.cfi_def_cfa_offset 8
 167              		.cfi_offset 7, -8
ARM GAS  C:\Users\Luis\AppData\Local\Temp\ccB0PfuY.s 			page 4


 168              		.cfi_offset 14, -4
 169 0002 00AF     		add	r7, sp, #0
 170              		.cfi_def_cfa_register 7
 171              		.loc 3 348 0
 172 0004 FFF7FEFF 		bl	port_lock
 173              		.loc 3 349 0
 174 0008 FFF7FEFF 		bl	_stats_start_measure_crit_thd
 175              		.loc 3 350 0
 176 000c FFF7FEFF 		bl	_dbg_check_lock
 177              		.loc 3 351 0
 178 0010 80BD     		pop	{r7, pc}
 179              		.cfi_endproc
 180              	.LFE156:
 181              		.size	chSysLock, .-chSysLock
 182 0012 00BFAFF3 		.section	.text.chSysUnlock,"ax",%progbits
 182      0080AFF3 
 182      0080AFF3 
 182      0080
 183              		.align	2
 184              		.p2align 4,,15
 185              		.thumb
 186              		.thumb_func
 187              		.type	chSysUnlock, %function
 188              	chSysUnlock:
 189              	.LFB157:
 190              		.loc 3 358 0
 191              		.cfi_startproc
 192              		@ args = 0, pretend = 0, frame = 0
 193              		@ frame_needed = 1, uses_anonymous_args = 0
 194 0000 80B5     		push	{r7, lr}
 195              		.cfi_def_cfa_offset 8
 196              		.cfi_offset 7, -8
 197              		.cfi_offset 14, -4
 198 0002 00AF     		add	r7, sp, #0
 199              		.cfi_def_cfa_register 7
 200              		.loc 3 360 0
 201 0004 FFF7FEFF 		bl	_dbg_check_unlock
 202              		.loc 3 361 0
 203 0008 FFF7FEFF 		bl	_stats_stop_measure_crit_thd
 204              		.loc 3 367 0
 205 000c 094B     		ldr	r3, .L8
 206 000e 1A68     		ldr	r2, [r3]
 207 0010 084B     		ldr	r3, .L8
 208 0012 9A42     		cmp	r2, r3
 209 0014 0AD0     		beq	.L7
 210              		.loc 3 367 0 is_stmt 0 discriminator 1
 211 0016 074B     		ldr	r3, .L8
 212 0018 9B69     		ldr	r3, [r3, #24]
 213 001a 9A68     		ldr	r2, [r3, #8]
 214 001c 054B     		ldr	r3, .L8
 215 001e 1B68     		ldr	r3, [r3]
 216 0020 9B68     		ldr	r3, [r3, #8]
 217 0022 9A42     		cmp	r2, r3
 218 0024 02D2     		bcs	.L7
 219 0026 0448     		ldr	r0, .L8+4
 220 0028 FFF7FEFF 		bl	chSysHalt
 221              	.L7:
ARM GAS  C:\Users\Luis\AppData\Local\Temp\ccB0PfuY.s 			page 5


 222              		.loc 3 371 0 is_stmt 1
 223 002c FFF7FEFF 		bl	port_unlock
 224              		.loc 3 372 0
 225 0030 80BD     		pop	{r7, pc}
 226              	.L9:
 227 0032 00BF     		.align	2
 228              	.L8:
 229 0034 00000000 		.word	ch
 230 0038 00000000 		.word	__func__.6186
 231              		.cfi_endproc
 232              	.LFE157:
 233              		.size	chSysUnlock, .-chSysUnlock
 234 003c AFF30080 		.section	.text.chSysLockFromISR,"ax",%progbits
 235              		.align	2
 236              		.p2align 4,,15
 237              		.thumb
 238              		.thumb_func
 239              		.type	chSysLockFromISR, %function
 240              	chSysLockFromISR:
 241              	.LFB158:
 242              		.loc 3 386 0
 243              		.cfi_startproc
 244              		@ args = 0, pretend = 0, frame = 0
 245              		@ frame_needed = 1, uses_anonymous_args = 0
 246 0000 80B5     		push	{r7, lr}
 247              		.cfi_def_cfa_offset 8
 248              		.cfi_offset 7, -8
 249              		.cfi_offset 14, -4
 250 0002 00AF     		add	r7, sp, #0
 251              		.cfi_def_cfa_register 7
 252              		.loc 3 388 0
 253 0004 FFF7FEFF 		bl	port_lock_from_isr
 254              		.loc 3 389 0
 255 0008 FFF7FEFF 		bl	_stats_start_measure_crit_isr
 256              		.loc 3 390 0
 257 000c FFF7FEFF 		bl	_dbg_check_lock_from_isr
 258              		.loc 3 391 0
 259 0010 80BD     		pop	{r7, pc}
 260              		.cfi_endproc
 261              	.LFE158:
 262              		.size	chSysLockFromISR, .-chSysLockFromISR
 263 0012 00BFAFF3 		.section	.text.chSysUnlockFromISR,"ax",%progbits
 263      0080AFF3 
 263      0080AFF3 
 263      0080
 264              		.align	2
 265              		.p2align 4,,15
 266              		.thumb
 267              		.thumb_func
 268              		.type	chSysUnlockFromISR, %function
 269              	chSysUnlockFromISR:
 270              	.LFB159:
 271              		.loc 3 406 0
 272              		.cfi_startproc
 273              		@ args = 0, pretend = 0, frame = 0
 274              		@ frame_needed = 1, uses_anonymous_args = 0
 275 0000 80B5     		push	{r7, lr}
ARM GAS  C:\Users\Luis\AppData\Local\Temp\ccB0PfuY.s 			page 6


 276              		.cfi_def_cfa_offset 8
 277              		.cfi_offset 7, -8
 278              		.cfi_offset 14, -4
 279 0002 00AF     		add	r7, sp, #0
 280              		.cfi_def_cfa_register 7
 281              		.loc 3 408 0
 282 0004 FFF7FEFF 		bl	_dbg_check_unlock_from_isr
 283              		.loc 3 409 0
 284 0008 FFF7FEFF 		bl	_stats_stop_measure_crit_isr
 285              		.loc 3 410 0
 286 000c FFF7FEFF 		bl	port_unlock_from_isr
 287              		.loc 3 411 0
 288 0010 80BD     		pop	{r7, pc}
 289              		.cfi_endproc
 290              	.LFE159:
 291              		.size	chSysUnlockFromISR, .-chSysUnlockFromISR
 292 0012 00BFAFF3 		.section	.text.osalSysLock,"ax",%progbits
 292      0080AFF3 
 292      0080AFF3 
 292      0080
 293              		.align	2
 294              		.p2align 4,,15
 295              		.thumb
 296              		.thumb_func
 297              		.type	osalSysLock, %function
 298              	osalSysLock:
 299              	.LFB233:
 300              		.file 4 "../../ChibiOS/os/hal/osal/rt/osal.h"
 301              		.loc 4 491 0
 302              		.cfi_startproc
 303              		@ args = 0, pretend = 0, frame = 0
 304              		@ frame_needed = 1, uses_anonymous_args = 0
 305 0000 80B5     		push	{r7, lr}
 306              		.cfi_def_cfa_offset 8
 307              		.cfi_offset 7, -8
 308              		.cfi_offset 14, -4
 309 0002 00AF     		add	r7, sp, #0
 310              		.cfi_def_cfa_register 7
 311              		.loc 4 493 0
 312 0004 FFF7FEFF 		bl	chSysLock
 313              		.loc 4 494 0
 314 0008 80BD     		pop	{r7, pc}
 315              		.cfi_endproc
 316              	.LFE233:
 317              		.size	osalSysLock, .-osalSysLock
 318 000a 00BFAFF3 		.section	.text.osalSysUnlock,"ax",%progbits
 318      0080
 319              		.align	2
 320              		.p2align 4,,15
 321              		.thumb
 322              		.thumb_func
 323              		.type	osalSysUnlock, %function
 324              	osalSysUnlock:
 325              	.LFB234:
 326              		.loc 4 502 0
 327              		.cfi_startproc
 328              		@ args = 0, pretend = 0, frame = 0
ARM GAS  C:\Users\Luis\AppData\Local\Temp\ccB0PfuY.s 			page 7


 329              		@ frame_needed = 1, uses_anonymous_args = 0
 330 0000 80B5     		push	{r7, lr}
 331              		.cfi_def_cfa_offset 8
 332              		.cfi_offset 7, -8
 333              		.cfi_offset 14, -4
 334 0002 00AF     		add	r7, sp, #0
 335              		.cfi_def_cfa_register 7
 336              		.loc 4 504 0
 337 0004 FFF7FEFF 		bl	chSysUnlock
 338              		.loc 4 505 0
 339 0008 80BD     		pop	{r7, pc}
 340              		.cfi_endproc
 341              	.LFE234:
 342              		.size	osalSysUnlock, .-osalSysUnlock
 343 000a 00BFAFF3 		.section	.text.osalSysLockFromISR,"ax",%progbits
 343      0080
 344              		.align	2
 345              		.p2align 4,,15
 346              		.thumb
 347              		.thumb_func
 348              		.type	osalSysLockFromISR, %function
 349              	osalSysLockFromISR:
 350              	.LFB235:
 351              		.loc 4 513 0
 352              		.cfi_startproc
 353              		@ args = 0, pretend = 0, frame = 0
 354              		@ frame_needed = 1, uses_anonymous_args = 0
 355 0000 80B5     		push	{r7, lr}
 356              		.cfi_def_cfa_offset 8
 357              		.cfi_offset 7, -8
 358              		.cfi_offset 14, -4
 359 0002 00AF     		add	r7, sp, #0
 360              		.cfi_def_cfa_register 7
 361              		.loc 4 515 0
 362 0004 FFF7FEFF 		bl	chSysLockFromISR
 363              		.loc 4 516 0
 364 0008 80BD     		pop	{r7, pc}
 365              		.cfi_endproc
 366              	.LFE235:
 367              		.size	osalSysLockFromISR, .-osalSysLockFromISR
 368 000a 00BFAFF3 		.section	.text.osalSysUnlockFromISR,"ax",%progbits
 368      0080
 369              		.align	2
 370              		.p2align 4,,15
 371              		.thumb
 372              		.thumb_func
 373              		.type	osalSysUnlockFromISR, %function
 374              	osalSysUnlockFromISR:
 375              	.LFB236:
 376              		.loc 4 524 0
 377              		.cfi_startproc
 378              		@ args = 0, pretend = 0, frame = 0
 379              		@ frame_needed = 1, uses_anonymous_args = 0
 380 0000 80B5     		push	{r7, lr}
 381              		.cfi_def_cfa_offset 8
 382              		.cfi_offset 7, -8
 383              		.cfi_offset 14, -4
ARM GAS  C:\Users\Luis\AppData\Local\Temp\ccB0PfuY.s 			page 8


 384 0002 00AF     		add	r7, sp, #0
 385              		.cfi_def_cfa_register 7
 386              		.loc 4 526 0
 387 0004 FFF7FEFF 		bl	chSysUnlockFromISR
 388              		.loc 4 527 0
 389 0008 80BD     		pop	{r7, pc}
 390              		.cfi_endproc
 391              	.LFE236:
 392              		.size	osalSysUnlockFromISR, .-osalSysUnlockFromISR
 393 000a 00BFAFF3 		.section	.rodata.zero_status,"a",%progbits
 393      0080
 394              		.align	2
 395              		.type	zero_status, %object
 396              		.size	zero_status, 2
 397              	zero_status:
 398 0000 0000     		.space	2
 399 0002 0000     		.section	.rodata.active_status,"a",%progbits
 400              		.align	2
 401              		.type	active_status, %object
 402              		.size	active_status, 2
 403              	active_status:
 404 0000 0000     		.space	2
 405 0002 0000     		.section	.rodata.halted_status,"a",%progbits
 406              		.align	2
 407              		.type	halted_status, %object
 408              		.size	halted_status, 2
 409              	halted_status:
 410 0000 01       		.byte	1
 411 0001 00       		.byte	0
 412 0002 0000     		.section	.text.get_hword,"ax",%progbits
 413              		.align	2
 414              		.p2align 4,,15
 415              		.thumb
 416              		.thumb_func
 417              		.type	get_hword, %function
 418              	get_hword:
 419              	.LFB260:
 420              		.file 5 "../../ChibiOS/os/hal/src/usb.c"
 421              		.loc 5 51 0
 422              		.cfi_startproc
 423              		@ args = 0, pretend = 0, frame = 16
 424              		@ frame_needed = 1, uses_anonymous_args = 0
 425              		@ link register save eliminated.
 426 0000 80B4     		push	{r7}
 427              		.cfi_def_cfa_offset 4
 428              		.cfi_offset 7, -4
 429 0002 85B0     		sub	sp, sp, #20
 430              		.cfi_def_cfa_offset 24
 431 0004 00AF     		add	r7, sp, #0
 432              		.cfi_def_cfa_register 7
 433 0006 7860     		str	r0, [r7, #4]
 434              		.loc 5 54 0
 435 0008 7B68     		ldr	r3, [r7, #4]
 436 000a 5A1C     		adds	r2, r3, #1
 437 000c 7A60     		str	r2, [r7, #4]
 438 000e 1B78     		ldrb	r3, [r3]	@ zero_extendqisi2
 439 0010 FB81     		strh	r3, [r7, #14]	@ movhi
ARM GAS  C:\Users\Luis\AppData\Local\Temp\ccB0PfuY.s 			page 9


 440              		.loc 5 55 0
 441 0012 7B68     		ldr	r3, [r7, #4]
 442 0014 1B78     		ldrb	r3, [r3]	@ zero_extendqisi2
 443 0016 1B02     		lsls	r3, r3, #8
 444 0018 9AB2     		uxth	r2, r3
 445 001a FB89     		ldrh	r3, [r7, #14]
 446 001c 1343     		orrs	r3, r3, r2
 447 001e 9BB2     		uxth	r3, r3
 448 0020 FB81     		strh	r3, [r7, #14]	@ movhi
 449              		.loc 5 56 0
 450 0022 FB89     		ldrh	r3, [r7, #14]
 451              		.loc 5 57 0
 452 0024 1846     		mov	r0, r3
 453 0026 1437     		adds	r7, r7, #20
 454 0028 BD46     		mov	sp, r7
 455              		@ sp needed
 456 002a 5DF8047B 		ldr	r7, [sp], #4
 457 002e 7047     		bx	lr
 458              		.cfi_endproc
 459              	.LFE260:
 460              		.size	get_hword, .-get_hword
 461              		.section	.text.set_address,"ax",%progbits
 462              		.align	2
 463              		.p2align 4,,15
 464              		.thumb
 465              		.thumb_func
 466              		.type	set_address, %function
 467              	set_address:
 468              	.LFB261:
 469              		.loc 5 64 0
 470              		.cfi_startproc
 471              		@ args = 0, pretend = 0, frame = 8
 472              		@ frame_needed = 1, uses_anonymous_args = 0
 473 0000 80B5     		push	{r7, lr}
 474              		.cfi_def_cfa_offset 8
 475              		.cfi_offset 7, -8
 476              		.cfi_offset 14, -4
 477 0002 82B0     		sub	sp, sp, #8
 478              		.cfi_def_cfa_offset 16
 479 0004 00AF     		add	r7, sp, #0
 480              		.cfi_def_cfa_register 7
 481 0006 7860     		str	r0, [r7, #4]
 482              		.loc 5 66 0
 483 0008 7B68     		ldr	r3, [r7, #4]
 484 000a 93F85E20 		ldrb	r2, [r3, #94]	@ zero_extendqisi2
 485 000e 7B68     		ldr	r3, [r7, #4]
 486 0010 83F86620 		strb	r2, [r3, #102]
 487              		.loc 5 67 0
 488 0014 7868     		ldr	r0, [r7, #4]
 489 0016 FFF7FEFF 		bl	usb_lld_set_address
 490              		.loc 5 68 0
 491 001a 7B68     		ldr	r3, [r7, #4]
 492 001c 5B68     		ldr	r3, [r3, #4]
 493 001e 1B68     		ldr	r3, [r3]
 494 0020 002B     		cmp	r3, #0
 495 0022 05D0     		beq	.L19
 496              		.loc 5 68 0 is_stmt 0 discriminator 1
ARM GAS  C:\Users\Luis\AppData\Local\Temp\ccB0PfuY.s 			page 10


 497 0024 7B68     		ldr	r3, [r7, #4]
 498 0026 5B68     		ldr	r3, [r3, #4]
 499 0028 1B68     		ldr	r3, [r3]
 500 002a 7868     		ldr	r0, [r7, #4]
 501 002c 0121     		movs	r1, #1
 502 002e 9847     		blx	r3
 503              	.L19:
 504              		.loc 5 69 0 is_stmt 1
 505 0030 7B68     		ldr	r3, [r7, #4]
 506 0032 0322     		movs	r2, #3
 507 0034 1A70     		strb	r2, [r3]
 508              		.loc 5 70 0
 509 0036 0837     		adds	r7, r7, #8
 510 0038 BD46     		mov	sp, r7
 511              		@ sp needed
 512 003a 80BD     		pop	{r7, pc}
 513              		.cfi_endproc
 514              	.LFE261:
 515              		.size	set_address, .-set_address
 516 003c AFF30080 		.section	.text.default_handler,"ax",%progbits
 517              		.align	2
 518              		.p2align 4,,15
 519              		.thumb
 520              		.thumb_func
 521              		.type	default_handler, %function
 522              	default_handler:
 523              	.LFB262:
 524              		.loc 5 84 0
 525              		.cfi_startproc
 526              		@ args = 0, pretend = 0, frame = 16
 527              		@ frame_needed = 1, uses_anonymous_args = 0
 528 0000 F0B5     		push	{r4, r5, r6, r7, lr}
 529              		.cfi_def_cfa_offset 20
 530              		.cfi_offset 4, -20
 531              		.cfi_offset 5, -16
 532              		.cfi_offset 6, -12
 533              		.cfi_offset 7, -8
 534              		.cfi_offset 14, -4
 535 0002 85B0     		sub	sp, sp, #20
 536              		.cfi_def_cfa_offset 40
 537 0004 00AF     		add	r7, sp, #0
 538              		.cfi_def_cfa_register 7
 539 0006 7860     		str	r0, [r7, #4]
 540              		.loc 5 88 0
 541 0008 7B68     		ldr	r3, [r7, #4]
 542 000a 93F85C30 		ldrb	r3, [r3, #92]	@ zero_extendqisi2
 543 000e 03F07F02 		and	r2, r3, #127
 544              		.loc 5 90 0
 545 0012 7B68     		ldr	r3, [r7, #4]
 546 0014 93F85D30 		ldrb	r3, [r3, #93]	@ zero_extendqisi2
 547 0018 1B02     		lsls	r3, r3, #8
 548              		.loc 5 89 0
 549 001a 1343     		orrs	r3, r3, r2
 550              		.loc 5 88 0
 551 001c B3F5407F 		cmp	r3, #768
 552 0020 5AD0     		beq	.L22
 553 0022 B3F5407F 		cmp	r3, #768
ARM GAS  C:\Users\Luis\AppData\Local\Temp\ccB0PfuY.s 			page 11


 554 0026 12D8     		bhi	.L23
 555 0028 022B     		cmp	r3, #2
 556 002a 00F0EE80 		beq	.L24
 557 002e 022B     		cmp	r3, #2
 558 0030 05D8     		bhi	.L25
 559 0032 002B     		cmp	r3, #0
 560 0034 28D0     		beq	.L26
 561 0036 012B     		cmp	r3, #1
 562 0038 00F0DC80 		beq	.L27
 563 003c A6E1     		b	.L21
 564              	.L25:
 565 003e B3F5807F 		cmp	r3, #256
 566 0042 2ED0     		beq	.L28
 567 0044 B3F5817F 		cmp	r3, #258
 568 0048 00F03681 		beq	.L29
 569 004c 9EE1     		b	.L21
 570              	.L23:
 571 004e B3F5C06F 		cmp	r3, #1536
 572 0052 74D0     		beq	.L30
 573 0054 B3F5C06F 		cmp	r3, #1536
 574 0058 08D8     		bhi	.L31
 575 005a 40F20232 		movw	r2, #770
 576 005e 9342     		cmp	r3, r2
 577 0060 00F05F81 		beq	.L32
 578 0064 B3F5A06F 		cmp	r3, #1280
 579 0068 51D0     		beq	.L33
 580 006a 8FE1     		b	.L21
 581              	.L31:
 582 006c B3F5106F 		cmp	r3, #2304
 583 0070 00F09880 		beq	.L34
 584 0074 40F60242 		movw	r2, #3074
 585 0078 9342     		cmp	r3, r2
 586 007a 00F0BB80 		beq	.L27
 587 007e B3F5006F 		cmp	r3, #2048
 588 0082 00F08280 		beq	.L35
 589 0086 81E1     		b	.L21
 590              	.L26:
 591              		.loc 5 93 0
 592 0088 7B68     		ldr	r3, [r7, #4]
 593 008a 03F16402 		add	r2, r3, #100
 594 008e 7B68     		ldr	r3, [r7, #4]
 595 0090 1A65     		str	r2, [r3, #80]
 596 0092 7B68     		ldr	r3, [r7, #4]
 597 0094 0222     		movs	r2, #2
 598 0096 5A65     		str	r2, [r3, #84]
 599 0098 7B68     		ldr	r3, [r7, #4]
 600 009a 0022     		movs	r2, #0
 601 009c 9A65     		str	r2, [r3, #88]
 602              		.loc 5 94 0
 603 009e 0123     		movs	r3, #1
 604 00a0 75E1     		b	.L36
 605              	.L28:
 606              		.loc 5 98 0
 607 00a2 7B68     		ldr	r3, [r7, #4]
 608 00a4 93F85E30 		ldrb	r3, [r3, #94]	@ zero_extendqisi2
 609 00a8 012B     		cmp	r3, #1
 610 00aa 13D1     		bne	.L37
ARM GAS  C:\Users\Luis\AppData\Local\Temp\ccB0PfuY.s 			page 12


 611              		.loc 5 99 0
 612 00ac 7B68     		ldr	r3, [r7, #4]
 613 00ae B3F86430 		ldrh	r3, [r3, #100]
 614 00b2 23F00203 		bic	r3, r3, #2
 615 00b6 9AB2     		uxth	r2, r3
 616 00b8 7B68     		ldr	r3, [r7, #4]
 617 00ba A3F86420 		strh	r2, [r3, #100]	@ movhi
 618              		.loc 5 100 0
 619 00be 7B68     		ldr	r3, [r7, #4]
 620 00c0 0022     		movs	r2, #0
 621 00c2 1A65     		str	r2, [r3, #80]
 622 00c4 7B68     		ldr	r3, [r7, #4]
 623 00c6 0022     		movs	r2, #0
 624 00c8 5A65     		str	r2, [r3, #84]
 625 00ca 7B68     		ldr	r3, [r7, #4]
 626 00cc 0022     		movs	r2, #0
 627 00ce 9A65     		str	r2, [r3, #88]
 628              		.loc 5 101 0
 629 00d0 0123     		movs	r3, #1
 630 00d2 5CE1     		b	.L36
 631              	.L37:
 632              		.loc 5 103 0
 633 00d4 0023     		movs	r3, #0
 634 00d6 5AE1     		b	.L36
 635              	.L22:
 636              		.loc 5 107 0
 637 00d8 7B68     		ldr	r3, [r7, #4]
 638 00da 93F85E30 		ldrb	r3, [r3, #94]	@ zero_extendqisi2
 639 00de 012B     		cmp	r3, #1
 640 00e0 13D1     		bne	.L38
 641              		.loc 5 108 0
 642 00e2 7B68     		ldr	r3, [r7, #4]
 643 00e4 B3F86430 		ldrh	r3, [r3, #100]
 644 00e8 43F00203 		orr	r3, r3, #2
 645 00ec 9AB2     		uxth	r2, r3
 646 00ee 7B68     		ldr	r3, [r7, #4]
 647 00f0 A3F86420 		strh	r2, [r3, #100]	@ movhi
 648              		.loc 5 109 0
 649 00f4 7B68     		ldr	r3, [r7, #4]
 650 00f6 0022     		movs	r2, #0
 651 00f8 1A65     		str	r2, [r3, #80]
 652 00fa 7B68     		ldr	r3, [r7, #4]
 653 00fc 0022     		movs	r2, #0
 654 00fe 5A65     		str	r2, [r3, #84]
 655 0100 7B68     		ldr	r3, [r7, #4]
 656 0102 0022     		movs	r2, #0
 657 0104 9A65     		str	r2, [r3, #88]
 658              		.loc 5 110 0
 659 0106 0123     		movs	r3, #1
 660 0108 41E1     		b	.L36
 661              	.L38:
 662              		.loc 5 112 0
 663 010a 0023     		movs	r3, #0
 664 010c 3FE1     		b	.L36
 665              	.L33:
 666              		.loc 5 118 0
 667 010e 7B68     		ldr	r3, [r7, #4]
ARM GAS  C:\Users\Luis\AppData\Local\Temp\ccB0PfuY.s 			page 13


 668 0110 93F85C30 		ldrb	r3, [r3, #92]	@ zero_extendqisi2
 669 0114 002B     		cmp	r3, #0
 670 0116 07D1     		bne	.L39
 671              		.loc 5 119 0 discriminator 1
 672 0118 7B68     		ldr	r3, [r7, #4]
 673 011a 93F85D30 		ldrb	r3, [r3, #93]	@ zero_extendqisi2
 674              		.loc 5 118 0 discriminator 1
 675 011e 052B     		cmp	r3, #5
 676 0120 02D1     		bne	.L39
 677              		.loc 5 120 0
 678 0122 7868     		ldr	r0, [r7, #4]
 679 0124 FFF7FEFF 		bl	set_address
 680              	.L39:
 681              		.loc 5 122 0
 682 0128 7B68     		ldr	r3, [r7, #4]
 683 012a 0022     		movs	r2, #0
 684 012c 1A65     		str	r2, [r3, #80]
 685 012e 7B68     		ldr	r3, [r7, #4]
 686 0130 0022     		movs	r2, #0
 687 0132 5A65     		str	r2, [r3, #84]
 688 0134 7B68     		ldr	r3, [r7, #4]
 689 0136 0022     		movs	r2, #0
 690 0138 9A65     		str	r2, [r3, #88]
 691              		.loc 5 126 0
 692 013a 0123     		movs	r3, #1
 693 013c 27E1     		b	.L36
 694              	.L30:
 695              		.loc 5 129 0
 696 013e 7B68     		ldr	r3, [r7, #4]
 697 0140 5B68     		ldr	r3, [r3, #4]
 698 0142 5C68     		ldr	r4, [r3, #4]
 699 0144 7B68     		ldr	r3, [r7, #4]
 700 0146 93F85F60 		ldrb	r6, [r3, #95]	@ zero_extendqisi2
 701 014a 7B68     		ldr	r3, [r7, #4]
 702 014c 93F85E50 		ldrb	r5, [r3, #94]	@ zero_extendqisi2
 703 0150 7B68     		ldr	r3, [r7, #4]
 704 0152 6033     		adds	r3, r3, #96
 705 0154 1846     		mov	r0, r3
 706 0156 FFF7FEFF 		bl	get_hword
 707 015a 0346     		mov	r3, r0
 708 015c 7868     		ldr	r0, [r7, #4]
 709 015e 3146     		mov	r1, r6
 710 0160 2A46     		mov	r2, r5
 711 0162 A047     		blx	r4
 712 0164 F860     		str	r0, [r7, #12]
 713              		.loc 5 132 0
 714 0166 FB68     		ldr	r3, [r7, #12]
 715 0168 002B     		cmp	r3, #0
 716 016a 01D1     		bne	.L40
 717              		.loc 5 133 0
 718 016c 0023     		movs	r3, #0
 719 016e 0EE1     		b	.L36
 720              	.L40:
 721              		.loc 5 136 0
 722 0170 FB68     		ldr	r3, [r7, #12]
 723 0172 5A68     		ldr	r2, [r3, #4]
 724 0174 7B68     		ldr	r3, [r7, #4]
ARM GAS  C:\Users\Luis\AppData\Local\Temp\ccB0PfuY.s 			page 14


 725 0176 1A65     		str	r2, [r3, #80]
 726 0178 FB68     		ldr	r3, [r7, #12]
 727 017a 1A68     		ldr	r2, [r3]
 728 017c 7B68     		ldr	r3, [r7, #4]
 729 017e 5A65     		str	r2, [r3, #84]
 730 0180 7B68     		ldr	r3, [r7, #4]
 731 0182 0022     		movs	r2, #0
 732 0184 9A65     		str	r2, [r3, #88]
 733              		.loc 5 138 0
 734 0186 0123     		movs	r3, #1
 735 0188 01E1     		b	.L36
 736              	.L35:
 737              		.loc 5 141 0
 738 018a 7B68     		ldr	r3, [r7, #4]
 739 018c 03F16702 		add	r2, r3, #103
 740 0190 7B68     		ldr	r3, [r7, #4]
 741 0192 1A65     		str	r2, [r3, #80]
 742 0194 7B68     		ldr	r3, [r7, #4]
 743 0196 0122     		movs	r2, #1
 744 0198 5A65     		str	r2, [r3, #84]
 745 019a 7B68     		ldr	r3, [r7, #4]
 746 019c 0022     		movs	r2, #0
 747 019e 9A65     		str	r2, [r3, #88]
 748              		.loc 5 142 0
 749 01a0 0123     		movs	r3, #1
 750 01a2 F4E0     		b	.L36
 751              	.L34:
 752              		.loc 5 145 0
 753 01a4 7B68     		ldr	r3, [r7, #4]
 754 01a6 93F85E20 		ldrb	r2, [r3, #94]	@ zero_extendqisi2
 755 01aa 7B68     		ldr	r3, [r7, #4]
 756 01ac 83F86720 		strb	r2, [r3, #103]
 757              		.loc 5 146 0
 758 01b0 7B68     		ldr	r3, [r7, #4]
 759 01b2 93F86730 		ldrb	r3, [r3, #103]	@ zero_extendqisi2
 760 01b6 002B     		cmp	r3, #0
 761 01b8 03D1     		bne	.L41
 762              		.loc 5 147 0
 763 01ba 7B68     		ldr	r3, [r7, #4]
 764 01bc 0322     		movs	r2, #3
 765 01be 1A70     		strb	r2, [r3]
 766 01c0 02E0     		b	.L42
 767              	.L41:
 768              		.loc 5 150 0
 769 01c2 7B68     		ldr	r3, [r7, #4]
 770 01c4 0422     		movs	r2, #4
 771 01c6 1A70     		strb	r2, [r3]
 772              	.L42:
 773              		.loc 5 152 0
 774 01c8 7B68     		ldr	r3, [r7, #4]
 775 01ca 5B68     		ldr	r3, [r3, #4]
 776 01cc 1B68     		ldr	r3, [r3]
 777 01ce 002B     		cmp	r3, #0
 778 01d0 05D0     		beq	.L43
 779              		.loc 5 152 0 is_stmt 0 discriminator 1
 780 01d2 7B68     		ldr	r3, [r7, #4]
 781 01d4 5B68     		ldr	r3, [r3, #4]
ARM GAS  C:\Users\Luis\AppData\Local\Temp\ccB0PfuY.s 			page 15


 782 01d6 1B68     		ldr	r3, [r3]
 783 01d8 7868     		ldr	r0, [r7, #4]
 784 01da 0221     		movs	r1, #2
 785 01dc 9847     		blx	r3
 786              	.L43:
 787              		.loc 5 153 0 is_stmt 1
 788 01de 7B68     		ldr	r3, [r7, #4]
 789 01e0 0022     		movs	r2, #0
 790 01e2 1A65     		str	r2, [r3, #80]
 791 01e4 7B68     		ldr	r3, [r7, #4]
 792 01e6 0022     		movs	r2, #0
 793 01e8 5A65     		str	r2, [r3, #84]
 794 01ea 7B68     		ldr	r3, [r7, #4]
 795 01ec 0022     		movs	r2, #0
 796 01ee 9A65     		str	r2, [r3, #88]
 797              		.loc 5 154 0
 798 01f0 0123     		movs	r3, #1
 799 01f2 CCE0     		b	.L36
 800              	.L27:
 801              		.loc 5 160 0
 802 01f4 7B68     		ldr	r3, [r7, #4]
 803 01f6 684A     		ldr	r2, .L59
 804 01f8 1A65     		str	r2, [r3, #80]
 805 01fa 7B68     		ldr	r3, [r7, #4]
 806 01fc 0222     		movs	r2, #2
 807 01fe 5A65     		str	r2, [r3, #84]
 808 0200 7B68     		ldr	r3, [r7, #4]
 809 0202 0022     		movs	r2, #0
 810 0204 9A65     		str	r2, [r3, #88]
 811              		.loc 5 162 0
 812 0206 0123     		movs	r3, #1
 813 0208 C1E0     		b	.L36
 814              	.L24:
 815              		.loc 5 165 0
 816 020a 7B68     		ldr	r3, [r7, #4]
 817 020c 93F86030 		ldrb	r3, [r3, #96]	@ zero_extendqisi2
 818 0210 DBB2     		uxtb	r3, r3
 819 0212 5BB2     		sxtb	r3, r3
 820 0214 002B     		cmp	r3, #0
 821 0216 27DA     		bge	.L44
 822              		.loc 5 166 0
 823 0218 7B68     		ldr	r3, [r7, #4]
 824 021a 93F86030 		ldrb	r3, [r3, #96]	@ zero_extendqisi2
 825 021e 03F00F03 		and	r3, r3, #15
 826 0222 DBB2     		uxtb	r3, r3
 827 0224 7868     		ldr	r0, [r7, #4]
 828 0226 1946     		mov	r1, r3
 829 0228 FFF7FEFF 		bl	usb_lld_get_status_in
 830 022c 0346     		mov	r3, r0
 831 022e 012B     		cmp	r3, #1
 832 0230 02D0     		beq	.L46
 833 0232 022B     		cmp	r3, #2
 834 0234 0BD0     		beq	.L47
 835 0236 15E0     		b	.L57
 836              	.L46:
 837              		.loc 5 169 0
 838 0238 7B68     		ldr	r3, [r7, #4]
ARM GAS  C:\Users\Luis\AppData\Local\Temp\ccB0PfuY.s 			page 16


 839 023a 584A     		ldr	r2, .L59+4
 840 023c 1A65     		str	r2, [r3, #80]
 841 023e 7B68     		ldr	r3, [r7, #4]
 842 0240 0222     		movs	r2, #2
 843 0242 5A65     		str	r2, [r3, #84]
 844 0244 7B68     		ldr	r3, [r7, #4]
 845 0246 0022     		movs	r2, #0
 846 0248 9A65     		str	r2, [r3, #88]
 847              		.loc 5 171 0
 848 024a 0123     		movs	r3, #1
 849 024c 9FE0     		b	.L36
 850              	.L47:
 851              		.loc 5 174 0
 852 024e 7B68     		ldr	r3, [r7, #4]
 853 0250 534A     		ldr	r2, .L59+8
 854 0252 1A65     		str	r2, [r3, #80]
 855 0254 7B68     		ldr	r3, [r7, #4]
 856 0256 0222     		movs	r2, #2
 857 0258 5A65     		str	r2, [r3, #84]
 858 025a 7B68     		ldr	r3, [r7, #4]
 859 025c 0022     		movs	r2, #0
 860 025e 9A65     		str	r2, [r3, #88]
 861              		.loc 5 176 0
 862 0260 0123     		movs	r3, #1
 863 0262 94E0     		b	.L36
 864              	.L57:
 865              		.loc 5 179 0
 866 0264 0023     		movs	r3, #0
 867 0266 92E0     		b	.L36
 868              	.L44:
 869              		.loc 5 183 0
 870 0268 7B68     		ldr	r3, [r7, #4]
 871 026a 93F86030 		ldrb	r3, [r3, #96]	@ zero_extendqisi2
 872 026e 03F00F03 		and	r3, r3, #15
 873 0272 DBB2     		uxtb	r3, r3
 874 0274 7868     		ldr	r0, [r7, #4]
 875 0276 1946     		mov	r1, r3
 876 0278 FFF7FEFF 		bl	usb_lld_get_status_out
 877 027c 0346     		mov	r3, r0
 878 027e 012B     		cmp	r3, #1
 879 0280 02D0     		beq	.L49
 880 0282 022B     		cmp	r3, #2
 881 0284 0BD0     		beq	.L50
 882 0286 15E0     		b	.L58
 883              	.L49:
 884              		.loc 5 186 0
 885 0288 7B68     		ldr	r3, [r7, #4]
 886 028a 444A     		ldr	r2, .L59+4
 887 028c 1A65     		str	r2, [r3, #80]
 888 028e 7B68     		ldr	r3, [r7, #4]
 889 0290 0222     		movs	r2, #2
 890 0292 5A65     		str	r2, [r3, #84]
 891 0294 7B68     		ldr	r3, [r7, #4]
 892 0296 0022     		movs	r2, #0
 893 0298 9A65     		str	r2, [r3, #88]
 894              		.loc 5 188 0
 895 029a 0123     		movs	r3, #1
ARM GAS  C:\Users\Luis\AppData\Local\Temp\ccB0PfuY.s 			page 17


 896 029c 77E0     		b	.L36
 897              	.L50:
 898              		.loc 5 191 0
 899 029e 7B68     		ldr	r3, [r7, #4]
 900 02a0 3F4A     		ldr	r2, .L59+8
 901 02a2 1A65     		str	r2, [r3, #80]
 902 02a4 7B68     		ldr	r3, [r7, #4]
 903 02a6 0222     		movs	r2, #2
 904 02a8 5A65     		str	r2, [r3, #84]
 905 02aa 7B68     		ldr	r3, [r7, #4]
 906 02ac 0022     		movs	r2, #0
 907 02ae 9A65     		str	r2, [r3, #88]
 908              		.loc 5 193 0
 909 02b0 0123     		movs	r3, #1
 910 02b2 6CE0     		b	.L36
 911              	.L58:
 912              		.loc 5 196 0
 913 02b4 0023     		movs	r3, #0
 914 02b6 6AE0     		b	.L36
 915              	.L29:
 916              		.loc 5 201 0
 917 02b8 7B68     		ldr	r3, [r7, #4]
 918 02ba 93F85E30 		ldrb	r3, [r3, #94]	@ zero_extendqisi2
 919 02be 002B     		cmp	r3, #0
 920 02c0 01D0     		beq	.L51
 921              		.loc 5 202 0
 922 02c2 0023     		movs	r3, #0
 923 02c4 63E0     		b	.L36
 924              	.L51:
 925              		.loc 5 205 0
 926 02c6 7B68     		ldr	r3, [r7, #4]
 927 02c8 93F86030 		ldrb	r3, [r3, #96]	@ zero_extendqisi2
 928 02cc 03F00F03 		and	r3, r3, #15
 929 02d0 002B     		cmp	r3, #0
 930 02d2 1BD0     		beq	.L52
 931              		.loc 5 206 0
 932 02d4 7B68     		ldr	r3, [r7, #4]
 933 02d6 93F86030 		ldrb	r3, [r3, #96]	@ zero_extendqisi2
 934 02da DBB2     		uxtb	r3, r3
 935 02dc 5BB2     		sxtb	r3, r3
 936 02de 002B     		cmp	r3, #0
 937 02e0 0ADA     		bge	.L53
 938              		.loc 5 207 0
 939 02e2 7B68     		ldr	r3, [r7, #4]
 940 02e4 93F86030 		ldrb	r3, [r3, #96]	@ zero_extendqisi2
 941 02e8 03F00F03 		and	r3, r3, #15
 942 02ec DBB2     		uxtb	r3, r3
 943 02ee 7868     		ldr	r0, [r7, #4]
 944 02f0 1946     		mov	r1, r3
 945 02f2 FFF7FEFF 		bl	usb_lld_clear_in
 946 02f6 09E0     		b	.L52
 947              	.L53:
 948              		.loc 5 210 0
 949 02f8 7B68     		ldr	r3, [r7, #4]
 950 02fa 93F86030 		ldrb	r3, [r3, #96]	@ zero_extendqisi2
 951 02fe 03F00F03 		and	r3, r3, #15
 952 0302 DBB2     		uxtb	r3, r3
ARM GAS  C:\Users\Luis\AppData\Local\Temp\ccB0PfuY.s 			page 18


 953 0304 7868     		ldr	r0, [r7, #4]
 954 0306 1946     		mov	r1, r3
 955 0308 FFF7FEFF 		bl	usb_lld_clear_out
 956              	.L52:
 957              		.loc 5 213 0
 958 030c 7B68     		ldr	r3, [r7, #4]
 959 030e 0022     		movs	r2, #0
 960 0310 1A65     		str	r2, [r3, #80]
 961 0312 7B68     		ldr	r3, [r7, #4]
 962 0314 0022     		movs	r2, #0
 963 0316 5A65     		str	r2, [r3, #84]
 964 0318 7B68     		ldr	r3, [r7, #4]
 965 031a 0022     		movs	r2, #0
 966 031c 9A65     		str	r2, [r3, #88]
 967              		.loc 5 214 0
 968 031e 0123     		movs	r3, #1
 969 0320 35E0     		b	.L36
 970              	.L32:
 971              		.loc 5 217 0
 972 0322 7B68     		ldr	r3, [r7, #4]
 973 0324 93F85E30 		ldrb	r3, [r3, #94]	@ zero_extendqisi2
 974 0328 002B     		cmp	r3, #0
 975 032a 01D0     		beq	.L54
 976              		.loc 5 218 0
 977 032c 0023     		movs	r3, #0
 978 032e 2EE0     		b	.L36
 979              	.L54:
 980              		.loc 5 221 0
 981 0330 7B68     		ldr	r3, [r7, #4]
 982 0332 93F86030 		ldrb	r3, [r3, #96]	@ zero_extendqisi2
 983 0336 03F00F03 		and	r3, r3, #15
 984 033a 002B     		cmp	r3, #0
 985 033c 1BD0     		beq	.L55
 986              		.loc 5 222 0
 987 033e 7B68     		ldr	r3, [r7, #4]
 988 0340 93F86030 		ldrb	r3, [r3, #96]	@ zero_extendqisi2
 989 0344 DBB2     		uxtb	r3, r3
 990 0346 5BB2     		sxtb	r3, r3
 991 0348 002B     		cmp	r3, #0
 992 034a 0ADA     		bge	.L56
 993              		.loc 5 223 0
 994 034c 7B68     		ldr	r3, [r7, #4]
 995 034e 93F86030 		ldrb	r3, [r3, #96]	@ zero_extendqisi2
 996 0352 03F00F03 		and	r3, r3, #15
 997 0356 DBB2     		uxtb	r3, r3
 998 0358 7868     		ldr	r0, [r7, #4]
 999 035a 1946     		mov	r1, r3
 1000 035c FFF7FEFF 		bl	usb_lld_stall_in
 1001 0360 09E0     		b	.L55
 1002              	.L56:
 1003              		.loc 5 226 0
 1004 0362 7B68     		ldr	r3, [r7, #4]
 1005 0364 93F86030 		ldrb	r3, [r3, #96]	@ zero_extendqisi2
 1006 0368 03F00F03 		and	r3, r3, #15
 1007 036c DBB2     		uxtb	r3, r3
 1008 036e 7868     		ldr	r0, [r7, #4]
 1009 0370 1946     		mov	r1, r3
ARM GAS  C:\Users\Luis\AppData\Local\Temp\ccB0PfuY.s 			page 19


 1010 0372 FFF7FEFF 		bl	usb_lld_stall_out
 1011              	.L55:
 1012              		.loc 5 229 0
 1013 0376 7B68     		ldr	r3, [r7, #4]
 1014 0378 0022     		movs	r2, #0
 1015 037a 1A65     		str	r2, [r3, #80]
 1016 037c 7B68     		ldr	r3, [r7, #4]
 1017 037e 0022     		movs	r2, #0
 1018 0380 5A65     		str	r2, [r3, #84]
 1019 0382 7B68     		ldr	r3, [r7, #4]
 1020 0384 0022     		movs	r2, #0
 1021 0386 9A65     		str	r2, [r3, #88]
 1022              		.loc 5 230 0
 1023 0388 0123     		movs	r3, #1
 1024 038a 00E0     		b	.L36
 1025              	.L21:
 1026              		.loc 5 239 0
 1027 038c 0023     		movs	r3, #0
 1028              	.L36:
 1029              		.loc 5 241 0
 1030 038e 1846     		mov	r0, r3
 1031 0390 1437     		adds	r7, r7, #20
 1032 0392 BD46     		mov	sp, r7
 1033              		@ sp needed
 1034 0394 F0BD     		pop	{r4, r5, r6, r7, pc}
 1035              	.L60:
 1036 0396 00BF     		.align	2
 1037              	.L59:
 1038 0398 00000000 		.word	zero_status
 1039 039c 00000000 		.word	halted_status
 1040 03a0 00000000 		.word	active_status
 1041              		.cfi_endproc
 1042              	.LFE262:
 1043              		.size	default_handler, .-default_handler
 1044 03a4 AFF30080 		.section	.text.usbInit,"ax",%progbits
 1044      AFF30080 
 1044      AFF30080 
 1045              		.align	2
 1046              		.p2align 4,,15
 1047              		.global	usbInit
 1048              		.thumb
 1049              		.thumb_func
 1050              		.type	usbInit, %function
 1051              	usbInit:
 1052              	.LFB263:
 1053              		.loc 5 254 0
 1054              		.cfi_startproc
 1055              		@ args = 0, pretend = 0, frame = 0
 1056              		@ frame_needed = 1, uses_anonymous_args = 0
 1057 0000 80B5     		push	{r7, lr}
 1058              		.cfi_def_cfa_offset 8
 1059              		.cfi_offset 7, -8
 1060              		.cfi_offset 14, -4
 1061 0002 00AF     		add	r7, sp, #0
 1062              		.cfi_def_cfa_register 7
 1063              		.loc 5 256 0
 1064 0004 FFF7FEFF 		bl	usb_lld_init
ARM GAS  C:\Users\Luis\AppData\Local\Temp\ccB0PfuY.s 			page 20


 1065              		.loc 5 257 0
 1066 0008 80BD     		pop	{r7, pc}
 1067              		.cfi_endproc
 1068              	.LFE263:
 1069              		.size	usbInit, .-usbInit
 1070 000a 00BFAFF3 		.section	.text.usbObjectInit,"ax",%progbits
 1070      0080
 1071              		.align	2
 1072              		.p2align 4,,15
 1073              		.global	usbObjectInit
 1074              		.thumb
 1075              		.thumb_func
 1076              		.type	usbObjectInit, %function
 1077              	usbObjectInit:
 1078              	.LFB264:
 1079              		.loc 5 266 0
 1080              		.cfi_startproc
 1081              		@ args = 0, pretend = 0, frame = 16
 1082              		@ frame_needed = 1, uses_anonymous_args = 0
 1083              		@ link register save eliminated.
 1084 0000 80B4     		push	{r7}
 1085              		.cfi_def_cfa_offset 4
 1086              		.cfi_offset 7, -4
 1087 0002 85B0     		sub	sp, sp, #20
 1088              		.cfi_def_cfa_offset 24
 1089 0004 00AF     		add	r7, sp, #0
 1090              		.cfi_def_cfa_register 7
 1091 0006 7860     		str	r0, [r7, #4]
 1092              		.loc 5 269 0
 1093 0008 7B68     		ldr	r3, [r7, #4]
 1094 000a 0122     		movs	r2, #1
 1095 000c 1A70     		strb	r2, [r3]
 1096              		.loc 5 270 0
 1097 000e 7B68     		ldr	r3, [r7, #4]
 1098 0010 0022     		movs	r2, #0
 1099 0012 5A60     		str	r2, [r3, #4]
 1100              		.loc 5 271 0
 1101 0014 0023     		movs	r3, #0
 1102 0016 FB60     		str	r3, [r7, #12]
 1103 0018 0FE0     		b	.L63
 1104              	.L64:
 1105              		.loc 5 272 0 discriminator 2
 1106 001a 7A68     		ldr	r2, [r7, #4]
 1107 001c FB68     		ldr	r3, [r7, #12]
 1108 001e 0833     		adds	r3, r3, #8
 1109 0020 9B00     		lsls	r3, r3, #2
 1110 0022 1344     		add	r3, r3, r2
 1111 0024 0022     		movs	r2, #0
 1112 0026 5A60     		str	r2, [r3, #4]
 1113              		.loc 5 273 0 discriminator 2
 1114 0028 7B68     		ldr	r3, [r7, #4]
 1115 002a FA68     		ldr	r2, [r7, #12]
 1116 002c 0E32     		adds	r2, r2, #14
 1117 002e 0021     		movs	r1, #0
 1118 0030 43F82210 		str	r1, [r3, r2, lsl #2]
 1119              		.loc 5 271 0 discriminator 2
 1120 0034 FB68     		ldr	r3, [r7, #12]
ARM GAS  C:\Users\Luis\AppData\Local\Temp\ccB0PfuY.s 			page 21


 1121 0036 0133     		adds	r3, r3, #1
 1122 0038 FB60     		str	r3, [r7, #12]
 1123              	.L63:
 1124              		.loc 5 271 0 is_stmt 0 discriminator 1
 1125 003a FB68     		ldr	r3, [r7, #12]
 1126 003c 042B     		cmp	r3, #4
 1127 003e ECD9     		bls	.L64
 1128              		.loc 5 275 0 is_stmt 1
 1129 0040 7B68     		ldr	r3, [r7, #4]
 1130 0042 0022     		movs	r2, #0
 1131 0044 1A81     		strh	r2, [r3, #8]	@ movhi
 1132              		.loc 5 276 0
 1133 0046 7B68     		ldr	r3, [r7, #4]
 1134 0048 0022     		movs	r2, #0
 1135 004a 5A81     		strh	r2, [r3, #10]	@ movhi
 1136              		.loc 5 277 0
 1137 004c 1437     		adds	r7, r7, #20
 1138 004e BD46     		mov	sp, r7
 1139              		@ sp needed
 1140 0050 5DF8047B 		ldr	r7, [sp], #4
 1141 0054 7047     		bx	lr
 1142              		.cfi_endproc
 1143              	.LFE264:
 1144              		.size	usbObjectInit, .-usbObjectInit
 1145 0056 00BFAFF3 		.section	.text.usbStart,"ax",%progbits
 1145      0080AFF3 
 1145      0080
 1146              		.align	2
 1147              		.p2align 4,,15
 1148              		.global	usbStart
 1149              		.thumb
 1150              		.thumb_func
 1151              		.type	usbStart, %function
 1152              	usbStart:
 1153              	.LFB265:
 1154              		.loc 5 287 0
 1155              		.cfi_startproc
 1156              		@ args = 0, pretend = 0, frame = 16
 1157              		@ frame_needed = 1, uses_anonymous_args = 0
 1158 0000 80B5     		push	{r7, lr}
 1159              		.cfi_def_cfa_offset 8
 1160              		.cfi_offset 7, -8
 1161              		.cfi_offset 14, -4
 1162 0002 84B0     		sub	sp, sp, #16
 1163              		.cfi_def_cfa_offset 24
 1164 0004 00AF     		add	r7, sp, #0
 1165              		.cfi_def_cfa_register 7
 1166 0006 7860     		str	r0, [r7, #4]
 1167 0008 3960     		str	r1, [r7]
 1168              		.loc 5 290 0
 1169 000a 7B68     		ldr	r3, [r7, #4]
 1170 000c 002B     		cmp	r3, #0
 1171 000e 02D0     		beq	.L66
 1172              		.loc 5 290 0 is_stmt 0 discriminator 2
 1173 0010 3B68     		ldr	r3, [r7]
 1174 0012 002B     		cmp	r3, #0
 1175 0014 02D1     		bne	.L67
ARM GAS  C:\Users\Luis\AppData\Local\Temp\ccB0PfuY.s 			page 22


 1176              	.L66:
 1177              		.loc 5 290 0 discriminator 1
 1178 0016 1748     		ldr	r0, .L71
 1179 0018 FFF7FEFF 		bl	chSysHalt
 1180              	.L67:
 1181              		.loc 5 292 0 is_stmt 1
 1182 001c FFF7FEFF 		bl	osalSysLock
 1183              		.loc 5 293 0
 1184 0020 7B68     		ldr	r3, [r7, #4]
 1185 0022 1B78     		ldrb	r3, [r3]	@ zero_extendqisi2
 1186 0024 012B     		cmp	r3, #1
 1187 0026 06D0     		beq	.L68
 1188              		.loc 5 293 0 is_stmt 0 discriminator 1
 1189 0028 7B68     		ldr	r3, [r7, #4]
 1190 002a 1B78     		ldrb	r3, [r3]	@ zero_extendqisi2
 1191 002c 022B     		cmp	r3, #2
 1192 002e 02D0     		beq	.L68
 1193 0030 1048     		ldr	r0, .L71
 1194 0032 FFF7FEFF 		bl	chSysHalt
 1195              	.L68:
 1196              		.loc 5 295 0 is_stmt 1
 1197 0036 7B68     		ldr	r3, [r7, #4]
 1198 0038 3A68     		ldr	r2, [r7]
 1199 003a 5A60     		str	r2, [r3, #4]
 1200              		.loc 5 296 0
 1201 003c 0023     		movs	r3, #0
 1202 003e FB60     		str	r3, [r7, #12]
 1203 0040 09E0     		b	.L69
 1204              	.L70:
 1205              		.loc 5 297 0 discriminator 2
 1206 0042 7A68     		ldr	r2, [r7, #4]
 1207 0044 FB68     		ldr	r3, [r7, #12]
 1208 0046 0233     		adds	r3, r3, #2
 1209 0048 9B00     		lsls	r3, r3, #2
 1210 004a 1344     		add	r3, r3, r2
 1211 004c 0022     		movs	r2, #0
 1212 004e 5A60     		str	r2, [r3, #4]
 1213              		.loc 5 296 0 discriminator 2
 1214 0050 FB68     		ldr	r3, [r7, #12]
 1215 0052 0133     		adds	r3, r3, #1
 1216 0054 FB60     		str	r3, [r7, #12]
 1217              	.L69:
 1218              		.loc 5 296 0 is_stmt 0 discriminator 1
 1219 0056 FB68     		ldr	r3, [r7, #12]
 1220 0058 052B     		cmp	r3, #5
 1221 005a F2D9     		bls	.L70
 1222              		.loc 5 299 0 is_stmt 1
 1223 005c 7868     		ldr	r0, [r7, #4]
 1224 005e FFF7FEFF 		bl	usb_lld_start
 1225              		.loc 5 300 0
 1226 0062 7B68     		ldr	r3, [r7, #4]
 1227 0064 0222     		movs	r2, #2
 1228 0066 1A70     		strb	r2, [r3]
 1229              		.loc 5 301 0
 1230 0068 FFF7FEFF 		bl	osalSysUnlock
 1231              		.loc 5 302 0
 1232 006c 1037     		adds	r7, r7, #16
ARM GAS  C:\Users\Luis\AppData\Local\Temp\ccB0PfuY.s 			page 23


 1233 006e BD46     		mov	sp, r7
 1234              		@ sp needed
 1235 0070 80BD     		pop	{r7, pc}
 1236              	.L72:
 1237 0072 00BF     		.align	2
 1238              	.L71:
 1239 0074 00000000 		.word	__func__.8302
 1240              		.cfi_endproc
 1241              	.LFE265:
 1242              		.size	usbStart, .-usbStart
 1243 0078 AFF30080 		.section	.text.usbStop,"ax",%progbits
 1243      AFF30080 
 1244              		.align	2
 1245              		.p2align 4,,15
 1246              		.global	usbStop
 1247              		.thumb
 1248              		.thumb_func
 1249              		.type	usbStop, %function
 1250              	usbStop:
 1251              	.LFB266:
 1252              		.loc 5 311 0
 1253              		.cfi_startproc
 1254              		@ args = 0, pretend = 0, frame = 8
 1255              		@ frame_needed = 1, uses_anonymous_args = 0
 1256 0000 80B5     		push	{r7, lr}
 1257              		.cfi_def_cfa_offset 8
 1258              		.cfi_offset 7, -8
 1259              		.cfi_offset 14, -4
 1260 0002 82B0     		sub	sp, sp, #8
 1261              		.cfi_def_cfa_offset 16
 1262 0004 00AF     		add	r7, sp, #0
 1263              		.cfi_def_cfa_register 7
 1264 0006 7860     		str	r0, [r7, #4]
 1265              		.loc 5 313 0
 1266 0008 7B68     		ldr	r3, [r7, #4]
 1267 000a 002B     		cmp	r3, #0
 1268 000c 02D1     		bne	.L74
 1269              		.loc 5 313 0 is_stmt 0 discriminator 1
 1270 000e 1148     		ldr	r0, .L76
 1271 0010 FFF7FEFF 		bl	chSysHalt
 1272              	.L74:
 1273              		.loc 5 315 0 is_stmt 1
 1274 0014 FFF7FEFF 		bl	osalSysLock
 1275              		.loc 5 316 0
 1276 0018 7B68     		ldr	r3, [r7, #4]
 1277 001a 1B78     		ldrb	r3, [r3]	@ zero_extendqisi2
 1278 001c 012B     		cmp	r3, #1
 1279 001e 0ED0     		beq	.L75
 1280              		.loc 5 316 0 is_stmt 0 discriminator 1
 1281 0020 7B68     		ldr	r3, [r7, #4]
 1282 0022 1B78     		ldrb	r3, [r3]	@ zero_extendqisi2
 1283 0024 022B     		cmp	r3, #2
 1284 0026 0AD0     		beq	.L75
 1285 0028 7B68     		ldr	r3, [r7, #4]
 1286 002a 1B78     		ldrb	r3, [r3]	@ zero_extendqisi2
 1287 002c 032B     		cmp	r3, #3
 1288 002e 06D0     		beq	.L75
ARM GAS  C:\Users\Luis\AppData\Local\Temp\ccB0PfuY.s 			page 24


 1289 0030 7B68     		ldr	r3, [r7, #4]
 1290 0032 1B78     		ldrb	r3, [r3]	@ zero_extendqisi2
 1291 0034 042B     		cmp	r3, #4
 1292 0036 02D0     		beq	.L75
 1293 0038 0648     		ldr	r0, .L76
 1294 003a FFF7FEFF 		bl	chSysHalt
 1295              	.L75:
 1296              		.loc 5 319 0 is_stmt 1
 1297 003e 7868     		ldr	r0, [r7, #4]
 1298 0040 FFF7FEFF 		bl	usb_lld_stop
 1299              		.loc 5 320 0
 1300 0044 7B68     		ldr	r3, [r7, #4]
 1301 0046 0122     		movs	r2, #1
 1302 0048 1A70     		strb	r2, [r3]
 1303              		.loc 5 321 0
 1304 004a FFF7FEFF 		bl	osalSysUnlock
 1305              		.loc 5 322 0
 1306 004e 0837     		adds	r7, r7, #8
 1307 0050 BD46     		mov	sp, r7
 1308              		@ sp needed
 1309 0052 80BD     		pop	{r7, pc}
 1310              	.L77:
 1311              		.align	2
 1312              	.L76:
 1313 0054 00000000 		.word	__func__.8309
 1314              		.cfi_endproc
 1315              	.LFE266:
 1316              		.size	usbStop, .-usbStop
 1317 0058 AFF30080 		.section	.text.usbInitEndpointI,"ax",%progbits
 1317      AFF30080 
 1318              		.align	2
 1319              		.p2align 4,,15
 1320              		.global	usbInitEndpointI
 1321              		.thumb
 1322              		.thumb_func
 1323              		.type	usbInitEndpointI, %function
 1324              	usbInitEndpointI:
 1325              	.LFB267:
 1326              		.loc 5 338 0
 1327              		.cfi_startproc
 1328              		@ args = 0, pretend = 0, frame = 16
 1329              		@ frame_needed = 1, uses_anonymous_args = 0
 1330 0000 80B5     		push	{r7, lr}
 1331              		.cfi_def_cfa_offset 8
 1332              		.cfi_offset 7, -8
 1333              		.cfi_offset 14, -4
 1334 0002 84B0     		sub	sp, sp, #16
 1335              		.cfi_def_cfa_offset 24
 1336 0004 00AF     		add	r7, sp, #0
 1337              		.cfi_def_cfa_register 7
 1338 0006 F860     		str	r0, [r7, #12]
 1339 0008 0B46     		mov	r3, r1
 1340 000a 7A60     		str	r2, [r7, #4]
 1341 000c FB72     		strb	r3, [r7, #11]
 1342              		.loc 5 340 0
 1343 000e FFF7FEFF 		bl	chDbgCheckClassI
 1344              		.loc 5 341 0
ARM GAS  C:\Users\Luis\AppData\Local\Temp\ccB0PfuY.s 			page 25


 1345 0012 FB68     		ldr	r3, [r7, #12]
 1346 0014 002B     		cmp	r3, #0
 1347 0016 02D0     		beq	.L79
 1348              		.loc 5 341 0 is_stmt 0 discriminator 2
 1349 0018 7B68     		ldr	r3, [r7, #4]
 1350 001a 002B     		cmp	r3, #0
 1351 001c 02D1     		bne	.L85
 1352              	.L79:
 1353              		.loc 5 341 0 discriminator 1
 1354 001e 1D48     		ldr	r0, .L87
 1355 0020 FFF7FEFF 		bl	chSysHalt
 1356              	.L85:
 1357              		.loc 5 342 0 is_stmt 1 discriminator 1
 1358 0024 FB68     		ldr	r3, [r7, #12]
 1359 0026 1B78     		ldrb	r3, [r3]	@ zero_extendqisi2
 1360 0028 042B     		cmp	r3, #4
 1361 002a 02D0     		beq	.L86
 1362 002c 1948     		ldr	r0, .L87
 1363 002e FFF7FEFF 		bl	chSysHalt
 1364              	.L86:
 1365              		.loc 5 344 0 discriminator 1
 1366 0032 FB7A     		ldrb	r3, [r7, #11]	@ zero_extendqisi2
 1367 0034 FA68     		ldr	r2, [r7, #12]
 1368 0036 0233     		adds	r3, r3, #2
 1369 0038 9B00     		lsls	r3, r3, #2
 1370 003a 1344     		add	r3, r3, r2
 1371 003c 5B68     		ldr	r3, [r3, #4]
 1372 003e 002B     		cmp	r3, #0
 1373 0040 02D0     		beq	.L82
 1374 0042 1448     		ldr	r0, .L87
 1375 0044 FFF7FEFF 		bl	chSysHalt
 1376              	.L82:
 1377              		.loc 5 347 0
 1378 0048 7B68     		ldr	r3, [r7, #4]
 1379 004a 5B69     		ldr	r3, [r3, #20]
 1380 004c 002B     		cmp	r3, #0
 1381 004e 06D0     		beq	.L83
 1382              		.loc 5 348 0
 1383 0050 7B68     		ldr	r3, [r7, #4]
 1384 0052 5B69     		ldr	r3, [r3, #20]
 1385 0054 1846     		mov	r0, r3
 1386 0056 0021     		movs	r1, #0
 1387 0058 1422     		movs	r2, #20
 1388 005a FFF7FEFF 		bl	memset
 1389              	.L83:
 1390              		.loc 5 350 0
 1391 005e 7B68     		ldr	r3, [r7, #4]
 1392 0060 9B69     		ldr	r3, [r3, #24]
 1393 0062 002B     		cmp	r3, #0
 1394 0064 06D0     		beq	.L84
 1395              		.loc 5 351 0
 1396 0066 7B68     		ldr	r3, [r7, #4]
 1397 0068 9B69     		ldr	r3, [r3, #24]
 1398 006a 1846     		mov	r0, r3
 1399 006c 0021     		movs	r1, #0
 1400 006e 1422     		movs	r2, #20
 1401 0070 FFF7FEFF 		bl	memset
ARM GAS  C:\Users\Luis\AppData\Local\Temp\ccB0PfuY.s 			page 26


 1402              	.L84:
 1403              		.loc 5 354 0
 1404 0074 FB7A     		ldrb	r3, [r7, #11]	@ zero_extendqisi2
 1405 0076 FA68     		ldr	r2, [r7, #12]
 1406 0078 0233     		adds	r3, r3, #2
 1407 007a 9B00     		lsls	r3, r3, #2
 1408 007c 1344     		add	r3, r3, r2
 1409 007e 7A68     		ldr	r2, [r7, #4]
 1410 0080 5A60     		str	r2, [r3, #4]
 1411              		.loc 5 357 0
 1412 0082 FB7A     		ldrb	r3, [r7, #11]	@ zero_extendqisi2
 1413 0084 F868     		ldr	r0, [r7, #12]
 1414 0086 1946     		mov	r1, r3
 1415 0088 FFF7FEFF 		bl	usb_lld_init_endpoint
 1416              		.loc 5 358 0
 1417 008c 1037     		adds	r7, r7, #16
 1418 008e BD46     		mov	sp, r7
 1419              		@ sp needed
 1420 0090 80BD     		pop	{r7, pc}
 1421              	.L88:
 1422 0092 00BF     		.align	2
 1423              	.L87:
 1424 0094 00000000 		.word	__func__.8315
 1425              		.cfi_endproc
 1426              	.LFE267:
 1427              		.size	usbInitEndpointI, .-usbInitEndpointI
 1428 0098 AFF30080 		.section	.text.usbDisableEndpointsI,"ax",%progbits
 1428      AFF30080 
 1429              		.align	2
 1430              		.p2align 4,,15
 1431              		.global	usbDisableEndpointsI
 1432              		.thumb
 1433              		.thumb_func
 1434              		.type	usbDisableEndpointsI, %function
 1435              	usbDisableEndpointsI:
 1436              	.LFB268:
 1437              		.loc 5 371 0
 1438              		.cfi_startproc
 1439              		@ args = 0, pretend = 0, frame = 16
 1440              		@ frame_needed = 1, uses_anonymous_args = 0
 1441 0000 80B5     		push	{r7, lr}
 1442              		.cfi_def_cfa_offset 8
 1443              		.cfi_offset 7, -8
 1444              		.cfi_offset 14, -4
 1445 0002 84B0     		sub	sp, sp, #16
 1446              		.cfi_def_cfa_offset 24
 1447 0004 00AF     		add	r7, sp, #0
 1448              		.cfi_def_cfa_register 7
 1449 0006 7860     		str	r0, [r7, #4]
 1450              		.loc 5 374 0
 1451 0008 FFF7FEFF 		bl	chDbgCheckClassI
 1452              		.loc 5 375 0
 1453 000c 7B68     		ldr	r3, [r7, #4]
 1454 000e 002B     		cmp	r3, #0
 1455 0010 02D1     		bne	.L94
 1456              		.loc 5 375 0 is_stmt 0 discriminator 1
 1457 0012 1748     		ldr	r0, .L95
ARM GAS  C:\Users\Luis\AppData\Local\Temp\ccB0PfuY.s 			page 27


 1458 0014 FFF7FEFF 		bl	chSysHalt
 1459              	.L94:
 1460              		.loc 5 376 0 is_stmt 1 discriminator 1
 1461 0018 7B68     		ldr	r3, [r7, #4]
 1462 001a 1B78     		ldrb	r3, [r3]	@ zero_extendqisi2
 1463 001c 032B     		cmp	r3, #3
 1464 001e 02D0     		beq	.L91
 1465 0020 1348     		ldr	r0, .L95
 1466 0022 FFF7FEFF 		bl	chSysHalt
 1467              	.L91:
 1468              		.loc 5 378 0
 1469 0026 7B68     		ldr	r3, [r7, #4]
 1470 0028 1B89     		ldrh	r3, [r3, #8]
 1471 002a 23F00103 		bic	r3, r3, #1
 1472 002e 9AB2     		uxth	r2, r3
 1473 0030 7B68     		ldr	r3, [r7, #4]
 1474 0032 1A81     		strh	r2, [r3, #8]	@ movhi
 1475              		.loc 5 379 0
 1476 0034 7B68     		ldr	r3, [r7, #4]
 1477 0036 5B89     		ldrh	r3, [r3, #10]
 1478 0038 23F00103 		bic	r3, r3, #1
 1479 003c 9AB2     		uxth	r2, r3
 1480 003e 7B68     		ldr	r3, [r7, #4]
 1481 0040 5A81     		strh	r2, [r3, #10]	@ movhi
 1482              		.loc 5 380 0
 1483 0042 0123     		movs	r3, #1
 1484 0044 FB60     		str	r3, [r7, #12]
 1485 0046 09E0     		b	.L92
 1486              	.L93:
 1487              		.loc 5 381 0 discriminator 2
 1488 0048 7A68     		ldr	r2, [r7, #4]
 1489 004a FB68     		ldr	r3, [r7, #12]
 1490 004c 0233     		adds	r3, r3, #2
 1491 004e 9B00     		lsls	r3, r3, #2
 1492 0050 1344     		add	r3, r3, r2
 1493 0052 0022     		movs	r2, #0
 1494 0054 5A60     		str	r2, [r3, #4]
 1495              		.loc 5 380 0 discriminator 2
 1496 0056 FB68     		ldr	r3, [r7, #12]
 1497 0058 0133     		adds	r3, r3, #1
 1498 005a FB60     		str	r3, [r7, #12]
 1499              	.L92:
 1500              		.loc 5 380 0 is_stmt 0 discriminator 1
 1501 005c FB68     		ldr	r3, [r7, #12]
 1502 005e 052B     		cmp	r3, #5
 1503 0060 F2D9     		bls	.L93
 1504              		.loc 5 385 0 is_stmt 1
 1505 0062 7868     		ldr	r0, [r7, #4]
 1506 0064 FFF7FEFF 		bl	usb_lld_disable_endpoints
 1507              		.loc 5 386 0
 1508 0068 1037     		adds	r7, r7, #16
 1509 006a BD46     		mov	sp, r7
 1510              		@ sp needed
 1511 006c 80BD     		pop	{r7, pc}
 1512              	.L96:
 1513 006e 00BF     		.align	2
 1514              	.L95:
ARM GAS  C:\Users\Luis\AppData\Local\Temp\ccB0PfuY.s 			page 28


 1515 0070 00000000 		.word	__func__.8320
 1516              		.cfi_endproc
 1517              	.LFE268:
 1518              		.size	usbDisableEndpointsI, .-usbDisableEndpointsI
 1519 0074 AFF30080 		.section	.text.usbPrepareReceive,"ax",%progbits
 1519      AFF30080 
 1519      AFF30080 
 1520              		.align	2
 1521              		.p2align 4,,15
 1522              		.global	usbPrepareReceive
 1523              		.thumb
 1524              		.thumb_func
 1525              		.type	usbPrepareReceive, %function
 1526              	usbPrepareReceive:
 1527              	.LFB269:
 1528              		.loc 5 400 0
 1529              		.cfi_startproc
 1530              		@ args = 0, pretend = 0, frame = 24
 1531              		@ frame_needed = 1, uses_anonymous_args = 0
 1532 0000 80B5     		push	{r7, lr}
 1533              		.cfi_def_cfa_offset 8
 1534              		.cfi_offset 7, -8
 1535              		.cfi_offset 14, -4
 1536 0002 86B0     		sub	sp, sp, #24
 1537              		.cfi_def_cfa_offset 32
 1538 0004 00AF     		add	r7, sp, #0
 1539              		.cfi_def_cfa_register 7
 1540 0006 F860     		str	r0, [r7, #12]
 1541 0008 7A60     		str	r2, [r7, #4]
 1542 000a 3B60     		str	r3, [r7]
 1543 000c 0B46     		mov	r3, r1
 1544 000e FB72     		strb	r3, [r7, #11]
 1545              		.loc 5 401 0
 1546 0010 FB7A     		ldrb	r3, [r7, #11]	@ zero_extendqisi2
 1547 0012 FA68     		ldr	r2, [r7, #12]
 1548 0014 0233     		adds	r3, r3, #2
 1549 0016 9B00     		lsls	r3, r3, #2
 1550 0018 1344     		add	r3, r3, r2
 1551 001a 5B68     		ldr	r3, [r3, #4]
 1552 001c 9B69     		ldr	r3, [r3, #24]
 1553 001e 7B61     		str	r3, [r7, #20]
 1554              		.loc 5 403 0
 1555 0020 7B69     		ldr	r3, [r7, #20]
 1556 0022 0022     		movs	r2, #0
 1557 0024 1A70     		strb	r2, [r3]
 1558              		.loc 5 404 0
 1559 0026 7B69     		ldr	r3, [r7, #20]
 1560 0028 7A68     		ldr	r2, [r7, #4]
 1561 002a DA60     		str	r2, [r3, #12]
 1562              		.loc 5 405 0
 1563 002c 7B69     		ldr	r3, [r7, #20]
 1564 002e 3A68     		ldr	r2, [r7]
 1565 0030 5A60     		str	r2, [r3, #4]
 1566              		.loc 5 406 0
 1567 0032 7B69     		ldr	r3, [r7, #20]
 1568 0034 0022     		movs	r2, #0
 1569 0036 9A60     		str	r2, [r3, #8]
ARM GAS  C:\Users\Luis\AppData\Local\Temp\ccB0PfuY.s 			page 29


 1570              		.loc 5 408 0
 1571 0038 FB7A     		ldrb	r3, [r7, #11]	@ zero_extendqisi2
 1572 003a F868     		ldr	r0, [r7, #12]
 1573 003c 1946     		mov	r1, r3
 1574 003e FFF7FEFF 		bl	usb_lld_prepare_receive
 1575              		.loc 5 409 0
 1576 0042 1837     		adds	r7, r7, #24
 1577 0044 BD46     		mov	sp, r7
 1578              		@ sp needed
 1579 0046 80BD     		pop	{r7, pc}
 1580              		.cfi_endproc
 1581              	.LFE269:
 1582              		.size	usbPrepareReceive, .-usbPrepareReceive
 1583              		.section	.text.usbPrepareTransmit,"ax",%progbits
 1584              		.align	2
 1585              		.p2align 4,,15
 1586              		.global	usbPrepareTransmit
 1587              		.thumb
 1588              		.thumb_func
 1589              		.type	usbPrepareTransmit, %function
 1590              	usbPrepareTransmit:
 1591              	.LFB270:
 1592              		.loc 5 426 0
 1593              		.cfi_startproc
 1594              		@ args = 0, pretend = 0, frame = 24
 1595              		@ frame_needed = 1, uses_anonymous_args = 0
 1596 0000 80B5     		push	{r7, lr}
 1597              		.cfi_def_cfa_offset 8
 1598              		.cfi_offset 7, -8
 1599              		.cfi_offset 14, -4
 1600 0002 86B0     		sub	sp, sp, #24
 1601              		.cfi_def_cfa_offset 32
 1602 0004 00AF     		add	r7, sp, #0
 1603              		.cfi_def_cfa_register 7
 1604 0006 F860     		str	r0, [r7, #12]
 1605 0008 7A60     		str	r2, [r7, #4]
 1606 000a 3B60     		str	r3, [r7]
 1607 000c 0B46     		mov	r3, r1
 1608 000e FB72     		strb	r3, [r7, #11]
 1609              		.loc 5 427 0
 1610 0010 FB7A     		ldrb	r3, [r7, #11]	@ zero_extendqisi2
 1611 0012 FA68     		ldr	r2, [r7, #12]
 1612 0014 0233     		adds	r3, r3, #2
 1613 0016 9B00     		lsls	r3, r3, #2
 1614 0018 1344     		add	r3, r3, r2
 1615 001a 5B68     		ldr	r3, [r3, #4]
 1616 001c 5B69     		ldr	r3, [r3, #20]
 1617 001e 7B61     		str	r3, [r7, #20]
 1618              		.loc 5 429 0
 1619 0020 7B69     		ldr	r3, [r7, #20]
 1620 0022 0022     		movs	r2, #0
 1621 0024 1A70     		strb	r2, [r3]
 1622              		.loc 5 430 0
 1623 0026 7B69     		ldr	r3, [r7, #20]
 1624 0028 7A68     		ldr	r2, [r7, #4]
 1625 002a DA60     		str	r2, [r3, #12]
 1626              		.loc 5 431 0
ARM GAS  C:\Users\Luis\AppData\Local\Temp\ccB0PfuY.s 			page 30


 1627 002c 7B69     		ldr	r3, [r7, #20]
 1628 002e 3A68     		ldr	r2, [r7]
 1629 0030 5A60     		str	r2, [r3, #4]
 1630              		.loc 5 432 0
 1631 0032 7B69     		ldr	r3, [r7, #20]
 1632 0034 0022     		movs	r2, #0
 1633 0036 9A60     		str	r2, [r3, #8]
 1634              		.loc 5 434 0
 1635 0038 FB7A     		ldrb	r3, [r7, #11]	@ zero_extendqisi2
 1636 003a F868     		ldr	r0, [r7, #12]
 1637 003c 1946     		mov	r1, r3
 1638 003e FFF7FEFF 		bl	usb_lld_prepare_transmit
 1639              		.loc 5 435 0
 1640 0042 1837     		adds	r7, r7, #24
 1641 0044 BD46     		mov	sp, r7
 1642              		@ sp needed
 1643 0046 80BD     		pop	{r7, pc}
 1644              		.cfi_endproc
 1645              	.LFE270:
 1646              		.size	usbPrepareTransmit, .-usbPrepareTransmit
 1647              		.section	.text.usbPrepareQueuedReceive,"ax",%progbits
 1648              		.align	2
 1649              		.p2align 4,,15
 1650              		.global	usbPrepareQueuedReceive
 1651              		.thumb
 1652              		.thumb_func
 1653              		.type	usbPrepareQueuedReceive, %function
 1654              	usbPrepareQueuedReceive:
 1655              	.LFB271:
 1656              		.loc 5 455 0
 1657              		.cfi_startproc
 1658              		@ args = 0, pretend = 0, frame = 24
 1659              		@ frame_needed = 1, uses_anonymous_args = 0
 1660 0000 80B5     		push	{r7, lr}
 1661              		.cfi_def_cfa_offset 8
 1662              		.cfi_offset 7, -8
 1663              		.cfi_offset 14, -4
 1664 0002 86B0     		sub	sp, sp, #24
 1665              		.cfi_def_cfa_offset 32
 1666 0004 00AF     		add	r7, sp, #0
 1667              		.cfi_def_cfa_register 7
 1668 0006 F860     		str	r0, [r7, #12]
 1669 0008 7A60     		str	r2, [r7, #4]
 1670 000a 3B60     		str	r3, [r7]
 1671 000c 0B46     		mov	r3, r1
 1672 000e FB72     		strb	r3, [r7, #11]
 1673              		.loc 5 456 0
 1674 0010 FB7A     		ldrb	r3, [r7, #11]	@ zero_extendqisi2
 1675 0012 FA68     		ldr	r2, [r7, #12]
 1676 0014 0233     		adds	r3, r3, #2
 1677 0016 9B00     		lsls	r3, r3, #2
 1678 0018 1344     		add	r3, r3, r2
 1679 001a 5B68     		ldr	r3, [r3, #4]
 1680 001c 9B69     		ldr	r3, [r3, #24]
 1681 001e 7B61     		str	r3, [r7, #20]
 1682              		.loc 5 458 0
 1683 0020 7B69     		ldr	r3, [r7, #20]
ARM GAS  C:\Users\Luis\AppData\Local\Temp\ccB0PfuY.s 			page 31


 1684 0022 0122     		movs	r2, #1
 1685 0024 1A70     		strb	r2, [r3]
 1686              		.loc 5 459 0
 1687 0026 7B69     		ldr	r3, [r7, #20]
 1688 0028 7A68     		ldr	r2, [r7, #4]
 1689 002a DA60     		str	r2, [r3, #12]
 1690              		.loc 5 460 0
 1691 002c 7B69     		ldr	r3, [r7, #20]
 1692 002e 3A68     		ldr	r2, [r7]
 1693 0030 5A60     		str	r2, [r3, #4]
 1694              		.loc 5 461 0
 1695 0032 7B69     		ldr	r3, [r7, #20]
 1696 0034 0022     		movs	r2, #0
 1697 0036 9A60     		str	r2, [r3, #8]
 1698              		.loc 5 463 0
 1699 0038 FB7A     		ldrb	r3, [r7, #11]	@ zero_extendqisi2
 1700 003a F868     		ldr	r0, [r7, #12]
 1701 003c 1946     		mov	r1, r3
 1702 003e FFF7FEFF 		bl	usb_lld_prepare_receive
 1703              		.loc 5 464 0
 1704 0042 1837     		adds	r7, r7, #24
 1705 0044 BD46     		mov	sp, r7
 1706              		@ sp needed
 1707 0046 80BD     		pop	{r7, pc}
 1708              		.cfi_endproc
 1709              	.LFE271:
 1710              		.size	usbPrepareQueuedReceive, .-usbPrepareQueuedReceive
 1711              		.section	.text.usbPrepareQueuedTransmit,"ax",%progbits
 1712              		.align	2
 1713              		.p2align 4,,15
 1714              		.global	usbPrepareQueuedTransmit
 1715              		.thumb
 1716              		.thumb_func
 1717              		.type	usbPrepareQueuedTransmit, %function
 1718              	usbPrepareQueuedTransmit:
 1719              	.LFB272:
 1720              		.loc 5 481 0
 1721              		.cfi_startproc
 1722              		@ args = 0, pretend = 0, frame = 24
 1723              		@ frame_needed = 1, uses_anonymous_args = 0
 1724 0000 80B5     		push	{r7, lr}
 1725              		.cfi_def_cfa_offset 8
 1726              		.cfi_offset 7, -8
 1727              		.cfi_offset 14, -4
 1728 0002 86B0     		sub	sp, sp, #24
 1729              		.cfi_def_cfa_offset 32
 1730 0004 00AF     		add	r7, sp, #0
 1731              		.cfi_def_cfa_register 7
 1732 0006 F860     		str	r0, [r7, #12]
 1733 0008 7A60     		str	r2, [r7, #4]
 1734 000a 3B60     		str	r3, [r7]
 1735 000c 0B46     		mov	r3, r1
 1736 000e FB72     		strb	r3, [r7, #11]
 1737              		.loc 5 482 0
 1738 0010 FB7A     		ldrb	r3, [r7, #11]	@ zero_extendqisi2
 1739 0012 FA68     		ldr	r2, [r7, #12]
 1740 0014 0233     		adds	r3, r3, #2
ARM GAS  C:\Users\Luis\AppData\Local\Temp\ccB0PfuY.s 			page 32


 1741 0016 9B00     		lsls	r3, r3, #2
 1742 0018 1344     		add	r3, r3, r2
 1743 001a 5B68     		ldr	r3, [r3, #4]
 1744 001c 5B69     		ldr	r3, [r3, #20]
 1745 001e 7B61     		str	r3, [r7, #20]
 1746              		.loc 5 484 0
 1747 0020 7B69     		ldr	r3, [r7, #20]
 1748 0022 0122     		movs	r2, #1
 1749 0024 1A70     		strb	r2, [r3]
 1750              		.loc 5 485 0
 1751 0026 7B69     		ldr	r3, [r7, #20]
 1752 0028 7A68     		ldr	r2, [r7, #4]
 1753 002a DA60     		str	r2, [r3, #12]
 1754              		.loc 5 486 0
 1755 002c 7B69     		ldr	r3, [r7, #20]
 1756 002e 3A68     		ldr	r2, [r7]
 1757 0030 5A60     		str	r2, [r3, #4]
 1758              		.loc 5 487 0
 1759 0032 7B69     		ldr	r3, [r7, #20]
 1760 0034 0022     		movs	r2, #0
 1761 0036 9A60     		str	r2, [r3, #8]
 1762              		.loc 5 489 0
 1763 0038 FB7A     		ldrb	r3, [r7, #11]	@ zero_extendqisi2
 1764 003a F868     		ldr	r0, [r7, #12]
 1765 003c 1946     		mov	r1, r3
 1766 003e FFF7FEFF 		bl	usb_lld_prepare_transmit
 1767              		.loc 5 490 0
 1768 0042 1837     		adds	r7, r7, #24
 1769 0044 BD46     		mov	sp, r7
 1770              		@ sp needed
 1771 0046 80BD     		pop	{r7, pc}
 1772              		.cfi_endproc
 1773              	.LFE272:
 1774              		.size	usbPrepareQueuedTransmit, .-usbPrepareQueuedTransmit
 1775              		.section	.text.usbStartReceiveI,"ax",%progbits
 1776              		.align	2
 1777              		.p2align 4,,15
 1778              		.global	usbStartReceiveI
 1779              		.thumb
 1780              		.thumb_func
 1781              		.type	usbStartReceiveI, %function
 1782              	usbStartReceiveI:
 1783              	.LFB273:
 1784              		.loc 5 506 0
 1785              		.cfi_startproc
 1786              		@ args = 0, pretend = 0, frame = 8
 1787              		@ frame_needed = 1, uses_anonymous_args = 0
 1788 0000 80B5     		push	{r7, lr}
 1789              		.cfi_def_cfa_offset 8
 1790              		.cfi_offset 7, -8
 1791              		.cfi_offset 14, -4
 1792 0002 82B0     		sub	sp, sp, #8
 1793              		.cfi_def_cfa_offset 16
 1794 0004 00AF     		add	r7, sp, #0
 1795              		.cfi_def_cfa_register 7
 1796 0006 7860     		str	r0, [r7, #4]
 1797 0008 0B46     		mov	r3, r1
ARM GAS  C:\Users\Luis\AppData\Local\Temp\ccB0PfuY.s 			page 33


 1798 000a FB70     		strb	r3, [r7, #3]
 1799              		.loc 5 508 0
 1800 000c FFF7FEFF 		bl	chDbgCheckClassI
 1801              		.loc 5 509 0
 1802 0010 7B68     		ldr	r3, [r7, #4]
 1803 0012 002B     		cmp	r3, #0
 1804 0014 02D1     		bne	.L102
 1805              		.loc 5 509 0 is_stmt 0 discriminator 1
 1806 0016 1248     		ldr	r0, .L105
 1807 0018 FFF7FEFF 		bl	chSysHalt
 1808              	.L102:
 1809              		.loc 5 511 0 is_stmt 1
 1810 001c 7B68     		ldr	r3, [r7, #4]
 1811 001e 5A89     		ldrh	r2, [r3, #10]
 1812 0020 FB78     		ldrb	r3, [r7, #3]	@ zero_extendqisi2
 1813 0022 0121     		movs	r1, #1
 1814 0024 01FA03F3 		lsl	r3, r1, r3
 1815 0028 9BB2     		uxth	r3, r3
 1816 002a 1340     		ands	r3, r3, r2
 1817 002c 9BB2     		uxth	r3, r3
 1818 002e 002B     		cmp	r3, #0
 1819 0030 01D0     		beq	.L103
 1820              		.loc 5 512 0
 1821 0032 0123     		movs	r3, #1
 1822 0034 10E0     		b	.L104
 1823              	.L103:
 1824              		.loc 5 515 0
 1825 0036 7B68     		ldr	r3, [r7, #4]
 1826 0038 5A89     		ldrh	r2, [r3, #10]
 1827 003a FB78     		ldrb	r3, [r7, #3]	@ zero_extendqisi2
 1828 003c 0121     		movs	r1, #1
 1829 003e 01FA03F3 		lsl	r3, r1, r3
 1830 0042 9BB2     		uxth	r3, r3
 1831 0044 1343     		orrs	r3, r3, r2
 1832 0046 9AB2     		uxth	r2, r3
 1833 0048 7B68     		ldr	r3, [r7, #4]
 1834 004a 5A81     		strh	r2, [r3, #10]	@ movhi
 1835              		.loc 5 516 0
 1836 004c FB78     		ldrb	r3, [r7, #3]	@ zero_extendqisi2
 1837 004e 7868     		ldr	r0, [r7, #4]
 1838 0050 1946     		mov	r1, r3
 1839 0052 FFF7FEFF 		bl	usb_lld_start_out
 1840              		.loc 5 517 0
 1841 0056 0023     		movs	r3, #0
 1842              	.L104:
 1843              		.loc 5 518 0
 1844 0058 1846     		mov	r0, r3
 1845 005a 0837     		adds	r7, r7, #8
 1846 005c BD46     		mov	sp, r7
 1847              		@ sp needed
 1848 005e 80BD     		pop	{r7, pc}
 1849              	.L106:
 1850              		.align	2
 1851              	.L105:
 1852 0060 00000000 		.word	__func__.8356
 1853              		.cfi_endproc
 1854              	.LFE273:
ARM GAS  C:\Users\Luis\AppData\Local\Temp\ccB0PfuY.s 			page 34


 1855              		.size	usbStartReceiveI, .-usbStartReceiveI
 1856 0064 AFF30080 		.section	.text.usbStartTransmitI,"ax",%progbits
 1856      AFF30080 
 1856      AFF30080 
 1857              		.align	2
 1858              		.p2align 4,,15
 1859              		.global	usbStartTransmitI
 1860              		.thumb
 1861              		.thumb_func
 1862              		.type	usbStartTransmitI, %function
 1863              	usbStartTransmitI:
 1864              	.LFB274:
 1865              		.loc 5 534 0
 1866              		.cfi_startproc
 1867              		@ args = 0, pretend = 0, frame = 8
 1868              		@ frame_needed = 1, uses_anonymous_args = 0
 1869 0000 80B5     		push	{r7, lr}
 1870              		.cfi_def_cfa_offset 8
 1871              		.cfi_offset 7, -8
 1872              		.cfi_offset 14, -4
 1873 0002 82B0     		sub	sp, sp, #8
 1874              		.cfi_def_cfa_offset 16
 1875 0004 00AF     		add	r7, sp, #0
 1876              		.cfi_def_cfa_register 7
 1877 0006 7860     		str	r0, [r7, #4]
 1878 0008 0B46     		mov	r3, r1
 1879 000a FB70     		strb	r3, [r7, #3]
 1880              		.loc 5 536 0
 1881 000c FFF7FEFF 		bl	chDbgCheckClassI
 1882              		.loc 5 537 0
 1883 0010 7B68     		ldr	r3, [r7, #4]
 1884 0012 002B     		cmp	r3, #0
 1885 0014 02D1     		bne	.L108
 1886              		.loc 5 537 0 is_stmt 0 discriminator 1
 1887 0016 1248     		ldr	r0, .L111
 1888 0018 FFF7FEFF 		bl	chSysHalt
 1889              	.L108:
 1890              		.loc 5 539 0 is_stmt 1
 1891 001c 7B68     		ldr	r3, [r7, #4]
 1892 001e 1A89     		ldrh	r2, [r3, #8]
 1893 0020 FB78     		ldrb	r3, [r7, #3]	@ zero_extendqisi2
 1894 0022 0121     		movs	r1, #1
 1895 0024 01FA03F3 		lsl	r3, r1, r3
 1896 0028 9BB2     		uxth	r3, r3
 1897 002a 1340     		ands	r3, r3, r2
 1898 002c 9BB2     		uxth	r3, r3
 1899 002e 002B     		cmp	r3, #0
 1900 0030 01D0     		beq	.L109
 1901              		.loc 5 540 0
 1902 0032 0123     		movs	r3, #1
 1903 0034 10E0     		b	.L110
 1904              	.L109:
 1905              		.loc 5 543 0
 1906 0036 7B68     		ldr	r3, [r7, #4]
 1907 0038 1A89     		ldrh	r2, [r3, #8]
 1908 003a FB78     		ldrb	r3, [r7, #3]	@ zero_extendqisi2
 1909 003c 0121     		movs	r1, #1
ARM GAS  C:\Users\Luis\AppData\Local\Temp\ccB0PfuY.s 			page 35


 1910 003e 01FA03F3 		lsl	r3, r1, r3
 1911 0042 9BB2     		uxth	r3, r3
 1912 0044 1343     		orrs	r3, r3, r2
 1913 0046 9AB2     		uxth	r2, r3
 1914 0048 7B68     		ldr	r3, [r7, #4]
 1915 004a 1A81     		strh	r2, [r3, #8]	@ movhi
 1916              		.loc 5 544 0
 1917 004c FB78     		ldrb	r3, [r7, #3]	@ zero_extendqisi2
 1918 004e 7868     		ldr	r0, [r7, #4]
 1919 0050 1946     		mov	r1, r3
 1920 0052 FFF7FEFF 		bl	usb_lld_start_in
 1921              		.loc 5 545 0
 1922 0056 0023     		movs	r3, #0
 1923              	.L110:
 1924              		.loc 5 546 0
 1925 0058 1846     		mov	r0, r3
 1926 005a 0837     		adds	r7, r7, #8
 1927 005c BD46     		mov	sp, r7
 1928              		@ sp needed
 1929 005e 80BD     		pop	{r7, pc}
 1930              	.L112:
 1931              		.align	2
 1932              	.L111:
 1933 0060 00000000 		.word	__func__.8361
 1934              		.cfi_endproc
 1935              	.LFE274:
 1936              		.size	usbStartTransmitI, .-usbStartTransmitI
 1937 0064 AFF30080 		.section	.text.usbStallReceiveI,"ax",%progbits
 1937      AFF30080 
 1937      AFF30080 
 1938              		.align	2
 1939              		.p2align 4,,15
 1940              		.global	usbStallReceiveI
 1941              		.thumb
 1942              		.thumb_func
 1943              		.type	usbStallReceiveI, %function
 1944              	usbStallReceiveI:
 1945              	.LFB275:
 1946              		.loc 5 560 0
 1947              		.cfi_startproc
 1948              		@ args = 0, pretend = 0, frame = 8
 1949              		@ frame_needed = 1, uses_anonymous_args = 0
 1950 0000 80B5     		push	{r7, lr}
 1951              		.cfi_def_cfa_offset 8
 1952              		.cfi_offset 7, -8
 1953              		.cfi_offset 14, -4
 1954 0002 82B0     		sub	sp, sp, #8
 1955              		.cfi_def_cfa_offset 16
 1956 0004 00AF     		add	r7, sp, #0
 1957              		.cfi_def_cfa_register 7
 1958 0006 7860     		str	r0, [r7, #4]
 1959 0008 0B46     		mov	r3, r1
 1960 000a FB70     		strb	r3, [r7, #3]
 1961              		.loc 5 562 0
 1962 000c FFF7FEFF 		bl	chDbgCheckClassI
 1963              		.loc 5 563 0
 1964 0010 7B68     		ldr	r3, [r7, #4]
ARM GAS  C:\Users\Luis\AppData\Local\Temp\ccB0PfuY.s 			page 36


 1965 0012 002B     		cmp	r3, #0
 1966 0014 02D1     		bne	.L114
 1967              		.loc 5 563 0 is_stmt 0 discriminator 1
 1968 0016 0D48     		ldr	r0, .L117
 1969 0018 FFF7FEFF 		bl	chSysHalt
 1970              	.L114:
 1971              		.loc 5 565 0 is_stmt 1
 1972 001c 7B68     		ldr	r3, [r7, #4]
 1973 001e 5A89     		ldrh	r2, [r3, #10]
 1974 0020 FB78     		ldrb	r3, [r7, #3]	@ zero_extendqisi2
 1975 0022 0121     		movs	r1, #1
 1976 0024 01FA03F3 		lsl	r3, r1, r3
 1977 0028 9BB2     		uxth	r3, r3
 1978 002a 1340     		ands	r3, r3, r2
 1979 002c 9BB2     		uxth	r3, r3
 1980 002e 002B     		cmp	r3, #0
 1981 0030 01D0     		beq	.L115
 1982              		.loc 5 566 0
 1983 0032 0123     		movs	r3, #1
 1984 0034 05E0     		b	.L116
 1985              	.L115:
 1986              		.loc 5 569 0
 1987 0036 FB78     		ldrb	r3, [r7, #3]	@ zero_extendqisi2
 1988 0038 7868     		ldr	r0, [r7, #4]
 1989 003a 1946     		mov	r1, r3
 1990 003c FFF7FEFF 		bl	usb_lld_stall_out
 1991              		.loc 5 570 0
 1992 0040 0023     		movs	r3, #0
 1993              	.L116:
 1994              		.loc 5 571 0
 1995 0042 1846     		mov	r0, r3
 1996 0044 0837     		adds	r7, r7, #8
 1997 0046 BD46     		mov	sp, r7
 1998              		@ sp needed
 1999 0048 80BD     		pop	{r7, pc}
 2000              	.L118:
 2001 004a 00BF     		.align	2
 2002              	.L117:
 2003 004c 00000000 		.word	__func__.8366
 2004              		.cfi_endproc
 2005              	.LFE275:
 2006              		.size	usbStallReceiveI, .-usbStallReceiveI
 2007              		.section	.text.usbStallTransmitI,"ax",%progbits
 2008              		.align	2
 2009              		.p2align 4,,15
 2010              		.global	usbStallTransmitI
 2011              		.thumb
 2012              		.thumb_func
 2013              		.type	usbStallTransmitI, %function
 2014              	usbStallTransmitI:
 2015              	.LFB276:
 2016              		.loc 5 585 0
 2017              		.cfi_startproc
 2018              		@ args = 0, pretend = 0, frame = 8
 2019              		@ frame_needed = 1, uses_anonymous_args = 0
 2020 0000 80B5     		push	{r7, lr}
 2021              		.cfi_def_cfa_offset 8
ARM GAS  C:\Users\Luis\AppData\Local\Temp\ccB0PfuY.s 			page 37


 2022              		.cfi_offset 7, -8
 2023              		.cfi_offset 14, -4
 2024 0002 82B0     		sub	sp, sp, #8
 2025              		.cfi_def_cfa_offset 16
 2026 0004 00AF     		add	r7, sp, #0
 2027              		.cfi_def_cfa_register 7
 2028 0006 7860     		str	r0, [r7, #4]
 2029 0008 0B46     		mov	r3, r1
 2030 000a FB70     		strb	r3, [r7, #3]
 2031              		.loc 5 587 0
 2032 000c FFF7FEFF 		bl	chDbgCheckClassI
 2033              		.loc 5 588 0
 2034 0010 7B68     		ldr	r3, [r7, #4]
 2035 0012 002B     		cmp	r3, #0
 2036 0014 02D1     		bne	.L120
 2037              		.loc 5 588 0 is_stmt 0 discriminator 1
 2038 0016 0D48     		ldr	r0, .L123
 2039 0018 FFF7FEFF 		bl	chSysHalt
 2040              	.L120:
 2041              		.loc 5 590 0 is_stmt 1
 2042 001c 7B68     		ldr	r3, [r7, #4]
 2043 001e 1A89     		ldrh	r2, [r3, #8]
 2044 0020 FB78     		ldrb	r3, [r7, #3]	@ zero_extendqisi2
 2045 0022 0121     		movs	r1, #1
 2046 0024 01FA03F3 		lsl	r3, r1, r3
 2047 0028 9BB2     		uxth	r3, r3
 2048 002a 1340     		ands	r3, r3, r2
 2049 002c 9BB2     		uxth	r3, r3
 2050 002e 002B     		cmp	r3, #0
 2051 0030 01D0     		beq	.L121
 2052              		.loc 5 591 0
 2053 0032 0123     		movs	r3, #1
 2054 0034 05E0     		b	.L122
 2055              	.L121:
 2056              		.loc 5 594 0
 2057 0036 FB78     		ldrb	r3, [r7, #3]	@ zero_extendqisi2
 2058 0038 7868     		ldr	r0, [r7, #4]
 2059 003a 1946     		mov	r1, r3
 2060 003c FFF7FEFF 		bl	usb_lld_stall_in
 2061              		.loc 5 595 0
 2062 0040 0023     		movs	r3, #0
 2063              	.L122:
 2064              		.loc 5 596 0
 2065 0042 1846     		mov	r0, r3
 2066 0044 0837     		adds	r7, r7, #8
 2067 0046 BD46     		mov	sp, r7
 2068              		@ sp needed
 2069 0048 80BD     		pop	{r7, pc}
 2070              	.L124:
 2071 004a 00BF     		.align	2
 2072              	.L123:
 2073 004c 00000000 		.word	__func__.8371
 2074              		.cfi_endproc
 2075              	.LFE276:
 2076              		.size	usbStallTransmitI, .-usbStallTransmitI
 2077              		.section	.text._usb_reset,"ax",%progbits
 2078              		.align	2
ARM GAS  C:\Users\Luis\AppData\Local\Temp\ccB0PfuY.s 			page 38


 2079              		.p2align 4,,15
 2080              		.global	_usb_reset
 2081              		.thumb
 2082              		.thumb_func
 2083              		.type	_usb_reset, %function
 2084              	_usb_reset:
 2085              	.LFB277:
 2086              		.loc 5 607 0
 2087              		.cfi_startproc
 2088              		@ args = 0, pretend = 0, frame = 16
 2089              		@ frame_needed = 1, uses_anonymous_args = 0
 2090 0000 80B5     		push	{r7, lr}
 2091              		.cfi_def_cfa_offset 8
 2092              		.cfi_offset 7, -8
 2093              		.cfi_offset 14, -4
 2094 0002 84B0     		sub	sp, sp, #16
 2095              		.cfi_def_cfa_offset 24
 2096 0004 00AF     		add	r7, sp, #0
 2097              		.cfi_def_cfa_register 7
 2098 0006 7860     		str	r0, [r7, #4]
 2099              		.loc 5 610 0
 2100 0008 7B68     		ldr	r3, [r7, #4]
 2101 000a 0222     		movs	r2, #2
 2102 000c 1A70     		strb	r2, [r3]
 2103              		.loc 5 611 0
 2104 000e 7B68     		ldr	r3, [r7, #4]
 2105 0010 0022     		movs	r2, #0
 2106 0012 A3F86420 		strh	r2, [r3, #100]	@ movhi
 2107              		.loc 5 612 0
 2108 0016 7B68     		ldr	r3, [r7, #4]
 2109 0018 0022     		movs	r2, #0
 2110 001a 83F86620 		strb	r2, [r3, #102]
 2111              		.loc 5 613 0
 2112 001e 7B68     		ldr	r3, [r7, #4]
 2113 0020 0022     		movs	r2, #0
 2114 0022 83F86720 		strb	r2, [r3, #103]
 2115              		.loc 5 614 0
 2116 0026 7B68     		ldr	r3, [r7, #4]
 2117 0028 0022     		movs	r2, #0
 2118 002a 1A81     		strh	r2, [r3, #8]	@ movhi
 2119              		.loc 5 615 0
 2120 002c 7B68     		ldr	r3, [r7, #4]
 2121 002e 0022     		movs	r2, #0
 2122 0030 5A81     		strh	r2, [r3, #10]	@ movhi
 2123              		.loc 5 618 0
 2124 0032 0023     		movs	r3, #0
 2125 0034 FB60     		str	r3, [r7, #12]
 2126 0036 09E0     		b	.L126
 2127              	.L127:
 2128              		.loc 5 619 0 discriminator 2
 2129 0038 7A68     		ldr	r2, [r7, #4]
 2130 003a FB68     		ldr	r3, [r7, #12]
 2131 003c 0233     		adds	r3, r3, #2
 2132 003e 9B00     		lsls	r3, r3, #2
 2133 0040 1344     		add	r3, r3, r2
 2134 0042 0022     		movs	r2, #0
 2135 0044 5A60     		str	r2, [r3, #4]
ARM GAS  C:\Users\Luis\AppData\Local\Temp\ccB0PfuY.s 			page 39


 2136              		.loc 5 618 0 discriminator 2
 2137 0046 FB68     		ldr	r3, [r7, #12]
 2138 0048 0133     		adds	r3, r3, #1
 2139 004a FB60     		str	r3, [r7, #12]
 2140              	.L126:
 2141              		.loc 5 618 0 is_stmt 0 discriminator 1
 2142 004c FB68     		ldr	r3, [r7, #12]
 2143 004e 052B     		cmp	r3, #5
 2144 0050 F2D9     		bls	.L127
 2145              		.loc 5 623 0 is_stmt 1
 2146 0052 7B68     		ldr	r3, [r7, #4]
 2147 0054 0022     		movs	r2, #0
 2148 0056 83F84C20 		strb	r2, [r3, #76]
 2149              		.loc 5 626 0
 2150 005a 7868     		ldr	r0, [r7, #4]
 2151 005c FFF7FEFF 		bl	usb_lld_reset
 2152              		.loc 5 627 0
 2153 0060 1037     		adds	r7, r7, #16
 2154 0062 BD46     		mov	sp, r7
 2155              		@ sp needed
 2156 0064 80BD     		pop	{r7, pc}
 2157              		.cfi_endproc
 2158              	.LFE277:
 2159              		.size	_usb_reset, .-_usb_reset
 2160 0066 00BFAFF3 		.section	.text._usb_ep0setup,"ax",%progbits
 2160      0080AFF3 
 2160      0080
 2161              		.align	2
 2162              		.p2align 4,,15
 2163              		.global	_usb_ep0setup
 2164              		.thumb
 2165              		.thumb_func
 2166              		.type	_usb_ep0setup, %function
 2167              	_usb_ep0setup:
 2168              	.LFB278:
 2169              		.loc 5 639 0
 2170              		.cfi_startproc
 2171              		@ args = 0, pretend = 0, frame = 16
 2172              		@ frame_needed = 1, uses_anonymous_args = 0
 2173 0000 80B5     		push	{r7, lr}
 2174              		.cfi_def_cfa_offset 8
 2175              		.cfi_offset 7, -8
 2176              		.cfi_offset 14, -4
 2177 0002 84B0     		sub	sp, sp, #16
 2178              		.cfi_def_cfa_offset 24
 2179 0004 00AF     		add	r7, sp, #0
 2180              		.cfi_def_cfa_register 7
 2181 0006 7860     		str	r0, [r7, #4]
 2182 0008 0B46     		mov	r3, r1
 2183 000a FB70     		strb	r3, [r7, #3]
 2184              		.loc 5 642 0
 2185 000c 7B68     		ldr	r3, [r7, #4]
 2186 000e 0022     		movs	r2, #0
 2187 0010 83F84C20 		strb	r2, [r3, #76]
 2188              		.loc 5 643 0
 2189 0014 7B68     		ldr	r3, [r7, #4]
 2190 0016 5C33     		adds	r3, r3, #92
ARM GAS  C:\Users\Luis\AppData\Local\Temp\ccB0PfuY.s 			page 40


 2191 0018 FA78     		ldrb	r2, [r7, #3]	@ zero_extendqisi2
 2192 001a 7868     		ldr	r0, [r7, #4]
 2193 001c 1146     		mov	r1, r2
 2194 001e 1A46     		mov	r2, r3
 2195 0020 FFF7FEFF 		bl	usb_lld_read_setup
 2196              		.loc 5 648 0
 2197 0024 7B68     		ldr	r3, [r7, #4]
 2198 0026 5B68     		ldr	r3, [r3, #4]
 2199 0028 9B68     		ldr	r3, [r3, #8]
 2200 002a 002B     		cmp	r3, #0
 2201 002c 0AD0     		beq	.L129
 2202              		.loc 5 649 0 discriminator 1
 2203 002e 7B68     		ldr	r3, [r7, #4]
 2204 0030 5B68     		ldr	r3, [r3, #4]
 2205 0032 9B68     		ldr	r3, [r3, #8]
 2206 0034 7868     		ldr	r0, [r7, #4]
 2207 0036 9847     		blx	r3
 2208 0038 0346     		mov	r3, r0
 2209 003a 83F00103 		eor	r3, r3, #1
 2210 003e DBB2     		uxtb	r3, r3
 2211              		.loc 5 648 0 discriminator 1
 2212 0040 002B     		cmp	r3, #0
 2213 0042 27D0     		beq	.L130
 2214              	.L129:
 2215              		.loc 5 654 0
 2216 0044 7B68     		ldr	r3, [r7, #4]
 2217 0046 93F85C30 		ldrb	r3, [r3, #92]	@ zero_extendqisi2
 2218 004a 03F06003 		and	r3, r3, #96
 2219 004e 002B     		cmp	r3, #0
 2220 0050 08D1     		bne	.L131
 2221              		.loc 5 655 0 discriminator 1
 2222 0052 7868     		ldr	r0, [r7, #4]
 2223 0054 FFF7FEFF 		bl	default_handler
 2224 0058 0346     		mov	r3, r0
 2225 005a 83F00103 		eor	r3, r3, #1
 2226 005e DBB2     		uxtb	r3, r3
 2227              		.loc 5 654 0 discriminator 1
 2228 0060 002B     		cmp	r3, #0
 2229 0062 17D0     		beq	.L130
 2230              	.L131:
 2231              		.loc 5 660 0
 2232 0064 7868     		ldr	r0, [r7, #4]
 2233 0066 0021     		movs	r1, #0
 2234 0068 FFF7FEFF 		bl	usb_lld_stall_in
 2235              		.loc 5 661 0
 2236 006c 7868     		ldr	r0, [r7, #4]
 2237 006e 0021     		movs	r1, #0
 2238 0070 FFF7FEFF 		bl	usb_lld_stall_out
 2239              		.loc 5 662 0
 2240 0074 7B68     		ldr	r3, [r7, #4]
 2241 0076 5B68     		ldr	r3, [r3, #4]
 2242 0078 1B68     		ldr	r3, [r3]
 2243 007a 002B     		cmp	r3, #0
 2244 007c 05D0     		beq	.L132
 2245              		.loc 5 662 0 is_stmt 0 discriminator 1
 2246 007e 7B68     		ldr	r3, [r7, #4]
 2247 0080 5B68     		ldr	r3, [r3, #4]
ARM GAS  C:\Users\Luis\AppData\Local\Temp\ccB0PfuY.s 			page 41


 2248 0082 1B68     		ldr	r3, [r3]
 2249 0084 7868     		ldr	r0, [r7, #4]
 2250 0086 0521     		movs	r1, #5
 2251 0088 9847     		blx	r3
 2252              	.L132:
 2253              		.loc 5 663 0 is_stmt 1
 2254 008a 7B68     		ldr	r3, [r7, #4]
 2255 008c 0622     		movs	r2, #6
 2256 008e 83F84C20 		strb	r2, [r3, #76]
 2257              		.loc 5 664 0
 2258 0092 6CE0     		b	.L128
 2259              	.L130:
 2260              		.loc 5 676 0
 2261 0094 7B68     		ldr	r3, [r7, #4]
 2262 0096 6233     		adds	r3, r3, #98
 2263 0098 1846     		mov	r0, r3
 2264 009a FFF7FEFF 		bl	get_hword
 2265 009e 0346     		mov	r3, r0
 2266 00a0 FB60     		str	r3, [r7, #12]
 2267              		.loc 5 678 0
 2268 00a2 7B68     		ldr	r3, [r7, #4]
 2269 00a4 5A6D     		ldr	r2, [r3, #84]
 2270 00a6 FB68     		ldr	r3, [r7, #12]
 2271 00a8 9A42     		cmp	r2, r3
 2272 00aa 02D9     		bls	.L134
 2273              		.loc 5 679 0
 2274 00ac 7B68     		ldr	r3, [r7, #4]
 2275 00ae FA68     		ldr	r2, [r7, #12]
 2276 00b0 5A65     		str	r2, [r3, #84]
 2277              	.L134:
 2278              		.loc 5 681 0
 2279 00b2 7B68     		ldr	r3, [r7, #4]
 2280 00b4 93F85C30 		ldrb	r3, [r3, #92]	@ zero_extendqisi2
 2281 00b8 DBB2     		uxtb	r3, r3
 2282 00ba 5BB2     		sxtb	r3, r3
 2283 00bc 002B     		cmp	r3, #0
 2284 00be 2BDA     		bge	.L135
 2285              		.loc 5 683 0
 2286 00c0 7B68     		ldr	r3, [r7, #4]
 2287 00c2 5B6D     		ldr	r3, [r3, #84]
 2288 00c4 002B     		cmp	r3, #0
 2289 00c6 14D0     		beq	.L136
 2290              		.loc 5 685 0
 2291 00c8 7B68     		ldr	r3, [r7, #4]
 2292 00ca 0122     		movs	r2, #1
 2293 00cc 83F84C20 		strb	r2, [r3, #76]
 2294              		.loc 5 686 0
 2295 00d0 7B68     		ldr	r3, [r7, #4]
 2296 00d2 1A6D     		ldr	r2, [r3, #80]
 2297 00d4 7B68     		ldr	r3, [r7, #4]
 2298 00d6 5B6D     		ldr	r3, [r3, #84]
 2299 00d8 7868     		ldr	r0, [r7, #4]
 2300 00da 0021     		movs	r1, #0
 2301 00dc FFF7FEFF 		bl	usbPrepareTransmit
 2302              		.loc 5 687 0
 2303 00e0 FFF7FEFF 		bl	osalSysLockFromISR
 2304              		.loc 5 688 0
ARM GAS  C:\Users\Luis\AppData\Local\Temp\ccB0PfuY.s 			page 42


 2305 00e4 7868     		ldr	r0, [r7, #4]
 2306 00e6 0021     		movs	r1, #0
 2307 00e8 FFF7FEFF 		bl	usbStartTransmitI
 2308              		.loc 5 689 0
 2309 00ec FFF7FEFF 		bl	osalSysUnlockFromISR
 2310 00f0 3DE0     		b	.L128
 2311              	.L136:
 2312              		.loc 5 694 0
 2313 00f2 7B68     		ldr	r3, [r7, #4]
 2314 00f4 0322     		movs	r2, #3
 2315 00f6 83F84C20 		strb	r2, [r3, #76]
 2316              		.loc 5 696 0
 2317 00fa 7868     		ldr	r0, [r7, #4]
 2318 00fc 0021     		movs	r1, #0
 2319 00fe 0022     		movs	r2, #0
 2320 0100 0023     		movs	r3, #0
 2321 0102 FFF7FEFF 		bl	usbPrepareReceive
 2322              		.loc 5 697 0
 2323 0106 FFF7FEFF 		bl	osalSysLockFromISR
 2324              		.loc 5 698 0
 2325 010a 7868     		ldr	r0, [r7, #4]
 2326 010c 0021     		movs	r1, #0
 2327 010e FFF7FEFF 		bl	usbStartReceiveI
 2328              		.loc 5 699 0
 2329 0112 FFF7FEFF 		bl	osalSysUnlockFromISR
 2330 0116 2AE0     		b	.L128
 2331              	.L135:
 2332              		.loc 5 707 0
 2333 0118 7B68     		ldr	r3, [r7, #4]
 2334 011a 5B6D     		ldr	r3, [r3, #84]
 2335 011c 002B     		cmp	r3, #0
 2336 011e 14D0     		beq	.L138
 2337              		.loc 5 709 0
 2338 0120 7B68     		ldr	r3, [r7, #4]
 2339 0122 0422     		movs	r2, #4
 2340 0124 83F84C20 		strb	r2, [r3, #76]
 2341              		.loc 5 710 0
 2342 0128 7B68     		ldr	r3, [r7, #4]
 2343 012a 1A6D     		ldr	r2, [r3, #80]
 2344 012c 7B68     		ldr	r3, [r7, #4]
 2345 012e 5B6D     		ldr	r3, [r3, #84]
 2346 0130 7868     		ldr	r0, [r7, #4]
 2347 0132 0021     		movs	r1, #0
 2348 0134 FFF7FEFF 		bl	usbPrepareReceive
 2349              		.loc 5 711 0
 2350 0138 FFF7FEFF 		bl	osalSysLockFromISR
 2351              		.loc 5 712 0
 2352 013c 7868     		ldr	r0, [r7, #4]
 2353 013e 0021     		movs	r1, #0
 2354 0140 FFF7FEFF 		bl	usbStartReceiveI
 2355              		.loc 5 713 0
 2356 0144 FFF7FEFF 		bl	osalSysUnlockFromISR
 2357 0148 11E0     		b	.L128
 2358              	.L138:
 2359              		.loc 5 718 0
 2360 014a 7B68     		ldr	r3, [r7, #4]
 2361 014c 0522     		movs	r2, #5
ARM GAS  C:\Users\Luis\AppData\Local\Temp\ccB0PfuY.s 			page 43


 2362 014e 83F84C20 		strb	r2, [r3, #76]
 2363              		.loc 5 720 0
 2364 0152 7868     		ldr	r0, [r7, #4]
 2365 0154 0021     		movs	r1, #0
 2366 0156 0022     		movs	r2, #0
 2367 0158 0023     		movs	r3, #0
 2368 015a FFF7FEFF 		bl	usbPrepareTransmit
 2369              		.loc 5 721 0
 2370 015e FFF7FEFF 		bl	osalSysLockFromISR
 2371              		.loc 5 722 0
 2372 0162 7868     		ldr	r0, [r7, #4]
 2373 0164 0021     		movs	r1, #0
 2374 0166 FFF7FEFF 		bl	usbStartTransmitI
 2375              		.loc 5 723 0
 2376 016a FFF7FEFF 		bl	osalSysUnlockFromISR
 2377              	.L128:
 2378              		.loc 5 729 0
 2379 016e 1037     		adds	r7, r7, #16
 2380 0170 BD46     		mov	sp, r7
 2381              		@ sp needed
 2382 0172 80BD     		pop	{r7, pc}
 2383              		.cfi_endproc
 2384              	.LFE278:
 2385              		.size	_usb_ep0setup, .-_usb_ep0setup
 2386 0174 AFF30080 		.section	.text._usb_ep0in,"ax",%progbits
 2386      AFF30080 
 2386      AFF30080 
 2387              		.align	2
 2388              		.p2align 4,,15
 2389              		.global	_usb_ep0in
 2390              		.thumb
 2391              		.thumb_func
 2392              		.type	_usb_ep0in, %function
 2393              	_usb_ep0in:
 2394              	.LFB279:
 2395              		.loc 5 741 0
 2396              		.cfi_startproc
 2397              		@ args = 0, pretend = 0, frame = 16
 2398              		@ frame_needed = 1, uses_anonymous_args = 0
 2399 0000 80B5     		push	{r7, lr}
 2400              		.cfi_def_cfa_offset 8
 2401              		.cfi_offset 7, -8
 2402              		.cfi_offset 14, -4
 2403 0002 84B0     		sub	sp, sp, #16
 2404              		.cfi_def_cfa_offset 24
 2405 0004 00AF     		add	r7, sp, #0
 2406              		.cfi_def_cfa_register 7
 2407 0006 7860     		str	r0, [r7, #4]
 2408 0008 0B46     		mov	r3, r1
 2409 000a FB70     		strb	r3, [r7, #3]
 2410              		.loc 5 745 0
 2411 000c 7B68     		ldr	r3, [r7, #4]
 2412 000e 93F84C30 		ldrb	r3, [r3, #76]	@ zero_extendqisi2
 2413 0012 062B     		cmp	r3, #6
 2414 0014 76D8     		bhi	.L140
 2415 0016 01A2     		adr	r2, .L142
 2416 0018 52F823F0 		ldr	pc, [r2, r3, lsl #2]
ARM GAS  C:\Users\Luis\AppData\Local\Temp\ccB0PfuY.s 			page 44


 2417              		.p2align 2
 2418              	.L142:
 2419 001c CF000000 		.word	.L141+1
 2420 0020 39000000 		.word	.L143+1
 2421 0024 8F000000 		.word	.L144+1
 2422 0028 CF000000 		.word	.L141+1
 2423 002c CF000000 		.word	.L141+1
 2424 0030 B5000000 		.word	.L145+1
 2425 0034 D5000000 		.word	.L146+1
 2426              	.L143:
 2427              		.loc 5 747 0
 2428 0038 7B68     		ldr	r3, [r7, #4]
 2429 003a 6233     		adds	r3, r3, #98
 2430 003c 1846     		mov	r0, r3
 2431 003e FFF7FEFF 		bl	get_hword
 2432 0042 0346     		mov	r3, r0
 2433 0044 FB60     		str	r3, [r7, #12]
 2434              		.loc 5 751 0
 2435 0046 7B68     		ldr	r3, [r7, #4]
 2436 0048 5A6D     		ldr	r2, [r3, #84]
 2437 004a FB68     		ldr	r3, [r7, #12]
 2438 004c 9A42     		cmp	r2, r3
 2439 004e 1ED2     		bcs	.L144
 2440              		.loc 5 752 0 discriminator 1
 2441 0050 7B68     		ldr	r3, [r7, #4]
 2442 0052 5B6D     		ldr	r3, [r3, #84]
 2443 0054 7A68     		ldr	r2, [r7, #4]
 2444 0056 D268     		ldr	r2, [r2, #12]
 2445 0058 128A     		ldrh	r2, [r2, #16]
 2446 005a B3FBF2F1 		udiv	r1, r3, r2
 2447 005e 02FB01F2 		mul	r2, r2, r1
 2448 0062 9B1A     		subs	r3, r3, r2
 2449              		.loc 5 751 0 discriminator 1
 2450 0064 002B     		cmp	r3, #0
 2451 0066 12D1     		bne	.L144
 2452              		.loc 5 753 0
 2453 0068 7868     		ldr	r0, [r7, #4]
 2454 006a 0021     		movs	r1, #0
 2455 006c 0022     		movs	r2, #0
 2456 006e 0023     		movs	r3, #0
 2457 0070 FFF7FEFF 		bl	usbPrepareTransmit
 2458              		.loc 5 754 0
 2459 0074 FFF7FEFF 		bl	osalSysLockFromISR
 2460              		.loc 5 755 0
 2461 0078 7868     		ldr	r0, [r7, #4]
 2462 007a 0021     		movs	r1, #0
 2463 007c FFF7FEFF 		bl	usbStartTransmitI
 2464              		.loc 5 756 0
 2465 0080 FFF7FEFF 		bl	osalSysUnlockFromISR
 2466              		.loc 5 757 0
 2467 0084 7B68     		ldr	r3, [r7, #4]
 2468 0086 0222     		movs	r2, #2
 2469 0088 83F84C20 		strb	r2, [r3, #76]
 2470              		.loc 5 758 0
 2471 008c 3DE0     		b	.L139
 2472              	.L144:
 2473              		.loc 5 763 0
ARM GAS  C:\Users\Luis\AppData\Local\Temp\ccB0PfuY.s 			page 45


 2474 008e 7B68     		ldr	r3, [r7, #4]
 2475 0090 0322     		movs	r2, #3
 2476 0092 83F84C20 		strb	r2, [r3, #76]
 2477              		.loc 5 765 0
 2478 0096 7868     		ldr	r0, [r7, #4]
 2479 0098 0021     		movs	r1, #0
 2480 009a 0022     		movs	r2, #0
 2481 009c 0023     		movs	r3, #0
 2482 009e FFF7FEFF 		bl	usbPrepareReceive
 2483              		.loc 5 766 0
 2484 00a2 FFF7FEFF 		bl	osalSysLockFromISR
 2485              		.loc 5 767 0
 2486 00a6 7868     		ldr	r0, [r7, #4]
 2487 00a8 0021     		movs	r1, #0
 2488 00aa FFF7FEFF 		bl	usbStartReceiveI
 2489              		.loc 5 768 0
 2490 00ae FFF7FEFF 		bl	osalSysUnlockFromISR
 2491              		.loc 5 772 0
 2492 00b2 2AE0     		b	.L139
 2493              	.L145:
 2494              		.loc 5 775 0
 2495 00b4 7B68     		ldr	r3, [r7, #4]
 2496 00b6 9B6D     		ldr	r3, [r3, #88]
 2497 00b8 002B     		cmp	r3, #0
 2498 00ba 03D0     		beq	.L148
 2499              		.loc 5 776 0
 2500 00bc 7B68     		ldr	r3, [r7, #4]
 2501 00be 9B6D     		ldr	r3, [r3, #88]
 2502 00c0 7868     		ldr	r0, [r7, #4]
 2503 00c2 9847     		blx	r3
 2504              	.L148:
 2505              		.loc 5 778 0
 2506 00c4 7B68     		ldr	r3, [r7, #4]
 2507 00c6 0022     		movs	r2, #0
 2508 00c8 83F84C20 		strb	r2, [r3, #76]
 2509              		.loc 5 779 0
 2510 00cc 1DE0     		b	.L139
 2511              	.L141:
 2512              		.loc 5 784 0
 2513 00ce 1048     		ldr	r0, .L150
 2514 00d0 FFF7FEFF 		bl	chSysHalt
 2515              	.L146:
 2516              		.loc 5 790 0
 2517 00d4 7868     		ldr	r0, [r7, #4]
 2518 00d6 0021     		movs	r1, #0
 2519 00d8 FFF7FEFF 		bl	usb_lld_stall_in
 2520              		.loc 5 791 0
 2521 00dc 7868     		ldr	r0, [r7, #4]
 2522 00de 0021     		movs	r1, #0
 2523 00e0 FFF7FEFF 		bl	usb_lld_stall_out
 2524              		.loc 5 792 0
 2525 00e4 7B68     		ldr	r3, [r7, #4]
 2526 00e6 5B68     		ldr	r3, [r3, #4]
 2527 00e8 1B68     		ldr	r3, [r3]
 2528 00ea 002B     		cmp	r3, #0
 2529 00ec 05D0     		beq	.L149
 2530              		.loc 5 792 0 is_stmt 0 discriminator 1
ARM GAS  C:\Users\Luis\AppData\Local\Temp\ccB0PfuY.s 			page 46


 2531 00ee 7B68     		ldr	r3, [r7, #4]
 2532 00f0 5B68     		ldr	r3, [r3, #4]
 2533 00f2 1B68     		ldr	r3, [r3]
 2534 00f4 7868     		ldr	r0, [r7, #4]
 2535 00f6 0521     		movs	r1, #5
 2536 00f8 9847     		blx	r3
 2537              	.L149:
 2538              		.loc 5 793 0 is_stmt 1
 2539 00fa 7B68     		ldr	r3, [r7, #4]
 2540 00fc 0622     		movs	r2, #6
 2541 00fe 83F84C20 		strb	r2, [r3, #76]
 2542              		.loc 5 794 0
 2543 0102 02E0     		b	.L139
 2544              	.L140:
 2545              		.loc 5 796 0
 2546 0104 0248     		ldr	r0, .L150
 2547 0106 FFF7FEFF 		bl	chSysHalt
 2548              	.L139:
 2549              		.loc 5 798 0
 2550 010a 1037     		adds	r7, r7, #16
 2551 010c BD46     		mov	sp, r7
 2552              		@ sp needed
 2553 010e 80BD     		pop	{r7, pc}
 2554              	.L151:
 2555              		.align	2
 2556              	.L150:
 2557 0110 00000000 		.word	__func__.8395
 2558              		.cfi_endproc
 2559              	.LFE279:
 2560              		.size	_usb_ep0in, .-_usb_ep0in
 2561 0114 AFF30080 		.section	.text._usb_ep0out,"ax",%progbits
 2561      AFF30080 
 2561      AFF30080 
 2562              		.align	2
 2563              		.p2align 4,,15
 2564              		.global	_usb_ep0out
 2565              		.thumb
 2566              		.thumb_func
 2567              		.type	_usb_ep0out, %function
 2568              	_usb_ep0out:
 2569              	.LFB280:
 2570              		.loc 5 810 0
 2571              		.cfi_startproc
 2572              		@ args = 0, pretend = 0, frame = 8
 2573              		@ frame_needed = 1, uses_anonymous_args = 0
 2574 0000 80B5     		push	{r7, lr}
 2575              		.cfi_def_cfa_offset 8
 2576              		.cfi_offset 7, -8
 2577              		.cfi_offset 14, -4
 2578 0002 82B0     		sub	sp, sp, #8
 2579              		.cfi_def_cfa_offset 16
 2580 0004 00AF     		add	r7, sp, #0
 2581              		.cfi_def_cfa_register 7
 2582 0006 7860     		str	r0, [r7, #4]
 2583 0008 0B46     		mov	r3, r1
 2584 000a FB70     		strb	r3, [r7, #3]
 2585              		.loc 5 813 0
ARM GAS  C:\Users\Luis\AppData\Local\Temp\ccB0PfuY.s 			page 47


 2586 000c 7B68     		ldr	r3, [r7, #4]
 2587 000e 93F84C30 		ldrb	r3, [r3, #76]	@ zero_extendqisi2
 2588 0012 062B     		cmp	r3, #6
 2589 0014 52D8     		bhi	.L153
 2590 0016 01A2     		adr	r2, .L155
 2591 0018 52F823F0 		ldr	pc, [r2, r3, lsl #2]
 2592              		.p2align 2
 2593              	.L155:
 2594 001c 87000000 		.word	.L154+1
 2595 0020 87000000 		.word	.L154+1
 2596 0024 87000000 		.word	.L154+1
 2597 0028 5F000000 		.word	.L156+1
 2598 002c 39000000 		.word	.L157+1
 2599 0030 87000000 		.word	.L154+1
 2600 0034 8D000000 		.word	.L158+1
 2601              	.L157:
 2602              		.loc 5 816 0
 2603 0038 7B68     		ldr	r3, [r7, #4]
 2604 003a 0522     		movs	r2, #5
 2605 003c 83F84C20 		strb	r2, [r3, #76]
 2606              		.loc 5 818 0
 2607 0040 7868     		ldr	r0, [r7, #4]
 2608 0042 0021     		movs	r1, #0
 2609 0044 0022     		movs	r2, #0
 2610 0046 0023     		movs	r3, #0
 2611 0048 FFF7FEFF 		bl	usbPrepareTransmit
 2612              		.loc 5 819 0
 2613 004c FFF7FEFF 		bl	osalSysLockFromISR
 2614              		.loc 5 820 0
 2615 0050 7868     		ldr	r0, [r7, #4]
 2616 0052 0021     		movs	r1, #0
 2617 0054 FFF7FEFF 		bl	usbStartTransmitI
 2618              		.loc 5 821 0
 2619 0058 FFF7FEFF 		bl	osalSysUnlockFromISR
 2620              		.loc 5 825 0
 2621 005c 31E0     		b	.L152
 2622              	.L156:
 2623              		.loc 5 830 0
 2624 005e 7B68     		ldr	r3, [r7, #4]
 2625 0060 DB68     		ldr	r3, [r3, #12]
 2626 0062 9B69     		ldr	r3, [r3, #24]
 2627 0064 9B68     		ldr	r3, [r3, #8]
 2628 0066 002B     		cmp	r3, #0
 2629 0068 00D0     		beq	.L160
 2630              		.loc 5 831 0
 2631 006a 2AE0     		b	.L152
 2632              	.L160:
 2633              		.loc 5 834 0
 2634 006c 7B68     		ldr	r3, [r7, #4]
 2635 006e 9B6D     		ldr	r3, [r3, #88]
 2636 0070 002B     		cmp	r3, #0
 2637 0072 03D0     		beq	.L161
 2638              		.loc 5 835 0
 2639 0074 7B68     		ldr	r3, [r7, #4]
 2640 0076 9B6D     		ldr	r3, [r3, #88]
 2641 0078 7868     		ldr	r0, [r7, #4]
 2642 007a 9847     		blx	r3
ARM GAS  C:\Users\Luis\AppData\Local\Temp\ccB0PfuY.s 			page 48


 2643              	.L161:
 2644              		.loc 5 837 0
 2645 007c 7B68     		ldr	r3, [r7, #4]
 2646 007e 0022     		movs	r2, #0
 2647 0080 83F84C20 		strb	r2, [r3, #76]
 2648              		.loc 5 838 0
 2649 0084 1DE0     		b	.L152
 2650              	.L154:
 2651              		.loc 5 844 0
 2652 0086 1048     		ldr	r0, .L163
 2653 0088 FFF7FEFF 		bl	chSysHalt
 2654              	.L158:
 2655              		.loc 5 850 0
 2656 008c 7868     		ldr	r0, [r7, #4]
 2657 008e 0021     		movs	r1, #0
 2658 0090 FFF7FEFF 		bl	usb_lld_stall_in
 2659              		.loc 5 851 0
 2660 0094 7868     		ldr	r0, [r7, #4]
 2661 0096 0021     		movs	r1, #0
 2662 0098 FFF7FEFF 		bl	usb_lld_stall_out
 2663              		.loc 5 852 0
 2664 009c 7B68     		ldr	r3, [r7, #4]
 2665 009e 5B68     		ldr	r3, [r3, #4]
 2666 00a0 1B68     		ldr	r3, [r3]
 2667 00a2 002B     		cmp	r3, #0
 2668 00a4 05D0     		beq	.L162
 2669              		.loc 5 852 0 is_stmt 0 discriminator 1
 2670 00a6 7B68     		ldr	r3, [r7, #4]
 2671 00a8 5B68     		ldr	r3, [r3, #4]
 2672 00aa 1B68     		ldr	r3, [r3]
 2673 00ac 7868     		ldr	r0, [r7, #4]
 2674 00ae 0521     		movs	r1, #5
 2675 00b0 9847     		blx	r3
 2676              	.L162:
 2677              		.loc 5 853 0 is_stmt 1
 2678 00b2 7B68     		ldr	r3, [r7, #4]
 2679 00b4 0622     		movs	r2, #6
 2680 00b6 83F84C20 		strb	r2, [r3, #76]
 2681              		.loc 5 854 0
 2682 00ba 02E0     		b	.L152
 2683              	.L153:
 2684              		.loc 5 856 0
 2685 00bc 0248     		ldr	r0, .L163
 2686 00be FFF7FEFF 		bl	chSysHalt
 2687              	.L152:
 2688              		.loc 5 858 0
 2689 00c2 0837     		adds	r7, r7, #8
 2690 00c4 BD46     		mov	sp, r7
 2691              		@ sp needed
 2692 00c6 80BD     		pop	{r7, pc}
 2693              	.L164:
 2694              		.align	2
 2695              	.L163:
 2696 00c8 00000000 		.word	__func__.8409
 2697              		.cfi_endproc
 2698              	.LFE280:
 2699              		.size	_usb_ep0out, .-_usb_ep0out
ARM GAS  C:\Users\Luis\AppData\Local\Temp\ccB0PfuY.s 			page 49


 2700 00cc AFF30080 		.section	.rodata.__func__.8302,"a",%progbits
 2701              		.align	2
 2702              		.type	__func__.8302, %object
 2703              		.size	__func__.8302, 9
 2704              	__func__.8302:
 2705 0000 75736253 		.ascii	"usbStart\000"
 2705      74617274 
 2705      00
 2706 0009 000000   		.section	.rodata.__func__.6186,"a",%progbits
 2707              		.align	2
 2708              		.type	__func__.6186, %object
 2709              		.size	__func__.6186, 12
 2710              	__func__.6186:
 2711 0000 63685379 		.ascii	"chSysUnlock\000"
 2711      73556E6C 
 2711      6F636B00 
 2712              		.section	.rodata.__func__.8309,"a",%progbits
 2713              		.align	2
 2714              		.type	__func__.8309, %object
 2715              		.size	__func__.8309, 8
 2716              	__func__.8309:
 2717 0000 75736253 		.ascii	"usbStop\000"
 2717      746F7000 
 2718              		.section	.rodata.__func__.8315,"a",%progbits
 2719              		.align	2
 2720              		.type	__func__.8315, %object
 2721              		.size	__func__.8315, 17
 2722              	__func__.8315:
 2723 0000 75736249 		.ascii	"usbInitEndpointI\000"
 2723      6E697445 
 2723      6E64706F 
 2723      696E7449 
 2723      00
 2724 0011 000000   		.section	.rodata.__func__.8320,"a",%progbits
 2725              		.align	2
 2726              		.type	__func__.8320, %object
 2727              		.size	__func__.8320, 21
 2728              	__func__.8320:
 2729 0000 75736244 		.ascii	"usbDisableEndpointsI\000"
 2729      69736162 
 2729      6C65456E 
 2729      64706F69 
 2729      6E747349 
 2730 0015 000000   		.section	.rodata.__func__.8356,"a",%progbits
 2731              		.align	2
 2732              		.type	__func__.8356, %object
 2733              		.size	__func__.8356, 17
 2734              	__func__.8356:
 2735 0000 75736253 		.ascii	"usbStartReceiveI\000"
 2735      74617274 
 2735      52656365 
 2735      69766549 
 2735      00
 2736 0011 000000   		.section	.rodata.__func__.8361,"a",%progbits
 2737              		.align	2
 2738              		.type	__func__.8361, %object
 2739              		.size	__func__.8361, 18
ARM GAS  C:\Users\Luis\AppData\Local\Temp\ccB0PfuY.s 			page 50


 2740              	__func__.8361:
 2741 0000 75736253 		.ascii	"usbStartTransmitI\000"
 2741      74617274 
 2741      5472616E 
 2741      736D6974 
 2741      4900
 2742 0012 0000     		.section	.rodata.__func__.8366,"a",%progbits
 2743              		.align	2
 2744              		.type	__func__.8366, %object
 2745              		.size	__func__.8366, 17
 2746              	__func__.8366:
 2747 0000 75736253 		.ascii	"usbStallReceiveI\000"
 2747      74616C6C 
 2747      52656365 
 2747      69766549 
 2747      00
 2748 0011 000000   		.section	.rodata.__func__.8371,"a",%progbits
 2749              		.align	2
 2750              		.type	__func__.8371, %object
 2751              		.size	__func__.8371, 18
 2752              	__func__.8371:
 2753 0000 75736253 		.ascii	"usbStallTransmitI\000"
 2753      74616C6C 
 2753      5472616E 
 2753      736D6974 
 2753      4900
 2754 0012 0000     		.section	.rodata.__func__.8395,"a",%progbits
 2755              		.align	2
 2756              		.type	__func__.8395, %object
 2757              		.size	__func__.8395, 11
 2758              	__func__.8395:
 2759 0000 5F757362 		.ascii	"_usb_ep0in\000"
 2759      5F657030 
 2759      696E00
 2760 000b 00       		.section	.rodata.__func__.8409,"a",%progbits
 2761              		.align	2
 2762              		.type	__func__.8409, %object
 2763              		.size	__func__.8409, 12
 2764              	__func__.8409:
 2765 0000 5F757362 		.ascii	"_usb_ep0out\000"
 2765      5F657030 
 2765      6F757400 
 2766              		.text
 2767              	.Letext0:
 2768              		.file 6 "c:\\emtechesdk\\gcc\\lib\\gcc\\arm-none-eabi\\4.8.3\\include\\stddef.h"
 2769              		.file 7 "c:\\emtechesdk\\gcc\\arm-none-eabi\\include\\stdint.h"
 2770              		.file 8 "../../ChibiOS/os/rt/ports/ARMCMx/compilers/GCC/chtypes.h"
 2771              		.file 9 "../../ChibiOS/os/rt/include/chsystypes.h"
 2772              		.file 10 "../../ChibiOS/os/rt/include/chschd.h"
 2773              		.file 11 "../../ChibiOS/os/rt/ports/ARMCMx/chcore.h"
 2774              		.file 12 "../../ChibiOS/os/rt/include/chdebug.h"
 2775              		.file 13 "../../ChibiOS/os/rt/include/chtm.h"
 2776              		.file 14 "../../ChibiOS/os/rt/include/chstats.h"
 2777              		.file 15 "../../ChibiOS/os/rt/include/chsem.h"
 2778              		.file 16 "../../ChibiOS/os/rt/include/chmtx.h"
 2779              		.file 17 "../../ChibiOS/os/rt/include/chqueues.h"
 2780              		.file 18 "../../ChibiOS/os/hal/include/usb.h"
ARM GAS  C:\Users\Luis\AppData\Local\Temp\ccB0PfuY.s 			page 51


 2781              		.file 19 "../../ChibiOS/os/hal/ports/STM32/LLD/OTGv1/usb_lld.h"
 2782              		.file 20 "../../ChibiOS/os/hal/ports/STM32/LLD/OTGv1/stm32_otg.h"
 2783              		.file 21 "../../ChibiOS/os/ext/CMSIS/include/core_cm4.h"
 2784              		.section	.debug_info,"",%progbits
 2785              	.Ldebug_info0:
 2786 0000 6E1B0000 		.4byte	0x1b6e
 2787 0004 0400     		.2byte	0x4
 2788 0006 00000000 		.4byte	.Ldebug_abbrev0
 2789 000a 04       		.byte	0x4
 2790 000b 01       		.uleb128 0x1
 2791 000c 05090000 		.4byte	.LASF344
 2792 0010 01       		.byte	0x1
 2793 0011 61040000 		.4byte	.LASF345
 2794 0015 330A0000 		.4byte	.LASF346
 2795 0019 00000000 		.4byte	.Ldebug_ranges0+0
 2796 001d 00000000 		.4byte	0
 2797 0021 00000000 		.4byte	.Ldebug_line0
 2798 0025 02       		.uleb128 0x2
 2799 0026 04       		.byte	0x4
 2800 0027 05       		.byte	0x5
 2801 0028 696E7400 		.ascii	"int\000"
 2802 002c 03       		.uleb128 0x3
 2803 002d 08000000 		.4byte	.LASF11
 2804 0031 06       		.byte	0x6
 2805 0032 D4       		.byte	0xd4
 2806 0033 37000000 		.4byte	0x37
 2807 0037 04       		.uleb128 0x4
 2808 0038 04       		.byte	0x4
 2809 0039 07       		.byte	0x7
 2810 003a 98080000 		.4byte	.LASF0
 2811 003e 04       		.uleb128 0x4
 2812 003f 01       		.byte	0x1
 2813 0040 06       		.byte	0x6
 2814 0041 A0020000 		.4byte	.LASF1
 2815 0045 04       		.uleb128 0x4
 2816 0046 01       		.byte	0x1
 2817 0047 08       		.byte	0x8
 2818 0048 33030000 		.4byte	.LASF2
 2819 004c 04       		.uleb128 0x4
 2820 004d 02       		.byte	0x2
 2821 004e 05       		.byte	0x5
 2822 004f DD0C0000 		.4byte	.LASF3
 2823 0053 04       		.uleb128 0x4
 2824 0054 02       		.byte	0x2
 2825 0055 07       		.byte	0x7
 2826 0056 720E0000 		.4byte	.LASF4
 2827 005a 04       		.uleb128 0x4
 2828 005b 08       		.byte	0x8
 2829 005c 05       		.byte	0x5
 2830 005d B2070000 		.4byte	.LASF5
 2831 0061 04       		.uleb128 0x4
 2832 0062 08       		.byte	0x8
 2833 0063 07       		.byte	0x7
 2834 0064 080B0000 		.4byte	.LASF6
 2835 0068 04       		.uleb128 0x4
 2836 0069 04       		.byte	0x4
 2837 006a 05       		.byte	0x5
ARM GAS  C:\Users\Luis\AppData\Local\Temp\ccB0PfuY.s 			page 52


 2838 006b BF010000 		.4byte	.LASF7
 2839 006f 04       		.uleb128 0x4
 2840 0070 04       		.byte	0x4
 2841 0071 07       		.byte	0x7
 2842 0072 0F000000 		.4byte	.LASF8
 2843 0076 05       		.uleb128 0x5
 2844 0077 04       		.byte	0x4
 2845 0078 04       		.uleb128 0x4
 2846 0079 04       		.byte	0x4
 2847 007a 07       		.byte	0x7
 2848 007b 38060000 		.4byte	.LASF9
 2849 007f 04       		.uleb128 0x4
 2850 0080 01       		.byte	0x1
 2851 0081 08       		.byte	0x8
 2852 0082 DD030000 		.4byte	.LASF10
 2853 0086 06       		.uleb128 0x6
 2854 0087 04       		.byte	0x4
 2855 0088 8C000000 		.4byte	0x8c
 2856 008c 07       		.uleb128 0x7
 2857 008d 7F000000 		.4byte	0x7f
 2858 0091 08       		.uleb128 0x8
 2859 0092 7F000000 		.4byte	0x7f
 2860 0096 A1000000 		.4byte	0xa1
 2861 009a 09       		.uleb128 0x9
 2862 009b 6F000000 		.4byte	0x6f
 2863 009f 07       		.byte	0x7
 2864 00a0 00       		.byte	0
 2865 00a1 03       		.uleb128 0x3
 2866 00a2 B3020000 		.4byte	.LASF12
 2867 00a6 07       		.byte	0x7
 2868 00a7 2A       		.byte	0x2a
 2869 00a8 45000000 		.4byte	0x45
 2870 00ac 03       		.uleb128 0x3
 2871 00ad 300B0000 		.4byte	.LASF13
 2872 00b1 07       		.byte	0x7
 2873 00b2 36       		.byte	0x36
 2874 00b3 53000000 		.4byte	0x53
 2875 00b7 03       		.uleb128 0x3
 2876 00b8 5C000000 		.4byte	.LASF14
 2877 00bc 07       		.byte	0x7
 2878 00bd 4F       		.byte	0x4f
 2879 00be 68000000 		.4byte	0x68
 2880 00c2 03       		.uleb128 0x3
 2881 00c3 370E0000 		.4byte	.LASF15
 2882 00c7 07       		.byte	0x7
 2883 00c8 50       		.byte	0x50
 2884 00c9 78000000 		.4byte	0x78
 2885 00cd 03       		.uleb128 0x3
 2886 00ce FC0C0000 		.4byte	.LASF16
 2887 00d2 07       		.byte	0x7
 2888 00d3 78       		.byte	0x78
 2889 00d4 61000000 		.4byte	0x61
 2890 00d8 0A       		.uleb128 0xa
 2891 00d9 B7000000 		.4byte	0xb7
 2892 00dd 0A       		.uleb128 0xa
 2893 00de C2000000 		.4byte	0xc2
 2894 00e2 03       		.uleb128 0x3
ARM GAS  C:\Users\Luis\AppData\Local\Temp\ccB0PfuY.s 			page 53


 2895 00e3 AF080000 		.4byte	.LASF17
 2896 00e7 08       		.byte	0x8
 2897 00e8 45       		.byte	0x45
 2898 00e9 C2000000 		.4byte	0xc2
 2899 00ed 03       		.uleb128 0x3
 2900 00ee 0A020000 		.4byte	.LASF18
 2901 00f2 08       		.byte	0x8
 2902 00f3 46       		.byte	0x46
 2903 00f4 CD000000 		.4byte	0xcd
 2904 00f8 03       		.uleb128 0x3
 2905 00f9 610C0000 		.4byte	.LASF19
 2906 00fd 08       		.byte	0x8
 2907 00fe 48       		.byte	0x48
 2908 00ff A1000000 		.4byte	0xa1
 2909 0103 03       		.uleb128 0x3
 2910 0104 01020000 		.4byte	.LASF20
 2911 0108 08       		.byte	0x8
 2912 0109 49       		.byte	0x49
 2913 010a A1000000 		.4byte	0xa1
 2914 010e 03       		.uleb128 0x3
 2915 010f F60D0000 		.4byte	.LASF21
 2916 0113 08       		.byte	0x8
 2917 0114 4A       		.byte	0x4a
 2918 0115 A1000000 		.4byte	0xa1
 2919 0119 03       		.uleb128 0x3
 2920 011a 43000000 		.4byte	.LASF22
 2921 011e 08       		.byte	0x8
 2922 011f 4C       		.byte	0x4c
 2923 0120 C2000000 		.4byte	0xc2
 2924 0124 03       		.uleb128 0x3
 2925 0125 460B0000 		.4byte	.LASF23
 2926 0129 08       		.byte	0x8
 2927 012a 4D       		.byte	0x4d
 2928 012b B7000000 		.4byte	0xb7
 2929 012f 03       		.uleb128 0x3
 2930 0130 F4020000 		.4byte	.LASF24
 2931 0134 08       		.byte	0x8
 2932 0135 4F       		.byte	0x4f
 2933 0136 C2000000 		.4byte	0xc2
 2934 013a 03       		.uleb128 0x3
 2935 013b 00050000 		.4byte	.LASF25
 2936 013f 08       		.byte	0x8
 2937 0140 51       		.byte	0x51
 2938 0141 B7000000 		.4byte	0xb7
 2939 0145 03       		.uleb128 0x3
 2940 0146 0D070000 		.4byte	.LASF26
 2941 014a 08       		.byte	0x8
 2942 014b 52       		.byte	0x52
 2943 014c C2000000 		.4byte	0xc2
 2944 0150 03       		.uleb128 0x3
 2945 0151 1F000000 		.4byte	.LASF27
 2946 0155 09       		.byte	0x9
 2947 0156 33       		.byte	0x33
 2948 0157 C2000000 		.4byte	0xc2
 2949 015b 03       		.uleb128 0x3
 2950 015c 170A0000 		.4byte	.LASF28
 2951 0160 09       		.byte	0x9
ARM GAS  C:\Users\Luis\AppData\Local\Temp\ccB0PfuY.s 			page 54


 2952 0161 3F       		.byte	0x3f
 2953 0162 66010000 		.4byte	0x166
 2954 0166 0B       		.uleb128 0xb
 2955 0167 98060000 		.4byte	.LASF51
 2956 016b 68       		.byte	0x68
 2957 016c 0A       		.byte	0xa
 2958 016d C2       		.byte	0xc2
 2959 016e 79020000 		.4byte	0x279
 2960 0172 0C       		.uleb128 0xc
 2961 0173 C8010000 		.4byte	.LASF29
 2962 0177 0A       		.byte	0xa
 2963 0178 C3       		.byte	0xc3
 2964 0179 84020000 		.4byte	0x284
 2965 017d 00       		.byte	0
 2966 017e 0C       		.uleb128 0xc
 2967 017f E9010000 		.4byte	.LASF30
 2968 0183 0A       		.byte	0xa
 2969 0184 C5       		.byte	0xc5
 2970 0185 84020000 		.4byte	0x284
 2971 0189 04       		.byte	0x4
 2972 018a 0C       		.uleb128 0xc
 2973 018b FD030000 		.4byte	.LASF31
 2974 018f 0A       		.byte	0xa
 2975 0190 C7       		.byte	0xc7
 2976 0191 19010000 		.4byte	0x119
 2977 0195 08       		.byte	0x8
 2978 0196 0C       		.uleb128 0xc
 2979 0197 3D000000 		.4byte	.LASF32
 2980 019b 0A       		.byte	0xa
 2981 019c C8       		.byte	0xc8
 2982 019d 04050000 		.4byte	0x504
 2983 01a1 0C       		.byte	0xc
 2984 01a2 0C       		.uleb128 0xc
 2985 01a3 B7010000 		.4byte	.LASF33
 2986 01a7 0A       		.byte	0xa
 2987 01a8 CA       		.byte	0xca
 2988 01a9 84020000 		.4byte	0x284
 2989 01ad 10       		.byte	0x10
 2990 01ae 0C       		.uleb128 0xc
 2991 01af 280B0000 		.4byte	.LASF34
 2992 01b3 0A       		.byte	0xa
 2993 01b4 CB       		.byte	0xcb
 2994 01b5 84020000 		.4byte	0x284
 2995 01b9 14       		.byte	0x14
 2996 01ba 0C       		.uleb128 0xc
 2997 01bb 330F0000 		.4byte	.LASF35
 2998 01bf 0A       		.byte	0xa
 2999 01c0 D2       		.byte	0xd2
 3000 01c1 86000000 		.4byte	0x86
 3001 01c5 18       		.byte	0x18
 3002 01c6 0C       		.uleb128 0xc
 3003 01c7 DF0E0000 		.4byte	.LASF36
 3004 01cb 0A       		.byte	0xa
 3005 01cc D8       		.byte	0xd8
 3006 01cd A8070000 		.4byte	0x7a8
 3007 01d1 1C       		.byte	0x1c
 3008 01d2 0C       		.uleb128 0xc
ARM GAS  C:\Users\Luis\AppData\Local\Temp\ccB0PfuY.s 			page 55


 3009 01d3 7F0F0000 		.4byte	.LASF37
 3010 01d7 0A       		.byte	0xa
 3011 01d8 DD       		.byte	0xdd
 3012 01d9 03010000 		.4byte	0x103
 3013 01dd 20       		.byte	0x20
 3014 01de 0C       		.uleb128 0xc
 3015 01df 72080000 		.4byte	.LASF38
 3016 01e3 0A       		.byte	0xa
 3017 01e4 E1       		.byte	0xe1
 3018 01e5 F8000000 		.4byte	0xf8
 3019 01e9 21       		.byte	0x21
 3020 01ea 0C       		.uleb128 0xc
 3021 01eb D5080000 		.4byte	.LASF39
 3022 01ef 0A       		.byte	0xa
 3023 01f0 E6       		.byte	0xe6
 3024 01f1 0E010000 		.4byte	0x10e
 3025 01f5 22       		.byte	0x22
 3026 01f6 0D       		.uleb128 0xd
 3027 01f7 705F7500 		.ascii	"p_u\000"
 3028 01fb 0A       		.byte	0xa
 3029 01fc 3101     		.2byte	0x131
 3030 01fe E3060000 		.4byte	0x6e3
 3031 0202 24       		.byte	0x24
 3032 0203 0E       		.uleb128 0xe
 3033 0204 5E080000 		.4byte	.LASF40
 3034 0208 0A       		.byte	0xa
 3035 0209 3601     		.2byte	0x136
 3036 020b 8A020000 		.4byte	0x28a
 3037 020f 28       		.byte	0x28
 3038 0210 0E       		.uleb128 0xe
 3039 0211 4B000000 		.4byte	.LASF41
 3040 0215 0A       		.byte	0xa
 3041 0216 3C01     		.2byte	0x13c
 3042 0218 AE020000 		.4byte	0x2ae
 3043 021c 2C       		.byte	0x2c
 3044 021d 0E       		.uleb128 0xe
 3045 021e 790F0000 		.4byte	.LASF42
 3046 0222 0A       		.byte	0xa
 3047 0223 4001     		.2byte	0x140
 3048 0225 24010000 		.4byte	0x124
 3049 0229 34       		.byte	0x34
 3050 022a 0E       		.uleb128 0xe
 3051 022b 58050000 		.4byte	.LASF43
 3052 022f 0A       		.byte	0xa
 3053 0230 4601     		.2byte	0x146
 3054 0232 2F010000 		.4byte	0x12f
 3055 0236 38       		.byte	0x38
 3056 0237 0E       		.uleb128 0xe
 3057 0238 23020000 		.4byte	.LASF44
 3058 023c 0A       		.byte	0xa
 3059 023d 4D01     		.2byte	0x14d
 3060 023f A2070000 		.4byte	0x7a2
 3061 0243 3C       		.byte	0x3c
 3062 0244 0E       		.uleb128 0xe
 3063 0245 A6050000 		.4byte	.LASF45
 3064 0249 0A       		.byte	0xa
 3065 024a 5101     		.2byte	0x151
ARM GAS  C:\Users\Luis\AppData\Local\Temp\ccB0PfuY.s 			page 56


 3066 024c 19010000 		.4byte	0x119
 3067 0250 40       		.byte	0x40
 3068 0251 0E       		.uleb128 0xe
 3069 0252 C1080000 		.4byte	.LASF46
 3070 0256 0A       		.byte	0xa
 3071 0257 5801     		.2byte	0x158
 3072 0259 76000000 		.4byte	0x76
 3073 025d 44       		.byte	0x44
 3074 025e 0E       		.uleb128 0xe
 3075 025f 00000000 		.4byte	.LASF47
 3076 0263 0A       		.byte	0xa
 3077 0264 5E01     		.2byte	0x15e
 3078 0266 94060000 		.4byte	0x694
 3079 026a 48       		.byte	0x48
 3080 026b 0E       		.uleb128 0xe
 3081 026c FE000000 		.4byte	.LASF48
 3082 0270 0A       		.byte	0xa
 3083 0271 6201     		.2byte	0x162
 3084 0273 76000000 		.4byte	0x76
 3085 0277 60       		.byte	0x60
 3086 0278 00       		.byte	0
 3087 0279 03       		.uleb128 0x3
 3088 027a 200A0000 		.4byte	.LASF49
 3089 027e 09       		.byte	0x9
 3090 027f 44       		.byte	0x44
 3091 0280 84020000 		.4byte	0x284
 3092 0284 06       		.uleb128 0x6
 3093 0285 04       		.byte	0x4
 3094 0286 5B010000 		.4byte	0x15b
 3095 028a 03       		.uleb128 0x3
 3096 028b FE0D0000 		.4byte	.LASF50
 3097 028f 09       		.byte	0x9
 3098 0290 49       		.byte	0x49
 3099 0291 95020000 		.4byte	0x295
 3100 0295 0B       		.uleb128 0xb
 3101 0296 25070000 		.4byte	.LASF52
 3102 029a 04       		.byte	0x4
 3103 029b 0A       		.byte	0xa
 3104 029c B0       		.byte	0xb0
 3105 029d AE020000 		.4byte	0x2ae
 3106 02a1 0C       		.uleb128 0xc
 3107 02a2 C8010000 		.4byte	.LASF29
 3108 02a6 0A       		.byte	0xa
 3109 02a7 B1       		.byte	0xb1
 3110 02a8 84020000 		.4byte	0x284
 3111 02ac 00       		.byte	0
 3112 02ad 00       		.byte	0
 3113 02ae 03       		.uleb128 0x3
 3114 02af 13020000 		.4byte	.LASF53
 3115 02b3 09       		.byte	0x9
 3116 02b4 50       		.byte	0x50
 3117 02b5 B9020000 		.4byte	0x2b9
 3118 02b9 0B       		.uleb128 0xb
 3119 02ba 510B0000 		.4byte	.LASF54
 3120 02be 08       		.byte	0x8
 3121 02bf 0A       		.byte	0xa
 3122 02c0 B7       		.byte	0xb7
ARM GAS  C:\Users\Luis\AppData\Local\Temp\ccB0PfuY.s 			page 57


 3123 02c1 DE020000 		.4byte	0x2de
 3124 02c5 0C       		.uleb128 0xc
 3125 02c6 C8010000 		.4byte	.LASF29
 3126 02ca 0A       		.byte	0xa
 3127 02cb B8       		.byte	0xb8
 3128 02cc 84020000 		.4byte	0x284
 3129 02d0 00       		.byte	0
 3130 02d1 0C       		.uleb128 0xc
 3131 02d2 E9010000 		.4byte	.LASF30
 3132 02d6 0A       		.byte	0xa
 3133 02d7 B9       		.byte	0xb9
 3134 02d8 84020000 		.4byte	0x284
 3135 02dc 04       		.byte	0x4
 3136 02dd 00       		.byte	0
 3137 02de 03       		.uleb128 0x3
 3138 02df F1060000 		.4byte	.LASF55
 3139 02e3 09       		.byte	0x9
 3140 02e4 57       		.byte	0x57
 3141 02e5 E9020000 		.4byte	0x2e9
 3142 02e9 0F       		.uleb128 0xf
 3143 02ea 75050000 		.4byte	.LASF56
 3144 02ee 1C       		.byte	0x1c
 3145 02ef 0A       		.byte	0xa
 3146 02f0 9001     		.2byte	0x190
 3147 02f2 45030000 		.4byte	0x345
 3148 02f6 0E       		.uleb128 0xe
 3149 02f7 0A0C0000 		.4byte	.LASF57
 3150 02fb 0A       		.byte	0xa
 3151 02fc 9101     		.2byte	0x191
 3152 02fe AE020000 		.4byte	0x2ae
 3153 0302 00       		.byte	0
 3154 0303 0E       		.uleb128 0xe
 3155 0304 530D0000 		.4byte	.LASF58
 3156 0308 0A       		.byte	0xa
 3157 0309 9201     		.2byte	0x192
 3158 030b 19010000 		.4byte	0x119
 3159 030f 08       		.byte	0x8
 3160 0310 0E       		.uleb128 0xe
 3161 0311 56000000 		.4byte	.LASF59
 3162 0315 0A       		.byte	0xa
 3163 0316 9401     		.2byte	0x194
 3164 0318 04050000 		.4byte	0x504
 3165 031c 0C       		.byte	0xc
 3166 031d 0E       		.uleb128 0xe
 3167 031e 72030000 		.4byte	.LASF60
 3168 0322 0A       		.byte	0xa
 3169 0323 9701     		.2byte	0x197
 3170 0325 84020000 		.4byte	0x284
 3171 0329 10       		.byte	0x10
 3172 032a 0E       		.uleb128 0xe
 3173 032b 8E0C0000 		.4byte	.LASF61
 3174 032f 0A       		.byte	0xa
 3175 0330 9801     		.2byte	0x198
 3176 0332 84020000 		.4byte	0x284
 3177 0336 14       		.byte	0x14
 3178 0337 0E       		.uleb128 0xe
 3179 0338 860B0000 		.4byte	.LASF62
ARM GAS  C:\Users\Luis\AppData\Local\Temp\ccB0PfuY.s 			page 58


 3180 033c 0A       		.byte	0xa
 3181 033d 9B01     		.2byte	0x19b
 3182 033f 84020000 		.4byte	0x284
 3183 0343 18       		.byte	0x18
 3184 0344 00       		.byte	0
 3185 0345 03       		.uleb128 0x3
 3186 0346 72000000 		.4byte	.LASF63
 3187 034a 09       		.byte	0x9
 3188 034b 5C       		.byte	0x5c
 3189 034c 50030000 		.4byte	0x350
 3190 0350 06       		.uleb128 0x6
 3191 0351 04       		.byte	0x4
 3192 0352 56030000 		.4byte	0x356
 3193 0356 10       		.uleb128 0x10
 3194 0357 61030000 		.4byte	0x361
 3195 035b 11       		.uleb128 0x11
 3196 035c 76000000 		.4byte	0x76
 3197 0360 00       		.byte	0
 3198 0361 03       		.uleb128 0x3
 3199 0362 E1060000 		.4byte	.LASF64
 3200 0366 09       		.byte	0x9
 3201 0367 61       		.byte	0x61
 3202 0368 6C030000 		.4byte	0x36c
 3203 036c 0F       		.uleb128 0xf
 3204 036d BF0A0000 		.4byte	.LASF65
 3205 0371 14       		.byte	0x14
 3206 0372 0A       		.byte	0xa
 3207 0373 6B01     		.2byte	0x16b
 3208 0375 BB030000 		.4byte	0x3bb
 3209 0379 0E       		.uleb128 0xe
 3210 037a EE070000 		.4byte	.LASF66
 3211 037e 0A       		.byte	0xa
 3212 037f 6C01     		.2byte	0x16c
 3213 0381 AE070000 		.4byte	0x7ae
 3214 0385 00       		.byte	0
 3215 0386 0E       		.uleb128 0xe
 3216 0387 FE070000 		.4byte	.LASF67
 3217 038b 0A       		.byte	0xa
 3218 038c 6D01     		.2byte	0x16d
 3219 038e AE070000 		.4byte	0x7ae
 3220 0392 04       		.byte	0x4
 3221 0393 0E       		.uleb128 0xe
 3222 0394 AB0A0000 		.4byte	.LASF68
 3223 0398 0A       		.byte	0xa
 3224 0399 6E01     		.2byte	0x16e
 3225 039b 50010000 		.4byte	0x150
 3226 039f 08       		.byte	0x8
 3227 03a0 0E       		.uleb128 0xe
 3228 03a1 06050000 		.4byte	.LASF69
 3229 03a5 0A       		.byte	0xa
 3230 03a6 6F01     		.2byte	0x16f
 3231 03a8 45030000 		.4byte	0x345
 3232 03ac 0C       		.byte	0xc
 3233 03ad 0E       		.uleb128 0xe
 3234 03ae 66010000 		.4byte	.LASF70
 3235 03b2 0A       		.byte	0xa
 3236 03b3 7101     		.2byte	0x171
ARM GAS  C:\Users\Luis\AppData\Local\Temp\ccB0PfuY.s 			page 59


 3237 03b5 76000000 		.4byte	0x76
 3238 03b9 10       		.byte	0x10
 3239 03ba 00       		.byte	0
 3240 03bb 03       		.uleb128 0x3
 3241 03bc AA060000 		.4byte	.LASF71
 3242 03c0 09       		.byte	0x9
 3243 03c1 66       		.byte	0x66
 3244 03c2 C6030000 		.4byte	0x3c6
 3245 03c6 0F       		.uleb128 0xf
 3246 03c7 82000000 		.4byte	.LASF72
 3247 03cb 10       		.byte	0x10
 3248 03cc 0A       		.byte	0xa
 3249 03cd 7B01     		.2byte	0x17b
 3250 03cf 08040000 		.4byte	0x408
 3251 03d3 0E       		.uleb128 0xe
 3252 03d4 EE070000 		.4byte	.LASF66
 3253 03d8 0A       		.byte	0xa
 3254 03d9 7C01     		.2byte	0x17c
 3255 03db AE070000 		.4byte	0x7ae
 3256 03df 00       		.byte	0
 3257 03e0 0E       		.uleb128 0xe
 3258 03e1 FE070000 		.4byte	.LASF67
 3259 03e5 0A       		.byte	0xa
 3260 03e6 7E01     		.2byte	0x17e
 3261 03e8 AE070000 		.4byte	0x7ae
 3262 03ec 04       		.byte	0x4
 3263 03ed 0E       		.uleb128 0xe
 3264 03ee AB0A0000 		.4byte	.LASF68
 3265 03f2 0A       		.byte	0xa
 3266 03f3 8001     		.2byte	0x180
 3267 03f5 50010000 		.4byte	0x150
 3268 03f9 08       		.byte	0x8
 3269 03fa 0E       		.uleb128 0xe
 3270 03fb 660E0000 		.4byte	.LASF73
 3271 03ff 0A       		.byte	0xa
 3272 0400 8801     		.2byte	0x188
 3273 0402 50010000 		.4byte	0x150
 3274 0406 0C       		.byte	0xc
 3275 0407 00       		.byte	0
 3276 0408 03       		.uleb128 0x3
 3277 0409 89030000 		.4byte	.LASF74
 3278 040d 09       		.byte	0x9
 3279 040e 6B       		.byte	0x6b
 3280 040f 13040000 		.4byte	0x413
 3281 0413 12       		.uleb128 0x12
 3282 0414 5A0D0000 		.4byte	.LASF75
 3283 0418 1404     		.2byte	0x414
 3284 041a 0A       		.byte	0xa
 3285 041b A201     		.2byte	0x1a2
 3286 041d 56040000 		.4byte	0x456
 3287 0421 0E       		.uleb128 0xe
 3288 0422 56030000 		.4byte	.LASF76
 3289 0426 0A       		.byte	0xa
 3290 0427 AA01     		.2byte	0x1aa
 3291 0429 B4070000 		.4byte	0x7b4
 3292 042d 00       		.byte	0
 3293 042e 0E       		.uleb128 0xe
ARM GAS  C:\Users\Luis\AppData\Local\Temp\ccB0PfuY.s 			page 60


 3294 042f 56010000 		.4byte	.LASF77
 3295 0433 0A       		.byte	0xa
 3296 0434 AF01     		.2byte	0x1af
 3297 0436 3A010000 		.4byte	0x13a
 3298 043a 04       		.byte	0x4
 3299 043b 0E       		.uleb128 0xe
 3300 043c F5000000 		.4byte	.LASF78
 3301 0440 0A       		.byte	0xa
 3302 0441 B301     		.2byte	0x1b3
 3303 0443 3A010000 		.4byte	0x13a
 3304 0447 08       		.byte	0x8
 3305 0448 0E       		.uleb128 0xe
 3306 0449 65030000 		.4byte	.LASF79
 3307 044d 0A       		.byte	0xa
 3308 044e B901     		.2byte	0x1b9
 3309 0450 26060000 		.4byte	0x626
 3310 0454 0C       		.byte	0xc
 3311 0455 00       		.byte	0
 3312 0456 03       		.uleb128 0x3
 3313 0457 9C0E0000 		.4byte	.LASF80
 3314 045b 09       		.byte	0x9
 3315 045c 70       		.byte	0x70
 3316 045d 61040000 		.4byte	0x461
 3317 0461 12       		.uleb128 0x12
 3318 0462 250E0000 		.4byte	.LASF81
 3319 0466 E805     		.2byte	0x5e8
 3320 0468 0A       		.byte	0xa
 3321 0469 C201     		.2byte	0x1c2
 3322 046b CE040000 		.4byte	0x4ce
 3323 046f 0E       		.uleb128 0xe
 3324 0470 5B0C0000 		.4byte	.LASF82
 3325 0474 0A       		.byte	0xa
 3326 0475 C601     		.2byte	0x1c6
 3327 0477 DE020000 		.4byte	0x2de
 3328 047b 00       		.byte	0
 3329 047c 0E       		.uleb128 0xe
 3330 047d D60D0000 		.4byte	.LASF83
 3331 0481 0A       		.byte	0xa
 3332 0482 CA01     		.2byte	0x1ca
 3333 0484 BB030000 		.4byte	0x3bb
 3334 0488 1C       		.byte	0x1c
 3335 0489 0D       		.uleb128 0xd
 3336 048a 64626700 		.ascii	"dbg\000"
 3337 048e 0A       		.byte	0xa
 3338 048f CE01     		.2byte	0x1ce
 3339 0491 08040000 		.4byte	0x408
 3340 0495 2C       		.byte	0x2c
 3341 0496 13       		.uleb128 0x13
 3342 0497 AF0B0000 		.4byte	.LASF84
 3343 049b 0A       		.byte	0xa
 3344 049c D201     		.2byte	0x1d2
 3345 049e 5B010000 		.4byte	0x15b
 3346 04a2 4004     		.2byte	0x440
 3347 04a4 14       		.uleb128 0x14
 3348 04a5 746D00   		.ascii	"tm\000"
 3349 04a8 0A       		.byte	0xa
 3350 04a9 D701     		.2byte	0x1d7
ARM GAS  C:\Users\Luis\AppData\Local\Temp\ccB0PfuY.s 			page 61


 3351 04ab 46060000 		.4byte	0x646
 3352 04af A804     		.2byte	0x4a8
 3353 04b1 13       		.uleb128 0x13
 3354 04b2 EA0A0000 		.4byte	.LASF85
 3355 04b6 0A       		.byte	0xa
 3356 04b7 DD01     		.2byte	0x1dd
 3357 04b9 D8060000 		.4byte	0x6d8
 3358 04bd B004     		.2byte	0x4b0
 3359 04bf 13       		.uleb128 0x13
 3360 04c0 83080000 		.4byte	.LASF86
 3361 04c4 0A       		.byte	0xa
 3362 04c5 E301     		.2byte	0x1e3
 3363 04c7 B9070000 		.4byte	0x7b9
 3364 04cb E804     		.2byte	0x4e8
 3365 04cd 00       		.byte	0
 3366 04ce 08       		.uleb128 0x8
 3367 04cf C2000000 		.4byte	0xc2
 3368 04d3 DE040000 		.4byte	0x4de
 3369 04d7 09       		.uleb128 0x9
 3370 04d8 6F000000 		.4byte	0x6f
 3371 04dc 0E       		.byte	0xe
 3372 04dd 00       		.byte	0
 3373 04de 08       		.uleb128 0x8
 3374 04df C2000000 		.4byte	0xc2
 3375 04e3 EE040000 		.4byte	0x4ee
 3376 04e7 09       		.uleb128 0x9
 3377 04e8 6F000000 		.4byte	0x6f
 3378 04ec 2F       		.byte	0x2f
 3379 04ed 00       		.byte	0
 3380 04ee 03       		.uleb128 0x3
 3381 04ef 33020000 		.4byte	.LASF87
 3382 04f3 0B       		.byte	0xb
 3383 04f4 65       		.byte	0x65
 3384 04f5 76000000 		.4byte	0x76
 3385 04f9 03       		.uleb128 0x3
 3386 04fa 41040000 		.4byte	.LASF88
 3387 04fe 0B       		.byte	0xb
 3388 04ff 6D       		.byte	0x6d
 3389 0500 CD000000 		.4byte	0xcd
 3390 0504 0B       		.uleb128 0xb
 3391 0505 00030000 		.4byte	.LASF89
 3392 0509 04       		.byte	0x4
 3393 050a 0B       		.byte	0xb
 3394 050b 89       		.byte	0x89
 3395 050c 1D050000 		.4byte	0x51d
 3396 0510 15       		.uleb128 0x15
 3397 0511 72313300 		.ascii	"r13\000"
 3398 0515 0B       		.byte	0xb
 3399 0516 8A       		.byte	0x8a
 3400 0517 98050000 		.4byte	0x598
 3401 051b 00       		.byte	0
 3402 051c 00       		.byte	0
 3403 051d 0B       		.uleb128 0xb
 3404 051e 800A0000 		.4byte	.LASF90
 3405 0522 24       		.byte	0x24
 3406 0523 01       		.byte	0x1
 3407 0524 F4       		.byte	0xf4
ARM GAS  C:\Users\Luis\AppData\Local\Temp\ccB0PfuY.s 			page 62


 3408 0525 98050000 		.4byte	0x598
 3409 0529 0D       		.uleb128 0xd
 3410 052a 723400   		.ascii	"r4\000"
 3411 052d 01       		.byte	0x1
 3412 052e 0701     		.2byte	0x107
 3413 0530 EE040000 		.4byte	0x4ee
 3414 0534 00       		.byte	0
 3415 0535 0D       		.uleb128 0xd
 3416 0536 723500   		.ascii	"r5\000"
 3417 0539 01       		.byte	0x1
 3418 053a 0801     		.2byte	0x108
 3419 053c EE040000 		.4byte	0x4ee
 3420 0540 04       		.byte	0x4
 3421 0541 0D       		.uleb128 0xd
 3422 0542 723600   		.ascii	"r6\000"
 3423 0545 01       		.byte	0x1
 3424 0546 0901     		.2byte	0x109
 3425 0548 EE040000 		.4byte	0x4ee
 3426 054c 08       		.byte	0x8
 3427 054d 0D       		.uleb128 0xd
 3428 054e 723700   		.ascii	"r7\000"
 3429 0551 01       		.byte	0x1
 3430 0552 0A01     		.2byte	0x10a
 3431 0554 EE040000 		.4byte	0x4ee
 3432 0558 0C       		.byte	0xc
 3433 0559 0D       		.uleb128 0xd
 3434 055a 723800   		.ascii	"r8\000"
 3435 055d 01       		.byte	0x1
 3436 055e 0B01     		.2byte	0x10b
 3437 0560 EE040000 		.4byte	0x4ee
 3438 0564 10       		.byte	0x10
 3439 0565 0D       		.uleb128 0xd
 3440 0566 723900   		.ascii	"r9\000"
 3441 0569 01       		.byte	0x1
 3442 056a 0C01     		.2byte	0x10c
 3443 056c EE040000 		.4byte	0x4ee
 3444 0570 14       		.byte	0x14
 3445 0571 0D       		.uleb128 0xd
 3446 0572 72313000 		.ascii	"r10\000"
 3447 0576 01       		.byte	0x1
 3448 0577 0D01     		.2byte	0x10d
 3449 0579 EE040000 		.4byte	0x4ee
 3450 057d 18       		.byte	0x18
 3451 057e 0D       		.uleb128 0xd
 3452 057f 72313100 		.ascii	"r11\000"
 3453 0583 01       		.byte	0x1
 3454 0584 0E01     		.2byte	0x10e
 3455 0586 EE040000 		.4byte	0x4ee
 3456 058a 1C       		.byte	0x1c
 3457 058b 0D       		.uleb128 0xd
 3458 058c 6C7200   		.ascii	"lr\000"
 3459 058f 01       		.byte	0x1
 3460 0590 0F01     		.2byte	0x10f
 3461 0592 EE040000 		.4byte	0x4ee
 3462 0596 20       		.byte	0x20
 3463 0597 00       		.byte	0
 3464 0598 06       		.uleb128 0x6
ARM GAS  C:\Users\Luis\AppData\Local\Temp\ccB0PfuY.s 			page 63


 3465 0599 04       		.byte	0x4
 3466 059a 1D050000 		.4byte	0x51d
 3467 059e 16       		.uleb128 0x16
 3468 059f 10       		.byte	0x10
 3469 05a0 0C       		.byte	0xc
 3470 05a1 51       		.byte	0x51
 3471 05a2 D7050000 		.4byte	0x5d7
 3472 05a6 0C       		.uleb128 0xc
 3473 05a7 2B0F0000 		.4byte	.LASF91
 3474 05ab 0C       		.byte	0xc
 3475 05ac 55       		.byte	0x55
 3476 05ad 50010000 		.4byte	0x150
 3477 05b1 00       		.byte	0
 3478 05b2 0C       		.uleb128 0xc
 3479 05b3 10010000 		.4byte	.LASF92
 3480 05b7 0C       		.byte	0xc
 3481 05b8 59       		.byte	0x59
 3482 05b9 84020000 		.4byte	0x284
 3483 05bd 04       		.byte	0x4
 3484 05be 0C       		.uleb128 0xc
 3485 05bf 68080000 		.4byte	.LASF93
 3486 05c3 0C       		.byte	0xc
 3487 05c4 5D       		.byte	0x5d
 3488 05c5 76000000 		.4byte	0x76
 3489 05c9 08       		.byte	0x8
 3490 05ca 0C       		.uleb128 0xc
 3491 05cb F5050000 		.4byte	.LASF94
 3492 05cf 0C       		.byte	0xc
 3493 05d0 61       		.byte	0x61
 3494 05d1 A1000000 		.4byte	0xa1
 3495 05d5 0C       		.byte	0xc
 3496 05d6 00       		.byte	0
 3497 05d7 03       		.uleb128 0x3
 3498 05d8 35070000 		.4byte	.LASF95
 3499 05dc 0C       		.byte	0xc
 3500 05dd 62       		.byte	0x62
 3501 05de 9E050000 		.4byte	0x59e
 3502 05e2 17       		.uleb128 0x17
 3503 05e3 0804     		.2byte	0x408
 3504 05e5 0C       		.byte	0xc
 3505 05e6 67       		.byte	0x67
 3506 05e7 10060000 		.4byte	0x610
 3507 05eb 0C       		.uleb128 0xc
 3508 05ec 0F080000 		.4byte	.LASF96
 3509 05f0 0C       		.byte	0xc
 3510 05f1 6B       		.byte	0x6b
 3511 05f2 37000000 		.4byte	0x37
 3512 05f6 00       		.byte	0
 3513 05f7 0C       		.uleb128 0xc
 3514 05f8 410F0000 		.4byte	.LASF97
 3515 05fc 0C       		.byte	0xc
 3516 05fd 6F       		.byte	0x6f
 3517 05fe 10060000 		.4byte	0x610
 3518 0602 04       		.byte	0x4
 3519 0603 0C       		.uleb128 0xc
 3520 0604 E7090000 		.4byte	.LASF98
 3521 0608 0C       		.byte	0xc
ARM GAS  C:\Users\Luis\AppData\Local\Temp\ccB0PfuY.s 			page 64


 3522 0609 73       		.byte	0x73
 3523 060a 16060000 		.4byte	0x616
 3524 060e 08       		.byte	0x8
 3525 060f 00       		.byte	0
 3526 0610 06       		.uleb128 0x6
 3527 0611 04       		.byte	0x4
 3528 0612 D7050000 		.4byte	0x5d7
 3529 0616 08       		.uleb128 0x8
 3530 0617 D7050000 		.4byte	0x5d7
 3531 061b 26060000 		.4byte	0x626
 3532 061f 09       		.uleb128 0x9
 3533 0620 6F000000 		.4byte	0x6f
 3534 0624 3F       		.byte	0x3f
 3535 0625 00       		.byte	0
 3536 0626 03       		.uleb128 0x3
 3537 0627 46050000 		.4byte	.LASF99
 3538 062b 0C       		.byte	0xc
 3539 062c 74       		.byte	0x74
 3540 062d E2050000 		.4byte	0x5e2
 3541 0631 16       		.uleb128 0x16
 3542 0632 04       		.byte	0x4
 3543 0633 0D       		.byte	0xd
 3544 0634 38       		.byte	0x38
 3545 0635 46060000 		.4byte	0x646
 3546 0639 0C       		.uleb128 0xc
 3547 063a D7090000 		.4byte	.LASF100
 3548 063e 0D       		.byte	0xd
 3549 063f 3C       		.byte	0x3c
 3550 0640 E2000000 		.4byte	0xe2
 3551 0644 00       		.byte	0
 3552 0645 00       		.byte	0
 3553 0646 03       		.uleb128 0x3
 3554 0647 960C0000 		.4byte	.LASF101
 3555 064b 0D       		.byte	0xd
 3556 064c 3D       		.byte	0x3d
 3557 064d 31060000 		.4byte	0x631
 3558 0651 16       		.uleb128 0x16
 3559 0652 18       		.byte	0x18
 3560 0653 0D       		.byte	0xd
 3561 0654 48       		.byte	0x48
 3562 0655 94060000 		.4byte	0x694
 3563 0659 0C       		.uleb128 0xc
 3564 065a F90B0000 		.4byte	.LASF102
 3565 065e 0D       		.byte	0xd
 3566 065f 49       		.byte	0x49
 3567 0660 E2000000 		.4byte	0xe2
 3568 0664 00       		.byte	0
 3569 0665 0C       		.uleb128 0xc
 3570 0666 A8040000 		.4byte	.LASF103
 3571 066a 0D       		.byte	0xd
 3572 066b 4A       		.byte	0x4a
 3573 066c E2000000 		.4byte	0xe2
 3574 0670 04       		.byte	0x4
 3575 0671 0C       		.uleb128 0xc
 3576 0672 740F0000 		.4byte	.LASF104
 3577 0676 0D       		.byte	0xd
 3578 0677 4B       		.byte	0x4b
ARM GAS  C:\Users\Luis\AppData\Local\Temp\ccB0PfuY.s 			page 65


 3579 0678 E2000000 		.4byte	0xe2
 3580 067c 08       		.byte	0x8
 3581 067d 15       		.uleb128 0x15
 3582 067e 6E00     		.ascii	"n\000"
 3583 0680 0D       		.byte	0xd
 3584 0681 4C       		.byte	0x4c
 3585 0682 45010000 		.4byte	0x145
 3586 0686 0C       		.byte	0xc
 3587 0687 0C       		.uleb128 0xc
 3588 0688 95020000 		.4byte	.LASF105
 3589 068c 0D       		.byte	0xd
 3590 068d 4D       		.byte	0x4d
 3591 068e ED000000 		.4byte	0xed
 3592 0692 10       		.byte	0x10
 3593 0693 00       		.byte	0
 3594 0694 03       		.uleb128 0x3
 3595 0695 16010000 		.4byte	.LASF106
 3596 0699 0D       		.byte	0xd
 3597 069a 4E       		.byte	0x4e
 3598 069b 51060000 		.4byte	0x651
 3599 069f 16       		.uleb128 0x16
 3600 06a0 38       		.byte	0x38
 3601 06a1 0E       		.byte	0xe
 3602 06a2 38       		.byte	0x38
 3603 06a3 D8060000 		.4byte	0x6d8
 3604 06a7 0C       		.uleb128 0xc
 3605 06a8 44070000 		.4byte	.LASF107
 3606 06ac 0E       		.byte	0xe
 3607 06ad 39       		.byte	0x39
 3608 06ae 45010000 		.4byte	0x145
 3609 06b2 00       		.byte	0
 3610 06b3 0C       		.uleb128 0xc
 3611 06b4 1F040000 		.4byte	.LASF108
 3612 06b8 0E       		.byte	0xe
 3613 06b9 3A       		.byte	0x3a
 3614 06ba 45010000 		.4byte	0x145
 3615 06be 04       		.byte	0x4
 3616 06bf 0C       		.uleb128 0xc
 3617 06c0 07060000 		.4byte	.LASF109
 3618 06c4 0E       		.byte	0xe
 3619 06c5 3B       		.byte	0x3b
 3620 06c6 94060000 		.4byte	0x694
 3621 06ca 08       		.byte	0x8
 3622 06cb 0C       		.uleb128 0xc
 3623 06cc E0050000 		.4byte	.LASF110
 3624 06d0 0E       		.byte	0xe
 3625 06d1 3D       		.byte	0x3d
 3626 06d2 94060000 		.4byte	0x694
 3627 06d6 20       		.byte	0x20
 3628 06d7 00       		.byte	0
 3629 06d8 03       		.uleb128 0x3
 3630 06d9 E6080000 		.4byte	.LASF111
 3631 06dd 0E       		.byte	0xe
 3632 06de 3F       		.byte	0x3f
 3633 06df 9F060000 		.4byte	0x69f
 3634 06e3 18       		.uleb128 0x18
 3635 06e4 04       		.byte	0x4
ARM GAS  C:\Users\Luis\AppData\Local\Temp\ccB0PfuY.s 			page 66


 3636 06e5 0A       		.byte	0xa
 3637 06e6 FA       		.byte	0xfa
 3638 06e7 40070000 		.4byte	0x740
 3639 06eb 19       		.uleb128 0x19
 3640 06ec 5F0E0000 		.4byte	.LASF112
 3641 06f0 0A       		.byte	0xa
 3642 06f1 0101     		.2byte	0x101
 3643 06f3 24010000 		.4byte	0x124
 3644 06f7 19       		.uleb128 0x19
 3645 06f8 6D010000 		.4byte	.LASF113
 3646 06fc 0A       		.byte	0xa
 3647 06fd 0801     		.2byte	0x108
 3648 06ff 24010000 		.4byte	0x124
 3649 0703 19       		.uleb128 0x19
 3650 0704 18040000 		.4byte	.LASF114
 3651 0708 0A       		.byte	0xa
 3652 0709 0F01     		.2byte	0x10f
 3653 070b 76000000 		.4byte	0x76
 3654 070f 19       		.uleb128 0x19
 3655 0710 0F030000 		.4byte	.LASF115
 3656 0714 0A       		.byte	0xa
 3657 0715 1601     		.2byte	0x116
 3658 0717 40070000 		.4byte	0x740
 3659 071b 19       		.uleb128 0x19
 3660 071c 18000000 		.4byte	.LASF116
 3661 0720 0A       		.byte	0xa
 3662 0721 1E01     		.2byte	0x11e
 3663 0723 6B070000 		.4byte	0x76b
 3664 0727 19       		.uleb128 0x19
 3665 0728 63050000 		.4byte	.LASF117
 3666 072c 0A       		.byte	0xa
 3667 072d 2701     		.2byte	0x127
 3668 072f A2070000 		.4byte	0x7a2
 3669 0733 19       		.uleb128 0x19
 3670 0734 AC020000 		.4byte	.LASF118
 3671 0738 0A       		.byte	0xa
 3672 0739 2F01     		.2byte	0x12f
 3673 073b 2F010000 		.4byte	0x12f
 3674 073f 00       		.byte	0
 3675 0740 06       		.uleb128 0x6
 3676 0741 04       		.byte	0x4
 3677 0742 79020000 		.4byte	0x279
 3678 0746 0B       		.uleb128 0xb
 3679 0747 82060000 		.4byte	.LASF119
 3680 074b 0C       		.byte	0xc
 3681 074c 0F       		.byte	0xf
 3682 074d 34       		.byte	0x34
 3683 074e 6B070000 		.4byte	0x76b
 3684 0752 0C       		.uleb128 0xc
 3685 0753 C30C0000 		.4byte	.LASF120
 3686 0757 0F       		.byte	0xf
 3687 0758 35       		.byte	0x35
 3688 0759 AE020000 		.4byte	0x2ae
 3689 075d 00       		.byte	0
 3690 075e 0C       		.uleb128 0xc
 3691 075f D00A0000 		.4byte	.LASF121
 3692 0763 0F       		.byte	0xf
ARM GAS  C:\Users\Luis\AppData\Local\Temp\ccB0PfuY.s 			page 67


 3693 0764 37       		.byte	0x37
 3694 0765 3A010000 		.4byte	0x13a
 3695 0769 08       		.byte	0x8
 3696 076a 00       		.byte	0
 3697 076b 06       		.uleb128 0x6
 3698 076c 04       		.byte	0x4
 3699 076d 46070000 		.4byte	0x746
 3700 0771 0B       		.uleb128 0xb
 3701 0772 0A0D0000 		.4byte	.LASF122
 3702 0776 10       		.byte	0x10
 3703 0777 10       		.byte	0x10
 3704 0778 39       		.byte	0x39
 3705 0779 A2070000 		.4byte	0x7a2
 3706 077d 0C       		.uleb128 0xc
 3707 077e CA070000 		.4byte	.LASF123
 3708 0782 10       		.byte	0x10
 3709 0783 3A       		.byte	0x3a
 3710 0784 AE020000 		.4byte	0x2ae
 3711 0788 00       		.byte	0
 3712 0789 0C       		.uleb128 0xc
 3713 078a 5E010000 		.4byte	.LASF124
 3714 078e 10       		.byte	0x10
 3715 078f 3C       		.byte	0x3c
 3716 0790 84020000 		.4byte	0x284
 3717 0794 08       		.byte	0x8
 3718 0795 0C       		.uleb128 0xc
 3719 0796 3A0F0000 		.4byte	.LASF125
 3720 079a 10       		.byte	0x10
 3721 079b 3E       		.byte	0x3e
 3722 079c D4070000 		.4byte	0x7d4
 3723 07a0 0C       		.byte	0xc
 3724 07a1 00       		.byte	0
 3725 07a2 06       		.uleb128 0x6
 3726 07a3 04       		.byte	0x4
 3727 07a4 71070000 		.4byte	0x771
 3728 07a8 06       		.uleb128 0x6
 3729 07a9 04       		.byte	0x4
 3730 07aa F9040000 		.4byte	0x4f9
 3731 07ae 06       		.uleb128 0x6
 3732 07af 04       		.byte	0x4
 3733 07b0 61030000 		.4byte	0x361
 3734 07b4 0A       		.uleb128 0xa
 3735 07b5 86000000 		.4byte	0x86
 3736 07b9 08       		.uleb128 0x8
 3737 07ba F9040000 		.4byte	0x4f9
 3738 07be C9070000 		.4byte	0x7c9
 3739 07c2 09       		.uleb128 0x9
 3740 07c3 6F000000 		.4byte	0x6f
 3741 07c7 1F       		.byte	0x1f
 3742 07c8 00       		.byte	0
 3743 07c9 03       		.uleb128 0x3
 3744 07ca EE0D0000 		.4byte	.LASF126
 3745 07ce 10       		.byte	0x10
 3746 07cf 34       		.byte	0x34
 3747 07d0 71070000 		.4byte	0x771
 3748 07d4 06       		.uleb128 0x6
 3749 07d5 04       		.byte	0x4
ARM GAS  C:\Users\Luis\AppData\Local\Temp\ccB0PfuY.s 			page 68


 3750 07d6 C9070000 		.4byte	0x7c9
 3751 07da 03       		.uleb128 0x3
 3752 07db 7D0D0000 		.4byte	.LASF127
 3753 07df 11       		.byte	0x11
 3754 07e0 3F       		.byte	0x3f
 3755 07e1 E5070000 		.4byte	0x7e5
 3756 07e5 0B       		.uleb128 0xb
 3757 07e6 6E020000 		.4byte	.LASF128
 3758 07ea 24       		.byte	0x24
 3759 07eb 11       		.byte	0x11
 3760 07ec 4D       		.byte	0x4d
 3761 07ed 52080000 		.4byte	0x852
 3762 07f1 0C       		.uleb128 0xc
 3763 07f2 510C0000 		.4byte	.LASF129
 3764 07f6 11       		.byte	0x11
 3765 07f7 4E       		.byte	0x4e
 3766 07f8 AE020000 		.4byte	0x2ae
 3767 07fc 00       		.byte	0
 3768 07fd 0C       		.uleb128 0xc
 3769 07fe EB050000 		.4byte	.LASF130
 3770 0802 11       		.byte	0x11
 3771 0803 4F       		.byte	0x4f
 3772 0804 74080000 		.4byte	0x874
 3773 0808 08       		.byte	0x8
 3774 0809 0C       		.uleb128 0xc
 3775 080a 8A010000 		.4byte	.LASF131
 3776 080e 11       		.byte	0x11
 3777 080f 50       		.byte	0x50
 3778 0810 79080000 		.4byte	0x879
 3779 0814 0C       		.byte	0xc
 3780 0815 0C       		.uleb128 0xc
 3781 0816 84010000 		.4byte	.LASF132
 3782 081a 11       		.byte	0x11
 3783 081b 51       		.byte	0x51
 3784 081c 79080000 		.4byte	0x879
 3785 0820 10       		.byte	0x10
 3786 0821 0C       		.uleb128 0xc
 3787 0822 FE060000 		.4byte	.LASF133
 3788 0826 11       		.byte	0x11
 3789 0827 53       		.byte	0x53
 3790 0828 79080000 		.4byte	0x879
 3791 082c 14       		.byte	0x14
 3792 082d 0C       		.uleb128 0xc
 3793 082e DB010000 		.4byte	.LASF134
 3794 0832 11       		.byte	0x11
 3795 0833 54       		.byte	0x54
 3796 0834 79080000 		.4byte	0x879
 3797 0838 18       		.byte	0x18
 3798 0839 0C       		.uleb128 0xc
 3799 083a AE010000 		.4byte	.LASF135
 3800 083e 11       		.byte	0x11
 3801 083f 55       		.byte	0x55
 3802 0840 52080000 		.4byte	0x852
 3803 0844 1C       		.byte	0x1c
 3804 0845 0C       		.uleb128 0xc
 3805 0846 4F030000 		.4byte	.LASF136
 3806 084a 11       		.byte	0x11
ARM GAS  C:\Users\Luis\AppData\Local\Temp\ccB0PfuY.s 			page 69


 3807 084b 56       		.byte	0x56
 3808 084c 76000000 		.4byte	0x76
 3809 0850 20       		.byte	0x20
 3810 0851 00       		.byte	0
 3811 0852 03       		.uleb128 0x3
 3812 0853 54080000 		.4byte	.LASF137
 3813 0857 11       		.byte	0x11
 3814 0858 42       		.byte	0x42
 3815 0859 5D080000 		.4byte	0x85d
 3816 085d 06       		.uleb128 0x6
 3817 085e 04       		.byte	0x4
 3818 085f 63080000 		.4byte	0x863
 3819 0863 10       		.uleb128 0x10
 3820 0864 6E080000 		.4byte	0x86e
 3821 0868 11       		.uleb128 0x11
 3822 0869 6E080000 		.4byte	0x86e
 3823 086d 00       		.byte	0
 3824 086e 06       		.uleb128 0x6
 3825 086f 04       		.byte	0x4
 3826 0870 DA070000 		.4byte	0x7da
 3827 0874 0A       		.uleb128 0xa
 3828 0875 2C000000 		.4byte	0x2c
 3829 0879 06       		.uleb128 0x6
 3830 087a 04       		.byte	0x4
 3831 087b A1000000 		.4byte	0xa1
 3832 087f 03       		.uleb128 0x3
 3833 0880 480E0000 		.4byte	.LASF138
 3834 0884 11       		.byte	0x11
 3835 0885 64       		.byte	0x64
 3836 0886 DA070000 		.4byte	0x7da
 3837 088a 03       		.uleb128 0x3
 3838 088b C50E0000 		.4byte	.LASF139
 3839 088f 11       		.byte	0x11
 3840 0890 71       		.byte	0x71
 3841 0891 DA070000 		.4byte	0x7da
 3842 0895 06       		.uleb128 0x6
 3843 0896 04       		.byte	0x4
 3844 0897 9B080000 		.4byte	0x89b
 3845 089b 07       		.uleb128 0x7
 3846 089c A1000000 		.4byte	0xa1
 3847 08a0 04       		.uleb128 0x4
 3848 08a1 01       		.byte	0x1
 3849 08a2 02       		.byte	0x2
 3850 08a3 B2030000 		.4byte	.LASF140
 3851 08a7 03       		.uleb128 0x3
 3852 08a8 0E040000 		.4byte	.LASF141
 3853 08ac 12       		.byte	0x12
 3854 08ad FA       		.byte	0xfa
 3855 08ae B2080000 		.4byte	0x8b2
 3856 08b2 12       		.uleb128 0x12
 3857 08b3 0E040000 		.4byte	.LASF141
 3858 08b7 F001     		.2byte	0x1f0
 3859 08b9 13       		.byte	0x13
 3860 08ba 7701     		.2byte	0x177
 3861 08bc DE090000 		.4byte	0x9de
 3862 08c0 0E       		.uleb128 0xe
 3863 08c1 CE000000 		.4byte	.LASF142
ARM GAS  C:\Users\Luis\AppData\Local\Temp\ccB0PfuY.s 			page 70


 3864 08c5 13       		.byte	0x13
 3865 08c6 7B01     		.2byte	0x17b
 3866 08c8 110A0000 		.4byte	0xa11
 3867 08cc 00       		.byte	0
 3868 08cd 0E       		.uleb128 0xe
 3869 08ce C7000000 		.4byte	.LASF143
 3870 08d2 13       		.byte	0x13
 3871 08d3 7F01     		.2byte	0x17f
 3872 08d5 3B130000 		.4byte	0x133b
 3873 08d9 04       		.byte	0x4
 3874 08da 0E       		.uleb128 0xe
 3875 08db AE040000 		.4byte	.LASF144
 3876 08df 13       		.byte	0x13
 3877 08e0 8301     		.2byte	0x183
 3878 08e2 AC000000 		.4byte	0xac
 3879 08e6 08       		.byte	0x8
 3880 08e7 0E       		.uleb128 0xe
 3881 08e8 04040000 		.4byte	.LASF145
 3882 08ec 13       		.byte	0x13
 3883 08ed 8701     		.2byte	0x187
 3884 08ef AC000000 		.4byte	0xac
 3885 08f3 0A       		.byte	0xa
 3886 08f4 0D       		.uleb128 0xd
 3887 08f5 65706300 		.ascii	"epc\000"
 3888 08f9 13       		.byte	0x13
 3889 08fa 8B01     		.2byte	0x18b
 3890 08fc 46130000 		.4byte	0x1346
 3891 0900 0C       		.byte	0xc
 3892 0901 0E       		.uleb128 0xe
 3893 0902 840C0000 		.4byte	.LASF146
 3894 0906 13       		.byte	0x13
 3895 0907 9201     		.2byte	0x192
 3896 0909 61130000 		.4byte	0x1361
 3897 090d 24       		.byte	0x24
 3898 090e 0E       		.uleb128 0xe
 3899 090f D40E0000 		.4byte	.LASF147
 3900 0913 13       		.byte	0x13
 3901 0914 9901     		.2byte	0x199
 3902 0916 61130000 		.4byte	0x1361
 3903 091a 38       		.byte	0x38
 3904 091b 0E       		.uleb128 0xe
 3905 091c 80030000 		.4byte	.LASF148
 3906 0920 13       		.byte	0x13
 3907 0921 9D01     		.2byte	0x19d
 3908 0923 6D0A0000 		.4byte	0xa6d
 3909 0927 4C       		.byte	0x4c
 3910 0928 0E       		.uleb128 0xe
 3911 0929 F6070000 		.4byte	.LASF149
 3912 092d 13       		.byte	0x13
 3913 092e A101     		.2byte	0x1a1
 3914 0930 79080000 		.4byte	0x879
 3915 0934 50       		.byte	0x50
 3916 0935 0E       		.uleb128 0xe
 3917 0936 EA030000 		.4byte	.LASF150
 3918 093a 13       		.byte	0x13
 3919 093b A501     		.2byte	0x1a5
 3920 093d 2C000000 		.4byte	0x2c
ARM GAS  C:\Users\Luis\AppData\Local\Temp\ccB0PfuY.s 			page 71


 3921 0941 54       		.byte	0x54
 3922 0942 0E       		.uleb128 0xe
 3923 0943 8F060000 		.4byte	.LASF151
 3924 0947 13       		.byte	0x13
 3925 0948 A901     		.2byte	0x1a9
 3926 094a E30A0000 		.4byte	0xae3
 3927 094e 58       		.byte	0x58
 3928 094f 0E       		.uleb128 0xe
 3929 0950 40050000 		.4byte	.LASF152
 3930 0954 13       		.byte	0x13
 3931 0955 AD01     		.2byte	0x1ad
 3932 0957 71130000 		.4byte	0x1371
 3933 095b 5C       		.byte	0x5c
 3934 095c 0E       		.uleb128 0xe
 3935 095d 67060000 		.4byte	.LASF153
 3936 0961 13       		.byte	0x13
 3937 0962 B101     		.2byte	0x1b1
 3938 0964 AC000000 		.4byte	0xac
 3939 0968 64       		.byte	0x64
 3940 0969 0E       		.uleb128 0xe
 3941 096a 7A060000 		.4byte	.LASF154
 3942 096e 13       		.byte	0x13
 3943 096f B501     		.2byte	0x1b5
 3944 0971 A1000000 		.4byte	0xa1
 3945 0975 66       		.byte	0x66
 3946 0976 0E       		.uleb128 0xe
 3947 0977 98050000 		.4byte	.LASF155
 3948 097b 13       		.byte	0x13
 3949 097c B901     		.2byte	0x1b9
 3950 097e A1000000 		.4byte	0xa1
 3951 0982 67       		.byte	0x67
 3952 0983 0D       		.uleb128 0xd
 3953 0984 6F746700 		.ascii	"otg\000"
 3954 0988 13       		.byte	0x13
 3955 0989 C101     		.2byte	0x1c1
 3956 098b 81130000 		.4byte	0x1381
 3957 098f 68       		.byte	0x68
 3958 0990 0E       		.uleb128 0xe
 3959 0991 8C0A0000 		.4byte	.LASF156
 3960 0995 13       		.byte	0x13
 3961 0996 C501     		.2byte	0x1c5
 3962 0998 87130000 		.4byte	0x1387
 3963 099c 6C       		.byte	0x6c
 3964 099d 0E       		.uleb128 0xe
 3965 099e 480F0000 		.4byte	.LASF157
 3966 09a2 13       		.byte	0x13
 3967 09a3 C901     		.2byte	0x1c9
 3968 09a5 C2000000 		.4byte	0xc2
 3969 09a9 70       		.byte	0x70
 3970 09aa 0E       		.uleb128 0xe
 3971 09ab B7080000 		.4byte	.LASF158
 3972 09af 13       		.byte	0x13
 3973 09b0 CD01     		.2byte	0x1cd
 3974 09b2 C2000000 		.4byte	0xc2
 3975 09b6 74       		.byte	0x74
 3976 09b7 0E       		.uleb128 0xe
 3977 09b8 4F080000 		.4byte	.LASF159
ARM GAS  C:\Users\Luis\AppData\Local\Temp\ccB0PfuY.s 			page 72


 3978 09bc 13       		.byte	0x13
 3979 09bd D101     		.2byte	0x1d1
 3980 09bf 79020000 		.4byte	0x279
 3981 09c3 78       		.byte	0x78
 3982 09c4 0D       		.uleb128 0xd
 3983 09c5 747200   		.ascii	"tr\000"
 3984 09c8 13       		.byte	0x13
 3985 09c9 D601     		.2byte	0x1d6
 3986 09cb 79020000 		.4byte	0x279
 3987 09cf 7C       		.byte	0x7c
 3988 09d0 0E       		.uleb128 0xe
 3989 09d1 7C0C0000 		.4byte	.LASF160
 3990 09d5 13       		.byte	0x13
 3991 09d6 DA01     		.2byte	0x1da
 3992 09d8 92130000 		.4byte	0x1392
 3993 09dc 80       		.byte	0x80
 3994 09dd 00       		.byte	0
 3995 09de 03       		.uleb128 0x3
 3996 09df 400E0000 		.4byte	.LASF161
 3997 09e3 12       		.byte	0x12
 3998 09e4 FF       		.byte	0xff
 3999 09e5 A1000000 		.4byte	0xa1
 4000 09e9 1A       		.uleb128 0x1a
 4001 09ea 01       		.byte	0x1
 4002 09eb 12       		.byte	0x12
 4003 09ec 0401     		.2byte	0x104
 4004 09ee 110A0000 		.4byte	0xa11
 4005 09f2 1B       		.uleb128 0x1b
 4006 09f3 B40A0000 		.4byte	.LASF162
 4007 09f7 00       		.sleb128 0
 4008 09f8 1B       		.uleb128 0x1b
 4009 09f9 F1090000 		.4byte	.LASF163
 4010 09fd 01       		.sleb128 1
 4011 09fe 1B       		.uleb128 0x1b
 4012 09ff C0070000 		.4byte	.LASF164
 4013 0a03 02       		.sleb128 2
 4014 0a04 1B       		.uleb128 0x1b
 4015 0a05 8B050000 		.4byte	.LASF165
 4016 0a09 03       		.sleb128 3
 4017 0a0a 1B       		.uleb128 0x1b
 4018 0a0b 05010000 		.4byte	.LASF166
 4019 0a0f 04       		.sleb128 4
 4020 0a10 00       		.byte	0
 4021 0a11 1C       		.uleb128 0x1c
 4022 0a12 1A070000 		.4byte	.LASF167
 4023 0a16 12       		.byte	0x12
 4024 0a17 0A01     		.2byte	0x10a
 4025 0a19 E9090000 		.4byte	0x9e9
 4026 0a1d 1A       		.uleb128 0x1a
 4027 0a1e 01       		.byte	0x1
 4028 0a1f 12       		.byte	0x12
 4029 0a20 0F01     		.2byte	0x10f
 4030 0a22 390A0000 		.4byte	0xa39
 4031 0a26 1B       		.uleb128 0x1b
 4032 0a27 EA0E0000 		.4byte	.LASF168
 4033 0a2b 00       		.sleb128 0
 4034 0a2c 1B       		.uleb128 0x1b
ARM GAS  C:\Users\Luis\AppData\Local\Temp\ccB0PfuY.s 			page 73


 4035 0a2d B9050000 		.4byte	.LASF169
 4036 0a31 01       		.sleb128 1
 4037 0a32 1B       		.uleb128 0x1b
 4038 0a33 CD020000 		.4byte	.LASF170
 4039 0a37 02       		.sleb128 2
 4040 0a38 00       		.byte	0
 4041 0a39 1A       		.uleb128 0x1a
 4042 0a3a 01       		.byte	0x1
 4043 0a3b 12       		.byte	0x12
 4044 0a3c 1801     		.2byte	0x118
 4045 0a3e 6D0A0000 		.4byte	0xa6d
 4046 0a42 1B       		.uleb128 0x1b
 4047 0a43 42020000 		.4byte	.LASF171
 4048 0a47 00       		.sleb128 0
 4049 0a48 1B       		.uleb128 0x1b
 4050 0a49 B3000000 		.4byte	.LASF172
 4051 0a4d 01       		.sleb128 1
 4052 0a4e 1B       		.uleb128 0x1b
 4053 0a4f 6C0A0000 		.4byte	.LASF173
 4054 0a53 02       		.sleb128 2
 4055 0a54 1B       		.uleb128 0x1b
 4056 0a55 29000000 		.4byte	.LASF174
 4057 0a59 03       		.sleb128 3
 4058 0a5a 1B       		.uleb128 0x1b
 4059 0a5b 600F0000 		.4byte	.LASF175
 4060 0a5f 04       		.sleb128 4
 4061 0a60 1B       		.uleb128 0x1b
 4062 0a61 120F0000 		.4byte	.LASF176
 4063 0a65 05       		.sleb128 5
 4064 0a66 1B       		.uleb128 0x1b
 4065 0a67 41030000 		.4byte	.LASF177
 4066 0a6b 06       		.sleb128 6
 4067 0a6c 00       		.byte	0
 4068 0a6d 1C       		.uleb128 0x1c
 4069 0a6e 76010000 		.4byte	.LASF178
 4070 0a72 12       		.byte	0x12
 4071 0a73 2001     		.2byte	0x120
 4072 0a75 390A0000 		.4byte	0xa39
 4073 0a79 1A       		.uleb128 0x1a
 4074 0a7a 01       		.byte	0x1
 4075 0a7b 12       		.byte	0x12
 4076 0a7c 2501     		.2byte	0x125
 4077 0a7e A70A0000 		.4byte	0xaa7
 4078 0a82 1B       		.uleb128 0x1b
 4079 0a83 130D0000 		.4byte	.LASF179
 4080 0a87 00       		.sleb128 0
 4081 0a88 1B       		.uleb128 0x1b
 4082 0a89 93010000 		.4byte	.LASF180
 4083 0a8d 01       		.sleb128 1
 4084 0a8e 1B       		.uleb128 0x1b
 4085 0a8f 2E0C0000 		.4byte	.LASF181
 4086 0a93 02       		.sleb128 2
 4087 0a94 1B       		.uleb128 0x1b
 4088 0a95 A80E0000 		.4byte	.LASF182
 4089 0a99 03       		.sleb128 3
 4090 0a9a 1B       		.uleb128 0x1b
 4091 0a9b 88070000 		.4byte	.LASF183
ARM GAS  C:\Users\Luis\AppData\Local\Temp\ccB0PfuY.s 			page 74


 4092 0a9f 04       		.sleb128 4
 4093 0aa0 1B       		.uleb128 0x1b
 4094 0aa1 BB020000 		.4byte	.LASF184
 4095 0aa5 05       		.sleb128 5
 4096 0aa6 00       		.byte	0
 4097 0aa7 1C       		.uleb128 0x1c
 4098 0aa8 6A050000 		.4byte	.LASF185
 4099 0aac 12       		.byte	0x12
 4100 0aad 2C01     		.2byte	0x12c
 4101 0aaf 790A0000 		.4byte	0xa79
 4102 0ab3 1D       		.uleb128 0x1d
 4103 0ab4 08       		.byte	0x8
 4104 0ab5 12       		.byte	0x12
 4105 0ab6 3101     		.2byte	0x131
 4106 0ab8 D70A0000 		.4byte	0xad7
 4107 0abc 0E       		.uleb128 0xe
 4108 0abd 83050000 		.4byte	.LASF186
 4109 0ac1 12       		.byte	0x12
 4110 0ac2 3501     		.2byte	0x135
 4111 0ac4 2C000000 		.4byte	0x2c
 4112 0ac8 00       		.byte	0
 4113 0ac9 0E       		.uleb128 0xe
 4114 0aca 31040000 		.4byte	.LASF187
 4115 0ace 12       		.byte	0x12
 4116 0acf 3901     		.2byte	0x139
 4117 0ad1 95080000 		.4byte	0x895
 4118 0ad5 04       		.byte	0x4
 4119 0ad6 00       		.byte	0
 4120 0ad7 1C       		.uleb128 0x1c
 4121 0ad8 0E050000 		.4byte	.LASF188
 4122 0adc 12       		.byte	0x12
 4123 0add 3A01     		.2byte	0x13a
 4124 0adf B30A0000 		.4byte	0xab3
 4125 0ae3 1C       		.uleb128 0x1c
 4126 0ae4 B80D0000 		.4byte	.LASF189
 4127 0ae8 12       		.byte	0x12
 4128 0ae9 4201     		.2byte	0x142
 4129 0aeb EF0A0000 		.4byte	0xaef
 4130 0aef 06       		.uleb128 0x6
 4131 0af0 04       		.byte	0x4
 4132 0af1 F50A0000 		.4byte	0xaf5
 4133 0af5 10       		.uleb128 0x10
 4134 0af6 000B0000 		.4byte	0xb00
 4135 0afa 11       		.uleb128 0x11
 4136 0afb 000B0000 		.4byte	0xb00
 4137 0aff 00       		.byte	0
 4138 0b00 06       		.uleb128 0x6
 4139 0b01 04       		.byte	0x4
 4140 0b02 A7080000 		.4byte	0x8a7
 4141 0b06 1C       		.uleb128 0x1c
 4142 0b07 20080000 		.4byte	.LASF190
 4143 0b0b 12       		.byte	0x12
 4144 0b0c 4B01     		.2byte	0x14b
 4145 0b0e 120B0000 		.4byte	0xb12
 4146 0b12 06       		.uleb128 0x6
 4147 0b13 04       		.byte	0x4
 4148 0b14 180B0000 		.4byte	0xb18
ARM GAS  C:\Users\Luis\AppData\Local\Temp\ccB0PfuY.s 			page 75


 4149 0b18 10       		.uleb128 0x10
 4150 0b19 280B0000 		.4byte	0xb28
 4151 0b1d 11       		.uleb128 0x11
 4152 0b1e 000B0000 		.4byte	0xb00
 4153 0b22 11       		.uleb128 0x11
 4154 0b23 DE090000 		.4byte	0x9de
 4155 0b27 00       		.byte	0
 4156 0b28 1C       		.uleb128 0x1c
 4157 0b29 86040000 		.4byte	.LASF191
 4158 0b2d 12       		.byte	0x12
 4159 0b2e 5401     		.2byte	0x154
 4160 0b30 340B0000 		.4byte	0xb34
 4161 0b34 06       		.uleb128 0x6
 4162 0b35 04       		.byte	0x4
 4163 0b36 3A0B0000 		.4byte	0xb3a
 4164 0b3a 10       		.uleb128 0x10
 4165 0b3b 4A0B0000 		.4byte	0xb4a
 4166 0b3f 11       		.uleb128 0x11
 4167 0b40 000B0000 		.4byte	0xb00
 4168 0b44 11       		.uleb128 0x11
 4169 0b45 A70A0000 		.4byte	0xaa7
 4170 0b49 00       		.byte	0
 4171 0b4a 1C       		.uleb128 0x1c
 4172 0b4b 880D0000 		.4byte	.LASF192
 4173 0b4f 12       		.byte	0x12
 4174 0b50 6001     		.2byte	0x160
 4175 0b52 560B0000 		.4byte	0xb56
 4176 0b56 06       		.uleb128 0x6
 4177 0b57 04       		.byte	0x4
 4178 0b58 5C0B0000 		.4byte	0xb5c
 4179 0b5c 1E       		.uleb128 0x1e
 4180 0b5d A0080000 		.4byte	0x8a0
 4181 0b61 6B0B0000 		.4byte	0xb6b
 4182 0b65 11       		.uleb128 0x11
 4183 0b66 000B0000 		.4byte	0xb00
 4184 0b6a 00       		.byte	0
 4185 0b6b 1C       		.uleb128 0x1c
 4186 0b6c 690C0000 		.4byte	.LASF193
 4187 0b70 12       		.byte	0x12
 4188 0b71 6501     		.2byte	0x165
 4189 0b73 770B0000 		.4byte	0xb77
 4190 0b77 06       		.uleb128 0x6
 4191 0b78 04       		.byte	0x4
 4192 0b79 7D0B0000 		.4byte	0xb7d
 4193 0b7d 1E       		.uleb128 0x1e
 4194 0b7e 9B0B0000 		.4byte	0xb9b
 4195 0b82 9B0B0000 		.4byte	0xb9b
 4196 0b86 11       		.uleb128 0x11
 4197 0b87 000B0000 		.4byte	0xb00
 4198 0b8b 11       		.uleb128 0x11
 4199 0b8c A1000000 		.4byte	0xa1
 4200 0b90 11       		.uleb128 0x11
 4201 0b91 A1000000 		.4byte	0xa1
 4202 0b95 11       		.uleb128 0x11
 4203 0b96 AC000000 		.4byte	0xac
 4204 0b9a 00       		.byte	0
 4205 0b9b 06       		.uleb128 0x6
ARM GAS  C:\Users\Luis\AppData\Local\Temp\ccB0PfuY.s 			page 76


 4206 0b9c 04       		.byte	0x4
 4207 0b9d A10B0000 		.4byte	0xba1
 4208 0ba1 07       		.uleb128 0x7
 4209 0ba2 D70A0000 		.4byte	0xad7
 4210 0ba6 16       		.uleb128 0x16
 4211 0ba7 20       		.byte	0x20
 4212 0ba8 14       		.byte	0x14
 4213 0ba9 35       		.byte	0x35
 4214 0baa 0F0C0000 		.4byte	0xc0f
 4215 0bae 0C       		.uleb128 0xc
 4216 0baf C3030000 		.4byte	.LASF194
 4217 0bb3 14       		.byte	0x14
 4218 0bb4 36       		.byte	0x36
 4219 0bb5 DD000000 		.4byte	0xdd
 4220 0bb9 00       		.byte	0
 4221 0bba 0C       		.uleb128 0xc
 4222 0bbb 6B000000 		.4byte	.LASF195
 4223 0bbf 14       		.byte	0x14
 4224 0bc0 38       		.byte	0x38
 4225 0bc1 DD000000 		.4byte	0xdd
 4226 0bc5 04       		.byte	0x4
 4227 0bc6 0C       		.uleb128 0xc
 4228 0bc7 390B0000 		.4byte	.LASF196
 4229 0bcb 14       		.byte	0x14
 4230 0bcc 39       		.byte	0x39
 4231 0bcd DD000000 		.4byte	0xdd
 4232 0bd1 08       		.byte	0x8
 4233 0bd2 0C       		.uleb128 0xc
 4234 0bd3 740B0000 		.4byte	.LASF197
 4235 0bd7 14       		.byte	0x14
 4236 0bd8 3A       		.byte	0x3a
 4237 0bd9 DD000000 		.4byte	0xdd
 4238 0bdd 0C       		.byte	0xc
 4239 0bde 0C       		.uleb128 0xc
 4240 0bdf BB040000 		.4byte	.LASF198
 4241 0be3 14       		.byte	0x14
 4242 0be4 3C       		.byte	0x3c
 4243 0be5 DD000000 		.4byte	0xdd
 4244 0be9 10       		.byte	0x10
 4245 0bea 0C       		.uleb128 0xc
 4246 0beb 230D0000 		.4byte	.LASF199
 4247 0bef 14       		.byte	0x14
 4248 0bf0 3E       		.byte	0x3e
 4249 0bf1 DD000000 		.4byte	0xdd
 4250 0bf5 14       		.byte	0x14
 4251 0bf6 0C       		.uleb128 0xc
 4252 0bf7 2B0D0000 		.4byte	.LASF200
 4253 0bfb 14       		.byte	0x14
 4254 0bfc 3F       		.byte	0x3f
 4255 0bfd DD000000 		.4byte	0xdd
 4256 0c01 18       		.byte	0x18
 4257 0c02 0C       		.uleb128 0xc
 4258 0c03 750D0000 		.4byte	.LASF201
 4259 0c07 14       		.byte	0x14
 4260 0c08 40       		.byte	0x40
 4261 0c09 DD000000 		.4byte	0xdd
 4262 0c0d 1C       		.byte	0x1c
ARM GAS  C:\Users\Luis\AppData\Local\Temp\ccB0PfuY.s 			page 77


 4263 0c0e 00       		.byte	0
 4264 0c0f 03       		.uleb128 0x3
 4265 0c10 93040000 		.4byte	.LASF202
 4266 0c14 14       		.byte	0x14
 4267 0c15 41       		.byte	0x41
 4268 0c16 A60B0000 		.4byte	0xba6
 4269 0c1a 16       		.uleb128 0x16
 4270 0c1b 20       		.byte	0x20
 4271 0c1c 14       		.byte	0x14
 4272 0c1d 46       		.byte	0x46
 4273 0c1e 830C0000 		.4byte	0xc83
 4274 0c22 0C       		.uleb128 0xc
 4275 0c23 B00D0000 		.4byte	.LASF203
 4276 0c27 14       		.byte	0x14
 4277 0c28 47       		.byte	0x47
 4278 0c29 DD000000 		.4byte	0xdd
 4279 0c2d 00       		.byte	0
 4280 0c2e 0C       		.uleb128 0xc
 4281 0c2f 64000000 		.4byte	.LASF204
 4282 0c33 14       		.byte	0x14
 4283 0c34 49       		.byte	0x49
 4284 0c35 DD000000 		.4byte	0xdd
 4285 0c39 04       		.byte	0x4
 4286 0c3a 0C       		.uleb128 0xc
 4287 0c3b DD0D0000 		.4byte	.LASF205
 4288 0c3f 14       		.byte	0x14
 4289 0c40 4A       		.byte	0x4a
 4290 0c41 DD000000 		.4byte	0xdd
 4291 0c45 08       		.byte	0x8
 4292 0c46 0C       		.uleb128 0xc
 4293 0c47 7B000000 		.4byte	.LASF206
 4294 0c4b 14       		.byte	0x14
 4295 0c4c 4C       		.byte	0x4c
 4296 0c4d DD000000 		.4byte	0xdd
 4297 0c51 0C       		.byte	0xc
 4298 0c52 0C       		.uleb128 0xc
 4299 0c53 98030000 		.4byte	.LASF207
 4300 0c57 14       		.byte	0x14
 4301 0c58 4D       		.byte	0x4d
 4302 0c59 DD000000 		.4byte	0xdd
 4303 0c5d 10       		.byte	0x10
 4304 0c5e 0C       		.uleb128 0xc
 4305 0c5f 230D0000 		.4byte	.LASF199
 4306 0c63 14       		.byte	0x14
 4307 0c64 4F       		.byte	0x4f
 4308 0c65 DD000000 		.4byte	0xdd
 4309 0c69 14       		.byte	0x14
 4310 0c6a 0C       		.uleb128 0xc
 4311 0c6b 330D0000 		.4byte	.LASF208
 4312 0c6f 14       		.byte	0x14
 4313 0c70 50       		.byte	0x50
 4314 0c71 DD000000 		.4byte	0xdd
 4315 0c75 18       		.byte	0x18
 4316 0c76 0C       		.uleb128 0xc
 4317 0c77 430D0000 		.4byte	.LASF209
 4318 0c7b 14       		.byte	0x14
 4319 0c7c 52       		.byte	0x52
ARM GAS  C:\Users\Luis\AppData\Local\Temp\ccB0PfuY.s 			page 78


 4320 0c7d DD000000 		.4byte	0xdd
 4321 0c81 1C       		.byte	0x1c
 4322 0c82 00       		.byte	0
 4323 0c83 03       		.uleb128 0x3
 4324 0c84 CC0B0000 		.4byte	.LASF210
 4325 0c88 14       		.byte	0x14
 4326 0c89 53       		.byte	0x53
 4327 0c8a 1A0C0000 		.4byte	0xc1a
 4328 0c8e 16       		.uleb128 0x16
 4329 0c8f 20       		.byte	0x20
 4330 0c90 14       		.byte	0x14
 4331 0c91 58       		.byte	0x58
 4332 0c92 F70C0000 		.4byte	0xcf7
 4333 0c96 0C       		.uleb128 0xc
 4334 0c97 81020000 		.4byte	.LASF211
 4335 0c9b 14       		.byte	0x14
 4336 0c9c 59       		.byte	0x59
 4337 0c9d DD000000 		.4byte	0xdd
 4338 0ca1 00       		.byte	0
 4339 0ca2 0C       		.uleb128 0xc
 4340 0ca3 64000000 		.4byte	.LASF204
 4341 0ca7 14       		.byte	0x14
 4342 0ca8 5B       		.byte	0x5b
 4343 0ca9 DD000000 		.4byte	0xdd
 4344 0cad 04       		.byte	0x4
 4345 0cae 0C       		.uleb128 0xc
 4346 0caf DE020000 		.4byte	.LASF212
 4347 0cb3 14       		.byte	0x14
 4348 0cb4 5C       		.byte	0x5c
 4349 0cb5 DD000000 		.4byte	0xdd
 4350 0cb9 08       		.byte	0x8
 4351 0cba 0C       		.uleb128 0xc
 4352 0cbb 7B000000 		.4byte	.LASF206
 4353 0cbf 14       		.byte	0x14
 4354 0cc0 5E       		.byte	0x5e
 4355 0cc1 DD000000 		.4byte	0xdd
 4356 0cc5 0C       		.byte	0xc
 4357 0cc6 0C       		.uleb128 0xc
 4358 0cc7 7A080000 		.4byte	.LASF213
 4359 0ccb 14       		.byte	0x14
 4360 0ccc 5F       		.byte	0x5f
 4361 0ccd DD000000 		.4byte	0xdd
 4362 0cd1 10       		.byte	0x10
 4363 0cd2 0C       		.uleb128 0xc
 4364 0cd3 230D0000 		.4byte	.LASF199
 4365 0cd7 14       		.byte	0x14
 4366 0cd8 61       		.byte	0x61
 4367 0cd9 DD000000 		.4byte	0xdd
 4368 0cdd 14       		.byte	0x14
 4369 0cde 0C       		.uleb128 0xc
 4370 0cdf 2B0D0000 		.4byte	.LASF200
 4371 0ce3 14       		.byte	0x14
 4372 0ce4 62       		.byte	0x62
 4373 0ce5 DD000000 		.4byte	0xdd
 4374 0ce9 18       		.byte	0x18
 4375 0cea 0C       		.uleb128 0xc
 4376 0ceb 430D0000 		.4byte	.LASF209
ARM GAS  C:\Users\Luis\AppData\Local\Temp\ccB0PfuY.s 			page 79


 4377 0cef 14       		.byte	0x14
 4378 0cf0 63       		.byte	0x63
 4379 0cf1 DD000000 		.4byte	0xdd
 4380 0cf5 1C       		.byte	0x1c
 4381 0cf6 00       		.byte	0
 4382 0cf7 03       		.uleb128 0x3
 4383 0cf8 CA030000 		.4byte	.LASF214
 4384 0cfc 14       		.byte	0x14
 4385 0cfd 64       		.byte	0x64
 4386 0cfe 8E0C0000 		.4byte	0xc8e
 4387 0d02 1F       		.uleb128 0x1f
 4388 0d03 00100100 		.4byte	0x11000
 4389 0d07 14       		.byte	0x14
 4390 0d08 69       		.byte	0x69
 4391 0d09 DF0F0000 		.4byte	0xfdf
 4392 0d0d 0C       		.uleb128 0xc
 4393 0d0e 53070000 		.4byte	.LASF215
 4394 0d12 14       		.byte	0x14
 4395 0d13 6A       		.byte	0x6a
 4396 0d14 DD000000 		.4byte	0xdd
 4397 0d18 00       		.byte	0
 4398 0d19 0C       		.uleb128 0xc
 4399 0d1a AA070000 		.4byte	.LASF216
 4400 0d1e 14       		.byte	0x14
 4401 0d1f 6B       		.byte	0x6b
 4402 0d20 DD000000 		.4byte	0xdd
 4403 0d24 04       		.byte	0x4
 4404 0d25 0C       		.uleb128 0xc
 4405 0d26 A2060000 		.4byte	.LASF217
 4406 0d2a 14       		.byte	0x14
 4407 0d2b 6C       		.byte	0x6c
 4408 0d2c DD000000 		.4byte	0xdd
 4409 0d30 08       		.byte	0x8
 4410 0d31 0C       		.uleb128 0xc
 4411 0d32 580F0000 		.4byte	.LASF218
 4412 0d36 14       		.byte	0x14
 4413 0d37 6D       		.byte	0x6d
 4414 0d38 DD000000 		.4byte	0xdd
 4415 0d3c 0C       		.byte	0xc
 4416 0d3d 0C       		.uleb128 0xc
 4417 0d3e C60D0000 		.4byte	.LASF219
 4418 0d42 14       		.byte	0x14
 4419 0d43 6E       		.byte	0x6e
 4420 0d44 DD000000 		.4byte	0xdd
 4421 0d48 10       		.byte	0x10
 4422 0d49 0C       		.uleb128 0xc
 4423 0d4a CE0D0000 		.4byte	.LASF220
 4424 0d4e 14       		.byte	0x14
 4425 0d4f 6F       		.byte	0x6f
 4426 0d50 DD000000 		.4byte	0xdd
 4427 0d54 14       		.byte	0x14
 4428 0d55 0C       		.uleb128 0xc
 4429 0d56 050A0000 		.4byte	.LASF221
 4430 0d5a 14       		.byte	0x14
 4431 0d5b 70       		.byte	0x70
 4432 0d5c DD000000 		.4byte	0xdd
 4433 0d60 18       		.byte	0x18
ARM GAS  C:\Users\Luis\AppData\Local\Temp\ccB0PfuY.s 			page 80


 4434 0d61 0C       		.uleb128 0xc
 4435 0d62 80070000 		.4byte	.LASF222
 4436 0d66 14       		.byte	0x14
 4437 0d67 71       		.byte	0x71
 4438 0d68 DD000000 		.4byte	0xdd
 4439 0d6c 1C       		.byte	0x1c
 4440 0d6d 0C       		.uleb128 0xc
 4441 0d6e 6F070000 		.4byte	.LASF223
 4442 0d72 14       		.byte	0x14
 4443 0d73 73       		.byte	0x73
 4444 0d74 DD000000 		.4byte	0xdd
 4445 0d78 20       		.byte	0x20
 4446 0d79 0C       		.uleb128 0xc
 4447 0d7a B1050000 		.4byte	.LASF224
 4448 0d7e 14       		.byte	0x14
 4449 0d7f 75       		.byte	0x75
 4450 0d80 DD000000 		.4byte	0xdd
 4451 0d84 24       		.byte	0x24
 4452 0d85 0C       		.uleb128 0xc
 4453 0d86 A5010000 		.4byte	.LASF225
 4454 0d8a 14       		.byte	0x14
 4455 0d8b 76       		.byte	0x76
 4456 0d8c DD000000 		.4byte	0xdd
 4457 0d90 28       		.byte	0x28
 4458 0d91 0C       		.uleb128 0xc
 4459 0d92 E50D0000 		.4byte	.LASF226
 4460 0d96 14       		.byte	0x14
 4461 0d97 78       		.byte	0x78
 4462 0d98 DD000000 		.4byte	0xdd
 4463 0d9c 2C       		.byte	0x2c
 4464 0d9d 0C       		.uleb128 0xc
 4465 0d9e 1D0E0000 		.4byte	.LASF227
 4466 0da2 14       		.byte	0x14
 4467 0da3 7A       		.byte	0x7a
 4468 0da4 DD000000 		.4byte	0xdd
 4469 0da8 30       		.byte	0x30
 4470 0da9 0C       		.uleb128 0xc
 4471 0daa 2F0E0000 		.4byte	.LASF228
 4472 0dae 14       		.byte	0x14
 4473 0daf 7B       		.byte	0x7b
 4474 0db0 DD000000 		.4byte	0xdd
 4475 0db4 34       		.byte	0x34
 4476 0db5 0C       		.uleb128 0xc
 4477 0db6 7A030000 		.4byte	.LASF229
 4478 0dba 14       		.byte	0x14
 4479 0dbb 7C       		.byte	0x7c
 4480 0dbc DD000000 		.4byte	0xdd
 4481 0dc0 38       		.byte	0x38
 4482 0dc1 15       		.uleb128 0x15
 4483 0dc2 43494400 		.ascii	"CID\000"
 4484 0dc6 14       		.byte	0x14
 4485 0dc7 7D       		.byte	0x7d
 4486 0dc8 DD000000 		.4byte	0xdd
 4487 0dcc 3C       		.byte	0x3c
 4488 0dcd 0C       		.uleb128 0xc
 4489 0dce 0A0F0000 		.4byte	.LASF230
 4490 0dd2 14       		.byte	0x14
ARM GAS  C:\Users\Luis\AppData\Local\Temp\ccB0PfuY.s 			page 81


 4491 0dd3 7E       		.byte	0x7e
 4492 0dd4 DF0F0000 		.4byte	0xfdf
 4493 0dd8 40       		.byte	0x40
 4494 0dd9 20       		.uleb128 0x20
 4495 0dda 1F0B0000 		.4byte	.LASF231
 4496 0dde 14       		.byte	0x14
 4497 0ddf 7F       		.byte	0x7f
 4498 0de0 DD000000 		.4byte	0xdd
 4499 0de4 0001     		.2byte	0x100
 4500 0de6 20       		.uleb128 0x20
 4501 0de7 12060000 		.4byte	.LASF232
 4502 0deb 14       		.byte	0x14
 4503 0dec 81       		.byte	0x81
 4504 0ded E40F0000 		.4byte	0xfe4
 4505 0df1 0401     		.2byte	0x104
 4506 0df3 20       		.uleb128 0x20
 4507 0df4 6B0F0000 		.4byte	.LASF233
 4508 0df8 14       		.byte	0x14
 4509 0df9 83       		.byte	0x83
 4510 0dfa F90F0000 		.4byte	0xff9
 4511 0dfe 4001     		.2byte	0x140
 4512 0e00 20       		.uleb128 0x20
 4513 0e01 BE030000 		.4byte	.LASF234
 4514 0e05 14       		.byte	0x14
 4515 0e06 84       		.byte	0x84
 4516 0e07 DD000000 		.4byte	0xdd
 4517 0e0b 0004     		.2byte	0x400
 4518 0e0d 20       		.uleb128 0x20
 4519 0e0e 260F0000 		.4byte	.LASF235
 4520 0e12 14       		.byte	0x14
 4521 0e13 85       		.byte	0x85
 4522 0e14 DD000000 		.4byte	0xdd
 4523 0e18 0404     		.2byte	0x404
 4524 0e1a 20       		.uleb128 0x20
 4525 0e1b 80040000 		.4byte	.LASF236
 4526 0e1f 14       		.byte	0x14
 4527 0e20 86       		.byte	0x86
 4528 0e21 DD000000 		.4byte	0xdd
 4529 0e25 0804     		.2byte	0x408
 4530 0e27 20       		.uleb128 0x20
 4531 0e28 4A070000 		.4byte	.LASF237
 4532 0e2c 14       		.byte	0x14
 4533 0e2d 88       		.byte	0x88
 4534 0e2e DD000000 		.4byte	0xdd
 4535 0e32 0C04     		.2byte	0x40c
 4536 0e34 20       		.uleb128 0x20
 4537 0e35 020F0000 		.4byte	.LASF238
 4538 0e39 14       		.byte	0x14
 4539 0e3a 89       		.byte	0x89
 4540 0e3b DD000000 		.4byte	0xdd
 4541 0e3f 1004     		.2byte	0x410
 4542 0e41 20       		.uleb128 0x20
 4543 0e42 92080000 		.4byte	.LASF239
 4544 0e46 14       		.byte	0x14
 4545 0e47 8B       		.byte	0x8b
 4546 0e48 DD000000 		.4byte	0xdd
 4547 0e4c 1404     		.2byte	0x414
ARM GAS  C:\Users\Luis\AppData\Local\Temp\ccB0PfuY.s 			page 82


 4548 0e4e 20       		.uleb128 0x20
 4549 0e4f DE090000 		.4byte	.LASF240
 4550 0e53 14       		.byte	0x14
 4551 0e54 8D       		.byte	0x8d
 4552 0e55 DD000000 		.4byte	0xdd
 4553 0e59 1804     		.2byte	0x418
 4554 0e5b 20       		.uleb128 0x20
 4555 0e5c E5070000 		.4byte	.LASF241
 4556 0e60 14       		.byte	0x14
 4557 0e61 8F       		.byte	0x8f
 4558 0e62 0E100000 		.4byte	0x100e
 4559 0e66 1C04     		.2byte	0x41c
 4560 0e68 20       		.uleb128 0x20
 4561 0e69 F8030000 		.4byte	.LASF242
 4562 0e6d 14       		.byte	0x14
 4563 0e6e 90       		.byte	0x90
 4564 0e6f DD000000 		.4byte	0xdd
 4565 0e73 4004     		.2byte	0x440
 4566 0e75 20       		.uleb128 0x20
 4567 0e76 F5080000 		.4byte	.LASF243
 4568 0e7a 14       		.byte	0x14
 4569 0e7b 92       		.byte	0x92
 4570 0e7c 23100000 		.4byte	0x1023
 4571 0e80 4404     		.2byte	0x444
 4572 0e82 21       		.uleb128 0x21
 4573 0e83 686300   		.ascii	"hc\000"
 4574 0e86 14       		.byte	0x14
 4575 0e87 93       		.byte	0x93
 4576 0e88 28100000 		.4byte	0x1028
 4577 0e8c 0005     		.2byte	0x500
 4578 0e8e 20       		.uleb128 0x20
 4579 0e8f BE000000 		.4byte	.LASF244
 4580 0e93 14       		.byte	0x14
 4581 0e94 94       		.byte	0x94
 4582 0e95 48100000 		.4byte	0x1048
 4583 0e99 0007     		.2byte	0x700
 4584 0e9b 20       		.uleb128 0x20
 4585 0e9c 60030000 		.4byte	.LASF245
 4586 0ea0 14       		.byte	0x14
 4587 0ea1 95       		.byte	0x95
 4588 0ea2 DD000000 		.4byte	0xdd
 4589 0ea6 0008     		.2byte	0x800
 4590 0ea8 20       		.uleb128 0x20
 4591 0ea9 4C0B0000 		.4byte	.LASF246
 4592 0ead 14       		.byte	0x14
 4593 0eae 96       		.byte	0x96
 4594 0eaf DD000000 		.4byte	0xdd
 4595 0eb3 0408     		.2byte	0x804
 4596 0eb5 20       		.uleb128 0x20
 4597 0eb6 850E0000 		.4byte	.LASF247
 4598 0eba 14       		.byte	0x14
 4599 0ebb 97       		.byte	0x97
 4600 0ebc DD000000 		.4byte	0xdd
 4601 0ec0 0808     		.2byte	0x808
 4602 0ec2 20       		.uleb128 0x20
 4603 0ec3 EF030000 		.4byte	.LASF248
 4604 0ec7 14       		.byte	0x14
ARM GAS  C:\Users\Luis\AppData\Local\Temp\ccB0PfuY.s 			page 83


 4605 0ec8 98       		.byte	0x98
 4606 0ec9 DD000000 		.4byte	0xdd
 4607 0ecd 0C08     		.2byte	0x80c
 4608 0ecf 20       		.uleb128 0x20
 4609 0ed0 4B0D0000 		.4byte	.LASF249
 4610 0ed4 14       		.byte	0x14
 4611 0ed5 99       		.byte	0x99
 4612 0ed6 DD000000 		.4byte	0xdd
 4613 0eda 1008     		.2byte	0x810
 4614 0edc 20       		.uleb128 0x20
 4615 0edd 58020000 		.4byte	.LASF250
 4616 0ee1 14       		.byte	0x14
 4617 0ee2 9B       		.byte	0x9b
 4618 0ee3 DD000000 		.4byte	0xdd
 4619 0ee7 1408     		.2byte	0x814
 4620 0ee9 20       		.uleb128 0x20
 4621 0eea 3C020000 		.4byte	.LASF251
 4622 0eee 14       		.byte	0x14
 4623 0eef 9D       		.byte	0x9d
 4624 0ef0 DD000000 		.4byte	0xdd
 4625 0ef4 1808     		.2byte	0x818
 4626 0ef6 20       		.uleb128 0x20
 4627 0ef7 BA0B0000 		.4byte	.LASF252
 4628 0efb 14       		.byte	0x14
 4629 0efc 9F       		.byte	0x9f
 4630 0efd DD000000 		.4byte	0xdd
 4631 0f01 1C08     		.2byte	0x81c
 4632 0f03 20       		.uleb128 0x20
 4633 0f04 D5040000 		.4byte	.LASF253
 4634 0f08 14       		.byte	0x14
 4635 0f09 A1       		.byte	0xa1
 4636 0f0a DD000000 		.4byte	0xdd
 4637 0f0e 2008     		.2byte	0x820
 4638 0f10 20       		.uleb128 0x20
 4639 0f11 DE040000 		.4byte	.LASF254
 4640 0f15 14       		.byte	0x14
 4641 0f16 A2       		.byte	0xa2
 4642 0f17 DD000000 		.4byte	0xdd
 4643 0f1b 2408     		.2byte	0x824
 4644 0f1d 20       		.uleb128 0x20
 4645 0f1e C30B0000 		.4byte	.LASF255
 4646 0f22 14       		.byte	0x14
 4647 0f23 A3       		.byte	0xa3
 4648 0f24 DD000000 		.4byte	0xdd
 4649 0f28 2808     		.2byte	0x828
 4650 0f2a 20       		.uleb128 0x20
 4651 0f2b E7040000 		.4byte	.LASF256
 4652 0f2f 14       		.byte	0x14
 4653 0f30 A5       		.byte	0xa5
 4654 0f31 DD000000 		.4byte	0xdd
 4655 0f35 2C08     		.2byte	0x82c
 4656 0f37 20       		.uleb128 0x20
 4657 0f38 06080000 		.4byte	.LASF257
 4658 0f3c 14       		.byte	0x14
 4659 0f3d A7       		.byte	0xa7
 4660 0f3e DD000000 		.4byte	0xdd
 4661 0f42 3008     		.2byte	0x830
ARM GAS  C:\Users\Luis\AppData\Local\Temp\ccB0PfuY.s 			page 84


 4662 0f44 20       		.uleb128 0x20
 4663 0f45 6A0D0000 		.4byte	.LASF258
 4664 0f49 14       		.byte	0x14
 4665 0f4a A8       		.byte	0xa8
 4666 0f4b DD000000 		.4byte	0xdd
 4667 0f4f 3408     		.2byte	0x834
 4668 0f51 20       		.uleb128 0x20
 4669 0f52 17080000 		.4byte	.LASF259
 4670 0f56 14       		.byte	0x14
 4671 0f57 AA       		.byte	0xaa
 4672 0f58 DD000000 		.4byte	0xdd
 4673 0f5c 3808     		.2byte	0x838
 4674 0f5e 20       		.uleb128 0x20
 4675 0f5f 46080000 		.4byte	.LASF260
 4676 0f63 14       		.byte	0x14
 4677 0f64 AB       		.byte	0xab
 4678 0f65 DD000000 		.4byte	0xdd
 4679 0f69 3C08     		.2byte	0x83c
 4680 0f6b 20       		.uleb128 0x20
 4681 0f6c FE050000 		.4byte	.LASF261
 4682 0f70 14       		.byte	0x14
 4683 0f71 AC       		.byte	0xac
 4684 0f72 5D100000 		.4byte	0x105d
 4685 0f76 4008     		.2byte	0x840
 4686 0f78 20       		.uleb128 0x20
 4687 0f79 30080000 		.4byte	.LASF262
 4688 0f7d 14       		.byte	0x14
 4689 0f7e AD       		.byte	0xad
 4690 0f7f 62100000 		.4byte	0x1062
 4691 0f83 8008     		.2byte	0x880
 4692 0f85 20       		.uleb128 0x20
 4693 0f86 560E0000 		.4byte	.LASF263
 4694 0f8a 14       		.byte	0x14
 4695 0f8b AE       		.byte	0xae
 4696 0f8c 67100000 		.4byte	0x1067
 4697 0f90 C008     		.2byte	0x8c0
 4698 0f92 21       		.uleb128 0x21
 4699 0f93 696500   		.ascii	"ie\000"
 4700 0f96 14       		.byte	0x14
 4701 0f97 AF       		.byte	0xaf
 4702 0f98 6C100000 		.4byte	0x106c
 4703 0f9c 0009     		.2byte	0x900
 4704 0f9e 21       		.uleb128 0x21
 4705 0f9f 6F6500   		.ascii	"oe\000"
 4706 0fa2 14       		.byte	0x14
 4707 0fa3 B0       		.byte	0xb0
 4708 0fa4 7C100000 		.4byte	0x107c
 4709 0fa8 000B     		.2byte	0xb00
 4710 0faa 20       		.uleb128 0x20
 4711 0fab FF0A0000 		.4byte	.LASF264
 4712 0faf 14       		.byte	0x14
 4713 0fb0 B1       		.byte	0xb1
 4714 0fb1 8C100000 		.4byte	0x108c
 4715 0fb5 000D     		.2byte	0xd00
 4716 0fb7 20       		.uleb128 0x20
 4717 0fb8 99070000 		.4byte	.LASF265
 4718 0fbc 14       		.byte	0x14
ARM GAS  C:\Users\Luis\AppData\Local\Temp\ccB0PfuY.s 			page 85


 4719 0fbd B2       		.byte	0xb2
 4720 0fbe DD000000 		.4byte	0xdd
 4721 0fc2 000E     		.2byte	0xe00
 4722 0fc4 20       		.uleb128 0x20
 4723 0fc5 140E0000 		.4byte	.LASF266
 4724 0fc9 14       		.byte	0x14
 4725 0fca B4       		.byte	0xb4
 4726 0fcb A1100000 		.4byte	0x10a1
 4727 0fcf 040E     		.2byte	0xe04
 4728 0fd1 20       		.uleb128 0x20
 4729 0fd2 430C0000 		.4byte	.LASF267
 4730 0fd6 14       		.byte	0x14
 4731 0fd7 B5       		.byte	0xb5
 4732 0fd8 BD100000 		.4byte	0x10bd
 4733 0fdc 0010     		.2byte	0x1000
 4734 0fde 00       		.byte	0
 4735 0fdf 0A       		.uleb128 0xa
 4736 0fe0 DE040000 		.4byte	0x4de
 4737 0fe4 0A       		.uleb128 0xa
 4738 0fe5 CE040000 		.4byte	0x4ce
 4739 0fe9 08       		.uleb128 0x8
 4740 0fea C2000000 		.4byte	0xc2
 4741 0fee F90F0000 		.4byte	0xff9
 4742 0ff2 09       		.uleb128 0x9
 4743 0ff3 6F000000 		.4byte	0x6f
 4744 0ff7 AF       		.byte	0xaf
 4745 0ff8 00       		.byte	0
 4746 0ff9 0A       		.uleb128 0xa
 4747 0ffa E90F0000 		.4byte	0xfe9
 4748 0ffe 08       		.uleb128 0x8
 4749 0fff C2000000 		.4byte	0xc2
 4750 1003 0E100000 		.4byte	0x100e
 4751 1007 09       		.uleb128 0x9
 4752 1008 6F000000 		.4byte	0x6f
 4753 100c 08       		.byte	0x8
 4754 100d 00       		.byte	0
 4755 100e 0A       		.uleb128 0xa
 4756 100f FE0F0000 		.4byte	0xffe
 4757 1013 08       		.uleb128 0x8
 4758 1014 C2000000 		.4byte	0xc2
 4759 1018 23100000 		.4byte	0x1023
 4760 101c 09       		.uleb128 0x9
 4761 101d 6F000000 		.4byte	0x6f
 4762 1021 2E       		.byte	0x2e
 4763 1022 00       		.byte	0
 4764 1023 0A       		.uleb128 0xa
 4765 1024 13100000 		.4byte	0x1013
 4766 1028 08       		.uleb128 0x8
 4767 1029 0F0C0000 		.4byte	0xc0f
 4768 102d 38100000 		.4byte	0x1038
 4769 1031 09       		.uleb128 0x9
 4770 1032 6F000000 		.4byte	0x6f
 4771 1036 0F       		.byte	0xf
 4772 1037 00       		.byte	0
 4773 1038 08       		.uleb128 0x8
 4774 1039 C2000000 		.4byte	0xc2
 4775 103d 48100000 		.4byte	0x1048
ARM GAS  C:\Users\Luis\AppData\Local\Temp\ccB0PfuY.s 			page 86


 4776 1041 09       		.uleb128 0x9
 4777 1042 6F000000 		.4byte	0x6f
 4778 1046 3F       		.byte	0x3f
 4779 1047 00       		.byte	0
 4780 1048 0A       		.uleb128 0xa
 4781 1049 38100000 		.4byte	0x1038
 4782 104d 08       		.uleb128 0x8
 4783 104e C2000000 		.4byte	0xc2
 4784 1052 5D100000 		.4byte	0x105d
 4785 1056 09       		.uleb128 0x9
 4786 1057 6F000000 		.4byte	0x6f
 4787 105b 0F       		.byte	0xf
 4788 105c 00       		.byte	0
 4789 105d 0A       		.uleb128 0xa
 4790 105e 4D100000 		.4byte	0x104d
 4791 1062 0A       		.uleb128 0xa
 4792 1063 4D100000 		.4byte	0x104d
 4793 1067 0A       		.uleb128 0xa
 4794 1068 4D100000 		.4byte	0x104d
 4795 106c 08       		.uleb128 0x8
 4796 106d 830C0000 		.4byte	0xc83
 4797 1071 7C100000 		.4byte	0x107c
 4798 1075 09       		.uleb128 0x9
 4799 1076 6F000000 		.4byte	0x6f
 4800 107a 0F       		.byte	0xf
 4801 107b 00       		.byte	0
 4802 107c 08       		.uleb128 0x8
 4803 107d F70C0000 		.4byte	0xcf7
 4804 1081 8C100000 		.4byte	0x108c
 4805 1085 09       		.uleb128 0x9
 4806 1086 6F000000 		.4byte	0x6f
 4807 108a 0F       		.byte	0xf
 4808 108b 00       		.byte	0
 4809 108c 0A       		.uleb128 0xa
 4810 108d 38100000 		.4byte	0x1038
 4811 1091 08       		.uleb128 0x8
 4812 1092 C2000000 		.4byte	0xc2
 4813 1096 A1100000 		.4byte	0x10a1
 4814 109a 09       		.uleb128 0x9
 4815 109b 6F000000 		.4byte	0x6f
 4816 109f 7E       		.byte	0x7e
 4817 10a0 00       		.byte	0
 4818 10a1 0A       		.uleb128 0xa
 4819 10a2 91100000 		.4byte	0x1091
 4820 10a6 08       		.uleb128 0x8
 4821 10a7 C2000000 		.4byte	0xc2
 4822 10ab BD100000 		.4byte	0x10bd
 4823 10af 09       		.uleb128 0x9
 4824 10b0 6F000000 		.4byte	0x6f
 4825 10b4 0F       		.byte	0xf
 4826 10b5 22       		.uleb128 0x22
 4827 10b6 6F000000 		.4byte	0x6f
 4828 10ba FF03     		.2byte	0x3ff
 4829 10bc 00       		.byte	0
 4830 10bd 0A       		.uleb128 0xa
 4831 10be A6100000 		.4byte	0x10a6
 4832 10c2 03       		.uleb128 0x3
ARM GAS  C:\Users\Luis\AppData\Local\Temp\ccB0PfuY.s 			page 87


 4833 10c3 C9080000 		.4byte	.LASF268
 4834 10c7 14       		.byte	0x14
 4835 10c8 B6       		.byte	0xb6
 4836 10c9 020D0000 		.4byte	0xd02
 4837 10cd 16       		.uleb128 0x16
 4838 10ce 0C       		.byte	0xc
 4839 10cf 13       		.byte	0x13
 4840 10d0 C6       		.byte	0xc6
 4841 10d1 FA100000 		.4byte	0x10fa
 4842 10d5 0C       		.uleb128 0xc
 4843 10d6 EF0C0000 		.4byte	.LASF269
 4844 10da 13       		.byte	0x13
 4845 10db C7       		.byte	0xc7
 4846 10dc C2000000 		.4byte	0xc2
 4847 10e0 00       		.byte	0
 4848 10e1 0C       		.uleb128 0xc
 4849 10e2 EC0B0000 		.4byte	.LASF270
 4850 10e6 13       		.byte	0x13
 4851 10e7 C8       		.byte	0xc8
 4852 10e8 C2000000 		.4byte	0xc2
 4853 10ec 04       		.byte	0x4
 4854 10ed 0C       		.uleb128 0xc
 4855 10ee D3060000 		.4byte	.LASF271
 4856 10f2 13       		.byte	0x13
 4857 10f3 C9       		.byte	0xc9
 4858 10f4 C2000000 		.4byte	0xc2
 4859 10f8 08       		.byte	0x8
 4860 10f9 00       		.byte	0
 4861 10fa 03       		.uleb128 0x3
 4862 10fb 2D050000 		.4byte	.LASF272
 4863 10ff 13       		.byte	0x13
 4864 1100 CA       		.byte	0xca
 4865 1101 CD100000 		.4byte	0x10cd
 4866 1105 16       		.uleb128 0x16
 4867 1106 04       		.byte	0x4
 4868 1107 13       		.byte	0x13
 4869 1108 DD       		.byte	0xdd
 4870 1109 1A110000 		.4byte	0x111a
 4871 110d 0C       		.uleb128 0xc
 4872 110e 2D020000 		.4byte	.LASF273
 4873 1112 13       		.byte	0x13
 4874 1113 E1       		.byte	0xe1
 4875 1114 95080000 		.4byte	0x895
 4876 1118 00       		.byte	0
 4877 1119 00       		.byte	0
 4878 111a 16       		.uleb128 0x16
 4879 111b 04       		.byte	0x4
 4880 111c 13       		.byte	0x13
 4881 111d E3       		.byte	0xe3
 4882 111e 2F110000 		.4byte	0x112f
 4883 1122 0C       		.uleb128 0xc
 4884 1123 3B0D0000 		.4byte	.LASF274
 4885 1127 13       		.byte	0x13
 4886 1128 E7       		.byte	0xe7
 4887 1129 2F110000 		.4byte	0x112f
 4888 112d 00       		.byte	0
 4889 112e 00       		.byte	0
ARM GAS  C:\Users\Luis\AppData\Local\Temp\ccB0PfuY.s 			page 88


 4890 112f 06       		.uleb128 0x6
 4891 1130 04       		.byte	0x4
 4892 1131 8A080000 		.4byte	0x88a
 4893 1135 18       		.uleb128 0x18
 4894 1136 04       		.byte	0x4
 4895 1137 13       		.byte	0x13
 4896 1138 DC       		.byte	0xdc
 4897 1139 54110000 		.4byte	0x1154
 4898 113d 23       		.uleb128 0x23
 4899 113e 3F0B0000 		.4byte	.LASF275
 4900 1142 13       		.byte	0x13
 4901 1143 E2       		.byte	0xe2
 4902 1144 05110000 		.4byte	0x1105
 4903 1148 23       		.uleb128 0x23
 4904 1149 A10B0000 		.4byte	.LASF276
 4905 114d 13       		.byte	0x13
 4906 114e E8       		.byte	0xe8
 4907 114f 1A110000 		.4byte	0x111a
 4908 1153 00       		.byte	0
 4909 1154 16       		.uleb128 0x16
 4910 1155 14       		.byte	0x14
 4911 1156 13       		.byte	0x13
 4912 1157 CF       		.byte	0xcf
 4913 1158 99110000 		.4byte	0x1199
 4914 115c 0C       		.uleb128 0xc
 4915 115d 4F0F0000 		.4byte	.LASF277
 4916 1161 13       		.byte	0x13
 4917 1162 D3       		.byte	0xd3
 4918 1163 A0080000 		.4byte	0x8a0
 4919 1167 00       		.byte	0
 4920 1168 0C       		.uleb128 0xc
 4921 1169 06070000 		.4byte	.LASF278
 4922 116d 13       		.byte	0x13
 4923 116e D7       		.byte	0xd7
 4924 116f 2C000000 		.4byte	0x2c
 4925 1173 04       		.byte	0x4
 4926 1174 0C       		.uleb128 0xc
 4927 1175 E3010000 		.4byte	.LASF279
 4928 1179 13       		.byte	0x13
 4929 117a DB       		.byte	0xdb
 4930 117b 2C000000 		.4byte	0x2c
 4931 117f 08       		.byte	0x8
 4932 1180 0C       		.uleb128 0xc
 4933 1181 050D0000 		.4byte	.LASF280
 4934 1185 13       		.byte	0x13
 4935 1186 E9       		.byte	0xe9
 4936 1187 35110000 		.4byte	0x1135
 4937 118b 0C       		.byte	0xc
 4938 118c 0C       		.uleb128 0xc
 4939 118d E70C0000 		.4byte	.LASF281
 4940 1191 13       		.byte	0x13
 4941 1192 ED       		.byte	0xed
 4942 1193 2C000000 		.4byte	0x2c
 4943 1197 10       		.byte	0x10
 4944 1198 00       		.byte	0
 4945 1199 03       		.uleb128 0x3
 4946 119a C2040000 		.4byte	.LASF282
ARM GAS  C:\Users\Luis\AppData\Local\Temp\ccB0PfuY.s 			page 89


 4947 119e 13       		.byte	0x13
 4948 119f EE       		.byte	0xee
 4949 11a0 54110000 		.4byte	0x1154
 4950 11a4 1D       		.uleb128 0x1d
 4951 11a5 04       		.byte	0x4
 4952 11a6 13       		.byte	0x13
 4953 11a7 0101     		.2byte	0x101
 4954 11a9 BB110000 		.4byte	0x11bb
 4955 11ad 0E       		.uleb128 0xe
 4956 11ae 69070000 		.4byte	.LASF283
 4957 11b2 13       		.byte	0x13
 4958 11b3 0501     		.2byte	0x105
 4959 11b5 79080000 		.4byte	0x879
 4960 11b9 00       		.byte	0
 4961 11ba 00       		.byte	0
 4962 11bb 1D       		.uleb128 0x1d
 4963 11bc 04       		.byte	0x4
 4964 11bd 13       		.byte	0x13
 4965 11be 0701     		.2byte	0x107
 4966 11c0 D2110000 		.4byte	0x11d2
 4967 11c4 0E       		.uleb128 0xe
 4968 11c5 A70B0000 		.4byte	.LASF284
 4969 11c9 13       		.byte	0x13
 4970 11ca 0B01     		.2byte	0x10b
 4971 11cc D2110000 		.4byte	0x11d2
 4972 11d0 00       		.byte	0
 4973 11d1 00       		.byte	0
 4974 11d2 06       		.uleb128 0x6
 4975 11d3 04       		.byte	0x4
 4976 11d4 7F080000 		.4byte	0x87f
 4977 11d8 24       		.uleb128 0x24
 4978 11d9 04       		.byte	0x4
 4979 11da 13       		.byte	0x13
 4980 11db 0001     		.2byte	0x100
 4981 11dd FA110000 		.4byte	0x11fa
 4982 11e1 19       		.uleb128 0x19
 4983 11e2 3F0B0000 		.4byte	.LASF275
 4984 11e6 13       		.byte	0x13
 4985 11e7 0601     		.2byte	0x106
 4986 11e9 A4110000 		.4byte	0x11a4
 4987 11ed 19       		.uleb128 0x19
 4988 11ee A10B0000 		.4byte	.LASF276
 4989 11f2 13       		.byte	0x13
 4990 11f3 0C01     		.2byte	0x10c
 4991 11f5 BB110000 		.4byte	0x11bb
 4992 11f9 00       		.byte	0
 4993 11fa 16       		.uleb128 0x16
 4994 11fb 14       		.byte	0x14
 4995 11fc 13       		.byte	0x13
 4996 11fd F3       		.byte	0xf3
 4997 11fe 41120000 		.4byte	0x1241
 4998 1202 0C       		.uleb128 0xc
 4999 1203 7D0B0000 		.4byte	.LASF285
 5000 1207 13       		.byte	0x13
 5001 1208 F7       		.byte	0xf7
 5002 1209 A0080000 		.4byte	0x8a0
 5003 120d 00       		.byte	0
ARM GAS  C:\Users\Luis\AppData\Local\Temp\ccB0PfuY.s 			page 90


 5004 120e 0C       		.uleb128 0xc
 5005 120f 08030000 		.4byte	.LASF286
 5006 1213 13       		.byte	0x13
 5007 1214 FB       		.byte	0xfb
 5008 1215 2C000000 		.4byte	0x2c
 5009 1219 04       		.byte	0x4
 5010 121a 0C       		.uleb128 0xc
 5011 121b 14070000 		.4byte	.LASF287
 5012 121f 13       		.byte	0x13
 5013 1220 FF       		.byte	0xff
 5014 1221 2C000000 		.4byte	0x2c
 5015 1225 08       		.byte	0x8
 5016 1226 0E       		.uleb128 0xe
 5017 1227 050D0000 		.4byte	.LASF280
 5018 122b 13       		.byte	0x13
 5019 122c 0D01     		.2byte	0x10d
 5020 122e D8110000 		.4byte	0x11d8
 5021 1232 0C       		.byte	0xc
 5022 1233 0E       		.uleb128 0xe
 5023 1234 E70C0000 		.4byte	.LASF281
 5024 1238 13       		.byte	0x13
 5025 1239 1101     		.2byte	0x111
 5026 123b 2C000000 		.4byte	0x2c
 5027 123f 10       		.byte	0x10
 5028 1240 00       		.byte	0
 5029 1241 1C       		.uleb128 0x1c
 5030 1242 D60A0000 		.4byte	.LASF288
 5031 1246 13       		.byte	0x13
 5032 1247 1201     		.2byte	0x112
 5033 1249 FA110000 		.4byte	0x11fa
 5034 124d 1D       		.uleb128 0x1d
 5035 124e 24       		.byte	0x24
 5036 124f 13       		.byte	0x13
 5037 1250 1801     		.2byte	0x118
 5038 1252 D9120000 		.4byte	0x12d9
 5039 1256 0E       		.uleb128 0xe
 5040 1257 D4000000 		.4byte	.LASF289
 5041 125b 13       		.byte	0x13
 5042 125c 1C01     		.2byte	0x11c
 5043 125e C2000000 		.4byte	0xc2
 5044 1262 00       		.byte	0
 5045 1263 0E       		.uleb128 0xe
 5046 1264 28040000 		.4byte	.LASF290
 5047 1268 13       		.byte	0x13
 5048 1269 2701     		.2byte	0x127
 5049 126b 060B0000 		.4byte	0xb06
 5050 126f 04       		.byte	0x4
 5051 1270 0E       		.uleb128 0xe
 5052 1271 3B040000 		.4byte	.LASF291
 5053 1275 13       		.byte	0x13
 5054 1276 2D01     		.2byte	0x12d
 5055 1278 060B0000 		.4byte	0xb06
 5056 127c 08       		.byte	0x8
 5057 127d 0E       		.uleb128 0xe
 5058 127e FE080000 		.4byte	.LASF292
 5059 1282 13       		.byte	0x13
 5060 1283 3301     		.2byte	0x133
ARM GAS  C:\Users\Luis\AppData\Local\Temp\ccB0PfuY.s 			page 91


 5061 1285 060B0000 		.4byte	0xb06
 5062 1289 0C       		.byte	0xc
 5063 128a 0E       		.uleb128 0xe
 5064 128b FA090000 		.4byte	.LASF293
 5065 128f 13       		.byte	0x13
 5066 1290 3901     		.2byte	0x139
 5067 1292 AC000000 		.4byte	0xac
 5068 1296 10       		.byte	0x10
 5069 1297 0E       		.uleb128 0xe
 5070 1298 FE0B0000 		.4byte	.LASF294
 5071 129c 13       		.byte	0x13
 5072 129d 3F01     		.2byte	0x13f
 5073 129f AC000000 		.4byte	0xac
 5074 12a3 12       		.byte	0x12
 5075 12a4 0E       		.uleb128 0xe
 5076 12a5 77070000 		.4byte	.LASF295
 5077 12a9 13       		.byte	0x13
 5078 12aa 4401     		.2byte	0x144
 5079 12ac D9120000 		.4byte	0x12d9
 5080 12b0 14       		.byte	0x14
 5081 12b1 0E       		.uleb128 0xe
 5082 12b2 0D0A0000 		.4byte	.LASF296
 5083 12b6 13       		.byte	0x13
 5084 12b7 4901     		.2byte	0x149
 5085 12b9 DF120000 		.4byte	0x12df
 5086 12bd 18       		.byte	0x18
 5087 12be 0E       		.uleb128 0xe
 5088 12bf C0060000 		.4byte	.LASF297
 5089 12c3 13       		.byte	0x13
 5090 12c4 5001     		.2byte	0x150
 5091 12c6 AC000000 		.4byte	0xac
 5092 12ca 1C       		.byte	0x1c
 5093 12cb 0E       		.uleb128 0xe
 5094 12cc DC080000 		.4byte	.LASF298
 5095 12d0 13       		.byte	0x13
 5096 12d1 5601     		.2byte	0x156
 5097 12d3 79080000 		.4byte	0x879
 5098 12d7 20       		.byte	0x20
 5099 12d8 00       		.byte	0
 5100 12d9 06       		.uleb128 0x6
 5101 12da 04       		.byte	0x4
 5102 12db 99110000 		.4byte	0x1199
 5103 12df 06       		.uleb128 0x6
 5104 12e0 04       		.byte	0x4
 5105 12e1 41120000 		.4byte	0x1241
 5106 12e5 1C       		.uleb128 0x1c
 5107 12e6 620B0000 		.4byte	.LASF299
 5108 12ea 13       		.byte	0x13
 5109 12eb 5701     		.2byte	0x157
 5110 12ed 4D120000 		.4byte	0x124d
 5111 12f1 1D       		.uleb128 0x1d
 5112 12f2 10       		.byte	0x10
 5113 12f3 13       		.byte	0x13
 5114 12f4 5C01     		.2byte	0x15c
 5115 12f6 2F130000 		.4byte	0x132f
 5116 12fa 0E       		.uleb128 0xe
 5117 12fb A1070000 		.4byte	.LASF300
ARM GAS  C:\Users\Luis\AppData\Local\Temp\ccB0PfuY.s 			page 92


 5118 12ff 13       		.byte	0x13
 5119 1300 6101     		.2byte	0x161
 5120 1302 280B0000 		.4byte	0xb28
 5121 1306 00       		.byte	0
 5122 1307 0E       		.uleb128 0xe
 5123 1308 8A0E0000 		.4byte	.LASF301
 5124 130c 13       		.byte	0x13
 5125 130d 6601     		.2byte	0x166
 5126 130f 6B0B0000 		.4byte	0xb6b
 5127 1313 04       		.byte	0x4
 5128 1314 0E       		.uleb128 0xe
 5129 1315 A1030000 		.4byte	.LASF302
 5130 1319 13       		.byte	0x13
 5131 131a 6C01     		.2byte	0x16c
 5132 131c 4A0B0000 		.4byte	0xb4a
 5133 1320 08       		.byte	0x8
 5134 1321 0E       		.uleb128 0xe
 5135 1322 0D0E0000 		.4byte	.LASF303
 5136 1326 13       		.byte	0x13
 5137 1327 7001     		.2byte	0x170
 5138 1329 E30A0000 		.4byte	0xae3
 5139 132d 0C       		.byte	0xc
 5140 132e 00       		.byte	0
 5141 132f 1C       		.uleb128 0x1c
 5142 1330 A5080000 		.4byte	.LASF304
 5143 1334 13       		.byte	0x13
 5144 1335 7201     		.2byte	0x172
 5145 1337 F1120000 		.4byte	0x12f1
 5146 133b 06       		.uleb128 0x6
 5147 133c 04       		.byte	0x4
 5148 133d 41130000 		.4byte	0x1341
 5149 1341 07       		.uleb128 0x7
 5150 1342 2F130000 		.4byte	0x132f
 5151 1346 08       		.uleb128 0x8
 5152 1347 56130000 		.4byte	0x1356
 5153 134b 56130000 		.4byte	0x1356
 5154 134f 09       		.uleb128 0x9
 5155 1350 6F000000 		.4byte	0x6f
 5156 1354 05       		.byte	0x5
 5157 1355 00       		.byte	0
 5158 1356 06       		.uleb128 0x6
 5159 1357 04       		.byte	0x4
 5160 1358 5C130000 		.4byte	0x135c
 5161 135c 07       		.uleb128 0x7
 5162 135d E5120000 		.4byte	0x12e5
 5163 1361 08       		.uleb128 0x8
 5164 1362 76000000 		.4byte	0x76
 5165 1366 71130000 		.4byte	0x1371
 5166 136a 09       		.uleb128 0x9
 5167 136b 6F000000 		.4byte	0x6f
 5168 136f 04       		.byte	0x4
 5169 1370 00       		.byte	0
 5170 1371 08       		.uleb128 0x8
 5171 1372 A1000000 		.4byte	0xa1
 5172 1376 81130000 		.4byte	0x1381
 5173 137a 09       		.uleb128 0x9
 5174 137b 6F000000 		.4byte	0x6f
ARM GAS  C:\Users\Luis\AppData\Local\Temp\ccB0PfuY.s 			page 93


 5175 137f 07       		.byte	0x7
 5176 1380 00       		.byte	0
 5177 1381 06       		.uleb128 0x6
 5178 1382 04       		.byte	0x4
 5179 1383 C2100000 		.4byte	0x10c2
 5180 1387 06       		.uleb128 0x6
 5181 1388 04       		.byte	0x4
 5182 1389 8D130000 		.4byte	0x138d
 5183 138d 07       		.uleb128 0x7
 5184 138e FA100000 		.4byte	0x10fa
 5185 1392 08       		.uleb128 0x8
 5186 1393 F9040000 		.4byte	0x4f9
 5187 1397 A2130000 		.4byte	0x13a2
 5188 139b 09       		.uleb128 0x9
 5189 139c 6F000000 		.4byte	0x6f
 5190 13a0 2D       		.byte	0x2d
 5191 13a1 00       		.byte	0
 5192 13a2 25       		.uleb128 0x25
 5193 13a3 DE0B0000 		.4byte	.LASF347
 5194 13a7 02       		.byte	0x2
 5195 13a8 2002     		.2byte	0x220
 5196 13aa 03       		.byte	0x3
 5197 13ab BC130000 		.4byte	0x13bc
 5198 13af 26       		.uleb128 0x26
 5199 13b0 B8030000 		.4byte	.LASF348
 5200 13b4 02       		.byte	0x2
 5201 13b5 2002     		.2byte	0x220
 5202 13b7 C2000000 		.4byte	0xc2
 5203 13bb 00       		.byte	0
 5204 13bc 27       		.uleb128 0x27
 5205 13bd B90C0000 		.4byte	.LASF305
 5206 13c1 01       		.byte	0x1
 5207 13c2 BC01     		.2byte	0x1bc
 5208 13c4 00000000 		.4byte	.LFB116
 5209 13c8 1A000000 		.4byte	.LFE116-.LFB116
 5210 13cc 01       		.uleb128 0x1
 5211 13cd 9C       		.byte	0x9c
 5212 13ce EC130000 		.4byte	0x13ec
 5213 13d2 28       		.uleb128 0x28
 5214 13d3 A2130000 		.4byte	0x13a2
 5215 13d7 0A000000 		.4byte	.LBB6
 5216 13db 06000000 		.4byte	.LBE6-.LBB6
 5217 13df 01       		.byte	0x1
 5218 13e0 BF01     		.2byte	0x1bf
 5219 13e2 29       		.uleb128 0x29
 5220 13e3 AF130000 		.4byte	0x13af
 5221 13e7 02       		.uleb128 0x2
 5222 13e8 91       		.byte	0x91
 5223 13e9 74       		.sleb128 -12
 5224 13ea 00       		.byte	0
 5225 13eb 00       		.byte	0
 5226 13ec 27       		.uleb128 0x27
 5227 13ed CF010000 		.4byte	.LASF306
 5228 13f1 01       		.byte	0x1
 5229 13f2 CA01     		.2byte	0x1ca
 5230 13f4 00000000 		.4byte	.LFB117
 5231 13f8 1A000000 		.4byte	.LFE117-.LFB117
ARM GAS  C:\Users\Luis\AppData\Local\Temp\ccB0PfuY.s 			page 94


 5232 13fc 01       		.uleb128 0x1
 5233 13fd 9C       		.byte	0x9c
 5234 13fe 1C140000 		.4byte	0x141c
 5235 1402 28       		.uleb128 0x28
 5236 1403 A2130000 		.4byte	0x13a2
 5237 1407 0A000000 		.4byte	.LBB8
 5238 140b 06000000 		.4byte	.LBE8-.LBB8
 5239 140f 01       		.byte	0x1
 5240 1410 CD01     		.2byte	0x1cd
 5241 1412 29       		.uleb128 0x29
 5242 1413 AF130000 		.4byte	0x13af
 5243 1417 02       		.uleb128 0x2
 5244 1418 91       		.byte	0x91
 5245 1419 74       		.sleb128 -12
 5246 141a 00       		.byte	0
 5247 141b 00       		.byte	0
 5248 141c 2A       		.uleb128 0x2a
 5249 141d D2070000 		.4byte	.LASF307
 5250 1421 01       		.byte	0x1
 5251 1422 D901     		.2byte	0x1d9
 5252 1424 00000000 		.4byte	.LFB118
 5253 1428 0A000000 		.4byte	.LFE118-.LFB118
 5254 142c 01       		.uleb128 0x1
 5255 142d 9C       		.byte	0x9c
 5256 142e 2A       		.uleb128 0x2a
 5257 142f 960A0000 		.4byte	.LASF308
 5258 1433 01       		.byte	0x1
 5259 1434 E401     		.2byte	0x1e4
 5260 1436 00000000 		.4byte	.LFB119
 5261 143a 0A000000 		.4byte	.LFE119-.LFB119
 5262 143e 01       		.uleb128 0x1
 5263 143f 9C       		.byte	0x9c
 5264 1440 2A       		.uleb128 0x2a
 5265 1441 5D060000 		.4byte	.LASF309
 5266 1445 03       		.byte	0x3
 5267 1446 5A01     		.2byte	0x15a
 5268 1448 00000000 		.4byte	.LFB156
 5269 144c 12000000 		.4byte	.LFE156-.LFB156
 5270 1450 01       		.uleb128 0x1
 5271 1451 9C       		.byte	0x9c
 5272 1452 2B       		.uleb128 0x2b
 5273 1453 2C060000 		.4byte	.LASF310
 5274 1457 03       		.byte	0x3
 5275 1458 6601     		.2byte	0x166
 5276 145a 00000000 		.4byte	.LFB157
 5277 145e 3C000000 		.4byte	.LFE157-.LFB157
 5278 1462 01       		.uleb128 0x1
 5279 1463 9C       		.byte	0x9c
 5280 1464 78140000 		.4byte	0x1478
 5281 1468 2C       		.uleb128 0x2c
 5282 1469 AA000000 		.4byte	.LASF323
 5283 146d 88140000 		.4byte	0x1488
 5284 1471 05       		.uleb128 0x5
 5285 1472 03       		.byte	0x3
 5286 1473 00000000 		.4byte	__func__.6186
 5287 1477 00       		.byte	0
 5288 1478 08       		.uleb128 0x8
ARM GAS  C:\Users\Luis\AppData\Local\Temp\ccB0PfuY.s 			page 95


 5289 1479 7F000000 		.4byte	0x7f
 5290 147d 88140000 		.4byte	0x1488
 5291 1481 09       		.uleb128 0x9
 5292 1482 6F000000 		.4byte	0x6f
 5293 1486 0B       		.byte	0xb
 5294 1487 00       		.byte	0
 5295 1488 07       		.uleb128 0x7
 5296 1489 78140000 		.4byte	0x1478
 5297 148d 2A       		.uleb128 0x2a
 5298 148e F0010000 		.4byte	.LASF311
 5299 1492 03       		.byte	0x3
 5300 1493 8201     		.2byte	0x182
 5301 1495 00000000 		.4byte	.LFB158
 5302 1499 12000000 		.4byte	.LFE158-.LFB158
 5303 149d 01       		.uleb128 0x1
 5304 149e 9C       		.byte	0x9c
 5305 149f 2A       		.uleb128 0x2a
 5306 14a0 15030000 		.4byte	.LASF312
 5307 14a4 03       		.byte	0x3
 5308 14a5 9601     		.2byte	0x196
 5309 14a7 00000000 		.4byte	.LFB159
 5310 14ab 12000000 		.4byte	.LFE159-.LFB159
 5311 14af 01       		.uleb128 0x1
 5312 14b0 9C       		.byte	0x9c
 5313 14b1 2A       		.uleb128 0x2a
 5314 14b2 89020000 		.4byte	.LASF313
 5315 14b6 04       		.byte	0x4
 5316 14b7 EB01     		.2byte	0x1eb
 5317 14b9 00000000 		.4byte	.LFB233
 5318 14bd 0A000000 		.4byte	.LFE233-.LFB233
 5319 14c1 01       		.uleb128 0x1
 5320 14c2 9C       		.byte	0x9c
 5321 14c3 2A       		.uleb128 0x2a
 5322 14c4 48010000 		.4byte	.LASF314
 5323 14c8 04       		.byte	0x4
 5324 14c9 F601     		.2byte	0x1f6
 5325 14cb 00000000 		.4byte	.LFB234
 5326 14cf 0A000000 		.4byte	.LFE234-.LFB234
 5327 14d3 01       		.uleb128 0x1
 5328 14d4 9C       		.byte	0x9c
 5329 14d5 2A       		.uleb128 0x2a
 5330 14d6 35010000 		.4byte	.LASF315
 5331 14da 04       		.byte	0x4
 5332 14db 0102     		.2byte	0x201
 5333 14dd 00000000 		.4byte	.LFB235
 5334 14e1 0A000000 		.4byte	.LFE235-.LFB235
 5335 14e5 01       		.uleb128 0x1
 5336 14e6 9C       		.byte	0x9c
 5337 14e7 2A       		.uleb128 0x2a
 5338 14e8 CB050000 		.4byte	.LASF316
 5339 14ec 04       		.byte	0x4
 5340 14ed 0C02     		.2byte	0x20c
 5341 14ef 00000000 		.4byte	.LFB236
 5342 14f3 0A000000 		.4byte	.LFE236-.LFB236
 5343 14f7 01       		.uleb128 0x1
 5344 14f8 9C       		.byte	0x9c
 5345 14f9 2D       		.uleb128 0x2d
ARM GAS  C:\Users\Luis\AppData\Local\Temp\ccB0PfuY.s 			page 96


 5346 14fa 77020000 		.4byte	.LASF319
 5347 14fe 05       		.byte	0x5
 5348 14ff 33       		.byte	0x33
 5349 1500 AC000000 		.4byte	0xac
 5350 1504 00000000 		.4byte	.LFB260
 5351 1508 30000000 		.4byte	.LFE260-.LFB260
 5352 150c 01       		.uleb128 0x1
 5353 150d 9C       		.byte	0x9c
 5354 150e 2C150000 		.4byte	0x152c
 5355 1512 2E       		.uleb128 0x2e
 5356 1513 7000     		.ascii	"p\000"
 5357 1515 05       		.byte	0x5
 5358 1516 33       		.byte	0x33
 5359 1517 79080000 		.4byte	0x879
 5360 151b 02       		.uleb128 0x2
 5361 151c 91       		.byte	0x91
 5362 151d 6C       		.sleb128 -20
 5363 151e 2F       		.uleb128 0x2f
 5364 151f 687700   		.ascii	"hw\000"
 5365 1522 05       		.byte	0x5
 5366 1523 34       		.byte	0x34
 5367 1524 AC000000 		.4byte	0xac
 5368 1528 02       		.uleb128 0x2
 5369 1529 91       		.byte	0x91
 5370 152a 76       		.sleb128 -10
 5371 152b 00       		.byte	0
 5372 152c 30       		.uleb128 0x30
 5373 152d 220C0000 		.4byte	.LASF317
 5374 1531 05       		.byte	0x5
 5375 1532 40       		.byte	0x40
 5376 1533 00000000 		.4byte	.LFB261
 5377 1537 3C000000 		.4byte	.LFE261-.LFB261
 5378 153b 01       		.uleb128 0x1
 5379 153c 9C       		.byte	0x9c
 5380 153d 50150000 		.4byte	0x1550
 5381 1541 31       		.uleb128 0x31
 5382 1542 CE060000 		.4byte	.LASF318
 5383 1546 05       		.byte	0x5
 5384 1547 40       		.byte	0x40
 5385 1548 000B0000 		.4byte	0xb00
 5386 154c 02       		.uleb128 0x2
 5387 154d 91       		.byte	0x91
 5388 154e 74       		.sleb128 -12
 5389 154f 00       		.byte	0
 5390 1550 32       		.uleb128 0x32
 5391 1551 120C0000 		.4byte	.LASF320
 5392 1555 05       		.byte	0x5
 5393 1556 54       		.byte	0x54
 5394 1557 A0080000 		.4byte	0x8a0
 5395 155b 00000000 		.4byte	.LFB262
 5396 155f A4030000 		.4byte	.LFE262-.LFB262
 5397 1563 01       		.uleb128 0x1
 5398 1564 9C       		.byte	0x9c
 5399 1565 85150000 		.4byte	0x1585
 5400 1569 31       		.uleb128 0x31
 5401 156a CE060000 		.4byte	.LASF318
 5402 156e 05       		.byte	0x5
ARM GAS  C:\Users\Luis\AppData\Local\Temp\ccB0PfuY.s 			page 97


 5403 156f 54       		.byte	0x54
 5404 1570 000B0000 		.4byte	0xb00
 5405 1574 02       		.uleb128 0x2
 5406 1575 91       		.byte	0x91
 5407 1576 5C       		.sleb128 -36
 5408 1577 2F       		.uleb128 0x2f
 5409 1578 647000   		.ascii	"dp\000"
 5410 157b 05       		.byte	0x5
 5411 157c 55       		.byte	0x55
 5412 157d 9B0B0000 		.4byte	0xb9b
 5413 1581 02       		.uleb128 0x2
 5414 1582 91       		.byte	0x91
 5415 1583 64       		.sleb128 -28
 5416 1584 00       		.byte	0
 5417 1585 33       		.uleb128 0x33
 5418 1586 F70A0000 		.4byte	.LASF349
 5419 158a 05       		.byte	0x5
 5420 158b FE       		.byte	0xfe
 5421 158c 00000000 		.4byte	.LFB263
 5422 1590 0A000000 		.4byte	.LFE263-.LFB263
 5423 1594 01       		.uleb128 0x1
 5424 1595 9C       		.byte	0x9c
 5425 1596 34       		.uleb128 0x34
 5426 1597 60020000 		.4byte	.LASF321
 5427 159b 05       		.byte	0x5
 5428 159c 0A01     		.2byte	0x10a
 5429 159e 00000000 		.4byte	.LFB264
 5430 15a2 56000000 		.4byte	.LFE264-.LFB264
 5431 15a6 01       		.uleb128 0x1
 5432 15a7 9C       		.byte	0x9c
 5433 15a8 C9150000 		.4byte	0x15c9
 5434 15ac 35       		.uleb128 0x35
 5435 15ad CE060000 		.4byte	.LASF318
 5436 15b1 05       		.byte	0x5
 5437 15b2 0A01     		.2byte	0x10a
 5438 15b4 000B0000 		.4byte	0xb00
 5439 15b8 02       		.uleb128 0x2
 5440 15b9 91       		.byte	0x91
 5441 15ba 6C       		.sleb128 -20
 5442 15bb 36       		.uleb128 0x36
 5443 15bc 6900     		.ascii	"i\000"
 5444 15be 05       		.byte	0x5
 5445 15bf 0B01     		.2byte	0x10b
 5446 15c1 37000000 		.4byte	0x37
 5447 15c5 02       		.uleb128 0x2
 5448 15c6 91       		.byte	0x91
 5449 15c7 74       		.sleb128 -12
 5450 15c8 00       		.byte	0
 5451 15c9 37       		.uleb128 0x37
 5452 15ca 480C0000 		.4byte	.LASF322
 5453 15ce 05       		.byte	0x5
 5454 15cf 1F01     		.2byte	0x11f
 5455 15d1 00000000 		.4byte	.LFB265
 5456 15d5 78000000 		.4byte	.LFE265-.LFB265
 5457 15d9 01       		.uleb128 0x1
 5458 15da 9C       		.byte	0x9c
 5459 15db 1A160000 		.4byte	0x161a
ARM GAS  C:\Users\Luis\AppData\Local\Temp\ccB0PfuY.s 			page 98


 5460 15df 35       		.uleb128 0x35
 5461 15e0 CE060000 		.4byte	.LASF318
 5462 15e4 05       		.byte	0x5
 5463 15e5 1F01     		.2byte	0x11f
 5464 15e7 000B0000 		.4byte	0xb00
 5465 15eb 02       		.uleb128 0x2
 5466 15ec 91       		.byte	0x91
 5467 15ed 6C       		.sleb128 -20
 5468 15ee 35       		.uleb128 0x35
 5469 15ef C7000000 		.4byte	.LASF143
 5470 15f3 05       		.byte	0x5
 5471 15f4 1F01     		.2byte	0x11f
 5472 15f6 3B130000 		.4byte	0x133b
 5473 15fa 02       		.uleb128 0x2
 5474 15fb 91       		.byte	0x91
 5475 15fc 68       		.sleb128 -24
 5476 15fd 36       		.uleb128 0x36
 5477 15fe 6900     		.ascii	"i\000"
 5478 1600 05       		.byte	0x5
 5479 1601 2001     		.2byte	0x120
 5480 1603 37000000 		.4byte	0x37
 5481 1607 02       		.uleb128 0x2
 5482 1608 91       		.byte	0x91
 5483 1609 74       		.sleb128 -12
 5484 160a 2C       		.uleb128 0x2c
 5485 160b AA000000 		.4byte	.LASF323
 5486 160f 2A160000 		.4byte	0x162a
 5487 1613 05       		.uleb128 0x5
 5488 1614 03       		.byte	0x3
 5489 1615 00000000 		.4byte	__func__.8302
 5490 1619 00       		.byte	0
 5491 161a 08       		.uleb128 0x8
 5492 161b 7F000000 		.4byte	0x7f
 5493 161f 2A160000 		.4byte	0x162a
 5494 1623 09       		.uleb128 0x9
 5495 1624 6F000000 		.4byte	0x6f
 5496 1628 08       		.byte	0x8
 5497 1629 00       		.byte	0
 5498 162a 07       		.uleb128 0x7
 5499 162b 1A160000 		.4byte	0x161a
 5500 162f 37       		.uleb128 0x37
 5501 1630 E2030000 		.4byte	.LASF324
 5502 1634 05       		.byte	0x5
 5503 1635 3701     		.2byte	0x137
 5504 1637 00000000 		.4byte	.LFB266
 5505 163b 58000000 		.4byte	.LFE266-.LFB266
 5506 163f 01       		.uleb128 0x1
 5507 1640 9C       		.byte	0x9c
 5508 1641 64160000 		.4byte	0x1664
 5509 1645 35       		.uleb128 0x35
 5510 1646 CE060000 		.4byte	.LASF318
 5511 164a 05       		.byte	0x5
 5512 164b 3701     		.2byte	0x137
 5513 164d 000B0000 		.4byte	0xb00
 5514 1651 02       		.uleb128 0x2
 5515 1652 91       		.byte	0x91
 5516 1653 74       		.sleb128 -12
ARM GAS  C:\Users\Luis\AppData\Local\Temp\ccB0PfuY.s 			page 99


 5517 1654 2C       		.uleb128 0x2c
 5518 1655 AA000000 		.4byte	.LASF323
 5519 1659 64160000 		.4byte	0x1664
 5520 165d 05       		.uleb128 0x5
 5521 165e 03       		.byte	0x3
 5522 165f 00000000 		.4byte	__func__.8309
 5523 1663 00       		.byte	0
 5524 1664 07       		.uleb128 0x7
 5525 1665 91000000 		.4byte	0x91
 5526 1669 37       		.uleb128 0x37
 5527 166a 900B0000 		.4byte	.LASF325
 5528 166e 05       		.byte	0x5
 5529 166f 5101     		.2byte	0x151
 5530 1671 00000000 		.4byte	.LFB267
 5531 1675 98000000 		.4byte	.LFE267-.LFB267
 5532 1679 01       		.uleb128 0x1
 5533 167a 9C       		.byte	0x9c
 5534 167b BB160000 		.4byte	0x16bb
 5535 167f 35       		.uleb128 0x35
 5536 1680 CE060000 		.4byte	.LASF318
 5537 1684 05       		.byte	0x5
 5538 1685 5101     		.2byte	0x151
 5539 1687 000B0000 		.4byte	0xb00
 5540 168b 02       		.uleb128 0x2
 5541 168c 91       		.byte	0x91
 5542 168d 74       		.sleb128 -12
 5543 168e 38       		.uleb128 0x38
 5544 168f 657000   		.ascii	"ep\000"
 5545 1692 05       		.byte	0x5
 5546 1693 5101     		.2byte	0x151
 5547 1695 DE090000 		.4byte	0x9de
 5548 1699 02       		.uleb128 0x2
 5549 169a 91       		.byte	0x91
 5550 169b 73       		.sleb128 -13
 5551 169c 35       		.uleb128 0x35
 5552 169d FD0E0000 		.4byte	.LASF326
 5553 16a1 05       		.byte	0x5
 5554 16a2 5201     		.2byte	0x152
 5555 16a4 56130000 		.4byte	0x1356
 5556 16a8 02       		.uleb128 0x2
 5557 16a9 91       		.byte	0x91
 5558 16aa 6C       		.sleb128 -20
 5559 16ab 2C       		.uleb128 0x2c
 5560 16ac AA000000 		.4byte	.LASF323
 5561 16b0 CB160000 		.4byte	0x16cb
 5562 16b4 05       		.uleb128 0x5
 5563 16b5 03       		.byte	0x3
 5564 16b6 00000000 		.4byte	__func__.8315
 5565 16ba 00       		.byte	0
 5566 16bb 08       		.uleb128 0x8
 5567 16bc 7F000000 		.4byte	0x7f
 5568 16c0 CB160000 		.4byte	0x16cb
 5569 16c4 09       		.uleb128 0x9
 5570 16c5 6F000000 		.4byte	0x6f
 5571 16c9 10       		.byte	0x10
 5572 16ca 00       		.byte	0
 5573 16cb 07       		.uleb128 0x7
ARM GAS  C:\Users\Luis\AppData\Local\Temp\ccB0PfuY.s 			page 100


 5574 16cc BB160000 		.4byte	0x16bb
 5575 16d0 37       		.uleb128 0x37
 5576 16d1 4C040000 		.4byte	.LASF327
 5577 16d5 05       		.byte	0x5
 5578 16d6 7301     		.2byte	0x173
 5579 16d8 00000000 		.4byte	.LFB268
 5580 16dc 74000000 		.4byte	.LFE268-.LFB268
 5581 16e0 01       		.uleb128 0x1
 5582 16e1 9C       		.byte	0x9c
 5583 16e2 12170000 		.4byte	0x1712
 5584 16e6 35       		.uleb128 0x35
 5585 16e7 CE060000 		.4byte	.LASF318
 5586 16eb 05       		.byte	0x5
 5587 16ec 7301     		.2byte	0x173
 5588 16ee 000B0000 		.4byte	0xb00
 5589 16f2 02       		.uleb128 0x2
 5590 16f3 91       		.byte	0x91
 5591 16f4 6C       		.sleb128 -20
 5592 16f5 36       		.uleb128 0x36
 5593 16f6 6900     		.ascii	"i\000"
 5594 16f8 05       		.byte	0x5
 5595 16f9 7401     		.2byte	0x174
 5596 16fb 37000000 		.4byte	0x37
 5597 16ff 02       		.uleb128 0x2
 5598 1700 91       		.byte	0x91
 5599 1701 74       		.sleb128 -12
 5600 1702 2C       		.uleb128 0x2c
 5601 1703 AA000000 		.4byte	.LASF323
 5602 1707 22170000 		.4byte	0x1722
 5603 170b 05       		.uleb128 0x5
 5604 170c 03       		.byte	0x3
 5605 170d 00000000 		.4byte	__func__.8320
 5606 1711 00       		.byte	0
 5607 1712 08       		.uleb128 0x8
 5608 1713 7F000000 		.4byte	0x7f
 5609 1717 22170000 		.4byte	0x1722
 5610 171b 09       		.uleb128 0x9
 5611 171c 6F000000 		.4byte	0x6f
 5612 1720 14       		.byte	0x14
 5613 1721 00       		.byte	0
 5614 1722 07       		.uleb128 0x7
 5615 1723 12170000 		.4byte	0x1712
 5616 1727 37       		.uleb128 0x37
 5617 1728 CB0C0000 		.4byte	.LASF328
 5618 172c 05       		.byte	0x5
 5619 172d 9001     		.2byte	0x190
 5620 172f 00000000 		.4byte	.LFB269
 5621 1733 48000000 		.4byte	.LFE269-.LFB269
 5622 1737 01       		.uleb128 0x1
 5623 1738 9C       		.byte	0x9c
 5624 1739 86170000 		.4byte	0x1786
 5625 173d 35       		.uleb128 0x35
 5626 173e CE060000 		.4byte	.LASF318
 5627 1742 05       		.byte	0x5
 5628 1743 9001     		.2byte	0x190
 5629 1745 000B0000 		.4byte	0xb00
 5630 1749 02       		.uleb128 0x2
ARM GAS  C:\Users\Luis\AppData\Local\Temp\ccB0PfuY.s 			page 101


 5631 174a 91       		.byte	0x91
 5632 174b 6C       		.sleb128 -20
 5633 174c 38       		.uleb128 0x38
 5634 174d 657000   		.ascii	"ep\000"
 5635 1750 05       		.byte	0x5
 5636 1751 9001     		.2byte	0x190
 5637 1753 DE090000 		.4byte	0x9de
 5638 1757 02       		.uleb128 0x2
 5639 1758 91       		.byte	0x91
 5640 1759 6B       		.sleb128 -21
 5641 175a 38       		.uleb128 0x38
 5642 175b 62756600 		.ascii	"buf\000"
 5643 175f 05       		.byte	0x5
 5644 1760 9001     		.2byte	0x190
 5645 1762 79080000 		.4byte	0x879
 5646 1766 02       		.uleb128 0x2
 5647 1767 91       		.byte	0x91
 5648 1768 64       		.sleb128 -28
 5649 1769 38       		.uleb128 0x38
 5650 176a 6E00     		.ascii	"n\000"
 5651 176c 05       		.byte	0x5
 5652 176d 9001     		.2byte	0x190
 5653 176f 2C000000 		.4byte	0x2c
 5654 1773 02       		.uleb128 0x2
 5655 1774 91       		.byte	0x91
 5656 1775 60       		.sleb128 -32
 5657 1776 36       		.uleb128 0x36
 5658 1777 6F737000 		.ascii	"osp\000"
 5659 177b 05       		.byte	0x5
 5660 177c 9101     		.2byte	0x191
 5661 177e DF120000 		.4byte	0x12df
 5662 1782 02       		.uleb128 0x2
 5663 1783 91       		.byte	0x91
 5664 1784 74       		.sleb128 -12
 5665 1785 00       		.byte	0
 5666 1786 37       		.uleb128 0x37
 5667 1787 4A060000 		.4byte	.LASF329
 5668 178b 05       		.byte	0x5
 5669 178c A901     		.2byte	0x1a9
 5670 178e 00000000 		.4byte	.LFB270
 5671 1792 48000000 		.4byte	.LFE270-.LFB270
 5672 1796 01       		.uleb128 0x1
 5673 1797 9C       		.byte	0x9c
 5674 1798 E5170000 		.4byte	0x17e5
 5675 179c 35       		.uleb128 0x35
 5676 179d CE060000 		.4byte	.LASF318
 5677 17a1 05       		.byte	0x5
 5678 17a2 A901     		.2byte	0x1a9
 5679 17a4 000B0000 		.4byte	0xb00
 5680 17a8 02       		.uleb128 0x2
 5681 17a9 91       		.byte	0x91
 5682 17aa 6C       		.sleb128 -20
 5683 17ab 38       		.uleb128 0x38
 5684 17ac 657000   		.ascii	"ep\000"
 5685 17af 05       		.byte	0x5
 5686 17b0 A901     		.2byte	0x1a9
 5687 17b2 DE090000 		.4byte	0x9de
ARM GAS  C:\Users\Luis\AppData\Local\Temp\ccB0PfuY.s 			page 102


 5688 17b6 02       		.uleb128 0x2
 5689 17b7 91       		.byte	0x91
 5690 17b8 6B       		.sleb128 -21
 5691 17b9 38       		.uleb128 0x38
 5692 17ba 62756600 		.ascii	"buf\000"
 5693 17be 05       		.byte	0x5
 5694 17bf AA01     		.2byte	0x1aa
 5695 17c1 95080000 		.4byte	0x895
 5696 17c5 02       		.uleb128 0x2
 5697 17c6 91       		.byte	0x91
 5698 17c7 64       		.sleb128 -28
 5699 17c8 38       		.uleb128 0x38
 5700 17c9 6E00     		.ascii	"n\000"
 5701 17cb 05       		.byte	0x5
 5702 17cc AA01     		.2byte	0x1aa
 5703 17ce 2C000000 		.4byte	0x2c
 5704 17d2 02       		.uleb128 0x2
 5705 17d3 91       		.byte	0x91
 5706 17d4 60       		.sleb128 -32
 5707 17d5 36       		.uleb128 0x36
 5708 17d6 69737000 		.ascii	"isp\000"
 5709 17da 05       		.byte	0x5
 5710 17db AB01     		.2byte	0x1ab
 5711 17dd D9120000 		.4byte	0x12d9
 5712 17e1 02       		.uleb128 0x2
 5713 17e2 91       		.byte	0x91
 5714 17e3 74       		.sleb128 -12
 5715 17e4 00       		.byte	0
 5716 17e5 37       		.uleb128 0x37
 5717 17e6 980D0000 		.4byte	.LASF330
 5718 17ea 05       		.byte	0x5
 5719 17eb C601     		.2byte	0x1c6
 5720 17ed 00000000 		.4byte	.LFB271
 5721 17f1 48000000 		.4byte	.LFE271-.LFB271
 5722 17f5 01       		.uleb128 0x1
 5723 17f6 9C       		.byte	0x9c
 5724 17f7 44180000 		.4byte	0x1844
 5725 17fb 35       		.uleb128 0x35
 5726 17fc CE060000 		.4byte	.LASF318
 5727 1800 05       		.byte	0x5
 5728 1801 C601     		.2byte	0x1c6
 5729 1803 000B0000 		.4byte	0xb00
 5730 1807 02       		.uleb128 0x2
 5731 1808 91       		.byte	0x91
 5732 1809 6C       		.sleb128 -20
 5733 180a 38       		.uleb128 0x38
 5734 180b 657000   		.ascii	"ep\000"
 5735 180e 05       		.byte	0x5
 5736 180f C601     		.2byte	0x1c6
 5737 1811 DE090000 		.4byte	0x9de
 5738 1815 02       		.uleb128 0x2
 5739 1816 91       		.byte	0x91
 5740 1817 6B       		.sleb128 -21
 5741 1818 38       		.uleb128 0x38
 5742 1819 69717000 		.ascii	"iqp\000"
 5743 181d 05       		.byte	0x5
 5744 181e C701     		.2byte	0x1c7
ARM GAS  C:\Users\Luis\AppData\Local\Temp\ccB0PfuY.s 			page 103


 5745 1820 D2110000 		.4byte	0x11d2
 5746 1824 02       		.uleb128 0x2
 5747 1825 91       		.byte	0x91
 5748 1826 64       		.sleb128 -28
 5749 1827 38       		.uleb128 0x38
 5750 1828 6E00     		.ascii	"n\000"
 5751 182a 05       		.byte	0x5
 5752 182b C701     		.2byte	0x1c7
 5753 182d 2C000000 		.4byte	0x2c
 5754 1831 02       		.uleb128 0x2
 5755 1832 91       		.byte	0x91
 5756 1833 60       		.sleb128 -32
 5757 1834 36       		.uleb128 0x36
 5758 1835 6F737000 		.ascii	"osp\000"
 5759 1839 05       		.byte	0x5
 5760 183a C801     		.2byte	0x1c8
 5761 183c DF120000 		.4byte	0x12df
 5762 1840 02       		.uleb128 0x2
 5763 1841 91       		.byte	0x91
 5764 1842 74       		.sleb128 -12
 5765 1843 00       		.byte	0
 5766 1844 37       		.uleb128 0x37
 5767 1845 DC000000 		.4byte	.LASF331
 5768 1849 05       		.byte	0x5
 5769 184a E001     		.2byte	0x1e0
 5770 184c 00000000 		.4byte	.LFB272
 5771 1850 48000000 		.4byte	.LFE272-.LFB272
 5772 1854 01       		.uleb128 0x1
 5773 1855 9C       		.byte	0x9c
 5774 1856 A3180000 		.4byte	0x18a3
 5775 185a 35       		.uleb128 0x35
 5776 185b CE060000 		.4byte	.LASF318
 5777 185f 05       		.byte	0x5
 5778 1860 E001     		.2byte	0x1e0
 5779 1862 000B0000 		.4byte	0xb00
 5780 1866 02       		.uleb128 0x2
 5781 1867 91       		.byte	0x91
 5782 1868 6C       		.sleb128 -20
 5783 1869 38       		.uleb128 0x38
 5784 186a 657000   		.ascii	"ep\000"
 5785 186d 05       		.byte	0x5
 5786 186e E001     		.2byte	0x1e0
 5787 1870 DE090000 		.4byte	0x9de
 5788 1874 02       		.uleb128 0x2
 5789 1875 91       		.byte	0x91
 5790 1876 6B       		.sleb128 -21
 5791 1877 38       		.uleb128 0x38
 5792 1878 6F717000 		.ascii	"oqp\000"
 5793 187c 05       		.byte	0x5
 5794 187d E101     		.2byte	0x1e1
 5795 187f 2F110000 		.4byte	0x112f
 5796 1883 02       		.uleb128 0x2
 5797 1884 91       		.byte	0x91
 5798 1885 64       		.sleb128 -28
 5799 1886 38       		.uleb128 0x38
 5800 1887 6E00     		.ascii	"n\000"
 5801 1889 05       		.byte	0x5
ARM GAS  C:\Users\Luis\AppData\Local\Temp\ccB0PfuY.s 			page 104


 5802 188a E101     		.2byte	0x1e1
 5803 188c 2C000000 		.4byte	0x2c
 5804 1890 02       		.uleb128 0x2
 5805 1891 91       		.byte	0x91
 5806 1892 60       		.sleb128 -32
 5807 1893 36       		.uleb128 0x36
 5808 1894 69737000 		.ascii	"isp\000"
 5809 1898 05       		.byte	0x5
 5810 1899 E201     		.2byte	0x1e2
 5811 189b D9120000 		.4byte	0x12d9
 5812 189f 02       		.uleb128 0x2
 5813 18a0 91       		.byte	0x91
 5814 18a1 74       		.sleb128 -12
 5815 18a2 00       		.byte	0
 5816 18a3 39       		.uleb128 0x39
 5817 18a4 99000000 		.4byte	.LASF332
 5818 18a8 05       		.byte	0x5
 5819 18a9 FA01     		.2byte	0x1fa
 5820 18ab A0080000 		.4byte	0x8a0
 5821 18af 00000000 		.4byte	.LFB273
 5822 18b3 64000000 		.4byte	.LFE273-.LFB273
 5823 18b7 01       		.uleb128 0x1
 5824 18b8 9C       		.byte	0x9c
 5825 18b9 EA180000 		.4byte	0x18ea
 5826 18bd 35       		.uleb128 0x35
 5827 18be CE060000 		.4byte	.LASF318
 5828 18c2 05       		.byte	0x5
 5829 18c3 FA01     		.2byte	0x1fa
 5830 18c5 000B0000 		.4byte	0xb00
 5831 18c9 02       		.uleb128 0x2
 5832 18ca 91       		.byte	0x91
 5833 18cb 74       		.sleb128 -12
 5834 18cc 38       		.uleb128 0x38
 5835 18cd 657000   		.ascii	"ep\000"
 5836 18d0 05       		.byte	0x5
 5837 18d1 FA01     		.2byte	0x1fa
 5838 18d3 DE090000 		.4byte	0x9de
 5839 18d7 02       		.uleb128 0x2
 5840 18d8 91       		.byte	0x91
 5841 18d9 73       		.sleb128 -13
 5842 18da 2C       		.uleb128 0x2c
 5843 18db AA000000 		.4byte	.LASF323
 5844 18df EA180000 		.4byte	0x18ea
 5845 18e3 05       		.uleb128 0x5
 5846 18e4 03       		.byte	0x3
 5847 18e5 00000000 		.4byte	__func__.8356
 5848 18e9 00       		.byte	0
 5849 18ea 07       		.uleb128 0x7
 5850 18eb BB160000 		.4byte	0x16bb
 5851 18ef 39       		.uleb128 0x39
 5852 18f0 A70C0000 		.4byte	.LASF333
 5853 18f4 05       		.byte	0x5
 5854 18f5 1602     		.2byte	0x216
 5855 18f7 A0080000 		.4byte	0x8a0
 5856 18fb 00000000 		.4byte	.LFB274
 5857 18ff 64000000 		.4byte	.LFE274-.LFB274
 5858 1903 01       		.uleb128 0x1
ARM GAS  C:\Users\Luis\AppData\Local\Temp\ccB0PfuY.s 			page 105


 5859 1904 9C       		.byte	0x9c
 5860 1905 36190000 		.4byte	0x1936
 5861 1909 35       		.uleb128 0x35
 5862 190a CE060000 		.4byte	.LASF318
 5863 190e 05       		.byte	0x5
 5864 190f 1602     		.2byte	0x216
 5865 1911 000B0000 		.4byte	0xb00
 5866 1915 02       		.uleb128 0x2
 5867 1916 91       		.byte	0x91
 5868 1917 74       		.sleb128 -12
 5869 1918 38       		.uleb128 0x38
 5870 1919 657000   		.ascii	"ep\000"
 5871 191c 05       		.byte	0x5
 5872 191d 1602     		.2byte	0x216
 5873 191f DE090000 		.4byte	0x9de
 5874 1923 02       		.uleb128 0x2
 5875 1924 91       		.byte	0x91
 5876 1925 73       		.sleb128 -13
 5877 1926 2C       		.uleb128 0x2c
 5878 1927 AA000000 		.4byte	.LASF323
 5879 192b 46190000 		.4byte	0x1946
 5880 192f 05       		.uleb128 0x5
 5881 1930 03       		.byte	0x3
 5882 1931 00000000 		.4byte	__func__.8361
 5883 1935 00       		.byte	0
 5884 1936 08       		.uleb128 0x8
 5885 1937 7F000000 		.4byte	0x7f
 5886 193b 46190000 		.4byte	0x1946
 5887 193f 09       		.uleb128 0x9
 5888 1940 6F000000 		.4byte	0x6f
 5889 1944 11       		.byte	0x11
 5890 1945 00       		.byte	0
 5891 1946 07       		.uleb128 0x7
 5892 1947 36190000 		.4byte	0x1936
 5893 194b 39       		.uleb128 0x39
 5894 194c 1C050000 		.4byte	.LASF334
 5895 1950 05       		.byte	0x5
 5896 1951 3002     		.2byte	0x230
 5897 1953 A0080000 		.4byte	0x8a0
 5898 1957 00000000 		.4byte	.LFB275
 5899 195b 50000000 		.4byte	.LFE275-.LFB275
 5900 195f 01       		.uleb128 0x1
 5901 1960 9C       		.byte	0x9c
 5902 1961 92190000 		.4byte	0x1992
 5903 1965 35       		.uleb128 0x35
 5904 1966 CE060000 		.4byte	.LASF318
 5905 196a 05       		.byte	0x5
 5906 196b 3002     		.2byte	0x230
 5907 196d 000B0000 		.4byte	0xb00
 5908 1971 02       		.uleb128 0x2
 5909 1972 91       		.byte	0x91
 5910 1973 74       		.sleb128 -12
 5911 1974 38       		.uleb128 0x38
 5912 1975 657000   		.ascii	"ep\000"
 5913 1978 05       		.byte	0x5
 5914 1979 3002     		.2byte	0x230
 5915 197b DE090000 		.4byte	0x9de
ARM GAS  C:\Users\Luis\AppData\Local\Temp\ccB0PfuY.s 			page 106


 5916 197f 02       		.uleb128 0x2
 5917 1980 91       		.byte	0x91
 5918 1981 73       		.sleb128 -13
 5919 1982 2C       		.uleb128 0x2c
 5920 1983 AA000000 		.4byte	.LASF323
 5921 1987 92190000 		.4byte	0x1992
 5922 198b 05       		.uleb128 0x5
 5923 198c 03       		.byte	0x3
 5924 198d 00000000 		.4byte	__func__.8366
 5925 1991 00       		.byte	0
 5926 1992 07       		.uleb128 0x7
 5927 1993 BB160000 		.4byte	0x16bb
 5928 1997 39       		.uleb128 0x39
 5929 1998 1A060000 		.4byte	.LASF335
 5930 199c 05       		.byte	0x5
 5931 199d 4902     		.2byte	0x249
 5932 199f A0080000 		.4byte	0x8a0
 5933 19a3 00000000 		.4byte	.LFB276
 5934 19a7 50000000 		.4byte	.LFE276-.LFB276
 5935 19ab 01       		.uleb128 0x1
 5936 19ac 9C       		.byte	0x9c
 5937 19ad DE190000 		.4byte	0x19de
 5938 19b1 35       		.uleb128 0x35
 5939 19b2 CE060000 		.4byte	.LASF318
 5940 19b6 05       		.byte	0x5
 5941 19b7 4902     		.2byte	0x249
 5942 19b9 000B0000 		.4byte	0xb00
 5943 19bd 02       		.uleb128 0x2
 5944 19be 91       		.byte	0x91
 5945 19bf 74       		.sleb128 -12
 5946 19c0 38       		.uleb128 0x38
 5947 19c1 657000   		.ascii	"ep\000"
 5948 19c4 05       		.byte	0x5
 5949 19c5 4902     		.2byte	0x249
 5950 19c7 DE090000 		.4byte	0x9de
 5951 19cb 02       		.uleb128 0x2
 5952 19cc 91       		.byte	0x91
 5953 19cd 73       		.sleb128 -13
 5954 19ce 2C       		.uleb128 0x2c
 5955 19cf AA000000 		.4byte	.LASF323
 5956 19d3 DE190000 		.4byte	0x19de
 5957 19d7 05       		.uleb128 0x5
 5958 19d8 03       		.byte	0x3
 5959 19d9 00000000 		.4byte	__func__.8371
 5960 19dd 00       		.byte	0
 5961 19de 07       		.uleb128 0x7
 5962 19df 36190000 		.4byte	0x1936
 5963 19e3 37       		.uleb128 0x37
 5964 19e4 28030000 		.4byte	.LASF336
 5965 19e8 05       		.byte	0x5
 5966 19e9 5F02     		.2byte	0x25f
 5967 19eb 00000000 		.4byte	.LFB277
 5968 19ef 66000000 		.4byte	.LFE277-.LFB277
 5969 19f3 01       		.uleb128 0x1
 5970 19f4 9C       		.byte	0x9c
 5971 19f5 161A0000 		.4byte	0x1a16
 5972 19f9 35       		.uleb128 0x35
ARM GAS  C:\Users\Luis\AppData\Local\Temp\ccB0PfuY.s 			page 107


 5973 19fa CE060000 		.4byte	.LASF318
 5974 19fe 05       		.byte	0x5
 5975 19ff 5F02     		.2byte	0x25f
 5976 1a01 000B0000 		.4byte	0xb00
 5977 1a05 02       		.uleb128 0x2
 5978 1a06 91       		.byte	0x91
 5979 1a07 6C       		.sleb128 -20
 5980 1a08 36       		.uleb128 0x36
 5981 1a09 6900     		.ascii	"i\000"
 5982 1a0b 05       		.byte	0x5
 5983 1a0c 6002     		.2byte	0x260
 5984 1a0e 37000000 		.4byte	0x37
 5985 1a12 02       		.uleb128 0x2
 5986 1a13 91       		.byte	0x91
 5987 1a14 74       		.sleb128 -12
 5988 1a15 00       		.byte	0
 5989 1a16 37       		.uleb128 0x37
 5990 1a17 5B070000 		.4byte	.LASF337
 5991 1a1b 05       		.byte	0x5
 5992 1a1c 7F02     		.2byte	0x27f
 5993 1a1e 00000000 		.4byte	.LFB278
 5994 1a22 74010000 		.4byte	.LFE278-.LFB278
 5995 1a26 01       		.uleb128 0x1
 5996 1a27 9C       		.byte	0x9c
 5997 1a28 591A0000 		.4byte	0x1a59
 5998 1a2c 35       		.uleb128 0x35
 5999 1a2d CE060000 		.4byte	.LASF318
 6000 1a31 05       		.byte	0x5
 6001 1a32 7F02     		.2byte	0x27f
 6002 1a34 000B0000 		.4byte	0xb00
 6003 1a38 02       		.uleb128 0x2
 6004 1a39 91       		.byte	0x91
 6005 1a3a 6C       		.sleb128 -20
 6006 1a3b 38       		.uleb128 0x38
 6007 1a3c 657000   		.ascii	"ep\000"
 6008 1a3f 05       		.byte	0x5
 6009 1a40 7F02     		.2byte	0x27f
 6010 1a42 DE090000 		.4byte	0x9de
 6011 1a46 02       		.uleb128 0x2
 6012 1a47 91       		.byte	0x91
 6013 1a48 6B       		.sleb128 -21
 6014 1a49 36       		.uleb128 0x36
 6015 1a4a 6D617800 		.ascii	"max\000"
 6016 1a4e 05       		.byte	0x5
 6017 1a4f 8002     		.2byte	0x280
 6018 1a51 2C000000 		.4byte	0x2c
 6019 1a55 02       		.uleb128 0x2
 6020 1a56 91       		.byte	0x91
 6021 1a57 74       		.sleb128 -12
 6022 1a58 00       		.byte	0
 6023 1a59 37       		.uleb128 0x37
 6024 1a5a BA0E0000 		.4byte	.LASF338
 6025 1a5e 05       		.byte	0x5
 6026 1a5f E502     		.2byte	0x2e5
 6027 1a61 00000000 		.4byte	.LFB279
 6028 1a65 14010000 		.4byte	.LFE279-.LFB279
 6029 1a69 01       		.uleb128 0x1
ARM GAS  C:\Users\Luis\AppData\Local\Temp\ccB0PfuY.s 			page 108


 6030 1a6a 9C       		.byte	0x9c
 6031 1a6b AB1A0000 		.4byte	0x1aab
 6032 1a6f 35       		.uleb128 0x35
 6033 1a70 CE060000 		.4byte	.LASF318
 6034 1a74 05       		.byte	0x5
 6035 1a75 E502     		.2byte	0x2e5
 6036 1a77 000B0000 		.4byte	0xb00
 6037 1a7b 02       		.uleb128 0x2
 6038 1a7c 91       		.byte	0x91
 6039 1a7d 6C       		.sleb128 -20
 6040 1a7e 38       		.uleb128 0x38
 6041 1a7f 657000   		.ascii	"ep\000"
 6042 1a82 05       		.byte	0x5
 6043 1a83 E502     		.2byte	0x2e5
 6044 1a85 DE090000 		.4byte	0x9de
 6045 1a89 02       		.uleb128 0x2
 6046 1a8a 91       		.byte	0x91
 6047 1a8b 6B       		.sleb128 -21
 6048 1a8c 36       		.uleb128 0x36
 6049 1a8d 6D617800 		.ascii	"max\000"
 6050 1a91 05       		.byte	0x5
 6051 1a92 E602     		.2byte	0x2e6
 6052 1a94 2C000000 		.4byte	0x2c
 6053 1a98 02       		.uleb128 0x2
 6054 1a99 91       		.byte	0x91
 6055 1a9a 74       		.sleb128 -12
 6056 1a9b 2C       		.uleb128 0x2c
 6057 1a9c AA000000 		.4byte	.LASF323
 6058 1aa0 BB1A0000 		.4byte	0x1abb
 6059 1aa4 05       		.uleb128 0x5
 6060 1aa5 03       		.byte	0x3
 6061 1aa6 00000000 		.4byte	__func__.8395
 6062 1aaa 00       		.byte	0
 6063 1aab 08       		.uleb128 0x8
 6064 1aac 7F000000 		.4byte	0x7f
 6065 1ab0 BB1A0000 		.4byte	0x1abb
 6066 1ab4 09       		.uleb128 0x9
 6067 1ab5 6F000000 		.4byte	0x6f
 6068 1ab9 0A       		.byte	0xa
 6069 1aba 00       		.byte	0
 6070 1abb 07       		.uleb128 0x7
 6071 1abc AB1A0000 		.4byte	0x1aab
 6072 1ac0 37       		.uleb128 0x37
 6073 1ac1 29010000 		.4byte	.LASF339
 6074 1ac5 05       		.byte	0x5
 6075 1ac6 2A03     		.2byte	0x32a
 6076 1ac8 00000000 		.4byte	.LFB280
 6077 1acc CC000000 		.4byte	.LFE280-.LFB280
 6078 1ad0 01       		.uleb128 0x1
 6079 1ad1 9C       		.byte	0x9c
 6080 1ad2 031B0000 		.4byte	0x1b03
 6081 1ad6 35       		.uleb128 0x35
 6082 1ad7 CE060000 		.4byte	.LASF318
 6083 1adb 05       		.byte	0x5
 6084 1adc 2A03     		.2byte	0x32a
 6085 1ade 000B0000 		.4byte	0xb00
 6086 1ae2 02       		.uleb128 0x2
ARM GAS  C:\Users\Luis\AppData\Local\Temp\ccB0PfuY.s 			page 109


 6087 1ae3 91       		.byte	0x91
 6088 1ae4 74       		.sleb128 -12
 6089 1ae5 38       		.uleb128 0x38
 6090 1ae6 657000   		.ascii	"ep\000"
 6091 1ae9 05       		.byte	0x5
 6092 1aea 2A03     		.2byte	0x32a
 6093 1aec DE090000 		.4byte	0x9de
 6094 1af0 02       		.uleb128 0x2
 6095 1af1 91       		.byte	0x91
 6096 1af2 73       		.sleb128 -13
 6097 1af3 2C       		.uleb128 0x2c
 6098 1af4 AA000000 		.4byte	.LASF323
 6099 1af8 031B0000 		.4byte	0x1b03
 6100 1afc 05       		.uleb128 0x5
 6101 1afd 03       		.byte	0x3
 6102 1afe 00000000 		.4byte	__func__.8409
 6103 1b02 00       		.byte	0
 6104 1b03 07       		.uleb128 0x7
 6105 1b04 78140000 		.4byte	0x1478
 6106 1b08 08       		.uleb128 0x8
 6107 1b09 A1000000 		.4byte	0xa1
 6108 1b0d 181B0000 		.4byte	0x1b18
 6109 1b11 09       		.uleb128 0x9
 6110 1b12 6F000000 		.4byte	0x6f
 6111 1b16 01       		.byte	0x1
 6112 1b17 00       		.byte	0
 6113 1b18 3A       		.uleb128 0x3a
 6114 1b19 6E060000 		.4byte	.LASF340
 6115 1b1d 05       		.byte	0x5
 6116 1b1e 2B       		.byte	0x2b
 6117 1b1f 291B0000 		.4byte	0x1b29
 6118 1b23 05       		.uleb128 0x5
 6119 1b24 03       		.byte	0x3
 6120 1b25 00000000 		.4byte	zero_status
 6121 1b29 07       		.uleb128 0x7
 6122 1b2a 081B0000 		.4byte	0x1b08
 6123 1b2e 3A       		.uleb128 0x3a
 6124 1b2f F2040000 		.4byte	.LASF341
 6125 1b33 05       		.byte	0x5
 6126 1b34 2C       		.byte	0x2c
 6127 1b35 3F1B0000 		.4byte	0x1b3f
 6128 1b39 05       		.uleb128 0x5
 6129 1b3a 03       		.byte	0x3
 6130 1b3b 00000000 		.4byte	active_status
 6131 1b3f 07       		.uleb128 0x7
 6132 1b40 081B0000 		.4byte	0x1b08
 6133 1b44 3A       		.uleb128 0x3a
 6134 1b45 E6020000 		.4byte	.LASF342
 6135 1b49 05       		.byte	0x5
 6136 1b4a 2D       		.byte	0x2d
 6137 1b4b 551B0000 		.4byte	0x1b55
 6138 1b4f 05       		.uleb128 0x5
 6139 1b50 03       		.byte	0x3
 6140 1b51 00000000 		.4byte	halted_status
 6141 1b55 07       		.uleb128 0x7
 6142 1b56 081B0000 		.4byte	0x1b08
 6143 1b5a 3B       		.uleb128 0x3b
ARM GAS  C:\Users\Luis\AppData\Local\Temp\ccB0PfuY.s 			page 110


 6144 1b5b 39080000 		.4byte	.LASF343
 6145 1b5f 15       		.byte	0x15
 6146 1b60 A706     		.2byte	0x6a7
 6147 1b62 D8000000 		.4byte	0xd8
 6148 1b66 3C       		.uleb128 0x3c
 6149 1b67 636800   		.ascii	"ch\000"
 6150 1b6a 0A       		.byte	0xa
 6151 1b6b 0902     		.2byte	0x209
 6152 1b6d 56040000 		.4byte	0x456
 6153 1b71 00       		.byte	0
 6154              		.section	.debug_abbrev,"",%progbits
 6155              	.Ldebug_abbrev0:
 6156 0000 01       		.uleb128 0x1
 6157 0001 11       		.uleb128 0x11
 6158 0002 01       		.byte	0x1
 6159 0003 25       		.uleb128 0x25
 6160 0004 0E       		.uleb128 0xe
 6161 0005 13       		.uleb128 0x13
 6162 0006 0B       		.uleb128 0xb
 6163 0007 03       		.uleb128 0x3
 6164 0008 0E       		.uleb128 0xe
 6165 0009 1B       		.uleb128 0x1b
 6166 000a 0E       		.uleb128 0xe
 6167 000b 55       		.uleb128 0x55
 6168 000c 17       		.uleb128 0x17
 6169 000d 11       		.uleb128 0x11
 6170 000e 01       		.uleb128 0x1
 6171 000f 10       		.uleb128 0x10
 6172 0010 17       		.uleb128 0x17
 6173 0011 00       		.byte	0
 6174 0012 00       		.byte	0
 6175 0013 02       		.uleb128 0x2
 6176 0014 24       		.uleb128 0x24
 6177 0015 00       		.byte	0
 6178 0016 0B       		.uleb128 0xb
 6179 0017 0B       		.uleb128 0xb
 6180 0018 3E       		.uleb128 0x3e
 6181 0019 0B       		.uleb128 0xb
 6182 001a 03       		.uleb128 0x3
 6183 001b 08       		.uleb128 0x8
 6184 001c 00       		.byte	0
 6185 001d 00       		.byte	0
 6186 001e 03       		.uleb128 0x3
 6187 001f 16       		.uleb128 0x16
 6188 0020 00       		.byte	0
 6189 0021 03       		.uleb128 0x3
 6190 0022 0E       		.uleb128 0xe
 6191 0023 3A       		.uleb128 0x3a
 6192 0024 0B       		.uleb128 0xb
 6193 0025 3B       		.uleb128 0x3b
 6194 0026 0B       		.uleb128 0xb
 6195 0027 49       		.uleb128 0x49
 6196 0028 13       		.uleb128 0x13
 6197 0029 00       		.byte	0
 6198 002a 00       		.byte	0
 6199 002b 04       		.uleb128 0x4
 6200 002c 24       		.uleb128 0x24
ARM GAS  C:\Users\Luis\AppData\Local\Temp\ccB0PfuY.s 			page 111


 6201 002d 00       		.byte	0
 6202 002e 0B       		.uleb128 0xb
 6203 002f 0B       		.uleb128 0xb
 6204 0030 3E       		.uleb128 0x3e
 6205 0031 0B       		.uleb128 0xb
 6206 0032 03       		.uleb128 0x3
 6207 0033 0E       		.uleb128 0xe
 6208 0034 00       		.byte	0
 6209 0035 00       		.byte	0
 6210 0036 05       		.uleb128 0x5
 6211 0037 0F       		.uleb128 0xf
 6212 0038 00       		.byte	0
 6213 0039 0B       		.uleb128 0xb
 6214 003a 0B       		.uleb128 0xb
 6215 003b 00       		.byte	0
 6216 003c 00       		.byte	0
 6217 003d 06       		.uleb128 0x6
 6218 003e 0F       		.uleb128 0xf
 6219 003f 00       		.byte	0
 6220 0040 0B       		.uleb128 0xb
 6221 0041 0B       		.uleb128 0xb
 6222 0042 49       		.uleb128 0x49
 6223 0043 13       		.uleb128 0x13
 6224 0044 00       		.byte	0
 6225 0045 00       		.byte	0
 6226 0046 07       		.uleb128 0x7
 6227 0047 26       		.uleb128 0x26
 6228 0048 00       		.byte	0
 6229 0049 49       		.uleb128 0x49
 6230 004a 13       		.uleb128 0x13
 6231 004b 00       		.byte	0
 6232 004c 00       		.byte	0
 6233 004d 08       		.uleb128 0x8
 6234 004e 01       		.uleb128 0x1
 6235 004f 01       		.byte	0x1
 6236 0050 49       		.uleb128 0x49
 6237 0051 13       		.uleb128 0x13
 6238 0052 01       		.uleb128 0x1
 6239 0053 13       		.uleb128 0x13
 6240 0054 00       		.byte	0
 6241 0055 00       		.byte	0
 6242 0056 09       		.uleb128 0x9
 6243 0057 21       		.uleb128 0x21
 6244 0058 00       		.byte	0
 6245 0059 49       		.uleb128 0x49
 6246 005a 13       		.uleb128 0x13
 6247 005b 2F       		.uleb128 0x2f
 6248 005c 0B       		.uleb128 0xb
 6249 005d 00       		.byte	0
 6250 005e 00       		.byte	0
 6251 005f 0A       		.uleb128 0xa
 6252 0060 35       		.uleb128 0x35
 6253 0061 00       		.byte	0
 6254 0062 49       		.uleb128 0x49
 6255 0063 13       		.uleb128 0x13
 6256 0064 00       		.byte	0
 6257 0065 00       		.byte	0
ARM GAS  C:\Users\Luis\AppData\Local\Temp\ccB0PfuY.s 			page 112


 6258 0066 0B       		.uleb128 0xb
 6259 0067 13       		.uleb128 0x13
 6260 0068 01       		.byte	0x1
 6261 0069 03       		.uleb128 0x3
 6262 006a 0E       		.uleb128 0xe
 6263 006b 0B       		.uleb128 0xb
 6264 006c 0B       		.uleb128 0xb
 6265 006d 3A       		.uleb128 0x3a
 6266 006e 0B       		.uleb128 0xb
 6267 006f 3B       		.uleb128 0x3b
 6268 0070 0B       		.uleb128 0xb
 6269 0071 01       		.uleb128 0x1
 6270 0072 13       		.uleb128 0x13
 6271 0073 00       		.byte	0
 6272 0074 00       		.byte	0
 6273 0075 0C       		.uleb128 0xc
 6274 0076 0D       		.uleb128 0xd
 6275 0077 00       		.byte	0
 6276 0078 03       		.uleb128 0x3
 6277 0079 0E       		.uleb128 0xe
 6278 007a 3A       		.uleb128 0x3a
 6279 007b 0B       		.uleb128 0xb
 6280 007c 3B       		.uleb128 0x3b
 6281 007d 0B       		.uleb128 0xb
 6282 007e 49       		.uleb128 0x49
 6283 007f 13       		.uleb128 0x13
 6284 0080 38       		.uleb128 0x38
 6285 0081 0B       		.uleb128 0xb
 6286 0082 00       		.byte	0
 6287 0083 00       		.byte	0
 6288 0084 0D       		.uleb128 0xd
 6289 0085 0D       		.uleb128 0xd
 6290 0086 00       		.byte	0
 6291 0087 03       		.uleb128 0x3
 6292 0088 08       		.uleb128 0x8
 6293 0089 3A       		.uleb128 0x3a
 6294 008a 0B       		.uleb128 0xb
 6295 008b 3B       		.uleb128 0x3b
 6296 008c 05       		.uleb128 0x5
 6297 008d 49       		.uleb128 0x49
 6298 008e 13       		.uleb128 0x13
 6299 008f 38       		.uleb128 0x38
 6300 0090 0B       		.uleb128 0xb
 6301 0091 00       		.byte	0
 6302 0092 00       		.byte	0
 6303 0093 0E       		.uleb128 0xe
 6304 0094 0D       		.uleb128 0xd
 6305 0095 00       		.byte	0
 6306 0096 03       		.uleb128 0x3
 6307 0097 0E       		.uleb128 0xe
 6308 0098 3A       		.uleb128 0x3a
 6309 0099 0B       		.uleb128 0xb
 6310 009a 3B       		.uleb128 0x3b
 6311 009b 05       		.uleb128 0x5
 6312 009c 49       		.uleb128 0x49
 6313 009d 13       		.uleb128 0x13
 6314 009e 38       		.uleb128 0x38
ARM GAS  C:\Users\Luis\AppData\Local\Temp\ccB0PfuY.s 			page 113


 6315 009f 0B       		.uleb128 0xb
 6316 00a0 00       		.byte	0
 6317 00a1 00       		.byte	0
 6318 00a2 0F       		.uleb128 0xf
 6319 00a3 13       		.uleb128 0x13
 6320 00a4 01       		.byte	0x1
 6321 00a5 03       		.uleb128 0x3
 6322 00a6 0E       		.uleb128 0xe
 6323 00a7 0B       		.uleb128 0xb
 6324 00a8 0B       		.uleb128 0xb
 6325 00a9 3A       		.uleb128 0x3a
 6326 00aa 0B       		.uleb128 0xb
 6327 00ab 3B       		.uleb128 0x3b
 6328 00ac 05       		.uleb128 0x5
 6329 00ad 01       		.uleb128 0x1
 6330 00ae 13       		.uleb128 0x13
 6331 00af 00       		.byte	0
 6332 00b0 00       		.byte	0
 6333 00b1 10       		.uleb128 0x10
 6334 00b2 15       		.uleb128 0x15
 6335 00b3 01       		.byte	0x1
 6336 00b4 27       		.uleb128 0x27
 6337 00b5 19       		.uleb128 0x19
 6338 00b6 01       		.uleb128 0x1
 6339 00b7 13       		.uleb128 0x13
 6340 00b8 00       		.byte	0
 6341 00b9 00       		.byte	0
 6342 00ba 11       		.uleb128 0x11
 6343 00bb 05       		.uleb128 0x5
 6344 00bc 00       		.byte	0
 6345 00bd 49       		.uleb128 0x49
 6346 00be 13       		.uleb128 0x13
 6347 00bf 00       		.byte	0
 6348 00c0 00       		.byte	0
 6349 00c1 12       		.uleb128 0x12
 6350 00c2 13       		.uleb128 0x13
 6351 00c3 01       		.byte	0x1
 6352 00c4 03       		.uleb128 0x3
 6353 00c5 0E       		.uleb128 0xe
 6354 00c6 0B       		.uleb128 0xb
 6355 00c7 05       		.uleb128 0x5
 6356 00c8 3A       		.uleb128 0x3a
 6357 00c9 0B       		.uleb128 0xb
 6358 00ca 3B       		.uleb128 0x3b
 6359 00cb 05       		.uleb128 0x5
 6360 00cc 01       		.uleb128 0x1
 6361 00cd 13       		.uleb128 0x13
 6362 00ce 00       		.byte	0
 6363 00cf 00       		.byte	0
 6364 00d0 13       		.uleb128 0x13
 6365 00d1 0D       		.uleb128 0xd
 6366 00d2 00       		.byte	0
 6367 00d3 03       		.uleb128 0x3
 6368 00d4 0E       		.uleb128 0xe
 6369 00d5 3A       		.uleb128 0x3a
 6370 00d6 0B       		.uleb128 0xb
 6371 00d7 3B       		.uleb128 0x3b
ARM GAS  C:\Users\Luis\AppData\Local\Temp\ccB0PfuY.s 			page 114


 6372 00d8 05       		.uleb128 0x5
 6373 00d9 49       		.uleb128 0x49
 6374 00da 13       		.uleb128 0x13
 6375 00db 38       		.uleb128 0x38
 6376 00dc 05       		.uleb128 0x5
 6377 00dd 00       		.byte	0
 6378 00de 00       		.byte	0
 6379 00df 14       		.uleb128 0x14
 6380 00e0 0D       		.uleb128 0xd
 6381 00e1 00       		.byte	0
 6382 00e2 03       		.uleb128 0x3
 6383 00e3 08       		.uleb128 0x8
 6384 00e4 3A       		.uleb128 0x3a
 6385 00e5 0B       		.uleb128 0xb
 6386 00e6 3B       		.uleb128 0x3b
 6387 00e7 05       		.uleb128 0x5
 6388 00e8 49       		.uleb128 0x49
 6389 00e9 13       		.uleb128 0x13
 6390 00ea 38       		.uleb128 0x38
 6391 00eb 05       		.uleb128 0x5
 6392 00ec 00       		.byte	0
 6393 00ed 00       		.byte	0
 6394 00ee 15       		.uleb128 0x15
 6395 00ef 0D       		.uleb128 0xd
 6396 00f0 00       		.byte	0
 6397 00f1 03       		.uleb128 0x3
 6398 00f2 08       		.uleb128 0x8
 6399 00f3 3A       		.uleb128 0x3a
 6400 00f4 0B       		.uleb128 0xb
 6401 00f5 3B       		.uleb128 0x3b
 6402 00f6 0B       		.uleb128 0xb
 6403 00f7 49       		.uleb128 0x49
 6404 00f8 13       		.uleb128 0x13
 6405 00f9 38       		.uleb128 0x38
 6406 00fa 0B       		.uleb128 0xb
 6407 00fb 00       		.byte	0
 6408 00fc 00       		.byte	0
 6409 00fd 16       		.uleb128 0x16
 6410 00fe 13       		.uleb128 0x13
 6411 00ff 01       		.byte	0x1
 6412 0100 0B       		.uleb128 0xb
 6413 0101 0B       		.uleb128 0xb
 6414 0102 3A       		.uleb128 0x3a
 6415 0103 0B       		.uleb128 0xb
 6416 0104 3B       		.uleb128 0x3b
 6417 0105 0B       		.uleb128 0xb
 6418 0106 01       		.uleb128 0x1
 6419 0107 13       		.uleb128 0x13
 6420 0108 00       		.byte	0
 6421 0109 00       		.byte	0
 6422 010a 17       		.uleb128 0x17
 6423 010b 13       		.uleb128 0x13
 6424 010c 01       		.byte	0x1
 6425 010d 0B       		.uleb128 0xb
 6426 010e 05       		.uleb128 0x5
 6427 010f 3A       		.uleb128 0x3a
 6428 0110 0B       		.uleb128 0xb
ARM GAS  C:\Users\Luis\AppData\Local\Temp\ccB0PfuY.s 			page 115


 6429 0111 3B       		.uleb128 0x3b
 6430 0112 0B       		.uleb128 0xb
 6431 0113 01       		.uleb128 0x1
 6432 0114 13       		.uleb128 0x13
 6433 0115 00       		.byte	0
 6434 0116 00       		.byte	0
 6435 0117 18       		.uleb128 0x18
 6436 0118 17       		.uleb128 0x17
 6437 0119 01       		.byte	0x1
 6438 011a 0B       		.uleb128 0xb
 6439 011b 0B       		.uleb128 0xb
 6440 011c 3A       		.uleb128 0x3a
 6441 011d 0B       		.uleb128 0xb
 6442 011e 3B       		.uleb128 0x3b
 6443 011f 0B       		.uleb128 0xb
 6444 0120 01       		.uleb128 0x1
 6445 0121 13       		.uleb128 0x13
 6446 0122 00       		.byte	0
 6447 0123 00       		.byte	0
 6448 0124 19       		.uleb128 0x19
 6449 0125 0D       		.uleb128 0xd
 6450 0126 00       		.byte	0
 6451 0127 03       		.uleb128 0x3
 6452 0128 0E       		.uleb128 0xe
 6453 0129 3A       		.uleb128 0x3a
 6454 012a 0B       		.uleb128 0xb
 6455 012b 3B       		.uleb128 0x3b
 6456 012c 05       		.uleb128 0x5
 6457 012d 49       		.uleb128 0x49
 6458 012e 13       		.uleb128 0x13
 6459 012f 00       		.byte	0
 6460 0130 00       		.byte	0
 6461 0131 1A       		.uleb128 0x1a
 6462 0132 04       		.uleb128 0x4
 6463 0133 01       		.byte	0x1
 6464 0134 0B       		.uleb128 0xb
 6465 0135 0B       		.uleb128 0xb
 6466 0136 3A       		.uleb128 0x3a
 6467 0137 0B       		.uleb128 0xb
 6468 0138 3B       		.uleb128 0x3b
 6469 0139 05       		.uleb128 0x5
 6470 013a 01       		.uleb128 0x1
 6471 013b 13       		.uleb128 0x13
 6472 013c 00       		.byte	0
 6473 013d 00       		.byte	0
 6474 013e 1B       		.uleb128 0x1b
 6475 013f 28       		.uleb128 0x28
 6476 0140 00       		.byte	0
 6477 0141 03       		.uleb128 0x3
 6478 0142 0E       		.uleb128 0xe
 6479 0143 1C       		.uleb128 0x1c
 6480 0144 0D       		.uleb128 0xd
 6481 0145 00       		.byte	0
 6482 0146 00       		.byte	0
 6483 0147 1C       		.uleb128 0x1c
 6484 0148 16       		.uleb128 0x16
 6485 0149 00       		.byte	0
ARM GAS  C:\Users\Luis\AppData\Local\Temp\ccB0PfuY.s 			page 116


 6486 014a 03       		.uleb128 0x3
 6487 014b 0E       		.uleb128 0xe
 6488 014c 3A       		.uleb128 0x3a
 6489 014d 0B       		.uleb128 0xb
 6490 014e 3B       		.uleb128 0x3b
 6491 014f 05       		.uleb128 0x5
 6492 0150 49       		.uleb128 0x49
 6493 0151 13       		.uleb128 0x13
 6494 0152 00       		.byte	0
 6495 0153 00       		.byte	0
 6496 0154 1D       		.uleb128 0x1d
 6497 0155 13       		.uleb128 0x13
 6498 0156 01       		.byte	0x1
 6499 0157 0B       		.uleb128 0xb
 6500 0158 0B       		.uleb128 0xb
 6501 0159 3A       		.uleb128 0x3a
 6502 015a 0B       		.uleb128 0xb
 6503 015b 3B       		.uleb128 0x3b
 6504 015c 05       		.uleb128 0x5
 6505 015d 01       		.uleb128 0x1
 6506 015e 13       		.uleb128 0x13
 6507 015f 00       		.byte	0
 6508 0160 00       		.byte	0
 6509 0161 1E       		.uleb128 0x1e
 6510 0162 15       		.uleb128 0x15
 6511 0163 01       		.byte	0x1
 6512 0164 27       		.uleb128 0x27
 6513 0165 19       		.uleb128 0x19
 6514 0166 49       		.uleb128 0x49
 6515 0167 13       		.uleb128 0x13
 6516 0168 01       		.uleb128 0x1
 6517 0169 13       		.uleb128 0x13
 6518 016a 00       		.byte	0
 6519 016b 00       		.byte	0
 6520 016c 1F       		.uleb128 0x1f
 6521 016d 13       		.uleb128 0x13
 6522 016e 01       		.byte	0x1
 6523 016f 0B       		.uleb128 0xb
 6524 0170 06       		.uleb128 0x6
 6525 0171 3A       		.uleb128 0x3a
 6526 0172 0B       		.uleb128 0xb
 6527 0173 3B       		.uleb128 0x3b
 6528 0174 0B       		.uleb128 0xb
 6529 0175 01       		.uleb128 0x1
 6530 0176 13       		.uleb128 0x13
 6531 0177 00       		.byte	0
 6532 0178 00       		.byte	0
 6533 0179 20       		.uleb128 0x20
 6534 017a 0D       		.uleb128 0xd
 6535 017b 00       		.byte	0
 6536 017c 03       		.uleb128 0x3
 6537 017d 0E       		.uleb128 0xe
 6538 017e 3A       		.uleb128 0x3a
 6539 017f 0B       		.uleb128 0xb
 6540 0180 3B       		.uleb128 0x3b
 6541 0181 0B       		.uleb128 0xb
 6542 0182 49       		.uleb128 0x49
ARM GAS  C:\Users\Luis\AppData\Local\Temp\ccB0PfuY.s 			page 117


 6543 0183 13       		.uleb128 0x13
 6544 0184 38       		.uleb128 0x38
 6545 0185 05       		.uleb128 0x5
 6546 0186 00       		.byte	0
 6547 0187 00       		.byte	0
 6548 0188 21       		.uleb128 0x21
 6549 0189 0D       		.uleb128 0xd
 6550 018a 00       		.byte	0
 6551 018b 03       		.uleb128 0x3
 6552 018c 08       		.uleb128 0x8
 6553 018d 3A       		.uleb128 0x3a
 6554 018e 0B       		.uleb128 0xb
 6555 018f 3B       		.uleb128 0x3b
 6556 0190 0B       		.uleb128 0xb
 6557 0191 49       		.uleb128 0x49
 6558 0192 13       		.uleb128 0x13
 6559 0193 38       		.uleb128 0x38
 6560 0194 05       		.uleb128 0x5
 6561 0195 00       		.byte	0
 6562 0196 00       		.byte	0
 6563 0197 22       		.uleb128 0x22
 6564 0198 21       		.uleb128 0x21
 6565 0199 00       		.byte	0
 6566 019a 49       		.uleb128 0x49
 6567 019b 13       		.uleb128 0x13
 6568 019c 2F       		.uleb128 0x2f
 6569 019d 05       		.uleb128 0x5
 6570 019e 00       		.byte	0
 6571 019f 00       		.byte	0
 6572 01a0 23       		.uleb128 0x23
 6573 01a1 0D       		.uleb128 0xd
 6574 01a2 00       		.byte	0
 6575 01a3 03       		.uleb128 0x3
 6576 01a4 0E       		.uleb128 0xe
 6577 01a5 3A       		.uleb128 0x3a
 6578 01a6 0B       		.uleb128 0xb
 6579 01a7 3B       		.uleb128 0x3b
 6580 01a8 0B       		.uleb128 0xb
 6581 01a9 49       		.uleb128 0x49
 6582 01aa 13       		.uleb128 0x13
 6583 01ab 00       		.byte	0
 6584 01ac 00       		.byte	0
 6585 01ad 24       		.uleb128 0x24
 6586 01ae 17       		.uleb128 0x17
 6587 01af 01       		.byte	0x1
 6588 01b0 0B       		.uleb128 0xb
 6589 01b1 0B       		.uleb128 0xb
 6590 01b2 3A       		.uleb128 0x3a
 6591 01b3 0B       		.uleb128 0xb
 6592 01b4 3B       		.uleb128 0x3b
 6593 01b5 05       		.uleb128 0x5
 6594 01b6 01       		.uleb128 0x1
 6595 01b7 13       		.uleb128 0x13
 6596 01b8 00       		.byte	0
 6597 01b9 00       		.byte	0
 6598 01ba 25       		.uleb128 0x25
 6599 01bb 2E       		.uleb128 0x2e
ARM GAS  C:\Users\Luis\AppData\Local\Temp\ccB0PfuY.s 			page 118


 6600 01bc 01       		.byte	0x1
 6601 01bd 03       		.uleb128 0x3
 6602 01be 0E       		.uleb128 0xe
 6603 01bf 3A       		.uleb128 0x3a
 6604 01c0 0B       		.uleb128 0xb
 6605 01c1 3B       		.uleb128 0x3b
 6606 01c2 05       		.uleb128 0x5
 6607 01c3 27       		.uleb128 0x27
 6608 01c4 19       		.uleb128 0x19
 6609 01c5 20       		.uleb128 0x20
 6610 01c6 0B       		.uleb128 0xb
 6611 01c7 01       		.uleb128 0x1
 6612 01c8 13       		.uleb128 0x13
 6613 01c9 00       		.byte	0
 6614 01ca 00       		.byte	0
 6615 01cb 26       		.uleb128 0x26
 6616 01cc 05       		.uleb128 0x5
 6617 01cd 00       		.byte	0
 6618 01ce 03       		.uleb128 0x3
 6619 01cf 0E       		.uleb128 0xe
 6620 01d0 3A       		.uleb128 0x3a
 6621 01d1 0B       		.uleb128 0xb
 6622 01d2 3B       		.uleb128 0x3b
 6623 01d3 05       		.uleb128 0x5
 6624 01d4 49       		.uleb128 0x49
 6625 01d5 13       		.uleb128 0x13
 6626 01d6 00       		.byte	0
 6627 01d7 00       		.byte	0
 6628 01d8 27       		.uleb128 0x27
 6629 01d9 2E       		.uleb128 0x2e
 6630 01da 01       		.byte	0x1
 6631 01db 03       		.uleb128 0x3
 6632 01dc 0E       		.uleb128 0xe
 6633 01dd 3A       		.uleb128 0x3a
 6634 01de 0B       		.uleb128 0xb
 6635 01df 3B       		.uleb128 0x3b
 6636 01e0 05       		.uleb128 0x5
 6637 01e1 27       		.uleb128 0x27
 6638 01e2 19       		.uleb128 0x19
 6639 01e3 11       		.uleb128 0x11
 6640 01e4 01       		.uleb128 0x1
 6641 01e5 12       		.uleb128 0x12
 6642 01e6 06       		.uleb128 0x6
 6643 01e7 40       		.uleb128 0x40
 6644 01e8 18       		.uleb128 0x18
 6645 01e9 9742     		.uleb128 0x2117
 6646 01eb 19       		.uleb128 0x19
 6647 01ec 01       		.uleb128 0x1
 6648 01ed 13       		.uleb128 0x13
 6649 01ee 00       		.byte	0
 6650 01ef 00       		.byte	0
 6651 01f0 28       		.uleb128 0x28
 6652 01f1 1D       		.uleb128 0x1d
 6653 01f2 01       		.byte	0x1
 6654 01f3 31       		.uleb128 0x31
 6655 01f4 13       		.uleb128 0x13
 6656 01f5 11       		.uleb128 0x11
ARM GAS  C:\Users\Luis\AppData\Local\Temp\ccB0PfuY.s 			page 119


 6657 01f6 01       		.uleb128 0x1
 6658 01f7 12       		.uleb128 0x12
 6659 01f8 06       		.uleb128 0x6
 6660 01f9 58       		.uleb128 0x58
 6661 01fa 0B       		.uleb128 0xb
 6662 01fb 59       		.uleb128 0x59
 6663 01fc 05       		.uleb128 0x5
 6664 01fd 00       		.byte	0
 6665 01fe 00       		.byte	0
 6666 01ff 29       		.uleb128 0x29
 6667 0200 05       		.uleb128 0x5
 6668 0201 00       		.byte	0
 6669 0202 31       		.uleb128 0x31
 6670 0203 13       		.uleb128 0x13
 6671 0204 02       		.uleb128 0x2
 6672 0205 18       		.uleb128 0x18
 6673 0206 00       		.byte	0
 6674 0207 00       		.byte	0
 6675 0208 2A       		.uleb128 0x2a
 6676 0209 2E       		.uleb128 0x2e
 6677 020a 00       		.byte	0
 6678 020b 03       		.uleb128 0x3
 6679 020c 0E       		.uleb128 0xe
 6680 020d 3A       		.uleb128 0x3a
 6681 020e 0B       		.uleb128 0xb
 6682 020f 3B       		.uleb128 0x3b
 6683 0210 05       		.uleb128 0x5
 6684 0211 27       		.uleb128 0x27
 6685 0212 19       		.uleb128 0x19
 6686 0213 11       		.uleb128 0x11
 6687 0214 01       		.uleb128 0x1
 6688 0215 12       		.uleb128 0x12
 6689 0216 06       		.uleb128 0x6
 6690 0217 40       		.uleb128 0x40
 6691 0218 18       		.uleb128 0x18
 6692 0219 9642     		.uleb128 0x2116
 6693 021b 19       		.uleb128 0x19
 6694 021c 00       		.byte	0
 6695 021d 00       		.byte	0
 6696 021e 2B       		.uleb128 0x2b
 6697 021f 2E       		.uleb128 0x2e
 6698 0220 01       		.byte	0x1
 6699 0221 03       		.uleb128 0x3
 6700 0222 0E       		.uleb128 0xe
 6701 0223 3A       		.uleb128 0x3a
 6702 0224 0B       		.uleb128 0xb
 6703 0225 3B       		.uleb128 0x3b
 6704 0226 05       		.uleb128 0x5
 6705 0227 27       		.uleb128 0x27
 6706 0228 19       		.uleb128 0x19
 6707 0229 11       		.uleb128 0x11
 6708 022a 01       		.uleb128 0x1
 6709 022b 12       		.uleb128 0x12
 6710 022c 06       		.uleb128 0x6
 6711 022d 40       		.uleb128 0x40
 6712 022e 18       		.uleb128 0x18
 6713 022f 9642     		.uleb128 0x2116
ARM GAS  C:\Users\Luis\AppData\Local\Temp\ccB0PfuY.s 			page 120


 6714 0231 19       		.uleb128 0x19
 6715 0232 01       		.uleb128 0x1
 6716 0233 13       		.uleb128 0x13
 6717 0234 00       		.byte	0
 6718 0235 00       		.byte	0
 6719 0236 2C       		.uleb128 0x2c
 6720 0237 34       		.uleb128 0x34
 6721 0238 00       		.byte	0
 6722 0239 03       		.uleb128 0x3
 6723 023a 0E       		.uleb128 0xe
 6724 023b 49       		.uleb128 0x49
 6725 023c 13       		.uleb128 0x13
 6726 023d 34       		.uleb128 0x34
 6727 023e 19       		.uleb128 0x19
 6728 023f 02       		.uleb128 0x2
 6729 0240 18       		.uleb128 0x18
 6730 0241 00       		.byte	0
 6731 0242 00       		.byte	0
 6732 0243 2D       		.uleb128 0x2d
 6733 0244 2E       		.uleb128 0x2e
 6734 0245 01       		.byte	0x1
 6735 0246 03       		.uleb128 0x3
 6736 0247 0E       		.uleb128 0xe
 6737 0248 3A       		.uleb128 0x3a
 6738 0249 0B       		.uleb128 0xb
 6739 024a 3B       		.uleb128 0x3b
 6740 024b 0B       		.uleb128 0xb
 6741 024c 27       		.uleb128 0x27
 6742 024d 19       		.uleb128 0x19
 6743 024e 49       		.uleb128 0x49
 6744 024f 13       		.uleb128 0x13
 6745 0250 11       		.uleb128 0x11
 6746 0251 01       		.uleb128 0x1
 6747 0252 12       		.uleb128 0x12
 6748 0253 06       		.uleb128 0x6
 6749 0254 40       		.uleb128 0x40
 6750 0255 18       		.uleb128 0x18
 6751 0256 9742     		.uleb128 0x2117
 6752 0258 19       		.uleb128 0x19
 6753 0259 01       		.uleb128 0x1
 6754 025a 13       		.uleb128 0x13
 6755 025b 00       		.byte	0
 6756 025c 00       		.byte	0
 6757 025d 2E       		.uleb128 0x2e
 6758 025e 05       		.uleb128 0x5
 6759 025f 00       		.byte	0
 6760 0260 03       		.uleb128 0x3
 6761 0261 08       		.uleb128 0x8
 6762 0262 3A       		.uleb128 0x3a
 6763 0263 0B       		.uleb128 0xb
 6764 0264 3B       		.uleb128 0x3b
 6765 0265 0B       		.uleb128 0xb
 6766 0266 49       		.uleb128 0x49
 6767 0267 13       		.uleb128 0x13
 6768 0268 02       		.uleb128 0x2
 6769 0269 18       		.uleb128 0x18
 6770 026a 00       		.byte	0
ARM GAS  C:\Users\Luis\AppData\Local\Temp\ccB0PfuY.s 			page 121


 6771 026b 00       		.byte	0
 6772 026c 2F       		.uleb128 0x2f
 6773 026d 34       		.uleb128 0x34
 6774 026e 00       		.byte	0
 6775 026f 03       		.uleb128 0x3
 6776 0270 08       		.uleb128 0x8
 6777 0271 3A       		.uleb128 0x3a
 6778 0272 0B       		.uleb128 0xb
 6779 0273 3B       		.uleb128 0x3b
 6780 0274 0B       		.uleb128 0xb
 6781 0275 49       		.uleb128 0x49
 6782 0276 13       		.uleb128 0x13
 6783 0277 02       		.uleb128 0x2
 6784 0278 18       		.uleb128 0x18
 6785 0279 00       		.byte	0
 6786 027a 00       		.byte	0
 6787 027b 30       		.uleb128 0x30
 6788 027c 2E       		.uleb128 0x2e
 6789 027d 01       		.byte	0x1
 6790 027e 03       		.uleb128 0x3
 6791 027f 0E       		.uleb128 0xe
 6792 0280 3A       		.uleb128 0x3a
 6793 0281 0B       		.uleb128 0xb
 6794 0282 3B       		.uleb128 0x3b
 6795 0283 0B       		.uleb128 0xb
 6796 0284 27       		.uleb128 0x27
 6797 0285 19       		.uleb128 0x19
 6798 0286 11       		.uleb128 0x11
 6799 0287 01       		.uleb128 0x1
 6800 0288 12       		.uleb128 0x12
 6801 0289 06       		.uleb128 0x6
 6802 028a 40       		.uleb128 0x40
 6803 028b 18       		.uleb128 0x18
 6804 028c 9642     		.uleb128 0x2116
 6805 028e 19       		.uleb128 0x19
 6806 028f 01       		.uleb128 0x1
 6807 0290 13       		.uleb128 0x13
 6808 0291 00       		.byte	0
 6809 0292 00       		.byte	0
 6810 0293 31       		.uleb128 0x31
 6811 0294 05       		.uleb128 0x5
 6812 0295 00       		.byte	0
 6813 0296 03       		.uleb128 0x3
 6814 0297 0E       		.uleb128 0xe
 6815 0298 3A       		.uleb128 0x3a
 6816 0299 0B       		.uleb128 0xb
 6817 029a 3B       		.uleb128 0x3b
 6818 029b 0B       		.uleb128 0xb
 6819 029c 49       		.uleb128 0x49
 6820 029d 13       		.uleb128 0x13
 6821 029e 02       		.uleb128 0x2
 6822 029f 18       		.uleb128 0x18
 6823 02a0 00       		.byte	0
 6824 02a1 00       		.byte	0
 6825 02a2 32       		.uleb128 0x32
 6826 02a3 2E       		.uleb128 0x2e
 6827 02a4 01       		.byte	0x1
ARM GAS  C:\Users\Luis\AppData\Local\Temp\ccB0PfuY.s 			page 122


 6828 02a5 03       		.uleb128 0x3
 6829 02a6 0E       		.uleb128 0xe
 6830 02a7 3A       		.uleb128 0x3a
 6831 02a8 0B       		.uleb128 0xb
 6832 02a9 3B       		.uleb128 0x3b
 6833 02aa 0B       		.uleb128 0xb
 6834 02ab 27       		.uleb128 0x27
 6835 02ac 19       		.uleb128 0x19
 6836 02ad 49       		.uleb128 0x49
 6837 02ae 13       		.uleb128 0x13
 6838 02af 11       		.uleb128 0x11
 6839 02b0 01       		.uleb128 0x1
 6840 02b1 12       		.uleb128 0x12
 6841 02b2 06       		.uleb128 0x6
 6842 02b3 40       		.uleb128 0x40
 6843 02b4 18       		.uleb128 0x18
 6844 02b5 9642     		.uleb128 0x2116
 6845 02b7 19       		.uleb128 0x19
 6846 02b8 01       		.uleb128 0x1
 6847 02b9 13       		.uleb128 0x13
 6848 02ba 00       		.byte	0
 6849 02bb 00       		.byte	0
 6850 02bc 33       		.uleb128 0x33
 6851 02bd 2E       		.uleb128 0x2e
 6852 02be 00       		.byte	0
 6853 02bf 3F       		.uleb128 0x3f
 6854 02c0 19       		.uleb128 0x19
 6855 02c1 03       		.uleb128 0x3
 6856 02c2 0E       		.uleb128 0xe
 6857 02c3 3A       		.uleb128 0x3a
 6858 02c4 0B       		.uleb128 0xb
 6859 02c5 3B       		.uleb128 0x3b
 6860 02c6 0B       		.uleb128 0xb
 6861 02c7 27       		.uleb128 0x27
 6862 02c8 19       		.uleb128 0x19
 6863 02c9 11       		.uleb128 0x11
 6864 02ca 01       		.uleb128 0x1
 6865 02cb 12       		.uleb128 0x12
 6866 02cc 06       		.uleb128 0x6
 6867 02cd 40       		.uleb128 0x40
 6868 02ce 18       		.uleb128 0x18
 6869 02cf 9642     		.uleb128 0x2116
 6870 02d1 19       		.uleb128 0x19
 6871 02d2 00       		.byte	0
 6872 02d3 00       		.byte	0
 6873 02d4 34       		.uleb128 0x34
 6874 02d5 2E       		.uleb128 0x2e
 6875 02d6 01       		.byte	0x1
 6876 02d7 3F       		.uleb128 0x3f
 6877 02d8 19       		.uleb128 0x19
 6878 02d9 03       		.uleb128 0x3
 6879 02da 0E       		.uleb128 0xe
 6880 02db 3A       		.uleb128 0x3a
 6881 02dc 0B       		.uleb128 0xb
 6882 02dd 3B       		.uleb128 0x3b
 6883 02de 05       		.uleb128 0x5
 6884 02df 27       		.uleb128 0x27
ARM GAS  C:\Users\Luis\AppData\Local\Temp\ccB0PfuY.s 			page 123


 6885 02e0 19       		.uleb128 0x19
 6886 02e1 11       		.uleb128 0x11
 6887 02e2 01       		.uleb128 0x1
 6888 02e3 12       		.uleb128 0x12
 6889 02e4 06       		.uleb128 0x6
 6890 02e5 40       		.uleb128 0x40
 6891 02e6 18       		.uleb128 0x18
 6892 02e7 9742     		.uleb128 0x2117
 6893 02e9 19       		.uleb128 0x19
 6894 02ea 01       		.uleb128 0x1
 6895 02eb 13       		.uleb128 0x13
 6896 02ec 00       		.byte	0
 6897 02ed 00       		.byte	0
 6898 02ee 35       		.uleb128 0x35
 6899 02ef 05       		.uleb128 0x5
 6900 02f0 00       		.byte	0
 6901 02f1 03       		.uleb128 0x3
 6902 02f2 0E       		.uleb128 0xe
 6903 02f3 3A       		.uleb128 0x3a
 6904 02f4 0B       		.uleb128 0xb
 6905 02f5 3B       		.uleb128 0x3b
 6906 02f6 05       		.uleb128 0x5
 6907 02f7 49       		.uleb128 0x49
 6908 02f8 13       		.uleb128 0x13
 6909 02f9 02       		.uleb128 0x2
 6910 02fa 18       		.uleb128 0x18
 6911 02fb 00       		.byte	0
 6912 02fc 00       		.byte	0
 6913 02fd 36       		.uleb128 0x36
 6914 02fe 34       		.uleb128 0x34
 6915 02ff 00       		.byte	0
 6916 0300 03       		.uleb128 0x3
 6917 0301 08       		.uleb128 0x8
 6918 0302 3A       		.uleb128 0x3a
 6919 0303 0B       		.uleb128 0xb
 6920 0304 3B       		.uleb128 0x3b
 6921 0305 05       		.uleb128 0x5
 6922 0306 49       		.uleb128 0x49
 6923 0307 13       		.uleb128 0x13
 6924 0308 02       		.uleb128 0x2
 6925 0309 18       		.uleb128 0x18
 6926 030a 00       		.byte	0
 6927 030b 00       		.byte	0
 6928 030c 37       		.uleb128 0x37
 6929 030d 2E       		.uleb128 0x2e
 6930 030e 01       		.byte	0x1
 6931 030f 3F       		.uleb128 0x3f
 6932 0310 19       		.uleb128 0x19
 6933 0311 03       		.uleb128 0x3
 6934 0312 0E       		.uleb128 0xe
 6935 0313 3A       		.uleb128 0x3a
 6936 0314 0B       		.uleb128 0xb
 6937 0315 3B       		.uleb128 0x3b
 6938 0316 05       		.uleb128 0x5
 6939 0317 27       		.uleb128 0x27
 6940 0318 19       		.uleb128 0x19
 6941 0319 11       		.uleb128 0x11
ARM GAS  C:\Users\Luis\AppData\Local\Temp\ccB0PfuY.s 			page 124


 6942 031a 01       		.uleb128 0x1
 6943 031b 12       		.uleb128 0x12
 6944 031c 06       		.uleb128 0x6
 6945 031d 40       		.uleb128 0x40
 6946 031e 18       		.uleb128 0x18
 6947 031f 9642     		.uleb128 0x2116
 6948 0321 19       		.uleb128 0x19
 6949 0322 01       		.uleb128 0x1
 6950 0323 13       		.uleb128 0x13
 6951 0324 00       		.byte	0
 6952 0325 00       		.byte	0
 6953 0326 38       		.uleb128 0x38
 6954 0327 05       		.uleb128 0x5
 6955 0328 00       		.byte	0
 6956 0329 03       		.uleb128 0x3
 6957 032a 08       		.uleb128 0x8
 6958 032b 3A       		.uleb128 0x3a
 6959 032c 0B       		.uleb128 0xb
 6960 032d 3B       		.uleb128 0x3b
 6961 032e 05       		.uleb128 0x5
 6962 032f 49       		.uleb128 0x49
 6963 0330 13       		.uleb128 0x13
 6964 0331 02       		.uleb128 0x2
 6965 0332 18       		.uleb128 0x18
 6966 0333 00       		.byte	0
 6967 0334 00       		.byte	0
 6968 0335 39       		.uleb128 0x39
 6969 0336 2E       		.uleb128 0x2e
 6970 0337 01       		.byte	0x1
 6971 0338 3F       		.uleb128 0x3f
 6972 0339 19       		.uleb128 0x19
 6973 033a 03       		.uleb128 0x3
 6974 033b 0E       		.uleb128 0xe
 6975 033c 3A       		.uleb128 0x3a
 6976 033d 0B       		.uleb128 0xb
 6977 033e 3B       		.uleb128 0x3b
 6978 033f 05       		.uleb128 0x5
 6979 0340 27       		.uleb128 0x27
 6980 0341 19       		.uleb128 0x19
 6981 0342 49       		.uleb128 0x49
 6982 0343 13       		.uleb128 0x13
 6983 0344 11       		.uleb128 0x11
 6984 0345 01       		.uleb128 0x1
 6985 0346 12       		.uleb128 0x12
 6986 0347 06       		.uleb128 0x6
 6987 0348 40       		.uleb128 0x40
 6988 0349 18       		.uleb128 0x18
 6989 034a 9642     		.uleb128 0x2116
 6990 034c 19       		.uleb128 0x19
 6991 034d 01       		.uleb128 0x1
 6992 034e 13       		.uleb128 0x13
 6993 034f 00       		.byte	0
 6994 0350 00       		.byte	0
 6995 0351 3A       		.uleb128 0x3a
 6996 0352 34       		.uleb128 0x34
 6997 0353 00       		.byte	0
 6998 0354 03       		.uleb128 0x3
ARM GAS  C:\Users\Luis\AppData\Local\Temp\ccB0PfuY.s 			page 125


 6999 0355 0E       		.uleb128 0xe
 7000 0356 3A       		.uleb128 0x3a
 7001 0357 0B       		.uleb128 0xb
 7002 0358 3B       		.uleb128 0x3b
 7003 0359 0B       		.uleb128 0xb
 7004 035a 49       		.uleb128 0x49
 7005 035b 13       		.uleb128 0x13
 7006 035c 02       		.uleb128 0x2
 7007 035d 18       		.uleb128 0x18
 7008 035e 00       		.byte	0
 7009 035f 00       		.byte	0
 7010 0360 3B       		.uleb128 0x3b
 7011 0361 34       		.uleb128 0x34
 7012 0362 00       		.byte	0
 7013 0363 03       		.uleb128 0x3
 7014 0364 0E       		.uleb128 0xe
 7015 0365 3A       		.uleb128 0x3a
 7016 0366 0B       		.uleb128 0xb
 7017 0367 3B       		.uleb128 0x3b
 7018 0368 05       		.uleb128 0x5
 7019 0369 49       		.uleb128 0x49
 7020 036a 13       		.uleb128 0x13
 7021 036b 3F       		.uleb128 0x3f
 7022 036c 19       		.uleb128 0x19
 7023 036d 3C       		.uleb128 0x3c
 7024 036e 19       		.uleb128 0x19
 7025 036f 00       		.byte	0
 7026 0370 00       		.byte	0
 7027 0371 3C       		.uleb128 0x3c
 7028 0372 34       		.uleb128 0x34
 7029 0373 00       		.byte	0
 7030 0374 03       		.uleb128 0x3
 7031 0375 08       		.uleb128 0x8
 7032 0376 3A       		.uleb128 0x3a
 7033 0377 0B       		.uleb128 0xb
 7034 0378 3B       		.uleb128 0x3b
 7035 0379 05       		.uleb128 0x5
 7036 037a 49       		.uleb128 0x49
 7037 037b 13       		.uleb128 0x13
 7038 037c 3F       		.uleb128 0x3f
 7039 037d 19       		.uleb128 0x19
 7040 037e 3C       		.uleb128 0x3c
 7041 037f 19       		.uleb128 0x19
 7042 0380 00       		.byte	0
 7043 0381 00       		.byte	0
 7044 0382 00       		.byte	0
 7045              		.section	.debug_aranges,"",%progbits
 7046 0000 1C010000 		.4byte	0x11c
 7047 0004 0200     		.2byte	0x2
 7048 0006 00000000 		.4byte	.Ldebug_info0
 7049 000a 04       		.byte	0x4
 7050 000b 00       		.byte	0
 7051 000c 0000     		.2byte	0
 7052 000e 0000     		.2byte	0
 7053 0010 00000000 		.4byte	.LFB116
 7054 0014 1A000000 		.4byte	.LFE116-.LFB116
 7055 0018 00000000 		.4byte	.LFB117
ARM GAS  C:\Users\Luis\AppData\Local\Temp\ccB0PfuY.s 			page 126


 7056 001c 1A000000 		.4byte	.LFE117-.LFB117
 7057 0020 00000000 		.4byte	.LFB118
 7058 0024 0A000000 		.4byte	.LFE118-.LFB118
 7059 0028 00000000 		.4byte	.LFB119
 7060 002c 0A000000 		.4byte	.LFE119-.LFB119
 7061 0030 00000000 		.4byte	.LFB156
 7062 0034 12000000 		.4byte	.LFE156-.LFB156
 7063 0038 00000000 		.4byte	.LFB157
 7064 003c 3C000000 		.4byte	.LFE157-.LFB157
 7065 0040 00000000 		.4byte	.LFB158
 7066 0044 12000000 		.4byte	.LFE158-.LFB158
 7067 0048 00000000 		.4byte	.LFB159
 7068 004c 12000000 		.4byte	.LFE159-.LFB159
 7069 0050 00000000 		.4byte	.LFB233
 7070 0054 0A000000 		.4byte	.LFE233-.LFB233
 7071 0058 00000000 		.4byte	.LFB234
 7072 005c 0A000000 		.4byte	.LFE234-.LFB234
 7073 0060 00000000 		.4byte	.LFB235
 7074 0064 0A000000 		.4byte	.LFE235-.LFB235
 7075 0068 00000000 		.4byte	.LFB236
 7076 006c 0A000000 		.4byte	.LFE236-.LFB236
 7077 0070 00000000 		.4byte	.LFB260
 7078 0074 30000000 		.4byte	.LFE260-.LFB260
 7079 0078 00000000 		.4byte	.LFB261
 7080 007c 3C000000 		.4byte	.LFE261-.LFB261
 7081 0080 00000000 		.4byte	.LFB262
 7082 0084 A4030000 		.4byte	.LFE262-.LFB262
 7083 0088 00000000 		.4byte	.LFB263
 7084 008c 0A000000 		.4byte	.LFE263-.LFB263
 7085 0090 00000000 		.4byte	.LFB264
 7086 0094 56000000 		.4byte	.LFE264-.LFB264
 7087 0098 00000000 		.4byte	.LFB265
 7088 009c 78000000 		.4byte	.LFE265-.LFB265
 7089 00a0 00000000 		.4byte	.LFB266
 7090 00a4 58000000 		.4byte	.LFE266-.LFB266
 7091 00a8 00000000 		.4byte	.LFB267
 7092 00ac 98000000 		.4byte	.LFE267-.LFB267
 7093 00b0 00000000 		.4byte	.LFB268
 7094 00b4 74000000 		.4byte	.LFE268-.LFB268
 7095 00b8 00000000 		.4byte	.LFB269
 7096 00bc 48000000 		.4byte	.LFE269-.LFB269
 7097 00c0 00000000 		.4byte	.LFB270
 7098 00c4 48000000 		.4byte	.LFE270-.LFB270
 7099 00c8 00000000 		.4byte	.LFB271
 7100 00cc 48000000 		.4byte	.LFE271-.LFB271
 7101 00d0 00000000 		.4byte	.LFB272
 7102 00d4 48000000 		.4byte	.LFE272-.LFB272
 7103 00d8 00000000 		.4byte	.LFB273
 7104 00dc 64000000 		.4byte	.LFE273-.LFB273
 7105 00e0 00000000 		.4byte	.LFB274
 7106 00e4 64000000 		.4byte	.LFE274-.LFB274
 7107 00e8 00000000 		.4byte	.LFB275
 7108 00ec 50000000 		.4byte	.LFE275-.LFB275
 7109 00f0 00000000 		.4byte	.LFB276
 7110 00f4 50000000 		.4byte	.LFE276-.LFB276
 7111 00f8 00000000 		.4byte	.LFB277
 7112 00fc 66000000 		.4byte	.LFE277-.LFB277
ARM GAS  C:\Users\Luis\AppData\Local\Temp\ccB0PfuY.s 			page 127


 7113 0100 00000000 		.4byte	.LFB278
 7114 0104 74010000 		.4byte	.LFE278-.LFB278
 7115 0108 00000000 		.4byte	.LFB279
 7116 010c 14010000 		.4byte	.LFE279-.LFB279
 7117 0110 00000000 		.4byte	.LFB280
 7118 0114 CC000000 		.4byte	.LFE280-.LFB280
 7119 0118 00000000 		.4byte	0
 7120 011c 00000000 		.4byte	0
 7121              		.section	.debug_ranges,"",%progbits
 7122              	.Ldebug_ranges0:
 7123 0000 00000000 		.4byte	.LFB116
 7124 0004 1A000000 		.4byte	.LFE116
 7125 0008 00000000 		.4byte	.LFB117
 7126 000c 1A000000 		.4byte	.LFE117
 7127 0010 00000000 		.4byte	.LFB118
 7128 0014 0A000000 		.4byte	.LFE118
 7129 0018 00000000 		.4byte	.LFB119
 7130 001c 0A000000 		.4byte	.LFE119
 7131 0020 00000000 		.4byte	.LFB156
 7132 0024 12000000 		.4byte	.LFE156
 7133 0028 00000000 		.4byte	.LFB157
 7134 002c 3C000000 		.4byte	.LFE157
 7135 0030 00000000 		.4byte	.LFB158
 7136 0034 12000000 		.4byte	.LFE158
 7137 0038 00000000 		.4byte	.LFB159
 7138 003c 12000000 		.4byte	.LFE159
 7139 0040 00000000 		.4byte	.LFB233
 7140 0044 0A000000 		.4byte	.LFE233
 7141 0048 00000000 		.4byte	.LFB234
 7142 004c 0A000000 		.4byte	.LFE234
 7143 0050 00000000 		.4byte	.LFB235
 7144 0054 0A000000 		.4byte	.LFE235
 7145 0058 00000000 		.4byte	.LFB236
 7146 005c 0A000000 		.4byte	.LFE236
 7147 0060 00000000 		.4byte	.LFB260
 7148 0064 30000000 		.4byte	.LFE260
 7149 0068 00000000 		.4byte	.LFB261
 7150 006c 3C000000 		.4byte	.LFE261
 7151 0070 00000000 		.4byte	.LFB262
 7152 0074 A4030000 		.4byte	.LFE262
 7153 0078 00000000 		.4byte	.LFB263
 7154 007c 0A000000 		.4byte	.LFE263
 7155 0080 00000000 		.4byte	.LFB264
 7156 0084 56000000 		.4byte	.LFE264
 7157 0088 00000000 		.4byte	.LFB265
 7158 008c 78000000 		.4byte	.LFE265
 7159 0090 00000000 		.4byte	.LFB266
 7160 0094 58000000 		.4byte	.LFE266
 7161 0098 00000000 		.4byte	.LFB267
 7162 009c 98000000 		.4byte	.LFE267
 7163 00a0 00000000 		.4byte	.LFB268
 7164 00a4 74000000 		.4byte	.LFE268
 7165 00a8 00000000 		.4byte	.LFB269
 7166 00ac 48000000 		.4byte	.LFE269
 7167 00b0 00000000 		.4byte	.LFB270
 7168 00b4 48000000 		.4byte	.LFE270
 7169 00b8 00000000 		.4byte	.LFB271
ARM GAS  C:\Users\Luis\AppData\Local\Temp\ccB0PfuY.s 			page 128


 7170 00bc 48000000 		.4byte	.LFE271
 7171 00c0 00000000 		.4byte	.LFB272
 7172 00c4 48000000 		.4byte	.LFE272
 7173 00c8 00000000 		.4byte	.LFB273
 7174 00cc 64000000 		.4byte	.LFE273
 7175 00d0 00000000 		.4byte	.LFB274
 7176 00d4 64000000 		.4byte	.LFE274
 7177 00d8 00000000 		.4byte	.LFB275
 7178 00dc 50000000 		.4byte	.LFE275
 7179 00e0 00000000 		.4byte	.LFB276
 7180 00e4 50000000 		.4byte	.LFE276
 7181 00e8 00000000 		.4byte	.LFB277
 7182 00ec 66000000 		.4byte	.LFE277
 7183 00f0 00000000 		.4byte	.LFB278
 7184 00f4 74010000 		.4byte	.LFE278
 7185 00f8 00000000 		.4byte	.LFB279
 7186 00fc 14010000 		.4byte	.LFE279
 7187 0100 00000000 		.4byte	.LFB280
 7188 0104 CC000000 		.4byte	.LFE280
 7189 0108 00000000 		.4byte	0
 7190 010c 00000000 		.4byte	0
 7191              		.section	.debug_line,"",%progbits
 7192              	.Ldebug_line0:
 7193 0000 17070000 		.section	.debug_str,"MS",%progbits,1
 7193      02008502 
 7193      00000201 
 7193      FB0E0D00 
 7193      01010101 
 7194              	.LASF47:
 7195 0000 705F7374 		.ascii	"p_stats\000"
 7195      61747300 
 7196              	.LASF11:
 7197 0008 73697A65 		.ascii	"size_t\000"
 7197      5F7400
 7198              	.LASF8:
 7199 000f 73697A65 		.ascii	"sizetype\000"
 7199      74797065 
 7199      00
 7200              	.LASF116:
 7201 0018 77747365 		.ascii	"wtsemp\000"
 7201      6D7000
 7202              	.LASF27:
 7203 001f 73797374 		.ascii	"systime_t\000"
 7203      696D655F 
 7203      7400
 7204              	.LASF174:
 7205 0029 5553425F 		.ascii	"USB_EP0_WAITING_STS\000"
 7205      4550305F 
 7205      57414954 
 7205      494E475F 
 7205      53545300 
 7206              	.LASF32:
 7207 003d 705F6374 		.ascii	"p_ctx\000"
 7207      7800
 7208              	.LASF22:
 7209 0043 74707269 		.ascii	"tprio_t\000"
 7209      6F5F7400 
ARM GAS  C:\Users\Luis\AppData\Local\Temp\ccB0PfuY.s 			page 129


 7210              	.LASF41:
 7211 004b 705F6D73 		.ascii	"p_msgqueue\000"
 7211      67717565 
 7211      756500
 7212              	.LASF59:
 7213 0056 725F6374 		.ascii	"r_ctx\000"
 7213      7800
 7214              	.LASF14:
 7215 005c 696E7433 		.ascii	"int32_t\000"
 7215      325F7400 
 7216              	.LASF204:
 7217 0064 72657376 		.ascii	"resvd4\000"
 7217      643400
 7218              	.LASF195:
 7219 006b 72657376 		.ascii	"resvd8\000"
 7219      643800
 7220              	.LASF63:
 7221 0072 76746675 		.ascii	"vtfunc_t\000"
 7221      6E635F74 
 7221      00
 7222              	.LASF206:
 7223 007b 72657376 		.ascii	"resvdC\000"
 7223      644300
 7224              	.LASF72:
 7225 0082 63685F76 		.ascii	"ch_virtual_timers_list\000"
 7225      69727475 
 7225      616C5F74 
 7225      696D6572 
 7225      735F6C69 
 7226              	.LASF332:
 7227 0099 75736253 		.ascii	"usbStartReceiveI\000"
 7227      74617274 
 7227      52656365 
 7227      69766549 
 7227      00
 7228              	.LASF323:
 7229 00aa 5F5F6675 		.ascii	"__func__\000"
 7229      6E635F5F 
 7229      00
 7230              	.LASF172:
 7231 00b3 5553425F 		.ascii	"USB_EP0_TX\000"
 7231      4550305F 
 7231      545800
 7232              	.LASF244:
 7233 00be 72657376 		.ascii	"resvd700\000"
 7233      64373030 
 7233      00
 7234              	.LASF143:
 7235 00c7 636F6E66 		.ascii	"config\000"
 7235      696700
 7236              	.LASF142:
 7237 00ce 73746174 		.ascii	"state\000"
 7237      6500
 7238              	.LASF289:
 7239 00d4 65705F6D 		.ascii	"ep_mode\000"
 7239      6F646500 
 7240              	.LASF331:
ARM GAS  C:\Users\Luis\AppData\Local\Temp\ccB0PfuY.s 			page 130


 7241 00dc 75736250 		.ascii	"usbPrepareQueuedTransmit\000"
 7241      72657061 
 7241      72655175 
 7241      65756564 
 7241      5472616E 
 7242              	.LASF78:
 7243 00f5 6C6F636B 		.ascii	"lock_cnt\000"
 7243      5F636E74 
 7243      00
 7244              	.LASF48:
 7245 00fe 746C7350 		.ascii	"tlsPtr\000"
 7245      747200
 7246              	.LASF166:
 7247 0105 5553425F 		.ascii	"USB_ACTIVE\000"
 7247      41435449 
 7247      564500
 7248              	.LASF92:
 7249 0110 73655F74 		.ascii	"se_tp\000"
 7249      7000
 7250              	.LASF106:
 7251 0116 74696D65 		.ascii	"time_measurement_t\000"
 7251      5F6D6561 
 7251      73757265 
 7251      6D656E74 
 7251      5F7400
 7252              	.LASF339:
 7253 0129 5F757362 		.ascii	"_usb_ep0out\000"
 7253      5F657030 
 7253      6F757400 
 7254              	.LASF315:
 7255 0135 6F73616C 		.ascii	"osalSysLockFromISR\000"
 7255      5379734C 
 7255      6F636B46 
 7255      726F6D49 
 7255      535200
 7256              	.LASF314:
 7257 0148 6F73616C 		.ascii	"osalSysUnlock\000"
 7257      53797355 
 7257      6E6C6F63 
 7257      6B00
 7258              	.LASF77:
 7259 0156 6973725F 		.ascii	"isr_cnt\000"
 7259      636E7400 
 7260              	.LASF124:
 7261 015e 6D5F6F77 		.ascii	"m_owner\000"
 7261      6E657200 
 7262              	.LASF70:
 7263 0166 76745F70 		.ascii	"vt_par\000"
 7263      617200
 7264              	.LASF113:
 7265 016d 65786974 		.ascii	"exitcode\000"
 7265      636F6465 
 7265      00
 7266              	.LASF178:
 7267 0176 75736265 		.ascii	"usbep0state_t\000"
 7267      70307374 
 7267      6174655F 
ARM GAS  C:\Users\Luis\AppData\Local\Temp\ccB0PfuY.s 			page 131


 7267      7400
 7268              	.LASF132:
 7269 0184 715F746F 		.ascii	"q_top\000"
 7269      7000
 7270              	.LASF131:
 7271 018a 715F6275 		.ascii	"q_buffer\000"
 7271      66666572 
 7271      00
 7272              	.LASF180:
 7273 0193 5553425F 		.ascii	"USB_EVENT_ADDRESS\000"
 7273      4556454E 
 7273      545F4144 
 7273      44524553 
 7273      5300
 7274              	.LASF225:
 7275 01a5 44494550 		.ascii	"DIEPTXF0\000"
 7275      54584630 
 7275      00
 7276              	.LASF135:
 7277 01ae 715F6E6F 		.ascii	"q_notify\000"
 7277      74696679 
 7277      00
 7278              	.LASF33:
 7279 01b7 705F6E65 		.ascii	"p_newer\000"
 7279      77657200 
 7280              	.LASF7:
 7281 01bf 6C6F6E67 		.ascii	"long int\000"
 7281      20696E74 
 7281      00
 7282              	.LASF29:
 7283 01c8 705F6E65 		.ascii	"p_next\000"
 7283      787400
 7284              	.LASF306:
 7285 01cf 706F7274 		.ascii	"port_unlock\000"
 7285      5F756E6C 
 7285      6F636B00 
 7286              	.LASF134:
 7287 01db 715F7264 		.ascii	"q_rdptr\000"
 7287      70747200 
 7288              	.LASF279:
 7289 01e3 7478636E 		.ascii	"txcnt\000"
 7289      7400
 7290              	.LASF30:
 7291 01e9 705F7072 		.ascii	"p_prev\000"
 7291      657600
 7292              	.LASF311:
 7293 01f0 63685379 		.ascii	"chSysLockFromISR\000"
 7293      734C6F63 
 7293      6B46726F 
 7293      6D495352 
 7293      00
 7294              	.LASF20:
 7295 0201 74737461 		.ascii	"tstate_t\000"
 7295      74655F74 
 7295      00
 7296              	.LASF18:
 7297 020a 72747469 		.ascii	"rttime_t\000"
ARM GAS  C:\Users\Luis\AppData\Local\Temp\ccB0PfuY.s 			page 132


 7297      6D655F74 
 7297      00
 7298              	.LASF53:
 7299 0213 74687265 		.ascii	"threads_queue_t\000"
 7299      6164735F 
 7299      71756575 
 7299      655F7400 
 7300              	.LASF44:
 7301 0223 705F6D74 		.ascii	"p_mtxlist\000"
 7301      786C6973 
 7301      7400
 7302              	.LASF273:
 7303 022d 74786275 		.ascii	"txbuf\000"
 7303      6600
 7304              	.LASF87:
 7305 0233 72656761 		.ascii	"regarm_t\000"
 7305      726D5F74 
 7305      00
 7306              	.LASF251:
 7307 023c 4441494E 		.ascii	"DAINT\000"
 7307      5400
 7308              	.LASF171:
 7309 0242 5553425F 		.ascii	"USB_EP0_WAITING_SETUP\000"
 7309      4550305F 
 7309      57414954 
 7309      494E475F 
 7309      53455455 
 7310              	.LASF250:
 7311 0258 444F4550 		.ascii	"DOEPMSK\000"
 7311      4D534B00 
 7312              	.LASF321:
 7313 0260 7573624F 		.ascii	"usbObjectInit\000"
 7313      626A6563 
 7313      74496E69 
 7313      7400
 7314              	.LASF128:
 7315 026e 696F5F71 		.ascii	"io_queue\000"
 7315      75657565 
 7315      00
 7316              	.LASF319:
 7317 0277 6765745F 		.ascii	"get_hword\000"
 7317      68776F72 
 7317      6400
 7318              	.LASF211:
 7319 0281 444F4550 		.ascii	"DOEPCTL\000"
 7319      43544C00 
 7320              	.LASF313:
 7321 0289 6F73616C 		.ascii	"osalSysLock\000"
 7321      5379734C 
 7321      6F636B00 
 7322              	.LASF105:
 7323 0295 63756D75 		.ascii	"cumulative\000"
 7323      6C617469 
 7323      766500
 7324              	.LASF1:
 7325 02a0 7369676E 		.ascii	"signed char\000"
 7325      65642063 
ARM GAS  C:\Users\Luis\AppData\Local\Temp\ccB0PfuY.s 			page 133


 7325      68617200 
 7326              	.LASF118:
 7327 02ac 65776D61 		.ascii	"ewmask\000"
 7327      736B00
 7328              	.LASF12:
 7329 02b3 75696E74 		.ascii	"uint8_t\000"
 7329      385F7400 
 7330              	.LASF184:
 7331 02bb 5553425F 		.ascii	"USB_EVENT_STALLED\000"
 7331      4556454E 
 7331      545F5354 
 7331      414C4C45 
 7331      4400
 7332              	.LASF170:
 7333 02cd 45505F53 		.ascii	"EP_STATUS_ACTIVE\000"
 7333      54415455 
 7333      535F4143 
 7333      54495645 
 7333      00
 7334              	.LASF212:
 7335 02de 444F4550 		.ascii	"DOEPINT\000"
 7335      494E5400 
 7336              	.LASF342:
 7337 02e6 68616C74 		.ascii	"halted_status\000"
 7337      65645F73 
 7337      74617475 
 7337      7300
 7338              	.LASF24:
 7339 02f4 6576656E 		.ascii	"eventmask_t\000"
 7339      746D6173 
 7339      6B5F7400 
 7340              	.LASF89:
 7341 0300 636F6E74 		.ascii	"context\000"
 7341      65787400 
 7342              	.LASF286:
 7343 0308 72787369 		.ascii	"rxsize\000"
 7343      7A6500
 7344              	.LASF115:
 7345 030f 77747472 		.ascii	"wttrp\000"
 7345      7000
 7346              	.LASF312:
 7347 0315 63685379 		.ascii	"chSysUnlockFromISR\000"
 7347      73556E6C 
 7347      6F636B46 
 7347      726F6D49 
 7347      535200
 7348              	.LASF336:
 7349 0328 5F757362 		.ascii	"_usb_reset\000"
 7349      5F726573 
 7349      657400
 7350              	.LASF2:
 7351 0333 756E7369 		.ascii	"unsigned char\000"
 7351      676E6564 
 7351      20636861 
 7351      7200
 7352              	.LASF177:
 7353 0341 5553425F 		.ascii	"USB_EP0_ERROR\000"
ARM GAS  C:\Users\Luis\AppData\Local\Temp\ccB0PfuY.s 			page 134


 7353      4550305F 
 7353      4552524F 
 7353      5200
 7354              	.LASF136:
 7355 034f 715F6C69 		.ascii	"q_link\000"
 7355      6E6B00
 7356              	.LASF76:
 7357 0356 70616E69 		.ascii	"panic_msg\000"
 7357      635F6D73 
 7357      6700
 7358              	.LASF245:
 7359 0360 44434647 		.ascii	"DCFG\000"
 7359      00
 7360              	.LASF79:
 7361 0365 74726163 		.ascii	"trace_buffer\000"
 7361      655F6275 
 7361      66666572 
 7361      00
 7362              	.LASF60:
 7363 0372 725F6E65 		.ascii	"r_newer\000"
 7363      77657200 
 7364              	.LASF229:
 7365 037a 47434346 		.ascii	"GCCFG\000"
 7365      4700
 7366              	.LASF148:
 7367 0380 65703073 		.ascii	"ep0state\000"
 7367      74617465 
 7367      00
 7368              	.LASF74:
 7369 0389 73797374 		.ascii	"system_debug_t\000"
 7369      656D5F64 
 7369      65627567 
 7369      5F7400
 7370              	.LASF207:
 7371 0398 44494550 		.ascii	"DIEPTSIZ\000"
 7371      5453495A 
 7371      00
 7372              	.LASF302:
 7373 03a1 72657175 		.ascii	"requests_hook_cb\000"
 7373      65737473 
 7373      5F686F6F 
 7373      6B5F6362 
 7373      00
 7374              	.LASF140:
 7375 03b2 5F426F6F 		.ascii	"_Bool\000"
 7375      6C00
 7376              	.LASF348:
 7377 03b8 76616C75 		.ascii	"value\000"
 7377      6500
 7378              	.LASF234:
 7379 03be 48434647 		.ascii	"HCFG\000"
 7379      00
 7380              	.LASF194:
 7381 03c3 48434348 		.ascii	"HCCHAR\000"
 7381      415200
 7382              	.LASF214:
 7383 03ca 73746D33 		.ascii	"stm32_otg_out_ep_t\000"
ARM GAS  C:\Users\Luis\AppData\Local\Temp\ccB0PfuY.s 			page 135


 7383      325F6F74 
 7383      675F6F75 
 7383      745F6570 
 7383      5F7400
 7384              	.LASF10:
 7385 03dd 63686172 		.ascii	"char\000"
 7385      00
 7386              	.LASF324:
 7387 03e2 75736253 		.ascii	"usbStop\000"
 7387      746F7000 
 7388              	.LASF150:
 7389 03ea 6570306E 		.ascii	"ep0n\000"
 7389      00
 7390              	.LASF248:
 7391 03ef 72657376 		.ascii	"resvd80C\000"
 7391      64383043 
 7391      00
 7392              	.LASF242:
 7393 03f8 48505254 		.ascii	"HPRT\000"
 7393      00
 7394              	.LASF31:
 7395 03fd 705F7072 		.ascii	"p_prio\000"
 7395      696F00
 7396              	.LASF145:
 7397 0404 72656365 		.ascii	"receiving\000"
 7397      6976696E 
 7397      6700
 7398              	.LASF141:
 7399 040e 55534244 		.ascii	"USBDriver\000"
 7399      72697665 
 7399      7200
 7400              	.LASF114:
 7401 0418 77746F62 		.ascii	"wtobjp\000"
 7401      6A7000
 7402              	.LASF108:
 7403 041f 6E5F6374 		.ascii	"n_ctxswc\000"
 7403      78737763 
 7403      00
 7404              	.LASF290:
 7405 0428 73657475 		.ascii	"setup_cb\000"
 7405      705F6362 
 7405      00
 7406              	.LASF187:
 7407 0431 75645F73 		.ascii	"ud_string\000"
 7407      7472696E 
 7407      6700
 7408              	.LASF291:
 7409 043b 696E5F63 		.ascii	"in_cb\000"
 7409      6200
 7410              	.LASF88:
 7411 0441 73746B61 		.ascii	"stkalign_t\000"
 7411      6C69676E 
 7411      5F7400
 7412              	.LASF327:
 7413 044c 75736244 		.ascii	"usbDisableEndpointsI\000"
 7413      69736162 
 7413      6C65456E 
ARM GAS  C:\Users\Luis\AppData\Local\Temp\ccB0PfuY.s 			page 136


 7413      64706F69 
 7413      6E747349 
 7414              	.LASF345:
 7415 0461 2E2E2F2E 		.ascii	"../../ChibiOS/os/hal/src/usb.c\000"
 7415      2E2F4368 
 7415      6962694F 
 7415      532F6F73 
 7415      2F68616C 
 7416              	.LASF236:
 7417 0480 48464E55 		.ascii	"HFNUM\000"
 7417      4D00
 7418              	.LASF191:
 7419 0486 75736265 		.ascii	"usbeventcb_t\000"
 7419      76656E74 
 7419      63625F74 
 7419      00
 7420              	.LASF202:
 7421 0493 73746D33 		.ascii	"stm32_otg_host_chn_t\000"
 7421      325F6F74 
 7421      675F686F 
 7421      73745F63 
 7421      686E5F74 
 7422              	.LASF103:
 7423 04a8 776F7273 		.ascii	"worst\000"
 7423      7400
 7424              	.LASF144:
 7425 04ae 7472616E 		.ascii	"transmitting\000"
 7425      736D6974 
 7425      74696E67 
 7425      00
 7426              	.LASF198:
 7427 04bb 48435453 		.ascii	"HCTSIZ\000"
 7427      495A00
 7428              	.LASF282:
 7429 04c2 55534249 		.ascii	"USBInEndpointState\000"
 7429      6E456E64 
 7429      706F696E 
 7429      74537461 
 7429      746500
 7430              	.LASF253:
 7431 04d5 72657376 		.ascii	"resvd820\000"
 7431      64383230 
 7431      00
 7432              	.LASF254:
 7433 04de 72657376 		.ascii	"resvd824\000"
 7433      64383234 
 7433      00
 7434              	.LASF256:
 7435 04e7 44564255 		.ascii	"DVBUSPULSE\000"
 7435      5350554C 
 7435      534500
 7436              	.LASF341:
 7437 04f2 61637469 		.ascii	"active_status\000"
 7437      76655F73 
 7437      74617475 
 7437      7300
 7438              	.LASF25:
ARM GAS  C:\Users\Luis\AppData\Local\Temp\ccB0PfuY.s 			page 137


 7439 0500 636E745F 		.ascii	"cnt_t\000"
 7439      7400
 7440              	.LASF69:
 7441 0506 76745F66 		.ascii	"vt_func\000"
 7441      756E6300 
 7442              	.LASF188:
 7443 050e 55534244 		.ascii	"USBDescriptor\000"
 7443      65736372 
 7443      6970746F 
 7443      7200
 7444              	.LASF334:
 7445 051c 75736253 		.ascii	"usbStallReceiveI\000"
 7445      74616C6C 
 7445      52656365 
 7445      69766549 
 7445      00
 7446              	.LASF272:
 7447 052d 73746D33 		.ascii	"stm32_otg_params_t\000"
 7447      325F6F74 
 7447      675F7061 
 7447      72616D73 
 7447      5F7400
 7448              	.LASF152:
 7449 0540 73657475 		.ascii	"setup\000"
 7449      7000
 7450              	.LASF99:
 7451 0546 63685F74 		.ascii	"ch_trace_buffer_t\000"
 7451      72616365 
 7451      5F627566 
 7451      6665725F 
 7451      7400
 7452              	.LASF43:
 7453 0558 705F6570 		.ascii	"p_epending\000"
 7453      656E6469 
 7453      6E6700
 7454              	.LASF117:
 7455 0563 77746D74 		.ascii	"wtmtxp\000"
 7455      787000
 7456              	.LASF185:
 7457 056a 75736265 		.ascii	"usbevent_t\000"
 7457      76656E74 
 7457      5F7400
 7458              	.LASF56:
 7459 0575 63685F72 		.ascii	"ch_ready_list\000"
 7459      65616479 
 7459      5F6C6973 
 7459      7400
 7460              	.LASF186:
 7461 0583 75645F73 		.ascii	"ud_size\000"
 7461      697A6500 
 7462              	.LASF165:
 7463 058b 5553425F 		.ascii	"USB_SELECTED\000"
 7463      53454C45 
 7463      43544544 
 7463      00
 7464              	.LASF155:
 7465 0598 636F6E66 		.ascii	"configuration\000"
ARM GAS  C:\Users\Luis\AppData\Local\Temp\ccB0PfuY.s 			page 138


 7465      69677572 
 7465      6174696F 
 7465      6E00
 7466              	.LASF45:
 7467 05a6 705F7265 		.ascii	"p_realprio\000"
 7467      616C7072 
 7467      696F00
 7468              	.LASF224:
 7469 05b1 47525846 		.ascii	"GRXFSIZ\000"
 7469      53495A00 
 7470              	.LASF169:
 7471 05b9 45505F53 		.ascii	"EP_STATUS_STALLED\000"
 7471      54415455 
 7471      535F5354 
 7471      414C4C45 
 7471      4400
 7472              	.LASF316:
 7473 05cb 6F73616C 		.ascii	"osalSysUnlockFromISR\000"
 7473      53797355 
 7473      6E6C6F63 
 7473      6B46726F 
 7473      6D495352 
 7474              	.LASF110:
 7475 05e0 6D5F6372 		.ascii	"m_crit_isr\000"
 7475      69745F69 
 7475      737200
 7476              	.LASF130:
 7477 05eb 715F636F 		.ascii	"q_counter\000"
 7477      756E7465 
 7477      7200
 7478              	.LASF94:
 7479 05f5 73655F73 		.ascii	"se_state\000"
 7479      74617465 
 7479      00
 7480              	.LASF261:
 7481 05fe 72657376 		.ascii	"resvd840\000"
 7481      64383430 
 7481      00
 7482              	.LASF109:
 7483 0607 6D5F6372 		.ascii	"m_crit_thd\000"
 7483      69745F74 
 7483      686400
 7484              	.LASF232:
 7485 0612 44494550 		.ascii	"DIEPTXF\000"
 7485      54584600 
 7486              	.LASF335:
 7487 061a 75736253 		.ascii	"usbStallTransmitI\000"
 7487      74616C6C 
 7487      5472616E 
 7487      736D6974 
 7487      4900
 7488              	.LASF310:
 7489 062c 63685379 		.ascii	"chSysUnlock\000"
 7489      73556E6C 
 7489      6F636B00 
 7490              	.LASF9:
 7491 0638 6C6F6E67 		.ascii	"long unsigned int\000"
ARM GAS  C:\Users\Luis\AppData\Local\Temp\ccB0PfuY.s 			page 139


 7491      20756E73 
 7491      69676E65 
 7491      6420696E 
 7491      7400
 7492              	.LASF329:
 7493 064a 75736250 		.ascii	"usbPrepareTransmit\000"
 7493      72657061 
 7493      72655472 
 7493      616E736D 
 7493      697400
 7494              	.LASF309:
 7495 065d 63685379 		.ascii	"chSysLock\000"
 7495      734C6F63 
 7495      6B00
 7496              	.LASF153:
 7497 0667 73746174 		.ascii	"status\000"
 7497      757300
 7498              	.LASF340:
 7499 066e 7A65726F 		.ascii	"zero_status\000"
 7499      5F737461 
 7499      74757300 
 7500              	.LASF154:
 7501 067a 61646472 		.ascii	"address\000"
 7501      65737300 
 7502              	.LASF119:
 7503 0682 63685F73 		.ascii	"ch_semaphore\000"
 7503      656D6170 
 7503      686F7265 
 7503      00
 7504              	.LASF151:
 7505 068f 65703065 		.ascii	"ep0endcb\000"
 7505      6E646362 
 7505      00
 7506              	.LASF51:
 7507 0698 63685F74 		.ascii	"ch_thread\000"
 7507      68726561 
 7507      6400
 7508              	.LASF217:
 7509 06a2 47414842 		.ascii	"GAHBCFG\000"
 7509      43464700 
 7510              	.LASF71:
 7511 06aa 76697274 		.ascii	"virtual_timers_list_t\000"
 7511      75616C5F 
 7511      74696D65 
 7511      72735F6C 
 7511      6973745F 
 7512              	.LASF297:
 7513 06c0 696E5F6D 		.ascii	"in_multiplier\000"
 7513      756C7469 
 7513      706C6965 
 7513      7200
 7514              	.LASF318:
 7515 06ce 75736270 		.ascii	"usbp\000"
 7515      00
 7516              	.LASF271:
 7517 06d3 6E756D5F 		.ascii	"num_endpoints\000"
 7517      656E6470 
ARM GAS  C:\Users\Luis\AppData\Local\Temp\ccB0PfuY.s 			page 140


 7517      6F696E74 
 7517      7300
 7518              	.LASF64:
 7519 06e1 76697274 		.ascii	"virtual_timer_t\000"
 7519      75616C5F 
 7519      74696D65 
 7519      725F7400 
 7520              	.LASF55:
 7521 06f1 72656164 		.ascii	"ready_list_t\000"
 7521      795F6C69 
 7521      73745F74 
 7521      00
 7522              	.LASF133:
 7523 06fe 715F7772 		.ascii	"q_wrptr\000"
 7523      70747200 
 7524              	.LASF278:
 7525 0706 74787369 		.ascii	"txsize\000"
 7525      7A6500
 7526              	.LASF26:
 7527 070d 75636E74 		.ascii	"ucnt_t\000"
 7527      5F7400
 7528              	.LASF287:
 7529 0714 7278636E 		.ascii	"rxcnt\000"
 7529      7400
 7530              	.LASF167:
 7531 071a 75736273 		.ascii	"usbstate_t\000"
 7531      74617465 
 7531      5F7400
 7532              	.LASF52:
 7533 0725 63685F74 		.ascii	"ch_threads_list\000"
 7533      68726561 
 7533      64735F6C 
 7533      69737400 
 7534              	.LASF95:
 7535 0735 63685F73 		.ascii	"ch_swc_event_t\000"
 7535      77635F65 
 7535      76656E74 
 7535      5F7400
 7536              	.LASF107:
 7537 0744 6E5F6972 		.ascii	"n_irq\000"
 7537      7100
 7538              	.LASF237:
 7539 074a 72657376 		.ascii	"resvd40C\000"
 7539      64343043 
 7539      00
 7540              	.LASF215:
 7541 0753 474F5447 		.ascii	"GOTGCTL\000"
 7541      43544C00 
 7542              	.LASF337:
 7543 075b 5F757362 		.ascii	"_usb_ep0setup\000"
 7543      5F657030 
 7543      73657475 
 7543      7000
 7544              	.LASF283:
 7545 0769 72786275 		.ascii	"rxbuf\000"
 7545      6600
 7546              	.LASF223:
ARM GAS  C:\Users\Luis\AppData\Local\Temp\ccB0PfuY.s 			page 141


 7547 076f 47525853 		.ascii	"GRXSTSP\000"
 7547      54535000 
 7548              	.LASF295:
 7549 0777 696E5F73 		.ascii	"in_state\000"
 7549      74617465 
 7549      00
 7550              	.LASF222:
 7551 0780 47525853 		.ascii	"GRXSTSR\000"
 7551      54535200 
 7552              	.LASF183:
 7553 0788 5553425F 		.ascii	"USB_EVENT_WAKEUP\000"
 7553      4556454E 
 7553      545F5741 
 7553      4B455550 
 7553      00
 7554              	.LASF265:
 7555 0799 50434743 		.ascii	"PCGCCTL\000"
 7555      43544C00 
 7556              	.LASF300:
 7557 07a1 6576656E 		.ascii	"event_cb\000"
 7557      745F6362 
 7557      00
 7558              	.LASF216:
 7559 07aa 474F5447 		.ascii	"GOTGINT\000"
 7559      494E5400 
 7560              	.LASF5:
 7561 07b2 6C6F6E67 		.ascii	"long long int\000"
 7561      206C6F6E 
 7561      6720696E 
 7561      7400
 7562              	.LASF164:
 7563 07c0 5553425F 		.ascii	"USB_READY\000"
 7563      52454144 
 7563      5900
 7564              	.LASF123:
 7565 07ca 6D5F7175 		.ascii	"m_queue\000"
 7565      65756500 
 7566              	.LASF307:
 7567 07d2 706F7274 		.ascii	"port_lock_from_isr\000"
 7567      5F6C6F63 
 7567      6B5F6672 
 7567      6F6D5F69 
 7567      737200
 7568              	.LASF241:
 7569 07e5 72657376 		.ascii	"resvd41C\000"
 7569      64343143 
 7569      00
 7570              	.LASF66:
 7571 07ee 76745F6E 		.ascii	"vt_next\000"
 7571      65787400 
 7572              	.LASF149:
 7573 07f6 6570306E 		.ascii	"ep0next\000"
 7573      65787400 
 7574              	.LASF67:
 7575 07fe 76745F70 		.ascii	"vt_prev\000"
 7575      72657600 
 7576              	.LASF257:
ARM GAS  C:\Users\Luis\AppData\Local\Temp\ccB0PfuY.s 			page 142


 7577 0806 72657376 		.ascii	"resvd830\000"
 7577      64383330 
 7577      00
 7578              	.LASF96:
 7579 080f 74625F73 		.ascii	"tb_size\000"
 7579      697A6500 
 7580              	.LASF259:
 7581 0817 72657376 		.ascii	"resvd838\000"
 7581      64383338 
 7581      00
 7582              	.LASF190:
 7583 0820 75736265 		.ascii	"usbepcallback_t\000"
 7583      7063616C 
 7583      6C626163 
 7583      6B5F7400 
 7584              	.LASF262:
 7585 0830 72657376 		.ascii	"resvd880\000"
 7585      64383830 
 7585      00
 7586              	.LASF343:
 7587 0839 49544D5F 		.ascii	"ITM_RxBuffer\000"
 7587      52784275 
 7587      66666572 
 7587      00
 7588              	.LASF260:
 7589 0846 72657376 		.ascii	"resvd83C\000"
 7589      64383343 
 7589      00
 7590              	.LASF159:
 7591 084f 77616974 		.ascii	"wait\000"
 7591      00
 7592              	.LASF137:
 7593 0854 716E6F74 		.ascii	"qnotify_t\000"
 7593      6966795F 
 7593      7400
 7594              	.LASF40:
 7595 085e 705F7761 		.ascii	"p_waiting\000"
 7595      6974696E 
 7595      6700
 7596              	.LASF93:
 7597 0868 73655F77 		.ascii	"se_wtobjp\000"
 7597      746F626A 
 7597      7000
 7598              	.LASF38:
 7599 0872 705F666C 		.ascii	"p_flags\000"
 7599      61677300 
 7600              	.LASF213:
 7601 087a 444F4550 		.ascii	"DOEPTSIZ\000"
 7601      5453495A 
 7601      00
 7602              	.LASF86:
 7603 0883 69646C65 		.ascii	"idle_thread_wa\000"
 7603      5F746872 
 7603      6561645F 
 7603      776100
 7604              	.LASF239:
 7605 0892 4841494E 		.ascii	"HAINT\000"
ARM GAS  C:\Users\Luis\AppData\Local\Temp\ccB0PfuY.s 			page 143


 7605      5400
 7606              	.LASF0:
 7607 0898 756E7369 		.ascii	"unsigned int\000"
 7607      676E6564 
 7607      20696E74 
 7607      00
 7608              	.LASF304:
 7609 08a5 55534243 		.ascii	"USBConfig\000"
 7609      6F6E6669 
 7609      6700
 7610              	.LASF17:
 7611 08af 7274636E 		.ascii	"rtcnt_t\000"
 7611      745F7400 
 7612              	.LASF158:
 7613 08b7 74787065 		.ascii	"txpending\000"
 7613      6E64696E 
 7613      6700
 7614              	.LASF46:
 7615 08c1 705F6D70 		.ascii	"p_mpool\000"
 7615      6F6F6C00 
 7616              	.LASF268:
 7617 08c9 73746D33 		.ascii	"stm32_otg_t\000"
 7617      325F6F74 
 7617      675F7400 
 7618              	.LASF39:
 7619 08d5 705F7265 		.ascii	"p_refs\000"
 7619      667300
 7620              	.LASF298:
 7621 08dc 73657475 		.ascii	"setup_buf\000"
 7621      705F6275 
 7621      6600
 7622              	.LASF111:
 7623 08e6 6B65726E 		.ascii	"kernel_stats_t\000"
 7623      656C5F73 
 7623      74617473 
 7623      5F7400
 7624              	.LASF243:
 7625 08f5 72657376 		.ascii	"resvd444\000"
 7625      64343434 
 7625      00
 7626              	.LASF292:
 7627 08fe 6F75745F 		.ascii	"out_cb\000"
 7627      636200
 7628              	.LASF344:
 7629 0905 474E5520 		.ascii	"GNU C 4.8.3 20131129 (release) [ARM/embedded-4_8-br"
 7629      4320342E 
 7629      382E3320 
 7629      32303133 
 7629      31313239 
 7630 0938 616E6368 		.ascii	"anch revision 205641] -mcpu=cortex-m4 -mapcs-frame "
 7630      20726576 
 7630      6973696F 
 7630      6E203230 
 7630      35363431 
 7631 096b 2D6D6E6F 		.ascii	"-mno-thumb-interwork -mthumb -ggdb -O0 -falign-func"
 7631      2D746875 
 7631      6D622D69 
ARM GAS  C:\Users\Luis\AppData\Local\Temp\ccB0PfuY.s 			page 144


 7631      6E746572 
 7631      776F726B 
 7632 099e 74696F6E 		.ascii	"tions=16 -ffunction-sections -fdata-sections -fno-c"
 7632      733D3136 
 7632      202D6666 
 7632      756E6374 
 7632      696F6E2D 
 7633 09d1 6F6D6D6F 		.ascii	"ommon\000"
 7633      6E00
 7634              	.LASF100:
 7635 09d7 6F666673 		.ascii	"offset\000"
 7635      657400
 7636              	.LASF240:
 7637 09de 4841494E 		.ascii	"HAINTMSK\000"
 7637      544D534B 
 7637      00
 7638              	.LASF98:
 7639 09e7 74625F62 		.ascii	"tb_buffer\000"
 7639      75666665 
 7639      7200
 7640              	.LASF163:
 7641 09f1 5553425F 		.ascii	"USB_STOP\000"
 7641      53544F50 
 7641      00
 7642              	.LASF293:
 7643 09fa 696E5F6D 		.ascii	"in_maxsize\000"
 7643      61787369 
 7643      7A6500
 7644              	.LASF221:
 7645 0a05 47494E54 		.ascii	"GINTMSK\000"
 7645      4D534B00 
 7646              	.LASF296:
 7647 0a0d 6F75745F 		.ascii	"out_state\000"
 7647      73746174 
 7647      6500
 7648              	.LASF28:
 7649 0a17 74687265 		.ascii	"thread_t\000"
 7649      61645F74 
 7649      00
 7650              	.LASF49:
 7651 0a20 74687265 		.ascii	"thread_reference_t\000"
 7651      61645F72 
 7651      65666572 
 7651      656E6365 
 7651      5F7400
 7652              	.LASF346:
 7653 0a33 433A5C55 		.ascii	"C:\\Users\\Luis\\git\\DSP-Library-Lanin\\examples\\"
 7653      73657273 
 7653      5C4C7569 
 7653      735C6769 
 7653      745C4453 
 7654 0a60 4453502D 		.ascii	"DSP-Library\000"
 7654      4C696272 
 7654      61727900 
 7655              	.LASF173:
 7656 0a6c 5553425F 		.ascii	"USB_EP0_WAITING_TX0\000"
 7656      4550305F 
ARM GAS  C:\Users\Luis\AppData\Local\Temp\ccB0PfuY.s 			page 145


 7656      57414954 
 7656      494E475F 
 7656      54583000 
 7657              	.LASF90:
 7658 0a80 706F7274 		.ascii	"port_intctx\000"
 7658      5F696E74 
 7658      63747800 
 7659              	.LASF156:
 7660 0a8c 6F746770 		.ascii	"otgparams\000"
 7660      6172616D 
 7660      7300
 7661              	.LASF308:
 7662 0a96 706F7274 		.ascii	"port_unlock_from_isr\000"
 7662      5F756E6C 
 7662      6F636B5F 
 7662      66726F6D 
 7662      5F697372 
 7663              	.LASF68:
 7664 0aab 76745F64 		.ascii	"vt_delta\000"
 7664      656C7461 
 7664      00
 7665              	.LASF162:
 7666 0ab4 5553425F 		.ascii	"USB_UNINIT\000"
 7666      554E494E 
 7666      495400
 7667              	.LASF65:
 7668 0abf 63685F76 		.ascii	"ch_virtual_timer\000"
 7668      69727475 
 7668      616C5F74 
 7668      696D6572 
 7668      00
 7669              	.LASF121:
 7670 0ad0 735F636E 		.ascii	"s_cnt\000"
 7670      7400
 7671              	.LASF288:
 7672 0ad6 5553424F 		.ascii	"USBOutEndpointState\000"
 7672      7574456E 
 7672      64706F69 
 7672      6E745374 
 7672      61746500 
 7673              	.LASF85:
 7674 0aea 6B65726E 		.ascii	"kernel_stats\000"
 7674      656C5F73 
 7674      74617473 
 7674      00
 7675              	.LASF349:
 7676 0af7 75736249 		.ascii	"usbInit\000"
 7676      6E697400 
 7677              	.LASF264:
 7678 0aff 72657376 		.ascii	"resvdD00\000"
 7678      64443030 
 7678      00
 7679              	.LASF6:
 7680 0b08 6C6F6E67 		.ascii	"long long unsigned int\000"
 7680      206C6F6E 
 7680      6720756E 
 7680      7369676E 
ARM GAS  C:\Users\Luis\AppData\Local\Temp\ccB0PfuY.s 			page 146


 7680      65642069 
 7681              	.LASF231:
 7682 0b1f 48505458 		.ascii	"HPTXFSIZ\000"
 7682      4653495A 
 7682      00
 7683              	.LASF34:
 7684 0b28 705F6F6C 		.ascii	"p_older\000"
 7684      64657200 
 7685              	.LASF13:
 7686 0b30 75696E74 		.ascii	"uint16_t\000"
 7686      31365F74 
 7686      00
 7687              	.LASF196:
 7688 0b39 4843494E 		.ascii	"HCINT\000"
 7688      5400
 7689              	.LASF275:
 7690 0b3f 6C696E65 		.ascii	"linear\000"
 7690      617200
 7691              	.LASF23:
 7692 0b46 6D73675F 		.ascii	"msg_t\000"
 7692      7400
 7693              	.LASF246:
 7694 0b4c 4443544C 		.ascii	"DCTL\000"
 7694      00
 7695              	.LASF54:
 7696 0b51 63685F74 		.ascii	"ch_threads_queue\000"
 7696      68726561 
 7696      64735F71 
 7696      75657565 
 7696      00
 7697              	.LASF299:
 7698 0b62 55534245 		.ascii	"USBEndpointConfig\000"
 7698      6E64706F 
 7698      696E7443 
 7698      6F6E6669 
 7698      6700
 7699              	.LASF197:
 7700 0b74 4843494E 		.ascii	"HCINTMSK\000"
 7700      544D534B 
 7700      00
 7701              	.LASF285:
 7702 0b7d 72787175 		.ascii	"rxqueued\000"
 7702      65756564 
 7702      00
 7703              	.LASF62:
 7704 0b86 725F6375 		.ascii	"r_current\000"
 7704      7272656E 
 7704      7400
 7705              	.LASF325:
 7706 0b90 75736249 		.ascii	"usbInitEndpointI\000"
 7706      6E697445 
 7706      6E64706F 
 7706      696E7449 
 7706      00
 7707              	.LASF276:
 7708 0ba1 71756575 		.ascii	"queue\000"
 7708      6500
ARM GAS  C:\Users\Luis\AppData\Local\Temp\ccB0PfuY.s 			page 147


 7709              	.LASF284:
 7710 0ba7 72787175 		.ascii	"rxqueue\000"
 7710      65756500 
 7711              	.LASF84:
 7712 0baf 6D61696E 		.ascii	"mainthread\000"
 7712      74687265 
 7712      616400
 7713              	.LASF252:
 7714 0bba 4441494E 		.ascii	"DAINTMSK\000"
 7714      544D534B 
 7714      00
 7715              	.LASF255:
 7716 0bc3 44564255 		.ascii	"DVBUSDIS\000"
 7716      53444953 
 7716      00
 7717              	.LASF210:
 7718 0bcc 73746D33 		.ascii	"stm32_otg_in_ep_t\000"
 7718      325F6F74 
 7718      675F696E 
 7718      5F65705F 
 7718      7400
 7719              	.LASF347:
 7720 0bde 5F5F7365 		.ascii	"__set_BASEPRI\000"
 7720      745F4241 
 7720      53455052 
 7720      4900
 7721              	.LASF270:
 7722 0bec 6F74675F 		.ascii	"otg_ram_size\000"
 7722      72616D5F 
 7722      73697A65 
 7722      00
 7723              	.LASF102:
 7724 0bf9 62657374 		.ascii	"best\000"
 7724      00
 7725              	.LASF294:
 7726 0bfe 6F75745F 		.ascii	"out_maxsize\000"
 7726      6D617873 
 7726      697A6500 
 7727              	.LASF57:
 7728 0c0a 725F7175 		.ascii	"r_queue\000"
 7728      65756500 
 7729              	.LASF320:
 7730 0c12 64656661 		.ascii	"default_handler\000"
 7730      756C745F 
 7730      68616E64 
 7730      6C657200 
 7731              	.LASF317:
 7732 0c22 7365745F 		.ascii	"set_address\000"
 7732      61646472 
 7732      65737300 
 7733              	.LASF181:
 7734 0c2e 5553425F 		.ascii	"USB_EVENT_CONFIGURED\000"
 7734      4556454E 
 7734      545F434F 
 7734      4E464947 
 7734      55524544 
 7735              	.LASF267:
ARM GAS  C:\Users\Luis\AppData\Local\Temp\ccB0PfuY.s 			page 148


 7736 0c43 4649464F 		.ascii	"FIFO\000"
 7736      00
 7737              	.LASF322:
 7738 0c48 75736253 		.ascii	"usbStart\000"
 7738      74617274 
 7738      00
 7739              	.LASF129:
 7740 0c51 715F7761 		.ascii	"q_waiting\000"
 7740      6974696E 
 7740      6700
 7741              	.LASF82:
 7742 0c5b 726C6973 		.ascii	"rlist\000"
 7742      7400
 7743              	.LASF19:
 7744 0c61 746D6F64 		.ascii	"tmode_t\000"
 7744      655F7400 
 7745              	.LASF193:
 7746 0c69 75736267 		.ascii	"usbgetdescriptor_t\000"
 7746      65746465 
 7746      73637269 
 7746      70746F72 
 7746      5F7400
 7747              	.LASF160:
 7748 0c7c 77615F70 		.ascii	"wa_pump\000"
 7748      756D7000 
 7749              	.LASF146:
 7750 0c84 696E5F70 		.ascii	"in_params\000"
 7750      6172616D 
 7750      7300
 7751              	.LASF61:
 7752 0c8e 725F6F6C 		.ascii	"r_older\000"
 7752      64657200 
 7753              	.LASF101:
 7754 0c96 746D5F63 		.ascii	"tm_calibration_t\000"
 7754      616C6962 
 7754      72617469 
 7754      6F6E5F74 
 7754      00
 7755              	.LASF333:
 7756 0ca7 75736253 		.ascii	"usbStartTransmitI\000"
 7756      74617274 
 7756      5472616E 
 7756      736D6974 
 7756      4900
 7757              	.LASF305:
 7758 0cb9 706F7274 		.ascii	"port_lock\000"
 7758      5F6C6F63 
 7758      6B00
 7759              	.LASF120:
 7760 0cc3 735F7175 		.ascii	"s_queue\000"
 7760      65756500 
 7761              	.LASF328:
 7762 0ccb 75736250 		.ascii	"usbPrepareReceive\000"
 7762      72657061 
 7762      72655265 
 7762      63656976 
 7762      6500
ARM GAS  C:\Users\Luis\AppData\Local\Temp\ccB0PfuY.s 			page 149


 7763              	.LASF3:
 7764 0cdd 73686F72 		.ascii	"short int\000"
 7764      7420696E 
 7764      7400
 7765              	.LASF281:
 7766 0ce7 746F7473 		.ascii	"totsize\000"
 7766      697A6500 
 7767              	.LASF269:
 7768 0cef 72785F66 		.ascii	"rx_fifo_size\000"
 7768      69666F5F 
 7768      73697A65 
 7768      00
 7769              	.LASF16:
 7770 0cfc 75696E74 		.ascii	"uint64_t\000"
 7770      36345F74 
 7770      00
 7771              	.LASF280:
 7772 0d05 6D6F6465 		.ascii	"mode\000"
 7772      00
 7773              	.LASF122:
 7774 0d0a 63685F6D 		.ascii	"ch_mutex\000"
 7774      75746578 
 7774      00
 7775              	.LASF179:
 7776 0d13 5553425F 		.ascii	"USB_EVENT_RESET\000"
 7776      4556454E 
 7776      545F5245 
 7776      53455400 
 7777              	.LASF199:
 7778 0d23 72657376 		.ascii	"resvd14\000"
 7778      64313400 
 7779              	.LASF200:
 7780 0d2b 72657376 		.ascii	"resvd18\000"
 7780      64313800 
 7781              	.LASF208:
 7782 0d33 44545846 		.ascii	"DTXFSTS\000"
 7782      53545300 
 7783              	.LASF274:
 7784 0d3b 74787175 		.ascii	"txqueue\000"
 7784      65756500 
 7785              	.LASF209:
 7786 0d43 72657376 		.ascii	"resvd1C\000"
 7786      64314300 
 7787              	.LASF249:
 7788 0d4b 44494550 		.ascii	"DIEPMSK\000"
 7788      4D534B00 
 7789              	.LASF58:
 7790 0d53 725F7072 		.ascii	"r_prio\000"
 7790      696F00
 7791              	.LASF75:
 7792 0d5a 63685F73 		.ascii	"ch_system_debug\000"
 7792      79737465 
 7792      6D5F6465 
 7792      62756700 
 7793              	.LASF258:
 7794 0d6a 44494550 		.ascii	"DIEPEMPMSK\000"
 7794      454D504D 
ARM GAS  C:\Users\Luis\AppData\Local\Temp\ccB0PfuY.s 			page 150


 7794      534B00
 7795              	.LASF201:
 7796 0d75 72657376 		.ascii	"resvd1c\000"
 7796      64316300 
 7797              	.LASF127:
 7798 0d7d 696F5F71 		.ascii	"io_queue_t\000"
 7798      75657565 
 7798      5F7400
 7799              	.LASF192:
 7800 0d88 75736272 		.ascii	"usbreqhandler_t\000"
 7800      65716861 
 7800      6E646C65 
 7800      725F7400 
 7801              	.LASF330:
 7802 0d98 75736250 		.ascii	"usbPrepareQueuedReceive\000"
 7802      72657061 
 7802      72655175 
 7802      65756564 
 7802      52656365 
 7803              	.LASF203:
 7804 0db0 44494550 		.ascii	"DIEPCTL\000"
 7804      43544C00 
 7805              	.LASF189:
 7806 0db8 75736263 		.ascii	"usbcallback_t\000"
 7806      616C6C62 
 7806      61636B5F 
 7806      7400
 7807              	.LASF219:
 7808 0dc6 47525354 		.ascii	"GRSTCTL\000"
 7808      43544C00 
 7809              	.LASF220:
 7810 0dce 47494E54 		.ascii	"GINTSTS\000"
 7810      53545300 
 7811              	.LASF83:
 7812 0dd6 76746C69 		.ascii	"vtlist\000"
 7812      737400
 7813              	.LASF205:
 7814 0ddd 44494550 		.ascii	"DIEPINT\000"
 7814      494E5400 
 7815              	.LASF226:
 7816 0de5 484E5054 		.ascii	"HNPTXSTS\000"
 7816      58535453 
 7816      00
 7817              	.LASF126:
 7818 0dee 6D757465 		.ascii	"mutex_t\000"
 7818      785F7400 
 7819              	.LASF21:
 7820 0df6 74726566 		.ascii	"trefs_t\000"
 7820      735F7400 
 7821              	.LASF50:
 7822 0dfe 74687265 		.ascii	"threads_list_t\000"
 7822      6164735F 
 7822      6C697374 
 7822      5F7400
 7823              	.LASF303:
 7824 0e0d 736F665F 		.ascii	"sof_cb\000"
 7824      636200
ARM GAS  C:\Users\Luis\AppData\Local\Temp\ccB0PfuY.s 			page 151


 7825              	.LASF266:
 7826 0e14 72657376 		.ascii	"resvdE04\000"
 7826      64453034 
 7826      00
 7827              	.LASF227:
 7828 0e1d 72657376 		.ascii	"resvd30\000"
 7828      64333000 
 7829              	.LASF81:
 7830 0e25 63685F73 		.ascii	"ch_system\000"
 7830      79737465 
 7830      6D00
 7831              	.LASF228:
 7832 0e2f 72657376 		.ascii	"resvd34\000"
 7832      64333400 
 7833              	.LASF15:
 7834 0e37 75696E74 		.ascii	"uint32_t\000"
 7834      33325F74 
 7834      00
 7835              	.LASF161:
 7836 0e40 75736265 		.ascii	"usbep_t\000"
 7836      705F7400 
 7837              	.LASF138:
 7838 0e48 696E7075 		.ascii	"input_queue_t\000"
 7838      745F7175 
 7838      6575655F 
 7838      7400
 7839              	.LASF263:
 7840 0e56 72657376 		.ascii	"resvd8C0\000"
 7840      64384330 
 7840      00
 7841              	.LASF112:
 7842 0e5f 7264796D 		.ascii	"rdymsg\000"
 7842      736700
 7843              	.LASF73:
 7844 0e66 76745F6C 		.ascii	"vt_lasttime\000"
 7844      61737474 
 7844      696D6500 
 7845              	.LASF4:
 7846 0e72 73686F72 		.ascii	"short unsigned int\000"
 7846      7420756E 
 7846      7369676E 
 7846      65642069 
 7846      6E7400
 7847              	.LASF247:
 7848 0e85 44535453 		.ascii	"DSTS\000"
 7848      00
 7849              	.LASF301:
 7850 0e8a 6765745F 		.ascii	"get_descriptor_cb\000"
 7850      64657363 
 7850      72697074 
 7850      6F725F63 
 7850      6200
 7851              	.LASF80:
 7852 0e9c 63685F73 		.ascii	"ch_system_t\000"
 7852      79737465 
 7852      6D5F7400 
 7853              	.LASF182:
ARM GAS  C:\Users\Luis\AppData\Local\Temp\ccB0PfuY.s 			page 152


 7854 0ea8 5553425F 		.ascii	"USB_EVENT_SUSPEND\000"
 7854      4556454E 
 7854      545F5355 
 7854      5350454E 
 7854      4400
 7855              	.LASF338:
 7856 0eba 5F757362 		.ascii	"_usb_ep0in\000"
 7856      5F657030 
 7856      696E00
 7857              	.LASF139:
 7858 0ec5 6F757470 		.ascii	"output_queue_t\000"
 7858      75745F71 
 7858      75657565 
 7858      5F7400
 7859              	.LASF147:
 7860 0ed4 6F75745F 		.ascii	"out_params\000"
 7860      70617261 
 7860      6D7300
 7861              	.LASF36:
 7862 0edf 705F7374 		.ascii	"p_stklimit\000"
 7862      6B6C696D 
 7862      697400
 7863              	.LASF168:
 7864 0eea 45505F53 		.ascii	"EP_STATUS_DISABLED\000"
 7864      54415455 
 7864      535F4449 
 7864      5341424C 
 7864      454400
 7865              	.LASF326:
 7866 0efd 65706370 		.ascii	"epcp\000"
 7866      00
 7867              	.LASF238:
 7868 0f02 48505458 		.ascii	"HPTXSTS\000"
 7868      53545300 
 7869              	.LASF230:
 7870 0f0a 72657376 		.ascii	"resvd58\000"
 7870      64353800 
 7871              	.LASF176:
 7872 0f12 5553425F 		.ascii	"USB_EP0_SENDING_STS\000"
 7872      4550305F 
 7872      53454E44 
 7872      494E475F 
 7872      53545300 
 7873              	.LASF235:
 7874 0f26 48464952 		.ascii	"HFIR\000"
 7874      00
 7875              	.LASF91:
 7876 0f2b 73655F74 		.ascii	"se_time\000"
 7876      696D6500 
 7877              	.LASF35:
 7878 0f33 705F6E61 		.ascii	"p_name\000"
 7878      6D6500
 7879              	.LASF125:
 7880 0f3a 6D5F6E65 		.ascii	"m_next\000"
 7880      787400
 7881              	.LASF97:
 7882 0f41 74625F70 		.ascii	"tb_ptr\000"
ARM GAS  C:\Users\Luis\AppData\Local\Temp\ccB0PfuY.s 			page 153


 7882      747200
 7883              	.LASF157:
 7884 0f48 706D6E65 		.ascii	"pmnext\000"
 7884      787400
 7885              	.LASF277:
 7886 0f4f 74787175 		.ascii	"txqueued\000"
 7886      65756564 
 7886      00
 7887              	.LASF218:
 7888 0f58 47555342 		.ascii	"GUSBCFG\000"
 7888      43464700 
 7889              	.LASF175:
 7890 0f60 5553425F 		.ascii	"USB_EP0_RX\000"
 7890      4550305F 
 7890      525800
 7891              	.LASF233:
 7892 0f6b 72657376 		.ascii	"resvd140\000"
 7892      64313430 
 7892      00
 7893              	.LASF104:
 7894 0f74 6C617374 		.ascii	"last\000"
 7894      00
 7895              	.LASF42:
 7896 0f79 705F6D73 		.ascii	"p_msg\000"
 7896      6700
 7897              	.LASF37:
 7898 0f7f 705F7374 		.ascii	"p_state\000"
 7898      61746500 
 7899              		.ident	"GCC: (GNU Tools for ARM Embedded Processors) 4.8.3 20131129 (release) [ARM/embedded-4_8-br
ARM GAS  C:\Users\Luis\AppData\Local\Temp\ccB0PfuY.s 			page 154


DEFINED SYMBOLS
                            *ABS*:00000000 usb.c
C:\Users\Luis\AppData\Local\Temp\ccB0PfuY.s:19     .text.port_lock:00000000 $t
C:\Users\Luis\AppData\Local\Temp\ccB0PfuY.s:24     .text.port_lock:00000000 port_lock
C:\Users\Luis\AppData\Local\Temp\ccB0PfuY.s:62     .text.port_unlock:00000000 $t
C:\Users\Luis\AppData\Local\Temp\ccB0PfuY.s:67     .text.port_unlock:00000000 port_unlock
C:\Users\Luis\AppData\Local\Temp\ccB0PfuY.s:103    .text.port_lock_from_isr:00000000 $t
C:\Users\Luis\AppData\Local\Temp\ccB0PfuY.s:108    .text.port_lock_from_isr:00000000 port_lock_from_isr
C:\Users\Luis\AppData\Local\Temp\ccB0PfuY.s:128    .text.port_unlock_from_isr:00000000 $t
C:\Users\Luis\AppData\Local\Temp\ccB0PfuY.s:133    .text.port_unlock_from_isr:00000000 port_unlock_from_isr
C:\Users\Luis\AppData\Local\Temp\ccB0PfuY.s:153    .text.chSysLock:00000000 $t
C:\Users\Luis\AppData\Local\Temp\ccB0PfuY.s:158    .text.chSysLock:00000000 chSysLock
C:\Users\Luis\AppData\Local\Temp\ccB0PfuY.s:183    .text.chSysUnlock:00000000 $t
C:\Users\Luis\AppData\Local\Temp\ccB0PfuY.s:188    .text.chSysUnlock:00000000 chSysUnlock
C:\Users\Luis\AppData\Local\Temp\ccB0PfuY.s:229    .text.chSysUnlock:00000034 $d
C:\Users\Luis\AppData\Local\Temp\ccB0PfuY.s:2710   .rodata.__func__.6186:00000000 __func__.6186
C:\Users\Luis\AppData\Local\Temp\ccB0PfuY.s:235    .text.chSysLockFromISR:00000000 $t
C:\Users\Luis\AppData\Local\Temp\ccB0PfuY.s:240    .text.chSysLockFromISR:00000000 chSysLockFromISR
C:\Users\Luis\AppData\Local\Temp\ccB0PfuY.s:264    .text.chSysUnlockFromISR:00000000 $t
C:\Users\Luis\AppData\Local\Temp\ccB0PfuY.s:269    .text.chSysUnlockFromISR:00000000 chSysUnlockFromISR
C:\Users\Luis\AppData\Local\Temp\ccB0PfuY.s:293    .text.osalSysLock:00000000 $t
C:\Users\Luis\AppData\Local\Temp\ccB0PfuY.s:298    .text.osalSysLock:00000000 osalSysLock
C:\Users\Luis\AppData\Local\Temp\ccB0PfuY.s:319    .text.osalSysUnlock:00000000 $t
C:\Users\Luis\AppData\Local\Temp\ccB0PfuY.s:324    .text.osalSysUnlock:00000000 osalSysUnlock
C:\Users\Luis\AppData\Local\Temp\ccB0PfuY.s:344    .text.osalSysLockFromISR:00000000 $t
C:\Users\Luis\AppData\Local\Temp\ccB0PfuY.s:349    .text.osalSysLockFromISR:00000000 osalSysLockFromISR
C:\Users\Luis\AppData\Local\Temp\ccB0PfuY.s:369    .text.osalSysUnlockFromISR:00000000 $t
C:\Users\Luis\AppData\Local\Temp\ccB0PfuY.s:374    .text.osalSysUnlockFromISR:00000000 osalSysUnlockFromISR
C:\Users\Luis\AppData\Local\Temp\ccB0PfuY.s:394    .rodata.zero_status:00000000 $d
C:\Users\Luis\AppData\Local\Temp\ccB0PfuY.s:397    .rodata.zero_status:00000000 zero_status
C:\Users\Luis\AppData\Local\Temp\ccB0PfuY.s:400    .rodata.active_status:00000000 $d
C:\Users\Luis\AppData\Local\Temp\ccB0PfuY.s:403    .rodata.active_status:00000000 active_status
C:\Users\Luis\AppData\Local\Temp\ccB0PfuY.s:406    .rodata.halted_status:00000000 $d
C:\Users\Luis\AppData\Local\Temp\ccB0PfuY.s:409    .rodata.halted_status:00000000 halted_status
C:\Users\Luis\AppData\Local\Temp\ccB0PfuY.s:413    .text.get_hword:00000000 $t
C:\Users\Luis\AppData\Local\Temp\ccB0PfuY.s:418    .text.get_hword:00000000 get_hword
C:\Users\Luis\AppData\Local\Temp\ccB0PfuY.s:462    .text.set_address:00000000 $t
C:\Users\Luis\AppData\Local\Temp\ccB0PfuY.s:467    .text.set_address:00000000 set_address
C:\Users\Luis\AppData\Local\Temp\ccB0PfuY.s:517    .text.default_handler:00000000 $t
C:\Users\Luis\AppData\Local\Temp\ccB0PfuY.s:522    .text.default_handler:00000000 default_handler
C:\Users\Luis\AppData\Local\Temp\ccB0PfuY.s:1038   .text.default_handler:00000398 $d
C:\Users\Luis\AppData\Local\Temp\ccB0PfuY.s:1045   .text.usbInit:00000000 $t
C:\Users\Luis\AppData\Local\Temp\ccB0PfuY.s:1051   .text.usbInit:00000000 usbInit
C:\Users\Luis\AppData\Local\Temp\ccB0PfuY.s:1071   .text.usbObjectInit:00000000 $t
C:\Users\Luis\AppData\Local\Temp\ccB0PfuY.s:1077   .text.usbObjectInit:00000000 usbObjectInit
C:\Users\Luis\AppData\Local\Temp\ccB0PfuY.s:1146   .text.usbStart:00000000 $t
C:\Users\Luis\AppData\Local\Temp\ccB0PfuY.s:1152   .text.usbStart:00000000 usbStart
C:\Users\Luis\AppData\Local\Temp\ccB0PfuY.s:1239   .text.usbStart:00000074 $d
C:\Users\Luis\AppData\Local\Temp\ccB0PfuY.s:2704   .rodata.__func__.8302:00000000 __func__.8302
C:\Users\Luis\AppData\Local\Temp\ccB0PfuY.s:1244   .text.usbStop:00000000 $t
C:\Users\Luis\AppData\Local\Temp\ccB0PfuY.s:1250   .text.usbStop:00000000 usbStop
C:\Users\Luis\AppData\Local\Temp\ccB0PfuY.s:1313   .text.usbStop:00000054 $d
C:\Users\Luis\AppData\Local\Temp\ccB0PfuY.s:2716   .rodata.__func__.8309:00000000 __func__.8309
C:\Users\Luis\AppData\Local\Temp\ccB0PfuY.s:1318   .text.usbInitEndpointI:00000000 $t
C:\Users\Luis\AppData\Local\Temp\ccB0PfuY.s:1324   .text.usbInitEndpointI:00000000 usbInitEndpointI
C:\Users\Luis\AppData\Local\Temp\ccB0PfuY.s:1424   .text.usbInitEndpointI:00000094 $d
C:\Users\Luis\AppData\Local\Temp\ccB0PfuY.s:2722   .rodata.__func__.8315:00000000 __func__.8315
ARM GAS  C:\Users\Luis\AppData\Local\Temp\ccB0PfuY.s 			page 155


C:\Users\Luis\AppData\Local\Temp\ccB0PfuY.s:1429   .text.usbDisableEndpointsI:00000000 $t
C:\Users\Luis\AppData\Local\Temp\ccB0PfuY.s:1435   .text.usbDisableEndpointsI:00000000 usbDisableEndpointsI
C:\Users\Luis\AppData\Local\Temp\ccB0PfuY.s:1515   .text.usbDisableEndpointsI:00000070 $d
C:\Users\Luis\AppData\Local\Temp\ccB0PfuY.s:2728   .rodata.__func__.8320:00000000 __func__.8320
C:\Users\Luis\AppData\Local\Temp\ccB0PfuY.s:1520   .text.usbPrepareReceive:00000000 $t
C:\Users\Luis\AppData\Local\Temp\ccB0PfuY.s:1526   .text.usbPrepareReceive:00000000 usbPrepareReceive
C:\Users\Luis\AppData\Local\Temp\ccB0PfuY.s:1584   .text.usbPrepareTransmit:00000000 $t
C:\Users\Luis\AppData\Local\Temp\ccB0PfuY.s:1590   .text.usbPrepareTransmit:00000000 usbPrepareTransmit
C:\Users\Luis\AppData\Local\Temp\ccB0PfuY.s:1648   .text.usbPrepareQueuedReceive:00000000 $t
C:\Users\Luis\AppData\Local\Temp\ccB0PfuY.s:1654   .text.usbPrepareQueuedReceive:00000000 usbPrepareQueuedReceive
C:\Users\Luis\AppData\Local\Temp\ccB0PfuY.s:1712   .text.usbPrepareQueuedTransmit:00000000 $t
C:\Users\Luis\AppData\Local\Temp\ccB0PfuY.s:1718   .text.usbPrepareQueuedTransmit:00000000 usbPrepareQueuedTransmit
C:\Users\Luis\AppData\Local\Temp\ccB0PfuY.s:1776   .text.usbStartReceiveI:00000000 $t
C:\Users\Luis\AppData\Local\Temp\ccB0PfuY.s:1782   .text.usbStartReceiveI:00000000 usbStartReceiveI
C:\Users\Luis\AppData\Local\Temp\ccB0PfuY.s:1852   .text.usbStartReceiveI:00000060 $d
C:\Users\Luis\AppData\Local\Temp\ccB0PfuY.s:2734   .rodata.__func__.8356:00000000 __func__.8356
C:\Users\Luis\AppData\Local\Temp\ccB0PfuY.s:1857   .text.usbStartTransmitI:00000000 $t
C:\Users\Luis\AppData\Local\Temp\ccB0PfuY.s:1863   .text.usbStartTransmitI:00000000 usbStartTransmitI
C:\Users\Luis\AppData\Local\Temp\ccB0PfuY.s:1933   .text.usbStartTransmitI:00000060 $d
C:\Users\Luis\AppData\Local\Temp\ccB0PfuY.s:2740   .rodata.__func__.8361:00000000 __func__.8361
C:\Users\Luis\AppData\Local\Temp\ccB0PfuY.s:1938   .text.usbStallReceiveI:00000000 $t
C:\Users\Luis\AppData\Local\Temp\ccB0PfuY.s:1944   .text.usbStallReceiveI:00000000 usbStallReceiveI
C:\Users\Luis\AppData\Local\Temp\ccB0PfuY.s:2003   .text.usbStallReceiveI:0000004c $d
C:\Users\Luis\AppData\Local\Temp\ccB0PfuY.s:2746   .rodata.__func__.8366:00000000 __func__.8366
C:\Users\Luis\AppData\Local\Temp\ccB0PfuY.s:2008   .text.usbStallTransmitI:00000000 $t
C:\Users\Luis\AppData\Local\Temp\ccB0PfuY.s:2014   .text.usbStallTransmitI:00000000 usbStallTransmitI
C:\Users\Luis\AppData\Local\Temp\ccB0PfuY.s:2073   .text.usbStallTransmitI:0000004c $d
C:\Users\Luis\AppData\Local\Temp\ccB0PfuY.s:2752   .rodata.__func__.8371:00000000 __func__.8371
C:\Users\Luis\AppData\Local\Temp\ccB0PfuY.s:2078   .text._usb_reset:00000000 $t
C:\Users\Luis\AppData\Local\Temp\ccB0PfuY.s:2084   .text._usb_reset:00000000 _usb_reset
C:\Users\Luis\AppData\Local\Temp\ccB0PfuY.s:2161   .text._usb_ep0setup:00000000 $t
C:\Users\Luis\AppData\Local\Temp\ccB0PfuY.s:2167   .text._usb_ep0setup:00000000 _usb_ep0setup
C:\Users\Luis\AppData\Local\Temp\ccB0PfuY.s:2387   .text._usb_ep0in:00000000 $t
C:\Users\Luis\AppData\Local\Temp\ccB0PfuY.s:2393   .text._usb_ep0in:00000000 _usb_ep0in
C:\Users\Luis\AppData\Local\Temp\ccB0PfuY.s:2419   .text._usb_ep0in:0000001c $d
C:\Users\Luis\AppData\Local\Temp\ccB0PfuY.s:2428   .text._usb_ep0in:00000038 $t
C:\Users\Luis\AppData\Local\Temp\ccB0PfuY.s:2557   .text._usb_ep0in:00000110 $d
C:\Users\Luis\AppData\Local\Temp\ccB0PfuY.s:2758   .rodata.__func__.8395:00000000 __func__.8395
C:\Users\Luis\AppData\Local\Temp\ccB0PfuY.s:2562   .text._usb_ep0out:00000000 $t
C:\Users\Luis\AppData\Local\Temp\ccB0PfuY.s:2568   .text._usb_ep0out:00000000 _usb_ep0out
C:\Users\Luis\AppData\Local\Temp\ccB0PfuY.s:2594   .text._usb_ep0out:0000001c $d
C:\Users\Luis\AppData\Local\Temp\ccB0PfuY.s:2603   .text._usb_ep0out:00000038 $t
C:\Users\Luis\AppData\Local\Temp\ccB0PfuY.s:2696   .text._usb_ep0out:000000c8 $d
C:\Users\Luis\AppData\Local\Temp\ccB0PfuY.s:2764   .rodata.__func__.8409:00000000 __func__.8409
C:\Users\Luis\AppData\Local\Temp\ccB0PfuY.s:2701   .rodata.__func__.8302:00000000 $d
C:\Users\Luis\AppData\Local\Temp\ccB0PfuY.s:2707   .rodata.__func__.6186:00000000 $d
C:\Users\Luis\AppData\Local\Temp\ccB0PfuY.s:2713   .rodata.__func__.8309:00000000 $d
C:\Users\Luis\AppData\Local\Temp\ccB0PfuY.s:2719   .rodata.__func__.8315:00000000 $d
C:\Users\Luis\AppData\Local\Temp\ccB0PfuY.s:2725   .rodata.__func__.8320:00000000 $d
C:\Users\Luis\AppData\Local\Temp\ccB0PfuY.s:2731   .rodata.__func__.8356:00000000 $d
C:\Users\Luis\AppData\Local\Temp\ccB0PfuY.s:2737   .rodata.__func__.8361:00000000 $d
C:\Users\Luis\AppData\Local\Temp\ccB0PfuY.s:2743   .rodata.__func__.8366:00000000 $d
C:\Users\Luis\AppData\Local\Temp\ccB0PfuY.s:2749   .rodata.__func__.8371:00000000 $d
C:\Users\Luis\AppData\Local\Temp\ccB0PfuY.s:2755   .rodata.__func__.8395:00000000 $d
C:\Users\Luis\AppData\Local\Temp\ccB0PfuY.s:2761   .rodata.__func__.8409:00000000 $d
                     .debug_frame:00000010 $d
C:\Users\Luis\AppData\Local\Temp\ccB0PfuY.s:234    .text.chSysUnlock:0000003c $t
ARM GAS  C:\Users\Luis\AppData\Local\Temp\ccB0PfuY.s 			page 156


C:\Users\Luis\AppData\Local\Temp\ccB0PfuY.s:1044   .text.default_handler:000003a4 $t
C:\Users\Luis\AppData\Local\Temp\ccB0PfuY.s:1243   .text.usbStart:00000078 $t
C:\Users\Luis\AppData\Local\Temp\ccB0PfuY.s:1317   .text.usbStop:00000058 $t
C:\Users\Luis\AppData\Local\Temp\ccB0PfuY.s:1428   .text.usbInitEndpointI:00000098 $t
C:\Users\Luis\AppData\Local\Temp\ccB0PfuY.s:1519   .text.usbDisableEndpointsI:00000074 $t
C:\Users\Luis\AppData\Local\Temp\ccB0PfuY.s:1856   .text.usbStartReceiveI:00000064 $t
C:\Users\Luis\AppData\Local\Temp\ccB0PfuY.s:1937   .text.usbStartTransmitI:00000064 $t
C:\Users\Luis\AppData\Local\Temp\ccB0PfuY.s:2561   .text._usb_ep0in:00000114 $t
C:\Users\Luis\AppData\Local\Temp\ccB0PfuY.s:2700   .text._usb_ep0out:000000cc $t

UNDEFINED SYMBOLS
_stats_start_measure_crit_thd
_dbg_check_lock
_dbg_check_unlock
_stats_stop_measure_crit_thd
chSysHalt
ch
_stats_start_measure_crit_isr
_dbg_check_lock_from_isr
_dbg_check_unlock_from_isr
_stats_stop_measure_crit_isr
usb_lld_set_address
usb_lld_get_status_in
usb_lld_get_status_out
usb_lld_clear_in
usb_lld_clear_out
usb_lld_stall_in
usb_lld_stall_out
usb_lld_init
usb_lld_start
usb_lld_stop
chDbgCheckClassI
memset
usb_lld_init_endpoint
usb_lld_disable_endpoints
usb_lld_prepare_receive
usb_lld_prepare_transmit
usb_lld_start_out
usb_lld_start_in
usb_lld_reset
usb_lld_read_setup
