Archive member included because of file (symbol)

c:/emtechesdk/gcc/bin/../lib/gcc/arm-none-eabi/4.8.3/armv7e-m\libgcc.a(_arm_addsubdf3.o)
                              build/obj/chprintf.o (__aeabi_dsub)
c:/emtechesdk/gcc/bin/../lib/gcc/arm-none-eabi/4.8.3/armv7e-m\libgcc.a(_arm_muldivdf3.o)
                              build/obj/chprintf.o (__aeabi_dmul)
c:/emtechesdk/gcc/bin/../lib/gcc/arm-none-eabi/4.8.3/armv7e-m\libgcc.a(_arm_fixdfsi.o)
                              build/obj/chprintf.o (__aeabi_d2iz)
c:/emtechesdk/gcc/bin/../lib/gcc/arm-none-eabi/4.8.3/armv7e-m\libgcc.a(_arm_truncdfsf2.o)
                              build/obj/chprintf.o (__aeabi_d2f)
c:/emtechesdk/gcc/bin/../lib/gcc/arm-none-eabi/4.8.3/armv7e-m\libgcc.a(_arm_cmpsf2.o)
                              build/obj/chprintf.o (__aeabi_fcmplt)
c:/emtechesdk/gcc/bin/../lib/gcc/arm-none-eabi/4.8.3/../../../../arm-none-eabi/lib/armv7e-m\libg.a(lib_a-memcmp.o)
                              build/obj/etharp.o (memcmp)
c:/emtechesdk/gcc/bin/../lib/gcc/arm-none-eabi/4.8.3/../../../../arm-none-eabi/lib/armv7e-m\libg.a(lib_a-memcpy.o)
                              build/obj/mac_lld.o (memcpy)
c:/emtechesdk/gcc/bin/../lib/gcc/arm-none-eabi/4.8.3/../../../../arm-none-eabi/lib/armv7e-m\libg.a(lib_a-memset.o)
                              build/obj/usb.o (memset)
c:/emtechesdk/gcc/bin/../lib/gcc/arm-none-eabi/4.8.3/../../../../arm-none-eabi/lib/armv7e-m\libg.a(lib_a-strlen.o)
                              build/obj/pbuf.o (strlen)
c:/emtechesdk/gcc/bin/../lib/gcc/arm-none-eabi/4.8.3/../../../../arm-none-eabi/lib/armv7e-m\libg.a(lib_a-strncmp.o)
                              build/obj/web.o (strncmp)

Discarded input sections

 .data          0x00000000        0x0 build/obj/crt0_v7m.o
 .bss           0x00000000        0x0 build/obj/crt0_v7m.o
 .data          0x00000000        0x0 build/obj/chcoreasm_v7m.o
 .bss           0x00000000        0x0 build/obj/chcoreasm_v7m.o
 .text          0x00000000        0x0 build/obj/crt1.o
 .data          0x00000000        0x0 build/obj/crt1.o
 .bss           0x00000000        0x0 build/obj/crt1.o
 .text.__early_init
                0x00000000       0x10 build/obj/crt1.o
 .text          0x00000000        0x0 build/obj/vectors.o
 .data          0x00000000        0x0 build/obj/vectors.o
 .bss           0x00000000        0x0 build/obj/vectors.o
 .text          0x00000000        0x0 build/obj/chsys.o
 .data          0x00000000        0x0 build/obj/chsys.o
 .bss           0x00000000        0x0 build/obj/chsys.o
 .text.chSysIntegrityCheckI
                0x00000000      0x110 build/obj/chsys.o
 .text          0x00000000        0x0 build/obj/chdebug.o
 .data          0x00000000        0x0 build/obj/chdebug.o
 .bss           0x00000000        0x0 build/obj/chdebug.o
 .text._dbg_check_disable
                0x00000000       0x30 build/obj/chdebug.o
 .text._dbg_check_suspend
                0x00000000       0x30 build/obj/chdebug.o
 .text          0x00000000        0x0 build/obj/chvt.o
 .data          0x00000000        0x0 build/obj/chvt.o
 .bss           0x00000000        0x0 build/obj/chvt.o
 .text          0x00000000        0x0 build/obj/chschd.o
 .data          0x00000000        0x0 build/obj/chschd.o
 .bss           0x00000000        0x0 build/obj/chschd.o
 .text.chSchDoRescheduleBehind
                0x00000000       0x80 build/obj/chschd.o
 .text          0x00000000        0x0 build/obj/chthreads.o
 .data          0x00000000        0x0 build/obj/chthreads.o
 .bss           0x00000000        0x0 build/obj/chthreads.o
 .text.st_lld_get_counter
                0x00000000       0x20 build/obj/chthreads.o
 .text.port_timer_get_time
                0x00000000       0x10 build/obj/chthreads.o
 .text.list_insert
                0x00000000       0x30 build/obj/chthreads.o
 .text.chSchCanYieldS
                0x00000000       0x30 build/obj/chthreads.o
 .text.chSchDoYieldS
                0x00000000       0x20 build/obj/chthreads.o
 .text.chVTGetSystemTimeX
                0x00000000       0x10 build/obj/chthreads.o
 .text.chVTIsTimeWithinX
                0x00000000       0x30 build/obj/chthreads.o
 .text.chThdStartI
                0x00000000       0x30 build/obj/chthreads.o
 .text.chThdStart
                0x00000000       0x30 build/obj/chthreads.o
 .text.chThdTerminate
                0x00000000       0x30 build/obj/chthreads.o
 .text.chThdSleepUntil
                0x00000000       0x30 build/obj/chthreads.o
 .text.chThdSleepUntilWindowed
                0x00000000       0x40 build/obj/chthreads.o
 .text.chThdYield
                0x00000000       0x20 build/obj/chthreads.o
 .text.chThdWait
                0x00000000       0x80 build/obj/chthreads.o
 .text.chThdSuspendTimeoutS
                0x00000000       0x50 build/obj/chthreads.o
 .rodata.__func__.6009
                0x00000000        0xc build/obj/chthreads.o
 .rodata.__func__.6603
                0x00000000        0xc build/obj/chthreads.o
 .rodata.__func__.6614
                0x00000000       0x18 build/obj/chthreads.o
 .text          0x00000000        0x0 build/obj/chtm.o
 .data          0x00000000        0x0 build/obj/chtm.o
 .bss           0x00000000        0x0 build/obj/chtm.o
 .text          0x00000000        0x0 build/obj/chstats.o
 .data          0x00000000        0x0 build/obj/chstats.o
 .bss           0x00000000        0x0 build/obj/chstats.o
 .text          0x00000000        0x0 build/obj/chdynamic.o
 .data          0x00000000        0x0 build/obj/chdynamic.o
 .bss           0x00000000        0x0 build/obj/chdynamic.o
 .text.port_lock
                0x00000000       0x20 build/obj/chdynamic.o
 .text.port_unlock
                0x00000000       0x20 build/obj/chdynamic.o
 .text.chSysLock
                0x00000000       0x20 build/obj/chdynamic.o
 .text.chSysUnlock
                0x00000000       0x40 build/obj/chdynamic.o
 .text.chThdAddRef
                0x00000000       0x40 build/obj/chdynamic.o
 .text.chThdRelease
                0x00000000       0xb0 build/obj/chdynamic.o
 .text.chThdCreateFromHeap
                0x00000000       0x80 build/obj/chdynamic.o
 .text.chThdCreateFromMemoryPool
                0x00000000       0xa0 build/obj/chdynamic.o
 .rodata.__func__.6537
                0x00000000        0xc build/obj/chdynamic.o
 .rodata.__func__.5842
                0x00000000        0xc build/obj/chdynamic.o
 .rodata.__func__.6542
                0x00000000       0x10 build/obj/chdynamic.o
 .rodata.__func__.6564
                0x00000000       0x1c build/obj/chdynamic.o
 .debug_info    0x00000000      0xb41 build/obj/chdynamic.o
 .debug_abbrev  0x00000000      0x283 build/obj/chdynamic.o
 .debug_aranges
                0x00000000       0x58 build/obj/chdynamic.o
 .debug_ranges  0x00000000       0x48 build/obj/chdynamic.o
 .debug_line    0x00000000      0x331 build/obj/chdynamic.o
 .debug_str     0x00000000      0x78d build/obj/chdynamic.o
 .comment       0x00000000       0x71 build/obj/chdynamic.o
 .ARM.attributes
                0x00000000       0x33 build/obj/chdynamic.o
 .debug_frame   0x00000000      0x100 build/obj/chdynamic.o
 .text          0x00000000        0x0 build/obj/chregistry.o
 .data          0x00000000        0x0 build/obj/chregistry.o
 .bss           0x00000000        0x0 build/obj/chregistry.o
 .text.port_lock
                0x00000000       0x20 build/obj/chregistry.o
 .text.port_unlock
                0x00000000       0x20 build/obj/chregistry.o
 .text.chSysLock
                0x00000000       0x20 build/obj/chregistry.o
 .text.chSysUnlock
                0x00000000       0x40 build/obj/chregistry.o
 .text.chRegFirstThread
                0x00000000       0x40 build/obj/chregistry.o
 .text.chRegNextThread
                0x00000000       0x60 build/obj/chregistry.o
 .rodata.__func__.5842
                0x00000000        0xc build/obj/chregistry.o
 .rodata.__func__.6543
                0x00000000       0x10 build/obj/chregistry.o
 .text          0x00000000        0x0 build/obj/chsem.o
 .data          0x00000000        0x0 build/obj/chsem.o
 .bss           0x00000000        0x0 build/obj/chsem.o
 .text.chSemReset
                0x00000000       0x30 build/obj/chsem.o
 .text.chSemWait
                0x00000000       0x30 build/obj/chsem.o
 .text.chSemWaitS
                0x00000000       0xa0 build/obj/chsem.o
 .text.chSemWaitTimeout
                0x00000000       0x30 build/obj/chsem.o
 .text.chSemAddCounterI
                0x00000000       0xa0 build/obj/chsem.o
 .text.chSemSignalWait
                0x00000000      0x120 build/obj/chsem.o
 .rodata.__func__.6559
                0x00000000        0xc build/obj/chsem.o
 .rodata.__func__.6583
                0x00000000       0x14 build/obj/chsem.o
 .rodata.__func__.6592
                0x00000000       0x10 build/obj/chsem.o
 .text          0x00000000        0x0 build/obj/chmtx.o
 .data          0x00000000        0x0 build/obj/chmtx.o
 .bss           0x00000000        0x0 build/obj/chmtx.o
 .text.chMtxTryLock
                0x00000000       0x30 build/obj/chmtx.o
 .text.chMtxTryLockS
                0x00000000       0x50 build/obj/chmtx.o
 .text.chMtxUnlockS
                0x00000000       0xe0 build/obj/chmtx.o
 .text.chMtxUnlockAll
                0x00000000       0x80 build/obj/chmtx.o
 .rodata.__func__.6562
                0x00000000       0x10 build/obj/chmtx.o
 .rodata.__func__.6579
                0x00000000       0x10 build/obj/chmtx.o
 .text          0x00000000        0x0 build/obj/chcond.o
 .data          0x00000000        0x0 build/obj/chcond.o
 .bss           0x00000000        0x0 build/obj/chcond.o
 .text.port_lock
                0x00000000       0x20 build/obj/chcond.o
 .text.port_unlock
                0x00000000       0x20 build/obj/chcond.o
 .text.queue_init
                0x00000000       0x20 build/obj/chcond.o
 .text.queue_notempty
                0x00000000       0x30 build/obj/chcond.o
 .text.queue_prio_insert
                0x00000000       0x50 build/obj/chcond.o
 .text.queue_fifo_remove
                0x00000000       0x30 build/obj/chcond.o
 .text.chSysLock
                0x00000000       0x20 build/obj/chcond.o
 .text.chSysUnlock
                0x00000000       0x40 build/obj/chcond.o
 .text.chThdGetSelfX
                0x00000000       0x20 build/obj/chcond.o
 .text.chMtxGetNextMutexS
                0x00000000       0x10 build/obj/chcond.o
 .text.chCondObjectInit
                0x00000000       0x30 build/obj/chcond.o
 .text.chCondSignal
                0x00000000       0x50 build/obj/chcond.o
 .text.chCondSignalI
                0x00000000       0x50 build/obj/chcond.o
 .text.chCondBroadcast
                0x00000000       0x20 build/obj/chcond.o
 .text.chCondBroadcastI
                0x00000000       0x50 build/obj/chcond.o
 .text.chCondWait
                0x00000000       0x30 build/obj/chcond.o
 .text.chCondWaitS
                0x00000000       0x70 build/obj/chcond.o
 .text.chCondWaitTimeout
                0x00000000       0x30 build/obj/chcond.o
 .text.chCondWaitTimeoutS
                0x00000000       0x80 build/obj/chcond.o
 .rodata.__func__.6537
                0x00000000       0x14 build/obj/chcond.o
 .rodata.__func__.6541
                0x00000000       0x10 build/obj/chcond.o
 .rodata.__func__.5842
                0x00000000        0xc build/obj/chcond.o
 .rodata.__func__.6545
                0x00000000       0x10 build/obj/chcond.o
 .rodata.__func__.6553
                0x00000000       0x14 build/obj/chcond.o
 .rodata.__func__.6567
                0x00000000        0xc build/obj/chcond.o
 .rodata.__func__.6579
                0x00000000       0x14 build/obj/chcond.o
 .debug_info    0x00000000      0xc43 build/obj/chcond.o
 .debug_abbrev  0x00000000      0x2cd build/obj/chcond.o
 .debug_aranges
                0x00000000       0xb0 build/obj/chcond.o
 .debug_ranges  0x00000000       0xa0 build/obj/chcond.o
 .debug_line    0x00000000      0x3e0 build/obj/chcond.o
 .debug_str     0x00000000      0x7a2 build/obj/chcond.o
 .comment       0x00000000       0x71 build/obj/chcond.o
 .ARM.attributes
                0x00000000       0x33 build/obj/chcond.o
 .debug_frame   0x00000000      0x248 build/obj/chcond.o
 .text          0x00000000        0x0 build/obj/chevents.o
 .data          0x00000000        0x0 build/obj/chevents.o
 .bss           0x00000000        0x0 build/obj/chevents.o
 .text.chEvtUnregister
                0x00000000       0x60 build/obj/chevents.o
 .text.chEvtGetAndClearEvents
                0x00000000       0x40 build/obj/chevents.o
 .text.chEvtGetAndClearFlags
                0x00000000       0x30 build/obj/chevents.o
 .text.chEvtSignal
                0x00000000       0x40 build/obj/chevents.o
 .text.chEvtBroadcastFlags
                0x00000000       0x30 build/obj/chevents.o
 .text.chEvtGetAndClearFlagsI
                0x00000000       0x30 build/obj/chevents.o
 .text.chEvtDispatch
                0x00000000       0x80 build/obj/chevents.o
 .text.chEvtWaitOne
                0x00000000       0x70 build/obj/chevents.o
 .text.chEvtWaitAll
                0x00000000       0x50 build/obj/chevents.o
 .text.chEvtWaitOneTimeout
                0x00000000       0x90 build/obj/chevents.o
 .text.chEvtWaitAnyTimeout
                0x00000000       0x80 build/obj/chevents.o
 .text.chEvtWaitAllTimeout
                0x00000000       0x70 build/obj/chevents.o
 .rodata.__func__.6546
                0x00000000       0x10 build/obj/chevents.o
 .rodata.__func__.6574
                0x00000000        0xc build/obj/chevents.o
 .rodata.__func__.6593
                0x00000000       0x10 build/obj/chevents.o
 .text          0x00000000        0x0 build/obj/chmsg.o
 .data          0x00000000        0x0 build/obj/chmsg.o
 .bss           0x00000000        0x0 build/obj/chmsg.o
 .text.port_lock
                0x00000000       0x20 build/obj/chmsg.o
 .text.port_unlock
                0x00000000       0x20 build/obj/chmsg.o
 .text.queue_insert
                0x00000000       0x30 build/obj/chmsg.o
 .text.queue_fifo_remove
                0x00000000       0x30 build/obj/chmsg.o
 .text.chSysLock
                0x00000000       0x20 build/obj/chmsg.o
 .text.chSysUnlock
                0x00000000       0x40 build/obj/chmsg.o
 .text.chMsgIsPendingI
                0x00000000       0x30 build/obj/chmsg.o
 .text.chMsgReleaseS
                0x00000000       0x20 build/obj/chmsg.o
 .text.chMsgSend
                0x00000000       0x70 build/obj/chmsg.o
 .text.chMsgWait
                0x00000000       0x50 build/obj/chmsg.o
 .text.chMsgRelease
                0x00000000       0x40 build/obj/chmsg.o
 .rodata.__func__.6539
                0x00000000        0xc build/obj/chmsg.o
 .rodata.__func__.5842
                0x00000000        0xc build/obj/chmsg.o
 .rodata.__func__.6548
                0x00000000       0x10 build/obj/chmsg.o
 .debug_info    0x00000000      0xa22 build/obj/chmsg.o
 .debug_abbrev  0x00000000      0x29b build/obj/chmsg.o
 .debug_aranges
                0x00000000       0x70 build/obj/chmsg.o
 .debug_ranges  0x00000000       0x60 build/obj/chmsg.o
 .debug_line    0x00000000      0x2d9 build/obj/chmsg.o
 .debug_str     0x00000000      0x6e2 build/obj/chmsg.o
 .comment       0x00000000       0x71 build/obj/chmsg.o
 .ARM.attributes
                0x00000000       0x33 build/obj/chmsg.o
 .debug_frame   0x00000000      0x158 build/obj/chmsg.o
 .text          0x00000000        0x0 build/obj/chmboxes.o
 .data          0x00000000        0x0 build/obj/chmboxes.o
 .bss           0x00000000        0x0 build/obj/chmboxes.o
 .text.chSemFastWaitI
                0x00000000       0x20 build/obj/chmboxes.o
 .text.chSemGetCounterI
                0x00000000       0x20 build/obj/chmboxes.o
 .text.chMBPostI
                0x00000000       0x80 build/obj/chmboxes.o
 .text.chMBPostAhead
                0x00000000       0x30 build/obj/chmboxes.o
 .text.chMBPostAheadS
                0x00000000       0x80 build/obj/chmboxes.o
 .text.chMBPostAheadI
                0x00000000       0x80 build/obj/chmboxes.o
 .text.chMBFetchI
                0x00000000       0x80 build/obj/chmboxes.o
 .rodata.__func__.6564
                0x00000000        0xc build/obj/chmboxes.o
 .rodata.__func__.6577
                0x00000000       0x10 build/obj/chmboxes.o
 .rodata.__func__.6582
                0x00000000       0x10 build/obj/chmboxes.o
 .rodata.__func__.6600
                0x00000000        0xc build/obj/chmboxes.o
 .text          0x00000000        0x0 build/obj/chqueues.o
 .data          0x00000000        0x0 build/obj/chqueues.o
 .bss           0x00000000        0x0 build/obj/chqueues.o
 .text.chIQResetI
                0x00000000       0x40 build/obj/chqueues.o
 .text.chOQResetI
                0x00000000       0x40 build/obj/chqueues.o
 .text          0x00000000        0x0 build/obj/chmemcore.o
 .data          0x00000000        0x0 build/obj/chmemcore.o
 .bss           0x00000000        0x0 build/obj/chmemcore.o
 .text.chCoreGetStatusX
                0x00000000       0x30 build/obj/chmemcore.o
 .text          0x00000000        0x0 build/obj/chheap.o
 .data          0x00000000        0x0 build/obj/chheap.o
 .bss           0x00000000        0x0 build/obj/chheap.o
 .text.chHeapObjectInit
                0x00000000       0x60 build/obj/chheap.o
 .text.chHeapStatus
                0x00000000       0x80 build/obj/chheap.o
 .rodata.__func__.6544
                0x00000000       0x14 build/obj/chheap.o
 .text          0x00000000        0x0 build/obj/chmempools.o
 .data          0x00000000        0x0 build/obj/chmempools.o
 .bss           0x00000000        0x0 build/obj/chmempools.o
 .text.port_lock
                0x00000000       0x20 build/obj/chmempools.o
 .text.port_unlock
                0x00000000       0x20 build/obj/chmempools.o
 .text.chSysLock
                0x00000000       0x20 build/obj/chmempools.o
 .text.chSysUnlock
                0x00000000       0x40 build/obj/chmempools.o
 .text.chPoolAdd
                0x00000000       0x20 build/obj/chmempools.o
 .text.chPoolObjectInit
                0x00000000       0x40 build/obj/chmempools.o
 .text.chPoolLoadArray
                0x00000000       0x50 build/obj/chmempools.o
 .text.chPoolAllocI
                0x00000000       0x60 build/obj/chmempools.o
 .text.chPoolAlloc
                0x00000000       0x30 build/obj/chmempools.o
 .text.chPoolFreeI
                0x00000000       0x40 build/obj/chmempools.o
 .text.chPoolFree
                0x00000000       0x20 build/obj/chmempools.o
 .rodata.__func__.6539
                0x00000000       0x14 build/obj/chmempools.o
 .rodata.__func__.6545
                0x00000000       0x10 build/obj/chmempools.o
 .rodata.__func__.6553
                0x00000000       0x10 build/obj/chmempools.o
 .rodata.__func__.5842
                0x00000000        0xc build/obj/chmempools.o
 .rodata.__func__.6563
                0x00000000        0xc build/obj/chmempools.o
 .debug_info    0x00000000      0xafb build/obj/chmempools.o
 .debug_abbrev  0x00000000      0x272 build/obj/chmempools.o
 .debug_aranges
                0x00000000       0x70 build/obj/chmempools.o
 .debug_ranges  0x00000000       0x60 build/obj/chmempools.o
 .debug_line    0x00000000      0x358 build/obj/chmempools.o
 .debug_str     0x00000000      0x74a build/obj/chmempools.o
 .comment       0x00000000       0x71 build/obj/chmempools.o
 .ARM.attributes
                0x00000000       0x33 build/obj/chmempools.o
 .debug_frame   0x00000000      0x160 build/obj/chmempools.o
 .text          0x00000000        0x0 build/obj/chcore.o
 .data          0x00000000        0x0 build/obj/chcore.o
 .bss           0x00000000        0x0 build/obj/chcore.o
 .debug_info    0x00000000      0x79f build/obj/chcore.o
 .debug_abbrev  0x00000000      0x150 build/obj/chcore.o
 .debug_aranges
                0x00000000       0x18 build/obj/chcore.o
 .debug_line    0x00000000      0x16d build/obj/chcore.o
 .debug_str     0x00000000      0x63f build/obj/chcore.o
 .comment       0x00000000       0x71 build/obj/chcore.o
 .ARM.attributes
                0x00000000       0x33 build/obj/chcore.o
 .text          0x00000000        0x0 build/obj/chcore_v7m.o
 .data          0x00000000        0x0 build/obj/chcore_v7m.o
 .bss           0x00000000        0x0 build/obj/chcore_v7m.o
 .text          0x00000000        0x0 build/obj/osal.o
 .data          0x00000000        0x0 build/obj/osal.o
 .bss           0x00000000        0x0 build/obj/osal.o
 .debug_info    0x00000000      0x79f build/obj/osal.o
 .debug_abbrev  0x00000000      0x150 build/obj/osal.o
 .debug_aranges
                0x00000000       0x18 build/obj/osal.o
 .debug_line    0x00000000      0x16d build/obj/osal.o
 .debug_str     0x00000000      0x639 build/obj/osal.o
 .comment       0x00000000       0x71 build/obj/osal.o
 .ARM.attributes
                0x00000000       0x33 build/obj/osal.o
 .text          0x00000000        0x0 build/obj/hal.o
 .data          0x00000000        0x0 build/obj/hal.o
 .bss           0x00000000        0x0 build/obj/hal.o
 .text          0x00000000        0x0 build/obj/hal_queues.o
 .data          0x00000000        0x0 build/obj/hal_queues.o
 .bss           0x00000000        0x0 build/obj/hal_queues.o
 .debug_info    0x00000000      0x7a6 build/obj/hal_queues.o
 .debug_abbrev  0x00000000      0x150 build/obj/hal_queues.o
 .debug_aranges
                0x00000000       0x18 build/obj/hal_queues.o
 .debug_line    0x00000000      0x16d build/obj/hal_queues.o
 .debug_str     0x00000000      0x641 build/obj/hal_queues.o
 .comment       0x00000000       0x71 build/obj/hal_queues.o
 .ARM.attributes
                0x00000000       0x33 build/obj/hal_queues.o
 .text          0x00000000        0x0 build/obj/hal_mmcsd.o
 .data          0x00000000        0x0 build/obj/hal_mmcsd.o
 .bss           0x00000000        0x0 build/obj/hal_mmcsd.o
 .text._mmcsd_unpack_sdc_cid
                0x00000000      0x120 build/obj/hal_mmcsd.o
 .text._mmcsd_unpack_mmc_cid
                0x00000000      0x130 build/obj/hal_mmcsd.o
 .text._mmcsd_unpack_csd_mmc
                0x00000000      0x270 build/obj/hal_mmcsd.o
 .text._mmcsd_unpack_csd_v10
                0x00000000      0x1f0 build/obj/hal_mmcsd.o
 .text._mmcsd_unpack_csd_v20
                0x00000000      0x1e0 build/obj/hal_mmcsd.o
 .rodata.__func__.7933
                0x00000000       0x18 build/obj/hal_mmcsd.o
 .rodata.__func__.7939
                0x00000000       0x18 build/obj/hal_mmcsd.o
 .rodata.__func__.7945
                0x00000000       0x18 build/obj/hal_mmcsd.o
 .rodata.__func__.7951
                0x00000000       0x18 build/obj/hal_mmcsd.o
 .rodata.__func__.7957
                0x00000000       0x18 build/obj/hal_mmcsd.o
 .text          0x00000000        0x0 build/obj/adc.o
 .data          0x00000000        0x0 build/obj/adc.o
 .bss           0x00000000        0x0 build/obj/adc.o
 .text.port_lock
                0x00000000       0x20 build/obj/adc.o
 .text.port_unlock
                0x00000000       0x20 build/obj/adc.o
 .text.chSysLock
                0x00000000       0x20 build/obj/adc.o
 .text.chSysUnlock
                0x00000000       0x40 build/obj/adc.o
 .text.osalSysLock
                0x00000000       0x10 build/obj/adc.o
 .text.osalSysUnlock
                0x00000000       0x10 build/obj/adc.o
 .text.osalThreadSuspendS
                0x00000000       0x20 build/obj/adc.o
 .text.osalThreadResumeI
                0x00000000       0x20 build/obj/adc.o
 .text.osalThreadResumeS
                0x00000000       0x20 build/obj/adc.o
 .text.osalMutexLock
                0x00000000       0x20 build/obj/adc.o
 .text.osalMutexUnlock
                0x00000000       0x20 build/obj/adc.o
 .text.adcStart
                0x00000000       0x50 build/obj/adc.o
 .text.adcStop  0x00000000       0x50 build/obj/adc.o
 .text.adcStartConversion
                0x00000000       0x30 build/obj/adc.o
 .text.adcStartConversionI
                0x00000000       0x80 build/obj/adc.o
 .text.adcStopConversion
                0x00000000       0x70 build/obj/adc.o
 .text.adcStopConversionI
                0x00000000       0x70 build/obj/adc.o
 .text.adcConvert
                0x00000000       0x50 build/obj/adc.o
 .text.adcAcquireBus
                0x00000000       0x30 build/obj/adc.o
 .text.adcReleaseBus
                0x00000000       0x30 build/obj/adc.o
 .rodata.__func__.7913
                0x00000000        0xc build/obj/adc.o
 .rodata.__func__.5842
                0x00000000        0xc build/obj/adc.o
 .rodata.__func__.7917
                0x00000000        0x8 build/obj/adc.o
 .rodata.__func__.7930
                0x00000000       0x14 build/obj/adc.o
 .rodata.__func__.7934
                0x00000000       0x14 build/obj/adc.o
 .rodata.__func__.7938
                0x00000000       0x14 build/obj/adc.o
 .rodata.__func__.7946
                0x00000000        0xc build/obj/adc.o
 .rodata.__func__.7950
                0x00000000       0x10 build/obj/adc.o
 .rodata.__func__.7954
                0x00000000       0x10 build/obj/adc.o
 .text          0x00000000        0x0 build/obj/can.o
 .data          0x00000000        0x0 build/obj/can.o
 .bss           0x00000000        0x0 build/obj/can.o
 .debug_info    0x00000000      0x7a6 build/obj/can.o
 .debug_abbrev  0x00000000      0x150 build/obj/can.o
 .debug_aranges
                0x00000000       0x18 build/obj/can.o
 .debug_line    0x00000000      0x16d build/obj/can.o
 .debug_str     0x00000000      0x63a build/obj/can.o
 .comment       0x00000000       0x71 build/obj/can.o
 .ARM.attributes
                0x00000000       0x33 build/obj/can.o
 .text          0x00000000        0x0 build/obj/dac.o
 .data          0x00000000        0x0 build/obj/dac.o
 .bss           0x00000000        0x0 build/obj/dac.o
 .debug_info    0x00000000      0x7a6 build/obj/dac.o
 .debug_abbrev  0x00000000      0x150 build/obj/dac.o
 .debug_aranges
                0x00000000       0x18 build/obj/dac.o
 .debug_line    0x00000000      0x16d build/obj/dac.o
 .debug_str     0x00000000      0x63a build/obj/dac.o
 .comment       0x00000000       0x71 build/obj/dac.o
 .ARM.attributes
                0x00000000       0x33 build/obj/dac.o
 .text          0x00000000        0x0 build/obj/ext.o
 .data          0x00000000        0x0 build/obj/ext.o
 .bss           0x00000000        0x0 build/obj/ext.o
 .debug_info    0x00000000      0x7a6 build/obj/ext.o
 .debug_abbrev  0x00000000      0x150 build/obj/ext.o
 .debug_aranges
                0x00000000       0x18 build/obj/ext.o
 .debug_line    0x00000000      0x16d build/obj/ext.o
 .debug_str     0x00000000      0x63a build/obj/ext.o
 .comment       0x00000000       0x71 build/obj/ext.o
 .ARM.attributes
                0x00000000       0x33 build/obj/ext.o
 .text          0x00000000        0x0 build/obj/gpt.o
 .data          0x00000000        0x0 build/obj/gpt.o
 .bss           0x00000000        0x0 build/obj/gpt.o
 .debug_info    0x00000000      0x7a6 build/obj/gpt.o
 .debug_abbrev  0x00000000      0x150 build/obj/gpt.o
 .debug_aranges
                0x00000000       0x18 build/obj/gpt.o
 .debug_line    0x00000000      0x16d build/obj/gpt.o
 .debug_str     0x00000000      0x63a build/obj/gpt.o
 .comment       0x00000000       0x71 build/obj/gpt.o
 .ARM.attributes
                0x00000000       0x33 build/obj/gpt.o
 .text          0x00000000        0x0 build/obj/i2c.o
 .data          0x00000000        0x0 build/obj/i2c.o
 .bss           0x00000000        0x0 build/obj/i2c.o
 .debug_info    0x00000000      0x7a6 build/obj/i2c.o
 .debug_abbrev  0x00000000      0x150 build/obj/i2c.o
 .debug_aranges
                0x00000000       0x18 build/obj/i2c.o
 .debug_line    0x00000000      0x16d build/obj/i2c.o
 .debug_str     0x00000000      0x63a build/obj/i2c.o
 .comment       0x00000000       0x71 build/obj/i2c.o
 .ARM.attributes
                0x00000000       0x33 build/obj/i2c.o
 .text          0x00000000        0x0 build/obj/i2s.o
 .data          0x00000000        0x0 build/obj/i2s.o
 .bss           0x00000000        0x0 build/obj/i2s.o
 .debug_info    0x00000000      0x7a6 build/obj/i2s.o
 .debug_abbrev  0x00000000      0x150 build/obj/i2s.o
 .debug_aranges
                0x00000000       0x18 build/obj/i2s.o
 .debug_line    0x00000000      0x16d build/obj/i2s.o
 .debug_str     0x00000000      0x63a build/obj/i2s.o
 .comment       0x00000000       0x71 build/obj/i2s.o
 .ARM.attributes
                0x00000000       0x33 build/obj/i2s.o
 .text          0x00000000        0x0 build/obj/icu.o
 .data          0x00000000        0x0 build/obj/icu.o
 .bss           0x00000000        0x0 build/obj/icu.o
 .debug_info    0x00000000      0x7a6 build/obj/icu.o
 .debug_abbrev  0x00000000      0x150 build/obj/icu.o
 .debug_aranges
                0x00000000       0x18 build/obj/icu.o
 .debug_line    0x00000000      0x16d build/obj/icu.o
 .debug_str     0x00000000      0x63a build/obj/icu.o
 .comment       0x00000000       0x71 build/obj/icu.o
 .ARM.attributes
                0x00000000       0x33 build/obj/icu.o
 .text          0x00000000        0x0 build/obj/mac.o
 .data          0x00000000        0x0 build/obj/mac.o
 .bss           0x00000000        0x0 build/obj/mac.o
 .text.macStop  0x00000000       0x50 build/obj/mac.o
 .rodata.__func__.7917
                0x00000000        0x8 build/obj/mac.o
 .text          0x00000000        0x0 build/obj/mmc_spi.o
 .data          0x00000000        0x0 build/obj/mmc_spi.o
 .bss           0x00000000        0x0 build/obj/mmc_spi.o
 .debug_info    0x00000000      0x7a6 build/obj/mmc_spi.o
 .debug_abbrev  0x00000000      0x150 build/obj/mmc_spi.o
 .debug_aranges
                0x00000000       0x18 build/obj/mmc_spi.o
 .debug_line    0x00000000      0x16d build/obj/mmc_spi.o
 .debug_str     0x00000000      0x63e build/obj/mmc_spi.o
 .comment       0x00000000       0x71 build/obj/mmc_spi.o
 .ARM.attributes
                0x00000000       0x33 build/obj/mmc_spi.o
 .text          0x00000000        0x0 build/obj/pal.o
 .data          0x00000000        0x0 build/obj/pal.o
 .bss           0x00000000        0x0 build/obj/pal.o
 .text.palReadBus
                0x00000000       0x40 build/obj/pal.o
 .text.palWriteBus
                0x00000000       0x60 build/obj/pal.o
 .text.palSetBusMode
                0x00000000       0x50 build/obj/pal.o
 .rodata.__func__.7906
                0x00000000        0xc build/obj/pal.o
 .rodata.__func__.7911
                0x00000000        0xc build/obj/pal.o
 .rodata.__func__.7916
                0x00000000       0x10 build/obj/pal.o
 .debug_info    0x00000000      0xa02 build/obj/pal.o
 .debug_abbrev  0x00000000      0x1cf build/obj/pal.o
 .debug_aranges
                0x00000000       0x30 build/obj/pal.o
 .debug_ranges  0x00000000       0x20 build/obj/pal.o
 .debug_line    0x00000000      0x24c build/obj/pal.o
 .debug_str     0x00000000      0x6fd build/obj/pal.o
 .comment       0x00000000       0x71 build/obj/pal.o
 .ARM.attributes
                0x00000000       0x33 build/obj/pal.o
 .debug_frame   0x00000000       0x70 build/obj/pal.o
 .text          0x00000000        0x0 build/obj/pwm.o
 .data          0x00000000        0x0 build/obj/pwm.o
 .bss           0x00000000        0x0 build/obj/pwm.o
 .debug_info    0x00000000      0x7a6 build/obj/pwm.o
 .debug_abbrev  0x00000000      0x150 build/obj/pwm.o
 .debug_aranges
                0x00000000       0x18 build/obj/pwm.o
 .debug_line    0x00000000      0x16d build/obj/pwm.o
 .debug_str     0x00000000      0x63a build/obj/pwm.o
 .comment       0x00000000       0x71 build/obj/pwm.o
 .ARM.attributes
                0x00000000       0x33 build/obj/pwm.o
 .text          0x00000000        0x0 build/obj/rtc.o
 .data          0x00000000        0x0 build/obj/rtc.o
 .bss           0x00000000        0x0 build/obj/rtc.o
 .debug_info    0x00000000      0x7a6 build/obj/rtc.o
 .debug_abbrev  0x00000000      0x150 build/obj/rtc.o
 .debug_aranges
                0x00000000       0x18 build/obj/rtc.o
 .debug_line    0x00000000      0x16d build/obj/rtc.o
 .debug_str     0x00000000      0x63a build/obj/rtc.o
 .comment       0x00000000       0x71 build/obj/rtc.o
 .ARM.attributes
                0x00000000       0x33 build/obj/rtc.o
 .text          0x00000000        0x0 build/obj/sdc.o
 .data          0x00000000        0x0 build/obj/sdc.o
 .bss           0x00000000        0x0 build/obj/sdc.o
 .text.sdcStart
                0x00000000       0x50 build/obj/sdc.o
 .text.sdcStop  0x00000000       0x50 build/obj/sdc.o
 .text.sdcGetAndClearErrors
                0x00000000       0x50 build/obj/sdc.o
 .text.sdcErase
                0x00000000       0xe0 build/obj/sdc.o
 .rodata.__func__.8378
                0x00000000        0xc build/obj/sdc.o
 .rodata.__func__.8382
                0x00000000        0x8 build/obj/sdc.o
 .rodata.__func__.8420
                0x00000000       0x18 build/obj/sdc.o
 .rodata.__func__.8437
                0x00000000        0xc build/obj/sdc.o
 .text          0x00000000        0x0 build/obj/serial.o
 .data          0x00000000        0x0 build/obj/serial.o
 .bss           0x00000000        0x0 build/obj/serial.o
 .text.port_lock
                0x00000000       0x20 build/obj/serial.o
 .text.port_unlock
                0x00000000       0x20 build/obj/serial.o
 .text.chSysLock
                0x00000000       0x20 build/obj/serial.o
 .text.chSysUnlock
                0x00000000       0x40 build/obj/serial.o
 .text.osalSysLock
                0x00000000       0x10 build/obj/serial.o
 .text.osalSysUnlock
                0x00000000       0x10 build/obj/serial.o
 .text.osalOsRescheduleS
                0x00000000       0x10 build/obj/serial.o
 .text.sdStart  0x00000000       0x50 build/obj/serial.o
 .text.sdStop   0x00000000       0x60 build/obj/serial.o
 .text.sdRequestDataI
                0x00000000       0x50 build/obj/serial.o
 .rodata.__func__.7954
                0x00000000        0x8 build/obj/serial.o
 .rodata.__func__.5842
                0x00000000        0xc build/obj/serial.o
 .rodata.__func__.7958
                0x00000000        0x8 build/obj/serial.o
 .rodata.__func__.7968
                0x00000000       0x10 build/obj/serial.o
 .text          0x00000000        0x0 build/obj/serial_usb.o
 .data          0x00000000        0x0 build/obj/serial_usb.o
 .bss           0x00000000        0x0 build/obj/serial_usb.o
 .debug_info    0x00000000      0x7a6 build/obj/serial_usb.o
 .debug_abbrev  0x00000000      0x150 build/obj/serial_usb.o
 .debug_aranges
                0x00000000       0x18 build/obj/serial_usb.o
 .debug_line    0x00000000      0x16d build/obj/serial_usb.o
 .debug_str     0x00000000      0x641 build/obj/serial_usb.o
 .comment       0x00000000       0x71 build/obj/serial_usb.o
 .ARM.attributes
                0x00000000       0x33 build/obj/serial_usb.o
 .text          0x00000000        0x0 build/obj/spi.o
 .data          0x00000000        0x0 build/obj/spi.o
 .bss           0x00000000        0x0 build/obj/spi.o
 .text.port_lock
                0x00000000       0x20 build/obj/spi.o
 .text.port_unlock
                0x00000000       0x20 build/obj/spi.o
 .text.chSysLock
                0x00000000       0x20 build/obj/spi.o
 .text.chSysUnlock
                0x00000000       0x40 build/obj/spi.o
 .text.osalSysLock
                0x00000000       0x10 build/obj/spi.o
 .text.osalSysUnlock
                0x00000000       0x10 build/obj/spi.o
 .text.osalThreadSuspendS
                0x00000000       0x20 build/obj/spi.o
 .text.osalMutexLock
                0x00000000       0x20 build/obj/spi.o
 .text.osalMutexUnlock
                0x00000000       0x20 build/obj/spi.o
 .text.spiStart
                0x00000000       0x60 build/obj/spi.o
 .text.spiStop  0x00000000       0x50 build/obj/spi.o
 .text.spiSelect
                0x00000000       0x40 build/obj/spi.o
 .text.spiUnselect
                0x00000000       0x40 build/obj/spi.o
 .text.spiStartIgnore
                0x00000000       0x50 build/obj/spi.o
 .text.spiStartExchange
                0x00000000       0x60 build/obj/spi.o
 .text.spiStartSend
                0x00000000       0x60 build/obj/spi.o
 .text.spiStartReceive
                0x00000000       0x60 build/obj/spi.o
 .text.spiIgnore
                0x00000000       0x70 build/obj/spi.o
 .text.spiExchange
                0x00000000       0x80 build/obj/spi.o
 .text.spiSend  0x00000000       0x70 build/obj/spi.o
 .text.spiReceive
                0x00000000       0x70 build/obj/spi.o
 .text.spiAcquireBus
                0x00000000       0x30 build/obj/spi.o
 .text.spiReleaseBus
                0x00000000       0x30 build/obj/spi.o
 .rodata.__func__.7913
                0x00000000        0xc build/obj/spi.o
 .rodata.__func__.5842
                0x00000000        0xc build/obj/spi.o
 .rodata.__func__.7917
                0x00000000        0x8 build/obj/spi.o
 .rodata.__func__.7921
                0x00000000        0xc build/obj/spi.o
 .rodata.__func__.7925
                0x00000000        0xc build/obj/spi.o
 .rodata.__func__.7930
                0x00000000       0x10 build/obj/spi.o
 .rodata.__func__.7937
                0x00000000       0x14 build/obj/spi.o
 .rodata.__func__.7943
                0x00000000       0x10 build/obj/spi.o
 .rodata.__func__.7949
                0x00000000       0x10 build/obj/spi.o
 .rodata.__func__.7954
                0x00000000        0xc build/obj/spi.o
 .rodata.__func__.7961
                0x00000000        0xc build/obj/spi.o
 .rodata.__func__.7967
                0x00000000        0x8 build/obj/spi.o
 .rodata.__func__.7973
                0x00000000        0xc build/obj/spi.o
 .rodata.__func__.7977
                0x00000000       0x10 build/obj/spi.o
 .rodata.__func__.7981
                0x00000000       0x10 build/obj/spi.o
 .text          0x00000000        0x0 build/obj/st.o
 .data          0x00000000        0x0 build/obj/st.o
 .bss           0x00000000        0x0 build/obj/st.o
 .text.st_lld_get_alarm
                0x00000000       0x20 build/obj/st.o
 .text.stGetAlarm
                0x00000000       0x30 build/obj/st.o
 .rodata.__func__.7920
                0x00000000        0xc build/obj/st.o
 .text          0x00000000        0x0 build/obj/uart.o
 .data          0x00000000        0x0 build/obj/uart.o
 .bss           0x00000000        0x0 build/obj/uart.o
 .debug_info    0x00000000      0x7a6 build/obj/uart.o
 .debug_abbrev  0x00000000      0x150 build/obj/uart.o
 .debug_aranges
                0x00000000       0x18 build/obj/uart.o
 .debug_line    0x00000000      0x16d build/obj/uart.o
 .debug_str     0x00000000      0x63b build/obj/uart.o
 .comment       0x00000000       0x71 build/obj/uart.o
 .ARM.attributes
                0x00000000       0x33 build/obj/uart.o
 .text          0x00000000        0x0 build/obj/usb.o
 .data          0x00000000        0x0 build/obj/usb.o
 .bss           0x00000000        0x0 build/obj/usb.o
 .text.chSysLock
                0x00000000       0x20 build/obj/usb.o
 .text.chSysUnlock
                0x00000000       0x40 build/obj/usb.o
 .text.osalSysLock
                0x00000000       0x10 build/obj/usb.o
 .text.osalSysUnlock
                0x00000000       0x10 build/obj/usb.o
 .text.usbStart
                0x00000000       0x80 build/obj/usb.o
 .text.usbStop  0x00000000       0x60 build/obj/usb.o
 .text.usbInitEndpointI
                0x00000000       0xa0 build/obj/usb.o
 .text.usbDisableEndpointsI
                0x00000000       0x80 build/obj/usb.o
 .text.usbPrepareQueuedReceive
                0x00000000       0x50 build/obj/usb.o
 .text.usbPrepareQueuedTransmit
                0x00000000       0x50 build/obj/usb.o
 .text.usbStallReceiveI
                0x00000000       0x50 build/obj/usb.o
 .text.usbStallTransmitI
                0x00000000       0x50 build/obj/usb.o
 .rodata.__func__.8302
                0x00000000        0xc build/obj/usb.o
 .rodata.__func__.6186
                0x00000000        0xc build/obj/usb.o
 .rodata.__func__.8309
                0x00000000        0x8 build/obj/usb.o
 .rodata.__func__.8315
                0x00000000       0x14 build/obj/usb.o
 .rodata.__func__.8320
                0x00000000       0x18 build/obj/usb.o
 .rodata.__func__.8366
                0x00000000       0x14 build/obj/usb.o
 .rodata.__func__.8371
                0x00000000       0x14 build/obj/usb.o
 .text          0x00000000        0x0 build/obj/chprintf.o
 .data          0x00000000        0x0 build/obj/chprintf.o
 .bss           0x00000000        0x0 build/obj/chprintf.o
 .text.chsnprintf
                0x00000000       0x70 build/obj/chprintf.o
 .text          0x00000000        0x0 build/obj/nvic.o
 .data          0x00000000        0x0 build/obj/nvic.o
 .bss           0x00000000        0x0 build/obj/nvic.o
 .text.nvicDisableVector
                0x00000000       0x40 build/obj/nvic.o
 .text.nvicSetSystemHandlerPriority
                0x00000000       0x40 build/obj/nvic.o
 .text.nvicClearPending
                0x00000000       0x30 build/obj/nvic.o
 .rodata.__func__.7914
                0x00000000       0x20 build/obj/nvic.o
 .text          0x00000000        0x0 build/obj/stm32_dma.o
 .data          0x00000000        0x0 build/obj/stm32_dma.o
 .bss           0x00000000        0x0 build/obj/stm32_dma.o
 .text.dmaStreamAllocate
                0x00000000      0x100 build/obj/stm32_dma.o
 .text.dmaStreamRelease
                0x00000000       0xa0 build/obj/stm32_dma.o
 .rodata.__func__.7987
                0x00000000       0x14 build/obj/stm32_dma.o
 .rodata.__func__.7994
                0x00000000       0x14 build/obj/stm32_dma.o
 .text          0x00000000        0x0 build/obj/hal_lld.o
 .data          0x00000000        0x0 build/obj/hal_lld.o
 .bss           0x00000000        0x0 build/obj/hal_lld.o
 .data.SystemCoreClock
                0x00000000        0x4 build/obj/hal_lld.o
 .text          0x00000000        0x0 build/obj/adc_lld.o
 .data          0x00000000        0x0 build/obj/adc_lld.o
 .bss           0x00000000        0x0 build/obj/adc_lld.o
 .text.adc_lld_serve_rx_interrupt
                0x00000000      0x170 build/obj/adc_lld.o
 .text.adc_lld_start
                0x00000000       0xa0 build/obj/adc_lld.o
 .text.adc_lld_stop
                0x00000000       0x50 build/obj/adc_lld.o
 .text.adc_lld_start_conversion
                0x00000000      0x110 build/obj/adc_lld.o
 .text.adcSTM32EnableTSVREFE
                0x00000000       0x20 build/obj/adc_lld.o
 .text.adcSTM32DisableTSVREFE
                0x00000000       0x20 build/obj/adc_lld.o
 .text.adcSTM32EnableVBATE
                0x00000000       0x20 build/obj/adc_lld.o
 .text.adcSTM32DisableVBATE
                0x00000000       0x20 build/obj/adc_lld.o
 .rodata.__func__.7921
                0x00000000       0x10 build/obj/adc_lld.o
 .text          0x00000000        0x0 build/obj/ext_lld_isr.o
 .data          0x00000000        0x0 build/obj/ext_lld_isr.o
 .bss           0x00000000        0x0 build/obj/ext_lld_isr.o
 .debug_info    0x00000000      0x7a6 build/obj/ext_lld_isr.o
 .debug_abbrev  0x00000000      0x150 build/obj/ext_lld_isr.o
 .debug_aranges
                0x00000000       0x18 build/obj/ext_lld_isr.o
 .debug_line    0x00000000      0x16d build/obj/ext_lld_isr.o
 .debug_str     0x00000000      0x654 build/obj/ext_lld_isr.o
 .comment       0x00000000       0x71 build/obj/ext_lld_isr.o
 .ARM.attributes
                0x00000000       0x33 build/obj/ext_lld_isr.o
 .text          0x00000000        0x0 build/obj/can_lld.o
 .data          0x00000000        0x0 build/obj/can_lld.o
 .bss           0x00000000        0x0 build/obj/can_lld.o
 .debug_info    0x00000000      0x7a6 build/obj/can_lld.o
 .debug_abbrev  0x00000000      0x150 build/obj/can_lld.o
 .debug_aranges
                0x00000000       0x18 build/obj/can_lld.o
 .debug_line    0x00000000      0x16d build/obj/can_lld.o
 .debug_str     0x00000000      0x64a build/obj/can_lld.o
 .comment       0x00000000       0x71 build/obj/can_lld.o
 .ARM.attributes
                0x00000000       0x33 build/obj/can_lld.o
 .text          0x00000000        0x0 build/obj/ext_lld.o
 .data          0x00000000        0x0 build/obj/ext_lld.o
 .bss           0x00000000        0x0 build/obj/ext_lld.o
 .debug_info    0x00000000      0x7a6 build/obj/ext_lld.o
 .debug_abbrev  0x00000000      0x150 build/obj/ext_lld.o
 .debug_aranges
                0x00000000       0x18 build/obj/ext_lld.o
 .debug_line    0x00000000      0x16d build/obj/ext_lld.o
 .debug_str     0x00000000      0x64a build/obj/ext_lld.o
 .comment       0x00000000       0x71 build/obj/ext_lld.o
 .ARM.attributes
                0x00000000       0x33 build/obj/ext_lld.o
 .text          0x00000000        0x0 build/obj/mac_lld.o
 .data          0x00000000        0x0 build/obj/mac_lld.o
 .bss           0x00000000        0x0 build/obj/mac_lld.o
 .text.mac_lld_stop
                0x00000000       0x80 build/obj/mac_lld.o
 .text          0x00000000        0x0 build/obj/sdc_lld.o
 .data          0x00000000        0x0 build/obj/sdc_lld.o
 .bss           0x00000000        0x0 build/obj/sdc_lld.o
 .rodata.sdc_default_cfg
                0x00000000        0x8 build/obj/sdc_lld.o
 .text.sdc_lld_start
                0x00000000       0xc0 build/obj/sdc_lld.o
 .text.sdc_lld_stop
                0x00000000       0x60 build/obj/sdc_lld.o
 .rodata.__func__.8303
                0x00000000       0x10 build/obj/sdc_lld.o
 .text          0x00000000        0x0 build/obj/dac_lld.o
 .data          0x00000000        0x0 build/obj/dac_lld.o
 .bss           0x00000000        0x0 build/obj/dac_lld.o
 .debug_info    0x00000000      0x7a6 build/obj/dac_lld.o
 .debug_abbrev  0x00000000      0x150 build/obj/dac_lld.o
 .debug_aranges
                0x00000000       0x18 build/obj/dac_lld.o
 .debug_line    0x00000000      0x16d build/obj/dac_lld.o
 .debug_str     0x00000000      0x650 build/obj/dac_lld.o
 .comment       0x00000000       0x71 build/obj/dac_lld.o
 .ARM.attributes
                0x00000000       0x33 build/obj/dac_lld.o
 .text          0x00000000        0x0 build/obj/pal_lld.o
 .data          0x00000000        0x0 build/obj/pal_lld.o
 .bss           0x00000000        0x0 build/obj/pal_lld.o
 .text._pal_lld_setgroupmode
                0x00000000      0x130 build/obj/pal_lld.o
 .text          0x00000000        0x0 build/obj/i2c_lld.o
 .data          0x00000000        0x0 build/obj/i2c_lld.o
 .bss           0x00000000        0x0 build/obj/i2c_lld.o
 .debug_info    0x00000000      0x7a6 build/obj/i2c_lld.o
 .debug_abbrev  0x00000000      0x150 build/obj/i2c_lld.o
 .debug_aranges
                0x00000000       0x18 build/obj/i2c_lld.o
 .debug_line    0x00000000      0x16d build/obj/i2c_lld.o
 .debug_str     0x00000000      0x650 build/obj/i2c_lld.o
 .comment       0x00000000       0x71 build/obj/i2c_lld.o
 .ARM.attributes
                0x00000000       0x33 build/obj/i2c_lld.o
 .text          0x00000000        0x0 build/obj/usb_lld.o
 .data          0x00000000        0x0 build/obj/usb_lld.o
 .bss           0x00000000        0x0 build/obj/usb_lld.o
 .text.chSysLock
                0x00000000       0x20 build/obj/usb_lld.o
 .text.chSysUnlock
                0x00000000       0x40 build/obj/usb_lld.o
 .text.chThdStartI
                0x00000000       0x30 build/obj/usb_lld.o
 .text.chRegSetThreadName
                0x00000000       0x20 build/obj/usb_lld.o
 .text.osalSysLock
                0x00000000       0x10 build/obj/usb_lld.o
 .text.osalSysUnlock
                0x00000000       0x10 build/obj/usb_lld.o
 .text.osalOsRescheduleS
                0x00000000       0x10 build/obj/usb_lld.o
 .text.osalThreadSuspendS
                0x00000000       0x20 build/obj/usb_lld.o
 .text.osalThreadDequeueAllI
                0x00000000       0x20 build/obj/usb_lld.o
 .text.otg_core_reset
                0x00000000       0x40 build/obj/usb_lld.o
 .text.otg_disable_ep
                0x00000000      0x110 build/obj/usb_lld.o
 .text.otg_do_push
                0x00000000       0x40 build/obj/usb_lld.o
 .text.otg_fifo_write_from_buffer
                0x00000000       0x30 build/obj/usb_lld.o
 .text.otg_fifo_write_from_queue
                0x00000000      0x110 build/obj/usb_lld.o
 .text.otg_do_pop
                0x00000000       0x40 build/obj/usb_lld.o
 .text.otg_fifo_read_to_buffer
                0x00000000       0x60 build/obj/usb_lld.o
 .text.otg_fifo_read_to_queue
                0x00000000       0xf0 build/obj/usb_lld.o
 .text.otg_rxfifo_handler
                0x00000000      0x150 build/obj/usb_lld.o
 .text.otg_txfifo_handler
                0x00000000      0x150 build/obj/usb_lld.o
 .text.usb_lld_start
                0x00000000      0x160 build/obj/usb_lld.o
 .text.usb_lld_stop
                0x00000000       0x80 build/obj/usb_lld.o
 .text.usb_lld_init_endpoint
                0x00000000      0x230 build/obj/usb_lld.o
 .text.usb_lld_disable_endpoints
                0x00000000       0x20 build/obj/usb_lld.o
 .rodata        0x00000000       0x10 build/obj/usb_lld.o
 .text.usb_lld_pump
                0x00000000      0x100 build/obj/usb_lld.o
 .rodata.__func__.6186
                0x00000000        0xc build/obj/usb_lld.o
 .rodata.__func__.6353
                0x00000000        0xc build/obj/usb_lld.o
 .text          0x00000000        0x0 build/obj/rtc_lld.o
 .data          0x00000000        0x0 build/obj/rtc_lld.o
 .bss           0x00000000        0x0 build/obj/rtc_lld.o
 .debug_info    0x00000000      0x7a6 build/obj/rtc_lld.o
 .debug_abbrev  0x00000000      0x150 build/obj/rtc_lld.o
 .debug_aranges
                0x00000000       0x18 build/obj/rtc_lld.o
 .debug_line    0x00000000      0x16d build/obj/rtc_lld.o
 .debug_str     0x00000000      0x650 build/obj/rtc_lld.o
 .comment       0x00000000       0x71 build/obj/rtc_lld.o
 .ARM.attributes
                0x00000000       0x33 build/obj/rtc_lld.o
 .text          0x00000000        0x0 build/obj/i2s_lld.o
 .data          0x00000000        0x0 build/obj/i2s_lld.o
 .bss           0x00000000        0x0 build/obj/i2s_lld.o
 .debug_info    0x00000000      0x7a6 build/obj/i2s_lld.o
 .debug_abbrev  0x00000000      0x150 build/obj/i2s_lld.o
 .debug_aranges
                0x00000000       0x18 build/obj/i2s_lld.o
 .debug_line    0x00000000      0x16d build/obj/i2s_lld.o
 .debug_str     0x00000000      0x650 build/obj/i2s_lld.o
 .comment       0x00000000       0x71 build/obj/i2s_lld.o
 .ARM.attributes
                0x00000000       0x33 build/obj/i2s_lld.o
 .text          0x00000000        0x0 build/obj/spi_lld.o
 .data          0x00000000        0x0 build/obj/spi_lld.o
 .bss           0x00000000        0x0 build/obj/spi_lld.o
 .text.port_lock
                0x00000000       0x20 build/obj/spi_lld.o
 .text.port_unlock
                0x00000000       0x20 build/obj/spi_lld.o
 .text.port_lock_from_isr
                0x00000000       0x10 build/obj/spi_lld.o
 .text.port_unlock_from_isr
                0x00000000       0x10 build/obj/spi_lld.o
 .text.chSysLockFromISR
                0x00000000       0x20 build/obj/spi_lld.o
 .text.chSysUnlockFromISR
                0x00000000       0x20 build/obj/spi_lld.o
 .text.osalSysHalt
                0x00000000       0x20 build/obj/spi_lld.o
 .text.osalSysLockFromISR
                0x00000000       0x10 build/obj/spi_lld.o
 .text.osalSysUnlockFromISR
                0x00000000       0x10 build/obj/spi_lld.o
 .text.osalThreadResumeI
                0x00000000       0x20 build/obj/spi_lld.o
 .bss.dummyrx   0x00000000        0x2 build/obj/spi_lld.o
 .rodata        0x00000000        0xc build/obj/spi_lld.o
 .text.spi_lld_serve_rx_interrupt
                0x00000000       0xe0 build/obj/spi_lld.o
 .text.spi_lld_serve_tx_interrupt
                0x00000000       0x30 build/obj/spi_lld.o
 .text.spi_lld_start
                0x00000000      0x120 build/obj/spi_lld.o
 .text.spi_lld_stop
                0x00000000       0x60 build/obj/spi_lld.o
 .text.spi_lld_select
                0x00000000       0x30 build/obj/spi_lld.o
 .text.spi_lld_unselect
                0x00000000       0x30 build/obj/spi_lld.o
 .text.spi_lld_ignore
                0x00000000       0x90 build/obj/spi_lld.o
 .text.spi_lld_exchange
                0x00000000       0x90 build/obj/spi_lld.o
 .text.spi_lld_send
                0x00000000       0x90 build/obj/spi_lld.o
 .text.spi_lld_receive
                0x00000000       0x90 build/obj/spi_lld.o
 .text.spi_lld_polled_exchange
                0x00000000       0x40 build/obj/spi_lld.o
 .rodata.__func__.7927
                0x00000000       0x10 build/obj/spi_lld.o
 .text          0x00000000        0x0 build/obj/gpt_lld.o
 .data          0x00000000        0x0 build/obj/gpt_lld.o
 .bss           0x00000000        0x0 build/obj/gpt_lld.o
 .debug_info    0x00000000      0x7a6 build/obj/gpt_lld.o
 .debug_abbrev  0x00000000      0x150 build/obj/gpt_lld.o
 .debug_aranges
                0x00000000       0x18 build/obj/gpt_lld.o
 .debug_line    0x00000000      0x16d build/obj/gpt_lld.o
 .debug_str     0x00000000      0x650 build/obj/gpt_lld.o
 .comment       0x00000000       0x71 build/obj/gpt_lld.o
 .ARM.attributes
                0x00000000       0x33 build/obj/gpt_lld.o
 .text          0x00000000        0x0 build/obj/icu_lld.o
 .data          0x00000000        0x0 build/obj/icu_lld.o
 .bss           0x00000000        0x0 build/obj/icu_lld.o
 .debug_info    0x00000000      0x7a6 build/obj/icu_lld.o
 .debug_abbrev  0x00000000      0x150 build/obj/icu_lld.o
 .debug_aranges
                0x00000000       0x18 build/obj/icu_lld.o
 .debug_line    0x00000000      0x16d build/obj/icu_lld.o
 .debug_str     0x00000000      0x650 build/obj/icu_lld.o
 .comment       0x00000000       0x71 build/obj/icu_lld.o
 .ARM.attributes
                0x00000000       0x33 build/obj/icu_lld.o
 .text          0x00000000        0x0 build/obj/pwm_lld.o
 .data          0x00000000        0x0 build/obj/pwm_lld.o
 .bss           0x00000000        0x0 build/obj/pwm_lld.o
 .debug_info    0x00000000      0x7a6 build/obj/pwm_lld.o
 .debug_abbrev  0x00000000      0x150 build/obj/pwm_lld.o
 .debug_aranges
                0x00000000       0x18 build/obj/pwm_lld.o
 .debug_line    0x00000000      0x16d build/obj/pwm_lld.o
 .debug_str     0x00000000      0x650 build/obj/pwm_lld.o
 .comment       0x00000000       0x71 build/obj/pwm_lld.o
 .ARM.attributes
                0x00000000       0x33 build/obj/pwm_lld.o
 .text          0x00000000        0x0 build/obj/st_lld.o
 .data          0x00000000        0x0 build/obj/st_lld.o
 .bss           0x00000000        0x0 build/obj/st_lld.o
 .text          0x00000000        0x0 build/obj/serial_lld.o
 .data          0x00000000        0x0 build/obj/serial_lld.o
 .bss           0x00000000        0x0 build/obj/serial_lld.o
 .rodata.default_config
                0x00000000        0xc build/obj/serial_lld.o
 .text.usart_init
                0x00000000       0xb0 build/obj/serial_lld.o
 .text.usart_deinit
                0x00000000       0x30 build/obj/serial_lld.o
 .text.sd_lld_start
                0x00000000       0x80 build/obj/serial_lld.o
 .text.sd_lld_stop
                0x00000000       0x70 build/obj/serial_lld.o
 .text          0x00000000        0x0 build/obj/uart_lld.o
 .data          0x00000000        0x0 build/obj/uart_lld.o
 .bss           0x00000000        0x0 build/obj/uart_lld.o
 .debug_info    0x00000000      0x7a6 build/obj/uart_lld.o
 .debug_abbrev  0x00000000      0x150 build/obj/uart_lld.o
 .debug_aranges
                0x00000000       0x18 build/obj/uart_lld.o
 .debug_line    0x00000000      0x16d build/obj/uart_lld.o
 .debug_str     0x00000000      0x653 build/obj/uart_lld.o
 .comment       0x00000000       0x71 build/obj/uart_lld.o
 .ARM.attributes
                0x00000000       0x33 build/obj/uart_lld.o
 .text          0x00000000        0x0 build/obj/board.o
 .data          0x00000000        0x0 build/obj/board.o
 .bss           0x00000000        0x0 build/obj/board.o
 .text          0x00000000        0x0 build/obj/test.o
 .data          0x00000000        0x0 build/obj/test.o
 .bss           0x00000000        0x0 build/obj/test.o
 .text.port_lock
                0x00000000       0x20 build/obj/test.o
 .text.port_unlock
                0x00000000       0x20 build/obj/test.o
 .text.st_lld_get_counter
                0x00000000       0x20 build/obj/test.o
 .text.port_timer_get_time
                0x00000000       0x10 build/obj/test.o
 .text.chSysLock
                0x00000000       0x20 build/obj/test.o
 .text.chSysUnlock
                0x00000000       0x40 build/obj/test.o
 .text.chVTGetSystemTimeX
                0x00000000       0x10 build/obj/test.o
 .text.chVTGetSystemTime
                0x00000000       0x20 build/obj/test.o
 .text.chVTIsTimeWithinX
                0x00000000       0x30 build/obj/test.o
 .text.chVTIsSystemTimeWithin
                0x00000000       0x30 build/obj/test.o
 .text.chVTIsArmedI
                0x00000000       0x30 build/obj/test.o
 .text.chVTResetI
                0x00000000       0x20 build/obj/test.o
 .text.chVTSetI
                0x00000000       0x30 build/obj/test.o
 .text.chVTSet  0x00000000       0x30 build/obj/test.o
 .data.patterns
                0x00000000       0x34 build/obj/test.o
 .bss.test_global_fail
                0x00000000        0x1 build/obj/test.o
 .bss.local_fail
                0x00000000        0x1 build/obj/test.o
 .bss.failpoint
                0x00000000        0x4 build/obj/test.o
 .bss.tokens_buffer
                0x00000000       0x10 build/obj/test.o
 .bss.tokp      0x00000000        0x4 build/obj/test.o
 .bss.test      0x00000000      0x730 build/obj/test.o
 .bss.threads   0x00000000       0x14 build/obj/test.o
 .rodata.wa     0x00000000       0x14 build/obj/test.o
 .bss.chp       0x00000000        0x4 build/obj/test.o
 .text.test_printn
                0x00000000       0xa0 build/obj/test.o
 .text.test_print
                0x00000000       0x40 build/obj/test.o
 .rodata        0x00000000      0x210 build/obj/test.o
 .text.test_println
                0x00000000       0x30 build/obj/test.o
 .text.clear_tokens
                0x00000000       0x20 build/obj/test.o
 .text.print_tokens
                0x00000000       0x50 build/obj/test.o
 .text.test_emit_token
                0x00000000       0x30 build/obj/test.o
 .text._test_fail
                0x00000000       0x40 build/obj/test.o
 .text._test_assert
                0x00000000       0x30 build/obj/test.o
 .text._test_assert_sequence
                0x00000000       0x60 build/obj/test.o
 .text._test_assert_time_window
                0x00000000       0x30 build/obj/test.o
 .text.test_terminate_threads
                0x00000000       0x40 build/obj/test.o
 .text.test_wait_threads
                0x00000000       0x50 build/obj/test.o
 .text.test_wait_tick
                0x00000000       0x20 build/obj/test.o
 .bss.test_timer_done
                0x00000000        0x1 build/obj/test.o
 .bss.vt        0x00000000       0x14 build/obj/test.o
 .text.tmr      0x00000000       0x20 build/obj/test.o
 .text.test_start_timer
                0x00000000       0x50 build/obj/test.o
 .text.execute_test
                0x00000000       0x70 build/obj/test.o
 .text.print_line
                0x00000000       0x50 build/obj/test.o
 .text.TestThread
                0x00000000      0x220 build/obj/test.o
 .rodata.__func__.5842
                0x00000000        0xc build/obj/test.o
 .debug_info    0x00000000     0x125d build/obj/test.o
 .debug_abbrev  0x00000000      0x455 build/obj/test.o
 .debug_aranges
                0x00000000      0x118 build/obj/test.o
 .debug_ranges  0x00000000      0x108 build/obj/test.o
 .debug_line    0x00000000      0x666 build/obj/test.o
 .debug_str     0x00000000      0xa0b build/obj/test.o
 .comment       0x00000000       0x71 build/obj/test.o
 .ARM.attributes
                0x00000000       0x33 build/obj/test.o
 .debug_frame   0x00000000      0x3e0 build/obj/test.o
 .text          0x00000000        0x0 build/obj/testthd.o
 .data          0x00000000        0x0 build/obj/testthd.o
 .bss           0x00000000        0x0 build/obj/testthd.o
 .text.port_lock
                0x00000000       0x20 build/obj/testthd.o
 .text.port_unlock
                0x00000000       0x20 build/obj/testthd.o
 .text.st_lld_get_counter
                0x00000000       0x20 build/obj/testthd.o
 .text.port_timer_get_time
                0x00000000       0x10 build/obj/testthd.o
 .text.chSysLock
                0x00000000       0x20 build/obj/testthd.o
 .text.chSysUnlock
                0x00000000       0x40 build/obj/testthd.o
 .text.chVTGetSystemTimeX
                0x00000000       0x10 build/obj/testthd.o
 .text.chVTGetSystemTime
                0x00000000       0x20 build/obj/testthd.o
 .text.chThdGetSelfX
                0x00000000       0x20 build/obj/testthd.o
 .text.chThdGetPriorityX
                0x00000000       0x10 build/obj/testthd.o
 .text.thread   0x00000000       0x20 build/obj/testthd.o
 .rodata        0x00000000       0x80 build/obj/testthd.o
 .text.thd1_execute
                0x00000000      0x100 build/obj/testthd.o
 .rodata.testthd1
                0x00000000       0x10 build/obj/testthd.o
 .text.thd2_execute
                0x00000000      0x110 build/obj/testthd.o
 .rodata.testthd2
                0x00000000       0x10 build/obj/testthd.o
 .text.thd3_execute
                0x00000000      0x1f0 build/obj/testthd.o
 .rodata.testthd3
                0x00000000       0x10 build/obj/testthd.o
 .text.thd4_execute
                0x00000000       0xc0 build/obj/testthd.o
 .rodata.testthd4
                0x00000000       0x10 build/obj/testthd.o
 .rodata.patternthd
                0x00000000       0x14 build/obj/testthd.o
 .rodata.__func__.5842
                0x00000000        0xc build/obj/testthd.o
 .debug_info    0x00000000      0xbd8 build/obj/testthd.o
 .debug_abbrev  0x00000000      0x2db build/obj/testthd.o
 .debug_aranges
                0x00000000       0x90 build/obj/testthd.o
 .debug_ranges  0x00000000       0x80 build/obj/testthd.o
 .debug_line    0x00000000      0x46b build/obj/testthd.o
 .debug_str     0x00000000      0x7d6 build/obj/testthd.o
 .comment       0x00000000       0x71 build/obj/testthd.o
 .ARM.attributes
                0x00000000       0x33 build/obj/testthd.o
 .debug_frame   0x00000000      0x1d4 build/obj/testthd.o
 .text          0x00000000        0x0 build/obj/testsem.o
 .data          0x00000000        0x0 build/obj/testsem.o
 .bss           0x00000000        0x0 build/obj/testsem.o
 .text.port_lock
                0x00000000       0x20 build/obj/testsem.o
 .text.port_unlock
                0x00000000       0x20 build/obj/testsem.o
 .text.st_lld_get_counter
                0x00000000       0x20 build/obj/testsem.o
 .text.port_timer_get_time
                0x00000000       0x10 build/obj/testsem.o
 .text.queue_isempty
                0x00000000       0x30 build/obj/testsem.o
 .text.chSysLock
                0x00000000       0x20 build/obj/testsem.o
 .text.chSysUnlock
                0x00000000       0x40 build/obj/testsem.o
 .text.chVTGetSystemTimeX
                0x00000000       0x10 build/obj/testsem.o
 .text.chVTGetSystemTime
                0x00000000       0x20 build/obj/testsem.o
 .text.chThdGetSelfX
                0x00000000       0x20 build/obj/testsem.o
 .text.chThdGetPriorityX
                0x00000000       0x10 build/obj/testsem.o
 .text.chSemGetCounterI
                0x00000000       0x20 build/obj/testsem.o
 .text.chBSemObjectInit
                0x00000000       0x30 build/obj/testsem.o
 .text.chBSemWait
                0x00000000       0x20 build/obj/testsem.o
 .text.chBSemReset
                0x00000000       0x30 build/obj/testsem.o
 .text.chBSemSignalI
                0x00000000       0x30 build/obj/testsem.o
 .text.chBSemSignal
                0x00000000       0x20 build/obj/testsem.o
 .text.chBSemGetStateI
                0x00000000       0x30 build/obj/testsem.o
 .data.sem1     0x00000000        0xc build/obj/testsem.o
 .text.sem1_setup
                0x00000000       0x20 build/obj/testsem.o
 .text.thread1  0x00000000       0x30 build/obj/testsem.o
 .rodata        0x00000000       0x8c build/obj/testsem.o
 .text.sem1_execute
                0x00000000      0x190 build/obj/testsem.o
 .rodata.testsem1
                0x00000000       0x10 build/obj/testsem.o
 .text.sem2_setup
                0x00000000       0x20 build/obj/testsem.o
 .text.thread2  0x00000000       0x30 build/obj/testsem.o
 .text.sem2_execute
                0x00000000      0x1c0 build/obj/testsem.o
 .rodata.testsem2
                0x00000000       0x10 build/obj/testsem.o
 .text.sem3_setup
                0x00000000       0x20 build/obj/testsem.o
 .text.thread3  0x00000000       0x20 build/obj/testsem.o
 .text.sem3_execute
                0x00000000       0xc0 build/obj/testsem.o
 .rodata.testsem3
                0x00000000       0x10 build/obj/testsem.o
 .text.thread4  0x00000000       0x20 build/obj/testsem.o
 .text.sem4_execute
                0x00000000      0x1a0 build/obj/testsem.o
 .rodata.testsem4
                0x00000000       0x10 build/obj/testsem.o
 .rodata.patternsem
                0x00000000       0x14 build/obj/testsem.o
 .rodata.__func__.5842
                0x00000000        0xc build/obj/testsem.o
 .debug_info    0x00000000      0xe2d build/obj/testsem.o
 .debug_abbrev  0x00000000      0x33e build/obj/testsem.o
 .debug_aranges
                0x00000000      0x100 build/obj/testsem.o
 .debug_ranges  0x00000000       0xf0 build/obj/testsem.o
 .debug_line    0x00000000      0x64e build/obj/testsem.o
 .debug_str     0x00000000      0x8c0 build/obj/testsem.o
 .comment       0x00000000       0x71 build/obj/testsem.o
 .ARM.attributes
                0x00000000       0x33 build/obj/testsem.o
 .debug_frame   0x00000000      0x38c build/obj/testsem.o
 .text          0x00000000        0x0 build/obj/testmtx.o
 .data          0x00000000        0x0 build/obj/testmtx.o
 .bss           0x00000000        0x0 build/obj/testmtx.o
 .text.port_lock
                0x00000000       0x20 build/obj/testmtx.o
 .text.port_unlock
                0x00000000       0x20 build/obj/testmtx.o
 .text.queue_isempty
                0x00000000       0x30 build/obj/testmtx.o
 .text.chSysLock
                0x00000000       0x20 build/obj/testmtx.o
 .text.chSysUnlock
                0x00000000       0x40 build/obj/testmtx.o
 .text.chThdGetSelfX
                0x00000000       0x20 build/obj/testmtx.o
 .text.chThdGetPriorityX
                0x00000000       0x10 build/obj/testmtx.o
 .data.m1       0x00000000       0x10 build/obj/testmtx.o
 .data.m2       0x00000000       0x10 build/obj/testmtx.o
 .data.c1       0x00000000        0x8 build/obj/testmtx.o
 .text.mtx1_setup
                0x00000000       0x10 build/obj/testmtx.o
 .text.thread1  0x00000000       0x30 build/obj/testmtx.o
 .rodata        0x00000000       0xb4 build/obj/testmtx.o
 .text.mtx1_execute
                0x00000000      0x120 build/obj/testmtx.o
 .rodata.testmtx1
                0x00000000       0x10 build/obj/testmtx.o
 .text.mtx4_setup
                0x00000000       0x20 build/obj/testmtx.o
 .text.thread4a
                0x00000000       0x30 build/obj/testmtx.o
 .text.thread4b
                0x00000000       0x30 build/obj/testmtx.o
 .text.mtx4_execute
                0x00000000      0x310 build/obj/testmtx.o
 .rodata.testmtx4
                0x00000000       0x10 build/obj/testmtx.o
 .text.mtx5_setup
                0x00000000       0x10 build/obj/testmtx.o
 .text.mtx5_execute
                0x00000000      0x110 build/obj/testmtx.o
 .rodata.testmtx5
                0x00000000       0x10 build/obj/testmtx.o
 .text.mtx6_setup
                0x00000000       0x20 build/obj/testmtx.o
 .text.thread10
                0x00000000       0x40 build/obj/testmtx.o
 .text.mtx6_execute
                0x00000000      0x120 build/obj/testmtx.o
 .rodata.testmtx6
                0x00000000       0x10 build/obj/testmtx.o
 .text.mtx7_setup
                0x00000000       0x20 build/obj/testmtx.o
 .text.mtx7_execute
                0x00000000      0x100 build/obj/testmtx.o
 .rodata.testmtx7
                0x00000000       0x10 build/obj/testmtx.o
 .text.mtx8_setup
                0x00000000       0x30 build/obj/testmtx.o
 .text.thread11
                0x00000000       0x50 build/obj/testmtx.o
 .text.thread12
                0x00000000       0x30 build/obj/testmtx.o
 .text.mtx8_execute
                0x00000000       0xc0 build/obj/testmtx.o
 .rodata.testmtx8
                0x00000000       0x10 build/obj/testmtx.o
 .rodata.patternmtx
                0x00000000       0x1c build/obj/testmtx.o
 .rodata.__func__.5842
                0x00000000        0xc build/obj/testmtx.o
 .debug_info    0x00000000      0xc93 build/obj/testmtx.o
 .debug_abbrev  0x00000000      0x2ff build/obj/testmtx.o
 .debug_aranges
                0x00000000       0xe0 build/obj/testmtx.o
 .debug_ranges  0x00000000       0xd0 build/obj/testmtx.o
 .debug_line    0x00000000      0x54d build/obj/testmtx.o
 .debug_str     0x00000000      0x821 build/obj/testmtx.o
 .comment       0x00000000       0x71 build/obj/testmtx.o
 .ARM.attributes
                0x00000000       0x33 build/obj/testmtx.o
 .debug_frame   0x00000000      0x2fc build/obj/testmtx.o
 .text          0x00000000        0x0 build/obj/testmsg.o
 .data          0x00000000        0x0 build/obj/testmsg.o
 .bss           0x00000000        0x0 build/obj/testmsg.o
 .text.chThdGetSelfX
                0x00000000       0x20 build/obj/testmsg.o
 .text.chThdGetPriorityX
                0x00000000       0x10 build/obj/testmsg.o
 .text.chMsgGet
                0x00000000       0x20 build/obj/testmsg.o
 .text.thread   0x00000000       0x30 build/obj/testmsg.o
 .rodata        0x00000000       0x14 build/obj/testmsg.o
 .text.msg1_execute
                0x00000000       0xc0 build/obj/testmsg.o
 .rodata.testmsg1
                0x00000000       0x10 build/obj/testmsg.o
 .rodata.patternmsg
                0x00000000        0x8 build/obj/testmsg.o
 .debug_info    0x00000000      0x911 build/obj/testmsg.o
 .debug_abbrev  0x00000000      0x213 build/obj/testmsg.o
 .debug_aranges
                0x00000000       0x40 build/obj/testmsg.o
 .debug_ranges  0x00000000       0x30 build/obj/testmsg.o
 .debug_line    0x00000000      0x26d build/obj/testmsg.o
 .debug_str     0x00000000      0x6ba build/obj/testmsg.o
 .comment       0x00000000       0x71 build/obj/testmsg.o
 .ARM.attributes
                0x00000000       0x33 build/obj/testmsg.o
 .debug_frame   0x00000000       0xac build/obj/testmsg.o
 .text          0x00000000        0x0 build/obj/testmbox.o
 .data          0x00000000        0x0 build/obj/testmbox.o
 .bss           0x00000000        0x0 build/obj/testmbox.o
 .text.port_lock
                0x00000000       0x20 build/obj/testmbox.o
 .text.port_unlock
                0x00000000       0x20 build/obj/testmbox.o
 .text.chSysLock
                0x00000000       0x20 build/obj/testmbox.o
 .text.chSysUnlock
                0x00000000       0x40 build/obj/testmbox.o
 .text.chSemGetCounterI
                0x00000000       0x20 build/obj/testmbox.o
 .text.chMBGetFreeCountI
                0x00000000       0x20 build/obj/testmbox.o
 .text.chMBGetUsedCountI
                0x00000000       0x20 build/obj/testmbox.o
 .data.mb1      0x00000000       0x28 build/obj/testmbox.o
 .text.mbox1_setup
                0x00000000       0x20 build/obj/testmbox.o
 .rodata        0x00000000       0x28 build/obj/testmbox.o
 .text.mbox1_execute
                0x00000000      0x820 build/obj/testmbox.o
 .rodata.testmbox1
                0x00000000       0x10 build/obj/testmbox.o
 .rodata.patternmbox
                0x00000000        0x8 build/obj/testmbox.o
 .rodata.__func__.5842
                0x00000000        0xc build/obj/testmbox.o
 .debug_info    0x00000000      0xae3 build/obj/testmbox.o
 .debug_abbrev  0x00000000      0x2bc build/obj/testmbox.o
 .debug_aranges
                0x00000000       0x60 build/obj/testmbox.o
 .debug_ranges  0x00000000       0x50 build/obj/testmbox.o
 .debug_line    0x00000000      0x538 build/obj/testmbox.o
 .debug_str     0x00000000      0x783 build/obj/testmbox.o
 .comment       0x00000000       0x71 build/obj/testmbox.o
 .ARM.attributes
                0x00000000       0x33 build/obj/testmbox.o
 .debug_frame   0x00000000      0x11c build/obj/testmbox.o
 .text          0x00000000        0x0 build/obj/testevt.o
 .data          0x00000000        0x0 build/obj/testevt.o
 .bss           0x00000000        0x0 build/obj/testevt.o
 .text.port_lock
                0x00000000       0x20 build/obj/testevt.o
 .text.port_unlock
                0x00000000       0x20 build/obj/testevt.o
 .text.st_lld_get_counter
                0x00000000       0x20 build/obj/testevt.o
 .text.port_timer_get_time
                0x00000000       0x10 build/obj/testevt.o
 .text.chSysLock
                0x00000000       0x20 build/obj/testevt.o
 .text.chSysUnlock
                0x00000000       0x40 build/obj/testevt.o
 .text.chVTGetSystemTimeX
                0x00000000       0x10 build/obj/testevt.o
 .text.chVTGetSystemTime
                0x00000000       0x20 build/obj/testevt.o
 .text.chThdGetSelfX
                0x00000000       0x20 build/obj/testevt.o
 .text.chThdGetPriorityX
                0x00000000       0x10 build/obj/testevt.o
 .text.chEvtObjectInit
                0x00000000       0x20 build/obj/testevt.o
 .text.chEvtRegisterMask
                0x00000000       0x20 build/obj/testevt.o
 .text.chEvtIsListeningI
                0x00000000       0x30 build/obj/testevt.o
 .text.chEvtBroadcast
                0x00000000       0x20 build/obj/testevt.o
 .data.es1      0x00000000        0x4 build/obj/testevt.o
 .data.es2      0x00000000        0x4 build/obj/testevt.o
 .text.evt1_setup
                0x00000000       0x10 build/obj/testevt.o
 .text.h1       0x00000000       0x20 build/obj/testevt.o
 .text.h2       0x00000000       0x20 build/obj/testevt.o
 .text.h3       0x00000000       0x20 build/obj/testevt.o
 .rodata.evhndl
                0x00000000        0xc build/obj/testevt.o
 .rodata        0x00000000       0x5c build/obj/testevt.o
 .text.evt1_execute
                0x00000000       0xd0 build/obj/testevt.o
 .rodata.testevt1
                0x00000000       0x10 build/obj/testevt.o
 .text.evt2_setup
                0x00000000       0x10 build/obj/testevt.o
 .text.thread1  0x00000000       0x20 build/obj/testevt.o
 .text.thread2  0x00000000       0x30 build/obj/testevt.o
 .text.evt2_execute
                0x00000000      0x370 build/obj/testevt.o
 .rodata.testevt2
                0x00000000       0x10 build/obj/testevt.o
 .text.evt3_setup
                0x00000000       0x10 build/obj/testevt.o
 .text.evt3_execute
                0x00000000      0x100 build/obj/testevt.o
 .rodata.testevt3
                0x00000000       0x10 build/obj/testevt.o
 .rodata.patternevt
                0x00000000       0x10 build/obj/testevt.o
 .rodata.__func__.5842
                0x00000000        0xc build/obj/testevt.o
 .debug_info    0x00000000      0xe62 build/obj/testevt.o
 .debug_abbrev  0x00000000      0x345 build/obj/testevt.o
 .debug_aranges
                0x00000000       0xe0 build/obj/testevt.o
 .debug_ranges  0x00000000       0xd0 build/obj/testevt.o
 .debug_line    0x00000000      0x57c build/obj/testevt.o
 .debug_str     0x00000000      0x8db build/obj/testevt.o
 .comment       0x00000000       0x71 build/obj/testevt.o
 .ARM.attributes
                0x00000000       0x33 build/obj/testevt.o
 .debug_frame   0x00000000      0x300 build/obj/testevt.o
 .text          0x00000000        0x0 build/obj/testheap.o
 .data          0x00000000        0x0 build/obj/testheap.o
 .bss           0x00000000        0x0 build/obj/testheap.o
 .bss.test_heap
                0x00000000       0x20 build/obj/testheap.o
 .text.heap1_setup
                0x00000000       0x20 build/obj/testheap.o
 .text.heap1_execute
                0x00000000      0x300 build/obj/testheap.o
 .rodata        0x00000000       0x28 build/obj/testheap.o
 .rodata.testheap1
                0x00000000       0x10 build/obj/testheap.o
 .rodata.patternheap
                0x00000000        0x8 build/obj/testheap.o
 .debug_info    0x00000000      0xa0b build/obj/testheap.o
 .debug_abbrev  0x00000000      0x224 build/obj/testheap.o
 .debug_aranges
                0x00000000       0x28 build/obj/testheap.o
 .debug_ranges  0x00000000       0x18 build/obj/testheap.o
 .debug_line    0x00000000      0x2b0 build/obj/testheap.o
 .debug_str     0x00000000      0x715 build/obj/testheap.o
 .comment       0x00000000       0x71 build/obj/testheap.o
 .ARM.attributes
                0x00000000       0x33 build/obj/testheap.o
 .debug_frame   0x00000000       0x4c build/obj/testheap.o
 .text          0x00000000        0x0 build/obj/testpools.o
 .data          0x00000000        0x0 build/obj/testpools.o
 .bss           0x00000000        0x0 build/obj/testpools.o
 .data.mp1      0x00000000        0xc build/obj/testpools.o
 .text.null_provider
                0x00000000       0x20 build/obj/testpools.o
 .text.pools1_setup
                0x00000000       0x20 build/obj/testpools.o
 .text.pools1_execute
                0x00000000      0x120 build/obj/testpools.o
 .rodata        0x00000000       0x1c build/obj/testpools.o
 .rodata.testpools1
                0x00000000       0x10 build/obj/testpools.o
 .rodata.patternpools
                0x00000000        0x8 build/obj/testpools.o
 .debug_info    0x00000000      0x935 build/obj/testpools.o
 .debug_abbrev  0x00000000      0x1f3 build/obj/testpools.o
 .debug_aranges
                0x00000000       0x30 build/obj/testpools.o
 .debug_ranges  0x00000000       0x20 build/obj/testpools.o
 .debug_line    0x00000000      0x27f build/obj/testpools.o
 .debug_str     0x00000000      0x6fc build/obj/testpools.o
 .comment       0x00000000       0x71 build/obj/testpools.o
 .ARM.attributes
                0x00000000       0x33 build/obj/testpools.o
 .debug_frame   0x00000000       0x68 build/obj/testpools.o
 .text          0x00000000        0x0 build/obj/testdyn.o
 .data          0x00000000        0x0 build/obj/testdyn.o
 .bss           0x00000000        0x0 build/obj/testdyn.o
 .text.chThdGetSelfX
                0x00000000       0x20 build/obj/testdyn.o
 .text.chThdGetPriorityX
                0x00000000       0x10 build/obj/testdyn.o
 .bss.heap1     0x00000000       0x20 build/obj/testdyn.o
 .bss.mp1       0x00000000        0xc build/obj/testdyn.o
 .text.thread   0x00000000       0x20 build/obj/testdyn.o
 .text.dyn1_setup
                0x00000000       0x20 build/obj/testdyn.o
 .rodata        0x00000000       0xa4 build/obj/testdyn.o
 .text.dyn1_execute
                0x00000000      0x150 build/obj/testdyn.o
 .rodata.testdyn1
                0x00000000       0x10 build/obj/testdyn.o
 .text.dyn2_setup
                0x00000000       0x20 build/obj/testdyn.o
 .text.dyn2_execute
                0x00000000      0x180 build/obj/testdyn.o
 .rodata.testdyn2
                0x00000000       0x10 build/obj/testdyn.o
 .text.regfind  0x00000000       0x50 build/obj/testdyn.o
 .text.dyn3_setup
                0x00000000       0x20 build/obj/testdyn.o
 .text.dyn3_execute
                0x00000000      0x1c0 build/obj/testdyn.o
 .rodata.testdyn3
                0x00000000       0x10 build/obj/testdyn.o
 .rodata.patterndyn
                0x00000000       0x10 build/obj/testdyn.o
 .debug_info    0x00000000      0xbd7 build/obj/testdyn.o
 .debug_abbrev  0x00000000      0x293 build/obj/testdyn.o
 .debug_aranges
                0x00000000       0x68 build/obj/testdyn.o
 .debug_ranges  0x00000000       0x58 build/obj/testdyn.o
 .debug_line    0x00000000      0x3db build/obj/testdyn.o
 .debug_str     0x00000000      0x7db build/obj/testdyn.o
 .comment       0x00000000       0x71 build/obj/testdyn.o
 .ARM.attributes
                0x00000000       0x33 build/obj/testdyn.o
 .debug_frame   0x00000000      0x13c build/obj/testdyn.o
 .text          0x00000000        0x0 build/obj/testqueues.o
 .data          0x00000000        0x0 build/obj/testqueues.o
 .bss           0x00000000        0x0 build/obj/testqueues.o
 .text.port_lock
                0x00000000       0x20 build/obj/testqueues.o
 .text.port_unlock
                0x00000000       0x20 build/obj/testqueues.o
 .text.chSysLock
                0x00000000       0x20 build/obj/testqueues.o
 .text.chSysUnlock
                0x00000000       0x40 build/obj/testqueues.o
 .text.chThdGetSelfX
                0x00000000       0x20 build/obj/testqueues.o
 .text.chThdGetPriorityX
                0x00000000       0x10 build/obj/testqueues.o
 .text.chIQGetFullI
                0x00000000       0x20 build/obj/testqueues.o
 .text.chIQIsEmptyI
                0x00000000       0x30 build/obj/testqueues.o
 .text.chIQIsFullI
                0x00000000       0x40 build/obj/testqueues.o
 .text.chIQGet  0x00000000       0x20 build/obj/testqueues.o
 .text.chOQGetFullI
                0x00000000       0x30 build/obj/testqueues.o
 .text.chOQIsEmptyI
                0x00000000       0x40 build/obj/testqueues.o
 .text.chOQIsFullI
                0x00000000       0x30 build/obj/testqueues.o
 .text.chOQPut  0x00000000       0x30 build/obj/testqueues.o
 .text.notify   0x00000000       0x20 build/obj/testqueues.o
 .data.iq       0x00000000       0x24 build/obj/testqueues.o
 .data.oq       0x00000000       0x24 build/obj/testqueues.o
 .text.queues1_setup
                0x00000000       0x30 build/obj/testqueues.o
 .text.thread1  0x00000000       0x20 build/obj/testqueues.o
 .rodata        0x00000000       0x38 build/obj/testqueues.o
 .text.queues1_execute
                0x00000000      0x310 build/obj/testqueues.o
 .rodata.testqueues1
                0x00000000       0x10 build/obj/testqueues.o
 .text.queues2_setup
                0x00000000       0x30 build/obj/testqueues.o
 .text.thread2  0x00000000       0x20 build/obj/testqueues.o
 .text.queues2_execute
                0x00000000      0x2b0 build/obj/testqueues.o
 .rodata.testqueues2
                0x00000000       0x10 build/obj/testqueues.o
 .rodata.patternqueues
                0x00000000        0xc build/obj/testqueues.o
 .rodata.__func__.5842
                0x00000000        0xc build/obj/testqueues.o
 .debug_info    0x00000000      0xd49 build/obj/testqueues.o
 .debug_abbrev  0x00000000      0x323 build/obj/testqueues.o
 .debug_aranges
                0x00000000       0xc0 build/obj/testqueues.o
 .debug_ranges  0x00000000       0xb0 build/obj/testqueues.o
 .debug_line    0x00000000      0x648 build/obj/testqueues.o
 .debug_str     0x00000000      0x847 build/obj/testqueues.o
 .comment       0x00000000       0x71 build/obj/testqueues.o
 .ARM.attributes
                0x00000000       0x33 build/obj/testqueues.o
 .debug_frame   0x00000000      0x29c build/obj/testqueues.o
 .text          0x00000000        0x0 build/obj/testsys.o
 .data          0x00000000        0x0 build/obj/testsys.o
 .bss           0x00000000        0x0 build/obj/testsys.o
 .text.port_get_irq_status
                0x00000000       0x20 build/obj/testsys.o
 .text.port_irq_enabled
                0x00000000       0x20 build/obj/testsys.o
 .text.port_lock
                0x00000000       0x20 build/obj/testsys.o
 .text.port_unlock
                0x00000000       0x20 build/obj/testsys.o
 .text.port_lock_from_isr
                0x00000000       0x10 build/obj/testsys.o
 .text.port_unlock_from_isr
                0x00000000       0x10 build/obj/testsys.o
 .text.port_disable
                0x00000000       0x10 build/obj/testsys.o
 .text.port_suspend
                0x00000000       0x20 build/obj/testsys.o
 .text.port_enable
                0x00000000       0x20 build/obj/testsys.o
 .text.chSysDisable
                0x00000000       0x10 build/obj/testsys.o
 .text.chSysSuspend
                0x00000000       0x10 build/obj/testsys.o
 .text.chSysEnable
                0x00000000       0x10 build/obj/testsys.o
 .text.chSysLock
                0x00000000       0x20 build/obj/testsys.o
 .text.chSysUnlock
                0x00000000       0x40 build/obj/testsys.o
 .text.chSysLockFromISR
                0x00000000       0x20 build/obj/testsys.o
 .text.chSysUnlockFromISR
                0x00000000       0x20 build/obj/testsys.o
 .text.chSysUnconditionalLock
                0x00000000       0x20 build/obj/testsys.o
 .text.chSysUnconditionalUnlock
                0x00000000       0x30 build/obj/testsys.o
 .text.chVTObjectInit
                0x00000000       0x20 build/obj/testsys.o
 .text.chVTIsArmedI
                0x00000000       0x30 build/obj/testsys.o
 .text.chVTIsArmed
                0x00000000       0x30 build/obj/testsys.o
 .text.chVTResetI
                0x00000000       0x20 build/obj/testsys.o
 .text.chVTSetI
                0x00000000       0x30 build/obj/testsys.o
 .text.chVTSet  0x00000000       0x30 build/obj/testsys.o
 .text.vtcb     0x00000000       0x30 build/obj/testsys.o
 .text.sys1_execute
                0x00000000       0x90 build/obj/testsys.o
 .rodata        0x00000000       0x48 build/obj/testsys.o
 .rodata.testsys1
                0x00000000       0x10 build/obj/testsys.o
 .text.sys2_execute
                0x00000000       0x20 build/obj/testsys.o
 .rodata.testsys2
                0x00000000       0x10 build/obj/testsys.o
 .text.sys3_execute
                0x00000000      0x100 build/obj/testsys.o
 .rodata.testsys3
                0x00000000       0x10 build/obj/testsys.o
 .rodata.patternsys
                0x00000000       0x10 build/obj/testsys.o
 .rodata.__func__.5842
                0x00000000        0xc build/obj/testsys.o
 .debug_info    0x00000000      0xd12 build/obj/testsys.o
 .debug_abbrev  0x00000000      0x32a build/obj/testsys.o
 .debug_aranges
                0x00000000       0xf8 build/obj/testsys.o
 .debug_ranges  0x00000000       0xe8 build/obj/testsys.o
 .debug_line    0x00000000      0x4c8 build/obj/testsys.o
 .debug_str     0x00000000      0x879 build/obj/testsys.o
 .comment       0x00000000       0x71 build/obj/testsys.o
 .ARM.attributes
                0x00000000       0x33 build/obj/testsys.o
 .debug_frame   0x00000000      0x340 build/obj/testsys.o
 .text          0x00000000        0x0 build/obj/testbmk.o
 .data          0x00000000        0x0 build/obj/testbmk.o
 .bss           0x00000000        0x0 build/obj/testbmk.o
 .text.port_lock
                0x00000000       0x20 build/obj/testbmk.o
 .text.port_unlock
                0x00000000       0x20 build/obj/testbmk.o
 .text.chSysLock
                0x00000000       0x20 build/obj/testbmk.o
 .text.chSysUnlock
                0x00000000       0x40 build/obj/testbmk.o
 .text.chThdGetSelfX
                0x00000000       0x20 build/obj/testbmk.o
 .text.chThdGetPriorityX
                0x00000000       0x10 build/obj/testbmk.o
 .text.chThdShouldTerminateX
                0x00000000       0x20 build/obj/testbmk.o
 .text.chMsgGet
                0x00000000       0x20 build/obj/testbmk.o
 .text.chIQGet  0x00000000       0x20 build/obj/testbmk.o
 .bss.sem1      0x00000000        0xc build/obj/testbmk.o
 .bss.mtx1      0x00000000       0x10 build/obj/testbmk.o
 .text.thread1  0x00000000       0x20 build/obj/testbmk.o
 .text.thread2  0x00000000       0x30 build/obj/testbmk.o
 .text.msg_loop_test
                0x00000000       0x50 build/obj/testbmk.o
 .rodata        0x00000000      0x2c8 build/obj/testbmk.o
 .text.bmk1_execute
                0x00000000       0x80 build/obj/testbmk.o
 .rodata.testbmk1
                0x00000000       0x10 build/obj/testbmk.o
 .text.bmk2_execute
                0x00000000       0x80 build/obj/testbmk.o
 .rodata.testbmk2
                0x00000000       0x10 build/obj/testbmk.o
 .text.bmk3_execute
                0x00000000      0x110 build/obj/testbmk.o
 .rodata.testbmk3
                0x00000000       0x10 build/obj/testbmk.o
 .text.thread4  0x00000000       0x30 build/obj/testbmk.o
 .text.bmk4_execute
                0x00000000       0xd0 build/obj/testbmk.o
 .rodata.testbmk4
                0x00000000       0x10 build/obj/testbmk.o
 .text.bmk5_execute
                0x00000000       0x80 build/obj/testbmk.o
 .rodata.testbmk5
                0x00000000       0x10 build/obj/testbmk.o
 .text.bmk6_execute
                0x00000000       0x80 build/obj/testbmk.o
 .rodata.testbmk6
                0x00000000       0x10 build/obj/testbmk.o
 .text.thread3  0x00000000       0x30 build/obj/testbmk.o
 .text.bmk7_setup
                0x00000000       0x20 build/obj/testbmk.o
 .text.bmk7_execute
                0x00000000      0x150 build/obj/testbmk.o
 .rodata.testbmk7
                0x00000000       0x10 build/obj/testbmk.o
 .text.thread8  0x00000000       0x40 build/obj/testbmk.o
 .text.bmk8_execute
                0x00000000      0x100 build/obj/testbmk.o
 .rodata.testbmk8
                0x00000000       0x10 build/obj/testbmk.o
 .text.bmk9_execute
                0x00000000       0xb0 build/obj/testbmk.o
 .rodata.testbmk9
                0x00000000       0x10 build/obj/testbmk.o
 .text.tmo      0x00000000       0x20 build/obj/testbmk.o
 .text.bmk10_execute
                0x00000000       0x90 build/obj/testbmk.o
 .rodata.testbmk10
                0x00000000       0x10 build/obj/testbmk.o
 .text.bmk11_setup
                0x00000000       0x20 build/obj/testbmk.o
 .text.bmk11_execute
                0x00000000       0x90 build/obj/testbmk.o
 .rodata.testbmk11
                0x00000000       0x10 build/obj/testbmk.o
 .text.bmk12_setup
                0x00000000       0x10 build/obj/testbmk.o
 .text.bmk12_execute
                0x00000000       0x90 build/obj/testbmk.o
 .rodata.testbmk12
                0x00000000       0x10 build/obj/testbmk.o
 .text.bmk13_execute
                0x00000000       0xf0 build/obj/testbmk.o
 .rodata.testbmk13
                0x00000000       0x10 build/obj/testbmk.o
 .rodata.patternbmk
                0x00000000       0x38 build/obj/testbmk.o
 .rodata.__func__.5842
                0x00000000        0xc build/obj/testbmk.o
 .bss.iq.6683   0x00000000       0x24 build/obj/testbmk.o
 .bss.ib.6682   0x00000000       0x10 build/obj/testbmk.o
 .bss.vt1.6693  0x00000000       0x14 build/obj/testbmk.o
 .bss.vt2.6694  0x00000000       0x14 build/obj/testbmk.o
 .debug_info    0x00000000      0xf5c build/obj/testbmk.o
 .debug_abbrev  0x00000000      0x344 build/obj/testbmk.o
 .debug_aranges
                0x00000000      0x118 build/obj/testbmk.o
 .debug_ranges  0x00000000      0x108 build/obj/testbmk.o
 .debug_line    0x00000000      0x6c2 build/obj/testbmk.o
 .debug_str     0x00000000      0x92e build/obj/testbmk.o
 .comment       0x00000000       0x71 build/obj/testbmk.o
 .ARM.attributes
                0x00000000       0x33 build/obj/testbmk.o
 .debug_frame   0x00000000      0x3f4 build/obj/testbmk.o
 .text          0x00000000        0x0 build/obj/lwipthread.o
 .data          0x00000000        0x0 build/obj/lwipthread.o
 .bss           0x00000000        0x0 build/obj/lwipthread.o
 .text          0x00000000        0x0 build/obj/sys_arch.o
 .data          0x00000000        0x0 build/obj/sys_arch.o
 .bss           0x00000000        0x0 build/obj/sys_arch.o
 .text.osalSysRestoreStatusX
                0x00000000       0x20 build/obj/sys_arch.o
 .text.sys_sem_signal_S
                0x00000000       0x20 build/obj/sys_arch.o
 .text.sys_arch_protect
                0x00000000       0x10 build/obj/sys_arch.o
 .text.sys_arch_unprotect
                0x00000000       0x20 build/obj/sys_arch.o
 .text.sys_now  0x00000000       0x20 build/obj/sys_arch.o
 .text          0x00000000        0x0 build/obj/etharp.o
 .data          0x00000000        0x0 build/obj/etharp.o
 .bss           0x00000000        0x0 build/obj/etharp.o
 .text.etharp_cleanup_netif
                0x00000000       0x60 build/obj/etharp.o
 .text.etharp_find_addr
                0x00000000       0xa0 build/obj/etharp.o
 .text          0x00000000        0x0 build/obj/dhcp.o
 .data          0x00000000        0x0 build/obj/dhcp.o
 .bss           0x00000000        0x0 build/obj/dhcp.o
 .debug_info    0x00000000      0x7a6 build/obj/dhcp.o
 .debug_abbrev  0x00000000      0x150 build/obj/dhcp.o
 .debug_aranges
                0x00000000       0x18 build/obj/dhcp.o
 .debug_line    0x00000000      0x16d build/obj/dhcp.o
 .debug_str     0x00000000      0x642 build/obj/dhcp.o
 .comment       0x00000000       0x71 build/obj/dhcp.o
 .ARM.attributes
                0x00000000       0x33 build/obj/dhcp.o
 .text          0x00000000        0x0 build/obj/dns.o
 .data          0x00000000        0x0 build/obj/dns.o
 .bss           0x00000000        0x0 build/obj/dns.o
 .debug_info    0x00000000      0x7a6 build/obj/dns.o
 .debug_abbrev  0x00000000      0x150 build/obj/dns.o
 .debug_aranges
                0x00000000       0x18 build/obj/dns.o
 .debug_line    0x00000000      0x16d build/obj/dns.o
 .debug_str     0x00000000      0x641 build/obj/dns.o
 .comment       0x00000000       0x71 build/obj/dns.o
 .ARM.attributes
                0x00000000       0x33 build/obj/dns.o
 .text          0x00000000        0x0 build/obj/init.o
 .data          0x00000000        0x0 build/obj/init.o
 .bss           0x00000000        0x0 build/obj/init.o
 .text          0x00000000        0x0 build/obj/mem.o
 .data          0x00000000        0x0 build/obj/mem.o
 .bss           0x00000000        0x0 build/obj/mem.o
 .text.mem_calloc
                0x00000000       0x50 build/obj/mem.o
 .text          0x00000000        0x0 build/obj/memp.o
 .data          0x00000000        0x0 build/obj/memp.o
 .bss           0x00000000        0x0 build/obj/memp.o
 .text          0x00000000        0x0 build/obj/netif.o
 .data          0x00000000        0x0 build/obj/netif.o
 .bss           0x00000000        0x0 build/obj/netif.o
 .text.netif_remove
                0x00000000       0x90 build/obj/netif.o
 .text.netif_find
                0x00000000       0x70 build/obj/netif.o
 .text.netif_set_down
                0x00000000       0x50 build/obj/netif.o
 .text          0x00000000        0x0 build/obj/pbuf.o
 .data          0x00000000        0x0 build/obj/pbuf.o
 .bss           0x00000000        0x0 build/obj/pbuf.o
 .text.pbuf_chain
                0x00000000       0x20 build/obj/pbuf.o
 .text.pbuf_dechain
                0x00000000       0x90 build/obj/pbuf.o
 .text.pbuf_take
                0x00000000       0xe0 build/obj/pbuf.o
 .text.pbuf_coalesce
                0x00000000       0x70 build/obj/pbuf.o
 .text.pbuf_get_at
                0x00000000       0x60 build/obj/pbuf.o
 .text.pbuf_memcmp
                0x00000000       0xa0 build/obj/pbuf.o
 .text.pbuf_memfind
                0x00000000       0x70 build/obj/pbuf.o
 .text.pbuf_strstr
                0x00000000       0x60 build/obj/pbuf.o
 .text          0x00000000        0x0 build/obj/raw.o
 .data          0x00000000        0x0 build/obj/raw.o
 .bss           0x00000000        0x0 build/obj/raw.o
 .text.osalSysHalt
                0x00000000       0x20 build/obj/raw.o
 .text.raw_connect
                0x00000000       0x30 build/obj/raw.o
 .rodata        0x00000000       0x28 build/obj/raw.o
 .text.raw_sendto
                0x00000000       0xe0 build/obj/raw.o
 .text.raw_send
                0x00000000       0x30 build/obj/raw.o
 .text          0x00000000        0x0 build/obj/stats.o
 .data          0x00000000        0x0 build/obj/stats.o
 .bss           0x00000000        0x0 build/obj/stats.o
 .text          0x00000000        0x0 build/obj/sys.o
 .data          0x00000000        0x0 build/obj/sys.o
 .bss           0x00000000        0x0 build/obj/sys.o
 .text.sys_msleep
                0x00000000       0x50 build/obj/sys.o
 .debug_info    0x00000000      0x83f build/obj/sys.o
 .debug_abbrev  0x00000000      0x1a4 build/obj/sys.o
 .debug_aranges
                0x00000000       0x20 build/obj/sys.o
 .debug_ranges  0x00000000       0x10 build/obj/sys.o
 .debug_line    0x00000000      0x21e build/obj/sys.o
 .debug_str     0x00000000      0x683 build/obj/sys.o
 .comment       0x00000000       0x71 build/obj/sys.o
 .ARM.attributes
                0x00000000       0x33 build/obj/sys.o
 .debug_frame   0x00000000       0x30 build/obj/sys.o
 .text          0x00000000        0x0 build/obj/tcp.o
 .data          0x00000000        0x0 build/obj/tcp.o
 .bss           0x00000000        0x0 build/obj/tcp.o
 .rodata.tcp_state_str
                0x00000000       0x2c build/obj/tcp.o
 .text.tcp_connect
                0x00000000      0x1c0 build/obj/tcp.o
 .text.tcp_setprio
                0x00000000       0x20 build/obj/tcp.o
 .text.tcp_debug_state_str
                0x00000000       0x30 build/obj/tcp.o
 .text          0x00000000        0x0 build/obj/tcp_in.o
 .data          0x00000000        0x0 build/obj/tcp_in.o
 .bss           0x00000000        0x0 build/obj/tcp_in.o
 .text          0x00000000        0x0 build/obj/tcp_out.o
 .data          0x00000000        0x0 build/obj/tcp_out.o
 .bss           0x00000000        0x0 build/obj/tcp_out.o
 .text          0x00000000        0x0 build/obj/udp.o
 .data          0x00000000        0x0 build/obj/udp.o
 .bss           0x00000000        0x0 build/obj/udp.o
 .text.udp_send
                0x00000000       0x30 build/obj/udp.o
 .text.udp_sendto
                0x00000000       0x50 build/obj/udp.o
 .text.udp_sendto_if
                0x00000000      0x190 build/obj/udp.o
 .text.udp_connect
                0x00000000       0xa0 build/obj/udp.o
 .text.udp_disconnect
                0x00000000       0x30 build/obj/udp.o
 .text          0x00000000        0x0 build/obj/autoip.o
 .data          0x00000000        0x0 build/obj/autoip.o
 .bss           0x00000000        0x0 build/obj/autoip.o
 .debug_info    0x00000000      0x7a6 build/obj/autoip.o
 .debug_abbrev  0x00000000      0x150 build/obj/autoip.o
 .debug_aranges
                0x00000000       0x18 build/obj/autoip.o
 .debug_line    0x00000000      0x16d build/obj/autoip.o
 .debug_str     0x00000000      0x649 build/obj/autoip.o
 .comment       0x00000000       0x71 build/obj/autoip.o
 .ARM.attributes
                0x00000000       0x33 build/obj/autoip.o
 .text          0x00000000        0x0 build/obj/icmp.o
 .data          0x00000000        0x0 build/obj/icmp.o
 .bss           0x00000000        0x0 build/obj/icmp.o
 .text          0x00000000        0x0 build/obj/igmp.o
 .data          0x00000000        0x0 build/obj/igmp.o
 .bss           0x00000000        0x0 build/obj/igmp.o
 .debug_info    0x00000000      0x7a6 build/obj/igmp.o
 .debug_abbrev  0x00000000      0x150 build/obj/igmp.o
 .debug_aranges
                0x00000000       0x18 build/obj/igmp.o
 .debug_line    0x00000000      0x16d build/obj/igmp.o
 .debug_str     0x00000000      0x647 build/obj/igmp.o
 .comment       0x00000000       0x71 build/obj/igmp.o
 .ARM.attributes
                0x00000000       0x33 build/obj/igmp.o
 .text          0x00000000        0x0 build/obj/inet.o
 .data          0x00000000        0x0 build/obj/inet.o
 .bss           0x00000000        0x0 build/obj/inet.o
 .debug_info    0x00000000      0x7a6 build/obj/inet.o
 .debug_abbrev  0x00000000      0x150 build/obj/inet.o
 .debug_aranges
                0x00000000       0x18 build/obj/inet.o
 .debug_line    0x00000000      0x16d build/obj/inet.o
 .debug_str     0x00000000      0x647 build/obj/inet.o
 .comment       0x00000000       0x71 build/obj/inet.o
 .ARM.attributes
                0x00000000       0x33 build/obj/inet.o
 .text          0x00000000        0x0 build/obj/inet_chksum.o
 .data          0x00000000        0x0 build/obj/inet_chksum.o
 .bss           0x00000000        0x0 build/obj/inet_chksum.o
 .text.osalSysHalt
                0x00000000       0x20 build/obj/inet_chksum.o
 .rodata        0x00000000        0xc build/obj/inet_chksum.o
 .text.inet_chksum_pseudo_partial
                0x00000000      0x140 build/obj/inet_chksum.o
 .text          0x00000000        0x0 build/obj/ip.o
 .data          0x00000000        0x0 build/obj/ip.o
 .bss           0x00000000        0x0 build/obj/ip.o
 .text          0x00000000        0x0 build/obj/ip_addr.o
 .data          0x00000000        0x0 build/obj/ip_addr.o
 .bss           0x00000000        0x0 build/obj/ip_addr.o
 .text.osalSysHalt
                0x00000000       0x20 build/obj/ip_addr.o
 .rodata.ip_addr_any
                0x00000000        0x4 build/obj/ip_addr.o
 .rodata.ip_addr_broadcast
                0x00000000        0x4 build/obj/ip_addr.o
 .text.ip4_addr_netmask_valid
                0x00000000       0x60 build/obj/ip_addr.o
 .text.ipaddr_addr
                0x00000000       0x30 build/obj/ip_addr.o
 .rodata        0x00000000        0xc build/obj/ip_addr.o
 .text.ipaddr_aton
                0x00000000      0x240 build/obj/ip_addr.o
 .text.ipaddr_ntoa
                0x00000000       0x20 build/obj/ip_addr.o
 .text.ipaddr_ntoa_r
                0x00000000      0x100 build/obj/ip_addr.o
 .bss.str.8151  0x00000000       0x10 build/obj/ip_addr.o
 .text          0x00000000        0x0 build/obj/ip_frag.o
 .data          0x00000000        0x0 build/obj/ip_frag.o
 .bss           0x00000000        0x0 build/obj/ip_frag.o
 .text          0x00000000        0x0 build/obj/def.o
 .data          0x00000000        0x0 build/obj/def.o
 .bss           0x00000000        0x0 build/obj/def.o
 .text          0x00000000        0x0 build/obj/timers.o
 .data          0x00000000        0x0 build/obj/timers.o
 .bss           0x00000000        0x0 build/obj/timers.o
 .text          0x00000000        0x0 build/obj/api_lib.o
 .data          0x00000000        0x0 build/obj/api_lib.o
 .bss           0x00000000        0x0 build/obj/api_lib.o
 .text.netconn_getaddr
                0x00000000       0xa0 build/obj/api_lib.o
 .text.netconn_connect
                0x00000000       0x70 build/obj/api_lib.o
 .text.netconn_disconnect
                0x00000000       0x60 build/obj/api_lib.o
 .text.netconn_recv_tcp_pbuf
                0x00000000       0x40 build/obj/api_lib.o
 .text.netconn_recved
                0x00000000       0x50 build/obj/api_lib.o
 .text.netconn_sendto
                0x00000000       0x50 build/obj/api_lib.o
 .text.netconn_send
                0x00000000       0x60 build/obj/api_lib.o
 .text.netconn_shutdown
                0x00000000       0x50 build/obj/api_lib.o
 .text          0x00000000        0x0 build/obj/api_msg.o
 .data          0x00000000        0x0 build/obj/api_msg.o
 .bss           0x00000000        0x0 build/obj/api_msg.o
 .text.do_connected
                0x00000000       0xf0 build/obj/api_msg.o
 .text.do_connect
                0x00000000      0x150 build/obj/api_msg.o
 .text.do_disconnect
                0x00000000       0x50 build/obj/api_msg.o
 .text.do_send  0x00000000      0x110 build/obj/api_msg.o
 .text.do_getaddr
                0x00000000      0x100 build/obj/api_msg.o
 .text          0x00000000        0x0 build/obj/err.o
 .data          0x00000000        0x0 build/obj/err.o
 .bss           0x00000000        0x0 build/obj/err.o
 .debug_info    0x00000000      0x7a6 build/obj/err.o
 .debug_abbrev  0x00000000      0x150 build/obj/err.o
 .debug_aranges
                0x00000000       0x18 build/obj/err.o
 .debug_line    0x00000000      0x16d build/obj/err.o
 .debug_str     0x00000000      0x640 build/obj/err.o
 .comment       0x00000000       0x71 build/obj/err.o
 .ARM.attributes
                0x00000000       0x33 build/obj/err.o
 .text          0x00000000        0x0 build/obj/netbuf.o
 .data          0x00000000        0x0 build/obj/netbuf.o
 .bss           0x00000000        0x0 build/obj/netbuf.o
 .text.netbuf_new
                0x00000000       0x40 build/obj/netbuf.o
 .text.netbuf_alloc
                0x00000000       0x80 build/obj/netbuf.o
 .text.netbuf_free
                0x00000000       0x40 build/obj/netbuf.o
 .text.netbuf_ref
                0x00000000       0x90 build/obj/netbuf.o
 .text.netbuf_chain
                0x00000000       0x60 build/obj/netbuf.o
 .text.netbuf_next
                0x00000000       0x50 build/obj/netbuf.o
 .text.netbuf_first
                0x00000000       0x30 build/obj/netbuf.o
 .text          0x00000000        0x0 build/obj/netdb.o
 .data          0x00000000        0x0 build/obj/netdb.o
 .bss           0x00000000        0x0 build/obj/netdb.o
 .debug_info    0x00000000      0x7a6 build/obj/netdb.o
 .debug_abbrev  0x00000000      0x150 build/obj/netdb.o
 .debug_aranges
                0x00000000       0x18 build/obj/netdb.o
 .debug_line    0x00000000      0x16d build/obj/netdb.o
 .debug_str     0x00000000      0x642 build/obj/netdb.o
 .comment       0x00000000       0x71 build/obj/netdb.o
 .ARM.attributes
                0x00000000       0x33 build/obj/netdb.o
 .text          0x00000000        0x0 build/obj/netifapi.o
 .data          0x00000000        0x0 build/obj/netifapi.o
 .bss           0x00000000        0x0 build/obj/netifapi.o
 .debug_info    0x00000000      0x7a6 build/obj/netifapi.o
 .debug_abbrev  0x00000000      0x150 build/obj/netifapi.o
 .debug_aranges
                0x00000000       0x18 build/obj/netifapi.o
 .debug_line    0x00000000      0x16d build/obj/netifapi.o
 .debug_str     0x00000000      0x645 build/obj/netifapi.o
 .comment       0x00000000       0x71 build/obj/netifapi.o
 .ARM.attributes
                0x00000000       0x33 build/obj/netifapi.o
 .text          0x00000000        0x0 build/obj/sockets.o
 .data          0x00000000        0x0 build/obj/sockets.o
 .bss           0x00000000        0x0 build/obj/sockets.o
 .text.osalSysHalt
                0x00000000       0x20 build/obj/sockets.o
 .bss.sockets   0x00000000       0x60 build/obj/sockets.o
 .bss.select_cb_list
                0x00000000        0x4 build/obj/sockets.o
 .bss.select_cb_ctr
                0x00000000        0x4 build/obj/sockets.o
 .rodata.err_to_errno_table
                0x00000000       0x40 build/obj/sockets.o
 .text.get_socket
                0x00000000       0x50 build/obj/sockets.o
 .text.tryget_socket
                0x00000000       0x50 build/obj/sockets.o
 .text.alloc_socket
                0x00000000      0x100 build/obj/sockets.o
 .text.free_socket
                0x00000000       0x50 build/obj/sockets.o
 .rodata        0x00000000      0x1f8 build/obj/sockets.o
 .text.lwip_accept
                0x00000000      0x210 build/obj/sockets.o
 .text.lwip_bind
                0x00000000       0xc0 build/obj/sockets.o
 .text.lwip_close
                0x00000000       0x70 build/obj/sockets.o
 .text.lwip_connect
                0x00000000       0xe0 build/obj/sockets.o
 .text.lwip_listen
                0x00000000       0xa0 build/obj/sockets.o
 .text.lwip_recvfrom
                0x00000000      0x310 build/obj/sockets.o
 .text.lwip_read
                0x00000000       0x30 build/obj/sockets.o
 .text.lwip_recv
                0x00000000       0x30 build/obj/sockets.o
 .text.lwip_send
                0x00000000       0xd0 build/obj/sockets.o
 .text.lwip_sendto
                0x00000000      0x140 build/obj/sockets.o
 .text.lwip_socket
                0x00000000       0xb0 build/obj/sockets.o
 .text.lwip_write
                0x00000000       0x30 build/obj/sockets.o
 .text.lwip_selscan
                0x00000000      0x200 build/obj/sockets.o
 .text.lwip_select
                0x00000000      0x370 build/obj/sockets.o
 .text.event_callback
                0x00000000      0x1e0 build/obj/sockets.o
 .text.lwip_shutdown
                0x00000000       0xd0 build/obj/sockets.o
 .text.lwip_getaddrname
                0x00000000       0x90 build/obj/sockets.o
 .text.lwip_getpeername
                0x00000000       0x30 build/obj/sockets.o
 .text.lwip_getsockname
                0x00000000       0x30 build/obj/sockets.o
 .text.lwip_getsockopt
                0x00000000      0x1b0 build/obj/sockets.o
 .text.lwip_getsockopt_internal
                0x00000000      0x1e0 build/obj/sockets.o
 .text.lwip_setsockopt
                0x00000000      0x180 build/obj/sockets.o
 .text.lwip_setsockopt_internal
                0x00000000      0x1a0 build/obj/sockets.o
 .text.lwip_ioctl
                0x00000000       0x90 build/obj/sockets.o
 .text.lwip_fcntl
                0x00000000       0xa0 build/obj/sockets.o
 .text          0x00000000        0x0 build/obj/tcpip.o
 .data          0x00000000        0x0 build/obj/tcpip.o
 .bss           0x00000000        0x0 build/obj/tcpip.o
 .text.tcpip_timeout
                0x00000000       0x60 build/obj/tcpip.o
 .text.tcpip_untimeout
                0x00000000       0x60 build/obj/tcpip.o
 .text.tcpip_callbackmsg_new
                0x00000000       0x40 build/obj/tcpip.o
 .text.tcpip_callbackmsg_delete
                0x00000000       0x20 build/obj/tcpip.o
 .text.tcpip_trycallback
                0x00000000       0x30 build/obj/tcpip.o
 .text.pbuf_free_int
                0x00000000       0x20 build/obj/tcpip.o
 .text.pbuf_free_callback
                0x00000000       0x20 build/obj/tcpip.o
 .text.mem_free_callback
                0x00000000       0x20 build/obj/tcpip.o
 .text          0x00000000        0x0 build/obj/evtimer.o
 .data          0x00000000        0x0 build/obj/evtimer.o
 .bss           0x00000000        0x0 build/obj/evtimer.o
 .text          0x00000000        0x0 build/obj/main.o
 .data          0x00000000        0x0 build/obj/main.o
 .bss           0x00000000        0x0 build/obj/main.o
 .text          0x00000000        0x0 build/obj/web.o
 .data          0x00000000        0x0 build/obj/web.o
 .bss           0x00000000        0x0 build/obj/web.o
 .data          0x00000000        0x0 c:/emtechesdk/gcc/bin/../lib/gcc/arm-none-eabi/4.8.3/armv7e-m\libgcc.a(_arm_addsubdf3.o)
 .bss           0x00000000        0x0 c:/emtechesdk/gcc/bin/../lib/gcc/arm-none-eabi/4.8.3/armv7e-m\libgcc.a(_arm_addsubdf3.o)
 .data          0x00000000        0x0 c:/emtechesdk/gcc/bin/../lib/gcc/arm-none-eabi/4.8.3/armv7e-m\libgcc.a(_arm_muldivdf3.o)
 .bss           0x00000000        0x0 c:/emtechesdk/gcc/bin/../lib/gcc/arm-none-eabi/4.8.3/armv7e-m\libgcc.a(_arm_muldivdf3.o)
 .data          0x00000000        0x0 c:/emtechesdk/gcc/bin/../lib/gcc/arm-none-eabi/4.8.3/armv7e-m\libgcc.a(_arm_fixdfsi.o)
 .bss           0x00000000        0x0 c:/emtechesdk/gcc/bin/../lib/gcc/arm-none-eabi/4.8.3/armv7e-m\libgcc.a(_arm_fixdfsi.o)
 .data          0x00000000        0x0 c:/emtechesdk/gcc/bin/../lib/gcc/arm-none-eabi/4.8.3/armv7e-m\libgcc.a(_arm_truncdfsf2.o)
 .bss           0x00000000        0x0 c:/emtechesdk/gcc/bin/../lib/gcc/arm-none-eabi/4.8.3/armv7e-m\libgcc.a(_arm_truncdfsf2.o)
 .data          0x00000000        0x0 c:/emtechesdk/gcc/bin/../lib/gcc/arm-none-eabi/4.8.3/armv7e-m\libgcc.a(_arm_cmpsf2.o)
 .bss           0x00000000        0x0 c:/emtechesdk/gcc/bin/../lib/gcc/arm-none-eabi/4.8.3/armv7e-m\libgcc.a(_arm_cmpsf2.o)
 .text          0x00000000        0x0 c:/emtechesdk/gcc/bin/../lib/gcc/arm-none-eabi/4.8.3/../../../../arm-none-eabi/lib/armv7e-m\libg.a(lib_a-memcmp.o)
 .data          0x00000000        0x0 c:/emtechesdk/gcc/bin/../lib/gcc/arm-none-eabi/4.8.3/../../../../arm-none-eabi/lib/armv7e-m\libg.a(lib_a-memcmp.o)
 .bss           0x00000000        0x0 c:/emtechesdk/gcc/bin/../lib/gcc/arm-none-eabi/4.8.3/../../../../arm-none-eabi/lib/armv7e-m\libg.a(lib_a-memcmp.o)
 .data          0x00000000        0x0 c:/emtechesdk/gcc/bin/../lib/gcc/arm-none-eabi/4.8.3/../../../../arm-none-eabi/lib/armv7e-m\libg.a(lib_a-memcpy.o)
 .bss           0x00000000        0x0 c:/emtechesdk/gcc/bin/../lib/gcc/arm-none-eabi/4.8.3/../../../../arm-none-eabi/lib/armv7e-m\libg.a(lib_a-memcpy.o)
 .text          0x00000000        0x0 c:/emtechesdk/gcc/bin/../lib/gcc/arm-none-eabi/4.8.3/../../../../arm-none-eabi/lib/armv7e-m\libg.a(lib_a-memset.o)
 .data          0x00000000        0x0 c:/emtechesdk/gcc/bin/../lib/gcc/arm-none-eabi/4.8.3/../../../../arm-none-eabi/lib/armv7e-m\libg.a(lib_a-memset.o)
 .bss           0x00000000        0x0 c:/emtechesdk/gcc/bin/../lib/gcc/arm-none-eabi/4.8.3/../../../../arm-none-eabi/lib/armv7e-m\libg.a(lib_a-memset.o)
 .text          0x00000000        0x0 c:/emtechesdk/gcc/bin/../lib/gcc/arm-none-eabi/4.8.3/../../../../arm-none-eabi/lib/armv7e-m\libg.a(lib_a-strlen.o)
 .data          0x00000000        0x0 c:/emtechesdk/gcc/bin/../lib/gcc/arm-none-eabi/4.8.3/../../../../arm-none-eabi/lib/armv7e-m\libg.a(lib_a-strlen.o)
 .bss           0x00000000        0x0 c:/emtechesdk/gcc/bin/../lib/gcc/arm-none-eabi/4.8.3/../../../../arm-none-eabi/lib/armv7e-m\libg.a(lib_a-strlen.o)
 .text.strlen   0x00000000       0x60 c:/emtechesdk/gcc/bin/../lib/gcc/arm-none-eabi/4.8.3/../../../../arm-none-eabi/lib/armv7e-m\libg.a(lib_a-strlen.o)
 .ARM.attributes
                0x00000000       0x2e c:/emtechesdk/gcc/bin/../lib/gcc/arm-none-eabi/4.8.3/../../../../arm-none-eabi/lib/armv7e-m\libg.a(lib_a-strlen.o)
 .debug_frame   0x00000000       0x20 c:/emtechesdk/gcc/bin/../lib/gcc/arm-none-eabi/4.8.3/../../../../arm-none-eabi/lib/armv7e-m\libg.a(lib_a-strlen.o)
 .text          0x00000000        0x0 c:/emtechesdk/gcc/bin/../lib/gcc/arm-none-eabi/4.8.3/../../../../arm-none-eabi/lib/armv7e-m\libg.a(lib_a-strncmp.o)
 .data          0x00000000        0x0 c:/emtechesdk/gcc/bin/../lib/gcc/arm-none-eabi/4.8.3/../../../../arm-none-eabi/lib/armv7e-m\libg.a(lib_a-strncmp.o)
 .bss           0x00000000        0x0 c:/emtechesdk/gcc/bin/../lib/gcc/arm-none-eabi/4.8.3/../../../../arm-none-eabi/lib/armv7e-m\libg.a(lib_a-strncmp.o)

Memory Configuration

Name             Origin             Length             Attributes
flash            0x08000000         0x00100000
ram0             0x20000000         0x00020000
ram1             0x20000000         0x0001c000
ram2             0x2001c000         0x00004000
ram3             0x00000000         0x00000000
ram4             0x10000000         0x00010000
ram5             0x40024000         0x00001000
ram6             0x00000000         0x00000000
ram7             0x00000000         0x00000000
*default*        0x00000000         0xffffffff

Linker script and memory map

LOAD build/obj/crt0_v7m.o
LOAD build/obj/chcoreasm_v7m.o
LOAD build/obj/crt1.o
LOAD build/obj/vectors.o
LOAD build/obj/chsys.o
LOAD build/obj/chdebug.o
LOAD build/obj/chvt.o
LOAD build/obj/chschd.o
LOAD build/obj/chthreads.o
LOAD build/obj/chtm.o
LOAD build/obj/chstats.o
LOAD build/obj/chdynamic.o
LOAD build/obj/chregistry.o
LOAD build/obj/chsem.o
LOAD build/obj/chmtx.o
LOAD build/obj/chcond.o
LOAD build/obj/chevents.o
LOAD build/obj/chmsg.o
LOAD build/obj/chmboxes.o
LOAD build/obj/chqueues.o
LOAD build/obj/chmemcore.o
LOAD build/obj/chheap.o
LOAD build/obj/chmempools.o
LOAD build/obj/chcore.o
LOAD build/obj/chcore_v7m.o
LOAD build/obj/osal.o
LOAD build/obj/hal.o
LOAD build/obj/hal_queues.o
LOAD build/obj/hal_mmcsd.o
LOAD build/obj/adc.o
LOAD build/obj/can.o
LOAD build/obj/dac.o
LOAD build/obj/ext.o
LOAD build/obj/gpt.o
LOAD build/obj/i2c.o
LOAD build/obj/i2s.o
LOAD build/obj/icu.o
LOAD build/obj/mac.o
LOAD build/obj/mmc_spi.o
LOAD build/obj/pal.o
LOAD build/obj/pwm.o
LOAD build/obj/rtc.o
LOAD build/obj/sdc.o
LOAD build/obj/serial.o
LOAD build/obj/serial_usb.o
LOAD build/obj/spi.o
LOAD build/obj/st.o
LOAD build/obj/uart.o
LOAD build/obj/usb.o
LOAD build/obj/chprintf.o
LOAD build/obj/nvic.o
LOAD build/obj/stm32_dma.o
LOAD build/obj/hal_lld.o
LOAD build/obj/adc_lld.o
LOAD build/obj/ext_lld_isr.o
LOAD build/obj/can_lld.o
LOAD build/obj/ext_lld.o
LOAD build/obj/mac_lld.o
LOAD build/obj/sdc_lld.o
LOAD build/obj/dac_lld.o
LOAD build/obj/pal_lld.o
LOAD build/obj/i2c_lld.o
LOAD build/obj/usb_lld.o
LOAD build/obj/rtc_lld.o
LOAD build/obj/i2s_lld.o
LOAD build/obj/spi_lld.o
LOAD build/obj/gpt_lld.o
LOAD build/obj/icu_lld.o
LOAD build/obj/pwm_lld.o
LOAD build/obj/st_lld.o
LOAD build/obj/serial_lld.o
LOAD build/obj/uart_lld.o
LOAD build/obj/board.o
LOAD build/obj/test.o
LOAD build/obj/testthd.o
LOAD build/obj/testsem.o
LOAD build/obj/testmtx.o
LOAD build/obj/testmsg.o
LOAD build/obj/testmbox.o
LOAD build/obj/testevt.o
LOAD build/obj/testheap.o
LOAD build/obj/testpools.o
LOAD build/obj/testdyn.o
LOAD build/obj/testqueues.o
LOAD build/obj/testsys.o
LOAD build/obj/testbmk.o
LOAD build/obj/lwipthread.o
LOAD build/obj/sys_arch.o
LOAD build/obj/etharp.o
LOAD build/obj/dhcp.o
LOAD build/obj/dns.o
LOAD build/obj/init.o
LOAD build/obj/mem.o
LOAD build/obj/memp.o
LOAD build/obj/netif.o
LOAD build/obj/pbuf.o
LOAD build/obj/raw.o
LOAD build/obj/stats.o
LOAD build/obj/sys.o
LOAD build/obj/tcp.o
LOAD build/obj/tcp_in.o
LOAD build/obj/tcp_out.o
LOAD build/obj/udp.o
LOAD build/obj/autoip.o
LOAD build/obj/icmp.o
LOAD build/obj/igmp.o
LOAD build/obj/inet.o
LOAD build/obj/inet_chksum.o
LOAD build/obj/ip.o
LOAD build/obj/ip_addr.o
LOAD build/obj/ip_frag.o
LOAD build/obj/def.o
LOAD build/obj/timers.o
LOAD build/obj/api_lib.o
LOAD build/obj/api_msg.o
LOAD build/obj/err.o
LOAD build/obj/netbuf.o
LOAD build/obj/netdb.o
LOAD build/obj/netifapi.o
LOAD build/obj/sockets.o
LOAD build/obj/tcpip.o
LOAD build/obj/evtimer.o
LOAD build/obj/main.o
LOAD build/obj/web.o
                0x20000000                __ram0_start__ = ORIGIN (ram0)
                0x00020000                __ram0_size__ = 0x20000
                0x20020000                __ram0_end__ = (__ram0_start__ + __ram0_size__)
                0x20000000                __ram1_start__ = ORIGIN (ram1)
                0x0001c000                __ram1_size__ = 0x1c000
                0x2001c000                __ram1_end__ = (__ram1_start__ + __ram1_size__)
                0x2001c000                __ram2_start__ = ORIGIN (ram2)
                0x00004000                __ram2_size__ = 0x4000
                0x20020000                __ram2_end__ = (__ram2_start__ + __ram2_size__)
                0x00000000                __ram3_start__ = ORIGIN (ram3)
                0x00000000                __ram3_size__ = 0x0
                0x00000000                __ram3_end__ = (__ram3_start__ + __ram3_size__)
                0x10000000                __ram4_start__ = ORIGIN (ram4)
                0x00010000                __ram4_size__ = 0x10000
                0x10010000                __ram4_end__ = (__ram4_start__ + __ram4_size__)
                0x40024000                __ram5_start__ = ORIGIN (ram5)
                0x00001000                __ram5_size__ = 0x1000
                0x40025000                __ram5_end__ = (__ram5_start__ + __ram5_size__)
                0x00000000                __ram6_start__ = ORIGIN (ram6)
                0x00000000                __ram6_size__ = 0x0
                0x00000000                __ram6_end__ = (__ram6_start__ + __ram6_size__)
                0x00000000                __ram7_start__ = ORIGIN (ram7)
                0x00000000                __ram7_size__ = 0x0
                0x00000000                __ram7_end__ = (__ram7_start__ + __ram7_size__)
                0x00000000                . = 0x0
                0x00000000                _text = .

startup         0x08000000      0x1c0
 *(.vectors)
 .vectors       0x08000000      0x1c0 build/obj/vectors.o
                0x08000000                _vectors

constructors    0x080001c0        0x0
                0x080001c0                PROVIDE (__init_array_start, .)
 *(SORT(.init_array.*))
 *(.init_array)
                0x080001c0                PROVIDE (__init_array_end, .)

destructors     0x080001c0        0x0
                0x080001c0                PROVIDE (__fini_array_start, .)
 *(.fini_array)
 *(SORT(.fini_array.*))
                0x080001c0                PROVIDE (__fini_array_end, .)

.text           0x080001c0    0x18b7c
 *(.text)
 .text          0x080001c0       0xd0 build/obj/crt0_v7m.o
                0x080001c0                Reset_Handler
 .text          0x08000290       0x40 build/obj/chcoreasm_v7m.o
                0x08000290                _port_switch
                0x080002a0                _port_thread_start
                0x080002b8                _port_switch_from_isr
                0x080002cc                _port_exit_from_isr
 .text          0x080002d0      0x370 c:/emtechesdk/gcc/bin/../lib/gcc/arm-none-eabi/4.8.3/armv7e-m\libgcc.a(_arm_addsubdf3.o)
                0x080002d0                __aeabi_drsub
                0x080002d8                __aeabi_dsub
                0x080002d8                __subdf3
                0x080002dc                __aeabi_dadd
                0x080002dc                __adddf3
                0x08000554                __floatunsidf
                0x08000554                __aeabi_ui2d
                0x08000574                __floatsidf
                0x08000574                __aeabi_i2d
                0x08000598                __aeabi_f2d
                0x08000598                __extendsfdf2
                0x080005d4                __floatundidf
                0x080005d4                __aeabi_ul2d
                0x080005e4                __floatdidf
                0x080005e4                __aeabi_l2d
 .text          0x08000640      0x424 c:/emtechesdk/gcc/bin/../lib/gcc/arm-none-eabi/4.8.3/armv7e-m\libgcc.a(_arm_muldivdf3.o)
                0x08000640                __aeabi_dmul
                0x08000640                __muldf3
                0x08000894                __divdf3
                0x08000894                __aeabi_ddiv
 *fill*         0x08000a64        0xc 
 .text          0x08000a70       0x50 c:/emtechesdk/gcc/bin/../lib/gcc/arm-none-eabi/4.8.3/armv7e-m\libgcc.a(_arm_fixdfsi.o)
                0x08000a70                __aeabi_d2iz
                0x08000a70                __fixdfsi
 .text          0x08000ac0       0xa0 c:/emtechesdk/gcc/bin/../lib/gcc/arm-none-eabi/4.8.3/armv7e-m\libgcc.a(_arm_truncdfsf2.o)
                0x08000ac0                __truncdfsf2
                0x08000ac0                __aeabi_d2f
 .text          0x08000b60       0xec c:/emtechesdk/gcc/bin/../lib/gcc/arm-none-eabi/4.8.3/armv7e-m\libgcc.a(_arm_cmpsf2.o)
                0x08000b60                __gesf2
                0x08000b60                __gtsf2
                0x08000b68                __lesf2
                0x08000b68                __ltsf2
                0x08000b70                __nesf2
                0x08000b70                __eqsf2
                0x08000b70                __cmpsf2
                0x08000bd0                __aeabi_cfrcmple
                0x08000bd8                __aeabi_cfcmpeq
                0x08000bd8                __aeabi_cfcmple
                0x08000be8                __aeabi_fcmpeq
                0x08000bfc                __aeabi_fcmplt
                0x08000c10                __aeabi_fcmple
                0x08000c24                __aeabi_fcmpge
                0x08000c38                __aeabi_fcmpgt
 *fill*         0x08000c4c        0x4 
 .text          0x08000c50      0x134 c:/emtechesdk/gcc/bin/../lib/gcc/arm-none-eabi/4.8.3/../../../../arm-none-eabi/lib/armv7e-m\libg.a(lib_a-memcpy.o)
                0x08000c50                memcpy
 *(.text.*)
 *fill*         0x08000d84        0xc 
 .text.__core_init
                0x08000d90       0x10 build/obj/crt1.o
                0x08000d90                __core_init
 .text.__late_init
                0x08000da0       0x10 build/obj/crt1.o
                0x08000da0                __late_init
 .text.__default_exit
                0x08000db0       0x10 build/obj/crt1.o
                0x08000db0                __default_exit
 .text._unhandled_exception
                0x08000dc0       0x10 build/obj/vectors.o
                0x08000dc0                Vector58
                0x08000dc0                VectorE8
                0x08000dc0                Vector9C
                0x08000dc0                VectorAC
                0x08000dc0                DebugMon_Handler
                0x08000dc0                Vector1A0
                0x08000dc0                Vector5C
                0x08000dc0                Vector11C
                0x08000dc0                HardFault_Handler
                0x08000dc0                Vector1B8
                0x08000dc0                Vector19C
                0x08000dc0                Vector8C
                0x08000dc0                SysTick_Handler
                0x08000dc0                VectorDC
                0x08000dc0                PendSV_Handler
                0x08000dc0                Vector168
                0x08000dc0                NMI_Handler
                0x08000dc0                VectorC8
                0x08000dc0                Vector94
                0x08000dc0                VectorA8
                0x08000dc0                VectorB4
                0x08000dc0                Vector160
                0x08000dc0                Vector1B0
                0x08000dc0                UsageFault_Handler
                0x08000dc0                VectorEC
                0x08000dc0                Vector40
                0x08000dc0                VectorF8
                0x08000dc0                Vector108
                0x08000dc0                VectorBC
                0x08000dc0                Vector190
                0x08000dc0                Vector148
                0x08000dc0                Vector188
                0x08000dc0                Vector198
                0x08000dc0                Vector118
                0x08000dc0                Vector64
                0x08000dc0                VectorCC
                0x08000dc0                Vector54
                0x08000dc0                Vector98
                0x08000dc0                VectorD8
                0x08000dc0                Vector138
                0x08000dc0                Vector24
                0x08000dc0                Vector1AC
                0x08000dc0                Vector178
                0x08000dc0                Vector1A4
                0x08000dc0                VectorD0
                0x08000dc0                Vector1B4
                0x08000dc0                Vector140
                0x08000dc0                VectorE4
                0x08000dc0                VectorC0
                0x08000dc0                VectorF0
                0x08000dc0                Vector13C
                0x08000dc0                Vector100
                0x08000dc0                VectorE0
                0x08000dc0                VectorF4
                0x08000dc0                MemManage_Handler
                0x08000dc0                VectorA0
                0x08000dc0                VectorC4
                0x08000dc0                Vector180
                0x08000dc0                Vector90
                0x08000dc0                Vector114
                0x08000dc0                Vector164
                0x08000dc0                Vector60
                0x08000dc0                Vector1C
                0x08000dc0                Vector1BC
                0x08000dc0                Vector17C
                0x08000dc0                Vector48
                0x08000dc0                Vector1A8
                0x08000dc0                Vector16C
                0x08000dc0                Vector4C
                0x08000dc0                Vector144
                0x08000dc0                Vector15C
                0x08000dc0                Vector68
                0x08000dc0                _unhandled_exception
                0x08000dc0                Vector170
                0x08000dc0                Vector184
                0x08000dc0                Vector10C
                0x08000dc0                BusFault_Handler
                0x08000dc0                Vector50
                0x08000dc0                Vector194
                0x08000dc0                Vector44
                0x08000dc0                Vector28
                0x08000dc0                VectorB8
                0x08000dc0                Vector34
                0x08000dc0                VectorA4
                0x08000dc0                Vector20
                0x08000dc0                Vector18C
 .text.NVIC_SetPriorityGrouping
                0x08000dd0       0x50 build/obj/chsys.o
 .text.NVIC_SetPriority
                0x08000e20       0x60 build/obj/chsys.o
 .text.port_init
                0x08000e80       0x50 build/obj/chsys.o
 .text.port_get_irq_status
                0x08000ed0       0x20 build/obj/chsys.o
 .text.port_irq_enabled
                0x08000ef0       0x20 build/obj/chsys.o
 .text.port_is_isr_context
                0x08000f10       0x30 build/obj/chsys.o
 .text.port_lock
                0x08000f40       0x20 build/obj/chsys.o
 .text.port_unlock
                0x08000f60       0x20 build/obj/chsys.o
 .text.port_lock_from_isr
                0x08000f80       0x10 build/obj/chsys.o
 .text.port_unlock_from_isr
                0x08000f90       0x10 build/obj/chsys.o
 .text.port_disable
                0x08000fa0       0x10 build/obj/chsys.o
 .text.port_enable
                0x08000fb0       0x20 build/obj/chsys.o
 .text.port_wait_for_interrupt
                0x08000fd0       0x10 build/obj/chsys.o
 .text.port_rt_get_counter_value
                0x08000fe0       0x20 build/obj/chsys.o
 .text.st_lld_get_counter
                0x08001000       0x20 build/obj/chsys.o
 .text.port_timer_stop_alarm
                0x08001020       0x10 build/obj/chsys.o
 .text.port_timer_set_alarm
                0x08001030       0x20 build/obj/chsys.o
 .text.port_timer_get_time
                0x08001050       0x10 build/obj/chsys.o
 .text.chSysEnable
                0x08001060       0x10 build/obj/chsys.o
 .text.chSysLock
                0x08001070       0x20 build/obj/chsys.o
 .text.chSysUnlock
                0x08001090       0x40 build/obj/chsys.o
 .text.chSysLockFromISR
                0x080010d0       0x20 build/obj/chsys.o
 .text.chSysUnlockFromISR
                0x080010f0       0x20 build/obj/chsys.o
 .text.chVTGetSystemTimeX
                0x08001110       0x10 build/obj/chsys.o
 .text.chVTDoTickI
                0x08001120       0xf0 build/obj/chsys.o
 .text.chRegSetThreadName
                0x08001210       0x20 build/obj/chsys.o
 .text.chRegSetThreadNameX
                0x08001230       0x20 build/obj/chsys.o
 .text._idle_thread
                0x08001250       0x10 build/obj/chsys.o
 .text.chSysInit
                0x08001260       0x90 build/obj/chsys.o
                0x08001260                chSysInit
 .text.chSysHalt
                0x080012f0       0x20 build/obj/chsys.o
                0x080012f0                chSysHalt
 .text.chSysTimerHandlerI
                0x08001310       0x10 build/obj/chsys.o
                0x08001310                chSysTimerHandlerI
 .text.chSysGetStatusAndLockX
                0x08001320       0x40 build/obj/chsys.o
                0x08001320                chSysGetStatusAndLockX
 .text.chSysRestoreStatusX
                0x08001360       0x40 build/obj/chsys.o
                0x08001360                chSysRestoreStatusX
 .text.chSysIsCounterWithinX
                0x080013a0       0x30 build/obj/chsys.o
                0x080013a0                chSysIsCounterWithinX
 .text.chSysPolledDelayX
                0x080013d0       0x40 build/obj/chsys.o
                0x080013d0                chSysPolledDelayX
 .text.port_lock
                0x08001410       0x20 build/obj/chdebug.o
 .text.port_unlock
                0x08001430       0x20 build/obj/chdebug.o
 .text.port_lock_from_isr
                0x08001450       0x10 build/obj/chdebug.o
 .text.port_unlock_from_isr
                0x08001460       0x10 build/obj/chdebug.o
 .text.st_lld_get_counter
                0x08001470       0x20 build/obj/chdebug.o
 .text.port_timer_get_time
                0x08001490       0x10 build/obj/chdebug.o
 .text.chVTGetSystemTimeX
                0x080014a0       0x10 build/obj/chdebug.o
 .text._dbg_check_enable
                0x080014b0       0x30 build/obj/chdebug.o
                0x080014b0                _dbg_check_enable
 .text._dbg_check_lock
                0x080014e0       0x30 build/obj/chdebug.o
                0x080014e0                _dbg_check_lock
 .text._dbg_check_unlock
                0x08001510       0x30 build/obj/chdebug.o
                0x08001510                _dbg_check_unlock
 .text._dbg_check_lock_from_isr
                0x08001540       0x30 build/obj/chdebug.o
                0x08001540                _dbg_check_lock_from_isr
 .text._dbg_check_unlock_from_isr
                0x08001570       0x30 build/obj/chdebug.o
                0x08001570                _dbg_check_unlock_from_isr
 .text._dbg_check_enter_isr
                0x080015a0       0x40 build/obj/chdebug.o
                0x080015a0                _dbg_check_enter_isr
 .text._dbg_check_leave_isr
                0x080015e0       0x40 build/obj/chdebug.o
                0x080015e0                _dbg_check_leave_isr
 .text.chDbgCheckClassI
                0x08001620       0x30 build/obj/chdebug.o
                0x08001620                chDbgCheckClassI
 .text.chDbgCheckClassS
                0x08001650       0x30 build/obj/chdebug.o
                0x08001650                chDbgCheckClassS
 .text._dbg_trace_init
                0x08001680       0x20 build/obj/chdebug.o
                0x08001680                _dbg_trace_init
 .text._dbg_trace
                0x080016a0       0x70 build/obj/chdebug.o
                0x080016a0                _dbg_trace
 .text.st_lld_get_counter
                0x08001710       0x20 build/obj/chvt.o
 .text.port_timer_start_alarm
                0x08001730       0x20 build/obj/chvt.o
 .text.port_timer_stop_alarm
                0x08001750       0x10 build/obj/chvt.o
 .text.port_timer_set_alarm
                0x08001760       0x20 build/obj/chvt.o
 .text.port_timer_get_time
                0x08001780       0x10 build/obj/chvt.o
 .text.chVTGetSystemTimeX
                0x08001790       0x10 build/obj/chvt.o
 .text._vt_init
                0x080017a0       0x30 build/obj/chvt.o
                0x080017a0                _vt_init
 .text.chVTDoSetI
                0x080017d0      0x120 build/obj/chvt.o
                0x080017d0                chVTDoSetI
 .text.chVTDoResetI
                0x080018f0      0x100 build/obj/chvt.o
                0x080018f0                chVTDoResetI
 .text.port_lock
                0x080019f0       0x20 build/obj/chschd.o
 .text.port_unlock
                0x08001a10       0x20 build/obj/chschd.o
 .text.port_lock_from_isr
                0x08001a30       0x10 build/obj/chschd.o
 .text.port_unlock_from_isr
                0x08001a40       0x10 build/obj/chschd.o
 .text.queue_init
                0x08001a50       0x20 build/obj/chschd.o
 .text.queue_fifo_remove
                0x08001a70       0x30 build/obj/chschd.o
 .text.queue_dequeue
                0x08001aa0       0x30 build/obj/chschd.o
 .text.chSchIsRescRequiredI
                0x08001ad0       0x30 build/obj/chschd.o
 .text.chSysLockFromISR
                0x08001b00       0x20 build/obj/chschd.o
 .text.chSysUnlockFromISR
                0x08001b20       0x20 build/obj/chschd.o
 .text.chVTIsArmedI
                0x08001b40       0x30 build/obj/chschd.o
 .text.chSemFastSignalI
                0x08001b70       0x20 build/obj/chschd.o
 .text._scheduler_init
                0x08001b90       0x30 build/obj/chschd.o
                0x08001b90                _scheduler_init
 .text.chSchReadyI
                0x08001bc0       0x80 build/obj/chschd.o
                0x08001bc0                chSchReadyI
 .text.chSchGoSleepS
                0x08001c40       0x80 build/obj/chschd.o
                0x08001c40                chSchGoSleepS
 .text.wakeup   0x08001cc0       0x80 build/obj/chschd.o
 .text.chSchGoSleepTimeoutS
                0x08001d40       0x70 build/obj/chschd.o
                0x08001d40                chSchGoSleepTimeoutS
 .text.chSchWakeupS
                0x08001db0       0x90 build/obj/chschd.o
                0x08001db0                chSchWakeupS
 .text.chSchRescheduleS
                0x08001e40       0x20 build/obj/chschd.o
                0x08001e40                chSchRescheduleS
 .text.chSchIsPreemptionRequired
                0x08001e60       0x40 build/obj/chschd.o
                0x08001e60                chSchIsPreemptionRequired
 .text.chSchDoRescheduleAhead
                0x08001ea0       0xb0 build/obj/chschd.o
                0x08001ea0                chSchDoRescheduleAhead
 .text.chSchDoReschedule
                0x08001f50       0x10 build/obj/chschd.o
                0x08001f50                chSchDoReschedule
 .text.port_lock
                0x08001f60       0x20 build/obj/chthreads.o
 .text.port_unlock
                0x08001f80       0x20 build/obj/chthreads.o
 .text.list_init
                0x08001fa0       0x20 build/obj/chthreads.o
 .text.list_notempty
                0x08001fc0       0x30 build/obj/chthreads.o
 .text.queue_init
                0x08001ff0       0x20 build/obj/chthreads.o
 .text.queue_notempty
                0x08002010       0x30 build/obj/chthreads.o
 .text.list_remove
                0x08002040       0x30 build/obj/chthreads.o
 .text.queue_insert
                0x08002070       0x30 build/obj/chthreads.o
 .text.queue_fifo_remove
                0x080020a0       0x30 build/obj/chthreads.o
 .text.chSysLock
                0x080020d0       0x20 build/obj/chthreads.o
 .text.chSysUnlock
                0x080020f0       0x40 build/obj/chthreads.o
 .text.chThdGetSelfX
                0x08002130       0x20 build/obj/chthreads.o
 .text.chThdSleepS
                0x08002150       0x30 build/obj/chthreads.o
 .text.chThdDoDequeueNextI
                0x08002180       0x50 build/obj/chthreads.o
 .text._thread_init
                0x080021d0       0xa0 build/obj/chthreads.o
                0x080021d0                _thread_init
 .text._thread_memfill
                0x08002270       0x30 build/obj/chthreads.o
                0x08002270                _thread_memfill
 .text.chThdCreateI
                0x080022a0       0x80 build/obj/chthreads.o
                0x080022a0                chThdCreateI
 .text.chThdCreateStatic
                0x08002320       0x60 build/obj/chthreads.o
                0x08002320                chThdCreateStatic
 .text.chThdSetPriority
                0x08002380       0x70 build/obj/chthreads.o
                0x08002380                chThdSetPriority
 .text.chThdSleep
                0x080023f0       0x20 build/obj/chthreads.o
                0x080023f0                chThdSleep
 .text.chThdExit
                0x08002410       0x20 build/obj/chthreads.o
                0x08002410                chThdExit
 .text.chThdExitS
                0x08002430       0x80 build/obj/chthreads.o
                0x08002430                chThdExitS
 .text.chThdSuspendS
                0x080024b0       0x50 build/obj/chthreads.o
                0x080024b0                chThdSuspendS
 .text.chThdResumeI
                0x08002500       0x50 build/obj/chthreads.o
                0x08002500                chThdResumeI
 .text.chThdResumeS
                0x08002550       0x40 build/obj/chthreads.o
                0x08002550                chThdResumeS
 .text.chThdResume
                0x08002590       0x20 build/obj/chthreads.o
                0x08002590                chThdResume
 .text.chThdEnqueueTimeoutS
                0x080025b0       0x40 build/obj/chthreads.o
                0x080025b0                chThdEnqueueTimeoutS
 .text.chThdDequeueNextI
                0x080025f0       0x30 build/obj/chthreads.o
                0x080025f0                chThdDequeueNextI
 .text.chThdDequeueAllI
                0x08002620       0x30 build/obj/chthreads.o
                0x08002620                chThdDequeueAllI
 .text.port_rt_get_counter_value
                0x08002650       0x20 build/obj/chtm.o
 .text.tm_stop  0x08002670       0x80 build/obj/chtm.o
 .text._tm_init
                0x080026f0       0x40 build/obj/chtm.o
                0x080026f0                _tm_init
 .text.chTMObjectInit
                0x08002730       0x40 build/obj/chtm.o
                0x08002730                chTMObjectInit
 .text.chTMStartMeasurementX
                0x08002770       0x20 build/obj/chtm.o
                0x08002770                chTMStartMeasurementX
 .text.chTMStopMeasurementX
                0x08002790       0x30 build/obj/chtm.o
                0x08002790                chTMStopMeasurementX
 .text.chTMChainMeasurementToX
                0x080027c0       0x30 build/obj/chtm.o
                0x080027c0                chTMChainMeasurementToX
 .text._stats_init
                0x080027f0       0x30 build/obj/chstats.o
                0x080027f0                _stats_init
 .text._stats_increase_irq
                0x08002820       0x20 build/obj/chstats.o
                0x08002820                _stats_increase_irq
 .text._stats_ctxswc
                0x08002840       0x40 build/obj/chstats.o
                0x08002840                _stats_ctxswc
 .text._stats_start_measure_crit_thd
                0x08002880       0x10 build/obj/chstats.o
                0x08002880                _stats_start_measure_crit_thd
 .text._stats_stop_measure_crit_thd
                0x08002890       0x10 build/obj/chstats.o
                0x08002890                _stats_stop_measure_crit_thd
 .text._stats_start_measure_crit_isr
                0x080028a0       0x10 build/obj/chstats.o
                0x080028a0                _stats_start_measure_crit_isr
 .text._stats_stop_measure_crit_isr
                0x080028b0       0x10 build/obj/chstats.o
                0x080028b0                _stats_stop_measure_crit_isr
 .text.port_lock
                0x080028c0       0x20 build/obj/chsem.o
 .text.port_unlock
                0x080028e0       0x20 build/obj/chsem.o
 .text.queue_init
                0x08002900       0x20 build/obj/chsem.o
 .text.queue_isempty
                0x08002920       0x30 build/obj/chsem.o
 .text.queue_notempty
                0x08002950       0x30 build/obj/chsem.o
 .text.queue_insert
                0x08002980       0x30 build/obj/chsem.o
 .text.queue_fifo_remove
                0x080029b0       0x30 build/obj/chsem.o
 .text.queue_lifo_remove
                0x080029e0       0x30 build/obj/chsem.o
 .text.chSysLock
                0x08002a10       0x20 build/obj/chsem.o
 .text.chSysUnlock
                0x08002a30       0x40 build/obj/chsem.o
 .text.chSemObjectInit
                0x08002a70       0x40 build/obj/chsem.o
                0x08002a70                chSemObjectInit
 .text.chSemResetI
                0x08002ab0       0xa0 build/obj/chsem.o
                0x08002ab0                chSemResetI
 .text.chSemWaitTimeoutS
                0x08002b50       0xc0 build/obj/chsem.o
                0x08002b50                chSemWaitTimeoutS
 .text.chSemSignal
                0x08002c10       0x90 build/obj/chsem.o
                0x08002c10                chSemSignal
 .text.chSemSignalI
                0x08002ca0       0x90 build/obj/chsem.o
                0x08002ca0                chSemSignalI
 .text.port_lock
                0x08002d30       0x20 build/obj/chmtx.o
 .text.port_unlock
                0x08002d50       0x20 build/obj/chmtx.o
 .text.queue_init
                0x08002d70       0x20 build/obj/chmtx.o
 .text.queue_notempty
                0x08002d90       0x30 build/obj/chmtx.o
 .text.queue_prio_insert
                0x08002dc0       0x50 build/obj/chmtx.o
 .text.queue_fifo_remove
                0x08002e10       0x30 build/obj/chmtx.o
 .text.queue_dequeue
                0x08002e40       0x30 build/obj/chmtx.o
 .text.chSysLock
                0x08002e70       0x20 build/obj/chmtx.o
 .text.chSysUnlock
                0x08002e90       0x40 build/obj/chmtx.o
 .text.chMtxQueueNotEmptyS
                0x08002ed0       0x20 build/obj/chmtx.o
 .text.chMtxObjectInit
                0x08002ef0       0x30 build/obj/chmtx.o
                0x08002ef0                chMtxObjectInit
 .text.chMtxLock
                0x08002f20       0x20 build/obj/chmtx.o
                0x08002f20                chMtxLock
 .text.chMtxLockS
                0x08002f40      0x100 build/obj/chmtx.o
                0x08002f40                chMtxLockS
 .text.chMtxUnlock
                0x08003040       0xf0 build/obj/chmtx.o
                0x08003040                chMtxUnlock
 .text.port_lock
                0x08003130       0x20 build/obj/chevents.o
 .text.port_unlock
                0x08003150       0x20 build/obj/chevents.o
 .text.chSysLock
                0x08003170       0x20 build/obj/chevents.o
 .text.chSysUnlock
                0x08003190       0x40 build/obj/chevents.o
 .text.chEvtRegisterMaskWithFlags
                0x080031d0       0x60 build/obj/chevents.o
                0x080031d0                chEvtRegisterMaskWithFlags
 .text.chEvtAddEvents
                0x08003230       0x40 build/obj/chevents.o
                0x08003230                chEvtAddEvents
 .text.chEvtBroadcastFlagsI
                0x08003270       0x70 build/obj/chevents.o
                0x08003270                chEvtBroadcastFlagsI
 .text.chEvtSignalI
                0x080032e0       0x70 build/obj/chevents.o
                0x080032e0                chEvtSignalI
 .text.chEvtWaitAny
                0x08003350       0x60 build/obj/chevents.o
                0x08003350                chEvtWaitAny
 .text.port_lock
                0x080033b0       0x20 build/obj/chmboxes.o
 .text.port_unlock
                0x080033d0       0x20 build/obj/chmboxes.o
 .text.chSysLock
                0x080033f0       0x20 build/obj/chmboxes.o
 .text.chSysUnlock
                0x08003410       0x40 build/obj/chmboxes.o
 .text.chMBObjectInit
                0x08003450       0x70 build/obj/chmboxes.o
                0x08003450                chMBObjectInit
 .text.chMBReset
                0x080034c0       0x20 build/obj/chmboxes.o
                0x080034c0                chMBReset
 .text.chMBResetI
                0x080034e0       0x60 build/obj/chmboxes.o
                0x080034e0                chMBResetI
 .text.chMBPost
                0x08003540       0x30 build/obj/chmboxes.o
                0x08003540                chMBPost
 .text.chMBPostS
                0x08003570       0x70 build/obj/chmboxes.o
                0x08003570                chMBPostS
 .text.chMBFetch
                0x080035e0       0x30 build/obj/chmboxes.o
                0x080035e0                chMBFetch
 .text.chMBFetchS
                0x08003610       0x80 build/obj/chmboxes.o
                0x08003610                chMBFetchS
 .text.port_lock
                0x08003690       0x20 build/obj/chqueues.o
 .text.port_unlock
                0x080036b0       0x20 build/obj/chqueues.o
 .text.queue_init
                0x080036d0       0x20 build/obj/chqueues.o
 .text.chSysLock
                0x080036f0       0x20 build/obj/chqueues.o
 .text.chSysUnlock
                0x08003710       0x40 build/obj/chqueues.o
 .text.chThdQueueObjectInit
                0x08003750       0x20 build/obj/chqueues.o
 .text.chIQIsEmptyI
                0x08003770       0x30 build/obj/chqueues.o
 .text.chIQIsFullI
                0x080037a0       0x40 build/obj/chqueues.o
 .text.chOQIsEmptyI
                0x080037e0       0x40 build/obj/chqueues.o
 .text.chOQIsFullI
                0x08003820       0x30 build/obj/chqueues.o
 .text.chIQObjectInit
                0x08003850       0x50 build/obj/chqueues.o
                0x08003850                chIQObjectInit
 .text.chIQPutI
                0x080038a0       0x70 build/obj/chqueues.o
                0x080038a0                chIQPutI
 .text.chIQGetTimeout
                0x08003910       0x90 build/obj/chqueues.o
                0x08003910                chIQGetTimeout
 .text.chIQReadTimeout
                0x080039a0       0xc0 build/obj/chqueues.o
                0x080039a0                chIQReadTimeout
 .text.chOQObjectInit
                0x08003a60       0x50 build/obj/chqueues.o
                0x08003a60                chOQObjectInit
 .text.chOQPutTimeout
                0x08003ab0       0x90 build/obj/chqueues.o
                0x08003ab0                chOQPutTimeout
 .text.chOQGetI
                0x08003b40       0x60 build/obj/chqueues.o
                0x08003b40                chOQGetI
 .text.chOQWriteTimeout
                0x08003ba0       0xc0 build/obj/chqueues.o
                0x08003ba0                chOQWriteTimeout
 .text.port_lock
                0x08003c60       0x20 build/obj/chmemcore.o
 .text.port_unlock
                0x08003c80       0x20 build/obj/chmemcore.o
 .text.chSysLock
                0x08003ca0       0x20 build/obj/chmemcore.o
 .text.chSysUnlock
                0x08003cc0       0x40 build/obj/chmemcore.o
 .text._core_init
                0x08003d00       0x40 build/obj/chmemcore.o
                0x08003d00                _core_init
 .text.chCoreAlloc
                0x08003d40       0x30 build/obj/chmemcore.o
                0x08003d40                chCoreAlloc
 .text.chCoreAllocI
                0x08003d70       0x60 build/obj/chmemcore.o
                0x08003d70                chCoreAllocI
 .text._heap_init
                0x08003dd0       0x30 build/obj/chheap.o
                0x08003dd0                _heap_init
 .text.chHeapAlloc
                0x08003e00       0xf0 build/obj/chheap.o
                0x08003e00                chHeapAlloc
 .text.chHeapFree
                0x08003ef0      0x100 build/obj/chheap.o
                0x08003ef0                chHeapFree
 .text.port_lock
                0x08003ff0       0x20 build/obj/chcore_v7m.o
 .text.port_unlock
                0x08004010       0x20 build/obj/chcore_v7m.o
 .text.port_lock_from_isr
                0x08004030       0x10 build/obj/chcore_v7m.o
 .text.port_unlock_from_isr
                0x08004040       0x10 build/obj/chcore_v7m.o
 .text.SVC_Handler
                0x08004050       0x30 build/obj/chcore_v7m.o
                0x08004050                SVC_Handler
 .text._port_irq_epilogue
                0x08004080       0x70 build/obj/chcore_v7m.o
                0x08004080                _port_irq_epilogue
 .text.osalInit
                0x080040f0       0x10 build/obj/hal.o
 .text.halInit  0x08004100       0x40 build/obj/hal.o
                0x08004100                halInit
 .text._mmcsd_get_slice
                0x08004140       0xa0 build/obj/hal_mmcsd.o
                0x08004140                _mmcsd_get_slice
 .text._mmcsd_get_capacity
                0x080041e0       0x90 build/obj/hal_mmcsd.o
                0x080041e0                _mmcsd_get_capacity
 .text._mmcsd_get_capacity_ext
                0x08004270       0x50 build/obj/hal_mmcsd.o
                0x08004270                _mmcsd_get_capacity_ext
 .text.osalMutexObjectInit
                0x080042c0       0x20 build/obj/adc.o
 .text.adcInit  0x080042e0       0x10 build/obj/adc.o
                0x080042e0                adcInit
 .text.adcObjectInit
                0x080042f0       0x40 build/obj/adc.o
                0x080042f0                adcObjectInit
 .text.port_lock
                0x08004330       0x20 build/obj/mac.o
 .text.port_unlock
                0x08004350       0x20 build/obj/mac.o
 .text.st_lld_get_counter
                0x08004370       0x20 build/obj/mac.o
 .text.port_timer_get_time
                0x08004390       0x10 build/obj/mac.o
 .text.queue_init
                0x080043a0       0x20 build/obj/mac.o
 .text.chSysLock
                0x080043c0       0x20 build/obj/mac.o
 .text.chSysUnlock
                0x080043e0       0x40 build/obj/mac.o
 .text.chVTGetSystemTimeX
                0x08004420       0x10 build/obj/mac.o
 .text.chThdQueueObjectInit
                0x08004430       0x20 build/obj/mac.o
 .text.chEvtObjectInit
                0x08004450       0x20 build/obj/mac.o
 .text.osalSysLock
                0x08004470       0x10 build/obj/mac.o
 .text.osalSysUnlock
                0x08004480       0x10 build/obj/mac.o
 .text.osalOsGetSystemTimeX
                0x08004490       0x10 build/obj/mac.o
 .text.osalThreadQueueObjectInit
                0x080044a0       0x20 build/obj/mac.o
 .text.osalThreadEnqueueTimeoutS
                0x080044c0       0x20 build/obj/mac.o
 .text.osalEventObjectInit
                0x080044e0       0x20 build/obj/mac.o
 .text.macInit  0x08004500       0x10 build/obj/mac.o
                0x08004500                macInit
 .text.macObjectInit
                0x08004510       0x40 build/obj/mac.o
                0x08004510                macObjectInit
 .text.macStart
                0x08004550       0x50 build/obj/mac.o
                0x08004550                macStart
 .text.macWaitTransmitDescriptor
                0x080045a0       0xa0 build/obj/mac.o
                0x080045a0                macWaitTransmitDescriptor
 .text.macReleaseTransmitDescriptor
                0x08004640       0x30 build/obj/mac.o
                0x08004640                macReleaseTransmitDescriptor
 .text.macWaitReceiveDescriptor
                0x08004670       0xa0 build/obj/mac.o
                0x08004670                macWaitReceiveDescriptor
 .text.macReleaseReceiveDescriptor
                0x08004710       0x30 build/obj/mac.o
                0x08004710                macReleaseReceiveDescriptor
 .text.macPollLinkStatus
                0x08004740       0x40 build/obj/mac.o
                0x08004740                macPollLinkStatus
 .text.port_lock
                0x08004780       0x20 build/obj/sdc.o
 .text.port_unlock
                0x080047a0       0x20 build/obj/sdc.o
 .text.chSysLock
                0x080047c0       0x20 build/obj/sdc.o
 .text.chSysUnlock
                0x080047e0       0x40 build/obj/sdc.o
 .text.osalSysLock
                0x08004820       0x10 build/obj/sdc.o
 .text.osalSysUnlock
                0x08004830       0x10 build/obj/sdc.o
 .text.osalThreadSleep
                0x08004840       0x20 build/obj/sdc.o
 .text.mode_detect
                0x08004860       0xa0 build/obj/sdc.o
 .text.mmc_init
                0x08004900       0x70 build/obj/sdc.o
 .text.sdc_init
                0x08004970       0xb0 build/obj/sdc.o
 .text.mmc_cmd6_construct
                0x08004a20       0x50 build/obj/sdc.o
 .text.sdc_cmd6_construct
                0x08004a70       0x60 build/obj/sdc.o
 .text.sdc_cmd6_extract_info
                0x08004ad0       0x50 build/obj/sdc.o
 .text.sdc_cmd6_check_status
                0x08004b20       0x50 build/obj/sdc.o
 .text.sdc_detect_bus_clk
                0x08004b70      0x100 build/obj/sdc.o
 .text.mmc_detect_bus_clk
                0x08004c70       0x70 build/obj/sdc.o
 .text.detect_bus_clk
                0x08004ce0       0x40 build/obj/sdc.o
 .text.sdc_set_bus_width
                0x08004d20       0x80 build/obj/sdc.o
 .text.mmc_set_bus_width
                0x08004da0       0xa0 build/obj/sdc.o
 .text._sdc_wait_for_transfer_state
                0x08004e40       0x60 build/obj/sdc.o
                0x08004e40                _sdc_wait_for_transfer_state
 .text.sdcInit  0x08004ea0       0x10 build/obj/sdc.o
                0x08004ea0                sdcInit
 .text.sdcObjectInit
                0x08004eb0       0x40 build/obj/sdc.o
                0x08004eb0                sdcObjectInit
 .text.sdcConnect
                0x08004ef0      0x1f0 build/obj/sdc.o
                0x08004ef0                sdcConnect
 .text.sdcDisconnect
                0x080050e0       0x80 build/obj/sdc.o
                0x080050e0                sdcDisconnect
 .text.sdcRead  0x08005160       0x80 build/obj/sdc.o
                0x08005160                sdcRead
 .text.sdcWrite
                0x080051e0       0x80 build/obj/sdc.o
                0x080051e0                sdcWrite
 .text.sdcSync  0x08005260       0x50 build/obj/sdc.o
                0x08005260                sdcSync
 .text.sdcGetInfo
                0x080052b0       0x50 build/obj/sdc.o
                0x080052b0                sdcGetInfo
 .text.chEvtObjectInit
                0x08005300       0x20 build/obj/serial.o
 .text.chIQIsEmptyI
                0x08005320       0x30 build/obj/serial.o
 .text.osalEventObjectInit
                0x08005350       0x20 build/obj/serial.o
 .text.osalEventBroadcastFlagsI
                0x08005370       0x20 build/obj/serial.o
 .text.write    0x08005390       0x30 build/obj/serial.o
 .text.read     0x080053c0       0x30 build/obj/serial.o
 .text.put      0x080053f0       0x30 build/obj/serial.o
 .text.get      0x08005420       0x20 build/obj/serial.o
 .text.putt     0x08005440       0x30 build/obj/serial.o
 .text.gett     0x08005470       0x20 build/obj/serial.o
 .text.writet   0x08005490       0x30 build/obj/serial.o
 .text.readt    0x080054c0       0x30 build/obj/serial.o
 .text.sdInit   0x080054f0       0x10 build/obj/serial.o
                0x080054f0                sdInit
 .text.sdObjectInit
                0x08005500       0x70 build/obj/serial.o
                0x08005500                sdObjectInit
 .text.sdIncomingDataI
                0x08005570       0x70 build/obj/serial.o
                0x08005570                sdIncomingDataI
 .text.osalMutexObjectInit
                0x080055e0       0x20 build/obj/spi.o
 .text.spiInit  0x08005600       0x10 build/obj/spi.o
                0x08005600                spiInit
 .text.spiObjectInit
                0x08005610       0x30 build/obj/spi.o
                0x08005610                spiObjectInit
 .text.st_lld_start_alarm
                0x08005640       0x30 build/obj/st.o
 .text.st_lld_stop_alarm
                0x08005670       0x20 build/obj/st.o
 .text.st_lld_set_alarm
                0x08005690       0x20 build/obj/st.o
 .text.st_lld_is_alarm_active
                0x080056b0       0x30 build/obj/st.o
 .text.stInit   0x080056e0       0x10 build/obj/st.o
                0x080056e0                stInit
 .text.stStartAlarm
                0x080056f0       0x30 build/obj/st.o
                0x080056f0                stStartAlarm
 .text.stStopAlarm
                0x08005720       0x10 build/obj/st.o
                0x08005720                stStopAlarm
 .text.stSetAlarm
                0x08005730       0x30 build/obj/st.o
                0x08005730                stSetAlarm
 .text.port_lock
                0x08005760       0x20 build/obj/usb.o
 .text.port_unlock
                0x08005780       0x20 build/obj/usb.o
 .text.port_lock_from_isr
                0x080057a0       0x10 build/obj/usb.o
 .text.port_unlock_from_isr
                0x080057b0       0x10 build/obj/usb.o
 .text.chSysLockFromISR
                0x080057c0       0x20 build/obj/usb.o
 .text.chSysUnlockFromISR
                0x080057e0       0x20 build/obj/usb.o
 .text.osalSysLockFromISR
                0x08005800       0x10 build/obj/usb.o
 .text.osalSysUnlockFromISR
                0x08005810       0x10 build/obj/usb.o
 .text.get_hword
                0x08005820       0x30 build/obj/usb.o
 .text.set_address
                0x08005850       0x40 build/obj/usb.o
 .text.default_handler
                0x08005890      0x3b0 build/obj/usb.o
 .text.usbInit  0x08005c40       0x10 build/obj/usb.o
                0x08005c40                usbInit
 .text.usbObjectInit
                0x08005c50       0x60 build/obj/usb.o
                0x08005c50                usbObjectInit
 .text.usbPrepareReceive
                0x08005cb0       0x50 build/obj/usb.o
                0x08005cb0                usbPrepareReceive
 .text.usbPrepareTransmit
                0x08005d00       0x50 build/obj/usb.o
                0x08005d00                usbPrepareTransmit
 .text.usbStartReceiveI
                0x08005d50       0x70 build/obj/usb.o
                0x08005d50                usbStartReceiveI
 .text.usbStartTransmitI
                0x08005dc0       0x70 build/obj/usb.o
                0x08005dc0                usbStartTransmitI
 .text._usb_reset
                0x08005e30       0x70 build/obj/usb.o
                0x08005e30                _usb_reset
 .text._usb_ep0setup
                0x08005ea0      0x180 build/obj/usb.o
                0x08005ea0                _usb_ep0setup
 .text._usb_ep0in
                0x08006020      0x120 build/obj/usb.o
                0x08006020                _usb_ep0in
 .text._usb_ep0out
                0x08006140       0xd0 build/obj/usb.o
                0x08006140                _usb_ep0out
 .text.long_to_string_with_divisor
                0x08006210       0xb0 build/obj/chprintf.o
 .text.ch_ltoa  0x080062c0       0x30 build/obj/chprintf.o
 .text.ftoa     0x080062f0       0xb0 build/obj/chprintf.o
 .text.chvprintf
                0x080063a0      0x4c0 build/obj/chprintf.o
                0x080063a0                chvprintf
 .text.nvicEnableVector
                0x08006860       0x60 build/obj/nvic.o
                0x08006860                nvicEnableVector
 .text.Vector6C
                0x080068c0       0x50 build/obj/stm32_dma.o
                0x080068c0                Vector6C
 .text.Vector70
                0x08006910       0x50 build/obj/stm32_dma.o
                0x08006910                Vector70
 .text.Vector74
                0x08006960       0x50 build/obj/stm32_dma.o
                0x08006960                Vector74
 .text.Vector78
                0x080069b0       0x50 build/obj/stm32_dma.o
                0x080069b0                Vector78
 .text.Vector7C
                0x08006a00       0x50 build/obj/stm32_dma.o
                0x08006a00                Vector7C
 .text.Vector80
                0x08006a50       0x50 build/obj/stm32_dma.o
                0x08006a50                Vector80
 .text.Vector84
                0x08006aa0       0x50 build/obj/stm32_dma.o
                0x08006aa0                Vector84
 .text.VectorFC
                0x08006af0       0x50 build/obj/stm32_dma.o
                0x08006af0                VectorFC
 .text.Vector120
                0x08006b40       0x50 build/obj/stm32_dma.o
                0x08006b40                Vector120
 .text.Vector124
                0x08006b90       0x50 build/obj/stm32_dma.o
                0x08006b90                Vector124
 .text.Vector128
                0x08006be0       0x50 build/obj/stm32_dma.o
                0x08006be0                Vector128
 .text.Vector12C
                0x08006c30       0x50 build/obj/stm32_dma.o
                0x08006c30                Vector12C
 .text.Vector130
                0x08006c80       0x50 build/obj/stm32_dma.o
                0x08006c80                Vector130
 .text.Vector150
                0x08006cd0       0x50 build/obj/stm32_dma.o
                0x08006cd0                Vector150
 .text.Vector154
                0x08006d20       0x50 build/obj/stm32_dma.o
                0x08006d20                Vector154
 .text.Vector158
                0x08006d70       0x50 build/obj/stm32_dma.o
                0x08006d70                Vector158
 .text.dmaInit  0x08006dc0       0x80 build/obj/stm32_dma.o
                0x08006dc0                dmaInit
 .text.hal_lld_backup_domain_init
                0x08006e40       0x50 build/obj/hal_lld.o
 .text.hal_lld_init
                0x08006e90       0x70 build/obj/hal_lld.o
                0x08006e90                hal_lld_init
 .text.stm32_clock_init
                0x08006f00      0x120 build/obj/hal_lld.o
                0x08006f00                stm32_clock_init
 .text.port_lock
                0x08007020       0x20 build/obj/adc_lld.o
 .text.port_unlock
                0x08007040       0x20 build/obj/adc_lld.o
 .text.port_lock_from_isr
                0x08007060       0x10 build/obj/adc_lld.o
 .text.port_unlock_from_isr
                0x08007070       0x10 build/obj/adc_lld.o
 .text.chSysLockFromISR
                0x08007080       0x20 build/obj/adc_lld.o
 .text.chSysUnlockFromISR
                0x080070a0       0x20 build/obj/adc_lld.o
 .text.osalSysLockFromISR
                0x080070c0       0x10 build/obj/adc_lld.o
 .text.osalSysUnlockFromISR
                0x080070d0       0x10 build/obj/adc_lld.o
 .text.osalThreadResumeI
                0x080070e0       0x20 build/obj/adc_lld.o
 .text.Vector88
                0x08007100       0xa0 build/obj/adc_lld.o
                0x08007100                Vector88
 .text.adc_lld_init
                0x080071a0       0x40 build/obj/adc_lld.o
                0x080071a0                adc_lld_init
 .text.adc_lld_stop_conversion
                0x080071e0       0x70 build/obj/adc_lld.o
                0x080071e0                adc_lld_stop_conversion
 .text.port_lock
                0x08007250       0x20 build/obj/mac_lld.o
 .text.port_unlock
                0x08007270       0x20 build/obj/mac_lld.o
 .text.port_lock_from_isr
                0x08007290       0x10 build/obj/mac_lld.o
 .text.port_unlock_from_isr
                0x080072a0       0x10 build/obj/mac_lld.o
 .text.chSysLock
                0x080072b0       0x20 build/obj/mac_lld.o
 .text.chSysUnlock
                0x080072d0       0x40 build/obj/mac_lld.o
 .text.chSysLockFromISR
                0x08007310       0x20 build/obj/mac_lld.o
 .text.chSysUnlockFromISR
                0x08007330       0x20 build/obj/mac_lld.o
 .text.osalSysHalt
                0x08007350       0x20 build/obj/mac_lld.o
 .text.osalSysLock
                0x08007370       0x10 build/obj/mac_lld.o
 .text.osalSysUnlock
                0x08007380       0x10 build/obj/mac_lld.o
 .text.osalSysLockFromISR
                0x08007390       0x10 build/obj/mac_lld.o
 .text.osalSysUnlockFromISR
                0x080073a0       0x10 build/obj/mac_lld.o
 .text.osalThreadDequeueAllI
                0x080073b0       0x20 build/obj/mac_lld.o
 .text.osalEventBroadcastFlagsI
                0x080073d0       0x20 build/obj/mac_lld.o
 .text.mii_write
                0x080073f0       0x40 build/obj/mac_lld.o
                0x080073f0                mii_write
 .text.mii_read
                0x08007430       0x40 build/obj/mac_lld.o
                0x08007430                mii_read
 .text.mii_find_phy
                0x08007470       0x80 build/obj/mac_lld.o
 .text.mac_lld_set_address
                0x080074f0       0x90 build/obj/mac_lld.o
 .text.Vector134
                0x08007580       0x90 build/obj/mac_lld.o
                0x08007580                Vector134
 .text.mac_lld_init
                0x08007610      0x160 build/obj/mac_lld.o
                0x08007610                mac_lld_init
 .text.mac_lld_start
                0x08007770      0x150 build/obj/mac_lld.o
                0x08007770                mac_lld_start
 .text.mac_lld_get_transmit_descriptor
                0x080078c0       0x80 build/obj/mac_lld.o
                0x080078c0                mac_lld_get_transmit_descriptor
 .text.mac_lld_release_transmit_descriptor
                0x08007940       0x70 build/obj/mac_lld.o
                0x08007940                mac_lld_release_transmit_descriptor
 .text.mac_lld_get_receive_descriptor
                0x080079b0       0xa0 build/obj/mac_lld.o
                0x080079b0                mac_lld_get_receive_descriptor
 .text.mac_lld_release_receive_descriptor
                0x08007a50       0x70 build/obj/mac_lld.o
                0x08007a50                mac_lld_release_receive_descriptor
 .text.mac_lld_poll_link_status
                0x08007ac0      0x100 build/obj/mac_lld.o
                0x08007ac0                mac_lld_poll_link_status
 .text.mac_lld_write_transmit_descriptor
                0x08007bc0       0x70 build/obj/mac_lld.o
                0x08007bc0                mac_lld_write_transmit_descriptor
 .text.mac_lld_read_receive_descriptor
                0x08007c30       0x70 build/obj/mac_lld.o
                0x08007c30                mac_lld_read_receive_descriptor
 .text.port_lock
                0x08007ca0       0x20 build/obj/sdc_lld.o
 .text.port_unlock
                0x08007cc0       0x20 build/obj/sdc_lld.o
 .text.port_lock_from_isr
                0x08007ce0       0x10 build/obj/sdc_lld.o
 .text.port_unlock_from_isr
                0x08007cf0       0x10 build/obj/sdc_lld.o
 .text.chSysLock
                0x08007d00       0x20 build/obj/sdc_lld.o
 .text.chSysUnlock
                0x08007d20       0x40 build/obj/sdc_lld.o
 .text.chSysLockFromISR
                0x08007d60       0x20 build/obj/sdc_lld.o
 .text.chSysUnlockFromISR
                0x08007d80       0x20 build/obj/sdc_lld.o
 .text.osalSysLock
                0x08007da0       0x10 build/obj/sdc_lld.o
 .text.osalSysUnlock
                0x08007db0       0x10 build/obj/sdc_lld.o
 .text.osalSysLockFromISR
                0x08007dc0       0x10 build/obj/sdc_lld.o
 .text.osalSysUnlockFromISR
                0x08007dd0       0x10 build/obj/sdc_lld.o
 .text.osalThreadSleep
                0x08007de0       0x20 build/obj/sdc_lld.o
 .text.osalThreadSuspendS
                0x08007e00       0x20 build/obj/sdc_lld.o
 .text.osalThreadResumeI
                0x08007e20       0x20 build/obj/sdc_lld.o
 .text.sdc_lld_prepare_read_bytes
                0x08007e40       0xa0 build/obj/sdc_lld.o
 .text.sdc_lld_prepare_read
                0x08007ee0       0x80 build/obj/sdc_lld.o
 .text.sdc_lld_prepare_write
                0x08007f60       0x80 build/obj/sdc_lld.o
 .text.sdc_lld_wait_transaction_end
                0x08007fe0       0xa0 build/obj/sdc_lld.o
 .text.sdc_lld_collect_errors
                0x08008080       0xb0 build/obj/sdc_lld.o
 .text.sdc_lld_error_cleanup
                0x08008130       0xa0 build/obj/sdc_lld.o
 .text.Vector104
                0x080081d0       0x40 build/obj/sdc_lld.o
                0x080081d0                Vector104
 .text.sdc_lld_init
                0x08008210       0x30 build/obj/sdc_lld.o
                0x08008210                sdc_lld_init
 .text.sdc_lld_start_clk
                0x08008240       0x40 build/obj/sdc_lld.o
                0x08008240                sdc_lld_start_clk
 .text.sdc_lld_set_data_clk
                0x08008280       0x30 build/obj/sdc_lld.o
                0x08008280                sdc_lld_set_data_clk
 .text.sdc_lld_stop_clk
                0x080082b0       0x30 build/obj/sdc_lld.o
                0x080082b0                sdc_lld_stop_clk
 .text.sdc_lld_set_bus_mode
                0x080082e0       0x60 build/obj/sdc_lld.o
                0x080082e0                sdc_lld_set_bus_mode
 .text.sdc_lld_send_cmd_none
                0x08008340       0x50 build/obj/sdc_lld.o
                0x08008340                sdc_lld_send_cmd_none
 .text.sdc_lld_send_cmd_short
                0x08008390       0x80 build/obj/sdc_lld.o
                0x08008390                sdc_lld_send_cmd_short
 .text.sdc_lld_send_cmd_short_crc
                0x08008410       0x80 build/obj/sdc_lld.o
                0x08008410                sdc_lld_send_cmd_short_crc
 .text.sdc_lld_send_cmd_long_crc
                0x08008490       0xa0 build/obj/sdc_lld.o
                0x08008490                sdc_lld_send_cmd_long_crc
 .text.sdc_lld_read_special
                0x08008530       0x80 build/obj/sdc_lld.o
                0x08008530                sdc_lld_read_special
 .text.sdc_lld_read_aligned
                0x080085b0       0xf0 build/obj/sdc_lld.o
                0x080085b0                sdc_lld_read_aligned
 .text.sdc_lld_write_aligned
                0x080086a0       0xf0 build/obj/sdc_lld.o
                0x080086a0                sdc_lld_write_aligned
 .text.sdc_lld_read
                0x08008790       0x90 build/obj/sdc_lld.o
                0x08008790                sdc_lld_read
 .text.sdc_lld_write
                0x08008820       0x90 build/obj/sdc_lld.o
                0x08008820                sdc_lld_write
 .text.sdc_lld_sync
                0x080088b0       0x20 build/obj/sdc_lld.o
                0x080088b0                sdc_lld_sync
 .text.initgpio
                0x080088d0       0x50 build/obj/pal_lld.o
 .text._pal_lld_init
                0x08008920       0xc0 build/obj/pal_lld.o
                0x08008920                _pal_lld_init
 .text.port_lock
                0x080089e0       0x20 build/obj/usb_lld.o
 .text.port_unlock
                0x08008a00       0x20 build/obj/usb_lld.o
 .text.port_lock_from_isr
                0x08008a20       0x10 build/obj/usb_lld.o
 .text.port_unlock_from_isr
                0x08008a30       0x10 build/obj/usb_lld.o
 .text.chSysLockFromISR
                0x08008a40       0x20 build/obj/usb_lld.o
 .text.chSysUnlockFromISR
                0x08008a60       0x20 build/obj/usb_lld.o
 .text.osalSysLockFromISR
                0x08008a80       0x10 build/obj/usb_lld.o
 .text.osalSysUnlockFromISR
                0x08008a90       0x10 build/obj/usb_lld.o
 .text.osalSysPolledDelayX
                0x08008aa0       0x20 build/obj/usb_lld.o
 .text.osalThreadResumeI
                0x08008ac0       0x20 build/obj/usb_lld.o
 .text.otg_rxfifo_flush
                0x08008ae0       0x30 build/obj/usb_lld.o
 .text.otg_txfifo_flush
                0x08008b10       0x40 build/obj/usb_lld.o
 .text.otg_ram_reset
                0x08008b50       0x20 build/obj/usb_lld.o
 .text.otg_ram_alloc
                0x08008b70       0x40 build/obj/usb_lld.o
 .text.otg_epin_handler
                0x08008bb0      0x130 build/obj/usb_lld.o
 .text.otg_epout_handler
                0x08008ce0      0x100 build/obj/usb_lld.o
 .text.usb_lld_serve_interrupt
                0x08008de0      0x1a0 build/obj/usb_lld.o
 .text.Vector14C
                0x08008f80       0x20 build/obj/usb_lld.o
                0x08008f80                Vector14C
 .text.Vector174
                0x08008fa0       0x20 build/obj/usb_lld.o
                0x08008fa0                Vector174
 .text.usb_lld_init
                0x08008fc0       0xc0 build/obj/usb_lld.o
                0x08008fc0                usb_lld_init
 .text.usb_lld_reset
                0x08009080      0x130 build/obj/usb_lld.o
                0x08009080                usb_lld_reset
 .text.usb_lld_set_address
                0x080091b0       0x40 build/obj/usb_lld.o
                0x080091b0                usb_lld_set_address
 .text.usb_lld_get_status_out
                0x080091f0       0x50 build/obj/usb_lld.o
                0x080091f0                usb_lld_get_status_out
 .text.usb_lld_get_status_in
                0x08009240       0x50 build/obj/usb_lld.o
                0x08009240                usb_lld_get_status_in
 .text.usb_lld_read_setup
                0x08009290       0x30 build/obj/usb_lld.o
                0x08009290                usb_lld_read_setup
 .text.usb_lld_prepare_receive
                0x080092c0       0x90 build/obj/usb_lld.o
                0x080092c0                usb_lld_prepare_receive
 .text.usb_lld_prepare_transmit
                0x08009350       0xb0 build/obj/usb_lld.o
                0x08009350                usb_lld_prepare_transmit
 .text.usb_lld_start_out
                0x08009400       0x40 build/obj/usb_lld.o
                0x08009400                usb_lld_start_out
 .text.usb_lld_start_in
                0x08009440       0x50 build/obj/usb_lld.o
                0x08009440                usb_lld_start_in
 .text.usb_lld_stall_out
                0x08009490       0x40 build/obj/usb_lld.o
                0x08009490                usb_lld_stall_out
 .text.usb_lld_stall_in
                0x080094d0       0x40 build/obj/usb_lld.o
                0x080094d0                usb_lld_stall_in
 .text.usb_lld_clear_out
                0x08009510       0x40 build/obj/usb_lld.o
                0x08009510                usb_lld_clear_out
 .text.usb_lld_clear_in
                0x08009550       0x40 build/obj/usb_lld.o
                0x08009550                usb_lld_clear_in
 .text.spi_lld_init
                0x08009590       0x50 build/obj/spi_lld.o
                0x08009590                spi_lld_init
 .text.port_lock
                0x080095e0       0x20 build/obj/st_lld.o
 .text.port_unlock
                0x08009600       0x20 build/obj/st_lld.o
 .text.port_lock_from_isr
                0x08009620       0x10 build/obj/st_lld.o
 .text.port_unlock_from_isr
                0x08009630       0x10 build/obj/st_lld.o
 .text.chSysLockFromISR
                0x08009640       0x20 build/obj/st_lld.o
 .text.chSysUnlockFromISR
                0x08009660       0x20 build/obj/st_lld.o
 .text.osalSysLockFromISR
                0x08009680       0x10 build/obj/st_lld.o
 .text.osalSysUnlockFromISR
                0x08009690       0x10 build/obj/st_lld.o
 .text.osalOsTimerHandlerI
                0x080096a0       0x10 build/obj/st_lld.o
 .text.VectorB0
                0x080096b0       0x40 build/obj/st_lld.o
                0x080096b0                VectorB0
 .text.st_lld_init
                0x080096f0       0x80 build/obj/st_lld.o
                0x080096f0                st_lld_init
 .text.port_lock
                0x08009770       0x20 build/obj/serial_lld.o
 .text.port_unlock
                0x08009790       0x20 build/obj/serial_lld.o
 .text.port_lock_from_isr
                0x080097b0       0x10 build/obj/serial_lld.o
 .text.port_unlock_from_isr
                0x080097c0       0x10 build/obj/serial_lld.o
 .text.chSysLockFromISR
                0x080097d0       0x20 build/obj/serial_lld.o
 .text.chSysUnlockFromISR
                0x080097f0       0x20 build/obj/serial_lld.o
 .text.chOQIsEmptyI
                0x08009810       0x40 build/obj/serial_lld.o
 .text.osalSysLockFromISR
                0x08009850       0x10 build/obj/serial_lld.o
 .text.osalSysUnlockFromISR
                0x08009860       0x10 build/obj/serial_lld.o
 .text.osalEventBroadcastFlagsI
                0x08009870       0x20 build/obj/serial_lld.o
 .text.set_error
                0x08009890       0x70 build/obj/serial_lld.o
 .text.serve_interrupt
                0x08009900      0x130 build/obj/serial_lld.o
 .text.notify1  0x08009a30       0x30 build/obj/serial_lld.o
 .text.notify4  0x08009a60       0x30 build/obj/serial_lld.o
 .text.VectorD4
                0x08009a90       0x20 build/obj/serial_lld.o
                0x08009a90                VectorD4
 .text.Vector110
                0x08009ab0       0x20 build/obj/serial_lld.o
                0x08009ab0                Vector110
 .text.sd_lld_init
                0x08009ad0       0x50 build/obj/serial_lld.o
                0x08009ad0                sd_lld_init
 .text.__early_init
                0x08009b20       0x10 build/obj/board.o
                0x08009b20                __early_init
 .text.sdc_lld_is_card_inserted
                0x08009b30       0x60 build/obj/board.o
                0x08009b30                sdc_lld_is_card_inserted
 .text.sdc_lld_is_write_protected
                0x08009b90       0x20 build/obj/board.o
                0x08009b90                sdc_lld_is_write_protected
 .text.boardInit
                0x08009bb0       0x30 build/obj/board.o
                0x08009bb0                boardInit
 .text.port_lock
                0x08009be0       0x20 build/obj/lwipthread.o
 .text.port_unlock
                0x08009c00       0x20 build/obj/lwipthread.o
 .text.chSysLock
                0x08009c20       0x20 build/obj/lwipthread.o
 .text.chSysUnlock
                0x08009c40       0x40 build/obj/lwipthread.o
 .text.chThdGetSelfX
                0x08009c80       0x20 build/obj/lwipthread.o
 .text.chThdGetPriorityX
                0x08009ca0       0x10 build/obj/lwipthread.o
 .text.chRegSetThreadName
                0x08009cb0       0x20 build/obj/lwipthread.o
 .text.chEvtRegisterMask
                0x08009cd0       0x20 build/obj/lwipthread.o
 .text.low_level_init
                0x08009cf0       0x30 build/obj/lwipthread.o
 .text.low_level_output
                0x08009d20       0x80 build/obj/lwipthread.o
 .text.low_level_input
                0x08009da0       0xb0 build/obj/lwipthread.o
 .text.ethernetif_init
                0x08009e50       0x50 build/obj/lwipthread.o
 .text.lwip_thread
                0x08009ea0      0x200 build/obj/lwipthread.o
 .text.lwipInit
                0x0800a0a0       0x50 build/obj/lwipthread.o
                0x0800a0a0                lwipInit
 .text.port_lock
                0x0800a0f0       0x20 build/obj/sys_arch.o
 .text.port_unlock
                0x0800a110       0x20 build/obj/sys_arch.o
 .text.st_lld_get_counter
                0x0800a130       0x20 build/obj/sys_arch.o
 .text.port_timer_get_time
                0x0800a150       0x10 build/obj/sys_arch.o
 .text.chSysLock
                0x0800a160       0x20 build/obj/sys_arch.o
 .text.chSysUnlock
                0x0800a180       0x40 build/obj/sys_arch.o
 .text.chVTGetSystemTimeX
                0x0800a1c0       0x10 build/obj/sys_arch.o
 .text.chThdStartI
                0x0800a1d0       0x30 build/obj/sys_arch.o
 .text.chRegSetThreadNameX
                0x0800a200       0x20 build/obj/sys_arch.o
 .text.chSemGetCounterI
                0x0800a220       0x20 build/obj/sys_arch.o
 .text.chMBGetUsedCountI
                0x0800a240       0x20 build/obj/sys_arch.o
 .text.osalSysLock
                0x0800a260       0x10 build/obj/sys_arch.o
 .text.osalSysUnlock
                0x0800a270       0x10 build/obj/sys_arch.o
 .text.osalOsGetSystemTimeX
                0x0800a280       0x10 build/obj/sys_arch.o
 .text.sys_init
                0x0800a290       0x10 build/obj/sys_arch.o
                0x0800a290                sys_init
 .text.sys_sem_new
                0x0800a2a0       0x80 build/obj/sys_arch.o
                0x0800a2a0                sys_sem_new
 .text.sys_sem_free
                0x0800a320       0x40 build/obj/sys_arch.o
                0x0800a320                sys_sem_free
 .text.sys_sem_signal
                0x0800a360       0x20 build/obj/sys_arch.o
                0x0800a360                sys_sem_signal
 .text.sys_arch_sem_wait
                0x0800a380       0x60 build/obj/sys_arch.o
                0x0800a380                sys_arch_sem_wait
 .text.sys_sem_valid
                0x0800a3e0       0x30 build/obj/sys_arch.o
                0x0800a3e0                sys_sem_valid
 .text.sys_sem_set_invalid
                0x0800a410       0x20 build/obj/sys_arch.o
                0x0800a410                sys_sem_set_invalid
 .text.sys_mbox_new
                0x0800a430       0x70 build/obj/sys_arch.o
                0x0800a430                sys_mbox_new
 .text.sys_mbox_free
                0x0800a4a0       0x70 build/obj/sys_arch.o
                0x0800a4a0                sys_mbox_free
 .text.sys_mbox_post
                0x0800a510       0x30 build/obj/sys_arch.o
                0x0800a510                sys_mbox_post
 .text.sys_mbox_trypost
                0x0800a540       0x50 build/obj/sys_arch.o
                0x0800a540                sys_mbox_trypost
 .text.sys_arch_mbox_fetch
                0x0800a590       0x60 build/obj/sys_arch.o
                0x0800a590                sys_arch_mbox_fetch
 .text.sys_arch_mbox_tryfetch
                0x0800a5f0       0x30 build/obj/sys_arch.o
                0x0800a5f0                sys_arch_mbox_tryfetch
 .text.sys_mbox_valid
                0x0800a620       0x30 build/obj/sys_arch.o
                0x0800a620                sys_mbox_valid
 .text.sys_mbox_set_invalid
                0x0800a650       0x20 build/obj/sys_arch.o
                0x0800a650                sys_mbox_set_invalid
 .text.sys_thread_new
                0x0800a670       0x90 build/obj/sys_arch.o
                0x0800a670                sys_thread_new
 .text.osalSysHalt
                0x0800a700       0x20 build/obj/etharp.o
 .text.etharp_free_entry
                0x0800a720       0x70 build/obj/etharp.o
 .text.etharp_tmr
                0x0800a790       0xe0 build/obj/etharp.o
                0x0800a790                etharp_tmr
 .text.etharp_find_entry
                0x0800a870      0x260 build/obj/etharp.o
 .text.etharp_send_ip
                0x0800aad0       0x70 build/obj/etharp.o
 .text.etharp_update_arp_entry
                0x0800ab40      0x140 build/obj/etharp.o
 .text.etharp_arp_input
                0x0800ac80      0x1f0 build/obj/etharp.o
 .text.etharp_output_to_arp_index
                0x0800ae70       0xc0 build/obj/etharp.o
 .text.etharp_output
                0x0800af30      0x1e0 build/obj/etharp.o
                0x0800af30                etharp_output
 .text.etharp_query
                0x0800b110      0x280 build/obj/etharp.o
                0x0800b110                etharp_query
 .text.etharp_raw
                0x0800b390      0x150 build/obj/etharp.o
 .text.etharp_request
                0x0800b4e0       0x50 build/obj/etharp.o
                0x0800b4e0                etharp_request
 .text.ethernet_input
                0x0800b530      0x140 build/obj/etharp.o
                0x0800b530                ethernet_input
 .text.lwip_init
                0x0800b670       0x30 build/obj/init.o
                0x0800b670                lwip_init
 .text.osalSysHalt
                0x0800b6a0       0x20 build/obj/mem.o
 .text.plug_holes
                0x0800b6c0      0x110 build/obj/mem.o
 .text.mem_init
                0x0800b7d0       0xa0 build/obj/mem.o
                0x0800b7d0                mem_init
 .text.mem_free
                0x0800b870       0xf0 build/obj/mem.o
                0x0800b870                mem_free
 .text.mem_trim
                0x0800b960      0x200 build/obj/mem.o
                0x0800b960                mem_trim
 .text.mem_malloc
                0x0800bb60      0x250 build/obj/mem.o
                0x0800bb60                mem_malloc
 .text.osalSysHalt
                0x0800bdb0       0x20 build/obj/memp.o
 .text.memp_init
                0x0800bdd0      0x100 build/obj/memp.o
                0x0800bdd0                memp_init
 .text.memp_malloc
                0x0800bed0      0x110 build/obj/memp.o
                0x0800bed0                memp_malloc
 .text.memp_free
                0x0800bfe0       0x80 build/obj/memp.o
                0x0800bfe0                memp_free
 .text.osalSysHalt
                0x0800c060       0x20 build/obj/netif.o
 .text.netif_init
                0x0800c080       0x10 build/obj/netif.o
                0x0800c080                netif_init
 .text.netif_add
                0x0800c090       0xa0 build/obj/netif.o
                0x0800c090                netif_add
 .text.netif_set_addr
                0x0800c130       0x30 build/obj/netif.o
                0x0800c130                netif_set_addr
 .text.netif_set_ipaddr
                0x0800c160       0xb0 build/obj/netif.o
                0x0800c160                netif_set_ipaddr
 .text.netif_set_gw
                0x0800c210       0x30 build/obj/netif.o
                0x0800c210                netif_set_gw
 .text.netif_set_netmask
                0x0800c240       0x30 build/obj/netif.o
                0x0800c240                netif_set_netmask
 .text.netif_set_default
                0x0800c270       0x20 build/obj/netif.o
                0x0800c270                netif_set_default
 .text.netif_set_up
                0x0800c290       0x60 build/obj/netif.o
                0x0800c290                netif_set_up
 .text.netif_set_link_up
                0x0800c2f0       0x60 build/obj/netif.o
                0x0800c2f0                netif_set_link_up
 .text.netif_set_link_down
                0x0800c350       0x40 build/obj/netif.o
                0x0800c350                netif_set_link_down
 .text.osalSysHalt
                0x0800c390       0x20 build/obj/pbuf.o
 .text.pbuf_free_ooseq
                0x0800c3b0       0x50 build/obj/pbuf.o
 .text.pbuf_free_ooseq_callback
                0x0800c400       0x20 build/obj/pbuf.o
 .text.pbuf_pool_is_empty
                0x0800c420       0x40 build/obj/pbuf.o
 .text.pbuf_alloc
                0x0800c460      0x2c0 build/obj/pbuf.o
                0x0800c460                pbuf_alloc
 .text.pbuf_alloced_custom
                0x0800c720       0xc0 build/obj/pbuf.o
                0x0800c720                pbuf_alloced_custom
 .text.pbuf_realloc
                0x0800c7e0      0x120 build/obj/pbuf.o
                0x0800c7e0                pbuf_realloc
 .text.pbuf_header
                0x0800c900      0x100 build/obj/pbuf.o
                0x0800c900                pbuf_header
 .text.pbuf_free
                0x0800ca00      0x100 build/obj/pbuf.o
                0x0800ca00                pbuf_free
 .text.pbuf_clen
                0x0800cb00       0x30 build/obj/pbuf.o
                0x0800cb00                pbuf_clen
 .text.pbuf_ref
                0x0800cb30       0x30 build/obj/pbuf.o
                0x0800cb30                pbuf_ref
 .text.pbuf_cat
                0x0800cb60       0x90 build/obj/pbuf.o
                0x0800cb60                pbuf_cat
 .text.pbuf_copy
                0x0800cbf0      0x160 build/obj/pbuf.o
                0x0800cbf0                pbuf_copy
 .text.pbuf_copy_partial
                0x0800cd50       0xe0 build/obj/pbuf.o
                0x0800cd50                pbuf_copy_partial
 .text.raw_input
                0x0800ce30       0xc0 build/obj/raw.o
                0x0800ce30                raw_input
 .text.raw_bind
                0x0800cef0       0x30 build/obj/raw.o
                0x0800cef0                raw_bind
 .text.raw_recv
                0x0800cf20       0x30 build/obj/raw.o
                0x0800cf20                raw_recv
 .text.raw_remove
                0x0800cf50       0x60 build/obj/raw.o
                0x0800cf50                raw_remove
 .text.raw_new  0x0800cfb0       0x50 build/obj/raw.o
                0x0800cfb0                raw_new
 .text.stats_init
                0x0800d000       0x10 build/obj/stats.o
                0x0800d000                stats_init
 .text.osalSysHalt
                0x0800d010       0x20 build/obj/tcp.o
 .text.tcp_init
                0x0800d030       0x10 build/obj/tcp.o
                0x0800d030                tcp_init
 .text.tcp_tmr  0x0800d040       0x30 build/obj/tcp.o
                0x0800d040                tcp_tmr
 .text.tcp_close_shutdown
                0x0800d070      0x260 build/obj/tcp.o
 .text.tcp_close
                0x0800d2d0       0x30 build/obj/tcp.o
                0x0800d2d0                tcp_close
 .text.tcp_shutdown
                0x0800d300       0x90 build/obj/tcp.o
                0x0800d300                tcp_shutdown
 .text.tcp_abandon
                0x0800d390       0xe0 build/obj/tcp.o
                0x0800d390                tcp_abandon
 .text.tcp_abort
                0x0800d470       0x20 build/obj/tcp.o
                0x0800d470                tcp_abort
 .text.tcp_bind
                0x0800d490       0xf0 build/obj/tcp.o
                0x0800d490                tcp_bind
 .text.tcp_accept_null
                0x0800d580       0x20 build/obj/tcp.o
 .text.tcp_listen_with_backlog
                0x0800d5a0      0x120 build/obj/tcp.o
                0x0800d5a0                tcp_listen_with_backlog
 .text.tcp_update_rcv_ann_wnd
                0x0800d6c0       0x90 build/obj/tcp.o
                0x0800d6c0                tcp_update_rcv_ann_wnd
 .text.tcp_recved
                0x0800d750       0x90 build/obj/tcp.o
                0x0800d750                tcp_recved
 .text.tcp_new_port
                0x0800d7e0       0x90 build/obj/tcp.o
 .text.tcp_slowtmr
                0x0800d870      0x500 build/obj/tcp.o
                0x0800d870                tcp_slowtmr
 .text.tcp_fasttmr
                0x0800dd70       0xa0 build/obj/tcp.o
                0x0800dd70                tcp_fasttmr
 .text.tcp_process_refused_data
                0x0800de10       0xd0 build/obj/tcp.o
                0x0800de10                tcp_process_refused_data
 .text.tcp_segs_free
                0x0800dee0       0x30 build/obj/tcp.o
                0x0800dee0                tcp_segs_free
 .text.tcp_seg_free
                0x0800df10       0x30 build/obj/tcp.o
                0x0800df10                tcp_seg_free
 .text.tcp_seg_copy
                0x0800df40       0x40 build/obj/tcp.o
                0x0800df40                tcp_seg_copy
 .text.tcp_recv_null
                0x0800df80       0x50 build/obj/tcp.o
                0x0800df80                tcp_recv_null
 .text.tcp_kill_prio
                0x0800dfd0       0x80 build/obj/tcp.o
 .text.tcp_kill_timewait
                0x0800e050       0x60 build/obj/tcp.o
 .text.tcp_alloc
                0x0800e0b0      0x150 build/obj/tcp.o
                0x0800e0b0                tcp_alloc
 .text.tcp_new  0x0800e200       0x10 build/obj/tcp.o
                0x0800e200                tcp_new
 .text.tcp_arg  0x0800e210       0x20 build/obj/tcp.o
                0x0800e210                tcp_arg
 .text.tcp_recv
                0x0800e230       0x30 build/obj/tcp.o
                0x0800e230                tcp_recv
 .text.tcp_sent
                0x0800e260       0x30 build/obj/tcp.o
                0x0800e260                tcp_sent
 .text.tcp_err  0x0800e290       0x30 build/obj/tcp.o
                0x0800e290                tcp_err
 .text.tcp_accept
                0x0800e2c0       0x20 build/obj/tcp.o
                0x0800e2c0                tcp_accept
 .text.tcp_poll
                0x0800e2e0       0x40 build/obj/tcp.o
                0x0800e2e0                tcp_poll
 .text.tcp_pcb_purge
                0x0800e320       0x80 build/obj/tcp.o
                0x0800e320                tcp_pcb_purge
 .text.tcp_pcb_remove
                0x0800e3a0       0xe0 build/obj/tcp.o
                0x0800e3a0                tcp_pcb_remove
 .text.tcp_next_iss
                0x0800e480       0x30 build/obj/tcp.o
                0x0800e480                tcp_next_iss
 .text.tcp_eff_send_mss
                0x0800e4b0       0x40 build/obj/tcp.o
                0x0800e4b0                tcp_eff_send_mss
 .text.osalSysHalt
                0x0800e4f0       0x20 build/obj/tcp_in.o
 .text.tcp_input
                0x0800e510      0x730 build/obj/tcp_in.o
                0x0800e510                tcp_input
 .text.tcp_listen_input
                0x0800ec40      0x1b0 build/obj/tcp_in.o
 .text.tcp_timewait_input
                0x0800edf0       0xe0 build/obj/tcp_in.o
 .text.tcp_process
                0x0800eed0      0x700 build/obj/tcp_in.o
 .text.tcp_oos_insert_segment
                0x0800f5d0       0xf0 build/obj/tcp_in.o
 .text.tcp_receive
                0x0800f6c0      0xfb0 build/obj/tcp_in.o
 .text.tcp_parseopt
                0x08010670      0x100 build/obj/tcp_in.o
 .text.osalSysHalt
                0x08010770       0x20 build/obj/tcp_out.o
 .text.tcp_output_alloc_header
                0x08010790       0xf0 build/obj/tcp_out.o
 .text.tcp_send_fin
                0x08010880       0x80 build/obj/tcp_out.o
                0x08010880                tcp_send_fin
 .text.tcp_create_segment
                0x08010900      0x120 build/obj/tcp_out.o
 .text.tcp_pbuf_prealloc
                0x08010a20       0xc0 build/obj/tcp_out.o
 .text.tcp_write_checks
                0x08010ae0       0xf0 build/obj/tcp_out.o
 .text.tcp_write
                0x08010bd0      0x510 build/obj/tcp_out.o
                0x08010bd0                tcp_write
 .text.tcp_enqueue_flags
                0x080110e0      0x230 build/obj/tcp_out.o
                0x080110e0                tcp_enqueue_flags
 .text.tcp_send_empty_ack
                0x08011310       0xa0 build/obj/tcp_out.o
                0x08011310                tcp_send_empty_ack
 .text.tcp_output
                0x080113b0      0x2d0 build/obj/tcp_out.o
                0x080113b0                tcp_output
 .text.tcp_output_segment
                0x08011680      0x190 build/obj/tcp_out.o
 .text.tcp_rst  0x08011810      0x100 build/obj/tcp_out.o
                0x08011810                tcp_rst
 .text.tcp_rexmit_rto
                0x08011910       0x60 build/obj/tcp_out.o
                0x08011910                tcp_rexmit_rto
 .text.tcp_rexmit
                0x08011970       0xa0 build/obj/tcp_out.o
                0x08011970                tcp_rexmit
 .text.tcp_rexmit_fast
                0x08011a10       0xb0 build/obj/tcp_out.o
                0x08011a10                tcp_rexmit_fast
 .text.tcp_keepalive
                0x08011ac0       0x90 build/obj/tcp_out.o
                0x08011ac0                tcp_keepalive
 .text.tcp_zero_window_probe
                0x08011b50      0x120 build/obj/tcp_out.o
                0x08011b50                tcp_zero_window_probe
 .text.osalSysHalt
                0x08011c70       0x20 build/obj/udp.o
 .text.udp_init
                0x08011c90       0x10 build/obj/udp.o
                0x08011c90                udp_init
 .text.udp_new_port
                0x08011ca0       0x80 build/obj/udp.o
 .text.udp_input
                0x08011d20      0x310 build/obj/udp.o
                0x08011d20                udp_input
 .text.udp_bind
                0x08012030       0xd0 build/obj/udp.o
                0x08012030                udp_bind
 .text.udp_recv
                0x08012100       0x30 build/obj/udp.o
                0x08012100                udp_recv
 .text.udp_remove
                0x08012130       0x60 build/obj/udp.o
                0x08012130                udp_remove
 .text.udp_new  0x08012190       0x30 build/obj/udp.o
                0x08012190                udp_new
 .text.osalSysHalt
                0x080121c0       0x20 build/obj/icmp.o
 .text.icmp_input
                0x080121e0      0x2d0 build/obj/icmp.o
                0x080121e0                icmp_input
 .text.icmp_dest_unreach
                0x080124b0       0x20 build/obj/icmp.o
                0x080124b0                icmp_dest_unreach
 .text.icmp_time_exceeded
                0x080124d0       0x20 build/obj/icmp.o
                0x080124d0                icmp_time_exceeded
 .text.icmp_send_response
                0x080124f0       0xe0 build/obj/icmp.o
 .text.lwip_standard_chksum
                0x080125d0       0xc0 build/obj/inet_chksum.o
 .text.inet_chksum_pseudo
                0x08012690      0x110 build/obj/inet_chksum.o
                0x08012690                inet_chksum_pseudo
 .text.inet_chksum
                0x080127a0       0x30 build/obj/inet_chksum.o
                0x080127a0                inet_chksum
 .text.inet_chksum_pbuf
                0x080127d0       0xa0 build/obj/inet_chksum.o
                0x080127d0                inet_chksum_pbuf
 .text.osalSysHalt
                0x08012870       0x20 build/obj/ip.o
 .text.ip_route
                0x08012890       0x90 build/obj/ip.o
                0x08012890                ip_route
 .text.ip_input
                0x08012920      0x2e0 build/obj/ip.o
                0x08012920                ip_input
 .text.ip_output_if
                0x08012c00      0x1f0 build/obj/ip.o
                0x08012c00                ip_output_if
 .text.ip_output
                0x08012df0       0x70 build/obj/ip.o
                0x08012df0                ip_output
 .text.ip4_addr_isbroadcast
                0x08012e60       0x80 build/obj/ip_addr.o
                0x08012e60                ip4_addr_isbroadcast
 .text.osalSysHalt
                0x08012ee0       0x20 build/obj/ip_frag.o
 .text.ip_reass_tmr
                0x08012f00       0x60 build/obj/ip_frag.o
                0x08012f00                ip_reass_tmr
 .text.ip_reass_free_complete_datagram
                0x08012f60      0x130 build/obj/ip_frag.o
 .text.ip_reass_remove_oldest_datagram
                0x08013090       0xc0 build/obj/ip_frag.o
 .text.ip_reass_enqueue_new_datagram
                0x08013150       0x90 build/obj/ip_frag.o
 .text.ip_reass_dequeue_datagram
                0x080131e0       0x50 build/obj/ip_frag.o
 .text.ip_reass_chain_frag_into_datagram_and_validate
                0x08013230      0x270 build/obj/ip_frag.o
 .text.ip_reass
                0x080134a0      0x290 build/obj/ip_frag.o
                0x080134a0                ip_reass
 .text.ip_frag_alloc_pbuf_custom_ref
                0x08013730       0x10 build/obj/ip_frag.o
 .text.ip_frag_free_pbuf_custom_ref
                0x08013740       0x30 build/obj/ip_frag.o
 .text.ipfrag_free_pbuf_custom
                0x08013770       0x50 build/obj/ip_frag.o
 .text.ip_frag  0x080137c0      0x220 build/obj/ip_frag.o
                0x080137c0                ip_frag
 .text.lwip_htons
                0x080139e0       0x30 build/obj/def.o
                0x080139e0                lwip_htons
 .text.lwip_ntohs
                0x08013a10       0x20 build/obj/def.o
                0x08013a10                lwip_ntohs
 .text.lwip_htonl
                0x08013a30       0x40 build/obj/def.o
                0x08013a30                lwip_htonl
 .text.lwip_ntohl
                0x08013a70       0x20 build/obj/def.o
                0x08013a70                lwip_ntohl
 .text.osalSysHalt
                0x08013a90       0x20 build/obj/timers.o
 .text.tcpip_tcp_timer
                0x08013ab0       0x50 build/obj/timers.o
 .text.tcp_timer_needed
                0x08013b00       0x40 build/obj/timers.o
                0x08013b00                tcp_timer_needed
 .text.ip_reass_timer
                0x08013b40       0x30 build/obj/timers.o
 .text.arp_timer
                0x08013b70       0x30 build/obj/timers.o
 .text.sys_timeouts_init
                0x08013ba0       0x30 build/obj/timers.o
                0x08013ba0                sys_timeouts_init
 .text.sys_timeout
                0x08013bd0       0xf0 build/obj/timers.o
                0x08013bd0                sys_timeout
 .text.sys_untimeout
                0x08013cc0       0x90 build/obj/timers.o
                0x08013cc0                sys_untimeout
 .text.sys_timeouts_mbox_fetch
                0x08013d50       0xb0 build/obj/timers.o
                0x08013d50                sys_timeouts_mbox_fetch
 .text.osalSysHalt
                0x08013e00       0x20 build/obj/api_lib.o
 .text.netconn_new_with_proto_and_callback
                0x08013e20       0xd0 build/obj/api_lib.o
                0x08013e20                netconn_new_with_proto_and_callback
 .text.netconn_delete
                0x08013ef0       0x40 build/obj/api_lib.o
                0x08013ef0                netconn_delete
 .text.netconn_bind
                0x08013f30       0x70 build/obj/api_lib.o
                0x08013f30                netconn_bind
 .text.netconn_listen_with_backlog
                0x08013fa0       0x60 build/obj/api_lib.o
                0x08013fa0                netconn_listen_with_backlog
 .text.netconn_accept
                0x08014000       0xc0 build/obj/api_lib.o
                0x08014000                netconn_accept
 .text.netconn_recv_data
                0x080140c0      0x140 build/obj/api_lib.o
 .text.netconn_recv
                0x08014200      0x100 build/obj/api_lib.o
                0x08014200                netconn_recv
 .text.netconn_write_partly
                0x08014300       0xf0 build/obj/api_lib.o
                0x08014300                netconn_write_partly
 .text.netconn_close_shutdown
                0x080143f0       0x70 build/obj/api_lib.o
 .text.netconn_close
                0x08014460       0x20 build/obj/api_lib.o
                0x08014460                netconn_close
 .text.osalSysHalt
                0x08014480       0x20 build/obj/api_msg.o
 .text.recv_raw
                0x080144a0       0xe0 build/obj/api_msg.o
 .text.recv_udp
                0x08014580       0xe0 build/obj/api_msg.o
 .text.recv_tcp
                0x08014660       0xe0 build/obj/api_msg.o
 .text.poll_tcp
                0x08014740       0xa0 build/obj/api_msg.o
 .text.sent_tcp
                0x080147e0       0xa0 build/obj/api_msg.o
 .text.err_tcp  0x08014880      0x130 build/obj/api_msg.o
 .text.setup_tcp
                0x080149b0       0x50 build/obj/api_msg.o
 .text.accept_function
                0x08014a00       0xe0 build/obj/api_msg.o
 .text.pcb_new  0x08014ae0      0x100 build/obj/api_msg.o
 .text.do_newconn
                0x08014be0       0x30 build/obj/api_msg.o
                0x08014be0                do_newconn
 .text.netconn_alloc
                0x08014c10       0xe0 build/obj/api_msg.o
                0x08014c10                netconn_alloc
 .text.netconn_free
                0x08014cf0       0x70 build/obj/api_msg.o
                0x08014cf0                netconn_free
 .text.netconn_drain
                0x08014d60      0x110 build/obj/api_msg.o
 .text.do_close_internal
                0x08014e70      0x200 build/obj/api_msg.o
 .text.do_delconn
                0x08015070      0x160 build/obj/api_msg.o
                0x08015070                do_delconn
 .text.do_bind  0x080151d0       0xc0 build/obj/api_msg.o
                0x080151d0                do_bind
 .text.do_listen
                0x08015290      0x130 build/obj/api_msg.o
                0x08015290                do_listen
 .text.do_recv  0x080153c0       0x70 build/obj/api_msg.o
                0x080153c0                do_recv
 .text.do_writemore
                0x08015430      0x250 build/obj/api_msg.o
 .text.do_write
                0x08015680       0xc0 build/obj/api_msg.o
                0x08015680                do_write
 .text.do_close
                0x08015740       0xd0 build/obj/api_msg.o
                0x08015740                do_close
 .text.osalSysHalt
                0x08015810       0x20 build/obj/netbuf.o
 .text.netbuf_delete
                0x08015830       0x40 build/obj/netbuf.o
                0x08015830                netbuf_delete
 .text.netbuf_data
                0x08015870       0x80 build/obj/netbuf.o
                0x08015870                netbuf_data
 .text.lwip_socket_init
                0x080158f0       0x10 build/obj/sockets.o
                0x080158f0                lwip_socket_init
 .text.osalSysHalt
                0x08015900       0x20 build/obj/tcpip.o
 .text.tcpip_thread
                0x08015920      0x120 build/obj/tcpip.o
 .text.tcpip_input
                0x08015a40       0x70 build/obj/tcpip.o
                0x08015a40                tcpip_input
 .text.tcpip_callback_with_block
                0x08015ab0       0x80 build/obj/tcpip.o
                0x08015ab0                tcpip_callback_with_block
 .text.tcpip_apimsg
                0x08015b30       0x50 build/obj/tcpip.o
                0x08015b30                tcpip_apimsg
 .text.tcpip_init
                0x08015b80       0x60 build/obj/tcpip.o
                0x08015b80                tcpip_init
 .text.port_lock
                0x08015be0       0x20 build/obj/evtimer.o
 .text.port_unlock
                0x08015c00       0x20 build/obj/evtimer.o
 .text.port_lock_from_isr
                0x08015c20       0x10 build/obj/evtimer.o
 .text.port_unlock_from_isr
                0x08015c30       0x10 build/obj/evtimer.o
 .text.chSysLock
                0x08015c40       0x20 build/obj/evtimer.o
 .text.chSysUnlock
                0x08015c60       0x40 build/obj/evtimer.o
 .text.chSysLockFromISR
                0x08015ca0       0x20 build/obj/evtimer.o
 .text.chSysUnlockFromISR
                0x08015cc0       0x20 build/obj/evtimer.o
 .text.chVTObjectInit
                0x08015ce0       0x20 build/obj/evtimer.o
 .text.chVTIsArmedI
                0x08015d00       0x30 build/obj/evtimer.o
 .text.chVTResetI
                0x08015d30       0x20 build/obj/evtimer.o
 .text.chVTSetI
                0x08015d50       0x30 build/obj/evtimer.o
 .text.chVTSet  0x08015d80       0x30 build/obj/evtimer.o
 .text.chEvtObjectInit
                0x08015db0       0x20 build/obj/evtimer.o
 .text.chEvtBroadcastI
                0x08015dd0       0x20 build/obj/evtimer.o
 .text.tmrcb    0x08015df0       0x40 build/obj/evtimer.o
 .text.evtObjectInit
                0x08015e30       0x30 build/obj/evtimer.o
                0x08015e30                evtObjectInit
 .text.evtStart
                0x08015e60       0x30 build/obj/evtimer.o
                0x08015e60                evtStart
 .text.chRegSetThreadName
                0x08015e90       0x20 build/obj/main.o
 .text.Thread1  0x08015eb0       0x30 build/obj/main.o
 .text.main     0x08015ee0       0x60 build/obj/main.o
                0x08015ee0                main
 .text.osalSysHalt
                0x08015f40       0x20 build/obj/web.o
 .text.chprintf
                0x08015f60       0x30 build/obj/web.o
 .text.http_server_serve
                0x08015f90       0x80 build/obj/web.o
 .text.http_server
                0x08016010       0x90 build/obj/web.o
                0x08016010                http_server
 .text.memcmp   0x080160a0       0x68 c:/emtechesdk/gcc/bin/../lib/gcc/arm-none-eabi/4.8.3/../../../../arm-none-eabi/lib/armv7e-m\libg.a(lib_a-memcmp.o)
                0x080160a0                memcmp
 *fill*         0x08016108        0x8 
 .text.memset   0x08016110       0x94 c:/emtechesdk/gcc/bin/../lib/gcc/arm-none-eabi/4.8.3/../../../../arm-none-eabi/lib/armv7e-m\libg.a(lib_a-memset.o)
                0x08016110                memset
 *fill*         0x080161a4        0xc 
 .text.strncmp  0x080161b0       0xb4 c:/emtechesdk/gcc/bin/../lib/gcc/arm-none-eabi/4.8.3/../../../../arm-none-eabi/lib/armv7e-m\libg.a(lib_a-strncmp.o)
                0x080161b0                strncmp
 *(.rodata)
 *fill*         0x08016264        0xc 
 .rodata        0x08016270        0x8 build/obj/chsys.o
 *fill*         0x08016278        0x8 
 .rodata        0x08016280       0x58 build/obj/chdebug.o
 *fill*         0x080162d8        0x8 
 .rodata        0x080162e0       0x10 build/obj/chschd.o
 .rodata        0x080162f0        0x8 build/obj/chprintf.o
 *fill*         0x080162f8        0x8 
 .rodata        0x08016300        0xc build/obj/mac_lld.o
 *fill*         0x0801630c        0x4 
 .rodata        0x08016310        0xc build/obj/lwipthread.o
 *fill*         0x0801631c        0x4 
 .rodata        0x08016320      0x220 build/obj/etharp.o
 .rodata        0x08016540      0x1c0 build/obj/mem.o
 .rodata        0x08016700       0x64 build/obj/memp.o
 *fill*         0x08016764        0xc 
 .rodata        0x08016770       0x18 build/obj/netif.o
 *fill*         0x08016788        0x8 
 .rodata        0x08016790      0x480 build/obj/pbuf.o
 .rodata        0x08016c10      0x3f0 build/obj/tcp.o
 .rodata        0x08017000      0x2d0 build/obj/tcp_in.o
 .rodata        0x080172d0      0x354 build/obj/tcp_out.o
 *fill*         0x08017624        0xc 
 .rodata        0x08017630       0x64 build/obj/udp.o
 *fill*         0x08017694        0xc 
 .rodata        0x080176a0      0x118 build/obj/icmp.o
 *fill*         0x080177b8        0x8 
 .rodata        0x080177c0       0x3c build/obj/ip.o
 *fill*         0x080177fc        0x4 
 .rodata        0x08017800      0x178 build/obj/ip_frag.o
 *fill*         0x08017978        0x8 
 .rodata        0x08017980       0x40 build/obj/timers.o
 .rodata        0x080179c0      0x2b0 build/obj/api_lib.o
 .rodata        0x08017c70      0x448 build/obj/api_msg.o
 *fill*         0x080180b8        0x8 
 .rodata        0x080180c0      0x104 build/obj/netbuf.o
 *fill*         0x080181c4        0xc 
 .rodata        0x080181d0       0x54 build/obj/tcpip.o
 *fill*         0x08018224        0xc 
 .rodata        0x08018230        0x8 build/obj/main.o
 *fill*         0x08018238        0x8 
 .rodata        0x08018240       0x38 build/obj/web.o
 *(.rodata.*)
 *fill*         0x08018278        0x8 
 .rodata.__func__.5928
                0x08018280        0xc build/obj/chsys.o
 *fill*         0x0801828c        0x4 
 .rodata.__func__.5842
                0x08018290        0xc build/obj/chsys.o
 *fill*         0x0801829c        0x4 
 .rodata.__func__.6545
                0x080182a0        0xc build/obj/chvt.o
 *fill*         0x080182ac        0x4 
 .rodata.__func__.6553
                0x080182b0       0x10 build/obj/chvt.o
 .rodata.__func__.6542
                0x080182c0        0xc build/obj/chschd.o
 *fill*         0x080182cc        0x4 
 .rodata.__func__.6554
                0x080182d0       0x10 build/obj/chthreads.o
 .rodata.__func__.5842
                0x080182e0        0xc build/obj/chthreads.o
 *fill*         0x080182ec        0x4 
 .rodata.__func__.6570
                0x080182f0       0x14 build/obj/chthreads.o
 *fill*         0x08018304        0xc 
 .rodata.__func__.6013
                0x08018310        0xc build/obj/chthreads.o
 *fill*         0x0801831c        0x4 
 .rodata.__func__.6598
                0x08018320        0xc build/obj/chthreads.o
 *fill*         0x0801832c        0x4 
 .rodata.__func__.6608
                0x08018330       0x10 build/obj/chthreads.o
 .rodata.__func__.6620
                0x08018340       0x10 build/obj/chthreads.o
 .rodata.__func__.6626
                0x08018350       0x10 build/obj/chthreads.o
 .rodata.__func__.6025
                0x08018360       0x14 build/obj/chthreads.o
 *fill*         0x08018374        0xc 
 .rodata.ch_debug
                0x08018380       0x18 build/obj/chregistry.o
                0x08018380                ch_debug
 *fill*         0x08018398        0x8 
 .rodata.__func__.6538
                0x080183a0       0x10 build/obj/chsem.o
 .rodata.__func__.5842
                0x080183b0        0xc build/obj/chsem.o
 *fill*         0x080183bc        0x4 
 .rodata.__func__.6548
                0x080183c0        0xc build/obj/chsem.o
 *fill*         0x080183cc        0x4 
 .rodata.__func__.6569
                0x080183d0       0x14 build/obj/chsem.o
 *fill*         0x080183e4        0xc 
 .rodata.__func__.6573
                0x080183f0        0xc build/obj/chsem.o
 *fill*         0x080183fc        0x4 
 .rodata.__func__.6577
                0x08018400       0x10 build/obj/chsem.o
 .rodata.__func__.6537
                0x08018410       0x10 build/obj/chmtx.o
 .rodata.__func__.5842
                0x08018420        0xc build/obj/chmtx.o
 *fill*         0x0801842c        0x4 
 .rodata.__func__.6545
                0x08018430        0xc build/obj/chmtx.o
 *fill*         0x0801843c        0x4 
 .rodata.__func__.6568
                0x08018440        0xc build/obj/chmtx.o
 *fill*         0x0801844c        0x4 
 .rodata.__func__.6540
                0x08018450       0x1c build/obj/chevents.o
 *fill*         0x0801846c        0x4 
 .rodata.__func__.5842
                0x08018470        0xc build/obj/chevents.o
 *fill*         0x0801847c        0x4 
 .rodata.__func__.6562
                0x08018480       0x18 build/obj/chevents.o
 *fill*         0x08018498        0x8 
 .rodata.__func__.6579
                0x080184a0       0x10 build/obj/chevents.o
 .rodata.__func__.6539
                0x080184b0       0x10 build/obj/chmboxes.o
 .rodata.__func__.5842
                0x080184c0        0xc build/obj/chmboxes.o
 *fill*         0x080184cc        0x4 
 .rodata.__func__.6546
                0x080184d0        0xc build/obj/chmboxes.o
 *fill*         0x080184dc        0x4 
 .rodata.__func__.6559
                0x080184e0        0xc build/obj/chmboxes.o
 *fill*         0x080184ec        0x4 
 .rodata.__func__.6595
                0x080184f0        0xc build/obj/chmboxes.o
 *fill*         0x080184fc        0x4 
 .rodata.__func__.5842
                0x08018500        0xc build/obj/chqueues.o
 *fill*         0x0801850c        0x4 
 .rodata.__func__.6565
                0x08018510       0x10 build/obj/chqueues.o
 .rodata.__func__.6601
                0x08018520       0x14 build/obj/chqueues.o
 *fill*         0x08018534        0xc 
 .rodata.__func__.5842
                0x08018540        0xc build/obj/chmemcore.o
 *fill*         0x0801854c        0x4 
 .rodata.__func__.6561
                0x08018550        0xc build/obj/chheap.o
 *fill*         0x0801855c        0x4 
 .rodata.__func__.7912
                0x08018560       0x14 build/obj/hal_mmcsd.o
 *fill*         0x08018574        0xc 
 .rodata.__func__.7919
                0x08018580       0x14 build/obj/hal_mmcsd.o
 *fill*         0x08018594        0xc 
 .rodata.__func__.7927
                0x080185a0       0x18 build/obj/hal_mmcsd.o
 *fill*         0x080185b8        0x8 
 .rodata.__func__.7913
                0x080185c0        0xc build/obj/mac.o
 *fill*         0x080185cc        0x4 
 .rodata.__func__.5842
                0x080185d0        0xc build/obj/mac.o
 *fill*         0x080185dc        0x4 
 .rodata.__func__.7925
                0x080185e0       0x1c build/obj/mac.o
 *fill*         0x080185fc        0x4 
 .rodata.__func__.7932
                0x08018600       0x20 build/obj/mac.o
 .rodata.__func__.7940
                0x08018620       0x1c build/obj/mac.o
 *fill*         0x0801863c        0x4 
 .rodata.__func__.7947
                0x08018640       0x1c build/obj/mac.o
 *fill*         0x0801865c        0x4 
 .rodata.__func__.7951
                0x08018660       0x14 build/obj/mac.o
 *fill*         0x08018674        0xc 
 .rodata.sdc_vmt
                0x08018680       0x20 build/obj/sdc.o
 .rodata.__func__.8305
                0x080186a0       0x14 build/obj/sdc.o
 *fill*         0x080186b4        0xc 
 .rodata.__func__.8312
                0x080186c0       0x14 build/obj/sdc.o
 *fill*         0x080186d4        0xc 
 .rodata.__func__.8356
                0x080186e0       0x14 build/obj/sdc.o
 *fill*         0x080186f4        0xc 
 .rodata.__func__.6186
                0x08018700        0xc build/obj/sdc.o
 *fill*         0x0801870c        0x4 
 .rodata.__func__.8388
                0x08018710        0xc build/obj/sdc.o
 *fill*         0x0801871c        0x4 
 .rodata.__func__.8399
                0x08018720       0x10 build/obj/sdc.o
 .rodata.__func__.8407
                0x08018730        0x8 build/obj/sdc.o
 *fill*         0x08018738        0x8 
 .rodata.__func__.8415
                0x08018740        0xc build/obj/sdc.o
 *fill*         0x0801874c        0x4 
 .rodata.__func__.8425
                0x08018750        0x8 build/obj/sdc.o
 *fill*         0x08018758        0x8 
 .rodata.__func__.8430
                0x08018760        0xc build/obj/sdc.o
 *fill*         0x0801876c        0x4 
 .rodata.vmt    0x08018770       0x20 build/obj/serial.o
 .rodata.__func__.7963
                0x08018790       0x10 build/obj/serial.o
 .rodata.__func__.7909
                0x080187a0       0x10 build/obj/st.o
 .rodata.__func__.7916
                0x080187b0        0xc build/obj/st.o
 *fill*         0x080187bc        0x4 
 .rodata.zero_status
                0x080187c0        0x4 build/obj/usb.o
 *fill*         0x080187c4        0xc 
 .rodata.active_status
                0x080187d0        0x4 build/obj/usb.o
 *fill*         0x080187d4        0xc 
 .rodata.halted_status
                0x080187e0        0x4 build/obj/usb.o
 *fill*         0x080187e4        0xc 
 .rodata.__func__.8356
                0x080187f0       0x14 build/obj/usb.o
 *fill*         0x08018804        0xc 
 .rodata.__func__.8361
                0x08018810       0x14 build/obj/usb.o
 *fill*         0x08018824        0xc 
 .rodata.__func__.8395
                0x08018830        0xc build/obj/usb.o
 *fill*         0x0801883c        0x4 
 .rodata.__func__.8409
                0x08018840        0xc build/obj/usb.o
 *fill*         0x0801884c        0x4 
 .rodata.pow10  0x08018850       0x24 build/obj/chprintf.o
 *fill*         0x08018874        0xc 
 .rodata._stm32_dma_streams
                0x08018880       0xc0 build/obj/stm32_dma.o
                0x08018880                _stm32_dma_streams
 .rodata.default_mac_address
                0x08018940        0x8 build/obj/mac_lld.o
 *fill*         0x08018948        0x8 
 .rodata.__func__.6186
                0x08018950        0xc build/obj/mac_lld.o
 *fill*         0x0801895c        0x4 
 .rodata.__func__.8322
                0x08018960       0x24 build/obj/mac_lld.o
 *fill*         0x08018984        0xc 
 .rodata.__func__.8334
                0x08018990       0x24 build/obj/mac_lld.o
 *fill*         0x080189b4        0xc 
 .rodata.__func__.8347
                0x080189c0       0x24 build/obj/mac_lld.o
 *fill*         0x080189e4        0xc 
 .rodata.__func__.8353
                0x080189f0       0x20 build/obj/mac_lld.o
 .rodata.__func__.8258
                0x08018a10       0x1c build/obj/sdc_lld.o
 *fill*         0x08018a2c        0x4 
 .rodata.__func__.6186
                0x08018a30        0xc build/obj/sdc_lld.o
 *fill*         0x08018a3c        0x4 
 .rodata.__func__.8380
                0x08018a40       0x18 build/obj/sdc_lld.o
 *fill*         0x08018a58        0x8 
 .rodata.__func__.8389
                0x08018a60       0x18 build/obj/sdc_lld.o
 *fill*         0x08018a78        0x8 
 .rodata.ep0config
                0x08018a80       0x24 build/obj/usb_lld.o
 *fill*         0x08018aa4        0xc 
 .rodata.fsparams
                0x08018ab0        0xc build/obj/usb_lld.o
 *fill*         0x08018abc        0x4 
 .rodata.hsparams
                0x08018ac0        0xc build/obj/usb_lld.o
 *fill*         0x08018acc        0x4 
 .rodata.__func__.8304
                0x08018ad0       0x10 build/obj/usb_lld.o
 .rodata.pal_default_config
                0x08018ae0       0xfc build/obj/board.o
                0x08018ae0                pal_default_config
 *fill*         0x08018bdc        0x4 
 .rodata.mac_config.8701
                0x08018be0        0x4 build/obj/lwipthread.o
 *fill*         0x08018be4        0xc 
 .rodata.__func__.5842
                0x08018bf0        0xc build/obj/lwipthread.o
 *fill*         0x08018bfc        0x4 
 .rodata.__func__.5842
                0x08018c00        0xc build/obj/sys_arch.o
 *fill*         0x08018c0c        0x4 
 .rodata.__func__.6009
                0x08018c10        0xc build/obj/sys_arch.o
 *fill*         0x08018c1c        0x4 
 .rodata.ethbroadcast
                0x08018c20        0x8 build/obj/etharp.o
                0x08018c20                ethbroadcast
 *fill*         0x08018c28        0x8 
 .rodata.ethzero
                0x08018c30        0x8 build/obj/etharp.o
                0x08018c30                ethzero
 *fill*         0x08018c38        0x8 
 .rodata.memp_sizes
                0x08018c40       0x1c build/obj/memp.o
 *fill*         0x08018c5c        0x4 
 .rodata.memp_num
                0x08018c60       0x1c build/obj/memp.o
 *fill*         0x08018c7c        0x4 
 .rodata.tcp_backoff
                0x08018c80       0x10 build/obj/tcp.o
                0x08018c80                tcp_backoff
 .rodata.tcp_persist_backoff
                0x08018c90        0x8 build/obj/tcp.o
                0x08018c90                tcp_persist_backoff
 *fill*         0x08018c98        0x8 
 .rodata.tcp_pcb_lists
                0x08018ca0       0x10 build/obj/tcp.o
                0x08018ca0                tcp_pcb_lists
 .rodata.__func__.5842
                0x08018cb0        0xc build/obj/evtimer.o
 *fill*         0x08018cbc        0x4 
 .rodata.http_index_html
                0x08018cc0       0x7c build/obj/web.o
 *(.glue_7t)
 .glue_7t       0x00000000        0x0 linker stubs
 *(.glue_7)
 .glue_7        0x00000000        0x0 linker stubs
 *(.gcc*)

.vfp11_veneer   0x08018d3c        0x0
 .vfp11_veneer  0x00000000        0x0 linker stubs

.v4_bx          0x08018d3c        0x0
 .v4_bx         0x00000000        0x0 linker stubs

.iplt           0x08018d3c        0x0
 .iplt          0x00000000        0x0 build/obj/crt0_v7m.o

.rel.dyn        0x08018d3c        0x0
 .rel.iplt      0x00000000        0x0 build/obj/crt0_v7m.o

.ARM.extab
 *(.ARM.extab* .gnu.linkonce.armextab.*)

.ARM.exidx      0x08018d3c        0x0
                0x08018d3c                PROVIDE (__exidx_start, .)
 *(.ARM.exidx* .gnu.linkonce.armexidx.*)
                0x08018d3c                PROVIDE (__exidx_end, .)

.eh_frame_hdr
 *(.eh_frame_hdr)

.eh_frame
 *(.eh_frame)

.textalign      0x08018d3c        0x4
                0x08018d40                . = ALIGN (0x8)
 *fill*         0x08018d3c        0x4 
                0x08018d40                . = ALIGN (0x4)
                0x08018d40                _etext = .
                0x08018d40                _textdata = _etext

.mstack         0x20000000      0x400
                0x20000000                . = ALIGN (0x8)
                0x20000000                __main_stack_base__ = .
                0x20000400                . = (. + __main_stack_size__)
 *fill*         0x20000000      0x400 
                0x20000400                . = ALIGN (0x8)
                0x20000400                __main_stack_end__ = .

.pstack         0x20000400      0x400
                0x20000400                __process_stack_base__ = .
                0x20000400                __main_thread_stack_base__ = .
                0x20000800                . = (. + __process_stack_size__)
 *fill*         0x20000400      0x400 
                0x20000800                . = ALIGN (0x8)
                0x20000800                __process_stack_end__ = .
                0x20000800                __main_thread_stack_end__ = .

.data           0x20000800        0xc load address 0x08018d40
                0x20000800                . = ALIGN (0x4)
                0x20000800                PROVIDE (_data, .)
 *(.data)
 *(.data.*)
 .data.tcp_port
                0x20000800        0x2 build/obj/tcp.o
 *fill*         0x20000802        0x2 
 .data.iss.9152
                0x20000804        0x4 build/obj/tcp.o
 .data.udp_port
                0x20000808        0x2 build/obj/udp.o
 *(.ramtext)
                0x2000080c                . = ALIGN (0x4)
 *fill*         0x2000080a        0x2 
                0x2000080c                PROVIDE (_edata, .)

.igot.plt       0x2000080c        0x0 load address 0x08018d4c
 .igot.plt      0x00000000        0x0 build/obj/crt0_v7m.o

.bss            0x20000810     0xb6e0 load address 0x08018d4c
                0x20000810                . = ALIGN (0x4)
                0x20000810                PROVIDE (_bss_start, .)
 *(.bss)
 *(.bss.*)
 .bss.ch        0x20000810      0x5e8 build/obj/chschd.o
                0x20000810                ch
 .bss.nextmem   0x20000df8        0x4 build/obj/chmemcore.o
 .bss.endmem    0x20000dfc        0x4 build/obj/chmemcore.o
 .bss.default_heap
                0x20000e00       0x20 build/obj/chheap.o
 .bss.dma_streams_mask
                0x20000e20        0x4 build/obj/stm32_dma.o
 .bss.dma_isr_redir
                0x20000e24       0x80 build/obj/stm32_dma.o
 .bss.ADCD1     0x20000ea4       0x34 build/obj/adc_lld.o
                0x20000ea4                ADCD1
 .bss.ETHD1     0x20000ed8       0x2c build/obj/mac_lld.o
                0x20000ed8                ETHD1
 .bss.rd        0x20000f04       0x40 build/obj/mac_lld.o
 .bss.td        0x20000f44       0x20 build/obj/mac_lld.o
 .bss.rb        0x20000f64     0x17d0 build/obj/mac_lld.o
 .bss.tb        0x20002734      0xbe8 build/obj/mac_lld.o
 .bss.SDCD1     0x2000331c       0x4c build/obj/sdc_lld.o
                0x2000331c                SDCD1
 .bss.u         0x20003368      0x200 build/obj/sdc_lld.o
 .bss.USBD1     0x20003568      0x1f0 build/obj/usb_lld.o
                0x20003568                USBD1
 .bss.USBD2     0x20003758      0x1f0 build/obj/usb_lld.o
                0x20003758                USBD2
 .bss.ep0_state
                0x20003948       0x14 build/obj/usb_lld.o
 .bss.ep0setup_buffer
                0x2000395c        0x8 build/obj/usb_lld.o
 .bss.SPID1     0x20003964       0x30 build/obj/spi_lld.o
                0x20003964                SPID1
 .bss.dummytx   0x20003994        0x2 build/obj/spi_lld.o
 *fill*         0x20003996        0x2 
 .bss.SD1       0x20003998     0x2058 build/obj/serial_lld.o
                0x20003998                SD1
 .bss.SD4       0x200059f0     0x2058 build/obj/serial_lld.o
                0x200059f0                SD4
 .bss.last_status.7910
                0x20007a48        0x1 build/obj/board.o
 *fill*         0x20007a49        0x3 
 .bss.lwip_trp  0x20007a4c        0x4 build/obj/lwipthread.o
                0x20007a4c                lwip_trp
 .bss.wa_lwip_thread
                0x20007a50      0x330 build/obj/lwipthread.o
 .bss.thisif.8700
                0x20007d80       0x30 build/obj/lwipthread.o
 .bss.arp_table
                0x20007db0       0xc8 build/obj/etharp.o
 .bss.etharp_cached_entry
                0x20007e78        0x1 build/obj/etharp.o
 *fill*         0x20007e79        0x3 
 .bss.ram_heap  0x20007e7c      0x654 build/obj/mem.o
                0x20007e7c                ram_heap
 .bss.ram       0x200084d0        0x4 build/obj/mem.o
 .bss.ram_end   0x200084d4        0x4 build/obj/mem.o
 .bss.lfree     0x200084d8        0x4 build/obj/mem.o
 .bss.mem_mutex
                0x200084dc        0x4 build/obj/mem.o
 .bss.memp_tab  0x200084e0       0x38 build/obj/memp.o
 .bss.memp_memory
                0x20008518     0x3114 build/obj/memp.o
 .bss.netif_list
                0x2000b62c        0x4 build/obj/netif.o
                0x2000b62c                netif_list
 .bss.netif_default
                0x2000b630        0x4 build/obj/netif.o
                0x2000b630                netif_default
 .bss.netif_num
                0x2000b634        0x1 build/obj/netif.o
 .bss.pbuf_free_ooseq_pending
                0x2000b635        0x1 build/obj/pbuf.o
                0x2000b635                pbuf_free_ooseq_pending
 *fill*         0x2000b636        0x2 
 .bss.raw_pcbs  0x2000b638        0x4 build/obj/raw.o
 .bss.lwip_stats
                0x2000b63c      0x150 build/obj/stats.o
                0x2000b63c                lwip_stats
 .bss.tcp_ticks
                0x2000b78c        0x4 build/obj/tcp.o
                0x2000b78c                tcp_ticks
 .bss.tcp_bound_pcbs
                0x2000b790        0x4 build/obj/tcp.o
                0x2000b790                tcp_bound_pcbs
 .bss.tcp_listen_pcbs
                0x2000b794        0x4 build/obj/tcp.o
                0x2000b794                tcp_listen_pcbs
 .bss.tcp_active_pcbs
                0x2000b798        0x4 build/obj/tcp.o
                0x2000b798                tcp_active_pcbs
 .bss.tcp_tw_pcbs
                0x2000b79c        0x4 build/obj/tcp.o
                0x2000b79c                tcp_tw_pcbs
 .bss.tcp_tmp_pcb
                0x2000b7a0        0x4 build/obj/tcp.o
                0x2000b7a0                tcp_tmp_pcb
 .bss.tcp_active_pcbs_changed
                0x2000b7a4        0x1 build/obj/tcp.o
                0x2000b7a4                tcp_active_pcbs_changed
 .bss.tcp_timer
                0x2000b7a5        0x1 build/obj/tcp.o
 .bss.tcp_timer_ctr
                0x2000b7a6        0x1 build/obj/tcp.o
 *fill*         0x2000b7a7        0x1 
 .bss.inseg     0x2000b7a8       0x10 build/obj/tcp_in.o
 .bss.tcphdr    0x2000b7b8        0x4 build/obj/tcp_in.o
 .bss.iphdr     0x2000b7bc        0x4 build/obj/tcp_in.o
 .bss.seqno     0x2000b7c0        0x4 build/obj/tcp_in.o
 .bss.ackno     0x2000b7c4        0x4 build/obj/tcp_in.o
 .bss.flags     0x2000b7c8        0x1 build/obj/tcp_in.o
 *fill*         0x2000b7c9        0x1 
 .bss.tcplen    0x2000b7ca        0x2 build/obj/tcp_in.o
 .bss.recv_flags
                0x2000b7cc        0x1 build/obj/tcp_in.o
 *fill*         0x2000b7cd        0x3 
 .bss.recv_data
                0x2000b7d0        0x4 build/obj/tcp_in.o
 .bss.tcp_input_pcb
                0x2000b7d4        0x4 build/obj/tcp_in.o
                0x2000b7d4                tcp_input_pcb
 .bss.udp_pcbs  0x2000b7d8        0x4 build/obj/udp.o
                0x2000b7d8                udp_pcbs
 .bss.current_netif
                0x2000b7dc        0x4 build/obj/ip.o
                0x2000b7dc                current_netif
 .bss.current_header
                0x2000b7e0        0x4 build/obj/ip.o
                0x2000b7e0                current_header
 .bss.current_iphdr_src
                0x2000b7e4        0x4 build/obj/ip.o
                0x2000b7e4                current_iphdr_src
 .bss.current_iphdr_dest
                0x2000b7e8        0x4 build/obj/ip.o
                0x2000b7e8                current_iphdr_dest
 .bss.ip_id     0x2000b7ec        0x2 build/obj/ip.o
 *fill*         0x2000b7ee        0x2 
 .bss.reassdatagrams
                0x2000b7f0        0x4 build/obj/ip_frag.o
 .bss.ip_reass_pbufcount
                0x2000b7f4        0x2 build/obj/ip_frag.o
 *fill*         0x2000b7f6        0x2 
 .bss.next_timeout
                0x2000b7f8        0x4 build/obj/timers.o
 .bss.tcpip_tcp_timer_active
                0x2000b7fc        0x4 build/obj/timers.o
 .bss.tcpip_init_done
                0x2000b800        0x4 build/obj/tcpip.o
 .bss.tcpip_init_done_arg
                0x2000b804        0x4 build/obj/tcpip.o
 .bss.mbox      0x2000b808        0x4 build/obj/tcpip.o
 *fill*         0x2000b80c        0x4 
 .bss.waThread1
                0x2000b810      0x1f0 build/obj/main.o
 .bss.wa_http_server
                0x2000ba00      0x4f0 build/obj/web.o
                0x2000ba00                wa_http_server
 *(COMMON)
                0x2000bef0                . = ALIGN (0x4)
                0x2000bef0                PROVIDE (_bss_end, .)
                0x2000bef0                PROVIDE (end, .)

.ram0           0x2000bef0        0x0 load address 0x08018d4c
                0x2000bef0                . = ALIGN (0x4)
 *(.ram0)
 *(.ram0.*)
                0x2000bef0                . = ALIGN (0x4)
                0x2000bef0                __ram0_free__ = .

.ram1           0x20000000        0x0
                0x20000000                . = ALIGN (0x4)
 *(.ram1)
 *(.ram1.*)
                0x20000000                . = ALIGN (0x4)
                0x20000000                __ram1_free__ = .

.ram2           0x2001c000        0x0
                0x2001c000                . = ALIGN (0x4)
 *(.ram2)
 *(.ram2.*)
                0x2001c000                . = ALIGN (0x4)
                0x2001c000                __ram2_free__ = .

.ram3           0x00000000        0x0
                0x00000000                . = ALIGN (0x4)
 *(.ram3)
 *(.ram3.*)
                0x00000000                . = ALIGN (0x4)
                0x00000000                __ram3_free__ = .

.ram4           0x10000000        0x0
                0x10000000                . = ALIGN (0x4)
 *(.ram4)
 *(.ram4.*)
                0x10000000                . = ALIGN (0x4)
                0x10000000                __ram4_free__ = .

.ram5           0x40024000        0x0
                0x40024000                . = ALIGN (0x4)
 *(.ram5)
 *(.ram5.*)
                0x40024000                . = ALIGN (0x4)
                0x40024000                __ram5_free__ = .

.ram6           0x00000000        0x0
                0x00000000                . = ALIGN (0x4)
 *(.ram6)
 *(.ram6.*)
                0x00000000                . = ALIGN (0x4)
                0x00000000                __ram6_free__ = .

.ram7           0x00000000        0x0
                0x00000000                . = ALIGN (0x4)
 *(.ram7)
 *(.ram7.*)
                0x00000000                . = ALIGN (0x4)
                0x00000000                __ram7_free__ = .
                0x2000bef0                __heap_base__ = __ram0_free__
                0x20020000                __heap_end__ = __ram0_end__
                0x00000400                __process_stack_size__ = 0x400
                0x00000400                __main_stack_size__ = 0x400
START GROUP
LOAD c:/emtechesdk/gcc/bin/../lib/gcc/arm-none-eabi/4.8.3/armv7e-m\libgcc.a
LOAD c:/emtechesdk/gcc/bin/../lib/gcc/arm-none-eabi/4.8.3/../../../../arm-none-eabi/lib/armv7e-m\libg.a
LOAD c:/emtechesdk/gcc/bin/../lib/gcc/arm-none-eabi/4.8.3/../../../../arm-none-eabi/lib/armv7e-m\libc.a
END GROUP
OUTPUT(build/ChibiExample.elf elf32-littlearm)

.ARM.attributes
                0x00000000       0x2f
 .ARM.attributes
                0x00000000       0x21 build/obj/crt0_v7m.o
 .ARM.attributes
                0x00000021       0x21 build/obj/chcoreasm_v7m.o
 .ARM.attributes
                0x00000042       0x33 build/obj/crt1.o
 .ARM.attributes
                0x00000075       0x33 build/obj/vectors.o
 .ARM.attributes
                0x000000a8       0x33 build/obj/chsys.o
 .ARM.attributes
                0x000000db       0x33 build/obj/chdebug.o
 .ARM.attributes
                0x0000010e       0x33 build/obj/chvt.o
 .ARM.attributes
                0x00000141       0x33 build/obj/chschd.o
 .ARM.attributes
                0x00000174       0x33 build/obj/chthreads.o
 .ARM.attributes
                0x000001a7       0x33 build/obj/chtm.o
 .ARM.attributes
                0x000001da       0x33 build/obj/chstats.o
 .ARM.attributes
                0x0000020d       0x33 build/obj/chregistry.o
 .ARM.attributes
                0x00000240       0x33 build/obj/chsem.o
 .ARM.attributes
                0x00000273       0x33 build/obj/chmtx.o
 .ARM.attributes
                0x000002a6       0x33 build/obj/chevents.o
 .ARM.attributes
                0x000002d9       0x33 build/obj/chmboxes.o
 .ARM.attributes
                0x0000030c       0x33 build/obj/chqueues.o
 .ARM.attributes
                0x0000033f       0x33 build/obj/chmemcore.o
 .ARM.attributes
                0x00000372       0x33 build/obj/chheap.o
 .ARM.attributes
                0x000003a5       0x33 build/obj/chcore_v7m.o
 .ARM.attributes
                0x000003d8       0x33 build/obj/hal.o
 .ARM.attributes
                0x0000040b       0x33 build/obj/hal_mmcsd.o
 .ARM.attributes
                0x0000043e       0x33 build/obj/adc.o
 .ARM.attributes
                0x00000471       0x33 build/obj/mac.o
 .ARM.attributes
                0x000004a4       0x33 build/obj/sdc.o
 .ARM.attributes
                0x000004d7       0x33 build/obj/serial.o
 .ARM.attributes
                0x0000050a       0x33 build/obj/spi.o
 .ARM.attributes
                0x0000053d       0x33 build/obj/st.o
 .ARM.attributes
                0x00000570       0x33 build/obj/usb.o
 .ARM.attributes
                0x000005a3       0x33 build/obj/chprintf.o
 .ARM.attributes
                0x000005d6       0x33 build/obj/nvic.o
 .ARM.attributes
                0x00000609       0x33 build/obj/stm32_dma.o
 .ARM.attributes
                0x0000063c       0x33 build/obj/hal_lld.o
 .ARM.attributes
                0x0000066f       0x33 build/obj/adc_lld.o
 .ARM.attributes
                0x000006a2       0x33 build/obj/mac_lld.o
 .ARM.attributes
                0x000006d5       0x33 build/obj/sdc_lld.o
 .ARM.attributes
                0x00000708       0x33 build/obj/pal_lld.o
 .ARM.attributes
                0x0000073b       0x33 build/obj/usb_lld.o
 .ARM.attributes
                0x0000076e       0x33 build/obj/spi_lld.o
 .ARM.attributes
                0x000007a1       0x33 build/obj/st_lld.o
 .ARM.attributes
                0x000007d4       0x33 build/obj/serial_lld.o
 .ARM.attributes
                0x00000807       0x33 build/obj/board.o
 .ARM.attributes
                0x0000083a       0x33 build/obj/lwipthread.o
 .ARM.attributes
                0x0000086d       0x33 build/obj/sys_arch.o
 .ARM.attributes
                0x000008a0       0x33 build/obj/etharp.o
 .ARM.attributes
                0x000008d3       0x33 build/obj/init.o
 .ARM.attributes
                0x00000906       0x33 build/obj/mem.o
 .ARM.attributes
                0x00000939       0x33 build/obj/memp.o
 .ARM.attributes
                0x0000096c       0x33 build/obj/netif.o
 .ARM.attributes
                0x0000099f       0x33 build/obj/pbuf.o
 .ARM.attributes
                0x000009d2       0x33 build/obj/raw.o
 .ARM.attributes
                0x00000a05       0x33 build/obj/stats.o
 .ARM.attributes
                0x00000a38       0x33 build/obj/tcp.o
 .ARM.attributes
                0x00000a6b       0x33 build/obj/tcp_in.o
 .ARM.attributes
                0x00000a9e       0x33 build/obj/tcp_out.o
 .ARM.attributes
                0x00000ad1       0x33 build/obj/udp.o
 .ARM.attributes
                0x00000b04       0x33 build/obj/icmp.o
 .ARM.attributes
                0x00000b37       0x33 build/obj/inet_chksum.o
 .ARM.attributes
                0x00000b6a       0x33 build/obj/ip.o
 .ARM.attributes
                0x00000b9d       0x33 build/obj/ip_addr.o
 .ARM.attributes
                0x00000bd0       0x33 build/obj/ip_frag.o
 .ARM.attributes
                0x00000c03       0x33 build/obj/def.o
 .ARM.attributes
                0x00000c36       0x33 build/obj/timers.o
 .ARM.attributes
                0x00000c69       0x33 build/obj/api_lib.o
 .ARM.attributes
                0x00000c9c       0x33 build/obj/api_msg.o
 .ARM.attributes
                0x00000ccf       0x33 build/obj/netbuf.o
 .ARM.attributes
                0x00000d02       0x33 build/obj/sockets.o
 .ARM.attributes
                0x00000d35       0x33 build/obj/tcpip.o
 .ARM.attributes
                0x00000d68       0x33 build/obj/evtimer.o
 .ARM.attributes
                0x00000d9b       0x33 build/obj/main.o
 .ARM.attributes
                0x00000dce       0x33 build/obj/web.o
 .ARM.attributes
                0x00000e01       0x1e c:/emtechesdk/gcc/bin/../lib/gcc/arm-none-eabi/4.8.3/armv7e-m\libgcc.a(_arm_addsubdf3.o)
 .ARM.attributes
                0x00000e1f       0x1e c:/emtechesdk/gcc/bin/../lib/gcc/arm-none-eabi/4.8.3/armv7e-m\libgcc.a(_arm_muldivdf3.o)
 .ARM.attributes
                0x00000e3d       0x1e c:/emtechesdk/gcc/bin/../lib/gcc/arm-none-eabi/4.8.3/armv7e-m\libgcc.a(_arm_fixdfsi.o)
 .ARM.attributes
                0x00000e5b       0x1e c:/emtechesdk/gcc/bin/../lib/gcc/arm-none-eabi/4.8.3/armv7e-m\libgcc.a(_arm_truncdfsf2.o)
 .ARM.attributes
                0x00000e79       0x1e c:/emtechesdk/gcc/bin/../lib/gcc/arm-none-eabi/4.8.3/armv7e-m\libgcc.a(_arm_cmpsf2.o)
 .ARM.attributes
                0x00000e97       0x2e c:/emtechesdk/gcc/bin/../lib/gcc/arm-none-eabi/4.8.3/../../../../arm-none-eabi/lib/armv7e-m\libg.a(lib_a-memcmp.o)
 .ARM.attributes
                0x00000ec5       0x1c c:/emtechesdk/gcc/bin/../lib/gcc/arm-none-eabi/4.8.3/../../../../arm-none-eabi/lib/armv7e-m\libg.a(lib_a-memcpy.o)
 .ARM.attributes
                0x00000ee1       0x2e c:/emtechesdk/gcc/bin/../lib/gcc/arm-none-eabi/4.8.3/../../../../arm-none-eabi/lib/armv7e-m\libg.a(lib_a-memset.o)
 .ARM.attributes
                0x00000f0f       0x2e c:/emtechesdk/gcc/bin/../lib/gcc/arm-none-eabi/4.8.3/../../../../arm-none-eabi/lib/armv7e-m\libg.a(lib_a-strncmp.o)

.comment        0x00000000       0x70
 .comment       0x00000000       0x70 build/obj/crt1.o
                                 0x71 (size before relaxing)
 .comment       0x00000000       0x71 build/obj/vectors.o
 .comment       0x00000000       0x71 build/obj/chsys.o
 .comment       0x00000000       0x71 build/obj/chdebug.o
 .comment       0x00000000       0x71 build/obj/chvt.o
 .comment       0x00000000       0x71 build/obj/chschd.o
 .comment       0x00000000       0x71 build/obj/chthreads.o
 .comment       0x00000000       0x71 build/obj/chtm.o
 .comment       0x00000000       0x71 build/obj/chstats.o
 .comment       0x00000000       0x71 build/obj/chregistry.o
 .comment       0x00000000       0x71 build/obj/chsem.o
 .comment       0x00000000       0x71 build/obj/chmtx.o
 .comment       0x00000000       0x71 build/obj/chevents.o
 .comment       0x00000000       0x71 build/obj/chmboxes.o
 .comment       0x00000000       0x71 build/obj/chqueues.o
 .comment       0x00000000       0x71 build/obj/chmemcore.o
 .comment       0x00000000       0x71 build/obj/chheap.o
 .comment       0x00000000       0x71 build/obj/chcore_v7m.o
 .comment       0x00000000       0x71 build/obj/hal.o
 .comment       0x00000000       0x71 build/obj/hal_mmcsd.o
 .comment       0x00000000       0x71 build/obj/adc.o
 .comment       0x00000000       0x71 build/obj/mac.o
 .comment       0x00000000       0x71 build/obj/sdc.o
 .comment       0x00000000       0x71 build/obj/serial.o
 .comment       0x00000000       0x71 build/obj/spi.o
 .comment       0x00000000       0x71 build/obj/st.o
 .comment       0x00000000       0x71 build/obj/usb.o
 .comment       0x00000000       0x71 build/obj/chprintf.o
 .comment       0x00000000       0x71 build/obj/nvic.o
 .comment       0x00000000       0x71 build/obj/stm32_dma.o
 .comment       0x00000000       0x71 build/obj/hal_lld.o
 .comment       0x00000000       0x71 build/obj/adc_lld.o
 .comment       0x00000000       0x71 build/obj/mac_lld.o
 .comment       0x00000000       0x71 build/obj/sdc_lld.o
 .comment       0x00000000       0x71 build/obj/pal_lld.o
 .comment       0x00000000       0x71 build/obj/usb_lld.o
 .comment       0x00000000       0x71 build/obj/spi_lld.o
 .comment       0x00000000       0x71 build/obj/st_lld.o
 .comment       0x00000000       0x71 build/obj/serial_lld.o
 .comment       0x00000000       0x71 build/obj/board.o
 .comment       0x00000000       0x71 build/obj/lwipthread.o
 .comment       0x00000000       0x71 build/obj/sys_arch.o
 .comment       0x00000000       0x71 build/obj/etharp.o
 .comment       0x00000000       0x71 build/obj/init.o
 .comment       0x00000000       0x71 build/obj/mem.o
 .comment       0x00000000       0x71 build/obj/memp.o
 .comment       0x00000000       0x71 build/obj/netif.o
 .comment       0x00000000       0x71 build/obj/pbuf.o
 .comment       0x00000000       0x71 build/obj/raw.o
 .comment       0x00000000       0x71 build/obj/stats.o
 .comment       0x00000000       0x71 build/obj/tcp.o
 .comment       0x00000000       0x71 build/obj/tcp_in.o
 .comment       0x00000000       0x71 build/obj/tcp_out.o
 .comment       0x00000000       0x71 build/obj/udp.o
 .comment       0x00000000       0x71 build/obj/icmp.o
 .comment       0x00000000       0x71 build/obj/inet_chksum.o
 .comment       0x00000000       0x71 build/obj/ip.o
 .comment       0x00000000       0x71 build/obj/ip_addr.o
 .comment       0x00000000       0x71 build/obj/ip_frag.o
 .comment       0x00000000       0x71 build/obj/def.o
 .comment       0x00000000       0x71 build/obj/timers.o
 .comment       0x00000000       0x71 build/obj/api_lib.o
 .comment       0x00000000       0x71 build/obj/api_msg.o
 .comment       0x00000000       0x71 build/obj/netbuf.o
 .comment       0x00000000       0x71 build/obj/sockets.o
 .comment       0x00000000       0x71 build/obj/tcpip.o
 .comment       0x00000000       0x71 build/obj/evtimer.o
 .comment       0x00000000       0x71 build/obj/main.o
 .comment       0x00000000       0x71 build/obj/web.o

.debug_info     0x00000000    0x4473b
 .debug_info    0x00000000       0xd3 build/obj/crt1.o
 .debug_info    0x000000d3      0x1d1 build/obj/vectors.o
 .debug_info    0x000002a4     0x1713 build/obj/chsys.o
 .debug_info    0x000019b7      0xabe build/obj/chdebug.o
 .debug_info    0x00002475      0xa9f build/obj/chvt.o
 .debug_info    0x00002f14      0xcac build/obj/chschd.o
 .debug_info    0x00003bc0     0x1300 build/obj/chthreads.o
 .debug_info    0x00004ec0      0xa1f build/obj/chtm.o
 .debug_info    0x000058df      0x83f build/obj/chstats.o
 .debug_info    0x0000611e      0xa16 build/obj/chregistry.o
 .debug_info    0x00006b34      0xd0c build/obj/chsem.o
 .debug_info    0x00007840      0xc59 build/obj/chmtx.o
 .debug_info    0x00008499      0xe26 build/obj/chevents.o
 .debug_info    0x000092bf      0xd2a build/obj/chmboxes.o
 .debug_info    0x00009fe9      0xd97 build/obj/chqueues.o
 .debug_info    0x0000ad80      0x96b build/obj/chmemcore.o
 .debug_info    0x0000b6eb      0xa3f build/obj/chheap.o
 .debug_info    0x0000c12a      0xb4b build/obj/chcore_v7m.o
 .debug_info    0x0000cc75      0x8ca build/obj/hal.o
 .debug_info    0x0000d53f     0x12c4 build/obj/hal_mmcsd.o
 .debug_info    0x0000e803     0x10fb build/obj/adc.o
 .debug_info    0x0000f8fe     0x1083 build/obj/mac.o
 .debug_info    0x00010981     0x16ca build/obj/sdc.o
 .debug_info    0x0001204b     0x1142 build/obj/serial.o
 .debug_info    0x0001318d     0x1198 build/obj/spi.o
 .debug_info    0x00014325      0xa58 build/obj/st.o
 .debug_info    0x00014d7d     0x1b72 build/obj/usb.o
 .debug_info    0x000168ef      0xc51 build/obj/chprintf.o
 .debug_info    0x00017540      0xb43 build/obj/nvic.o
 .debug_info    0x00018083     0x108b build/obj/stm32_dma.o
 .debug_info    0x0001910e      0xa4b build/obj/hal_lld.o
 .debug_info    0x00019b59     0x132e build/obj/adc_lld.o
 .debug_info    0x0001ae87     0x170e build/obj/mac_lld.o
 .debug_info    0x0001c595     0x1834 build/obj/sdc_lld.o
 .debug_info    0x0001ddc9      0xc93 build/obj/pal_lld.o
 .debug_info    0x0001ea5c     0x2369 build/obj/usb_lld.o
 .debug_info    0x00020dc5     0x1143 build/obj/spi_lld.o
 .debug_info    0x00021f08      0xbf3 build/obj/st_lld.o
 .debug_info    0x00022afb     0x1118 build/obj/serial_lld.o
 .debug_info    0x00023c13      0xefd build/obj/board.o
 .debug_info    0x00024b10     0x13c3 build/obj/lwipthread.o
 .debug_info    0x00025ed3     0x1221 build/obj/sys_arch.o
 .debug_info    0x000270f4     0x14c7 build/obj/etharp.o
 .debug_info    0x000285bb      0x7c0 build/obj/init.o
 .debug_info    0x00028d7b      0xd1d build/obj/mem.o
 .debug_info    0x00029a98      0xbc7 build/obj/memp.o
 .debug_info    0x0002a65f     0x1350 build/obj/netif.o
 .debug_info    0x0002b9af     0x160b build/obj/pbuf.o
 .debug_info    0x0002cfba      0xe8d build/obj/raw.o
 .debug_info    0x0002de47      0xa3c build/obj/stats.o
 .debug_info    0x0002e883     0x1d1c build/obj/tcp.o
 .debug_info    0x0003059f     0x16ab build/obj/tcp_in.o
 .debug_info    0x00031c4a     0x1955 build/obj/tcp_out.o
 .debug_info    0x0003359f     0x12d6 build/obj/udp.o
 .debug_info    0x00034875      0xf52 build/obj/icmp.o
 .debug_info    0x000357c7      0xb06 build/obj/inet_chksum.o
 .debug_info    0x000362cd      0xfc3 build/obj/ip.o
 .debug_info    0x00037290      0xcb0 build/obj/ip_addr.o
 .debug_info    0x00037f40     0x136c build/obj/ip_frag.o
 .debug_info    0x000392ac      0x867 build/obj/def.o
 .debug_info    0x00039b13     0x109d build/obj/timers.o
 .debug_info    0x0003abb0     0x18f5 build/obj/api_lib.o
 .debug_info    0x0003c4a5     0x1a9d build/obj/api_msg.o
 .debug_info    0x0003df42      0xb51 build/obj/netbuf.o
 .debug_info    0x0003ea93     0x23ae build/obj/sockets.o
 .debug_info    0x00040e41     0x1307 build/obj/tcpip.o
 .debug_info    0x00042148      0xb72 build/obj/evtimer.o
 .debug_info    0x00042cba      0x947 build/obj/main.o
 .debug_info    0x00043601     0x113a build/obj/web.o

.debug_abbrev   0x00000000     0xb238
 .debug_abbrev  0x00000000       0x67 build/obj/crt1.o
 .debug_abbrev  0x00000067       0xc7 build/obj/vectors.o
 .debug_abbrev  0x0000012e      0x467 build/obj/chsys.o
 .debug_abbrev  0x00000595      0x25b build/obj/chdebug.o
 .debug_abbrev  0x000007f0      0x250 build/obj/chvt.o
 .debug_abbrev  0x00000a40      0x385 build/obj/chschd.o
 .debug_abbrev  0x00000dc5      0x369 build/obj/chthreads.o
 .debug_abbrev  0x0000112e      0x1ff build/obj/chtm.o
 .debug_abbrev  0x0000132d      0x1ad build/obj/chstats.o
 .debug_abbrev  0x000014da      0x228 build/obj/chregistry.o
 .debug_abbrev  0x00001702      0x2c6 build/obj/chsem.o
 .debug_abbrev  0x000019c8      0x2d1 build/obj/chmtx.o
 .debug_abbrev  0x00001c99      0x2dd build/obj/chevents.o
 .debug_abbrev  0x00001f76      0x2bb build/obj/chmboxes.o
 .debug_abbrev  0x00002231      0x2c6 build/obj/chqueues.o
 .debug_abbrev  0x000024f7      0x270 build/obj/chmemcore.o
 .debug_abbrev  0x00002767      0x259 build/obj/chheap.o
 .debug_abbrev  0x000029c0      0x24d build/obj/chcore_v7m.o
 .debug_abbrev  0x00002c0d      0x182 build/obj/hal.o
 .debug_abbrev  0x00002d8f      0x246 build/obj/hal_mmcsd.o
 .debug_abbrev  0x00002fd5      0x2d8 build/obj/adc.o
 .debug_abbrev  0x000032ad      0x33c build/obj/mac.o
 .debug_abbrev  0x000035e9      0x365 build/obj/sdc.o
 .debug_abbrev  0x0000394e      0x34d build/obj/serial.o
 .debug_abbrev  0x00003c9b      0x2c1 build/obj/spi.o
 .debug_abbrev  0x00003f5c      0x21e build/obj/st.o
 .debug_abbrev  0x0000417a      0x383 build/obj/usb.o
 .debug_abbrev  0x000044fd      0x262 build/obj/chprintf.o
 .debug_abbrev  0x0000475f      0x1e3 build/obj/nvic.o
 .debug_abbrev  0x00004942      0x248 build/obj/stm32_dma.o
 .debug_abbrev  0x00004b8a      0x1c5 build/obj/hal_lld.o
 .debug_abbrev  0x00004d4f      0x333 build/obj/adc_lld.o
 .debug_abbrev  0x00005082      0x36b build/obj/mac_lld.o
 .debug_abbrev  0x000053ed      0x39f build/obj/sdc_lld.o
 .debug_abbrev  0x0000578c      0x1fd build/obj/pal_lld.o
 .debug_abbrev  0x00005989      0x410 build/obj/usb_lld.o
 .debug_abbrev  0x00005d99      0x304 build/obj/spi_lld.o
 .debug_abbrev  0x0000609d      0x1ea build/obj/st_lld.o
 .debug_abbrev  0x00006287      0x33c build/obj/serial_lld.o
 .debug_abbrev  0x000065c3      0x217 build/obj/board.o
 .debug_abbrev  0x000067da      0x369 build/obj/lwipthread.o
 .debug_abbrev  0x00006b43      0x389 build/obj/sys_arch.o
 .debug_abbrev  0x00006ecc      0x2dd build/obj/etharp.o
 .debug_abbrev  0x000071a9      0x16c build/obj/init.o
 .debug_abbrev  0x00007315      0x28b build/obj/mem.o
 .debug_abbrev  0x000075a0      0x255 build/obj/memp.o
 .debug_abbrev  0x000077f5      0x2cc build/obj/netif.o
 .debug_abbrev  0x00007ac1      0x2d3 build/obj/pbuf.o
 .debug_abbrev  0x00007d94      0x29e build/obj/raw.o
 .debug_abbrev  0x00008032      0x1b1 build/obj/stats.o
 .debug_abbrev  0x000081e3      0x36e build/obj/tcp.o
 .debug_abbrev  0x00008551      0x2a9 build/obj/tcp_in.o
 .debug_abbrev  0x000087fa      0x2ef build/obj/tcp_out.o
 .debug_abbrev  0x00008ae9      0x304 build/obj/udp.o
 .debug_abbrev  0x00008ded      0x289 build/obj/icmp.o
 .debug_abbrev  0x00009076      0x20b build/obj/inet_chksum.o
 .debug_abbrev  0x00009281      0x268 build/obj/ip.o
 .debug_abbrev  0x000094e9      0x270 build/obj/ip_addr.o
 .debug_abbrev  0x00009759      0x2db build/obj/ip_frag.o
 .debug_abbrev  0x00009a34      0x19b build/obj/def.o
 .debug_abbrev  0x00009bcf      0x24d build/obj/timers.o
 .debug_abbrev  0x00009e1c      0x2a4 build/obj/api_lib.o
 .debug_abbrev  0x0000a0c0      0x2d8 build/obj/api_msg.o
 .debug_abbrev  0x0000a398      0x1f9 build/obj/netbuf.o
 .debug_abbrev  0x0000a591      0x2b8 build/obj/sockets.o
 .debug_abbrev  0x0000a849      0x297 build/obj/tcpip.o
 .debug_abbrev  0x0000aae0      0x28c build/obj/evtimer.o
 .debug_abbrev  0x0000ad6c      0x1f6 build/obj/main.o
 .debug_abbrev  0x0000af62      0x2d6 build/obj/web.o

.debug_aranges  0x00000000     0x27d8
 .debug_aranges
                0x00000000       0x38 build/obj/crt1.o
 .debug_aranges
                0x00000038       0x20 build/obj/vectors.o
 .debug_aranges
                0x00000058      0x138 build/obj/chsys.o
 .debug_aranges
                0x00000190       0xb8 build/obj/chdebug.o
 .debug_aranges
                0x00000248       0x60 build/obj/chvt.o
 .debug_aranges
                0x000002a8       0xd0 build/obj/chschd.o
 .debug_aranges
                0x00000378      0x178 build/obj/chthreads.o
 .debug_aranges
                0x000004f0       0x50 build/obj/chtm.o
 .debug_aranges
                0x00000540       0x50 build/obj/chstats.o
 .debug_aranges
                0x00000590       0x48 build/obj/chregistry.o
 .debug_aranges
                0x000005d8       0xc0 build/obj/chsem.o
 .debug_aranges
                0x00000698       0xa8 build/obj/chmtx.o
 .debug_aranges
                0x00000740       0xc0 build/obj/chevents.o
 .debug_aranges
                0x00000800       0xa8 build/obj/chmboxes.o
 .debug_aranges
                0x000008a8       0xb8 build/obj/chqueues.o
 .debug_aranges
                0x00000960       0x58 build/obj/chmemcore.o
 .debug_aranges
                0x000009b8       0x40 build/obj/chheap.o
 .debug_aranges
                0x000009f8       0x48 build/obj/chcore_v7m.o
 .debug_aranges
                0x00000a40       0x28 build/obj/hal.o
 .debug_aranges
                0x00000a68       0x58 build/obj/hal_mmcsd.o
 .debug_aranges
                0x00000ac0       0xd0 build/obj/adc.o
 .debug_aranges
                0x00000b90       0xe0 build/obj/mac.o
 .debug_aranges
                0x00000c70      0x118 build/obj/sdc.o
 .debug_aranges
                0x00000d88       0xe0 build/obj/serial.o
 .debug_aranges
                0x00000e68       0xe8 build/obj/spi.o
 .debug_aranges
                0x00000f50       0x68 build/obj/st.o
 .debug_aranges
                0x00000fb8      0x120 build/obj/usb.o
 .debug_aranges
                0x000010d8       0x40 build/obj/chprintf.o
 .debug_aranges
                0x00001118       0x38 build/obj/nvic.o
 .debug_aranges
                0x00001150       0xb0 build/obj/stm32_dma.o
 .debug_aranges
                0x00001200       0x30 build/obj/hal_lld.o
 .debug_aranges
                0x00001230       0xb8 build/obj/adc_lld.o
 .debug_aranges
                0x000012e8      0x108 build/obj/mac_lld.o
 .debug_aranges
                0x000013f0      0x150 build/obj/sdc_lld.o
 .debug_aranges
                0x00001540       0x30 build/obj/pal_lld.o
 .debug_aranges
                0x00001570      0x1e0 build/obj/usb_lld.o
 .debug_aranges
                0x00001750       0xc8 build/obj/spi_lld.o
 .debug_aranges
                0x00001818       0x70 build/obj/st_lld.o
 .debug_aranges
                0x00001888       0xc0 build/obj/serial_lld.o
 .debug_aranges
                0x00001948       0x38 build/obj/board.o
 .debug_aranges
                0x00001980       0x88 build/obj/lwipthread.o
 .debug_aranges
                0x00001a08      0x130 build/obj/sys_arch.o
 .debug_aranges
                0x00001b38       0x90 build/obj/etharp.o
 .debug_aranges
                0x00001bc8       0x20 build/obj/init.o
 .debug_aranges
                0x00001be8       0x50 build/obj/mem.o
 .debug_aranges
                0x00001c38       0x38 build/obj/memp.o
 .debug_aranges
                0x00001c70       0x88 build/obj/netif.o
 .debug_aranges
                0x00001cf8       0xc8 build/obj/pbuf.o
 .debug_aranges
                0x00001dc0       0x60 build/obj/raw.o
 .debug_aranges
                0x00001e20       0x20 build/obj/stats.o
 .debug_aranges
                0x00001e40      0x148 build/obj/tcp.o
 .debug_aranges
                0x00001f88       0x58 build/obj/tcp_in.o
 .debug_aranges
                0x00001fe0       0xa0 build/obj/tcp_out.o
 .debug_aranges
                0x00002080       0x80 build/obj/udp.o
 .debug_aranges
                0x00002100       0x40 build/obj/icmp.o
 .debug_aranges
                0x00002140       0x48 build/obj/inet_chksum.o
 .debug_aranges
                0x00002188       0x40 build/obj/ip.o
 .debug_aranges
                0x000021c8       0x50 build/obj/ip_addr.o
 .debug_aranges
                0x00002218       0x78 build/obj/ip_frag.o
 .debug_aranges
                0x00002290       0x38 build/obj/def.o
 .debug_aranges
                0x000022c8       0x60 build/obj/timers.o
 .debug_aranges
                0x00002328       0xb0 build/obj/api_lib.o
 .debug_aranges
                0x000023d8       0xf0 build/obj/api_msg.o
 .debug_aranges
                0x000024c8       0x68 build/obj/netbuf.o
 .debug_aranges
                0x00002530      0x110 build/obj/sockets.o
 .debug_aranges
                0x00002640       0x88 build/obj/tcpip.o
 .debug_aranges
                0x000026c8       0xa8 build/obj/evtimer.o
 .debug_aranges
                0x00002770       0x30 build/obj/main.o
 .debug_aranges
                0x000027a0       0x38 build/obj/web.o

.debug_ranges   0x00000000     0x2388
 .debug_ranges  0x00000000       0x28 build/obj/crt1.o
 .debug_ranges  0x00000028       0x10 build/obj/vectors.o
 .debug_ranges  0x00000038      0x128 build/obj/chsys.o
 .debug_ranges  0x00000160       0xa8 build/obj/chdebug.o
 .debug_ranges  0x00000208       0x50 build/obj/chvt.o
 .debug_ranges  0x00000258       0xc0 build/obj/chschd.o
 .debug_ranges  0x00000318      0x168 build/obj/chthreads.o
 .debug_ranges  0x00000480       0x40 build/obj/chtm.o
 .debug_ranges  0x000004c0       0x40 build/obj/chstats.o
 .debug_ranges  0x00000500       0x38 build/obj/chregistry.o
 .debug_ranges  0x00000538       0xb0 build/obj/chsem.o
 .debug_ranges  0x000005e8       0x98 build/obj/chmtx.o
 .debug_ranges  0x00000680       0xb0 build/obj/chevents.o
 .debug_ranges  0x00000730       0x98 build/obj/chmboxes.o
 .debug_ranges  0x000007c8       0xa8 build/obj/chqueues.o
 .debug_ranges  0x00000870       0x48 build/obj/chmemcore.o
 .debug_ranges  0x000008b8       0x30 build/obj/chheap.o
 .debug_ranges  0x000008e8       0x38 build/obj/chcore_v7m.o
 .debug_ranges  0x00000920       0x18 build/obj/hal.o
 .debug_ranges  0x00000938       0x48 build/obj/hal_mmcsd.o
 .debug_ranges  0x00000980       0xc0 build/obj/adc.o
 .debug_ranges  0x00000a40       0xd0 build/obj/mac.o
 .debug_ranges  0x00000b10      0x108 build/obj/sdc.o
 .debug_ranges  0x00000c18       0xd0 build/obj/serial.o
 .debug_ranges  0x00000ce8       0xd8 build/obj/spi.o
 .debug_ranges  0x00000dc0       0x58 build/obj/st.o
 .debug_ranges  0x00000e18      0x110 build/obj/usb.o
 .debug_ranges  0x00000f28       0x30 build/obj/chprintf.o
 .debug_ranges  0x00000f58       0x28 build/obj/nvic.o
 .debug_ranges  0x00000f80       0xa0 build/obj/stm32_dma.o
 .debug_ranges  0x00001020       0x20 build/obj/hal_lld.o
 .debug_ranges  0x00001040       0xa8 build/obj/adc_lld.o
 .debug_ranges  0x000010e8       0xf8 build/obj/mac_lld.o
 .debug_ranges  0x000011e0      0x140 build/obj/sdc_lld.o
 .debug_ranges  0x00001320       0x20 build/obj/pal_lld.o
 .debug_ranges  0x00001340      0x1d0 build/obj/usb_lld.o
 .debug_ranges  0x00001510       0xb8 build/obj/spi_lld.o
 .debug_ranges  0x000015c8       0x60 build/obj/st_lld.o
 .debug_ranges  0x00001628       0xb0 build/obj/serial_lld.o
 .debug_ranges  0x000016d8       0x28 build/obj/board.o
 .debug_ranges  0x00001700       0x78 build/obj/lwipthread.o
 .debug_ranges  0x00001778      0x120 build/obj/sys_arch.o
 .debug_ranges  0x00001898       0x80 build/obj/etharp.o
 .debug_ranges  0x00001918       0x10 build/obj/init.o
 .debug_ranges  0x00001928       0x40 build/obj/mem.o
 .debug_ranges  0x00001968       0x28 build/obj/memp.o
 .debug_ranges  0x00001990       0x78 build/obj/netif.o
 .debug_ranges  0x00001a08       0xb8 build/obj/pbuf.o
 .debug_ranges  0x00001ac0       0x50 build/obj/raw.o
 .debug_ranges  0x00001b10       0x10 build/obj/stats.o
 .debug_ranges  0x00001b20      0x138 build/obj/tcp.o
 .debug_ranges  0x00001c58       0x48 build/obj/tcp_in.o
 .debug_ranges  0x00001ca0       0x90 build/obj/tcp_out.o
 .debug_ranges  0x00001d30       0x70 build/obj/udp.o
 .debug_ranges  0x00001da0       0x30 build/obj/icmp.o
 .debug_ranges  0x00001dd0       0x38 build/obj/inet_chksum.o
 .debug_ranges  0x00001e08       0x30 build/obj/ip.o
 .debug_ranges  0x00001e38       0x40 build/obj/ip_addr.o
 .debug_ranges  0x00001e78       0x68 build/obj/ip_frag.o
 .debug_ranges  0x00001ee0       0x28 build/obj/def.o
 .debug_ranges  0x00001f08       0x50 build/obj/timers.o
 .debug_ranges  0x00001f58       0xa0 build/obj/api_lib.o
 .debug_ranges  0x00001ff8       0xe0 build/obj/api_msg.o
 .debug_ranges  0x000020d8       0x58 build/obj/netbuf.o
 .debug_ranges  0x00002130      0x100 build/obj/sockets.o
 .debug_ranges  0x00002230       0x78 build/obj/tcpip.o
 .debug_ranges  0x000022a8       0x98 build/obj/evtimer.o
 .debug_ranges  0x00002340       0x20 build/obj/main.o
 .debug_ranges  0x00002360       0x28 build/obj/web.o

.debug_line     0x00000000    0x141c5
 .debug_line    0x00000000      0x105 build/obj/crt1.o
 .debug_line    0x00000105       0xd7 build/obj/vectors.o
 .debug_line    0x000001dc      0x624 build/obj/chsys.o
 .debug_line    0x00000800      0x409 build/obj/chdebug.o
 .debug_line    0x00000c09      0x2fb build/obj/chvt.o
 .debug_line    0x00000f04      0x4b7 build/obj/chschd.o
 .debug_line    0x000013bb      0x6d6 build/obj/chthreads.o
 .debug_line    0x00001a91      0x227 build/obj/chtm.o
 .debug_line    0x00001cb8      0x213 build/obj/chstats.o
 .debug_line    0x00001ecb      0x2a7 build/obj/chregistry.o
 .debug_line    0x00002172      0x4e6 build/obj/chsem.o
 .debug_line    0x00002658      0x429 build/obj/chmtx.o
 .debug_line    0x00002a81      0x45f build/obj/chevents.o
 .debug_line    0x00002ee0      0x3d7 build/obj/chmboxes.o
 .debug_line    0x000032b7      0x480 build/obj/chqueues.o
 .debug_line    0x00003737      0x2ba build/obj/chmemcore.o
 .debug_line    0x000039f1      0x2c7 build/obj/chheap.o
 .debug_line    0x00003cb8      0x24f build/obj/chcore_v7m.o
 .debug_line    0x00003f07      0x221 build/obj/hal.o
 .debug_line    0x00004128      0x339 build/obj/hal_mmcsd.o
 .debug_line    0x00004461      0x521 build/obj/adc.o
 .debug_line    0x00004982      0x5ae build/obj/mac.o
 .debug_line    0x00004f30      0x750 build/obj/sdc.o
 .debug_line    0x00005680      0x51b build/obj/serial.o
 .debug_line    0x00005b9b      0x66a build/obj/spi.o
 .debug_line    0x00006205      0x2ab build/obj/st.o
 .debug_line    0x000064b0      0x71b build/obj/usb.o
 .debug_line    0x00006bcb      0x363 build/obj/chprintf.o
 .debug_line    0x00006f2e      0x1f2 build/obj/nvic.o
 .debug_line    0x00007120      0x428 build/obj/stm32_dma.o
 .debug_line    0x00007548      0x2a5 build/obj/hal_lld.o
 .debug_line    0x000077ed      0x4e0 build/obj/adc_lld.o
 .debug_line    0x00007ccd      0x65f build/obj/mac_lld.o
 .debug_line    0x0000832c      0x730 build/obj/sdc_lld.o
 .debug_line    0x00008a5c      0x244 build/obj/pal_lld.o
 .debug_line    0x00008ca0      0x9e3 build/obj/usb_lld.o
 .debug_line    0x00009683      0x561 build/obj/spi_lld.o
 .debug_line    0x00009be4      0x323 build/obj/st_lld.o
 .debug_line    0x00009f07      0x4f3 build/obj/serial_lld.o
 .debug_line    0x0000a3fa      0x33f build/obj/board.o
 .debug_line    0x0000a739      0x588 build/obj/lwipthread.o
 .debug_line    0x0000acc1      0x66d build/obj/sys_arch.o
 .debug_line    0x0000b32e      0x6dd build/obj/etharp.o
 .debug_line    0x0000ba0b      0x1b5 build/obj/init.o
 .debug_line    0x0000bbc0      0x45a build/obj/mem.o
 .debug_line    0x0000c01a      0x343 build/obj/memp.o
 .debug_line    0x0000c35d      0x4d6 build/obj/netif.o
 .debug_line    0x0000c833      0x7d7 build/obj/pbuf.o
 .debug_line    0x0000d00a      0x42e build/obj/raw.o
 .debug_line    0x0000d438      0x266 build/obj/stats.o
 .debug_line    0x0000d69e      0x9ef build/obj/tcp.o
 .debug_line    0x0000e08d      0x986 build/obj/tcp_in.o
 .debug_line    0x0000ea13      0x7c1 build/obj/tcp_out.o
 .debug_line    0x0000f1d4      0x5b0 build/obj/udp.o
 .debug_line    0x0000f784      0x391 build/obj/icmp.o
 .debug_line    0x0000fb15      0x363 build/obj/inet_chksum.o
 .debug_line    0x0000fe78      0x43b build/obj/ip.o
 .debug_line    0x000102b3      0x42b build/obj/ip_addr.o
 .debug_line    0x000106de      0x5f0 build/obj/ip_frag.o
 .debug_line    0x00010cce      0x218 build/obj/def.o
 .debug_line    0x00010ee6      0x423 build/obj/timers.o
 .debug_line    0x00011309      0x6c4 build/obj/api_lib.o
 .debug_line    0x000119cd      0x9f4 build/obj/api_msg.o
 .debug_line    0x000123c1      0x3c4 build/obj/netbuf.o
 .debug_line    0x00012785      0xbb9 build/obj/sockets.o
 .debug_line    0x0001333e      0x490 build/obj/tcpip.o
 .debug_line    0x000137ce      0x362 build/obj/evtimer.o
 .debug_line    0x00013b30      0x260 build/obj/main.o
 .debug_line    0x00013d90      0x435 build/obj/web.o

.debug_str      0x00000000     0x7a4c
 .debug_str     0x00000000      0x1e9 build/obj/crt1.o
                                0x225 (size before relaxing)
 .debug_str     0x000001e9      0x168 build/obj/vectors.o
                                0x327 (size before relaxing)
 .debug_str     0x00000351      0xf06 build/obj/chsys.o
                               0x1144 (size before relaxing)
 .debug_str     0x00001257      0x117 build/obj/chdebug.o
                                0x7f4 (size before relaxing)
 .debug_str     0x0000136e       0x6d build/obj/chvt.o
                                0x737 (size before relaxing)
 .debug_str     0x000013db      0x15d build/obj/chschd.o
                                0x80a (size before relaxing)
 .debug_str     0x00001538      0x23a build/obj/chthreads.o
                                0x967 (size before relaxing)
 .debug_str     0x00001772       0x8c build/obj/chtm.o
                                0x771 (size before relaxing)
 .debug_str     0x000017fe       0xc6 build/obj/chstats.o
                                0x6db (size before relaxing)
 .debug_str     0x000018c4       0x46 build/obj/chregistry.o
                                0x7a3 (size before relaxing)
 .debug_str     0x0000190a       0xd9 build/obj/chsem.o
                                0x787 (size before relaxing)
 .debug_str     0x000019e3       0xae build/obj/chmtx.o
                                0x754 (size before relaxing)
 .debug_str     0x00001a91      0x1f5 build/obj/chevents.o
                                0x86c (size before relaxing)
 .debug_str     0x00001c86      0x119 build/obj/chmboxes.o
                                0x78b (size before relaxing)
 .debug_str     0x00001d9f      0x177 build/obj/chqueues.o
                                0x7ff (size before relaxing)
 .debug_str     0x00001f16       0x78 build/obj/chmemcore.o
                                0x6ed (size before relaxing)
 .debug_str     0x00001f8e       0xc5 build/obj/chheap.o
                                0x6ff (size before relaxing)
 .debug_str     0x00002053       0x83 build/obj/chcore_v7m.o
                                0x759 (size before relaxing)
 .debug_str     0x000020d6       0xc4 build/obj/hal.o
                                0x6df (size before relaxing)
 .debug_str     0x0000219a      0x420 build/obj/hal_mmcsd.o
                                0xa8f (size before relaxing)
 .debug_str     0x000025ba      0x334 build/obj/adc.o
                                0x9ca (size before relaxing)
 .debug_str     0x000028ee      0x238 build/obj/mac.o
                                0xa08 (size before relaxing)
 .debug_str     0x00002b26      0x3f7 build/obj/sdc.o
                                0xc50 (size before relaxing)
 .debug_str     0x00002f1d      0x12c build/obj/serial.o
                                0x91d (size before relaxing)
 .debug_str     0x00003049      0x1f2 build/obj/spi.o
                                0x947 (size before relaxing)
 .debug_str     0x0000323b       0xba build/obj/st.o
                                0x71f (size before relaxing)
 .debug_str     0x000032f5      0x7ea build/obj/usb.o
                                0xf91 (size before relaxing)
 .debug_str     0x00003adf      0x136 build/obj/chprintf.o
                                0x785 (size before relaxing)
 .debug_str     0x00003c15       0x81 build/obj/nvic.o
                                0x769 (size before relaxing)
 .debug_str     0x00003c96      0x23b build/obj/stm32_dma.o
                                0xe14 (size before relaxing)
 .debug_str     0x00003ed1       0xad build/obj/hal_lld.o
                                0x7d0 (size before relaxing)
 .debug_str     0x00003f7e      0x131 build/obj/adc_lld.o
                               0x104b (size before relaxing)
 .debug_str     0x000040af      0x3fe build/obj/mac_lld.o
                                0xdc8 (size before relaxing)
 .debug_str     0x000044ad      0x22f build/obj/sdc_lld.o
                                0xd15 (size before relaxing)
 .debug_str     0x000046dc       0x8d build/obj/pal_lld.o
                                0x891 (size before relaxing)
 .debug_str     0x00004769      0x37d build/obj/usb_lld.o
                               0x130b (size before relaxing)
 .debug_str     0x00004ae6      0x124 build/obj/spi_lld.o
                                0xae2 (size before relaxing)
 .debug_str     0x00004c0a       0x81 build/obj/st_lld.o
                                0x872 (size before relaxing)
 .debug_str     0x00004c8b       0xa4 build/obj/serial_lld.o
                                0xa65 (size before relaxing)
 .debug_str     0x00004d2f       0x7a build/obj/board.o
                                0xa06 (size before relaxing)
 .debug_str     0x00004da9      0x3ac build/obj/lwipthread.o
                                0xc94 (size before relaxing)
 .debug_str     0x00005155      0x1eb build/obj/sys_arch.o
                                0xaab (size before relaxing)
 .debug_str     0x00005340      0x30b build/obj/etharp.o
                                0xc58 (size before relaxing)
 .debug_str     0x0000564b       0x31 build/obj/init.o
                                0x64c (size before relaxing)
 .debug_str     0x0000567c       0xae build/obj/mem.o
                                0x8c5 (size before relaxing)
 .debug_str     0x0000572a       0x77 build/obj/memp.o
                                0x877 (size before relaxing)
 .debug_str     0x000057a1      0x38e build/obj/netif.o
                                0xc35 (size before relaxing)
 .debug_str     0x00005b2f      0x285 build/obj/pbuf.o
                                0xd62 (size before relaxing)
 .debug_str     0x00005db4      0x10d build/obj/raw.o
                                0x9b3 (size before relaxing)
 .debug_str     0x00005ec1       0x28 build/obj/stats.o
                                0x807 (size before relaxing)
 .debug_str     0x00005ee9      0x3b1 build/obj/tcp.o
                                0xfcb (size before relaxing)
 .debug_str     0x0000629a      0x137 build/obj/tcp_in.o
                                0xdd4 (size before relaxing)
 .debug_str     0x000063d1      0x1cd build/obj/tcp_out.o
                                0xdf8 (size before relaxing)
 .debug_str     0x0000659e      0x179 build/obj/udp.o
                                0xb7c (size before relaxing)
 .debug_str     0x00006717       0xba build/obj/icmp.o
                                0x9eb (size before relaxing)
 .debug_str     0x000067d1       0xb7 build/obj/inet_chksum.o
                                0x758 (size before relaxing)
 .debug_str     0x00006888       0x9c build/obj/ip.o
                                0xa5e (size before relaxing)
 .debug_str     0x00006924       0xca build/obj/ip_addr.o
                                0x7f0 (size before relaxing)
 .debug_str     0x000069ee      0x265 build/obj/ip_frag.o
                                0xc4f (size before relaxing)
 .debug_str     0x00006c53       0x52 build/obj/def.o
                                0x682 (size before relaxing)
 .debug_str     0x00006ca5      0x10d build/obj/timers.o
                                0xbe4 (size before relaxing)
 .debug_str     0x00006db2      0x34b build/obj/api_lib.o
                                0xe5e (size before relaxing)
 .debug_str     0x000070fd      0x1b6 build/obj/api_msg.o
                                0xee6 (size before relaxing)
 .debug_str     0x000072b3       0x9c build/obj/netbuf.o
                                0x879 (size before relaxing)
 .debug_str     0x0000734f      0x44c build/obj/sockets.o
                               0x10c5 (size before relaxing)
 .debug_str     0x0000779b      0x1c3 build/obj/tcpip.o
                                0xc9e (size before relaxing)
 .debug_str     0x0000795e       0x7b build/obj/evtimer.o
                                0x802 (size before relaxing)
 .debug_str     0x000079d9       0x20 build/obj/main.o
                                0x6bf (size before relaxing)
 .debug_str     0x000079f9       0x53 build/obj/web.o
                                0xb3e (size before relaxing)

.debug_frame    0x00000000     0x8458
 .debug_frame   0x00000000       0x80 build/obj/crt1.o
 .debug_frame   0x00000080       0x2c build/obj/vectors.o
 .debug_frame   0x000000ac      0x424 build/obj/chsys.o
 .debug_frame   0x000004d0      0x248 build/obj/chdebug.o
 .debug_frame   0x00000718      0x11c build/obj/chvt.o
 .debug_frame   0x00000834      0x2c8 build/obj/chschd.o
 .debug_frame   0x00000afc      0x53c build/obj/chthreads.o
 .debug_frame   0x00001038       0xe4 build/obj/chtm.o
 .debug_frame   0x0000111c       0xd8 build/obj/chstats.o
 .debug_frame   0x000011f4       0xc0 build/obj/chregistry.o
 .debug_frame   0x000012b4      0x288 build/obj/chsem.o
 .debug_frame   0x0000153c      0x22c build/obj/chmtx.o
 .debug_frame   0x00001768      0x29c build/obj/chevents.o
 .debug_frame   0x00001a04      0x240 build/obj/chmboxes.o
 .debug_frame   0x00001c44      0x27c build/obj/chqueues.o
 .debug_frame   0x00001ec0       0xf8 build/obj/chmemcore.o
 .debug_frame   0x00001fb8       0xac build/obj/chheap.o
 .debug_frame   0x00002064       0xc8 build/obj/chcore_v7m.o
 .debug_frame   0x0000212c       0x48 build/obj/hal.o
 .debug_frame   0x00002174      0x110 build/obj/hal_mmcsd.o
 .debug_frame   0x00002284      0x2d4 build/obj/adc.o
 .debug_frame   0x00002558      0x2fc build/obj/mac.o
 .debug_frame   0x00002854      0x3f4 build/obj/sdc.o
 .debug_frame   0x00002c48      0x30c build/obj/serial.o
 .debug_frame   0x00002f54      0x334 build/obj/spi.o
 .debug_frame   0x00003288      0x130 build/obj/st.o
 .debug_frame   0x000033b8      0x3fc build/obj/usb.o
 .debug_frame   0x000037b4       0xbc build/obj/chprintf.o
 .debug_frame   0x00003870       0x84 build/obj/nvic.o
 .debug_frame   0x000038f4      0x26c build/obj/stm32_dma.o
 .debug_frame   0x00003b60       0x64 build/obj/hal_lld.o
 .debug_frame   0x00003bc4      0x254 build/obj/adc_lld.o
 .debug_frame   0x00003e18      0x394 build/obj/mac_lld.o
 .debug_frame   0x000041ac      0x4a0 build/obj/sdc_lld.o
 .debug_frame   0x0000464c       0x68 build/obj/pal_lld.o
 .debug_frame   0x000046b4      0x6c0 build/obj/usb_lld.o
 .debug_frame   0x00004d74      0x290 build/obj/spi_lld.o
 .debug_frame   0x00005004      0x144 build/obj/st_lld.o
 .debug_frame   0x00005148      0x274 build/obj/serial_lld.o
 .debug_frame   0x000053bc       0x80 build/obj/board.o
 .debug_frame   0x0000543c      0x1b4 build/obj/lwipthread.o
 .debug_frame   0x000055f0      0x428 build/obj/sys_arch.o
 .debug_frame   0x00005a18      0x1f4 build/obj/etharp.o
 .debug_frame   0x00005c0c       0x2c build/obj/init.o
 .debug_frame   0x00005c38       0xf0 build/obj/mem.o
 .debug_frame   0x00005d28       0x8c build/obj/memp.o
 .debug_frame   0x00005db4      0x1b8 build/obj/netif.o
 .debug_frame   0x00005f6c      0x2c4 build/obj/pbuf.o
 .debug_frame   0x00006230      0x128 build/obj/raw.o
 .debug_frame   0x00006358       0x2c build/obj/stats.o
 .debug_frame   0x00006384      0x4bc build/obj/tcp.o
 .debug_frame   0x00006840      0x124 build/obj/tcp_in.o
 .debug_frame   0x00006964      0x260 build/obj/tcp_out.o
 .debug_frame   0x00006bc4      0x1a4 build/obj/udp.o
 .debug_frame   0x00006d68       0xb0 build/obj/icmp.o
 .debug_frame   0x00006e18       0xcc build/obj/inet_chksum.o
 .debug_frame   0x00006ee4       0xac build/obj/ip.o
 .debug_frame   0x00006f90       0xe8 build/obj/ip_addr.o
 .debug_frame   0x00007078      0x194 build/obj/ip_frag.o
 .debug_frame   0x0000720c       0x88 build/obj/def.o
 .debug_frame   0x00007294      0x128 build/obj/timers.o
 .debug_frame   0x000073bc      0x270 build/obj/api_lib.o
 .debug_frame   0x0000762c      0x374 build/obj/api_msg.o
 .debug_frame   0x000079a0      0x150 build/obj/netbuf.o
 .debug_frame   0x00007af0      0x3e8 build/obj/sockets.o
 .debug_frame   0x00007ed8      0x1d0 build/obj/tcpip.o
 .debug_frame   0x000080a8      0x228 build/obj/evtimer.o
 .debug_frame   0x000082d0       0x6c build/obj/main.o
 .debug_frame   0x0000833c       0x9c build/obj/web.o
 .debug_frame   0x000083d8       0x2c c:/emtechesdk/gcc/bin/../lib/gcc/arm-none-eabi/4.8.3/../../../../arm-none-eabi/lib/armv7e-m\libg.a(lib_a-memcmp.o)
 .debug_frame   0x00008404       0x2c c:/emtechesdk/gcc/bin/../lib/gcc/arm-none-eabi/4.8.3/../../../../arm-none-eabi/lib/armv7e-m\libg.a(lib_a-memset.o)
 .debug_frame   0x00008430       0x28 c:/emtechesdk/gcc/bin/../lib/gcc/arm-none-eabi/4.8.3/../../../../arm-none-eabi/lib/armv7e-m\libg.a(lib_a-strncmp.o)

Cross Reference Table

Symbol                                            File
ADCD1                                             build/obj/adc_lld.o
BusFault_Handler                                  build/obj/vectors.o
DebugMon_Handler                                  build/obj/vectors.o
ETHD1                                             build/obj/mac_lld.o
                                                  build/obj/lwipthread.o
HardFault_Handler                                 build/obj/vectors.o
MemManage_Handler                                 build/obj/vectors.o
NMI_Handler                                       build/obj/vectors.o
PendSV_Handler                                    build/obj/vectors.o
Reset_Handler                                     build/obj/crt0_v7m.o
SD1                                               build/obj/serial_lld.o
                                                  build/obj/web.o
SD4                                               build/obj/serial_lld.o
SDCD1                                             build/obj/sdc_lld.o
SPID1                                             build/obj/spi_lld.o
SVC_Handler                                       build/obj/chcore_v7m.o
                                                  build/obj/vectors.o
SysTick_Handler                                   build/obj/vectors.o
SystemCoreClock                                   build/obj/hal_lld.o
TestThread                                        build/obj/test.o
USBD1                                             build/obj/usb_lld.o
USBD2                                             build/obj/usb_lld.o
UsageFault_Handler                                build/obj/vectors.o
Vector100                                         build/obj/vectors.o
Vector104                                         build/obj/sdc_lld.o
                                                  build/obj/vectors.o
Vector108                                         build/obj/vectors.o
Vector10C                                         build/obj/vectors.o
Vector110                                         build/obj/serial_lld.o
                                                  build/obj/vectors.o
Vector114                                         build/obj/vectors.o
Vector118                                         build/obj/vectors.o
Vector11C                                         build/obj/vectors.o
Vector120                                         build/obj/stm32_dma.o
                                                  build/obj/vectors.o
Vector124                                         build/obj/stm32_dma.o
                                                  build/obj/vectors.o
Vector128                                         build/obj/stm32_dma.o
                                                  build/obj/vectors.o
Vector12C                                         build/obj/stm32_dma.o
                                                  build/obj/vectors.o
Vector130                                         build/obj/stm32_dma.o
                                                  build/obj/vectors.o
Vector134                                         build/obj/mac_lld.o
                                                  build/obj/vectors.o
Vector138                                         build/obj/vectors.o
Vector13C                                         build/obj/vectors.o
Vector140                                         build/obj/vectors.o
Vector144                                         build/obj/vectors.o
Vector148                                         build/obj/vectors.o
Vector14C                                         build/obj/usb_lld.o
                                                  build/obj/vectors.o
Vector150                                         build/obj/stm32_dma.o
                                                  build/obj/vectors.o
Vector154                                         build/obj/stm32_dma.o
                                                  build/obj/vectors.o
Vector158                                         build/obj/stm32_dma.o
                                                  build/obj/vectors.o
Vector15C                                         build/obj/vectors.o
Vector160                                         build/obj/vectors.o
Vector164                                         build/obj/vectors.o
Vector168                                         build/obj/vectors.o
Vector16C                                         build/obj/vectors.o
Vector170                                         build/obj/vectors.o
Vector174                                         build/obj/usb_lld.o
                                                  build/obj/vectors.o
Vector178                                         build/obj/vectors.o
Vector17C                                         build/obj/vectors.o
Vector180                                         build/obj/vectors.o
Vector184                                         build/obj/vectors.o
Vector188                                         build/obj/vectors.o
Vector18C                                         build/obj/vectors.o
Vector190                                         build/obj/vectors.o
Vector194                                         build/obj/vectors.o
Vector198                                         build/obj/vectors.o
Vector19C                                         build/obj/vectors.o
Vector1A0                                         build/obj/vectors.o
Vector1A4                                         build/obj/vectors.o
Vector1A8                                         build/obj/vectors.o
Vector1AC                                         build/obj/vectors.o
Vector1B0                                         build/obj/vectors.o
Vector1B4                                         build/obj/vectors.o
Vector1B8                                         build/obj/vectors.o
Vector1BC                                         build/obj/vectors.o
Vector1C                                          build/obj/vectors.o
Vector20                                          build/obj/vectors.o
Vector24                                          build/obj/vectors.o
Vector28                                          build/obj/vectors.o
Vector34                                          build/obj/vectors.o
Vector40                                          build/obj/vectors.o
Vector44                                          build/obj/vectors.o
Vector48                                          build/obj/vectors.o
Vector4C                                          build/obj/vectors.o
Vector50                                          build/obj/vectors.o
Vector54                                          build/obj/vectors.o
Vector58                                          build/obj/vectors.o
Vector5C                                          build/obj/vectors.o
Vector60                                          build/obj/vectors.o
Vector64                                          build/obj/vectors.o
Vector68                                          build/obj/vectors.o
Vector6C                                          build/obj/stm32_dma.o
                                                  build/obj/vectors.o
Vector70                                          build/obj/stm32_dma.o
                                                  build/obj/vectors.o
Vector74                                          build/obj/stm32_dma.o
                                                  build/obj/vectors.o
Vector78                                          build/obj/stm32_dma.o
                                                  build/obj/vectors.o
Vector7C                                          build/obj/stm32_dma.o
                                                  build/obj/vectors.o
Vector80                                          build/obj/stm32_dma.o
                                                  build/obj/vectors.o
Vector84                                          build/obj/stm32_dma.o
                                                  build/obj/vectors.o
Vector88                                          build/obj/adc_lld.o
                                                  build/obj/vectors.o
Vector8C                                          build/obj/vectors.o
Vector90                                          build/obj/vectors.o
Vector94                                          build/obj/vectors.o
Vector98                                          build/obj/vectors.o
Vector9C                                          build/obj/vectors.o
VectorA0                                          build/obj/vectors.o
VectorA4                                          build/obj/vectors.o
VectorA8                                          build/obj/vectors.o
VectorAC                                          build/obj/vectors.o
VectorB0                                          build/obj/st_lld.o
                                                  build/obj/vectors.o
VectorB4                                          build/obj/vectors.o
VectorB8                                          build/obj/vectors.o
VectorBC                                          build/obj/vectors.o
VectorC0                                          build/obj/vectors.o
VectorC4                                          build/obj/vectors.o
VectorC8                                          build/obj/vectors.o
VectorCC                                          build/obj/vectors.o
VectorD0                                          build/obj/vectors.o
VectorD4                                          build/obj/serial_lld.o
                                                  build/obj/vectors.o
VectorD8                                          build/obj/vectors.o
VectorDC                                          build/obj/vectors.o
VectorE0                                          build/obj/vectors.o
VectorE4                                          build/obj/vectors.o
VectorE8                                          build/obj/vectors.o
VectorEC                                          build/obj/vectors.o
VectorF0                                          build/obj/vectors.o
VectorF4                                          build/obj/vectors.o
VectorF8                                          build/obj/vectors.o
VectorFC                                          build/obj/stm32_dma.o
                                                  build/obj/vectors.o
__adddf3                                          c:/emtechesdk/gcc/bin/../lib/gcc/arm-none-eabi/4.8.3/armv7e-m\libgcc.a(_arm_addsubdf3.o)
__aeabi_cfcmpeq                                   c:/emtechesdk/gcc/bin/../lib/gcc/arm-none-eabi/4.8.3/armv7e-m\libgcc.a(_arm_cmpsf2.o)
__aeabi_cfcmple                                   c:/emtechesdk/gcc/bin/../lib/gcc/arm-none-eabi/4.8.3/armv7e-m\libgcc.a(_arm_cmpsf2.o)
__aeabi_cfrcmple                                  c:/emtechesdk/gcc/bin/../lib/gcc/arm-none-eabi/4.8.3/armv7e-m\libgcc.a(_arm_cmpsf2.o)
__aeabi_d2f                                       c:/emtechesdk/gcc/bin/../lib/gcc/arm-none-eabi/4.8.3/armv7e-m\libgcc.a(_arm_truncdfsf2.o)
                                                  build/obj/chprintf.o
__aeabi_d2iz                                      c:/emtechesdk/gcc/bin/../lib/gcc/arm-none-eabi/4.8.3/armv7e-m\libgcc.a(_arm_fixdfsi.o)
                                                  build/obj/chprintf.o
__aeabi_dadd                                      c:/emtechesdk/gcc/bin/../lib/gcc/arm-none-eabi/4.8.3/armv7e-m\libgcc.a(_arm_addsubdf3.o)
__aeabi_ddiv                                      c:/emtechesdk/gcc/bin/../lib/gcc/arm-none-eabi/4.8.3/armv7e-m\libgcc.a(_arm_muldivdf3.o)
__aeabi_dmul                                      c:/emtechesdk/gcc/bin/../lib/gcc/arm-none-eabi/4.8.3/armv7e-m\libgcc.a(_arm_muldivdf3.o)
                                                  build/obj/chprintf.o
__aeabi_drsub                                     c:/emtechesdk/gcc/bin/../lib/gcc/arm-none-eabi/4.8.3/armv7e-m\libgcc.a(_arm_addsubdf3.o)
__aeabi_dsub                                      c:/emtechesdk/gcc/bin/../lib/gcc/arm-none-eabi/4.8.3/armv7e-m\libgcc.a(_arm_addsubdf3.o)
                                                  build/obj/chprintf.o
__aeabi_f2d                                       c:/emtechesdk/gcc/bin/../lib/gcc/arm-none-eabi/4.8.3/armv7e-m\libgcc.a(_arm_addsubdf3.o)
                                                  build/obj/chprintf.o
__aeabi_fcmpeq                                    c:/emtechesdk/gcc/bin/../lib/gcc/arm-none-eabi/4.8.3/armv7e-m\libgcc.a(_arm_cmpsf2.o)
__aeabi_fcmpge                                    c:/emtechesdk/gcc/bin/../lib/gcc/arm-none-eabi/4.8.3/armv7e-m\libgcc.a(_arm_cmpsf2.o)
__aeabi_fcmpgt                                    c:/emtechesdk/gcc/bin/../lib/gcc/arm-none-eabi/4.8.3/armv7e-m\libgcc.a(_arm_cmpsf2.o)
__aeabi_fcmple                                    c:/emtechesdk/gcc/bin/../lib/gcc/arm-none-eabi/4.8.3/armv7e-m\libgcc.a(_arm_cmpsf2.o)
__aeabi_fcmplt                                    c:/emtechesdk/gcc/bin/../lib/gcc/arm-none-eabi/4.8.3/armv7e-m\libgcc.a(_arm_cmpsf2.o)
                                                  build/obj/chprintf.o
__aeabi_i2d                                       c:/emtechesdk/gcc/bin/../lib/gcc/arm-none-eabi/4.8.3/armv7e-m\libgcc.a(_arm_addsubdf3.o)
                                                  build/obj/chprintf.o
__aeabi_l2d                                       c:/emtechesdk/gcc/bin/../lib/gcc/arm-none-eabi/4.8.3/armv7e-m\libgcc.a(_arm_addsubdf3.o)
__aeabi_ui2d                                      c:/emtechesdk/gcc/bin/../lib/gcc/arm-none-eabi/4.8.3/armv7e-m\libgcc.a(_arm_addsubdf3.o)
                                                  build/obj/chprintf.o
__aeabi_ul2d                                      c:/emtechesdk/gcc/bin/../lib/gcc/arm-none-eabi/4.8.3/armv7e-m\libgcc.a(_arm_addsubdf3.o)
__cmpsf2                                          c:/emtechesdk/gcc/bin/../lib/gcc/arm-none-eabi/4.8.3/armv7e-m\libgcc.a(_arm_cmpsf2.o)
__core_init                                       build/obj/crt1.o
                                                  build/obj/crt0_v7m.o
__default_exit                                    build/obj/crt1.o
                                                  build/obj/crt0_v7m.o
__divdf3                                          c:/emtechesdk/gcc/bin/../lib/gcc/arm-none-eabi/4.8.3/armv7e-m\libgcc.a(_arm_muldivdf3.o)
__early_init                                      build/obj/board.o
                                                  build/obj/crt1.o
                                                  build/obj/crt0_v7m.o
__eqsf2                                           c:/emtechesdk/gcc/bin/../lib/gcc/arm-none-eabi/4.8.3/armv7e-m\libgcc.a(_arm_cmpsf2.o)
__extendsfdf2                                     c:/emtechesdk/gcc/bin/../lib/gcc/arm-none-eabi/4.8.3/armv7e-m\libgcc.a(_arm_addsubdf3.o)
__fini_array_end                                  build/obj/crt0_v7m.o
__fini_array_start                                build/obj/crt0_v7m.o
__fixdfsi                                         c:/emtechesdk/gcc/bin/../lib/gcc/arm-none-eabi/4.8.3/armv7e-m\libgcc.a(_arm_fixdfsi.o)
__floatdidf                                       c:/emtechesdk/gcc/bin/../lib/gcc/arm-none-eabi/4.8.3/armv7e-m\libgcc.a(_arm_addsubdf3.o)
__floatsidf                                       c:/emtechesdk/gcc/bin/../lib/gcc/arm-none-eabi/4.8.3/armv7e-m\libgcc.a(_arm_addsubdf3.o)
__floatundidf                                     c:/emtechesdk/gcc/bin/../lib/gcc/arm-none-eabi/4.8.3/armv7e-m\libgcc.a(_arm_addsubdf3.o)
__floatunsidf                                     c:/emtechesdk/gcc/bin/../lib/gcc/arm-none-eabi/4.8.3/armv7e-m\libgcc.a(_arm_addsubdf3.o)
__gesf2                                           c:/emtechesdk/gcc/bin/../lib/gcc/arm-none-eabi/4.8.3/armv7e-m\libgcc.a(_arm_cmpsf2.o)
__gtsf2                                           c:/emtechesdk/gcc/bin/../lib/gcc/arm-none-eabi/4.8.3/armv7e-m\libgcc.a(_arm_cmpsf2.o)
__heap_base__                                     build/obj/chmemcore.o
__heap_end__                                      build/obj/chmemcore.o
__init_array_end                                  build/obj/crt0_v7m.o
__init_array_start                                build/obj/crt0_v7m.o
__late_init                                       build/obj/crt1.o
                                                  build/obj/crt0_v7m.o
__lesf2                                           c:/emtechesdk/gcc/bin/../lib/gcc/arm-none-eabi/4.8.3/armv7e-m\libgcc.a(_arm_cmpsf2.o)
__ltsf2                                           c:/emtechesdk/gcc/bin/../lib/gcc/arm-none-eabi/4.8.3/armv7e-m\libgcc.a(_arm_cmpsf2.o)
__main_stack_base__                               build/obj/crt0_v7m.o
__main_stack_end__                                build/obj/vectors.o
                                                  build/obj/crt0_v7m.o
__main_thread_stack_base__                        build/obj/chsys.o
__muldf3                                          c:/emtechesdk/gcc/bin/../lib/gcc/arm-none-eabi/4.8.3/armv7e-m\libgcc.a(_arm_muldivdf3.o)
__nesf2                                           c:/emtechesdk/gcc/bin/../lib/gcc/arm-none-eabi/4.8.3/armv7e-m\libgcc.a(_arm_cmpsf2.o)
__process_stack_base__                            build/obj/crt0_v7m.o
__process_stack_end__                             build/obj/crt0_v7m.o
__subdf3                                          c:/emtechesdk/gcc/bin/../lib/gcc/arm-none-eabi/4.8.3/armv7e-m\libgcc.a(_arm_addsubdf3.o)
__truncdfsf2                                      c:/emtechesdk/gcc/bin/../lib/gcc/arm-none-eabi/4.8.3/armv7e-m\libgcc.a(_arm_truncdfsf2.o)
_bss_end                                          build/obj/crt0_v7m.o
_bss_start                                        build/obj/crt0_v7m.o
_core_init                                        build/obj/chmemcore.o
                                                  build/obj/chsys.o
_data                                             build/obj/crt0_v7m.o
_dbg_check_disable                                build/obj/chdebug.o
                                                  build/obj/testsys.o
_dbg_check_enable                                 build/obj/chdebug.o
                                                  build/obj/testsys.o
                                                  build/obj/chsys.o
_dbg_check_enter_isr                              build/obj/chdebug.o
                                                  build/obj/serial_lld.o
                                                  build/obj/st_lld.o
                                                  build/obj/usb_lld.o
                                                  build/obj/sdc_lld.o
                                                  build/obj/mac_lld.o
                                                  build/obj/adc_lld.o
                                                  build/obj/stm32_dma.o
_dbg_check_leave_isr                              build/obj/chdebug.o
                                                  build/obj/serial_lld.o
                                                  build/obj/st_lld.o
                                                  build/obj/usb_lld.o
                                                  build/obj/sdc_lld.o
                                                  build/obj/mac_lld.o
                                                  build/obj/adc_lld.o
                                                  build/obj/stm32_dma.o
_dbg_check_lock                                   build/obj/chdebug.o
                                                  build/obj/evtimer.o
                                                  build/obj/sys_arch.o
                                                  build/obj/lwipthread.o
                                                  build/obj/testbmk.o
                                                  build/obj/testsys.o
                                                  build/obj/testqueues.o
                                                  build/obj/testevt.o
                                                  build/obj/testmbox.o
                                                  build/obj/testmtx.o
                                                  build/obj/testsem.o
                                                  build/obj/testthd.o
                                                  build/obj/test.o
                                                  build/obj/usb_lld.o
                                                  build/obj/sdc_lld.o
                                                  build/obj/mac_lld.o
                                                  build/obj/usb.o
                                                  build/obj/spi.o
                                                  build/obj/serial.o
                                                  build/obj/sdc.o
                                                  build/obj/mac.o
                                                  build/obj/adc.o
                                                  build/obj/chmempools.o
                                                  build/obj/chmemcore.o
                                                  build/obj/chqueues.o
                                                  build/obj/chmboxes.o
                                                  build/obj/chmsg.o
                                                  build/obj/chevents.o
                                                  build/obj/chcond.o
                                                  build/obj/chmtx.o
                                                  build/obj/chsem.o
                                                  build/obj/chregistry.o
                                                  build/obj/chdynamic.o
                                                  build/obj/chthreads.o
                                                  build/obj/chsys.o
                                                  build/obj/chcoreasm_v7m.o
_dbg_check_lock_from_isr                          build/obj/chdebug.o
                                                  build/obj/evtimer.o
                                                  build/obj/testsys.o
                                                  build/obj/serial_lld.o
                                                  build/obj/st_lld.o
                                                  build/obj/spi_lld.o
                                                  build/obj/usb_lld.o
                                                  build/obj/sdc_lld.o
                                                  build/obj/mac_lld.o
                                                  build/obj/adc_lld.o
                                                  build/obj/usb.o
                                                  build/obj/chschd.o
                                                  build/obj/chsys.o
_dbg_check_suspend                                build/obj/chdebug.o
                                                  build/obj/testsys.o
_dbg_check_unlock                                 build/obj/chdebug.o
                                                  build/obj/evtimer.o
                                                  build/obj/sys_arch.o
                                                  build/obj/lwipthread.o
                                                  build/obj/testbmk.o
                                                  build/obj/testsys.o
                                                  build/obj/testqueues.o
                                                  build/obj/testevt.o
                                                  build/obj/testmbox.o
                                                  build/obj/testmtx.o
                                                  build/obj/testsem.o
                                                  build/obj/testthd.o
                                                  build/obj/test.o
                                                  build/obj/usb_lld.o
                                                  build/obj/sdc_lld.o
                                                  build/obj/mac_lld.o
                                                  build/obj/usb.o
                                                  build/obj/spi.o
                                                  build/obj/serial.o
                                                  build/obj/sdc.o
                                                  build/obj/mac.o
                                                  build/obj/adc.o
                                                  build/obj/chmempools.o
                                                  build/obj/chmemcore.o
                                                  build/obj/chqueues.o
                                                  build/obj/chmboxes.o
                                                  build/obj/chmsg.o
                                                  build/obj/chevents.o
                                                  build/obj/chcond.o
                                                  build/obj/chmtx.o
                                                  build/obj/chsem.o
                                                  build/obj/chregistry.o
                                                  build/obj/chdynamic.o
                                                  build/obj/chthreads.o
                                                  build/obj/chsys.o
                                                  build/obj/chcoreasm_v7m.o
_dbg_check_unlock_from_isr                        build/obj/chdebug.o
                                                  build/obj/evtimer.o
                                                  build/obj/testsys.o
                                                  build/obj/serial_lld.o
                                                  build/obj/st_lld.o
                                                  build/obj/spi_lld.o
                                                  build/obj/usb_lld.o
                                                  build/obj/sdc_lld.o
                                                  build/obj/mac_lld.o
                                                  build/obj/adc_lld.o
                                                  build/obj/usb.o
                                                  build/obj/chschd.o
                                                  build/obj/chsys.o
_dbg_trace                                        build/obj/chdebug.o
                                                  build/obj/chschd.o
_dbg_trace_init                                   build/obj/chdebug.o
                                                  build/obj/chsys.o
_edata                                            build/obj/crt0_v7m.o
_heap_init                                        build/obj/chheap.o
                                                  build/obj/chsys.o
_mmcsd_get_capacity                               build/obj/hal_mmcsd.o
                                                  build/obj/sdc.o
_mmcsd_get_capacity_ext                           build/obj/hal_mmcsd.o
                                                  build/obj/sdc.o
_mmcsd_get_slice                                  build/obj/hal_mmcsd.o
                                                  build/obj/sdc.o
_mmcsd_unpack_csd_mmc                             build/obj/hal_mmcsd.o
_mmcsd_unpack_csd_v10                             build/obj/hal_mmcsd.o
_mmcsd_unpack_csd_v20                             build/obj/hal_mmcsd.o
_mmcsd_unpack_mmc_cid                             build/obj/hal_mmcsd.o
_mmcsd_unpack_sdc_cid                             build/obj/hal_mmcsd.o
_pal_lld_init                                     build/obj/pal_lld.o
                                                  build/obj/hal.o
_pal_lld_setgroupmode                             build/obj/pal_lld.o
                                                  build/obj/pal.o
_port_exit_from_isr                               build/obj/chcoreasm_v7m.o
                                                  build/obj/chcore_v7m.o
_port_irq_epilogue                                build/obj/chcore_v7m.o
                                                  build/obj/serial_lld.o
                                                  build/obj/st_lld.o
                                                  build/obj/usb_lld.o
                                                  build/obj/sdc_lld.o
                                                  build/obj/mac_lld.o
                                                  build/obj/adc_lld.o
                                                  build/obj/stm32_dma.o
_port_switch                                      build/obj/chcoreasm_v7m.o
                                                  build/obj/chschd.o
_port_switch_from_isr                             build/obj/chcoreasm_v7m.o
                                                  build/obj/chcore_v7m.o
_port_thread_start                                build/obj/chcoreasm_v7m.o
                                                  build/obj/chthreads.o
_scheduler_init                                   build/obj/chschd.o
                                                  build/obj/chsys.o
_sdc_wait_for_transfer_state                      build/obj/sdc.o
                                                  build/obj/sdc_lld.o
_stats_ctxswc                                     build/obj/chstats.o
                                                  build/obj/chschd.o
_stats_increase_irq                               build/obj/chstats.o
                                                  build/obj/serial_lld.o
                                                  build/obj/st_lld.o
                                                  build/obj/usb_lld.o
                                                  build/obj/sdc_lld.o
                                                  build/obj/mac_lld.o
                                                  build/obj/adc_lld.o
                                                  build/obj/stm32_dma.o
_stats_init                                       build/obj/chstats.o
                                                  build/obj/chsys.o
_stats_start_measure_crit_isr                     build/obj/chstats.o
                                                  build/obj/evtimer.o
                                                  build/obj/testsys.o
                                                  build/obj/serial_lld.o
                                                  build/obj/st_lld.o
                                                  build/obj/spi_lld.o
                                                  build/obj/usb_lld.o
                                                  build/obj/sdc_lld.o
                                                  build/obj/mac_lld.o
                                                  build/obj/adc_lld.o
                                                  build/obj/usb.o
                                                  build/obj/chschd.o
                                                  build/obj/chsys.o
_stats_start_measure_crit_thd                     build/obj/chstats.o
                                                  build/obj/evtimer.o
                                                  build/obj/sys_arch.o
                                                  build/obj/lwipthread.o
                                                  build/obj/testbmk.o
                                                  build/obj/testsys.o
                                                  build/obj/testqueues.o
                                                  build/obj/testevt.o
                                                  build/obj/testmbox.o
                                                  build/obj/testmtx.o
                                                  build/obj/testsem.o
                                                  build/obj/testthd.o
                                                  build/obj/test.o
                                                  build/obj/usb_lld.o
                                                  build/obj/sdc_lld.o
                                                  build/obj/mac_lld.o
                                                  build/obj/usb.o
                                                  build/obj/spi.o
                                                  build/obj/serial.o
                                                  build/obj/sdc.o
                                                  build/obj/mac.o
                                                  build/obj/adc.o
                                                  build/obj/chmempools.o
                                                  build/obj/chmemcore.o
                                                  build/obj/chqueues.o
                                                  build/obj/chmboxes.o
                                                  build/obj/chmsg.o
                                                  build/obj/chevents.o
                                                  build/obj/chcond.o
                                                  build/obj/chmtx.o
                                                  build/obj/chsem.o
                                                  build/obj/chregistry.o
                                                  build/obj/chdynamic.o
                                                  build/obj/chthreads.o
                                                  build/obj/chsys.o
                                                  build/obj/chcoreasm_v7m.o
_stats_stop_measure_crit_isr                      build/obj/chstats.o
                                                  build/obj/evtimer.o
                                                  build/obj/testsys.o
                                                  build/obj/serial_lld.o
                                                  build/obj/st_lld.o
                                                  build/obj/spi_lld.o
                                                  build/obj/usb_lld.o
                                                  build/obj/sdc_lld.o
                                                  build/obj/mac_lld.o
                                                  build/obj/adc_lld.o
                                                  build/obj/usb.o
                                                  build/obj/chschd.o
                                                  build/obj/chsys.o
_stats_stop_measure_crit_thd                      build/obj/chstats.o
                                                  build/obj/evtimer.o
                                                  build/obj/sys_arch.o
                                                  build/obj/lwipthread.o
                                                  build/obj/testbmk.o
                                                  build/obj/testsys.o
                                                  build/obj/testqueues.o
                                                  build/obj/testevt.o
                                                  build/obj/testmbox.o
                                                  build/obj/testmtx.o
                                                  build/obj/testsem.o
                                                  build/obj/testthd.o
                                                  build/obj/test.o
                                                  build/obj/usb_lld.o
                                                  build/obj/sdc_lld.o
                                                  build/obj/mac_lld.o
                                                  build/obj/usb.o
                                                  build/obj/spi.o
                                                  build/obj/serial.o
                                                  build/obj/sdc.o
                                                  build/obj/mac.o
                                                  build/obj/adc.o
                                                  build/obj/chmempools.o
                                                  build/obj/chmemcore.o
                                                  build/obj/chqueues.o
                                                  build/obj/chmboxes.o
                                                  build/obj/chmsg.o
                                                  build/obj/chevents.o
                                                  build/obj/chcond.o
                                                  build/obj/chmtx.o
                                                  build/obj/chsem.o
                                                  build/obj/chregistry.o
                                                  build/obj/chdynamic.o
                                                  build/obj/chthreads.o
                                                  build/obj/chsys.o
                                                  build/obj/chcoreasm_v7m.o
_stm32_dma_streams                                build/obj/stm32_dma.o
                                                  build/obj/spi_lld.o
                                                  build/obj/sdc_lld.o
                                                  build/obj/adc_lld.o
_test_assert                                      build/obj/test.o
                                                  build/obj/testsys.o
                                                  build/obj/testqueues.o
                                                  build/obj/testdyn.o
                                                  build/obj/testpools.o
                                                  build/obj/testheap.o
                                                  build/obj/testevt.o
                                                  build/obj/testmbox.o
                                                  build/obj/testmtx.o
                                                  build/obj/testsem.o
                                                  build/obj/testthd.o
_test_assert_sequence                             build/obj/test.o
                                                  build/obj/testqueues.o
                                                  build/obj/testdyn.o
                                                  build/obj/testevt.o
                                                  build/obj/testmbox.o
                                                  build/obj/testmsg.o
                                                  build/obj/testmtx.o
                                                  build/obj/testsem.o
                                                  build/obj/testthd.o
_test_assert_time_window                          build/obj/test.o
                                                  build/obj/testevt.o
                                                  build/obj/testsem.o
                                                  build/obj/testthd.o
_test_fail                                        build/obj/test.o
_textdata                                         build/obj/crt0_v7m.o
_thread_init                                      build/obj/chthreads.o
                                                  build/obj/chsys.o
_thread_memfill                                   build/obj/chthreads.o
                                                  build/obj/sys_arch.o
                                                  build/obj/usb_lld.o
                                                  build/obj/chdynamic.o
_tm_init                                          build/obj/chtm.o
                                                  build/obj/chsys.o
_unhandled_exception                              build/obj/vectors.o
_usb_ep0in                                        build/obj/usb.o
                                                  build/obj/usb_lld.o
_usb_ep0out                                       build/obj/usb.o
                                                  build/obj/usb_lld.o
_usb_ep0setup                                     build/obj/usb.o
                                                  build/obj/usb_lld.o
_usb_reset                                        build/obj/usb.o
                                                  build/obj/usb_lld.o
_vectors                                          build/obj/vectors.o
_vt_init                                          build/obj/chvt.o
                                                  build/obj/chsys.o
adcAcquireBus                                     build/obj/adc.o
adcConvert                                        build/obj/adc.o
adcInit                                           build/obj/adc.o
                                                  build/obj/hal.o
adcObjectInit                                     build/obj/adc.o
                                                  build/obj/adc_lld.o
adcReleaseBus                                     build/obj/adc.o
adcSTM32DisableTSVREFE                            build/obj/adc_lld.o
adcSTM32DisableVBATE                              build/obj/adc_lld.o
adcSTM32EnableTSVREFE                             build/obj/adc_lld.o
adcSTM32EnableVBATE                               build/obj/adc_lld.o
adcStart                                          build/obj/adc.o
adcStartConversion                                build/obj/adc.o
adcStartConversionI                               build/obj/adc.o
adcStop                                           build/obj/adc.o
adcStopConversion                                 build/obj/adc.o
adcStopConversionI                                build/obj/adc.o
adc_lld_init                                      build/obj/adc_lld.o
                                                  build/obj/adc.o
adc_lld_start                                     build/obj/adc_lld.o
                                                  build/obj/adc.o
adc_lld_start_conversion                          build/obj/adc_lld.o
                                                  build/obj/adc.o
adc_lld_stop                                      build/obj/adc_lld.o
                                                  build/obj/adc.o
adc_lld_stop_conversion                           build/obj/adc_lld.o
                                                  build/obj/adc.o
boardInit                                         build/obj/board.o
                                                  build/obj/hal.o
ch                                                build/obj/chschd.o
                                                  build/obj/main.o
                                                  build/obj/evtimer.o
                                                  build/obj/sys_arch.o
                                                  build/obj/lwipthread.o
                                                  build/obj/testbmk.o
                                                  build/obj/testsys.o
                                                  build/obj/testqueues.o
                                                  build/obj/testdyn.o
                                                  build/obj/testevt.o
                                                  build/obj/testmbox.o
                                                  build/obj/testmsg.o
                                                  build/obj/testmtx.o
                                                  build/obj/testsem.o
                                                  build/obj/testthd.o
                                                  build/obj/test.o
                                                  build/obj/usb_lld.o
                                                  build/obj/sdc_lld.o
                                                  build/obj/mac_lld.o
                                                  build/obj/usb.o
                                                  build/obj/spi.o
                                                  build/obj/serial.o
                                                  build/obj/sdc.o
                                                  build/obj/mac.o
                                                  build/obj/adc.o
                                                  build/obj/chmempools.o
                                                  build/obj/chmemcore.o
                                                  build/obj/chqueues.o
                                                  build/obj/chmboxes.o
                                                  build/obj/chmsg.o
                                                  build/obj/chevents.o
                                                  build/obj/chcond.o
                                                  build/obj/chmtx.o
                                                  build/obj/chsem.o
                                                  build/obj/chregistry.o
                                                  build/obj/chdynamic.o
                                                  build/obj/chstats.o
                                                  build/obj/chtm.o
                                                  build/obj/chthreads.o
                                                  build/obj/chvt.o
                                                  build/obj/chdebug.o
                                                  build/obj/chsys.o
chCondBroadcast                                   build/obj/chcond.o
                                                  build/obj/testmtx.o
chCondBroadcastI                                  build/obj/chcond.o
chCondObjectInit                                  build/obj/chcond.o
                                                  build/obj/testmtx.o
chCondSignal                                      build/obj/chcond.o
                                                  build/obj/testmtx.o
chCondSignalI                                     build/obj/chcond.o
                                                  build/obj/testmtx.o
chCondWait                                        build/obj/chcond.o
                                                  build/obj/testmtx.o
chCondWaitS                                       build/obj/chcond.o
chCondWaitTimeout                                 build/obj/chcond.o
                                                  build/obj/testmtx.o
chCondWaitTimeoutS                                build/obj/chcond.o
chCoreAlloc                                       build/obj/chmemcore.o
                                                  build/obj/sys_arch.o
                                                  build/obj/chheap.o
chCoreAllocI                                      build/obj/chmemcore.o
chCoreGetStatusX                                  build/obj/chmemcore.o
                                                  build/obj/testheap.o
chDbgCheckClassI                                  build/obj/chdebug.o
                                                  build/obj/evtimer.o
                                                  build/obj/sys_arch.o
                                                  build/obj/testsys.o
                                                  build/obj/testqueues.o
                                                  build/obj/testmbox.o
                                                  build/obj/testsem.o
                                                  build/obj/test.o
                                                  build/obj/serial_lld.o
                                                  build/obj/usb.o
                                                  build/obj/serial.o
                                                  build/obj/adc.o
                                                  build/obj/chmempools.o
                                                  build/obj/chmemcore.o
                                                  build/obj/chqueues.o
                                                  build/obj/chmboxes.o
                                                  build/obj/chmsg.o
                                                  build/obj/chevents.o
                                                  build/obj/chcond.o
                                                  build/obj/chsem.o
                                                  build/obj/chthreads.o
                                                  build/obj/chschd.o
                                                  build/obj/chvt.o
                                                  build/obj/chsys.o
chDbgCheckClassS                                  build/obj/chdebug.o
                                                  build/obj/chmboxes.o
                                                  build/obj/chmsg.o
                                                  build/obj/chcond.o
                                                  build/obj/chmtx.o
                                                  build/obj/chsem.o
                                                  build/obj/chthreads.o
                                                  build/obj/chschd.o
chEvtAddEvents                                    build/obj/chevents.o
                                                  build/obj/lwipthread.o
                                                  build/obj/testevt.o
chEvtBroadcastFlags                               build/obj/chevents.o
                                                  build/obj/testevt.o
chEvtBroadcastFlagsI                              build/obj/chevents.o
                                                  build/obj/evtimer.o
                                                  build/obj/serial_lld.o
                                                  build/obj/mac_lld.o
                                                  build/obj/serial.o
chEvtDispatch                                     build/obj/chevents.o
                                                  build/obj/testevt.o
chEvtGetAndClearEvents                            build/obj/chevents.o
                                                  build/obj/testevt.o
chEvtGetAndClearFlags                             build/obj/chevents.o
chEvtGetAndClearFlagsI                            build/obj/chevents.o
chEvtRegisterMaskWithFlags                        build/obj/chevents.o
                                                  build/obj/lwipthread.o
                                                  build/obj/testevt.o
chEvtSignal                                       build/obj/chevents.o
                                                  build/obj/testevt.o
chEvtSignalI                                      build/obj/chevents.o
chEvtUnregister                                   build/obj/chevents.o
                                                  build/obj/testevt.o
chEvtWaitAll                                      build/obj/chevents.o
                                                  build/obj/testevt.o
chEvtWaitAllTimeout                               build/obj/chevents.o
                                                  build/obj/testevt.o
chEvtWaitAny                                      build/obj/chevents.o
                                                  build/obj/lwipthread.o
                                                  build/obj/testevt.o
chEvtWaitAnyTimeout                               build/obj/chevents.o
                                                  build/obj/testevt.o
chEvtWaitOne                                      build/obj/chevents.o
                                                  build/obj/testevt.o
chEvtWaitOneTimeout                               build/obj/chevents.o
                                                  build/obj/testevt.o
chHeapAlloc                                       build/obj/chheap.o
                                                  build/obj/sys_arch.o
                                                  build/obj/testdyn.o
                                                  build/obj/testheap.o
                                                  build/obj/chdynamic.o
chHeapFree                                        build/obj/chheap.o
                                                  build/obj/sys_arch.o
                                                  build/obj/testdyn.o
                                                  build/obj/testheap.o
                                                  build/obj/chdynamic.o
chHeapObjectInit                                  build/obj/chheap.o
                                                  build/obj/testdyn.o
                                                  build/obj/testheap.o
chHeapStatus                                      build/obj/chheap.o
                                                  build/obj/testdyn.o
                                                  build/obj/testheap.o
chIQGetTimeout                                    build/obj/chqueues.o
                                                  build/obj/testbmk.o
                                                  build/obj/testqueues.o
                                                  build/obj/serial.o
chIQObjectInit                                    build/obj/chqueues.o
                                                  build/obj/testbmk.o
                                                  build/obj/testqueues.o
                                                  build/obj/serial.o
chIQPutI                                          build/obj/chqueues.o
                                                  build/obj/testbmk.o
                                                  build/obj/testqueues.o
                                                  build/obj/serial.o
chIQReadTimeout                                   build/obj/chqueues.o
                                                  build/obj/testqueues.o
                                                  build/obj/serial.o
chIQResetI                                        build/obj/chqueues.o
                                                  build/obj/testqueues.o
                                                  build/obj/serial.o
chMBFetch                                         build/obj/chmboxes.o
                                                  build/obj/sys_arch.o
                                                  build/obj/testmbox.o
chMBFetchI                                        build/obj/chmboxes.o
                                                  build/obj/testmbox.o
chMBFetchS                                        build/obj/chmboxes.o
                                                  build/obj/sys_arch.o
chMBObjectInit                                    build/obj/chmboxes.o
                                                  build/obj/sys_arch.o
                                                  build/obj/testmbox.o
chMBPost                                          build/obj/chmboxes.o
                                                  build/obj/sys_arch.o
                                                  build/obj/testmbox.o
chMBPostAhead                                     build/obj/chmboxes.o
                                                  build/obj/testmbox.o
chMBPostAheadI                                    build/obj/chmboxes.o
                                                  build/obj/testmbox.o
chMBPostAheadS                                    build/obj/chmboxes.o
chMBPostI                                         build/obj/chmboxes.o
                                                  build/obj/testmbox.o
chMBPostS                                         build/obj/chmboxes.o
chMBReset                                         build/obj/chmboxes.o
                                                  build/obj/sys_arch.o
                                                  build/obj/testmbox.o
chMBResetI                                        build/obj/chmboxes.o
chMsgRelease                                      build/obj/chmsg.o
                                                  build/obj/testbmk.o
                                                  build/obj/testmsg.o
chMsgSend                                         build/obj/chmsg.o
                                                  build/obj/testbmk.o
                                                  build/obj/testmsg.o
chMsgWait                                         build/obj/chmsg.o
                                                  build/obj/testbmk.o
                                                  build/obj/testmsg.o
chMtxLock                                         build/obj/chmtx.o
                                                  build/obj/testbmk.o
                                                  build/obj/testmtx.o
                                                  build/obj/spi.o
                                                  build/obj/adc.o
                                                  build/obj/chheap.o
chMtxLockS                                        build/obj/chmtx.o
                                                  build/obj/chcond.o
chMtxObjectInit                                   build/obj/chmtx.o
                                                  build/obj/testbmk.o
                                                  build/obj/testmtx.o
                                                  build/obj/spi.o
                                                  build/obj/adc.o
                                                  build/obj/chheap.o
chMtxTryLock                                      build/obj/chmtx.o
                                                  build/obj/testmtx.o
chMtxTryLockS                                     build/obj/chmtx.o
chMtxUnlock                                       build/obj/chmtx.o
                                                  build/obj/testbmk.o
                                                  build/obj/testmtx.o
                                                  build/obj/spi.o
                                                  build/obj/adc.o
                                                  build/obj/chheap.o
chMtxUnlockAll                                    build/obj/chmtx.o
                                                  build/obj/testmtx.o
chMtxUnlockS                                      build/obj/chmtx.o
                                                  build/obj/testmtx.o
                                                  build/obj/chcond.o
chOQGetI                                          build/obj/chqueues.o
                                                  build/obj/testqueues.o
                                                  build/obj/serial_lld.o
                                                  build/obj/serial.o
chOQObjectInit                                    build/obj/chqueues.o
                                                  build/obj/testqueues.o
                                                  build/obj/serial.o
chOQPutTimeout                                    build/obj/chqueues.o
                                                  build/obj/testqueues.o
                                                  build/obj/serial.o
chOQResetI                                        build/obj/chqueues.o
                                                  build/obj/testqueues.o
                                                  build/obj/serial.o
chOQWriteTimeout                                  build/obj/chqueues.o
                                                  build/obj/testqueues.o
                                                  build/obj/serial.o
chPoolAlloc                                       build/obj/chmempools.o
                                                  build/obj/testdyn.o
                                                  build/obj/testpools.o
                                                  build/obj/chdynamic.o
chPoolAllocI                                      build/obj/chmempools.o
chPoolFree                                        build/obj/chmempools.o
                                                  build/obj/testdyn.o
                                                  build/obj/testpools.o
                                                  build/obj/chdynamic.o
chPoolFreeI                                       build/obj/chmempools.o
chPoolLoadArray                                   build/obj/chmempools.o
                                                  build/obj/testpools.o
chPoolObjectInit                                  build/obj/chmempools.o
                                                  build/obj/testdyn.o
                                                  build/obj/testpools.o
chRegFirstThread                                  build/obj/chregistry.o
                                                  build/obj/testdyn.o
chRegNextThread                                   build/obj/chregistry.o
                                                  build/obj/testdyn.o
chSchDoReschedule                                 build/obj/chschd.o
                                                  build/obj/chcoreasm_v7m.o
chSchDoRescheduleAhead                            build/obj/chschd.o
chSchDoRescheduleBehind                           build/obj/chschd.o
                                                  build/obj/chthreads.o
chSchGoSleepS                                     build/obj/chschd.o
                                                  build/obj/testbmk.o
                                                  build/obj/chmsg.o
                                                  build/obj/chevents.o
                                                  build/obj/chcond.o
                                                  build/obj/chmtx.o
                                                  build/obj/chsem.o
                                                  build/obj/chthreads.o
chSchGoSleepTimeoutS                              build/obj/chschd.o
                                                  build/obj/chevents.o
                                                  build/obj/chcond.o
                                                  build/obj/chsem.o
                                                  build/obj/chthreads.o
chSchIsPreemptionRequired                         build/obj/chschd.o
                                                  build/obj/chcore_v7m.o
chSchReadyI                                       build/obj/chschd.o
                                                  build/obj/sys_arch.o
                                                  build/obj/usb_lld.o
                                                  build/obj/chmsg.o
                                                  build/obj/chevents.o
                                                  build/obj/chcond.o
                                                  build/obj/chmtx.o
                                                  build/obj/chsem.o
                                                  build/obj/chthreads.o
chSchRescheduleS                                  build/obj/chschd.o
                                                  build/obj/sys_arch.o
                                                  build/obj/testmtx.o
                                                  build/obj/testsem.o
                                                  build/obj/usb_lld.o
                                                  build/obj/serial.o
                                                  build/obj/chmboxes.o
                                                  build/obj/chevents.o
                                                  build/obj/chcond.o
                                                  build/obj/chmtx.o
                                                  build/obj/chsem.o
                                                  build/obj/chthreads.o
                                                  build/obj/chsys.o
chSchWakeupS                                      build/obj/chschd.o
                                                  build/obj/testbmk.o
                                                  build/obj/chmsg.o
                                                  build/obj/chcond.o
                                                  build/obj/chsem.o
                                                  build/obj/chdynamic.o
                                                  build/obj/chthreads.o
chSemAddCounterI                                  build/obj/chsem.o
                                                  build/obj/testsem.o
chSemObjectInit                                   build/obj/chsem.o
                                                  build/obj/sys_arch.o
                                                  build/obj/testbmk.o
                                                  build/obj/testsem.o
                                                  build/obj/chmboxes.o
chSemReset                                        build/obj/chsem.o
                                                  build/obj/testbmk.o
                                                  build/obj/testsem.o
chSemResetI                                       build/obj/chsem.o
                                                  build/obj/chmboxes.o
chSemSignal                                       build/obj/chsem.o
                                                  build/obj/sys_arch.o
                                                  build/obj/testbmk.o
                                                  build/obj/testsem.o
chSemSignalI                                      build/obj/chsem.o
                                                  build/obj/sys_arch.o
                                                  build/obj/testsem.o
                                                  build/obj/chmboxes.o
chSemSignalWait                                   build/obj/chsem.o
                                                  build/obj/testsem.o
chSemWait                                         build/obj/chsem.o
                                                  build/obj/testbmk.o
                                                  build/obj/testsem.o
chSemWaitS                                        build/obj/chsem.o
chSemWaitTimeout                                  build/obj/chsem.o
                                                  build/obj/testsem.o
chSemWaitTimeoutS                                 build/obj/chsem.o
                                                  build/obj/sys_arch.o
                                                  build/obj/chmboxes.o
chSysGetStatusAndLockX                            build/obj/chsys.o
                                                  build/obj/sys_arch.o
                                                  build/obj/testsys.o
chSysHalt                                         build/obj/chsys.o
                                                  build/obj/web.o
                                                  build/obj/evtimer.o
                                                  build/obj/tcpip.o
                                                  build/obj/sockets.o
                                                  build/obj/netbuf.o
                                                  build/obj/api_msg.o
                                                  build/obj/api_lib.o
                                                  build/obj/timers.o
                                                  build/obj/ip_frag.o
                                                  build/obj/ip_addr.o
                                                  build/obj/ip.o
                                                  build/obj/inet_chksum.o
                                                  build/obj/icmp.o
                                                  build/obj/udp.o
                                                  build/obj/tcp_out.o
                                                  build/obj/tcp_in.o
                                                  build/obj/tcp.o
                                                  build/obj/raw.o
                                                  build/obj/pbuf.o
                                                  build/obj/netif.o
                                                  build/obj/memp.o
                                                  build/obj/mem.o
                                                  build/obj/etharp.o
                                                  build/obj/sys_arch.o
                                                  build/obj/lwipthread.o
                                                  build/obj/testbmk.o
                                                  build/obj/testsys.o
                                                  build/obj/testqueues.o
                                                  build/obj/testevt.o
                                                  build/obj/testmbox.o
                                                  build/obj/testmtx.o
                                                  build/obj/testsem.o
                                                  build/obj/testthd.o
                                                  build/obj/test.o
                                                  build/obj/spi_lld.o
                                                  build/obj/usb_lld.o
                                                  build/obj/sdc_lld.o
                                                  build/obj/mac_lld.o
                                                  build/obj/adc_lld.o
                                                  build/obj/stm32_dma.o
                                                  build/obj/nvic.o
                                                  build/obj/usb.o
                                                  build/obj/st.o
                                                  build/obj/spi.o
                                                  build/obj/serial.o
                                                  build/obj/sdc.o
                                                  build/obj/pal.o
                                                  build/obj/mac.o
                                                  build/obj/adc.o
                                                  build/obj/hal_mmcsd.o
                                                  build/obj/chmempools.o
                                                  build/obj/chheap.o
                                                  build/obj/chmemcore.o
                                                  build/obj/chqueues.o
                                                  build/obj/chmboxes.o
                                                  build/obj/chmsg.o
                                                  build/obj/chevents.o
                                                  build/obj/chcond.o
                                                  build/obj/chmtx.o
                                                  build/obj/chsem.o
                                                  build/obj/chregistry.o
                                                  build/obj/chdynamic.o
                                                  build/obj/chthreads.o
                                                  build/obj/chschd.o
                                                  build/obj/chvt.o
                                                  build/obj/chdebug.o
chSysInit                                         build/obj/chsys.o
                                                  build/obj/main.o
chSysIntegrityCheckI                              build/obj/chsys.o
                                                  build/obj/testsys.o
chSysIsCounterWithinX                             build/obj/chsys.o
chSysPolledDelayX                                 build/obj/chsys.o
                                                  build/obj/usb_lld.o
chSysRestoreStatusX                               build/obj/chsys.o
                                                  build/obj/sys_arch.o
                                                  build/obj/testsys.o
chSysTimerHandlerI                                build/obj/chsys.o
                                                  build/obj/st_lld.o
chTMChainMeasurementToX                           build/obj/chtm.o
                                                  build/obj/chstats.o
chTMObjectInit                                    build/obj/chtm.o
                                                  build/obj/chstats.o
                                                  build/obj/chthreads.o
chTMStartMeasurementX                             build/obj/chtm.o
                                                  build/obj/chstats.o
                                                  build/obj/chthreads.o
chTMStopMeasurementX                              build/obj/chtm.o
                                                  build/obj/chstats.o
chThdAddRef                                       build/obj/chdynamic.o
                                                  build/obj/testdyn.o
chThdCreateFromHeap                               build/obj/chdynamic.o
                                                  build/obj/testdyn.o
chThdCreateFromMemoryPool                         build/obj/chdynamic.o
                                                  build/obj/testdyn.o
chThdCreateI                                      build/obj/chthreads.o
                                                  build/obj/sys_arch.o
                                                  build/obj/testthd.o
                                                  build/obj/usb_lld.o
                                                  build/obj/chdynamic.o
chThdCreateStatic                                 build/obj/chthreads.o
                                                  build/obj/main.o
                                                  build/obj/lwipthread.o
                                                  build/obj/testbmk.o
                                                  build/obj/testqueues.o
                                                  build/obj/testevt.o
                                                  build/obj/testmsg.o
                                                  build/obj/testmtx.o
                                                  build/obj/testsem.o
                                                  build/obj/testthd.o
                                                  build/obj/chsys.o
chThdDequeueAllI                                  build/obj/chthreads.o
                                                  build/obj/usb_lld.o
                                                  build/obj/mac_lld.o
                                                  build/obj/chqueues.o
chThdDequeueNextI                                 build/obj/chthreads.o
                                                  build/obj/chqueues.o
chThdEnqueueTimeoutS                              build/obj/chthreads.o
                                                  build/obj/mac.o
                                                  build/obj/chqueues.o
chThdExit                                         build/obj/chthreads.o
                                                  build/obj/web.o
                                                  build/obj/testbmk.o
                                                  build/obj/chcoreasm_v7m.o
chThdExitS                                        build/obj/chthreads.o
chThdRelease                                      build/obj/chdynamic.o
                                                  build/obj/testdyn.o
                                                  build/obj/chregistry.o
                                                  build/obj/chthreads.o
chThdResume                                       build/obj/chthreads.o
                                                  build/obj/lwipthread.o
chThdResumeI                                      build/obj/chthreads.o
                                                  build/obj/spi_lld.o
                                                  build/obj/usb_lld.o
                                                  build/obj/sdc_lld.o
                                                  build/obj/adc_lld.o
                                                  build/obj/adc.o
chThdResumeS                                      build/obj/chthreads.o
                                                  build/obj/adc.o
chThdSetPriority                                  build/obj/chthreads.o
                                                  build/obj/web.o
                                                  build/obj/lwipthread.o
                                                  build/obj/testthd.o
chThdSleep                                        build/obj/chthreads.o
                                                  build/obj/main.o
                                                  build/obj/testbmk.o
                                                  build/obj/testsys.o
                                                  build/obj/testdyn.o
                                                  build/obj/testevt.o
                                                  build/obj/testmtx.o
                                                  build/obj/testsem.o
                                                  build/obj/testthd.o
                                                  build/obj/test.o
                                                  build/obj/sdc_lld.o
                                                  build/obj/sdc.o
chThdSleepUntil                                   build/obj/chthreads.o
                                                  build/obj/testthd.o
chThdSleepUntilWindowed                           build/obj/chthreads.o
chThdStart                                        build/obj/chthreads.o
                                                  build/obj/testthd.o
chThdSuspendS                                     build/obj/chthreads.o
                                                  build/obj/lwipthread.o
                                                  build/obj/usb_lld.o
                                                  build/obj/sdc_lld.o
                                                  build/obj/spi.o
                                                  build/obj/adc.o
chThdSuspendTimeoutS                              build/obj/chthreads.o
chThdTerminate                                    build/obj/chthreads.o
                                                  build/obj/test.o
chThdWait                                         build/obj/chthreads.o
                                                  build/obj/testbmk.o
                                                  build/obj/test.o
chThdYield                                        build/obj/chthreads.o
                                                  build/obj/testbmk.o
chVTDoResetI                                      build/obj/chvt.o
                                                  build/obj/evtimer.o
                                                  build/obj/testbmk.o
                                                  build/obj/testsys.o
                                                  build/obj/test.o
                                                  build/obj/chschd.o
chVTDoSetI                                        build/obj/chvt.o
                                                  build/obj/evtimer.o
                                                  build/obj/testbmk.o
                                                  build/obj/testsys.o
                                                  build/obj/test.o
                                                  build/obj/chschd.o
ch_debug                                          build/obj/chregistry.o
                                                  build/obj/chsys.o
chsnprintf                                        build/obj/chprintf.o
chvprintf                                         build/obj/chprintf.o
                                                  build/obj/web.o
current_header                                    build/obj/ip.o
current_iphdr_dest                                build/obj/ip.o
                                                  build/obj/icmp.o
                                                  build/obj/udp.o
                                                  build/obj/tcp_in.o
                                                  build/obj/raw.o
current_iphdr_src                                 build/obj/ip.o
                                                  build/obj/api_msg.o
                                                  build/obj/icmp.o
                                                  build/obj/udp.o
                                                  build/obj/tcp_in.o
                                                  build/obj/raw.o
current_netif                                     build/obj/ip.o
dmaInit                                           build/obj/stm32_dma.o
                                                  build/obj/hal_lld.o
dmaStreamAllocate                                 build/obj/stm32_dma.o
                                                  build/obj/spi_lld.o
                                                  build/obj/sdc_lld.o
                                                  build/obj/adc_lld.o
dmaStreamRelease                                  build/obj/stm32_dma.o
                                                  build/obj/spi_lld.o
                                                  build/obj/sdc_lld.o
                                                  build/obj/adc_lld.o
do_bind                                           build/obj/api_msg.o
                                                  build/obj/api_lib.o
do_close                                          build/obj/api_msg.o
                                                  build/obj/api_lib.o
do_connect                                        build/obj/api_msg.o
                                                  build/obj/api_lib.o
do_delconn                                        build/obj/api_msg.o
                                                  build/obj/api_lib.o
do_disconnect                                     build/obj/api_msg.o
                                                  build/obj/api_lib.o
do_getaddr                                        build/obj/api_msg.o
                                                  build/obj/api_lib.o
do_listen                                         build/obj/api_msg.o
                                                  build/obj/api_lib.o
do_newconn                                        build/obj/api_msg.o
                                                  build/obj/api_lib.o
do_recv                                           build/obj/api_msg.o
                                                  build/obj/api_lib.o
do_send                                           build/obj/api_msg.o
                                                  build/obj/api_lib.o
do_write                                          build/obj/api_msg.o
                                                  build/obj/api_lib.o
etharp_cleanup_netif                              build/obj/etharp.o
                                                  build/obj/netif.o
etharp_find_addr                                  build/obj/etharp.o
etharp_output                                     build/obj/etharp.o
                                                  build/obj/lwipthread.o
etharp_query                                      build/obj/etharp.o
etharp_request                                    build/obj/etharp.o
                                                  build/obj/netif.o
etharp_tmr                                        build/obj/etharp.o
                                                  build/obj/timers.o
ethbroadcast                                      build/obj/etharp.o
ethernet_input                                    build/obj/etharp.o
                                                  build/obj/tcpip.o
ethzero                                           build/obj/etharp.o
evtObjectInit                                     build/obj/evtimer.o
                                                  build/obj/lwipthread.o
evtStart                                          build/obj/evtimer.o
                                                  build/obj/lwipthread.o
halInit                                           build/obj/hal.o
                                                  build/obj/main.o
hal_lld_init                                      build/obj/hal_lld.o
                                                  build/obj/hal.o
http_server                                       build/obj/web.o
                                                  build/obj/main.o
icmp_dest_unreach                                 build/obj/icmp.o
                                                  build/obj/ip.o
                                                  build/obj/udp.o
icmp_input                                        build/obj/icmp.o
                                                  build/obj/ip.o
icmp_time_exceeded                                build/obj/icmp.o
                                                  build/obj/ip_frag.o
inet_chksum                                       build/obj/inet_chksum.o
                                                  build/obj/ip_frag.o
                                                  build/obj/ip.o
                                                  build/obj/icmp.o
inet_chksum_pbuf                                  build/obj/inet_chksum.o
                                                  build/obj/icmp.o
inet_chksum_pseudo                                build/obj/inet_chksum.o
                                                  build/obj/udp.o
                                                  build/obj/tcp_out.o
                                                  build/obj/tcp_in.o
inet_chksum_pseudo_partial                        build/obj/inet_chksum.o
ip4_addr_isbroadcast                              build/obj/ip_addr.o
                                                  build/obj/ip.o
                                                  build/obj/icmp.o
                                                  build/obj/udp.o
                                                  build/obj/tcp_in.o
                                                  build/obj/etharp.o
ip4_addr_netmask_valid                            build/obj/ip_addr.o
ip_addr_any                                       build/obj/ip_addr.o
ip_addr_broadcast                                 build/obj/ip_addr.o
ip_frag                                           build/obj/ip_frag.o
                                                  build/obj/ip.o
ip_input                                          build/obj/ip.o
                                                  build/obj/tcpip.o
                                                  build/obj/etharp.o
ip_output                                         build/obj/ip.o
                                                  build/obj/icmp.o
                                                  build/obj/tcp_out.o
ip_output_if                                      build/obj/ip.o
                                                  build/obj/icmp.o
                                                  build/obj/udp.o
                                                  build/obj/raw.o
ip_reass                                          build/obj/ip_frag.o
                                                  build/obj/ip.o
ip_reass_tmr                                      build/obj/ip_frag.o
                                                  build/obj/timers.o
ip_route                                          build/obj/ip.o
                                                  build/obj/udp.o
                                                  build/obj/tcp_out.o
                                                  build/obj/tcp.o
                                                  build/obj/raw.o
ipaddr_addr                                       build/obj/ip_addr.o
ipaddr_aton                                       build/obj/ip_addr.o
ipaddr_ntoa                                       build/obj/ip_addr.o
ipaddr_ntoa_r                                     build/obj/ip_addr.o
lwipInit                                          build/obj/lwipthread.o
                                                  build/obj/main.o
lwip_accept                                       build/obj/sockets.o
lwip_bind                                         build/obj/sockets.o
lwip_close                                        build/obj/sockets.o
lwip_connect                                      build/obj/sockets.o
lwip_fcntl                                        build/obj/sockets.o
lwip_getpeername                                  build/obj/sockets.o
lwip_getsockname                                  build/obj/sockets.o
lwip_getsockopt                                   build/obj/sockets.o
lwip_htonl                                        build/obj/def.o
                                                  build/obj/ip_addr.o
                                                  build/obj/tcp_out.o
lwip_htons                                        build/obj/def.o
                                                  build/obj/sockets.o
                                                  build/obj/ip_frag.o
                                                  build/obj/ip.o
                                                  build/obj/inet_chksum.o
                                                  build/obj/udp.o
                                                  build/obj/tcp_out.o
                                                  build/obj/tcp_in.o
                                                  build/obj/etharp.o
                                                  build/obj/lwipthread.o
lwip_init                                         build/obj/init.o
                                                  build/obj/tcpip.o
lwip_ioctl                                        build/obj/sockets.o
lwip_listen                                       build/obj/sockets.o
lwip_ntohl                                        build/obj/def.o
                                                  build/obj/tcp_out.o
                                                  build/obj/tcp_in.o
lwip_ntohs                                        build/obj/def.o
                                                  build/obj/sockets.o
                                                  build/obj/ip_frag.o
                                                  build/obj/ip.o
                                                  build/obj/udp.o
                                                  build/obj/tcp_out.o
                                                  build/obj/tcp_in.o
lwip_read                                         build/obj/sockets.o
lwip_recv                                         build/obj/sockets.o
lwip_recvfrom                                     build/obj/sockets.o
lwip_select                                       build/obj/sockets.o
lwip_send                                         build/obj/sockets.o
lwip_sendto                                       build/obj/sockets.o
lwip_setsockopt                                   build/obj/sockets.o
lwip_shutdown                                     build/obj/sockets.o
lwip_socket                                       build/obj/sockets.o
lwip_socket_init                                  build/obj/sockets.o
                                                  build/obj/init.o
lwip_stats                                        build/obj/stats.o
                                                  build/obj/ip_frag.o
                                                  build/obj/ip.o
                                                  build/obj/icmp.o
                                                  build/obj/udp.o
                                                  build/obj/tcp_out.o
                                                  build/obj/tcp_in.o
                                                  build/obj/tcp.o
                                                  build/obj/memp.o
                                                  build/obj/mem.o
                                                  build/obj/etharp.o
                                                  build/obj/sys_arch.o
                                                  build/obj/lwipthread.o
lwip_trp                                          build/obj/lwipthread.o
lwip_write                                        build/obj/sockets.o
macInit                                           build/obj/mac.o
                                                  build/obj/hal.o
macObjectInit                                     build/obj/mac.o
                                                  build/obj/mac_lld.o
macPollLinkStatus                                 build/obj/mac.o
                                                  build/obj/lwipthread.o
macReleaseReceiveDescriptor                       build/obj/mac.o
                                                  build/obj/lwipthread.o
macReleaseTransmitDescriptor                      build/obj/mac.o
                                                  build/obj/lwipthread.o
macStart                                          build/obj/mac.o
                                                  build/obj/lwipthread.o
macStop                                           build/obj/mac.o
macWaitReceiveDescriptor                          build/obj/mac.o
                                                  build/obj/lwipthread.o
macWaitTransmitDescriptor                         build/obj/mac.o
                                                  build/obj/lwipthread.o
mac_lld_get_receive_descriptor                    build/obj/mac_lld.o
                                                  build/obj/mac.o
mac_lld_get_transmit_descriptor                   build/obj/mac_lld.o
                                                  build/obj/mac.o
mac_lld_init                                      build/obj/mac_lld.o
                                                  build/obj/mac.o
mac_lld_poll_link_status                          build/obj/mac_lld.o
                                                  build/obj/mac.o
mac_lld_read_receive_descriptor                   build/obj/mac_lld.o
                                                  build/obj/lwipthread.o
mac_lld_release_receive_descriptor                build/obj/mac_lld.o
                                                  build/obj/mac.o
mac_lld_release_transmit_descriptor               build/obj/mac_lld.o
                                                  build/obj/mac.o
mac_lld_start                                     build/obj/mac_lld.o
                                                  build/obj/mac.o
mac_lld_stop                                      build/obj/mac_lld.o
                                                  build/obj/mac.o
mac_lld_write_transmit_descriptor                 build/obj/mac_lld.o
                                                  build/obj/lwipthread.o
main                                              build/obj/main.o
                                                  build/obj/crt0_v7m.o
mem_calloc                                        build/obj/mem.o
mem_free                                          build/obj/mem.o
                                                  build/obj/tcpip.o
                                                  build/obj/pbuf.o
mem_free_callback                                 build/obj/tcpip.o
mem_init                                          build/obj/mem.o
                                                  build/obj/init.o
mem_malloc                                        build/obj/mem.o
                                                  build/obj/pbuf.o
mem_trim                                          build/obj/mem.o
                                                  build/obj/pbuf.o
memcmp                                            c:/emtechesdk/gcc/bin/../lib/gcc/arm-none-eabi/4.8.3/../../../../arm-none-eabi/lib/armv7e-m\libg.a(lib_a-memcmp.o)
                                                  build/obj/etharp.o
memcpy                                            c:/emtechesdk/gcc/bin/../lib/gcc/arm-none-eabi/4.8.3/../../../../arm-none-eabi/lib/armv7e-m\libg.a(lib_a-memcpy.o)
                                                  build/obj/sockets.o
                                                  build/obj/ip_frag.o
                                                  build/obj/icmp.o
                                                  build/obj/tcp_out.o
                                                  build/obj/tcp.o
                                                  build/obj/pbuf.o
                                                  build/obj/etharp.o
                                                  build/obj/usb_lld.o
                                                  build/obj/sdc_lld.o
                                                  build/obj/mac_lld.o
memp_free                                         build/obj/memp.o
                                                  build/obj/tcpip.o
                                                  build/obj/netbuf.o
                                                  build/obj/api_msg.o
                                                  build/obj/api_lib.o
                                                  build/obj/timers.o
                                                  build/obj/ip_frag.o
                                                  build/obj/udp.o
                                                  build/obj/tcp_in.o
                                                  build/obj/tcp.o
                                                  build/obj/raw.o
                                                  build/obj/pbuf.o
memp_init                                         build/obj/memp.o
                                                  build/obj/init.o
memp_malloc                                       build/obj/memp.o
                                                  build/obj/tcpip.o
                                                  build/obj/netbuf.o
                                                  build/obj/api_msg.o
                                                  build/obj/api_lib.o
                                                  build/obj/timers.o
                                                  build/obj/ip_frag.o
                                                  build/obj/udp.o
                                                  build/obj/tcp_out.o
                                                  build/obj/tcp.o
                                                  build/obj/raw.o
                                                  build/obj/pbuf.o
memset                                            c:/emtechesdk/gcc/bin/../lib/gcc/arm-none-eabi/4.8.3/../../../../arm-none-eabi/lib/armv7e-m\libg.a(lib_a-memset.o)
                                                  build/obj/sockets.o
                                                  build/obj/ip_frag.o
                                                  build/obj/udp.o
                                                  build/obj/tcp.o
                                                  build/obj/raw.o
                                                  build/obj/mem.o
                                                  build/obj/usb.o
mii_read                                          build/obj/mac_lld.o
mii_write                                         build/obj/mac_lld.o
msObjectInit                                      build/obj/chprintf.o
netbuf_alloc                                      build/obj/netbuf.o
netbuf_chain                                      build/obj/netbuf.o
netbuf_data                                       build/obj/netbuf.o
                                                  build/obj/web.o
netbuf_delete                                     build/obj/netbuf.o
                                                  build/obj/web.o
                                                  build/obj/sockets.o
                                                  build/obj/api_msg.o
netbuf_first                                      build/obj/netbuf.o
netbuf_free                                       build/obj/netbuf.o
                                                  build/obj/sockets.o
netbuf_new                                        build/obj/netbuf.o
netbuf_next                                       build/obj/netbuf.o
netbuf_ref                                        build/obj/netbuf.o
                                                  build/obj/sockets.o
netconn_accept                                    build/obj/api_lib.o
                                                  build/obj/web.o
                                                  build/obj/sockets.o
netconn_alloc                                     build/obj/api_msg.o
                                                  build/obj/api_lib.o
netconn_bind                                      build/obj/api_lib.o
                                                  build/obj/web.o
                                                  build/obj/sockets.o
netconn_close                                     build/obj/api_lib.o
                                                  build/obj/web.o
netconn_connect                                   build/obj/api_lib.o
                                                  build/obj/sockets.o
netconn_delete                                    build/obj/api_lib.o
                                                  build/obj/web.o
                                                  build/obj/sockets.o
netconn_disconnect                                build/obj/api_lib.o
                                                  build/obj/sockets.o
netconn_free                                      build/obj/api_msg.o
                                                  build/obj/api_lib.o
netconn_getaddr                                   build/obj/api_lib.o
                                                  build/obj/sockets.o
netconn_listen_with_backlog                       build/obj/api_lib.o
                                                  build/obj/web.o
                                                  build/obj/sockets.o
netconn_new_with_proto_and_callback               build/obj/api_lib.o
                                                  build/obj/web.o
                                                  build/obj/sockets.o
netconn_recv                                      build/obj/api_lib.o
                                                  build/obj/web.o
                                                  build/obj/sockets.o
netconn_recv_tcp_pbuf                             build/obj/api_lib.o
                                                  build/obj/sockets.o
netconn_recved                                    build/obj/api_lib.o
                                                  build/obj/sockets.o
netconn_send                                      build/obj/api_lib.o
                                                  build/obj/sockets.o
netconn_sendto                                    build/obj/api_lib.o
netconn_shutdown                                  build/obj/api_lib.o
                                                  build/obj/sockets.o
netconn_write_partly                              build/obj/api_lib.o
                                                  build/obj/web.o
                                                  build/obj/sockets.o
netif_add                                         build/obj/netif.o
                                                  build/obj/lwipthread.o
netif_default                                     build/obj/netif.o
                                                  build/obj/ip.o
netif_find                                        build/obj/netif.o
netif_init                                        build/obj/netif.o
                                                  build/obj/init.o
netif_list                                        build/obj/netif.o
                                                  build/obj/ip.o
netif_remove                                      build/obj/netif.o
netif_set_addr                                    build/obj/netif.o
netif_set_default                                 build/obj/netif.o
                                                  build/obj/lwipthread.o
netif_set_down                                    build/obj/netif.o
netif_set_gw                                      build/obj/netif.o
netif_set_ipaddr                                  build/obj/netif.o
netif_set_link_down                               build/obj/netif.o
                                                  build/obj/lwipthread.o
netif_set_link_up                                 build/obj/netif.o
                                                  build/obj/lwipthread.o
netif_set_netmask                                 build/obj/netif.o
netif_set_up                                      build/obj/netif.o
                                                  build/obj/lwipthread.o
nvicClearPending                                  build/obj/nvic.o
nvicDisableVector                                 build/obj/nvic.o
                                                  build/obj/serial_lld.o
                                                  build/obj/usb_lld.o
                                                  build/obj/sdc_lld.o
                                                  build/obj/mac_lld.o
                                                  build/obj/stm32_dma.o
nvicEnableVector                                  build/obj/nvic.o
                                                  build/obj/serial_lld.o
                                                  build/obj/st_lld.o
                                                  build/obj/usb_lld.o
                                                  build/obj/sdc_lld.o
                                                  build/obj/mac_lld.o
                                                  build/obj/adc_lld.o
                                                  build/obj/stm32_dma.o
nvicSetSystemHandlerPriority                      build/obj/nvic.o
palReadBus                                        build/obj/pal.o
palSetBusMode                                     build/obj/pal.o
palWriteBus                                       build/obj/pal.o
pal_default_config                                build/obj/board.o
                                                  build/obj/hal.o
patternbmk                                        build/obj/testbmk.o
                                                  build/obj/test.o
patterndyn                                        build/obj/testdyn.o
                                                  build/obj/test.o
patternevt                                        build/obj/testevt.o
                                                  build/obj/test.o
patternheap                                       build/obj/testheap.o
                                                  build/obj/test.o
patternmbox                                       build/obj/testmbox.o
                                                  build/obj/test.o
patternmsg                                        build/obj/testmsg.o
                                                  build/obj/test.o
patternmtx                                        build/obj/testmtx.o
                                                  build/obj/test.o
patternpools                                      build/obj/testpools.o
                                                  build/obj/test.o
patternqueues                                     build/obj/testqueues.o
                                                  build/obj/test.o
patternsem                                        build/obj/testsem.o
                                                  build/obj/test.o
patternsys                                        build/obj/testsys.o
                                                  build/obj/test.o
patternthd                                        build/obj/testthd.o
                                                  build/obj/test.o
pbuf_alloc                                        build/obj/pbuf.o
                                                  build/obj/netbuf.o
                                                  build/obj/api_msg.o
                                                  build/obj/ip_frag.o
                                                  build/obj/icmp.o
                                                  build/obj/udp.o
                                                  build/obj/tcp_out.o
                                                  build/obj/raw.o
                                                  build/obj/etharp.o
                                                  build/obj/lwipthread.o
pbuf_alloced_custom                               build/obj/pbuf.o
                                                  build/obj/ip_frag.o
pbuf_cat                                          build/obj/pbuf.o
                                                  build/obj/netbuf.o
                                                  build/obj/ip_frag.o
                                                  build/obj/tcp_out.o
                                                  build/obj/tcp_in.o
pbuf_chain                                        build/obj/pbuf.o
                                                  build/obj/udp.o
                                                  build/obj/raw.o
pbuf_clen                                         build/obj/pbuf.o
                                                  build/obj/ip_frag.o
                                                  build/obj/tcp_out.o
                                                  build/obj/tcp_in.o
pbuf_coalesce                                     build/obj/pbuf.o
pbuf_copy                                         build/obj/pbuf.o
                                                  build/obj/api_msg.o
                                                  build/obj/icmp.o
                                                  build/obj/etharp.o
pbuf_copy_partial                                 build/obj/pbuf.o
                                                  build/obj/sockets.o
                                                  build/obj/tcp_out.o
pbuf_dechain                                      build/obj/pbuf.o
pbuf_free                                         build/obj/pbuf.o
                                                  build/obj/tcpip.o
                                                  build/obj/sockets.o
                                                  build/obj/netbuf.o
                                                  build/obj/api_msg.o
                                                  build/obj/ip_frag.o
                                                  build/obj/ip.o
                                                  build/obj/icmp.o
                                                  build/obj/udp.o
                                                  build/obj/tcp_out.o
                                                  build/obj/tcp_in.o
                                                  build/obj/tcp.o
                                                  build/obj/raw.o
                                                  build/obj/etharp.o
                                                  build/obj/lwipthread.o
pbuf_free_callback                                build/obj/tcpip.o
pbuf_free_ooseq_pending                           build/obj/pbuf.o
pbuf_get_at                                       build/obj/pbuf.o
pbuf_header                                       build/obj/pbuf.o
                                                  build/obj/ip_frag.o
                                                  build/obj/ip.o
                                                  build/obj/icmp.o
                                                  build/obj/udp.o
                                                  build/obj/tcp_out.o
                                                  build/obj/tcp_in.o
                                                  build/obj/raw.o
                                                  build/obj/etharp.o
pbuf_memcmp                                       build/obj/pbuf.o
pbuf_memfind                                      build/obj/pbuf.o
pbuf_realloc                                      build/obj/pbuf.o
                                                  build/obj/ip.o
                                                  build/obj/tcp_in.o
pbuf_ref                                          build/obj/pbuf.o
                                                  build/obj/ip_frag.o
                                                  build/obj/tcp.o
                                                  build/obj/etharp.o
pbuf_strstr                                       build/obj/pbuf.o
pbuf_take                                         build/obj/pbuf.o
ram_heap                                          build/obj/mem.o
raw_bind                                          build/obj/raw.o
                                                  build/obj/api_msg.o
raw_connect                                       build/obj/raw.o
                                                  build/obj/api_msg.o
raw_input                                         build/obj/raw.o
                                                  build/obj/ip.o
raw_new                                           build/obj/raw.o
                                                  build/obj/api_msg.o
raw_recv                                          build/obj/raw.o
                                                  build/obj/api_msg.o
raw_remove                                        build/obj/raw.o
                                                  build/obj/api_msg.o
raw_send                                          build/obj/raw.o
                                                  build/obj/api_msg.o
raw_sendto                                        build/obj/raw.o
                                                  build/obj/api_msg.o
sdIncomingDataI                                   build/obj/serial.o
                                                  build/obj/serial_lld.o
sdInit                                            build/obj/serial.o
                                                  build/obj/hal.o
sdObjectInit                                      build/obj/serial.o
                                                  build/obj/serial_lld.o
sdRequestDataI                                    build/obj/serial.o
sdStart                                           build/obj/serial.o
sdStop                                            build/obj/serial.o
sd_lld_init                                       build/obj/serial_lld.o
                                                  build/obj/serial.o
sd_lld_start                                      build/obj/serial_lld.o
                                                  build/obj/serial.o
sd_lld_stop                                       build/obj/serial_lld.o
                                                  build/obj/serial.o
sdcConnect                                        build/obj/sdc.o
sdcDisconnect                                     build/obj/sdc.o
sdcErase                                          build/obj/sdc.o
sdcGetAndClearErrors                              build/obj/sdc.o
sdcGetInfo                                        build/obj/sdc.o
sdcInit                                           build/obj/sdc.o
                                                  build/obj/hal.o
sdcObjectInit                                     build/obj/sdc.o
                                                  build/obj/sdc_lld.o
sdcRead                                           build/obj/sdc.o
sdcStart                                          build/obj/sdc.o
sdcStop                                           build/obj/sdc.o
sdcSync                                           build/obj/sdc.o
sdcWrite                                          build/obj/sdc.o
sdc_lld_init                                      build/obj/sdc_lld.o
                                                  build/obj/sdc.o
sdc_lld_is_card_inserted                          build/obj/board.o
                                                  build/obj/sdc.o
sdc_lld_is_write_protected                        build/obj/board.o
                                                  build/obj/sdc.o
sdc_lld_read                                      build/obj/sdc_lld.o
                                                  build/obj/sdc.o
sdc_lld_read_aligned                              build/obj/sdc_lld.o
sdc_lld_read_special                              build/obj/sdc_lld.o
                                                  build/obj/sdc.o
sdc_lld_send_cmd_long_crc                         build/obj/sdc_lld.o
                                                  build/obj/sdc.o
sdc_lld_send_cmd_none                             build/obj/sdc_lld.o
                                                  build/obj/sdc.o
sdc_lld_send_cmd_short                            build/obj/sdc_lld.o
                                                  build/obj/sdc.o
sdc_lld_send_cmd_short_crc                        build/obj/sdc_lld.o
                                                  build/obj/sdc.o
sdc_lld_set_bus_mode                              build/obj/sdc_lld.o
                                                  build/obj/sdc.o
sdc_lld_set_data_clk                              build/obj/sdc_lld.o
                                                  build/obj/sdc.o
sdc_lld_start                                     build/obj/sdc_lld.o
                                                  build/obj/sdc.o
sdc_lld_start_clk                                 build/obj/sdc_lld.o
                                                  build/obj/sdc.o
sdc_lld_stop                                      build/obj/sdc_lld.o
                                                  build/obj/sdc.o
sdc_lld_stop_clk                                  build/obj/sdc_lld.o
                                                  build/obj/sdc.o
sdc_lld_sync                                      build/obj/sdc_lld.o
                                                  build/obj/sdc.o
sdc_lld_write                                     build/obj/sdc_lld.o
                                                  build/obj/sdc.o
sdc_lld_write_aligned                             build/obj/sdc_lld.o
spiAcquireBus                                     build/obj/spi.o
spiExchange                                       build/obj/spi.o
spiIgnore                                         build/obj/spi.o
spiInit                                           build/obj/spi.o
                                                  build/obj/hal.o
spiObjectInit                                     build/obj/spi.o
                                                  build/obj/spi_lld.o
spiReceive                                        build/obj/spi.o
spiReleaseBus                                     build/obj/spi.o
spiSelect                                         build/obj/spi.o
spiSend                                           build/obj/spi.o
spiStart                                          build/obj/spi.o
spiStartExchange                                  build/obj/spi.o
spiStartIgnore                                    build/obj/spi.o
spiStartReceive                                   build/obj/spi.o
spiStartSend                                      build/obj/spi.o
spiStop                                           build/obj/spi.o
spiUnselect                                       build/obj/spi.o
spi_lld_exchange                                  build/obj/spi_lld.o
                                                  build/obj/spi.o
spi_lld_ignore                                    build/obj/spi_lld.o
                                                  build/obj/spi.o
spi_lld_init                                      build/obj/spi_lld.o
                                                  build/obj/spi.o
spi_lld_polled_exchange                           build/obj/spi_lld.o
spi_lld_receive                                   build/obj/spi_lld.o
                                                  build/obj/spi.o
spi_lld_select                                    build/obj/spi_lld.o
                                                  build/obj/spi.o
spi_lld_send                                      build/obj/spi_lld.o
                                                  build/obj/spi.o
spi_lld_start                                     build/obj/spi_lld.o
                                                  build/obj/spi.o
spi_lld_stop                                      build/obj/spi_lld.o
                                                  build/obj/spi.o
spi_lld_unselect                                  build/obj/spi_lld.o
                                                  build/obj/spi.o
stGetAlarm                                        build/obj/st.o
stInit                                            build/obj/st.o
                                                  build/obj/hal.o
stSetAlarm                                        build/obj/st.o
                                                  build/obj/chvt.o
                                                  build/obj/chsys.o
stStartAlarm                                      build/obj/st.o
                                                  build/obj/chvt.o
stStopAlarm                                       build/obj/st.o
                                                  build/obj/chvt.o
                                                  build/obj/chsys.o
st_lld_init                                       build/obj/st_lld.o
                                                  build/obj/st.o
stats_init                                        build/obj/stats.o
                                                  build/obj/init.o
stm32_clock_init                                  build/obj/hal_lld.o
                                                  build/obj/board.o
strlen                                            c:/emtechesdk/gcc/bin/../lib/gcc/arm-none-eabi/4.8.3/../../../../arm-none-eabi/lib/armv7e-m\libg.a(lib_a-strlen.o)
                                                  build/obj/pbuf.o
strncmp                                           c:/emtechesdk/gcc/bin/../lib/gcc/arm-none-eabi/4.8.3/../../../../arm-none-eabi/lib/armv7e-m\libg.a(lib_a-strncmp.o)
                                                  build/obj/web.o
sys_arch_mbox_fetch                               build/obj/sys_arch.o
                                                  build/obj/api_lib.o
                                                  build/obj/timers.o
sys_arch_mbox_tryfetch                            build/obj/sys_arch.o
                                                  build/obj/api_msg.o
sys_arch_protect                                  build/obj/sys_arch.o
sys_arch_sem_wait                                 build/obj/sys_arch.o
                                                  build/obj/tcpip.o
                                                  build/obj/sockets.o
                                                  build/obj/sys.o
                                                  build/obj/mem.o
sys_arch_unprotect                                build/obj/sys_arch.o
sys_init                                          build/obj/sys_arch.o
                                                  build/obj/init.o
sys_mbox_free                                     build/obj/sys_arch.o
                                                  build/obj/api_msg.o
                                                  build/obj/api_lib.o
sys_mbox_new                                      build/obj/sys_arch.o
                                                  build/obj/tcpip.o
                                                  build/obj/api_msg.o
sys_mbox_post                                     build/obj/sys_arch.o
                                                  build/obj/tcpip.o
sys_mbox_set_invalid                              build/obj/sys_arch.o
                                                  build/obj/api_msg.o
sys_mbox_trypost                                  build/obj/sys_arch.o
                                                  build/obj/tcpip.o
                                                  build/obj/api_msg.o
sys_mbox_valid                                    build/obj/sys_arch.o
                                                  build/obj/tcpip.o
                                                  build/obj/api_msg.o
                                                  build/obj/api_lib.o
sys_msleep                                        build/obj/sys.o
sys_now                                           build/obj/sys_arch.o
sys_sem_free                                      build/obj/sys_arch.o
                                                  build/obj/sockets.o
                                                  build/obj/api_msg.o
                                                  build/obj/api_lib.o
                                                  build/obj/sys.o
sys_sem_new                                       build/obj/sys_arch.o
                                                  build/obj/sockets.o
                                                  build/obj/api_msg.o
                                                  build/obj/sys.o
                                                  build/obj/mem.o
sys_sem_set_invalid                               build/obj/sys_arch.o
                                                  build/obj/api_msg.o
sys_sem_signal                                    build/obj/sys_arch.o
                                                  build/obj/sockets.o
                                                  build/obj/api_msg.o
                                                  build/obj/mem.o
sys_sem_signal_S                                  build/obj/sys_arch.o
                                                  build/obj/sockets.o
sys_sem_valid                                     build/obj/sys_arch.o
                                                  build/obj/api_msg.o
                                                  build/obj/api_lib.o
sys_thread_new                                    build/obj/sys_arch.o
                                                  build/obj/tcpip.o
sys_timeout                                       build/obj/timers.o
                                                  build/obj/tcpip.o
sys_timeouts_init                                 build/obj/timers.o
                                                  build/obj/init.o
sys_timeouts_mbox_fetch                           build/obj/timers.o
                                                  build/obj/tcpip.o
sys_untimeout                                     build/obj/timers.o
                                                  build/obj/tcpip.o
tcp_abandon                                       build/obj/tcp.o
                                                  build/obj/tcp_in.o
tcp_abort                                         build/obj/tcp.o
                                                  build/obj/api_msg.o
                                                  build/obj/tcp_in.o
                                                  build/obj/netif.o
tcp_accept                                        build/obj/tcp.o
                                                  build/obj/api_msg.o
tcp_active_pcbs                                   build/obj/tcp.o
                                                  build/obj/timers.o
                                                  build/obj/tcp_in.o
                                                  build/obj/pbuf.o
                                                  build/obj/netif.o
tcp_active_pcbs_changed                           build/obj/tcp.o
                                                  build/obj/tcp_in.o
tcp_alloc                                         build/obj/tcp.o
                                                  build/obj/tcp_in.o
tcp_arg                                           build/obj/tcp.o
                                                  build/obj/api_msg.o
tcp_backoff                                       build/obj/tcp.o
tcp_bind                                          build/obj/tcp.o
                                                  build/obj/api_msg.o
tcp_bound_pcbs                                    build/obj/tcp.o
tcp_close                                         build/obj/tcp.o
                                                  build/obj/api_msg.o
tcp_connect                                       build/obj/tcp.o
                                                  build/obj/api_msg.o
tcp_debug_state_str                               build/obj/tcp.o
tcp_eff_send_mss                                  build/obj/tcp.o
                                                  build/obj/tcp_out.o
                                                  build/obj/tcp_in.o
tcp_enqueue_flags                                 build/obj/tcp_out.o
                                                  build/obj/tcp_in.o
                                                  build/obj/tcp.o
tcp_err                                           build/obj/tcp.o
                                                  build/obj/api_msg.o
tcp_fasttmr                                       build/obj/tcp.o
tcp_init                                          build/obj/tcp.o
                                                  build/obj/init.o
tcp_input                                         build/obj/tcp_in.o
                                                  build/obj/ip.o
tcp_input_pcb                                     build/obj/tcp_in.o
                                                  build/obj/tcp_out.o
tcp_keepalive                                     build/obj/tcp_out.o
                                                  build/obj/tcp.o
tcp_listen_pcbs                                   build/obj/tcp.o
                                                  build/obj/tcp_in.o
                                                  build/obj/netif.o
tcp_listen_with_backlog                           build/obj/tcp.o
                                                  build/obj/api_msg.o
tcp_new                                           build/obj/tcp.o
                                                  build/obj/api_msg.o
tcp_next_iss                                      build/obj/tcp.o
tcp_output                                        build/obj/tcp_out.o
                                                  build/obj/api_msg.o
                                                  build/obj/tcp_in.o
                                                  build/obj/tcp.o
tcp_pcb_lists                                     build/obj/tcp.o
tcp_pcb_purge                                     build/obj/tcp.o
                                                  build/obj/tcp_in.o
tcp_pcb_remove                                    build/obj/tcp.o
                                                  build/obj/tcp_in.o
tcp_persist_backoff                               build/obj/tcp.o
tcp_poll                                          build/obj/tcp.o
                                                  build/obj/api_msg.o
tcp_process_refused_data                          build/obj/tcp.o
                                                  build/obj/tcp_in.o
tcp_recv                                          build/obj/tcp.o
                                                  build/obj/api_msg.o
tcp_recv_null                                     build/obj/tcp.o
                                                  build/obj/tcp_in.o
tcp_recved                                        build/obj/tcp.o
                                                  build/obj/api_msg.o
tcp_rexmit                                        build/obj/tcp_out.o
                                                  build/obj/tcp_in.o
tcp_rexmit_fast                                   build/obj/tcp_out.o
                                                  build/obj/tcp_in.o
tcp_rexmit_rto                                    build/obj/tcp_out.o
                                                  build/obj/tcp.o
tcp_rst                                           build/obj/tcp_out.o
                                                  build/obj/tcp_in.o
                                                  build/obj/tcp.o
tcp_seg_copy                                      build/obj/tcp.o
                                                  build/obj/tcp_in.o
tcp_seg_free                                      build/obj/tcp.o
                                                  build/obj/tcp_out.o
                                                  build/obj/tcp_in.o
tcp_segs_free                                     build/obj/tcp.o
                                                  build/obj/tcp_out.o
                                                  build/obj/tcp_in.o
                                                  build/obj/pbuf.o
tcp_send_empty_ack                                build/obj/tcp_out.o
                                                  build/obj/tcp_in.o
tcp_send_fin                                      build/obj/tcp_out.o
                                                  build/obj/tcp.o
tcp_sent                                          build/obj/tcp.o
                                                  build/obj/api_msg.o
tcp_setprio                                       build/obj/tcp.o
tcp_shutdown                                      build/obj/tcp.o
                                                  build/obj/api_msg.o
tcp_slowtmr                                       build/obj/tcp.o
tcp_state_str                                     build/obj/tcp.o
tcp_ticks                                         build/obj/tcp.o
                                                  build/obj/tcp_out.o
                                                  build/obj/tcp_in.o
tcp_timer_needed                                  build/obj/timers.o
                                                  build/obj/tcp_in.o
                                                  build/obj/tcp.o
tcp_tmp_pcb                                       build/obj/tcp.o
                                                  build/obj/tcp_in.o
tcp_tmr                                           build/obj/tcp.o
                                                  build/obj/timers.o
tcp_tw_pcbs                                       build/obj/tcp.o
                                                  build/obj/timers.o
                                                  build/obj/tcp_in.o
tcp_update_rcv_ann_wnd                            build/obj/tcp.o
                                                  build/obj/tcp_in.o
tcp_write                                         build/obj/tcp_out.o
                                                  build/obj/api_msg.o
tcp_zero_window_probe                             build/obj/tcp_out.o
                                                  build/obj/tcp.o
tcpip_apimsg                                      build/obj/tcpip.o
                                                  build/obj/api_lib.o
tcpip_callback_with_block                         build/obj/tcpip.o
                                                  build/obj/sockets.o
                                                  build/obj/pbuf.o
                                                  build/obj/lwipthread.o
tcpip_callbackmsg_delete                          build/obj/tcpip.o
tcpip_callbackmsg_new                             build/obj/tcpip.o
tcpip_init                                        build/obj/tcpip.o
                                                  build/obj/lwipthread.o
tcpip_input                                       build/obj/tcpip.o
                                                  build/obj/lwipthread.o
tcpip_timeout                                     build/obj/tcpip.o
tcpip_trycallback                                 build/obj/tcpip.o
tcpip_untimeout                                   build/obj/tcpip.o
test                                              build/obj/test.o
                                                  build/obj/testqueues.o
                                                  build/obj/testdyn.o
                                                  build/obj/testheap.o
                                                  build/obj/testmbox.o
test_emit_token                                   build/obj/test.o
                                                  build/obj/testqueues.o
                                                  build/obj/testdyn.o
                                                  build/obj/testevt.o
                                                  build/obj/testmbox.o
                                                  build/obj/testmsg.o
                                                  build/obj/testmtx.o
                                                  build/obj/testsem.o
                                                  build/obj/testthd.o
test_global_fail                                  build/obj/test.o
test_print                                        build/obj/test.o
                                                  build/obj/testbmk.o
test_println                                      build/obj/test.o
                                                  build/obj/testbmk.o
test_printn                                       build/obj/test.o
                                                  build/obj/testbmk.o
test_start_timer                                  build/obj/test.o
                                                  build/obj/testbmk.o
test_terminate_threads                            build/obj/test.o
                                                  build/obj/testbmk.o
test_timer_done                                   build/obj/test.o
                                                  build/obj/testbmk.o
test_wait_threads                                 build/obj/test.o
                                                  build/obj/testbmk.o
                                                  build/obj/testqueues.o
                                                  build/obj/testdyn.o
                                                  build/obj/testevt.o
                                                  build/obj/testmtx.o
                                                  build/obj/testsem.o
                                                  build/obj/testthd.o
test_wait_tick                                    build/obj/test.o
                                                  build/obj/testbmk.o
                                                  build/obj/testevt.o
                                                  build/obj/testsem.o
                                                  build/obj/testthd.o
testbmk1                                          build/obj/testbmk.o
testbmk10                                         build/obj/testbmk.o
testbmk11                                         build/obj/testbmk.o
testbmk12                                         build/obj/testbmk.o
testbmk13                                         build/obj/testbmk.o
testbmk2                                          build/obj/testbmk.o
testbmk3                                          build/obj/testbmk.o
testbmk4                                          build/obj/testbmk.o
testbmk5                                          build/obj/testbmk.o
testbmk6                                          build/obj/testbmk.o
testbmk7                                          build/obj/testbmk.o
testbmk8                                          build/obj/testbmk.o
testbmk9                                          build/obj/testbmk.o
testdyn1                                          build/obj/testdyn.o
testdyn2                                          build/obj/testdyn.o
testdyn3                                          build/obj/testdyn.o
testevt1                                          build/obj/testevt.o
testevt2                                          build/obj/testevt.o
testevt3                                          build/obj/testevt.o
testheap1                                         build/obj/testheap.o
testmbox1                                         build/obj/testmbox.o
testmsg1                                          build/obj/testmsg.o
testmtx1                                          build/obj/testmtx.o
testmtx4                                          build/obj/testmtx.o
testmtx5                                          build/obj/testmtx.o
testmtx6                                          build/obj/testmtx.o
testmtx7                                          build/obj/testmtx.o
testmtx8                                          build/obj/testmtx.o
testpools1                                        build/obj/testpools.o
testqueues1                                       build/obj/testqueues.o
testqueues2                                       build/obj/testqueues.o
testsem1                                          build/obj/testsem.o
testsem2                                          build/obj/testsem.o
testsem3                                          build/obj/testsem.o
testsem4                                          build/obj/testsem.o
testsys1                                          build/obj/testsys.o
testsys2                                          build/obj/testsys.o
testsys3                                          build/obj/testsys.o
testthd1                                          build/obj/testthd.o
testthd2                                          build/obj/testthd.o
testthd3                                          build/obj/testthd.o
testthd4                                          build/obj/testthd.o
threads                                           build/obj/test.o
                                                  build/obj/testbmk.o
                                                  build/obj/testqueues.o
                                                  build/obj/testdyn.o
                                                  build/obj/testevt.o
                                                  build/obj/testmsg.o
                                                  build/obj/testmtx.o
                                                  build/obj/testsem.o
                                                  build/obj/testthd.o
udp_bind                                          build/obj/udp.o
                                                  build/obj/api_msg.o
udp_connect                                       build/obj/udp.o
                                                  build/obj/api_msg.o
udp_disconnect                                    build/obj/udp.o
                                                  build/obj/api_msg.o
udp_init                                          build/obj/udp.o
                                                  build/obj/init.o
udp_input                                         build/obj/udp.o
                                                  build/obj/ip.o
udp_new                                           build/obj/udp.o
                                                  build/obj/api_msg.o
udp_pcbs                                          build/obj/udp.o
udp_recv                                          build/obj/udp.o
                                                  build/obj/api_msg.o
udp_remove                                        build/obj/udp.o
                                                  build/obj/api_msg.o
udp_send                                          build/obj/udp.o
                                                  build/obj/api_msg.o
udp_sendto                                        build/obj/udp.o
                                                  build/obj/api_msg.o
udp_sendto_if                                     build/obj/udp.o
usbDisableEndpointsI                              build/obj/usb.o
usbInit                                           build/obj/usb.o
                                                  build/obj/hal.o
usbInitEndpointI                                  build/obj/usb.o
usbObjectInit                                     build/obj/usb.o
                                                  build/obj/usb_lld.o
usbPrepareQueuedReceive                           build/obj/usb.o
usbPrepareQueuedTransmit                          build/obj/usb.o
usbPrepareReceive                                 build/obj/usb.o
usbPrepareTransmit                                build/obj/usb.o
usbStallReceiveI                                  build/obj/usb.o
usbStallTransmitI                                 build/obj/usb.o
usbStart                                          build/obj/usb.o
usbStartReceiveI                                  build/obj/usb.o
usbStartTransmitI                                 build/obj/usb.o
usbStop                                           build/obj/usb.o
usb_lld_clear_in                                  build/obj/usb_lld.o
                                                  build/obj/usb.o
usb_lld_clear_out                                 build/obj/usb_lld.o
                                                  build/obj/usb.o
usb_lld_disable_endpoints                         build/obj/usb_lld.o
                                                  build/obj/usb.o
usb_lld_get_status_in                             build/obj/usb_lld.o
                                                  build/obj/usb.o
usb_lld_get_status_out                            build/obj/usb_lld.o
                                                  build/obj/usb.o
usb_lld_init                                      build/obj/usb_lld.o
                                                  build/obj/usb.o
usb_lld_init_endpoint                             build/obj/usb_lld.o
                                                  build/obj/usb.o
usb_lld_prepare_receive                           build/obj/usb_lld.o
                                                  build/obj/usb.o
usb_lld_prepare_transmit                          build/obj/usb_lld.o
                                                  build/obj/usb.o
usb_lld_pump                                      build/obj/usb_lld.o
usb_lld_read_setup                                build/obj/usb_lld.o
                                                  build/obj/usb.o
usb_lld_reset                                     build/obj/usb_lld.o
                                                  build/obj/usb.o
usb_lld_set_address                               build/obj/usb_lld.o
                                                  build/obj/usb.o
usb_lld_stall_in                                  build/obj/usb_lld.o
                                                  build/obj/usb.o
usb_lld_stall_out                                 build/obj/usb_lld.o
                                                  build/obj/usb.o
usb_lld_start                                     build/obj/usb_lld.o
                                                  build/obj/usb.o
usb_lld_start_in                                  build/obj/usb_lld.o
                                                  build/obj/usb.o
usb_lld_start_out                                 build/obj/usb_lld.o
                                                  build/obj/usb.o
usb_lld_stop                                      build/obj/usb_lld.o
                                                  build/obj/usb.o
wa                                                build/obj/test.o
                                                  build/obj/testbmk.o
                                                  build/obj/testqueues.o
                                                  build/obj/testdyn.o
                                                  build/obj/testpools.o
                                                  build/obj/testevt.o
                                                  build/obj/testmsg.o
                                                  build/obj/testmtx.o
                                                  build/obj/testsem.o
                                                  build/obj/testthd.o
wa_http_server                                    build/obj/web.o
                                                  build/obj/main.o
