ARM GAS  C:\Users\Luis\AppData\Local\Temp\ccd19DXF.s 			page 1


   1              		.syntax unified
   2              		.cpu cortex-m4
   3              		.fpu softvfp
   4              		.eabi_attribute 20, 1
   5              		.eabi_attribute 21, 1
   6              		.eabi_attribute 23, 3
   7              		.eabi_attribute 24, 1
   8              		.eabi_attribute 25, 1
   9              		.eabi_attribute 26, 1
  10              		.eabi_attribute 30, 6
  11              		.eabi_attribute 34, 1
  12              		.eabi_attribute 18, 4
  13              		.thumb
  14              		.file	"api_msg.c"
  15              		.text
  16              	.Ltext0:
  17              		.cfi_sections	.debug_frame
  18              		.section	.text.osalSysHalt,"ax",%progbits
  19              		.align	2
  20              		.p2align 4,,15
  21              		.thumb
  22              		.thumb_func
  23              		.type	osalSysHalt, %function
  24              	osalSysHalt:
  25              	.LFB230:
  26              		.file 1 "../../ChibiOS/os/hal/osal/rt/osal.h"
  27              		.loc 1 460 0
  28              		.cfi_startproc
  29              		@ args = 0, pretend = 0, frame = 8
  30              		@ frame_needed = 1, uses_anonymous_args = 0
  31 0000 80B5     		push	{r7, lr}
  32              		.cfi_def_cfa_offset 8
  33              		.cfi_offset 7, -8
  34              		.cfi_offset 14, -4
  35 0002 82B0     		sub	sp, sp, #8
  36              		.cfi_def_cfa_offset 16
  37 0004 00AF     		add	r7, sp, #0
  38              		.cfi_def_cfa_register 7
  39 0006 7860     		str	r0, [r7, #4]
  40              		.loc 1 462 0
  41 0008 7868     		ldr	r0, [r7, #4]
  42 000a FFF7FEFF 		bl	chSysHalt
  43              		.loc 1 463 0
  44 000e 0837     		adds	r7, r7, #8
  45 0010 BD46     		mov	sp, r7
  46              		@ sp needed
  47 0012 80BD     		pop	{r7, pc}
  48              		.cfi_endproc
  49              	.LFE230:
  50              		.size	osalSysHalt, .-osalSysHalt
  51 0014 AFF30080 		.section	.text.recv_raw,"ax",%progbits
  51      AFF30080 
  51      AFF30080 
  52              		.align	2
  53              		.p2align 4,,15
  54              		.thumb
  55              		.thumb_func
ARM GAS  C:\Users\Luis\AppData\Local\Temp\ccd19DXF.s 			page 2


  56              		.type	recv_raw, %function
  57              	recv_raw:
  58              	.LFB260:
  59              		.file 2 "../../ChibiOS/ext/lwip/src/api/api_msg.c"
  60              		.loc 2 80 0
  61              		.cfi_startproc
  62              		@ args = 0, pretend = 0, frame = 32
  63              		@ frame_needed = 1, uses_anonymous_args = 0
  64 0000 80B5     		push	{r7, lr}
  65              		.cfi_def_cfa_offset 8
  66              		.cfi_offset 7, -8
  67              		.cfi_offset 14, -4
  68 0002 88B0     		sub	sp, sp, #32
  69              		.cfi_def_cfa_offset 40
  70 0004 00AF     		add	r7, sp, #0
  71              		.cfi_def_cfa_register 7
  72 0006 F860     		str	r0, [r7, #12]
  73 0008 B960     		str	r1, [r7, #8]
  74 000a 7A60     		str	r2, [r7, #4]
  75 000c 3B60     		str	r3, [r7]
  76              		.loc 2 86 0
  77 000e FB68     		ldr	r3, [r7, #12]
  78 0010 BB61     		str	r3, [r7, #24]
  79              		.loc 2 88 0
  80 0012 BB69     		ldr	r3, [r7, #24]
  81 0014 002B     		cmp	r3, #0
  82 0016 57D0     		beq	.L3
  83              		.loc 2 88 0 is_stmt 0 discriminator 1
  84 0018 BB69     		ldr	r3, [r7, #24]
  85 001a 1033     		adds	r3, r3, #16
  86 001c 1846     		mov	r0, r3
  87 001e FFF7FEFF 		bl	sys_mbox_valid
  88 0022 0346     		mov	r3, r0
  89 0024 002B     		cmp	r3, #0
  90 0026 4FD0     		beq	.L3
  91              		.loc 2 97 0 is_stmt 1
  92 0028 7B68     		ldr	r3, [r7, #4]
  93 002a 1B89     		ldrh	r3, [r3, #8]
  94 002c 0320     		movs	r0, #3
  95 002e 1946     		mov	r1, r3
  96 0030 0022     		movs	r2, #0
  97 0032 FFF7FEFF 		bl	pbuf_alloc
  98 0036 F861     		str	r0, [r7, #28]
  99              		.loc 2 98 0
 100 0038 FB69     		ldr	r3, [r7, #28]
 101 003a 002B     		cmp	r3, #0
 102 003c 0BD0     		beq	.L4
 103              		.loc 2 99 0
 104 003e F869     		ldr	r0, [r7, #28]
 105 0040 7968     		ldr	r1, [r7, #4]
 106 0042 FFF7FEFF 		bl	pbuf_copy
 107 0046 0346     		mov	r3, r0
 108 0048 002B     		cmp	r3, #0
 109 004a 04D0     		beq	.L4
 110              		.loc 2 100 0
 111 004c F869     		ldr	r0, [r7, #28]
 112 004e FFF7FEFF 		bl	pbuf_free
ARM GAS  C:\Users\Luis\AppData\Local\Temp\ccd19DXF.s 			page 3


 113              		.loc 2 101 0
 114 0052 0023     		movs	r3, #0
 115 0054 FB61     		str	r3, [r7, #28]
 116              	.L4:
 117              		.loc 2 105 0
 118 0056 FB69     		ldr	r3, [r7, #28]
 119 0058 002B     		cmp	r3, #0
 120 005a 35D0     		beq	.L3
 121              	.LBB2:
 122              		.loc 2 107 0
 123 005c 0720     		movs	r0, #7
 124 005e FFF7FEFF 		bl	memp_malloc
 125 0062 7861     		str	r0, [r7, #20]
 126              		.loc 2 108 0
 127 0064 7B69     		ldr	r3, [r7, #20]
 128 0066 002B     		cmp	r3, #0
 129 0068 04D1     		bne	.L5
 130              		.loc 2 109 0
 131 006a F869     		ldr	r0, [r7, #28]
 132 006c FFF7FEFF 		bl	pbuf_free
 133              		.loc 2 110 0
 134 0070 0023     		movs	r3, #0
 135 0072 2AE0     		b	.L6
 136              	.L5:
 137              		.loc 2 113 0
 138 0074 7B69     		ldr	r3, [r7, #20]
 139 0076 FA69     		ldr	r2, [r7, #28]
 140 0078 1A60     		str	r2, [r3]
 141              		.loc 2 114 0
 142 007a 7B69     		ldr	r3, [r7, #20]
 143 007c FA69     		ldr	r2, [r7, #28]
 144 007e 5A60     		str	r2, [r3, #4]
 145              		.loc 2 115 0
 146 0080 144B     		ldr	r3, .L8
 147 0082 1A68     		ldr	r2, [r3]
 148 0084 7B69     		ldr	r3, [r7, #20]
 149 0086 9A60     		str	r2, [r3, #8]
 150              		.loc 2 116 0
 151 0088 BB68     		ldr	r3, [r7, #8]
 152 008a 1B7C     		ldrb	r3, [r3, #16]	@ zero_extendqisi2
 153 008c 1A46     		mov	r2, r3
 154 008e 7B69     		ldr	r3, [r7, #20]
 155 0090 9A81     		strh	r2, [r3, #12]	@ movhi
 156              		.loc 2 118 0
 157 0092 FB69     		ldr	r3, [r7, #28]
 158 0094 1B89     		ldrh	r3, [r3, #8]	@ movhi
 159 0096 7B82     		strh	r3, [r7, #18]	@ movhi
 160              		.loc 2 119 0
 161 0098 BB69     		ldr	r3, [r7, #24]
 162 009a 1033     		adds	r3, r3, #16
 163 009c 1846     		mov	r0, r3
 164 009e 7969     		ldr	r1, [r7, #20]
 165 00a0 FFF7FEFF 		bl	sys_mbox_trypost
 166 00a4 0346     		mov	r3, r0
 167 00a6 002B     		cmp	r3, #0
 168 00a8 04D0     		beq	.L7
 169              		.loc 2 120 0
ARM GAS  C:\Users\Luis\AppData\Local\Temp\ccd19DXF.s 			page 4


 170 00aa 7869     		ldr	r0, [r7, #20]
 171 00ac FFF7FEFF 		bl	netbuf_delete
 172              		.loc 2 121 0
 173 00b0 0023     		movs	r3, #0
 174 00b2 0AE0     		b	.L6
 175              	.L7:
 176              		.loc 2 127 0
 177 00b4 BB69     		ldr	r3, [r7, #24]
 178 00b6 9B6A     		ldr	r3, [r3, #40]
 179 00b8 002B     		cmp	r3, #0
 180 00ba 05D0     		beq	.L3
 181              		.loc 2 127 0 is_stmt 0 discriminator 1
 182 00bc BB69     		ldr	r3, [r7, #24]
 183 00be 9B6A     		ldr	r3, [r3, #40]
 184 00c0 7A8A     		ldrh	r2, [r7, #18]
 185 00c2 B869     		ldr	r0, [r7, #24]
 186 00c4 0021     		movs	r1, #0
 187 00c6 9847     		blx	r3
 188              	.L3:
 189              	.LBE2:
 190              		.loc 2 132 0 is_stmt 1
 191 00c8 0023     		movs	r3, #0
 192              	.L6:
 193              		.loc 2 133 0
 194 00ca 1846     		mov	r0, r3
 195 00cc 2037     		adds	r7, r7, #32
 196 00ce BD46     		mov	sp, r7
 197              		@ sp needed
 198 00d0 80BD     		pop	{r7, pc}
 199              	.L9:
 200 00d2 00BF     		.align	2
 201              	.L8:
 202 00d4 00000000 		.word	current_iphdr_src
 203              		.cfi_endproc
 204              	.LFE260:
 205              		.size	recv_raw, .-recv_raw
 206 00d8 AFF30080 		.section	.rodata
 206      AFF30080 
 207              		.align	2
 208              	.LC0:
 209 0000 72656376 		.ascii	"recv_udp must have a pcb argument\000"
 209      5F756470 
 209      206D7573 
 209      74206861 
 209      76652061 
 210 0022 0000     		.align	2
 211              	.LC1:
 212 0024 72656376 		.ascii	"recv_udp must have an argument\000"
 212      5F756470 
 212      206D7573 
 212      74206861 
 212      76652061 
 213 0043 00       		.align	2
 214              	.LC2:
 215 0044 72656376 		.ascii	"recv_udp: recv for wrong pcb!\000"
 215      5F756470 
 215      3A207265 
ARM GAS  C:\Users\Luis\AppData\Local\Temp\ccd19DXF.s 			page 5


 215      63762066 
 215      6F722077 
 216              		.section	.text.recv_udp,"ax",%progbits
 217              		.align	2
 218              		.p2align 4,,15
 219              		.thumb
 220              		.thumb_func
 221              		.type	recv_udp, %function
 222              	recv_udp:
 223              	.LFB261:
 224              		.loc 2 146 0
 225              		.cfi_startproc
 226              		@ args = 4, pretend = 0, frame = 32
 227              		@ frame_needed = 1, uses_anonymous_args = 0
 228 0000 80B5     		push	{r7, lr}
 229              		.cfi_def_cfa_offset 8
 230              		.cfi_offset 7, -8
 231              		.cfi_offset 14, -4
 232 0002 88B0     		sub	sp, sp, #32
 233              		.cfi_def_cfa_offset 40
 234 0004 00AF     		add	r7, sp, #0
 235              		.cfi_def_cfa_register 7
 236 0006 F860     		str	r0, [r7, #12]
 237 0008 B960     		str	r1, [r7, #8]
 238 000a 7A60     		str	r2, [r7, #4]
 239 000c 3B60     		str	r3, [r7]
 240              		.loc 2 155 0
 241 000e BB68     		ldr	r3, [r7, #8]
 242 0010 002B     		cmp	r3, #0
 243 0012 02D1     		bne	.L11
 244              		.loc 2 155 0 is_stmt 0 discriminator 1
 245 0014 2D48     		ldr	r0, .L21
 246 0016 FFF7FEFF 		bl	osalSysHalt
 247              	.L11:
 248              		.loc 2 156 0 is_stmt 1
 249 001a FB68     		ldr	r3, [r7, #12]
 250 001c 002B     		cmp	r3, #0
 251 001e 02D1     		bne	.L12
 252              		.loc 2 156 0 is_stmt 0 discriminator 1
 253 0020 2B48     		ldr	r0, .L21+4
 254 0022 FFF7FEFF 		bl	osalSysHalt
 255              	.L12:
 256              		.loc 2 157 0 is_stmt 1
 257 0026 FB68     		ldr	r3, [r7, #12]
 258 0028 FB61     		str	r3, [r7, #28]
 259              		.loc 2 158 0
 260 002a FB69     		ldr	r3, [r7, #28]
 261 002c 5A68     		ldr	r2, [r3, #4]
 262 002e BB68     		ldr	r3, [r7, #8]
 263 0030 9A42     		cmp	r2, r3
 264 0032 02D0     		beq	.L13
 265              		.loc 2 158 0 is_stmt 0 discriminator 1
 266 0034 2748     		ldr	r0, .L21+8
 267 0036 FFF7FEFF 		bl	osalSysHalt
 268              	.L13:
 269              		.loc 2 165 0 is_stmt 1
 270 003a FB69     		ldr	r3, [r7, #28]
ARM GAS  C:\Users\Luis\AppData\Local\Temp\ccd19DXF.s 			page 6


 271 003c 002B     		cmp	r3, #0
 272 003e 07D0     		beq	.L14
 273              		.loc 2 165 0 is_stmt 0 discriminator 1
 274 0040 FB69     		ldr	r3, [r7, #28]
 275 0042 1033     		adds	r3, r3, #16
 276 0044 1846     		mov	r0, r3
 277 0046 FFF7FEFF 		bl	sys_mbox_valid
 278 004a 0346     		mov	r3, r0
 279 004c 002B     		cmp	r3, #0
 280 004e 03D1     		bne	.L15
 281              	.L14:
 282              		.loc 2 167 0 is_stmt 1
 283 0050 7868     		ldr	r0, [r7, #4]
 284 0052 FFF7FEFF 		bl	pbuf_free
 285              		.loc 2 168 0
 286 0056 36E0     		b	.L10
 287              	.L15:
 288              		.loc 2 171 0
 289 0058 0720     		movs	r0, #7
 290 005a FFF7FEFF 		bl	memp_malloc
 291 005e B861     		str	r0, [r7, #24]
 292              		.loc 2 172 0
 293 0060 BB69     		ldr	r3, [r7, #24]
 294 0062 002B     		cmp	r3, #0
 295 0064 03D1     		bne	.L17
 296              		.loc 2 173 0
 297 0066 7868     		ldr	r0, [r7, #4]
 298 0068 FFF7FEFF 		bl	pbuf_free
 299              		.loc 2 174 0
 300 006c 2BE0     		b	.L10
 301              	.L17:
 302              		.loc 2 176 0
 303 006e BB69     		ldr	r3, [r7, #24]
 304 0070 7A68     		ldr	r2, [r7, #4]
 305 0072 1A60     		str	r2, [r3]
 306              		.loc 2 177 0
 307 0074 BB69     		ldr	r3, [r7, #24]
 308 0076 7A68     		ldr	r2, [r7, #4]
 309 0078 5A60     		str	r2, [r3, #4]
 310              		.loc 2 178 0
 311 007a 3B68     		ldr	r3, [r7]
 312 007c 002B     		cmp	r3, #0
 313 007e 02D0     		beq	.L18
 314              		.loc 2 178 0 is_stmt 0 discriminator 1
 315 0080 3B68     		ldr	r3, [r7]
 316 0082 1B68     		ldr	r3, [r3]
 317 0084 00E0     		b	.L19
 318              	.L18:
 319              		.loc 2 178 0 discriminator 2
 320 0086 0023     		movs	r3, #0
 321              	.L19:
 322              		.loc 2 178 0 discriminator 3
 323 0088 BA69     		ldr	r2, [r7, #24]
 324 008a 9360     		str	r3, [r2, #8]
 325              		.loc 2 179 0 is_stmt 1 discriminator 3
 326 008c BB69     		ldr	r3, [r7, #24]
 327 008e 3A8D     		ldrh	r2, [r7, #40]	@ movhi
ARM GAS  C:\Users\Luis\AppData\Local\Temp\ccd19DXF.s 			page 7


 328 0090 9A81     		strh	r2, [r3, #12]	@ movhi
 329              		.loc 2 194 0 discriminator 3
 330 0092 7B68     		ldr	r3, [r7, #4]
 331 0094 1B89     		ldrh	r3, [r3, #8]	@ movhi
 332 0096 FB82     		strh	r3, [r7, #22]	@ movhi
 333              		.loc 2 195 0 discriminator 3
 334 0098 FB69     		ldr	r3, [r7, #28]
 335 009a 1033     		adds	r3, r3, #16
 336 009c 1846     		mov	r0, r3
 337 009e B969     		ldr	r1, [r7, #24]
 338 00a0 FFF7FEFF 		bl	sys_mbox_trypost
 339 00a4 0346     		mov	r3, r0
 340 00a6 002B     		cmp	r3, #0
 341 00a8 03D0     		beq	.L20
 342              		.loc 2 196 0
 343 00aa B869     		ldr	r0, [r7, #24]
 344 00ac FFF7FEFF 		bl	netbuf_delete
 345              		.loc 2 197 0
 346 00b0 09E0     		b	.L10
 347              	.L20:
 348              		.loc 2 203 0
 349 00b2 FB69     		ldr	r3, [r7, #28]
 350 00b4 9B6A     		ldr	r3, [r3, #40]
 351 00b6 002B     		cmp	r3, #0
 352 00b8 05D0     		beq	.L10
 353              		.loc 2 203 0 is_stmt 0 discriminator 1
 354 00ba FB69     		ldr	r3, [r7, #28]
 355 00bc 9B6A     		ldr	r3, [r3, #40]
 356 00be FA8A     		ldrh	r2, [r7, #22]
 357 00c0 F869     		ldr	r0, [r7, #28]
 358 00c2 0021     		movs	r1, #0
 359 00c4 9847     		blx	r3
 360              	.L10:
 361              		.loc 2 205 0 is_stmt 1
 362 00c6 2037     		adds	r7, r7, #32
 363 00c8 BD46     		mov	sp, r7
 364              		@ sp needed
 365 00ca 80BD     		pop	{r7, pc}
 366              	.L22:
 367              		.align	2
 368              	.L21:
 369 00cc 00000000 		.word	.LC0
 370 00d0 24000000 		.word	.LC1
 371 00d4 44000000 		.word	.LC2
 372              		.cfi_endproc
 373              	.LFE261:
 374              		.size	recv_udp, .-recv_udp
 375 00d8 AFF30080 		.section	.rodata
 375      AFF30080 
 376 0062 0000     		.align	2
 377              	.LC3:
 378 0064 72656376 		.ascii	"recv_tcp must have a pcb argument\000"
 378      5F746370 
 378      206D7573 
 378      74206861 
 378      76652061 
 379 0086 0000     		.align	2
ARM GAS  C:\Users\Luis\AppData\Local\Temp\ccd19DXF.s 			page 8


 380              	.LC4:
 381 0088 72656376 		.ascii	"recv_tcp must have an argument\000"
 381      5F746370 
 381      206D7573 
 381      74206861 
 381      76652061 
 382 00a7 00       		.align	2
 383              	.LC5:
 384 00a8 72656376 		.ascii	"recv_tcp: recv for wrong pcb!\000"
 384      5F746370 
 384      3A207265 
 384      63762066 
 384      6F722077 
 385              		.section	.text.recv_tcp,"ax",%progbits
 386              		.align	2
 387              		.p2align 4,,15
 388              		.thumb
 389              		.thumb_func
 390              		.type	recv_tcp, %function
 391              	recv_tcp:
 392              	.LFB262:
 393              		.loc 2 217 0
 394              		.cfi_startproc
 395              		@ args = 0, pretend = 0, frame = 24
 396              		@ frame_needed = 1, uses_anonymous_args = 0
 397 0000 80B5     		push	{r7, lr}
 398              		.cfi_def_cfa_offset 8
 399              		.cfi_offset 7, -8
 400              		.cfi_offset 14, -4
 401 0002 86B0     		sub	sp, sp, #24
 402              		.cfi_def_cfa_offset 32
 403 0004 00AF     		add	r7, sp, #0
 404              		.cfi_def_cfa_register 7
 405 0006 F860     		str	r0, [r7, #12]
 406 0008 B960     		str	r1, [r7, #8]
 407 000a 7A60     		str	r2, [r7, #4]
 408 000c FB70     		strb	r3, [r7, #3]
 409              		.loc 2 222 0
 410 000e BB68     		ldr	r3, [r7, #8]
 411 0010 002B     		cmp	r3, #0
 412 0012 02D1     		bne	.L24
 413              		.loc 2 222 0 is_stmt 0 discriminator 1
 414 0014 2D48     		ldr	r0, .L36
 415 0016 FFF7FEFF 		bl	osalSysHalt
 416              	.L24:
 417              		.loc 2 223 0 is_stmt 1
 418 001a FB68     		ldr	r3, [r7, #12]
 419 001c 002B     		cmp	r3, #0
 420 001e 02D1     		bne	.L25
 421              		.loc 2 223 0 is_stmt 0 discriminator 1
 422 0020 2B48     		ldr	r0, .L36+4
 423 0022 FFF7FEFF 		bl	osalSysHalt
 424              	.L25:
 425              		.loc 2 224 0 is_stmt 1
 426 0026 FB68     		ldr	r3, [r7, #12]
 427 0028 3B61     		str	r3, [r7, #16]
 428              		.loc 2 225 0
ARM GAS  C:\Users\Luis\AppData\Local\Temp\ccd19DXF.s 			page 9


 429 002a 3B69     		ldr	r3, [r7, #16]
 430 002c 5A68     		ldr	r2, [r3, #4]
 431 002e BB68     		ldr	r3, [r7, #8]
 432 0030 9A42     		cmp	r2, r3
 433 0032 02D0     		beq	.L26
 434              		.loc 2 225 0 is_stmt 0 discriminator 1
 435 0034 2748     		ldr	r0, .L36+8
 436 0036 FFF7FEFF 		bl	osalSysHalt
 437              	.L26:
 438              		.loc 2 227 0 is_stmt 1
 439 003a 3B69     		ldr	r3, [r7, #16]
 440 003c 002B     		cmp	r3, #0
 441 003e 01D1     		bne	.L27
 442              		.loc 2 228 0
 443 0040 FA23     		movs	r3, #250
 444 0042 3DE0     		b	.L28
 445              	.L27:
 446              		.loc 2 230 0
 447 0044 3B69     		ldr	r3, [r7, #16]
 448 0046 1033     		adds	r3, r3, #16
 449 0048 1846     		mov	r0, r3
 450 004a FFF7FEFF 		bl	sys_mbox_valid
 451 004e 0346     		mov	r3, r0
 452 0050 002B     		cmp	r3, #0
 453 0052 0DD1     		bne	.L29
 454              		.loc 2 232 0
 455 0054 7B68     		ldr	r3, [r7, #4]
 456 0056 002B     		cmp	r3, #0
 457 0058 08D0     		beq	.L30
 458              		.loc 2 233 0
 459 005a 7B68     		ldr	r3, [r7, #4]
 460 005c 1B89     		ldrh	r3, [r3, #8]
 461 005e B868     		ldr	r0, [r7, #8]
 462 0060 1946     		mov	r1, r3
 463 0062 FFF7FEFF 		bl	tcp_recved
 464              		.loc 2 234 0
 465 0066 7868     		ldr	r0, [r7, #4]
 466 0068 FFF7FEFF 		bl	pbuf_free
 467              	.L30:
 468              		.loc 2 236 0
 469 006c 0023     		movs	r3, #0
 470 006e 27E0     		b	.L28
 471              	.L29:
 472              		.loc 2 243 0
 473 0070 3B69     		ldr	r3, [r7, #16]
 474 0072 1B7A     		ldrb	r3, [r3, #8]	@ zero_extendqisi2
 475 0074 5BB2     		sxtb	r3, r3
 476 0076 13F1090F 		cmn	r3, #9
 477 007a 02DB     		blt	.L31
 478              		.loc 2 243 0 is_stmt 0 discriminator 1
 479 007c 3B69     		ldr	r3, [r7, #16]
 480 007e FA78     		ldrb	r2, [r7, #3]
 481 0080 1A72     		strb	r2, [r3, #8]
 482              	.L31:
 483              		.loc 2 245 0 is_stmt 1
 484 0082 7B68     		ldr	r3, [r7, #4]
 485 0084 002B     		cmp	r3, #0
ARM GAS  C:\Users\Luis\AppData\Local\Temp\ccd19DXF.s 			page 10


 486 0086 03D0     		beq	.L32
 487              		.loc 2 246 0
 488 0088 7B68     		ldr	r3, [r7, #4]
 489 008a 1B89     		ldrh	r3, [r3, #8]	@ movhi
 490 008c FB82     		strh	r3, [r7, #22]	@ movhi
 491 008e 01E0     		b	.L33
 492              	.L32:
 493              		.loc 2 248 0
 494 0090 0023     		movs	r3, #0
 495 0092 FB82     		strh	r3, [r7, #22]	@ movhi
 496              	.L33:
 497              		.loc 2 251 0
 498 0094 3B69     		ldr	r3, [r7, #16]
 499 0096 1033     		adds	r3, r3, #16
 500 0098 1846     		mov	r0, r3
 501 009a 7968     		ldr	r1, [r7, #4]
 502 009c FFF7FEFF 		bl	sys_mbox_trypost
 503 00a0 0346     		mov	r3, r0
 504 00a2 002B     		cmp	r3, #0
 505 00a4 01D0     		beq	.L34
 506              		.loc 2 253 0
 507 00a6 FF23     		movs	r3, #255
 508 00a8 0AE0     		b	.L28
 509              	.L34:
 510              		.loc 2 259 0
 511 00aa 3B69     		ldr	r3, [r7, #16]
 512 00ac 9B6A     		ldr	r3, [r3, #40]
 513 00ae 002B     		cmp	r3, #0
 514 00b0 05D0     		beq	.L35
 515              		.loc 2 259 0 is_stmt 0 discriminator 1
 516 00b2 3B69     		ldr	r3, [r7, #16]
 517 00b4 9B6A     		ldr	r3, [r3, #40]
 518 00b6 FA8A     		ldrh	r2, [r7, #22]
 519 00b8 3869     		ldr	r0, [r7, #16]
 520 00ba 0021     		movs	r1, #0
 521 00bc 9847     		blx	r3
 522              	.L35:
 523              		.loc 2 262 0 is_stmt 1
 524 00be 0023     		movs	r3, #0
 525              	.L28:
 526 00c0 5BB2     		sxtb	r3, r3
 527              		.loc 2 263 0
 528 00c2 1846     		mov	r0, r3
 529 00c4 1837     		adds	r7, r7, #24
 530 00c6 BD46     		mov	sp, r7
 531              		@ sp needed
 532 00c8 80BD     		pop	{r7, pc}
 533              	.L37:
 534 00ca 00BF     		.align	2
 535              	.L36:
 536 00cc 64000000 		.word	.LC3
 537 00d0 88000000 		.word	.LC4
 538 00d4 A8000000 		.word	.LC5
 539              		.cfi_endproc
 540              	.LFE262:
 541              		.size	recv_tcp, .-recv_tcp
 542 00d8 AFF30080 		.section	.rodata
ARM GAS  C:\Users\Luis\AppData\Local\Temp\ccd19DXF.s 			page 11


 542      AFF30080 
 543 00c6 0000     		.align	2
 544              	.LC6:
 545 00c8 636F6E6E 		.ascii	"conn != NULL\000"
 545      20213D20 
 545      4E554C4C 
 545      00
 546              		.section	.text.poll_tcp,"ax",%progbits
 547              		.align	2
 548              		.p2align 4,,15
 549              		.thumb
 550              		.thumb_func
 551              		.type	poll_tcp, %function
 552              	poll_tcp:
 553              	.LFB263:
 554              		.loc 2 278 0
 555              		.cfi_startproc
 556              		@ args = 0, pretend = 0, frame = 16
 557              		@ frame_needed = 1, uses_anonymous_args = 0
 558 0000 80B5     		push	{r7, lr}
 559              		.cfi_def_cfa_offset 8
 560              		.cfi_offset 7, -8
 561              		.cfi_offset 14, -4
 562 0002 84B0     		sub	sp, sp, #16
 563              		.cfi_def_cfa_offset 24
 564 0004 00AF     		add	r7, sp, #0
 565              		.cfi_def_cfa_register 7
 566 0006 7860     		str	r0, [r7, #4]
 567 0008 3960     		str	r1, [r7]
 568              		.loc 2 279 0
 569 000a 7B68     		ldr	r3, [r7, #4]
 570 000c FB60     		str	r3, [r7, #12]
 571              		.loc 2 282 0
 572 000e FB68     		ldr	r3, [r7, #12]
 573 0010 002B     		cmp	r3, #0
 574 0012 02D1     		bne	.L39
 575              		.loc 2 282 0 is_stmt 0 discriminator 1
 576 0014 1F48     		ldr	r0, .L44
 577 0016 FFF7FEFF 		bl	osalSysHalt
 578              	.L39:
 579              		.loc 2 284 0 is_stmt 1
 580 001a FB68     		ldr	r3, [r7, #12]
 581 001c 5B78     		ldrb	r3, [r3, #1]	@ zero_extendqisi2
 582 001e 012B     		cmp	r3, #1
 583 0020 03D1     		bne	.L40
 584              		.loc 2 285 0
 585 0022 F868     		ldr	r0, [r7, #12]
 586 0024 FFF7FEFF 		bl	do_writemore
 587 0028 06E0     		b	.L41
 588              	.L40:
 589              		.loc 2 286 0
 590 002a FB68     		ldr	r3, [r7, #12]
 591 002c 5B78     		ldrb	r3, [r3, #1]	@ zero_extendqisi2
 592 002e 042B     		cmp	r3, #4
 593 0030 02D1     		bne	.L41
 594              		.loc 2 287 0
 595 0032 F868     		ldr	r0, [r7, #12]
ARM GAS  C:\Users\Luis\AppData\Local\Temp\ccd19DXF.s 			page 12


 596 0034 FFF7FEFF 		bl	do_close_internal
 597              	.L41:
 598              		.loc 2 292 0
 599 0038 FB68     		ldr	r3, [r7, #12]
 600 003a 1B7F     		ldrb	r3, [r3, #28]	@ zero_extendqisi2
 601 003c 03F01003 		and	r3, r3, #16
 602 0040 002B     		cmp	r3, #0
 603 0042 21D0     		beq	.L42
 604              		.loc 2 295 0
 605 0044 FB68     		ldr	r3, [r7, #12]
 606 0046 5B68     		ldr	r3, [r3, #4]
 607 0048 002B     		cmp	r3, #0
 608 004a 1DD0     		beq	.L42
 609              		.loc 2 295 0 is_stmt 0 discriminator 1
 610 004c FB68     		ldr	r3, [r7, #12]
 611 004e 5B68     		ldr	r3, [r3, #4]
 612 0050 B3F86630 		ldrh	r3, [r3, #102]
 613 0054 B3F5866F 		cmp	r3, #1072
 614 0058 16D3     		bcc	.L42
 615              		.loc 2 296 0 is_stmt 1 discriminator 1
 616 005a FB68     		ldr	r3, [r7, #12]
 617 005c 5B68     		ldr	r3, [r3, #4]
 618 005e B3F86830 		ldrh	r3, [r3, #104]
 619              		.loc 2 295 0 discriminator 1
 620 0062 042B     		cmp	r3, #4
 621 0064 10D8     		bhi	.L42
 622              		.loc 2 297 0
 623 0066 FB68     		ldr	r3, [r7, #12]
 624 0068 1B7F     		ldrb	r3, [r3, #28]	@ zero_extendqisi2
 625 006a 23F01003 		bic	r3, r3, #16
 626 006e DAB2     		uxtb	r2, r3
 627 0070 FB68     		ldr	r3, [r7, #12]
 628 0072 1A77     		strb	r2, [r3, #28]
 629              		.loc 2 298 0
 630 0074 FB68     		ldr	r3, [r7, #12]
 631 0076 9B6A     		ldr	r3, [r3, #40]
 632 0078 002B     		cmp	r3, #0
 633 007a 05D0     		beq	.L42
 634              		.loc 2 298 0 is_stmt 0 discriminator 1
 635 007c FB68     		ldr	r3, [r7, #12]
 636 007e 9B6A     		ldr	r3, [r3, #40]
 637 0080 F868     		ldr	r0, [r7, #12]
 638 0082 0221     		movs	r1, #2
 639 0084 0022     		movs	r2, #0
 640 0086 9847     		blx	r3
 641              	.L42:
 642              		.loc 2 302 0 is_stmt 1
 643 0088 0023     		movs	r3, #0
 644 008a 5BB2     		sxtb	r3, r3
 645              		.loc 2 303 0
 646 008c 1846     		mov	r0, r3
 647 008e 1037     		adds	r7, r7, #16
 648 0090 BD46     		mov	sp, r7
 649              		@ sp needed
 650 0092 80BD     		pop	{r7, pc}
 651              	.L45:
 652              		.align	2
ARM GAS  C:\Users\Luis\AppData\Local\Temp\ccd19DXF.s 			page 13


 653              	.L44:
 654 0094 C8000000 		.word	.LC6
 655              		.cfi_endproc
 656              	.LFE263:
 657              		.size	poll_tcp, .-poll_tcp
 658 0098 AFF30080 		.section	.text.sent_tcp,"ax",%progbits
 658      AFF30080 
 659              		.align	2
 660              		.p2align 4,,15
 661              		.thumb
 662              		.thumb_func
 663              		.type	sent_tcp, %function
 664              	sent_tcp:
 665              	.LFB264:
 666              		.loc 2 314 0
 667              		.cfi_startproc
 668              		@ args = 0, pretend = 0, frame = 24
 669              		@ frame_needed = 1, uses_anonymous_args = 0
 670 0000 80B5     		push	{r7, lr}
 671              		.cfi_def_cfa_offset 8
 672              		.cfi_offset 7, -8
 673              		.cfi_offset 14, -4
 674 0002 86B0     		sub	sp, sp, #24
 675              		.cfi_def_cfa_offset 32
 676 0004 00AF     		add	r7, sp, #0
 677              		.cfi_def_cfa_register 7
 678 0006 F860     		str	r0, [r7, #12]
 679 0008 B960     		str	r1, [r7, #8]
 680 000a 1346     		mov	r3, r2
 681 000c FB80     		strh	r3, [r7, #6]	@ movhi
 682              		.loc 2 315 0
 683 000e FB68     		ldr	r3, [r7, #12]
 684 0010 7B61     		str	r3, [r7, #20]
 685              		.loc 2 318 0
 686 0012 7B69     		ldr	r3, [r7, #20]
 687 0014 002B     		cmp	r3, #0
 688 0016 02D1     		bne	.L47
 689              		.loc 2 318 0 is_stmt 0 discriminator 1
 690 0018 1E48     		ldr	r0, .L52
 691 001a FFF7FEFF 		bl	osalSysHalt
 692              	.L47:
 693              		.loc 2 320 0 is_stmt 1
 694 001e 7B69     		ldr	r3, [r7, #20]
 695 0020 5B78     		ldrb	r3, [r3, #1]	@ zero_extendqisi2
 696 0022 012B     		cmp	r3, #1
 697 0024 03D1     		bne	.L48
 698              		.loc 2 321 0
 699 0026 7869     		ldr	r0, [r7, #20]
 700 0028 FFF7FEFF 		bl	do_writemore
 701 002c 06E0     		b	.L49
 702              	.L48:
 703              		.loc 2 322 0
 704 002e 7B69     		ldr	r3, [r7, #20]
 705 0030 5B78     		ldrb	r3, [r3, #1]	@ zero_extendqisi2
 706 0032 042B     		cmp	r3, #4
 707 0034 02D1     		bne	.L49
 708              		.loc 2 323 0
ARM GAS  C:\Users\Luis\AppData\Local\Temp\ccd19DXF.s 			page 14


 709 0036 7869     		ldr	r0, [r7, #20]
 710 0038 FFF7FEFF 		bl	do_close_internal
 711              	.L49:
 712              		.loc 2 326 0
 713 003c 7B69     		ldr	r3, [r7, #20]
 714 003e 002B     		cmp	r3, #0
 715 0040 21D0     		beq	.L50
 716              		.loc 2 329 0
 717 0042 7B69     		ldr	r3, [r7, #20]
 718 0044 5B68     		ldr	r3, [r3, #4]
 719 0046 002B     		cmp	r3, #0
 720 0048 1DD0     		beq	.L50
 721              		.loc 2 329 0 is_stmt 0 discriminator 1
 722 004a 7B69     		ldr	r3, [r7, #20]
 723 004c 5B68     		ldr	r3, [r3, #4]
 724 004e B3F86630 		ldrh	r3, [r3, #102]
 725 0052 B3F5866F 		cmp	r3, #1072
 726 0056 16D3     		bcc	.L50
 727              		.loc 2 330 0 is_stmt 1 discriminator 1
 728 0058 7B69     		ldr	r3, [r7, #20]
 729 005a 5B68     		ldr	r3, [r3, #4]
 730 005c B3F86830 		ldrh	r3, [r3, #104]
 731              		.loc 2 329 0 discriminator 1
 732 0060 042B     		cmp	r3, #4
 733 0062 10D8     		bhi	.L50
 734              		.loc 2 331 0
 735 0064 7B69     		ldr	r3, [r7, #20]
 736 0066 1B7F     		ldrb	r3, [r3, #28]	@ zero_extendqisi2
 737 0068 23F01003 		bic	r3, r3, #16
 738 006c DAB2     		uxtb	r2, r3
 739 006e 7B69     		ldr	r3, [r7, #20]
 740 0070 1A77     		strb	r2, [r3, #28]
 741              		.loc 2 332 0
 742 0072 7B69     		ldr	r3, [r7, #20]
 743 0074 9B6A     		ldr	r3, [r3, #40]
 744 0076 002B     		cmp	r3, #0
 745 0078 05D0     		beq	.L50
 746              		.loc 2 332 0 is_stmt 0 discriminator 1
 747 007a 7B69     		ldr	r3, [r7, #20]
 748 007c 9B6A     		ldr	r3, [r3, #40]
 749 007e FA88     		ldrh	r2, [r7, #6]
 750 0080 7869     		ldr	r0, [r7, #20]
 751 0082 0221     		movs	r1, #2
 752 0084 9847     		blx	r3
 753              	.L50:
 754              		.loc 2 336 0 is_stmt 1
 755 0086 0023     		movs	r3, #0
 756 0088 5BB2     		sxtb	r3, r3
 757              		.loc 2 337 0
 758 008a 1846     		mov	r0, r3
 759 008c 1837     		adds	r7, r7, #24
 760 008e BD46     		mov	sp, r7
 761              		@ sp needed
 762 0090 80BD     		pop	{r7, pc}
 763              	.L53:
 764 0092 00BF     		.align	2
 765              	.L52:
ARM GAS  C:\Users\Luis\AppData\Local\Temp\ccd19DXF.s 			page 15


 766 0094 C8000000 		.word	.LC6
 767              		.cfi_endproc
 768              	.LFE264:
 769              		.size	sent_tcp, .-sent_tcp
 770 0098 AFF30080 		.section	.rodata
 770      AFF30080 
 771 00d5 000000   		.align	2
 772              	.LC7:
 773 00d8 636F6E6E 		.ascii	"conn->current_msg != NULL\000"
 773      2D3E6375 
 773      7272656E 
 773      745F6D73 
 773      6720213D 
 774 00f2 0000     		.align	2
 775              	.LC8:
 776 00f4 636F6E6E 		.ascii	"conn->current_msg == NULL\000"
 776      2D3E6375 
 776      7272656E 
 776      745F6D73 
 776      67203D3D 
 777              		.section	.text.err_tcp,"ax",%progbits
 778              		.align	2
 779              		.p2align 4,,15
 780              		.thumb
 781              		.thumb_func
 782              		.type	err_tcp, %function
 783              	err_tcp:
 784              	.LFB265:
 785              		.loc 2 348 0
 786              		.cfi_startproc
 787              		@ args = 0, pretend = 0, frame = 24
 788              		@ frame_needed = 1, uses_anonymous_args = 0
 789 0000 80B5     		push	{r7, lr}
 790              		.cfi_def_cfa_offset 8
 791              		.cfi_offset 7, -8
 792              		.cfi_offset 14, -4
 793 0002 86B0     		sub	sp, sp, #24
 794              		.cfi_def_cfa_offset 32
 795 0004 00AF     		add	r7, sp, #0
 796              		.cfi_def_cfa_register 7
 797 0006 7860     		str	r0, [r7, #4]
 798 0008 0B46     		mov	r3, r1
 799 000a FB70     		strb	r3, [r7, #3]
 800              		.loc 2 353 0
 801 000c 7B68     		ldr	r3, [r7, #4]
 802 000e 7B61     		str	r3, [r7, #20]
 803              		.loc 2 354 0
 804 0010 7B69     		ldr	r3, [r7, #20]
 805 0012 002B     		cmp	r3, #0
 806 0014 02D1     		bne	.L55
 807              		.loc 2 354 0 is_stmt 0 discriminator 1
 808 0016 4248     		ldr	r0, .L66
 809 0018 FFF7FEFF 		bl	osalSysHalt
 810              	.L55:
 811              		.loc 2 356 0 is_stmt 1
 812 001c 7B69     		ldr	r3, [r7, #20]
 813 001e 0022     		movs	r2, #0
ARM GAS  C:\Users\Luis\AppData\Local\Temp\ccd19DXF.s 			page 16


 814 0020 5A60     		str	r2, [r3, #4]
 815              		.loc 2 360 0
 816 0022 7B69     		ldr	r3, [r7, #20]
 817 0024 FA78     		ldrb	r2, [r7, #3]
 818 0026 1A72     		strb	r2, [r3, #8]
 819              		.loc 2 364 0
 820 0028 7B69     		ldr	r3, [r7, #20]
 821 002a 5B78     		ldrb	r3, [r3, #1]
 822 002c FB74     		strb	r3, [r7, #19]
 823              		.loc 2 365 0
 824 002e 7B69     		ldr	r3, [r7, #20]
 825 0030 0022     		movs	r2, #0
 826 0032 5A70     		strb	r2, [r3, #1]
 827              		.loc 2 369 0
 828 0034 7B69     		ldr	r3, [r7, #20]
 829 0036 9B6A     		ldr	r3, [r3, #40]
 830 0038 002B     		cmp	r3, #0
 831 003a 05D0     		beq	.L56
 832              		.loc 2 369 0 is_stmt 0 discriminator 1
 833 003c 7B69     		ldr	r3, [r7, #20]
 834 003e 9B6A     		ldr	r3, [r3, #40]
 835 0040 7869     		ldr	r0, [r7, #20]
 836 0042 0421     		movs	r1, #4
 837 0044 0022     		movs	r2, #0
 838 0046 9847     		blx	r3
 839              	.L56:
 840              		.loc 2 372 0 is_stmt 1
 841 0048 7B69     		ldr	r3, [r7, #20]
 842 004a 9B6A     		ldr	r3, [r3, #40]
 843 004c 002B     		cmp	r3, #0
 844 004e 05D0     		beq	.L57
 845              		.loc 2 372 0 is_stmt 0 discriminator 1
 846 0050 7B69     		ldr	r3, [r7, #20]
 847 0052 9B6A     		ldr	r3, [r3, #40]
 848 0054 7869     		ldr	r0, [r7, #20]
 849 0056 0021     		movs	r1, #0
 850 0058 0022     		movs	r2, #0
 851 005a 9847     		blx	r3
 852              	.L57:
 853              		.loc 2 373 0 is_stmt 1
 854 005c 7B69     		ldr	r3, [r7, #20]
 855 005e 9B6A     		ldr	r3, [r3, #40]
 856 0060 002B     		cmp	r3, #0
 857 0062 05D0     		beq	.L58
 858              		.loc 2 373 0 is_stmt 0 discriminator 1
 859 0064 7B69     		ldr	r3, [r7, #20]
 860 0066 9B6A     		ldr	r3, [r3, #40]
 861 0068 7869     		ldr	r0, [r7, #20]
 862 006a 0221     		movs	r1, #2
 863 006c 0022     		movs	r2, #0
 864 006e 9847     		blx	r3
 865              	.L58:
 866              		.loc 2 376 0 is_stmt 1
 867 0070 7B69     		ldr	r3, [r7, #20]
 868 0072 1033     		adds	r3, r3, #16
 869 0074 1846     		mov	r0, r3
 870 0076 FFF7FEFF 		bl	sys_mbox_valid
ARM GAS  C:\Users\Luis\AppData\Local\Temp\ccd19DXF.s 			page 17


 871 007a 0346     		mov	r3, r0
 872 007c 002B     		cmp	r3, #0
 873 007e 05D0     		beq	.L59
 874              		.loc 2 378 0
 875 0080 7B69     		ldr	r3, [r7, #20]
 876 0082 1033     		adds	r3, r3, #16
 877 0084 1846     		mov	r0, r3
 878 0086 0021     		movs	r1, #0
 879 0088 FFF7FEFF 		bl	sys_mbox_trypost
 880              	.L59:
 881              		.loc 2 381 0
 882 008c 7B69     		ldr	r3, [r7, #20]
 883 008e 1433     		adds	r3, r3, #20
 884 0090 1846     		mov	r0, r3
 885 0092 FFF7FEFF 		bl	sys_mbox_valid
 886 0096 0346     		mov	r3, r0
 887 0098 002B     		cmp	r3, #0
 888 009a 05D0     		beq	.L60
 889              		.loc 2 383 0
 890 009c 7B69     		ldr	r3, [r7, #20]
 891 009e 1433     		adds	r3, r3, #20
 892 00a0 1846     		mov	r0, r3
 893 00a2 0021     		movs	r1, #0
 894 00a4 FFF7FEFF 		bl	sys_mbox_trypost
 895              	.L60:
 896              		.loc 2 386 0
 897 00a8 FB7C     		ldrb	r3, [r7, #19]	@ zero_extendqisi2
 898 00aa 012B     		cmp	r3, #1
 899 00ac 05D0     		beq	.L61
 900              		.loc 2 386 0 is_stmt 0 discriminator 1
 901 00ae FB7C     		ldrb	r3, [r7, #19]	@ zero_extendqisi2
 902 00b0 042B     		cmp	r3, #4
 903 00b2 02D0     		beq	.L61
 904 00b4 FB7C     		ldrb	r3, [r7, #19]	@ zero_extendqisi2
 905 00b6 032B     		cmp	r3, #3
 906 00b8 28D1     		bne	.L62
 907              	.L61:
 908              	.LBB3:
 909              		.loc 2 390 0 is_stmt 1
 910 00ba 7B69     		ldr	r3, [r7, #20]
 911 00bc 1B7F     		ldrb	r3, [r3, #28]	@ zero_extendqisi2
 912 00be 03F00403 		and	r3, r3, #4
 913 00c2 002B     		cmp	r3, #0
 914 00c4 0CBF     		ite	eq
 915 00c6 0023     		moveq	r3, #0
 916 00c8 0123     		movne	r3, #1
 917 00ca DBB2     		uxtb	r3, r3
 918 00cc FB60     		str	r3, [r7, #12]
 919              		.loc 2 391 0
 920 00ce 7B69     		ldr	r3, [r7, #20]
 921 00d0 1B7F     		ldrb	r3, [r3, #28]	@ zero_extendqisi2
 922 00d2 23F00403 		bic	r3, r3, #4
 923 00d6 DAB2     		uxtb	r2, r3
 924 00d8 7B69     		ldr	r3, [r7, #20]
 925 00da 1A77     		strb	r2, [r3, #28]
 926              		.loc 2 393 0
 927 00dc FB68     		ldr	r3, [r7, #12]
ARM GAS  C:\Users\Luis\AppData\Local\Temp\ccd19DXF.s 			page 18


 928 00de 002B     		cmp	r3, #0
 929 00e0 13D1     		bne	.L63
 930              		.loc 2 395 0
 931 00e2 7B69     		ldr	r3, [r7, #20]
 932 00e4 5B6A     		ldr	r3, [r3, #36]
 933 00e6 002B     		cmp	r3, #0
 934 00e8 02D1     		bne	.L64
 935              		.loc 2 395 0 is_stmt 0 discriminator 1
 936 00ea 0E48     		ldr	r0, .L66+4
 937 00ec FFF7FEFF 		bl	osalSysHalt
 938              	.L64:
 939              		.loc 2 396 0 is_stmt 1
 940 00f0 7B69     		ldr	r3, [r7, #20]
 941 00f2 5B6A     		ldr	r3, [r3, #36]
 942 00f4 FA78     		ldrb	r2, [r7, #3]
 943 00f6 1A71     		strb	r2, [r3, #4]
 944              		.loc 2 397 0
 945 00f8 7B69     		ldr	r3, [r7, #20]
 946 00fa 0022     		movs	r2, #0
 947 00fc 5A62     		str	r2, [r3, #36]
 948              		.loc 2 399 0
 949 00fe 7B69     		ldr	r3, [r7, #20]
 950 0100 0C33     		adds	r3, r3, #12
 951 0102 1846     		mov	r0, r3
 952 0104 FFF7FEFF 		bl	sys_sem_signal
 953              	.LBE3:
 954              		.loc 2 387 0
 955 0108 07E0     		b	.L54
 956              	.L63:
 957 010a 06E0     		b	.L54
 958              	.L62:
 959              		.loc 2 402 0
 960 010c 7B69     		ldr	r3, [r7, #20]
 961 010e 5B6A     		ldr	r3, [r3, #36]
 962 0110 002B     		cmp	r3, #0
 963 0112 02D0     		beq	.L54
 964              		.loc 2 402 0 is_stmt 0 discriminator 1
 965 0114 0448     		ldr	r0, .L66+8
 966 0116 FFF7FEFF 		bl	osalSysHalt
 967              	.L54:
 968              		.loc 2 404 0 is_stmt 1
 969 011a 1837     		adds	r7, r7, #24
 970 011c BD46     		mov	sp, r7
 971              		@ sp needed
 972 011e 80BD     		pop	{r7, pc}
 973              	.L67:
 974              		.align	2
 975              	.L66:
 976 0120 C8000000 		.word	.LC6
 977 0124 D8000000 		.word	.LC7
 978 0128 F4000000 		.word	.LC8
 979              		.cfi_endproc
 980              	.LFE265:
 981              		.size	err_tcp, .-err_tcp
 982 012c AFF30080 		.section	.text.setup_tcp,"ax",%progbits
 983              		.align	2
 984              		.p2align 4,,15
ARM GAS  C:\Users\Luis\AppData\Local\Temp\ccd19DXF.s 			page 19


 985              		.thumb
 986              		.thumb_func
 987              		.type	setup_tcp, %function
 988              	setup_tcp:
 989              	.LFB266:
 990              		.loc 2 414 0
 991              		.cfi_startproc
 992              		@ args = 0, pretend = 0, frame = 16
 993              		@ frame_needed = 1, uses_anonymous_args = 0
 994 0000 80B5     		push	{r7, lr}
 995              		.cfi_def_cfa_offset 8
 996              		.cfi_offset 7, -8
 997              		.cfi_offset 14, -4
 998 0002 84B0     		sub	sp, sp, #16
 999              		.cfi_def_cfa_offset 24
 1000 0004 00AF     		add	r7, sp, #0
 1001              		.cfi_def_cfa_register 7
 1002 0006 7860     		str	r0, [r7, #4]
 1003              		.loc 2 417 0
 1004 0008 7B68     		ldr	r3, [r7, #4]
 1005 000a 5B68     		ldr	r3, [r3, #4]
 1006 000c FB60     		str	r3, [r7, #12]
 1007              		.loc 2 418 0
 1008 000e F868     		ldr	r0, [r7, #12]
 1009 0010 7968     		ldr	r1, [r7, #4]
 1010 0012 FFF7FEFF 		bl	tcp_arg
 1011              		.loc 2 419 0
 1012 0016 F868     		ldr	r0, [r7, #12]
 1013 0018 0949     		ldr	r1, .L69
 1014 001a FFF7FEFF 		bl	tcp_recv
 1015              		.loc 2 420 0
 1016 001e F868     		ldr	r0, [r7, #12]
 1017 0020 0849     		ldr	r1, .L69+4
 1018 0022 FFF7FEFF 		bl	tcp_sent
 1019              		.loc 2 421 0
 1020 0026 F868     		ldr	r0, [r7, #12]
 1021 0028 0749     		ldr	r1, .L69+8
 1022 002a 0422     		movs	r2, #4
 1023 002c FFF7FEFF 		bl	tcp_poll
 1024              		.loc 2 422 0
 1025 0030 F868     		ldr	r0, [r7, #12]
 1026 0032 0649     		ldr	r1, .L69+12
 1027 0034 FFF7FEFF 		bl	tcp_err
 1028              		.loc 2 423 0
 1029 0038 1037     		adds	r7, r7, #16
 1030 003a BD46     		mov	sp, r7
 1031              		@ sp needed
 1032 003c 80BD     		pop	{r7, pc}
 1033              	.L70:
 1034 003e 00BF     		.align	2
 1035              	.L69:
 1036 0040 00000000 		.word	recv_tcp
 1037 0044 00000000 		.word	sent_tcp
 1038 0048 00000000 		.word	poll_tcp
 1039 004c 00000000 		.word	err_tcp
 1040              		.cfi_endproc
 1041              	.LFE266:
ARM GAS  C:\Users\Luis\AppData\Local\Temp\ccd19DXF.s 			page 20


 1042              		.size	setup_tcp, .-setup_tcp
 1043              		.section	.text.accept_function,"ax",%progbits
 1044              		.align	2
 1045              		.p2align 4,,15
 1046              		.thumb
 1047              		.thumb_func
 1048              		.type	accept_function, %function
 1049              	accept_function:
 1050              	.LFB267:
 1051              		.loc 2 433 0
 1052              		.cfi_startproc
 1053              		@ args = 0, pretend = 0, frame = 32
 1054              		@ frame_needed = 1, uses_anonymous_args = 0
 1055 0000 80B5     		push	{r7, lr}
 1056              		.cfi_def_cfa_offset 8
 1057              		.cfi_offset 7, -8
 1058              		.cfi_offset 14, -4
 1059 0002 88B0     		sub	sp, sp, #32
 1060              		.cfi_def_cfa_offset 40
 1061 0004 00AF     		add	r7, sp, #0
 1062              		.cfi_def_cfa_register 7
 1063 0006 F860     		str	r0, [r7, #12]
 1064 0008 B960     		str	r1, [r7, #8]
 1065 000a 1346     		mov	r3, r2
 1066 000c FB71     		strb	r3, [r7, #7]
 1067              		.loc 2 435 0
 1068 000e FB68     		ldr	r3, [r7, #12]
 1069 0010 FB61     		str	r3, [r7, #28]
 1070              		.loc 2 439 0
 1071 0012 FB69     		ldr	r3, [r7, #28]
 1072 0014 1433     		adds	r3, r3, #20
 1073 0016 1846     		mov	r0, r3
 1074 0018 FFF7FEFF 		bl	sys_mbox_valid
 1075 001c 0346     		mov	r3, r0
 1076 001e 002B     		cmp	r3, #0
 1077 0020 01D1     		bne	.L72
 1078              		.loc 2 441 0
 1079 0022 FA23     		movs	r3, #250
 1080 0024 54E0     		b	.L73
 1081              	.L72:
 1082              		.loc 2 446 0
 1083 0026 FB69     		ldr	r3, [r7, #28]
 1084 0028 1A78     		ldrb	r2, [r3]	@ zero_extendqisi2
 1085 002a FB69     		ldr	r3, [r7, #28]
 1086 002c 9B6A     		ldr	r3, [r3, #40]
 1087 002e 1046     		mov	r0, r2
 1088 0030 1946     		mov	r1, r3
 1089 0032 FFF7FEFF 		bl	netconn_alloc
 1090 0036 B861     		str	r0, [r7, #24]
 1091              		.loc 2 447 0
 1092 0038 BB69     		ldr	r3, [r7, #24]
 1093 003a 002B     		cmp	r3, #0
 1094 003c 01D1     		bne	.L74
 1095              		.loc 2 448 0
 1096 003e FF23     		movs	r3, #255
 1097 0040 46E0     		b	.L73
 1098              	.L74:
ARM GAS  C:\Users\Luis\AppData\Local\Temp\ccd19DXF.s 			page 21


 1099              		.loc 2 450 0
 1100 0042 BB69     		ldr	r3, [r7, #24]
 1101 0044 BA68     		ldr	r2, [r7, #8]
 1102 0046 5A60     		str	r2, [r3, #4]
 1103              		.loc 2 451 0
 1104 0048 B869     		ldr	r0, [r7, #24]
 1105 004a FFF7FEFF 		bl	setup_tcp
 1106              		.loc 2 454 0
 1107 004e BB69     		ldr	r3, [r7, #24]
 1108 0050 FA79     		ldrb	r2, [r7, #7]
 1109 0052 1A72     		strb	r2, [r3, #8]
 1110              		.loc 2 456 0
 1111 0054 FB69     		ldr	r3, [r7, #28]
 1112 0056 1433     		adds	r3, r3, #20
 1113 0058 1846     		mov	r0, r3
 1114 005a B969     		ldr	r1, [r7, #24]
 1115 005c FFF7FEFF 		bl	sys_mbox_trypost
 1116 0060 0346     		mov	r3, r0
 1117 0062 002B     		cmp	r3, #0
 1118 0064 29D0     		beq	.L75
 1119              	.LBB4:
 1120              		.loc 2 460 0
 1121 0066 BB69     		ldr	r3, [r7, #24]
 1122 0068 5B68     		ldr	r3, [r3, #4]
 1123 006a 7B61     		str	r3, [r7, #20]
 1124              		.loc 2 461 0
 1125 006c 7869     		ldr	r0, [r7, #20]
 1126 006e 0021     		movs	r1, #0
 1127 0070 FFF7FEFF 		bl	tcp_arg
 1128              		.loc 2 462 0
 1129 0074 7869     		ldr	r0, [r7, #20]
 1130 0076 0021     		movs	r1, #0
 1131 0078 FFF7FEFF 		bl	tcp_recv
 1132              		.loc 2 463 0
 1133 007c 7869     		ldr	r0, [r7, #20]
 1134 007e 0021     		movs	r1, #0
 1135 0080 FFF7FEFF 		bl	tcp_sent
 1136              		.loc 2 464 0
 1137 0084 7869     		ldr	r0, [r7, #20]
 1138 0086 0021     		movs	r1, #0
 1139 0088 0422     		movs	r2, #4
 1140 008a FFF7FEFF 		bl	tcp_poll
 1141              		.loc 2 465 0
 1142 008e 7869     		ldr	r0, [r7, #20]
 1143 0090 0021     		movs	r1, #0
 1144 0092 FFF7FEFF 		bl	tcp_err
 1145              		.loc 2 467 0
 1146 0096 BB69     		ldr	r3, [r7, #24]
 1147 0098 0022     		movs	r2, #0
 1148 009a 5A60     		str	r2, [r3, #4]
 1149              		.loc 2 469 0
 1150 009c BB69     		ldr	r3, [r7, #24]
 1151 009e 1033     		adds	r3, r3, #16
 1152 00a0 1846     		mov	r0, r3
 1153 00a2 FFF7FEFF 		bl	sys_mbox_free
 1154              		.loc 2 470 0
 1155 00a6 BB69     		ldr	r3, [r7, #24]
ARM GAS  C:\Users\Luis\AppData\Local\Temp\ccd19DXF.s 			page 22


 1156 00a8 1033     		adds	r3, r3, #16
 1157 00aa 1846     		mov	r0, r3
 1158 00ac FFF7FEFF 		bl	sys_mbox_set_invalid
 1159              		.loc 2 471 0
 1160 00b0 B869     		ldr	r0, [r7, #24]
 1161 00b2 FFF7FEFF 		bl	netconn_free
 1162              		.loc 2 472 0
 1163 00b6 FF23     		movs	r3, #255
 1164 00b8 0AE0     		b	.L73
 1165              	.L75:
 1166              	.LBE4:
 1167              		.loc 2 475 0
 1168 00ba FB69     		ldr	r3, [r7, #28]
 1169 00bc 9B6A     		ldr	r3, [r3, #40]
 1170 00be 002B     		cmp	r3, #0
 1171 00c0 05D0     		beq	.L76
 1172              		.loc 2 475 0 is_stmt 0 discriminator 1
 1173 00c2 FB69     		ldr	r3, [r7, #28]
 1174 00c4 9B6A     		ldr	r3, [r3, #40]
 1175 00c6 F869     		ldr	r0, [r7, #28]
 1176 00c8 0021     		movs	r1, #0
 1177 00ca 0022     		movs	r2, #0
 1178 00cc 9847     		blx	r3
 1179              	.L76:
 1180              		.loc 2 478 0 is_stmt 1
 1181 00ce 0023     		movs	r3, #0
 1182              	.L73:
 1183 00d0 5BB2     		sxtb	r3, r3
 1184              		.loc 2 479 0
 1185 00d2 1846     		mov	r0, r3
 1186 00d4 2037     		adds	r7, r7, #32
 1187 00d6 BD46     		mov	sp, r7
 1188              		@ sp needed
 1189 00d8 80BD     		pop	{r7, pc}
 1190              		.cfi_endproc
 1191              	.LFE267:
 1192              		.size	accept_function, .-accept_function
 1193 00da 00BFAFF3 		.section	.rodata
 1193      0080
 1194 010e 0000     		.align	2
 1195              	.LC9:
 1196 0110 7063625F 		.ascii	"pcb_new: pcb already allocated\000"
 1196      6E65773A 
 1196      20706362 
 1196      20616C72 
 1196      65616479 
 1197              		.section	.text.pcb_new,"ax",%progbits
 1198              		.align	2
 1199              		.p2align 4,,15
 1200              		.thumb
 1201              		.thumb_func
 1202              		.type	pcb_new, %function
 1203              	pcb_new:
 1204              	.LFB268:
 1205              		.loc 2 491 0
 1206              		.cfi_startproc
 1207              		@ args = 0, pretend = 0, frame = 8
ARM GAS  C:\Users\Luis\AppData\Local\Temp\ccd19DXF.s 			page 23


 1208              		@ frame_needed = 1, uses_anonymous_args = 0
 1209 0000 90B5     		push	{r4, r7, lr}
 1210              		.cfi_def_cfa_offset 12
 1211              		.cfi_offset 4, -12
 1212              		.cfi_offset 7, -8
 1213              		.cfi_offset 14, -4
 1214 0002 83B0     		sub	sp, sp, #12
 1215              		.cfi_def_cfa_offset 24
 1216 0004 00AF     		add	r7, sp, #0
 1217              		.cfi_def_cfa_register 7
 1218 0006 7860     		str	r0, [r7, #4]
 1219              		.loc 2 492 0
 1220 0008 7B68     		ldr	r3, [r7, #4]
 1221 000a 1B68     		ldr	r3, [r3]
 1222 000c 5B68     		ldr	r3, [r3, #4]
 1223 000e 002B     		cmp	r3, #0
 1224 0010 02D0     		beq	.L78
 1225              		.loc 2 492 0 is_stmt 0 discriminator 1
 1226 0012 3648     		ldr	r0, .L89
 1227 0014 FFF7FEFF 		bl	osalSysHalt
 1228              	.L78:
 1229              		.loc 2 495 0 is_stmt 1
 1230 0018 7B68     		ldr	r3, [r7, #4]
 1231 001a 1B68     		ldr	r3, [r3]
 1232 001c 1B78     		ldrb	r3, [r3]	@ zero_extendqisi2
 1233 001e 03F0F003 		and	r3, r3, #240
 1234 0022 202B     		cmp	r3, #32
 1235 0024 21D0     		beq	.L80
 1236 0026 402B     		cmp	r3, #64
 1237 0028 02D0     		beq	.L81
 1238 002a 102B     		cmp	r3, #16
 1239 002c 41D0     		beq	.L82
 1240 002e 55E0     		b	.L88
 1241              	.L81:
 1242              		.loc 2 498 0
 1243 0030 7B68     		ldr	r3, [r7, #4]
 1244 0032 1C68     		ldr	r4, [r3]
 1245 0034 7B68     		ldr	r3, [r7, #4]
 1246 0036 1B7A     		ldrb	r3, [r3, #8]	@ zero_extendqisi2
 1247 0038 1846     		mov	r0, r3
 1248 003a FFF7FEFF 		bl	raw_new
 1249 003e 0346     		mov	r3, r0
 1250 0040 6360     		str	r3, [r4, #4]
 1251              		.loc 2 499 0
 1252 0042 7B68     		ldr	r3, [r7, #4]
 1253 0044 1B68     		ldr	r3, [r3]
 1254 0046 5B68     		ldr	r3, [r3, #4]
 1255 0048 002B     		cmp	r3, #0
 1256 004a 03D1     		bne	.L83
 1257              		.loc 2 500 0
 1258 004c 7B68     		ldr	r3, [r7, #4]
 1259 004e FF22     		movs	r2, #255
 1260 0050 1A71     		strb	r2, [r3, #4]
 1261              		.loc 2 501 0
 1262 0052 47E0     		b	.L77
 1263              	.L83:
 1264              		.loc 2 503 0
ARM GAS  C:\Users\Luis\AppData\Local\Temp\ccd19DXF.s 			page 24


 1265 0054 7B68     		ldr	r3, [r7, #4]
 1266 0056 1B68     		ldr	r3, [r3]
 1267 0058 5A68     		ldr	r2, [r3, #4]
 1268 005a 7B68     		ldr	r3, [r7, #4]
 1269 005c 1B68     		ldr	r3, [r3]
 1270 005e 1046     		mov	r0, r2
 1271 0060 2349     		ldr	r1, .L89+4
 1272 0062 1A46     		mov	r2, r3
 1273 0064 FFF7FEFF 		bl	raw_recv
 1274              		.loc 2 504 0
 1275 0068 3CE0     		b	.L77
 1276              	.L80:
 1277              		.loc 2 508 0
 1278 006a 7B68     		ldr	r3, [r7, #4]
 1279 006c 1C68     		ldr	r4, [r3]
 1280 006e FFF7FEFF 		bl	udp_new
 1281 0072 0346     		mov	r3, r0
 1282 0074 6360     		str	r3, [r4, #4]
 1283              		.loc 2 509 0
 1284 0076 7B68     		ldr	r3, [r7, #4]
 1285 0078 1B68     		ldr	r3, [r3]
 1286 007a 5B68     		ldr	r3, [r3, #4]
 1287 007c 002B     		cmp	r3, #0
 1288 007e 03D1     		bne	.L85
 1289              		.loc 2 510 0
 1290 0080 7B68     		ldr	r3, [r7, #4]
 1291 0082 FF22     		movs	r2, #255
 1292 0084 1A71     		strb	r2, [r3, #4]
 1293              		.loc 2 511 0
 1294 0086 2DE0     		b	.L77
 1295              	.L85:
 1296              		.loc 2 518 0
 1297 0088 7B68     		ldr	r3, [r7, #4]
 1298 008a 1B68     		ldr	r3, [r3]
 1299 008c 1B78     		ldrb	r3, [r3]	@ zero_extendqisi2
 1300 008e 222B     		cmp	r3, #34
 1301 0090 04D1     		bne	.L86
 1302              		.loc 2 519 0
 1303 0092 7B68     		ldr	r3, [r7, #4]
 1304 0094 1B68     		ldr	r3, [r3]
 1305 0096 5B68     		ldr	r3, [r3, #4]
 1306 0098 0122     		movs	r2, #1
 1307 009a 1A74     		strb	r2, [r3, #16]
 1308              	.L86:
 1309              		.loc 2 521 0
 1310 009c 7B68     		ldr	r3, [r7, #4]
 1311 009e 1B68     		ldr	r3, [r3]
 1312 00a0 5A68     		ldr	r2, [r3, #4]
 1313 00a2 7B68     		ldr	r3, [r7, #4]
 1314 00a4 1B68     		ldr	r3, [r3]
 1315 00a6 1046     		mov	r0, r2
 1316 00a8 1249     		ldr	r1, .L89+8
 1317 00aa 1A46     		mov	r2, r3
 1318 00ac FFF7FEFF 		bl	udp_recv
 1319              		.loc 2 522 0
 1320 00b0 18E0     		b	.L77
 1321              	.L82:
ARM GAS  C:\Users\Luis\AppData\Local\Temp\ccd19DXF.s 			page 25


 1322              		.loc 2 526 0
 1323 00b2 7B68     		ldr	r3, [r7, #4]
 1324 00b4 1C68     		ldr	r4, [r3]
 1325 00b6 FFF7FEFF 		bl	tcp_new
 1326 00ba 0346     		mov	r3, r0
 1327 00bc 6360     		str	r3, [r4, #4]
 1328              		.loc 2 527 0
 1329 00be 7B68     		ldr	r3, [r7, #4]
 1330 00c0 1B68     		ldr	r3, [r3]
 1331 00c2 5B68     		ldr	r3, [r3, #4]
 1332 00c4 002B     		cmp	r3, #0
 1333 00c6 03D1     		bne	.L87
 1334              		.loc 2 528 0
 1335 00c8 7B68     		ldr	r3, [r7, #4]
 1336 00ca FF22     		movs	r2, #255
 1337 00cc 1A71     		strb	r2, [r3, #4]
 1338              		.loc 2 529 0
 1339 00ce 09E0     		b	.L77
 1340              	.L87:
 1341              		.loc 2 531 0
 1342 00d0 7B68     		ldr	r3, [r7, #4]
 1343 00d2 1B68     		ldr	r3, [r3]
 1344 00d4 1846     		mov	r0, r3
 1345 00d6 FFF7FEFF 		bl	setup_tcp
 1346              		.loc 2 532 0
 1347 00da 03E0     		b	.L77
 1348              	.L88:
 1349              		.loc 2 536 0
 1350 00dc 7B68     		ldr	r3, [r7, #4]
 1351 00de FA22     		movs	r2, #250
 1352 00e0 1A71     		strb	r2, [r3, #4]
 1353              		.loc 2 537 0
 1354 00e2 00BF     		nop
 1355              	.L77:
 1356              		.loc 2 539 0
 1357 00e4 0C37     		adds	r7, r7, #12
 1358 00e6 BD46     		mov	sp, r7
 1359              		@ sp needed
 1360 00e8 90BD     		pop	{r4, r7, pc}
 1361              	.L90:
 1362 00ea 00BF     		.align	2
 1363              	.L89:
 1364 00ec 10010000 		.word	.LC9
 1365 00f0 00000000 		.word	recv_raw
 1366 00f4 00000000 		.word	recv_udp
 1367              		.cfi_endproc
 1368              	.LFE268:
 1369              		.size	pcb_new, .-pcb_new
 1370 00f8 AFF30080 		.section	.text.do_newconn,"ax",%progbits
 1370      AFF30080 
 1371              		.align	2
 1372              		.p2align 4,,15
 1373              		.global	do_newconn
 1374              		.thumb
 1375              		.thumb_func
 1376              		.type	do_newconn, %function
 1377              	do_newconn:
ARM GAS  C:\Users\Luis\AppData\Local\Temp\ccd19DXF.s 			page 26


 1378              	.LFB269:
 1379              		.loc 2 549 0
 1380              		.cfi_startproc
 1381              		@ args = 0, pretend = 0, frame = 8
 1382              		@ frame_needed = 1, uses_anonymous_args = 0
 1383 0000 80B5     		push	{r7, lr}
 1384              		.cfi_def_cfa_offset 8
 1385              		.cfi_offset 7, -8
 1386              		.cfi_offset 14, -4
 1387 0002 82B0     		sub	sp, sp, #8
 1388              		.cfi_def_cfa_offset 16
 1389 0004 00AF     		add	r7, sp, #0
 1390              		.cfi_def_cfa_register 7
 1391 0006 7860     		str	r0, [r7, #4]
 1392              		.loc 2 550 0
 1393 0008 7B68     		ldr	r3, [r7, #4]
 1394 000a 0022     		movs	r2, #0
 1395 000c 1A71     		strb	r2, [r3, #4]
 1396              		.loc 2 551 0
 1397 000e 7B68     		ldr	r3, [r7, #4]
 1398 0010 1B68     		ldr	r3, [r3]
 1399 0012 5B68     		ldr	r3, [r3, #4]
 1400 0014 002B     		cmp	r3, #0
 1401 0016 02D1     		bne	.L92
 1402              		.loc 2 552 0
 1403 0018 7868     		ldr	r0, [r7, #4]
 1404 001a FFF7FEFF 		bl	pcb_new
 1405              	.L92:
 1406              		.loc 2 558 0
 1407 001e 7B68     		ldr	r3, [r7, #4]
 1408 0020 1B68     		ldr	r3, [r3]
 1409 0022 0C33     		adds	r3, r3, #12
 1410 0024 1846     		mov	r0, r3
 1411 0026 FFF7FEFF 		bl	sys_sem_signal
 1412              		.loc 2 559 0
 1413 002a 0837     		adds	r7, r7, #8
 1414 002c BD46     		mov	sp, r7
 1415              		@ sp needed
 1416 002e 80BD     		pop	{r7, pc}
 1417              		.cfi_endproc
 1418              	.LFE269:
 1419              		.size	do_newconn, .-do_newconn
 1420              		.section	.rodata
 1421 012f 00       		.align	2
 1422              	.LC10:
 1423 0130 6E657463 		.ascii	"netconn_alloc: undefined netconn_type\000"
 1423      6F6E6E5F 
 1423      616C6C6F 
 1423      633A2075 
 1423      6E646566 
 1424              		.section	.text.netconn_alloc,"ax",%progbits
 1425              		.align	2
 1426              		.p2align 4,,15
 1427              		.global	netconn_alloc
 1428              		.thumb
 1429              		.thumb_func
 1430              		.type	netconn_alloc, %function
ARM GAS  C:\Users\Luis\AppData\Local\Temp\ccd19DXF.s 			page 27


 1431              	netconn_alloc:
 1432              	.LFB270:
 1433              		.loc 2 573 0
 1434              		.cfi_startproc
 1435              		@ args = 0, pretend = 0, frame = 16
 1436              		@ frame_needed = 1, uses_anonymous_args = 0
 1437 0000 80B5     		push	{r7, lr}
 1438              		.cfi_def_cfa_offset 8
 1439              		.cfi_offset 7, -8
 1440              		.cfi_offset 14, -4
 1441 0002 84B0     		sub	sp, sp, #16
 1442              		.cfi_def_cfa_offset 24
 1443 0004 00AF     		add	r7, sp, #0
 1444              		.cfi_def_cfa_register 7
 1445 0006 0346     		mov	r3, r0
 1446 0008 3960     		str	r1, [r7]
 1447 000a FB71     		strb	r3, [r7, #7]
 1448              		.loc 2 577 0
 1449 000c 0820     		movs	r0, #8
 1450 000e FFF7FEFF 		bl	memp_malloc
 1451 0012 B860     		str	r0, [r7, #8]
 1452              		.loc 2 578 0
 1453 0014 BB68     		ldr	r3, [r7, #8]
 1454 0016 002B     		cmp	r3, #0
 1455 0018 01D1     		bne	.L94
 1456              		.loc 2 579 0
 1457 001a 0023     		movs	r3, #0
 1458 001c 57E0     		b	.L95
 1459              	.L94:
 1460              		.loc 2 582 0
 1461 001e BB68     		ldr	r3, [r7, #8]
 1462 0020 0022     		movs	r2, #0
 1463 0022 1A72     		strb	r2, [r3, #8]
 1464              		.loc 2 583 0
 1465 0024 BB68     		ldr	r3, [r7, #8]
 1466 0026 FA79     		ldrb	r2, [r7, #7]
 1467 0028 1A70     		strb	r2, [r3]
 1468              		.loc 2 584 0
 1469 002a BB68     		ldr	r3, [r7, #8]
 1470 002c 0022     		movs	r2, #0
 1471 002e 5A60     		str	r2, [r3, #4]
 1472              		.loc 2 590 0
 1473 0030 FB79     		ldrb	r3, [r7, #7]	@ zero_extendqisi2
 1474 0032 03F0F003 		and	r3, r3, #240
 1475 0036 202B     		cmp	r3, #32
 1476 0038 07D0     		beq	.L97
 1477 003a 402B     		cmp	r3, #64
 1478 003c 02D0     		beq	.L98
 1479 003e 102B     		cmp	r3, #16
 1480 0040 06D0     		beq	.L99
 1481 0042 08E0     		b	.L104
 1482              	.L98:
 1483              		.loc 2 593 0
 1484 0044 0423     		movs	r3, #4
 1485 0046 FB60     		str	r3, [r7, #12]
 1486              		.loc 2 594 0
 1487 0048 09E0     		b	.L100
ARM GAS  C:\Users\Luis\AppData\Local\Temp\ccd19DXF.s 			page 28


 1488              	.L97:
 1489              		.loc 2 598 0
 1490 004a 0423     		movs	r3, #4
 1491 004c FB60     		str	r3, [r7, #12]
 1492              		.loc 2 599 0
 1493 004e 06E0     		b	.L100
 1494              	.L99:
 1495              		.loc 2 603 0
 1496 0050 2823     		movs	r3, #40
 1497 0052 FB60     		str	r3, [r7, #12]
 1498              		.loc 2 604 0
 1499 0054 03E0     		b	.L100
 1500              	.L104:
 1501              		.loc 2 607 0
 1502 0056 2048     		ldr	r0, .L105
 1503 0058 FFF7FEFF 		bl	osalSysHalt
 1504              		.loc 2 608 0
 1505 005c 32E0     		b	.L101
 1506              	.L100:
 1507              		.loc 2 612 0
 1508 005e BB68     		ldr	r3, [r7, #8]
 1509 0060 0C33     		adds	r3, r3, #12
 1510 0062 1846     		mov	r0, r3
 1511 0064 0021     		movs	r1, #0
 1512 0066 FFF7FEFF 		bl	sys_sem_new
 1513 006a 0346     		mov	r3, r0
 1514 006c 002B     		cmp	r3, #0
 1515 006e 00D0     		beq	.L102
 1516              		.loc 2 613 0
 1517 0070 28E0     		b	.L101
 1518              	.L102:
 1519              		.loc 2 615 0
 1520 0072 BB68     		ldr	r3, [r7, #8]
 1521 0074 1033     		adds	r3, r3, #16
 1522 0076 1846     		mov	r0, r3
 1523 0078 F968     		ldr	r1, [r7, #12]
 1524 007a FFF7FEFF 		bl	sys_mbox_new
 1525 007e 0346     		mov	r3, r0
 1526 0080 002B     		cmp	r3, #0
 1527 0082 05D0     		beq	.L103
 1528              		.loc 2 616 0
 1529 0084 BB68     		ldr	r3, [r7, #8]
 1530 0086 0C33     		adds	r3, r3, #12
 1531 0088 1846     		mov	r0, r3
 1532 008a FFF7FEFF 		bl	sys_sem_free
 1533              		.loc 2 617 0
 1534 008e 19E0     		b	.L101
 1535              	.L103:
 1536              		.loc 2 621 0
 1537 0090 BB68     		ldr	r3, [r7, #8]
 1538 0092 1433     		adds	r3, r3, #20
 1539 0094 1846     		mov	r0, r3
 1540 0096 FFF7FEFF 		bl	sys_mbox_set_invalid
 1541              		.loc 2 623 0
 1542 009a BB68     		ldr	r3, [r7, #8]
 1543 009c 0022     		movs	r2, #0
 1544 009e 5A70     		strb	r2, [r3, #1]
ARM GAS  C:\Users\Luis\AppData\Local\Temp\ccd19DXF.s 			page 29


 1545              		.loc 2 626 0
 1546 00a0 BB68     		ldr	r3, [r7, #8]
 1547 00a2 4FF0FF32 		mov	r2, #-1
 1548 00a6 9A61     		str	r2, [r3, #24]
 1549              		.loc 2 628 0
 1550 00a8 BB68     		ldr	r3, [r7, #8]
 1551 00aa 3A68     		ldr	r2, [r7]
 1552 00ac 9A62     		str	r2, [r3, #40]
 1553              		.loc 2 630 0
 1554 00ae BB68     		ldr	r3, [r7, #8]
 1555 00b0 0022     		movs	r2, #0
 1556 00b2 5A62     		str	r2, [r3, #36]
 1557              		.loc 2 631 0
 1558 00b4 BB68     		ldr	r3, [r7, #8]
 1559 00b6 0022     		movs	r2, #0
 1560 00b8 1A62     		str	r2, [r3, #32]
 1561              		.loc 2 643 0
 1562 00ba BB68     		ldr	r3, [r7, #8]
 1563 00bc 0022     		movs	r2, #0
 1564 00be 1A77     		strb	r2, [r3, #28]
 1565              		.loc 2 644 0
 1566 00c0 BB68     		ldr	r3, [r7, #8]
 1567 00c2 04E0     		b	.L95
 1568              	.L101:
 1569              		.loc 2 646 0
 1570 00c4 0820     		movs	r0, #8
 1571 00c6 B968     		ldr	r1, [r7, #8]
 1572 00c8 FFF7FEFF 		bl	memp_free
 1573              		.loc 2 647 0
 1574 00cc 0023     		movs	r3, #0
 1575              	.L95:
 1576              		.loc 2 648 0
 1577 00ce 1846     		mov	r0, r3
 1578 00d0 1037     		adds	r7, r7, #16
 1579 00d2 BD46     		mov	sp, r7
 1580              		@ sp needed
 1581 00d4 80BD     		pop	{r7, pc}
 1582              	.L106:
 1583 00d6 00BF     		.align	2
 1584              	.L105:
 1585 00d8 30010000 		.word	.LC10
 1586              		.cfi_endproc
 1587              	.LFE270:
 1588              		.size	netconn_alloc, .-netconn_alloc
 1589 00dc AFF30080 		.section	.rodata
 1590 0156 0000     		.align	2
 1591              	.LC11:
 1592 0158 50434220 		.ascii	"PCB must be deallocated outside this function\000"
 1592      6D757374 
 1592      20626520 
 1592      6465616C 
 1592      6C6F6361 
 1593 0186 0000     		.align	2
 1594              	.LC12:
 1595 0188 72656376 		.ascii	"recvmbox must be deallocated before calling this fu"
 1595      6D626F78 
 1595      206D7573 
ARM GAS  C:\Users\Luis\AppData\Local\Temp\ccd19DXF.s 			page 30


 1595      74206265 
 1595      20646561 
 1596 01bb 6E637469 		.ascii	"nction\000"
 1596      6F6E00
 1597 01c2 0000     		.align	2
 1598              	.LC13:
 1599 01c4 61636365 		.ascii	"acceptmbox must be deallocated before calling this "
 1599      70746D62 
 1599      6F78206D 
 1599      75737420 
 1599      62652064 
 1600 01f7 66756E63 		.ascii	"function\000"
 1600      74696F6E 
 1600      00
 1601              		.section	.text.netconn_free,"ax",%progbits
 1602              		.align	2
 1603              		.p2align 4,,15
 1604              		.global	netconn_free
 1605              		.thumb
 1606              		.thumb_func
 1607              		.type	netconn_free, %function
 1608              	netconn_free:
 1609              	.LFB271:
 1610              		.loc 2 658 0
 1611              		.cfi_startproc
 1612              		@ args = 0, pretend = 0, frame = 8
 1613              		@ frame_needed = 1, uses_anonymous_args = 0
 1614 0000 80B5     		push	{r7, lr}
 1615              		.cfi_def_cfa_offset 8
 1616              		.cfi_offset 7, -8
 1617              		.cfi_offset 14, -4
 1618 0002 82B0     		sub	sp, sp, #8
 1619              		.cfi_def_cfa_offset 16
 1620 0004 00AF     		add	r7, sp, #0
 1621              		.cfi_def_cfa_register 7
 1622 0006 7860     		str	r0, [r7, #4]
 1623              		.loc 2 659 0
 1624 0008 7B68     		ldr	r3, [r7, #4]
 1625 000a 5B68     		ldr	r3, [r3, #4]
 1626 000c 002B     		cmp	r3, #0
 1627 000e 02D0     		beq	.L108
 1628              		.loc 2 659 0 is_stmt 0 discriminator 1
 1629 0010 1448     		ldr	r0, .L111
 1630 0012 FFF7FEFF 		bl	osalSysHalt
 1631              	.L108:
 1632              		.loc 2 660 0 is_stmt 1
 1633 0016 7B68     		ldr	r3, [r7, #4]
 1634 0018 1033     		adds	r3, r3, #16
 1635 001a 1846     		mov	r0, r3
 1636 001c FFF7FEFF 		bl	sys_mbox_valid
 1637 0020 0346     		mov	r3, r0
 1638 0022 002B     		cmp	r3, #0
 1639 0024 02D0     		beq	.L109
 1640              		.loc 2 660 0 is_stmt 0 discriminator 1
 1641 0026 1048     		ldr	r0, .L111+4
 1642 0028 FFF7FEFF 		bl	osalSysHalt
 1643              	.L109:
ARM GAS  C:\Users\Luis\AppData\Local\Temp\ccd19DXF.s 			page 31


 1644              		.loc 2 663 0 is_stmt 1
 1645 002c 7B68     		ldr	r3, [r7, #4]
 1646 002e 1433     		adds	r3, r3, #20
 1647 0030 1846     		mov	r0, r3
 1648 0032 FFF7FEFF 		bl	sys_mbox_valid
 1649 0036 0346     		mov	r3, r0
 1650 0038 002B     		cmp	r3, #0
 1651 003a 02D0     		beq	.L110
 1652              		.loc 2 663 0 is_stmt 0 discriminator 1
 1653 003c 0B48     		ldr	r0, .L111+8
 1654 003e FFF7FEFF 		bl	osalSysHalt
 1655              	.L110:
 1656              		.loc 2 667 0 is_stmt 1
 1657 0042 7B68     		ldr	r3, [r7, #4]
 1658 0044 0C33     		adds	r3, r3, #12
 1659 0046 1846     		mov	r0, r3
 1660 0048 FFF7FEFF 		bl	sys_sem_free
 1661              		.loc 2 668 0
 1662 004c 7B68     		ldr	r3, [r7, #4]
 1663 004e 0C33     		adds	r3, r3, #12
 1664 0050 1846     		mov	r0, r3
 1665 0052 FFF7FEFF 		bl	sys_sem_set_invalid
 1666              		.loc 2 670 0
 1667 0056 0820     		movs	r0, #8
 1668 0058 7968     		ldr	r1, [r7, #4]
 1669 005a FFF7FEFF 		bl	memp_free
 1670              		.loc 2 671 0
 1671 005e 0837     		adds	r7, r7, #8
 1672 0060 BD46     		mov	sp, r7
 1673              		@ sp needed
 1674 0062 80BD     		pop	{r7, pc}
 1675              	.L112:
 1676              		.align	2
 1677              	.L111:
 1678 0064 58010000 		.word	.LC11
 1679 0068 88010000 		.word	.LC12
 1680 006c C4010000 		.word	.LC13
 1681              		.cfi_endproc
 1682              	.LFE271:
 1683              		.size	netconn_free, .-netconn_free
 1684              		.section	.rodata
 1685              		.align	2
 1686              	.LC14:
 1687 0200 7063622D 		.ascii	"pcb->state == LISTEN (called for wrong pcb?)\000"
 1687      3E737461 
 1687      7465203D 
 1687      3D204C49 
 1687      5354454E 
 1688              		.section	.text.netconn_drain,"ax",%progbits
 1689              		.align	2
 1690              		.p2align 4,,15
 1691              		.thumb
 1692              		.thumb_func
 1693              		.type	netconn_drain, %function
 1694              	netconn_drain:
 1695              	.LFB272:
 1696              		.loc 2 683 0
ARM GAS  C:\Users\Luis\AppData\Local\Temp\ccd19DXF.s 			page 32


 1697              		.cfi_startproc
 1698              		@ args = 0, pretend = 0, frame = 24
 1699              		@ frame_needed = 1, uses_anonymous_args = 0
 1700 0000 80B5     		push	{r7, lr}
 1701              		.cfi_def_cfa_offset 8
 1702              		.cfi_offset 7, -8
 1703              		.cfi_offset 14, -4
 1704 0002 86B0     		sub	sp, sp, #24
 1705              		.cfi_def_cfa_offset 32
 1706 0004 00AF     		add	r7, sp, #0
 1707              		.cfi_def_cfa_register 7
 1708 0006 7860     		str	r0, [r7, #4]
 1709              		.loc 2 692 0
 1710 0008 7B68     		ldr	r3, [r7, #4]
 1711 000a 1033     		adds	r3, r3, #16
 1712 000c 1846     		mov	r0, r3
 1713 000e FFF7FEFF 		bl	sys_mbox_valid
 1714 0012 0346     		mov	r3, r0
 1715 0014 002B     		cmp	r3, #0
 1716 0016 34D0     		beq	.L114
 1717              		.loc 2 693 0
 1718 0018 1CE0     		b	.L115
 1719              	.L119:
 1720              		.loc 2 695 0
 1721 001a 7B68     		ldr	r3, [r7, #4]
 1722 001c 1B78     		ldrb	r3, [r3]	@ zero_extendqisi2
 1723 001e 102B     		cmp	r3, #16
 1724 0020 14D1     		bne	.L116
 1725              		.loc 2 696 0
 1726 0022 FB68     		ldr	r3, [r7, #12]
 1727 0024 002B     		cmp	r3, #0
 1728 0026 15D0     		beq	.L115
 1729              		.loc 2 697 0
 1730 0028 FB68     		ldr	r3, [r7, #12]
 1731 002a 7B61     		str	r3, [r7, #20]
 1732              		.loc 2 699 0
 1733 002c 7B68     		ldr	r3, [r7, #4]
 1734 002e 5B68     		ldr	r3, [r3, #4]
 1735 0030 002B     		cmp	r3, #0
 1736 0032 07D0     		beq	.L118
 1737              		.loc 2 700 0
 1738 0034 7B68     		ldr	r3, [r7, #4]
 1739 0036 5A68     		ldr	r2, [r3, #4]
 1740 0038 7B69     		ldr	r3, [r7, #20]
 1741 003a 1B89     		ldrh	r3, [r3, #8]
 1742 003c 1046     		mov	r0, r2
 1743 003e 1946     		mov	r1, r3
 1744 0040 FFF7FEFF 		bl	tcp_recved
 1745              	.L118:
 1746              		.loc 2 702 0
 1747 0044 7869     		ldr	r0, [r7, #20]
 1748 0046 FFF7FEFF 		bl	pbuf_free
 1749 004a 03E0     		b	.L115
 1750              	.L116:
 1751              		.loc 2 707 0
 1752 004c FB68     		ldr	r3, [r7, #12]
 1753 004e 1846     		mov	r0, r3
ARM GAS  C:\Users\Luis\AppData\Local\Temp\ccd19DXF.s 			page 33


 1754 0050 FFF7FEFF 		bl	netbuf_delete
 1755              	.L115:
 1756              		.loc 2 693 0 discriminator 1
 1757 0054 7B68     		ldr	r3, [r7, #4]
 1758 0056 03F11002 		add	r2, r3, #16
 1759 005a 07F10C03 		add	r3, r7, #12
 1760 005e 1046     		mov	r0, r2
 1761 0060 1946     		mov	r1, r3
 1762 0062 FFF7FEFF 		bl	sys_arch_mbox_tryfetch
 1763 0066 0346     		mov	r3, r0
 1764 0068 B3F1FF3F 		cmp	r3, #-1
 1765 006c D5D1     		bne	.L119
 1766              		.loc 2 710 0
 1767 006e 7B68     		ldr	r3, [r7, #4]
 1768 0070 1033     		adds	r3, r3, #16
 1769 0072 1846     		mov	r0, r3
 1770 0074 FFF7FEFF 		bl	sys_mbox_free
 1771              		.loc 2 711 0
 1772 0078 7B68     		ldr	r3, [r7, #4]
 1773 007a 1033     		adds	r3, r3, #16
 1774 007c 1846     		mov	r0, r3
 1775 007e FFF7FEFF 		bl	sys_mbox_set_invalid
 1776              	.L114:
 1777              		.loc 2 716 0
 1778 0082 7B68     		ldr	r3, [r7, #4]
 1779 0084 1433     		adds	r3, r3, #20
 1780 0086 1846     		mov	r0, r3
 1781 0088 FFF7FEFF 		bl	sys_mbox_valid
 1782 008c 0346     		mov	r3, r0
 1783 008e 002B     		cmp	r3, #0
 1784 0090 37D0     		beq	.L113
 1785              		.loc 2 717 0
 1786 0092 1FE0     		b	.L121
 1787              	.L124:
 1788              	.LBB5:
 1789              		.loc 2 718 0
 1790 0094 FB68     		ldr	r3, [r7, #12]
 1791 0096 3B61     		str	r3, [r7, #16]
 1792              		.loc 2 721 0
 1793 0098 7B68     		ldr	r3, [r7, #4]
 1794 009a 5B68     		ldr	r3, [r3, #4]
 1795 009c 002B     		cmp	r3, #0
 1796 009e 07D0     		beq	.L122
 1797              		.loc 2 722 0
 1798 00a0 7B68     		ldr	r3, [r7, #4]
 1799 00a2 5B68     		ldr	r3, [r3, #4]
 1800 00a4 1B7E     		ldrb	r3, [r3, #24]	@ zero_extendqisi2
 1801 00a6 012B     		cmp	r3, #1
 1802 00a8 02D0     		beq	.L122
 1803              		.loc 2 722 0 is_stmt 0 discriminator 1
 1804 00aa 1748     		ldr	r0, .L125
 1805 00ac FFF7FEFF 		bl	osalSysHalt
 1806              	.L122:
 1807              		.loc 2 725 0 is_stmt 1
 1808 00b0 3869     		ldr	r0, [r7, #16]
 1809 00b2 FFF7A5FF 		bl	netconn_drain
 1810              		.loc 2 726 0
ARM GAS  C:\Users\Luis\AppData\Local\Temp\ccd19DXF.s 			page 34


 1811 00b6 3B69     		ldr	r3, [r7, #16]
 1812 00b8 5B68     		ldr	r3, [r3, #4]
 1813 00ba 002B     		cmp	r3, #0
 1814 00bc 07D0     		beq	.L123
 1815              		.loc 2 727 0
 1816 00be 3B69     		ldr	r3, [r7, #16]
 1817 00c0 5B68     		ldr	r3, [r3, #4]
 1818 00c2 1846     		mov	r0, r3
 1819 00c4 FFF7FEFF 		bl	tcp_abort
 1820              		.loc 2 728 0
 1821 00c8 3B69     		ldr	r3, [r7, #16]
 1822 00ca 0022     		movs	r2, #0
 1823 00cc 5A60     		str	r2, [r3, #4]
 1824              	.L123:
 1825              		.loc 2 730 0
 1826 00ce 3869     		ldr	r0, [r7, #16]
 1827 00d0 FFF7FEFF 		bl	netconn_free
 1828              	.L121:
 1829              	.LBE5:
 1830              		.loc 2 717 0 discriminator 1
 1831 00d4 7B68     		ldr	r3, [r7, #4]
 1832 00d6 03F11402 		add	r2, r3, #20
 1833 00da 07F10C03 		add	r3, r7, #12
 1834 00de 1046     		mov	r0, r2
 1835 00e0 1946     		mov	r1, r3
 1836 00e2 FFF7FEFF 		bl	sys_arch_mbox_tryfetch
 1837 00e6 0346     		mov	r3, r0
 1838 00e8 B3F1FF3F 		cmp	r3, #-1
 1839 00ec D2D1     		bne	.L124
 1840              		.loc 2 732 0
 1841 00ee 7B68     		ldr	r3, [r7, #4]
 1842 00f0 1433     		adds	r3, r3, #20
 1843 00f2 1846     		mov	r0, r3
 1844 00f4 FFF7FEFF 		bl	sys_mbox_free
 1845              		.loc 2 733 0
 1846 00f8 7B68     		ldr	r3, [r7, #4]
 1847 00fa 1433     		adds	r3, r3, #20
 1848 00fc 1846     		mov	r0, r3
 1849 00fe FFF7FEFF 		bl	sys_mbox_set_invalid
 1850              	.L113:
 1851              		.loc 2 736 0
 1852 0102 1837     		adds	r7, r7, #24
 1853 0104 BD46     		mov	sp, r7
 1854              		@ sp needed
 1855 0106 80BD     		pop	{r7, pc}
 1856              	.L126:
 1857              		.align	2
 1858              	.L125:
 1859 0108 00020000 		.word	.LC14
 1860              		.cfi_endproc
 1861              	.LFE272:
 1862              		.size	netconn_drain, .-netconn_drain
 1863 010c AFF30080 		.section	.rodata
 1864 022d 000000   		.align	2
 1865              	.LC15:
 1866 0230 696E7661 		.ascii	"invalid conn\000"
 1866      6C696420 
ARM GAS  C:\Users\Luis\AppData\Local\Temp\ccd19DXF.s 			page 35


 1866      636F6E6E 
 1866      00
 1867 023d 000000   		.align	2
 1868              	.LC16:
 1869 0240 74686973 		.ascii	"this is for tcp netconns only\000"
 1869      20697320 
 1869      666F7220 
 1869      74637020 
 1869      6E657463 
 1870 025e 0000     		.align	2
 1871              	.LC17:
 1872 0260 636F6E6E 		.ascii	"conn must be in state NETCONN_CLOSE\000"
 1872      206D7573 
 1872      74206265 
 1872      20696E20 
 1872      73746174 
 1873              		.align	2
 1874              	.LC18:
 1875 0284 70636220 		.ascii	"pcb already closed\000"
 1875      616C7265 
 1875      61647920 
 1875      636C6F73 
 1875      656400
 1876 0297 00       		.align	2
 1877              	.LC19:
 1878 0298 436C6F73 		.ascii	"Closing a listen pcb may not fail!\000"
 1878      696E6720 
 1878      61206C69 
 1878      7374656E 
 1878      20706362 
 1879              		.section	.text.do_close_internal,"ax",%progbits
 1880              		.align	2
 1881              		.p2align 4,,15
 1882              		.thumb
 1883              		.thumb_func
 1884              		.type	do_close_internal, %function
 1885              	do_close_internal:
 1886              	.LFB273:
 1887              		.loc 2 748 0
 1888              		.cfi_startproc
 1889              		@ args = 0, pretend = 0, frame = 16
 1890              		@ frame_needed = 1, uses_anonymous_args = 0
 1891 0000 80B5     		push	{r7, lr}
 1892              		.cfi_def_cfa_offset 8
 1893              		.cfi_offset 7, -8
 1894              		.cfi_offset 14, -4
 1895 0002 84B0     		sub	sp, sp, #16
 1896              		.cfi_def_cfa_offset 24
 1897 0004 00AF     		add	r7, sp, #0
 1898              		.cfi_def_cfa_register 7
 1899 0006 7860     		str	r0, [r7, #4]
 1900              		.loc 2 752 0
 1901 0008 7B68     		ldr	r3, [r7, #4]
 1902 000a 002B     		cmp	r3, #0
 1903 000c 02D1     		bne	.L128
 1904              		.loc 2 752 0 is_stmt 0 discriminator 1
 1905 000e 7348     		ldr	r0, .L146
ARM GAS  C:\Users\Luis\AppData\Local\Temp\ccd19DXF.s 			page 36


 1906 0010 FFF7FEFF 		bl	osalSysHalt
 1907              	.L128:
 1908              		.loc 2 753 0 is_stmt 1
 1909 0014 7B68     		ldr	r3, [r7, #4]
 1910 0016 1B78     		ldrb	r3, [r3]	@ zero_extendqisi2
 1911 0018 102B     		cmp	r3, #16
 1912 001a 02D0     		beq	.L129
 1913              		.loc 2 753 0 is_stmt 0 discriminator 1
 1914 001c 7048     		ldr	r0, .L146+4
 1915 001e FFF7FEFF 		bl	osalSysHalt
 1916              	.L129:
 1917              		.loc 2 754 0 is_stmt 1
 1918 0022 7B68     		ldr	r3, [r7, #4]
 1919 0024 5B78     		ldrb	r3, [r3, #1]	@ zero_extendqisi2
 1920 0026 042B     		cmp	r3, #4
 1921 0028 02D0     		beq	.L130
 1922              		.loc 2 754 0 is_stmt 0 discriminator 1
 1923 002a 6E48     		ldr	r0, .L146+8
 1924 002c FFF7FEFF 		bl	osalSysHalt
 1925              	.L130:
 1926              		.loc 2 755 0 is_stmt 1
 1927 0030 7B68     		ldr	r3, [r7, #4]
 1928 0032 5B68     		ldr	r3, [r3, #4]
 1929 0034 002B     		cmp	r3, #0
 1930 0036 02D1     		bne	.L131
 1931              		.loc 2 755 0 is_stmt 0 discriminator 1
 1932 0038 6B48     		ldr	r0, .L146+12
 1933 003a FFF7FEFF 		bl	osalSysHalt
 1934              	.L131:
 1935              		.loc 2 756 0 is_stmt 1
 1936 003e 7B68     		ldr	r3, [r7, #4]
 1937 0040 5B6A     		ldr	r3, [r3, #36]
 1938 0042 002B     		cmp	r3, #0
 1939 0044 02D1     		bne	.L132
 1940              		.loc 2 756 0 is_stmt 0 discriminator 1
 1941 0046 6948     		ldr	r0, .L146+16
 1942 0048 FFF7FEFF 		bl	osalSysHalt
 1943              	.L132:
 1944              		.loc 2 758 0 is_stmt 1
 1945 004c 7B68     		ldr	r3, [r7, #4]
 1946 004e 5B6A     		ldr	r3, [r3, #36]
 1947 0050 1B7A     		ldrb	r3, [r3, #8]
 1948 0052 BB73     		strb	r3, [r7, #14]
 1949              		.loc 2 759 0
 1950 0054 BB7B     		ldrb	r3, [r7, #14]
 1951 0056 03F00103 		and	r3, r3, #1
 1952 005a 7B73     		strb	r3, [r7, #13]
 1953              		.loc 2 760 0
 1954 005c BB7B     		ldrb	r3, [r7, #14]
 1955 005e 03F00203 		and	r3, r3, #2
 1956 0062 3B73     		strb	r3, [r7, #12]
 1957              		.loc 2 762 0
 1958 0064 BB7B     		ldrb	r3, [r7, #14]	@ zero_extendqisi2
 1959 0066 032B     		cmp	r3, #3
 1960 0068 14BF     		ite	ne
 1961 006a 0023     		movne	r3, #0
 1962 006c 0123     		moveq	r3, #1
ARM GAS  C:\Users\Luis\AppData\Local\Temp\ccd19DXF.s 			page 37


 1963 006e DBB2     		uxtb	r3, r3
 1964 0070 FB72     		strb	r3, [r7, #11]
 1965              		.loc 2 765 0
 1966 0072 FB7A     		ldrb	r3, [r7, #11]	@ zero_extendqisi2
 1967 0074 002B     		cmp	r3, #0
 1968 0076 05D0     		beq	.L133
 1969              		.loc 2 766 0
 1970 0078 7B68     		ldr	r3, [r7, #4]
 1971 007a 5B68     		ldr	r3, [r3, #4]
 1972 007c 1846     		mov	r0, r3
 1973 007e 0021     		movs	r1, #0
 1974 0080 FFF7FEFF 		bl	tcp_arg
 1975              	.L133:
 1976              		.loc 2 768 0
 1977 0084 7B68     		ldr	r3, [r7, #4]
 1978 0086 5B68     		ldr	r3, [r3, #4]
 1979 0088 1B7E     		ldrb	r3, [r3, #24]	@ zero_extendqisi2
 1980 008a 012B     		cmp	r3, #1
 1981 008c 06D1     		bne	.L134
 1982              		.loc 2 769 0
 1983 008e 7B68     		ldr	r3, [r7, #4]
 1984 0090 5B68     		ldr	r3, [r3, #4]
 1985 0092 1846     		mov	r0, r3
 1986 0094 0021     		movs	r1, #0
 1987 0096 FFF7FEFF 		bl	tcp_accept
 1988 009a 27E0     		b	.L135
 1989              	.L134:
 1990              		.loc 2 772 0
 1991 009c 7B7B     		ldrb	r3, [r7, #13]	@ zero_extendqisi2
 1992 009e 002B     		cmp	r3, #0
 1993 00a0 0BD0     		beq	.L136
 1994              		.loc 2 773 0
 1995 00a2 7B68     		ldr	r3, [r7, #4]
 1996 00a4 5B68     		ldr	r3, [r3, #4]
 1997 00a6 1846     		mov	r0, r3
 1998 00a8 0021     		movs	r1, #0
 1999 00aa FFF7FEFF 		bl	tcp_recv
 2000              		.loc 2 774 0
 2001 00ae 7B68     		ldr	r3, [r7, #4]
 2002 00b0 5B68     		ldr	r3, [r3, #4]
 2003 00b2 1846     		mov	r0, r3
 2004 00b4 0021     		movs	r1, #0
 2005 00b6 FFF7FEFF 		bl	tcp_accept
 2006              	.L136:
 2007              		.loc 2 776 0
 2008 00ba 3B7B     		ldrb	r3, [r7, #12]	@ zero_extendqisi2
 2009 00bc 002B     		cmp	r3, #0
 2010 00be 05D0     		beq	.L137
 2011              		.loc 2 777 0
 2012 00c0 7B68     		ldr	r3, [r7, #4]
 2013 00c2 5B68     		ldr	r3, [r3, #4]
 2014 00c4 1846     		mov	r0, r3
 2015 00c6 0021     		movs	r1, #0
 2016 00c8 FFF7FEFF 		bl	tcp_sent
 2017              	.L137:
 2018              		.loc 2 779 0
 2019 00cc FB7A     		ldrb	r3, [r7, #11]	@ zero_extendqisi2
ARM GAS  C:\Users\Luis\AppData\Local\Temp\ccd19DXF.s 			page 38


 2020 00ce 002B     		cmp	r3, #0
 2021 00d0 0CD0     		beq	.L135
 2022              		.loc 2 780 0
 2023 00d2 7B68     		ldr	r3, [r7, #4]
 2024 00d4 5B68     		ldr	r3, [r3, #4]
 2025 00d6 1846     		mov	r0, r3
 2026 00d8 0021     		movs	r1, #0
 2027 00da 0422     		movs	r2, #4
 2028 00dc FFF7FEFF 		bl	tcp_poll
 2029              		.loc 2 781 0
 2030 00e0 7B68     		ldr	r3, [r7, #4]
 2031 00e2 5B68     		ldr	r3, [r3, #4]
 2032 00e4 1846     		mov	r0, r3
 2033 00e6 0021     		movs	r1, #0
 2034 00e8 FFF7FEFF 		bl	tcp_err
 2035              	.L135:
 2036              		.loc 2 785 0
 2037 00ec FB7A     		ldrb	r3, [r7, #11]	@ zero_extendqisi2
 2038 00ee 002B     		cmp	r3, #0
 2039 00f0 07D0     		beq	.L138
 2040              		.loc 2 786 0
 2041 00f2 7B68     		ldr	r3, [r7, #4]
 2042 00f4 5B68     		ldr	r3, [r3, #4]
 2043 00f6 1846     		mov	r0, r3
 2044 00f8 FFF7FEFF 		bl	tcp_close
 2045 00fc 0346     		mov	r3, r0
 2046 00fe FB73     		strb	r3, [r7, #15]
 2047 0100 0AE0     		b	.L139
 2048              	.L138:
 2049              		.loc 2 788 0
 2050 0102 7B68     		ldr	r3, [r7, #4]
 2051 0104 5968     		ldr	r1, [r3, #4]
 2052 0106 7A7B     		ldrb	r2, [r7, #13]	@ zero_extendqisi2
 2053 0108 3B7B     		ldrb	r3, [r7, #12]	@ zero_extendqisi2
 2054 010a 0846     		mov	r0, r1
 2055 010c 1146     		mov	r1, r2
 2056 010e 1A46     		mov	r2, r3
 2057 0110 FFF7FEFF 		bl	tcp_shutdown
 2058 0114 0346     		mov	r3, r0
 2059 0116 FB73     		strb	r3, [r7, #15]
 2060              	.L139:
 2061              		.loc 2 790 0
 2062 0118 97F90F30 		ldrsb	r3, [r7, #15]
 2063 011c 002B     		cmp	r3, #0
 2064 011e 39D1     		bne	.L140
 2065              		.loc 2 792 0
 2066 0120 7B68     		ldr	r3, [r7, #4]
 2067 0122 5B6A     		ldr	r3, [r3, #36]
 2068 0124 0022     		movs	r2, #0
 2069 0126 1A71     		strb	r2, [r3, #4]
 2070              		.loc 2 793 0
 2071 0128 7B68     		ldr	r3, [r7, #4]
 2072 012a 0022     		movs	r2, #0
 2073 012c 5A62     		str	r2, [r3, #36]
 2074              		.loc 2 794 0
 2075 012e 7B68     		ldr	r3, [r7, #4]
 2076 0130 0022     		movs	r2, #0
ARM GAS  C:\Users\Luis\AppData\Local\Temp\ccd19DXF.s 			page 39


 2077 0132 5A70     		strb	r2, [r3, #1]
 2078              		.loc 2 795 0
 2079 0134 FB7A     		ldrb	r3, [r7, #11]	@ zero_extendqisi2
 2080 0136 002B     		cmp	r3, #0
 2081 0138 0CD0     		beq	.L141
 2082              		.loc 2 797 0
 2083 013a 7B68     		ldr	r3, [r7, #4]
 2084 013c 0022     		movs	r2, #0
 2085 013e 5A60     		str	r2, [r3, #4]
 2086              		.loc 2 800 0
 2087 0140 7B68     		ldr	r3, [r7, #4]
 2088 0142 9B6A     		ldr	r3, [r3, #40]
 2089 0144 002B     		cmp	r3, #0
 2090 0146 05D0     		beq	.L141
 2091              		.loc 2 800 0 is_stmt 0 discriminator 1
 2092 0148 7B68     		ldr	r3, [r7, #4]
 2093 014a 9B6A     		ldr	r3, [r3, #40]
 2094 014c 7868     		ldr	r0, [r7, #4]
 2095 014e 0421     		movs	r1, #4
 2096 0150 0022     		movs	r2, #0
 2097 0152 9847     		blx	r3
 2098              	.L141:
 2099              		.loc 2 802 0 is_stmt 1
 2100 0154 7B7B     		ldrb	r3, [r7, #13]	@ zero_extendqisi2
 2101 0156 002B     		cmp	r3, #0
 2102 0158 09D0     		beq	.L142
 2103              		.loc 2 803 0
 2104 015a 7B68     		ldr	r3, [r7, #4]
 2105 015c 9B6A     		ldr	r3, [r3, #40]
 2106 015e 002B     		cmp	r3, #0
 2107 0160 05D0     		beq	.L142
 2108              		.loc 2 803 0 is_stmt 0 discriminator 1
 2109 0162 7B68     		ldr	r3, [r7, #4]
 2110 0164 9B6A     		ldr	r3, [r3, #40]
 2111 0166 7868     		ldr	r0, [r7, #4]
 2112 0168 0021     		movs	r1, #0
 2113 016a 0022     		movs	r2, #0
 2114 016c 9847     		blx	r3
 2115              	.L142:
 2116              		.loc 2 805 0 is_stmt 1
 2117 016e 3B7B     		ldrb	r3, [r7, #12]	@ zero_extendqisi2
 2118 0170 002B     		cmp	r3, #0
 2119 0172 09D0     		beq	.L143
 2120              		.loc 2 806 0
 2121 0174 7B68     		ldr	r3, [r7, #4]
 2122 0176 9B6A     		ldr	r3, [r3, #40]
 2123 0178 002B     		cmp	r3, #0
 2124 017a 05D0     		beq	.L143
 2125              		.loc 2 806 0 is_stmt 0 discriminator 1
 2126 017c 7B68     		ldr	r3, [r7, #4]
 2127 017e 9B6A     		ldr	r3, [r3, #40]
 2128 0180 7868     		ldr	r0, [r7, #4]
 2129 0182 0221     		movs	r1, #2
 2130 0184 0022     		movs	r2, #0
 2131 0186 9847     		blx	r3
 2132              	.L143:
 2133              		.loc 2 809 0 is_stmt 1
ARM GAS  C:\Users\Luis\AppData\Local\Temp\ccd19DXF.s 			page 40


 2134 0188 7B68     		ldr	r3, [r7, #4]
 2135 018a 0C33     		adds	r3, r3, #12
 2136 018c 1846     		mov	r0, r3
 2137 018e FFF7FEFF 		bl	sys_sem_signal
 2138 0192 20E0     		b	.L127
 2139              	.L140:
 2140              		.loc 2 813 0
 2141 0194 7B68     		ldr	r3, [r7, #4]
 2142 0196 5B68     		ldr	r3, [r3, #4]
 2143 0198 1B7E     		ldrb	r3, [r3, #24]	@ zero_extendqisi2
 2144 019a 012B     		cmp	r3, #1
 2145 019c 02D1     		bne	.L145
 2146              		.loc 2 813 0 is_stmt 0 discriminator 1
 2147 019e 1448     		ldr	r0, .L146+20
 2148 01a0 FFF7FEFF 		bl	osalSysHalt
 2149              	.L145:
 2150              		.loc 2 814 0 is_stmt 1
 2151 01a4 7B68     		ldr	r3, [r7, #4]
 2152 01a6 5B68     		ldr	r3, [r3, #4]
 2153 01a8 1846     		mov	r0, r3
 2154 01aa 1249     		ldr	r1, .L146+24
 2155 01ac FFF7FEFF 		bl	tcp_sent
 2156              		.loc 2 815 0
 2157 01b0 7B68     		ldr	r3, [r7, #4]
 2158 01b2 5B68     		ldr	r3, [r3, #4]
 2159 01b4 1846     		mov	r0, r3
 2160 01b6 1049     		ldr	r1, .L146+28
 2161 01b8 0422     		movs	r2, #4
 2162 01ba FFF7FEFF 		bl	tcp_poll
 2163              		.loc 2 816 0
 2164 01be 7B68     		ldr	r3, [r7, #4]
 2165 01c0 5B68     		ldr	r3, [r3, #4]
 2166 01c2 1846     		mov	r0, r3
 2167 01c4 0D49     		ldr	r1, .L146+32
 2168 01c6 FFF7FEFF 		bl	tcp_err
 2169              		.loc 2 817 0
 2170 01ca 7B68     		ldr	r3, [r7, #4]
 2171 01cc 5B68     		ldr	r3, [r3, #4]
 2172 01ce 1846     		mov	r0, r3
 2173 01d0 7968     		ldr	r1, [r7, #4]
 2174 01d2 FFF7FEFF 		bl	tcp_arg
 2175              	.L127:
 2176              		.loc 2 822 0
 2177 01d6 1037     		adds	r7, r7, #16
 2178 01d8 BD46     		mov	sp, r7
 2179              		@ sp needed
 2180 01da 80BD     		pop	{r7, pc}
 2181              	.L147:
 2182              		.align	2
 2183              	.L146:
 2184 01dc 30020000 		.word	.LC15
 2185 01e0 40020000 		.word	.LC16
 2186 01e4 60020000 		.word	.LC17
 2187 01e8 84020000 		.word	.LC18
 2188 01ec D8000000 		.word	.LC7
 2189 01f0 98020000 		.word	.LC19
 2190 01f4 00000000 		.word	sent_tcp
ARM GAS  C:\Users\Luis\AppData\Local\Temp\ccd19DXF.s 			page 41


 2191 01f8 00000000 		.word	poll_tcp
 2192 01fc 00000000 		.word	err_tcp
 2193              		.cfi_endproc
 2194              	.LFE273:
 2195              		.size	do_close_internal, .-do_close_internal
 2196              		.section	.rodata
 2197 02bb 00       		.align	2
 2198              	.LC20:
 2199 02bc 6D73672D 		.ascii	"msg->conn->type == NETCONN_TCP\000"
 2199      3E636F6E 
 2199      6E2D3E74 
 2199      79706520 
 2199      3D3D204E 
 2200 02db 00       		.align	2
 2201              	.LC21:
 2202 02dc 626C6F63 		.ascii	"blocking connect in progress\000"
 2202      6B696E67 
 2202      20636F6E 
 2202      6E656374 
 2202      20696E20 
 2203 02f9 000000   		.align	2
 2204              	.LC22:
 2205 02fc 616C7265 		.ascii	"already writing or closing\000"
 2205      61647920 
 2205      77726974 
 2205      696E6720 
 2205      6F722063 
 2206              		.section	.text.do_delconn,"ax",%progbits
 2207              		.align	2
 2208              		.p2align 4,,15
 2209              		.global	do_delconn
 2210              		.thumb
 2211              		.thumb_func
 2212              		.type	do_delconn, %function
 2213              	do_delconn:
 2214              	.LFB274:
 2215              		.loc 2 833 0
 2216              		.cfi_startproc
 2217              		@ args = 0, pretend = 0, frame = 8
 2218              		@ frame_needed = 1, uses_anonymous_args = 0
 2219 0000 80B5     		push	{r7, lr}
 2220              		.cfi_def_cfa_offset 8
 2221              		.cfi_offset 7, -8
 2222              		.cfi_offset 14, -4
 2223 0002 82B0     		sub	sp, sp, #8
 2224              		.cfi_def_cfa_offset 16
 2225 0004 00AF     		add	r7, sp, #0
 2226              		.cfi_def_cfa_register 7
 2227 0006 7860     		str	r0, [r7, #4]
 2228              		.loc 2 835 0
 2229 0008 7B68     		ldr	r3, [r7, #4]
 2230 000a 1B68     		ldr	r3, [r3]
 2231 000c 5B78     		ldrb	r3, [r3, #1]	@ zero_extendqisi2
 2232 000e 002B     		cmp	r3, #0
 2233 0010 15D0     		beq	.L149
 2234              		.loc 2 836 0 discriminator 1
 2235 0012 7B68     		ldr	r3, [r7, #4]
ARM GAS  C:\Users\Luis\AppData\Local\Temp\ccd19DXF.s 			page 42


 2236 0014 1B68     		ldr	r3, [r3]
 2237 0016 5B78     		ldrb	r3, [r3, #1]	@ zero_extendqisi2
 2238              		.loc 2 835 0 discriminator 1
 2239 0018 022B     		cmp	r3, #2
 2240 001a 10D0     		beq	.L149
 2241              		.loc 2 837 0
 2242 001c 7B68     		ldr	r3, [r7, #4]
 2243 001e 1B68     		ldr	r3, [r3]
 2244 0020 5B78     		ldrb	r3, [r3, #1]	@ zero_extendqisi2
 2245              		.loc 2 836 0
 2246 0022 032B     		cmp	r3, #3
 2247 0024 0BD0     		beq	.L149
 2248              		.loc 2 839 0
 2249 0026 7B68     		ldr	r3, [r7, #4]
 2250 0028 1B68     		ldr	r3, [r3]
 2251 002a 1B78     		ldrb	r3, [r3]	@ zero_extendqisi2
 2252 002c 102B     		cmp	r3, #16
 2253 002e 02D0     		beq	.L150
 2254              		.loc 2 839 0 is_stmt 0 discriminator 1
 2255 0030 4748     		ldr	r0, .L163
 2256 0032 FFF7FEFF 		bl	osalSysHalt
 2257              	.L150:
 2258              		.loc 2 840 0 is_stmt 1
 2259 0036 7B68     		ldr	r3, [r7, #4]
 2260 0038 FB22     		movs	r2, #251
 2261 003a 1A71     		strb	r2, [r3, #4]
 2262 003c 75E0     		b	.L151
 2263              	.L149:
 2264              		.loc 2 842 0
 2265 003e 7B68     		ldr	r3, [r7, #4]
 2266 0040 1B68     		ldr	r3, [r3]
 2267 0042 5B78     		ldrb	r3, [r3, #1]	@ zero_extendqisi2
 2268 0044 032B     		cmp	r3, #3
 2269 0046 09D1     		bne	.L152
 2270              		.loc 2 842 0 is_stmt 0 discriminator 1
 2271 0048 7B68     		ldr	r3, [r7, #4]
 2272 004a 1B68     		ldr	r3, [r3]
 2273 004c 1B7F     		ldrb	r3, [r3, #28]	@ zero_extendqisi2
 2274 004e 03F00403 		and	r3, r3, #4
 2275 0052 002B     		cmp	r3, #0
 2276 0054 02D1     		bne	.L152
 2277 0056 3F48     		ldr	r0, .L163+4
 2278 0058 FFF7FEFF 		bl	osalSysHalt
 2279              	.L152:
 2280              		.loc 2 845 0 is_stmt 1
 2281 005c 7B68     		ldr	r3, [r7, #4]
 2282 005e 1B68     		ldr	r3, [r3]
 2283 0060 1846     		mov	r0, r3
 2284 0062 FFF7FEFF 		bl	netconn_drain
 2285              		.loc 2 847 0
 2286 0066 7B68     		ldr	r3, [r7, #4]
 2287 0068 1B68     		ldr	r3, [r3]
 2288 006a 5B68     		ldr	r3, [r3, #4]
 2289 006c 002B     		cmp	r3, #0
 2290 006e 40D0     		beq	.L153
 2291              		.loc 2 849 0
 2292 0070 7B68     		ldr	r3, [r7, #4]
ARM GAS  C:\Users\Luis\AppData\Local\Temp\ccd19DXF.s 			page 43


 2293 0072 1B68     		ldr	r3, [r3]
 2294 0074 1B78     		ldrb	r3, [r3]	@ zero_extendqisi2
 2295 0076 03F0F003 		and	r3, r3, #240
 2296 007a 202B     		cmp	r3, #32
 2297 007c 0BD0     		beq	.L155
 2298 007e 402B     		cmp	r3, #64
 2299 0080 02D0     		beq	.L156
 2300 0082 102B     		cmp	r3, #16
 2301 0084 13D0     		beq	.L157
 2302              		.loc 2 874 0
 2303 0086 30E0     		b	.L158
 2304              	.L156:
 2305              		.loc 2 852 0
 2306 0088 7B68     		ldr	r3, [r7, #4]
 2307 008a 1B68     		ldr	r3, [r3]
 2308 008c 5B68     		ldr	r3, [r3, #4]
 2309 008e 1846     		mov	r0, r3
 2310 0090 FFF7FEFF 		bl	raw_remove
 2311              		.loc 2 853 0
 2312 0094 29E0     		b	.L158
 2313              	.L155:
 2314              		.loc 2 857 0
 2315 0096 7B68     		ldr	r3, [r7, #4]
 2316 0098 1B68     		ldr	r3, [r3]
 2317 009a 5B68     		ldr	r3, [r3, #4]
 2318 009c 0022     		movs	r2, #0
 2319 009e DA61     		str	r2, [r3, #28]
 2320              		.loc 2 858 0
 2321 00a0 7B68     		ldr	r3, [r7, #4]
 2322 00a2 1B68     		ldr	r3, [r3]
 2323 00a4 5B68     		ldr	r3, [r3, #4]
 2324 00a6 1846     		mov	r0, r3
 2325 00a8 FFF7FEFF 		bl	udp_remove
 2326              		.loc 2 859 0
 2327 00ac 1DE0     		b	.L158
 2328              	.L157:
 2329              		.loc 2 863 0
 2330 00ae 7B68     		ldr	r3, [r7, #4]
 2331 00b0 1B68     		ldr	r3, [r3]
 2332 00b2 5B6A     		ldr	r3, [r3, #36]
 2333 00b4 002B     		cmp	r3, #0
 2334 00b6 04D1     		bne	.L159
 2335              		.loc 2 863 0 is_stmt 0 discriminator 2
 2336 00b8 7B68     		ldr	r3, [r7, #4]
 2337 00ba 1B68     		ldr	r3, [r3]
 2338 00bc 1B6A     		ldr	r3, [r3, #32]
 2339 00be 002B     		cmp	r3, #0
 2340 00c0 02D0     		beq	.L160
 2341              	.L159:
 2342              		.loc 2 863 0 discriminator 1
 2343 00c2 2548     		ldr	r0, .L163+8
 2344 00c4 FFF7FEFF 		bl	osalSysHalt
 2345              	.L160:
 2346              		.loc 2 865 0 is_stmt 1
 2347 00c8 7B68     		ldr	r3, [r7, #4]
 2348 00ca 1B68     		ldr	r3, [r3]
 2349 00cc 0422     		movs	r2, #4
ARM GAS  C:\Users\Luis\AppData\Local\Temp\ccd19DXF.s 			page 44


 2350 00ce 5A70     		strb	r2, [r3, #1]
 2351              		.loc 2 866 0
 2352 00d0 7B68     		ldr	r3, [r7, #4]
 2353 00d2 0322     		movs	r2, #3
 2354 00d4 1A72     		strb	r2, [r3, #8]
 2355              		.loc 2 867 0
 2356 00d6 7B68     		ldr	r3, [r7, #4]
 2357 00d8 1B68     		ldr	r3, [r3]
 2358 00da 7A68     		ldr	r2, [r7, #4]
 2359 00dc 5A62     		str	r2, [r3, #36]
 2360              		.loc 2 868 0
 2361 00de 7B68     		ldr	r3, [r7, #4]
 2362 00e0 1B68     		ldr	r3, [r3]
 2363 00e2 1846     		mov	r0, r3
 2364 00e4 FFF7FEFF 		bl	do_close_internal
 2365              		.loc 2 871 0
 2366 00e8 2EE0     		b	.L148
 2367              	.L158:
 2368              		.loc 2 876 0
 2369 00ea 7B68     		ldr	r3, [r7, #4]
 2370 00ec 1B68     		ldr	r3, [r3]
 2371 00ee 0022     		movs	r2, #0
 2372 00f0 5A60     		str	r2, [r3, #4]
 2373              	.L153:
 2374              		.loc 2 882 0
 2375 00f2 7B68     		ldr	r3, [r7, #4]
 2376 00f4 1B68     		ldr	r3, [r3]
 2377 00f6 9B6A     		ldr	r3, [r3, #40]
 2378 00f8 002B     		cmp	r3, #0
 2379 00fa 08D0     		beq	.L162
 2380              		.loc 2 882 0 is_stmt 0 discriminator 1
 2381 00fc 7B68     		ldr	r3, [r7, #4]
 2382 00fe 1B68     		ldr	r3, [r3]
 2383 0100 9B6A     		ldr	r3, [r3, #40]
 2384 0102 7A68     		ldr	r2, [r7, #4]
 2385 0104 1268     		ldr	r2, [r2]
 2386 0106 1046     		mov	r0, r2
 2387 0108 0021     		movs	r1, #0
 2388 010a 0022     		movs	r2, #0
 2389 010c 9847     		blx	r3
 2390              	.L162:
 2391              		.loc 2 883 0 is_stmt 1
 2392 010e 7B68     		ldr	r3, [r7, #4]
 2393 0110 1B68     		ldr	r3, [r3]
 2394 0112 9B6A     		ldr	r3, [r3, #40]
 2395 0114 002B     		cmp	r3, #0
 2396 0116 08D0     		beq	.L151
 2397              		.loc 2 883 0 is_stmt 0 discriminator 1
 2398 0118 7B68     		ldr	r3, [r7, #4]
 2399 011a 1B68     		ldr	r3, [r3]
 2400 011c 9B6A     		ldr	r3, [r3, #40]
 2401 011e 7A68     		ldr	r2, [r7, #4]
 2402 0120 1268     		ldr	r2, [r2]
 2403 0122 1046     		mov	r0, r2
 2404 0124 0221     		movs	r1, #2
 2405 0126 0022     		movs	r2, #0
 2406 0128 9847     		blx	r3
ARM GAS  C:\Users\Luis\AppData\Local\Temp\ccd19DXF.s 			page 45


 2407              	.L151:
 2408              		.loc 2 885 0 is_stmt 1
 2409 012a 7B68     		ldr	r3, [r7, #4]
 2410 012c 1B68     		ldr	r3, [r3]
 2411 012e 0C33     		adds	r3, r3, #12
 2412 0130 1846     		mov	r0, r3
 2413 0132 FFF7FEFF 		bl	sys_sem_valid
 2414 0136 0346     		mov	r3, r0
 2415 0138 002B     		cmp	r3, #0
 2416 013a 05D0     		beq	.L148
 2417              		.loc 2 886 0
 2418 013c 7B68     		ldr	r3, [r7, #4]
 2419 013e 1B68     		ldr	r3, [r3]
 2420 0140 0C33     		adds	r3, r3, #12
 2421 0142 1846     		mov	r0, r3
 2422 0144 FFF7FEFF 		bl	sys_sem_signal
 2423              	.L148:
 2424              		.loc 2 888 0
 2425 0148 0837     		adds	r7, r7, #8
 2426 014a BD46     		mov	sp, r7
 2427              		@ sp needed
 2428 014c 80BD     		pop	{r7, pc}
 2429              	.L164:
 2430 014e 00BF     		.align	2
 2431              	.L163:
 2432 0150 BC020000 		.word	.LC20
 2433 0154 DC020000 		.word	.LC21
 2434 0158 FC020000 		.word	.LC22
 2435              		.cfi_endproc
 2436              	.LFE274:
 2437              		.size	do_delconn, .-do_delconn
 2438 015c AFF30080 		.section	.text.do_bind,"ax",%progbits
 2439              		.align	2
 2440              		.p2align 4,,15
 2441              		.global	do_bind
 2442              		.thumb
 2443              		.thumb_func
 2444              		.type	do_bind, %function
 2445              	do_bind:
 2446              	.LFB275:
 2447              		.loc 2 899 0
 2448              		.cfi_startproc
 2449              		@ args = 0, pretend = 0, frame = 8
 2450              		@ frame_needed = 1, uses_anonymous_args = 0
 2451 0000 80B5     		push	{r7, lr}
 2452              		.cfi_def_cfa_offset 8
 2453              		.cfi_offset 7, -8
 2454              		.cfi_offset 14, -4
 2455 0002 82B0     		sub	sp, sp, #8
 2456              		.cfi_def_cfa_offset 16
 2457 0004 00AF     		add	r7, sp, #0
 2458              		.cfi_def_cfa_register 7
 2459 0006 7860     		str	r0, [r7, #4]
 2460              		.loc 2 900 0
 2461 0008 7B68     		ldr	r3, [r7, #4]
 2462 000a 1B68     		ldr	r3, [r3]
 2463 000c 1B7A     		ldrb	r3, [r3, #8]	@ zero_extendqisi2
ARM GAS  C:\Users\Luis\AppData\Local\Temp\ccd19DXF.s 			page 46


 2464 000e 5BB2     		sxtb	r3, r3
 2465 0010 13F1090F 		cmn	r3, #9
 2466 0014 05DA     		bge	.L166
 2467              		.loc 2 901 0
 2468 0016 7B68     		ldr	r3, [r7, #4]
 2469 0018 1B68     		ldr	r3, [r3]
 2470 001a 1A7A     		ldrb	r2, [r3, #8]	@ zero_extendqisi2
 2471 001c 7B68     		ldr	r3, [r7, #4]
 2472 001e 1A71     		strb	r2, [r3, #4]
 2473 0020 43E0     		b	.L167
 2474              	.L166:
 2475              		.loc 2 903 0
 2476 0022 7B68     		ldr	r3, [r7, #4]
 2477 0024 FA22     		movs	r2, #250
 2478 0026 1A71     		strb	r2, [r3, #4]
 2479              		.loc 2 904 0
 2480 0028 7B68     		ldr	r3, [r7, #4]
 2481 002a 1B68     		ldr	r3, [r3]
 2482 002c 5B68     		ldr	r3, [r3, #4]
 2483 002e 002B     		cmp	r3, #0
 2484 0030 3BD0     		beq	.L167
 2485              		.loc 2 905 0
 2486 0032 7B68     		ldr	r3, [r7, #4]
 2487 0034 1B68     		ldr	r3, [r3]
 2488 0036 1B78     		ldrb	r3, [r3]	@ zero_extendqisi2
 2489 0038 03F0F003 		and	r3, r3, #240
 2490 003c 202B     		cmp	r3, #32
 2491 003e 12D0     		beq	.L169
 2492 0040 402B     		cmp	r3, #64
 2493 0042 02D0     		beq	.L170
 2494 0044 102B     		cmp	r3, #16
 2495 0046 1FD0     		beq	.L171
 2496              		.loc 2 922 0
 2497 0048 2FE0     		b	.L167
 2498              	.L170:
 2499              		.loc 2 908 0
 2500 004a 7B68     		ldr	r3, [r7, #4]
 2501 004c 1B68     		ldr	r3, [r3]
 2502 004e 5A68     		ldr	r2, [r3, #4]
 2503 0050 7B68     		ldr	r3, [r7, #4]
 2504 0052 9B68     		ldr	r3, [r3, #8]
 2505 0054 1046     		mov	r0, r2
 2506 0056 1946     		mov	r1, r3
 2507 0058 FFF7FEFF 		bl	raw_bind
 2508 005c 0346     		mov	r3, r0
 2509 005e 1A46     		mov	r2, r3
 2510 0060 7B68     		ldr	r3, [r7, #4]
 2511 0062 1A71     		strb	r2, [r3, #4]
 2512              		.loc 2 909 0
 2513 0064 21E0     		b	.L167
 2514              	.L169:
 2515              		.loc 2 913 0
 2516 0066 7B68     		ldr	r3, [r7, #4]
 2517 0068 1B68     		ldr	r3, [r3]
 2518 006a 5968     		ldr	r1, [r3, #4]
 2519 006c 7B68     		ldr	r3, [r7, #4]
 2520 006e 9A68     		ldr	r2, [r3, #8]
ARM GAS  C:\Users\Luis\AppData\Local\Temp\ccd19DXF.s 			page 47


 2521 0070 7B68     		ldr	r3, [r7, #4]
 2522 0072 9B89     		ldrh	r3, [r3, #12]
 2523 0074 0846     		mov	r0, r1
 2524 0076 1146     		mov	r1, r2
 2525 0078 1A46     		mov	r2, r3
 2526 007a FFF7FEFF 		bl	udp_bind
 2527 007e 0346     		mov	r3, r0
 2528 0080 1A46     		mov	r2, r3
 2529 0082 7B68     		ldr	r3, [r7, #4]
 2530 0084 1A71     		strb	r2, [r3, #4]
 2531              		.loc 2 914 0
 2532 0086 10E0     		b	.L167
 2533              	.L171:
 2534              		.loc 2 918 0
 2535 0088 7B68     		ldr	r3, [r7, #4]
 2536 008a 1B68     		ldr	r3, [r3]
 2537 008c 5968     		ldr	r1, [r3, #4]
 2538 008e 7B68     		ldr	r3, [r7, #4]
 2539 0090 9A68     		ldr	r2, [r3, #8]
 2540 0092 7B68     		ldr	r3, [r7, #4]
 2541 0094 9B89     		ldrh	r3, [r3, #12]
 2542 0096 0846     		mov	r0, r1
 2543 0098 1146     		mov	r1, r2
 2544 009a 1A46     		mov	r2, r3
 2545 009c FFF7FEFF 		bl	tcp_bind
 2546 00a0 0346     		mov	r3, r0
 2547 00a2 1A46     		mov	r2, r3
 2548 00a4 7B68     		ldr	r3, [r7, #4]
 2549 00a6 1A71     		strb	r2, [r3, #4]
 2550              		.loc 2 919 0
 2551 00a8 00BF     		nop
 2552              	.L167:
 2553              		.loc 2 926 0
 2554 00aa 7B68     		ldr	r3, [r7, #4]
 2555 00ac 1B68     		ldr	r3, [r3]
 2556 00ae 0C33     		adds	r3, r3, #12
 2557 00b0 1846     		mov	r0, r3
 2558 00b2 FFF7FEFF 		bl	sys_sem_signal
 2559              		.loc 2 927 0
 2560 00b6 0837     		adds	r7, r7, #8
 2561 00b8 BD46     		mov	sp, r7
 2562              		@ sp needed
 2563 00ba 80BD     		pop	{r7, pc}
 2564              		.cfi_endproc
 2565              	.LFE275:
 2566              		.size	do_bind, .-do_bind
 2567 00bc AFF30080 		.section	.rodata
 2568 0317 00       		.align	2
 2569              	.LC23:
 2570 0318 636F6E6E 		.ascii	"conn->state == NETCONN_CONNECT\000"
 2570      2D3E7374 
 2570      61746520 
 2570      3D3D204E 
 2570      4554434F 
 2571 0337 00       		.align	2
 2572              	.LC24:
 2573 0338 28636F6E 		.ascii	"(conn->current_msg != NULL) || conn->in_non_blockin"
ARM GAS  C:\Users\Luis\AppData\Local\Temp\ccd19DXF.s 			page 48


 2573      6E2D3E63 
 2573      75727265 
 2573      6E745F6D 
 2573      73672021 
 2574 036b 675F636F 		.ascii	"g_connect\000"
 2574      6E6E6563 
 2574      7400
 2575              		.section	.text.do_connected,"ax",%progbits
 2576              		.align	2
 2577              		.p2align 4,,15
 2578              		.thumb
 2579              		.thumb_func
 2580              		.type	do_connected, %function
 2581              	do_connected:
 2582              	.LFB276:
 2583              		.loc 2 938 0
 2584              		.cfi_startproc
 2585              		@ args = 0, pretend = 0, frame = 24
 2586              		@ frame_needed = 1, uses_anonymous_args = 0
 2587 0000 80B5     		push	{r7, lr}
 2588              		.cfi_def_cfa_offset 8
 2589              		.cfi_offset 7, -8
 2590              		.cfi_offset 14, -4
 2591 0002 86B0     		sub	sp, sp, #24
 2592              		.cfi_def_cfa_offset 32
 2593 0004 00AF     		add	r7, sp, #0
 2594              		.cfi_def_cfa_register 7
 2595 0006 F860     		str	r0, [r7, #12]
 2596 0008 B960     		str	r1, [r7, #8]
 2597 000a 1346     		mov	r3, r2
 2598 000c FB71     		strb	r3, [r7, #7]
 2599              		.loc 2 944 0
 2600 000e FB68     		ldr	r3, [r7, #12]
 2601 0010 7B61     		str	r3, [r7, #20]
 2602              		.loc 2 946 0
 2603 0012 7B69     		ldr	r3, [r7, #20]
 2604 0014 002B     		cmp	r3, #0
 2605 0016 01D1     		bne	.L173
 2606              		.loc 2 947 0
 2607 0018 FA23     		movs	r3, #250
 2608 001a 5CE0     		b	.L174
 2609              	.L173:
 2610              		.loc 2 950 0
 2611 001c 7B69     		ldr	r3, [r7, #20]
 2612 001e 5B78     		ldrb	r3, [r3, #1]	@ zero_extendqisi2
 2613 0020 032B     		cmp	r3, #3
 2614 0022 02D0     		beq	.L175
 2615              		.loc 2 950 0 is_stmt 0 discriminator 1
 2616 0024 2E48     		ldr	r0, .L182
 2617 0026 FFF7FEFF 		bl	osalSysHalt
 2618              	.L175:
 2619              		.loc 2 951 0 is_stmt 1
 2620 002a 7B69     		ldr	r3, [r7, #20]
 2621 002c 5B6A     		ldr	r3, [r3, #36]
 2622 002e 002B     		cmp	r3, #0
 2623 0030 08D1     		bne	.L176
 2624              		.loc 2 951 0 is_stmt 0 discriminator 1
ARM GAS  C:\Users\Luis\AppData\Local\Temp\ccd19DXF.s 			page 49


 2625 0032 7B69     		ldr	r3, [r7, #20]
 2626 0034 1B7F     		ldrb	r3, [r3, #28]	@ zero_extendqisi2
 2627 0036 03F00403 		and	r3, r3, #4
 2628 003a 002B     		cmp	r3, #0
 2629 003c 02D1     		bne	.L176
 2630 003e 2948     		ldr	r0, .L182+4
 2631 0040 FFF7FEFF 		bl	osalSysHalt
 2632              	.L176:
 2633              		.loc 2 954 0 is_stmt 1
 2634 0044 7B69     		ldr	r3, [r7, #20]
 2635 0046 5B6A     		ldr	r3, [r3, #36]
 2636 0048 002B     		cmp	r3, #0
 2637 004a 03D0     		beq	.L177
 2638              		.loc 2 955 0
 2639 004c 7B69     		ldr	r3, [r7, #20]
 2640 004e 5B6A     		ldr	r3, [r3, #36]
 2641 0050 FA79     		ldrb	r2, [r7, #7]
 2642 0052 1A71     		strb	r2, [r3, #4]
 2643              	.L177:
 2644              		.loc 2 957 0
 2645 0054 7B69     		ldr	r3, [r7, #20]
 2646 0056 1B78     		ldrb	r3, [r3]	@ zero_extendqisi2
 2647 0058 102B     		cmp	r3, #16
 2648 005a 06D1     		bne	.L178
 2649              		.loc 2 957 0 is_stmt 0 discriminator 1
 2650 005c 97F90730 		ldrsb	r3, [r7, #7]
 2651 0060 002B     		cmp	r3, #0
 2652 0062 02D1     		bne	.L178
 2653              		.loc 2 958 0 is_stmt 1
 2654 0064 7869     		ldr	r0, [r7, #20]
 2655 0066 FFF7FEFF 		bl	setup_tcp
 2656              	.L178:
 2657              		.loc 2 960 0
 2658 006a 7B69     		ldr	r3, [r7, #20]
 2659 006c 1B7F     		ldrb	r3, [r3, #28]	@ zero_extendqisi2
 2660 006e 03F00403 		and	r3, r3, #4
 2661 0072 002B     		cmp	r3, #0
 2662 0074 14BF     		ite	ne
 2663 0076 0023     		movne	r3, #0
 2664 0078 0123     		moveq	r3, #1
 2665 007a DBB2     		uxtb	r3, r3
 2666 007c 3B61     		str	r3, [r7, #16]
 2667              		.loc 2 961 0
 2668 007e 7B69     		ldr	r3, [r7, #20]
 2669 0080 1B7F     		ldrb	r3, [r3, #28]	@ zero_extendqisi2
 2670 0082 23F00403 		bic	r3, r3, #4
 2671 0086 DAB2     		uxtb	r2, r3
 2672 0088 7B69     		ldr	r3, [r7, #20]
 2673 008a 1A77     		strb	r2, [r3, #28]
 2674              		.loc 2 962 0
 2675 008c 7B69     		ldr	r3, [r7, #20]
 2676 008e 0022     		movs	r2, #0
 2677 0090 5A62     		str	r2, [r3, #36]
 2678              		.loc 2 963 0
 2679 0092 7B69     		ldr	r3, [r7, #20]
 2680 0094 0022     		movs	r2, #0
 2681 0096 5A70     		strb	r2, [r3, #1]
ARM GAS  C:\Users\Luis\AppData\Local\Temp\ccd19DXF.s 			page 50


 2682              		.loc 2 964 0
 2683 0098 3B69     		ldr	r3, [r7, #16]
 2684 009a 002B     		cmp	r3, #0
 2685 009c 08D1     		bne	.L179
 2686              		.loc 2 965 0
 2687 009e 7B69     		ldr	r3, [r7, #20]
 2688 00a0 1B7A     		ldrb	r3, [r3, #8]	@ zero_extendqisi2
 2689 00a2 5BB2     		sxtb	r3, r3
 2690 00a4 13F1090F 		cmn	r3, #9
 2691 00a8 02DB     		blt	.L179
 2692              		.loc 2 965 0 is_stmt 0 discriminator 1
 2693 00aa 7B69     		ldr	r3, [r7, #20]
 2694 00ac 0022     		movs	r2, #0
 2695 00ae 1A72     		strb	r2, [r3, #8]
 2696              	.L179:
 2697              		.loc 2 967 0 is_stmt 1
 2698 00b0 7B69     		ldr	r3, [r7, #20]
 2699 00b2 9B6A     		ldr	r3, [r3, #40]
 2700 00b4 002B     		cmp	r3, #0
 2701 00b6 05D0     		beq	.L180
 2702              		.loc 2 967 0 is_stmt 0 discriminator 1
 2703 00b8 7B69     		ldr	r3, [r7, #20]
 2704 00ba 9B6A     		ldr	r3, [r3, #40]
 2705 00bc 7869     		ldr	r0, [r7, #20]
 2706 00be 0221     		movs	r1, #2
 2707 00c0 0022     		movs	r2, #0
 2708 00c2 9847     		blx	r3
 2709              	.L180:
 2710              		.loc 2 969 0 is_stmt 1
 2711 00c4 3B69     		ldr	r3, [r7, #16]
 2712 00c6 002B     		cmp	r3, #0
 2713 00c8 04D0     		beq	.L181
 2714              		.loc 2 970 0
 2715 00ca 7B69     		ldr	r3, [r7, #20]
 2716 00cc 0C33     		adds	r3, r3, #12
 2717 00ce 1846     		mov	r0, r3
 2718 00d0 FFF7FEFF 		bl	sys_sem_signal
 2719              	.L181:
 2720              		.loc 2 972 0
 2721 00d4 0023     		movs	r3, #0
 2722              	.L174:
 2723 00d6 5BB2     		sxtb	r3, r3
 2724              		.loc 2 973 0
 2725 00d8 1846     		mov	r0, r3
 2726 00da 1837     		adds	r7, r7, #24
 2727 00dc BD46     		mov	sp, r7
 2728              		@ sp needed
 2729 00de 80BD     		pop	{r7, pc}
 2730              	.L183:
 2731              		.align	2
 2732              	.L182:
 2733 00e0 18030000 		.word	.LC23
 2734 00e4 38030000 		.word	.LC24
 2735              		.cfi_endproc
 2736              	.LFE276:
 2737              		.size	do_connected, .-do_connected
 2738 00e8 AFF30080 		.section	.rodata
ARM GAS  C:\Users\Luis\AppData\Local\Temp\ccd19DXF.s 			page 51


 2738      AFF30080 
 2739 0375 000000   		.align	2
 2740              	.LC25:
 2741 0378 496E7661 		.ascii	"Invalid netconn type\000"
 2741      6C696420 
 2741      6E657463 
 2741      6F6E6E20 
 2741      74797065 
 2742              		.section	.text.do_connect,"ax",%progbits
 2743              		.align	2
 2744              		.p2align 4,,15
 2745              		.global	do_connect
 2746              		.thumb
 2747              		.thumb_func
 2748              		.type	do_connect, %function
 2749              	do_connect:
 2750              	.LFB277:
 2751              		.loc 2 985 0
 2752              		.cfi_startproc
 2753              		@ args = 0, pretend = 0, frame = 16
 2754              		@ frame_needed = 1, uses_anonymous_args = 0
 2755 0000 80B5     		push	{r7, lr}
 2756              		.cfi_def_cfa_offset 8
 2757              		.cfi_offset 7, -8
 2758              		.cfi_offset 14, -4
 2759 0002 84B0     		sub	sp, sp, #16
 2760              		.cfi_def_cfa_offset 24
 2761 0004 00AF     		add	r7, sp, #0
 2762              		.cfi_def_cfa_register 7
 2763 0006 7860     		str	r0, [r7, #4]
 2764              		.loc 2 986 0
 2765 0008 7B68     		ldr	r3, [r7, #4]
 2766 000a 1B68     		ldr	r3, [r3]
 2767 000c 5B68     		ldr	r3, [r3, #4]
 2768 000e 002B     		cmp	r3, #0
 2769 0010 03D1     		bne	.L185
 2770              		.loc 2 988 0
 2771 0012 7B68     		ldr	r3, [r7, #4]
 2772 0014 F422     		movs	r2, #244
 2773 0016 1A71     		strb	r2, [r3, #4]
 2774 0018 86E0     		b	.L186
 2775              	.L185:
 2776              		.loc 2 990 0
 2777 001a 7B68     		ldr	r3, [r7, #4]
 2778 001c 1B68     		ldr	r3, [r3]
 2779 001e 1B78     		ldrb	r3, [r3]	@ zero_extendqisi2
 2780 0020 03F0F003 		and	r3, r3, #240
 2781 0024 202B     		cmp	r3, #32
 2782 0026 12D0     		beq	.L188
 2783 0028 402B     		cmp	r3, #64
 2784 002a 02D0     		beq	.L189
 2785 002c 102B     		cmp	r3, #16
 2786 002e 1FD0     		beq	.L190
 2787 0030 73E0     		b	.L197
 2788              	.L189:
 2789              		.loc 2 993 0
 2790 0032 7B68     		ldr	r3, [r7, #4]
ARM GAS  C:\Users\Luis\AppData\Local\Temp\ccd19DXF.s 			page 52


 2791 0034 1B68     		ldr	r3, [r3]
 2792 0036 5A68     		ldr	r2, [r3, #4]
 2793 0038 7B68     		ldr	r3, [r7, #4]
 2794 003a 9B68     		ldr	r3, [r3, #8]
 2795 003c 1046     		mov	r0, r2
 2796 003e 1946     		mov	r1, r3
 2797 0040 FFF7FEFF 		bl	raw_connect
 2798 0044 0346     		mov	r3, r0
 2799 0046 1A46     		mov	r2, r3
 2800 0048 7B68     		ldr	r3, [r7, #4]
 2801 004a 1A71     		strb	r2, [r3, #4]
 2802              		.loc 2 994 0
 2803 004c 6CE0     		b	.L186
 2804              	.L188:
 2805              		.loc 2 998 0
 2806 004e 7B68     		ldr	r3, [r7, #4]
 2807 0050 1B68     		ldr	r3, [r3]
 2808 0052 5968     		ldr	r1, [r3, #4]
 2809 0054 7B68     		ldr	r3, [r7, #4]
 2810 0056 9A68     		ldr	r2, [r3, #8]
 2811 0058 7B68     		ldr	r3, [r7, #4]
 2812 005a 9B89     		ldrh	r3, [r3, #12]
 2813 005c 0846     		mov	r0, r1
 2814 005e 1146     		mov	r1, r2
 2815 0060 1A46     		mov	r2, r3
 2816 0062 FFF7FEFF 		bl	udp_connect
 2817 0066 0346     		mov	r3, r0
 2818 0068 1A46     		mov	r2, r3
 2819 006a 7B68     		ldr	r3, [r7, #4]
 2820 006c 1A71     		strb	r2, [r3, #4]
 2821              		.loc 2 999 0
 2822 006e 5BE0     		b	.L186
 2823              	.L190:
 2824              		.loc 2 1004 0
 2825 0070 7B68     		ldr	r3, [r7, #4]
 2826 0072 1B68     		ldr	r3, [r3]
 2827 0074 5B78     		ldrb	r3, [r3, #1]	@ zero_extendqisi2
 2828 0076 002B     		cmp	r3, #0
 2829 0078 03D0     		beq	.L191
 2830              		.loc 2 1005 0
 2831 007a 7B68     		ldr	r3, [r7, #4]
 2832 007c F722     		movs	r2, #247
 2833 007e 1A71     		strb	r2, [r3, #4]
 2834 0080 4AE0     		b	.L192
 2835              	.L191:
 2836              		.loc 2 1007 0
 2837 0082 7B68     		ldr	r3, [r7, #4]
 2838 0084 1B68     		ldr	r3, [r3]
 2839 0086 1846     		mov	r0, r3
 2840 0088 FFF7FEFF 		bl	setup_tcp
 2841              		.loc 2 1008 0
 2842 008c 7B68     		ldr	r3, [r7, #4]
 2843 008e 1B68     		ldr	r3, [r3]
 2844 0090 5968     		ldr	r1, [r3, #4]
 2845 0092 7B68     		ldr	r3, [r7, #4]
 2846 0094 9A68     		ldr	r2, [r3, #8]
 2847 0096 7B68     		ldr	r3, [r7, #4]
ARM GAS  C:\Users\Luis\AppData\Local\Temp\ccd19DXF.s 			page 53


 2848 0098 9B89     		ldrh	r3, [r3, #12]
 2849 009a 0846     		mov	r0, r1
 2850 009c 1146     		mov	r1, r2
 2851 009e 1A46     		mov	r2, r3
 2852 00a0 264B     		ldr	r3, .L198
 2853 00a2 FFF7FEFF 		bl	tcp_connect
 2854 00a6 0346     		mov	r3, r0
 2855 00a8 1A46     		mov	r2, r3
 2856 00aa 7B68     		ldr	r3, [r7, #4]
 2857 00ac 1A71     		strb	r2, [r3, #4]
 2858              		.loc 2 1010 0
 2859 00ae 7B68     		ldr	r3, [r7, #4]
 2860 00b0 1B79     		ldrb	r3, [r3, #4]	@ zero_extendqisi2
 2861 00b2 002B     		cmp	r3, #0
 2862 00b4 30D1     		bne	.L192
 2863              	.LBB6:
 2864              		.loc 2 1011 0
 2865 00b6 7B68     		ldr	r3, [r7, #4]
 2866 00b8 1B68     		ldr	r3, [r3]
 2867 00ba 1B7F     		ldrb	r3, [r3, #28]	@ zero_extendqisi2
 2868 00bc 03F00203 		and	r3, r3, #2
 2869 00c0 002B     		cmp	r3, #0
 2870 00c2 0CBF     		ite	eq
 2871 00c4 0023     		moveq	r3, #0
 2872 00c6 0123     		movne	r3, #1
 2873 00c8 DBB2     		uxtb	r3, r3
 2874 00ca FB73     		strb	r3, [r7, #15]
 2875              		.loc 2 1012 0
 2876 00cc 7B68     		ldr	r3, [r7, #4]
 2877 00ce 1B68     		ldr	r3, [r3]
 2878 00d0 0322     		movs	r2, #3
 2879 00d2 5A70     		strb	r2, [r3, #1]
 2880              		.loc 2 1013 0
 2881 00d4 FB7B     		ldrb	r3, [r7, #15]	@ zero_extendqisi2
 2882 00d6 002B     		cmp	r3, #0
 2883 00d8 09D0     		beq	.L193
 2884              		.loc 2 1013 0 is_stmt 0 discriminator 1
 2885 00da 7B68     		ldr	r3, [r7, #4]
 2886 00dc 1B68     		ldr	r3, [r3]
 2887 00de 7A68     		ldr	r2, [r7, #4]
 2888 00e0 1268     		ldr	r2, [r2]
 2889 00e2 127F     		ldrb	r2, [r2, #28]	@ zero_extendqisi2
 2890 00e4 42F00402 		orr	r2, r2, #4
 2891 00e8 D2B2     		uxtb	r2, r2
 2892 00ea 1A77     		strb	r2, [r3, #28]
 2893 00ec 08E0     		b	.L194
 2894              	.L193:
 2895              		.loc 2 1013 0 discriminator 2
 2896 00ee 7B68     		ldr	r3, [r7, #4]
 2897 00f0 1B68     		ldr	r3, [r3]
 2898 00f2 7A68     		ldr	r2, [r7, #4]
 2899 00f4 1268     		ldr	r2, [r2]
 2900 00f6 127F     		ldrb	r2, [r2, #28]	@ zero_extendqisi2
 2901 00f8 22F00402 		bic	r2, r2, #4
 2902 00fc D2B2     		uxtb	r2, r2
 2903 00fe 1A77     		strb	r2, [r3, #28]
 2904              	.L194:
ARM GAS  C:\Users\Luis\AppData\Local\Temp\ccd19DXF.s 			page 54


 2905              		.loc 2 1014 0 is_stmt 1
 2906 0100 FB7B     		ldrb	r3, [r7, #15]	@ zero_extendqisi2
 2907 0102 002B     		cmp	r3, #0
 2908 0104 03D0     		beq	.L195
 2909              		.loc 2 1015 0
 2910 0106 7B68     		ldr	r3, [r7, #4]
 2911 0108 FB22     		movs	r2, #251
 2912 010a 1A71     		strb	r2, [r3, #4]
 2913 010c 04E0     		b	.L192
 2914              	.L195:
 2915              		.loc 2 1017 0
 2916 010e 7B68     		ldr	r3, [r7, #4]
 2917 0110 1B68     		ldr	r3, [r3]
 2918 0112 7A68     		ldr	r2, [r7, #4]
 2919 0114 5A62     		str	r2, [r3, #36]
 2920              		.loc 2 1020 0
 2921 0116 0DE0     		b	.L184
 2922              	.L192:
 2923              	.LBE6:
 2924              		.loc 2 1024 0
 2925 0118 06E0     		b	.L186
 2926              	.L197:
 2927              		.loc 2 1027 0
 2928 011a 0948     		ldr	r0, .L198+4
 2929 011c FFF7FEFF 		bl	osalSysHalt
 2930 0120 7B68     		ldr	r3, [r7, #4]
 2931 0122 FA22     		movs	r2, #250
 2932 0124 1A71     		strb	r2, [r3, #4]
 2933              		.loc 2 1028 0
 2934 0126 00BF     		nop
 2935              	.L186:
 2936              		.loc 2 1031 0
 2937 0128 7B68     		ldr	r3, [r7, #4]
 2938 012a 1B68     		ldr	r3, [r3]
 2939 012c 0C33     		adds	r3, r3, #12
 2940 012e 1846     		mov	r0, r3
 2941 0130 FFF7FEFF 		bl	sys_sem_signal
 2942              	.L184:
 2943              		.loc 2 1032 0
 2944 0134 1037     		adds	r7, r7, #16
 2945 0136 BD46     		mov	sp, r7
 2946              		@ sp needed
 2947 0138 80BD     		pop	{r7, pc}
 2948              	.L199:
 2949 013a 00BF     		.align	2
 2950              	.L198:
 2951 013c 00000000 		.word	do_connected
 2952 0140 78030000 		.word	.LC25
 2953              		.cfi_endproc
 2954              	.LFE277:
 2955              		.size	do_connect, .-do_connect
 2956 0144 AFF30080 		.section	.text.do_disconnect,"ax",%progbits
 2956      AFF30080 
 2956      AFF30080 
 2957              		.align	2
 2958              		.p2align 4,,15
 2959              		.global	do_disconnect
ARM GAS  C:\Users\Luis\AppData\Local\Temp\ccd19DXF.s 			page 55


 2960              		.thumb
 2961              		.thumb_func
 2962              		.type	do_disconnect, %function
 2963              	do_disconnect:
 2964              	.LFB278:
 2965              		.loc 2 1043 0
 2966              		.cfi_startproc
 2967              		@ args = 0, pretend = 0, frame = 8
 2968              		@ frame_needed = 1, uses_anonymous_args = 0
 2969 0000 80B5     		push	{r7, lr}
 2970              		.cfi_def_cfa_offset 8
 2971              		.cfi_offset 7, -8
 2972              		.cfi_offset 14, -4
 2973 0002 82B0     		sub	sp, sp, #8
 2974              		.cfi_def_cfa_offset 16
 2975 0004 00AF     		add	r7, sp, #0
 2976              		.cfi_def_cfa_register 7
 2977 0006 7860     		str	r0, [r7, #4]
 2978              		.loc 2 1045 0
 2979 0008 7B68     		ldr	r3, [r7, #4]
 2980 000a 1B68     		ldr	r3, [r3]
 2981 000c 1B78     		ldrb	r3, [r3]	@ zero_extendqisi2
 2982 000e 03F0F003 		and	r3, r3, #240
 2983 0012 202B     		cmp	r3, #32
 2984 0014 09D1     		bne	.L201
 2985              		.loc 2 1046 0
 2986 0016 7B68     		ldr	r3, [r7, #4]
 2987 0018 1B68     		ldr	r3, [r3]
 2988 001a 5B68     		ldr	r3, [r3, #4]
 2989 001c 1846     		mov	r0, r3
 2990 001e FFF7FEFF 		bl	udp_disconnect
 2991              		.loc 2 1047 0
 2992 0022 7B68     		ldr	r3, [r7, #4]
 2993 0024 0022     		movs	r2, #0
 2994 0026 1A71     		strb	r2, [r3, #4]
 2995 0028 02E0     		b	.L202
 2996              	.L201:
 2997              		.loc 2 1051 0
 2998 002a 7B68     		ldr	r3, [r7, #4]
 2999 002c FA22     		movs	r2, #250
 3000 002e 1A71     		strb	r2, [r3, #4]
 3001              	.L202:
 3002              		.loc 2 1053 0
 3003 0030 7B68     		ldr	r3, [r7, #4]
 3004 0032 1B68     		ldr	r3, [r3]
 3005 0034 0C33     		adds	r3, r3, #12
 3006 0036 1846     		mov	r0, r3
 3007 0038 FFF7FEFF 		bl	sys_sem_signal
 3008              		.loc 2 1054 0
 3009 003c 0837     		adds	r7, r7, #8
 3010 003e BD46     		mov	sp, r7
 3011              		@ sp needed
 3012 0040 80BD     		pop	{r7, pc}
 3013              		.cfi_endproc
 3014              	.LFE278:
 3015              		.size	do_disconnect, .-do_disconnect
 3016 0042 00BFAFF3 		.section	.text.do_listen,"ax",%progbits
ARM GAS  C:\Users\Luis\AppData\Local\Temp\ccd19DXF.s 			page 56


 3016      0080AFF3 
 3016      0080AFF3 
 3016      0080
 3017              		.align	2
 3018              		.p2align 4,,15
 3019              		.global	do_listen
 3020              		.thumb
 3021              		.thumb_func
 3022              		.type	do_listen, %function
 3023              	do_listen:
 3024              	.LFB279:
 3025              		.loc 2 1065 0
 3026              		.cfi_startproc
 3027              		@ args = 0, pretend = 0, frame = 16
 3028              		@ frame_needed = 1, uses_anonymous_args = 0
 3029 0000 80B5     		push	{r7, lr}
 3030              		.cfi_def_cfa_offset 8
 3031              		.cfi_offset 7, -8
 3032              		.cfi_offset 14, -4
 3033 0002 84B0     		sub	sp, sp, #16
 3034              		.cfi_def_cfa_offset 24
 3035 0004 00AF     		add	r7, sp, #0
 3036              		.cfi_def_cfa_register 7
 3037 0006 7860     		str	r0, [r7, #4]
 3038              		.loc 2 1066 0
 3039 0008 7B68     		ldr	r3, [r7, #4]
 3040 000a 1B68     		ldr	r3, [r3]
 3041 000c 1B7A     		ldrb	r3, [r3, #8]	@ zero_extendqisi2
 3042 000e 5BB2     		sxtb	r3, r3
 3043 0010 13F1090F 		cmn	r3, #9
 3044 0014 05DA     		bge	.L204
 3045              		.loc 2 1067 0
 3046 0016 7B68     		ldr	r3, [r7, #4]
 3047 0018 1B68     		ldr	r3, [r3]
 3048 001a 1A7A     		ldrb	r2, [r3, #8]	@ zero_extendqisi2
 3049 001c 7B68     		ldr	r3, [r7, #4]
 3050 001e 1A71     		strb	r2, [r3, #4]
 3051 0020 75E0     		b	.L205
 3052              	.L204:
 3053              		.loc 2 1069 0
 3054 0022 7B68     		ldr	r3, [r7, #4]
 3055 0024 F322     		movs	r2, #243
 3056 0026 1A71     		strb	r2, [r3, #4]
 3057              		.loc 2 1070 0
 3058 0028 7B68     		ldr	r3, [r7, #4]
 3059 002a 1B68     		ldr	r3, [r3]
 3060 002c 5B68     		ldr	r3, [r3, #4]
 3061 002e 002B     		cmp	r3, #0
 3062 0030 6DD0     		beq	.L205
 3063              		.loc 2 1071 0
 3064 0032 7B68     		ldr	r3, [r7, #4]
 3065 0034 1B68     		ldr	r3, [r3]
 3066 0036 1B78     		ldrb	r3, [r3]	@ zero_extendqisi2
 3067 0038 102B     		cmp	r3, #16
 3068 003a 65D1     		bne	.L206
 3069              		.loc 2 1072 0
 3070 003c 7B68     		ldr	r3, [r7, #4]
ARM GAS  C:\Users\Luis\AppData\Local\Temp\ccd19DXF.s 			page 57


 3071 003e 1B68     		ldr	r3, [r3]
 3072 0040 5B78     		ldrb	r3, [r3, #1]	@ zero_extendqisi2
 3073 0042 002B     		cmp	r3, #0
 3074 0044 5FD1     		bne	.L207
 3075              	.LBB7:
 3076              		.loc 2 1076 0
 3077 0046 7B68     		ldr	r3, [r7, #4]
 3078 0048 1B68     		ldr	r3, [r3]
 3079 004a 5B68     		ldr	r3, [r3, #4]
 3080 004c 1846     		mov	r0, r3
 3081 004e FF21     		movs	r1, #255
 3082 0050 FFF7FEFF 		bl	tcp_listen_with_backlog
 3083 0054 F860     		str	r0, [r7, #12]
 3084              		.loc 2 1078 0
 3085 0056 FB68     		ldr	r3, [r7, #12]
 3086 0058 002B     		cmp	r3, #0
 3087 005a 03D1     		bne	.L208
 3088              		.loc 2 1080 0
 3089 005c 7B68     		ldr	r3, [r7, #4]
 3090 005e FF22     		movs	r2, #255
 3091 0060 1A71     		strb	r2, [r3, #4]
 3092 0062 50E0     		b	.L207
 3093              	.L208:
 3094              		.loc 2 1083 0
 3095 0064 7B68     		ldr	r3, [r7, #4]
 3096 0066 1B68     		ldr	r3, [r3]
 3097 0068 1033     		adds	r3, r3, #16
 3098 006a 1846     		mov	r0, r3
 3099 006c FFF7FEFF 		bl	sys_mbox_valid
 3100 0070 0346     		mov	r3, r0
 3101 0072 002B     		cmp	r3, #0
 3102 0074 0BD0     		beq	.L209
 3103              		.loc 2 1085 0
 3104 0076 7B68     		ldr	r3, [r7, #4]
 3105 0078 1B68     		ldr	r3, [r3]
 3106 007a 1033     		adds	r3, r3, #16
 3107 007c 1846     		mov	r0, r3
 3108 007e FFF7FEFF 		bl	sys_mbox_free
 3109              		.loc 2 1086 0
 3110 0082 7B68     		ldr	r3, [r7, #4]
 3111 0084 1B68     		ldr	r3, [r3]
 3112 0086 1033     		adds	r3, r3, #16
 3113 0088 1846     		mov	r0, r3
 3114 008a FFF7FEFF 		bl	sys_mbox_set_invalid
 3115              	.L209:
 3116              		.loc 2 1088 0
 3117 008e 7B68     		ldr	r3, [r7, #4]
 3118 0090 0022     		movs	r2, #0
 3119 0092 1A71     		strb	r2, [r3, #4]
 3120              		.loc 2 1089 0
 3121 0094 7B68     		ldr	r3, [r7, #4]
 3122 0096 1B68     		ldr	r3, [r3]
 3123 0098 1433     		adds	r3, r3, #20
 3124 009a 1846     		mov	r0, r3
 3125 009c FFF7FEFF 		bl	sys_mbox_valid
 3126 00a0 0346     		mov	r3, r0
 3127 00a2 002B     		cmp	r3, #0
ARM GAS  C:\Users\Luis\AppData\Local\Temp\ccd19DXF.s 			page 58


 3128 00a4 0AD1     		bne	.L210
 3129              		.loc 2 1090 0
 3130 00a6 7B68     		ldr	r3, [r7, #4]
 3131 00a8 1B68     		ldr	r3, [r3]
 3132 00aa 1433     		adds	r3, r3, #20
 3133 00ac 1846     		mov	r0, r3
 3134 00ae 0421     		movs	r1, #4
 3135 00b0 FFF7FEFF 		bl	sys_mbox_new
 3136 00b4 0346     		mov	r3, r0
 3137 00b6 1A46     		mov	r2, r3
 3138 00b8 7B68     		ldr	r3, [r7, #4]
 3139 00ba 1A71     		strb	r2, [r3, #4]
 3140              	.L210:
 3141              		.loc 2 1092 0
 3142 00bc 7B68     		ldr	r3, [r7, #4]
 3143 00be 1B79     		ldrb	r3, [r3, #4]	@ zero_extendqisi2
 3144 00c0 002B     		cmp	r3, #0
 3145 00c2 18D1     		bne	.L211
 3146              		.loc 2 1093 0
 3147 00c4 7B68     		ldr	r3, [r7, #4]
 3148 00c6 1B68     		ldr	r3, [r3]
 3149 00c8 0222     		movs	r2, #2
 3150 00ca 5A70     		strb	r2, [r3, #1]
 3151              		.loc 2 1094 0
 3152 00cc 7B68     		ldr	r3, [r7, #4]
 3153 00ce 1B68     		ldr	r3, [r3]
 3154 00d0 FA68     		ldr	r2, [r7, #12]
 3155 00d2 5A60     		str	r2, [r3, #4]
 3156              		.loc 2 1095 0
 3157 00d4 7B68     		ldr	r3, [r7, #4]
 3158 00d6 1B68     		ldr	r3, [r3]
 3159 00d8 5A68     		ldr	r2, [r3, #4]
 3160 00da 7B68     		ldr	r3, [r7, #4]
 3161 00dc 1B68     		ldr	r3, [r3]
 3162 00de 1046     		mov	r0, r2
 3163 00e0 1946     		mov	r1, r3
 3164 00e2 FFF7FEFF 		bl	tcp_arg
 3165              		.loc 2 1096 0
 3166 00e6 7B68     		ldr	r3, [r7, #4]
 3167 00e8 1B68     		ldr	r3, [r3]
 3168 00ea 5B68     		ldr	r3, [r3, #4]
 3169 00ec 1846     		mov	r0, r3
 3170 00ee 0C49     		ldr	r1, .L212
 3171 00f0 FFF7FEFF 		bl	tcp_accept
 3172 00f4 07E0     		b	.L207
 3173              	.L211:
 3174              		.loc 2 1099 0
 3175 00f6 F868     		ldr	r0, [r7, #12]
 3176 00f8 FFF7FEFF 		bl	tcp_close
 3177              		.loc 2 1100 0
 3178 00fc 7B68     		ldr	r3, [r7, #4]
 3179 00fe 1B68     		ldr	r3, [r3]
 3180 0100 0022     		movs	r2, #0
 3181 0102 5A60     		str	r2, [r3, #4]
 3182              	.LBE7:
 3183 0104 03E0     		b	.L205
 3184              	.L207:
ARM GAS  C:\Users\Luis\AppData\Local\Temp\ccd19DXF.s 			page 59


 3185 0106 02E0     		b	.L205
 3186              	.L206:
 3187              		.loc 2 1105 0
 3188 0108 7B68     		ldr	r3, [r7, #4]
 3189 010a F222     		movs	r2, #242
 3190 010c 1A71     		strb	r2, [r3, #4]
 3191              	.L205:
 3192              		.loc 2 1109 0
 3193 010e 7B68     		ldr	r3, [r7, #4]
 3194 0110 1B68     		ldr	r3, [r3]
 3195 0112 0C33     		adds	r3, r3, #12
 3196 0114 1846     		mov	r0, r3
 3197 0116 FFF7FEFF 		bl	sys_sem_signal
 3198              		.loc 2 1110 0
 3199 011a 1037     		adds	r7, r7, #16
 3200 011c BD46     		mov	sp, r7
 3201              		@ sp needed
 3202 011e 80BD     		pop	{r7, pc}
 3203              	.L213:
 3204              		.align	2
 3205              	.L212:
 3206 0120 00000000 		.word	accept_function
 3207              		.cfi_endproc
 3208              	.LFE279:
 3209              		.size	do_listen, .-do_listen
 3210 0124 AFF30080 		.section	.text.do_send,"ax",%progbits
 3210      AFF30080 
 3210      AFF30080 
 3211              		.align	2
 3212              		.p2align 4,,15
 3213              		.global	do_send
 3214              		.thumb
 3215              		.thumb_func
 3216              		.type	do_send, %function
 3217              	do_send:
 3218              	.LFB280:
 3219              		.loc 2 1121 0
 3220              		.cfi_startproc
 3221              		@ args = 0, pretend = 0, frame = 8
 3222              		@ frame_needed = 1, uses_anonymous_args = 0
 3223 0000 80B5     		push	{r7, lr}
 3224              		.cfi_def_cfa_offset 8
 3225              		.cfi_offset 7, -8
 3226              		.cfi_offset 14, -4
 3227 0002 82B0     		sub	sp, sp, #8
 3228              		.cfi_def_cfa_offset 16
 3229 0004 00AF     		add	r7, sp, #0
 3230              		.cfi_def_cfa_register 7
 3231 0006 7860     		str	r0, [r7, #4]
 3232              		.loc 2 1122 0
 3233 0008 7B68     		ldr	r3, [r7, #4]
 3234 000a 1B68     		ldr	r3, [r3]
 3235 000c 1B7A     		ldrb	r3, [r3, #8]	@ zero_extendqisi2
 3236 000e 5BB2     		sxtb	r3, r3
 3237 0010 13F1090F 		cmn	r3, #9
 3238 0014 05DA     		bge	.L215
 3239              		.loc 2 1123 0
ARM GAS  C:\Users\Luis\AppData\Local\Temp\ccd19DXF.s 			page 60


 3240 0016 7B68     		ldr	r3, [r7, #4]
 3241 0018 1B68     		ldr	r3, [r3]
 3242 001a 1A7A     		ldrb	r2, [r3, #8]	@ zero_extendqisi2
 3243 001c 7B68     		ldr	r3, [r7, #4]
 3244 001e 1A71     		strb	r2, [r3, #4]
 3245 0020 6AE0     		b	.L216
 3246              	.L215:
 3247              		.loc 2 1125 0
 3248 0022 7B68     		ldr	r3, [r7, #4]
 3249 0024 F322     		movs	r2, #243
 3250 0026 1A71     		strb	r2, [r3, #4]
 3251              		.loc 2 1126 0
 3252 0028 7B68     		ldr	r3, [r7, #4]
 3253 002a 1B68     		ldr	r3, [r3]
 3254 002c 5B68     		ldr	r3, [r3, #4]
 3255 002e 002B     		cmp	r3, #0
 3256 0030 62D0     		beq	.L216
 3257              		.loc 2 1127 0
 3258 0032 7B68     		ldr	r3, [r7, #4]
 3259 0034 1B68     		ldr	r3, [r3]
 3260 0036 1B78     		ldrb	r3, [r3]	@ zero_extendqisi2
 3261 0038 03F0F003 		and	r3, r3, #240
 3262 003c 202B     		cmp	r3, #32
 3263 003e 2ED0     		beq	.L218
 3264 0040 402B     		cmp	r3, #64
 3265 0042 00D0     		beq	.L219
 3266              		.loc 2 1158 0
 3267 0044 58E0     		b	.L216
 3268              	.L219:
 3269              		.loc 2 1130 0
 3270 0046 7B68     		ldr	r3, [r7, #4]
 3271 0048 9B68     		ldr	r3, [r3, #8]
 3272 004a 0833     		adds	r3, r3, #8
 3273 004c 002B     		cmp	r3, #0
 3274 004e 04D0     		beq	.L220
 3275              		.loc 2 1130 0 is_stmt 0 discriminator 1
 3276 0050 7B68     		ldr	r3, [r7, #4]
 3277 0052 9B68     		ldr	r3, [r3, #8]
 3278 0054 9B68     		ldr	r3, [r3, #8]
 3279 0056 002B     		cmp	r3, #0
 3280 0058 0ED1     		bne	.L221
 3281              	.L220:
 3282              		.loc 2 1131 0 is_stmt 1
 3283 005a 7B68     		ldr	r3, [r7, #4]
 3284 005c 1B68     		ldr	r3, [r3]
 3285 005e 5A68     		ldr	r2, [r3, #4]
 3286 0060 7B68     		ldr	r3, [r7, #4]
 3287 0062 9B68     		ldr	r3, [r3, #8]
 3288 0064 1B68     		ldr	r3, [r3]
 3289 0066 1046     		mov	r0, r2
 3290 0068 1946     		mov	r1, r3
 3291 006a FFF7FEFF 		bl	raw_send
 3292 006e 0346     		mov	r3, r0
 3293 0070 1A46     		mov	r2, r3
 3294 0072 7B68     		ldr	r3, [r7, #4]
 3295 0074 1A71     		strb	r2, [r3, #4]
 3296              		.loc 2 1135 0
ARM GAS  C:\Users\Luis\AppData\Local\Temp\ccd19DXF.s 			page 61


 3297 0076 3FE0     		b	.L216
 3298              	.L221:
 3299              		.loc 2 1133 0
 3300 0078 7B68     		ldr	r3, [r7, #4]
 3301 007a 1B68     		ldr	r3, [r3]
 3302 007c 5968     		ldr	r1, [r3, #4]
 3303 007e 7B68     		ldr	r3, [r7, #4]
 3304 0080 9B68     		ldr	r3, [r3, #8]
 3305 0082 1A68     		ldr	r2, [r3]
 3306 0084 7B68     		ldr	r3, [r7, #4]
 3307 0086 9B68     		ldr	r3, [r3, #8]
 3308 0088 0833     		adds	r3, r3, #8
 3309 008a 0846     		mov	r0, r1
 3310 008c 1146     		mov	r1, r2
 3311 008e 1A46     		mov	r2, r3
 3312 0090 FFF7FEFF 		bl	raw_sendto
 3313 0094 0346     		mov	r3, r0
 3314 0096 1A46     		mov	r2, r3
 3315 0098 7B68     		ldr	r3, [r7, #4]
 3316 009a 1A71     		strb	r2, [r3, #4]
 3317              		.loc 2 1135 0
 3318 009c 2CE0     		b	.L216
 3319              	.L218:
 3320              		.loc 2 1149 0
 3321 009e 7B68     		ldr	r3, [r7, #4]
 3322 00a0 9B68     		ldr	r3, [r3, #8]
 3323 00a2 0833     		adds	r3, r3, #8
 3324 00a4 002B     		cmp	r3, #0
 3325 00a6 04D0     		beq	.L223
 3326              		.loc 2 1149 0 is_stmt 0 discriminator 1
 3327 00a8 7B68     		ldr	r3, [r7, #4]
 3328 00aa 9B68     		ldr	r3, [r3, #8]
 3329 00ac 9B68     		ldr	r3, [r3, #8]
 3330 00ae 002B     		cmp	r3, #0
 3331 00b0 0ED1     		bne	.L224
 3332              	.L223:
 3333              		.loc 2 1150 0 is_stmt 1
 3334 00b2 7B68     		ldr	r3, [r7, #4]
 3335 00b4 1B68     		ldr	r3, [r3]
 3336 00b6 5A68     		ldr	r2, [r3, #4]
 3337 00b8 7B68     		ldr	r3, [r7, #4]
 3338 00ba 9B68     		ldr	r3, [r3, #8]
 3339 00bc 1B68     		ldr	r3, [r3]
 3340 00be 1046     		mov	r0, r2
 3341 00c0 1946     		mov	r1, r3
 3342 00c2 FFF7FEFF 		bl	udp_send
 3343 00c6 0346     		mov	r3, r0
 3344 00c8 1A46     		mov	r2, r3
 3345 00ca 7B68     		ldr	r3, [r7, #4]
 3346 00cc 1A71     		strb	r2, [r3, #4]
 3347              		.loc 2 1155 0
 3348 00ce 12E0     		b	.L226
 3349              	.L224:
 3350              		.loc 2 1152 0
 3351 00d0 7B68     		ldr	r3, [r7, #4]
 3352 00d2 1B68     		ldr	r3, [r3]
 3353 00d4 5868     		ldr	r0, [r3, #4]
ARM GAS  C:\Users\Luis\AppData\Local\Temp\ccd19DXF.s 			page 62


 3354 00d6 7B68     		ldr	r3, [r7, #4]
 3355 00d8 9B68     		ldr	r3, [r3, #8]
 3356 00da 1968     		ldr	r1, [r3]
 3357 00dc 7B68     		ldr	r3, [r7, #4]
 3358 00de 9B68     		ldr	r3, [r3, #8]
 3359 00e0 03F10802 		add	r2, r3, #8
 3360 00e4 7B68     		ldr	r3, [r7, #4]
 3361 00e6 9B68     		ldr	r3, [r3, #8]
 3362 00e8 9B89     		ldrh	r3, [r3, #12]
 3363 00ea FFF7FEFF 		bl	udp_sendto
 3364 00ee 0346     		mov	r3, r0
 3365 00f0 1A46     		mov	r2, r3
 3366 00f2 7B68     		ldr	r3, [r7, #4]
 3367 00f4 1A71     		strb	r2, [r3, #4]
 3368              	.L226:
 3369              		.loc 2 1155 0
 3370 00f6 00BF     		nop
 3371              	.L216:
 3372              		.loc 2 1162 0
 3373 00f8 7B68     		ldr	r3, [r7, #4]
 3374 00fa 1B68     		ldr	r3, [r3]
 3375 00fc 0C33     		adds	r3, r3, #12
 3376 00fe 1846     		mov	r0, r3
 3377 0100 FFF7FEFF 		bl	sys_sem_signal
 3378              		.loc 2 1163 0
 3379 0104 0837     		adds	r7, r7, #8
 3380 0106 BD46     		mov	sp, r7
 3381              		@ sp needed
 3382 0108 80BD     		pop	{r7, pc}
 3383              		.cfi_endproc
 3384              	.LFE280:
 3385              		.size	do_send, .-do_send
 3386 010a 00BFAFF3 		.section	.text.do_recv,"ax",%progbits
 3386      0080
 3387              		.align	2
 3388              		.p2align 4,,15
 3389              		.global	do_recv
 3390              		.thumb
 3391              		.thumb_func
 3392              		.type	do_recv, %function
 3393              	do_recv:
 3394              	.LFB281:
 3395              		.loc 2 1174 0
 3396              		.cfi_startproc
 3397              		@ args = 0, pretend = 0, frame = 16
 3398              		@ frame_needed = 1, uses_anonymous_args = 0
 3399 0000 80B5     		push	{r7, lr}
 3400              		.cfi_def_cfa_offset 8
 3401              		.cfi_offset 7, -8
 3402              		.cfi_offset 14, -4
 3403 0002 84B0     		sub	sp, sp, #16
 3404              		.cfi_def_cfa_offset 24
 3405 0004 00AF     		add	r7, sp, #0
 3406              		.cfi_def_cfa_register 7
 3407 0006 7860     		str	r0, [r7, #4]
 3408              		.loc 2 1175 0
 3409 0008 7B68     		ldr	r3, [r7, #4]
ARM GAS  C:\Users\Luis\AppData\Local\Temp\ccd19DXF.s 			page 63


 3410 000a 0022     		movs	r2, #0
 3411 000c 1A71     		strb	r2, [r3, #4]
 3412              		.loc 2 1176 0
 3413 000e 7B68     		ldr	r3, [r7, #4]
 3414 0010 1B68     		ldr	r3, [r3]
 3415 0012 5B68     		ldr	r3, [r3, #4]
 3416 0014 002B     		cmp	r3, #0
 3417 0016 20D0     		beq	.L228
 3418              		.loc 2 1177 0
 3419 0018 7B68     		ldr	r3, [r7, #4]
 3420 001a 1B68     		ldr	r3, [r3]
 3421 001c 1B78     		ldrb	r3, [r3]	@ zero_extendqisi2
 3422 001e 102B     		cmp	r3, #16
 3423 0020 1BD1     		bne	.L228
 3424              	.LBB8:
 3425              		.loc 2 1184 0
 3426 0022 7B68     		ldr	r3, [r7, #4]
 3427 0024 9B68     		ldr	r3, [r3, #8]
 3428 0026 FB60     		str	r3, [r7, #12]
 3429              	.L231:
 3430              	.LBB9:
 3431              		.loc 2 1186 0
 3432 0028 FB68     		ldr	r3, [r7, #12]
 3433 002a B3F5803F 		cmp	r3, #65536
 3434 002e 02D2     		bcs	.L229
 3435              		.loc 2 1186 0 is_stmt 0 discriminator 1
 3436 0030 FB68     		ldr	r3, [r7, #12]
 3437 0032 9BB2     		uxth	r3, r3
 3438 0034 01E0     		b	.L230
 3439              	.L229:
 3440              		.loc 2 1186 0 discriminator 2
 3441 0036 4FF6FF73 		movw	r3, #65535
 3442              	.L230:
 3443              		.loc 2 1186 0 discriminator 3
 3444 003a 7B81     		strh	r3, [r7, #10]	@ movhi
 3445              		.loc 2 1187 0 is_stmt 1 discriminator 3
 3446 003c 7B68     		ldr	r3, [r7, #4]
 3447 003e 1B68     		ldr	r3, [r3]
 3448 0040 5A68     		ldr	r2, [r3, #4]
 3449 0042 7B89     		ldrh	r3, [r7, #10]
 3450 0044 1046     		mov	r0, r2
 3451 0046 1946     		mov	r1, r3
 3452 0048 FFF7FEFF 		bl	tcp_recved
 3453              		.loc 2 1188 0 discriminator 3
 3454 004c 7B89     		ldrh	r3, [r7, #10]
 3455 004e FA68     		ldr	r2, [r7, #12]
 3456 0050 D31A     		subs	r3, r2, r3
 3457 0052 FB60     		str	r3, [r7, #12]
 3458              	.LBE9:
 3459              		.loc 2 1189 0 discriminator 3
 3460 0054 FB68     		ldr	r3, [r7, #12]
 3461 0056 002B     		cmp	r3, #0
 3462 0058 E6D1     		bne	.L231
 3463              	.L228:
 3464              	.LBE8:
 3465              		.loc 2 1193 0
 3466 005a 7B68     		ldr	r3, [r7, #4]
ARM GAS  C:\Users\Luis\AppData\Local\Temp\ccd19DXF.s 			page 64


 3467 005c 1B68     		ldr	r3, [r3]
 3468 005e 0C33     		adds	r3, r3, #12
 3469 0060 1846     		mov	r0, r3
 3470 0062 FFF7FEFF 		bl	sys_sem_signal
 3471              		.loc 2 1194 0
 3472 0066 1037     		adds	r7, r7, #16
 3473 0068 BD46     		mov	sp, r7
 3474              		@ sp needed
 3475 006a 80BD     		pop	{r7, pc}
 3476              		.cfi_endproc
 3477              	.LFE281:
 3478              		.size	do_recv, .-do_recv
 3479 006c AFF30080 		.section	.rodata
 3480 038d 000000   		.align	2
 3481              	.LC26:
 3482 0390 636F6E6E 		.ascii	"conn->state == NETCONN_WRITE\000"
 3482      2D3E7374 
 3482      61746520 
 3482      3D3D204E 
 3482      4554434F 
 3483 03ad 000000   		.align	2
 3484              	.LC27:
 3485 03b0 636F6E6E 		.ascii	"conn->pcb.tcp != NULL\000"
 3485      2D3E7063 
 3485      622E7463 
 3485      7020213D 
 3485      204E554C 
 3486 03c6 0000     		.align	2
 3487              	.LC28:
 3488 03c8 636F6E6E 		.ascii	"conn->write_offset < conn->current_msg->msg.w.len\000"
 3488      2D3E7772 
 3488      6974655F 
 3488      6F666673 
 3488      6574203C 
 3489 03fa 0000     		.align	2
 3490              	.LC29:
 3491 03fc 646F5F77 		.ascii	"do_writemore: invalid length!\000"
 3491      72697465 
 3491      6D6F7265 
 3491      3A20696E 
 3491      76616C69 
 3492              		.section	.text.do_writemore,"ax",%progbits
 3493              		.align	2
 3494              		.p2align 4,,15
 3495              		.thumb
 3496              		.thumb_func
 3497              		.type	do_writemore, %function
 3498              	do_writemore:
 3499              	.LFB282:
 3500              		.loc 2 1209 0
 3501              		.cfi_startproc
 3502              		@ args = 0, pretend = 0, frame = 32
 3503              		@ frame_needed = 1, uses_anonymous_args = 0
 3504 0000 80B5     		push	{r7, lr}
 3505              		.cfi_def_cfa_offset 8
 3506              		.cfi_offset 7, -8
 3507              		.cfi_offset 14, -4
ARM GAS  C:\Users\Luis\AppData\Local\Temp\ccd19DXF.s 			page 65


 3508 0002 88B0     		sub	sp, sp, #32
 3509              		.cfi_def_cfa_offset 40
 3510 0004 00AF     		add	r7, sp, #0
 3511              		.cfi_def_cfa_register 7
 3512 0006 7860     		str	r0, [r7, #4]
 3513              		.loc 2 1213 0
 3514 0008 0023     		movs	r3, #0
 3515 000a FB76     		strb	r3, [r7, #27]
 3516              		.loc 2 1215 0
 3517 000c 7B68     		ldr	r3, [r7, #4]
 3518 000e 1B7F     		ldrb	r3, [r3, #28]	@ zero_extendqisi2
 3519 0010 03F00203 		and	r3, r3, #2
 3520 0014 002B     		cmp	r3, #0
 3521 0016 06D1     		bne	.L233
 3522              		.loc 2 1216 0 discriminator 2
 3523 0018 7B68     		ldr	r3, [r7, #4]
 3524 001a 5B6A     		ldr	r3, [r3, #36]
 3525 001c 1B7C     		ldrb	r3, [r3, #16]	@ zero_extendqisi2
 3526 001e 03F00403 		and	r3, r3, #4
 3527              		.loc 2 1215 0 discriminator 2
 3528 0022 002B     		cmp	r3, #0
 3529 0024 01D0     		beq	.L234
 3530              	.L233:
 3531              		.loc 2 1215 0 is_stmt 0 discriminator 1
 3532 0026 0123     		movs	r3, #1
 3533 0028 00E0     		b	.L235
 3534              	.L234:
 3535              		.loc 2 1215 0 discriminator 3
 3536 002a 0023     		movs	r3, #0
 3537              	.L235:
 3538              		.loc 2 1215 0 discriminator 4
 3539 002c 7B76     		strb	r3, [r7, #25]
 3540              		.loc 2 1217 0 is_stmt 1 discriminator 4
 3541 002e 7B68     		ldr	r3, [r7, #4]
 3542 0030 5B6A     		ldr	r3, [r3, #36]
 3543 0032 1B7C     		ldrb	r3, [r3, #16]
 3544 0034 BB76     		strb	r3, [r7, #26]
 3545              		.loc 2 1219 0 discriminator 4
 3546 0036 7B68     		ldr	r3, [r7, #4]
 3547 0038 002B     		cmp	r3, #0
 3548 003a 02D1     		bne	.L236
 3549              		.loc 2 1219 0 is_stmt 0 discriminator 1
 3550 003c 7B48     		ldr	r0, .L258
 3551 003e FFF7FEFF 		bl	osalSysHalt
 3552              	.L236:
 3553              		.loc 2 1220 0 is_stmt 1
 3554 0042 7B68     		ldr	r3, [r7, #4]
 3555 0044 5B78     		ldrb	r3, [r3, #1]	@ zero_extendqisi2
 3556 0046 012B     		cmp	r3, #1
 3557 0048 02D0     		beq	.L237
 3558              		.loc 2 1220 0 is_stmt 0 discriminator 1
 3559 004a 7948     		ldr	r0, .L258+4
 3560 004c FFF7FEFF 		bl	osalSysHalt
 3561              	.L237:
 3562              		.loc 2 1221 0 is_stmt 1
 3563 0050 7B68     		ldr	r3, [r7, #4]
 3564 0052 5B6A     		ldr	r3, [r3, #36]
ARM GAS  C:\Users\Luis\AppData\Local\Temp\ccd19DXF.s 			page 66


 3565 0054 002B     		cmp	r3, #0
 3566 0056 02D1     		bne	.L238
 3567              		.loc 2 1221 0 is_stmt 0 discriminator 1
 3568 0058 7648     		ldr	r0, .L258+8
 3569 005a FFF7FEFF 		bl	osalSysHalt
 3570              	.L238:
 3571              		.loc 2 1222 0 is_stmt 1
 3572 005e 7B68     		ldr	r3, [r7, #4]
 3573 0060 5B68     		ldr	r3, [r3, #4]
 3574 0062 002B     		cmp	r3, #0
 3575 0064 02D1     		bne	.L239
 3576              		.loc 2 1222 0 is_stmt 0 discriminator 1
 3577 0066 7448     		ldr	r0, .L258+12
 3578 0068 FFF7FEFF 		bl	osalSysHalt
 3579              	.L239:
 3580              		.loc 2 1223 0 is_stmt 1
 3581 006c 7B68     		ldr	r3, [r7, #4]
 3582 006e 1A6A     		ldr	r2, [r3, #32]
 3583 0070 7B68     		ldr	r3, [r7, #4]
 3584 0072 5B6A     		ldr	r3, [r3, #36]
 3585 0074 DB68     		ldr	r3, [r3, #12]
 3586 0076 9A42     		cmp	r2, r3
 3587 0078 02D3     		bcc	.L240
 3588              		.loc 2 1223 0 is_stmt 0 discriminator 1
 3589 007a 7048     		ldr	r0, .L258+16
 3590 007c FFF7FEFF 		bl	osalSysHalt
 3591              	.L240:
 3592              		.loc 2 1242 0 is_stmt 1
 3593 0080 7B68     		ldr	r3, [r7, #4]
 3594 0082 5B6A     		ldr	r3, [r3, #36]
 3595 0084 9A68     		ldr	r2, [r3, #8]
 3596 0086 7B68     		ldr	r3, [r7, #4]
 3597 0088 1B6A     		ldr	r3, [r3, #32]
 3598 008a 1344     		add	r3, r3, r2
 3599 008c 7B61     		str	r3, [r7, #20]
 3600              		.loc 2 1243 0
 3601 008e 7B68     		ldr	r3, [r7, #4]
 3602 0090 5B6A     		ldr	r3, [r3, #36]
 3603 0092 DA68     		ldr	r2, [r3, #12]
 3604 0094 7B68     		ldr	r3, [r7, #4]
 3605 0096 1B6A     		ldr	r3, [r3, #32]
 3606 0098 D31A     		subs	r3, r2, r3
 3607 009a 3B61     		str	r3, [r7, #16]
 3608              		.loc 2 1244 0
 3609 009c 3B69     		ldr	r3, [r7, #16]
 3610 009e B3F5803F 		cmp	r3, #65536
 3611 00a2 07D3     		bcc	.L241
 3612              		.loc 2 1245 0
 3613 00a4 4FF6FF73 		movw	r3, #65535
 3614 00a8 BB83     		strh	r3, [r7, #28]	@ movhi
 3615              		.loc 2 1249 0
 3616 00aa BB7E     		ldrb	r3, [r7, #26]
 3617 00ac 43F00203 		orr	r3, r3, #2
 3618 00b0 BB76     		strb	r3, [r7, #26]
 3619 00b2 01E0     		b	.L242
 3620              	.L241:
 3621              		.loc 2 1251 0
ARM GAS  C:\Users\Luis\AppData\Local\Temp\ccd19DXF.s 			page 67


 3622 00b4 3B69     		ldr	r3, [r7, #16]
 3623 00b6 BB83     		strh	r3, [r7, #28]	@ movhi
 3624              	.L242:
 3625              		.loc 2 1253 0
 3626 00b8 7B68     		ldr	r3, [r7, #4]
 3627 00ba 5B68     		ldr	r3, [r3, #4]
 3628 00bc B3F86630 		ldrh	r3, [r3, #102]	@ movhi
 3629 00c0 FB81     		strh	r3, [r7, #14]	@ movhi
 3630              		.loc 2 1254 0
 3631 00c2 FA89     		ldrh	r2, [r7, #14]
 3632 00c4 BB8B     		ldrh	r3, [r7, #28]
 3633 00c6 9A42     		cmp	r2, r3
 3634 00c8 0ED2     		bcs	.L243
 3635              		.loc 2 1256 0
 3636 00ca FB89     		ldrh	r3, [r7, #14]	@ movhi
 3637 00cc BB83     		strh	r3, [r7, #28]	@ movhi
 3638              		.loc 2 1257 0
 3639 00ce 7B7E     		ldrb	r3, [r7, #25]	@ zero_extendqisi2
 3640 00d0 002B     		cmp	r3, #0
 3641 00d2 05D0     		beq	.L244
 3642              		.loc 2 1258 0
 3643 00d4 BB8B     		ldrh	r3, [r7, #28]
 3644 00d6 002B     		cmp	r3, #0
 3645 00d8 06D1     		bne	.L243
 3646              		.loc 2 1259 0
 3647 00da F923     		movs	r3, #249
 3648 00dc FB77     		strb	r3, [r7, #31]
 3649              		.loc 2 1260 0
 3650 00de 22E0     		b	.L245
 3651              	.L244:
 3652              		.loc 2 1266 0
 3653 00e0 BB7E     		ldrb	r3, [r7, #26]
 3654 00e2 43F00203 		orr	r3, r3, #2
 3655 00e6 BB76     		strb	r3, [r7, #26]
 3656              	.L243:
 3657              		.loc 2 1269 0
 3658 00e8 7B68     		ldr	r3, [r7, #4]
 3659 00ea 1A6A     		ldr	r2, [r3, #32]
 3660 00ec BB8B     		ldrh	r3, [r7, #28]
 3661 00ee 1A44     		add	r2, r2, r3
 3662 00f0 7B68     		ldr	r3, [r7, #4]
 3663 00f2 5B6A     		ldr	r3, [r3, #36]
 3664 00f4 DB68     		ldr	r3, [r3, #12]
 3665 00f6 9A42     		cmp	r2, r3
 3666 00f8 02D9     		bls	.L246
 3667              		.loc 2 1269 0 is_stmt 0 discriminator 1
 3668 00fa 5148     		ldr	r0, .L258+20
 3669 00fc FFF7FEFF 		bl	osalSysHalt
 3670              	.L246:
 3671              		.loc 2 1270 0 is_stmt 1
 3672 0100 7B68     		ldr	r3, [r7, #4]
 3673 0102 5968     		ldr	r1, [r3, #4]
 3674 0104 BA8B     		ldrh	r2, [r7, #28]
 3675 0106 BB7E     		ldrb	r3, [r7, #26]	@ zero_extendqisi2
 3676 0108 0846     		mov	r0, r1
 3677 010a 7969     		ldr	r1, [r7, #20]
 3678 010c FFF7FEFF 		bl	tcp_write
ARM GAS  C:\Users\Luis\AppData\Local\Temp\ccd19DXF.s 			page 68


 3679 0110 0346     		mov	r3, r0
 3680 0112 FB77     		strb	r3, [r7, #31]
 3681              		.loc 2 1272 0
 3682 0114 97F91F30 		ldrsb	r3, [r7, #31]
 3683 0118 002B     		cmp	r3, #0
 3684 011a 04D0     		beq	.L245
 3685              		.loc 2 1272 0 is_stmt 0 discriminator 1
 3686 011c 97F91F30 		ldrsb	r3, [r7, #31]
 3687 0120 B3F1FF3F 		cmp	r3, #-1
 3688 0124 31D1     		bne	.L247
 3689              	.L245:
 3690              		.loc 2 1274 0 is_stmt 1
 3691 0126 7B7E     		ldrb	r3, [r7, #25]	@ zero_extendqisi2
 3692 0128 002B     		cmp	r3, #0
 3693 012a 17D0     		beq	.L248
 3694              		.loc 2 1274 0 is_stmt 0 discriminator 1
 3695 012c BA8B     		ldrh	r2, [r7, #28]
 3696 012e 7B68     		ldr	r3, [r7, #4]
 3697 0130 5B6A     		ldr	r3, [r3, #36]
 3698 0132 DB68     		ldr	r3, [r3, #12]
 3699 0134 9A42     		cmp	r2, r3
 3700 0136 11D2     		bcs	.L248
 3701              		.loc 2 1277 0 is_stmt 1
 3702 0138 7B68     		ldr	r3, [r7, #4]
 3703 013a 9B6A     		ldr	r3, [r3, #40]
 3704 013c 002B     		cmp	r3, #0
 3705 013e 05D0     		beq	.L249
 3706              		.loc 2 1277 0 is_stmt 0 discriminator 1
 3707 0140 7B68     		ldr	r3, [r7, #4]
 3708 0142 9B6A     		ldr	r3, [r3, #40]
 3709 0144 BA8B     		ldrh	r2, [r7, #28]
 3710 0146 7868     		ldr	r0, [r7, #4]
 3711 0148 0321     		movs	r1, #3
 3712 014a 9847     		blx	r3
 3713              	.L249:
 3714              		.loc 2 1278 0 is_stmt 1
 3715 014c 7B68     		ldr	r3, [r7, #4]
 3716 014e 1B7F     		ldrb	r3, [r3, #28]	@ zero_extendqisi2
 3717 0150 43F01003 		orr	r3, r3, #16
 3718 0154 DAB2     		uxtb	r2, r3
 3719 0156 7B68     		ldr	r3, [r7, #4]
 3720 0158 1A77     		strb	r2, [r3, #28]
 3721 015a 16E0     		b	.L247
 3722              	.L248:
 3723              		.loc 2 1279 0
 3724 015c 7B68     		ldr	r3, [r7, #4]
 3725 015e 5B68     		ldr	r3, [r3, #4]
 3726 0160 B3F86630 		ldrh	r3, [r3, #102]
 3727 0164 B3F5866F 		cmp	r3, #1072
 3728 0168 05D3     		bcc	.L250
 3729              		.loc 2 1280 0 discriminator 1
 3730 016a 7B68     		ldr	r3, [r7, #4]
 3731 016c 5B68     		ldr	r3, [r3, #4]
 3732 016e B3F86830 		ldrh	r3, [r3, #104]
 3733              		.loc 2 1279 0 discriminator 1
 3734 0172 042B     		cmp	r3, #4
 3735 0174 09D9     		bls	.L247
ARM GAS  C:\Users\Luis\AppData\Local\Temp\ccd19DXF.s 			page 69


 3736              	.L250:
 3737              		.loc 2 1283 0
 3738 0176 7B68     		ldr	r3, [r7, #4]
 3739 0178 9B6A     		ldr	r3, [r3, #40]
 3740 017a 002B     		cmp	r3, #0
 3741 017c 05D0     		beq	.L247
 3742              		.loc 2 1283 0 is_stmt 0 discriminator 1
 3743 017e 7B68     		ldr	r3, [r7, #4]
 3744 0180 9B6A     		ldr	r3, [r3, #40]
 3745 0182 BA8B     		ldrh	r2, [r7, #28]
 3746 0184 7868     		ldr	r0, [r7, #4]
 3747 0186 0321     		movs	r1, #3
 3748 0188 9847     		blx	r3
 3749              	.L247:
 3750              		.loc 2 1287 0 is_stmt 1
 3751 018a 97F91F30 		ldrsb	r3, [r7, #31]
 3752 018e 002B     		cmp	r3, #0
 3753 0190 1FD1     		bne	.L251
 3754              		.loc 2 1288 0
 3755 0192 7B68     		ldr	r3, [r7, #4]
 3756 0194 1A6A     		ldr	r2, [r3, #32]
 3757 0196 BB8B     		ldrh	r3, [r7, #28]
 3758 0198 1A44     		add	r2, r2, r3
 3759 019a 7B68     		ldr	r3, [r7, #4]
 3760 019c 1A62     		str	r2, [r3, #32]
 3761              		.loc 2 1289 0
 3762 019e 7B68     		ldr	r3, [r7, #4]
 3763 01a0 1A6A     		ldr	r2, [r3, #32]
 3764 01a2 7B68     		ldr	r3, [r7, #4]
 3765 01a4 5B6A     		ldr	r3, [r3, #36]
 3766 01a6 DB68     		ldr	r3, [r3, #12]
 3767 01a8 9A42     		cmp	r2, r3
 3768 01aa 02D0     		beq	.L252
 3769              		.loc 2 1289 0 is_stmt 0 discriminator 1
 3770 01ac 7B7E     		ldrb	r3, [r7, #25]	@ zero_extendqisi2
 3771 01ae 002B     		cmp	r3, #0
 3772 01b0 09D0     		beq	.L253
 3773              	.L252:
 3774              		.loc 2 1291 0 is_stmt 1
 3775 01b2 7B68     		ldr	r3, [r7, #4]
 3776 01b4 5B6A     		ldr	r3, [r3, #36]
 3777 01b6 7A68     		ldr	r2, [r7, #4]
 3778 01b8 126A     		ldr	r2, [r2, #32]
 3779 01ba DA60     		str	r2, [r3, #12]
 3780              		.loc 2 1293 0
 3781 01bc 0123     		movs	r3, #1
 3782 01be FB76     		strb	r3, [r7, #27]
 3783              		.loc 2 1294 0
 3784 01c0 7B68     		ldr	r3, [r7, #4]
 3785 01c2 0022     		movs	r2, #0
 3786 01c4 1A62     		str	r2, [r3, #32]
 3787              	.L253:
 3788              		.loc 2 1296 0
 3789 01c6 7B68     		ldr	r3, [r7, #4]
 3790 01c8 5B68     		ldr	r3, [r3, #4]
 3791 01ca 1846     		mov	r0, r3
 3792 01cc FFF7FEFF 		bl	tcp_output
ARM GAS  C:\Users\Luis\AppData\Local\Temp\ccd19DXF.s 			page 70


 3793 01d0 13E0     		b	.L254
 3794              	.L251:
 3795              		.loc 2 1297 0
 3796 01d2 97F91F30 		ldrsb	r3, [r7, #31]
 3797 01d6 B3F1FF3F 		cmp	r3, #-1
 3798 01da 08D1     		bne	.L255
 3799              		.loc 2 1297 0 is_stmt 0 discriminator 1
 3800 01dc 7B7E     		ldrb	r3, [r7, #25]	@ zero_extendqisi2
 3801 01de 002B     		cmp	r3, #0
 3802 01e0 05D1     		bne	.L255
 3803              		.loc 2 1303 0 is_stmt 1
 3804 01e2 7B68     		ldr	r3, [r7, #4]
 3805 01e4 5B68     		ldr	r3, [r3, #4]
 3806 01e6 1846     		mov	r0, r3
 3807 01e8 FFF7FEFF 		bl	tcp_output
 3808 01ec 05E0     		b	.L254
 3809              	.L255:
 3810              		.loc 2 1311 0
 3811 01ee 0123     		movs	r3, #1
 3812 01f0 FB76     		strb	r3, [r7, #27]
 3813              		.loc 2 1312 0
 3814 01f2 7B68     		ldr	r3, [r7, #4]
 3815 01f4 5B6A     		ldr	r3, [r3, #36]
 3816 01f6 0022     		movs	r2, #0
 3817 01f8 DA60     		str	r2, [r3, #12]
 3818              	.L254:
 3819              		.loc 2 1315 0
 3820 01fa FB7E     		ldrb	r3, [r7, #27]	@ zero_extendqisi2
 3821 01fc 002B     		cmp	r3, #0
 3822 01fe 0ED0     		beq	.L256
 3823              		.loc 2 1318 0
 3824 0200 7B68     		ldr	r3, [r7, #4]
 3825 0202 5B6A     		ldr	r3, [r3, #36]
 3826 0204 FA7F     		ldrb	r2, [r7, #31]
 3827 0206 1A71     		strb	r2, [r3, #4]
 3828              		.loc 2 1319 0
 3829 0208 7B68     		ldr	r3, [r7, #4]
 3830 020a 0022     		movs	r2, #0
 3831 020c 5A62     		str	r2, [r3, #36]
 3832              		.loc 2 1320 0
 3833 020e 7B68     		ldr	r3, [r7, #4]
 3834 0210 0022     		movs	r2, #0
 3835 0212 5A70     		strb	r2, [r3, #1]
 3836              		.loc 2 1325 0
 3837 0214 7B68     		ldr	r3, [r7, #4]
 3838 0216 0C33     		adds	r3, r3, #12
 3839 0218 1846     		mov	r0, r3
 3840 021a FFF7FEFF 		bl	sys_sem_signal
 3841              	.L256:
 3842              		.loc 2 1332 0
 3843 021e 0023     		movs	r3, #0
 3844 0220 5BB2     		sxtb	r3, r3
 3845              		.loc 2 1333 0
 3846 0222 1846     		mov	r0, r3
 3847 0224 2037     		adds	r7, r7, #32
 3848 0226 BD46     		mov	sp, r7
 3849              		@ sp needed
ARM GAS  C:\Users\Luis\AppData\Local\Temp\ccd19DXF.s 			page 71


 3850 0228 80BD     		pop	{r7, pc}
 3851              	.L259:
 3852 022a 00BF     		.align	2
 3853              	.L258:
 3854 022c C8000000 		.word	.LC6
 3855 0230 90030000 		.word	.LC26
 3856 0234 D8000000 		.word	.LC7
 3857 0238 B0030000 		.word	.LC27
 3858 023c C8030000 		.word	.LC28
 3859 0240 FC030000 		.word	.LC29
 3860              		.cfi_endproc
 3861              	.LFE282:
 3862              		.size	do_writemore, .-do_writemore
 3863 0244 AFF30080 		.section	.rodata
 3863      AFF30080 
 3863      AFF30080 
 3864 041a 0000     		.align	2
 3865              	.LC30:
 3866 041c 6D73672D 		.ascii	"msg->msg.w.len != 0\000"
 3866      3E6D7367 
 3866      2E772E6C 
 3866      656E2021 
 3866      3D203000 
 3867              		.section	.text.do_write,"ax",%progbits
 3868              		.align	2
 3869              		.p2align 4,,15
 3870              		.global	do_write
 3871              		.thumb
 3872              		.thumb_func
 3873              		.type	do_write, %function
 3874              	do_write:
 3875              	.LFB283:
 3876              		.loc 2 1344 0
 3877              		.cfi_startproc
 3878              		@ args = 0, pretend = 0, frame = 8
 3879              		@ frame_needed = 1, uses_anonymous_args = 0
 3880 0000 80B5     		push	{r7, lr}
 3881              		.cfi_def_cfa_offset 8
 3882              		.cfi_offset 7, -8
 3883              		.cfi_offset 14, -4
 3884 0002 82B0     		sub	sp, sp, #8
 3885              		.cfi_def_cfa_offset 16
 3886 0004 00AF     		add	r7, sp, #0
 3887              		.cfi_def_cfa_register 7
 3888 0006 7860     		str	r0, [r7, #4]
 3889              		.loc 2 1345 0
 3890 0008 7B68     		ldr	r3, [r7, #4]
 3891 000a 1B68     		ldr	r3, [r3]
 3892 000c 1B7A     		ldrb	r3, [r3, #8]	@ zero_extendqisi2
 3893 000e 5BB2     		sxtb	r3, r3
 3894 0010 13F1090F 		cmn	r3, #9
 3895 0014 05DA     		bge	.L261
 3896              		.loc 2 1346 0
 3897 0016 7B68     		ldr	r3, [r7, #4]
 3898 0018 1B68     		ldr	r3, [r3]
 3899 001a 1A7A     		ldrb	r2, [r3, #8]	@ zero_extendqisi2
 3900 001c 7B68     		ldr	r3, [r7, #4]
ARM GAS  C:\Users\Luis\AppData\Local\Temp\ccd19DXF.s 			page 72


 3901 001e 1A71     		strb	r2, [r3, #4]
 3902 0020 3FE0     		b	.L262
 3903              	.L261:
 3904              		.loc 2 1348 0
 3905 0022 7B68     		ldr	r3, [r7, #4]
 3906 0024 1B68     		ldr	r3, [r3]
 3907 0026 1B78     		ldrb	r3, [r3]	@ zero_extendqisi2
 3908 0028 102B     		cmp	r3, #16
 3909 002a 37D1     		bne	.L263
 3910              		.loc 2 1350 0
 3911 002c 7B68     		ldr	r3, [r7, #4]
 3912 002e 1B68     		ldr	r3, [r3]
 3913 0030 5B78     		ldrb	r3, [r3, #1]	@ zero_extendqisi2
 3914 0032 002B     		cmp	r3, #0
 3915 0034 03D0     		beq	.L264
 3916              		.loc 2 1352 0
 3917 0036 7B68     		ldr	r3, [r7, #4]
 3918 0038 FB22     		movs	r2, #251
 3919 003a 1A71     		strb	r2, [r3, #4]
 3920 003c 31E0     		b	.L262
 3921              	.L264:
 3922              		.loc 2 1353 0
 3923 003e 7B68     		ldr	r3, [r7, #4]
 3924 0040 1B68     		ldr	r3, [r3]
 3925 0042 5B68     		ldr	r3, [r3, #4]
 3926 0044 002B     		cmp	r3, #0
 3927 0046 25D0     		beq	.L266
 3928              		.loc 2 1354 0
 3929 0048 7B68     		ldr	r3, [r7, #4]
 3930 004a 1B68     		ldr	r3, [r3]
 3931 004c 0122     		movs	r2, #1
 3932 004e 5A70     		strb	r2, [r3, #1]
 3933              		.loc 2 1356 0
 3934 0050 7B68     		ldr	r3, [r7, #4]
 3935 0052 1B68     		ldr	r3, [r3]
 3936 0054 5B6A     		ldr	r3, [r3, #36]
 3937 0056 002B     		cmp	r3, #0
 3938 0058 04D1     		bne	.L267
 3939              		.loc 2 1356 0 is_stmt 0 discriminator 2
 3940 005a 7B68     		ldr	r3, [r7, #4]
 3941 005c 1B68     		ldr	r3, [r3]
 3942 005e 1B6A     		ldr	r3, [r3, #32]
 3943 0060 002B     		cmp	r3, #0
 3944 0062 02D0     		beq	.L268
 3945              	.L267:
 3946              		.loc 2 1356 0 discriminator 1
 3947 0064 1348     		ldr	r0, .L271
 3948 0066 FFF7FEFF 		bl	osalSysHalt
 3949              	.L268:
 3950              		.loc 2 1358 0 is_stmt 1
 3951 006a 7B68     		ldr	r3, [r7, #4]
 3952 006c DB68     		ldr	r3, [r3, #12]
 3953 006e 002B     		cmp	r3, #0
 3954 0070 02D1     		bne	.L269
 3955              		.loc 2 1358 0 is_stmt 0 discriminator 1
 3956 0072 1148     		ldr	r0, .L271+4
 3957 0074 FFF7FEFF 		bl	osalSysHalt
ARM GAS  C:\Users\Luis\AppData\Local\Temp\ccd19DXF.s 			page 73


 3958              	.L269:
 3959              		.loc 2 1359 0 is_stmt 1
 3960 0078 7B68     		ldr	r3, [r7, #4]
 3961 007a 1B68     		ldr	r3, [r3]
 3962 007c 7A68     		ldr	r2, [r7, #4]
 3963 007e 5A62     		str	r2, [r3, #36]
 3964              		.loc 2 1360 0
 3965 0080 7B68     		ldr	r3, [r7, #4]
 3966 0082 1B68     		ldr	r3, [r3]
 3967 0084 0022     		movs	r2, #0
 3968 0086 1A62     		str	r2, [r3, #32]
 3969              		.loc 2 1371 0
 3970 0088 7B68     		ldr	r3, [r7, #4]
 3971 008a 1B68     		ldr	r3, [r3]
 3972 008c 1846     		mov	r0, r3
 3973 008e FFF7FEFF 		bl	do_writemore
 3974              		.loc 2 1375 0
 3975 0092 0CE0     		b	.L260
 3976              	.L266:
 3977              		.loc 2 1377 0
 3978 0094 7B68     		ldr	r3, [r7, #4]
 3979 0096 F322     		movs	r2, #243
 3980 0098 1A71     		strb	r2, [r3, #4]
 3981 009a 02E0     		b	.L262
 3982              	.L263:
 3983              		.loc 2 1384 0
 3984 009c 7B68     		ldr	r3, [r7, #4]
 3985 009e FA22     		movs	r2, #250
 3986 00a0 1A71     		strb	r2, [r3, #4]
 3987              	.L262:
 3988              		.loc 2 1388 0
 3989 00a2 7B68     		ldr	r3, [r7, #4]
 3990 00a4 1B68     		ldr	r3, [r3]
 3991 00a6 0C33     		adds	r3, r3, #12
 3992 00a8 1846     		mov	r0, r3
 3993 00aa FFF7FEFF 		bl	sys_sem_signal
 3994              	.L260:
 3995              		.loc 2 1389 0
 3996 00ae 0837     		adds	r7, r7, #8
 3997 00b0 BD46     		mov	sp, r7
 3998              		@ sp needed
 3999 00b2 80BD     		pop	{r7, pc}
 4000              	.L272:
 4001              		.align	2
 4002              	.L271:
 4003 00b4 FC020000 		.word	.LC22
 4004 00b8 1C040000 		.word	.LC30
 4005              		.cfi_endproc
 4006              	.LFE283:
 4007              		.size	do_write, .-do_write
 4008 00bc AFF30080 		.section	.rodata
 4009              		.align	2
 4010              	.LC31:
 4011 0430 696E7661 		.ascii	"invalid netconn_type\000"
 4011      6C696420 
 4011      6E657463 
 4011      6F6E6E5F 
ARM GAS  C:\Users\Luis\AppData\Local\Temp\ccd19DXF.s 			page 74


 4011      74797065 
 4012 0445 000000   		.section	.text.do_getaddr,"ax",%progbits
 4013              		.align	2
 4014              		.p2align 4,,15
 4015              		.global	do_getaddr
 4016              		.thumb
 4017              		.thumb_func
 4018              		.type	do_getaddr, %function
 4019              	do_getaddr:
 4020              	.LFB284:
 4021              		.loc 2 1399 0
 4022              		.cfi_startproc
 4023              		@ args = 0, pretend = 0, frame = 8
 4024              		@ frame_needed = 1, uses_anonymous_args = 0
 4025 0000 80B5     		push	{r7, lr}
 4026              		.cfi_def_cfa_offset 8
 4027              		.cfi_offset 7, -8
 4028              		.cfi_offset 14, -4
 4029 0002 82B0     		sub	sp, sp, #8
 4030              		.cfi_def_cfa_offset 16
 4031 0004 00AF     		add	r7, sp, #0
 4032              		.cfi_def_cfa_register 7
 4033 0006 7860     		str	r0, [r7, #4]
 4034              		.loc 2 1400 0
 4035 0008 7B68     		ldr	r3, [r7, #4]
 4036 000a 1B68     		ldr	r3, [r3]
 4037 000c 5B68     		ldr	r3, [r3, #4]
 4038 000e 002B     		cmp	r3, #0
 4039 0010 66D0     		beq	.L274
 4040              		.loc 2 1401 0
 4041 0012 7B68     		ldr	r3, [r7, #4]
 4042 0014 9B68     		ldr	r3, [r3, #8]
 4043 0016 7A68     		ldr	r2, [r7, #4]
 4044 0018 127C     		ldrb	r2, [r2, #16]	@ zero_extendqisi2
 4045 001a 002A     		cmp	r2, #0
 4046 001c 05D0     		beq	.L275
 4047              		.loc 2 1401 0 is_stmt 0 discriminator 1
 4048 001e 7A68     		ldr	r2, [r7, #4]
 4049 0020 1268     		ldr	r2, [r2]
 4050 0022 5268     		ldr	r2, [r2, #4]
 4051 0024 1268     		ldr	r2, [r2]
 4052 0026 1A60     		str	r2, [r3]
 4053 0028 04E0     		b	.L276
 4054              	.L275:
 4055              		.loc 2 1402 0 is_stmt 1 discriminator 2
 4056 002a 7A68     		ldr	r2, [r7, #4]
 4057 002c 1268     		ldr	r2, [r2]
 4058 002e 5268     		ldr	r2, [r2, #4]
 4059              		.loc 2 1401 0 discriminator 2
 4060 0030 5268     		ldr	r2, [r2, #4]
 4061 0032 1A60     		str	r2, [r3]
 4062              	.L276:
 4063              		.loc 2 1404 0
 4064 0034 7B68     		ldr	r3, [r7, #4]
 4065 0036 0022     		movs	r2, #0
 4066 0038 1A71     		strb	r2, [r3, #4]
 4067              		.loc 2 1405 0
ARM GAS  C:\Users\Luis\AppData\Local\Temp\ccd19DXF.s 			page 75


 4068 003a 7B68     		ldr	r3, [r7, #4]
 4069 003c 1B68     		ldr	r3, [r3]
 4070 003e 1B78     		ldrb	r3, [r3]	@ zero_extendqisi2
 4071 0040 03F0F003 		and	r3, r3, #240
 4072 0044 202B     		cmp	r3, #32
 4073 0046 14D0     		beq	.L278
 4074 0048 402B     		cmp	r3, #64
 4075 004a 02D0     		beq	.L279
 4076 004c 102B     		cmp	r3, #16
 4077 004e 31D0     		beq	.L280
 4078 0050 41E0     		b	.L290
 4079              	.L279:
 4080              		.loc 2 1408 0
 4081 0052 7B68     		ldr	r3, [r7, #4]
 4082 0054 1B7C     		ldrb	r3, [r3, #16]	@ zero_extendqisi2
 4083 0056 002B     		cmp	r3, #0
 4084 0058 07D0     		beq	.L281
 4085              		.loc 2 1409 0
 4086 005a 7B68     		ldr	r3, [r7, #4]
 4087 005c DB68     		ldr	r3, [r3, #12]
 4088 005e 7A68     		ldr	r2, [r7, #4]
 4089 0060 1268     		ldr	r2, [r2]
 4090 0062 5268     		ldr	r2, [r2, #4]
 4091 0064 127C     		ldrb	r2, [r2, #16]	@ zero_extendqisi2
 4092 0066 1A80     		strh	r2, [r3]	@ movhi
 4093              		.loc 2 1414 0
 4094 0068 39E0     		b	.L283
 4095              	.L281:
 4096              		.loc 2 1412 0
 4097 006a 7B68     		ldr	r3, [r7, #4]
 4098 006c F322     		movs	r2, #243
 4099 006e 1A71     		strb	r2, [r3, #4]
 4100              		.loc 2 1414 0
 4101 0070 35E0     		b	.L283
 4102              	.L278:
 4103              		.loc 2 1418 0
 4104 0072 7B68     		ldr	r3, [r7, #4]
 4105 0074 1B7C     		ldrb	r3, [r3, #16]	@ zero_extendqisi2
 4106 0076 002B     		cmp	r3, #0
 4107 0078 07D0     		beq	.L284
 4108              		.loc 2 1419 0
 4109 007a 7B68     		ldr	r3, [r7, #4]
 4110 007c DB68     		ldr	r3, [r3, #12]
 4111 007e 7A68     		ldr	r2, [r7, #4]
 4112 0080 1268     		ldr	r2, [r2]
 4113 0082 5268     		ldr	r2, [r2, #4]
 4114 0084 528A     		ldrh	r2, [r2, #18]
 4115 0086 1A80     		strh	r2, [r3]	@ movhi
 4116 0088 13E0     		b	.L285
 4117              	.L284:
 4118              		.loc 2 1421 0
 4119 008a 7B68     		ldr	r3, [r7, #4]
 4120 008c 1B68     		ldr	r3, [r3]
 4121 008e 5B68     		ldr	r3, [r3, #4]
 4122 0090 1B7C     		ldrb	r3, [r3, #16]	@ zero_extendqisi2
 4123 0092 03F00403 		and	r3, r3, #4
 4124 0096 002B     		cmp	r3, #0
ARM GAS  C:\Users\Luis\AppData\Local\Temp\ccd19DXF.s 			page 76


 4125 0098 03D1     		bne	.L286
 4126              		.loc 2 1422 0
 4127 009a 7B68     		ldr	r3, [r7, #4]
 4128 009c F322     		movs	r2, #243
 4129 009e 1A71     		strb	r2, [r3, #4]
 4130 00a0 07E0     		b	.L285
 4131              	.L286:
 4132              		.loc 2 1424 0
 4133 00a2 7B68     		ldr	r3, [r7, #4]
 4134 00a4 DB68     		ldr	r3, [r3, #12]
 4135 00a6 7A68     		ldr	r2, [r7, #4]
 4136 00a8 1268     		ldr	r2, [r2]
 4137 00aa 5268     		ldr	r2, [r2, #4]
 4138 00ac 928A     		ldrh	r2, [r2, #20]
 4139 00ae 1A80     		strh	r2, [r3]	@ movhi
 4140              		.loc 2 1427 0
 4141 00b0 15E0     		b	.L283
 4142              	.L285:
 4143 00b2 14E0     		b	.L283
 4144              	.L280:
 4145              		.loc 2 1431 0
 4146 00b4 7B68     		ldr	r3, [r7, #4]
 4147 00b6 DA68     		ldr	r2, [r3, #12]
 4148 00b8 7B68     		ldr	r3, [r7, #4]
 4149 00ba 1B7C     		ldrb	r3, [r3, #16]	@ zero_extendqisi2
 4150 00bc 002B     		cmp	r3, #0
 4151 00be 04D0     		beq	.L287
 4152              		.loc 2 1431 0 is_stmt 0 discriminator 1
 4153 00c0 7B68     		ldr	r3, [r7, #4]
 4154 00c2 1B68     		ldr	r3, [r3]
 4155 00c4 5B68     		ldr	r3, [r3, #4]
 4156 00c6 5B8B     		ldrh	r3, [r3, #26]
 4157 00c8 03E0     		b	.L288
 4158              	.L287:
 4159              		.loc 2 1431 0 discriminator 2
 4160 00ca 7B68     		ldr	r3, [r7, #4]
 4161 00cc 1B68     		ldr	r3, [r3]
 4162 00ce 5B68     		ldr	r3, [r3, #4]
 4163 00d0 9B8B     		ldrh	r3, [r3, #28]
 4164              	.L288:
 4165              		.loc 2 1431 0 discriminator 3
 4166 00d2 1380     		strh	r3, [r2]	@ movhi
 4167              		.loc 2 1432 0 is_stmt 1 discriminator 3
 4168 00d4 03E0     		b	.L283
 4169              	.L290:
 4170              		.loc 2 1435 0
 4171 00d6 0848     		ldr	r0, .L291
 4172 00d8 FFF7FEFF 		bl	osalSysHalt
 4173              		.loc 2 1436 0
 4174 00dc 00BF     		nop
 4175              	.L283:
 4176 00de 02E0     		b	.L289
 4177              	.L274:
 4178              		.loc 2 1439 0
 4179 00e0 7B68     		ldr	r3, [r7, #4]
 4180 00e2 F322     		movs	r2, #243
 4181 00e4 1A71     		strb	r2, [r3, #4]
ARM GAS  C:\Users\Luis\AppData\Local\Temp\ccd19DXF.s 			page 77


 4182              	.L289:
 4183              		.loc 2 1441 0
 4184 00e6 7B68     		ldr	r3, [r7, #4]
 4185 00e8 1B68     		ldr	r3, [r3]
 4186 00ea 0C33     		adds	r3, r3, #12
 4187 00ec 1846     		mov	r0, r3
 4188 00ee FFF7FEFF 		bl	sys_sem_signal
 4189              		.loc 2 1442 0
 4190 00f2 0837     		adds	r7, r7, #8
 4191 00f4 BD46     		mov	sp, r7
 4192              		@ sp needed
 4193 00f6 80BD     		pop	{r7, pc}
 4194              	.L292:
 4195              		.align	2
 4196              	.L291:
 4197 00f8 30040000 		.word	.LC31
 4198              		.cfi_endproc
 4199              	.LFE284:
 4200              		.size	do_getaddr, .-do_getaddr
 4201 00fc AFF30080 		.section	.text.do_close,"ax",%progbits
 4202              		.align	2
 4203              		.p2align 4,,15
 4204              		.global	do_close
 4205              		.thumb
 4206              		.thumb_func
 4207              		.type	do_close, %function
 4208              	do_close:
 4209              	.LFB285:
 4210              		.loc 2 1452 0
 4211              		.cfi_startproc
 4212              		@ args = 0, pretend = 0, frame = 8
 4213              		@ frame_needed = 1, uses_anonymous_args = 0
 4214 0000 80B5     		push	{r7, lr}
 4215              		.cfi_def_cfa_offset 8
 4216              		.cfi_offset 7, -8
 4217              		.cfi_offset 14, -4
 4218 0002 82B0     		sub	sp, sp, #8
 4219              		.cfi_def_cfa_offset 16
 4220 0004 00AF     		add	r7, sp, #0
 4221              		.cfi_def_cfa_register 7
 4222 0006 7860     		str	r0, [r7, #4]
 4223              		.loc 2 1455 0
 4224 0008 7B68     		ldr	r3, [r7, #4]
 4225 000a 1B68     		ldr	r3, [r3]
 4226 000c 5B78     		ldrb	r3, [r3, #1]	@ zero_extendqisi2
 4227 000e 002B     		cmp	r3, #0
 4228 0010 10D0     		beq	.L294
 4229              		.loc 2 1455 0 is_stmt 0 discriminator 1
 4230 0012 7B68     		ldr	r3, [r7, #4]
 4231 0014 1B68     		ldr	r3, [r3]
 4232 0016 5B78     		ldrb	r3, [r3, #1]	@ zero_extendqisi2
 4233 0018 022B     		cmp	r3, #2
 4234 001a 0BD0     		beq	.L294
 4235              		.loc 2 1457 0 is_stmt 1
 4236 001c 7B68     		ldr	r3, [r7, #4]
 4237 001e 1B68     		ldr	r3, [r3]
 4238 0020 1B78     		ldrb	r3, [r3]	@ zero_extendqisi2
ARM GAS  C:\Users\Luis\AppData\Local\Temp\ccd19DXF.s 			page 78


 4239 0022 102B     		cmp	r3, #16
 4240 0024 02D0     		beq	.L295
 4241              		.loc 2 1457 0 is_stmt 0 discriminator 1
 4242 0026 2848     		ldr	r0, .L303
 4243 0028 FFF7FEFF 		bl	osalSysHalt
 4244              	.L295:
 4245              		.loc 2 1458 0 is_stmt 1
 4246 002c 7B68     		ldr	r3, [r7, #4]
 4247 002e FB22     		movs	r2, #251
 4248 0030 1A71     		strb	r2, [r3, #4]
 4249 0032 3FE0     		b	.L296
 4250              	.L294:
 4251              		.loc 2 1459 0
 4252 0034 7B68     		ldr	r3, [r7, #4]
 4253 0036 1B68     		ldr	r3, [r3]
 4254 0038 5B68     		ldr	r3, [r3, #4]
 4255 003a 002B     		cmp	r3, #0
 4256 003c 37D0     		beq	.L297
 4257              		.loc 2 1459 0 is_stmt 0 discriminator 1
 4258 003e 7B68     		ldr	r3, [r7, #4]
 4259 0040 1B68     		ldr	r3, [r3]
 4260 0042 1B78     		ldrb	r3, [r3]	@ zero_extendqisi2
 4261 0044 102B     		cmp	r3, #16
 4262 0046 32D1     		bne	.L297
 4263              		.loc 2 1460 0 is_stmt 1
 4264 0048 7B68     		ldr	r3, [r7, #4]
 4265 004a 1B7A     		ldrb	r3, [r3, #8]	@ zero_extendqisi2
 4266 004c 032B     		cmp	r3, #3
 4267 004e 08D0     		beq	.L298
 4268              		.loc 2 1460 0 is_stmt 0 discriminator 1
 4269 0050 7B68     		ldr	r3, [r7, #4]
 4270 0052 1B68     		ldr	r3, [r3]
 4271 0054 5B78     		ldrb	r3, [r3, #1]	@ zero_extendqisi2
 4272 0056 022B     		cmp	r3, #2
 4273 0058 03D1     		bne	.L298
 4274              		.loc 2 1462 0 is_stmt 1
 4275 005a 7B68     		ldr	r3, [r7, #4]
 4276 005c F322     		movs	r2, #243
 4277 005e 1A71     		strb	r2, [r3, #4]
 4278              		.loc 2 1460 0
 4279 0060 28E0     		b	.L296
 4280              	.L298:
 4281              		.loc 2 1464 0
 4282 0062 7B68     		ldr	r3, [r7, #4]
 4283 0064 1B7A     		ldrb	r3, [r3, #8]	@ zero_extendqisi2
 4284 0066 03F00103 		and	r3, r3, #1
 4285 006a 002B     		cmp	r3, #0
 4286 006c 04D0     		beq	.L299
 4287              		.loc 2 1466 0
 4288 006e 7B68     		ldr	r3, [r7, #4]
 4289 0070 1B68     		ldr	r3, [r3]
 4290 0072 1846     		mov	r0, r3
 4291 0074 FFF7FEFF 		bl	netconn_drain
 4292              	.L299:
 4293              		.loc 2 1468 0
 4294 0078 7B68     		ldr	r3, [r7, #4]
 4295 007a 1B68     		ldr	r3, [r3]
ARM GAS  C:\Users\Luis\AppData\Local\Temp\ccd19DXF.s 			page 79


 4296 007c 5B6A     		ldr	r3, [r3, #36]
 4297 007e 002B     		cmp	r3, #0
 4298 0080 04D1     		bne	.L300
 4299              		.loc 2 1468 0 is_stmt 0 discriminator 2
 4300 0082 7B68     		ldr	r3, [r7, #4]
 4301 0084 1B68     		ldr	r3, [r3]
 4302 0086 1B6A     		ldr	r3, [r3, #32]
 4303 0088 002B     		cmp	r3, #0
 4304 008a 02D0     		beq	.L301
 4305              	.L300:
 4306              		.loc 2 1468 0 discriminator 1
 4307 008c 0F48     		ldr	r0, .L303+4
 4308 008e FFF7FEFF 		bl	osalSysHalt
 4309              	.L301:
 4310              		.loc 2 1470 0 is_stmt 1
 4311 0092 7B68     		ldr	r3, [r7, #4]
 4312 0094 1B68     		ldr	r3, [r3]
 4313 0096 0422     		movs	r2, #4
 4314 0098 5A70     		strb	r2, [r3, #1]
 4315              		.loc 2 1471 0
 4316 009a 7B68     		ldr	r3, [r7, #4]
 4317 009c 1B68     		ldr	r3, [r3]
 4318 009e 7A68     		ldr	r2, [r7, #4]
 4319 00a0 5A62     		str	r2, [r3, #36]
 4320              		.loc 2 1472 0
 4321 00a2 7B68     		ldr	r3, [r7, #4]
 4322 00a4 1B68     		ldr	r3, [r3]
 4323 00a6 1846     		mov	r0, r3
 4324 00a8 FFF7FEFF 		bl	do_close_internal
 4325              		.loc 2 1474 0
 4326 00ac 08E0     		b	.L293
 4327              	.L297:
 4328              		.loc 2 1479 0
 4329 00ae 7B68     		ldr	r3, [r7, #4]
 4330 00b0 FA22     		movs	r2, #250
 4331 00b2 1A71     		strb	r2, [r3, #4]
 4332              	.L296:
 4333              		.loc 2 1481 0
 4334 00b4 7B68     		ldr	r3, [r7, #4]
 4335 00b6 1B68     		ldr	r3, [r3]
 4336 00b8 0C33     		adds	r3, r3, #12
 4337 00ba 1846     		mov	r0, r3
 4338 00bc FFF7FEFF 		bl	sys_sem_signal
 4339              	.L293:
 4340              		.loc 2 1482 0
 4341 00c0 0837     		adds	r7, r7, #8
 4342 00c2 BD46     		mov	sp, r7
 4343              		@ sp needed
 4344 00c4 80BD     		pop	{r7, pc}
 4345              	.L304:
 4346 00c6 00BF     		.align	2
 4347              	.L303:
 4348 00c8 BC020000 		.word	.LC20
 4349 00cc FC020000 		.word	.LC22
 4350              		.cfi_endproc
 4351              	.LFE285:
 4352              		.size	do_close, .-do_close
ARM GAS  C:\Users\Luis\AppData\Local\Temp\ccd19DXF.s 			page 80


 4353              		.text
 4354              	.Letext0:
 4355              		.file 3 "c:\\emtechesdk\\gcc\\lib\\gcc\\arm-none-eabi\\4.8.3\\include\\stddef.h"
 4356              		.file 4 "c:\\emtechesdk\\gcc\\arm-none-eabi\\include\\stdint.h"
 4357              		.file 5 "../../ChibiOS/os/rt/ports/ARMCMx/compilers/GCC/chtypes.h"
 4358              		.file 6 "../../ChibiOS/os/rt/include/chsystypes.h"
 4359              		.file 7 "../../ChibiOS/os/rt/include/chschd.h"
 4360              		.file 8 "../../ChibiOS/os/rt/ports/ARMCMx/chcore.h"
 4361              		.file 9 "../../ChibiOS/os/rt/ports/ARMCMx/chcore_v7m.h"
 4362              		.file 10 "../../ChibiOS/os/rt/include/chdebug.h"
 4363              		.file 11 "../../ChibiOS/os/rt/include/chtm.h"
 4364              		.file 12 "../../ChibiOS/os/rt/include/chstats.h"
 4365              		.file 13 "../../ChibiOS/os/rt/include/chsem.h"
 4366              		.file 14 "../../ChibiOS/os/rt/include/chmtx.h"
 4367              		.file 15 "../../ChibiOS/os/rt/include/chmboxes.h"
 4368              		.file 16 "../../ChibiOS/os/various/lwip_bindings/arch/cc.h"
 4369              		.file 17 "../../ChibiOS/ext/lwip/src/include/ipv4/lwip/ip_addr.h"
 4370              		.file 18 "../../ChibiOS/ext/lwip/src/include/lwip/err.h"
 4371              		.file 19 "../../ChibiOS/os/various/lwip_bindings/arch/sys_arch.h"
 4372              		.file 20 "../../ChibiOS/ext/lwip/src/include/lwip/pbuf.h"
 4373              		.file 21 "../../ChibiOS/ext/lwip/src/include/lwip/netbuf.h"
 4374              		.file 22 "../../ChibiOS/ext/lwip/src/include/lwip/api.h"
 4375              		.file 23 "../../ChibiOS/ext/lwip/src/include/ipv4/lwip/ip.h"
 4376              		.file 24 "../../ChibiOS/ext/lwip/src/include/lwip/tcp.h"
 4377              		.file 25 "../../ChibiOS/ext/lwip/src/include/lwip/udp.h"
 4378              		.file 26 "../../ChibiOS/ext/lwip/src/include/lwip/raw.h"
 4379              		.file 27 "../../ChibiOS/ext/lwip/src/include/lwip/api_msg.h"
 4380              		.file 28 "../../ChibiOS/ext/lwip/src/include/lwip/memp.h"
 4381              		.file 29 "../../ChibiOS/os/ext/CMSIS/include/core_cm4.h"
 4382              		.section	.debug_info,"",%progbits
 4383              	.Ldebug_info0:
 4384 0000 991A0000 		.4byte	0x1a99
 4385 0004 0400     		.2byte	0x4
 4386 0006 00000000 		.4byte	.Ldebug_abbrev0
 4387 000a 04       		.byte	0x4
 4388 000b 01       		.uleb128 0x1
 4389 000c 9F010000 		.4byte	.LASF338
 4390 0010 01       		.byte	0x1
 4391 0011 FB040000 		.4byte	.LASF339
 4392 0015 A7090000 		.4byte	.LASF340
 4393 0019 00000000 		.4byte	.Ldebug_ranges0+0
 4394 001d 00000000 		.4byte	0
 4395 0021 00000000 		.4byte	.Ldebug_line0
 4396 0025 02       		.uleb128 0x2
 4397 0026 04       		.byte	0x4
 4398 0027 05       		.byte	0x5
 4399 0028 696E7400 		.ascii	"int\000"
 4400 002c 03       		.uleb128 0x3
 4401 002d 3C050000 		.4byte	.LASF1
 4402 0031 03       		.byte	0x3
 4403 0032 D4       		.byte	0xd4
 4404 0033 37000000 		.4byte	0x37
 4405 0037 04       		.uleb128 0x4
 4406 0038 04       		.byte	0x4
 4407 0039 07       		.byte	0x7
 4408 003a F6000000 		.4byte	.LASF0
 4409 003e 03       		.uleb128 0x3
ARM GAS  C:\Users\Luis\AppData\Local\Temp\ccd19DXF.s 			page 81


 4410 003f 21060000 		.4byte	.LASF2
 4411 0043 04       		.byte	0x4
 4412 0044 29       		.byte	0x29
 4413 0045 49000000 		.4byte	0x49
 4414 0049 04       		.uleb128 0x4
 4415 004a 01       		.byte	0x1
 4416 004b 06       		.byte	0x6
 4417 004c E40D0000 		.4byte	.LASF3
 4418 0050 03       		.uleb128 0x3
 4419 0051 29070000 		.4byte	.LASF4
 4420 0055 04       		.byte	0x4
 4421 0056 2A       		.byte	0x2a
 4422 0057 5B000000 		.4byte	0x5b
 4423 005b 04       		.uleb128 0x4
 4424 005c 01       		.byte	0x1
 4425 005d 08       		.byte	0x8
 4426 005e 900C0000 		.4byte	.LASF5
 4427 0062 03       		.uleb128 0x3
 4428 0063 D4030000 		.4byte	.LASF6
 4429 0067 04       		.byte	0x4
 4430 0068 35       		.byte	0x35
 4431 0069 6D000000 		.4byte	0x6d
 4432 006d 04       		.uleb128 0x4
 4433 006e 02       		.byte	0x2
 4434 006f 05       		.byte	0x5
 4435 0070 2E0A0000 		.4byte	.LASF7
 4436 0074 03       		.uleb128 0x3
 4437 0075 50090000 		.4byte	.LASF8
 4438 0079 04       		.byte	0x4
 4439 007a 36       		.byte	0x36
 4440 007b 7F000000 		.4byte	0x7f
 4441 007f 04       		.uleb128 0x4
 4442 0080 02       		.byte	0x2
 4443 0081 07       		.byte	0x7
 4444 0082 F80D0000 		.4byte	.LASF9
 4445 0086 03       		.uleb128 0x3
 4446 0087 010C0000 		.4byte	.LASF10
 4447 008b 04       		.byte	0x4
 4448 008c 4F       		.byte	0x4f
 4449 008d 91000000 		.4byte	0x91
 4450 0091 04       		.uleb128 0x4
 4451 0092 04       		.byte	0x4
 4452 0093 05       		.byte	0x5
 4453 0094 660A0000 		.4byte	.LASF11
 4454 0098 03       		.uleb128 0x3
 4455 0099 3F030000 		.4byte	.LASF12
 4456 009d 04       		.byte	0x4
 4457 009e 50       		.byte	0x50
 4458 009f A3000000 		.4byte	0xa3
 4459 00a3 04       		.uleb128 0x4
 4460 00a4 04       		.byte	0x4
 4461 00a5 07       		.byte	0x7
 4462 00a6 C10B0000 		.4byte	.LASF13
 4463 00aa 04       		.uleb128 0x4
 4464 00ab 08       		.byte	0x8
 4465 00ac 05       		.byte	0x5
 4466 00ad EB060000 		.4byte	.LASF14
ARM GAS  C:\Users\Luis\AppData\Local\Temp\ccd19DXF.s 			page 82


 4467 00b1 03       		.uleb128 0x3
 4468 00b2 F30A0000 		.4byte	.LASF15
 4469 00b6 04       		.byte	0x4
 4470 00b7 78       		.byte	0x78
 4471 00b8 BC000000 		.4byte	0xbc
 4472 00bc 04       		.uleb128 0x4
 4473 00bd 08       		.byte	0x8
 4474 00be 07       		.byte	0x7
 4475 00bf F1030000 		.4byte	.LASF16
 4476 00c3 05       		.uleb128 0x5
 4477 00c4 86000000 		.4byte	0x86
 4478 00c8 03       		.uleb128 0x3
 4479 00c9 86090000 		.4byte	.LASF17
 4480 00cd 05       		.byte	0x5
 4481 00ce 45       		.byte	0x45
 4482 00cf 98000000 		.4byte	0x98
 4483 00d3 03       		.uleb128 0x3
 4484 00d4 9C060000 		.4byte	.LASF18
 4485 00d8 05       		.byte	0x5
 4486 00d9 46       		.byte	0x46
 4487 00da B1000000 		.4byte	0xb1
 4488 00de 03       		.uleb128 0x3
 4489 00df 2A090000 		.4byte	.LASF19
 4490 00e3 05       		.byte	0x5
 4491 00e4 48       		.byte	0x48
 4492 00e5 50000000 		.4byte	0x50
 4493 00e9 03       		.uleb128 0x3
 4494 00ea D2060000 		.4byte	.LASF20
 4495 00ee 05       		.byte	0x5
 4496 00ef 49       		.byte	0x49
 4497 00f0 50000000 		.4byte	0x50
 4498 00f4 03       		.uleb128 0x3
 4499 00f5 B90B0000 		.4byte	.LASF21
 4500 00f9 05       		.byte	0x5
 4501 00fa 4A       		.byte	0x4a
 4502 00fb 50000000 		.4byte	0x50
 4503 00ff 03       		.uleb128 0x3
 4504 0100 BB030000 		.4byte	.LASF22
 4505 0104 05       		.byte	0x5
 4506 0105 4C       		.byte	0x4c
 4507 0106 98000000 		.4byte	0x98
 4508 010a 03       		.uleb128 0x3
 4509 010b 0F080000 		.4byte	.LASF23
 4510 010f 05       		.byte	0x5
 4511 0110 4D       		.byte	0x4d
 4512 0111 86000000 		.4byte	0x86
 4513 0115 03       		.uleb128 0x3
 4514 0116 69030000 		.4byte	.LASF24
 4515 011a 05       		.byte	0x5
 4516 011b 4F       		.byte	0x4f
 4517 011c 98000000 		.4byte	0x98
 4518 0120 03       		.uleb128 0x3
 4519 0121 09080000 		.4byte	.LASF25
 4520 0125 05       		.byte	0x5
 4521 0126 51       		.byte	0x51
 4522 0127 86000000 		.4byte	0x86
 4523 012b 03       		.uleb128 0x3
ARM GAS  C:\Users\Luis\AppData\Local\Temp\ccd19DXF.s 			page 83


 4524 012c 32090000 		.4byte	.LASF26
 4525 0130 05       		.byte	0x5
 4526 0131 52       		.byte	0x52
 4527 0132 98000000 		.4byte	0x98
 4528 0136 03       		.uleb128 0x3
 4529 0137 B4000000 		.4byte	.LASF27
 4530 013b 06       		.byte	0x6
 4531 013c 33       		.byte	0x33
 4532 013d 98000000 		.4byte	0x98
 4533 0141 03       		.uleb128 0x3
 4534 0142 DF040000 		.4byte	.LASF28
 4535 0146 06       		.byte	0x6
 4536 0147 3F       		.byte	0x3f
 4537 0148 4C010000 		.4byte	0x14c
 4538 014c 06       		.uleb128 0x6
 4539 014d 79070000 		.4byte	.LASF51
 4540 0151 68       		.byte	0x68
 4541 0152 07       		.byte	0x7
 4542 0153 C2       		.byte	0xc2
 4543 0154 5F020000 		.4byte	0x25f
 4544 0158 07       		.uleb128 0x7
 4545 0159 F4040000 		.4byte	.LASF29
 4546 015d 07       		.byte	0x7
 4547 015e C3       		.byte	0xc3
 4548 015f 6A020000 		.4byte	0x26a
 4549 0163 00       		.byte	0
 4550 0164 07       		.uleb128 0x7
 4551 0165 9C0B0000 		.4byte	.LASF30
 4552 0169 07       		.byte	0x7
 4553 016a C5       		.byte	0xc5
 4554 016b 6A020000 		.4byte	0x26a
 4555 016f 04       		.byte	0x4
 4556 0170 07       		.uleb128 0x7
 4557 0171 7B000000 		.4byte	.LASF31
 4558 0175 07       		.byte	0x7
 4559 0176 C7       		.byte	0xc7
 4560 0177 FF000000 		.4byte	0xff
 4561 017b 08       		.byte	0x8
 4562 017c 07       		.uleb128 0x7
 4563 017d FC0A0000 		.4byte	.LASF32
 4564 0181 07       		.byte	0x7
 4565 0182 C8       		.byte	0xc8
 4566 0183 D3040000 		.4byte	0x4d3
 4567 0187 0C       		.byte	0xc
 4568 0188 07       		.uleb128 0x7
 4569 0189 7E040000 		.4byte	.LASF33
 4570 018d 07       		.byte	0x7
 4571 018e CA       		.byte	0xca
 4572 018f 6A020000 		.4byte	0x26a
 4573 0193 10       		.byte	0x10
 4574 0194 07       		.uleb128 0x7
 4575 0195 07070000 		.4byte	.LASF34
 4576 0199 07       		.byte	0x7
 4577 019a CB       		.byte	0xcb
 4578 019b 6A020000 		.4byte	0x26a
 4579 019f 14       		.byte	0x14
 4580 01a0 07       		.uleb128 0x7
ARM GAS  C:\Users\Luis\AppData\Local\Temp\ccd19DXF.s 			page 84


 4581 01a1 3D060000 		.4byte	.LASF35
 4582 01a5 07       		.byte	0x7
 4583 01a6 D2       		.byte	0xd2
 4584 01a7 77070000 		.4byte	0x777
 4585 01ab 18       		.byte	0x18
 4586 01ac 07       		.uleb128 0x7
 4587 01ad 19070000 		.4byte	.LASF36
 4588 01b1 07       		.byte	0x7
 4589 01b2 D8       		.byte	0xd8
 4590 01b3 89070000 		.4byte	0x789
 4591 01b7 1C       		.byte	0x1c
 4592 01b8 07       		.uleb128 0x7
 4593 01b9 CE070000 		.4byte	.LASF37
 4594 01bd 07       		.byte	0x7
 4595 01be DD       		.byte	0xdd
 4596 01bf E9000000 		.4byte	0xe9
 4597 01c3 20       		.byte	0x20
 4598 01c4 07       		.uleb128 0x7
 4599 01c5 49080000 		.4byte	.LASF38
 4600 01c9 07       		.byte	0x7
 4601 01ca E1       		.byte	0xe1
 4602 01cb DE000000 		.4byte	0xde
 4603 01cf 21       		.byte	0x21
 4604 01d0 07       		.uleb128 0x7
 4605 01d1 DC0C0000 		.4byte	.LASF39
 4606 01d5 07       		.byte	0x7
 4607 01d6 E6       		.byte	0xe6
 4608 01d7 F4000000 		.4byte	0xf4
 4609 01db 22       		.byte	0x22
 4610 01dc 08       		.uleb128 0x8
 4611 01dd 705F7500 		.ascii	"p_u\000"
 4612 01e1 07       		.byte	0x7
 4613 01e2 3101     		.2byte	0x131
 4614 01e4 B2060000 		.4byte	0x6b2
 4615 01e8 24       		.byte	0x24
 4616 01e9 09       		.uleb128 0x9
 4617 01ea 7D010000 		.4byte	.LASF40
 4618 01ee 07       		.byte	0x7
 4619 01ef 3601     		.2byte	0x136
 4620 01f1 70020000 		.4byte	0x270
 4621 01f5 28       		.byte	0x28
 4622 01f6 09       		.uleb128 0x9
 4623 01f7 380E0000 		.4byte	.LASF41
 4624 01fb 07       		.byte	0x7
 4625 01fc 3C01     		.2byte	0x13c
 4626 01fe 94020000 		.4byte	0x294
 4627 0202 2C       		.byte	0x2c
 4628 0203 09       		.uleb128 0x9
 4629 0204 0B090000 		.4byte	.LASF42
 4630 0208 07       		.byte	0x7
 4631 0209 4001     		.2byte	0x140
 4632 020b 0A010000 		.4byte	0x10a
 4633 020f 34       		.byte	0x34
 4634 0210 09       		.uleb128 0x9
 4635 0211 4B0A0000 		.4byte	.LASF43
 4636 0215 07       		.byte	0x7
 4637 0216 4601     		.2byte	0x146
ARM GAS  C:\Users\Luis\AppData\Local\Temp\ccd19DXF.s 			page 85


 4638 0218 15010000 		.4byte	0x115
 4639 021c 38       		.byte	0x38
 4640 021d 09       		.uleb128 0x9
 4641 021e 59070000 		.4byte	.LASF44
 4642 0222 07       		.byte	0x7
 4643 0223 4D01     		.2byte	0x14d
 4644 0225 71070000 		.4byte	0x771
 4645 0229 3C       		.byte	0x3c
 4646 022a 09       		.uleb128 0x9
 4647 022b 070A0000 		.4byte	.LASF45
 4648 022f 07       		.byte	0x7
 4649 0230 5101     		.2byte	0x151
 4650 0232 FF000000 		.4byte	0xff
 4651 0236 40       		.byte	0x40
 4652 0237 09       		.uleb128 0x9
 4653 0238 51070000 		.4byte	.LASF46
 4654 023c 07       		.byte	0x7
 4655 023d 5801     		.2byte	0x158
 4656 023f 47030000 		.4byte	0x347
 4657 0243 44       		.byte	0x44
 4658 0244 09       		.uleb128 0x9
 4659 0245 49070000 		.4byte	.LASF47
 4660 0249 07       		.byte	0x7
 4661 024a 5E01     		.2byte	0x15e
 4662 024c 63060000 		.4byte	0x663
 4663 0250 48       		.byte	0x48
 4664 0251 09       		.uleb128 0x9
 4665 0252 1E0E0000 		.4byte	.LASF48
 4666 0256 07       		.byte	0x7
 4667 0257 6201     		.2byte	0x162
 4668 0259 47030000 		.4byte	0x347
 4669 025d 60       		.byte	0x60
 4670 025e 00       		.byte	0
 4671 025f 03       		.uleb128 0x3
 4672 0260 49000000 		.4byte	.LASF49
 4673 0264 06       		.byte	0x6
 4674 0265 44       		.byte	0x44
 4675 0266 6A020000 		.4byte	0x26a
 4676 026a 0A       		.uleb128 0xa
 4677 026b 04       		.byte	0x4
 4678 026c 41010000 		.4byte	0x141
 4679 0270 03       		.uleb128 0x3
 4680 0271 57010000 		.4byte	.LASF50
 4681 0275 06       		.byte	0x6
 4682 0276 49       		.byte	0x49
 4683 0277 7B020000 		.4byte	0x27b
 4684 027b 06       		.uleb128 0x6
 4685 027c 00000000 		.4byte	.LASF52
 4686 0280 04       		.byte	0x4
 4687 0281 07       		.byte	0x7
 4688 0282 B0       		.byte	0xb0
 4689 0283 94020000 		.4byte	0x294
 4690 0287 07       		.uleb128 0x7
 4691 0288 F4040000 		.4byte	.LASF29
 4692 028c 07       		.byte	0x7
 4693 028d B1       		.byte	0xb1
 4694 028e 6A020000 		.4byte	0x26a
ARM GAS  C:\Users\Luis\AppData\Local\Temp\ccd19DXF.s 			page 86


 4695 0292 00       		.byte	0
 4696 0293 00       		.byte	0
 4697 0294 03       		.uleb128 0x3
 4698 0295 10000000 		.4byte	.LASF53
 4699 0299 06       		.byte	0x6
 4700 029a 50       		.byte	0x50
 4701 029b 9F020000 		.4byte	0x29f
 4702 029f 06       		.uleb128 0x6
 4703 02a0 D6070000 		.4byte	.LASF54
 4704 02a4 08       		.byte	0x8
 4705 02a5 07       		.byte	0x7
 4706 02a6 B7       		.byte	0xb7
 4707 02a7 C4020000 		.4byte	0x2c4
 4708 02ab 07       		.uleb128 0x7
 4709 02ac F4040000 		.4byte	.LASF29
 4710 02b0 07       		.byte	0x7
 4711 02b1 B8       		.byte	0xb8
 4712 02b2 6A020000 		.4byte	0x26a
 4713 02b6 00       		.byte	0
 4714 02b7 07       		.uleb128 0x7
 4715 02b8 9C0B0000 		.4byte	.LASF30
 4716 02bc 07       		.byte	0x7
 4717 02bd B9       		.byte	0xb9
 4718 02be 6A020000 		.4byte	0x26a
 4719 02c2 04       		.byte	0x4
 4720 02c3 00       		.byte	0
 4721 02c4 03       		.uleb128 0x3
 4722 02c5 D30B0000 		.4byte	.LASF55
 4723 02c9 06       		.byte	0x6
 4724 02ca 57       		.byte	0x57
 4725 02cb CF020000 		.4byte	0x2cf
 4726 02cf 0B       		.uleb128 0xb
 4727 02d0 94020000 		.4byte	.LASF56
 4728 02d4 1C       		.byte	0x1c
 4729 02d5 07       		.byte	0x7
 4730 02d6 9001     		.2byte	0x190
 4731 02d8 2B030000 		.4byte	0x32b
 4732 02dc 09       		.uleb128 0x9
 4733 02dd F2070000 		.4byte	.LASF57
 4734 02e1 07       		.byte	0x7
 4735 02e2 9101     		.2byte	0x191
 4736 02e4 94020000 		.4byte	0x294
 4737 02e8 00       		.byte	0
 4738 02e9 09       		.uleb128 0x9
 4739 02ea 75030000 		.4byte	.LASF58
 4740 02ee 07       		.byte	0x7
 4741 02ef 9201     		.2byte	0x192
 4742 02f1 FF000000 		.4byte	0xff
 4743 02f5 08       		.byte	0x8
 4744 02f6 09       		.uleb128 0x9
 4745 02f7 0B0E0000 		.4byte	.LASF59
 4746 02fb 07       		.byte	0x7
 4747 02fc 9401     		.2byte	0x194
 4748 02fe D3040000 		.4byte	0x4d3
 4749 0302 0C       		.byte	0xc
 4750 0303 09       		.uleb128 0x9
 4751 0304 01080000 		.4byte	.LASF60
ARM GAS  C:\Users\Luis\AppData\Local\Temp\ccd19DXF.s 			page 87


 4752 0308 07       		.byte	0x7
 4753 0309 9701     		.2byte	0x197
 4754 030b 6A020000 		.4byte	0x26a
 4755 030f 10       		.byte	0x10
 4756 0310 09       		.uleb128 0x9
 4757 0311 AC080000 		.4byte	.LASF61
 4758 0315 07       		.byte	0x7
 4759 0316 9801     		.2byte	0x198
 4760 0318 6A020000 		.4byte	0x26a
 4761 031c 14       		.byte	0x14
 4762 031d 09       		.uleb128 0x9
 4763 031e 410A0000 		.4byte	.LASF62
 4764 0322 07       		.byte	0x7
 4765 0323 9B01     		.2byte	0x19b
 4766 0325 6A020000 		.4byte	0x26a
 4767 0329 18       		.byte	0x18
 4768 032a 00       		.byte	0
 4769 032b 03       		.uleb128 0x3
 4770 032c 0A030000 		.4byte	.LASF63
 4771 0330 06       		.byte	0x6
 4772 0331 5C       		.byte	0x5c
 4773 0332 36030000 		.4byte	0x336
 4774 0336 0A       		.uleb128 0xa
 4775 0337 04       		.byte	0x4
 4776 0338 3C030000 		.4byte	0x33c
 4777 033c 0C       		.uleb128 0xc
 4778 033d 47030000 		.4byte	0x347
 4779 0341 0D       		.uleb128 0xd
 4780 0342 47030000 		.4byte	0x347
 4781 0346 00       		.byte	0
 4782 0347 0E       		.uleb128 0xe
 4783 0348 04       		.byte	0x4
 4784 0349 03       		.uleb128 0x3
 4785 034a 51080000 		.4byte	.LASF64
 4786 034e 06       		.byte	0x6
 4787 034f 61       		.byte	0x61
 4788 0350 54030000 		.4byte	0x354
 4789 0354 0B       		.uleb128 0xb
 4790 0355 C3030000 		.4byte	.LASF65
 4791 0359 14       		.byte	0x14
 4792 035a 07       		.byte	0x7
 4793 035b 6B01     		.2byte	0x16b
 4794 035d A3030000 		.4byte	0x3a3
 4795 0361 09       		.uleb128 0x9
 4796 0362 780D0000 		.4byte	.LASF66
 4797 0366 07       		.byte	0x7
 4798 0367 6C01     		.2byte	0x16c
 4799 0369 8F070000 		.4byte	0x78f
 4800 036d 00       		.byte	0
 4801 036e 09       		.uleb128 0x9
 4802 036f 7E0E0000 		.4byte	.LASF67
 4803 0373 07       		.byte	0x7
 4804 0374 6D01     		.2byte	0x16d
 4805 0376 8F070000 		.4byte	0x78f
 4806 037a 04       		.byte	0x4
 4807 037b 09       		.uleb128 0x9
 4808 037c 79060000 		.4byte	.LASF68
ARM GAS  C:\Users\Luis\AppData\Local\Temp\ccd19DXF.s 			page 88


 4809 0380 07       		.byte	0x7
 4810 0381 6E01     		.2byte	0x16e
 4811 0383 36010000 		.4byte	0x136
 4812 0387 08       		.byte	0x8
 4813 0388 09       		.uleb128 0x9
 4814 0389 690E0000 		.4byte	.LASF69
 4815 038d 07       		.byte	0x7
 4816 038e 6F01     		.2byte	0x16f
 4817 0390 2B030000 		.4byte	0x32b
 4818 0394 0C       		.byte	0xc
 4819 0395 09       		.uleb128 0x9
 4820 0396 840C0000 		.4byte	.LASF70
 4821 039a 07       		.byte	0x7
 4822 039b 7101     		.2byte	0x171
 4823 039d 47030000 		.4byte	0x347
 4824 03a1 10       		.byte	0x10
 4825 03a2 00       		.byte	0
 4826 03a3 03       		.uleb128 0x3
 4827 03a4 C60C0000 		.4byte	.LASF71
 4828 03a8 06       		.byte	0x6
 4829 03a9 66       		.byte	0x66
 4830 03aa AE030000 		.4byte	0x3ae
 4831 03ae 0B       		.uleb128 0xb
 4832 03af 86040000 		.4byte	.LASF72
 4833 03b3 10       		.byte	0x10
 4834 03b4 07       		.byte	0x7
 4835 03b5 7B01     		.2byte	0x17b
 4836 03b7 F0030000 		.4byte	0x3f0
 4837 03bb 09       		.uleb128 0x9
 4838 03bc 780D0000 		.4byte	.LASF66
 4839 03c0 07       		.byte	0x7
 4840 03c1 7C01     		.2byte	0x17c
 4841 03c3 8F070000 		.4byte	0x78f
 4842 03c7 00       		.byte	0
 4843 03c8 09       		.uleb128 0x9
 4844 03c9 7E0E0000 		.4byte	.LASF67
 4845 03cd 07       		.byte	0x7
 4846 03ce 7E01     		.2byte	0x17e
 4847 03d0 8F070000 		.4byte	0x78f
 4848 03d4 04       		.byte	0x4
 4849 03d5 09       		.uleb128 0x9
 4850 03d6 79060000 		.4byte	.LASF68
 4851 03da 07       		.byte	0x7
 4852 03db 8001     		.2byte	0x180
 4853 03dd 36010000 		.4byte	0x136
 4854 03e1 08       		.byte	0x8
 4855 03e2 09       		.uleb128 0x9
 4856 03e3 A5060000 		.4byte	.LASF73
 4857 03e7 07       		.byte	0x7
 4858 03e8 8801     		.2byte	0x188
 4859 03ea 36010000 		.4byte	0x136
 4860 03ee 0C       		.byte	0xc
 4861 03ef 00       		.byte	0
 4862 03f0 03       		.uleb128 0x3
 4863 03f1 C3060000 		.4byte	.LASF74
 4864 03f5 06       		.byte	0x6
 4865 03f6 6B       		.byte	0x6b
ARM GAS  C:\Users\Luis\AppData\Local\Temp\ccd19DXF.s 			page 89


 4866 03f7 FB030000 		.4byte	0x3fb
 4867 03fb 0F       		.uleb128 0xf
 4868 03fc 1A030000 		.4byte	.LASF75
 4869 0400 1404     		.2byte	0x414
 4870 0402 07       		.byte	0x7
 4871 0403 A201     		.2byte	0x1a2
 4872 0405 3E040000 		.4byte	0x43e
 4873 0409 09       		.uleb128 0x9
 4874 040a B70E0000 		.4byte	.LASF76
 4875 040e 07       		.byte	0x7
 4876 040f AA01     		.2byte	0x1aa
 4877 0411 95070000 		.4byte	0x795
 4878 0415 00       		.byte	0
 4879 0416 09       		.uleb128 0x9
 4880 0417 64040000 		.4byte	.LASF77
 4881 041b 07       		.byte	0x7
 4882 041c AF01     		.2byte	0x1af
 4883 041e 20010000 		.4byte	0x120
 4884 0422 04       		.byte	0x4
 4885 0423 09       		.uleb128 0x9
 4886 0424 9E090000 		.4byte	.LASF78
 4887 0428 07       		.byte	0x7
 4888 0429 B301     		.2byte	0x1b3
 4889 042b 20010000 		.4byte	0x120
 4890 042f 08       		.byte	0x8
 4891 0430 09       		.uleb128 0x9
 4892 0431 2F0C0000 		.4byte	.LASF79
 4893 0435 07       		.byte	0x7
 4894 0436 B901     		.2byte	0x1b9
 4895 0438 F5050000 		.4byte	0x5f5
 4896 043c 0C       		.byte	0xc
 4897 043d 00       		.byte	0
 4898 043e 03       		.uleb128 0x3
 4899 043f 8D0D0000 		.4byte	.LASF80
 4900 0443 06       		.byte	0x6
 4901 0444 70       		.byte	0x70
 4902 0445 49040000 		.4byte	0x449
 4903 0449 0F       		.uleb128 0xf
 4904 044a A00A0000 		.4byte	.LASF81
 4905 044e E805     		.2byte	0x5e8
 4906 0450 07       		.byte	0x7
 4907 0451 C201     		.2byte	0x1c2
 4908 0453 B6040000 		.4byte	0x4b6
 4909 0457 09       		.uleb128 0x9
 4910 0458 020B0000 		.4byte	.LASF82
 4911 045c 07       		.byte	0x7
 4912 045d C601     		.2byte	0x1c6
 4913 045f C4020000 		.4byte	0x2c4
 4914 0463 00       		.byte	0
 4915 0464 09       		.uleb128 0x9
 4916 0465 7A020000 		.4byte	.LASF83
 4917 0469 07       		.byte	0x7
 4918 046a CA01     		.2byte	0x1ca
 4919 046c A3030000 		.4byte	0x3a3
 4920 0470 1C       		.byte	0x1c
 4921 0471 08       		.uleb128 0x8
 4922 0472 64626700 		.ascii	"dbg\000"
ARM GAS  C:\Users\Luis\AppData\Local\Temp\ccd19DXF.s 			page 90


 4923 0476 07       		.byte	0x7
 4924 0477 CE01     		.2byte	0x1ce
 4925 0479 F0030000 		.4byte	0x3f0
 4926 047d 2C       		.byte	0x2c
 4927 047e 10       		.uleb128 0x10
 4928 047f 39090000 		.4byte	.LASF84
 4929 0483 07       		.byte	0x7
 4930 0484 D201     		.2byte	0x1d2
 4931 0486 41010000 		.4byte	0x141
 4932 048a 4004     		.2byte	0x440
 4933 048c 11       		.uleb128 0x11
 4934 048d 746D00   		.ascii	"tm\000"
 4935 0490 07       		.byte	0x7
 4936 0491 D701     		.2byte	0x1d7
 4937 0493 15060000 		.4byte	0x615
 4938 0497 A804     		.2byte	0x4a8
 4939 0499 10       		.uleb128 0x10
 4940 049a 83030000 		.4byte	.LASF85
 4941 049e 07       		.byte	0x7
 4942 049f DD01     		.2byte	0x1dd
 4943 04a1 A7060000 		.4byte	0x6a7
 4944 04a5 B004     		.2byte	0x4b0
 4945 04a7 10       		.uleb128 0x10
 4946 04a8 A2020000 		.4byte	.LASF86
 4947 04ac 07       		.byte	0x7
 4948 04ad E301     		.2byte	0x1e3
 4949 04af 9A070000 		.4byte	0x79a
 4950 04b3 E804     		.2byte	0x4e8
 4951 04b5 00       		.byte	0
 4952 04b6 04       		.uleb128 0x4
 4953 04b7 04       		.byte	0x4
 4954 04b8 07       		.byte	0x7
 4955 04b9 F6090000 		.4byte	.LASF87
 4956 04bd 03       		.uleb128 0x3
 4957 04be 72000000 		.4byte	.LASF88
 4958 04c2 08       		.byte	0x8
 4959 04c3 65       		.byte	0x65
 4960 04c4 47030000 		.4byte	0x347
 4961 04c8 03       		.uleb128 0x3
 4962 04c9 440D0000 		.4byte	.LASF89
 4963 04cd 08       		.byte	0x8
 4964 04ce 6D       		.byte	0x6d
 4965 04cf B1000000 		.4byte	0xb1
 4966 04d3 06       		.uleb128 0x6
 4967 04d4 EB080000 		.4byte	.LASF90
 4968 04d8 04       		.byte	0x4
 4969 04d9 08       		.byte	0x8
 4970 04da 89       		.byte	0x89
 4971 04db EC040000 		.4byte	0x4ec
 4972 04df 12       		.uleb128 0x12
 4973 04e0 72313300 		.ascii	"r13\000"
 4974 04e4 08       		.byte	0x8
 4975 04e5 8A       		.byte	0x8a
 4976 04e6 67050000 		.4byte	0x567
 4977 04ea 00       		.byte	0
 4978 04eb 00       		.byte	0
 4979 04ec 06       		.uleb128 0x6
ARM GAS  C:\Users\Luis\AppData\Local\Temp\ccd19DXF.s 			page 91


 4980 04ed 6F0A0000 		.4byte	.LASF91
 4981 04f1 24       		.byte	0x24
 4982 04f2 09       		.byte	0x9
 4983 04f3 F4       		.byte	0xf4
 4984 04f4 67050000 		.4byte	0x567
 4985 04f8 08       		.uleb128 0x8
 4986 04f9 723400   		.ascii	"r4\000"
 4987 04fc 09       		.byte	0x9
 4988 04fd 0701     		.2byte	0x107
 4989 04ff BD040000 		.4byte	0x4bd
 4990 0503 00       		.byte	0
 4991 0504 08       		.uleb128 0x8
 4992 0505 723500   		.ascii	"r5\000"
 4993 0508 09       		.byte	0x9
 4994 0509 0801     		.2byte	0x108
 4995 050b BD040000 		.4byte	0x4bd
 4996 050f 04       		.byte	0x4
 4997 0510 08       		.uleb128 0x8
 4998 0511 723600   		.ascii	"r6\000"
 4999 0514 09       		.byte	0x9
 5000 0515 0901     		.2byte	0x109
 5001 0517 BD040000 		.4byte	0x4bd
 5002 051b 08       		.byte	0x8
 5003 051c 08       		.uleb128 0x8
 5004 051d 723700   		.ascii	"r7\000"
 5005 0520 09       		.byte	0x9
 5006 0521 0A01     		.2byte	0x10a
 5007 0523 BD040000 		.4byte	0x4bd
 5008 0527 0C       		.byte	0xc
 5009 0528 08       		.uleb128 0x8
 5010 0529 723800   		.ascii	"r8\000"
 5011 052c 09       		.byte	0x9
 5012 052d 0B01     		.2byte	0x10b
 5013 052f BD040000 		.4byte	0x4bd
 5014 0533 10       		.byte	0x10
 5015 0534 08       		.uleb128 0x8
 5016 0535 723900   		.ascii	"r9\000"
 5017 0538 09       		.byte	0x9
 5018 0539 0C01     		.2byte	0x10c
 5019 053b BD040000 		.4byte	0x4bd
 5020 053f 14       		.byte	0x14
 5021 0540 08       		.uleb128 0x8
 5022 0541 72313000 		.ascii	"r10\000"
 5023 0545 09       		.byte	0x9
 5024 0546 0D01     		.2byte	0x10d
 5025 0548 BD040000 		.4byte	0x4bd
 5026 054c 18       		.byte	0x18
 5027 054d 08       		.uleb128 0x8
 5028 054e 72313100 		.ascii	"r11\000"
 5029 0552 09       		.byte	0x9
 5030 0553 0E01     		.2byte	0x10e
 5031 0555 BD040000 		.4byte	0x4bd
 5032 0559 1C       		.byte	0x1c
 5033 055a 08       		.uleb128 0x8
 5034 055b 6C7200   		.ascii	"lr\000"
 5035 055e 09       		.byte	0x9
 5036 055f 0F01     		.2byte	0x10f
ARM GAS  C:\Users\Luis\AppData\Local\Temp\ccd19DXF.s 			page 92


 5037 0561 BD040000 		.4byte	0x4bd
 5038 0565 20       		.byte	0x20
 5039 0566 00       		.byte	0
 5040 0567 0A       		.uleb128 0xa
 5041 0568 04       		.byte	0x4
 5042 0569 EC040000 		.4byte	0x4ec
 5043 056d 13       		.uleb128 0x13
 5044 056e 10       		.byte	0x10
 5045 056f 0A       		.byte	0xa
 5046 0570 51       		.byte	0x51
 5047 0571 A6050000 		.4byte	0x5a6
 5048 0575 07       		.uleb128 0x7
 5049 0576 D7040000 		.4byte	.LASF92
 5050 057a 0A       		.byte	0xa
 5051 057b 55       		.byte	0x55
 5052 057c 36010000 		.4byte	0x136
 5053 0580 00       		.byte	0
 5054 0581 07       		.uleb128 0x7
 5055 0582 DB060000 		.4byte	.LASF93
 5056 0586 0A       		.byte	0xa
 5057 0587 59       		.byte	0x59
 5058 0588 6A020000 		.4byte	0x26a
 5059 058c 04       		.byte	0x4
 5060 058d 07       		.uleb128 0x7
 5061 058e 08040000 		.4byte	.LASF94
 5062 0592 0A       		.byte	0xa
 5063 0593 5D       		.byte	0x5d
 5064 0594 47030000 		.4byte	0x347
 5065 0598 08       		.byte	0x8
 5066 0599 07       		.uleb128 0x7
 5067 059a D8080000 		.4byte	.LASF95
 5068 059e 0A       		.byte	0xa
 5069 059f 61       		.byte	0x61
 5070 05a0 50000000 		.4byte	0x50
 5071 05a4 0C       		.byte	0xc
 5072 05a5 00       		.byte	0
 5073 05a6 03       		.uleb128 0x3
 5074 05a7 600C0000 		.4byte	.LASF96
 5075 05ab 0A       		.byte	0xa
 5076 05ac 62       		.byte	0x62
 5077 05ad 6D050000 		.4byte	0x56d
 5078 05b1 14       		.uleb128 0x14
 5079 05b2 0804     		.2byte	0x408
 5080 05b4 0A       		.byte	0xa
 5081 05b5 67       		.byte	0x67
 5082 05b6 DF050000 		.4byte	0x5df
 5083 05ba 07       		.uleb128 0x7
 5084 05bb 83070000 		.4byte	.LASF97
 5085 05bf 0A       		.byte	0xa
 5086 05c0 6B       		.byte	0x6b
 5087 05c1 37000000 		.4byte	0x37
 5088 05c5 00       		.byte	0
 5089 05c6 07       		.uleb128 0x7
 5090 05c7 99080000 		.4byte	.LASF98
 5091 05cb 0A       		.byte	0xa
 5092 05cc 6F       		.byte	0x6f
 5093 05cd DF050000 		.4byte	0x5df
ARM GAS  C:\Users\Luis\AppData\Local\Temp\ccd19DXF.s 			page 93


 5094 05d1 04       		.byte	0x4
 5095 05d2 07       		.uleb128 0x7
 5096 05d3 83080000 		.4byte	.LASF99
 5097 05d7 0A       		.byte	0xa
 5098 05d8 73       		.byte	0x73
 5099 05d9 E5050000 		.4byte	0x5e5
 5100 05dd 08       		.byte	0x8
 5101 05de 00       		.byte	0
 5102 05df 0A       		.uleb128 0xa
 5103 05e0 04       		.byte	0x4
 5104 05e1 A6050000 		.4byte	0x5a6
 5105 05e5 15       		.uleb128 0x15
 5106 05e6 A6050000 		.4byte	0x5a6
 5107 05ea F5050000 		.4byte	0x5f5
 5108 05ee 16       		.uleb128 0x16
 5109 05ef B6040000 		.4byte	0x4b6
 5110 05f3 3F       		.byte	0x3f
 5111 05f4 00       		.byte	0
 5112 05f5 03       		.uleb128 0x3
 5113 05f6 C30D0000 		.4byte	.LASF100
 5114 05fa 0A       		.byte	0xa
 5115 05fb 74       		.byte	0x74
 5116 05fc B1050000 		.4byte	0x5b1
 5117 0600 13       		.uleb128 0x13
 5118 0601 04       		.byte	0x4
 5119 0602 0B       		.byte	0xb
 5120 0603 38       		.byte	0x38
 5121 0604 15060000 		.4byte	0x615
 5122 0608 07       		.uleb128 0x7
 5123 0609 12040000 		.4byte	.LASF101
 5124 060d 0B       		.byte	0xb
 5125 060e 3C       		.byte	0x3c
 5126 060f C8000000 		.4byte	0xc8
 5127 0613 00       		.byte	0
 5128 0614 00       		.byte	0
 5129 0615 03       		.uleb128 0x3
 5130 0616 11090000 		.4byte	.LASF102
 5131 061a 0B       		.byte	0xb
 5132 061b 3D       		.byte	0x3d
 5133 061c 00060000 		.4byte	0x600
 5134 0620 13       		.uleb128 0x13
 5135 0621 18       		.byte	0x18
 5136 0622 0B       		.byte	0xb
 5137 0623 48       		.byte	0x48
 5138 0624 63060000 		.4byte	0x663
 5139 0628 07       		.uleb128 0x7
 5140 0629 8B0C0000 		.4byte	.LASF103
 5141 062d 0B       		.byte	0xb
 5142 062e 49       		.byte	0x49
 5143 062f C8000000 		.4byte	0xc8
 5144 0633 00       		.byte	0
 5145 0634 07       		.uleb128 0x7
 5146 0635 6C040000 		.4byte	.LASF104
 5147 0639 0B       		.byte	0xb
 5148 063a 4A       		.byte	0x4a
 5149 063b C8000000 		.4byte	0xc8
 5150 063f 04       		.byte	0x4
ARM GAS  C:\Users\Luis\AppData\Local\Temp\ccd19DXF.s 			page 94


 5151 0640 07       		.uleb128 0x7
 5152 0641 DC050000 		.4byte	.LASF105
 5153 0645 0B       		.byte	0xb
 5154 0646 4B       		.byte	0x4b
 5155 0647 C8000000 		.4byte	0xc8
 5156 064b 08       		.byte	0x8
 5157 064c 12       		.uleb128 0x12
 5158 064d 6E00     		.ascii	"n\000"
 5159 064f 0B       		.byte	0xb
 5160 0650 4C       		.byte	0x4c
 5161 0651 2B010000 		.4byte	0x12b
 5162 0655 0C       		.byte	0xc
 5163 0656 07       		.uleb128 0x7
 5164 0657 72010000 		.4byte	.LASF106
 5165 065b 0B       		.byte	0xb
 5166 065c 4D       		.byte	0x4d
 5167 065d D3000000 		.4byte	0xd3
 5168 0661 10       		.byte	0x10
 5169 0662 00       		.byte	0
 5170 0663 03       		.uleb128 0x3
 5171 0664 0E060000 		.4byte	.LASF107
 5172 0668 0B       		.byte	0xb
 5173 0669 4E       		.byte	0x4e
 5174 066a 20060000 		.4byte	0x620
 5175 066e 13       		.uleb128 0x13
 5176 066f 38       		.byte	0x38
 5177 0670 0C       		.byte	0xc
 5178 0671 38       		.byte	0x38
 5179 0672 A7060000 		.4byte	0x6a7
 5180 0676 07       		.uleb128 0x7
 5181 0677 F0090000 		.4byte	.LASF108
 5182 067b 0C       		.byte	0xc
 5183 067c 39       		.byte	0x39
 5184 067d 2B010000 		.4byte	0x12b
 5185 0681 00       		.byte	0
 5186 0682 07       		.uleb128 0x7
 5187 0683 C3080000 		.4byte	.LASF109
 5188 0687 0C       		.byte	0xc
 5189 0688 3A       		.byte	0x3a
 5190 0689 2B010000 		.4byte	0x12b
 5191 068d 04       		.byte	0x4
 5192 068e 07       		.uleb128 0x7
 5193 068f B60A0000 		.4byte	.LASF110
 5194 0693 0C       		.byte	0xc
 5195 0694 3B       		.byte	0x3b
 5196 0695 63060000 		.4byte	0x663
 5197 0699 08       		.byte	0x8
 5198 069a 07       		.uleb128 0x7
 5199 069b 38010000 		.4byte	.LASF111
 5200 069f 0C       		.byte	0xc
 5201 06a0 3D       		.byte	0x3d
 5202 06a1 63060000 		.4byte	0x663
 5203 06a5 20       		.byte	0x20
 5204 06a6 00       		.byte	0
 5205 06a7 03       		.uleb128 0x3
 5206 06a8 5A030000 		.4byte	.LASF112
 5207 06ac 0C       		.byte	0xc
ARM GAS  C:\Users\Luis\AppData\Local\Temp\ccd19DXF.s 			page 95


 5208 06ad 3F       		.byte	0x3f
 5209 06ae 6E060000 		.4byte	0x66e
 5210 06b2 17       		.uleb128 0x17
 5211 06b3 04       		.byte	0x4
 5212 06b4 07       		.byte	0x7
 5213 06b5 FA       		.byte	0xfa
 5214 06b6 0F070000 		.4byte	0x70f
 5215 06ba 18       		.uleb128 0x18
 5216 06bb 43050000 		.4byte	.LASF113
 5217 06bf 07       		.byte	0x7
 5218 06c0 0101     		.2byte	0x101
 5219 06c2 0A010000 		.4byte	0x10a
 5220 06c6 18       		.uleb128 0x18
 5221 06c7 CC0E0000 		.4byte	.LASF114
 5222 06cb 07       		.byte	0x7
 5223 06cc 0801     		.2byte	0x108
 5224 06ce 0A010000 		.4byte	0x10a
 5225 06d2 18       		.uleb128 0x18
 5226 06d3 13030000 		.4byte	.LASF115
 5227 06d7 07       		.byte	0x7
 5228 06d8 0F01     		.2byte	0x10f
 5229 06da 47030000 		.4byte	0x347
 5230 06de 18       		.uleb128 0x18
 5231 06df C10E0000 		.4byte	.LASF116
 5232 06e3 07       		.byte	0x7
 5233 06e4 1601     		.2byte	0x116
 5234 06e6 0F070000 		.4byte	0x70f
 5235 06ea 18       		.uleb128 0x18
 5236 06eb 3C0C0000 		.4byte	.LASF117
 5237 06ef 07       		.byte	0x7
 5238 06f0 1E01     		.2byte	0x11e
 5239 06f2 3A070000 		.4byte	0x73a
 5240 06f6 18       		.uleb128 0x18
 5241 06f7 2E000000 		.4byte	.LASF118
 5242 06fb 07       		.byte	0x7
 5243 06fc 2701     		.2byte	0x127
 5244 06fe 71070000 		.4byte	0x771
 5245 0702 18       		.uleb128 0x18
 5246 0703 BA020000 		.4byte	.LASF119
 5247 0707 07       		.byte	0x7
 5248 0708 2F01     		.2byte	0x12f
 5249 070a 15010000 		.4byte	0x115
 5250 070e 00       		.byte	0
 5251 070f 0A       		.uleb128 0xa
 5252 0710 04       		.byte	0x4
 5253 0711 5F020000 		.4byte	0x25f
 5254 0715 06       		.uleb128 0x6
 5255 0716 AE030000 		.4byte	.LASF120
 5256 071a 0C       		.byte	0xc
 5257 071b 0D       		.byte	0xd
 5258 071c 34       		.byte	0x34
 5259 071d 3A070000 		.4byte	0x73a
 5260 0721 07       		.uleb128 0x7
 5261 0722 C6000000 		.4byte	.LASF121
 5262 0726 0D       		.byte	0xd
 5263 0727 35       		.byte	0x35
 5264 0728 94020000 		.4byte	0x294
ARM GAS  C:\Users\Luis\AppData\Local\Temp\ccd19DXF.s 			page 96


 5265 072c 00       		.byte	0
 5266 072d 07       		.uleb128 0x7
 5267 072e 2A030000 		.4byte	.LASF122
 5268 0732 0D       		.byte	0xd
 5269 0733 37       		.byte	0x37
 5270 0734 20010000 		.4byte	0x120
 5271 0738 08       		.byte	0x8
 5272 0739 00       		.byte	0
 5273 073a 0A       		.uleb128 0xa
 5274 073b 04       		.byte	0x4
 5275 073c 15070000 		.4byte	0x715
 5276 0740 06       		.uleb128 0x6
 5277 0741 AA050000 		.4byte	.LASF123
 5278 0745 10       		.byte	0x10
 5279 0746 0E       		.byte	0xe
 5280 0747 39       		.byte	0x39
 5281 0748 71070000 		.4byte	0x771
 5282 074c 07       		.uleb128 0x7
 5283 074d 560A0000 		.4byte	.LASF124
 5284 0751 0E       		.byte	0xe
 5285 0752 3A       		.byte	0x3a
 5286 0753 94020000 		.4byte	0x294
 5287 0757 00       		.byte	0
 5288 0758 07       		.uleb128 0x7
 5289 0759 BE000000 		.4byte	.LASF125
 5290 075d 0E       		.byte	0xe
 5291 075e 3C       		.byte	0x3c
 5292 075f 6A020000 		.4byte	0x26a
 5293 0763 08       		.byte	0x8
 5294 0764 07       		.uleb128 0x7
 5295 0765 D50D0000 		.4byte	.LASF126
 5296 0769 0E       		.byte	0xe
 5297 076a 3E       		.byte	0x3e
 5298 076b C0070000 		.4byte	0x7c0
 5299 076f 0C       		.byte	0xc
 5300 0770 00       		.byte	0
 5301 0771 0A       		.uleb128 0xa
 5302 0772 04       		.byte	0x4
 5303 0773 40070000 		.4byte	0x740
 5304 0777 0A       		.uleb128 0xa
 5305 0778 04       		.byte	0x4
 5306 0779 7D070000 		.4byte	0x77d
 5307 077d 19       		.uleb128 0x19
 5308 077e 82070000 		.4byte	0x782
 5309 0782 04       		.uleb128 0x4
 5310 0783 01       		.byte	0x1
 5311 0784 08       		.byte	0x8
 5312 0785 AB0D0000 		.4byte	.LASF127
 5313 0789 0A       		.uleb128 0xa
 5314 078a 04       		.byte	0x4
 5315 078b C8040000 		.4byte	0x4c8
 5316 078f 0A       		.uleb128 0xa
 5317 0790 04       		.byte	0x4
 5318 0791 49030000 		.4byte	0x349
 5319 0795 05       		.uleb128 0x5
 5320 0796 77070000 		.4byte	0x777
 5321 079a 15       		.uleb128 0x15
ARM GAS  C:\Users\Luis\AppData\Local\Temp\ccd19DXF.s 			page 97


 5322 079b C8040000 		.4byte	0x4c8
 5323 079f AA070000 		.4byte	0x7aa
 5324 07a3 16       		.uleb128 0x16
 5325 07a4 B6040000 		.4byte	0x4b6
 5326 07a8 1F       		.byte	0x1f
 5327 07a9 00       		.byte	0
 5328 07aa 03       		.uleb128 0x3
 5329 07ab 72040000 		.4byte	.LASF128
 5330 07af 0D       		.byte	0xd
 5331 07b0 38       		.byte	0x38
 5332 07b1 15070000 		.4byte	0x715
 5333 07b5 03       		.uleb128 0x3
 5334 07b6 6F0C0000 		.4byte	.LASF129
 5335 07ba 0E       		.byte	0xe
 5336 07bb 34       		.byte	0x34
 5337 07bc 40070000 		.4byte	0x740
 5338 07c0 0A       		.uleb128 0xa
 5339 07c1 04       		.byte	0x4
 5340 07c2 B5070000 		.4byte	0x7b5
 5341 07c6 13       		.uleb128 0x13
 5342 07c7 28       		.byte	0x28
 5343 07c8 0F       		.byte	0xf
 5344 07c9 38       		.byte	0x38
 5345 07ca 17080000 		.4byte	0x817
 5346 07ce 07       		.uleb128 0x7
 5347 07cf 0F070000 		.4byte	.LASF130
 5348 07d3 0F       		.byte	0xf
 5349 07d4 39       		.byte	0x39
 5350 07d5 17080000 		.4byte	0x817
 5351 07d9 00       		.byte	0
 5352 07da 07       		.uleb128 0x7
 5353 07db 92080000 		.4byte	.LASF131
 5354 07df 0F       		.byte	0xf
 5355 07e0 3B       		.byte	0x3b
 5356 07e1 17080000 		.4byte	0x817
 5357 07e5 04       		.byte	0x4
 5358 07e6 07       		.uleb128 0x7
 5359 07e7 380A0000 		.4byte	.LASF132
 5360 07eb 0F       		.byte	0xf
 5361 07ec 3D       		.byte	0x3d
 5362 07ed 17080000 		.4byte	0x817
 5363 07f1 08       		.byte	0x8
 5364 07f2 07       		.uleb128 0x7
 5365 07f3 73050000 		.4byte	.LASF133
 5366 07f7 0F       		.byte	0xf
 5367 07f8 3E       		.byte	0x3e
 5368 07f9 17080000 		.4byte	0x817
 5369 07fd 0C       		.byte	0xc
 5370 07fe 07       		.uleb128 0x7
 5371 07ff 31070000 		.4byte	.LASF134
 5372 0803 0F       		.byte	0xf
 5373 0804 3F       		.byte	0x3f
 5374 0805 AA070000 		.4byte	0x7aa
 5375 0809 10       		.byte	0x10
 5376 080a 07       		.uleb128 0x7
 5377 080b E1050000 		.4byte	.LASF135
 5378 080f 0F       		.byte	0xf
ARM GAS  C:\Users\Luis\AppData\Local\Temp\ccd19DXF.s 			page 98


 5379 0810 41       		.byte	0x41
 5380 0811 AA070000 		.4byte	0x7aa
 5381 0815 1C       		.byte	0x1c
 5382 0816 00       		.byte	0
 5383 0817 0A       		.uleb128 0xa
 5384 0818 04       		.byte	0x4
 5385 0819 0A010000 		.4byte	0x10a
 5386 081d 03       		.uleb128 0x3
 5387 081e 81050000 		.4byte	.LASF136
 5388 0822 0F       		.byte	0xf
 5389 0823 43       		.byte	0x43
 5390 0824 C6070000 		.4byte	0x7c6
 5391 0828 04       		.uleb128 0x4
 5392 0829 01       		.byte	0x1
 5393 082a 02       		.byte	0x2
 5394 082b 6D050000 		.4byte	.LASF137
 5395 082f 03       		.uleb128 0x3
 5396 0830 2A080000 		.4byte	.LASF138
 5397 0834 10       		.byte	0x10
 5398 0835 38       		.byte	0x38
 5399 0836 50000000 		.4byte	0x50
 5400 083a 03       		.uleb128 0x3
 5401 083b CD050000 		.4byte	.LASF139
 5402 083f 10       		.byte	0x10
 5403 0840 39       		.byte	0x39
 5404 0841 3E000000 		.4byte	0x3e
 5405 0845 03       		.uleb128 0x3
 5406 0846 8F010000 		.4byte	.LASF140
 5407 084a 10       		.byte	0x10
 5408 084b 3A       		.byte	0x3a
 5409 084c 74000000 		.4byte	0x74
 5410 0850 03       		.uleb128 0x3
 5411 0851 FB0B0000 		.4byte	.LASF141
 5412 0855 10       		.byte	0x10
 5413 0856 3B       		.byte	0x3b
 5414 0857 62000000 		.4byte	0x62
 5415 085b 03       		.uleb128 0x3
 5416 085c B00D0000 		.4byte	.LASF142
 5417 0860 10       		.byte	0x10
 5418 0861 3C       		.byte	0x3c
 5419 0862 98000000 		.4byte	0x98
 5420 0866 06       		.uleb128 0x6
 5421 0867 DE0E0000 		.4byte	.LASF143
 5422 086b 04       		.byte	0x4
 5423 086c 11       		.byte	0x11
 5424 086d 2C       		.byte	0x2c
 5425 086e 7F080000 		.4byte	0x87f
 5426 0872 07       		.uleb128 0x7
 5427 0873 640D0000 		.4byte	.LASF144
 5428 0877 11       		.byte	0x11
 5429 0878 2D       		.byte	0x2d
 5430 0879 5B080000 		.4byte	0x85b
 5431 087d 00       		.byte	0
 5432 087e 00       		.byte	0
 5433 087f 03       		.uleb128 0x3
 5434 0880 860E0000 		.4byte	.LASF145
 5435 0884 11       		.byte	0x11
ARM GAS  C:\Users\Luis\AppData\Local\Temp\ccd19DXF.s 			page 99


 5436 0885 40       		.byte	0x40
 5437 0886 66080000 		.4byte	0x866
 5438 088a 03       		.uleb128 0x3
 5439 088b 66010000 		.4byte	.LASF146
 5440 088f 12       		.byte	0x12
 5441 0890 2F       		.byte	0x2f
 5442 0891 3A080000 		.4byte	0x83a
 5443 0895 03       		.uleb128 0x3
 5444 0896 95010000 		.4byte	.LASF147
 5445 089a 13       		.byte	0x13
 5446 089b 38       		.byte	0x38
 5447 089c A0080000 		.4byte	0x8a0
 5448 08a0 0A       		.uleb128 0xa
 5449 08a1 04       		.byte	0x4
 5450 08a2 AA070000 		.4byte	0x7aa
 5451 08a6 03       		.uleb128 0x3
 5452 08a7 AE0B0000 		.4byte	.LASF148
 5453 08ab 13       		.byte	0x13
 5454 08ac 39       		.byte	0x39
 5455 08ad B1080000 		.4byte	0x8b1
 5456 08b1 0A       		.uleb128 0xa
 5457 08b2 04       		.byte	0x4
 5458 08b3 1D080000 		.4byte	0x81d
 5459 08b7 1A       		.uleb128 0x1a
 5460 08b8 01       		.byte	0x1
 5461 08b9 14       		.byte	0x14
 5462 08ba 32       		.byte	0x32
 5463 08bb D8080000 		.4byte	0x8d8
 5464 08bf 1B       		.uleb128 0x1b
 5465 08c0 30030000 		.4byte	.LASF149
 5466 08c4 00       		.sleb128 0
 5467 08c5 1B       		.uleb128 0x1b
 5468 08c6 52050000 		.4byte	.LASF150
 5469 08ca 01       		.sleb128 1
 5470 08cb 1B       		.uleb128 0x1b
 5471 08cc E1080000 		.4byte	.LASF151
 5472 08d0 02       		.sleb128 2
 5473 08d1 1B       		.uleb128 0x1b
 5474 08d2 6B090000 		.4byte	.LASF152
 5475 08d6 03       		.sleb128 3
 5476 08d7 00       		.byte	0
 5477 08d8 1A       		.uleb128 0x1a
 5478 08d9 01       		.byte	0x1
 5479 08da 14       		.byte	0x14
 5480 08db 39       		.byte	0x39
 5481 08dc F9080000 		.4byte	0x8f9
 5482 08e0 1B       		.uleb128 0x1b
 5483 08e1 8F000000 		.4byte	.LASF153
 5484 08e5 00       		.sleb128 0
 5485 08e6 1B       		.uleb128 0x1b
 5486 08e7 A60E0000 		.4byte	.LASF154
 5487 08eb 01       		.sleb128 1
 5488 08ec 1B       		.uleb128 0x1b
 5489 08ed BA040000 		.4byte	.LASF155
 5490 08f1 02       		.sleb128 2
 5491 08f2 1B       		.uleb128 0x1b
 5492 08f3 8B050000 		.4byte	.LASF156
ARM GAS  C:\Users\Luis\AppData\Local\Temp\ccd19DXF.s 			page 100


 5493 08f7 03       		.sleb128 3
 5494 08f8 00       		.byte	0
 5495 08f9 06       		.uleb128 0x6
 5496 08fa 0C0D0000 		.4byte	.LASF157
 5497 08fe 10       		.byte	0x10
 5498 08ff 14       		.byte	0x14
 5499 0900 4F       		.byte	0x4f
 5500 0901 5A090000 		.4byte	0x95a
 5501 0905 07       		.uleb128 0x7
 5502 0906 14010000 		.4byte	.LASF158
 5503 090a 14       		.byte	0x14
 5504 090b 51       		.byte	0x51
 5505 090c 5A090000 		.4byte	0x95a
 5506 0910 00       		.byte	0
 5507 0911 07       		.uleb128 0x7
 5508 0912 4A050000 		.4byte	.LASF159
 5509 0916 14       		.byte	0x14
 5510 0917 54       		.byte	0x54
 5511 0918 47030000 		.4byte	0x347
 5512 091c 04       		.byte	0x4
 5513 091d 07       		.uleb128 0x7
 5514 091e 2D050000 		.4byte	.LASF160
 5515 0922 14       		.byte	0x14
 5516 0923 5D       		.byte	0x5d
 5517 0924 45080000 		.4byte	0x845
 5518 0928 08       		.byte	0x8
 5519 0929 12       		.uleb128 0x12
 5520 092a 6C656E00 		.ascii	"len\000"
 5521 092e 14       		.byte	0x14
 5522 092f 60       		.byte	0x60
 5523 0930 45080000 		.4byte	0x845
 5524 0934 0A       		.byte	0xa
 5525 0935 07       		.uleb128 0x7
 5526 0936 3C070000 		.4byte	.LASF161
 5527 093a 14       		.byte	0x14
 5528 093b 63       		.byte	0x63
 5529 093c 2F080000 		.4byte	0x82f
 5530 0940 0C       		.byte	0xc
 5531 0941 07       		.uleb128 0x7
 5532 0942 AE000000 		.4byte	.LASF162
 5533 0946 14       		.byte	0x14
 5534 0947 66       		.byte	0x66
 5535 0948 2F080000 		.4byte	0x82f
 5536 094c 0D       		.byte	0xd
 5537 094d 12       		.uleb128 0x12
 5538 094e 72656600 		.ascii	"ref\000"
 5539 0952 14       		.byte	0x14
 5540 0953 6D       		.byte	0x6d
 5541 0954 45080000 		.4byte	0x845
 5542 0958 0E       		.byte	0xe
 5543 0959 00       		.byte	0
 5544 095a 0A       		.uleb128 0xa
 5545 095b 04       		.byte	0x4
 5546 095c F9080000 		.4byte	0x8f9
 5547 0960 0A       		.uleb128 0xa
 5548 0961 04       		.byte	0x4
 5549 0962 7F080000 		.4byte	0x87f
ARM GAS  C:\Users\Luis\AppData\Local\Temp\ccd19DXF.s 			page 101


 5550 0966 06       		.uleb128 0x6
 5551 0967 72060000 		.4byte	.LASF163
 5552 096b 10       		.byte	0x10
 5553 096c 15       		.byte	0x15
 5554 096d 30       		.byte	0x30
 5555 096e A1090000 		.4byte	0x9a1
 5556 0972 12       		.uleb128 0x12
 5557 0973 7000     		.ascii	"p\000"
 5558 0975 15       		.byte	0x15
 5559 0976 31       		.byte	0x31
 5560 0977 5A090000 		.4byte	0x95a
 5561 097b 00       		.byte	0
 5562 097c 12       		.uleb128 0x12
 5563 097d 70747200 		.ascii	"ptr\000"
 5564 0981 15       		.byte	0x15
 5565 0982 31       		.byte	0x31
 5566 0983 5A090000 		.4byte	0x95a
 5567 0987 04       		.byte	0x4
 5568 0988 07       		.uleb128 0x7
 5569 0989 640D0000 		.4byte	.LASF144
 5570 098d 15       		.byte	0x15
 5571 098e 32       		.byte	0x32
 5572 098f 7F080000 		.4byte	0x87f
 5573 0993 08       		.byte	0x8
 5574 0994 07       		.uleb128 0x7
 5575 0995 4C060000 		.4byte	.LASF164
 5576 0999 15       		.byte	0x15
 5577 099a 33       		.byte	0x33
 5578 099b 45080000 		.4byte	0x845
 5579 099f 0C       		.byte	0xc
 5580 09a0 00       		.byte	0
 5581 09a1 1C       		.uleb128 0x1c
 5582 09a2 82000000 		.4byte	.LASF171
 5583 09a6 01       		.byte	0x1
 5584 09a7 16       		.byte	0x16
 5585 09a8 53       		.byte	0x53
 5586 09a9 D3090000 		.4byte	0x9d3
 5587 09ad 1B       		.uleb128 0x1b
 5588 09ae 20040000 		.4byte	.LASF165
 5589 09b2 00       		.sleb128 0
 5590 09b3 1B       		.uleb128 0x1b
 5591 09b4 F70C0000 		.4byte	.LASF166
 5592 09b8 10       		.sleb128 16
 5593 09b9 1B       		.uleb128 0x1b
 5594 09ba E8040000 		.4byte	.LASF167
 5595 09be 20       		.sleb128 32
 5596 09bf 1B       		.uleb128 0x1b
 5597 09c0 430E0000 		.4byte	.LASF168
 5598 09c4 21       		.sleb128 33
 5599 09c5 1B       		.uleb128 0x1b
 5600 09c6 43010000 		.4byte	.LASF169
 5601 09ca 22       		.sleb128 34
 5602 09cb 1B       		.uleb128 0x1b
 5603 09cc 250E0000 		.4byte	.LASF170
 5604 09d0 C000     		.sleb128 64
 5605 09d2 00       		.byte	0
 5606 09d3 1C       		.uleb128 0x1c
ARM GAS  C:\Users\Luis\AppData\Local\Temp\ccd19DXF.s 			page 102


 5607 09d4 FC020000 		.4byte	.LASF172
 5608 09d8 01       		.byte	0x1
 5609 09d9 16       		.byte	0x16
 5610 09da 61       		.byte	0x61
 5611 09db FE090000 		.4byte	0x9fe
 5612 09df 1B       		.uleb128 0x1b
 5613 09e0 59090000 		.4byte	.LASF173
 5614 09e4 00       		.sleb128 0
 5615 09e5 1B       		.uleb128 0x1b
 5616 09e6 980E0000 		.4byte	.LASF174
 5617 09ea 01       		.sleb128 1
 5618 09eb 1B       		.uleb128 0x1b
 5619 09ec 200D0000 		.4byte	.LASF175
 5620 09f0 02       		.sleb128 2
 5621 09f1 1B       		.uleb128 0x1b
 5622 09f2 8E090000 		.4byte	.LASF176
 5623 09f6 03       		.sleb128 3
 5624 09f7 1B       		.uleb128 0x1b
 5625 09f8 F9060000 		.4byte	.LASF177
 5626 09fc 04       		.sleb128 4
 5627 09fd 00       		.byte	0
 5628 09fe 1C       		.uleb128 0x1c
 5629 09ff 430C0000 		.4byte	.LASF178
 5630 0a03 01       		.byte	0x1
 5631 0a04 16       		.byte	0x16
 5632 0a05 6A       		.byte	0x6a
 5633 0a06 290A0000 		.4byte	0xa29
 5634 0a0a 1B       		.uleb128 0x1b
 5635 0a0b C3040000 		.4byte	.LASF179
 5636 0a0f 00       		.sleb128 0
 5637 0a10 1B       		.uleb128 0x1b
 5638 0a11 28060000 		.4byte	.LASF180
 5639 0a15 01       		.sleb128 1
 5640 0a16 1B       		.uleb128 0x1b
 5641 0a17 ED050000 		.4byte	.LASF181
 5642 0a1b 02       		.sleb128 2
 5643 0a1c 1B       		.uleb128 0x1b
 5644 0a1d 48040000 		.4byte	.LASF182
 5645 0a21 03       		.sleb128 3
 5646 0a22 1B       		.uleb128 0x1b
 5647 0a23 19010000 		.4byte	.LASF183
 5648 0a27 04       		.sleb128 4
 5649 0a28 00       		.byte	0
 5650 0a29 03       		.uleb128 0x3
 5651 0a2a 4F0C0000 		.4byte	.LASF184
 5652 0a2e 16       		.byte	0x16
 5653 0a2f 83       		.byte	0x83
 5654 0a30 340A0000 		.4byte	0xa34
 5655 0a34 0A       		.uleb128 0xa
 5656 0a35 04       		.byte	0x4
 5657 0a36 3A0A0000 		.4byte	0xa3a
 5658 0a3a 0C       		.uleb128 0xc
 5659 0a3b 4F0A0000 		.4byte	0xa4f
 5660 0a3f 0D       		.uleb128 0xd
 5661 0a40 4F0A0000 		.4byte	0xa4f
 5662 0a44 0D       		.uleb128 0xd
 5663 0a45 FE090000 		.4byte	0x9fe
ARM GAS  C:\Users\Luis\AppData\Local\Temp\ccd19DXF.s 			page 103


 5664 0a49 0D       		.uleb128 0xd
 5665 0a4a 45080000 		.4byte	0x845
 5666 0a4e 00       		.byte	0
 5667 0a4f 0A       		.uleb128 0xa
 5668 0a50 04       		.byte	0x4
 5669 0a51 550A0000 		.4byte	0xa55
 5670 0a55 06       		.uleb128 0x6
 5671 0a56 900E0000 		.4byte	.LASF185
 5672 0a5a 2C       		.byte	0x2c
 5673 0a5b 16       		.byte	0x16
 5674 0a5c 86       		.byte	0x86
 5675 0a5d F20A0000 		.4byte	0xaf2
 5676 0a61 07       		.uleb128 0x7
 5677 0a62 3C070000 		.4byte	.LASF161
 5678 0a66 16       		.byte	0x16
 5679 0a67 88       		.byte	0x88
 5680 0a68 A1090000 		.4byte	0x9a1
 5681 0a6c 00       		.byte	0
 5682 0a6d 07       		.uleb128 0x7
 5683 0a6e 690D0000 		.4byte	.LASF186
 5684 0a72 16       		.byte	0x16
 5685 0a73 8A       		.byte	0x8a
 5686 0a74 D3090000 		.4byte	0x9d3
 5687 0a78 01       		.byte	0x1
 5688 0a79 12       		.uleb128 0x12
 5689 0a7a 70636200 		.ascii	"pcb\000"
 5690 0a7e 16       		.byte	0x16
 5691 0a7f 91       		.byte	0x91
 5692 0a80 F20A0000 		.4byte	0xaf2
 5693 0a84 04       		.byte	0x4
 5694 0a85 07       		.uleb128 0x7
 5695 0a86 B3050000 		.4byte	.LASF187
 5696 0a8a 16       		.byte	0x16
 5697 0a8b 93       		.byte	0x93
 5698 0a8c 8A080000 		.4byte	0x88a
 5699 0a90 08       		.byte	0x8
 5700 0a91 07       		.uleb128 0x7
 5701 0a92 710E0000 		.4byte	.LASF188
 5702 0a96 16       		.byte	0x16
 5703 0a97 95       		.byte	0x95
 5704 0a98 95080000 		.4byte	0x895
 5705 0a9c 0C       		.byte	0xc
 5706 0a9d 07       		.uleb128 0x7
 5707 0a9e DB000000 		.4byte	.LASF189
 5708 0aa2 16       		.byte	0x16
 5709 0aa3 98       		.byte	0x98
 5710 0aa4 A6080000 		.4byte	0x8a6
 5711 0aa8 10       		.byte	0x10
 5712 0aa9 07       		.uleb128 0x7
 5713 0aaa 6E070000 		.4byte	.LASF190
 5714 0aae 16       		.byte	0x16
 5715 0aaf 9C       		.byte	0x9c
 5716 0ab0 A6080000 		.4byte	0x8a6
 5717 0ab4 14       		.byte	0x14
 5718 0ab5 07       		.uleb128 0x7
 5719 0ab6 2D0B0000 		.4byte	.LASF191
 5720 0aba 16       		.byte	0x16
ARM GAS  C:\Users\Luis\AppData\Local\Temp\ccd19DXF.s 			page 104


 5721 0abb A0       		.byte	0xa0
 5722 0abc 25000000 		.4byte	0x25
 5723 0ac0 18       		.byte	0x18
 5724 0ac1 07       		.uleb128 0x7
 5725 0ac2 AE000000 		.4byte	.LASF162
 5726 0ac6 16       		.byte	0x16
 5727 0ac7 B6       		.byte	0xb6
 5728 0ac8 2F080000 		.4byte	0x82f
 5729 0acc 1C       		.byte	0x1c
 5730 0acd 07       		.uleb128 0x7
 5731 0ace 570D0000 		.4byte	.LASF192
 5732 0ad2 16       		.byte	0x16
 5733 0ad3 BA       		.byte	0xba
 5734 0ad4 2C000000 		.4byte	0x2c
 5735 0ad8 20       		.byte	0x20
 5736 0ad9 07       		.uleb128 0x7
 5737 0ada AA0A0000 		.4byte	.LASF193
 5738 0ade 16       		.byte	0x16
 5739 0adf BE       		.byte	0xbe
 5740 0ae0 740F0000 		.4byte	0xf74
 5741 0ae4 24       		.byte	0x24
 5742 0ae5 07       		.uleb128 0x7
 5743 0ae6 6F0D0000 		.4byte	.LASF194
 5744 0aea 16       		.byte	0x16
 5745 0aeb C1       		.byte	0xc1
 5746 0aec 290A0000 		.4byte	0xa29
 5747 0af0 28       		.byte	0x28
 5748 0af1 00       		.byte	0
 5749 0af2 17       		.uleb128 0x17
 5750 0af3 04       		.byte	0x4
 5751 0af4 16       		.byte	0x16
 5752 0af5 8C       		.byte	0x8c
 5753 0af6 260B0000 		.4byte	0xb26
 5754 0afa 1D       		.uleb128 0x1d
 5755 0afb 697000   		.ascii	"ip\000"
 5756 0afe 16       		.byte	0x16
 5757 0aff 8D       		.byte	0x8d
 5758 0b00 6F0B0000 		.4byte	0xb6f
 5759 0b04 1D       		.uleb128 0x1d
 5760 0b05 74637000 		.ascii	"tcp\000"
 5761 0b09 16       		.byte	0x16
 5762 0b0a 8E       		.byte	0x8e
 5763 0b0b 270E0000 		.4byte	0xe27
 5764 0b0f 1D       		.uleb128 0x1d
 5765 0b10 75647000 		.ascii	"udp\000"
 5766 0b14 16       		.byte	0x16
 5767 0b15 8F       		.byte	0x8f
 5768 0b16 BE0E0000 		.4byte	0xebe
 5769 0b1a 1D       		.uleb128 0x1d
 5770 0b1b 72617700 		.ascii	"raw\000"
 5771 0b1f 16       		.byte	0x16
 5772 0b20 90       		.byte	0x90
 5773 0b21 3D0F0000 		.4byte	0xf3d
 5774 0b25 00       		.byte	0
 5775 0b26 06       		.uleb128 0x6
 5776 0b27 F00C0000 		.4byte	.LASF195
 5777 0b2b 0C       		.byte	0xc
ARM GAS  C:\Users\Luis\AppData\Local\Temp\ccd19DXF.s 			page 105


 5778 0b2c 17       		.byte	0x17
 5779 0b2d 59       		.byte	0x59
 5780 0b2e 6F0B0000 		.4byte	0xb6f
 5781 0b32 07       		.uleb128 0x7
 5782 0b33 EA0A0000 		.4byte	.LASF196
 5783 0b37 17       		.byte	0x17
 5784 0b38 5B       		.byte	0x5b
 5785 0b39 7F080000 		.4byte	0x87f
 5786 0b3d 00       		.byte	0
 5787 0b3e 07       		.uleb128 0x7
 5788 0b3f 5F0E0000 		.4byte	.LASF197
 5789 0b43 17       		.byte	0x17
 5790 0b44 5B       		.byte	0x5b
 5791 0b45 7F080000 		.4byte	0x87f
 5792 0b49 04       		.byte	0x4
 5793 0b4a 07       		.uleb128 0x7
 5794 0b4b 5C000000 		.4byte	.LASF198
 5795 0b4f 17       		.byte	0x17
 5796 0b50 5B       		.byte	0x5b
 5797 0b51 2F080000 		.4byte	0x82f
 5798 0b55 08       		.byte	0x8
 5799 0b56 12       		.uleb128 0x12
 5800 0b57 746F7300 		.ascii	"tos\000"
 5801 0b5b 17       		.byte	0x17
 5802 0b5c 5B       		.byte	0x5b
 5803 0b5d 2F080000 		.4byte	0x82f
 5804 0b61 09       		.byte	0x9
 5805 0b62 12       		.uleb128 0x12
 5806 0b63 74746C00 		.ascii	"ttl\000"
 5807 0b67 17       		.byte	0x17
 5808 0b68 5B       		.byte	0x5b
 5809 0b69 2F080000 		.4byte	0x82f
 5810 0b6d 0A       		.byte	0xa
 5811 0b6e 00       		.byte	0
 5812 0b6f 0A       		.uleb128 0xa
 5813 0b70 04       		.byte	0x4
 5814 0b71 260B0000 		.4byte	0xb26
 5815 0b75 06       		.uleb128 0x6
 5816 0b76 F00D0000 		.4byte	.LASF199
 5817 0b7a 98       		.byte	0x98
 5818 0b7b 18       		.byte	0x18
 5819 0b7c A8       		.byte	0xa8
 5820 0b7d 270E0000 		.4byte	0xe27
 5821 0b81 07       		.uleb128 0x7
 5822 0b82 EA0A0000 		.4byte	.LASF196
 5823 0b86 18       		.byte	0x18
 5824 0b87 AA       		.byte	0xaa
 5825 0b88 7F080000 		.4byte	0x87f
 5826 0b8c 00       		.byte	0
 5827 0b8d 07       		.uleb128 0x7
 5828 0b8e 5F0E0000 		.4byte	.LASF197
 5829 0b92 18       		.byte	0x18
 5830 0b93 AA       		.byte	0xaa
 5831 0b94 7F080000 		.4byte	0x87f
 5832 0b98 04       		.byte	0x4
 5833 0b99 07       		.uleb128 0x7
 5834 0b9a 5C000000 		.4byte	.LASF198
ARM GAS  C:\Users\Luis\AppData\Local\Temp\ccd19DXF.s 			page 106


 5835 0b9e 18       		.byte	0x18
 5836 0b9f AA       		.byte	0xaa
 5837 0ba0 2F080000 		.4byte	0x82f
 5838 0ba4 08       		.byte	0x8
 5839 0ba5 12       		.uleb128 0x12
 5840 0ba6 746F7300 		.ascii	"tos\000"
 5841 0baa 18       		.byte	0x18
 5842 0bab AA       		.byte	0xaa
 5843 0bac 2F080000 		.4byte	0x82f
 5844 0bb0 09       		.byte	0x9
 5845 0bb1 12       		.uleb128 0x12
 5846 0bb2 74746C00 		.ascii	"ttl\000"
 5847 0bb6 18       		.byte	0x18
 5848 0bb7 AA       		.byte	0xaa
 5849 0bb8 2F080000 		.4byte	0x82f
 5850 0bbc 0A       		.byte	0xa
 5851 0bbd 07       		.uleb128 0x7
 5852 0bbe 14010000 		.4byte	.LASF158
 5853 0bc2 18       		.byte	0x18
 5854 0bc3 AC       		.byte	0xac
 5855 0bc4 270E0000 		.4byte	0xe27
 5856 0bc8 0C       		.byte	0xc
 5857 0bc9 07       		.uleb128 0x7
 5858 0bca 110E0000 		.4byte	.LASF200
 5859 0bce 18       		.byte	0x18
 5860 0bcf AC       		.byte	0xac
 5861 0bd0 47030000 		.4byte	0x347
 5862 0bd4 10       		.byte	0x10
 5863 0bd5 07       		.uleb128 0x7
 5864 0bd6 7C030000 		.4byte	.LASF201
 5865 0bda 18       		.byte	0x18
 5866 0bdb AC       		.byte	0xac
 5867 0bdc C2100000 		.4byte	0x10c2
 5868 0be0 14       		.byte	0x14
 5869 0be1 07       		.uleb128 0x7
 5870 0be2 690D0000 		.4byte	.LASF186
 5871 0be6 18       		.byte	0x18
 5872 0be7 AC       		.byte	0xac
 5873 0be8 96110000 		.4byte	0x1196
 5874 0bec 18       		.byte	0x18
 5875 0bed 07       		.uleb128 0x7
 5876 0bee 51060000 		.4byte	.LASF202
 5877 0bf2 18       		.byte	0x18
 5878 0bf3 AC       		.byte	0xac
 5879 0bf4 2F080000 		.4byte	0x82f
 5880 0bf8 19       		.byte	0x19
 5881 0bf9 07       		.uleb128 0x7
 5882 0bfa A3030000 		.4byte	.LASF203
 5883 0bfe 18       		.byte	0x18
 5884 0bff AC       		.byte	0xac
 5885 0c00 45080000 		.4byte	0x845
 5886 0c04 1A       		.byte	0x1a
 5887 0c05 07       		.uleb128 0x7
 5888 0c06 77080000 		.4byte	.LASF204
 5889 0c0a 18       		.byte	0x18
 5890 0c0b AF       		.byte	0xaf
 5891 0c0c 45080000 		.4byte	0x845
ARM GAS  C:\Users\Luis\AppData\Local\Temp\ccd19DXF.s 			page 107


 5892 0c10 1C       		.byte	0x1c
 5893 0c11 07       		.uleb128 0x7
 5894 0c12 AE000000 		.4byte	.LASF162
 5895 0c16 18       		.byte	0x18
 5896 0c17 B1       		.byte	0xb1
 5897 0c18 2F080000 		.4byte	0x82f
 5898 0c1c 1E       		.byte	0x1e
 5899 0c1d 07       		.uleb128 0x7
 5900 0c1e 98000000 		.4byte	.LASF205
 5901 0c22 18       		.byte	0x18
 5902 0c23 BF       		.byte	0xbf
 5903 0c24 2F080000 		.4byte	0x82f
 5904 0c28 1F       		.byte	0x1f
 5905 0c29 07       		.uleb128 0x7
 5906 0c2a 56060000 		.4byte	.LASF206
 5907 0c2e 18       		.byte	0x18
 5908 0c2f BF       		.byte	0xbf
 5909 0c30 2F080000 		.4byte	0x82f
 5910 0c34 20       		.byte	0x20
 5911 0c35 07       		.uleb128 0x7
 5912 0c36 D20A0000 		.4byte	.LASF207
 5913 0c3a 18       		.byte	0x18
 5914 0c3b C0       		.byte	0xc0
 5915 0c3c 2F080000 		.4byte	0x82f
 5916 0c40 21       		.byte	0x21
 5917 0c41 12       		.uleb128 0x12
 5918 0c42 746D7200 		.ascii	"tmr\000"
 5919 0c46 18       		.byte	0x18
 5920 0c47 C1       		.byte	0xc1
 5921 0c48 5B080000 		.4byte	0x85b
 5922 0c4c 24       		.byte	0x24
 5923 0c4d 07       		.uleb128 0x7
 5924 0c4e 9D040000 		.4byte	.LASF208
 5925 0c52 18       		.byte	0x18
 5926 0c53 C4       		.byte	0xc4
 5927 0c54 5B080000 		.4byte	0x85b
 5928 0c58 28       		.byte	0x28
 5929 0c59 07       		.uleb128 0x7
 5930 0c5a 8C0A0000 		.4byte	.LASF209
 5931 0c5e 18       		.byte	0x18
 5932 0c5f C5       		.byte	0xc5
 5933 0c60 45080000 		.4byte	0x845
 5934 0c64 2C       		.byte	0x2c
 5935 0c65 07       		.uleb128 0x7
 5936 0c66 A0080000 		.4byte	.LASF210
 5937 0c6a 18       		.byte	0x18
 5938 0c6b C6       		.byte	0xc6
 5939 0c6c 45080000 		.4byte	0x845
 5940 0c70 2E       		.byte	0x2e
 5941 0c71 07       		.uleb128 0x7
 5942 0c72 81020000 		.4byte	.LASF211
 5943 0c76 18       		.byte	0x18
 5944 0c77 C7       		.byte	0xc7
 5945 0c78 5B080000 		.4byte	0x85b
 5946 0c7c 30       		.byte	0x30
 5947 0c7d 07       		.uleb128 0x7
 5948 0c7e 5E040000 		.4byte	.LASF212
ARM GAS  C:\Users\Luis\AppData\Local\Temp\ccd19DXF.s 			page 108


 5949 0c82 18       		.byte	0x18
 5950 0c83 CA       		.byte	0xca
 5951 0c84 50080000 		.4byte	0x850
 5952 0c88 34       		.byte	0x34
 5953 0c89 12       		.uleb128 0x12
 5954 0c8a 6D737300 		.ascii	"mss\000"
 5955 0c8e 18       		.byte	0x18
 5956 0c8f CC       		.byte	0xcc
 5957 0c90 45080000 		.4byte	0x845
 5958 0c94 36       		.byte	0x36
 5959 0c95 07       		.uleb128 0x7
 5960 0c96 940A0000 		.4byte	.LASF213
 5961 0c9a 18       		.byte	0x18
 5962 0c9b CF       		.byte	0xcf
 5963 0c9c 5B080000 		.4byte	0x85b
 5964 0ca0 38       		.byte	0x38
 5965 0ca1 07       		.uleb128 0x7
 5966 0ca2 30040000 		.4byte	.LASF214
 5967 0ca6 18       		.byte	0x18
 5968 0ca7 D0       		.byte	0xd0
 5969 0ca8 5B080000 		.4byte	0x85b
 5970 0cac 3C       		.byte	0x3c
 5971 0cad 12       		.uleb128 0x12
 5972 0cae 736100   		.ascii	"sa\000"
 5973 0cb1 18       		.byte	0x18
 5974 0cb2 D1       		.byte	0xd1
 5975 0cb3 50080000 		.4byte	0x850
 5976 0cb7 40       		.byte	0x40
 5977 0cb8 12       		.uleb128 0x12
 5978 0cb9 737600   		.ascii	"sv\000"
 5979 0cbc 18       		.byte	0x18
 5980 0cbd D1       		.byte	0xd1
 5981 0cbe 50080000 		.4byte	0x850
 5982 0cc2 42       		.byte	0x42
 5983 0cc3 12       		.uleb128 0x12
 5984 0cc4 72746F00 		.ascii	"rto\000"
 5985 0cc8 18       		.byte	0x18
 5986 0cc9 D3       		.byte	0xd3
 5987 0cca 50080000 		.4byte	0x850
 5988 0cce 44       		.byte	0x44
 5989 0ccf 07       		.uleb128 0x7
 5990 0cd0 C70E0000 		.4byte	.LASF215
 5991 0cd4 18       		.byte	0x18
 5992 0cd5 D4       		.byte	0xd4
 5993 0cd6 2F080000 		.4byte	0x82f
 5994 0cda 46       		.byte	0x46
 5995 0cdb 07       		.uleb128 0x7
 5996 0cdc 44060000 		.4byte	.LASF216
 5997 0ce0 18       		.byte	0x18
 5998 0ce1 D7       		.byte	0xd7
 5999 0ce2 2F080000 		.4byte	0x82f
 6000 0ce6 47       		.byte	0x47
 6001 0ce7 07       		.uleb128 0x7
 6002 0ce8 BC050000 		.4byte	.LASF217
 6003 0cec 18       		.byte	0x18
 6004 0ced D8       		.byte	0xd8
 6005 0cee 5B080000 		.4byte	0x85b
ARM GAS  C:\Users\Luis\AppData\Local\Temp\ccd19DXF.s 			page 109


 6006 0cf2 48       		.byte	0x48
 6007 0cf3 07       		.uleb128 0x7
 6008 0cf4 55030000 		.4byte	.LASF218
 6009 0cf8 18       		.byte	0x18
 6010 0cf9 DB       		.byte	0xdb
 6011 0cfa 45080000 		.4byte	0x845
 6012 0cfe 4C       		.byte	0x4c
 6013 0cff 07       		.uleb128 0x7
 6014 0d00 760B0000 		.4byte	.LASF219
 6015 0d04 18       		.byte	0x18
 6016 0d05 DC       		.byte	0xdc
 6017 0d06 45080000 		.4byte	0x845
 6018 0d0a 4E       		.byte	0x4e
 6019 0d0b 07       		.uleb128 0x7
 6020 0d0c 340B0000 		.4byte	.LASF220
 6021 0d10 18       		.byte	0x18
 6022 0d11 DF       		.byte	0xdf
 6023 0d12 5B080000 		.4byte	0x85b
 6024 0d16 50       		.byte	0x50
 6025 0d17 07       		.uleb128 0x7
 6026 0d18 94060000 		.4byte	.LASF221
 6027 0d1c 18       		.byte	0x18
 6028 0d1d E0       		.byte	0xe0
 6029 0d1e 5B080000 		.4byte	0x85b
 6030 0d22 54       		.byte	0x54
 6031 0d23 07       		.uleb128 0x7
 6032 0d24 41070000 		.4byte	.LASF222
 6033 0d28 18       		.byte	0x18
 6034 0d29 E0       		.byte	0xe0
 6035 0d2a 5B080000 		.4byte	0x85b
 6036 0d2e 58       		.byte	0x58
 6037 0d2f 07       		.uleb128 0x7
 6038 0d30 9A070000 		.4byte	.LASF223
 6039 0d34 18       		.byte	0x18
 6040 0d35 E2       		.byte	0xe2
 6041 0d36 5B080000 		.4byte	0x85b
 6042 0d3a 5C       		.byte	0x5c
 6043 0d3b 07       		.uleb128 0x7
 6044 0d3c 74090000 		.4byte	.LASF224
 6045 0d40 18       		.byte	0x18
 6046 0d41 E3       		.byte	0xe3
 6047 0d42 45080000 		.4byte	0x845
 6048 0d46 60       		.byte	0x60
 6049 0d47 07       		.uleb128 0x7
 6050 0d48 500B0000 		.4byte	.LASF225
 6051 0d4c 18       		.byte	0x18
 6052 0d4d E4       		.byte	0xe4
 6053 0d4e 45080000 		.4byte	0x845
 6054 0d52 62       		.byte	0x62
 6055 0d53 07       		.uleb128 0x7
 6056 0d54 B1060000 		.4byte	.LASF226
 6057 0d58 18       		.byte	0x18
 6058 0d59 E6       		.byte	0xe6
 6059 0d5a 45080000 		.4byte	0x845
 6060 0d5e 64       		.byte	0x64
 6061 0d5f 07       		.uleb128 0x7
 6062 0d60 7F0B0000 		.4byte	.LASF227
ARM GAS  C:\Users\Luis\AppData\Local\Temp\ccd19DXF.s 			page 110


 6063 0d64 18       		.byte	0x18
 6064 0d65 E8       		.byte	0xe8
 6065 0d66 45080000 		.4byte	0x845
 6066 0d6a 66       		.byte	0x66
 6067 0d6b 07       		.uleb128 0x7
 6068 0d6c 800D0000 		.4byte	.LASF228
 6069 0d70 18       		.byte	0x18
 6070 0d71 EA       		.byte	0xea
 6071 0d72 45080000 		.4byte	0x845
 6072 0d76 68       		.byte	0x68
 6073 0d77 07       		.uleb128 0x7
 6074 0d78 080B0000 		.4byte	.LASF229
 6075 0d7c 18       		.byte	0x18
 6076 0d7d EE       		.byte	0xee
 6077 0d7e 45080000 		.4byte	0x845
 6078 0d82 6A       		.byte	0x6a
 6079 0d83 07       		.uleb128 0x7
 6080 0d84 850A0000 		.4byte	.LASF230
 6081 0d88 18       		.byte	0x18
 6082 0d89 F2       		.byte	0xf2
 6083 0d8a EA110000 		.4byte	0x11ea
 6084 0d8e 6C       		.byte	0x6c
 6085 0d8f 07       		.uleb128 0x7
 6086 0d90 BE0C0000 		.4byte	.LASF231
 6087 0d94 18       		.byte	0x18
 6088 0d95 F3       		.byte	0xf3
 6089 0d96 EA110000 		.4byte	0x11ea
 6090 0d9a 70       		.byte	0x70
 6091 0d9b 07       		.uleb128 0x7
 6092 0d9c EA090000 		.4byte	.LASF232
 6093 0da0 18       		.byte	0x18
 6094 0da1 F5       		.byte	0xf5
 6095 0da2 EA110000 		.4byte	0x11ea
 6096 0da6 74       		.byte	0x74
 6097 0da7 07       		.uleb128 0x7
 6098 0da8 220C0000 		.4byte	.LASF233
 6099 0dac 18       		.byte	0x18
 6100 0dad F8       		.byte	0xf8
 6101 0dae 5A090000 		.4byte	0x95a
 6102 0db2 78       		.byte	0x78
 6103 0db3 07       		.uleb128 0x7
 6104 0db4 24070000 		.4byte	.LASF234
 6105 0db8 18       		.byte	0x18
 6106 0db9 FC       		.byte	0xfc
 6107 0dba 1B110000 		.4byte	0x111b
 6108 0dbe 7C       		.byte	0x7c
 6109 0dbf 07       		.uleb128 0x7
 6110 0dc0 BE0D0000 		.4byte	.LASF235
 6111 0dc4 18       		.byte	0x18
 6112 0dc5 FE       		.byte	0xfe
 6113 0dc6 EC100000 		.4byte	0x10ec
 6114 0dca 80       		.byte	0x80
 6115 0dcb 09       		.uleb128 0x9
 6116 0dcc 5A050000 		.4byte	.LASF236
 6117 0dd0 18       		.byte	0x18
 6118 0dd1 0001     		.2byte	0x100
 6119 0dd3 8B110000 		.4byte	0x118b
ARM GAS  C:\Users\Luis\AppData\Local\Temp\ccd19DXF.s 			page 111


 6120 0dd7 84       		.byte	0x84
 6121 0dd8 09       		.uleb128 0x9
 6122 0dd9 6D060000 		.4byte	.LASF237
 6123 0ddd 18       		.byte	0x18
 6124 0dde 0201     		.2byte	0x102
 6125 0de0 45110000 		.4byte	0x1145
 6126 0de4 88       		.byte	0x88
 6127 0de5 09       		.uleb128 0x9
 6128 0de6 66090000 		.4byte	.LASF238
 6129 0dea 18       		.byte	0x18
 6130 0deb 0401     		.2byte	0x104
 6131 0ded 6A110000 		.4byte	0x116a
 6132 0df1 8C       		.byte	0x8c
 6133 0df2 09       		.uleb128 0x9
 6134 0df3 160D0000 		.4byte	.LASF239
 6135 0df7 18       		.byte	0x18
 6136 0df8 0D01     		.2byte	0x10d
 6137 0dfa 5B080000 		.4byte	0x85b
 6138 0dfe 90       		.byte	0x90
 6139 0dff 09       		.uleb128 0x9
 6140 0e00 530E0000 		.4byte	.LASF240
 6141 0e04 18       		.byte	0x18
 6142 0e05 1401     		.2byte	0x114
 6143 0e07 2F080000 		.4byte	0x82f
 6144 0e0b 94       		.byte	0x94
 6145 0e0c 09       		.uleb128 0x9
 6146 0e0d 090C0000 		.4byte	.LASF241
 6147 0e11 18       		.byte	0x18
 6148 0e12 1601     		.2byte	0x116
 6149 0e14 2F080000 		.4byte	0x82f
 6150 0e18 95       		.byte	0x95
 6151 0e19 09       		.uleb128 0x9
 6152 0e1a CA020000 		.4byte	.LASF242
 6153 0e1e 18       		.byte	0x18
 6154 0e1f 1901     		.2byte	0x119
 6155 0e21 2F080000 		.4byte	0x82f
 6156 0e25 96       		.byte	0x96
 6157 0e26 00       		.byte	0
 6158 0e27 0A       		.uleb128 0xa
 6159 0e28 04       		.byte	0x4
 6160 0e29 750B0000 		.4byte	0xb75
 6161 0e2d 06       		.uleb128 0x6
 6162 0e2e 3C0B0000 		.4byte	.LASF243
 6163 0e32 20       		.byte	0x20
 6164 0e33 19       		.byte	0x19
 6165 0e34 5B       		.byte	0x5b
 6166 0e35 BE0E0000 		.4byte	0xebe
 6167 0e39 07       		.uleb128 0x7
 6168 0e3a EA0A0000 		.4byte	.LASF196
 6169 0e3e 19       		.byte	0x19
 6170 0e3f 5D       		.byte	0x5d
 6171 0e40 7F080000 		.4byte	0x87f
 6172 0e44 00       		.byte	0
 6173 0e45 07       		.uleb128 0x7
 6174 0e46 5F0E0000 		.4byte	.LASF197
 6175 0e4a 19       		.byte	0x19
 6176 0e4b 5D       		.byte	0x5d
ARM GAS  C:\Users\Luis\AppData\Local\Temp\ccd19DXF.s 			page 112


 6177 0e4c 7F080000 		.4byte	0x87f
 6178 0e50 04       		.byte	0x4
 6179 0e51 07       		.uleb128 0x7
 6180 0e52 5C000000 		.4byte	.LASF198
 6181 0e56 19       		.byte	0x19
 6182 0e57 5D       		.byte	0x5d
 6183 0e58 2F080000 		.4byte	0x82f
 6184 0e5c 08       		.byte	0x8
 6185 0e5d 12       		.uleb128 0x12
 6186 0e5e 746F7300 		.ascii	"tos\000"
 6187 0e62 19       		.byte	0x19
 6188 0e63 5D       		.byte	0x5d
 6189 0e64 2F080000 		.4byte	0x82f
 6190 0e68 09       		.byte	0x9
 6191 0e69 12       		.uleb128 0x12
 6192 0e6a 74746C00 		.ascii	"ttl\000"
 6193 0e6e 19       		.byte	0x19
 6194 0e6f 5D       		.byte	0x5d
 6195 0e70 2F080000 		.4byte	0x82f
 6196 0e74 0A       		.byte	0xa
 6197 0e75 07       		.uleb128 0x7
 6198 0e76 14010000 		.4byte	.LASF158
 6199 0e7a 19       		.byte	0x19
 6200 0e7b 61       		.byte	0x61
 6201 0e7c BE0E0000 		.4byte	0xebe
 6202 0e80 0C       		.byte	0xc
 6203 0e81 07       		.uleb128 0x7
 6204 0e82 AE000000 		.4byte	.LASF162
 6205 0e86 19       		.byte	0x19
 6206 0e87 63       		.byte	0x63
 6207 0e88 2F080000 		.4byte	0x82f
 6208 0e8c 10       		.byte	0x10
 6209 0e8d 07       		.uleb128 0x7
 6210 0e8e A3030000 		.4byte	.LASF203
 6211 0e92 19       		.byte	0x19
 6212 0e93 65       		.byte	0x65
 6213 0e94 45080000 		.4byte	0x845
 6214 0e98 12       		.byte	0x12
 6215 0e99 07       		.uleb128 0x7
 6216 0e9a 77080000 		.4byte	.LASF204
 6217 0e9e 19       		.byte	0x19
 6218 0e9f 65       		.byte	0x65
 6219 0ea0 45080000 		.4byte	0x845
 6220 0ea4 14       		.byte	0x14
 6221 0ea5 07       		.uleb128 0x7
 6222 0ea6 BE0D0000 		.4byte	.LASF235
 6223 0eaa 19       		.byte	0x19
 6224 0eab 72       		.byte	0x72
 6225 0eac 92100000 		.4byte	0x1092
 6226 0eb0 18       		.byte	0x18
 6227 0eb1 07       		.uleb128 0x7
 6228 0eb2 E7020000 		.4byte	.LASF244
 6229 0eb6 19       		.byte	0x19
 6230 0eb7 74       		.byte	0x74
 6231 0eb8 47030000 		.4byte	0x347
 6232 0ebc 1C       		.byte	0x1c
 6233 0ebd 00       		.byte	0
ARM GAS  C:\Users\Luis\AppData\Local\Temp\ccd19DXF.s 			page 113


 6234 0ebe 0A       		.uleb128 0xa
 6235 0ebf 04       		.byte	0x4
 6236 0ec0 2D0E0000 		.4byte	0xe2d
 6237 0ec4 06       		.uleb128 0x6
 6238 0ec5 E4000000 		.4byte	.LASF245
 6239 0ec9 1C       		.byte	0x1c
 6240 0eca 1A       		.byte	0x1a
 6241 0ecb 3F       		.byte	0x3f
 6242 0ecc 3D0F0000 		.4byte	0xf3d
 6243 0ed0 07       		.uleb128 0x7
 6244 0ed1 EA0A0000 		.4byte	.LASF196
 6245 0ed5 1A       		.byte	0x1a
 6246 0ed6 41       		.byte	0x41
 6247 0ed7 7F080000 		.4byte	0x87f
 6248 0edb 00       		.byte	0
 6249 0edc 07       		.uleb128 0x7
 6250 0edd 5F0E0000 		.4byte	.LASF197
 6251 0ee1 1A       		.byte	0x1a
 6252 0ee2 41       		.byte	0x41
 6253 0ee3 7F080000 		.4byte	0x87f
 6254 0ee7 04       		.byte	0x4
 6255 0ee8 07       		.uleb128 0x7
 6256 0ee9 5C000000 		.4byte	.LASF198
 6257 0eed 1A       		.byte	0x1a
 6258 0eee 41       		.byte	0x41
 6259 0eef 2F080000 		.4byte	0x82f
 6260 0ef3 08       		.byte	0x8
 6261 0ef4 12       		.uleb128 0x12
 6262 0ef5 746F7300 		.ascii	"tos\000"
 6263 0ef9 1A       		.byte	0x1a
 6264 0efa 41       		.byte	0x41
 6265 0efb 2F080000 		.4byte	0x82f
 6266 0eff 09       		.byte	0x9
 6267 0f00 12       		.uleb128 0x12
 6268 0f01 74746C00 		.ascii	"ttl\000"
 6269 0f05 1A       		.byte	0x1a
 6270 0f06 41       		.byte	0x41
 6271 0f07 2F080000 		.4byte	0x82f
 6272 0f0b 0A       		.byte	0xa
 6273 0f0c 07       		.uleb128 0x7
 6274 0f0d 14010000 		.4byte	.LASF158
 6275 0f11 1A       		.byte	0x1a
 6276 0f12 43       		.byte	0x43
 6277 0f13 3D0F0000 		.4byte	0xf3d
 6278 0f17 0C       		.byte	0xc
 6279 0f18 07       		.uleb128 0x7
 6280 0f19 B1020000 		.4byte	.LASF246
 6281 0f1d 1A       		.byte	0x1a
 6282 0f1e 45       		.byte	0x45
 6283 0f1f 2F080000 		.4byte	0x82f
 6284 0f23 10       		.byte	0x10
 6285 0f24 07       		.uleb128 0x7
 6286 0f25 BE0D0000 		.4byte	.LASF235
 6287 0f29 1A       		.byte	0x1a
 6288 0f2a 48       		.byte	0x48
 6289 0f2b F0110000 		.4byte	0x11f0
 6290 0f2f 14       		.byte	0x14
ARM GAS  C:\Users\Luis\AppData\Local\Temp\ccd19DXF.s 			page 114


 6291 0f30 07       		.uleb128 0x7
 6292 0f31 E7020000 		.4byte	.LASF244
 6293 0f35 1A       		.byte	0x1a
 6294 0f36 4A       		.byte	0x4a
 6295 0f37 47030000 		.4byte	0x347
 6296 0f3b 18       		.byte	0x18
 6297 0f3c 00       		.byte	0
 6298 0f3d 0A       		.uleb128 0xa
 6299 0f3e 04       		.byte	0x4
 6300 0f3f C40E0000 		.4byte	0xec4
 6301 0f43 06       		.uleb128 0x6
 6302 0f44 02060000 		.4byte	.LASF247
 6303 0f48 14       		.byte	0x14
 6304 0f49 1B       		.byte	0x1b
 6305 0f4a 3E       		.byte	0x3e
 6306 0f4b 740F0000 		.4byte	0xf74
 6307 0f4f 07       		.uleb128 0x7
 6308 0f50 7C050000 		.4byte	.LASF248
 6309 0f54 1B       		.byte	0x1b
 6310 0f55 41       		.byte	0x41
 6311 0f56 4F0A0000 		.4byte	0xa4f
 6312 0f5a 00       		.byte	0
 6313 0f5b 12       		.uleb128 0x12
 6314 0f5c 65727200 		.ascii	"err\000"
 6315 0f60 1B       		.byte	0x1b
 6316 0f61 43       		.byte	0x43
 6317 0f62 8A080000 		.4byte	0x88a
 6318 0f66 04       		.byte	0x4
 6319 0f67 12       		.uleb128 0x12
 6320 0f68 6D736700 		.ascii	"msg\000"
 6321 0f6c 1B       		.byte	0x1b
 6322 0f6d 75       		.byte	0x75
 6323 0f6e 41100000 		.4byte	0x1041
 6324 0f72 08       		.byte	0x8
 6325 0f73 00       		.byte	0
 6326 0f74 0A       		.uleb128 0xa
 6327 0f75 04       		.byte	0x4
 6328 0f76 430F0000 		.4byte	0xf43
 6329 0f7a 13       		.uleb128 0x13
 6330 0f7b 01       		.byte	0x1
 6331 0f7c 1B       		.byte	0x1b
 6332 0f7d 49       		.byte	0x49
 6333 0f7e 8F0F0000 		.4byte	0xf8f
 6334 0f82 07       		.uleb128 0x7
 6335 0f83 BD060000 		.4byte	.LASF249
 6336 0f87 1B       		.byte	0x1b
 6337 0f88 4A       		.byte	0x4a
 6338 0f89 2F080000 		.4byte	0x82f
 6339 0f8d 00       		.byte	0
 6340 0f8e 00       		.byte	0
 6341 0f8f 13       		.uleb128 0x13
 6342 0f90 08       		.byte	0x8
 6343 0f91 1B       		.byte	0x1b
 6344 0f92 4D       		.byte	0x4d
 6345 0f93 B00F0000 		.4byte	0xfb0
 6346 0f97 07       		.uleb128 0x7
 6347 0f98 35050000 		.4byte	.LASF250
ARM GAS  C:\Users\Luis\AppData\Local\Temp\ccd19DXF.s 			page 115


 6348 0f9c 1B       		.byte	0x1b
 6349 0f9d 4E       		.byte	0x4e
 6350 0f9e 60090000 		.4byte	0x960
 6351 0fa2 00       		.byte	0
 6352 0fa3 07       		.uleb128 0x7
 6353 0fa4 4C060000 		.4byte	.LASF164
 6354 0fa8 1B       		.byte	0x1b
 6355 0fa9 4F       		.byte	0x4f
 6356 0faa 45080000 		.4byte	0x845
 6357 0fae 04       		.byte	0x4
 6358 0faf 00       		.byte	0
 6359 0fb0 13       		.uleb128 0x13
 6360 0fb1 0C       		.byte	0xc
 6361 0fb2 1B       		.byte	0x1b
 6362 0fb3 52       		.byte	0x52
 6363 0fb4 DD0F0000 		.4byte	0xfdd
 6364 0fb8 07       		.uleb128 0x7
 6365 0fb9 35050000 		.4byte	.LASF250
 6366 0fbd 1B       		.byte	0x1b
 6367 0fbe 53       		.byte	0x53
 6368 0fbf 60090000 		.4byte	0x960
 6369 0fc3 00       		.byte	0
 6370 0fc4 07       		.uleb128 0x7
 6371 0fc5 4C060000 		.4byte	.LASF164
 6372 0fc9 1B       		.byte	0x1b
 6373 0fca 54       		.byte	0x54
 6374 0fcb DD0F0000 		.4byte	0xfdd
 6375 0fcf 04       		.byte	0x4
 6376 0fd0 07       		.uleb128 0x7
 6377 0fd1 6C010000 		.4byte	.LASF251
 6378 0fd5 1B       		.byte	0x1b
 6379 0fd6 55       		.byte	0x55
 6380 0fd7 2F080000 		.4byte	0x82f
 6381 0fdb 08       		.byte	0x8
 6382 0fdc 00       		.byte	0
 6383 0fdd 0A       		.uleb128 0xa
 6384 0fde 04       		.byte	0x4
 6385 0fdf 45080000 		.4byte	0x845
 6386 0fe3 13       		.uleb128 0x13
 6387 0fe4 0C       		.byte	0xc
 6388 0fe5 1B       		.byte	0x1b
 6389 0fe6 58       		.byte	0x58
 6390 0fe7 10100000 		.4byte	0x1010
 6391 0feb 07       		.uleb128 0x7
 6392 0fec 22090000 		.4byte	.LASF252
 6393 0ff0 1B       		.byte	0x1b
 6394 0ff1 59       		.byte	0x59
 6395 0ff2 10100000 		.4byte	0x1010
 6396 0ff6 00       		.byte	0
 6397 0ff7 12       		.uleb128 0x12
 6398 0ff8 6C656E00 		.ascii	"len\000"
 6399 0ffc 1B       		.byte	0x1b
 6400 0ffd 5A       		.byte	0x5a
 6401 0ffe 2C000000 		.4byte	0x2c
 6402 1002 04       		.byte	0x4
 6403 1003 07       		.uleb128 0x7
 6404 1004 190C0000 		.4byte	.LASF253
ARM GAS  C:\Users\Luis\AppData\Local\Temp\ccd19DXF.s 			page 116


 6405 1008 1B       		.byte	0x1b
 6406 1009 5B       		.byte	0x5b
 6407 100a 2F080000 		.4byte	0x82f
 6408 100e 08       		.byte	0x8
 6409 100f 00       		.byte	0
 6410 1010 0A       		.uleb128 0xa
 6411 1011 04       		.byte	0x4
 6412 1012 16100000 		.4byte	0x1016
 6413 1016 1E       		.uleb128 0x1e
 6414 1017 13       		.uleb128 0x13
 6415 1018 04       		.byte	0x4
 6416 1019 1B       		.byte	0x1b
 6417 101a 61       		.byte	0x61
 6418 101b 2C100000 		.4byte	0x102c
 6419 101f 12       		.uleb128 0x12
 6420 1020 6C656E00 		.ascii	"len\000"
 6421 1024 1B       		.byte	0x1b
 6422 1025 62       		.byte	0x62
 6423 1026 5B080000 		.4byte	0x85b
 6424 102a 00       		.byte	0
 6425 102b 00       		.byte	0
 6426 102c 13       		.uleb128 0x13
 6427 102d 01       		.byte	0x1
 6428 102e 1B       		.byte	0x1b
 6429 102f 65       		.byte	0x65
 6430 1030 41100000 		.4byte	0x1041
 6431 1034 07       		.uleb128 0x7
 6432 1035 110D0000 		.4byte	.LASF254
 6433 1039 1B       		.byte	0x1b
 6434 103a 66       		.byte	0x66
 6435 103b 2F080000 		.4byte	0x82f
 6436 103f 00       		.byte	0
 6437 1040 00       		.byte	0
 6438 1041 17       		.uleb128 0x17
 6439 1042 0C       		.byte	0xc
 6440 1043 1B       		.byte	0x1b
 6441 1044 45       		.byte	0x45
 6442 1045 8C100000 		.4byte	0x108c
 6443 1049 1D       		.uleb128 0x1d
 6444 104a 6200     		.ascii	"b\000"
 6445 104c 1B       		.byte	0x1b
 6446 104d 47       		.byte	0x47
 6447 104e 8C100000 		.4byte	0x108c
 6448 1052 1D       		.uleb128 0x1d
 6449 1053 6E00     		.ascii	"n\000"
 6450 1055 1B       		.byte	0x1b
 6451 1056 4B       		.byte	0x4b
 6452 1057 7A0F0000 		.4byte	0xf7a
 6453 105b 1D       		.uleb128 0x1d
 6454 105c 626300   		.ascii	"bc\000"
 6455 105f 1B       		.byte	0x1b
 6456 1060 50       		.byte	0x50
 6457 1061 8F0F0000 		.4byte	0xf8f
 6458 1065 1D       		.uleb128 0x1d
 6459 1066 616400   		.ascii	"ad\000"
 6460 1069 1B       		.byte	0x1b
 6461 106a 56       		.byte	0x56
ARM GAS  C:\Users\Luis\AppData\Local\Temp\ccd19DXF.s 			page 117


 6462 106b B00F0000 		.4byte	0xfb0
 6463 106f 1D       		.uleb128 0x1d
 6464 1070 7700     		.ascii	"w\000"
 6465 1072 1B       		.byte	0x1b
 6466 1073 5F       		.byte	0x5f
 6467 1074 E30F0000 		.4byte	0xfe3
 6468 1078 1D       		.uleb128 0x1d
 6469 1079 7200     		.ascii	"r\000"
 6470 107b 1B       		.byte	0x1b
 6471 107c 63       		.byte	0x63
 6472 107d 17100000 		.4byte	0x1017
 6473 1081 1D       		.uleb128 0x1d
 6474 1082 736400   		.ascii	"sd\000"
 6475 1085 1B       		.byte	0x1b
 6476 1086 67       		.byte	0x67
 6477 1087 2C100000 		.4byte	0x102c
 6478 108b 00       		.byte	0
 6479 108c 0A       		.uleb128 0xa
 6480 108d 04       		.byte	0x4
 6481 108e 66090000 		.4byte	0x966
 6482 1092 03       		.uleb128 0x3
 6483 1093 190A0000 		.4byte	.LASF255
 6484 1097 19       		.byte	0x19
 6485 1098 57       		.byte	0x57
 6486 1099 9D100000 		.4byte	0x109d
 6487 109d 0A       		.uleb128 0xa
 6488 109e 04       		.byte	0x4
 6489 109f A3100000 		.4byte	0x10a3
 6490 10a3 0C       		.uleb128 0xc
 6491 10a4 C2100000 		.4byte	0x10c2
 6492 10a8 0D       		.uleb128 0xd
 6493 10a9 47030000 		.4byte	0x347
 6494 10ad 0D       		.uleb128 0xd
 6495 10ae BE0E0000 		.4byte	0xebe
 6496 10b2 0D       		.uleb128 0xd
 6497 10b3 5A090000 		.4byte	0x95a
 6498 10b7 0D       		.uleb128 0xd
 6499 10b8 60090000 		.4byte	0x960
 6500 10bc 0D       		.uleb128 0xd
 6501 10bd 45080000 		.4byte	0x845
 6502 10c1 00       		.byte	0
 6503 10c2 03       		.uleb128 0x3
 6504 10c3 A0000000 		.4byte	.LASF256
 6505 10c7 18       		.byte	0x18
 6506 10c8 3C       		.byte	0x3c
 6507 10c9 CD100000 		.4byte	0x10cd
 6508 10cd 0A       		.uleb128 0xa
 6509 10ce 04       		.byte	0x4
 6510 10cf D3100000 		.4byte	0x10d3
 6511 10d3 1F       		.uleb128 0x1f
 6512 10d4 8A080000 		.4byte	0x88a
 6513 10d8 EC100000 		.4byte	0x10ec
 6514 10dc 0D       		.uleb128 0xd
 6515 10dd 47030000 		.4byte	0x347
 6516 10e1 0D       		.uleb128 0xd
 6517 10e2 270E0000 		.4byte	0xe27
 6518 10e6 0D       		.uleb128 0xd
ARM GAS  C:\Users\Luis\AppData\Local\Temp\ccd19DXF.s 			page 118


 6519 10e7 8A080000 		.4byte	0x88a
 6520 10eb 00       		.byte	0
 6521 10ec 03       		.uleb128 0x3
 6522 10ed CC080000 		.4byte	.LASF257
 6523 10f1 18       		.byte	0x18
 6524 10f2 48       		.byte	0x48
 6525 10f3 F7100000 		.4byte	0x10f7
 6526 10f7 0A       		.uleb128 0xa
 6527 10f8 04       		.byte	0x4
 6528 10f9 FD100000 		.4byte	0x10fd
 6529 10fd 1F       		.uleb128 0x1f
 6530 10fe 8A080000 		.4byte	0x88a
 6531 1102 1B110000 		.4byte	0x111b
 6532 1106 0D       		.uleb128 0xd
 6533 1107 47030000 		.4byte	0x347
 6534 110b 0D       		.uleb128 0xd
 6535 110c 270E0000 		.4byte	0xe27
 6536 1110 0D       		.uleb128 0xd
 6537 1111 5A090000 		.4byte	0x95a
 6538 1115 0D       		.uleb128 0xd
 6539 1116 8A080000 		.4byte	0x88a
 6540 111a 00       		.byte	0
 6541 111b 03       		.uleb128 0x3
 6542 111c F0020000 		.4byte	.LASF258
 6543 1120 18       		.byte	0x18
 6544 1121 56       		.byte	0x56
 6545 1122 26110000 		.4byte	0x1126
 6546 1126 0A       		.uleb128 0xa
 6547 1127 04       		.byte	0x4
 6548 1128 2C110000 		.4byte	0x112c
 6549 112c 1F       		.uleb128 0x1f
 6550 112d 8A080000 		.4byte	0x88a
 6551 1131 45110000 		.4byte	0x1145
 6552 1135 0D       		.uleb128 0xd
 6553 1136 47030000 		.4byte	0x347
 6554 113a 0D       		.uleb128 0xd
 6555 113b 270E0000 		.4byte	0xe27
 6556 113f 0D       		.uleb128 0xd
 6557 1140 45080000 		.4byte	0x845
 6558 1144 00       		.byte	0
 6559 1145 03       		.uleb128 0x3
 6560 1146 44090000 		.4byte	.LASF259
 6561 114a 18       		.byte	0x18
 6562 114b 62       		.byte	0x62
 6563 114c 50110000 		.4byte	0x1150
 6564 1150 0A       		.uleb128 0xa
 6565 1151 04       		.byte	0x4
 6566 1152 56110000 		.4byte	0x1156
 6567 1156 1F       		.uleb128 0x1f
 6568 1157 8A080000 		.4byte	0x88a
 6569 115b 6A110000 		.4byte	0x116a
 6570 115f 0D       		.uleb128 0xd
 6571 1160 47030000 		.4byte	0x347
 6572 1164 0D       		.uleb128 0xd
 6573 1165 270E0000 		.4byte	0xe27
 6574 1169 00       		.byte	0
 6575 116a 03       		.uleb128 0x3
ARM GAS  C:\Users\Luis\AppData\Local\Temp\ccd19DXF.s 			page 119


 6576 116b 63070000 		.4byte	.LASF260
 6577 116f 18       		.byte	0x18
 6578 1170 6E       		.byte	0x6e
 6579 1171 75110000 		.4byte	0x1175
 6580 1175 0A       		.uleb128 0xa
 6581 1176 04       		.byte	0x4
 6582 1177 7B110000 		.4byte	0x117b
 6583 117b 0C       		.uleb128 0xc
 6584 117c 8B110000 		.4byte	0x118b
 6585 1180 0D       		.uleb128 0xd
 6586 1181 47030000 		.4byte	0x347
 6587 1185 0D       		.uleb128 0xd
 6588 1186 8A080000 		.4byte	0x88a
 6589 118a 00       		.byte	0
 6590 118b 03       		.uleb128 0x3
 6591 118c 03010000 		.4byte	.LASF261
 6592 1190 18       		.byte	0x18
 6593 1191 7C       		.byte	0x7c
 6594 1192 CD100000 		.4byte	0x10cd
 6595 1196 1C       		.uleb128 0x1c
 6596 1197 7C090000 		.4byte	.LASF262
 6597 119b 01       		.byte	0x1
 6598 119c 18       		.byte	0x18
 6599 119d 7E       		.byte	0x7e
 6600 119e E5110000 		.4byte	0x11e5
 6601 11a2 1B       		.uleb128 0x1b
 6602 11a3 120A0000 		.4byte	.LASF263
 6603 11a7 00       		.sleb128 0
 6604 11a8 1B       		.uleb128 0x1b
 6605 11a9 3D0D0000 		.4byte	.LASF264
 6606 11ad 01       		.sleb128 1
 6607 11ae 1B       		.uleb128 0x1b
 6608 11af 030D0000 		.4byte	.LASF265
 6609 11b3 02       		.sleb128 2
 6610 11b4 1B       		.uleb128 0x1b
 6611 11b5 D50E0000 		.4byte	.LASF266
 6612 11b9 03       		.sleb128 3
 6613 11ba 1B       		.uleb128 0x1b
 6614 11bb 440B0000 		.4byte	.LASF267
 6615 11bf 04       		.sleb128 4
 6616 11c0 1B       		.uleb128 0x1b
 6617 11c1 A80C0000 		.4byte	.LASF268
 6618 11c5 05       		.sleb128 5
 6619 11c6 1B       		.uleb128 0x1b
 6620 11c7 B30C0000 		.4byte	.LASF269
 6621 11cb 06       		.sleb128 6
 6622 11cc 1B       		.uleb128 0x1b
 6623 11cd A30B0000 		.4byte	.LASF270
 6624 11d1 07       		.sleb128 7
 6625 11d2 1B       		.uleb128 0x1b
 6626 11d3 95050000 		.4byte	.LASF271
 6627 11d7 08       		.sleb128 8
 6628 11d8 1B       		.uleb128 0x1b
 6629 11d9 24050000 		.4byte	.LASF272
 6630 11dd 09       		.sleb128 9
 6631 11de 1B       		.uleb128 0x1b
 6632 11df EC000000 		.4byte	.LASF273
ARM GAS  C:\Users\Luis\AppData\Local\Temp\ccd19DXF.s 			page 120


 6633 11e3 0A       		.sleb128 10
 6634 11e4 00       		.byte	0
 6635 11e5 20       		.uleb128 0x20
 6636 11e6 E9030000 		.4byte	.LASF341
 6637 11ea 0A       		.uleb128 0xa
 6638 11eb 04       		.byte	0x4
 6639 11ec E5110000 		.4byte	0x11e5
 6640 11f0 03       		.uleb128 0x3
 6641 11f1 3D080000 		.4byte	.LASF274
 6642 11f5 1A       		.byte	0x1a
 6643 11f6 3C       		.byte	0x3c
 6644 11f7 FB110000 		.4byte	0x11fb
 6645 11fb 0A       		.uleb128 0xa
 6646 11fc 04       		.byte	0x4
 6647 11fd 01120000 		.4byte	0x1201
 6648 1201 1F       		.uleb128 0x1f
 6649 1202 2F080000 		.4byte	0x82f
 6650 1206 1F120000 		.4byte	0x121f
 6651 120a 0D       		.uleb128 0xd
 6652 120b 47030000 		.4byte	0x347
 6653 120f 0D       		.uleb128 0xd
 6654 1210 3D0F0000 		.4byte	0xf3d
 6655 1214 0D       		.uleb128 0xd
 6656 1215 5A090000 		.4byte	0x95a
 6657 1219 0D       		.uleb128 0xd
 6658 121a 60090000 		.4byte	0x960
 6659 121e 00       		.byte	0
 6660 121f 1A       		.uleb128 0x1a
 6661 1220 01       		.byte	0x1
 6662 1221 1C       		.byte	0x1c
 6663 1222 2B       		.byte	0x2b
 6664 1223 82120000 		.4byte	0x1282
 6665 1227 1B       		.uleb128 0x1b
 6666 1228 870B0000 		.4byte	.LASF275
 6667 122c 00       		.sleb128 0
 6668 122d 1B       		.uleb128 0x1b
 6669 122e DD0A0000 		.4byte	.LASF276
 6670 1232 01       		.sleb128 1
 6671 1233 1B       		.uleb128 0x1b
 6672 1234 1D080000 		.4byte	.LASF277
 6673 1238 02       		.sleb128 2
 6674 1239 1B       		.uleb128 0x1b
 6675 123a 35000000 		.4byte	.LASF278
 6676 123e 03       		.sleb128 3
 6677 123f 1B       		.uleb128 0x1b
 6678 1240 E30C0000 		.4byte	.LASF279
 6679 1244 04       		.sleb128 4
 6680 1245 1B       		.uleb128 0x1b
 6681 1246 B4080000 		.4byte	.LASF280
 6682 124a 05       		.sleb128 5
 6683 124b 1B       		.uleb128 0x1b
 6684 124c 5C0B0000 		.4byte	.LASF281
 6685 1250 06       		.sleb128 6
 6686 1251 1B       		.uleb128 0x1b
 6687 1252 C2070000 		.4byte	.LASF282
 6688 1256 07       		.sleb128 7
 6689 1257 1B       		.uleb128 0x1b
ARM GAS  C:\Users\Luis\AppData\Local\Temp\ccd19DXF.s 			page 121


 6690 1258 48030000 		.4byte	.LASF283
 6691 125c 08       		.sleb128 8
 6692 125d 1B       		.uleb128 0x1b
 6693 125e 90030000 		.4byte	.LASF284
 6694 1262 09       		.sleb128 9
 6695 1263 1B       		.uleb128 0x1b
 6696 1264 A5040000 		.4byte	.LASF285
 6697 1268 0A       		.sleb128 10
 6698 1269 1B       		.uleb128 0x1b
 6699 126a C10A0000 		.4byte	.LASF286
 6700 126e 0B       		.sleb128 11
 6701 126f 1B       		.uleb128 0x1b
 6702 1270 63060000 		.4byte	.LASF287
 6703 1274 0C       		.sleb128 12
 6704 1275 1B       		.uleb128 0x1b
 6705 1276 D8020000 		.4byte	.LASF288
 6706 127a 0D       		.sleb128 13
 6707 127b 1B       		.uleb128 0x1b
 6708 127c C4050000 		.4byte	.LASF289
 6709 1280 0E       		.sleb128 14
 6710 1281 00       		.byte	0
 6711 1282 21       		.uleb128 0x21
 6712 1283 61080000 		.4byte	.LASF291
 6713 1287 01       		.byte	0x1
 6714 1288 CC01     		.2byte	0x1cc
 6715 128a 00000000 		.4byte	.LFB230
 6716 128e 14000000 		.4byte	.LFE230-.LFB230
 6717 1292 01       		.uleb128 0x1
 6718 1293 9C       		.byte	0x9c
 6719 1294 A8120000 		.4byte	0x12a8
 6720 1298 22       		.uleb128 0x22
 6721 1299 19040000 		.4byte	.LASF290
 6722 129d 01       		.byte	0x1
 6723 129e CC01     		.2byte	0x1cc
 6724 12a0 77070000 		.4byte	0x777
 6725 12a4 02       		.uleb128 0x2
 6726 12a5 91       		.byte	0x91
 6727 12a6 74       		.sleb128 -12
 6728 12a7 00       		.byte	0
 6729 12a8 23       		.uleb128 0x23
 6730 12a9 8B060000 		.4byte	.LASF293
 6731 12ad 02       		.byte	0x2
 6732 12ae 4E       		.byte	0x4e
 6733 12af 2F080000 		.4byte	0x82f
 6734 12b3 00000000 		.4byte	.LFB260
 6735 12b7 D8000000 		.4byte	.LFE260-.LFB260
 6736 12bb 01       		.uleb128 0x1
 6737 12bc 9C       		.byte	0x9c
 6738 12bd 38130000 		.4byte	0x1338
 6739 12c1 24       		.uleb128 0x24
 6740 12c2 61726700 		.ascii	"arg\000"
 6741 12c6 02       		.byte	0x2
 6742 12c7 4E       		.byte	0x4e
 6743 12c8 47030000 		.4byte	0x347
 6744 12cc 02       		.uleb128 0x2
 6745 12cd 91       		.byte	0x91
 6746 12ce 64       		.sleb128 -28
ARM GAS  C:\Users\Luis\AppData\Local\Temp\ccd19DXF.s 			page 122


 6747 12cf 24       		.uleb128 0x24
 6748 12d0 70636200 		.ascii	"pcb\000"
 6749 12d4 02       		.byte	0x2
 6750 12d5 4E       		.byte	0x4e
 6751 12d6 3D0F0000 		.4byte	0xf3d
 6752 12da 02       		.uleb128 0x2
 6753 12db 91       		.byte	0x91
 6754 12dc 60       		.sleb128 -32
 6755 12dd 24       		.uleb128 0x24
 6756 12de 7000     		.ascii	"p\000"
 6757 12e0 02       		.byte	0x2
 6758 12e1 4E       		.byte	0x4e
 6759 12e2 5A090000 		.4byte	0x95a
 6760 12e6 02       		.uleb128 0x2
 6761 12e7 91       		.byte	0x91
 6762 12e8 5C       		.sleb128 -36
 6763 12e9 25       		.uleb128 0x25
 6764 12ea 640D0000 		.4byte	.LASF144
 6765 12ee 02       		.byte	0x2
 6766 12ef 4F       		.byte	0x4f
 6767 12f0 60090000 		.4byte	0x960
 6768 12f4 02       		.uleb128 0x2
 6769 12f5 91       		.byte	0x91
 6770 12f6 58       		.sleb128 -40
 6771 12f7 26       		.uleb128 0x26
 6772 12f8 7100     		.ascii	"q\000"
 6773 12fa 02       		.byte	0x2
 6774 12fb 51       		.byte	0x51
 6775 12fc 5A090000 		.4byte	0x95a
 6776 1300 02       		.uleb128 0x2
 6777 1301 91       		.byte	0x91
 6778 1302 74       		.sleb128 -12
 6779 1303 26       		.uleb128 0x26
 6780 1304 62756600 		.ascii	"buf\000"
 6781 1308 02       		.byte	0x2
 6782 1309 52       		.byte	0x52
 6783 130a 8C100000 		.4byte	0x108c
 6784 130e 02       		.uleb128 0x2
 6785 130f 91       		.byte	0x91
 6786 1310 6C       		.sleb128 -20
 6787 1311 27       		.uleb128 0x27
 6788 1312 7C050000 		.4byte	.LASF248
 6789 1316 02       		.byte	0x2
 6790 1317 53       		.byte	0x53
 6791 1318 4F0A0000 		.4byte	0xa4f
 6792 131c 02       		.uleb128 0x2
 6793 131d 91       		.byte	0x91
 6794 131e 70       		.sleb128 -16
 6795 131f 28       		.uleb128 0x28
 6796 1320 5C000000 		.4byte	.LBB2
 6797 1324 6C000000 		.4byte	.LBE2-.LBB2
 6798 1328 26       		.uleb128 0x26
 6799 1329 6C656E00 		.ascii	"len\000"
 6800 132d 02       		.byte	0x2
 6801 132e 6A       		.byte	0x6a
 6802 132f 45080000 		.4byte	0x845
 6803 1333 02       		.uleb128 0x2
ARM GAS  C:\Users\Luis\AppData\Local\Temp\ccd19DXF.s 			page 123


 6804 1334 91       		.byte	0x91
 6805 1335 6A       		.sleb128 -22
 6806 1336 00       		.byte	0
 6807 1337 00       		.byte	0
 6808 1338 29       		.uleb128 0x29
 6809 1339 F20B0000 		.4byte	.LASF292
 6810 133d 02       		.byte	0x2
 6811 133e 90       		.byte	0x90
 6812 133f 00000000 		.4byte	.LFB261
 6813 1343 D8000000 		.4byte	.LFE261-.LFB261
 6814 1347 01       		.uleb128 0x1
 6815 1348 9C       		.byte	0x9c
 6816 1349 BC130000 		.4byte	0x13bc
 6817 134d 24       		.uleb128 0x24
 6818 134e 61726700 		.ascii	"arg\000"
 6819 1352 02       		.byte	0x2
 6820 1353 90       		.byte	0x90
 6821 1354 47030000 		.4byte	0x347
 6822 1358 02       		.uleb128 0x2
 6823 1359 91       		.byte	0x91
 6824 135a 64       		.sleb128 -28
 6825 135b 24       		.uleb128 0x24
 6826 135c 70636200 		.ascii	"pcb\000"
 6827 1360 02       		.byte	0x2
 6828 1361 90       		.byte	0x90
 6829 1362 BE0E0000 		.4byte	0xebe
 6830 1366 02       		.uleb128 0x2
 6831 1367 91       		.byte	0x91
 6832 1368 60       		.sleb128 -32
 6833 1369 24       		.uleb128 0x24
 6834 136a 7000     		.ascii	"p\000"
 6835 136c 02       		.byte	0x2
 6836 136d 90       		.byte	0x90
 6837 136e 5A090000 		.4byte	0x95a
 6838 1372 02       		.uleb128 0x2
 6839 1373 91       		.byte	0x91
 6840 1374 5C       		.sleb128 -36
 6841 1375 25       		.uleb128 0x25
 6842 1376 640D0000 		.4byte	.LASF144
 6843 137a 02       		.byte	0x2
 6844 137b 91       		.byte	0x91
 6845 137c 60090000 		.4byte	0x960
 6846 1380 02       		.uleb128 0x2
 6847 1381 91       		.byte	0x91
 6848 1382 58       		.sleb128 -40
 6849 1383 25       		.uleb128 0x25
 6850 1384 4C060000 		.4byte	.LASF164
 6851 1388 02       		.byte	0x2
 6852 1389 91       		.byte	0x91
 6853 138a 45080000 		.4byte	0x845
 6854 138e 02       		.uleb128 0x2
 6855 138f 91       		.byte	0x91
 6856 1390 00       		.sleb128 0
 6857 1391 26       		.uleb128 0x26
 6858 1392 62756600 		.ascii	"buf\000"
 6859 1396 02       		.byte	0x2
 6860 1397 93       		.byte	0x93
ARM GAS  C:\Users\Luis\AppData\Local\Temp\ccd19DXF.s 			page 124


 6861 1398 8C100000 		.4byte	0x108c
 6862 139c 02       		.uleb128 0x2
 6863 139d 91       		.byte	0x91
 6864 139e 70       		.sleb128 -16
 6865 139f 27       		.uleb128 0x27
 6866 13a0 7C050000 		.4byte	.LASF248
 6867 13a4 02       		.byte	0x2
 6868 13a5 94       		.byte	0x94
 6869 13a6 4F0A0000 		.4byte	0xa4f
 6870 13aa 02       		.uleb128 0x2
 6871 13ab 91       		.byte	0x91
 6872 13ac 74       		.sleb128 -12
 6873 13ad 26       		.uleb128 0x26
 6874 13ae 6C656E00 		.ascii	"len\000"
 6875 13b2 02       		.byte	0x2
 6876 13b3 95       		.byte	0x95
 6877 13b4 45080000 		.4byte	0x845
 6878 13b8 02       		.uleb128 0x2
 6879 13b9 91       		.byte	0x91
 6880 13ba 6E       		.sleb128 -18
 6881 13bb 00       		.byte	0
 6882 13bc 23       		.uleb128 0x23
 6883 13bd 64050000 		.4byte	.LASF294
 6884 13c1 02       		.byte	0x2
 6885 13c2 D8       		.byte	0xd8
 6886 13c3 8A080000 		.4byte	0x88a
 6887 13c7 00000000 		.4byte	.LFB262
 6888 13cb D8000000 		.4byte	.LFE262-.LFB262
 6889 13cf 01       		.uleb128 0x1
 6890 13d0 9C       		.byte	0x9c
 6891 13d1 28140000 		.4byte	0x1428
 6892 13d5 24       		.uleb128 0x24
 6893 13d6 61726700 		.ascii	"arg\000"
 6894 13da 02       		.byte	0x2
 6895 13db D8       		.byte	0xd8
 6896 13dc 47030000 		.4byte	0x347
 6897 13e0 02       		.uleb128 0x2
 6898 13e1 91       		.byte	0x91
 6899 13e2 6C       		.sleb128 -20
 6900 13e3 24       		.uleb128 0x24
 6901 13e4 70636200 		.ascii	"pcb\000"
 6902 13e8 02       		.byte	0x2
 6903 13e9 D8       		.byte	0xd8
 6904 13ea 270E0000 		.4byte	0xe27
 6905 13ee 02       		.uleb128 0x2
 6906 13ef 91       		.byte	0x91
 6907 13f0 68       		.sleb128 -24
 6908 13f1 24       		.uleb128 0x24
 6909 13f2 7000     		.ascii	"p\000"
 6910 13f4 02       		.byte	0x2
 6911 13f5 D8       		.byte	0xd8
 6912 13f6 5A090000 		.4byte	0x95a
 6913 13fa 02       		.uleb128 0x2
 6914 13fb 91       		.byte	0x91
 6915 13fc 64       		.sleb128 -28
 6916 13fd 24       		.uleb128 0x24
 6917 13fe 65727200 		.ascii	"err\000"
ARM GAS  C:\Users\Luis\AppData\Local\Temp\ccd19DXF.s 			page 125


 6918 1402 02       		.byte	0x2
 6919 1403 D8       		.byte	0xd8
 6920 1404 8A080000 		.4byte	0x88a
 6921 1408 02       		.uleb128 0x2
 6922 1409 91       		.byte	0x91
 6923 140a 63       		.sleb128 -29
 6924 140b 27       		.uleb128 0x27
 6925 140c 7C050000 		.4byte	.LASF248
 6926 1410 02       		.byte	0x2
 6927 1411 DA       		.byte	0xda
 6928 1412 4F0A0000 		.4byte	0xa4f
 6929 1416 02       		.uleb128 0x2
 6930 1417 91       		.byte	0x91
 6931 1418 70       		.sleb128 -16
 6932 1419 26       		.uleb128 0x26
 6933 141a 6C656E00 		.ascii	"len\000"
 6934 141e 02       		.byte	0x2
 6935 141f DB       		.byte	0xdb
 6936 1420 45080000 		.4byte	0x845
 6937 1424 02       		.uleb128 0x2
 6938 1425 91       		.byte	0x91
 6939 1426 76       		.sleb128 -10
 6940 1427 00       		.byte	0
 6941 1428 2A       		.uleb128 0x2a
 6942 1429 C1020000 		.4byte	.LASF295
 6943 142d 02       		.byte	0x2
 6944 142e 1501     		.2byte	0x115
 6945 1430 8A080000 		.4byte	0x88a
 6946 1434 00000000 		.4byte	.LFB263
 6947 1438 98000000 		.4byte	.LFE263-.LFB263
 6948 143c 01       		.uleb128 0x1
 6949 143d 9C       		.byte	0x9c
 6950 143e 70140000 		.4byte	0x1470
 6951 1442 2B       		.uleb128 0x2b
 6952 1443 61726700 		.ascii	"arg\000"
 6953 1447 02       		.byte	0x2
 6954 1448 1501     		.2byte	0x115
 6955 144a 47030000 		.4byte	0x347
 6956 144e 02       		.uleb128 0x2
 6957 144f 91       		.byte	0x91
 6958 1450 6C       		.sleb128 -20
 6959 1451 2B       		.uleb128 0x2b
 6960 1452 70636200 		.ascii	"pcb\000"
 6961 1456 02       		.byte	0x2
 6962 1457 1501     		.2byte	0x115
 6963 1459 270E0000 		.4byte	0xe27
 6964 145d 02       		.uleb128 0x2
 6965 145e 91       		.byte	0x91
 6966 145f 68       		.sleb128 -24
 6967 1460 2C       		.uleb128 0x2c
 6968 1461 7C050000 		.4byte	.LASF248
 6969 1465 02       		.byte	0x2
 6970 1466 1701     		.2byte	0x117
 6971 1468 4F0A0000 		.4byte	0xa4f
 6972 146c 02       		.uleb128 0x2
 6973 146d 91       		.byte	0x91
 6974 146e 74       		.sleb128 -12
ARM GAS  C:\Users\Luis\AppData\Local\Temp\ccd19DXF.s 			page 126


 6975 146f 00       		.byte	0
 6976 1470 2A       		.uleb128 0x2a
 6977 1471 71020000 		.4byte	.LASF296
 6978 1475 02       		.byte	0x2
 6979 1476 3901     		.2byte	0x139
 6980 1478 8A080000 		.4byte	0x88a
 6981 147c 00000000 		.4byte	.LFB264
 6982 1480 98000000 		.4byte	.LFE264-.LFB264
 6983 1484 01       		.uleb128 0x1
 6984 1485 9C       		.byte	0x9c
 6985 1486 C7140000 		.4byte	0x14c7
 6986 148a 2B       		.uleb128 0x2b
 6987 148b 61726700 		.ascii	"arg\000"
 6988 148f 02       		.byte	0x2
 6989 1490 3901     		.2byte	0x139
 6990 1492 47030000 		.4byte	0x347
 6991 1496 02       		.uleb128 0x2
 6992 1497 91       		.byte	0x91
 6993 1498 6C       		.sleb128 -20
 6994 1499 2B       		.uleb128 0x2b
 6995 149a 70636200 		.ascii	"pcb\000"
 6996 149e 02       		.byte	0x2
 6997 149f 3901     		.2byte	0x139
 6998 14a1 270E0000 		.4byte	0xe27
 6999 14a5 02       		.uleb128 0x2
 7000 14a6 91       		.byte	0x91
 7001 14a7 68       		.sleb128 -24
 7002 14a8 2B       		.uleb128 0x2b
 7003 14a9 6C656E00 		.ascii	"len\000"
 7004 14ad 02       		.byte	0x2
 7005 14ae 3901     		.2byte	0x139
 7006 14b0 45080000 		.4byte	0x845
 7007 14b4 02       		.uleb128 0x2
 7008 14b5 91       		.byte	0x91
 7009 14b6 66       		.sleb128 -26
 7010 14b7 2C       		.uleb128 0x2c
 7011 14b8 7C050000 		.4byte	.LASF248
 7012 14bc 02       		.byte	0x2
 7013 14bd 3B01     		.2byte	0x13b
 7014 14bf 4F0A0000 		.4byte	0xa4f
 7015 14c3 02       		.uleb128 0x2
 7016 14c4 91       		.byte	0x91
 7017 14c5 74       		.sleb128 -12
 7018 14c6 00       		.byte	0
 7019 14c7 21       		.uleb128 0x21
 7020 14c8 15080000 		.4byte	.LASF297
 7021 14cc 02       		.byte	0x2
 7022 14cd 5B01     		.2byte	0x15b
 7023 14cf 00000000 		.4byte	.LFB265
 7024 14d3 2C010000 		.4byte	.LFE265-.LFB265
 7025 14d7 01       		.uleb128 0x1
 7026 14d8 9C       		.byte	0x9c
 7027 14d9 33150000 		.4byte	0x1533
 7028 14dd 2B       		.uleb128 0x2b
 7029 14de 61726700 		.ascii	"arg\000"
 7030 14e2 02       		.byte	0x2
 7031 14e3 5B01     		.2byte	0x15b
ARM GAS  C:\Users\Luis\AppData\Local\Temp\ccd19DXF.s 			page 127


 7032 14e5 47030000 		.4byte	0x347
 7033 14e9 02       		.uleb128 0x2
 7034 14ea 91       		.byte	0x91
 7035 14eb 64       		.sleb128 -28
 7036 14ec 2B       		.uleb128 0x2b
 7037 14ed 65727200 		.ascii	"err\000"
 7038 14f1 02       		.byte	0x2
 7039 14f2 5B01     		.2byte	0x15b
 7040 14f4 8A080000 		.4byte	0x88a
 7041 14f8 02       		.uleb128 0x2
 7042 14f9 91       		.byte	0x91
 7043 14fa 63       		.sleb128 -29
 7044 14fb 2C       		.uleb128 0x2c
 7045 14fc 7C050000 		.4byte	.LASF248
 7046 1500 02       		.byte	0x2
 7047 1501 5D01     		.2byte	0x15d
 7048 1503 4F0A0000 		.4byte	0xa4f
 7049 1507 02       		.uleb128 0x2
 7050 1508 91       		.byte	0x91
 7051 1509 74       		.sleb128 -12
 7052 150a 2C       		.uleb128 0x2c
 7053 150b E1060000 		.4byte	.LASF298
 7054 150f 02       		.byte	0x2
 7055 1510 5E01     		.2byte	0x15e
 7056 1512 D3090000 		.4byte	0x9d3
 7057 1516 02       		.uleb128 0x2
 7058 1517 91       		.byte	0x91
 7059 1518 73       		.sleb128 -13
 7060 1519 28       		.uleb128 0x28
 7061 151a BA000000 		.4byte	.LBB3
 7062 151e 4E000000 		.4byte	.LBE3-.LBB3
 7063 1522 2C       		.uleb128 0x2c
 7064 1523 F3080000 		.4byte	.LASF299
 7065 1527 02       		.byte	0x2
 7066 1528 8601     		.2byte	0x186
 7067 152a 25000000 		.4byte	0x25
 7068 152e 02       		.uleb128 0x2
 7069 152f 91       		.byte	0x91
 7070 1530 6C       		.sleb128 -20
 7071 1531 00       		.byte	0
 7072 1532 00       		.byte	0
 7073 1533 21       		.uleb128 0x21
 7074 1534 6D080000 		.4byte	.LASF300
 7075 1538 02       		.byte	0x2
 7076 1539 9D01     		.2byte	0x19d
 7077 153b 00000000 		.4byte	.LFB266
 7078 153f 50000000 		.4byte	.LFE266-.LFB266
 7079 1543 01       		.uleb128 0x1
 7080 1544 9C       		.byte	0x9c
 7081 1545 68150000 		.4byte	0x1568
 7082 1549 22       		.uleb128 0x22
 7083 154a 7C050000 		.4byte	.LASF248
 7084 154e 02       		.byte	0x2
 7085 154f 9D01     		.2byte	0x19d
 7086 1551 4F0A0000 		.4byte	0xa4f
 7087 1555 02       		.uleb128 0x2
 7088 1556 91       		.byte	0x91
ARM GAS  C:\Users\Luis\AppData\Local\Temp\ccd19DXF.s 			page 128


 7089 1557 6C       		.sleb128 -20
 7090 1558 2D       		.uleb128 0x2d
 7091 1559 70636200 		.ascii	"pcb\000"
 7092 155d 02       		.byte	0x2
 7093 155e 9F01     		.2byte	0x19f
 7094 1560 270E0000 		.4byte	0xe27
 7095 1564 02       		.uleb128 0x2
 7096 1565 91       		.byte	0x91
 7097 1566 74       		.sleb128 -12
 7098 1567 00       		.byte	0
 7099 1568 2A       		.uleb128 0x2a
 7100 1569 A2070000 		.4byte	.LASF301
 7101 156d 02       		.byte	0x2
 7102 156e B001     		.2byte	0x1b0
 7103 1570 8A080000 		.4byte	0x88a
 7104 1574 00000000 		.4byte	.LFB267
 7105 1578 DA000000 		.4byte	.LFE267-.LFB267
 7106 157c 01       		.uleb128 0x1
 7107 157d 9C       		.byte	0x9c
 7108 157e E7150000 		.4byte	0x15e7
 7109 1582 2B       		.uleb128 0x2b
 7110 1583 61726700 		.ascii	"arg\000"
 7111 1587 02       		.byte	0x2
 7112 1588 B001     		.2byte	0x1b0
 7113 158a 47030000 		.4byte	0x347
 7114 158e 02       		.uleb128 0x2
 7115 158f 91       		.byte	0x91
 7116 1590 64       		.sleb128 -28
 7117 1591 22       		.uleb128 0x22
 7118 1592 FA070000 		.4byte	.LASF302
 7119 1596 02       		.byte	0x2
 7120 1597 B001     		.2byte	0x1b0
 7121 1599 270E0000 		.4byte	0xe27
 7122 159d 02       		.uleb128 0x2
 7123 159e 91       		.byte	0x91
 7124 159f 60       		.sleb128 -32
 7125 15a0 2B       		.uleb128 0x2b
 7126 15a1 65727200 		.ascii	"err\000"
 7127 15a5 02       		.byte	0x2
 7128 15a6 B001     		.2byte	0x1b0
 7129 15a8 8A080000 		.4byte	0x88a
 7130 15ac 02       		.uleb128 0x2
 7131 15ad 91       		.byte	0x91
 7132 15ae 5F       		.sleb128 -33
 7133 15af 2C       		.uleb128 0x2c
 7134 15b0 DC0D0000 		.4byte	.LASF303
 7135 15b4 02       		.byte	0x2
 7136 15b5 B201     		.2byte	0x1b2
 7137 15b7 4F0A0000 		.4byte	0xa4f
 7138 15bb 02       		.uleb128 0x2
 7139 15bc 91       		.byte	0x91
 7140 15bd 70       		.sleb128 -16
 7141 15be 2C       		.uleb128 0x2c
 7142 15bf 7C050000 		.4byte	.LASF248
 7143 15c3 02       		.byte	0x2
 7144 15c4 B301     		.2byte	0x1b3
 7145 15c6 4F0A0000 		.4byte	0xa4f
ARM GAS  C:\Users\Luis\AppData\Local\Temp\ccd19DXF.s 			page 129


 7146 15ca 02       		.uleb128 0x2
 7147 15cb 91       		.byte	0x91
 7148 15cc 74       		.sleb128 -12
 7149 15cd 28       		.uleb128 0x28
 7150 15ce 66000000 		.4byte	.LBB4
 7151 15d2 54000000 		.4byte	.LBE4-.LBB4
 7152 15d6 2D       		.uleb128 0x2d
 7153 15d7 70636200 		.ascii	"pcb\000"
 7154 15db 02       		.byte	0x2
 7155 15dc CC01     		.2byte	0x1cc
 7156 15de 270E0000 		.4byte	0xe27
 7157 15e2 02       		.uleb128 0x2
 7158 15e3 91       		.byte	0x91
 7159 15e4 6C       		.sleb128 -20
 7160 15e5 00       		.byte	0
 7161 15e6 00       		.byte	0
 7162 15e7 21       		.uleb128 0x21
 7163 15e8 B60D0000 		.4byte	.LASF304
 7164 15ec 02       		.byte	0x2
 7165 15ed EA01     		.2byte	0x1ea
 7166 15ef 00000000 		.4byte	.LFB268
 7167 15f3 F8000000 		.4byte	.LFE268-.LFB268
 7168 15f7 01       		.uleb128 0x1
 7169 15f8 9C       		.byte	0x9c
 7170 15f9 0D160000 		.4byte	0x160d
 7171 15fd 2B       		.uleb128 0x2b
 7172 15fe 6D736700 		.ascii	"msg\000"
 7173 1602 02       		.byte	0x2
 7174 1603 EA01     		.2byte	0x1ea
 7175 1605 740F0000 		.4byte	0xf74
 7176 1609 02       		.uleb128 0x2
 7177 160a 91       		.byte	0x91
 7178 160b 6C       		.sleb128 -20
 7179 160c 00       		.byte	0
 7180 160d 2E       		.uleb128 0x2e
 7181 160e 220B0000 		.4byte	.LASF306
 7182 1612 02       		.byte	0x2
 7183 1613 2402     		.2byte	0x224
 7184 1615 00000000 		.4byte	.LFB269
 7185 1619 30000000 		.4byte	.LFE269-.LFB269
 7186 161d 01       		.uleb128 0x1
 7187 161e 9C       		.byte	0x9c
 7188 161f 33160000 		.4byte	0x1633
 7189 1623 2B       		.uleb128 0x2b
 7190 1624 6D736700 		.ascii	"msg\000"
 7191 1628 02       		.byte	0x2
 7192 1629 2402     		.2byte	0x224
 7193 162b 740F0000 		.4byte	0xf74
 7194 162f 02       		.uleb128 0x2
 7195 1630 91       		.byte	0x91
 7196 1631 74       		.sleb128 -12
 7197 1632 00       		.byte	0
 7198 1633 2F       		.uleb128 0x2f
 7199 1634 2F0D0000 		.4byte	.LASF342
 7200 1638 02       		.byte	0x2
 7201 1639 3C02     		.2byte	0x23c
 7202 163b 4F0A0000 		.4byte	0xa4f
ARM GAS  C:\Users\Luis\AppData\Local\Temp\ccd19DXF.s 			page 130


 7203 163f 00000000 		.4byte	.LFB270
 7204 1643 DC000000 		.4byte	.LFE270-.LFB270
 7205 1647 01       		.uleb128 0x1
 7206 1648 9C       		.byte	0x9c
 7207 1649 94160000 		.4byte	0x1694
 7208 164d 2B       		.uleb128 0x2b
 7209 164e 7400     		.ascii	"t\000"
 7210 1650 02       		.byte	0x2
 7211 1651 3C02     		.2byte	0x23c
 7212 1653 A1090000 		.4byte	0x9a1
 7213 1657 02       		.uleb128 0x2
 7214 1658 91       		.byte	0x91
 7215 1659 6F       		.sleb128 -17
 7216 165a 22       		.uleb128 0x22
 7217 165b 6F0D0000 		.4byte	.LASF194
 7218 165f 02       		.byte	0x2
 7219 1660 3C02     		.2byte	0x23c
 7220 1662 290A0000 		.4byte	0xa29
 7221 1666 02       		.uleb128 0x2
 7222 1667 91       		.byte	0x91
 7223 1668 68       		.sleb128 -24
 7224 1669 2C       		.uleb128 0x2c
 7225 166a 7C050000 		.4byte	.LASF248
 7226 166e 02       		.byte	0x2
 7227 166f 3E02     		.2byte	0x23e
 7228 1671 4F0A0000 		.4byte	0xa4f
 7229 1675 02       		.uleb128 0x2
 7230 1676 91       		.byte	0x91
 7231 1677 70       		.sleb128 -16
 7232 1678 2C       		.uleb128 0x2c
 7233 1679 8D080000 		.4byte	.LASF305
 7234 167d 02       		.byte	0x2
 7235 167e 3F02     		.2byte	0x23f
 7236 1680 25000000 		.4byte	0x25
 7237 1684 02       		.uleb128 0x2
 7238 1685 91       		.byte	0x91
 7239 1686 74       		.sleb128 -12
 7240 1687 30       		.uleb128 0x30
 7241 1688 B2070000 		.4byte	.LASF331
 7242 168c 02       		.byte	0x2
 7243 168d 8502     		.2byte	0x285
 7244 168f C4000000 		.4byte	.L101
 7245 1693 00       		.byte	0
 7246 1694 2E       		.uleb128 0x2e
 7247 1695 CE000000 		.4byte	.LASF307
 7248 1699 02       		.byte	0x2
 7249 169a 9102     		.2byte	0x291
 7250 169c 00000000 		.4byte	.LFB271
 7251 16a0 70000000 		.4byte	.LFE271-.LFB271
 7252 16a4 01       		.uleb128 0x1
 7253 16a5 9C       		.byte	0x9c
 7254 16a6 BA160000 		.4byte	0x16ba
 7255 16aa 22       		.uleb128 0x22
 7256 16ab 7C050000 		.4byte	.LASF248
 7257 16af 02       		.byte	0x2
 7258 16b0 9102     		.2byte	0x291
 7259 16b2 4F0A0000 		.4byte	0xa4f
ARM GAS  C:\Users\Luis\AppData\Local\Temp\ccd19DXF.s 			page 131


 7260 16b6 02       		.uleb128 0x2
 7261 16b7 91       		.byte	0x91
 7262 16b8 74       		.sleb128 -12
 7263 16b9 00       		.byte	0
 7264 16ba 21       		.uleb128 0x21
 7265 16bb 2F080000 		.4byte	.LASF308
 7266 16bf 02       		.byte	0x2
 7267 16c0 AA02     		.2byte	0x2aa
 7268 16c2 00000000 		.4byte	.LFB272
 7269 16c6 0C010000 		.4byte	.LFE272-.LFB272
 7270 16ca 01       		.uleb128 0x1
 7271 16cb 9C       		.byte	0x9c
 7272 16cc 15170000 		.4byte	0x1715
 7273 16d0 22       		.uleb128 0x22
 7274 16d1 7C050000 		.4byte	.LASF248
 7275 16d5 02       		.byte	0x2
 7276 16d6 AA02     		.2byte	0x2aa
 7277 16d8 4F0A0000 		.4byte	0xa4f
 7278 16dc 02       		.uleb128 0x2
 7279 16dd 91       		.byte	0x91
 7280 16de 64       		.sleb128 -28
 7281 16df 2D       		.uleb128 0x2d
 7282 16e0 6D656D00 		.ascii	"mem\000"
 7283 16e4 02       		.byte	0x2
 7284 16e5 AC02     		.2byte	0x2ac
 7285 16e7 47030000 		.4byte	0x347
 7286 16eb 02       		.uleb128 0x2
 7287 16ec 91       		.byte	0x91
 7288 16ed 6C       		.sleb128 -20
 7289 16ee 2D       		.uleb128 0x2d
 7290 16ef 7000     		.ascii	"p\000"
 7291 16f1 02       		.byte	0x2
 7292 16f2 AE02     		.2byte	0x2ae
 7293 16f4 5A090000 		.4byte	0x95a
 7294 16f8 02       		.uleb128 0x2
 7295 16f9 91       		.byte	0x91
 7296 16fa 74       		.sleb128 -12
 7297 16fb 28       		.uleb128 0x28
 7298 16fc 94000000 		.4byte	.LBB5
 7299 1700 40000000 		.4byte	.LBE5-.LBB5
 7300 1704 2C       		.uleb128 0x2c
 7301 1705 DC0D0000 		.4byte	.LASF303
 7302 1709 02       		.byte	0x2
 7303 170a CE02     		.2byte	0x2ce
 7304 170c 4F0A0000 		.4byte	0xa4f
 7305 1710 02       		.uleb128 0x2
 7306 1711 91       		.byte	0x91
 7307 1712 70       		.sleb128 -16
 7308 1713 00       		.byte	0
 7309 1714 00       		.byte	0
 7310 1715 21       		.uleb128 0x21
 7311 1716 E00B0000 		.4byte	.LASF309
 7312 171a 02       		.byte	0x2
 7313 171b EB02     		.2byte	0x2eb
 7314 171d 00000000 		.4byte	.LFB273
 7315 1721 00020000 		.4byte	.LFE273-.LFB273
 7316 1725 01       		.uleb128 0x1
ARM GAS  C:\Users\Luis\AppData\Local\Temp\ccd19DXF.s 			page 132


 7317 1726 9C       		.byte	0x9c
 7318 1727 86170000 		.4byte	0x1786
 7319 172b 22       		.uleb128 0x22
 7320 172c 7C050000 		.4byte	.LASF248
 7321 1730 02       		.byte	0x2
 7322 1731 EB02     		.2byte	0x2eb
 7323 1733 4F0A0000 		.4byte	0xa4f
 7324 1737 02       		.uleb128 0x2
 7325 1738 91       		.byte	0x91
 7326 1739 6C       		.sleb128 -20
 7327 173a 2D       		.uleb128 0x2d
 7328 173b 65727200 		.ascii	"err\000"
 7329 173f 02       		.byte	0x2
 7330 1740 ED02     		.2byte	0x2ed
 7331 1742 8A080000 		.4byte	0x88a
 7332 1746 02       		.uleb128 0x2
 7333 1747 91       		.byte	0x91
 7334 1748 77       		.sleb128 -9
 7335 1749 2C       		.uleb128 0x2c
 7336 174a 110D0000 		.4byte	.LASF254
 7337 174e 02       		.byte	0x2
 7338 174f EE02     		.2byte	0x2ee
 7339 1751 2F080000 		.4byte	0x82f
 7340 1755 02       		.uleb128 0x2
 7341 1756 91       		.byte	0x91
 7342 1757 76       		.sleb128 -10
 7343 1758 2C       		.uleb128 0x2c
 7344 1759 AF0E0000 		.4byte	.LASF310
 7345 175d 02       		.byte	0x2
 7346 175e EE02     		.2byte	0x2ee
 7347 1760 2F080000 		.4byte	0x82f
 7348 1764 02       		.uleb128 0x2
 7349 1765 91       		.byte	0x91
 7350 1766 75       		.sleb128 -11
 7351 1767 2C       		.uleb128 0x2c
 7352 1768 87010000 		.4byte	.LASF311
 7353 176c 02       		.byte	0x2
 7354 176d EE02     		.2byte	0x2ee
 7355 176f 2F080000 		.4byte	0x82f
 7356 1773 02       		.uleb128 0x2
 7357 1774 91       		.byte	0x91
 7358 1775 74       		.sleb128 -12
 7359 1776 2C       		.uleb128 0x2c
 7360 1777 B7060000 		.4byte	.LASF312
 7361 177b 02       		.byte	0x2
 7362 177c EE02     		.2byte	0x2ee
 7363 177e 2F080000 		.4byte	0x82f
 7364 1782 02       		.uleb128 0x2
 7365 1783 91       		.byte	0x91
 7366 1784 73       		.sleb128 -13
 7367 1785 00       		.byte	0
 7368 1786 2E       		.uleb128 0x2e
 7369 1787 67000000 		.4byte	.LASF313
 7370 178b 02       		.byte	0x2
 7371 178c 4003     		.2byte	0x340
 7372 178e 00000000 		.4byte	.LFB274
 7373 1792 5C010000 		.4byte	.LFE274-.LFB274
ARM GAS  C:\Users\Luis\AppData\Local\Temp\ccd19DXF.s 			page 133


 7374 1796 01       		.uleb128 0x1
 7375 1797 9C       		.byte	0x9c
 7376 1798 AC170000 		.4byte	0x17ac
 7377 179c 2B       		.uleb128 0x2b
 7378 179d 6D736700 		.ascii	"msg\000"
 7379 17a1 02       		.byte	0x2
 7380 17a2 4003     		.2byte	0x340
 7381 17a4 740F0000 		.4byte	0xf74
 7382 17a8 02       		.uleb128 0x2
 7383 17a9 91       		.byte	0x91
 7384 17aa 74       		.sleb128 -12
 7385 17ab 00       		.byte	0
 7386 17ac 2E       		.uleb128 0x2e
 7387 17ad FF090000 		.4byte	.LASF314
 7388 17b1 02       		.byte	0x2
 7389 17b2 8203     		.2byte	0x382
 7390 17b4 00000000 		.4byte	.LFB275
 7391 17b8 BC000000 		.4byte	.LFE275-.LFB275
 7392 17bc 01       		.uleb128 0x1
 7393 17bd 9C       		.byte	0x9c
 7394 17be D2170000 		.4byte	0x17d2
 7395 17c2 2B       		.uleb128 0x2b
 7396 17c3 6D736700 		.ascii	"msg\000"
 7397 17c7 02       		.byte	0x2
 7398 17c8 8203     		.2byte	0x382
 7399 17ca 740F0000 		.4byte	0xf74
 7400 17ce 02       		.uleb128 0x2
 7401 17cf 91       		.byte	0x91
 7402 17d0 74       		.sleb128 -12
 7403 17d1 00       		.byte	0
 7404 17d2 2A       		.uleb128 0x2a
 7405 17d3 770C0000 		.4byte	.LASF315
 7406 17d7 02       		.byte	0x2
 7407 17d8 A903     		.2byte	0x3a9
 7408 17da 8A080000 		.4byte	0x88a
 7409 17de 00000000 		.4byte	.LFB276
 7410 17e2 E8000000 		.4byte	.LFE276-.LFB276
 7411 17e6 01       		.uleb128 0x1
 7412 17e7 9C       		.byte	0x9c
 7413 17e8 38180000 		.4byte	0x1838
 7414 17ec 2B       		.uleb128 0x2b
 7415 17ed 61726700 		.ascii	"arg\000"
 7416 17f1 02       		.byte	0x2
 7417 17f2 A903     		.2byte	0x3a9
 7418 17f4 47030000 		.4byte	0x347
 7419 17f8 02       		.uleb128 0x2
 7420 17f9 91       		.byte	0x91
 7421 17fa 6C       		.sleb128 -20
 7422 17fb 2B       		.uleb128 0x2b
 7423 17fc 70636200 		.ascii	"pcb\000"
 7424 1800 02       		.byte	0x2
 7425 1801 A903     		.2byte	0x3a9
 7426 1803 270E0000 		.4byte	0xe27
 7427 1807 02       		.uleb128 0x2
 7428 1808 91       		.byte	0x91
 7429 1809 68       		.sleb128 -24
 7430 180a 2B       		.uleb128 0x2b
ARM GAS  C:\Users\Luis\AppData\Local\Temp\ccd19DXF.s 			page 134


 7431 180b 65727200 		.ascii	"err\000"
 7432 180f 02       		.byte	0x2
 7433 1810 A903     		.2byte	0x3a9
 7434 1812 8A080000 		.4byte	0x88a
 7435 1816 02       		.uleb128 0x2
 7436 1817 91       		.byte	0x91
 7437 1818 67       		.sleb128 -25
 7438 1819 2C       		.uleb128 0x2c
 7439 181a 7C050000 		.4byte	.LASF248
 7440 181e 02       		.byte	0x2
 7441 181f AB03     		.2byte	0x3ab
 7442 1821 4F0A0000 		.4byte	0xa4f
 7443 1825 02       		.uleb128 0x2
 7444 1826 91       		.byte	0x91
 7445 1827 74       		.sleb128 -12
 7446 1828 2C       		.uleb128 0x2c
 7447 1829 9E0D0000 		.4byte	.LASF316
 7448 182d 02       		.byte	0x2
 7449 182e AC03     		.2byte	0x3ac
 7450 1830 25000000 		.4byte	0x25
 7451 1834 02       		.uleb128 0x2
 7452 1835 91       		.byte	0x91
 7453 1836 70       		.sleb128 -16
 7454 1837 00       		.byte	0
 7455 1838 2E       		.uleb128 0x2e
 7456 1839 E7070000 		.4byte	.LASF317
 7457 183d 02       		.byte	0x2
 7458 183e D803     		.2byte	0x3d8
 7459 1840 00000000 		.4byte	.LFB277
 7460 1844 44010000 		.4byte	.LFE277-.LFB277
 7461 1848 01       		.uleb128 0x1
 7462 1849 9C       		.byte	0x9c
 7463 184a 77180000 		.4byte	0x1877
 7464 184e 2B       		.uleb128 0x2b
 7465 184f 6D736700 		.ascii	"msg\000"
 7466 1853 02       		.byte	0x2
 7467 1854 D803     		.2byte	0x3d8
 7468 1856 740F0000 		.4byte	0xf74
 7469 185a 02       		.uleb128 0x2
 7470 185b 91       		.byte	0x91
 7471 185c 6C       		.sleb128 -20
 7472 185d 28       		.uleb128 0x28
 7473 185e B6000000 		.4byte	.LBB6
 7474 1862 62000000 		.4byte	.LBE6-.LBB6
 7475 1866 2C       		.uleb128 0x2c
 7476 1867 2B010000 		.4byte	.LASF318
 7477 186b 02       		.byte	0x2
 7478 186c F303     		.2byte	0x3f3
 7479 186e 2F080000 		.4byte	0x82f
 7480 1872 02       		.uleb128 0x2
 7481 1873 91       		.byte	0x91
 7482 1874 77       		.sleb128 -9
 7483 1875 00       		.byte	0
 7484 1876 00       		.byte	0
 7485 1877 2E       		.uleb128 0x2e
 7486 1878 20000000 		.4byte	.LASF319
 7487 187c 02       		.byte	0x2
ARM GAS  C:\Users\Luis\AppData\Local\Temp\ccd19DXF.s 			page 135


 7488 187d 1204     		.2byte	0x412
 7489 187f 00000000 		.4byte	.LFB278
 7490 1883 42000000 		.4byte	.LFE278-.LFB278
 7491 1887 01       		.uleb128 0x1
 7492 1888 9C       		.byte	0x9c
 7493 1889 9D180000 		.4byte	0x189d
 7494 188d 2B       		.uleb128 0x2b
 7495 188e 6D736700 		.ascii	"msg\000"
 7496 1892 02       		.byte	0x2
 7497 1893 1204     		.2byte	0x412
 7498 1895 740F0000 		.4byte	0xf74
 7499 1899 02       		.uleb128 0x2
 7500 189a 91       		.byte	0x91
 7501 189b 74       		.sleb128 -12
 7502 189c 00       		.byte	0
 7503 189d 2E       		.uleb128 0x2e
 7504 189e 9E0C0000 		.4byte	.LASF320
 7505 18a2 02       		.byte	0x2
 7506 18a3 2804     		.2byte	0x428
 7507 18a5 00000000 		.4byte	.LFB279
 7508 18a9 24010000 		.4byte	.LFE279-.LFB279
 7509 18ad 01       		.uleb128 0x1
 7510 18ae 9C       		.byte	0x9c
 7511 18af DC180000 		.4byte	0x18dc
 7512 18b3 2B       		.uleb128 0x2b
 7513 18b4 6D736700 		.ascii	"msg\000"
 7514 18b8 02       		.byte	0x2
 7515 18b9 2804     		.2byte	0x428
 7516 18bb 740F0000 		.4byte	0xf74
 7517 18bf 02       		.uleb128 0x2
 7518 18c0 91       		.byte	0x91
 7519 18c1 6C       		.sleb128 -20
 7520 18c2 28       		.uleb128 0x28
 7521 18c3 46000000 		.4byte	.LBB7
 7522 18c7 BE000000 		.4byte	.LBE7-.LBB7
 7523 18cb 2C       		.uleb128 0x2c
 7524 18cc 990D0000 		.4byte	.LASF321
 7525 18d0 02       		.byte	0x2
 7526 18d1 3404     		.2byte	0x434
 7527 18d3 270E0000 		.4byte	0xe27
 7528 18d7 02       		.uleb128 0x2
 7529 18d8 91       		.byte	0x91
 7530 18d9 74       		.sleb128 -12
 7531 18da 00       		.byte	0
 7532 18db 00       		.byte	0
 7533 18dc 2E       		.uleb128 0x2e
 7534 18dd 5E0A0000 		.4byte	.LASF322
 7535 18e1 02       		.byte	0x2
 7536 18e2 6004     		.2byte	0x460
 7537 18e4 00000000 		.4byte	.LFB280
 7538 18e8 0A010000 		.4byte	.LFE280-.LFB280
 7539 18ec 01       		.uleb128 0x1
 7540 18ed 9C       		.byte	0x9c
 7541 18ee 02190000 		.4byte	0x1902
 7542 18f2 2B       		.uleb128 0x2b
 7543 18f3 6D736700 		.ascii	"msg\000"
 7544 18f7 02       		.byte	0x2
ARM GAS  C:\Users\Luis\AppData\Local\Temp\ccd19DXF.s 			page 136


 7545 18f8 6004     		.2byte	0x460
 7546 18fa 740F0000 		.4byte	0xf74
 7547 18fe 02       		.uleb128 0x2
 7548 18ff 91       		.byte	0x91
 7549 1900 74       		.sleb128 -12
 7550 1901 00       		.byte	0
 7551 1902 2E       		.uleb128 0x2e
 7552 1903 940B0000 		.4byte	.LASF323
 7553 1907 02       		.byte	0x2
 7554 1908 9504     		.2byte	0x495
 7555 190a 00000000 		.4byte	.LFB281
 7556 190e 6C000000 		.4byte	.LFE281-.LFB281
 7557 1912 01       		.uleb128 0x1
 7558 1913 9C       		.byte	0x9c
 7559 1914 5A190000 		.4byte	0x195a
 7560 1918 2B       		.uleb128 0x2b
 7561 1919 6D736700 		.ascii	"msg\000"
 7562 191d 02       		.byte	0x2
 7563 191e 9504     		.2byte	0x495
 7564 1920 740F0000 		.4byte	0xf74
 7565 1924 02       		.uleb128 0x2
 7566 1925 91       		.byte	0x91
 7567 1926 6C       		.sleb128 -20
 7568 1927 28       		.uleb128 0x28
 7569 1928 22000000 		.4byte	.LBB8
 7570 192c 38000000 		.4byte	.LBE8-.LBB8
 7571 1930 2C       		.uleb128 0x2c
 7572 1931 180B0000 		.4byte	.LASF324
 7573 1935 02       		.byte	0x2
 7574 1936 A004     		.2byte	0x4a0
 7575 1938 5B080000 		.4byte	0x85b
 7576 193c 02       		.uleb128 0x2
 7577 193d 91       		.byte	0x91
 7578 193e 74       		.sleb128 -12
 7579 193f 28       		.uleb128 0x28
 7580 1940 28000000 		.4byte	.LBB9
 7581 1944 2C000000 		.4byte	.LBE9-.LBB9
 7582 1948 2C       		.uleb128 0x2c
 7583 1949 310E0000 		.4byte	.LASF325
 7584 194d 02       		.byte	0x2
 7585 194e A204     		.2byte	0x4a2
 7586 1950 45080000 		.4byte	0x845
 7587 1954 02       		.uleb128 0x2
 7588 1955 91       		.byte	0x91
 7589 1956 72       		.sleb128 -14
 7590 1957 00       		.byte	0
 7591 1958 00       		.byte	0
 7592 1959 00       		.byte	0
 7593 195a 2A       		.uleb128 0x2a
 7594 195b DC030000 		.4byte	.LASF326
 7595 195f 02       		.byte	0x2
 7596 1960 B804     		.2byte	0x4b8
 7597 1962 8A080000 		.4byte	0x88a
 7598 1966 00000000 		.4byte	.LFB282
 7599 196a 44020000 		.4byte	.LFE282-.LFB282
 7600 196e 01       		.uleb128 0x1
 7601 196f 9C       		.byte	0x9c
ARM GAS  C:\Users\Luis\AppData\Local\Temp\ccd19DXF.s 			page 137


 7602 1970 081A0000 		.4byte	0x1a08
 7603 1974 22       		.uleb128 0x22
 7604 1975 7C050000 		.4byte	.LASF248
 7605 1979 02       		.byte	0x2
 7606 197a B804     		.2byte	0x4b8
 7607 197c 4F0A0000 		.4byte	0xa4f
 7608 1980 02       		.uleb128 0x2
 7609 1981 91       		.byte	0x91
 7610 1982 5C       		.sleb128 -36
 7611 1983 2D       		.uleb128 0x2d
 7612 1984 65727200 		.ascii	"err\000"
 7613 1988 02       		.byte	0x2
 7614 1989 BA04     		.2byte	0x4ba
 7615 198b 8A080000 		.4byte	0x88a
 7616 198f 02       		.uleb128 0x2
 7617 1990 91       		.byte	0x91
 7618 1991 77       		.sleb128 -9
 7619 1992 2C       		.uleb128 0x2c
 7620 1993 22090000 		.4byte	.LASF252
 7621 1997 02       		.byte	0x2
 7622 1998 BB04     		.2byte	0x4bb
 7623 199a 47030000 		.4byte	0x347
 7624 199e 02       		.uleb128 0x2
 7625 199f 91       		.byte	0x91
 7626 19a0 6C       		.sleb128 -20
 7627 19a1 2D       		.uleb128 0x2d
 7628 19a2 6C656E00 		.ascii	"len\000"
 7629 19a6 02       		.byte	0x2
 7630 19a7 BC04     		.2byte	0x4bc
 7631 19a9 45080000 		.4byte	0x845
 7632 19ad 02       		.uleb128 0x2
 7633 19ae 91       		.byte	0x91
 7634 19af 74       		.sleb128 -12
 7635 19b0 2C       		.uleb128 0x2c
 7636 19b1 7B0A0000 		.4byte	.LASF327
 7637 19b5 02       		.byte	0x2
 7638 19b6 BC04     		.2byte	0x4bc
 7639 19b8 45080000 		.4byte	0x845
 7640 19bc 02       		.uleb128 0x2
 7641 19bd 91       		.byte	0x91
 7642 19be 66       		.sleb128 -26
 7643 19bf 2C       		.uleb128 0x2c
 7644 19c0 8B070000 		.4byte	.LASF328
 7645 19c4 02       		.byte	0x2
 7646 19c5 BD04     		.2byte	0x4bd
 7647 19c7 2F080000 		.4byte	0x82f
 7648 19cb 02       		.uleb128 0x2
 7649 19cc 91       		.byte	0x91
 7650 19cd 73       		.sleb128 -13
 7651 19ce 2C       		.uleb128 0x2c
 7652 19cf 9B0A0000 		.4byte	.LASF329
 7653 19d3 02       		.byte	0x2
 7654 19d4 BE04     		.2byte	0x4be
 7655 19d6 2C000000 		.4byte	0x2c
 7656 19da 02       		.uleb128 0x2
 7657 19db 91       		.byte	0x91
 7658 19dc 68       		.sleb128 -24
ARM GAS  C:\Users\Luis\AppData\Local\Temp\ccd19DXF.s 			page 138


 7659 19dd 2C       		.uleb128 0x2c
 7660 19de D2050000 		.4byte	.LASF330
 7661 19e2 02       		.byte	0x2
 7662 19e3 BF04     		.2byte	0x4bf
 7663 19e5 2F080000 		.4byte	0x82f
 7664 19e9 02       		.uleb128 0x2
 7665 19ea 91       		.byte	0x91
 7666 19eb 71       		.sleb128 -15
 7667 19ec 2C       		.uleb128 0x2c
 7668 19ed 190C0000 		.4byte	.LASF253
 7669 19f1 02       		.byte	0x2
 7670 19f2 C104     		.2byte	0x4c1
 7671 19f4 2F080000 		.4byte	0x82f
 7672 19f8 02       		.uleb128 0x2
 7673 19f9 91       		.byte	0x91
 7674 19fa 72       		.sleb128 -14
 7675 19fb 30       		.uleb128 0x30
 7676 19fc 4F0D0000 		.4byte	.LASF332
 7677 1a00 02       		.byte	0x2
 7678 1a01 F904     		.2byte	0x4f9
 7679 1a03 26010000 		.4byte	.L245
 7680 1a07 00       		.byte	0
 7681 1a08 2E       		.uleb128 0x2e
 7682 1a09 82060000 		.4byte	.LASF333
 7683 1a0d 02       		.byte	0x2
 7684 1a0e 3F05     		.2byte	0x53f
 7685 1a10 00000000 		.4byte	.LFB283
 7686 1a14 BC000000 		.4byte	.LFE283-.LFB283
 7687 1a18 01       		.uleb128 0x1
 7688 1a19 9C       		.byte	0x9c
 7689 1a1a 2E1A0000 		.4byte	0x1a2e
 7690 1a1e 2B       		.uleb128 0x2b
 7691 1a1f 6D736700 		.ascii	"msg\000"
 7692 1a23 02       		.byte	0x2
 7693 1a24 3F05     		.2byte	0x53f
 7694 1a26 740F0000 		.4byte	0xf74
 7695 1a2a 02       		.uleb128 0x2
 7696 1a2b 91       		.byte	0x91
 7697 1a2c 74       		.sleb128 -12
 7698 1a2d 00       		.byte	0
 7699 1a2e 2E       		.uleb128 0x2e
 7700 1a2f 6B0B0000 		.4byte	.LASF334
 7701 1a33 02       		.byte	0x2
 7702 1a34 7605     		.2byte	0x576
 7703 1a36 00000000 		.4byte	.LFB284
 7704 1a3a FC000000 		.4byte	.LFE284-.LFB284
 7705 1a3e 01       		.uleb128 0x1
 7706 1a3f 9C       		.byte	0x9c
 7707 1a40 541A0000 		.4byte	0x1a54
 7708 1a44 2B       		.uleb128 0x2b
 7709 1a45 6D736700 		.ascii	"msg\000"
 7710 1a49 02       		.byte	0x2
 7711 1a4a 7605     		.2byte	0x576
 7712 1a4c 740F0000 		.4byte	0xf74
 7713 1a50 02       		.uleb128 0x2
 7714 1a51 91       		.byte	0x91
 7715 1a52 74       		.sleb128 -12
ARM GAS  C:\Users\Luis\AppData\Local\Temp\ccd19DXF.s 			page 139


 7716 1a53 00       		.byte	0
 7717 1a54 2E       		.uleb128 0x2e
 7718 1a55 250A0000 		.4byte	.LASF335
 7719 1a59 02       		.byte	0x2
 7720 1a5a AB05     		.2byte	0x5ab
 7721 1a5c 00000000 		.4byte	.LFB285
 7722 1a60 D0000000 		.4byte	.LFE285-.LFB285
 7723 1a64 01       		.uleb128 0x1
 7724 1a65 9C       		.byte	0x9c
 7725 1a66 7A1A0000 		.4byte	0x1a7a
 7726 1a6a 2B       		.uleb128 0x2b
 7727 1a6b 6D736700 		.ascii	"msg\000"
 7728 1a6f 02       		.byte	0x2
 7729 1a70 AB05     		.2byte	0x5ab
 7730 1a72 740F0000 		.4byte	0xf74
 7731 1a76 02       		.uleb128 0x2
 7732 1a77 91       		.byte	0x91
 7733 1a78 74       		.sleb128 -12
 7734 1a79 00       		.byte	0
 7735 1a7a 31       		.uleb128 0x31
 7736 1a7b 9D050000 		.4byte	.LASF336
 7737 1a7f 1D       		.byte	0x1d
 7738 1a80 A706     		.2byte	0x6a7
 7739 1a82 C3000000 		.4byte	0xc3
 7740 1a86 32       		.uleb128 0x32
 7741 1a87 636800   		.ascii	"ch\000"
 7742 1a8a 07       		.byte	0x7
 7743 1a8b 0902     		.2byte	0x209
 7744 1a8d 3E040000 		.4byte	0x43e
 7745 1a91 33       		.uleb128 0x33
 7746 1a92 36040000 		.4byte	.LASF337
 7747 1a96 17       		.byte	0x17
 7748 1a97 AA       		.byte	0xaa
 7749 1a98 7F080000 		.4byte	0x87f
 7750 1a9c 00       		.byte	0
 7751              		.section	.debug_abbrev,"",%progbits
 7752              	.Ldebug_abbrev0:
 7753 0000 01       		.uleb128 0x1
 7754 0001 11       		.uleb128 0x11
 7755 0002 01       		.byte	0x1
 7756 0003 25       		.uleb128 0x25
 7757 0004 0E       		.uleb128 0xe
 7758 0005 13       		.uleb128 0x13
 7759 0006 0B       		.uleb128 0xb
 7760 0007 03       		.uleb128 0x3
 7761 0008 0E       		.uleb128 0xe
 7762 0009 1B       		.uleb128 0x1b
 7763 000a 0E       		.uleb128 0xe
 7764 000b 55       		.uleb128 0x55
 7765 000c 17       		.uleb128 0x17
 7766 000d 11       		.uleb128 0x11
 7767 000e 01       		.uleb128 0x1
 7768 000f 10       		.uleb128 0x10
 7769 0010 17       		.uleb128 0x17
 7770 0011 00       		.byte	0
 7771 0012 00       		.byte	0
 7772 0013 02       		.uleb128 0x2
ARM GAS  C:\Users\Luis\AppData\Local\Temp\ccd19DXF.s 			page 140


 7773 0014 24       		.uleb128 0x24
 7774 0015 00       		.byte	0
 7775 0016 0B       		.uleb128 0xb
 7776 0017 0B       		.uleb128 0xb
 7777 0018 3E       		.uleb128 0x3e
 7778 0019 0B       		.uleb128 0xb
 7779 001a 03       		.uleb128 0x3
 7780 001b 08       		.uleb128 0x8
 7781 001c 00       		.byte	0
 7782 001d 00       		.byte	0
 7783 001e 03       		.uleb128 0x3
 7784 001f 16       		.uleb128 0x16
 7785 0020 00       		.byte	0
 7786 0021 03       		.uleb128 0x3
 7787 0022 0E       		.uleb128 0xe
 7788 0023 3A       		.uleb128 0x3a
 7789 0024 0B       		.uleb128 0xb
 7790 0025 3B       		.uleb128 0x3b
 7791 0026 0B       		.uleb128 0xb
 7792 0027 49       		.uleb128 0x49
 7793 0028 13       		.uleb128 0x13
 7794 0029 00       		.byte	0
 7795 002a 00       		.byte	0
 7796 002b 04       		.uleb128 0x4
 7797 002c 24       		.uleb128 0x24
 7798 002d 00       		.byte	0
 7799 002e 0B       		.uleb128 0xb
 7800 002f 0B       		.uleb128 0xb
 7801 0030 3E       		.uleb128 0x3e
 7802 0031 0B       		.uleb128 0xb
 7803 0032 03       		.uleb128 0x3
 7804 0033 0E       		.uleb128 0xe
 7805 0034 00       		.byte	0
 7806 0035 00       		.byte	0
 7807 0036 05       		.uleb128 0x5
 7808 0037 35       		.uleb128 0x35
 7809 0038 00       		.byte	0
 7810 0039 49       		.uleb128 0x49
 7811 003a 13       		.uleb128 0x13
 7812 003b 00       		.byte	0
 7813 003c 00       		.byte	0
 7814 003d 06       		.uleb128 0x6
 7815 003e 13       		.uleb128 0x13
 7816 003f 01       		.byte	0x1
 7817 0040 03       		.uleb128 0x3
 7818 0041 0E       		.uleb128 0xe
 7819 0042 0B       		.uleb128 0xb
 7820 0043 0B       		.uleb128 0xb
 7821 0044 3A       		.uleb128 0x3a
 7822 0045 0B       		.uleb128 0xb
 7823 0046 3B       		.uleb128 0x3b
 7824 0047 0B       		.uleb128 0xb
 7825 0048 01       		.uleb128 0x1
 7826 0049 13       		.uleb128 0x13
 7827 004a 00       		.byte	0
 7828 004b 00       		.byte	0
 7829 004c 07       		.uleb128 0x7
ARM GAS  C:\Users\Luis\AppData\Local\Temp\ccd19DXF.s 			page 141


 7830 004d 0D       		.uleb128 0xd
 7831 004e 00       		.byte	0
 7832 004f 03       		.uleb128 0x3
 7833 0050 0E       		.uleb128 0xe
 7834 0051 3A       		.uleb128 0x3a
 7835 0052 0B       		.uleb128 0xb
 7836 0053 3B       		.uleb128 0x3b
 7837 0054 0B       		.uleb128 0xb
 7838 0055 49       		.uleb128 0x49
 7839 0056 13       		.uleb128 0x13
 7840 0057 38       		.uleb128 0x38
 7841 0058 0B       		.uleb128 0xb
 7842 0059 00       		.byte	0
 7843 005a 00       		.byte	0
 7844 005b 08       		.uleb128 0x8
 7845 005c 0D       		.uleb128 0xd
 7846 005d 00       		.byte	0
 7847 005e 03       		.uleb128 0x3
 7848 005f 08       		.uleb128 0x8
 7849 0060 3A       		.uleb128 0x3a
 7850 0061 0B       		.uleb128 0xb
 7851 0062 3B       		.uleb128 0x3b
 7852 0063 05       		.uleb128 0x5
 7853 0064 49       		.uleb128 0x49
 7854 0065 13       		.uleb128 0x13
 7855 0066 38       		.uleb128 0x38
 7856 0067 0B       		.uleb128 0xb
 7857 0068 00       		.byte	0
 7858 0069 00       		.byte	0
 7859 006a 09       		.uleb128 0x9
 7860 006b 0D       		.uleb128 0xd
 7861 006c 00       		.byte	0
 7862 006d 03       		.uleb128 0x3
 7863 006e 0E       		.uleb128 0xe
 7864 006f 3A       		.uleb128 0x3a
 7865 0070 0B       		.uleb128 0xb
 7866 0071 3B       		.uleb128 0x3b
 7867 0072 05       		.uleb128 0x5
 7868 0073 49       		.uleb128 0x49
 7869 0074 13       		.uleb128 0x13
 7870 0075 38       		.uleb128 0x38
 7871 0076 0B       		.uleb128 0xb
 7872 0077 00       		.byte	0
 7873 0078 00       		.byte	0
 7874 0079 0A       		.uleb128 0xa
 7875 007a 0F       		.uleb128 0xf
 7876 007b 00       		.byte	0
 7877 007c 0B       		.uleb128 0xb
 7878 007d 0B       		.uleb128 0xb
 7879 007e 49       		.uleb128 0x49
 7880 007f 13       		.uleb128 0x13
 7881 0080 00       		.byte	0
 7882 0081 00       		.byte	0
 7883 0082 0B       		.uleb128 0xb
 7884 0083 13       		.uleb128 0x13
 7885 0084 01       		.byte	0x1
 7886 0085 03       		.uleb128 0x3
ARM GAS  C:\Users\Luis\AppData\Local\Temp\ccd19DXF.s 			page 142


 7887 0086 0E       		.uleb128 0xe
 7888 0087 0B       		.uleb128 0xb
 7889 0088 0B       		.uleb128 0xb
 7890 0089 3A       		.uleb128 0x3a
 7891 008a 0B       		.uleb128 0xb
 7892 008b 3B       		.uleb128 0x3b
 7893 008c 05       		.uleb128 0x5
 7894 008d 01       		.uleb128 0x1
 7895 008e 13       		.uleb128 0x13
 7896 008f 00       		.byte	0
 7897 0090 00       		.byte	0
 7898 0091 0C       		.uleb128 0xc
 7899 0092 15       		.uleb128 0x15
 7900 0093 01       		.byte	0x1
 7901 0094 27       		.uleb128 0x27
 7902 0095 19       		.uleb128 0x19
 7903 0096 01       		.uleb128 0x1
 7904 0097 13       		.uleb128 0x13
 7905 0098 00       		.byte	0
 7906 0099 00       		.byte	0
 7907 009a 0D       		.uleb128 0xd
 7908 009b 05       		.uleb128 0x5
 7909 009c 00       		.byte	0
 7910 009d 49       		.uleb128 0x49
 7911 009e 13       		.uleb128 0x13
 7912 009f 00       		.byte	0
 7913 00a0 00       		.byte	0
 7914 00a1 0E       		.uleb128 0xe
 7915 00a2 0F       		.uleb128 0xf
 7916 00a3 00       		.byte	0
 7917 00a4 0B       		.uleb128 0xb
 7918 00a5 0B       		.uleb128 0xb
 7919 00a6 00       		.byte	0
 7920 00a7 00       		.byte	0
 7921 00a8 0F       		.uleb128 0xf
 7922 00a9 13       		.uleb128 0x13
 7923 00aa 01       		.byte	0x1
 7924 00ab 03       		.uleb128 0x3
 7925 00ac 0E       		.uleb128 0xe
 7926 00ad 0B       		.uleb128 0xb
 7927 00ae 05       		.uleb128 0x5
 7928 00af 3A       		.uleb128 0x3a
 7929 00b0 0B       		.uleb128 0xb
 7930 00b1 3B       		.uleb128 0x3b
 7931 00b2 05       		.uleb128 0x5
 7932 00b3 01       		.uleb128 0x1
 7933 00b4 13       		.uleb128 0x13
 7934 00b5 00       		.byte	0
 7935 00b6 00       		.byte	0
 7936 00b7 10       		.uleb128 0x10
 7937 00b8 0D       		.uleb128 0xd
 7938 00b9 00       		.byte	0
 7939 00ba 03       		.uleb128 0x3
 7940 00bb 0E       		.uleb128 0xe
 7941 00bc 3A       		.uleb128 0x3a
 7942 00bd 0B       		.uleb128 0xb
 7943 00be 3B       		.uleb128 0x3b
ARM GAS  C:\Users\Luis\AppData\Local\Temp\ccd19DXF.s 			page 143


 7944 00bf 05       		.uleb128 0x5
 7945 00c0 49       		.uleb128 0x49
 7946 00c1 13       		.uleb128 0x13
 7947 00c2 38       		.uleb128 0x38
 7948 00c3 05       		.uleb128 0x5
 7949 00c4 00       		.byte	0
 7950 00c5 00       		.byte	0
 7951 00c6 11       		.uleb128 0x11
 7952 00c7 0D       		.uleb128 0xd
 7953 00c8 00       		.byte	0
 7954 00c9 03       		.uleb128 0x3
 7955 00ca 08       		.uleb128 0x8
 7956 00cb 3A       		.uleb128 0x3a
 7957 00cc 0B       		.uleb128 0xb
 7958 00cd 3B       		.uleb128 0x3b
 7959 00ce 05       		.uleb128 0x5
 7960 00cf 49       		.uleb128 0x49
 7961 00d0 13       		.uleb128 0x13
 7962 00d1 38       		.uleb128 0x38
 7963 00d2 05       		.uleb128 0x5
 7964 00d3 00       		.byte	0
 7965 00d4 00       		.byte	0
 7966 00d5 12       		.uleb128 0x12
 7967 00d6 0D       		.uleb128 0xd
 7968 00d7 00       		.byte	0
 7969 00d8 03       		.uleb128 0x3
 7970 00d9 08       		.uleb128 0x8
 7971 00da 3A       		.uleb128 0x3a
 7972 00db 0B       		.uleb128 0xb
 7973 00dc 3B       		.uleb128 0x3b
 7974 00dd 0B       		.uleb128 0xb
 7975 00de 49       		.uleb128 0x49
 7976 00df 13       		.uleb128 0x13
 7977 00e0 38       		.uleb128 0x38
 7978 00e1 0B       		.uleb128 0xb
 7979 00e2 00       		.byte	0
 7980 00e3 00       		.byte	0
 7981 00e4 13       		.uleb128 0x13
 7982 00e5 13       		.uleb128 0x13
 7983 00e6 01       		.byte	0x1
 7984 00e7 0B       		.uleb128 0xb
 7985 00e8 0B       		.uleb128 0xb
 7986 00e9 3A       		.uleb128 0x3a
 7987 00ea 0B       		.uleb128 0xb
 7988 00eb 3B       		.uleb128 0x3b
 7989 00ec 0B       		.uleb128 0xb
 7990 00ed 01       		.uleb128 0x1
 7991 00ee 13       		.uleb128 0x13
 7992 00ef 00       		.byte	0
 7993 00f0 00       		.byte	0
 7994 00f1 14       		.uleb128 0x14
 7995 00f2 13       		.uleb128 0x13
 7996 00f3 01       		.byte	0x1
 7997 00f4 0B       		.uleb128 0xb
 7998 00f5 05       		.uleb128 0x5
 7999 00f6 3A       		.uleb128 0x3a
 8000 00f7 0B       		.uleb128 0xb
ARM GAS  C:\Users\Luis\AppData\Local\Temp\ccd19DXF.s 			page 144


 8001 00f8 3B       		.uleb128 0x3b
 8002 00f9 0B       		.uleb128 0xb
 8003 00fa 01       		.uleb128 0x1
 8004 00fb 13       		.uleb128 0x13
 8005 00fc 00       		.byte	0
 8006 00fd 00       		.byte	0
 8007 00fe 15       		.uleb128 0x15
 8008 00ff 01       		.uleb128 0x1
 8009 0100 01       		.byte	0x1
 8010 0101 49       		.uleb128 0x49
 8011 0102 13       		.uleb128 0x13
 8012 0103 01       		.uleb128 0x1
 8013 0104 13       		.uleb128 0x13
 8014 0105 00       		.byte	0
 8015 0106 00       		.byte	0
 8016 0107 16       		.uleb128 0x16
 8017 0108 21       		.uleb128 0x21
 8018 0109 00       		.byte	0
 8019 010a 49       		.uleb128 0x49
 8020 010b 13       		.uleb128 0x13
 8021 010c 2F       		.uleb128 0x2f
 8022 010d 0B       		.uleb128 0xb
 8023 010e 00       		.byte	0
 8024 010f 00       		.byte	0
 8025 0110 17       		.uleb128 0x17
 8026 0111 17       		.uleb128 0x17
 8027 0112 01       		.byte	0x1
 8028 0113 0B       		.uleb128 0xb
 8029 0114 0B       		.uleb128 0xb
 8030 0115 3A       		.uleb128 0x3a
 8031 0116 0B       		.uleb128 0xb
 8032 0117 3B       		.uleb128 0x3b
 8033 0118 0B       		.uleb128 0xb
 8034 0119 01       		.uleb128 0x1
 8035 011a 13       		.uleb128 0x13
 8036 011b 00       		.byte	0
 8037 011c 00       		.byte	0
 8038 011d 18       		.uleb128 0x18
 8039 011e 0D       		.uleb128 0xd
 8040 011f 00       		.byte	0
 8041 0120 03       		.uleb128 0x3
 8042 0121 0E       		.uleb128 0xe
 8043 0122 3A       		.uleb128 0x3a
 8044 0123 0B       		.uleb128 0xb
 8045 0124 3B       		.uleb128 0x3b
 8046 0125 05       		.uleb128 0x5
 8047 0126 49       		.uleb128 0x49
 8048 0127 13       		.uleb128 0x13
 8049 0128 00       		.byte	0
 8050 0129 00       		.byte	0
 8051 012a 19       		.uleb128 0x19
 8052 012b 26       		.uleb128 0x26
 8053 012c 00       		.byte	0
 8054 012d 49       		.uleb128 0x49
 8055 012e 13       		.uleb128 0x13
 8056 012f 00       		.byte	0
 8057 0130 00       		.byte	0
ARM GAS  C:\Users\Luis\AppData\Local\Temp\ccd19DXF.s 			page 145


 8058 0131 1A       		.uleb128 0x1a
 8059 0132 04       		.uleb128 0x4
 8060 0133 01       		.byte	0x1
 8061 0134 0B       		.uleb128 0xb
 8062 0135 0B       		.uleb128 0xb
 8063 0136 3A       		.uleb128 0x3a
 8064 0137 0B       		.uleb128 0xb
 8065 0138 3B       		.uleb128 0x3b
 8066 0139 0B       		.uleb128 0xb
 8067 013a 01       		.uleb128 0x1
 8068 013b 13       		.uleb128 0x13
 8069 013c 00       		.byte	0
 8070 013d 00       		.byte	0
 8071 013e 1B       		.uleb128 0x1b
 8072 013f 28       		.uleb128 0x28
 8073 0140 00       		.byte	0
 8074 0141 03       		.uleb128 0x3
 8075 0142 0E       		.uleb128 0xe
 8076 0143 1C       		.uleb128 0x1c
 8077 0144 0D       		.uleb128 0xd
 8078 0145 00       		.byte	0
 8079 0146 00       		.byte	0
 8080 0147 1C       		.uleb128 0x1c
 8081 0148 04       		.uleb128 0x4
 8082 0149 01       		.byte	0x1
 8083 014a 03       		.uleb128 0x3
 8084 014b 0E       		.uleb128 0xe
 8085 014c 0B       		.uleb128 0xb
 8086 014d 0B       		.uleb128 0xb
 8087 014e 3A       		.uleb128 0x3a
 8088 014f 0B       		.uleb128 0xb
 8089 0150 3B       		.uleb128 0x3b
 8090 0151 0B       		.uleb128 0xb
 8091 0152 01       		.uleb128 0x1
 8092 0153 13       		.uleb128 0x13
 8093 0154 00       		.byte	0
 8094 0155 00       		.byte	0
 8095 0156 1D       		.uleb128 0x1d
 8096 0157 0D       		.uleb128 0xd
 8097 0158 00       		.byte	0
 8098 0159 03       		.uleb128 0x3
 8099 015a 08       		.uleb128 0x8
 8100 015b 3A       		.uleb128 0x3a
 8101 015c 0B       		.uleb128 0xb
 8102 015d 3B       		.uleb128 0x3b
 8103 015e 0B       		.uleb128 0xb
 8104 015f 49       		.uleb128 0x49
 8105 0160 13       		.uleb128 0x13
 8106 0161 00       		.byte	0
 8107 0162 00       		.byte	0
 8108 0163 1E       		.uleb128 0x1e
 8109 0164 26       		.uleb128 0x26
 8110 0165 00       		.byte	0
 8111 0166 00       		.byte	0
 8112 0167 00       		.byte	0
 8113 0168 1F       		.uleb128 0x1f
 8114 0169 15       		.uleb128 0x15
ARM GAS  C:\Users\Luis\AppData\Local\Temp\ccd19DXF.s 			page 146


 8115 016a 01       		.byte	0x1
 8116 016b 27       		.uleb128 0x27
 8117 016c 19       		.uleb128 0x19
 8118 016d 49       		.uleb128 0x49
 8119 016e 13       		.uleb128 0x13
 8120 016f 01       		.uleb128 0x1
 8121 0170 13       		.uleb128 0x13
 8122 0171 00       		.byte	0
 8123 0172 00       		.byte	0
 8124 0173 20       		.uleb128 0x20
 8125 0174 13       		.uleb128 0x13
 8126 0175 00       		.byte	0
 8127 0176 03       		.uleb128 0x3
 8128 0177 0E       		.uleb128 0xe
 8129 0178 3C       		.uleb128 0x3c
 8130 0179 19       		.uleb128 0x19
 8131 017a 00       		.byte	0
 8132 017b 00       		.byte	0
 8133 017c 21       		.uleb128 0x21
 8134 017d 2E       		.uleb128 0x2e
 8135 017e 01       		.byte	0x1
 8136 017f 03       		.uleb128 0x3
 8137 0180 0E       		.uleb128 0xe
 8138 0181 3A       		.uleb128 0x3a
 8139 0182 0B       		.uleb128 0xb
 8140 0183 3B       		.uleb128 0x3b
 8141 0184 05       		.uleb128 0x5
 8142 0185 27       		.uleb128 0x27
 8143 0186 19       		.uleb128 0x19
 8144 0187 11       		.uleb128 0x11
 8145 0188 01       		.uleb128 0x1
 8146 0189 12       		.uleb128 0x12
 8147 018a 06       		.uleb128 0x6
 8148 018b 40       		.uleb128 0x40
 8149 018c 18       		.uleb128 0x18
 8150 018d 9642     		.uleb128 0x2116
 8151 018f 19       		.uleb128 0x19
 8152 0190 01       		.uleb128 0x1
 8153 0191 13       		.uleb128 0x13
 8154 0192 00       		.byte	0
 8155 0193 00       		.byte	0
 8156 0194 22       		.uleb128 0x22
 8157 0195 05       		.uleb128 0x5
 8158 0196 00       		.byte	0
 8159 0197 03       		.uleb128 0x3
 8160 0198 0E       		.uleb128 0xe
 8161 0199 3A       		.uleb128 0x3a
 8162 019a 0B       		.uleb128 0xb
 8163 019b 3B       		.uleb128 0x3b
 8164 019c 05       		.uleb128 0x5
 8165 019d 49       		.uleb128 0x49
 8166 019e 13       		.uleb128 0x13
 8167 019f 02       		.uleb128 0x2
 8168 01a0 18       		.uleb128 0x18
 8169 01a1 00       		.byte	0
 8170 01a2 00       		.byte	0
 8171 01a3 23       		.uleb128 0x23
ARM GAS  C:\Users\Luis\AppData\Local\Temp\ccd19DXF.s 			page 147


 8172 01a4 2E       		.uleb128 0x2e
 8173 01a5 01       		.byte	0x1
 8174 01a6 03       		.uleb128 0x3
 8175 01a7 0E       		.uleb128 0xe
 8176 01a8 3A       		.uleb128 0x3a
 8177 01a9 0B       		.uleb128 0xb
 8178 01aa 3B       		.uleb128 0x3b
 8179 01ab 0B       		.uleb128 0xb
 8180 01ac 27       		.uleb128 0x27
 8181 01ad 19       		.uleb128 0x19
 8182 01ae 49       		.uleb128 0x49
 8183 01af 13       		.uleb128 0x13
 8184 01b0 11       		.uleb128 0x11
 8185 01b1 01       		.uleb128 0x1
 8186 01b2 12       		.uleb128 0x12
 8187 01b3 06       		.uleb128 0x6
 8188 01b4 40       		.uleb128 0x40
 8189 01b5 18       		.uleb128 0x18
 8190 01b6 9642     		.uleb128 0x2116
 8191 01b8 19       		.uleb128 0x19
 8192 01b9 01       		.uleb128 0x1
 8193 01ba 13       		.uleb128 0x13
 8194 01bb 00       		.byte	0
 8195 01bc 00       		.byte	0
 8196 01bd 24       		.uleb128 0x24
 8197 01be 05       		.uleb128 0x5
 8198 01bf 00       		.byte	0
 8199 01c0 03       		.uleb128 0x3
 8200 01c1 08       		.uleb128 0x8
 8201 01c2 3A       		.uleb128 0x3a
 8202 01c3 0B       		.uleb128 0xb
 8203 01c4 3B       		.uleb128 0x3b
 8204 01c5 0B       		.uleb128 0xb
 8205 01c6 49       		.uleb128 0x49
 8206 01c7 13       		.uleb128 0x13
 8207 01c8 02       		.uleb128 0x2
 8208 01c9 18       		.uleb128 0x18
 8209 01ca 00       		.byte	0
 8210 01cb 00       		.byte	0
 8211 01cc 25       		.uleb128 0x25
 8212 01cd 05       		.uleb128 0x5
 8213 01ce 00       		.byte	0
 8214 01cf 03       		.uleb128 0x3
 8215 01d0 0E       		.uleb128 0xe
 8216 01d1 3A       		.uleb128 0x3a
 8217 01d2 0B       		.uleb128 0xb
 8218 01d3 3B       		.uleb128 0x3b
 8219 01d4 0B       		.uleb128 0xb
 8220 01d5 49       		.uleb128 0x49
 8221 01d6 13       		.uleb128 0x13
 8222 01d7 02       		.uleb128 0x2
 8223 01d8 18       		.uleb128 0x18
 8224 01d9 00       		.byte	0
 8225 01da 00       		.byte	0
 8226 01db 26       		.uleb128 0x26
 8227 01dc 34       		.uleb128 0x34
 8228 01dd 00       		.byte	0
ARM GAS  C:\Users\Luis\AppData\Local\Temp\ccd19DXF.s 			page 148


 8229 01de 03       		.uleb128 0x3
 8230 01df 08       		.uleb128 0x8
 8231 01e0 3A       		.uleb128 0x3a
 8232 01e1 0B       		.uleb128 0xb
 8233 01e2 3B       		.uleb128 0x3b
 8234 01e3 0B       		.uleb128 0xb
 8235 01e4 49       		.uleb128 0x49
 8236 01e5 13       		.uleb128 0x13
 8237 01e6 02       		.uleb128 0x2
 8238 01e7 18       		.uleb128 0x18
 8239 01e8 00       		.byte	0
 8240 01e9 00       		.byte	0
 8241 01ea 27       		.uleb128 0x27
 8242 01eb 34       		.uleb128 0x34
 8243 01ec 00       		.byte	0
 8244 01ed 03       		.uleb128 0x3
 8245 01ee 0E       		.uleb128 0xe
 8246 01ef 3A       		.uleb128 0x3a
 8247 01f0 0B       		.uleb128 0xb
 8248 01f1 3B       		.uleb128 0x3b
 8249 01f2 0B       		.uleb128 0xb
 8250 01f3 49       		.uleb128 0x49
 8251 01f4 13       		.uleb128 0x13
 8252 01f5 02       		.uleb128 0x2
 8253 01f6 18       		.uleb128 0x18
 8254 01f7 00       		.byte	0
 8255 01f8 00       		.byte	0
 8256 01f9 28       		.uleb128 0x28
 8257 01fa 0B       		.uleb128 0xb
 8258 01fb 01       		.byte	0x1
 8259 01fc 11       		.uleb128 0x11
 8260 01fd 01       		.uleb128 0x1
 8261 01fe 12       		.uleb128 0x12
 8262 01ff 06       		.uleb128 0x6
 8263 0200 00       		.byte	0
 8264 0201 00       		.byte	0
 8265 0202 29       		.uleb128 0x29
 8266 0203 2E       		.uleb128 0x2e
 8267 0204 01       		.byte	0x1
 8268 0205 03       		.uleb128 0x3
 8269 0206 0E       		.uleb128 0xe
 8270 0207 3A       		.uleb128 0x3a
 8271 0208 0B       		.uleb128 0xb
 8272 0209 3B       		.uleb128 0x3b
 8273 020a 0B       		.uleb128 0xb
 8274 020b 27       		.uleb128 0x27
 8275 020c 19       		.uleb128 0x19
 8276 020d 11       		.uleb128 0x11
 8277 020e 01       		.uleb128 0x1
 8278 020f 12       		.uleb128 0x12
 8279 0210 06       		.uleb128 0x6
 8280 0211 40       		.uleb128 0x40
 8281 0212 18       		.uleb128 0x18
 8282 0213 9642     		.uleb128 0x2116
 8283 0215 19       		.uleb128 0x19
 8284 0216 01       		.uleb128 0x1
 8285 0217 13       		.uleb128 0x13
ARM GAS  C:\Users\Luis\AppData\Local\Temp\ccd19DXF.s 			page 149


 8286 0218 00       		.byte	0
 8287 0219 00       		.byte	0
 8288 021a 2A       		.uleb128 0x2a
 8289 021b 2E       		.uleb128 0x2e
 8290 021c 01       		.byte	0x1
 8291 021d 03       		.uleb128 0x3
 8292 021e 0E       		.uleb128 0xe
 8293 021f 3A       		.uleb128 0x3a
 8294 0220 0B       		.uleb128 0xb
 8295 0221 3B       		.uleb128 0x3b
 8296 0222 05       		.uleb128 0x5
 8297 0223 27       		.uleb128 0x27
 8298 0224 19       		.uleb128 0x19
 8299 0225 49       		.uleb128 0x49
 8300 0226 13       		.uleb128 0x13
 8301 0227 11       		.uleb128 0x11
 8302 0228 01       		.uleb128 0x1
 8303 0229 12       		.uleb128 0x12
 8304 022a 06       		.uleb128 0x6
 8305 022b 40       		.uleb128 0x40
 8306 022c 18       		.uleb128 0x18
 8307 022d 9642     		.uleb128 0x2116
 8308 022f 19       		.uleb128 0x19
 8309 0230 01       		.uleb128 0x1
 8310 0231 13       		.uleb128 0x13
 8311 0232 00       		.byte	0
 8312 0233 00       		.byte	0
 8313 0234 2B       		.uleb128 0x2b
 8314 0235 05       		.uleb128 0x5
 8315 0236 00       		.byte	0
 8316 0237 03       		.uleb128 0x3
 8317 0238 08       		.uleb128 0x8
 8318 0239 3A       		.uleb128 0x3a
 8319 023a 0B       		.uleb128 0xb
 8320 023b 3B       		.uleb128 0x3b
 8321 023c 05       		.uleb128 0x5
 8322 023d 49       		.uleb128 0x49
 8323 023e 13       		.uleb128 0x13
 8324 023f 02       		.uleb128 0x2
 8325 0240 18       		.uleb128 0x18
 8326 0241 00       		.byte	0
 8327 0242 00       		.byte	0
 8328 0243 2C       		.uleb128 0x2c
 8329 0244 34       		.uleb128 0x34
 8330 0245 00       		.byte	0
 8331 0246 03       		.uleb128 0x3
 8332 0247 0E       		.uleb128 0xe
 8333 0248 3A       		.uleb128 0x3a
 8334 0249 0B       		.uleb128 0xb
 8335 024a 3B       		.uleb128 0x3b
 8336 024b 05       		.uleb128 0x5
 8337 024c 49       		.uleb128 0x49
 8338 024d 13       		.uleb128 0x13
 8339 024e 02       		.uleb128 0x2
 8340 024f 18       		.uleb128 0x18
 8341 0250 00       		.byte	0
 8342 0251 00       		.byte	0
ARM GAS  C:\Users\Luis\AppData\Local\Temp\ccd19DXF.s 			page 150


 8343 0252 2D       		.uleb128 0x2d
 8344 0253 34       		.uleb128 0x34
 8345 0254 00       		.byte	0
 8346 0255 03       		.uleb128 0x3
 8347 0256 08       		.uleb128 0x8
 8348 0257 3A       		.uleb128 0x3a
 8349 0258 0B       		.uleb128 0xb
 8350 0259 3B       		.uleb128 0x3b
 8351 025a 05       		.uleb128 0x5
 8352 025b 49       		.uleb128 0x49
 8353 025c 13       		.uleb128 0x13
 8354 025d 02       		.uleb128 0x2
 8355 025e 18       		.uleb128 0x18
 8356 025f 00       		.byte	0
 8357 0260 00       		.byte	0
 8358 0261 2E       		.uleb128 0x2e
 8359 0262 2E       		.uleb128 0x2e
 8360 0263 01       		.byte	0x1
 8361 0264 3F       		.uleb128 0x3f
 8362 0265 19       		.uleb128 0x19
 8363 0266 03       		.uleb128 0x3
 8364 0267 0E       		.uleb128 0xe
 8365 0268 3A       		.uleb128 0x3a
 8366 0269 0B       		.uleb128 0xb
 8367 026a 3B       		.uleb128 0x3b
 8368 026b 05       		.uleb128 0x5
 8369 026c 27       		.uleb128 0x27
 8370 026d 19       		.uleb128 0x19
 8371 026e 11       		.uleb128 0x11
 8372 026f 01       		.uleb128 0x1
 8373 0270 12       		.uleb128 0x12
 8374 0271 06       		.uleb128 0x6
 8375 0272 40       		.uleb128 0x40
 8376 0273 18       		.uleb128 0x18
 8377 0274 9642     		.uleb128 0x2116
 8378 0276 19       		.uleb128 0x19
 8379 0277 01       		.uleb128 0x1
 8380 0278 13       		.uleb128 0x13
 8381 0279 00       		.byte	0
 8382 027a 00       		.byte	0
 8383 027b 2F       		.uleb128 0x2f
 8384 027c 2E       		.uleb128 0x2e
 8385 027d 01       		.byte	0x1
 8386 027e 3F       		.uleb128 0x3f
 8387 027f 19       		.uleb128 0x19
 8388 0280 03       		.uleb128 0x3
 8389 0281 0E       		.uleb128 0xe
 8390 0282 3A       		.uleb128 0x3a
 8391 0283 0B       		.uleb128 0xb
 8392 0284 3B       		.uleb128 0x3b
 8393 0285 05       		.uleb128 0x5
 8394 0286 27       		.uleb128 0x27
 8395 0287 19       		.uleb128 0x19
 8396 0288 49       		.uleb128 0x49
 8397 0289 13       		.uleb128 0x13
 8398 028a 11       		.uleb128 0x11
 8399 028b 01       		.uleb128 0x1
ARM GAS  C:\Users\Luis\AppData\Local\Temp\ccd19DXF.s 			page 151


 8400 028c 12       		.uleb128 0x12
 8401 028d 06       		.uleb128 0x6
 8402 028e 40       		.uleb128 0x40
 8403 028f 18       		.uleb128 0x18
 8404 0290 9642     		.uleb128 0x2116
 8405 0292 19       		.uleb128 0x19
 8406 0293 01       		.uleb128 0x1
 8407 0294 13       		.uleb128 0x13
 8408 0295 00       		.byte	0
 8409 0296 00       		.byte	0
 8410 0297 30       		.uleb128 0x30
 8411 0298 0A       		.uleb128 0xa
 8412 0299 00       		.byte	0
 8413 029a 03       		.uleb128 0x3
 8414 029b 0E       		.uleb128 0xe
 8415 029c 3A       		.uleb128 0x3a
 8416 029d 0B       		.uleb128 0xb
 8417 029e 3B       		.uleb128 0x3b
 8418 029f 05       		.uleb128 0x5
 8419 02a0 11       		.uleb128 0x11
 8420 02a1 01       		.uleb128 0x1
 8421 02a2 00       		.byte	0
 8422 02a3 00       		.byte	0
 8423 02a4 31       		.uleb128 0x31
 8424 02a5 34       		.uleb128 0x34
 8425 02a6 00       		.byte	0
 8426 02a7 03       		.uleb128 0x3
 8427 02a8 0E       		.uleb128 0xe
 8428 02a9 3A       		.uleb128 0x3a
 8429 02aa 0B       		.uleb128 0xb
 8430 02ab 3B       		.uleb128 0x3b
 8431 02ac 05       		.uleb128 0x5
 8432 02ad 49       		.uleb128 0x49
 8433 02ae 13       		.uleb128 0x13
 8434 02af 3F       		.uleb128 0x3f
 8435 02b0 19       		.uleb128 0x19
 8436 02b1 3C       		.uleb128 0x3c
 8437 02b2 19       		.uleb128 0x19
 8438 02b3 00       		.byte	0
 8439 02b4 00       		.byte	0
 8440 02b5 32       		.uleb128 0x32
 8441 02b6 34       		.uleb128 0x34
 8442 02b7 00       		.byte	0
 8443 02b8 03       		.uleb128 0x3
 8444 02b9 08       		.uleb128 0x8
 8445 02ba 3A       		.uleb128 0x3a
 8446 02bb 0B       		.uleb128 0xb
 8447 02bc 3B       		.uleb128 0x3b
 8448 02bd 05       		.uleb128 0x5
 8449 02be 49       		.uleb128 0x49
 8450 02bf 13       		.uleb128 0x13
 8451 02c0 3F       		.uleb128 0x3f
 8452 02c1 19       		.uleb128 0x19
 8453 02c2 3C       		.uleb128 0x3c
 8454 02c3 19       		.uleb128 0x19
 8455 02c4 00       		.byte	0
 8456 02c5 00       		.byte	0
ARM GAS  C:\Users\Luis\AppData\Local\Temp\ccd19DXF.s 			page 152


 8457 02c6 33       		.uleb128 0x33
 8458 02c7 34       		.uleb128 0x34
 8459 02c8 00       		.byte	0
 8460 02c9 03       		.uleb128 0x3
 8461 02ca 0E       		.uleb128 0xe
 8462 02cb 3A       		.uleb128 0x3a
 8463 02cc 0B       		.uleb128 0xb
 8464 02cd 3B       		.uleb128 0x3b
 8465 02ce 0B       		.uleb128 0xb
 8466 02cf 49       		.uleb128 0x49
 8467 02d0 13       		.uleb128 0x13
 8468 02d1 3F       		.uleb128 0x3f
 8469 02d2 19       		.uleb128 0x19
 8470 02d3 3C       		.uleb128 0x3c
 8471 02d4 19       		.uleb128 0x19
 8472 02d5 00       		.byte	0
 8473 02d6 00       		.byte	0
 8474 02d7 00       		.byte	0
 8475              		.section	.debug_aranges,"",%progbits
 8476 0000 EC000000 		.4byte	0xec
 8477 0004 0200     		.2byte	0x2
 8478 0006 00000000 		.4byte	.Ldebug_info0
 8479 000a 04       		.byte	0x4
 8480 000b 00       		.byte	0
 8481 000c 0000     		.2byte	0
 8482 000e 0000     		.2byte	0
 8483 0010 00000000 		.4byte	.LFB230
 8484 0014 14000000 		.4byte	.LFE230-.LFB230
 8485 0018 00000000 		.4byte	.LFB260
 8486 001c D8000000 		.4byte	.LFE260-.LFB260
 8487 0020 00000000 		.4byte	.LFB261
 8488 0024 D8000000 		.4byte	.LFE261-.LFB261
 8489 0028 00000000 		.4byte	.LFB262
 8490 002c D8000000 		.4byte	.LFE262-.LFB262
 8491 0030 00000000 		.4byte	.LFB263
 8492 0034 98000000 		.4byte	.LFE263-.LFB263
 8493 0038 00000000 		.4byte	.LFB264
 8494 003c 98000000 		.4byte	.LFE264-.LFB264
 8495 0040 00000000 		.4byte	.LFB265
 8496 0044 2C010000 		.4byte	.LFE265-.LFB265
 8497 0048 00000000 		.4byte	.LFB266
 8498 004c 50000000 		.4byte	.LFE266-.LFB266
 8499 0050 00000000 		.4byte	.LFB267
 8500 0054 DA000000 		.4byte	.LFE267-.LFB267
 8501 0058 00000000 		.4byte	.LFB268
 8502 005c F8000000 		.4byte	.LFE268-.LFB268
 8503 0060 00000000 		.4byte	.LFB269
 8504 0064 30000000 		.4byte	.LFE269-.LFB269
 8505 0068 00000000 		.4byte	.LFB270
 8506 006c DC000000 		.4byte	.LFE270-.LFB270
 8507 0070 00000000 		.4byte	.LFB271
 8508 0074 70000000 		.4byte	.LFE271-.LFB271
 8509 0078 00000000 		.4byte	.LFB272
 8510 007c 0C010000 		.4byte	.LFE272-.LFB272
 8511 0080 00000000 		.4byte	.LFB273
 8512 0084 00020000 		.4byte	.LFE273-.LFB273
 8513 0088 00000000 		.4byte	.LFB274
ARM GAS  C:\Users\Luis\AppData\Local\Temp\ccd19DXF.s 			page 153


 8514 008c 5C010000 		.4byte	.LFE274-.LFB274
 8515 0090 00000000 		.4byte	.LFB275
 8516 0094 BC000000 		.4byte	.LFE275-.LFB275
 8517 0098 00000000 		.4byte	.LFB276
 8518 009c E8000000 		.4byte	.LFE276-.LFB276
 8519 00a0 00000000 		.4byte	.LFB277
 8520 00a4 44010000 		.4byte	.LFE277-.LFB277
 8521 00a8 00000000 		.4byte	.LFB278
 8522 00ac 42000000 		.4byte	.LFE278-.LFB278
 8523 00b0 00000000 		.4byte	.LFB279
 8524 00b4 24010000 		.4byte	.LFE279-.LFB279
 8525 00b8 00000000 		.4byte	.LFB280
 8526 00bc 0A010000 		.4byte	.LFE280-.LFB280
 8527 00c0 00000000 		.4byte	.LFB281
 8528 00c4 6C000000 		.4byte	.LFE281-.LFB281
 8529 00c8 00000000 		.4byte	.LFB282
 8530 00cc 44020000 		.4byte	.LFE282-.LFB282
 8531 00d0 00000000 		.4byte	.LFB283
 8532 00d4 BC000000 		.4byte	.LFE283-.LFB283
 8533 00d8 00000000 		.4byte	.LFB284
 8534 00dc FC000000 		.4byte	.LFE284-.LFB284
 8535 00e0 00000000 		.4byte	.LFB285
 8536 00e4 D0000000 		.4byte	.LFE285-.LFB285
 8537 00e8 00000000 		.4byte	0
 8538 00ec 00000000 		.4byte	0
 8539              		.section	.debug_ranges,"",%progbits
 8540              	.Ldebug_ranges0:
 8541 0000 00000000 		.4byte	.LFB230
 8542 0004 14000000 		.4byte	.LFE230
 8543 0008 00000000 		.4byte	.LFB260
 8544 000c D8000000 		.4byte	.LFE260
 8545 0010 00000000 		.4byte	.LFB261
 8546 0014 D8000000 		.4byte	.LFE261
 8547 0018 00000000 		.4byte	.LFB262
 8548 001c D8000000 		.4byte	.LFE262
 8549 0020 00000000 		.4byte	.LFB263
 8550 0024 98000000 		.4byte	.LFE263
 8551 0028 00000000 		.4byte	.LFB264
 8552 002c 98000000 		.4byte	.LFE264
 8553 0030 00000000 		.4byte	.LFB265
 8554 0034 2C010000 		.4byte	.LFE265
 8555 0038 00000000 		.4byte	.LFB266
 8556 003c 50000000 		.4byte	.LFE266
 8557 0040 00000000 		.4byte	.LFB267
 8558 0044 DA000000 		.4byte	.LFE267
 8559 0048 00000000 		.4byte	.LFB268
 8560 004c F8000000 		.4byte	.LFE268
 8561 0050 00000000 		.4byte	.LFB269
 8562 0054 30000000 		.4byte	.LFE269
 8563 0058 00000000 		.4byte	.LFB270
 8564 005c DC000000 		.4byte	.LFE270
 8565 0060 00000000 		.4byte	.LFB271
 8566 0064 70000000 		.4byte	.LFE271
 8567 0068 00000000 		.4byte	.LFB272
 8568 006c 0C010000 		.4byte	.LFE272
 8569 0070 00000000 		.4byte	.LFB273
 8570 0074 00020000 		.4byte	.LFE273
ARM GAS  C:\Users\Luis\AppData\Local\Temp\ccd19DXF.s 			page 154


 8571 0078 00000000 		.4byte	.LFB274
 8572 007c 5C010000 		.4byte	.LFE274
 8573 0080 00000000 		.4byte	.LFB275
 8574 0084 BC000000 		.4byte	.LFE275
 8575 0088 00000000 		.4byte	.LFB276
 8576 008c E8000000 		.4byte	.LFE276
 8577 0090 00000000 		.4byte	.LFB277
 8578 0094 44010000 		.4byte	.LFE277
 8579 0098 00000000 		.4byte	.LFB278
 8580 009c 42000000 		.4byte	.LFE278
 8581 00a0 00000000 		.4byte	.LFB279
 8582 00a4 24010000 		.4byte	.LFE279
 8583 00a8 00000000 		.4byte	.LFB280
 8584 00ac 0A010000 		.4byte	.LFE280
 8585 00b0 00000000 		.4byte	.LFB281
 8586 00b4 6C000000 		.4byte	.LFE281
 8587 00b8 00000000 		.4byte	.LFB282
 8588 00bc 44020000 		.4byte	.LFE282
 8589 00c0 00000000 		.4byte	.LFB283
 8590 00c4 BC000000 		.4byte	.LFE283
 8591 00c8 00000000 		.4byte	.LFB284
 8592 00cc FC000000 		.4byte	.LFE284
 8593 00d0 00000000 		.4byte	.LFB285
 8594 00d4 D0000000 		.4byte	.LFE285
 8595 00d8 00000000 		.4byte	0
 8596 00dc 00000000 		.4byte	0
 8597              		.section	.debug_line,"",%progbits
 8598              	.Ldebug_line0:
 8599 0000 F0090000 		.section	.debug_str,"MS",%progbits,1
 8599      02000C03 
 8599      00000201 
 8599      FB0E0D00 
 8599      01010101 
 8600              	.LASF52:
 8601 0000 63685F74 		.ascii	"ch_threads_list\000"
 8601      68726561 
 8601      64735F6C 
 8601      69737400 
 8602              	.LASF53:
 8603 0010 74687265 		.ascii	"threads_queue_t\000"
 8603      6164735F 
 8603      71756575 
 8603      655F7400 
 8604              	.LASF319:
 8605 0020 646F5F64 		.ascii	"do_disconnect\000"
 8605      6973636F 
 8605      6E6E6563 
 8605      7400
 8606              	.LASF118:
 8607 002e 77746D74 		.ascii	"wtmtxp\000"
 8607      787000
 8608              	.LASF278:
 8609 0035 4D454D50 		.ascii	"MEMP_TCP_PCB_LISTEN\000"
 8609      5F544350 
 8609      5F504342 
 8609      5F4C4953 
 8609      54454E00 
ARM GAS  C:\Users\Luis\AppData\Local\Temp\ccd19DXF.s 			page 155


 8610              	.LASF49:
 8611 0049 74687265 		.ascii	"thread_reference_t\000"
 8611      61645F72 
 8611      65666572 
 8611      656E6365 
 8611      5F7400
 8612              	.LASF198:
 8613 005c 736F5F6F 		.ascii	"so_options\000"
 8613      7074696F 
 8613      6E7300
 8614              	.LASF313:
 8615 0067 646F5F64 		.ascii	"do_delconn\000"
 8615      656C636F 
 8615      6E6E00
 8616              	.LASF88:
 8617 0072 72656761 		.ascii	"regarm_t\000"
 8617      726D5F74 
 8617      00
 8618              	.LASF31:
 8619 007b 705F7072 		.ascii	"p_prio\000"
 8619      696F00
 8620              	.LASF171:
 8621 0082 6E657463 		.ascii	"netconn_type\000"
 8621      6F6E6E5F 
 8621      74797065 
 8621      00
 8622              	.LASF153:
 8623 008f 50425546 		.ascii	"PBUF_RAM\000"
 8623      5F52414D 
 8623      00
 8624              	.LASF205:
 8625 0098 706F6C6C 		.ascii	"polltmr\000"
 8625      746D7200 
 8626              	.LASF256:
 8627 00a0 7463705F 		.ascii	"tcp_accept_fn\000"
 8627      61636365 
 8627      70745F66 
 8627      6E00
 8628              	.LASF162:
 8629 00ae 666C6167 		.ascii	"flags\000"
 8629      7300
 8630              	.LASF27:
 8631 00b4 73797374 		.ascii	"systime_t\000"
 8631      696D655F 
 8631      7400
 8632              	.LASF125:
 8633 00be 6D5F6F77 		.ascii	"m_owner\000"
 8633      6E657200 
 8634              	.LASF121:
 8635 00c6 735F7175 		.ascii	"s_queue\000"
 8635      65756500 
 8636              	.LASF307:
 8637 00ce 6E657463 		.ascii	"netconn_free\000"
 8637      6F6E6E5F 
 8637      66726565 
 8637      00
 8638              	.LASF189:
ARM GAS  C:\Users\Luis\AppData\Local\Temp\ccd19DXF.s 			page 156


 8639 00db 72656376 		.ascii	"recvmbox\000"
 8639      6D626F78 
 8639      00
 8640              	.LASF245:
 8641 00e4 7261775F 		.ascii	"raw_pcb\000"
 8641      70636200 
 8642              	.LASF273:
 8643 00ec 54494D45 		.ascii	"TIME_WAIT\000"
 8643      5F574149 
 8643      5400
 8644              	.LASF0:
 8645 00f6 756E7369 		.ascii	"unsigned int\000"
 8645      676E6564 
 8645      20696E74 
 8645      00
 8646              	.LASF261:
 8647 0103 7463705F 		.ascii	"tcp_connected_fn\000"
 8647      636F6E6E 
 8647      65637465 
 8647      645F666E 
 8647      00
 8648              	.LASF158:
 8649 0114 6E657874 		.ascii	"next\000"
 8649      00
 8650              	.LASF183:
 8651 0119 4E455443 		.ascii	"NETCONN_EVT_ERROR\000"
 8651      4F4E4E5F 
 8651      4556545F 
 8651      4552524F 
 8651      5200
 8652              	.LASF318:
 8653 012b 6E6F6E5F 		.ascii	"non_blocking\000"
 8653      626C6F63 
 8653      6B696E67 
 8653      00
 8654              	.LASF111:
 8655 0138 6D5F6372 		.ascii	"m_crit_isr\000"
 8655      69745F69 
 8655      737200
 8656              	.LASF169:
 8657 0143 4E455443 		.ascii	"NETCONN_UDPNOCHKSUM\000"
 8657      4F4E4E5F 
 8657      5544504E 
 8657      4F43484B 
 8657      53554D00 
 8658              	.LASF50:
 8659 0157 74687265 		.ascii	"threads_list_t\000"
 8659      6164735F 
 8659      6C697374 
 8659      5F7400
 8660              	.LASF146:
 8661 0166 6572725F 		.ascii	"err_t\000"
 8661      7400
 8662              	.LASF251:
 8663 016c 6C6F6361 		.ascii	"local\000"
 8663      6C00
 8664              	.LASF106:
ARM GAS  C:\Users\Luis\AppData\Local\Temp\ccd19DXF.s 			page 157


 8665 0172 63756D75 		.ascii	"cumulative\000"
 8665      6C617469 
 8665      766500
 8666              	.LASF40:
 8667 017d 705F7761 		.ascii	"p_waiting\000"
 8667      6974696E 
 8667      6700
 8668              	.LASF311:
 8669 0187 73687574 		.ascii	"shut_tx\000"
 8669      5F747800 
 8670              	.LASF140:
 8671 018f 7531365F 		.ascii	"u16_t\000"
 8671      7400
 8672              	.LASF147:
 8673 0195 7379735F 		.ascii	"sys_sem_t\000"
 8673      73656D5F 
 8673      7400
 8674              	.LASF338:
 8675 019f 474E5520 		.ascii	"GNU C 4.8.3 20131129 (release) [ARM/embedded-4_8-br"
 8675      4320342E 
 8675      382E3320 
 8675      32303133 
 8675      31313239 
 8676 01d2 616E6368 		.ascii	"anch revision 205641] -mcpu=cortex-m4 -mapcs-frame "
 8676      20726576 
 8676      6973696F 
 8676      6E203230 
 8676      35363431 
 8677 0205 2D6D6E6F 		.ascii	"-mno-thumb-interwork -mthumb -ggdb -O0 -falign-func"
 8677      2D746875 
 8677      6D622D69 
 8677      6E746572 
 8677      776F726B 
 8678 0238 74696F6E 		.ascii	"tions=16 -ffunction-sections -fdata-sections -fno-c"
 8678      733D3136 
 8678      202D6666 
 8678      756E6374 
 8678      696F6E2D 
 8679 026b 6F6D6D6F 		.ascii	"ommon\000"
 8679      6E00
 8680              	.LASF296:
 8681 0271 73656E74 		.ascii	"sent_tcp\000"
 8681      5F746370 
 8681      00
 8682              	.LASF83:
 8683 027a 76746C69 		.ascii	"vtlist\000"
 8683      737400
 8684              	.LASF211:
 8685 0281 7263765F 		.ascii	"rcv_ann_right_edge\000"
 8685      616E6E5F 
 8685      72696768 
 8685      745F6564 
 8685      676500
 8686              	.LASF56:
 8687 0294 63685F72 		.ascii	"ch_ready_list\000"
 8687      65616479 
 8687      5F6C6973 
ARM GAS  C:\Users\Luis\AppData\Local\Temp\ccd19DXF.s 			page 158


 8687      7400
 8688              	.LASF86:
 8689 02a2 69646C65 		.ascii	"idle_thread_wa\000"
 8689      5F746872 
 8689      6561645F 
 8689      776100
 8690              	.LASF246:
 8691 02b1 70726F74 		.ascii	"protocol\000"
 8691      6F636F6C 
 8691      00
 8692              	.LASF119:
 8693 02ba 65776D61 		.ascii	"ewmask\000"
 8693      736B00
 8694              	.LASF295:
 8695 02c1 706F6C6C 		.ascii	"poll_tcp\000"
 8695      5F746370 
 8695      00
 8696              	.LASF242:
 8697 02ca 6B656570 		.ascii	"keep_cnt_sent\000"
 8697      5F636E74 
 8697      5F73656E 
 8697      7400
 8698              	.LASF288:
 8699 02d8 4D454D50 		.ascii	"MEMP_PBUF_POOL\000"
 8699      5F504255 
 8699      465F504F 
 8699      4F4C00
 8700              	.LASF244:
 8701 02e7 72656376 		.ascii	"recv_arg\000"
 8701      5F617267 
 8701      00
 8702              	.LASF258:
 8703 02f0 7463705F 		.ascii	"tcp_sent_fn\000"
 8703      73656E74 
 8703      5F666E00 
 8704              	.LASF172:
 8705 02fc 6E657463 		.ascii	"netconn_state\000"
 8705      6F6E6E5F 
 8705      73746174 
 8705      6500
 8706              	.LASF63:
 8707 030a 76746675 		.ascii	"vtfunc_t\000"
 8707      6E635F74 
 8707      00
 8708              	.LASF115:
 8709 0313 77746F62 		.ascii	"wtobjp\000"
 8709      6A7000
 8710              	.LASF75:
 8711 031a 63685F73 		.ascii	"ch_system_debug\000"
 8711      79737465 
 8711      6D5F6465 
 8711      62756700 
 8712              	.LASF122:
 8713 032a 735F636E 		.ascii	"s_cnt\000"
 8713      7400
 8714              	.LASF149:
 8715 0330 50425546 		.ascii	"PBUF_TRANSPORT\000"
ARM GAS  C:\Users\Luis\AppData\Local\Temp\ccd19DXF.s 			page 159


 8715      5F545241 
 8715      4E53504F 
 8715      525400
 8716              	.LASF12:
 8717 033f 75696E74 		.ascii	"uint32_t\000"
 8717      33325F74 
 8717      00
 8718              	.LASF283:
 8719 0348 4D454D50 		.ascii	"MEMP_NETCONN\000"
 8719      5F4E4554 
 8719      434F4E4E 
 8719      00
 8720              	.LASF218:
 8721 0355 63776E64 		.ascii	"cwnd\000"
 8721      00
 8722              	.LASF112:
 8723 035a 6B65726E 		.ascii	"kernel_stats_t\000"
 8723      656C5F73 
 8723      74617473 
 8723      5F7400
 8724              	.LASF24:
 8725 0369 6576656E 		.ascii	"eventmask_t\000"
 8725      746D6173 
 8725      6B5F7400 
 8726              	.LASF58:
 8727 0375 725F7072 		.ascii	"r_prio\000"
 8727      696F00
 8728              	.LASF201:
 8729 037c 61636365 		.ascii	"accept\000"
 8729      707400
 8730              	.LASF85:
 8731 0383 6B65726E 		.ascii	"kernel_stats\000"
 8731      656C5F73 
 8731      74617473 
 8731      00
 8732              	.LASF284:
 8733 0390 4D454D50 		.ascii	"MEMP_TCPIP_MSG_API\000"
 8733      5F544350 
 8733      49505F4D 
 8733      53475F41 
 8733      504900
 8734              	.LASF203:
 8735 03a3 6C6F6361 		.ascii	"local_port\000"
 8735      6C5F706F 
 8735      727400
 8736              	.LASF120:
 8737 03ae 63685F73 		.ascii	"ch_semaphore\000"
 8737      656D6170 
 8737      686F7265 
 8737      00
 8738              	.LASF22:
 8739 03bb 74707269 		.ascii	"tprio_t\000"
 8739      6F5F7400 
 8740              	.LASF65:
 8741 03c3 63685F76 		.ascii	"ch_virtual_timer\000"
 8741      69727475 
 8741      616C5F74 
ARM GAS  C:\Users\Luis\AppData\Local\Temp\ccd19DXF.s 			page 160


 8741      696D6572 
 8741      00
 8742              	.LASF6:
 8743 03d4 696E7431 		.ascii	"int16_t\000"
 8743      365F7400 
 8744              	.LASF326:
 8745 03dc 646F5F77 		.ascii	"do_writemore\000"
 8745      72697465 
 8745      6D6F7265 
 8745      00
 8746              	.LASF341:
 8747 03e9 7463705F 		.ascii	"tcp_seg\000"
 8747      73656700 
 8748              	.LASF16:
 8749 03f1 6C6F6E67 		.ascii	"long long unsigned int\000"
 8749      206C6F6E 
 8749      6720756E 
 8749      7369676E 
 8749      65642069 
 8750              	.LASF94:
 8751 0408 73655F77 		.ascii	"se_wtobjp\000"
 8751      746F626A 
 8751      7000
 8752              	.LASF101:
 8753 0412 6F666673 		.ascii	"offset\000"
 8753      657400
 8754              	.LASF290:
 8755 0419 72656173 		.ascii	"reason\000"
 8755      6F6E00
 8756              	.LASF165:
 8757 0420 4E455443 		.ascii	"NETCONN_INVALID\000"
 8757      4F4E4E5F 
 8757      494E5641 
 8757      4C494400 
 8758              	.LASF214:
 8759 0430 72747365 		.ascii	"rtseq\000"
 8759      7100
 8760              	.LASF337:
 8761 0436 63757272 		.ascii	"current_iphdr_src\000"
 8761      656E745F 
 8761      69706864 
 8761      725F7372 
 8761      6300
 8762              	.LASF182:
 8763 0448 4E455443 		.ascii	"NETCONN_EVT_SENDMINUS\000"
 8763      4F4E4E5F 
 8763      4556545F 
 8763      53454E44 
 8763      4D494E55 
 8764              	.LASF212:
 8765 045e 7274696D 		.ascii	"rtime\000"
 8765      6500
 8766              	.LASF77:
 8767 0464 6973725F 		.ascii	"isr_cnt\000"
 8767      636E7400 
 8768              	.LASF104:
 8769 046c 776F7273 		.ascii	"worst\000"
ARM GAS  C:\Users\Luis\AppData\Local\Temp\ccd19DXF.s 			page 161


 8769      7400
 8770              	.LASF128:
 8771 0472 73656D61 		.ascii	"semaphore_t\000"
 8771      70686F72 
 8771      655F7400 
 8772              	.LASF33:
 8773 047e 705F6E65 		.ascii	"p_newer\000"
 8773      77657200 
 8774              	.LASF72:
 8775 0486 63685F76 		.ascii	"ch_virtual_timers_list\000"
 8775      69727475 
 8775      616C5F74 
 8775      696D6572 
 8775      735F6C69 
 8776              	.LASF208:
 8777 049d 7263765F 		.ascii	"rcv_nxt\000"
 8777      6E787400 
 8778              	.LASF285:
 8779 04a5 4D454D50 		.ascii	"MEMP_TCPIP_MSG_INPKT\000"
 8779      5F544350 
 8779      49505F4D 
 8779      53475F49 
 8779      4E504B54 
 8780              	.LASF155:
 8781 04ba 50425546 		.ascii	"PBUF_REF\000"
 8781      5F524546 
 8781      00
 8782              	.LASF179:
 8783 04c3 4E455443 		.ascii	"NETCONN_EVT_RCVPLUS\000"
 8783      4F4E4E5F 
 8783      4556545F 
 8783      52435650 
 8783      4C555300 
 8784              	.LASF92:
 8785 04d7 73655F74 		.ascii	"se_time\000"
 8785      696D6500 
 8786              	.LASF28:
 8787 04df 74687265 		.ascii	"thread_t\000"
 8787      61645F74 
 8787      00
 8788              	.LASF167:
 8789 04e8 4E455443 		.ascii	"NETCONN_UDP\000"
 8789      4F4E4E5F 
 8789      55445000 
 8790              	.LASF29:
 8791 04f4 705F6E65 		.ascii	"p_next\000"
 8791      787400
 8792              	.LASF339:
 8793 04fb 2E2E2F2E 		.ascii	"../../ChibiOS/ext/lwip/src/api/api_msg.c\000"
 8793      2E2F4368 
 8793      6962694F 
 8793      532F6578 
 8793      742F6C77 
 8794              	.LASF272:
 8795 0524 4C415354 		.ascii	"LAST_ACK\000"
 8795      5F41434B 
 8795      00
ARM GAS  C:\Users\Luis\AppData\Local\Temp\ccd19DXF.s 			page 162


 8796              	.LASF160:
 8797 052d 746F745F 		.ascii	"tot_len\000"
 8797      6C656E00 
 8798              	.LASF250:
 8799 0535 69706164 		.ascii	"ipaddr\000"
 8799      647200
 8800              	.LASF1:
 8801 053c 73697A65 		.ascii	"size_t\000"
 8801      5F7400
 8802              	.LASF113:
 8803 0543 7264796D 		.ascii	"rdymsg\000"
 8803      736700
 8804              	.LASF159:
 8805 054a 7061796C 		.ascii	"payload\000"
 8805      6F616400 
 8806              	.LASF150:
 8807 0552 50425546 		.ascii	"PBUF_IP\000"
 8807      5F495000 
 8808              	.LASF236:
 8809 055a 636F6E6E 		.ascii	"connected\000"
 8809      65637465 
 8809      6400
 8810              	.LASF294:
 8811 0564 72656376 		.ascii	"recv_tcp\000"
 8811      5F746370 
 8811      00
 8812              	.LASF137:
 8813 056d 5F426F6F 		.ascii	"_Bool\000"
 8813      6C00
 8814              	.LASF133:
 8815 0573 6D625F72 		.ascii	"mb_rdptr\000"
 8815      64707472 
 8815      00
 8816              	.LASF248:
 8817 057c 636F6E6E 		.ascii	"conn\000"
 8817      00
 8818              	.LASF136:
 8819 0581 6D61696C 		.ascii	"mailbox_t\000"
 8819      626F785F 
 8819      7400
 8820              	.LASF156:
 8821 058b 50425546 		.ascii	"PBUF_POOL\000"
 8821      5F504F4F 
 8821      4C00
 8822              	.LASF271:
 8823 0595 434C4F53 		.ascii	"CLOSING\000"
 8823      494E4700 
 8824              	.LASF336:
 8825 059d 49544D5F 		.ascii	"ITM_RxBuffer\000"
 8825      52784275 
 8825      66666572 
 8825      00
 8826              	.LASF123:
 8827 05aa 63685F6D 		.ascii	"ch_mutex\000"
 8827      75746578 
 8827      00
 8828              	.LASF187:
ARM GAS  C:\Users\Luis\AppData\Local\Temp\ccd19DXF.s 			page 163


 8829 05b3 6C617374 		.ascii	"last_err\000"
 8829      5F657272 
 8829      00
 8830              	.LASF217:
 8831 05bc 6C617374 		.ascii	"lastack\000"
 8831      61636B00 
 8832              	.LASF289:
 8833 05c4 4D454D50 		.ascii	"MEMP_MAX\000"
 8833      5F4D4158 
 8833      00
 8834              	.LASF139:
 8835 05cd 73385F74 		.ascii	"s8_t\000"
 8835      00
 8836              	.LASF330:
 8837 05d2 646F6E74 		.ascii	"dontblock\000"
 8837      626C6F63 
 8837      6B00
 8838              	.LASF105:
 8839 05dc 6C617374 		.ascii	"last\000"
 8839      00
 8840              	.LASF135:
 8841 05e1 6D625F65 		.ascii	"mb_emptysem\000"
 8841      6D707479 
 8841      73656D00 
 8842              	.LASF181:
 8843 05ed 4E455443 		.ascii	"NETCONN_EVT_SENDPLUS\000"
 8843      4F4E4E5F 
 8843      4556545F 
 8843      53454E44 
 8843      504C5553 
 8844              	.LASF247:
 8845 0602 6170695F 		.ascii	"api_msg_msg\000"
 8845      6D73675F 
 8845      6D736700 
 8846              	.LASF107:
 8847 060e 74696D65 		.ascii	"time_measurement_t\000"
 8847      5F6D6561 
 8847      73757265 
 8847      6D656E74 
 8847      5F7400
 8848              	.LASF2:
 8849 0621 696E7438 		.ascii	"int8_t\000"
 8849      5F7400
 8850              	.LASF180:
 8851 0628 4E455443 		.ascii	"NETCONN_EVT_RCVMINUS\000"
 8851      4F4E4E5F 
 8851      4556545F 
 8851      5243564D 
 8851      494E5553 
 8852              	.LASF35:
 8853 063d 705F6E61 		.ascii	"p_name\000"
 8853      6D6500
 8854              	.LASF216:
 8855 0644 64757061 		.ascii	"dupacks\000"
 8855      636B7300 
 8856              	.LASF164:
 8857 064c 706F7274 		.ascii	"port\000"
ARM GAS  C:\Users\Luis\AppData\Local\Temp\ccd19DXF.s 			page 164


 8857      00
 8858              	.LASF202:
 8859 0651 7072696F 		.ascii	"prio\000"
 8859      00
 8860              	.LASF206:
 8861 0656 706F6C6C 		.ascii	"pollinterval\000"
 8861      696E7465 
 8861      7276616C 
 8861      00
 8862              	.LASF287:
 8863 0663 4D454D50 		.ascii	"MEMP_PBUF\000"
 8863      5F504255 
 8863      4600
 8864              	.LASF237:
 8865 066d 706F6C6C 		.ascii	"poll\000"
 8865      00
 8866              	.LASF163:
 8867 0672 6E657462 		.ascii	"netbuf\000"
 8867      756600
 8868              	.LASF68:
 8869 0679 76745F64 		.ascii	"vt_delta\000"
 8869      656C7461 
 8869      00
 8870              	.LASF333:
 8871 0682 646F5F77 		.ascii	"do_write\000"
 8871      72697465 
 8871      00
 8872              	.LASF293:
 8873 068b 72656376 		.ascii	"recv_raw\000"
 8873      5F726177 
 8873      00
 8874              	.LASF221:
 8875 0694 736E645F 		.ascii	"snd_wl1\000"
 8875      776C3100 
 8876              	.LASF18:
 8877 069c 72747469 		.ascii	"rttime_t\000"
 8877      6D655F74 
 8877      00
 8878              	.LASF73:
 8879 06a5 76745F6C 		.ascii	"vt_lasttime\000"
 8879      61737474 
 8879      696D6500 
 8880              	.LASF226:
 8881 06b1 61636B65 		.ascii	"acked\000"
 8881      6400
 8882              	.LASF312:
 8883 06b7 636C6F73 		.ascii	"close\000"
 8883      6500
 8884              	.LASF249:
 8885 06bd 70726F74 		.ascii	"proto\000"
 8885      6F00
 8886              	.LASF74:
 8887 06c3 73797374 		.ascii	"system_debug_t\000"
 8887      656D5F64 
 8887      65627567 
 8887      5F7400
 8888              	.LASF20:
ARM GAS  C:\Users\Luis\AppData\Local\Temp\ccd19DXF.s 			page 165


 8889 06d2 74737461 		.ascii	"tstate_t\000"
 8889      74655F74 
 8889      00
 8890              	.LASF93:
 8891 06db 73655F74 		.ascii	"se_tp\000"
 8891      7000
 8892              	.LASF298:
 8893 06e1 6F6C645F 		.ascii	"old_state\000"
 8893      73746174 
 8893      6500
 8894              	.LASF14:
 8895 06eb 6C6F6E67 		.ascii	"long long int\000"
 8895      206C6F6E 
 8895      6720696E 
 8895      7400
 8896              	.LASF177:
 8897 06f9 4E455443 		.ascii	"NETCONN_CLOSE\000"
 8897      4F4E4E5F 
 8897      434C4F53 
 8897      4500
 8898              	.LASF34:
 8899 0707 705F6F6C 		.ascii	"p_older\000"
 8899      64657200 
 8900              	.LASF130:
 8901 070f 6D625F62 		.ascii	"mb_buffer\000"
 8901      75666665 
 8901      7200
 8902              	.LASF36:
 8903 0719 705F7374 		.ascii	"p_stklimit\000"
 8903      6B6C696D 
 8903      697400
 8904              	.LASF234:
 8905 0724 73656E74 		.ascii	"sent\000"
 8905      00
 8906              	.LASF4:
 8907 0729 75696E74 		.ascii	"uint8_t\000"
 8907      385F7400 
 8908              	.LASF134:
 8909 0731 6D625F66 		.ascii	"mb_fullsem\000"
 8909      756C6C73 
 8909      656D00
 8910              	.LASF161:
 8911 073c 74797065 		.ascii	"type\000"
 8911      00
 8912              	.LASF222:
 8913 0741 736E645F 		.ascii	"snd_wl2\000"
 8913      776C3200 
 8914              	.LASF47:
 8915 0749 705F7374 		.ascii	"p_stats\000"
 8915      61747300 
 8916              	.LASF46:
 8917 0751 705F6D70 		.ascii	"p_mpool\000"
 8917      6F6F6C00 
 8918              	.LASF44:
 8919 0759 705F6D74 		.ascii	"p_mtxlist\000"
 8919      786C6973 
 8919      7400
ARM GAS  C:\Users\Luis\AppData\Local\Temp\ccd19DXF.s 			page 166


 8920              	.LASF260:
 8921 0763 7463705F 		.ascii	"tcp_err_fn\000"
 8921      6572725F 
 8921      666E00
 8922              	.LASF190:
 8923 076e 61636365 		.ascii	"acceptmbox\000"
 8923      70746D62 
 8923      6F7800
 8924              	.LASF51:
 8925 0779 63685F74 		.ascii	"ch_thread\000"
 8925      68726561 
 8925      6400
 8926              	.LASF97:
 8927 0783 74625F73 		.ascii	"tb_size\000"
 8927      697A6500 
 8928              	.LASF328:
 8929 078b 77726974 		.ascii	"write_finished\000"
 8929      655F6669 
 8929      6E697368 
 8929      656400
 8930              	.LASF223:
 8931 079a 736E645F 		.ascii	"snd_lbb\000"
 8931      6C626200 
 8932              	.LASF301:
 8933 07a2 61636365 		.ascii	"accept_function\000"
 8933      70745F66 
 8933      756E6374 
 8933      696F6E00 
 8934              	.LASF331:
 8935 07b2 66726565 		.ascii	"free_and_return\000"
 8935      5F616E64 
 8935      5F726574 
 8935      75726E00 
 8936              	.LASF282:
 8937 07c2 4D454D50 		.ascii	"MEMP_NETBUF\000"
 8937      5F4E4554 
 8937      42554600 
 8938              	.LASF37:
 8939 07ce 705F7374 		.ascii	"p_state\000"
 8939      61746500 
 8940              	.LASF54:
 8941 07d6 63685F74 		.ascii	"ch_threads_queue\000"
 8941      68726561 
 8941      64735F71 
 8941      75657565 
 8941      00
 8942              	.LASF317:
 8943 07e7 646F5F63 		.ascii	"do_connect\000"
 8943      6F6E6E65 
 8943      637400
 8944              	.LASF57:
 8945 07f2 725F7175 		.ascii	"r_queue\000"
 8945      65756500 
 8946              	.LASF302:
 8947 07fa 6E657770 		.ascii	"newpcb\000"
 8947      636200
 8948              	.LASF60:
ARM GAS  C:\Users\Luis\AppData\Local\Temp\ccd19DXF.s 			page 167


 8949 0801 725F6E65 		.ascii	"r_newer\000"
 8949      77657200 
 8950              	.LASF25:
 8951 0809 636E745F 		.ascii	"cnt_t\000"
 8951      7400
 8952              	.LASF23:
 8953 080f 6D73675F 		.ascii	"msg_t\000"
 8953      7400
 8954              	.LASF297:
 8955 0815 6572725F 		.ascii	"err_tcp\000"
 8955      74637000 
 8956              	.LASF277:
 8957 081d 4D454D50 		.ascii	"MEMP_TCP_PCB\000"
 8957      5F544350 
 8957      5F504342 
 8957      00
 8958              	.LASF138:
 8959 082a 75385F74 		.ascii	"u8_t\000"
 8959      00
 8960              	.LASF308:
 8961 082f 6E657463 		.ascii	"netconn_drain\000"
 8961      6F6E6E5F 
 8961      64726169 
 8961      6E00
 8962              	.LASF274:
 8963 083d 7261775F 		.ascii	"raw_recv_fn\000"
 8963      72656376 
 8963      5F666E00 
 8964              	.LASF38:
 8965 0849 705F666C 		.ascii	"p_flags\000"
 8965      61677300 
 8966              	.LASF64:
 8967 0851 76697274 		.ascii	"virtual_timer_t\000"
 8967      75616C5F 
 8967      74696D65 
 8967      725F7400 
 8968              	.LASF291:
 8969 0861 6F73616C 		.ascii	"osalSysHalt\000"
 8969      53797348 
 8969      616C7400 
 8970              	.LASF300:
 8971 086d 73657475 		.ascii	"setup_tcp\000"
 8971      705F7463 
 8971      7000
 8972              	.LASF204:
 8973 0877 72656D6F 		.ascii	"remote_port\000"
 8973      74655F70 
 8973      6F727400 
 8974              	.LASF99:
 8975 0883 74625F62 		.ascii	"tb_buffer\000"
 8975      75666665 
 8975      7200
 8976              	.LASF305:
 8977 088d 73697A65 		.ascii	"size\000"
 8977      00
 8978              	.LASF131:
 8979 0892 6D625F74 		.ascii	"mb_top\000"
ARM GAS  C:\Users\Luis\AppData\Local\Temp\ccd19DXF.s 			page 168


 8979      6F7000
 8980              	.LASF98:
 8981 0899 74625F70 		.ascii	"tb_ptr\000"
 8981      747200
 8982              	.LASF210:
 8983 08a0 7263765F 		.ascii	"rcv_ann_wnd\000"
 8983      616E6E5F 
 8983      776E6400 
 8984              	.LASF61:
 8985 08ac 725F6F6C 		.ascii	"r_older\000"
 8985      64657200 
 8986              	.LASF280:
 8987 08b4 4D454D50 		.ascii	"MEMP_REASSDATA\000"
 8987      5F524541 
 8987      53534441 
 8987      544100
 8988              	.LASF109:
 8989 08c3 6E5F6374 		.ascii	"n_ctxswc\000"
 8989      78737763 
 8989      00
 8990              	.LASF257:
 8991 08cc 7463705F 		.ascii	"tcp_recv_fn\000"
 8991      72656376 
 8991      5F666E00 
 8992              	.LASF95:
 8993 08d8 73655F73 		.ascii	"se_state\000"
 8993      74617465 
 8993      00
 8994              	.LASF151:
 8995 08e1 50425546 		.ascii	"PBUF_LINK\000"
 8995      5F4C494E 
 8995      4B00
 8996              	.LASF90:
 8997 08eb 636F6E74 		.ascii	"context\000"
 8997      65787400 
 8998              	.LASF299:
 8999 08f3 7761735F 		.ascii	"was_nonblocking_connect\000"
 8999      6E6F6E62 
 8999      6C6F636B 
 8999      696E675F 
 8999      636F6E6E 
 9000              	.LASF42:
 9001 090b 705F6D73 		.ascii	"p_msg\000"
 9001      6700
 9002              	.LASF102:
 9003 0911 746D5F63 		.ascii	"tm_calibration_t\000"
 9003      616C6962 
 9003      72617469 
 9003      6F6E5F74 
 9003      00
 9004              	.LASF252:
 9005 0922 64617461 		.ascii	"dataptr\000"
 9005      70747200 
 9006              	.LASF19:
 9007 092a 746D6F64 		.ascii	"tmode_t\000"
 9007      655F7400 
 9008              	.LASF26:
ARM GAS  C:\Users\Luis\AppData\Local\Temp\ccd19DXF.s 			page 169


 9009 0932 75636E74 		.ascii	"ucnt_t\000"
 9009      5F7400
 9010              	.LASF84:
 9011 0939 6D61696E 		.ascii	"mainthread\000"
 9011      74687265 
 9011      616400
 9012              	.LASF259:
 9013 0944 7463705F 		.ascii	"tcp_poll_fn\000"
 9013      706F6C6C 
 9013      5F666E00 
 9014              	.LASF8:
 9015 0950 75696E74 		.ascii	"uint16_t\000"
 9015      31365F74 
 9015      00
 9016              	.LASF173:
 9017 0959 4E455443 		.ascii	"NETCONN_NONE\000"
 9017      4F4E4E5F 
 9017      4E4F4E45 
 9017      00
 9018              	.LASF238:
 9019 0966 65727266 		.ascii	"errf\000"
 9019      00
 9020              	.LASF152:
 9021 096b 50425546 		.ascii	"PBUF_RAW\000"
 9021      5F524157 
 9021      00
 9022              	.LASF224:
 9023 0974 736E645F 		.ascii	"snd_wnd\000"
 9023      776E6400 
 9024              	.LASF262:
 9025 097c 7463705F 		.ascii	"tcp_state\000"
 9025      73746174 
 9025      6500
 9026              	.LASF17:
 9027 0986 7274636E 		.ascii	"rtcnt_t\000"
 9027      745F7400 
 9028              	.LASF176:
 9029 098e 4E455443 		.ascii	"NETCONN_CONNECT\000"
 9029      4F4E4E5F 
 9029      434F4E4E 
 9029      45435400 
 9030              	.LASF78:
 9031 099e 6C6F636B 		.ascii	"lock_cnt\000"
 9031      5F636E74 
 9031      00
 9032              	.LASF340:
 9033 09a7 433A5C55 		.ascii	"C:\\Users\\Luis\\git\\DSP-Library-Lanin\\examples\\"
 9033      73657273 
 9033      5C4C7569 
 9033      735C6769 
 9033      745C4453 
 9034 09d4 53544D33 		.ascii	"STM32F407_EMTECH-LWIP\000"
 9034      32463430 
 9034      375F454D 
 9034      54454348 
 9034      2D4C5749 
 9035              	.LASF232:
ARM GAS  C:\Users\Luis\AppData\Local\Temp\ccd19DXF.s 			page 170


 9036 09ea 6F6F7365 		.ascii	"ooseq\000"
 9036      7100
 9037              	.LASF108:
 9038 09f0 6E5F6972 		.ascii	"n_irq\000"
 9038      7100
 9039              	.LASF87:
 9040 09f6 73697A65 		.ascii	"sizetype\000"
 9040      74797065 
 9040      00
 9041              	.LASF314:
 9042 09ff 646F5F62 		.ascii	"do_bind\000"
 9042      696E6400 
 9043              	.LASF45:
 9044 0a07 705F7265 		.ascii	"p_realprio\000"
 9044      616C7072 
 9044      696F00
 9045              	.LASF263:
 9046 0a12 434C4F53 		.ascii	"CLOSED\000"
 9046      454400
 9047              	.LASF255:
 9048 0a19 7564705F 		.ascii	"udp_recv_fn\000"
 9048      72656376 
 9048      5F666E00 
 9049              	.LASF335:
 9050 0a25 646F5F63 		.ascii	"do_close\000"
 9050      6C6F7365 
 9050      00
 9051              	.LASF7:
 9052 0a2e 73686F72 		.ascii	"short int\000"
 9052      7420696E 
 9052      7400
 9053              	.LASF132:
 9054 0a38 6D625F77 		.ascii	"mb_wrptr\000"
 9054      72707472 
 9054      00
 9055              	.LASF62:
 9056 0a41 725F6375 		.ascii	"r_current\000"
 9056      7272656E 
 9056      7400
 9057              	.LASF43:
 9058 0a4b 705F6570 		.ascii	"p_epending\000"
 9058      656E6469 
 9058      6E6700
 9059              	.LASF124:
 9060 0a56 6D5F7175 		.ascii	"m_queue\000"
 9060      65756500 
 9061              	.LASF322:
 9062 0a5e 646F5F73 		.ascii	"do_send\000"
 9062      656E6400 
 9063              	.LASF11:
 9064 0a66 6C6F6E67 		.ascii	"long int\000"
 9064      20696E74 
 9064      00
 9065              	.LASF91:
 9066 0a6f 706F7274 		.ascii	"port_intctx\000"
 9066      5F696E74 
 9066      63747800 
ARM GAS  C:\Users\Luis\AppData\Local\Temp\ccd19DXF.s 			page 171


 9067              	.LASF327:
 9068 0a7b 61766169 		.ascii	"available\000"
 9068      6C61626C 
 9068      6500
 9069              	.LASF230:
 9070 0a85 756E7365 		.ascii	"unsent\000"
 9070      6E7400
 9071              	.LASF209:
 9072 0a8c 7263765F 		.ascii	"rcv_wnd\000"
 9072      776E6400 
 9073              	.LASF213:
 9074 0a94 72747465 		.ascii	"rttest\000"
 9074      737400
 9075              	.LASF329:
 9076 0a9b 64696666 		.ascii	"diff\000"
 9076      00
 9077              	.LASF81:
 9078 0aa0 63685F73 		.ascii	"ch_system\000"
 9078      79737465 
 9078      6D00
 9079              	.LASF193:
 9080 0aaa 63757272 		.ascii	"current_msg\000"
 9080      656E745F 
 9080      6D736700 
 9081              	.LASF110:
 9082 0ab6 6D5F6372 		.ascii	"m_crit_thd\000"
 9082      69745F74 
 9082      686400
 9083              	.LASF286:
 9084 0ac1 4D454D50 		.ascii	"MEMP_SYS_TIMEOUT\000"
 9084      5F535953 
 9084      5F54494D 
 9084      454F5554 
 9084      00
 9085              	.LASF207:
 9086 0ad2 6C617374 		.ascii	"last_timer\000"
 9086      5F74696D 
 9086      657200
 9087              	.LASF276:
 9088 0add 4D454D50 		.ascii	"MEMP_UDP_PCB\000"
 9088      5F554450 
 9088      5F504342 
 9088      00
 9089              	.LASF196:
 9090 0aea 6C6F6361 		.ascii	"local_ip\000"
 9090      6C5F6970 
 9090      00
 9091              	.LASF15:
 9092 0af3 75696E74 		.ascii	"uint64_t\000"
 9092      36345F74 
 9092      00
 9093              	.LASF32:
 9094 0afc 705F6374 		.ascii	"p_ctx\000"
 9094      7800
 9095              	.LASF82:
 9096 0b02 726C6973 		.ascii	"rlist\000"
 9096      7400
ARM GAS  C:\Users\Luis\AppData\Local\Temp\ccd19DXF.s 			page 172


 9097              	.LASF229:
 9098 0b08 756E7365 		.ascii	"unsent_oversize\000"
 9098      6E745F6F 
 9098      76657273 
 9098      697A6500 
 9099              	.LASF324:
 9100 0b18 72656D61 		.ascii	"remaining\000"
 9100      696E696E 
 9100      6700
 9101              	.LASF306:
 9102 0b22 646F5F6E 		.ascii	"do_newconn\000"
 9102      6577636F 
 9102      6E6E00
 9103              	.LASF191:
 9104 0b2d 736F636B 		.ascii	"socket\000"
 9104      657400
 9105              	.LASF220:
 9106 0b34 736E645F 		.ascii	"snd_nxt\000"
 9106      6E787400 
 9107              	.LASF243:
 9108 0b3c 7564705F 		.ascii	"udp_pcb\000"
 9108      70636200 
 9109              	.LASF267:
 9110 0b44 45535441 		.ascii	"ESTABLISHED\000"
 9110      424C4953 
 9110      48454400 
 9111              	.LASF225:
 9112 0b50 736E645F 		.ascii	"snd_wnd_max\000"
 9112      776E645F 
 9112      6D617800 
 9113              	.LASF281:
 9114 0b5c 4D454D50 		.ascii	"MEMP_FRAG_PBUF\000"
 9114      5F465241 
 9114      475F5042 
 9114      554600
 9115              	.LASF334:
 9116 0b6b 646F5F67 		.ascii	"do_getaddr\000"
 9116      65746164 
 9116      647200
 9117              	.LASF219:
 9118 0b76 73737468 		.ascii	"ssthresh\000"
 9118      72657368 
 9118      00
 9119              	.LASF227:
 9120 0b7f 736E645F 		.ascii	"snd_buf\000"
 9120      62756600 
 9121              	.LASF275:
 9122 0b87 4D454D50 		.ascii	"MEMP_RAW_PCB\000"
 9122      5F524157 
 9122      5F504342 
 9122      00
 9123              	.LASF323:
 9124 0b94 646F5F72 		.ascii	"do_recv\000"
 9124      65637600 
 9125              	.LASF30:
 9126 0b9c 705F7072 		.ascii	"p_prev\000"
 9126      657600
ARM GAS  C:\Users\Luis\AppData\Local\Temp\ccd19DXF.s 			page 173


 9127              	.LASF270:
 9128 0ba3 434C4F53 		.ascii	"CLOSE_WAIT\000"
 9128      455F5741 
 9128      495400
 9129              	.LASF148:
 9130 0bae 7379735F 		.ascii	"sys_mbox_t\000"
 9130      6D626F78 
 9130      5F7400
 9131              	.LASF21:
 9132 0bb9 74726566 		.ascii	"trefs_t\000"
 9132      735F7400 
 9133              	.LASF13:
 9134 0bc1 6C6F6E67 		.ascii	"long unsigned int\000"
 9134      20756E73 
 9134      69676E65 
 9134      6420696E 
 9134      7400
 9135              	.LASF55:
 9136 0bd3 72656164 		.ascii	"ready_list_t\000"
 9136      795F6C69 
 9136      73745F74 
 9136      00
 9137              	.LASF309:
 9138 0be0 646F5F63 		.ascii	"do_close_internal\000"
 9138      6C6F7365 
 9138      5F696E74 
 9138      65726E61 
 9138      6C00
 9139              	.LASF292:
 9140 0bf2 72656376 		.ascii	"recv_udp\000"
 9140      5F756470 
 9140      00
 9141              	.LASF141:
 9142 0bfb 7331365F 		.ascii	"s16_t\000"
 9142      7400
 9143              	.LASF10:
 9144 0c01 696E7433 		.ascii	"int32_t\000"
 9144      325F7400 
 9145              	.LASF241:
 9146 0c09 70657273 		.ascii	"persist_backoff\000"
 9146      6973745F 
 9146      6261636B 
 9146      6F666600 
 9147              	.LASF253:
 9148 0c19 61706966 		.ascii	"apiflags\000"
 9148      6C616773 
 9148      00
 9149              	.LASF233:
 9150 0c22 72656675 		.ascii	"refused_data\000"
 9150      7365645F 
 9150      64617461 
 9150      00
 9151              	.LASF79:
 9152 0c2f 74726163 		.ascii	"trace_buffer\000"
 9152      655F6275 
 9152      66666572 
 9152      00
ARM GAS  C:\Users\Luis\AppData\Local\Temp\ccd19DXF.s 			page 174


 9153              	.LASF117:
 9154 0c3c 77747365 		.ascii	"wtsemp\000"
 9154      6D7000
 9155              	.LASF178:
 9156 0c43 6E657463 		.ascii	"netconn_evt\000"
 9156      6F6E6E5F 
 9156      65767400 
 9157              	.LASF184:
 9158 0c4f 6E657463 		.ascii	"netconn_callback\000"
 9158      6F6E6E5F 
 9158      63616C6C 
 9158      6261636B 
 9158      00
 9159              	.LASF96:
 9160 0c60 63685F73 		.ascii	"ch_swc_event_t\000"
 9160      77635F65 
 9160      76656E74 
 9160      5F7400
 9161              	.LASF129:
 9162 0c6f 6D757465 		.ascii	"mutex_t\000"
 9162      785F7400 
 9163              	.LASF315:
 9164 0c77 646F5F63 		.ascii	"do_connected\000"
 9164      6F6E6E65 
 9164      63746564 
 9164      00
 9165              	.LASF70:
 9166 0c84 76745F70 		.ascii	"vt_par\000"
 9166      617200
 9167              	.LASF103:
 9168 0c8b 62657374 		.ascii	"best\000"
 9168      00
 9169              	.LASF5:
 9170 0c90 756E7369 		.ascii	"unsigned char\000"
 9170      676E6564 
 9170      20636861 
 9170      7200
 9171              	.LASF320:
 9172 0c9e 646F5F6C 		.ascii	"do_listen\000"
 9172      69737465 
 9172      6E00
 9173              	.LASF268:
 9174 0ca8 46494E5F 		.ascii	"FIN_WAIT_1\000"
 9174      57414954 
 9174      5F3100
 9175              	.LASF269:
 9176 0cb3 46494E5F 		.ascii	"FIN_WAIT_2\000"
 9176      57414954 
 9176      5F3200
 9177              	.LASF231:
 9178 0cbe 756E6163 		.ascii	"unacked\000"
 9178      6B656400 
 9179              	.LASF71:
 9180 0cc6 76697274 		.ascii	"virtual_timers_list_t\000"
 9180      75616C5F 
 9180      74696D65 
 9180      72735F6C 
ARM GAS  C:\Users\Luis\AppData\Local\Temp\ccd19DXF.s 			page 175


 9180      6973745F 
 9181              	.LASF39:
 9182 0cdc 705F7265 		.ascii	"p_refs\000"
 9182      667300
 9183              	.LASF279:
 9184 0ce3 4D454D50 		.ascii	"MEMP_TCP_SEG\000"
 9184      5F544350 
 9184      5F534547 
 9184      00
 9185              	.LASF195:
 9186 0cf0 69705F70 		.ascii	"ip_pcb\000"
 9186      636200
 9187              	.LASF166:
 9188 0cf7 4E455443 		.ascii	"NETCONN_TCP\000"
 9188      4F4E4E5F 
 9188      54435000 
 9189              	.LASF265:
 9190 0d03 53594E5F 		.ascii	"SYN_SENT\000"
 9190      53454E54 
 9190      00
 9191              	.LASF157:
 9192 0d0c 70627566 		.ascii	"pbuf\000"
 9192      00
 9193              	.LASF254:
 9194 0d11 73687574 		.ascii	"shut\000"
 9194      00
 9195              	.LASF239:
 9196 0d16 6B656570 		.ascii	"keep_idle\000"
 9196      5F69646C 
 9196      6500
 9197              	.LASF175:
 9198 0d20 4E455443 		.ascii	"NETCONN_LISTEN\000"
 9198      4F4E4E5F 
 9198      4C495354 
 9198      454E00
 9199              	.LASF342:
 9200 0d2f 6E657463 		.ascii	"netconn_alloc\000"
 9200      6F6E6E5F 
 9200      616C6C6F 
 9200      6300
 9201              	.LASF264:
 9202 0d3d 4C495354 		.ascii	"LISTEN\000"
 9202      454E00
 9203              	.LASF89:
 9204 0d44 73746B61 		.ascii	"stkalign_t\000"
 9204      6C69676E 
 9204      5F7400
 9205              	.LASF332:
 9206 0d4f 6572725F 		.ascii	"err_mem\000"
 9206      6D656D00 
 9207              	.LASF192:
 9208 0d57 77726974 		.ascii	"write_offset\000"
 9208      655F6F66 
 9208      66736574 
 9208      00
 9209              	.LASF144:
 9210 0d64 61646472 		.ascii	"addr\000"
ARM GAS  C:\Users\Luis\AppData\Local\Temp\ccd19DXF.s 			page 176


 9210      00
 9211              	.LASF186:
 9212 0d69 73746174 		.ascii	"state\000"
 9212      6500
 9213              	.LASF194:
 9214 0d6f 63616C6C 		.ascii	"callback\000"
 9214      6261636B 
 9214      00
 9215              	.LASF66:
 9216 0d78 76745F6E 		.ascii	"vt_next\000"
 9216      65787400 
 9217              	.LASF228:
 9218 0d80 736E645F 		.ascii	"snd_queuelen\000"
 9218      71756575 
 9218      656C656E 
 9218      00
 9219              	.LASF80:
 9220 0d8d 63685F73 		.ascii	"ch_system_t\000"
 9220      79737465 
 9220      6D5F7400 
 9221              	.LASF321:
 9222 0d99 6C706362 		.ascii	"lpcb\000"
 9222      00
 9223              	.LASF316:
 9224 0d9e 7761735F 		.ascii	"was_blocking\000"
 9224      626C6F63 
 9224      6B696E67 
 9224      00
 9225              	.LASF127:
 9226 0dab 63686172 		.ascii	"char\000"
 9226      00
 9227              	.LASF142:
 9228 0db0 7533325F 		.ascii	"u32_t\000"
 9228      7400
 9229              	.LASF304:
 9230 0db6 7063625F 		.ascii	"pcb_new\000"
 9230      6E657700 
 9231              	.LASF235:
 9232 0dbe 72656376 		.ascii	"recv\000"
 9232      00
 9233              	.LASF100:
 9234 0dc3 63685F74 		.ascii	"ch_trace_buffer_t\000"
 9234      72616365 
 9234      5F627566 
 9234      6665725F 
 9234      7400
 9235              	.LASF126:
 9236 0dd5 6D5F6E65 		.ascii	"m_next\000"
 9236      787400
 9237              	.LASF303:
 9238 0ddc 6E657763 		.ascii	"newconn\000"
 9238      6F6E6E00 
 9239              	.LASF3:
 9240 0de4 7369676E 		.ascii	"signed char\000"
 9240      65642063 
 9240      68617200 
 9241              	.LASF199:
ARM GAS  C:\Users\Luis\AppData\Local\Temp\ccd19DXF.s 			page 177


 9242 0df0 7463705F 		.ascii	"tcp_pcb\000"
 9242      70636200 
 9243              	.LASF9:
 9244 0df8 73686F72 		.ascii	"short unsigned int\000"
 9244      7420756E 
 9244      7369676E 
 9244      65642069 
 9244      6E7400
 9245              	.LASF59:
 9246 0e0b 725F6374 		.ascii	"r_ctx\000"
 9246      7800
 9247              	.LASF200:
 9248 0e11 63616C6C 		.ascii	"callback_arg\000"
 9248      6261636B 
 9248      5F617267 
 9248      00
 9249              	.LASF48:
 9250 0e1e 746C7350 		.ascii	"tlsPtr\000"
 9250      747200
 9251              	.LASF170:
 9252 0e25 4E455443 		.ascii	"NETCONN_RAW\000"
 9252      4F4E4E5F 
 9252      52415700 
 9253              	.LASF325:
 9254 0e31 72656376 		.ascii	"recved\000"
 9254      656400
 9255              	.LASF41:
 9256 0e38 705F6D73 		.ascii	"p_msgqueue\000"
 9256      67717565 
 9256      756500
 9257              	.LASF168:
 9258 0e43 4E455443 		.ascii	"NETCONN_UDPLITE\000"
 9258      4F4E4E5F 
 9258      5544504C 
 9258      49544500 
 9259              	.LASF240:
 9260 0e53 70657273 		.ascii	"persist_cnt\000"
 9260      6973745F 
 9260      636E7400 
 9261              	.LASF197:
 9262 0e5f 72656D6F 		.ascii	"remote_ip\000"
 9262      74655F69 
 9262      7000
 9263              	.LASF69:
 9264 0e69 76745F66 		.ascii	"vt_func\000"
 9264      756E6300 
 9265              	.LASF188:
 9266 0e71 6F705F63 		.ascii	"op_completed\000"
 9266      6F6D706C 
 9266      65746564 
 9266      00
 9267              	.LASF67:
 9268 0e7e 76745F70 		.ascii	"vt_prev\000"
 9268      72657600 
 9269              	.LASF145:
 9270 0e86 69705F61 		.ascii	"ip_addr_t\000"
 9270      6464725F 
ARM GAS  C:\Users\Luis\AppData\Local\Temp\ccd19DXF.s 			page 178


 9270      7400
 9271              	.LASF185:
 9272 0e90 6E657463 		.ascii	"netconn\000"
 9272      6F6E6E00 
 9273              	.LASF174:
 9274 0e98 4E455443 		.ascii	"NETCONN_WRITE\000"
 9274      4F4E4E5F 
 9274      57524954 
 9274      4500
 9275              	.LASF154:
 9276 0ea6 50425546 		.ascii	"PBUF_ROM\000"
 9276      5F524F4D 
 9276      00
 9277              	.LASF310:
 9278 0eaf 73687574 		.ascii	"shut_rx\000"
 9278      5F727800 
 9279              	.LASF76:
 9280 0eb7 70616E69 		.ascii	"panic_msg\000"
 9280      635F6D73 
 9280      6700
 9281              	.LASF116:
 9282 0ec1 77747472 		.ascii	"wttrp\000"
 9282      7000
 9283              	.LASF215:
 9284 0ec7 6E727478 		.ascii	"nrtx\000"
 9284      00
 9285              	.LASF114:
 9286 0ecc 65786974 		.ascii	"exitcode\000"
 9286      636F6465 
 9286      00
 9287              	.LASF266:
 9288 0ed5 53594E5F 		.ascii	"SYN_RCVD\000"
 9288      52435644 
 9288      00
 9289              	.LASF143:
 9290 0ede 69705F61 		.ascii	"ip_addr\000"
 9290      64647200 
 9291              		.ident	"GCC: (GNU Tools for ARM Embedded Processors) 4.8.3 20131129 (release) [ARM/embedded-4_8-br
ARM GAS  C:\Users\Luis\AppData\Local\Temp\ccd19DXF.s 			page 179


DEFINED SYMBOLS
                            *ABS*:00000000 api_msg.c
C:\Users\Luis\AppData\Local\Temp\ccd19DXF.s:19     .text.osalSysHalt:00000000 $t
C:\Users\Luis\AppData\Local\Temp\ccd19DXF.s:24     .text.osalSysHalt:00000000 osalSysHalt
C:\Users\Luis\AppData\Local\Temp\ccd19DXF.s:52     .text.recv_raw:00000000 $t
C:\Users\Luis\AppData\Local\Temp\ccd19DXF.s:57     .text.recv_raw:00000000 recv_raw
C:\Users\Luis\AppData\Local\Temp\ccd19DXF.s:202    .text.recv_raw:000000d4 $d
C:\Users\Luis\AppData\Local\Temp\ccd19DXF.s:207    .rodata:00000000 $d
C:\Users\Luis\AppData\Local\Temp\ccd19DXF.s:217    .text.recv_udp:00000000 $t
C:\Users\Luis\AppData\Local\Temp\ccd19DXF.s:222    .text.recv_udp:00000000 recv_udp
C:\Users\Luis\AppData\Local\Temp\ccd19DXF.s:369    .text.recv_udp:000000cc $d
C:\Users\Luis\AppData\Local\Temp\ccd19DXF.s:386    .text.recv_tcp:00000000 $t
C:\Users\Luis\AppData\Local\Temp\ccd19DXF.s:391    .text.recv_tcp:00000000 recv_tcp
C:\Users\Luis\AppData\Local\Temp\ccd19DXF.s:536    .text.recv_tcp:000000cc $d
C:\Users\Luis\AppData\Local\Temp\ccd19DXF.s:547    .text.poll_tcp:00000000 $t
C:\Users\Luis\AppData\Local\Temp\ccd19DXF.s:552    .text.poll_tcp:00000000 poll_tcp
C:\Users\Luis\AppData\Local\Temp\ccd19DXF.s:3498   .text.do_writemore:00000000 do_writemore
C:\Users\Luis\AppData\Local\Temp\ccd19DXF.s:1885   .text.do_close_internal:00000000 do_close_internal
C:\Users\Luis\AppData\Local\Temp\ccd19DXF.s:654    .text.poll_tcp:00000094 $d
C:\Users\Luis\AppData\Local\Temp\ccd19DXF.s:659    .text.sent_tcp:00000000 $t
C:\Users\Luis\AppData\Local\Temp\ccd19DXF.s:664    .text.sent_tcp:00000000 sent_tcp
C:\Users\Luis\AppData\Local\Temp\ccd19DXF.s:766    .text.sent_tcp:00000094 $d
C:\Users\Luis\AppData\Local\Temp\ccd19DXF.s:778    .text.err_tcp:00000000 $t
C:\Users\Luis\AppData\Local\Temp\ccd19DXF.s:783    .text.err_tcp:00000000 err_tcp
C:\Users\Luis\AppData\Local\Temp\ccd19DXF.s:976    .text.err_tcp:00000120 $d
C:\Users\Luis\AppData\Local\Temp\ccd19DXF.s:983    .text.setup_tcp:00000000 $t
C:\Users\Luis\AppData\Local\Temp\ccd19DXF.s:988    .text.setup_tcp:00000000 setup_tcp
C:\Users\Luis\AppData\Local\Temp\ccd19DXF.s:1036   .text.setup_tcp:00000040 $d
C:\Users\Luis\AppData\Local\Temp\ccd19DXF.s:1044   .text.accept_function:00000000 $t
C:\Users\Luis\AppData\Local\Temp\ccd19DXF.s:1049   .text.accept_function:00000000 accept_function
C:\Users\Luis\AppData\Local\Temp\ccd19DXF.s:1431   .text.netconn_alloc:00000000 netconn_alloc
C:\Users\Luis\AppData\Local\Temp\ccd19DXF.s:1608   .text.netconn_free:00000000 netconn_free
C:\Users\Luis\AppData\Local\Temp\ccd19DXF.s:1198   .text.pcb_new:00000000 $t
C:\Users\Luis\AppData\Local\Temp\ccd19DXF.s:1203   .text.pcb_new:00000000 pcb_new
C:\Users\Luis\AppData\Local\Temp\ccd19DXF.s:1364   .text.pcb_new:000000ec $d
C:\Users\Luis\AppData\Local\Temp\ccd19DXF.s:1371   .text.do_newconn:00000000 $t
C:\Users\Luis\AppData\Local\Temp\ccd19DXF.s:1377   .text.do_newconn:00000000 do_newconn
C:\Users\Luis\AppData\Local\Temp\ccd19DXF.s:1425   .text.netconn_alloc:00000000 $t
C:\Users\Luis\AppData\Local\Temp\ccd19DXF.s:1585   .text.netconn_alloc:000000d8 $d
C:\Users\Luis\AppData\Local\Temp\ccd19DXF.s:1602   .text.netconn_free:00000000 $t
C:\Users\Luis\AppData\Local\Temp\ccd19DXF.s:1678   .text.netconn_free:00000064 $d
C:\Users\Luis\AppData\Local\Temp\ccd19DXF.s:1689   .text.netconn_drain:00000000 $t
C:\Users\Luis\AppData\Local\Temp\ccd19DXF.s:1694   .text.netconn_drain:00000000 netconn_drain
C:\Users\Luis\AppData\Local\Temp\ccd19DXF.s:1859   .text.netconn_drain:00000108 $d
C:\Users\Luis\AppData\Local\Temp\ccd19DXF.s:1880   .text.do_close_internal:00000000 $t
C:\Users\Luis\AppData\Local\Temp\ccd19DXF.s:2184   .text.do_close_internal:000001dc $d
C:\Users\Luis\AppData\Local\Temp\ccd19DXF.s:2207   .text.do_delconn:00000000 $t
C:\Users\Luis\AppData\Local\Temp\ccd19DXF.s:2213   .text.do_delconn:00000000 do_delconn
C:\Users\Luis\AppData\Local\Temp\ccd19DXF.s:2432   .text.do_delconn:00000150 $d
C:\Users\Luis\AppData\Local\Temp\ccd19DXF.s:2439   .text.do_bind:00000000 $t
C:\Users\Luis\AppData\Local\Temp\ccd19DXF.s:2445   .text.do_bind:00000000 do_bind
C:\Users\Luis\AppData\Local\Temp\ccd19DXF.s:2576   .text.do_connected:00000000 $t
C:\Users\Luis\AppData\Local\Temp\ccd19DXF.s:2581   .text.do_connected:00000000 do_connected
C:\Users\Luis\AppData\Local\Temp\ccd19DXF.s:2733   .text.do_connected:000000e0 $d
C:\Users\Luis\AppData\Local\Temp\ccd19DXF.s:2743   .text.do_connect:00000000 $t
C:\Users\Luis\AppData\Local\Temp\ccd19DXF.s:2749   .text.do_connect:00000000 do_connect
C:\Users\Luis\AppData\Local\Temp\ccd19DXF.s:2951   .text.do_connect:0000013c $d
ARM GAS  C:\Users\Luis\AppData\Local\Temp\ccd19DXF.s 			page 180


C:\Users\Luis\AppData\Local\Temp\ccd19DXF.s:2957   .text.do_disconnect:00000000 $t
C:\Users\Luis\AppData\Local\Temp\ccd19DXF.s:2963   .text.do_disconnect:00000000 do_disconnect
C:\Users\Luis\AppData\Local\Temp\ccd19DXF.s:3017   .text.do_listen:00000000 $t
C:\Users\Luis\AppData\Local\Temp\ccd19DXF.s:3023   .text.do_listen:00000000 do_listen
C:\Users\Luis\AppData\Local\Temp\ccd19DXF.s:3206   .text.do_listen:00000120 $d
C:\Users\Luis\AppData\Local\Temp\ccd19DXF.s:3211   .text.do_send:00000000 $t
C:\Users\Luis\AppData\Local\Temp\ccd19DXF.s:3217   .text.do_send:00000000 do_send
C:\Users\Luis\AppData\Local\Temp\ccd19DXF.s:3387   .text.do_recv:00000000 $t
C:\Users\Luis\AppData\Local\Temp\ccd19DXF.s:3393   .text.do_recv:00000000 do_recv
C:\Users\Luis\AppData\Local\Temp\ccd19DXF.s:3493   .text.do_writemore:00000000 $t
C:\Users\Luis\AppData\Local\Temp\ccd19DXF.s:3854   .text.do_writemore:0000022c $d
C:\Users\Luis\AppData\Local\Temp\ccd19DXF.s:3868   .text.do_write:00000000 $t
C:\Users\Luis\AppData\Local\Temp\ccd19DXF.s:3874   .text.do_write:00000000 do_write
C:\Users\Luis\AppData\Local\Temp\ccd19DXF.s:4003   .text.do_write:000000b4 $d
C:\Users\Luis\AppData\Local\Temp\ccd19DXF.s:4013   .text.do_getaddr:00000000 $t
C:\Users\Luis\AppData\Local\Temp\ccd19DXF.s:4019   .text.do_getaddr:00000000 do_getaddr
C:\Users\Luis\AppData\Local\Temp\ccd19DXF.s:4197   .text.do_getaddr:000000f8 $d
C:\Users\Luis\AppData\Local\Temp\ccd19DXF.s:4202   .text.do_close:00000000 $t
C:\Users\Luis\AppData\Local\Temp\ccd19DXF.s:4208   .text.do_close:00000000 do_close
C:\Users\Luis\AppData\Local\Temp\ccd19DXF.s:4348   .text.do_close:000000c8 $d
                     .debug_frame:00000010 $d
C:\Users\Luis\AppData\Local\Temp\ccd19DXF.s:206    .text.recv_raw:000000d8 $t
C:\Users\Luis\AppData\Local\Temp\ccd19DXF.s:375    .text.recv_udp:000000d8 $t
C:\Users\Luis\AppData\Local\Temp\ccd19DXF.s:542    .text.recv_tcp:000000d8 $t
C:\Users\Luis\AppData\Local\Temp\ccd19DXF.s:658    .text.poll_tcp:00000098 $t
C:\Users\Luis\AppData\Local\Temp\ccd19DXF.s:770    .text.sent_tcp:00000098 $t
C:\Users\Luis\AppData\Local\Temp\ccd19DXF.s:982    .text.err_tcp:0000012c $t
C:\Users\Luis\AppData\Local\Temp\ccd19DXF.s:1370   .text.pcb_new:000000f8 $t
C:\Users\Luis\AppData\Local\Temp\ccd19DXF.s:1589   .text.netconn_alloc:000000dc $t
C:\Users\Luis\AppData\Local\Temp\ccd19DXF.s:1863   .text.netconn_drain:0000010c $t
C:\Users\Luis\AppData\Local\Temp\ccd19DXF.s:2438   .text.do_delconn:0000015c $t
C:\Users\Luis\AppData\Local\Temp\ccd19DXF.s:2738   .text.do_connected:000000e8 $t
C:\Users\Luis\AppData\Local\Temp\ccd19DXF.s:2956   .text.do_connect:00000144 $t
C:\Users\Luis\AppData\Local\Temp\ccd19DXF.s:3210   .text.do_listen:00000124 $t
C:\Users\Luis\AppData\Local\Temp\ccd19DXF.s:3863   .text.do_writemore:00000244 $t
C:\Users\Luis\AppData\Local\Temp\ccd19DXF.s:4008   .text.do_write:000000bc $t
C:\Users\Luis\AppData\Local\Temp\ccd19DXF.s:4201   .text.do_getaddr:000000fc $t

UNDEFINED SYMBOLS
chSysHalt
sys_mbox_valid
pbuf_alloc
pbuf_copy
pbuf_free
memp_malloc
sys_mbox_trypost
netbuf_delete
current_iphdr_src
tcp_recved
sys_sem_signal
tcp_arg
tcp_recv
tcp_sent
tcp_poll
tcp_err
sys_mbox_free
sys_mbox_set_invalid
ARM GAS  C:\Users\Luis\AppData\Local\Temp\ccd19DXF.s 			page 181


raw_new
raw_recv
udp_new
udp_recv
tcp_new
sys_sem_new
sys_mbox_new
sys_sem_free
memp_free
sys_sem_set_invalid
sys_arch_mbox_tryfetch
tcp_abort
tcp_accept
tcp_close
tcp_shutdown
raw_remove
udp_remove
sys_sem_valid
raw_bind
udp_bind
tcp_bind
raw_connect
udp_connect
tcp_connect
udp_disconnect
tcp_listen_with_backlog
raw_send
raw_sendto
udp_send
udp_sendto
tcp_write
tcp_output
