ARM GAS  C:\Users\Luis\AppData\Local\Temp\ccw3M05h.s 			page 1


   1              		.syntax unified
   2              		.cpu cortex-m4
   3              		.fpu softvfp
   4              		.eabi_attribute 20, 1
   5              		.eabi_attribute 21, 1
   6              		.eabi_attribute 23, 3
   7              		.eabi_attribute 24, 1
   8              		.eabi_attribute 25, 1
   9              		.eabi_attribute 26, 1
  10              		.eabi_attribute 30, 6
  11              		.eabi_attribute 34, 1
  12              		.eabi_attribute 18, 4
  13              		.thumb
  14              		.file	"api_lib.c"
  15              		.text
  16              	.Ltext0:
  17              		.cfi_sections	.debug_frame
  18              		.section	.text.osalSysHalt,"ax",%progbits
  19              		.align	2
  20              		.p2align 4,,15
  21              		.thumb
  22              		.thumb_func
  23              		.type	osalSysHalt, %function
  24              	osalSysHalt:
  25              	.LFB230:
  26              		.file 1 "../../ChibiOS/os/hal/osal/rt/osal.h"
  27              		.loc 1 460 0
  28              		.cfi_startproc
  29              		@ args = 0, pretend = 0, frame = 8
  30              		@ frame_needed = 1, uses_anonymous_args = 0
  31 0000 80B5     		push	{r7, lr}
  32              		.cfi_def_cfa_offset 8
  33              		.cfi_offset 7, -8
  34              		.cfi_offset 14, -4
  35 0002 82B0     		sub	sp, sp, #8
  36              		.cfi_def_cfa_offset 16
  37 0004 00AF     		add	r7, sp, #0
  38              		.cfi_def_cfa_register 7
  39 0006 7860     		str	r0, [r7, #4]
  40              		.loc 1 462 0
  41 0008 7868     		ldr	r0, [r7, #4]
  42 000a FFF7FEFF 		bl	chSysHalt
  43              		.loc 1 463 0
  44 000e 0837     		adds	r7, r7, #8
  45 0010 BD46     		mov	sp, r7
  46              		@ sp needed
  47 0012 80BD     		pop	{r7, pc}
  48              		.cfi_endproc
  49              	.LFE230:
  50              		.size	osalSysHalt, .-osalSysHalt
  51 0014 AFF30080 		.section	.rodata
  51      AFF30080 
  51      AFF30080 
  52              		.align	2
  53              	.LC0:
  54 0000 66726565 		.ascii	"freeing conn without freeing pcb\000"
  54      696E6720 
ARM GAS  C:\Users\Luis\AppData\Local\Temp\ccw3M05h.s 			page 2


  54      636F6E6E 
  54      20776974 
  54      686F7574 
  55 0021 000000   		.align	2
  56              	.LC1:
  57 0024 636F6E6E 		.ascii	"conn has no op_completed\000"
  57      20686173 
  57      206E6F20 
  57      6F705F63 
  57      6F6D706C 
  58 003d 000000   		.align	2
  59              	.LC2:
  60 0040 636F6E6E 		.ascii	"conn has no recvmbox\000"
  60      20686173 
  60      206E6F20 
  60      72656376 
  60      6D626F78 
  61 0055 000000   		.align	2
  62              	.LC3:
  63 0058 636F6E6E 		.ascii	"conn->acceptmbox shouldn't exist\000"
  63      2D3E6163 
  63      63657074 
  63      6D626F78 
  63      2073686F 
  64              		.section	.text.netconn_new_with_proto_and_callback,"ax",%progbits
  65              		.align	2
  66              		.p2align 4,,15
  67              		.global	netconn_new_with_proto_and_callback
  68              		.thumb
  69              		.thumb_func
  70              		.type	netconn_new_with_proto_and_callback, %function
  71              	netconn_new_with_proto_and_callback:
  72              	.LFB260:
  73              		.file 2 "../../ChibiOS/ext/lwip/src/api/api_lib.c"
  74              		.loc 2 69 0
  75              		.cfi_startproc
  76              		@ args = 0, pretend = 0, frame = 40
  77              		@ frame_needed = 1, uses_anonymous_args = 0
  78 0000 80B5     		push	{r7, lr}
  79              		.cfi_def_cfa_offset 8
  80              		.cfi_offset 7, -8
  81              		.cfi_offset 14, -4
  82 0002 8AB0     		sub	sp, sp, #40
  83              		.cfi_def_cfa_offset 48
  84 0004 00AF     		add	r7, sp, #0
  85              		.cfi_def_cfa_register 7
  86 0006 0B46     		mov	r3, r1
  87 0008 3A60     		str	r2, [r7]
  88 000a 0246     		mov	r2, r0
  89 000c FA71     		strb	r2, [r7, #7]
  90 000e BB71     		strb	r3, [r7, #6]
  91              		.loc 2 73 0
  92 0010 FB79     		ldrb	r3, [r7, #7]	@ zero_extendqisi2
  93 0012 1846     		mov	r0, r3
  94 0014 3968     		ldr	r1, [r7]
  95 0016 FFF7FEFF 		bl	netconn_alloc
  96 001a 7862     		str	r0, [r7, #36]
ARM GAS  C:\Users\Luis\AppData\Local\Temp\ccw3M05h.s 			page 3


  97              		.loc 2 74 0
  98 001c 7B6A     		ldr	r3, [r7, #36]
  99 001e 002B     		cmp	r3, #0
 100 0020 45D0     		beq	.L3
 101              		.loc 2 75 0
 102 0022 254B     		ldr	r3, .L10
 103 0024 FB60     		str	r3, [r7, #12]
 104              		.loc 2 76 0
 105 0026 BB79     		ldrb	r3, [r7, #6]
 106 0028 3B76     		strb	r3, [r7, #24]
 107              		.loc 2 77 0
 108 002a 7B6A     		ldr	r3, [r7, #36]
 109 002c 3B61     		str	r3, [r7, #16]
 110              		.loc 2 78 0
 111 002e 07F10C03 		add	r3, r7, #12
 112 0032 1846     		mov	r0, r3
 113 0034 FFF7FEFF 		bl	tcpip_apimsg
 114 0038 0346     		mov	r3, r0
 115 003a 002B     		cmp	r3, #0
 116 003c 37D0     		beq	.L3
 117              		.loc 2 79 0
 118 003e 7B6A     		ldr	r3, [r7, #36]
 119 0040 5B68     		ldr	r3, [r3, #4]
 120 0042 002B     		cmp	r3, #0
 121 0044 02D0     		beq	.L4
 122              		.loc 2 79 0 is_stmt 0 discriminator 1
 123 0046 1D48     		ldr	r0, .L10+4
 124 0048 FFF7FEFF 		bl	osalSysHalt
 125              	.L4:
 126              		.loc 2 80 0 is_stmt 1
 127 004c 7B6A     		ldr	r3, [r7, #36]
 128 004e 0C33     		adds	r3, r3, #12
 129 0050 1846     		mov	r0, r3
 130 0052 FFF7FEFF 		bl	sys_sem_valid
 131 0056 0346     		mov	r3, r0
 132 0058 002B     		cmp	r3, #0
 133 005a 02D1     		bne	.L5
 134              		.loc 2 80 0 is_stmt 0 discriminator 1
 135 005c 1848     		ldr	r0, .L10+8
 136 005e FFF7FEFF 		bl	osalSysHalt
 137              	.L5:
 138              		.loc 2 81 0 is_stmt 1
 139 0062 7B6A     		ldr	r3, [r7, #36]
 140 0064 1033     		adds	r3, r3, #16
 141 0066 1846     		mov	r0, r3
 142 0068 FFF7FEFF 		bl	sys_mbox_valid
 143 006c 0346     		mov	r3, r0
 144 006e 002B     		cmp	r3, #0
 145 0070 02D1     		bne	.L6
 146              		.loc 2 81 0 is_stmt 0 discriminator 1
 147 0072 1448     		ldr	r0, .L10+12
 148 0074 FFF7FEFF 		bl	osalSysHalt
 149              	.L6:
 150              		.loc 2 83 0 is_stmt 1
 151 0078 7B6A     		ldr	r3, [r7, #36]
 152 007a 1433     		adds	r3, r3, #20
 153 007c 1846     		mov	r0, r3
ARM GAS  C:\Users\Luis\AppData\Local\Temp\ccw3M05h.s 			page 4


 154 007e FFF7FEFF 		bl	sys_mbox_valid
 155 0082 0346     		mov	r3, r0
 156 0084 002B     		cmp	r3, #0
 157 0086 02D0     		beq	.L7
 158              		.loc 2 83 0 is_stmt 0 discriminator 1
 159 0088 0F48     		ldr	r0, .L10+16
 160 008a FFF7FEFF 		bl	osalSysHalt
 161              	.L7:
 162              		.loc 2 85 0 is_stmt 1
 163 008e 7B6A     		ldr	r3, [r7, #36]
 164 0090 0C33     		adds	r3, r3, #12
 165 0092 1846     		mov	r0, r3
 166 0094 FFF7FEFF 		bl	sys_sem_free
 167              		.loc 2 86 0
 168 0098 7B6A     		ldr	r3, [r7, #36]
 169 009a 1033     		adds	r3, r3, #16
 170 009c 1846     		mov	r0, r3
 171 009e FFF7FEFF 		bl	sys_mbox_free
 172              		.loc 2 87 0
 173 00a2 0820     		movs	r0, #8
 174 00a4 796A     		ldr	r1, [r7, #36]
 175 00a6 FFF7FEFF 		bl	memp_free
 176              		.loc 2 88 0
 177 00aa 0023     		movs	r3, #0
 178 00ac 00E0     		b	.L9
 179              	.L3:
 180              		.loc 2 91 0
 181 00ae 7B6A     		ldr	r3, [r7, #36]
 182              	.L9:
 183              		.loc 2 92 0
 184 00b0 1846     		mov	r0, r3
 185 00b2 2837     		adds	r7, r7, #40
 186 00b4 BD46     		mov	sp, r7
 187              		@ sp needed
 188 00b6 80BD     		pop	{r7, pc}
 189              	.L11:
 190              		.align	2
 191              	.L10:
 192 00b8 00000000 		.word	do_newconn
 193 00bc 00000000 		.word	.LC0
 194 00c0 24000000 		.word	.LC1
 195 00c4 40000000 		.word	.LC2
 196 00c8 58000000 		.word	.LC3
 197              		.cfi_endproc
 198              	.LFE260:
 199              		.size	netconn_new_with_proto_and_callback, .-netconn_new_with_proto_and_callback
 200 00cc AFF30080 		.section	.text.netconn_delete,"ax",%progbits
 201              		.align	2
 202              		.p2align 4,,15
 203              		.global	netconn_delete
 204              		.thumb
 205              		.thumb_func
 206              		.type	netconn_delete, %function
 207              	netconn_delete:
 208              	.LFB261:
 209              		.loc 2 104 0
 210              		.cfi_startproc
ARM GAS  C:\Users\Luis\AppData\Local\Temp\ccw3M05h.s 			page 5


 211              		@ args = 0, pretend = 0, frame = 32
 212              		@ frame_needed = 1, uses_anonymous_args = 0
 213 0000 80B5     		push	{r7, lr}
 214              		.cfi_def_cfa_offset 8
 215              		.cfi_offset 7, -8
 216              		.cfi_offset 14, -4
 217 0002 88B0     		sub	sp, sp, #32
 218              		.cfi_def_cfa_offset 40
 219 0004 00AF     		add	r7, sp, #0
 220              		.cfi_def_cfa_register 7
 221 0006 7860     		str	r0, [r7, #4]
 222              		.loc 2 108 0
 223 0008 7B68     		ldr	r3, [r7, #4]
 224 000a 002B     		cmp	r3, #0
 225 000c 01D1     		bne	.L13
 226              		.loc 2 109 0
 227 000e 0023     		movs	r3, #0
 228 0010 0CE0     		b	.L15
 229              	.L13:
 230              		.loc 2 112 0
 231 0012 094B     		ldr	r3, .L16
 232 0014 BB60     		str	r3, [r7, #8]
 233              		.loc 2 113 0
 234 0016 7B68     		ldr	r3, [r7, #4]
 235 0018 FB60     		str	r3, [r7, #12]
 236              		.loc 2 114 0
 237 001a 07F10803 		add	r3, r7, #8
 238 001e 1846     		mov	r0, r3
 239 0020 FFF7FEFF 		bl	tcpip_apimsg
 240              		.loc 2 116 0
 241 0024 7868     		ldr	r0, [r7, #4]
 242 0026 FFF7FEFF 		bl	netconn_free
 243              		.loc 2 120 0
 244 002a 0023     		movs	r3, #0
 245              	.L15:
 246 002c 5BB2     		sxtb	r3, r3
 247              		.loc 2 121 0
 248 002e 1846     		mov	r0, r3
 249 0030 2037     		adds	r7, r7, #32
 250 0032 BD46     		mov	sp, r7
 251              		@ sp needed
 252 0034 80BD     		pop	{r7, pc}
 253              	.L17:
 254 0036 00BF     		.align	2
 255              	.L16:
 256 0038 00000000 		.word	do_delconn
 257              		.cfi_endproc
 258              	.LFE261:
 259              		.size	netconn_delete, .-netconn_delete
 260 003c AFF30080 		.section	.rodata
 261 0079 000000   		.align	2
 262              	.LC4:
 263 007c 6E657463 		.ascii	"netconn_getaddr: invalid conn\000"
 263      6F6E6E5F 
 263      67657461 
 263      6464723A 
 263      20696E76 
ARM GAS  C:\Users\Luis\AppData\Local\Temp\ccw3M05h.s 			page 6


 264 009a 0000     		.align	2
 265              	.LC5:
 266 009c 6E657463 		.ascii	"netconn_getaddr: invalid addr\000"
 266      6F6E6E5F 
 266      67657461 
 266      6464723A 
 266      20696E76 
 267 00ba 0000     		.align	2
 268              	.LC6:
 269 00bc 6E657463 		.ascii	"netconn_getaddr: invalid port\000"
 269      6F6E6E5F 
 269      67657461 
 269      6464723A 
 269      20696E76 
 270              		.section	.text.netconn_getaddr,"ax",%progbits
 271              		.align	2
 272              		.p2align 4,,15
 273              		.global	netconn_getaddr
 274              		.thumb
 275              		.thumb_func
 276              		.type	netconn_getaddr, %function
 277              	netconn_getaddr:
 278              	.LFB262:
 279              		.loc 2 136 0
 280              		.cfi_startproc
 281              		@ args = 0, pretend = 0, frame = 48
 282              		@ frame_needed = 1, uses_anonymous_args = 0
 283 0000 80B5     		push	{r7, lr}
 284              		.cfi_def_cfa_offset 8
 285              		.cfi_offset 7, -8
 286              		.cfi_offset 14, -4
 287 0002 8CB0     		sub	sp, sp, #48
 288              		.cfi_def_cfa_offset 56
 289 0004 00AF     		add	r7, sp, #0
 290              		.cfi_def_cfa_register 7
 291 0006 F860     		str	r0, [r7, #12]
 292 0008 B960     		str	r1, [r7, #8]
 293 000a 7A60     		str	r2, [r7, #4]
 294 000c FB70     		strb	r3, [r7, #3]
 295              		.loc 2 140 0
 296 000e FB68     		ldr	r3, [r7, #12]
 297 0010 002B     		cmp	r3, #0
 298 0012 04D1     		bne	.L19
 299              		.loc 2 140 0 is_stmt 0 discriminator 1
 300 0014 1C48     		ldr	r0, .L25
 301 0016 FFF7FEFF 		bl	osalSysHalt
 302 001a F223     		movs	r3, #242
 303 001c 2EE0     		b	.L24
 304              	.L19:
 305              		.loc 2 141 0 is_stmt 1
 306 001e BB68     		ldr	r3, [r7, #8]
 307 0020 002B     		cmp	r3, #0
 308 0022 04D1     		bne	.L21
 309              		.loc 2 141 0 is_stmt 0 discriminator 1
 310 0024 1948     		ldr	r0, .L25+4
 311 0026 FFF7FEFF 		bl	osalSysHalt
 312 002a F223     		movs	r3, #242
ARM GAS  C:\Users\Luis\AppData\Local\Temp\ccw3M05h.s 			page 7


 313 002c 26E0     		b	.L24
 314              	.L21:
 315              		.loc 2 142 0 is_stmt 1
 316 002e 7B68     		ldr	r3, [r7, #4]
 317 0030 002B     		cmp	r3, #0
 318 0032 04D1     		bne	.L22
 319              		.loc 2 142 0 is_stmt 0 discriminator 1
 320 0034 1648     		ldr	r0, .L25+8
 321 0036 FFF7FEFF 		bl	osalSysHalt
 322 003a F223     		movs	r3, #242
 323 003c 1EE0     		b	.L24
 324              	.L22:
 325              		.loc 2 144 0 is_stmt 1
 326 003e 154B     		ldr	r3, .L25+12
 327 0040 7B61     		str	r3, [r7, #20]
 328              		.loc 2 145 0
 329 0042 FB68     		ldr	r3, [r7, #12]
 330 0044 BB61     		str	r3, [r7, #24]
 331              		.loc 2 146 0
 332 0046 BB68     		ldr	r3, [r7, #8]
 333 0048 3B62     		str	r3, [r7, #32]
 334              		.loc 2 147 0
 335 004a 7B68     		ldr	r3, [r7, #4]
 336 004c 7B62     		str	r3, [r7, #36]
 337              		.loc 2 148 0
 338 004e FB78     		ldrb	r3, [r7, #3]
 339 0050 87F82830 		strb	r3, [r7, #40]
 340              		.loc 2 149 0
 341 0054 07F11403 		add	r3, r7, #20
 342 0058 1846     		mov	r0, r3
 343 005a FFF7FEFF 		bl	tcpip_apimsg
 344 005e 0346     		mov	r3, r0
 345 0060 87F82F30 		strb	r3, [r7, #47]
 346              		.loc 2 151 0
 347 0064 FB68     		ldr	r3, [r7, #12]
 348 0066 1B7A     		ldrb	r3, [r3, #8]	@ zero_extendqisi2
 349 0068 5BB2     		sxtb	r3, r3
 350 006a 13F1090F 		cmn	r3, #9
 351 006e 03DB     		blt	.L23
 352              		.loc 2 151 0 is_stmt 0 discriminator 1
 353 0070 FB68     		ldr	r3, [r7, #12]
 354 0072 97F82F20 		ldrb	r2, [r7, #47]
 355 0076 1A72     		strb	r2, [r3, #8]
 356              	.L23:
 357              		.loc 2 152 0 is_stmt 1
 358 0078 97F82F30 		ldrb	r3, [r7, #47]	@ zero_extendqisi2
 359              	.L24:
 360 007c 5BB2     		sxtb	r3, r3
 361              		.loc 2 153 0
 362 007e 1846     		mov	r0, r3
 363 0080 3037     		adds	r7, r7, #48
 364 0082 BD46     		mov	sp, r7
 365              		@ sp needed
 366 0084 80BD     		pop	{r7, pc}
 367              	.L26:
 368 0086 00BF     		.align	2
 369              	.L25:
ARM GAS  C:\Users\Luis\AppData\Local\Temp\ccw3M05h.s 			page 8


 370 0088 7C000000 		.word	.LC4
 371 008c 9C000000 		.word	.LC5
 372 0090 BC000000 		.word	.LC6
 373 0094 00000000 		.word	do_getaddr
 374              		.cfi_endproc
 375              	.LFE262:
 376              		.size	netconn_getaddr, .-netconn_getaddr
 377 0098 AFF30080 		.section	.rodata
 377      AFF30080 
 378 00da 0000     		.align	2
 379              	.LC7:
 380 00dc 6E657463 		.ascii	"netconn_bind: invalid conn\000"
 380      6F6E6E5F 
 380      62696E64 
 380      3A20696E 
 380      76616C69 
 381              		.section	.text.netconn_bind,"ax",%progbits
 382              		.align	2
 383              		.p2align 4,,15
 384              		.global	netconn_bind
 385              		.thumb
 386              		.thumb_func
 387              		.type	netconn_bind, %function
 388              	netconn_bind:
 389              	.LFB263:
 390              		.loc 2 167 0
 391              		.cfi_startproc
 392              		@ args = 0, pretend = 0, frame = 48
 393              		@ frame_needed = 1, uses_anonymous_args = 0
 394 0000 80B5     		push	{r7, lr}
 395              		.cfi_def_cfa_offset 8
 396              		.cfi_offset 7, -8
 397              		.cfi_offset 14, -4
 398 0002 8CB0     		sub	sp, sp, #48
 399              		.cfi_def_cfa_offset 56
 400 0004 00AF     		add	r7, sp, #0
 401              		.cfi_def_cfa_register 7
 402 0006 F860     		str	r0, [r7, #12]
 403 0008 B960     		str	r1, [r7, #8]
 404 000a 1346     		mov	r3, r2
 405 000c FB80     		strh	r3, [r7, #6]	@ movhi
 406              		.loc 2 171 0
 407 000e FB68     		ldr	r3, [r7, #12]
 408 0010 002B     		cmp	r3, #0
 409 0012 04D1     		bne	.L28
 410              		.loc 2 171 0 is_stmt 0 discriminator 1
 411 0014 1248     		ldr	r0, .L32
 412 0016 FFF7FEFF 		bl	osalSysHalt
 413 001a F223     		movs	r3, #242
 414 001c 1BE0     		b	.L31
 415              	.L28:
 416              		.loc 2 173 0 is_stmt 1
 417 001e 114B     		ldr	r3, .L32+4
 418 0020 7B61     		str	r3, [r7, #20]
 419              		.loc 2 174 0
 420 0022 FB68     		ldr	r3, [r7, #12]
 421 0024 BB61     		str	r3, [r7, #24]
ARM GAS  C:\Users\Luis\AppData\Local\Temp\ccw3M05h.s 			page 9


 422              		.loc 2 175 0
 423 0026 BB68     		ldr	r3, [r7, #8]
 424 0028 3B62     		str	r3, [r7, #32]
 425              		.loc 2 176 0
 426 002a FB88     		ldrh	r3, [r7, #6]	@ movhi
 427 002c BB84     		strh	r3, [r7, #36]	@ movhi
 428              		.loc 2 177 0
 429 002e 07F11403 		add	r3, r7, #20
 430 0032 1846     		mov	r0, r3
 431 0034 FFF7FEFF 		bl	tcpip_apimsg
 432 0038 0346     		mov	r3, r0
 433 003a 87F82F30 		strb	r3, [r7, #47]
 434              		.loc 2 179 0
 435 003e FB68     		ldr	r3, [r7, #12]
 436 0040 1B7A     		ldrb	r3, [r3, #8]	@ zero_extendqisi2
 437 0042 5BB2     		sxtb	r3, r3
 438 0044 13F1090F 		cmn	r3, #9
 439 0048 03DB     		blt	.L30
 440              		.loc 2 179 0 is_stmt 0 discriminator 1
 441 004a FB68     		ldr	r3, [r7, #12]
 442 004c 97F82F20 		ldrb	r2, [r7, #47]
 443 0050 1A72     		strb	r2, [r3, #8]
 444              	.L30:
 445              		.loc 2 180 0 is_stmt 1
 446 0052 97F82F30 		ldrb	r3, [r7, #47]	@ zero_extendqisi2
 447              	.L31:
 448 0056 5BB2     		sxtb	r3, r3
 449              		.loc 2 181 0
 450 0058 1846     		mov	r0, r3
 451 005a 3037     		adds	r7, r7, #48
 452 005c BD46     		mov	sp, r7
 453              		@ sp needed
 454 005e 80BD     		pop	{r7, pc}
 455              	.L33:
 456              		.align	2
 457              	.L32:
 458 0060 DC000000 		.word	.LC7
 459 0064 00000000 		.word	do_bind
 460              		.cfi_endproc
 461              	.LFE263:
 462              		.size	netconn_bind, .-netconn_bind
 463 0068 AFF30080 		.section	.rodata
 463      AFF30080 
 464 00f7 00       		.align	2
 465              	.LC8:
 466 00f8 6E657463 		.ascii	"netconn_connect: invalid conn\000"
 466      6F6E6E5F 
 466      636F6E6E 
 466      6563743A 
 466      20696E76 
 467              		.section	.text.netconn_connect,"ax",%progbits
 468              		.align	2
 469              		.p2align 4,,15
 470              		.global	netconn_connect
 471              		.thumb
 472              		.thumb_func
 473              		.type	netconn_connect, %function
ARM GAS  C:\Users\Luis\AppData\Local\Temp\ccw3M05h.s 			page 10


 474              	netconn_connect:
 475              	.LFB264:
 476              		.loc 2 193 0
 477              		.cfi_startproc
 478              		@ args = 0, pretend = 0, frame = 48
 479              		@ frame_needed = 1, uses_anonymous_args = 0
 480 0000 80B5     		push	{r7, lr}
 481              		.cfi_def_cfa_offset 8
 482              		.cfi_offset 7, -8
 483              		.cfi_offset 14, -4
 484 0002 8CB0     		sub	sp, sp, #48
 485              		.cfi_def_cfa_offset 56
 486 0004 00AF     		add	r7, sp, #0
 487              		.cfi_def_cfa_register 7
 488 0006 F860     		str	r0, [r7, #12]
 489 0008 B960     		str	r1, [r7, #8]
 490 000a 1346     		mov	r3, r2
 491 000c FB80     		strh	r3, [r7, #6]	@ movhi
 492              		.loc 2 197 0
 493 000e FB68     		ldr	r3, [r7, #12]
 494 0010 002B     		cmp	r3, #0
 495 0012 04D1     		bne	.L35
 496              		.loc 2 197 0 is_stmt 0 discriminator 1
 497 0014 1248     		ldr	r0, .L39
 498 0016 FFF7FEFF 		bl	osalSysHalt
 499 001a F223     		movs	r3, #242
 500 001c 1BE0     		b	.L38
 501              	.L35:
 502              		.loc 2 199 0 is_stmt 1
 503 001e 114B     		ldr	r3, .L39+4
 504 0020 7B61     		str	r3, [r7, #20]
 505              		.loc 2 200 0
 506 0022 FB68     		ldr	r3, [r7, #12]
 507 0024 BB61     		str	r3, [r7, #24]
 508              		.loc 2 201 0
 509 0026 BB68     		ldr	r3, [r7, #8]
 510 0028 3B62     		str	r3, [r7, #32]
 511              		.loc 2 202 0
 512 002a FB88     		ldrh	r3, [r7, #6]	@ movhi
 513 002c BB84     		strh	r3, [r7, #36]	@ movhi
 514              		.loc 2 204 0
 515 002e 07F11403 		add	r3, r7, #20
 516 0032 1846     		mov	r0, r3
 517 0034 FFF7FEFF 		bl	tcpip_apimsg
 518 0038 0346     		mov	r3, r0
 519 003a 87F82F30 		strb	r3, [r7, #47]
 520              		.loc 2 206 0
 521 003e FB68     		ldr	r3, [r7, #12]
 522 0040 1B7A     		ldrb	r3, [r3, #8]	@ zero_extendqisi2
 523 0042 5BB2     		sxtb	r3, r3
 524 0044 13F1090F 		cmn	r3, #9
 525 0048 03DB     		blt	.L37
 526              		.loc 2 206 0 is_stmt 0 discriminator 1
 527 004a FB68     		ldr	r3, [r7, #12]
 528 004c 97F82F20 		ldrb	r2, [r7, #47]
 529 0050 1A72     		strb	r2, [r3, #8]
 530              	.L37:
ARM GAS  C:\Users\Luis\AppData\Local\Temp\ccw3M05h.s 			page 11


 531              		.loc 2 207 0 is_stmt 1
 532 0052 97F82F30 		ldrb	r3, [r7, #47]	@ zero_extendqisi2
 533              	.L38:
 534 0056 5BB2     		sxtb	r3, r3
 535              		.loc 2 208 0
 536 0058 1846     		mov	r0, r3
 537 005a 3037     		adds	r7, r7, #48
 538 005c BD46     		mov	sp, r7
 539              		@ sp needed
 540 005e 80BD     		pop	{r7, pc}
 541              	.L40:
 542              		.align	2
 543              	.L39:
 544 0060 F8000000 		.word	.LC8
 545 0064 00000000 		.word	do_connect
 546              		.cfi_endproc
 547              	.LFE264:
 548              		.size	netconn_connect, .-netconn_connect
 549 0068 AFF30080 		.section	.rodata
 549      AFF30080 
 550 0116 0000     		.align	2
 551              	.LC9:
 552 0118 6E657463 		.ascii	"netconn_disconnect: invalid conn\000"
 552      6F6E6E5F 
 552      64697363 
 552      6F6E6E65 
 552      63743A20 
 553              		.section	.text.netconn_disconnect,"ax",%progbits
 554              		.align	2
 555              		.p2align 4,,15
 556              		.global	netconn_disconnect
 557              		.thumb
 558              		.thumb_func
 559              		.type	netconn_disconnect, %function
 560              	netconn_disconnect:
 561              	.LFB265:
 562              		.loc 2 218 0
 563              		.cfi_startproc
 564              		@ args = 0, pretend = 0, frame = 40
 565              		@ frame_needed = 1, uses_anonymous_args = 0
 566 0000 80B5     		push	{r7, lr}
 567              		.cfi_def_cfa_offset 8
 568              		.cfi_offset 7, -8
 569              		.cfi_offset 14, -4
 570 0002 8AB0     		sub	sp, sp, #40
 571              		.cfi_def_cfa_offset 48
 572 0004 00AF     		add	r7, sp, #0
 573              		.cfi_def_cfa_register 7
 574 0006 7860     		str	r0, [r7, #4]
 575              		.loc 2 222 0
 576 0008 7B68     		ldr	r3, [r7, #4]
 577 000a 002B     		cmp	r3, #0
 578 000c 04D1     		bne	.L42
 579              		.loc 2 222 0 is_stmt 0 discriminator 1
 580 000e 1148     		ldr	r0, .L46
 581 0010 FFF7FEFF 		bl	osalSysHalt
 582 0014 F223     		movs	r3, #242
ARM GAS  C:\Users\Luis\AppData\Local\Temp\ccw3M05h.s 			page 12


 583 0016 17E0     		b	.L45
 584              	.L42:
 585              		.loc 2 224 0 is_stmt 1
 586 0018 0F4B     		ldr	r3, .L46+4
 587 001a FB60     		str	r3, [r7, #12]
 588              		.loc 2 225 0
 589 001c 7B68     		ldr	r3, [r7, #4]
 590 001e 3B61     		str	r3, [r7, #16]
 591              		.loc 2 226 0
 592 0020 07F10C03 		add	r3, r7, #12
 593 0024 1846     		mov	r0, r3
 594 0026 FFF7FEFF 		bl	tcpip_apimsg
 595 002a 0346     		mov	r3, r0
 596 002c 87F82730 		strb	r3, [r7, #39]
 597              		.loc 2 228 0
 598 0030 7B68     		ldr	r3, [r7, #4]
 599 0032 1B7A     		ldrb	r3, [r3, #8]	@ zero_extendqisi2
 600 0034 5BB2     		sxtb	r3, r3
 601 0036 13F1090F 		cmn	r3, #9
 602 003a 03DB     		blt	.L44
 603              		.loc 2 228 0 is_stmt 0 discriminator 1
 604 003c 7B68     		ldr	r3, [r7, #4]
 605 003e 97F82720 		ldrb	r2, [r7, #39]
 606 0042 1A72     		strb	r2, [r3, #8]
 607              	.L44:
 608              		.loc 2 229 0 is_stmt 1
 609 0044 97F82730 		ldrb	r3, [r7, #39]	@ zero_extendqisi2
 610              	.L45:
 611 0048 5BB2     		sxtb	r3, r3
 612              		.loc 2 230 0
 613 004a 1846     		mov	r0, r3
 614 004c 2837     		adds	r7, r7, #40
 615 004e BD46     		mov	sp, r7
 616              		@ sp needed
 617 0050 80BD     		pop	{r7, pc}
 618              	.L47:
 619 0052 00BF     		.align	2
 620              	.L46:
 621 0054 18010000 		.word	.LC9
 622 0058 00000000 		.word	do_disconnect
 623              		.cfi_endproc
 624              	.LFE265:
 625              		.size	netconn_disconnect, .-netconn_disconnect
 626 005c AFF30080 		.section	.rodata
 627 0139 000000   		.align	2
 628              	.LC10:
 629 013c 6E657463 		.ascii	"netconn_listen: invalid conn\000"
 629      6F6E6E5F 
 629      6C697374 
 629      656E3A20 
 629      696E7661 
 630              		.section	.text.netconn_listen_with_backlog,"ax",%progbits
 631              		.align	2
 632              		.p2align 4,,15
 633              		.global	netconn_listen_with_backlog
 634              		.thumb
 635              		.thumb_func
ARM GAS  C:\Users\Luis\AppData\Local\Temp\ccw3M05h.s 			page 13


 636              		.type	netconn_listen_with_backlog, %function
 637              	netconn_listen_with_backlog:
 638              	.LFB266:
 639              		.loc 2 242 0
 640              		.cfi_startproc
 641              		@ args = 0, pretend = 0, frame = 40
 642              		@ frame_needed = 1, uses_anonymous_args = 0
 643 0000 80B5     		push	{r7, lr}
 644              		.cfi_def_cfa_offset 8
 645              		.cfi_offset 7, -8
 646              		.cfi_offset 14, -4
 647 0002 8AB0     		sub	sp, sp, #40
 648              		.cfi_def_cfa_offset 48
 649 0004 00AF     		add	r7, sp, #0
 650              		.cfi_def_cfa_register 7
 651 0006 7860     		str	r0, [r7, #4]
 652 0008 0B46     		mov	r3, r1
 653 000a FB70     		strb	r3, [r7, #3]
 654              		.loc 2 250 0
 655 000c 7B68     		ldr	r3, [r7, #4]
 656 000e 002B     		cmp	r3, #0
 657 0010 04D1     		bne	.L49
 658              		.loc 2 250 0 is_stmt 0 discriminator 1
 659 0012 1148     		ldr	r0, .L53
 660 0014 FFF7FEFF 		bl	osalSysHalt
 661 0018 F223     		movs	r3, #242
 662 001a 17E0     		b	.L52
 663              	.L49:
 664              		.loc 2 252 0 is_stmt 1
 665 001c 0F4B     		ldr	r3, .L53+4
 666 001e FB60     		str	r3, [r7, #12]
 667              		.loc 2 253 0
 668 0020 7B68     		ldr	r3, [r7, #4]
 669 0022 3B61     		str	r3, [r7, #16]
 670              		.loc 2 257 0
 671 0024 07F10C03 		add	r3, r7, #12
 672 0028 1846     		mov	r0, r3
 673 002a FFF7FEFF 		bl	tcpip_apimsg
 674 002e 0346     		mov	r3, r0
 675 0030 87F82730 		strb	r3, [r7, #39]
 676              		.loc 2 259 0
 677 0034 7B68     		ldr	r3, [r7, #4]
 678 0036 1B7A     		ldrb	r3, [r3, #8]	@ zero_extendqisi2
 679 0038 5BB2     		sxtb	r3, r3
 680 003a 13F1090F 		cmn	r3, #9
 681 003e 03DB     		blt	.L51
 682              		.loc 2 259 0 is_stmt 0 discriminator 1
 683 0040 7B68     		ldr	r3, [r7, #4]
 684 0042 97F82720 		ldrb	r2, [r7, #39]
 685 0046 1A72     		strb	r2, [r3, #8]
 686              	.L51:
 687              		.loc 2 260 0 is_stmt 1
 688 0048 97F82730 		ldrb	r3, [r7, #39]	@ zero_extendqisi2
 689              	.L52:
 690 004c 5BB2     		sxtb	r3, r3
 691              		.loc 2 266 0
 692 004e 1846     		mov	r0, r3
ARM GAS  C:\Users\Luis\AppData\Local\Temp\ccw3M05h.s 			page 14


 693 0050 2837     		adds	r7, r7, #40
 694 0052 BD46     		mov	sp, r7
 695              		@ sp needed
 696 0054 80BD     		pop	{r7, pc}
 697              	.L54:
 698 0056 00BF     		.align	2
 699              	.L53:
 700 0058 3C010000 		.word	.LC10
 701 005c 00000000 		.word	do_listen
 702              		.cfi_endproc
 703              	.LFE266:
 704              		.size	netconn_listen_with_backlog, .-netconn_listen_with_backlog
 705              		.section	.rodata
 706 0159 000000   		.align	2
 707              	.LC11:
 708 015c 6E657463 		.ascii	"netconn_accept: invalid pointer\000"
 708      6F6E6E5F 
 708      61636365 
 708      70743A20 
 708      696E7661 
 709              		.align	2
 710              	.LC12:
 711 017c 6E657463 		.ascii	"netconn_accept: invalid conn\000"
 711      6F6E6E5F 
 711      61636365 
 711      70743A20 
 711      696E7661 
 712 0199 000000   		.align	2
 713              	.LC13:
 714 019c 6E657463 		.ascii	"netconn_accept: invalid acceptmbox\000"
 714      6F6E6E5F 
 714      61636365 
 714      70743A20 
 714      696E7661 
 715              		.section	.text.netconn_accept,"ax",%progbits
 716              		.align	2
 717              		.p2align 4,,15
 718              		.global	netconn_accept
 719              		.thumb
 720              		.thumb_func
 721              		.type	netconn_accept, %function
 722              	netconn_accept:
 723              	.LFB267:
 724              		.loc 2 278 0
 725              		.cfi_startproc
 726              		@ args = 0, pretend = 0, frame = 16
 727              		@ frame_needed = 1, uses_anonymous_args = 0
 728 0000 80B5     		push	{r7, lr}
 729              		.cfi_def_cfa_offset 8
 730              		.cfi_offset 7, -8
 731              		.cfi_offset 14, -4
 732 0002 84B0     		sub	sp, sp, #16
 733              		.cfi_def_cfa_offset 24
 734 0004 00AF     		add	r7, sp, #0
 735              		.cfi_def_cfa_register 7
 736 0006 7860     		str	r0, [r7, #4]
 737 0008 3960     		str	r1, [r7]
ARM GAS  C:\Users\Luis\AppData\Local\Temp\ccw3M05h.s 			page 15


 738              		.loc 2 286 0
 739 000a 3B68     		ldr	r3, [r7]
 740 000c 002B     		cmp	r3, #0
 741 000e 04D1     		bne	.L56
 742              		.loc 2 286 0 is_stmt 0 discriminator 1
 743 0010 2848     		ldr	r0, .L65
 744 0012 FFF7FEFF 		bl	osalSysHalt
 745 0016 F223     		movs	r3, #242
 746 0018 47E0     		b	.L64
 747              	.L56:
 748              		.loc 2 287 0 is_stmt 1
 749 001a 3B68     		ldr	r3, [r7]
 750 001c 0022     		movs	r2, #0
 751 001e 1A60     		str	r2, [r3]
 752              		.loc 2 288 0
 753 0020 7B68     		ldr	r3, [r7, #4]
 754 0022 002B     		cmp	r3, #0
 755 0024 04D1     		bne	.L58
 756              		.loc 2 288 0 is_stmt 0 discriminator 1
 757 0026 2448     		ldr	r0, .L65+4
 758 0028 FFF7FEFF 		bl	osalSysHalt
 759 002c F223     		movs	r3, #242
 760 002e 3CE0     		b	.L64
 761              	.L58:
 762              		.loc 2 289 0 is_stmt 1
 763 0030 7B68     		ldr	r3, [r7, #4]
 764 0032 1433     		adds	r3, r3, #20
 765 0034 1846     		mov	r0, r3
 766 0036 FFF7FEFF 		bl	sys_mbox_valid
 767 003a 0346     		mov	r3, r0
 768 003c 002B     		cmp	r3, #0
 769 003e 04D1     		bne	.L59
 770              		.loc 2 289 0 is_stmt 0 discriminator 1
 771 0040 1E48     		ldr	r0, .L65+8
 772 0042 FFF7FEFF 		bl	osalSysHalt
 773 0046 F223     		movs	r3, #242
 774 0048 2FE0     		b	.L64
 775              	.L59:
 776              		.loc 2 291 0 is_stmt 1
 777 004a 7B68     		ldr	r3, [r7, #4]
 778 004c 1B7A     		ldrb	r3, [r3, #8]
 779 004e FB73     		strb	r3, [r7, #15]
 780              		.loc 2 292 0
 781 0050 97F90F30 		ldrsb	r3, [r7, #15]
 782 0054 13F1090F 		cmn	r3, #9
 783 0058 01DA     		bge	.L60
 784              		.loc 2 295 0
 785 005a FB7B     		ldrb	r3, [r7, #15]	@ zero_extendqisi2
 786 005c 25E0     		b	.L64
 787              	.L60:
 788              		.loc 2 304 0
 789 005e 7B68     		ldr	r3, [r7, #4]
 790 0060 03F11402 		add	r2, r3, #20
 791 0064 07F10803 		add	r3, r7, #8
 792 0068 1046     		mov	r0, r2
 793 006a 1946     		mov	r1, r3
 794 006c 0022     		movs	r2, #0
ARM GAS  C:\Users\Luis\AppData\Local\Temp\ccw3M05h.s 			page 16


 795 006e FFF7FEFF 		bl	sys_arch_mbox_fetch
 796              		.loc 2 307 0
 797 0072 7B68     		ldr	r3, [r7, #4]
 798 0074 9B6A     		ldr	r3, [r3, #40]
 799 0076 002B     		cmp	r3, #0
 800 0078 05D0     		beq	.L61
 801              		.loc 2 307 0 is_stmt 0 discriminator 1
 802 007a 7B68     		ldr	r3, [r7, #4]
 803 007c 9B6A     		ldr	r3, [r3, #40]
 804 007e 7868     		ldr	r0, [r7, #4]
 805 0080 0121     		movs	r1, #1
 806 0082 0022     		movs	r2, #0
 807 0084 9847     		blx	r3
 808              	.L61:
 809              		.loc 2 309 0 is_stmt 1
 810 0086 BB68     		ldr	r3, [r7, #8]
 811 0088 002B     		cmp	r3, #0
 812 008a 0AD1     		bne	.L62
 813              		.loc 2 311 0
 814 008c 7B68     		ldr	r3, [r7, #4]
 815 008e 1B7A     		ldrb	r3, [r3, #8]	@ zero_extendqisi2
 816 0090 5BB2     		sxtb	r3, r3
 817 0092 13F1090F 		cmn	r3, #9
 818 0096 02DB     		blt	.L63
 819              		.loc 2 311 0 is_stmt 0 discriminator 1
 820 0098 7B68     		ldr	r3, [r7, #4]
 821 009a F622     		movs	r2, #246
 822 009c 1A72     		strb	r2, [r3, #8]
 823              	.L63:
 824              		.loc 2 312 0 is_stmt 1
 825 009e F623     		movs	r3, #246
 826 00a0 03E0     		b	.L64
 827              	.L62:
 828              		.loc 2 322 0
 829 00a2 BA68     		ldr	r2, [r7, #8]
 830 00a4 3B68     		ldr	r3, [r7]
 831 00a6 1A60     		str	r2, [r3]
 832              		.loc 2 324 0
 833 00a8 0023     		movs	r3, #0
 834              	.L64:
 835 00aa 5BB2     		sxtb	r3, r3
 836              		.loc 2 330 0
 837 00ac 1846     		mov	r0, r3
 838 00ae 1037     		adds	r7, r7, #16
 839 00b0 BD46     		mov	sp, r7
 840              		@ sp needed
 841 00b2 80BD     		pop	{r7, pc}
 842              	.L66:
 843              		.align	2
 844              	.L65:
 845 00b4 5C010000 		.word	.LC11
 846 00b8 7C010000 		.word	.LC12
 847 00bc 9C010000 		.word	.LC13
 848              		.cfi_endproc
 849              	.LFE267:
 850              		.size	netconn_accept, .-netconn_accept
 851              		.section	.rodata
ARM GAS  C:\Users\Luis\AppData\Local\Temp\ccw3M05h.s 			page 17


 852 01bf 00       		.align	2
 853              	.LC14:
 854 01c0 6E657463 		.ascii	"netconn_recv: invalid pointer\000"
 854      6F6E6E5F 
 854      72656376 
 854      3A20696E 
 854      76616C69 
 855 01de 0000     		.align	2
 856              	.LC15:
 857 01e0 6E657463 		.ascii	"netconn_recv: invalid conn\000"
 857      6F6E6E5F 
 857      72656376 
 857      3A20696E 
 857      76616C69 
 858 01fb 00       		.align	2
 859              	.LC16:
 860 01fc 6E657463 		.ascii	"netconn_accept: invalid recvmbox\000"
 860      6F6E6E5F 
 860      61636365 
 860      70743A20 
 860      696E7661 
 861 021d 000000   		.align	2
 862              	.LC17:
 863 0220 62756620 		.ascii	"buf != NULL\000"
 863      213D204E 
 863      554C4C00 
 864              		.section	.text.netconn_recv_data,"ax",%progbits
 865              		.align	2
 866              		.p2align 4,,15
 867              		.thumb
 868              		.thumb_func
 869              		.type	netconn_recv_data, %function
 870              	netconn_recv_data:
 871              	.LFB268:
 872              		.loc 2 343 0
 873              		.cfi_startproc
 874              		@ args = 0, pretend = 0, frame = 40
 875              		@ frame_needed = 1, uses_anonymous_args = 0
 876 0000 80B5     		push	{r7, lr}
 877              		.cfi_def_cfa_offset 8
 878              		.cfi_offset 7, -8
 879              		.cfi_offset 14, -4
 880 0002 8AB0     		sub	sp, sp, #40
 881              		.cfi_def_cfa_offset 48
 882 0004 00AF     		add	r7, sp, #0
 883              		.cfi_def_cfa_register 7
 884 0006 7860     		str	r0, [r7, #4]
 885 0008 3960     		str	r1, [r7]
 886              		.loc 2 344 0
 887 000a 0023     		movs	r3, #0
 888 000c 3B62     		str	r3, [r7, #32]
 889              		.loc 2 351 0
 890 000e 3B68     		ldr	r3, [r7]
 891 0010 002B     		cmp	r3, #0
 892 0012 04D1     		bne	.L68
 893              		.loc 2 351 0 is_stmt 0 discriminator 1
 894 0014 4548     		ldr	r0, .L85
ARM GAS  C:\Users\Luis\AppData\Local\Temp\ccw3M05h.s 			page 18


 895 0016 FFF7FEFF 		bl	osalSysHalt
 896 001a F223     		movs	r3, #242
 897 001c 80E0     		b	.L84
 898              	.L68:
 899              		.loc 2 352 0 is_stmt 1
 900 001e 3B68     		ldr	r3, [r7]
 901 0020 0022     		movs	r2, #0
 902 0022 1A60     		str	r2, [r3]
 903              		.loc 2 353 0
 904 0024 7B68     		ldr	r3, [r7, #4]
 905 0026 002B     		cmp	r3, #0
 906 0028 04D1     		bne	.L70
 907              		.loc 2 353 0 is_stmt 0 discriminator 1
 908 002a 4148     		ldr	r0, .L85+4
 909 002c FFF7FEFF 		bl	osalSysHalt
 910 0030 F223     		movs	r3, #242
 911 0032 75E0     		b	.L84
 912              	.L70:
 913              		.loc 2 354 0 is_stmt 1
 914 0034 7B68     		ldr	r3, [r7, #4]
 915 0036 1033     		adds	r3, r3, #16
 916 0038 1846     		mov	r0, r3
 917 003a FFF7FEFF 		bl	sys_mbox_valid
 918 003e 0346     		mov	r3, r0
 919 0040 002B     		cmp	r3, #0
 920 0042 04D1     		bne	.L71
 921              		.loc 2 354 0 is_stmt 0 discriminator 1
 922 0044 3B48     		ldr	r0, .L85+8
 923 0046 FFF7FEFF 		bl	osalSysHalt
 924 004a F323     		movs	r3, #243
 925 004c 68E0     		b	.L84
 926              	.L71:
 927              		.loc 2 356 0 is_stmt 1
 928 004e 7B68     		ldr	r3, [r7, #4]
 929 0050 1B7A     		ldrb	r3, [r3, #8]
 930 0052 87F82530 		strb	r3, [r7, #37]
 931              		.loc 2 357 0
 932 0056 97F92530 		ldrsb	r3, [r7, #37]
 933 005a 13F1090F 		cmn	r3, #9
 934 005e 02DA     		bge	.L72
 935              		.loc 2 362 0
 936 0060 97F82530 		ldrb	r3, [r7, #37]	@ zero_extendqisi2
 937 0064 5CE0     		b	.L84
 938              	.L72:
 939              		.loc 2 371 0
 940 0066 7B68     		ldr	r3, [r7, #4]
 941 0068 03F11002 		add	r2, r3, #16
 942 006c 07F12003 		add	r3, r7, #32
 943 0070 1046     		mov	r0, r2
 944 0072 1946     		mov	r1, r3
 945 0074 0022     		movs	r2, #0
 946 0076 FFF7FEFF 		bl	sys_arch_mbox_fetch
 947              		.loc 2 376 0
 948 007a 7B68     		ldr	r3, [r7, #4]
 949 007c 1B78     		ldrb	r3, [r3]	@ zero_extendqisi2
 950 007e 102B     		cmp	r3, #16
 951 0080 36D1     		bne	.L73
ARM GAS  C:\Users\Luis\AppData\Local\Temp\ccw3M05h.s 			page 19


 952              		.loc 2 379 0
 953 0082 7B68     		ldr	r3, [r7, #4]
 954 0084 1B7F     		ldrb	r3, [r3, #28]	@ zero_extendqisi2
 955 0086 03F00803 		and	r3, r3, #8
 956 008a 002B     		cmp	r3, #0
 957 008c 02D0     		beq	.L74
 958              		.loc 2 379 0 is_stmt 0 discriminator 1
 959 008e 3B6A     		ldr	r3, [r7, #32]
 960 0090 002B     		cmp	r3, #0
 961 0092 11D1     		bne	.L75
 962              	.L74:
 963              		.loc 2 383 0 is_stmt 1
 964 0094 284B     		ldr	r3, .L85+12
 965 0096 BB60     		str	r3, [r7, #8]
 966              		.loc 2 384 0
 967 0098 7B68     		ldr	r3, [r7, #4]
 968 009a FB60     		str	r3, [r7, #12]
 969              		.loc 2 385 0
 970 009c 3B6A     		ldr	r3, [r7, #32]
 971 009e 002B     		cmp	r3, #0
 972 00a0 03D0     		beq	.L76
 973              		.loc 2 386 0
 974 00a2 3B6A     		ldr	r3, [r7, #32]
 975 00a4 1B89     		ldrh	r3, [r3, #8]
 976 00a6 7B61     		str	r3, [r7, #20]
 977 00a8 01E0     		b	.L77
 978              	.L76:
 979              		.loc 2 388 0
 980 00aa 0123     		movs	r3, #1
 981 00ac 7B61     		str	r3, [r7, #20]
 982              	.L77:
 983              		.loc 2 391 0
 984 00ae 07F10803 		add	r3, r7, #8
 985 00b2 1846     		mov	r0, r3
 986 00b4 FFF7FEFF 		bl	tcpip_apimsg
 987              	.L75:
 988              		.loc 2 395 0
 989 00b8 3B6A     		ldr	r3, [r7, #32]
 990 00ba 002B     		cmp	r3, #0
 991 00bc 14D1     		bne	.L78
 992              		.loc 2 396 0
 993 00be 7B68     		ldr	r3, [r7, #4]
 994 00c0 9B6A     		ldr	r3, [r3, #40]
 995 00c2 002B     		cmp	r3, #0
 996 00c4 05D0     		beq	.L79
 997              		.loc 2 396 0 is_stmt 0 discriminator 1
 998 00c6 7B68     		ldr	r3, [r7, #4]
 999 00c8 9B6A     		ldr	r3, [r3, #40]
 1000 00ca 7868     		ldr	r0, [r7, #4]
 1001 00cc 0121     		movs	r1, #1
 1002 00ce 0022     		movs	r2, #0
 1003 00d0 9847     		blx	r3
 1004              	.L79:
 1005              		.loc 2 398 0 is_stmt 1
 1006 00d2 7B68     		ldr	r3, [r7, #4]
 1007 00d4 1B7A     		ldrb	r3, [r3, #8]	@ zero_extendqisi2
 1008 00d6 5BB2     		sxtb	r3, r3
ARM GAS  C:\Users\Luis\AppData\Local\Temp\ccw3M05h.s 			page 20


 1009 00d8 13F1090F 		cmn	r3, #9
 1010 00dc 02DB     		blt	.L80
 1011              		.loc 2 398 0 is_stmt 0 discriminator 1
 1012 00de 7B68     		ldr	r3, [r7, #4]
 1013 00e0 F422     		movs	r2, #244
 1014 00e2 1A72     		strb	r2, [r3, #8]
 1015              	.L80:
 1016              		.loc 2 399 0 is_stmt 1
 1017 00e4 F423     		movs	r3, #244
 1018 00e6 1BE0     		b	.L84
 1019              	.L78:
 1020              		.loc 2 401 0
 1021 00e8 3B6A     		ldr	r3, [r7, #32]
 1022 00ea 1B89     		ldrh	r3, [r3, #8]	@ movhi
 1023 00ec FB84     		strh	r3, [r7, #38]	@ movhi
 1024 00ee 09E0     		b	.L81
 1025              	.L73:
 1026              		.loc 2 409 0
 1027 00f0 3B6A     		ldr	r3, [r7, #32]
 1028 00f2 002B     		cmp	r3, #0
 1029 00f4 02D1     		bne	.L82
 1030              		.loc 2 409 0 is_stmt 0 discriminator 1
 1031 00f6 1148     		ldr	r0, .L85+16
 1032 00f8 FFF7FEFF 		bl	osalSysHalt
 1033              	.L82:
 1034              		.loc 2 410 0 is_stmt 1
 1035 00fc 3B6A     		ldr	r3, [r7, #32]
 1036 00fe 1B68     		ldr	r3, [r3]
 1037 0100 1B89     		ldrh	r3, [r3, #8]	@ movhi
 1038 0102 FB84     		strh	r3, [r7, #38]	@ movhi
 1039              	.L81:
 1040              		.loc 2 418 0
 1041 0104 7B68     		ldr	r3, [r7, #4]
 1042 0106 9B6A     		ldr	r3, [r3, #40]
 1043 0108 002B     		cmp	r3, #0
 1044 010a 05D0     		beq	.L83
 1045              		.loc 2 418 0 is_stmt 0 discriminator 1
 1046 010c 7B68     		ldr	r3, [r7, #4]
 1047 010e 9B6A     		ldr	r3, [r3, #40]
 1048 0110 FA8C     		ldrh	r2, [r7, #38]
 1049 0112 7868     		ldr	r0, [r7, #4]
 1050 0114 0121     		movs	r1, #1
 1051 0116 9847     		blx	r3
 1052              	.L83:
 1053              		.loc 2 422 0 is_stmt 1
 1054 0118 3A6A     		ldr	r2, [r7, #32]
 1055 011a 3B68     		ldr	r3, [r7]
 1056 011c 1A60     		str	r2, [r3]
 1057              		.loc 2 424 0
 1058 011e 0023     		movs	r3, #0
 1059              	.L84:
 1060 0120 5BB2     		sxtb	r3, r3
 1061              		.loc 2 425 0
 1062 0122 1846     		mov	r0, r3
 1063 0124 2837     		adds	r7, r7, #40
 1064 0126 BD46     		mov	sp, r7
 1065              		@ sp needed
ARM GAS  C:\Users\Luis\AppData\Local\Temp\ccw3M05h.s 			page 21


 1066 0128 80BD     		pop	{r7, pc}
 1067              	.L86:
 1068 012a 00BF     		.align	2
 1069              	.L85:
 1070 012c C0010000 		.word	.LC14
 1071 0130 E0010000 		.word	.LC15
 1072 0134 FC010000 		.word	.LC16
 1073 0138 00000000 		.word	do_recv
 1074 013c 20020000 		.word	.LC17
 1075              		.cfi_endproc
 1076              	.LFE268:
 1077              		.size	netconn_recv_data, .-netconn_recv_data
 1078              		.section	.text.netconn_recv_tcp_pbuf,"ax",%progbits
 1079              		.align	2
 1080              		.p2align 4,,15
 1081              		.global	netconn_recv_tcp_pbuf
 1082              		.thumb
 1083              		.thumb_func
 1084              		.type	netconn_recv_tcp_pbuf, %function
 1085              	netconn_recv_tcp_pbuf:
 1086              	.LFB269:
 1087              		.loc 2 438 0
 1088              		.cfi_startproc
 1089              		@ args = 0, pretend = 0, frame = 8
 1090              		@ frame_needed = 1, uses_anonymous_args = 0
 1091 0000 80B5     		push	{r7, lr}
 1092              		.cfi_def_cfa_offset 8
 1093              		.cfi_offset 7, -8
 1094              		.cfi_offset 14, -4
 1095 0002 82B0     		sub	sp, sp, #8
 1096              		.cfi_def_cfa_offset 16
 1097 0004 00AF     		add	r7, sp, #0
 1098              		.cfi_def_cfa_register 7
 1099 0006 7860     		str	r0, [r7, #4]
 1100 0008 3960     		str	r1, [r7]
 1101              		.loc 2 439 0
 1102 000a 7B68     		ldr	r3, [r7, #4]
 1103 000c 002B     		cmp	r3, #0
 1104 000e 03D0     		beq	.L88
 1105              		.loc 2 439 0 is_stmt 0 discriminator 2
 1106 0010 7B68     		ldr	r3, [r7, #4]
 1107 0012 1B78     		ldrb	r3, [r3]	@ zero_extendqisi2
 1108 0014 102B     		cmp	r3, #16
 1109 0016 04D0     		beq	.L89
 1110              	.L88:
 1111              		.loc 2 439 0 discriminator 1
 1112 0018 0748     		ldr	r0, .L91
 1113 001a FFF7FEFF 		bl	osalSysHalt
 1114 001e F223     		movs	r3, #242
 1115 0020 04E0     		b	.L90
 1116              	.L89:
 1117              		.loc 2 442 0 is_stmt 1
 1118 0022 7868     		ldr	r0, [r7, #4]
 1119 0024 3968     		ldr	r1, [r7]
 1120 0026 FFF7FEFF 		bl	netconn_recv_data
 1121 002a 0346     		mov	r3, r0
 1122              	.L90:
ARM GAS  C:\Users\Luis\AppData\Local\Temp\ccw3M05h.s 			page 22


 1123 002c 5BB2     		sxtb	r3, r3
 1124              		.loc 2 443 0
 1125 002e 1846     		mov	r0, r3
 1126 0030 0837     		adds	r7, r7, #8
 1127 0032 BD46     		mov	sp, r7
 1128              		@ sp needed
 1129 0034 80BD     		pop	{r7, pc}
 1130              	.L92:
 1131 0036 00BF     		.align	2
 1132              	.L91:
 1133 0038 E0010000 		.word	.LC15
 1134              		.cfi_endproc
 1135              	.LFE269:
 1136              		.size	netconn_recv_tcp_pbuf, .-netconn_recv_tcp_pbuf
 1137 003c AFF30080 		.section	.rodata
 1138              		.align	2
 1139              	.LC18:
 1140 022c 7020213D 		.ascii	"p != NULL\000"
 1140      204E554C 
 1140      4C00
 1141              		.section	.text.netconn_recv,"ax",%progbits
 1142              		.align	2
 1143              		.p2align 4,,15
 1144              		.global	netconn_recv
 1145              		.thumb
 1146              		.thumb_func
 1147              		.type	netconn_recv, %function
 1148              	netconn_recv:
 1149              	.LFB270:
 1150              		.loc 2 455 0
 1151              		.cfi_startproc
 1152              		@ args = 0, pretend = 0, frame = 24
 1153              		@ frame_needed = 1, uses_anonymous_args = 0
 1154 0000 80B5     		push	{r7, lr}
 1155              		.cfi_def_cfa_offset 8
 1156              		.cfi_offset 7, -8
 1157              		.cfi_offset 14, -4
 1158 0002 86B0     		sub	sp, sp, #24
 1159              		.cfi_def_cfa_offset 32
 1160 0004 00AF     		add	r7, sp, #0
 1161              		.cfi_def_cfa_register 7
 1162 0006 7860     		str	r0, [r7, #4]
 1163 0008 3960     		str	r1, [r7]
 1164              		.loc 2 457 0
 1165 000a 0023     		movs	r3, #0
 1166 000c 7B61     		str	r3, [r7, #20]
 1167              		.loc 2 461 0
 1168 000e 3B68     		ldr	r3, [r7]
 1169 0010 002B     		cmp	r3, #0
 1170 0012 04D1     		bne	.L94
 1171              		.loc 2 461 0 is_stmt 0 discriminator 1
 1172 0014 3348     		ldr	r0, .L104
 1173 0016 FFF7FEFF 		bl	osalSysHalt
 1174 001a F223     		movs	r3, #242
 1175 001c 5DE0     		b	.L95
 1176              	.L94:
 1177              		.loc 2 462 0 is_stmt 1
ARM GAS  C:\Users\Luis\AppData\Local\Temp\ccw3M05h.s 			page 23


 1178 001e 3B68     		ldr	r3, [r7]
 1179 0020 0022     		movs	r2, #0
 1180 0022 1A60     		str	r2, [r3]
 1181              		.loc 2 463 0
 1182 0024 7B68     		ldr	r3, [r7, #4]
 1183 0026 002B     		cmp	r3, #0
 1184 0028 04D1     		bne	.L96
 1185              		.loc 2 463 0 is_stmt 0 discriminator 1
 1186 002a 2F48     		ldr	r0, .L104+4
 1187 002c FFF7FEFF 		bl	osalSysHalt
 1188 0030 F223     		movs	r3, #242
 1189 0032 52E0     		b	.L95
 1190              	.L96:
 1191              		.loc 2 464 0 is_stmt 1
 1192 0034 7B68     		ldr	r3, [r7, #4]
 1193 0036 1033     		adds	r3, r3, #16
 1194 0038 1846     		mov	r0, r3
 1195 003a FFF7FEFF 		bl	sys_mbox_valid
 1196 003e 0346     		mov	r3, r0
 1197 0040 002B     		cmp	r3, #0
 1198 0042 04D1     		bne	.L97
 1199              		.loc 2 464 0 is_stmt 0 discriminator 1
 1200 0044 2948     		ldr	r0, .L104+8
 1201 0046 FFF7FEFF 		bl	osalSysHalt
 1202 004a F323     		movs	r3, #243
 1203 004c 45E0     		b	.L95
 1204              	.L97:
 1205              		.loc 2 468 0 is_stmt 1
 1206 004e 7B68     		ldr	r3, [r7, #4]
 1207 0050 1B78     		ldrb	r3, [r3]	@ zero_extendqisi2
 1208 0052 102B     		cmp	r3, #16
 1209 0054 3CD1     		bne	.L98
 1210              	.LBB2:
 1211              		.loc 2 471 0
 1212 0056 0023     		movs	r3, #0
 1213 0058 FB60     		str	r3, [r7, #12]
 1214              		.loc 2 474 0
 1215 005a 0720     		movs	r0, #7
 1216 005c FFF7FEFF 		bl	memp_malloc
 1217 0060 7861     		str	r0, [r7, #20]
 1218              		.loc 2 475 0
 1219 0062 7B69     		ldr	r3, [r7, #20]
 1220 0064 002B     		cmp	r3, #0
 1221 0066 0AD1     		bne	.L99
 1222              		.loc 2 476 0
 1223 0068 7B68     		ldr	r3, [r7, #4]
 1224 006a 1B7A     		ldrb	r3, [r3, #8]	@ zero_extendqisi2
 1225 006c 5BB2     		sxtb	r3, r3
 1226 006e 13F1090F 		cmn	r3, #9
 1227 0072 02DB     		blt	.L100
 1228              		.loc 2 476 0 is_stmt 0 discriminator 1
 1229 0074 7B68     		ldr	r3, [r7, #4]
 1230 0076 FF22     		movs	r2, #255
 1231 0078 1A72     		strb	r2, [r3, #8]
 1232              	.L100:
 1233              		.loc 2 477 0 is_stmt 1
 1234 007a FF23     		movs	r3, #255
ARM GAS  C:\Users\Luis\AppData\Local\Temp\ccw3M05h.s 			page 24


 1235 007c 2DE0     		b	.L95
 1236              	.L99:
 1237              		.loc 2 480 0
 1238 007e 07F10C03 		add	r3, r7, #12
 1239 0082 7868     		ldr	r0, [r7, #4]
 1240 0084 1946     		mov	r1, r3
 1241 0086 FFF7FEFF 		bl	netconn_recv_data
 1242 008a 0346     		mov	r3, r0
 1243 008c FB74     		strb	r3, [r7, #19]
 1244              		.loc 2 481 0
 1245 008e 97F91330 		ldrsb	r3, [r7, #19]
 1246 0092 002B     		cmp	r3, #0
 1247 0094 05D0     		beq	.L102
 1248              		.loc 2 482 0
 1249 0096 0720     		movs	r0, #7
 1250 0098 7969     		ldr	r1, [r7, #20]
 1251 009a FFF7FEFF 		bl	memp_free
 1252              		.loc 2 483 0
 1253 009e FB7C     		ldrb	r3, [r7, #19]	@ zero_extendqisi2
 1254 00a0 1BE0     		b	.L95
 1255              	.L102:
 1256              		.loc 2 485 0
 1257 00a2 FB68     		ldr	r3, [r7, #12]
 1258 00a4 002B     		cmp	r3, #0
 1259 00a6 02D1     		bne	.L103
 1260              		.loc 2 485 0 is_stmt 0 discriminator 1
 1261 00a8 1148     		ldr	r0, .L104+12
 1262 00aa FFF7FEFF 		bl	osalSysHalt
 1263              	.L103:
 1264              		.loc 2 487 0 is_stmt 1
 1265 00ae FA68     		ldr	r2, [r7, #12]
 1266 00b0 7B69     		ldr	r3, [r7, #20]
 1267 00b2 1A60     		str	r2, [r3]
 1268              		.loc 2 488 0
 1269 00b4 FA68     		ldr	r2, [r7, #12]
 1270 00b6 7B69     		ldr	r3, [r7, #20]
 1271 00b8 5A60     		str	r2, [r3, #4]
 1272              		.loc 2 489 0
 1273 00ba 7B69     		ldr	r3, [r7, #20]
 1274 00bc 0022     		movs	r2, #0
 1275 00be 9A81     		strh	r2, [r3, #12]	@ movhi
 1276              		.loc 2 490 0
 1277 00c0 7B69     		ldr	r3, [r7, #20]
 1278 00c2 0022     		movs	r2, #0
 1279 00c4 9A60     		str	r2, [r3, #8]
 1280              		.loc 2 491 0
 1281 00c6 3B68     		ldr	r3, [r7]
 1282 00c8 7A69     		ldr	r2, [r7, #20]
 1283 00ca 1A60     		str	r2, [r3]
 1284              		.loc 2 493 0
 1285 00cc 0023     		movs	r3, #0
 1286 00ce 04E0     		b	.L95
 1287              	.L98:
 1288              	.LBE2:
 1289              		.loc 2 501 0
 1290 00d0 7868     		ldr	r0, [r7, #4]
 1291 00d2 3968     		ldr	r1, [r7]
ARM GAS  C:\Users\Luis\AppData\Local\Temp\ccw3M05h.s 			page 25


 1292 00d4 FFF7FEFF 		bl	netconn_recv_data
 1293 00d8 0346     		mov	r3, r0
 1294              	.L95:
 1295 00da 5BB2     		sxtb	r3, r3
 1296              		.loc 2 504 0
 1297 00dc 1846     		mov	r0, r3
 1298 00de 1837     		adds	r7, r7, #24
 1299 00e0 BD46     		mov	sp, r7
 1300              		@ sp needed
 1301 00e2 80BD     		pop	{r7, pc}
 1302              	.L105:
 1303              		.align	2
 1304              	.L104:
 1305 00e4 C0010000 		.word	.LC14
 1306 00e8 E0010000 		.word	.LC15
 1307 00ec FC010000 		.word	.LC16
 1308 00f0 2C020000 		.word	.LC18
 1309              		.cfi_endproc
 1310              	.LFE270:
 1311              		.size	netconn_recv, .-netconn_recv
 1312 00f4 AFF30080 		.section	.text.netconn_recved,"ax",%progbits
 1312      AFF30080 
 1312      AFF30080 
 1313              		.align	2
 1314              		.p2align 4,,15
 1315              		.global	netconn_recved
 1316              		.thumb
 1317              		.thumb_func
 1318              		.type	netconn_recved, %function
 1319              	netconn_recved:
 1320              	.LFB271:
 1321              		.loc 2 518 0
 1322              		.cfi_startproc
 1323              		@ args = 0, pretend = 0, frame = 32
 1324              		@ frame_needed = 1, uses_anonymous_args = 0
 1325 0000 80B5     		push	{r7, lr}
 1326              		.cfi_def_cfa_offset 8
 1327              		.cfi_offset 7, -8
 1328              		.cfi_offset 14, -4
 1329 0002 88B0     		sub	sp, sp, #32
 1330              		.cfi_def_cfa_offset 40
 1331 0004 00AF     		add	r7, sp, #0
 1332              		.cfi_def_cfa_register 7
 1333 0006 7860     		str	r0, [r7, #4]
 1334 0008 3960     		str	r1, [r7]
 1335              		.loc 2 520 0
 1336 000a 7B68     		ldr	r3, [r7, #4]
 1337 000c 002B     		cmp	r3, #0
 1338 000e 14D0     		beq	.L106
 1339              		.loc 2 520 0 is_stmt 0 discriminator 1
 1340 0010 7B68     		ldr	r3, [r7, #4]
 1341 0012 1B78     		ldrb	r3, [r3]	@ zero_extendqisi2
 1342 0014 102B     		cmp	r3, #16
 1343 0016 10D1     		bne	.L106
 1344              		.loc 2 521 0 is_stmt 1 discriminator 1
 1345 0018 7B68     		ldr	r3, [r7, #4]
 1346 001a 1B7F     		ldrb	r3, [r3, #28]	@ zero_extendqisi2
ARM GAS  C:\Users\Luis\AppData\Local\Temp\ccw3M05h.s 			page 26


 1347 001c 03F00803 		and	r3, r3, #8
 1348              		.loc 2 520 0 discriminator 1
 1349 0020 002B     		cmp	r3, #0
 1350 0022 0AD0     		beq	.L106
 1351              	.LBB3:
 1352              		.loc 2 526 0
 1353 0024 064B     		ldr	r3, .L108
 1354 0026 BB60     		str	r3, [r7, #8]
 1355              		.loc 2 527 0
 1356 0028 7B68     		ldr	r3, [r7, #4]
 1357 002a FB60     		str	r3, [r7, #12]
 1358              		.loc 2 528 0
 1359 002c 3B68     		ldr	r3, [r7]
 1360 002e 7B61     		str	r3, [r7, #20]
 1361              		.loc 2 530 0
 1362 0030 07F10803 		add	r3, r7, #8
 1363 0034 1846     		mov	r0, r3
 1364 0036 FFF7FEFF 		bl	tcpip_apimsg
 1365              	.L106:
 1366              	.LBE3:
 1367              		.loc 2 536 0
 1368 003a 2037     		adds	r7, r7, #32
 1369 003c BD46     		mov	sp, r7
 1370              		@ sp needed
 1371 003e 80BD     		pop	{r7, pc}
 1372              	.L109:
 1373              		.align	2
 1374              	.L108:
 1375 0040 00000000 		.word	do_recv
 1376              		.cfi_endproc
 1377              	.LFE271:
 1378              		.size	netconn_recved, .-netconn_recved
 1379 0044 AFF30080 		.section	.text.netconn_sendto,"ax",%progbits
 1379      AFF30080 
 1379      AFF30080 
 1380              		.align	2
 1381              		.p2align 4,,15
 1382              		.global	netconn_sendto
 1383              		.thumb
 1384              		.thumb_func
 1385              		.type	netconn_sendto, %function
 1386              	netconn_sendto:
 1387              	.LFB272:
 1388              		.loc 2 550 0
 1389              		.cfi_startproc
 1390              		@ args = 0, pretend = 0, frame = 16
 1391              		@ frame_needed = 1, uses_anonymous_args = 0
 1392 0000 80B5     		push	{r7, lr}
 1393              		.cfi_def_cfa_offset 8
 1394              		.cfi_offset 7, -8
 1395              		.cfi_offset 14, -4
 1396 0002 84B0     		sub	sp, sp, #16
 1397              		.cfi_def_cfa_offset 24
 1398 0004 00AF     		add	r7, sp, #0
 1399              		.cfi_def_cfa_register 7
 1400 0006 F860     		str	r0, [r7, #12]
 1401 0008 B960     		str	r1, [r7, #8]
ARM GAS  C:\Users\Luis\AppData\Local\Temp\ccw3M05h.s 			page 27


 1402 000a 7A60     		str	r2, [r7, #4]
 1403 000c 7B80     		strh	r3, [r7, #2]	@ movhi
 1404              		.loc 2 551 0
 1405 000e BB68     		ldr	r3, [r7, #8]
 1406 0010 002B     		cmp	r3, #0
 1407 0012 11D0     		beq	.L111
 1408              		.loc 2 552 0
 1409 0014 7B68     		ldr	r3, [r7, #4]
 1410 0016 002B     		cmp	r3, #0
 1411 0018 02D0     		beq	.L112
 1412              		.loc 2 552 0 is_stmt 0 discriminator 1
 1413 001a 7B68     		ldr	r3, [r7, #4]
 1414 001c 1B68     		ldr	r3, [r3]
 1415 001e 00E0     		b	.L113
 1416              	.L112:
 1417              		.loc 2 552 0 discriminator 2
 1418 0020 0023     		movs	r3, #0
 1419              	.L113:
 1420              		.loc 2 552 0 discriminator 3
 1421 0022 BA68     		ldr	r2, [r7, #8]
 1422 0024 9360     		str	r3, [r2, #8]
 1423              		.loc 2 553 0 is_stmt 1 discriminator 3
 1424 0026 BB68     		ldr	r3, [r7, #8]
 1425 0028 7A88     		ldrh	r2, [r7, #2]	@ movhi
 1426 002a 9A81     		strh	r2, [r3, #12]	@ movhi
 1427              		.loc 2 554 0 discriminator 3
 1428 002c F868     		ldr	r0, [r7, #12]
 1429 002e B968     		ldr	r1, [r7, #8]
 1430 0030 FFF7FEFF 		bl	netconn_send
 1431 0034 0346     		mov	r3, r0
 1432 0036 00E0     		b	.L114
 1433              	.L111:
 1434              		.loc 2 556 0
 1435 0038 FA23     		movs	r3, #250
 1436              	.L114:
 1437 003a 5BB2     		sxtb	r3, r3
 1438              		.loc 2 557 0
 1439 003c 1846     		mov	r0, r3
 1440 003e 1037     		adds	r7, r7, #16
 1441 0040 BD46     		mov	sp, r7
 1442              		@ sp needed
 1443 0042 80BD     		pop	{r7, pc}
 1444              		.cfi_endproc
 1445              	.LFE272:
 1446              		.size	netconn_sendto, .-netconn_sendto
 1447 0044 AFF30080 		.section	.rodata
 1447      AFF30080 
 1447      AFF30080 
 1448 0236 0000     		.align	2
 1449              	.LC19:
 1450 0238 6E657463 		.ascii	"netconn_send: invalid conn\000"
 1450      6F6E6E5F 
 1450      73656E64 
 1450      3A20696E 
 1450      76616C69 
 1451              		.section	.text.netconn_send,"ax",%progbits
 1452              		.align	2
ARM GAS  C:\Users\Luis\AppData\Local\Temp\ccw3M05h.s 			page 28


 1453              		.p2align 4,,15
 1454              		.global	netconn_send
 1455              		.thumb
 1456              		.thumb_func
 1457              		.type	netconn_send, %function
 1458              	netconn_send:
 1459              	.LFB273:
 1460              		.loc 2 568 0
 1461              		.cfi_startproc
 1462              		@ args = 0, pretend = 0, frame = 40
 1463              		@ frame_needed = 1, uses_anonymous_args = 0
 1464 0000 80B5     		push	{r7, lr}
 1465              		.cfi_def_cfa_offset 8
 1466              		.cfi_offset 7, -8
 1467              		.cfi_offset 14, -4
 1468 0002 8AB0     		sub	sp, sp, #40
 1469              		.cfi_def_cfa_offset 48
 1470 0004 00AF     		add	r7, sp, #0
 1471              		.cfi_def_cfa_register 7
 1472 0006 7860     		str	r0, [r7, #4]
 1473 0008 3960     		str	r1, [r7]
 1474              		.loc 2 572 0
 1475 000a 7B68     		ldr	r3, [r7, #4]
 1476 000c 002B     		cmp	r3, #0
 1477 000e 04D1     		bne	.L116
 1478              		.loc 2 572 0 is_stmt 0 discriminator 1
 1479 0010 1148     		ldr	r0, .L120
 1480 0012 FFF7FEFF 		bl	osalSysHalt
 1481 0016 F223     		movs	r3, #242
 1482 0018 19E0     		b	.L119
 1483              	.L116:
 1484              		.loc 2 575 0 is_stmt 1
 1485 001a 104B     		ldr	r3, .L120+4
 1486 001c FB60     		str	r3, [r7, #12]
 1487              		.loc 2 576 0
 1488 001e 7B68     		ldr	r3, [r7, #4]
 1489 0020 3B61     		str	r3, [r7, #16]
 1490              		.loc 2 577 0
 1491 0022 3B68     		ldr	r3, [r7]
 1492 0024 BB61     		str	r3, [r7, #24]
 1493              		.loc 2 578 0
 1494 0026 07F10C03 		add	r3, r7, #12
 1495 002a 1846     		mov	r0, r3
 1496 002c FFF7FEFF 		bl	tcpip_apimsg
 1497 0030 0346     		mov	r3, r0
 1498 0032 87F82730 		strb	r3, [r7, #39]
 1499              		.loc 2 580 0
 1500 0036 7B68     		ldr	r3, [r7, #4]
 1501 0038 1B7A     		ldrb	r3, [r3, #8]	@ zero_extendqisi2
 1502 003a 5BB2     		sxtb	r3, r3
 1503 003c 13F1090F 		cmn	r3, #9
 1504 0040 03DB     		blt	.L118
 1505              		.loc 2 580 0 is_stmt 0 discriminator 1
 1506 0042 7B68     		ldr	r3, [r7, #4]
 1507 0044 97F82720 		ldrb	r2, [r7, #39]
 1508 0048 1A72     		strb	r2, [r3, #8]
 1509              	.L118:
ARM GAS  C:\Users\Luis\AppData\Local\Temp\ccw3M05h.s 			page 29


 1510              		.loc 2 581 0 is_stmt 1
 1511 004a 97F82730 		ldrb	r3, [r7, #39]	@ zero_extendqisi2
 1512              	.L119:
 1513 004e 5BB2     		sxtb	r3, r3
 1514              		.loc 2 582 0
 1515 0050 1846     		mov	r0, r3
 1516 0052 2837     		adds	r7, r7, #40
 1517 0054 BD46     		mov	sp, r7
 1518              		@ sp needed
 1519 0056 80BD     		pop	{r7, pc}
 1520              	.L121:
 1521              		.align	2
 1522              	.L120:
 1523 0058 38020000 		.word	.LC19
 1524 005c 00000000 		.word	do_send
 1525              		.cfi_endproc
 1526              	.LFE273:
 1527              		.size	netconn_send, .-netconn_send
 1528              		.section	.rodata
 1529 0253 00       		.align	2
 1530              	.LC20:
 1531 0254 6E657463 		.ascii	"netconn_write: invalid conn\000"
 1531      6F6E6E5F 
 1531      77726974 
 1531      653A2069 
 1531      6E76616C 
 1532              		.align	2
 1533              	.LC21:
 1534 0270 6E657463 		.ascii	"netconn_write: invalid conn->type\000"
 1534      6F6E6E5F 
 1534      77726974 
 1534      653A2069 
 1534      6E76616C 
 1535              		.section	.text.netconn_write_partly,"ax",%progbits
 1536              		.align	2
 1537              		.p2align 4,,15
 1538              		.global	netconn_write_partly
 1539              		.thumb
 1540              		.thumb_func
 1541              		.type	netconn_write_partly, %function
 1542              	netconn_write_partly:
 1543              	.LFB274:
 1544              		.loc 2 600 0
 1545              		.cfi_startproc
 1546              		@ args = 4, pretend = 0, frame = 48
 1547              		@ frame_needed = 1, uses_anonymous_args = 0
 1548 0000 80B5     		push	{r7, lr}
 1549              		.cfi_def_cfa_offset 8
 1550              		.cfi_offset 7, -8
 1551              		.cfi_offset 14, -4
 1552 0002 8CB0     		sub	sp, sp, #48
 1553              		.cfi_def_cfa_offset 56
 1554 0004 00AF     		add	r7, sp, #0
 1555              		.cfi_def_cfa_register 7
 1556 0006 F860     		str	r0, [r7, #12]
 1557 0008 B960     		str	r1, [r7, #8]
 1558 000a 7A60     		str	r2, [r7, #4]
ARM GAS  C:\Users\Luis\AppData\Local\Temp\ccw3M05h.s 			page 30


 1559 000c FB70     		strb	r3, [r7, #3]
 1560              		.loc 2 605 0
 1561 000e FB68     		ldr	r3, [r7, #12]
 1562 0010 002B     		cmp	r3, #0
 1563 0012 04D1     		bne	.L123
 1564              		.loc 2 605 0 is_stmt 0 discriminator 1
 1565 0014 3048     		ldr	r0, .L135
 1566 0016 FFF7FEFF 		bl	osalSysHalt
 1567 001a F223     		movs	r3, #242
 1568 001c 57E0     		b	.L134
 1569              	.L123:
 1570              		.loc 2 606 0 is_stmt 1
 1571 001e FB68     		ldr	r3, [r7, #12]
 1572 0020 1B78     		ldrb	r3, [r3]	@ zero_extendqisi2
 1573 0022 102B     		cmp	r3, #16
 1574 0024 04D0     		beq	.L125
 1575              		.loc 2 606 0 is_stmt 0 discriminator 1
 1576 0026 2D48     		ldr	r0, .L135+4
 1577 0028 FFF7FEFF 		bl	osalSysHalt
 1578 002c FA23     		movs	r3, #250
 1579 002e 4EE0     		b	.L134
 1580              	.L125:
 1581              		.loc 2 607 0 is_stmt 1
 1582 0030 7B68     		ldr	r3, [r7, #4]
 1583 0032 002B     		cmp	r3, #0
 1584 0034 01D1     		bne	.L126
 1585              		.loc 2 608 0
 1586 0036 0023     		movs	r3, #0
 1587 0038 49E0     		b	.L134
 1588              	.L126:
 1589              		.loc 2 610 0
 1590 003a FB68     		ldr	r3, [r7, #12]
 1591 003c 1B7F     		ldrb	r3, [r3, #28]	@ zero_extendqisi2
 1592 003e 03F00203 		and	r3, r3, #2
 1593 0042 002B     		cmp	r3, #0
 1594 0044 04D1     		bne	.L127
 1595              		.loc 2 610 0 is_stmt 0 discriminator 2
 1596 0046 FB78     		ldrb	r3, [r7, #3]	@ zero_extendqisi2
 1597 0048 03F00403 		and	r3, r3, #4
 1598 004c 002B     		cmp	r3, #0
 1599 004e 01D0     		beq	.L128
 1600              	.L127:
 1601              		.loc 2 610 0 discriminator 1
 1602 0050 0123     		movs	r3, #1
 1603 0052 00E0     		b	.L129
 1604              	.L128:
 1605              		.loc 2 610 0 discriminator 3
 1606 0054 0023     		movs	r3, #0
 1607              	.L129:
 1608              		.loc 2 610 0 discriminator 4
 1609 0056 87F82F30 		strb	r3, [r7, #47]
 1610              		.loc 2 611 0 is_stmt 1 discriminator 4
 1611 005a 97F82F30 		ldrb	r3, [r7, #47]	@ zero_extendqisi2
 1612 005e 002B     		cmp	r3, #0
 1613 0060 04D0     		beq	.L130
 1614              		.loc 2 611 0 is_stmt 0 discriminator 1
 1615 0062 BB6B     		ldr	r3, [r7, #56]
ARM GAS  C:\Users\Luis\AppData\Local\Temp\ccw3M05h.s 			page 31


 1616 0064 002B     		cmp	r3, #0
 1617 0066 01D1     		bne	.L130
 1618              		.loc 2 614 0 is_stmt 1
 1619 0068 FA23     		movs	r3, #250
 1620 006a 30E0     		b	.L134
 1621              	.L130:
 1622              		.loc 2 618 0
 1623 006c 1C4B     		ldr	r3, .L135+8
 1624 006e 7B61     		str	r3, [r7, #20]
 1625              		.loc 2 619 0
 1626 0070 FB68     		ldr	r3, [r7, #12]
 1627 0072 BB61     		str	r3, [r7, #24]
 1628              		.loc 2 620 0
 1629 0074 BB68     		ldr	r3, [r7, #8]
 1630 0076 3B62     		str	r3, [r7, #32]
 1631              		.loc 2 621 0
 1632 0078 FB78     		ldrb	r3, [r7, #3]
 1633 007a 87F82830 		strb	r3, [r7, #40]
 1634              		.loc 2 622 0
 1635 007e 7B68     		ldr	r3, [r7, #4]
 1636 0080 7B62     		str	r3, [r7, #36]
 1637              		.loc 2 636 0
 1638 0082 07F11403 		add	r3, r7, #20
 1639 0086 1846     		mov	r0, r3
 1640 0088 FFF7FEFF 		bl	tcpip_apimsg
 1641 008c 0346     		mov	r3, r0
 1642 008e 87F82E30 		strb	r3, [r7, #46]
 1643              		.loc 2 637 0
 1644 0092 97F92E30 		ldrsb	r3, [r7, #46]
 1645 0096 002B     		cmp	r3, #0
 1646 0098 0DD1     		bne	.L131
 1647              		.loc 2 637 0 is_stmt 0 discriminator 1
 1648 009a BB6B     		ldr	r3, [r7, #56]
 1649 009c 002B     		cmp	r3, #0
 1650 009e 0AD0     		beq	.L131
 1651              		.loc 2 638 0 is_stmt 1
 1652 00a0 97F82F30 		ldrb	r3, [r7, #47]	@ zero_extendqisi2
 1653 00a4 002B     		cmp	r3, #0
 1654 00a6 03D0     		beq	.L132
 1655              		.loc 2 644 0
 1656 00a8 7A6A     		ldr	r2, [r7, #36]
 1657 00aa BB6B     		ldr	r3, [r7, #56]
 1658 00ac 1A60     		str	r2, [r3]
 1659 00ae 02E0     		b	.L131
 1660              	.L132:
 1661              		.loc 2 647 0
 1662 00b0 BB6B     		ldr	r3, [r7, #56]
 1663 00b2 7A68     		ldr	r2, [r7, #4]
 1664 00b4 1A60     		str	r2, [r3]
 1665              	.L131:
 1666              		.loc 2 651 0
 1667 00b6 FB68     		ldr	r3, [r7, #12]
 1668 00b8 1B7A     		ldrb	r3, [r3, #8]	@ zero_extendqisi2
 1669 00ba 5BB2     		sxtb	r3, r3
 1670 00bc 13F1090F 		cmn	r3, #9
 1671 00c0 03DB     		blt	.L133
 1672              		.loc 2 651 0 is_stmt 0 discriminator 1
ARM GAS  C:\Users\Luis\AppData\Local\Temp\ccw3M05h.s 			page 32


 1673 00c2 FB68     		ldr	r3, [r7, #12]
 1674 00c4 97F82E20 		ldrb	r2, [r7, #46]
 1675 00c8 1A72     		strb	r2, [r3, #8]
 1676              	.L133:
 1677              		.loc 2 652 0 is_stmt 1
 1678 00ca 97F82E30 		ldrb	r3, [r7, #46]	@ zero_extendqisi2
 1679              	.L134:
 1680 00ce 5BB2     		sxtb	r3, r3
 1681              		.loc 2 653 0
 1682 00d0 1846     		mov	r0, r3
 1683 00d2 3037     		adds	r7, r7, #48
 1684 00d4 BD46     		mov	sp, r7
 1685              		@ sp needed
 1686 00d6 80BD     		pop	{r7, pc}
 1687              	.L136:
 1688              		.align	2
 1689              	.L135:
 1690 00d8 54020000 		.word	.LC20
 1691 00dc 70020000 		.word	.LC21
 1692 00e0 00000000 		.word	do_write
 1693              		.cfi_endproc
 1694              	.LFE274:
 1695              		.size	netconn_write_partly, .-netconn_write_partly
 1696 00e4 AFF30080 		.section	.rodata
 1696      AFF30080 
 1696      AFF30080 
 1697 0292 0000     		.align	2
 1698              	.LC22:
 1699 0294 6E657463 		.ascii	"netconn_close: invalid conn\000"
 1699      6F6E6E5F 
 1699      636C6F73 
 1699      653A2069 
 1699      6E76616C 
 1700              		.section	.text.netconn_close_shutdown,"ax",%progbits
 1701              		.align	2
 1702              		.p2align 4,,15
 1703              		.thumb
 1704              		.thumb_func
 1705              		.type	netconn_close_shutdown, %function
 1706              	netconn_close_shutdown:
 1707              	.LFB275:
 1708              		.loc 2 664 0
 1709              		.cfi_startproc
 1710              		@ args = 0, pretend = 0, frame = 40
 1711              		@ frame_needed = 1, uses_anonymous_args = 0
 1712 0000 80B5     		push	{r7, lr}
 1713              		.cfi_def_cfa_offset 8
 1714              		.cfi_offset 7, -8
 1715              		.cfi_offset 14, -4
 1716 0002 8AB0     		sub	sp, sp, #40
 1717              		.cfi_def_cfa_offset 48
 1718 0004 00AF     		add	r7, sp, #0
 1719              		.cfi_def_cfa_register 7
 1720 0006 7860     		str	r0, [r7, #4]
 1721 0008 0B46     		mov	r3, r1
 1722 000a FB70     		strb	r3, [r7, #3]
 1723              		.loc 2 668 0
ARM GAS  C:\Users\Luis\AppData\Local\Temp\ccw3M05h.s 			page 33


 1724 000c 7B68     		ldr	r3, [r7, #4]
 1725 000e 002B     		cmp	r3, #0
 1726 0010 04D1     		bne	.L138
 1727              		.loc 2 668 0 is_stmt 0 discriminator 1
 1728 0012 1248     		ldr	r0, .L142
 1729 0014 FFF7FEFF 		bl	osalSysHalt
 1730 0018 F223     		movs	r3, #242
 1731 001a 19E0     		b	.L141
 1732              	.L138:
 1733              		.loc 2 670 0 is_stmt 1
 1734 001c 104B     		ldr	r3, .L142+4
 1735 001e FB60     		str	r3, [r7, #12]
 1736              		.loc 2 671 0
 1737 0020 7B68     		ldr	r3, [r7, #4]
 1738 0022 3B61     		str	r3, [r7, #16]
 1739              		.loc 2 673 0
 1740 0024 FB78     		ldrb	r3, [r7, #3]
 1741 0026 3B76     		strb	r3, [r7, #24]
 1742              		.loc 2 676 0
 1743 0028 07F10C03 		add	r3, r7, #12
 1744 002c 1846     		mov	r0, r3
 1745 002e FFF7FEFF 		bl	tcpip_apimsg
 1746 0032 0346     		mov	r3, r0
 1747 0034 87F82730 		strb	r3, [r7, #39]
 1748              		.loc 2 678 0
 1749 0038 7B68     		ldr	r3, [r7, #4]
 1750 003a 1B7A     		ldrb	r3, [r3, #8]	@ zero_extendqisi2
 1751 003c 5BB2     		sxtb	r3, r3
 1752 003e 13F1090F 		cmn	r3, #9
 1753 0042 03DB     		blt	.L140
 1754              		.loc 2 678 0 is_stmt 0 discriminator 1
 1755 0044 7B68     		ldr	r3, [r7, #4]
 1756 0046 97F82720 		ldrb	r2, [r7, #39]
 1757 004a 1A72     		strb	r2, [r3, #8]
 1758              	.L140:
 1759              		.loc 2 679 0 is_stmt 1
 1760 004c 97F82730 		ldrb	r3, [r7, #39]	@ zero_extendqisi2
 1761              	.L141:
 1762 0050 5BB2     		sxtb	r3, r3
 1763              		.loc 2 680 0
 1764 0052 1846     		mov	r0, r3
 1765 0054 2837     		adds	r7, r7, #40
 1766 0056 BD46     		mov	sp, r7
 1767              		@ sp needed
 1768 0058 80BD     		pop	{r7, pc}
 1769              	.L143:
 1770 005a 00BF     		.align	2
 1771              	.L142:
 1772 005c 94020000 		.word	.LC22
 1773 0060 00000000 		.word	do_close
 1774              		.cfi_endproc
 1775              	.LFE275:
 1776              		.size	netconn_close_shutdown, .-netconn_close_shutdown
 1777 0064 AFF30080 		.section	.text.netconn_close,"ax",%progbits
 1777      AFF30080 
 1777      AFF30080 
 1778              		.align	2
ARM GAS  C:\Users\Luis\AppData\Local\Temp\ccw3M05h.s 			page 34


 1779              		.p2align 4,,15
 1780              		.global	netconn_close
 1781              		.thumb
 1782              		.thumb_func
 1783              		.type	netconn_close, %function
 1784              	netconn_close:
 1785              	.LFB276:
 1786              		.loc 2 690 0
 1787              		.cfi_startproc
 1788              		@ args = 0, pretend = 0, frame = 8
 1789              		@ frame_needed = 1, uses_anonymous_args = 0
 1790 0000 80B5     		push	{r7, lr}
 1791              		.cfi_def_cfa_offset 8
 1792              		.cfi_offset 7, -8
 1793              		.cfi_offset 14, -4
 1794 0002 82B0     		sub	sp, sp, #8
 1795              		.cfi_def_cfa_offset 16
 1796 0004 00AF     		add	r7, sp, #0
 1797              		.cfi_def_cfa_register 7
 1798 0006 7860     		str	r0, [r7, #4]
 1799              		.loc 2 692 0
 1800 0008 7868     		ldr	r0, [r7, #4]
 1801 000a 0321     		movs	r1, #3
 1802 000c FFF7FEFF 		bl	netconn_close_shutdown
 1803 0010 0346     		mov	r3, r0
 1804              		.loc 2 693 0
 1805 0012 1846     		mov	r0, r3
 1806 0014 0837     		adds	r7, r7, #8
 1807 0016 BD46     		mov	sp, r7
 1808              		@ sp needed
 1809 0018 80BD     		pop	{r7, pc}
 1810              		.cfi_endproc
 1811              	.LFE276:
 1812              		.size	netconn_close, .-netconn_close
 1813 001a 00BFAFF3 		.section	.text.netconn_shutdown,"ax",%progbits
 1813      0080
 1814              		.align	2
 1815              		.p2align 4,,15
 1816              		.global	netconn_shutdown
 1817              		.thumb
 1818              		.thumb_func
 1819              		.type	netconn_shutdown, %function
 1820              	netconn_shutdown:
 1821              	.LFB277:
 1822              		.loc 2 703 0
 1823              		.cfi_startproc
 1824              		@ args = 0, pretend = 0, frame = 8
 1825              		@ frame_needed = 1, uses_anonymous_args = 0
 1826 0000 80B5     		push	{r7, lr}
 1827              		.cfi_def_cfa_offset 8
 1828              		.cfi_offset 7, -8
 1829              		.cfi_offset 14, -4
 1830 0002 82B0     		sub	sp, sp, #8
 1831              		.cfi_def_cfa_offset 16
 1832 0004 00AF     		add	r7, sp, #0
 1833              		.cfi_def_cfa_register 7
 1834 0006 7860     		str	r0, [r7, #4]
ARM GAS  C:\Users\Luis\AppData\Local\Temp\ccw3M05h.s 			page 35


 1835 0008 1346     		mov	r3, r2
 1836 000a 0A46     		mov	r2, r1
 1837 000c FA70     		strb	r2, [r7, #3]
 1838 000e BB70     		strb	r3, [r7, #2]
 1839              		.loc 2 704 0
 1840 0010 FB78     		ldrb	r3, [r7, #3]	@ zero_extendqisi2
 1841 0012 002B     		cmp	r3, #0
 1842 0014 0CBF     		ite	eq
 1843 0016 0023     		moveq	r3, #0
 1844 0018 0123     		movne	r3, #1
 1845 001a DBB2     		uxtb	r3, r3
 1846 001c DAB2     		uxtb	r2, r3
 1847 001e BB78     		ldrb	r3, [r7, #2]	@ zero_extendqisi2
 1848 0020 002B     		cmp	r3, #0
 1849 0022 01D0     		beq	.L147
 1850              		.loc 2 704 0 is_stmt 0 discriminator 1
 1851 0024 0223     		movs	r3, #2
 1852 0026 00E0     		b	.L148
 1853              	.L147:
 1854              		.loc 2 704 0 discriminator 2
 1855 0028 0023     		movs	r3, #0
 1856              	.L148:
 1857              		.loc 2 704 0 discriminator 3
 1858 002a 1343     		orrs	r3, r3, r2
 1859 002c DBB2     		uxtb	r3, r3
 1860 002e DBB2     		uxtb	r3, r3
 1861 0030 7868     		ldr	r0, [r7, #4]
 1862 0032 1946     		mov	r1, r3
 1863 0034 FFF7FEFF 		bl	netconn_close_shutdown
 1864 0038 0346     		mov	r3, r0
 1865              		.loc 2 705 0 is_stmt 1 discriminator 3
 1866 003a 1846     		mov	r0, r3
 1867 003c 0837     		adds	r7, r7, #8
 1868 003e BD46     		mov	sp, r7
 1869              		@ sp needed
 1870 0040 80BD     		pop	{r7, pc}
 1871              		.cfi_endproc
 1872              	.LFE277:
 1873              		.size	netconn_shutdown, .-netconn_shutdown
 1874 0042 00BFAFF3 		.text
 1874      0080AFF3 
 1874      0080AFF3 
 1874      0080
 1875              	.Letext0:
 1876              		.file 3 "c:\\emtechesdk\\gcc\\lib\\gcc\\arm-none-eabi\\4.8.3\\include\\stddef.h"
 1877              		.file 4 "c:\\emtechesdk\\gcc\\arm-none-eabi\\include\\stdint.h"
 1878              		.file 5 "../../ChibiOS/os/rt/ports/ARMCMx/compilers/GCC/chtypes.h"
 1879              		.file 6 "../../ChibiOS/os/rt/include/chsystypes.h"
 1880              		.file 7 "../../ChibiOS/os/rt/include/chschd.h"
 1881              		.file 8 "../../ChibiOS/os/rt/ports/ARMCMx/chcore.h"
 1882              		.file 9 "../../ChibiOS/os/rt/ports/ARMCMx/chcore_v7m.h"
 1883              		.file 10 "../../ChibiOS/os/rt/include/chdebug.h"
 1884              		.file 11 "../../ChibiOS/os/rt/include/chtm.h"
 1885              		.file 12 "../../ChibiOS/os/rt/include/chstats.h"
 1886              		.file 13 "../../ChibiOS/os/rt/include/chsem.h"
 1887              		.file 14 "../../ChibiOS/os/rt/include/chmtx.h"
 1888              		.file 15 "../../ChibiOS/os/rt/include/chmboxes.h"
ARM GAS  C:\Users\Luis\AppData\Local\Temp\ccw3M05h.s 			page 36


 1889              		.file 16 "../../ChibiOS/os/various/lwip_bindings/arch/cc.h"
 1890              		.file 17 "../../ChibiOS/ext/lwip/src/include/lwip/err.h"
 1891              		.file 18 "../../ChibiOS/ext/lwip/src/include/lwip/pbuf.h"
 1892              		.file 19 "../../ChibiOS/ext/lwip/src/include/ipv4/lwip/ip_addr.h"
 1893              		.file 20 "../../ChibiOS/ext/lwip/src/include/lwip/netbuf.h"
 1894              		.file 21 "../../ChibiOS/os/various/lwip_bindings/arch/sys_arch.h"
 1895              		.file 22 "../../ChibiOS/ext/lwip/src/include/lwip/api.h"
 1896              		.file 23 "../../ChibiOS/ext/lwip/src/include/ipv4/lwip/ip.h"
 1897              		.file 24 "../../ChibiOS/ext/lwip/src/include/lwip/tcp.h"
 1898              		.file 25 "../../ChibiOS/ext/lwip/src/include/lwip/udp.h"
 1899              		.file 26 "../../ChibiOS/ext/lwip/src/include/lwip/raw.h"
 1900              		.file 27 "../../ChibiOS/ext/lwip/src/include/lwip/api_msg.h"
 1901              		.file 28 "../../ChibiOS/ext/lwip/src/include/lwip/memp.h"
 1902              		.file 29 "../../ChibiOS/os/ext/CMSIS/include/core_cm4.h"