ARM GAS  C:\Users\Luis\AppData\Local\Temp\ccd19DXF.s 			page 1


   1              		.syntax unified
   2              		.cpu cortex-m4
   3              		.fpu softvfp
   4              		.eabi_attribute 20, 1
   5              		.eabi_attribute 21, 1
   6              		.eabi_attribute 23, 3
   7              		.eabi_attribute 24, 1
   8              		.eabi_attribute 25, 1
   9              		.eabi_attribute 26, 1
  10              		.eabi_attribute 30, 6
  11              		.eabi_attribute 34, 1
  12              		.eabi_attribute 18, 4
  13              		.thumb
  14              		.file	"api_msg.c"
  15              		.text
  16              	.Ltext0:
  17              		.cfi_sections	.debug_frame
  18              		.section	.text.osalSysHalt,"ax",%progbits
  19              		.align	2
  20              		.p2align 4,,15
  21              		.thumb
  22              		.thumb_func
  23              		.type	osalSysHalt, %function
  24              	osalSysHalt:
  25              	.LFB230:
  26              		.file 1 "../../ChibiOS/os/hal/osal/rt/osal.h"
  27              		.loc 1 460 0
  28              		.cfi_startproc
  29              		@ args = 0, pretend = 0, frame = 8
  30              		@ frame_needed = 1, uses_anonymous_args = 0
  31 0000 80B5     		push	{r7, lr}
  32              		.cfi_def_cfa_offset 8
  33              		.cfi_offset 7, -8
  34              		.cfi_offset 14, -4
  35 0002 82B0     		sub	sp, sp, #8
  36              		.cfi_def_cfa_offset 16
  37 0004 00AF     		add	r7, sp, #0
  38              		.cfi_def_cfa_register 7
  39 0006 7860     		str	r0, [r7, #4]
  40              		.loc 1 462 0
  41 0008 7868     		ldr	r0, [r7, #4]
  42 000a FFF7FEFF 		bl	chSysHalt
  43              		.loc 1 463 0
  44 000e 0837     		adds	r7, r7, #8
  45 0010 BD46     		mov	sp, r7
  46              		@ sp needed
  47 0012 80BD     		pop	{r7, pc}
  48              		.cfi_endproc
  49              	.LFE230:
  50              		.size	osalSysHalt, .-osalSysHalt
  51 0014 AFF30080 		.section	.text.recv_raw,"ax",%progbits
  51      AFF30080 
  51      AFF30080 
  52              		.align	2
  53              		.p2align 4,,15
  54              		.thumb
  55              		.thumb_func
ARM GAS  C:\Users\Luis\AppData\Local\Temp\ccd19DXF.s 			page 2


  56              		.type	recv_raw, %function
  57              	recv_raw:
  58              	.LFB260:
  59              		.file 2 "../../ChibiOS/ext/lwip/src/api/api_msg.c"
  60              		.loc 2 80 0
  61              		.cfi_startproc
  62              		@ args = 0, pretend = 0, frame = 32
  63              		@ frame_needed = 1, uses_anonymous_args = 0
  64 0000 80B5     		push	{r7, lr}
  65              		.cfi_def_cfa_offset 8
  66              		.cfi_offset 7, -8
  67              		.cfi_offset 14, -4
  68 0002 88B0     		sub	sp, sp, #32
  69              		.cfi_def_cfa_offset 40
  70 0004 00AF     		add	r7, sp, #0
  71              		.cfi_def_cfa_register 7
  72 0006 F860     		str	r0, [r7, #12]
  73 0008 B960     		str	r1, [r7, #8]
  74 000a 7A60     		str	r2, [r7, #4]
  75 000c 3B60     		str	r3, [r7]
  76              		.loc 2 86 0
  77 000e FB68     		ldr	r3, [r7, #12]
  78 0010 BB61     		str	r3, [r7, #24]
  79              		.loc 2 88 0
  80 0012 BB69     		ldr	r3, [r7, #24]
  81 0014 002B     		cmp	r3, #0
  82 0016 57D0     		beq	.L3
  83              		.loc 2 88 0 is_stmt 0 discriminator 1
  84 0018 BB69     		ldr	r3, [r7, #24]
  85 001a 1033     		adds	r3, r3, #16
  86 001c 1846     		mov	r0, r3
  87 001e FFF7FEFF 		bl	sys_mbox_valid
  88 0022 0346     		mov	r3, r0
  89 0024 002B     		cmp	r3, #0
  90 0026 4FD0     		beq	.L3
  91              		.loc 2 97 0 is_stmt 1
  92 0028 7B68     		ldr	r3, [r7, #4]
  93 002a 1B89     		ldrh	r3, [r3, #8]
  94 002c 0320     		movs	r0, #3
  95 002e 1946     		mov	r1, r3
  96 0030 0022     		movs	r2, #0
  97 0032 FFF7FEFF 		bl	pbuf_alloc
  98 0036 F861     		str	r0, [r7, #28]
  99              		.loc 2 98 0
 100 0038 FB69     		ldr	r3, [r7, #28]
 101 003a 002B     		cmp	r3, #0
 102 003c 0BD0     		beq	.L4
 103              		.loc 2 99 0
 104 003e F869     		ldr	r0, [r7, #28]
 105 0040 7968     		ldr	r1, [r7, #4]
 106 0042 FFF7FEFF 		bl	pbuf_copy
 107 0046 0346     		mov	r3, r0
 108 0048 002B     		cmp	r3, #0
 109 004a 04D0     		beq	.L4
 110              		.loc 2 100 0
 111 004c F869     		ldr	r0, [r7, #28]
 112 004e FFF7FEFF 		bl	pbuf_free
ARM GAS  C:\Users\Luis\AppData\Local\Temp\ccd19DXF.s 			page 3


 113              		.loc 2 101 0
 114 0052 0023     		movs	r3, #0
 115 0054 FB61     		str	r3, [r7, #28]
 116              	.L4:
 117              		.loc 2 105 0
 118 0056 FB69     		ldr	r3, [r7, #28]
 119 0058 002B     		cmp	r3, #0
 120 005a 35D0     		beq	.L3
 121              	.LBB2:
 122              		.loc 2 107 0
 123 005c 0720     		movs	r0, #7
 124 005e FFF7FEFF 		bl	memp_malloc
 125 0062 7861     		str	r0, [r7, #20]
 126              		.loc 2 108 0
 127 0064 7B69     		ldr	r3, [r7, #20]
 128 0066 002B     		cmp	r3, #0
 129 0068 04D1     		bne	.L5
 130              		.loc 2 109 0
 131 006a F869     		ldr	r0, [r7, #28]
 132 006c FFF7FEFF 		bl	pbuf_free
 133              		.loc 2 110 0
 134 0070 0023     		movs	r3, #0
 135 0072 2AE0     		b	.L6
 136              	.L5:
 137              		.loc 2 113 0
 138 0074 7B69     		ldr	r3, [r7, #20]
 139 0076 FA69     		ldr	r2, [r7, #28]
 140 0078 1A60     		str	r2, [r3]
 141              		.loc 2 114 0
 142 007a 7B69     		ldr	r3, [r7, #20]
 143 007c FA69     		ldr	r2, [r7, #28]
 144 007e 5A60     		str	r2, [r3, #4]
 145              		.loc 2 115 0
 146 0080 144B     		ldr	r3, .L8
 147 0082 1A68     		ldr	r2, [r3]
 148 0084 7B69     		ldr	r3, [r7, #20]
 149 0086 9A60     		str	r2, [r3, #8]
 150              		.loc 2 116 0
 151 0088 BB68     		ldr	r3, [r7, #8]
 152 008a 1B7C     		ldrb	r3, [r3, #16]	@ zero_extendqisi2
 153 008c 1A46     		mov	r2, r3
 154 008e 7B69     		ldr	r3, [r7, #20]
 155 0090 9A81     		strh	r2, [r3, #12]	@ movhi
 156              		.loc 2 118 0
 157 0092 FB69     		ldr	r3, [r7, #28]
 158 0094 1B89     		ldrh	r3, [r3, #8]	@ movhi
 159 0096 7B82     		strh	r3, [r7, #18]	@ movhi
 160              		.loc 2 119 0
 161 0098 BB69     		ldr	r3, [r7, #24]
 162 009a 1033     		adds	r3, r3, #16
 163 009c 1846     		mov	r0, r3
 164 009e 7969     		ldr	r1, [r7, #20]
 165 00a0 FFF7FEFF 		bl	sys_mbox_trypost
 166 00a4 0346     		mov	r3, r0
 167 00a6 002B     		cmp	r3, #0
 168 00a8 04D0     		beq	.L7
 169              		.loc 2 120 0
ARM GAS  C:\Users\Luis\AppData\Local\Temp\ccd19DXF.s 			page 4


 170 00aa 7869     		ldr	r0, [r7, #20]
 171 00ac FFF7FEFF 		bl	netbuf_delete
 172              		.loc 2 121 0
 173 00b0 0023     		movs	r3, #0
 174 00b2 0AE0     		b	.L6
 175              	.L7:
 176              		.loc 2 127 0
 177 00b4 BB69     		ldr	r3, [r7, #24]
 178 00b6 9B6A     		ldr	r3, [r3, #40]
 179 00b8 002B     		cmp	r3, #0
 180 00ba 05D0     		beq	.L3
 181              		.loc 2 127 0 is_stmt 0 discriminator 1
 182 00bc BB69     		ldr	r3, [r7, #24]
 183 00be 9B6A     		ldr	r3, [r3, #40]
 184 00c0 7A8A     		ldrh	r2, [r7, #18]
 185 00c2 B869     		ldr	r0, [r7, #24]
 186 00c4 0021     		movs	r1, #0
 187 00c6 9847     		blx	r3
 188              	.L3:
 189              	.LBE2:
 190              		.loc 2 132 0 is_stmt 1
 191 00c8 0023     		movs	r3, #0
 192              	.L6:
 193              		.loc 2 133 0
 194 00ca 1846     		mov	r0, r3
 195 00cc 2037     		adds	r7, r7, #32
 196 00ce BD46     		mov	sp, r7
 197              		@ sp needed
 198 00d0 80BD     		pop	{r7, pc}
 199              	.L9:
 200 00d2 00BF     		.align	2
 201              	.L8:
 202 00d4 00000000 		.word	current_iphdr_src
 203              		.cfi_endproc
 204              	.LFE260:
 205              		.size	recv_raw, .-recv_raw
 206 00d8 AFF30080 		.section	.rodata
 206      AFF30080 
 207              		.align	2
 208              	.LC0:
 209 0000 72656376 		.ascii	"recv_udp must have a pcb argument\000"
 209      5F756470 
 209      206D7573 
 209      74206861 
 209      76652061 
 210 0022 0000     		.align	2
 211              	.LC1:
 212 0024 72656376 		.ascii	"recv_udp must have an argument\000"
 212      5F756470 
 212      206D7573 
 212      74206861 
 212      76652061 
 213 0043 00       		.align	2
 214              	.LC2:
 215 0044 72656376 		.ascii	"recv_udp: recv for wrong pcb!\000"
 215      5F756470 
 215      3A207265 
ARM GAS  C:\Users\Luis\AppData\Local\Temp\ccd19DXF.s 			page 5


 215      63762066 
 215      6F722077 
 216              		.section	.text.recv_udp,"ax",%progbits
 217              		.align	2
 218              		.p2align 4,,15
 219              		.thumb
 220              		.thumb_func
 221              		.type	recv_udp, %function
 222              	recv_udp:
 223              	.LFB261:
 224              		.loc 2 146 0
 225              		.cfi_startproc
 226              		@ args = 4, pretend = 0, frame = 32
 227              		@ frame_needed = 1, uses_anonymous_args = 0
 228 0000 80B5     		push	{r7, lr}
 229              		.cfi_def_cfa_offset 8
 230              		.cfi_offset 7, -8
 231              		.cfi_offset 14, -4
 232 0002 88B0     		sub	sp, sp, #32
 233              		.cfi_def_cfa_offset 40
 234 0004 00AF     		add	r7, sp, #0
 235              		.cfi_def_cfa_register 7
 236 0006 F860     		str	r0, [r7, #12]
 237 0008 B960     		str	r1, [r7, #8]
 238 000a 7A60     		str	r2, [r7, #4]
 239 000c 3B60     		str	r3, [r7]
 240              		.loc 2 155 0
 241 000e BB68     		ldr	r3, [r7, #8]
 242 0010 002B     		cmp	r3, #0
 243 0012 02D1     		bne	.L11
 244              		.loc 2 155 0 is_stmt 0 discriminator 1
 245 0014 2D48     		ldr	r0, .L21
 246 0016 FFF7FEFF 		bl	osalSysHalt
 247              	.L11:
 248              		.loc 2 156 0 is_stmt 1
 249 001a FB68     		ldr	r3, [r7, #12]
 250 001c 002B     		cmp	r3, #0
 251 001e 02D1     		bne	.L12
 252              		.loc 2 156 0 is_stmt 0 discriminator 1
 253 0020 2B48     		ldr	r0, .L21+4
 254 0022 FFF7FEFF 		bl	osalSysHalt
 255              	.L12:
 256              		.loc 2 157 0 is_stmt 1
 257 0026 FB68     		ldr	r3, [r7, #12]
 258 0028 FB61     		str	r3, [r7, #28]
 259              		.loc 2 158 0
 260 002a FB69     		ldr	r3, [r7, #28]
 261 002c 5A68     		ldr	r2, [r3, #4]
 262 002e BB68     		ldr	r3, [r7, #8]
 263 0030 9A42     		cmp	r2, r3
 264 0032 02D0     		beq	.L13
 265              		.loc 2 158 0 is_stmt 0 discriminator 1
 266 0034 2748     		ldr	r0, .L21+8
 267 0036 FFF7FEFF 		bl	osalSysHalt
 268              	.L13:
 269              		.loc 2 165 0 is_stmt 1
 270 003a FB69     		ldr	r3, [r7, #28]
ARM GAS  C:\Users\Luis\AppData\Local\Temp\ccd19DXF.s 			page 6


 271 003c 002B     		cmp	r3, #0
 272 003e 07D0     		beq	.L14
 273              		.loc 2 165 0 is_stmt 0 discriminator 1
 274 0040 FB69     		ldr	r3, [r7, #28]
 275 0042 1033     		adds	r3, r3, #16
 276 0044 1846     		mov	r0, r3
 277 0046 FFF7FEFF 		bl	sys_mbox_valid
 278 004a 0346     		mov	r3, r0
 279 004c 002B     		cmp	r3, #0
 280 004e 03D1     		bne	.L15
 281              	.L14:
 282              		.loc 2 167 0 is_stmt 1
 283 0050 7868     		ldr	r0, [r7, #4]
 284 0052 FFF7FEFF 		bl	pbuf_free
 285              		.loc 2 168 0
 286 0056 36E0     		b	.L10
 287              	.L15:
 288              		.loc 2 171 0
 289 0058 0720     		movs	r0, #7
 290 005a FFF7FEFF 		bl	memp_malloc
 291 005e B861     		str	r0, [r7, #24]
 292              		.loc 2 172 0
 293 0060 BB69     		ldr	r3, [r7, #24]
 294 0062 002B     		cmp	r3, #0
 295 0064 03D1     		bne	.L17
 296              		.loc 2 173 0
 297 0066 7868     		ldr	r0, [r7, #4]
 298 0068 FFF7FEFF 		bl	pbuf_free
 299              		.loc 2 174 0
 300 006c 2BE0     		b	.L10
 301              	.L17:
 302              		.loc 2 176 0
 303 006e BB69     		ldr	r3, [r7, #24]
 304 0070 7A68     		ldr	r2, [r7, #4]
 305 0072 1A60     		str	r2, [r3]
 306              		.loc 2 177 0
 307 0074 BB69     		ldr	r3, [r7, #24]
 308 0076 7A68     		ldr	r2, [r7, #4]
 309 0078 5A60     		str	r2, [r3, #4]
 310              		.loc 2 178 0
 311 007a 3B68     		ldr	r3, [r7]
 312 007c 002B     		cmp	r3, #0
 313 007e 02D0     		beq	.L18
 314              		.loc 2 178 0 is_stmt 0 discriminator 1
 315 0080 3B68     		ldr	r3, [r7]
 316 0082 1B68     		ldr	r3, [r3]
 317 0084 00E0     		b	.L19
 318              	.L18:
 319              		.loc 2 178 0 discriminator 2
 320 0086 0023     		movs	r3, #0
 321              	.L19:
 322              		.loc 2 178 0 discriminator 3
 323 0088 BA69     		ldr	r2, [r7, #24]
 324 008a 9360     		str	r3, [r2, #8]
 325              		.loc 2 179 0 is_stmt 1 discriminator 3
 326 008c BB69     		ldr	r3, [r7, #24]
 327 008e 3A8D     		ldrh	r2, [r7, #40]	@ movhi
ARM GAS  C:\Users\Luis\AppData\Local\Temp\ccd19DXF.s 			page 7


 328 0090 9A81     		strh	r2, [r3, #12]	@ movhi
 329              		.loc 2 194 0 discriminator 3
 330 0092 7B68     		ldr	r3, [r7, #4]
 331 0094 1B89     		ldrh	r3, [r3, #8]	@ movhi
 332 0096 FB82     		strh	r3, [r7, #22]	@ movhi
 333              		.loc 2 195 0 discriminator 3
 334 0098 FB69     		ldr	r3, [r7, #28]
 335 009a 1033     		adds	r3, r3, #16
 336 009c 1846     		mov	r0, r3
 337 009e B969     		ldr	r1, [r7, #24]
 338 00a0 FFF7FEFF 		bl	sys_mbox_trypost
 339 00a4 0346     		mov	r3, r0
 340 00a6 002B     		cmp	r3, #0
 341 00a8 03D0     		beq	.L20
 342              		.loc 2 196 0
 343 00aa B869     		ldr	r0, [r7, #24]
 344 00ac FFF7FEFF 		bl	netbuf_delete
 345              		.loc 2 197 0
 346 00b0 09E0     		b	.L10
 347              	.L20:
 348              		.loc 2 203 0
 349 00b2 FB69     		ldr	r3, [r7, #28]
 350 00b4 9B6A     		ldr	r3, [r3, #40]
 351 00b6 002B     		cmp	r3, #0
 352 00b8 05D0     		beq	.L10
 353              		.loc 2 203 0 is_stmt 0 discriminator 1
 354 00ba FB69     		ldr	r3, [r7, #28]
 355 00bc 9B6A     		ldr	r3, [r3, #40]
 356 00be FA8A     		ldrh	r2, [r7, #22]
 357 00c0 F869     		ldr	r0, [r7, #28]
 358 00c2 0021     		movs	r1, #0
 359 00c4 9847     		blx	r3
 360              	.L10:
 361              		.loc 2 205 0 is_stmt 1
 362 00c6 2037     		adds	r7, r7, #32
 363 00c8 BD46     		mov	sp, r7
 364              		@ sp needed
 365 00ca 80BD     		pop	{r7, pc}
 366              	.L22:
 367              		.align	2
 368              	.L21:
 369 00cc 00000000 		.word	.LC0
 370 00d0 24000000 		.word	.LC1
 371 00d4 44000000 		.word	.LC2
 372              		.cfi_endproc
 373              	.LFE261:
 374              		.size	recv_udp, .-recv_udp
 375 00d8 AFF30080 		.section	.rodata
 375      AFF30080 
 376 0062 0000     		.align	2
 377              	.LC3:
 378 0064 72656376 		.ascii	"recv_tcp must have a pcb argument\000"
 378      5F746370 
 378      206D7573 
 378      74206861 
 378      76652061 
 379 0086 0000     		.align	2
ARM GAS  C:\Users\Luis\AppData\Local\Temp\ccd19DXF.s 			page 8


 380              	.LC4:
 381 0088 72656376 		.ascii	"recv_tcp must have an argument\000"
 381      5F746370 
 381      206D7573 
 381      74206861 
 381      76652061 
 382 00a7 00       		.align	2
 383              	.LC5:
 384 00a8 72656376 		.ascii	"recv_tcp: recv for wrong pcb!\000"
 384      5F746370 
 384      3A207265 
 384      63762066 
 384      6F722077 
 385              		.section	.text.recv_tcp,"ax",%progbits
 386              		.align	2
 387              		.p2align 4,,15
 388              		.thumb
 389              		.thumb_func
 390              		.type	recv_tcp, %function
 391              	recv_tcp:
 392              	.LFB262:
 393              		.loc 2 217 0
 394              		.cfi_startproc
 395              		@ args = 0, pretend = 0, frame = 24
 396              		@ frame_needed = 1, uses_anonymous_args = 0
 397 0000 80B5     		push	{r7, lr}
 398              		.cfi_def_cfa_offset 8
 399              		.cfi_offset 7, -8
 400              		.cfi_offset 14, -4
 401 0002 86B0     		sub	sp, sp, #24
 402              		.cfi_def_cfa_offset 32
 403 0004 00AF     		add	r7, sp, #0
 404              		.cfi_def_cfa_register 7
 405 0006 F860     		str	r0, [r7, #12]
 406 0008 B960     		str	r1, [r7, #8]
 407 000a 7A60     		str	r2, [r7, #4]
 408 000c FB70     		strb	r3, [r7, #3]
 409              		.loc 2 222 0
 410 000e BB68     		ldr	r3, [r7, #8]
 411 0010 002B     		cmp	r3, #0
 412 0012 02D1     		bne	.L24
 413              		.loc 2 222 0 is_stmt 0 discriminator 1
 414 0014 2D48     		ldr	r0, .L36
 415 0016 FFF7FEFF 		bl	osalSysHalt
 416              	.L24:
 417              		.loc 2 223 0 is_stmt 1
 418 001a FB68     		ldr	r3, [r7, #12]
 419 001c 002B     		cmp	r3, #0
 420 001e 02D1     		bne	.L25
 421              		.loc 2 223 0 is_stmt 0 discriminator 1
 422 0020 2B48     		ldr	r0, .L36+4
 423 0022 FFF7FEFF 		bl	osalSysHalt
 424              	.L25:
 425              		.loc 2 224 0 is_stmt 1
 426 0026 FB68     		ldr	r3, [r7, #12]
 427 0028 3B61     		str	r3, [r7, #16]
 428              		.loc 2 225 0
ARM GAS  C:\Users\Luis\AppData\Local\Temp\ccd19DXF.s 			page 9


 429 002a 3B69     		ldr	r3, [r7, #16]
 430 002c 5A68     		ldr	r2, [r3, #4]
 431 002e BB68     		ldr	r3, [r7, #8]
 432 0030 9A42     		cmp	r2, r3
 433 0032 02D0     		beq	.L26
 434              		.loc 2 225 0 is_stmt 0 discriminator 1
 435 0034 2748     		ldr	r0, .L36+8
 436 0036 FFF7FEFF 		bl	osalSysHalt
 437              	.L26:
 438              		.loc 2 227 0 is_stmt 1
 439 003a 3B69     		ldr	r3, [r7, #16]
 440 003c 002B     		cmp	r3, #0
 441 003e 01D1     		bne	.L27
 442              		.loc 2 228 0
 443 0040 FA23     		movs	r3, #250
 444 0042 3DE0     		b	.L28
 445              	.L27:
 446              		.loc 2 230 0
 447 0044 3B69     		ldr	r3, [r7, #16]
 448 0046 1033     		adds	r3, r3, #16
 449 0048 1846     		mov	r0, r3
 450 004a FFF7FEFF 		bl	sys_mbox_valid
 451 004e 0346     		mov	r3, r0
 452 0050 002B     		cmp	r3, #0
 453 0052 0DD1     		bne	.L29
 454              		.loc 2 232 0
 455 0054 7B68     		ldr	r3, [r7, #4]
 456 0056 002B     		cmp	r3, #0
 457 0058 08D0     		beq	.L30
 458              		.loc 2 233 0
 459 005a 7B68     		ldr	r3, [r7, #4]
 460 005c 1B89     		ldrh	r3, [r3, #8]
 461 005e B868     		ldr	r0, [r7, #8]
 462 0060 1946     		mov	r1, r3
 463 0062 FFF7FEFF 		bl	tcp_recved
 464              		.loc 2 234 0
 465 0066 7868     		ldr	r0, [r7, #4]
 466 0068 FFF7FEFF 		bl	pbuf_free
 467              	.L30:
 468              		.loc 2 236 0
 469 006c 0023     		movs	r3, #0
 470 006e 27E0     		b	.L28
 471              	.L29:
 472              		.loc 2 243 0
 473 0070 3B69     		ldr	r3, [r7, #16]
 474 0072 1B7A     		ldrb	r3, [r3, #8]	@ zero_extendqisi2
 475 0074 5BB2     		sxtb	r3, r3
 476 0076 13F1090F 		cmn	r3, #9
 477 007a 02DB     		blt	.L31
 478              		.loc 2 243 0 is_stmt 0 discriminator 1
 479 007c 3B69     		ldr	r3, [r7, #16]
 480 007e FA78     		ldrb	r2, [r7, #3]
 481 0080 1A72     		strb	r2, [r3, #8]
 482              	.L31:
 483              		.loc 2 245 0 is_stmt 1
 484 0082 7B68     		ldr	r3, [r7, #4]
 485 0084 002B     		cmp	r3, #0
ARM GAS  C:\Users\Luis\AppData\Local\Temp\ccd19DXF.s 			page 10


 486 0086 03D0     		beq	.L32
 487              		.loc 2 246 0
 488 0088 7B68     		ldr	r3, [r7, #4]
 489 008a 1B89     		ldrh	r3, [r3, #8]	@ movhi
 490 008c FB82     		strh	r3, [r7, #22]	@ movhi
 491 008e 01E0     		b	.L33
 492              	.L32:
 493              		.loc 2 248 0
 494 0090 0023     		movs	r3, #0
 495 0092 FB82     		strh	r3, [r7, #22]	@ movhi
 496              	.L33:
 497              		.loc 2 251 0
 498 0094 3B69     		ldr	r3, [r7, #16]
 499 0096 1033     		adds	r3, r3, #16
 500 0098 1846     		mov	r0, r3
 501 009a 7968     		ldr	r1, [r7, #4]
 502 009c FFF7FEFF 		bl	sys_mbox_trypost
 503 00a0 0346     		mov	r3, r0
 504 00a2 002B     		cmp	r3, #0
 505 00a4 01D0     		beq	.L34
 506              		.loc 2 253 0
 507 00a6 FF23     		movs	r3, #255
 508 00a8 0AE0     		b	.L28
 509              	.L34:
 510              		.loc 2 259 0
 511 00aa 3B69     		ldr	r3, [r7, #16]
 512 00ac 9B6A     		ldr	r3, [r3, #40]
 513 00ae 002B     		cmp	r3, #0
 514 00b0 05D0     		beq	.L35
 515              		.loc 2 259 0 is_stmt 0 discriminator 1
 516 00b2 3B69     		ldr	r3, [r7, #16]
 517 00b4 9B6A     		ldr	r3, [r3, #40]
 518 00b6 FA8A     		ldrh	r2, [r7, #22]
 519 00b8 3869     		ldr	r0, [r7, #16]
 520 00ba 0021     		movs	r1, #0
 521 00bc 9847     		blx	r3
 522              	.L35:
 523              		.loc 2 262 0 is_stmt 1
 524 00be 0023     		movs	r3, #0
 525              	.L28:
 526 00c0 5BB2     		sxtb	r3, r3
 527              		.loc 2 263 0
 528 00c2 1846     		mov	r0, r3
 529 00c4 1837     		adds	r7, r7, #24
 530 00c6 BD46     		mov	sp, r7
 531              		@ sp needed
 532 00c8 80BD     		pop	{r7, pc}
 533              	.L37:
 534 00ca 00BF     		.align	2
 535              	.L36:
 536 00cc 64000000 		.word	.LC3
 537 00d0 88000000 		.word	.LC4
 538 00d4 A8000000 		.word	.LC5
 539              		.cfi_endproc
 540              	.LFE262:
 541              		.size	recv_tcp, .-recv_tcp
 542 00d8 AFF30080 		.section	.rodata
ARM GAS  C:\Users\Luis\AppData\Local\Temp\ccd19DXF.s 			page 11


 542      AFF30080 
 543 00c6 0000     		.align	2
 544              	.LC6:
 545 00c8 636F6E6E 		.ascii	"conn != NULL\000"
 545      20213D20 
 545      4E554C4C 
 545      00
 546              		.section	.text.poll_tcp,"ax",%progbits
 547              		.align	2
 548              		.p2align 4,,15
 549              		.thumb
 550              		.thumb_func
 551              		.type	poll_tcp, %function
 552              	poll_tcp:
 553              	.LFB263:
 554              		.loc 2 278 0
 555              		.cfi_startproc
 556              		@ args = 0, pretend = 0, frame = 16
 557              		@ frame_needed = 1, uses_anonymous_args = 0
 558 0000 80B5     		push	{r7, lr}
 559              		.cfi_def_cfa_offset 8
 560              		.cfi_offset 7, -8
 561              		.cfi_offset 14, -4
 562 0002 84B0     		sub	sp, sp, #16
 563              		.cfi_def_cfa_offset 24
 564 0004 00AF     		add	r7, sp, #0
 565              		.cfi_def_cfa_register 7
 566 0006 7860     		str	r0, [r7, #4]
 567 0008 3960     		str	r1, [r7]
 568              		.loc 2 279 0
 569 000a 7B68     		ldr	r3, [r7, #4]
 570 000c FB60     		str	r3, [r7, #12]
 571              		.loc 2 282 0
 572 000e FB68     		ldr	r3, [r7, #12]
 573 0010 002B     		cmp	r3, #0
 574 0012 02D1     		bne	.L39
 575              		.loc 2 282 0 is_stmt 0 discriminator 1
 576 0014 1F48     		ldr	r0, .L44
 577 0016 FFF7FEFF 		bl	osalSysHalt
 578              	.L39:
 579              		.loc 2 284 0 is_stmt 1
 580 001a FB68     		ldr	r3, [r7, #12]
 581 001c 5B78     		ldrb	r3, [r3, #1]	@ zero_extendqisi2
 582 001e 012B     		cmp	r3, #1
 583 0020 03D1     		bne	.L40
 584              		.loc 2 285 0
 585 0022 F868     		ldr	r0, [r7, #12]
 586 0024 FFF7FEFF 		bl	do_writemore
 587 0028 06E0     		b	.L41
 588              	.L40:
 589              		.loc 2 286 0
 590 002a FB68     		ldr	r3, [r7, #12]
 591 002c 5B78     		ldrb	r3, [r3, #1]	@ zero_extendqisi2
 592 002e 042B     		cmp	r3, #4
 593 0030 02D1     		bne	.L41
 594              		.loc 2 287 0
 595 0032 F868     		ldr	r0, [r7, #12]
ARM GAS  C:\Users\Luis\AppData\Local\Temp\ccd19DXF.s 			page 12


 596 0034 FFF7FEFF 		bl	do_close_internal
 597              	.L41:
 598              		.loc 2 292 0
 599 0038 FB68     		ldr	r3, [r7, #12]
 600 003a 1B7F     		ldrb	r3, [r3, #28]	@ zero_extendqisi2
 601 003c 03F01003 		and	r3, r3, #16
 602 0040 002B     		cmp	r3, #0
 603 0042 21D0     		beq	.L42
 604              		.loc 2 295 0
 605 0044 FB68     		ldr	r3, [r7, #12]
 606 0046 5B68     		ldr	r3, [r3, #4]
 607 0048 002B     		cmp	r3, #0
 608 004a 1DD0     		beq	.L42
 609              		.loc 2 295 0 is_stmt 0 discriminator 1
 610 004c FB68     		ldr	r3, [r7, #12]
 611 004e 5B68     		ldr	r3, [r3, #4]
 612 0050 B3F86630 		ldrh	r3, [r3, #102]
 613 0054 B3F5866F 		cmp	r3, #1072
 614 0058 16D3     		bcc	.L42
 615              		.loc 2 296 0 is_stmt 1 discriminator 1
 616 005a FB68     		ldr	r3, [r7, #12]
 617 005c 5B68     		ldr	r3, [r3, #4]
 618 005e B3F86830 		ldrh	r3, [r3, #104]
 619              		.loc 2 295 0 discriminator 1
 620 0062 042B     		cmp	r3, #4
 621 0064 10D8     		bhi	.L42
 622              		.loc 2 297 0
 623 0066 FB68     		ldr	r3, [r7, #12]
 624 0068 1B7F     		ldrb	r3, [r3, #28]	@ zero_extendqisi2
 625 006a 23F01003 		bic	r3, r3, #16
 626 006e DAB2     		uxtb	r2, r3
 627 0070 FB68     		ldr	r3, [r7, #12]
 628 0072 1A77     		strb	r2, [r3, #28]
 629              		.loc 2 298 0
 630 0074 FB68     		ldr	r3, [r7, #12]
 631 0076 9B6A     		ldr	r3, [r3, #40]
 632 0078 002B     		cmp	r3, #0
 633 007a 05D0     		beq	.L42
 634              		.loc 2 298 0 is_stmt 0 discriminator 1
 635 007c FB68     		ldr	r3, [r7, #12]
 636 007e 9B6A     		ldr	r3, [r3, #40]
 637 0080 F868     		ldr	r0, [r7, #12]
 638 0082 0221     		movs	r1, #2
 639 0084 0022     		movs	r2, #0
 640 0086 9847     		blx	r3
 641              	.L42:
 642              		.loc 2 302 0 is_stmt 1
 643 0088 0023     		movs	r3, #0
 644 008a 5BB2     		sxtb	r3, r3
 645              		.loc 2 303 0
 646 008c 1846     		mov	r0, r3
 647 008e 1037     		adds	r7, r7, #16
 648 0090 BD46     		mov	sp, r7
 649              		@ sp needed
 650 0092 80BD     		pop	{r7, pc}
 651              	.L45:
 652              		.align	2
ARM GAS  C:\Users\Luis\AppData\Local\Temp\ccd19DXF.s 			page 13


 653              	.L44:
 654 0094 C8000000 		.word	.LC6
 655              		.cfi_endproc
 656              	.LFE263:
 657              		.size	poll_tcp, .-poll_tcp
 658 0098 AFF30080 		.section	.text.sent_tcp,"ax",%progbits
 658      AFF30080 
 659              		.align	2
 660              		.p2align 4,,15
 661              		.thumb
 662              		.thumb_func
 663              		.type	sent_tcp, %function
 664              	sent_tcp:
 665              	.LFB264:
 666              		.loc 2 314 0
 667              		.cfi_startproc
 668              		@ args = 0, pretend = 0, frame = 24
 669              		@ frame_needed = 1, uses_anonymous_args = 0
 670 0000 80B5     		push	{r7, lr}
 671              		.cfi_def_cfa_offset 8
 672              		.cfi_offset 7, -8
 673              		.cfi_offset 14, -4
 674 0002 86B0     		sub	sp, sp, #24
 675              		.cfi_def_cfa_offset 32
 676 0004 00AF     		add	r7, sp, #0
 677              		.cfi_def_cfa_register 7
 678 0006 F860     		str	r0, [r7, #12]
 679 0008 B960     		str	r1, [r7, #8]
 680 000a 1346     		mov	r3, r2
 681 000c FB80     		strh	r3, [r7, #6]	@ movhi
 682              		.loc 2 315 0
 683 000e FB68     		ldr	r3, [r7, #12]
 684 0010 7B61     		str	r3, [r7, #20]
 685              		.loc 2 318 0
 686 0012 7B69     		ldr	r3, [r7, #20]
 687 0014 002B     		cmp	r3, #0
 688 0016 02D1     		bne	.L47
 689              		.loc 2 318 0 is_stmt 0 discriminator 1
 690 0018 1E48     		ldr	r0, .L52
 691 001a FFF7FEFF 		bl	osalSysHalt
 692              	.L47:
 693              		.loc 2 320 0 is_stmt 1
 694 001e 7B69     		ldr	r3, [r7, #20]
 695 0020 5B78     		ldrb	r3, [r3, #1]	@ zero_extendqisi2
 696 0022 012B     		cmp	r3, #1
 697 0024 03D1     		bne	.L48
 698              		.loc 2 321 0
 699 0026 7869     		ldr	r0, [r7, #20]
 700 0028 FFF7FEFF 		bl	do_writemore
 701 002c 06E0     		b	.L49
 702              	.L48:
 703              		.loc 2 322 0
 704 002e 7B69     		ldr	r3, [r7, #20]
 705 0030 5B78     		ldrb	r3, [r3, #1]	@ zero_extendqisi2
 706 0032 042B     		cmp	r3, #4
 707 0034 02D1     		bne	.L49
 708              		.loc 2 323 0
ARM GAS  C:\Users\Luis\AppData\Local\Temp\ccd19DXF.s 			page 14


 709 0036 7869     		ldr	r0, [r7, #20]
 710 0038 FFF7FEFF 		bl	do_close_internal
 711              	.L49:
 712              		.loc 2 326 0
 713 003c 7B69     		ldr	r3, [r7, #20]
 714 003e 002B     		cmp	r3, #0
 715 0040 21D0     		beq	.L50
 716              		.loc 2 329 0
 717 0042 7B69     		ldr	r3, [r7, #20]
 718 0044 5B68     		ldr	r3, [r3, #4]
 719 0046 002B     		cmp	r3, #0
 720 0048 1DD0     		beq	.L50
 721              		.loc 2 329 0 is_stmt 0 discriminator 1
 722 004a 7B69     		ldr	r3, [r7, #20]
 723 004c 5B68     		ldr	r3, [r3, #4]
 724 004e B3F86630 		ldrh	r3, [r3, #102]
 725 0052 B3F5866F 		cmp	r3, #1072
 726 0056 16D3     		bcc	.L50
 727              		.loc 2 330 0 is_stmt 1 discriminator 1
 728 0058 7B69     		ldr	r3, [r7, #20]
 729 005a 5B68     		ldr	r3, [r3, #4]
 730 005c B3F86830 		ldrh	r3, [r3, #104]
 731              		.loc 2 329 0 discriminator 1
 732 0060 042B     		cmp	r3, #4
 733 0062 10D8     		bhi	.L50
 734              		.loc 2 331 0
 735 0064 7B69     		ldr	r3, [r7, #20]
 736 0066 1B7F     		ldrb	r3, [r3, #28]	@ zero_extendqisi2
 737 0068 23F01003 		bic	r3, r3, #16
 738 006c DAB2     		uxtb	r2, r3
 739 006e 7B69     		ldr	r3, [r7, #20]
 740 0070 1A77     		strb	r2, [r3, #28]
 741              		.loc 2 332 0
 742 0072 7B69     		ldr	r3, [r7, #20]
 743 0074 9B6A     		ldr	r3, [r3, #40]
 744 0076 002B     		cmp	r3, #0
 745 0078 05D0     		beq	.L50
 746              		.loc 2 332 0 is_stmt 0 discriminator 1
 747 007a 7B69     		ldr	r3, [r7, #20]
 748 007c 9B6A     		ldr	r3, [r3, #40]
 749 007e FA88     		ldrh	r2, [r7, #6]
 750 0080 7869     		ldr	r0, [r7, #20]
 751 0082 0221     		movs	r1, #2
 752 0084 9847     		blx	r3
 753              	.L50:
 754              		.loc 2 336 0 is_stmt 1
 755 0086 0023     		movs	r3, #0
 756 0088 5BB2     		sxtb	r3, r3
 757              		.loc 2 337 0
 758 008a 1846     		mov	r0, r3
 759 008c 1837     		adds	r7, r7, #24
 760 008e BD46     		mov	sp, r7
 761              		@ sp needed
 762 0090 80BD     		pop	{r7, pc}
 763              	.L53:
 764 0092 00BF     		.align	2
 765              	.L52:
ARM GAS  C:\Users\Luis\AppData\Local\Temp\ccd19DXF.s 			page 15


 766 0094 C8000000 		.word	.LC6
 767              		.cfi_endproc
 768              	.LFE264:
 769              		.size	sent_tcp, .-sent_tcp
 770 0098 AFF30080 		.section	.rodata
 770      AFF30080 
 771 00d5 000000   		.align	2
 772              	.LC7:
 773 00d8 636F6E6E 		.ascii	"conn->current_msg != NULL\000"
 773      2D3E6375 
 773      7272656E 
 773      745F6D73 
 773      6720213D 
 774 00f2 0000     		.align	2
 775              	.LC8:
 776 00f4 636F6E6E 		.ascii	"conn->current_msg == NULL\000"
 776      2D3E6375 
 776      7272656E 
 776      745F6D73 
 776      67203D3D 
 777              		.section	.text.err_tcp,"ax",%progbits
 778              		.align	2
 779              		.p2align 4,,15
 780              		.thumb
 781              		.thumb_func
 782              		.type	err_tcp, %function
 783              	err_tcp:
 784              	.LFB265:
 785              		.loc 2 348 0
 786              		.cfi_startproc
 787              		@ args = 0, pretend = 0, frame = 24
 788              		@ frame_needed = 1, uses_anonymous_args = 0
 789 0000 80B5     		push	{r7, lr}
 790              		.cfi_def_cfa_offset 8
 791              		.cfi_offset 7, -8
 792              		.cfi_offset 14, -4
 793 0002 86B0     		sub	sp, sp, #24
 794              		.cfi_def_cfa_offset 32
 795 0004 00AF     		add	r7, sp, #0
 796              		.cfi_def_cfa_register 7
 797 0006 7860     		str	r0, [r7, #4]
 798 0008 0B46     		mov	r3, r1
 799 000a FB70     		strb	r3, [r7, #3]
 800              		.loc 2 353 0
 801 000c 7B68     		ldr	r3, [r7, #4]
 802 000e 7B61     		str	r3, [r7, #20]
 803              		.loc 2 354 0
 804 0010 7B69     		ldr	r3, [r7, #20]
 805 0012 002B     		cmp	r3, #0
 806 0014 02D1     		bne	.L55
 807              		.loc 2 354 0 is_stmt 0 discriminator 1
 808 0016 4248     		ldr	r0, .L66
 809 0018 FFF7FEFF 		bl	osalSysHalt
 810              	.L55:
 811              		.loc 2 356 0 is_stmt 1
 812 001c 7B69     		ldr	r3, [r7, #20]
 813 001e 0022     		movs	r2, #0
ARM GAS  C:\Users\Luis\AppData\Local\Temp\ccd19DXF.s 			page 16


 814 0020 5A60     		str	r2, [r3, #4]
 815              		.loc 2 360 0
 816 0022 7B69     		ldr	r3, [r7, #20]
 817 0024 FA78     		ldrb	r2, [r7, #3]
 818 0026 1A72     		strb	r2, [r3, #8]
 819              		.loc 2 364 0
 820 0028 7B69     		ldr	r3, [r7, #20]
 821 002a 5B78     		ldrb	r3, [r3, #1]
 822 002c FB74     		strb	r3, [r7, #19]
 823              		.loc 2 365 0
 824 002e 7B69     		ldr	r3, [r7, #20]
 825 0030 0022     		movs	r2, #0
 826 0032 5A70     		strb	r2, [r3, #1]
 827              		.loc 2 369 0
 828 0034 7B69     		ldr	r3, [r7, #20]
 829 0036 9B6A     		ldr	r3, [r3, #40]
 830 0038 002B     		cmp	r3, #0
 831 003a 05D0     		beq	.L56
 832              		.loc 2 369 0 is_stmt 0 discriminator 1
 833 003c 7B69     		ldr	r3, [r7, #20]
 834 003e 9B6A     		ldr	r3, [r3, #40]
 835 0040 7869     		ldr	r0, [r7, #20]
 836 0042 0421     		movs	r1, #4
 837 0044 0022     		movs	r2, #0
 838 0046 9847     		blx	r3
 839              	.L56:
 840              		.loc 2 372 0 is_stmt 1
 841 0048 7B69     		ldr	r3, [r7, #20]
 842 004a 9B6A     		ldr	r3, [r3, #40]
 843 004c 002B     		cmp	r3, #0
 844 004e 05D0     		beq	.L57
 845              		.loc 2 372 0 is_stmt 0 discriminator 1
 846 0050 7B69     		ldr	r3, [r7, #20]
 847 0052 9B6A     		ldr	r3, [r3, #40]
 848 0054 7869     		ldr	r0, [r7, #20]
 849 0056 0021     		movs	r1, #0
 850 0058 0022     		movs	r2, #0
 851 005a 9847     		blx	r3
 852              	.L57:
 853              		.loc 2 373 0 is_stmt 1
 854 005c 7B69     		ldr	r3, [r7, #20]
 855 005e 9B6A     		ldr	r3, [r3, #40]
 856 0060 002B     		cmp	r3, #0
 857 0062 05D0     		beq	.L58
 858              		.loc 2 373 0 is_stmt 0 discriminator 1
 859 0064 7B69     		ldr	r3, [r7, #20]
 860 0066 9B6A     		ldr	r3, [r3, #40]
 861 0068 7869     		ldr	r0, [r7, #20]
 862 006a 0221     		movs	r1, #2
 863 006c 0022     		movs	r2, #0
 864 006e 9847     		blx	r3
 865              	.L58:
 866              		.loc 2 376 0 is_stmt 1
 867 0070 7B69     		ldr	r3, [r7, #20]
 868 0072 1033     		adds	r3, r3, #16
 869 0074 1846     		mov	r0, r3
 870 0076 FFF7FEFF 		bl	sys_mbox_valid
ARM GAS  C:\Users\Luis\AppData\Local\Temp\ccd19DXF.s 			page 17


 871 007a 0346     		mov	r3, r0
 872 007c 002B     		cmp	r3, #0
 873 007e 05D0     		beq	.L59
 874              		.loc 2 378 0
 875 0080 7B69     		ldr	r3, [r7, #20]
 876 0082 1033     		adds	r3, r3, #16
 877 0084 1846     		mov	r0, r3
 878 0086 0021     		movs	r1, #0
 879 0088 FFF7FEFF 		bl	sys_mbox_trypost
 880              	.L59:
 881              		.loc 2 381 0
 882 008c 7B69     		ldr	r3, [r7, #20]
 883 008e 1433     		adds	r3, r3, #20
 884 0090 1846     		mov	r0, r3
 885 0092 FFF7FEFF 		bl	sys_mbox_valid
 886 0096 0346     		mov	r3, r0
 887 0098 002B     		cmp	r3, #0
 888 009a 05D0     		beq	.L60
 889              		.loc 2 383 0
 890 009c 7B69     		ldr	r3, [r7, #20]
 891 009e 1433     		adds	r3, r3, #20
 892 00a0 1846     		mov	r0, r3
 893 00a2 0021     		movs	r1, #0
 894 00a4 FFF7FEFF 		bl	sys_mbox_trypost
 895              	.L60:
 896              		.loc 2 386 0
 897 00a8 FB7C     		ldrb	r3, [r7, #19]	@ zero_extendqisi2
 898 00aa 012B     		cmp	r3, #1
 899 00ac 05D0     		beq	.L61
 900              		.loc 2 386 0 is_stmt 0 discriminator 1
 901 00ae FB7C     		ldrb	r3, [r7, #19]	@ zero_extendqisi2
 902 00b0 042B     		cmp	r3, #4
 903 00b2 02D0     		beq	.L61
 904 00b4 FB7C     		ldrb	r3, [r7, #19]	@ zero_extendqisi2
 905 00b6 032B     		cmp	r3, #3
 906 00b8 28D1     		bne	.L62
 907              	.L61:
 908              	.LBB3:
 909              		.loc 2 390 0 is_stmt 1
 910 00ba 7B69     		ldr	r3, [r7, #20]
 911 00bc 1B7F     		ldrb	r3, [r3, #28]	@ zero_extendqisi2
 912 00be 03F00403 		and	r3, r3, #4
 913 00c2 002B     		cmp	r3, #0
 914 00c4 0CBF     		ite	eq
 915 00c6 0023     		moveq	r3, #0
 916 00c8 0123     		movne	r3, #1
 917 00ca DBB2     		uxtb	r3, r3
 918 00cc FB60     		str	r3, [r7, #12]
 919              		.loc 2 391 0
 920 00ce 7B69     		ldr	r3, [r7, #20]
 921 00d0 1B7F     		ldrb	r3, [r3, #28]	@ zero_extendqisi2
 922 00d2 23F00403 		bic	r3, r3, #4
 923 00d6 DAB2     		uxtb	r2, r3
 924 00d8 7B69     		ldr	r3, [r7, #20]
 925 00da 1A77     		strb	r2, [r3, #28]
 926              		.loc 2 393 0
 927 00dc FB68     		ldr	r3, [r7, #12]
ARM GAS  C:\Users\Luis\AppData\Local\Temp\ccd19DXF.s 			page 18


 928 00de 002B     		cmp	r3, #0
 929 00e0 13D1     		bne	.L63
 930              		.loc 2 395 0
 931 00e2 7B69     		ldr	r3, [r7, #20]
 932 00e4 5B6A     		ldr	r3, [r3, #36]
 933 00e6 002B     		cmp	r3, #0
 934 00e8 02D1     		bne	.L64
 935              		.loc 2 395 0 is_stmt 0 discriminator 1
 936 00ea 0E48     		ldr	r0, .L66+4
 937 00ec FFF7FEFF 		bl	osalSysHalt
 938              	.L64:
 939              		.loc 2 396 0 is_stmt 1
 940 00f0 7B69     		ldr	r3, [r7, #20]
 941 00f2 5B6A     		ldr	r3, [r3, #36]
 942 00f4 FA78     		ldrb	r2, [r7, #3]
 943 00f6 1A71     		strb	r2, [r3, #4]
 944              		.loc 2 397 0
 945 00f8 7B69     		ldr	r3, [r7, #20]
 946 00fa 0022     		movs	r2, #0
 947 00fc 5A62     		str	r2, [r3, #36]
 948              		.loc 2 399 0
 949 00fe 7B69     		ldr	r3, [r7, #20]
 950 0100 0C33     		adds	r3, r3, #12
 951 0102 1846     		mov	r0, r3
 952 0104 FFF7FEFF 		bl	sys_sem_signal
 953              	.LBE3:
 954              		.loc 2 387 0
 955 0108 07E0     		b	.L54
 956              	.L63:
 957 010a 06E0     		b	.L54
 958              	.L62:
 959              		.loc 2 402 0
 960 010c 7B69     		ldr	r3, [r7, #20]
 961 010e 5B6A     		ldr	r3, [r3, #36]
 962 0110 002B     		cmp	r3, #0
 963 0112 02D0     		beq	.L54
 964              		.loc 2 402 0 is_stmt 0 discriminator 1
 965 0114 0448     		ldr	r0, .L66+8
 966 0116 FFF7FEFF 		bl	osalSysHalt
 967              	.L54:
 968              		.loc 2 404 0 is_stmt 1
 969 011a 1837     		adds	r7, r7, #24
 970 011c BD46     		mov	sp, r7
 971              		@ sp needed
 972 011e 80BD     		pop	{r7, pc}
 973              	.L67:
 974              		.align	2
 975              	.L66:
 976 0120 C8000000 		.word	.LC6
 977 0124 D8000000 		.word	.LC7
 978 0128 F4000000 		.word	.LC8
 979              		.cfi_endproc
 980              	.LFE265:
 981              		.size	err_tcp, .-err_tcp
 982 012c AFF30080 		.section	.text.setup_tcp,"ax",%progbits
 983              		.align	2
 984              		.p2align 4,,15
ARM GAS  C:\Users\Luis\AppData\Local\Temp\ccd19DXF.s 			page 19


 985              		.thumb
 986              		.thumb_func
 987              		.type	setup_tcp, %function
 988              	setup_tcp:
 989              	.LFB266:
 990              		.loc 2 414 0
 991              		.cfi_startproc
 992              		@ args = 0, pretend = 0, frame = 16
 993              		@ frame_needed = 1, uses_anonymous_args = 0
 994 0000 80B5     		push	{r7, lr}
 995              		.cfi_def_cfa_offset 8
 996              		.cfi_offset 7, -8
 997              		.cfi_offset 14, -4
 998 0002 84B0     		sub	sp, sp, #16
 999              		.cfi_def_cfa_offset 24
 1000 0004 00AF     		add	r7, sp, #0
 1001              		.cfi_def_cfa_register 7
 1002 0006 7860     		str	r0, [r7, #4]
 1003              		.loc 2 417 0
 1004 0008 7B68     		ldr	r3, [r7, #4]
 1005 000a 5B68     		ldr	r3, [r3, #4]
 1006 000c FB60     		str	r3, [r7, #12]
 1007              		.loc 2 418 0
 1008 000e F868     		ldr	r0, [r7, #12]
 1009 0010 7968     		ldr	r1, [r7, #4]
 1010 0012 FFF7FEFF 		bl	tcp_arg
 1011              		.loc 2 419 0
 1012 0016 F868     		ldr	r0, [r7, #12]
 1013 0018 0949     		ldr	r1, .L69
 1014 001a FFF7FEFF 		bl	tcp_recv
 1015              		.loc 2 420 0
 1016 001e F868     		ldr	r0, [r7, #12]
 1017 0020 0849     		ldr	r1, .L69+4
 1018 0022 FFF7FEFF 		bl	tcp_sent
 1019              		.loc 2 421 0
 1020 0026 F868     		ldr	r0, [r7, #12]
 1021 0028 0749     		ldr	r1, .L69+8
 1022 002a 0422     		movs	r2, #4
 1023 002c FFF7FEFF 		bl	tcp_poll
 1024              		.loc 2 422 0
 1025 0030 F868     		ldr	r0, [r7, #12]
 1026 0032 0649     		ldr	r1, .L69+12
 1027 0034 FFF7FEFF 		bl	tcp_err
 1028              		.loc 2 423 0
 1029 0038 1037     		adds	r7, r7, #16
 1030 003a BD46     		mov	sp, r7
 1031              		@ sp needed
 1032 003c 80BD     		pop	{r7, pc}
 1033              	.L70:
 1034 003e 00BF     		.align	2
 1035              	.L69:
 1036 0040 00000000 		.word	recv_tcp
 1037 0044 00000000 		.word	sent_tcp
 1038 0048 00000000 		.word	poll_tcp
 1039 004c 00000000 		.word	err_tcp
 1040              		.cfi_endproc
 1041              	.LFE266:
ARM GAS  C:\Users\Luis\AppData\Local\Temp\ccd19DXF.s 			page 20


 1042              		.size	setup_tcp, .-setup_tcp
 1043              		.section	.text.accept_function,"ax",%progbits
 1044              		.align	2
 1045              		.p2align 4,,15
 1046              		.thumb
 1047              		.thumb_func
 1048              		.type	accept_function, %function
 1049              	accept_function:
 1050              	.LFB267:
 1051              		.loc 2 433 0
 1052              		.cfi_startproc
 1053              		@ args = 0, pretend = 0, frame = 32
 1054              		@ frame_needed = 1, uses_anonymous_args = 0
 1055 0000 80B5     		push	{r7, lr}
 1056              		.cfi_def_cfa_offset 8
 1057              		.cfi_offset 7, -8
 1058              		.cfi_offset 14, -4
 1059 0002 88B0     		sub	sp, sp, #32
 1060              		.cfi_def_cfa_offset 40
 1061 0004 00AF     		add	r7, sp, #0
 1062              		.cfi_def_cfa_register 7
 1063 0006 F860     		str	r0, [r7, #12]
 1064 0008 B960     		str	r1, [r7, #8]
 1065 000a 1346     		mov	r3, r2
 1066 000c FB71     		strb	r3, [r7, #7]
 1067              		.loc 2 435 0
 1068 000e FB68     		ldr	r3, [r7, #12]
 1069 0010 FB61     		str	r3, [r7, #28]
 1070              		.loc 2 439 0
 1071 0012 FB69     		ldr	r3, [r7, #28]
 1072 0014 1433     		adds	r3, r3, #20
 1073 0016 1846     		mov	r0, r3
 1074 0018 FFF7FEFF 		bl	sys_mbox_valid
 1075 001c 0346     		mov	r3, r0
 1076 001e 002B     		cmp	r3, #0
 1077 0020 01D1     		bne	.L72
 1078              		.loc 2 441 0
 1079 0022 FA23     		movs	r3, #250
 1080 0024 54E0     		b	.L73
 1081              	.L72:
 1082              		.loc 2 446 0
 1083 0026 FB69     		ldr	r3, [r7, #28]
 1084 0028 1A78     		ldrb	r2, [r3]	@ zero_extendqisi2
 1085 002a FB69     		ldr	r3, [r7, #28]
 1086 002c 9B6A     		ldr	r3, [r3, #40]
 1087 002e 1046     		mov	r0, r2
 1088 0030 1946     		mov	r1, r3
 1089 0032 FFF7FEFF 		bl	netconn_alloc
 1090 0036 B861     		str	r0, [r7, #24]
 1091              		.loc 2 447 0
 1092 0038 BB69     		ldr	r3, [r7, #24]
 1093 003a 002B     		cmp	r3, #0
 1094 003c 01D1     		bne	.L74
 1095              		.loc 2 448 0
 1096 003e FF23     		movs	r3, #255
 1097 0040 46E0     		b	.L73
 1098              	.L74:
ARM GAS  C:\Users\Luis\AppData\Local\Temp\ccd19DXF.s 			page 21


 1099              		.loc 2 450 0
 1100 0042 BB69     		ldr	r3, [r7, #24]
 1101 0044 BA68     		ldr	r2, [r7, #8]
 1102 0046 5A60     		str	r2, [r3, #4]
 1103              		.loc 2 451 0
 1104 0048 B869     		ldr	r0, [r7, #24]
 1105 004a FFF7FEFF 		bl	setup_tcp
 1106              		.loc 2 454 0
 1107 004e BB69     		ldr	r3, [r7, #24]
 1108 0050 FA79     		ldrb	r2, [r7, #7]
 1109 0052 1A72     		strb	r2, [r3, #8]
 1110              		.loc 2 456 0
 1111 0054 FB69     		ldr	r3, [r7, #28]
 1112 0056 1433     		adds	r3, r3, #20
 1113 0058 1846     		mov	r0, r3
 1114 005a B969     		ldr	r1, [r7, #24]
 1115 005c FFF7FEFF 		bl	sys_mbox_trypost
 1116 0060 0346     		mov	r3, r0
 1117 0062 002B     		cmp	r3, #0
 1118 0064 29D0     		beq	.L75
 1119              	.LBB4:
 1120              		.loc 2 460 0
 1121 0066 BB69     		ldr	r3, [r7, #24]
 1122 0068 5B68     		ldr	r3, [r3, #4]
 1123 006a 7B61     		str	r3, [r7, #20]
 1124              		.loc 2 461 0
 1125 006c 7869     		ldr	r0, [r7, #20]
 1126 006e 0021     		movs	r1, #0
 1127 0070 FFF7FEFF 		bl	tcp_arg
 1128              		.loc 2 462 0
 1129 0074 7869     		ldr	r0, [r7, #20]
 1130 0076 0021     		movs	r1, #0
 1131 0078 FFF7FEFF 		bl	tcp_recv
 1132              		.loc 2 463 0
 1133 007c 7869     		ldr	r0, [r7, #20]
 1134 007e 0021     		movs	r1, #0
 1135 0080 FFF7FEFF 		bl	tcp_sent
 1136              		.loc 2 464 0
 1137 0084 7869     		ldr	r0, [r7, #20]
 1138 0086 0021     		movs	r1, #0
 1139 0088 0422     		movs	r2, #4
 1140 008a FFF7FEFF 		bl	tcp_poll
 1141              		.loc 2 465 0
 1142 008e 7869     		ldr	r0, [r7, #20]
 1143 0090 0021     		movs	r1, #0
 1144 0092 FFF7FEFF 		bl	tcp_err
 1145              		.loc 2 467 0
 1146 0096 BB69     		ldr	r3, [r7, #24]
 1147 0098 0022     		movs	r2, #0
 1148 009a 5A60     		str	r2, [r3, #4]
 1149              		.loc 2 469 0
 1150 009c BB69     		ldr	r3, [r7, #24]
 1151 009e 1033     		adds	r3, r3, #16
 1152 00a0 1846     		mov	r0, r3
 1153 00a2 FFF7FEFF 		bl	sys_mbox_free
 1154              		.loc 2 470 0
 1155 00a6 BB69     		ldr	r3, [r7, #24]
ARM GAS  C:\Users\Luis\AppData\Local\Temp\ccd19DXF.s 			page 22


 1156 00a8 1033     		adds	r3, r3, #16
 1157 00aa 1846     		mov	r0, r3
 1158 00ac FFF7FEFF 		bl	sys_mbox_set_invalid
 1159              		.loc 2 471 0
 1160 00b0 B869     		ldr	r0, [r7, #24]
 1161 00b2 FFF7FEFF 		bl	netconn_free
 1162              		.loc 2 472 0
 1163 00b6 FF23     		movs	r3, #255
 1164 00b8 0AE0     		b	.L73
 1165              	.L75:
 1166              	.LBE4:
 1167              		.loc 2 475 0
 1168 00ba FB69     		ldr	r3, [r7, #28]
 1169 00bc 9B6A     		ldr	r3, [r3, #40]
 1170 00be 002B     		cmp	r3, #0
 1171 00c0 05D0     		beq	.L76
 1172              		.loc 2 475 0 is_stmt 0 discriminator 1
 1173 00c2 FB69     		ldr	r3, [r7, #28]
 1174 00c4 9B6A     		ldr	r3, [r3, #40]
 1175 00c6 F869     		ldr	r0, [r7, #28]
 1176 00c8 0021     		movs	r1, #0
 1177 00ca 0022     		movs	r2, #0
 1178 00cc 9847     		blx	r3
 1179              	.L76:
 1180              		.loc 2 478 0 is_stmt 1
 1181 00ce 0023     		movs	r3, #0
 1182              	.L73:
 1183 00d0 5BB2     		sxtb	r3, r3
 1184              		.loc 2 479 0
 1185 00d2 1846     		mov	r0, r3
 1186 00d4 2037     		adds	r7, r7, #32
 1187 00d6 BD46     		mov	sp, r7
 1188              		@ sp needed
 1189 00d8 80BD     		pop	{r7, pc}
 1190              		.cfi_endproc
 1191              	.LFE267:
 1192              		.size	accept_function, .-accept_function
 1193 00da 00BFAFF3 		.section	.rodata
 1193      0080
 1194 010e 0000     		.align	2
 1195              	.LC9:
 1196 0110 7063625F 		.ascii	"pcb_new: pcb already allocated\000"
 1196      6E65773A 
 1196      20706362 
 1196      20616C72 
 1196      65616479 
 1197              		.section	.text.pcb_new,"ax",%progbits
 1198              		.align	2
 1199              		.p2align 4,,15
 1200              		.thumb
 1201              		.thumb_func
 1202              		.type	pcb_new, %function
 1203              	pcb_new:
 1204              	.LFB268:
 1205              		.loc 2 491 0
 1206              		.cfi_startproc
 1207              		@ args = 0, pretend = 0, frame = 8
ARM GAS  C:\Users\Luis\AppData\Local\Temp\ccd19DXF.s 			page 23


 1208              		@ frame_needed = 1, uses_anonymous_args = 0
 1209 0000 90B5     		push	{r4, r7, lr}
 1210              		.cfi_def_cfa_offset 12
 1211              		.cfi_offset 4, -12
 1212              		.cfi_offset 7, -8
 1213              		.cfi_offset 14, -4
 1214 0002 83B0     		sub	sp, sp, #12
 1215              		.cfi_def_cfa_offset 24
 1216 0004 00AF     		add	r7, sp, #0
 1217              		.cfi_def_cfa_register 7
 1218 0006 7860     		str	r0, [r7, #4]
 1219              		.loc 2 492 0
 1220 0008 7B68     		ldr	r3, [r7, #4]
 1221 000a 1B68     		ldr	r3, [r3]
 1222 000c 5B68     		ldr	r3, [r3, #4]
 1223 000e 002B     		cmp	r3, #0
 1224 0010 02D0     		beq	.L78
 1225              		.loc 2 492 0 is_stmt 0 discriminator 1
 1226 0012 3648     		ldr	r0, .L89
 1227 0014 FFF7FEFF 		bl	osalSysHalt
 1228              	.L78:
 1229              		.loc 2 495 0 is_stmt 1
 1230 0018 7B68     		ldr	r3, [r7, #4]
 1231 001a 1B68     		ldr	r3, [r3]
 1232 001c 1B78     		ldrb	r3, [r3]	@ zero_extendqisi2
 1233 001e 03F0F003 		and	r3, r3, #240
 1234 0022 202B     		cmp	r3, #32
 1235 0024 21D0     		beq	.L80
 1236 0026 402B     		cmp	r3, #64
 1237 0028 02D0     		beq	.L81
 1238 002a 102B     		cmp	r3, #16
 1239 002c 41D0     		beq	.L82
 1240 002e 55E0     		b	.L88
 1241              	.L81:
 1242              		.loc 2 498 0
 1243 0030 7B68     		ldr	r3, [r7, #4]
 1244 0032 1C68     		ldr	r4, [r3]
 1245 0034 7B68     		ldr	r3, [r7, #4]
 1246 0036 1B7A     		ldrb	r3, [r3, #8]	@ zero_extendqisi2
 1247 0038 1846     		mov	r0, r3
 1248 003a FFF7FEFF 		bl	raw_new
 1249 003e 0346     		mov	r3, r0
 1250 0040 6360     		str	r3, [r4, #4]
 1251              		.loc 2 499 0
 1252 0042 7B68     		ldr	r3, [r7, #4]
 1253 0044 1B68     		ldr	r3, [r3]
 1254 0046 5B68     		ldr	r3, [r3, #4]
 1255 0048 002B     		cmp	r3, #0
 1256 004a 03D1     		bne	.L83
 1257              		.loc 2 500 0
 1258 004c 7B68     		ldr	r3, [r7, #4]
 1259 004e FF22     		movs	r2, #255
 1260 0050 1A71     		strb	r2, [r3, #4]
 1261              		.loc 2 501 0
 1262 0052 47E0     		b	.L77
 1263              	.L83:
 1264              		.loc 2 503 0
ARM GAS  C:\Users\Luis\AppData\Local\Temp\ccd19DXF.s 			page 24


 1265 0054 7B68     		ldr	r3, [r7, #4]
 1266 0056 1B68     		ldr	r3, [r3]
 1267 0058 5A68     		ldr	r2, [r3, #4]
 1268 005a 7B68     		ldr	r3, [r7, #4]
 1269 005c 1B68     		ldr	r3, [r3]
 1270 005e 1046     		mov	r0, r2
 1271 0060 2349     		ldr	r1, .L89+4
 1272 0062 1A46     		mov	r2, r3
 1273 0064 FFF7FEFF 		bl	raw_recv
 1274              		.loc 2 504 0
 1275 0068 3CE0     		b	.L77
 1276              	.L80:
 1277              		.loc 2 508 0
 1278 006a 7B68     		ldr	r3, [r7, #4]
 1279 006c 1C68     		ldr	r4, [r3]
 1280 006e FFF7FEFF 		bl	udp_new
 1281 0072 0346     		mov	r3, r0
 1282 0074 6360     		str	r3, [r4, #4]
 1283              		.loc 2 509 0
 1284 0076 7B68     		ldr	r3, [r7, #4]
 1285 0078 1B68     		ldr	r3, [r3]
 1286 007a 5B68     		ldr	r3, [r3, #4]
 1287 007c 002B     		cmp	r3, #0
 1288 007e 03D1     		bne	.L85
 1289              		.loc 2 510 0
 1290 0080 7B68     		ldr	r3, [r7, #4]
 1291 0082 FF22     		movs	r2, #255
 1292 0084 1A71     		strb	r2, [r3, #4]
 1293              		.loc 2 511 0
 1294 0086 2DE0     		b	.L77
 1295              	.L85:
 1296              		.loc 2 518 0
 1297 0088 7B68     		ldr	r3, [r7, #4]
 1298 008a 1B68     		ldr	r3, [r3]
 1299 008c 1B78     		ldrb	r3, [r3]	@ zero_extendqisi2
 1300 008e 222B     		cmp	r3, #34
 1301 0090 04D1     		bne	.L86
 1302              		.loc 2 519 0
 1303 0092 7B68     		ldr	r3, [r7, #4]
 1304 0094 1B68     		ldr	r3, [r3]
 1305 0096 5B68     		ldr	r3, [r3, #4]
 1306 0098 0122     		movs	r2, #1
 1307 009a 1A74     		strb	r2, [r3, #16]
 1308              	.L86:
 1309              		.loc 2 521 0
 1310 009c 7B68     		ldr	r3, [r7, #4]
 1311 009e 1B68     		ldr	r3, [r3]
 1312 00a0 5A68     		ldr	r2, [r3, #4]
 1313 00a2 7B68     		ldr	r3, [r7, #4]
 1314 00a4 1B68     		ldr	r3, [r3]
 1315 00a6 1046     		mov	r0, r2
 1316 00a8 1249     		ldr	r1, .L89+8
 1317 00aa 1A46     		mov	r2, r3
 1318 00ac FFF7FEFF 		bl	udp_recv
 1319              		.loc 2 522 0
 1320 00b0 18E0     		b	.L77
 1321              	.L82:
ARM GAS  C:\Users\Luis\AppData\Local\Temp\ccd19DXF.s 			page 25


 1322              		.loc 2 526 0
 1323 00b2 7B68     		ldr	r3, [r7, #4]
 1324 00b4 1C68     		ldr	r4, [r3]
 1325 00b6 FFF7FEFF 		bl	tcp_new
 1326 00ba 0346     		mov	r3, r0
 1327 00bc 6360     		str	r3, [r4, #4]
 1328              		.loc 2 527 0
 1329 00be 7B68     		ldr	r3, [r7, #4]
 1330 00c0 1B68     		ldr	r3, [r3]
 1331 00c2 5B68     		ldr	r3, [r3, #4]
 1332 00c4 002B     		cmp	r3, #0
 1333 00c6 03D1     		bne	.L87
 1334              		.loc 2 528 0
 1335 00c8 7B68     		ldr	r3, [r7, #4]
 1336 00ca FF22     		movs	r2, #255
 1337 00cc 1A71     		strb	r2, [r3, #4]
 1338              		.loc 2 529 0
 1339 00ce 09E0     		b	.L77
 1340              	.L87:
 1341              		.loc 2 531 0
 1342 00d0 7B68     		ldr	r3, [r7, #4]
 1343 00d2 1B68     		ldr	r3, [r3]
 1344 00d4 1846     		mov	r0, r3
 1345 00d6 FFF7FEFF 		bl	setup_tcp
 1346              		.loc 2 532 0
 1347 00da 03E0     		b	.L77
 1348              	.L88:
 1349              		.loc 2 536 0
 1350 00dc 7B68     		ldr	r3, [r7, #4]
 1351 00de FA22     		movs	r2, #250
 1352 00e0 1A71     		strb	r2, [r3, #4]
 1353              		.loc 2 537 0
 1354 00e2 00BF     		nop
 1355              	.L77:
 1356              		.loc 2 539 0
 1357 00e4 0C37     		adds	r7, r7, #12
 1358 00e6 BD46     		mov	sp, r7
 1359              		@ sp needed
 1360 00e8 90BD     		pop	{r4, r7, pc}
 1361              	.L90:
 1362 00ea 00BF     		.align	2
 1363              	.L89:
 1364 00ec 10010000 		.word	.LC9
 1365 00f0 00000000 		.word	recv_raw
 1366 00f4 00000000 		.word	recv_udp
 1367              		.cfi_endproc
 1368              	.LFE268:
 1369              		.size	pcb_new, .-pcb_new
 1370 00f8 AFF30080 		.section	.text.do_newconn,"ax",%progbits
 1370      AFF30080 
 1371              		.align	2
 1372              		.p2align 4,,15
 1373              		.global	do_newconn
 1374              		.thumb
 1375              		.thumb_func
 1376              		.type	do_newconn, %function
 1377              	do_newconn:
ARM GAS  C:\Users\Luis\AppData\Local\Temp\ccd19DXF.s 			page 26


 1378              	.LFB269:
 1379              		.loc 2 549 0
 1380              		.cfi_startproc
 1381              		@ args = 0, pretend = 0, frame = 8
 1382              		@ frame_needed = 1, uses_anonymous_args = 0
 1383 0000 80B5     		push	{r7, lr}
 1384              		.cfi_def_cfa_offset 8
 1385              		.cfi_offset 7, -8
 1386              		.cfi_offset 14, -4
 1387 0002 82B0     		sub	sp, sp, #8
 1388              		.cfi_def_cfa_offset 16
 1389 0004 00AF     		add	r7, sp, #0
 1390              		.cfi_def_cfa_register 7
 1391 0006 7860     		str	r0, [r7, #4]
 1392              		.loc 2 550 0
 1393 0008 7B68     		ldr	r3, [r7, #4]
 1394 000a 0022     		movs	r2, #0
 1395 000c 1A71     		strb	r2, [r3, #4]
 1396              		.loc 2 551 0
 1397 000e 7B68     		ldr	r3, [r7, #4]
 1398 0010 1B68     		ldr	r3, [r3]
 1399 0012 5B68     		ldr	r3, [r3, #4]
 1400 0014 002B     		cmp	r3, #0
 1401 0016 02D1     		bne	.L92
 1402              		.loc 2 552 0
 1403 0018 7868     		ldr	r0, [r7, #4]
 1404 001a FFF7FEFF 		bl	pcb_new
 1405              	.L92:
 1406              		.loc 2 558 0
 1407 001e 7B68     		ldr	r3, [r7, #4]
 1408 0020 1B68     		ldr	r3, [r3]
 1409 0022 0C33     		adds	r3, r3, #12
 1410 0024 1846     		mov	r0, r3
 1411 0026 FFF7FEFF 		bl	sys_sem_signal
 1412              		.loc 2 559 0
 1413 002a 0837     		adds	r7, r7, #8
 1414 002c BD46     		mov	sp, r7
 1415              		@ sp needed
 1416 002e 80BD     		pop	{r7, pc}
 1417              		.cfi_endproc
 1418              	.LFE269:
 1419              		.size	do_newconn, .-do_newconn
 1420              		.section	.rodata
 1421 012f 00       		.align	2
 1422              	.LC10:
 1423 0130 6E657463 		.ascii	"netconn_alloc: undefined netconn_type\000"
 1423      6F6E6E5F 
 1423      616C6C6F 
 1423      633A2075 
 1423      6E646566 
 1424              		.section	.text.netconn_alloc,"ax",%progbits
 1425              		.align	2
 1426              		.p2align 4,,15
 1427              		.global	netconn_alloc
 1428              		.thumb
 1429              		.thumb_func
 1430              		.type	netconn_alloc, %function
ARM GAS  C:\Users\Luis\AppData\Local\Temp\ccd19DXF.s 			page 27


 1431              	netconn_alloc:
 1432              	.LFB270:
 1433              		.loc 2 573 0
 1434              		.cfi_startproc
 1435              		@ args = 0, pretend = 0, frame = 16
 1436              		@ frame_needed = 1, uses_anonymous_args = 0
 1437 0000 80B5     		push	{r7, lr}
 1438              		.cfi_def_cfa_offset 8
 1439              		.cfi_offset 7, -8
 1440              		.cfi_offset 14, -4
 1441 0002 84B0     		sub	sp, sp, #16
 1442              		.cfi_def_cfa_offset 24
 1443 0004 00AF     		add	r7, sp, #0
 1444              		.cfi_def_cfa_register 7
 1445 0006 0346     		mov	r3, r0
 1446 0008 3960     		str	r1, [r7]
 1447 000a FB71     		strb	r3, [r7, #7]
 1448              		.loc 2 577 0
 1449 000c 0820     		movs	r0, #8
 1450 000e FFF7FEFF 		bl	memp_malloc
 1451 0012 B860     		str	r0, [r7, #8]
 1452              		.loc 2 578 0
 1453 0014 BB68     		ldr	r3, [r7, #8]
 1454 0016 002B     		cmp	r3, #0
 1455 0018 01D1     		bne	.L94
 1456              		.loc 2 579 0
 1457 001a 0023     		movs	r3, #0
 1458 001c 57E0     		b	.L95
 1459              	.L94:
 1460              		.loc 2 582 0
 1461 001e BB68     		ldr	r3, [r7, #8]
 1462 0020 0022     		movs	r2, #0
 1463 0022 1A72     		strb	r2, [r3, #8]
 1464              		.loc 2 583 0
 1465 0024 BB68     		ldr	r3, [r7, #8]
 1466 0026 FA79     		ldrb	r2, [r7, #7]
 1467 0028 1A70     		strb	r2, [r3]
 1468              		.loc 2 584 0
 1469 002a BB68     		ldr	r3, [r7, #8]
 1470 002c 0022     		movs	r2, #0
 1471 002e 5A60     		str	r2, [r3, #4]
 1472              		.loc 2 590 0
 1473 0030 FB79     		ldrb	r3, [r7, #7]	@ zero_extendqisi2
 1474 0032 03F0F003 		and	r3, r3, #240
 1475 0036 202B     		cmp	r3, #32
 1476 0038 07D0     		beq	.L97
 1477 003a 402B     		cmp	r3, #64
 1478 003c 02D0     		beq	.L98
 1479 003e 102B     		cmp	r3, #16
 1480 0040 06D0     		beq	.L99
 1481 0042 08E0     		b	.L104
 1482              	.L98:
 1483              		.loc 2 593 0
 1484 0044 0423     		movs	r3, #4
 1485 0046 FB60     		str	r3, [r7, #12]
 1486              		.loc 2 594 0
 1487 0048 09E0     		b	.L100
ARM GAS  C:\Users\Luis\AppData\Local\Temp\ccd19DXF.s 			page 28


 1488              	.L97:
 1489              		.loc 2 598 0
 1490 004a 0423     		movs	r3, #4
 1491 004c FB60     		str	r3, [r7, #12]
 1492              		.loc 2 599 0
 1493 004e 06E0     		b	.L100
 1494              	.L99:
 1495              		.loc 2 603 0
 1496 0050 2823     		movs	r3, #40
 1497 0052 FB60     		str	r3, [r7, #12]
 1498              		.loc 2 604 0
 1499 0054 03E0     		b	.L100
 1500              	.L104:
 1501              		.loc 2 607 0
 1502 0056 2048     		ldr	r0, .L105
 1503 0058 FFF7FEFF 		bl	osalSysHalt
 1504              		.loc 2 608 0
 1505 005c 32E0     		b	.L101
 1506              	.L100:
 1507              		.loc 2 612 0
 1508 005e BB68     		ldr	r3, [r7, #8]
 1509 0060 0C33     		adds	r3, r3, #12
 1510 0062 1846     		mov	r0, r3
 1511 0064 0021     		movs	r1, #0
 1512 0066 FFF7FEFF 		bl	sys_sem_new
 1513 006a 0346     		mov	r3, r0
 1514 006c 002B     		cmp	r3, #0
 1515 006e 00D0     		beq	.L102
 1516              		.loc 2 613 0
 1517 0070 28E0     		b	.L101
 1518              	.L102:
 1519              		.loc 2 615 0
 1520 0072 BB68     		ldr	r3, [r7, #8]
 1521 0074 1033     		adds	r3, r3, #16
 1522 0076 1846     		mov	r0, r3
 1523 0078 F968     		ldr	r1, [r7, #12]
 1524 007a FFF7FEFF 		bl	sys_mbox_new
 1525 007e 0346     		mov	r3, r0
 1526 0080 002B     		cmp	r3, #0
 1527 0082 05D0     		beq	.L103
 1528              		.loc 2 616 0
 1529 0084 BB68     		ldr	r3, [r7, #8]
 1530 0086 0C33     		adds	r3, r3, #12
 1531 0088 1846     		mov	r0, r3
 1532 008a FFF7FEFF 		bl	sys_sem_free
 1533              		.loc 2 617 0
 1534 008e 19E0     		b	.L101
 1535              	.L103:
 1536              		.loc 2 621 0
 1537 0090 BB68     		ldr	r3, [r7, #8]
 1538 0092 1433     		adds	r3, r3, #20
 1539 0094 1846     		mov	r0, r3
 1540 0096 FFF7FEFF 		bl	sys_mbox_set_invalid
 1541              		.loc 2 623 0
 1542 009a BB68     		ldr	r3, [r7, #8]
 1543 009c 0022     		movs	r2, #0
 1544 009e 5A70     		strb	r2, [r3, #1]
ARM GAS  C:\Users\Luis\AppData\Local\Temp\ccd19DXF.s 			page 29


 1545              		.loc 2 626 0
 1546 00a0 BB68     		ldr	r3, [r7, #8]
 1547 00a2 4FF0FF32 		mov	r2, #-1
 1548 00a6 9A61     		str	r2, [r3, #24]
 1549              		.loc 2 628 0
 1550 00a8 BB68     		ldr	r3, [r7, #8]
 1551 00aa 3A68     		ldr	r2, [r7]
 1552 00ac 9A62     		str	r2, [r3, #40]
 1553              		.loc 2 630 0
 1554 00ae BB68     		ldr	r3, [r7, #8]
 1555 00b0 0022     		movs	r2, #0
 1556 00b2 5A62     		str	r2, [r3, #36]
 1557              		.loc 2 631 0
 1558 00b4 BB68     		ldr	r3, [r7, #8]
 1559 00b6 0022     		movs	r2, #0
 1560 00b8 1A62     		str	r2, [r3, #32]
 1561              		.loc 2 643 0
 1562 00ba BB68     		ldr	r3, [r7, #8]
 1563 00bc 0022     		movs	r2, #0
 1564 00be 1A77     		strb	r2, [r3, #28]
 1565              		.loc 2 644 0
 1566 00c0 BB68     		ldr	r3, [r7, #8]
 1567 00c2 04E0     		b	.L95
 1568              	.L101:
 1569              		.loc 2 646 0
 1570 00c4 0820     		movs	r0, #8
 1571 00c6 B968     		ldr	r1, [r7, #8]
 1572 00c8 FFF7FEFF 		bl	memp_free
 1573              		.loc 2 647 0
 1574 00cc 0023     		movs	r3, #0
 1575              	.L95:
 1576              		.loc 2 648 0
 1577 00ce 1846     		mov	r0, r3
 1578 00d0 1037     		adds	r7, r7, #16
 1579 00d2 BD46     		mov	sp, r7
 1580              		@ sp needed
 1581 00d4 80BD     		pop	{r7, pc}
 1582              	.L106:
 1583 00d6 00BF     		.align	2
 1584              	.L105:
 1585 00d8 30010000 		.word	.LC10
 1586              		.cfi_endproc
 1587              	.LFE270:
 1588              		.size	netconn_alloc, .-netconn_alloc
 1589 00dc AFF30080 		.section	.rodata
 1590 0156 0000     		.align	2
 1591              	.LC11:
 1592 0158 50434220 		.ascii	"PCB must be deallocated outside this function\000"
 1592      6D757374 
 1592      20626520 
 1592      6465616C 
 1592      6C6F6361 
 1593 0186 0000     		.align	2
 1594              	.LC12:
 1595 0188 72656376 		.ascii	"recvmbox must be deallocated before calling this fu"
 1595      6D626F78 
 1595      206D7573 
ARM GAS  C:\Users\Luis\AppData\Local\Temp\ccd19DXF.s 			page 30


 1595      74206265 
 1595      20646561 
 1596 01bb 6E637469 		.ascii	"nction\000"
 1596      6F6E00
 1597 01c2 0000     		.align	2
 1598              	.LC13:
 1599 01c4 61636365 		.ascii	"acceptmbox must be deallocated before calling this "
 1599      70746D62 
 1599      6F78206D 
 1599      75737420 
 1599      62652064 
 1600 01f7 66756E63 		.ascii	"function\000"
 1600      74696F6E 
 1600      00
 1601              		.section	.text.netconn_free,"ax",%progbits
 1602              		.align	2
 1603              		.p2align 4,,15
 1604              		.global	netconn_free
 1605              		.thumb
 1606              		.thumb_func
 1607              		.type	netconn_free, %function
 1608              	netconn_free:
 1609              	.LFB271:
 1610              		.loc 2 658 0
 1611              		.cfi_startproc
 1612              		@ args = 0, pretend = 0, frame = 8
 1613              		@ frame_needed = 1, uses_anonymous_args = 0
 1614 0000 80B5     		push	{r7, lr}
 1615              		.cfi_def_cfa_offset 8
 1616              		.cfi_offset 7, -8
 1617              		.cfi_offset 14, -4
 1618 0002 82B0     		sub	sp, sp, #8
 1619              		.cfi_def_cfa_offset 16
 1620 0004 00AF     		add	r7, sp, #0
 1621              		.cfi_def_cfa_register 7
 1622 0006 7860     		str	r0, [r7, #4]
 1623              		.loc 2 659 0
 1624 0008 7B68     		ldr	r3, [r7, #4]
 1625 000a 5B68     		ldr	r3, [r3, #4]
 1626 000c 002B     		cmp	r3, #0
 1627 000e 02D0     		beq	.L108
 1628              		.loc 2 659 0 is_stmt 0 discriminator 1
 1629 0010 1448     		ldr	r0, .L111
 1630 0012 FFF7FEFF 		bl	osalSysHalt
 1631              	.L108:
 1632              		.loc 2 660 0 is_stmt 1
 1633 0016 7B68     		ldr	r3, [r7, #4]
 1634 0018 1033     		adds	r3, r3, #16
 1635 001a 1846     		mov	r0, r3
 1636 001c FFF7FEFF 		bl	sys_mbox_valid
 1637 0020 0346     		mov	r3, r0
 1638 0022 002B     		cmp	r3, #0
 1639 0024 02D0     		beq	.L109
 1640              		.loc 2 660 0 is_stmt 0 discriminator 1
 1641 0026 1048     		ldr	r0, .L111+4
 1642 0028 FFF7FEFF 		bl	osalSysHalt
 1643              	.L109:
ARM GAS  C:\Users\Luis\AppData\Local\Temp\ccd19DXF.s 			page 31


 1644              		.loc 2 663 0 is_stmt 1
 1645 002c 7B68     		ldr	r3, [r7, #4]
 1646 002e 1433     		adds	r3, r3, #20
 1647 0030 1846     		mov	r0, r3
 1648 0032 FFF7FEFF 		bl	sys_mbox_valid
 1649 0036 0346     		mov	r3, r0
 1650 0038 002B     		cmp	r3, #0
 1651 003a 02D0     		beq	.L110
 1652              		.loc 2 663 0 is_stmt 0 discriminator 1
 1653 003c 0B48     		ldr	r0, .L111+8
 1654 003e FFF7FEFF 		bl	osalSysHalt
 1655              	.L110:
 1656              		.loc 2 667 0 is_stmt 1
 1657 0042 7B68     		ldr	r3, [r7, #4]
 1658 0044 0C33     		adds	r3, r3, #12
 1659 0046 1846     		mov	r0, r3
 1660 0048 FFF7FEFF 		bl	sys_sem_free
 1661              		.loc 2 668 0
 1662 004c 7B68     		ldr	r3, [r7, #4]
 1663 004e 0C33     		adds	r3, r3, #12
 1664 0050 1846     		mov	r0, r3
 1665 0052 FFF7FEFF 		bl	sys_sem_set_invalid
 1666              		.loc 2 670 0
 1667 0056 0820     		movs	r0, #8
 1668 0058 7968     		ldr	r1, [r7, #4]
 1669 005a FFF7FEFF 		bl	memp_free
 1670              		.loc 2 671 0
 1671 005e 0837     		adds	r7, r7, #8
 1672 0060 BD46     		mov	sp, r7
 1673              		@ sp needed
 1674 0062 80BD     		pop	{r7, pc}
 1675              	.L112:
 1676              		.align	2
 1677              	.L111:
 1678 0064 58010000 		.word	.LC11
 1679 0068 88010000 		.word	.LC12
 1680 006c C4010000 		.word	.LC13
 1681              		.cfi_endproc
 1682              	.LFE271:
 1683              		.size	netconn_free, .-netconn_free
 1684              		.section	.rodata
 1685              		.align	2
 1686              	.LC14:
 1687 0200 7063622D 		.ascii	"pcb->state == LISTEN (called for wrong pcb?)\000"
 1687      3E737461 
 1687      7465203D 
 1687      3D204C49 
 1687      5354454E 
 1688              		.section	.text.netconn_drain,"ax",%progbits
 1689              		.align	2
 1690              		.p2align 4,,15
 1691              		.thumb
 1692              		.thumb_func
 1693              		.type	netconn_drain, %function
 1694              	netconn_drain:
 1695              	.LFB272:
 1696              		.loc 2 683 0
ARM GAS  C:\Users\Luis\AppData\Local\Temp\ccd19DXF.s 			page 32


 1697              		.cfi_startproc
 1698              		@ args = 0, pretend = 0, frame = 24
 1699              		@ frame_needed = 1, uses_anonymous_args = 0
 1700 0000 80B5     		push	{r7, lr}
 1701              		.cfi_def_cfa_offset 8
 1702              		.cfi_offset 7, -8
 1703              		.cfi_offset 14, -4
 1704 0002 86B0     		sub	sp, sp, #24
 1705              		.cfi_def_cfa_offset 32
 1706 0004 00AF     		add	r7, sp, #0
 1707              		.cfi_def_cfa_register 7
 1708 0006 7860     		str	r0, [r7, #4]
 1709              		.loc 2 692 0
 1710 0008 7B68     		ldr	r3, [r7, #4]
 1711 000a 1033     		adds	r3, r3, #16
 1712 000c 1846     		mov	r0, r3
 1713 000e FFF7FEFF 		bl	sys_mbox_valid
 1714 0012 0346     		mov	r3, r0
 1715 0014 002B     		cmp	r3, #0
 1716 0016 34D0     		beq	.L114
 1717              		.loc 2 693 0
 1718 0018 1CE0     		b	.L115
 1719              	.L119:
 1720              		.loc 2 695 0
 1721 001a 7B68     		ldr	r3, [r7, #4]
 1722 001c 1B78     		ldrb	r3, [r3]	@ zero_extendqisi2
 1723 001e 102B     		cmp	r3, #16
 1724 0020 14D1     		bne	.L116
 1725              		.loc 2 696 0
 1726 0022 FB68     		ldr	r3, [r7, #12]
 1727 0024 002B     		cmp	r3, #0
 1728 0026 15D0     		beq	.L115
 1729              		.loc 2 697 0
 1730 0028 FB68     		ldr	r3, [r7, #12]
 1731 002a 7B61     		str	r3, [r7, #20]
 1732              		.loc 2 699 0
 1733 002c 7B68     		ldr	r3, [r7, #4]
 1734 002e 5B68     		ldr	r3, [r3, #4]
 1735 0030 002B     		cmp	r3, #0
 1736 0032 07D0     		beq	.L118
 1737              		.loc 2 700 0
 1738 0034 7B68     		ldr	r3, [r7, #4]
 1739 0036 5A68     		ldr	r2, [r3, #4]
 1740 0038 7B69     		ldr	r3, [r7, #20]
 1741 003a 1B89     		ldrh	r3, [r3, #8]
 1742 003c 1046     		mov	r0, r2
 1743 003e 1946     		mov	r1, r3
 1744 0040 FFF7FEFF 		bl	tcp_recved
 1745              	.L118:
 1746              		.loc 2 702 0
 1747 0044 7869     		ldr	r0, [r7, #20]
 1748 0046 FFF7FEFF 		bl	pbuf_free
 1749 004a 03E0     		b	.L115
 1750              	.L116:
 1751              		.loc 2 707 0
 1752 004c FB68     		ldr	r3, [r7, #12]
 1753 004e 1846     		mov	r0, r3
ARM GAS  C:\Users\Luis\AppData\Local\Temp\ccd19DXF.s 			page 33


 1754 0050 FFF7FEFF 		bl	netbuf_delete
 1755              	.L115:
 1756              		.loc 2 693 0 discriminator 1
 1757 0054 7B68     		ldr	r3, [r7, #4]
 1758 0056 03F11002 		add	r2, r3, #16
 1759 005a 07F10C03 		add	r3, r7, #12
 1760 005e 1046     		mov	r0, r2
 1761 0060 1946     		mov	r1, r3
 1762 0062 FFF7FEFF 		bl	sys_arch_mbox_tryfetch
 1763 0066 0346     		mov	r3, r0
 1764 0068 B3F1FF3F 		cmp	r3, #-1
 1765 006c D5D1     		bne	.L119
 1766              		.loc 2 710 0
 1767 006e 7B68     		ldr	r3, [r7, #4]
 1768 0070 1033     		adds	r3, r3, #16
 1769 0072 1846     		mov	r0, r3
 1770 0074 FFF7FEFF 		bl	sys_mbox_free
 1771              		.loc 2 711 0
 1772 0078 7B68     		ldr	r3, [r7, #4]
 1773 007a 1033     		adds	r3, r3, #16
 1774 007c 1846     		mov	r0, r3
 1775 007e FFF7FEFF 		bl	sys_mbox_set_invalid
 1776              	.L114:
 1777              		.loc 2 716 0
 1778 0082 7B68     		ldr	r3, [r7, #4]
 1779 0084 1433     		adds	r3, r3, #20
 1780 0086 1846     		mov	r0, r3
 1781 0088 FFF7FEFF 		bl	sys_mbox_valid
 1782 008c 0346     		mov	r3, r0
 1783 008e 002B     		cmp	r3, #0
 1784 0090 37D0     		beq	.L113
 1785              		.loc 2 717 0
 1786 0092 1FE0     		b	.L121
 1787              	.L124:
 1788              	.LBB5:
 1789              		.loc 2 718 0
 1790 0094 FB68     		ldr	r3, [r7, #12]
 1791 0096 3B61     		str	r3, [r7, #16]
 1792              		.loc 2 721 0
 1793 0098 7B68     		ldr	r3, [r7, #4]
 1794 009a 5B68     		ldr	r3, [r3, #4]
 1795 009c 002B     		cmp	r3, #0
 1796 009e 07D0     		beq	.L122
 1797              		.loc 2 722 0
 1798 00a0 7B68     		ldr	r3, [r7, #4]
 1799 00a2 5B68     		ldr	r3, [r3, #4]
 1800 00a4 1B7E     		ldrb	r3, [r3, #24]	@ zero_extendqisi2
 1801 00a6 012B     		cmp	r3, #1
 1802 00a8 02D0     		beq	.L122
 1803              		.loc 2 722 0 is_stmt 0 discriminator 1
 1804 00aa 1748     		ldr	r0, .L125
 1805 00ac FFF7FEFF 		bl	osalSysHalt
 1806              	.L122:
 1807              		.loc 2 725 0 is_stmt 1
 1808 00b0 3869     		ldr	r0, [r7, #16]
 1809 00b2 FFF7A5FF 		bl	netconn_drain
 1810              		.loc 2 726 0
ARM GAS  C:\Users\Luis\AppData\Local\Temp\ccd19DXF.s 			page 34


 1811 00b6 3B69     		ldr	r3, [r7, #16]
 1812 00b8 5B68     		ldr	r3, [r3, #4]
 1813 00ba 002B     		cmp	r3, #0
 1814 00bc 07D0     		beq	.L123
 1815              		.loc 2 727 0
 1816 00be 3B69     		ldr	r3, [r7, #16]
 1817 00c0 5B68     		ldr	r3, [r3, #4]
 1818 00c2 1846     		mov	r0, r3
 1819 00c4 FFF7FEFF 		bl	tcp_abort
 1820              		.loc 2 728 0
 1821 00c8 3B69     		ldr	r3, [r7, #16]
 1822 00ca 0022     		movs	r2, #0
 1823 00cc 5A60     		str	r2, [r3, #4]
 1824              	.L123:
 1825              		.loc 2 730 0
 1826 00ce 3869     		ldr	r0, [r7, #16]
 1827 00d0 FFF7FEFF 		bl	netconn_free
 1828              	.L121:
 1829              	.LBE5:
 1830              		.loc 2 717 0 discriminator 1
 1831 00d4 7B68     		ldr	r3, [r7, #4]
 1832 00d6 03F11402 		add	r2, r3, #20
 1833 00da 07F10C03 		add	r3, r7, #12
 1834 00de 1046     		mov	r0, r2
 1835 00e0 1946     		mov	r1, r3
 1836 00e2 FFF7FEFF 		bl	sys_arch_mbox_tryfetch
 1837 00e6 0346     		mov	r3, r0
 1838 00e8 B3F1FF3F 		cmp	r3, #-1
 1839 00ec D2D1     		bne	.L124
 1840              		.loc 2 732 0
 1841 00ee 7B68     		ldr	r3, [r7, #4]
 1842 00f0 1433     		adds	r3, r3, #20
 1843 00f2 1846     		mov	r0, r3
 1844 00f4 FFF7FEFF 		bl	sys_mbox_free
 1845              		.loc 2 733 0
 1846 00f8 7B68     		ldr	r3, [r7, #4]
 1847 00fa 1433     		adds	r3, r3, #20
 1848 00fc 1846     		mov	r0, r3
 1849 00fe FFF7FEFF 		bl	sys_mbox_set_invalid
 1850              	.L113:
 1851              		.loc 2 736 0
 1852 0102 1837     		adds	r7, r7, #24
 1853 0104 BD46     		mov	sp, r7
 1854              		@ sp needed
 1855 0106 80BD     		pop	{r7, pc}
 1856              	.L126:
 1857              		.align	2
 1858              	.L125:
 1859 0108 00020000 		.word	.LC14
 1860              		.cfi_endproc
 1861              	.LFE272:
 1862              		.size	netconn_drain, .-netconn_drain
 1863 010c AFF30080 		.section	.rodata
 1864 022d 000000   		.align	2
 1865              	.LC15:
 1866 0230 696E7661 		.ascii	"invalid conn\000"
 1866      6C696420 
ARM GAS  C:\Users\Luis\AppData\Local\Temp\ccd19DXF.s 			page 35


 1866      636F6E6E 
 1866      00
 1867 023d 000000   		.align	2
 1868              	.LC16:
 1869 0240 74686973 		.ascii	"this is for tcp netconns only\000"
 1869      20697320 
 1869      666F7220 
 1869      74637020 
 1869      6E657463 
 1870 025e 0000     		.align	2
 1871              	.LC17:
 1872 0260 636F6E6E 		.ascii	"conn must be in state NETCONN_CLOSE\000"
 1872      206D7573 
 1872      74206265 
 1872      20696E20 
 1872      73746174 
 1873              		.align	2
 1874              	.LC18:
 1875 0284 70636220 		.ascii	"pcb already closed\000"
 1875      616C7265 
 1875      61647920 
 1875      636C6F73 
 1875      656400
 1876 0297 00       		.align	2
 1877              	.LC19:
 1878 0298 436C6F73 		.ascii	"Closing a listen pcb may not fail!\000"
 1878      696E6720 
 1878      61206C69 
 1878      7374656E 
 1878      20706362 
 1879              		.section	.text.do_close_internal,"ax",%progbits
 1880              		.align	2
 1881              		.p2align 4,,15
 1882              		.thumb
 1883              		.thumb_func
 1884              		.type	do_close_internal, %function
 1885              	do_close_internal:
 1886              	.LFB273:
 1887              		.loc 2 748 0
 1888              		.cfi_startproc
 1889              		@ args = 0, pretend = 0, frame = 16
 1890              		@ frame_needed = 1, uses_anonymous_args = 0
 1891 0000 80B5     		push	{r7, lr}
 1892              		.cfi_def_cfa_offset 8
 1893              		.cfi_offset 7, -8
 1894              		.cfi_offset 14, -4
 1895 0002 84B0     		sub	sp, sp, #16
 1896              		.cfi_def_cfa_offset 24
 1897 0004 00AF     		add	r7, sp, #0
 1898              		.cfi_def_cfa_register 7
 1899 0006 7860     		str	r0, [r7, #4]
 1900              		.loc 2 752 0
 1901 0008 7B68     		ldr	r3, [r7, #4]
 1902 000a 002B     		cmp	r3, #0
 1903 000c 02D1     		bne	.L128
 1904              		.loc 2 752 0 is_stmt 0 discriminator 1
 1905 000e 7348     		ldr	r0, .L146
ARM GAS  C:\Users\Luis\AppData\Local\Temp\ccd19DXF.s 			page 36


 1906 0010 FFF7FEFF 		bl	osalSysHalt
 1907              	.L128:
 1908              		.loc 2 753 0 is_stmt 1
 1909 0014 7B68     		ldr	r3, [r7, #4]
 1910 0016 1B78     		ldrb	r3, [r3]	@ zero_extendqisi2
 1911 0018 102B     		cmp	r3, #16
 1912 001a 02D0     		beq	.L129
 1913              		.loc 2 753 0 is_stmt 0 discriminator 1
 1914 001c 7048     		ldr	r0, .L146+4
 1915 001e FFF7FEFF 		bl	osalSysHalt
 1916              	.L129:
 1917              		.loc 2 754 0 is_stmt 1
 1918 0022 7B68     		ldr	r3, [r7, #4]
 1919 0024 5B78     		ldrb	r3, [r3, #1]	@ zero_extendqisi2
 1920 0026 042B     		cmp	r3, #4
 1921 0028 02D0     		beq	.L130
 1922              		.loc 2 754 0 is_stmt 0 discriminator 1
 1923 002a 6E48     		ldr	r0, .L146+8
 1924 002c FFF7FEFF 		bl	osalSysHalt
 1925              	.L130:
 1926              		.loc 2 755 0 is_stmt 1
 1927 0030 7B68     		ldr	r3, [r7, #4]
 1928 0032 5B68     		ldr	r3, [r3, #4]
 1929 0034 002B     		cmp	r3, #0
 1930 0036 02D1     		bne	.L131
 1931              		.loc 2 755 0 is_stmt 0 discriminator 1
 1932 0038 6B48     		ldr	r0, .L146+12
 1933 003a FFF7FEFF 		bl	osalSysHalt
 1934              	.L131:
 1935              		.loc 2 756 0 is_stmt 1
 1936 003e 7B68     		ldr	r3, [r7, #4]
 1937 0040 5B6A     		ldr	r3, [r3, #36]
 1938 0042 002B     		cmp	r3, #0
 1939 0044 02D1     		bne	.L132
 1940              		.loc 2 756 0 is_stmt 0 discriminator 1
 1941 0046 6948     		ldr	r0, .L146+16
 1942 0048 FFF7FEFF 		bl	osalSysHalt
 1943              	.L132:
 1944              		.loc 2 758 0 is_stmt 1
 1945 004c 7B68     		ldr	r3, [r7, #4]
 1946 004e 5B6A     		ldr	r3, [r3, #36]
 1947 0050 1B7A     		ldrb	r3, [r3, #8]
 1948 0052 BB73     		strb	r3, [r7, #14]
 1949              		.loc 2 759 0
 1950 0054 BB7B     		ldrb	r3, [r7, #14]
 1951 0056 03F00103 		and	r3, r3, #1
 1952 005a 7B73     		strb	r3, [r7, #13]
 1953              		.loc 2 760 0
 1954 005c BB7B     		ldrb	r3, [r7, #14]
 1955 005e 03F00203 		and	r3, r3, #2
 1956 0062 3B73     		strb	r3, [r7, #12]
 1957              		.loc 2 762 0
 1958 0064 BB7B     		ldrb	r3, [r7, #14]	@ zero_extendqisi2
 1959 0066 032B     		cmp	r3, #3
 1960 0068 14BF     		ite	ne
 1961 006a 0023     		movne	r3, #0
 1962 006c 0123     		moveq	r3, #1
ARM GAS  C:\Users\Luis\AppData\Local\Temp\ccd19DXF.s 			page 37


 1963 006e DBB2     		uxtb	r3, r3
 1964 0070 FB72     		strb	r3, [r7, #11]
 1965              		.loc 2 765 0
 1966 0072 FB7A     		ldrb	r3, [r7, #11]	@ zero_extendqisi2
 1967 0074 002B     		cmp	r3, #0
 1968 0076 05D0     		beq	.L133
 1969              		.loc 2 766 0
 1970 0078 7B68     		ldr	r3, [r7, #4]
 1971 007a 5B68     		ldr	r3, [r3, #4]
 1972 007c 1846     		mov	r0, r3
 1973 007e 0021     		movs	r1, #0
 1974 0080 FFF7FEFF 		bl	tcp_arg
 1975              	.L133:
 1976              		.loc 2 768 0
 1977 0084 7B68     		ldr	r3, [r7, #4]
 1978 0086 5B68     		ldr	r3, [r3, #4]
 1979 0088 1B7E     		ldrb	r3, [r3, #24]	@ zero_extendqisi2
 1980 008a 012B     		cmp	r3, #1
 1981 008c 06D1     		bne	.L134
 1982              		.loc 2 769 0
 1983 008e 7B68     		ldr	r3, [r7, #4]
 1984 0090 5B68     		ldr	r3, [r3, #4]
 1985 0092 1846     		mov	r0, r3
 1986 0094 0021     		movs	r1, #0
 1987 0096 FFF7FEFF 		bl	tcp_accept
 1988 009a 27E0     		b	.L135
 1989              	.L134:
 1990              		.loc 2 772 0
 1991 009c 7B7B     		ldrb	r3, [r7, #13]	@ zero_extendqisi2
 1992 009e 002B     		cmp	r3, #0
 1993 00a0 0BD0     		beq	.L136
 1994              		.loc 2 773 0
 1995 00a2 7B68     		ldr	r3, [r7, #4]
 1996 00a4 5B68     		ldr	r3, [r3, #4]
 1997 00a6 1846     		mov	r0, r3
 1998 00a8 0021     		movs	r1, #0
 1999 00aa FFF7FEFF 		bl	tcp_recv
 2000              		.loc 2 774 0
 2001 00ae 7B68     		ldr	r3, [r7, #4]
 2002 00b0 5B68     		ldr	r3, [r3, #4]
 2003 00b2 1846     		mov	r0, r3
 2004 00b4 0021     		movs	r1, #0
 2005 00b6 FFF7FEFF 		bl	tcp_accept
 2006              	.L136:
 2007              		.loc 2 776 0
 2008 00ba 3B7B     		ldrb	r3, [r7, #12]	@ zero_extendqisi2
 2009 00bc 002B     		cmp	r3, #0
 2010 00be 05D0     		beq	.L137
 2011              		.loc 2 777 0
 2012 00c0 7B68     		ldr	r3, [r7, #4]
 2013 00c2 5B68     		ldr	r3, [r3, #4]
 2014 00c4 1846     		mov	r0, r3
 2015 00c6 0021     		movs	r1, #0
 2016 00c8 FFF7FEFF 		bl	tcp_sent
 2017              	.L137:
 2018              		.loc 2 779 0
 2019 00cc FB7A     		ldrb	r3, [r7, #11]	@ zero_extendqisi2
ARM GAS  C:\Users\Luis\AppData\Local\Temp\ccd19DXF.s 			page 38


 2020 00ce 002B     		cmp	r3, #0
 2021 00d0 0CD0     		beq	.L135
 2022              		.loc 2 780 0
 2023 00d2 7B68     		ldr	r3, [r7, #4]
 2024 00d4 5B68     		ldr	r3, [r3, #4]
 2025 00d6 1846     		mov	r0, r3
 2026 00d8 0021     		movs	r1, #0
 2027 00da 0422     		movs	r2, #4
 2028 00dc FFF7FEFF 		bl	tcp_poll
 2029              		.loc 2 781 0
 2030 00e0 7B68     		ldr	r3, [r7, #4]
 2031 00e2 5B68     		ldr	r3, [r3, #4]
 2032 00e4 1846     		mov	r0, r3
 2033 00e6 0021     		movs	r1, #0
 2034 00e8 FFF7FEFF 		bl	tcp_err
 2035              	.L135:
 2036              		.loc 2 785 0
 2037 00ec FB7A     		ldrb	r3, [r7, #11]	@ zero_extendqisi2
 2038 00ee 002B     		cmp	r3, #0
 2039 00f0 07D0     		beq	.L138
 2040              		.loc 2 786 0
 2041 00f2 7B68     		ldr	r3, [r7, #4]
 2042 00f4 5B68     		ldr	r3, [r3, #4]
 2043 00f6 1846     		mov	r0, r3
 2044 00f8 FFF7FEFF 		bl	tcp_close
 2045 00fc 0346     		mov	r3, r0
 2046 00fe FB73     		strb	r3, [r7, #15]
 2047 0100 0AE0     		b	.L139
 2048              	.L138:
 2049              		.loc 2 788 0
 2050 0102 7B68     		ldr	r3, [r7, #4]
 2051 0104 5968     		ldr	r1, [r3, #4]
 2052 0106 7A7B     		ldrb	r2, [r7, #13]	@ zero_extendqisi2
 2053 0108 3B7B     		ldrb	r3, [r7, #12]	@ zero_extendqisi2
 2054 010a 0846     		mov	r0, r1
 2055 010c 1146     		mov	r1, r2
 2056 010e 1A46     		mov	r2, r3
 2057 0110 FFF7FEFF 		bl	tcp_shutdown
 2058 0114 0346     		mov	r3, r0
 2059 0116 FB73     		strb	r3, [r7, #15]
 2060              	.L139:
 2061              		.loc 2 790 0
 2062 0118 97F90F30 		ldrsb	r3, [r7, #15]
 2063 011c 002B     		cmp	r3, #0
 2064 011e 39D1     		bne	.L140
 2065              		.loc 2 792 0
 2066 0120 7B68     		ldr	r3, [r7, #4]
 2067 0122 5B6A     		ldr	r3, [r3, #36]
 2068 0124 0022     		movs	r2, #0
 2069 0126 1A71     		strb	r2, [r3, #4]
 2070              		.loc 2 793 0
 2071 0128 7B68     		ldr	r3, [r7, #4]
 2072 012a 0022     		movs	r2, #0
 2073 012c 5A62     		str	r2, [r3, #36]
 2074              		.loc 2 794 0
 2075 012e 7B68     		ldr	r3, [r7, #4]
 2076 0130 0022     		movs	r2, #0
ARM GAS  C:\Users\Luis\AppData\Local\Temp\ccd19DXF.s 			page 39


 2077 0132 5A70     		strb	r2, [r3, #1]
 2078              		.loc 2 795 0
 2079 0134 FB7A     		ldrb	r3, [r7, #11]	@ zero_extendqisi2
 2080 0136 002B     		cmp	r3, #0
 2081 0138 0CD0     		beq	.L141
 2082              		.loc 2 797 0
 2083 013a 7B68     		ldr	r3, [r7, #4]
 2084 013c 0022     		movs	r2, #0
 2085 013e 5A60     		str	r2, [r3, #4]
 2086              		.loc 2 800 0
 2087 0140 7B68     		ldr	r3, [r7, #4]
 2088 0142 9B6A     		ldr	r3, [r3, #40]
 2089 0144 002B     		cmp	r3, #0
 2090 0146 05D0     		beq	.L141
 2091              		.loc 2 800 0 is_stmt 0 discriminator 1
 2092 0148 7B68     		ldr	r3, [r7, #4]
 2093 014a 9B6A     		ldr	r3, [r3, #40]
 2094 014c 7868     		ldr	r0, [r7, #4]
 2095 014e 0421     		movs	r1, #4
 2096 0150 0022     		movs	r2, #0
 2097 0152 9847     		blx	r3
 2098              	.L141:
 2099              		.loc 2 802 0 is_stmt 1
 2100 0154 7B7B     		ldrb	r3, [r7, #13]	@ zero_extendqisi2
 2101 0156 002B     		cmp	r3, #0
 2102 0158 09D0     		beq	.L142
 2103              		.loc 2 803 0
 2104 015a 7B68     		ldr	r3, [r7, #4]
 2105 015c 9B6A     		ldr	r3, [r3, #40]
 2106 015e 002B     		cmp	r3, #0
 2107 0160 05D0     		beq	.L142
 2108              		.loc 2 803 0 is_stmt 0 discriminator 1
 2109 0162 7B68     		ldr	r3, [r7, #4]
 2110 0164 9B6A     		ldr	r3, [r3, #40]
 2111 0166 7868     		ldr	r0, [r7, #4]
 2112 0168 0021     		movs	r1, #0
 2113 016a 0022     		movs	r2, #0
 2114 016c 9847     		blx	r3
 2115              	.L142:
 2116              		.loc 2 805 0 is_stmt 1
 2117 016e 3B7B     		ldrb	r3, [r7, #12]	@ zero_extendqisi2
 2118 0170 002B     		cmp	r3, #0
 2119 0172 09D0     		beq	.L143
 2120              		.loc 2 806 0
 2121 0174 7B68     		ldr	r3, [r7, #4]
 2122 0176 9B6A     		ldr	r3, [r3, #40]
 2123 0178 002B     		cmp	r3, #0
 2124 017a 05D0     		beq	.L143
 2125              		.loc 2 806 0 is_stmt 0 discriminator 1
 2126 017c 7B68     		ldr	r3, [r7, #4]
 2127 017e 9B6A     		ldr	r3, [r3, #40]
 2128 0180 7868     		ldr	r0, [r7, #4]
 2129 0182 0221     		movs	r1, #2
 2130 0184 0022     		movs	r2, #0
 2131 0186 9847     		blx	r3
 2132              	.L143:
 2133              		.loc 2 809 0 is_stmt 1
ARM GAS  C:\Users\Luis\AppData\Local\Temp\ccd19DXF.s 			page 40


 2134 0188 7B68     		ldr	r3, [r7, #4]
 2135 018a 0C33     		adds	r3, r3, #12
 2136 018c 1846     		mov	r0, r3
 2137 018e FFF7FEFF 		bl	sys_sem_signal
 2138 0192 20E0     		b	.L127
 2139              	.L140:
 2140              		.loc 2 813 0
 2141 0194 7B68     		ldr	r3, [r7, #4]
 2142 0196 5B68     		ldr	r3, [r3, #4]
 2143 0198 1B7E     		ldrb	r3, [r3, #24]	@ zero_extendqisi2
 2144 019a 012B     		cmp	r3, #1
 2145 019c 02D1     		bne	.L145
 2146              		.loc 2 813 0 is_stmt 0 discriminator 1
 2147 019e 1448     		ldr	r0, .L146+20
 2148 01a0 FFF7FEFF 		bl	osalSysHalt
 2149              	.L145:
 2150              		.loc 2 814 0 is_stmt 1
 2151 01a4 7B68     		ldr	r3, [r7, #4]
 2152 01a6 5B68     		ldr	r3, [r3, #4]
 2153 01a8 1846     		mov	r0, r3
 2154 01aa 1249     		ldr	r1, .L146+24
 2155 01ac FFF7FEFF 		bl	tcp_sent
 2156              		.loc 2 815 0
 2157 01b0 7B68     		ldr	r3, [r7, #4]
 2158 01b2 5B68     		ldr	r3, [r3, #4]
 2159 01b4 1846     		mov	r0, r3
 2160 01b6 1049     		ldr	r1, .L146+28
 2161 01b8 0422     		movs	r2, #4
 2162 01ba FFF7FEFF 		bl	tcp_poll
 2163              		.loc 2 816 0
 2164 01be 7B68     		ldr	r3, [r7, #4]
 2165 01c0 5B68     		ldr	r3, [r3, #4]
 2166 01c2 1846     		mov	r0, r3
 2167 01c4 0D49     		ldr	r1, .L146+32
 2168 01c6 FFF7FEFF 		bl	tcp_err
 2169              		.loc 2 817 0
 2170 01ca 7B68     		ldr	r3, [r7, #4]
 2171 01cc 5B68     		ldr	r3, [r3, #4]
 2172 01ce 1846     		mov	r0, r3
 2173 01d0 7968     		ldr	r1, [r7, #4]
 2174 01d2 FFF7FEFF 		bl	tcp_arg
 2175              	.L127:
 2176              		.loc 2 822 0
 2177 01d6 1037     		adds	r7, r7, #16
 2178 01d8 BD46     		mov	sp, r7
 2179              		@ sp needed
 2180 01da 80BD     		pop	{r7, pc}
 2181              	.L147:
 2182              		.align	2
 2183              	.L146:
 2184 01dc 30020000 		.word	.LC15
 2185 01e0 40020000 		.word	.LC16
 2186 01e4 60020000 		.word	.LC17
 2187 01e8 84020000 		.word	.LC18
 2188 01ec D8000000 		.word	.LC7
 2189 01f0 98020000 		.word	.LC19
 2190 01f4 00000000 		.word	sent_tcp
ARM GAS  C:\Users\Luis\AppData\Local\Temp\ccd19DXF.s 			page 41


 2191 01f8 00000000 		.word	poll_tcp
 2192 01fc 00000000 		.word	err_tcp
 2193              		.cfi_endproc
 2194              	.LFE273:
 2195              		.size	do_close_internal, .-do_close_internal
 2196              		.section	.rodata
 2197 02bb 00       		.align	2
 2198              	.LC20:
 2199 02bc 6D73672D 		.ascii	"msg->conn->type == NETCONN_TCP\000"
 2199      3E636F6E 
 2199      6E2D3E74 
 2199      79706520 
 2199      3D3D204E 
 2200 02db 00       		.align	2
 2201              	.LC21:
 2202 02dc 626C6F63 		.ascii	"blocking connect in progress\000"
 2202      6B696E67 
 2202      20636F6E 
 2202      6E656374 
 2202      20696E20 
 2203 02f9 000000   		.align	2
 2204              	.LC22:
 2205 02fc 616C7265 		.ascii	"already writing or closing\000"
 2205      61647920 
 2205      77726974 
 2205      696E6720 
 2205      6F722063 
 2206              		.section	.text.do_delconn,"ax",%progbits
 2207              		.align	2
 2208              		.p2align 4,,15
 2209              		.global	do_delconn
 2210              		.thumb
 2211              		.thumb_func
 2212              		.type	do_delconn, %function
 2213              	do_delconn:
 2214              	.LFB274:
 2215              		.loc 2 833 0
 2216              		.cfi_startproc
 2217              		@ args = 0, pretend = 0, frame = 8
 2218              		@ frame_needed = 1, uses_anonymous_args = 0
 2219 0000 80B5     		push	{r7, lr}
 2220              		.cfi_def_cfa_offset 8
 2221              		.cfi_offset 7, -8
 2222              		.cfi_offset 14, -4
 2223 0002 82B0     		sub	sp, sp, #8
 2224              		.cfi_def_cfa_offset 16
 2225 0004 00AF     		add	r7, sp, #0
 2226              		.cfi_def_cfa_register 7
 2227 0006 7860     		str	r0, [r7, #4]
 2228              		.loc 2 835 0
 2229 0008 7B68     		ldr	r3, [r7, #4]
 2230 000a 1B68     		ldr	r3, [r3]
 2231 000c 5B78     		ldrb	r3, [r3, #1]	@ zero_extendqisi2
 2232 000e 002B     		cmp	r3, #0
 2233 0010 15D0     		beq	.L149
 2234              		.loc 2 836 0 discriminator 1
 2235 0012 7B68     		ldr	r3, [r7, #4]
ARM GAS  C:\Users\Luis\AppData\Local\Temp\ccd19DXF.s 			page 42


 2236 0014 1B68     		ldr	r3, [r3]
 2237 0016 5B78     		ldrb	r3, [r3, #1]	@ zero_extendqisi2
 2238              		.loc 2 835 0 discriminator 1
 2239 0018 022B     		cmp	r3, #2
 2240 001a 10D0     		beq	.L149
 2241              		.loc 2 837 0
 2242 001c 7B68     		ldr	r3, [r7, #4]
 2243 001e 1B68     		ldr	r3, [r3]
 2244 0020 5B78     		ldrb	r3, [r3, #1]	@ zero_extendqisi2
 2245              		.loc 2 836 0
 2246 0022 032B     		cmp	r3, #3
 2247 0024 0BD0     		beq	.L149
 2248              		.loc 2 839 0
 2249 0026 7B68     		ldr	r3, [r7, #4]
 2250 0028 1B68     		ldr	r3, [r3]
 2251 002a 1B78     		ldrb	r3, [r3]	@ zero_extendqisi2
 2252 002c 102B     		cmp	r3, #16
 2253 002e 02D0     		beq	.L150
 2254              		.loc 2 839 0 is_stmt 0 discriminator 1
 2255 0030 4748     		ldr	r0, .L163
 2256 0032 FFF7FEFF 		bl	osalSysHalt
 2257              	.L150:
 2258              		.loc 2 840 0 is_stmt 1
 2259 0036 7B68     		ldr	r3, [r7, #4]
 2260 0038 FB22     		movs	r2, #251
 2261 003a 1A71     		strb	r2, [r3, #4]
 2262 003c 75E0     		b	.L151
 2263              	.L149:
 2264              		.loc 2 842 0
 2265 003e 7B68     		ldr	r3, [r7, #4]
 2266 0040 1B68     		ldr	r3, [r3]
 2267 0042 5B78     		ldrb	r3, [r3, #1]	@ zero_extendqisi2
 2268 0044 032B     		cmp	r3, #3
 2269 0046 09D1     		bne	.L152
 2270              		.loc 2 842 0 is_stmt 0 discriminator 1
 2271 0048 7B68     		ldr	r3, [r7, #4]
 2272 004a 1B68     		ldr	r3, [r3]
 2273 004c 1B7F     		ldrb	r3, [r3, #28]	@ zero_extendqisi2
 2274 004e 03F00403 		and	r3, r3, #4
 2275 0052 002B     		cmp	r3, #0
 2276 0054 02D1     		bne	.L152
 2277 0056 3F48     		ldr	r0, .L163+4
 2278 0058 FFF7FEFF 		bl	osalSysHalt
 2279              	.L152:
 2280              		.loc 2 845 0 is_stmt 1
 2281 005c 7B68     		ldr	r3, [r7, #4]
 2282 005e 1B68     		ldr	r3, [r3]
 2283 0060 1846     		mov	r0, r3
 2284 0062 FFF7FEFF 		bl	netconn_drain
 2285              		.loc 2 847 0
 2286 0066 7B68     		ldr	r3, [r7, #4]
 2287 0068 1B68     		ldr	r3, [r3]
 2288 006a 5B68     		ldr	r3, [r3, #4]
 2289 006c 002B     		cmp	r3, #0
 2290 006e 40D0     		beq	.L153
 2291              		.loc 2 849 0
 2292 0070 7B68     		ldr	r3, [r7, #4]
ARM GAS  C:\Users\Luis\AppData\Local\Temp\ccd19DXF.s 			page 43


 2293 0072 1B68     		ldr	r3, [r3]
 2294 0074 1B78     		ldrb	r3, [r3]	@ zero_extendqisi2
 2295 0076 03F0F003 		and	r3, r3, #240
 2296 007a 202B     		cmp	r3, #32
 2297 007c 0BD0     		beq	.L155
 2298 007e 402B     		cmp	r3, #64
 2299 0080 02D0     		beq	.L156
 2300 0082 102B     		cmp	r3, #16
 2301 0084 13D0     		beq	.L157
 2302              		.loc 2 874 0
 2303 0086 30E0     		b	.L158
 2304              	.L156:
 2305              		.loc 2 852 0
 2306 0088 7B68     		ldr	r3, [r7, #4]
 2307 008a 1B68     		ldr	r3, [r3]
 2308 008c 5B68     		ldr	r3, [r3, #4]
 2309 008e 1846     		mov	r0, r3
 2310 0090 FFF7FEFF 		bl	raw_remove
 2311              		.loc 2 853 0
 2312 0094 29E0     		b	.L158
 2313              	.L155:
 2314              		.loc 2 857 0
 2315 0096 7B68     		ldr	r3, [r7, #4]
 2316 0098 1B68     		ldr	r3, [r3]
 2317 009a 5B68     		ldr	r3, [r3, #4]
 2318 009c 0022     		movs	r2, #0
 2319 009e DA61     		str	r2, [r3, #28]
 2320              		.loc 2 858 0
 2321 00a0 7B68     		ldr	r3, [r7, #4]
 2322 00a2 1B68     		ldr	r3, [r3]
 2323 00a4 5B68     		ldr	r3, [r3, #4]
 2324 00a6 1846     		mov	r0, r3
 2325 00a8 FFF7FEFF 		bl	udp_remove
 2326              		.loc 2 859 0
 2327 00ac 1DE0     		b	.L158
 2328              	.L157:
 2329              		.loc 2 863 0
 2330 00ae 7B68     		ldr	r3, [r7, #4]
 2331 00b0 1B68     		ldr	r3, [r3]
 2332 00b2 5B6A     		ldr	r3, [r3, #36]
 2333 00b4 002B     		cmp	r3, #0
 2334 00b6 04D1     		bne	.L159
 2335              		.loc 2 863 0 is_stmt 0 discriminator 2
 2336 00b8 7B68     		ldr	r3, [r7, #4]
 2337 00ba 1B68     		ldr	r3, [r3]
 2338 00bc 1B6A     		ldr	r3, [r3, #32]
 2339 00be 002B     		cmp	r3, #0
 2340 00c0 02D0     		beq	.L160
 2341              	.L159:
 2342              		.loc 2 863 0 discriminator 1
 2343 00c2 2548     		ldr	r0, .L163+8
 2344 00c4 FFF7FEFF 		bl	osalSysHalt
 2345              	.L160:
 2346              		.loc 2 865 0 is_stmt 1
 2347 00c8 7B68     		ldr	r3, [r7, #4]
 2348 00ca 1B68     		ldr	r3, [r3]
 2349 00cc 0422     		movs	r2, #4
ARM GAS  C:\Users\Luis\AppData\Local\Temp\ccd19DXF.s 			page 44


 2350 00ce 5A70     		strb	r2, [r3, #1]
 2351              		.loc 2 866 0
 2352 00d0 7B68     		ldr	r3, [r7, #4]
 2353 00d2 0322     		movs	r2, #3
 2354 00d4 1A72     		strb	r2, [r3, #8]
 2355              		.loc 2 867 0
 2356 00d6 7B68     		ldr	r3, [r7, #4]
 2357 00d8 1B68     		ldr	r3, [r3]
 2358 00da 7A68     		ldr	r2, [r7, #4]
 2359 00dc 5A62     		str	r2, [r3, #36]
 2360              		.loc 2 868 0
 2361 00de 7B68     		ldr	r3, [r7, #4]
 2362 00e0 1B68     		ldr	r3, [r3]
 2363 00e2 1846     		mov	r0, r3
 2364 00e4 FFF7FEFF 		bl	do_close_internal
 2365              		.loc 2 871 0
 2366 00e8 2EE0     		b	.L148
 2367              	.L158:
 2368              		.loc 2 876 0
 2369 00ea 7B68     		ldr	r3, [r7, #4]
 2370 00ec 1B68     		ldr	r3, [r3]
 2371 00ee 0022     		movs	r2, #0
 2372 00f0 5A60     		str	r2, [r3, #4]
 2373              	.L153:
 2374              		.loc 2 882 0
 2375 00f2 7B68     		ldr	r3, [r7, #4]
 2376 00f4 1B68     		ldr	r3, [r3]
 2377 00f6 9B6A     		ldr	r3, [r3, #40]
 2378 00f8 002B     		cmp	r3, #0
 2379 00fa 08D0     		beq	.L162
 2380              		.loc 2 882 0 is_stmt 0 discriminator 1
 2381 00fc 7B68     		ldr	r3, [r7, #4]
 2382 00fe 1B68     		ldr	r3, [r3]
 2383 0100 9B6A     		ldr	r3, [r3, #40]
 2384 0102 7A68     		ldr	r2, [r7, #4]
 2385 0104 1268     		ldr	r2, [r2]
 2386 0106 1046     		mov	r0, r2
 2387 0108 0021     		movs	r1, #0
 2388 010a 0022     		movs	r2, #0
 2389 010c 9847     		blx	r3
 2390              	.L162:
 2391              		.loc 2 883 0 is_stmt 1
 2392 010e 7B68     		ldr	r3, [r7, #4]
 2393 0110 1B68     		ldr	r3, [r3]
 2394 0112 9B6A     		ldr	r3, [r3, #40]
 2395 0114 002B     		cmp	r3, #0
 2396 0116 08D0     		beq	.L151
 2397              		.loc 2 883 0 is_stmt 0 discriminator 1
 2398 0118 7B68     		ldr	r3, [r7, #4]
 2399 011a 1B68     		ldr	r3, [r3]
 2400 011c 9B6A     		ldr	r3, [r3, #40]
 2401 011e 7A68     		ldr	r2, [r7, #4]
 2402 0120 1268     		ldr	r2, [r2]
 2403 0122 1046     		mov	r0, r2
 2404 0124 0221     		movs	r1, #2
 2405 0126 0022     		movs	r2, #0
 2406 0128 9847     		blx	r3
ARM GAS  C:\Users\Luis\AppData\Local\Temp\ccd19DXF.s 			page 45


 2407              	.L151:
 2408              		.loc 2 885 0 is_stmt 1
 2409 012a 7B68     		ldr	r3, [r7, #4]
 2410 012c 1B68     		ldr	r3, [r3]
 2411 012e 0C33     		adds	r3, r3, #12
 2412 0130 1846     		mov	r0, r3
 2413 0132 FFF7FEFF 		bl	sys_sem_valid
 2414 0136 0346     		mov	r3, r0
 2415 0138 002B     		cmp	r3, #0
 2416 013a 05D0     		beq	.L148
 2417              		.loc 2 886 0
 2418 013c 7B68     		ldr	r3, [r7, #4]
 2419 013e 1B68     		ldr	r3, [r3]
 2420 0140 0C33     		adds	r3, r3, #12
 2421 0142 1846     		mov	r0, r3
 2422 0144 FFF7FEFF 		bl	sys_sem_signal
 2423              	.L148:
 2424              		.loc 2 888 0
 2425 0148 0837     		adds	r7, r7, #8
 2426 014a BD46     		mov	sp, r7
 2427              		@ sp needed
 2428 014c 80BD     		pop	{r7, pc}
 2429              	.L164:
 2430 014e 00BF     		.align	2
 2431              	.L163:
 2432 0150 BC020000 		.word	.LC20
 2433 0154 DC020000 		.word	.LC21
 2434 0158 FC020000 		.word	.LC22
 2435              		.cfi_endproc
 2436              	.LFE274:
 2437              		.size	do_delconn, .-do_delconn
 2438 015c AFF30080 		.section	.text.do_bind,"ax",%progbits
 2439              		.align	2
 2440              		.p2align 4,,15
 2441              		.global	do_bind
 2442              		.thumb
 2443              		.thumb_func
 2444              		.type	do_bind, %function
 2445              	do_bind:
 2446              	.LFB275:
 2447              		.loc 2 899 0
 2448              		.cfi_startproc
 2449              		@ args = 0, pretend = 0, frame = 8
 2450              		@ frame_needed = 1, uses_anonymous_args = 0
 2451 0000 80B5     		push	{r7, lr}
 2452              		.cfi_def_cfa_offset 8
 2453              		.cfi_offset 7, -8
 2454              		.cfi_offset 14, -4
 2455 0002 82B0     		sub	sp, sp, #8
 2456              		.cfi_def_cfa_offset 16
 2457 0004 00AF     		add	r7, sp, #0
 2458              		.cfi_def_cfa_register 7
 2459 0006 7860     		str	r0, [r7, #4]
 2460              		.loc 2 900 0
 2461 0008 7B68     		ldr	r3, [r7, #4]
 2462 000a 1B68     		ldr	r3, [r3]
 2463 000c 1B7A     		ldrb	r3, [r3, #8]	@ zero_extendqisi2
ARM GAS  C:\Users\Luis\AppData\Local\Temp\ccd19DXF.s 			page 46


 2464 000e 5BB2     		sxtb	r3, r3
 2465 0010 13F1090F 		cmn	r3, #9
 2466 0014 05DA     		bge	.L166
 2467              		.loc 2 901 0
 2468 0016 7B68     		ldr	r3, [r7, #4]
 2469 0018 1B68     		ldr	r3, [r3]
 2470 001a 1A7A     		ldrb	r2, [r3, #8]	@ zero_extendqisi2
 2471 001c 7B68     		ldr	r3, [r7, #4]
 2472 001e 1A71     		strb	r2, [r3, #4]
 2473 0020 43E0     		b	.L167
 2474              	.L166:
 2475              		.loc 2 903 0
 2476 0022 7B68     		ldr	r3, [r7, #4]
 2477 0024 FA22     		movs	r2, #250
 2478 0026 1A71     		strb	r2, [r3, #4]
 2479              		.loc 2 904 0
 2480 0028 7B68     		ldr	r3, [r7, #4]
 2481 002a 1B68     		ldr	r3, [r3]
 2482 002c 5B68     		ldr	r3, [r3, #4]
 2483 002e 002B     		cmp	r3, #0
 2484 0030 3BD0     		beq	.L167
 2485              		.loc 2 905 0
 2486 0032 7B68     		ldr	r3, [r7, #4]
 2487 0034 1B68     		ldr	r3, [r3]
 2488 0036 1B78     		ldrb	r3, [r3]	@ zero_extendqisi2
 2489 0038 03F0F003 		and	r3, r3, #240
 2490 003c 202B     		cmp	r3, #32
 2491 003e 12D0     		beq	.L169
 2492 0040 402B     		cmp	r3, #64
 2493 0042 02D0     		beq	.L170
 2494 0044 102B     		cmp	r3, #16
 2495 0046 1FD0     		beq	.L171
 2496              		.loc 2 922 0
 2497 0048 2FE0     		b	.L167
 2498              	.L170:
 2499              		.loc 2 908 0
 2500 004a 7B68     		ldr	r3, [r7, #4]
 2501 004c 1B68     		ldr	r3, [r3]
 2502 004e 5A68     		ldr	r2, [r3, #4]
 2503 0050 7B68     		ldr	r3, [r7, #4]
 2504 0052 9B68     		ldr	r3, [r3, #8]
 2505 0054 1046     		mov	r0, r2
 2506 0056 1946     		mov	r1, r3
 2507 0058 FFF7FEFF 		bl	raw_bind
 2508 005c 0346     		mov	r3, r0
 2509 005e 1A46     		mov	r2, r3
 2510 0060 7B68     		ldr	r3, [r7, #4]
 2511 0062 1A71     		strb	r2, [r3, #4]
 2512              		.loc 2 909 0
 2513 0064 21E0     		b	.L167
 2514              	.L169:
 2515              		.loc 2 913 0
 2516 0066 7B68     		ldr	r3, [r7, #4]
 2517 0068 1B68     		ldr	r3, [r3]
 2518 006a 5968     		ldr	r1, [r3, #4]
 2519 006c 7B68     		ldr	r3, [r7, #4]
 2520 006e 9A68     		ldr	r2, [r3, #8]
ARM GAS  C:\Users\Luis\AppData\Local\Temp\ccd19DXF.s 			page 47


 2521 0070 7B68     		ldr	r3, [r7, #4]
 2522 0072 9B89     		ldrh	r3, [r3, #12]
 2523 0074 0846     		mov	r0, r1
 2524 0076 1146     		mov	r1, r2
 2525 0078 1A46     		mov	r2, r3
 2526 007a FFF7FEFF 		bl	udp_bind
 2527 007e 0346     		mov	r3, r0
 2528 0080 1A46     		mov	r2, r3
 2529 0082 7B68     		ldr	r3, [r7, #4]
 2530 0084 1A71     		strb	r2, [r3, #4]
 2531              		.loc 2 914 0
 2532 0086 10E0     		b	.L167
 2533              	.L171:
 2534              		.loc 2 918 0
 2535 0088 7B68     		ldr	r3, [r7, #4]
 2536 008a 1B68     		ldr	r3, [r3]
 2537 008c 5968     		ldr	r1, [r3, #4]
 2538 008e 7B68     		ldr	r3, [r7, #4]
 2539 0090 9A68     		ldr	r2, [r3, #8]
 2540 0092 7B68     		ldr	r3, [r7, #4]
 2541 0094 9B89     		ldrh	r3, [r3, #12]
 2542 0096 0846     		mov	r0, r1
 2543 0098 1146     		mov	r1, r2
 2544 009a 1A46     		mov	r2, r3
 2545 009c FFF7FEFF 		bl	tcp_bind
 2546 00a0 0346     		mov	r3, r0
 2547 00a2 1A46     		mov	r2, r3
 2548 00a4 7B68     		ldr	r3, [r7, #4]
 2549 00a6 1A71     		strb	r2, [r3, #4]
 2550              		.loc 2 919 0
 2551 00a8 00BF     		nop
 2552              	.L167:
 2553              		.loc 2 926 0
 2554 00aa 7B68     		ldr	r3, [r7, #4]
 2555 00ac 1B68     		ldr	r3, [r3]
 2556 00ae 0C33     		adds	r3, r3, #12
 2557 00b0 1846     		mov	r0, r3
 2558 00b2 FFF7FEFF 		bl	sys_sem_signal
 2559              		.loc 2 927 0
 2560 00b6 0837     		adds	r7, r7, #8
 2561 00b8 BD46     		mov	sp, r7
 2562              		@ sp needed
 2563 00ba 80BD     		pop	{r7, pc}
 2564              		.cfi_endproc
 2565              	.LFE275:
 2566              		.size	do_bind, .-do_bind
 2567 00bc AFF30080 		.section	.rodata
 2568 0317 00       		.align	2
 2569              	.LC23:
 2570 0318 636F6E6E 		.ascii	"conn->state == NETCONN_CONNECT\000"
 2570      2D3E7374 
 2570      61746520 
 2570      3D3D204E 
 2570      4554434F 
 2571 0337 00       		.align	2
 2572              	.LC24:
 2573 0338 28636F6E 		.ascii	"(conn->current_msg != NULL) || conn->in_non_blockin"
ARM GAS  C:\Users\Luis\AppData\Local\Temp\ccd19DXF.s 			page 48


 2573      6E2D3E63 
 2573      75727265 
 2573      6E745F6D 
 2573      73672021 
 2574 036b 675F636F 		.ascii	"g_connect\000"
 2574      6E6E6563 
 2574      7400
 2575              		.section	.text.do_connected,"ax",%progbits
 2576              		.align	2
 2577              		.p2align 4,,15
 2578              		.thumb
 2579              		.thumb_func
 2580              		.type	do_connected, %function
 2581              	do_connected:
 2582              	.LFB276:
 2583              		.loc 2 938 0
 2584              		.cfi_startproc
 2585              		@ args = 0, pretend = 0, frame = 24
 2586              		@ frame_needed = 1, uses_anonymous_args = 0
 2587 0000 80B5     		push	{r7, lr}
 2588              		.cfi_def_cfa_offset 8
 2589              		.cfi_offset 7, -8
 2590              		.cfi_offset 14, -4
 2591 0002 86B0     		sub	sp, sp, #24
 2592              		.cfi_def_cfa_offset 32
 2593 0004 00AF     		add	r7, sp, #0
 2594              		.cfi_def_cfa_register 7
 2595 0006 F860     		str	r0, [r7, #12]
 2596 0008 B960     		str	r1, [r7, #8]
 2597 000a 1346     		mov	r3, r2
 2598 000c FB71     		strb	r3, [r7, #7]
 2599              		.loc 2 944 0
 2600 000e FB68     		ldr	r3, [r7, #12]
 2601 0010 7B61     		str	r3, [r7, #20]
 2602              		.loc 2 946 0
 2603 0012 7B69     		ldr	r3, [r7, #20]
 2604 0014 002B     		cmp	r3, #0
 2605 0016 01D1     		bne	.L173
 2606              		.loc 2 947 0
 2607 0018 FA23     		movs	r3, #250
 2608 001a 5CE0     		b	.L174
 2609              	.L173:
 2610              		.loc 2 950 0
 2611 001c 7B69     		ldr	r3, [r7, #20]
 2612 001e 5B78     		ldrb	r3, [r3, #1]	@ zero_extendqisi2
 2613 0020 032B     		cmp	r3, #3
 2614 0022 02D0     		beq	.L175
 2615              		.loc 2 950 0 is_stmt 0 discriminator 1
 2616 0024 2E48     		ldr	r0, .L182
 2617 0026 FFF7FEFF 		bl	osalSysHalt
 2618              	.L175:
 2619              		.loc 2 951 0 is_stmt 1
 2620 002a 7B69     		ldr	r3, [r7, #20]
 2621 002c 5B6A     		ldr	r3, [r3, #36]
 2622 002e 002B     		cmp	r3, #0
 2623 0030 08D1     		bne	.L176
 2624              		.loc 2 951 0 is_stmt 0 discriminator 1
ARM GAS  C:\Users\Luis\AppData\Local\Temp\ccd19DXF.s 			page 49


 2625 0032 7B69     		ldr	r3, [r7, #20]
 2626 0034 1B7F     		ldrb	r3, [r3, #28]	@ zero_extendqisi2
 2627 0036 03F00403 		and	r3, r3, #4
 2628 003a 002B     		cmp	r3, #0
 2629 003c 02D1     		bne	.L176
 2630 003e 2948     		ldr	r0, .L182+4
 2631 0040 FFF7FEFF 		bl	osalSysHalt
 2632              	.L176:
 2633              		.loc 2 954 0 is_stmt 1
 2634 0044 7B69     		ldr	r3, [r7, #20]
 2635 0046 5B6A     		ldr	r3, [r3, #36]
 2636 0048 002B     		cmp	r3, #0
 2637 004a 03D0     		beq	.L177
 2638              		.loc 2 955 0
 2639 004c 7B69     		ldr	r3, [r7, #20]
 2640 004e 5B6A     		ldr	r3, [r3, #36]
 2641 0050 FA79     		ldrb	r2, [r7, #7]
 2642 0052 1A71     		strb	r2, [r3, #4]
 2643              	.L177:
 2644              		.loc 2 957 0
 2645 0054 7B69     		ldr	r3, [r7, #20]
 2646 0056 1B78     		ldrb	r3, [r3]	@ zero_extendqisi2
 2647 0058 102B     		cmp	r3, #16
 2648 005a 06D1     		bne	.L178
 2649              		.loc 2 957 0 is_stmt 0 discriminator 1
 2650 005c 97F90730 		ldrsb	r3, [r7, #7]
 2651 0060 002B     		cmp	r3, #0
 2652 0062 02D1     		bne	.L178
 2653              		.loc 2 958 0 is_stmt 1
 2654 0064 7869     		ldr	r0, [r7, #20]
 2655 0066 FFF7FEFF 		bl	setup_tcp
 2656              	.L178:
 2657              		.loc 2 960 0
 2658 006a 7B69     		ldr	r3, [r7, #20]
 2659 006c 1B7F     		ldrb	r3, [r3, #28]	@ zero_extendqisi2
 2660 006e 03F00403 		and	r3, r3, #4
 2661 0072 002B     		cmp	r3, #0
 2662 0074 14BF     		ite	ne
 2663 0076 0023     		movne	r3, #0
 2664 0078 0123     		moveq	r3, #1
 2665 007a DBB2     		uxtb	r3, r3
 2666 007c 3B61     		str	r3, [r7, #16]
 2667              		.loc 2 961 0
 2668 007e 7B69     		ldr	r3, [r7, #20]
 2669 0080 1B7F     		ldrb	r3, [r3, #28]	@ zero_extendqisi2
 2670 0082 23F00403 		bic	r3, r3, #4
 2671 0086 DAB2     		uxtb	r2, r3
 2672 0088 7B69     		ldr	r3, [r7, #20]
 2673 008a 1A77     		strb	r2, [r3, #28]
 2674              		.loc 2 962 0
 2675 008c 7B69     		ldr	r3, [r7, #20]
 2676 008e 0022     		movs	r2, #0
 2677 0090 5A62     		str	r2, [r3, #36]
 2678              		.loc 2 963 0
 2679 0092 7B69     		ldr	r3, [r7, #20]
 2680 0094 0022     		movs	r2, #0
 2681 0096 5A70     		strb	r2, [r3, #1]
ARM GAS  C:\Users\Luis\AppData\Local\Temp\ccd19DXF.s 			page 50


 2682              		.loc 2 964 0
 2683 0098 3B69     		ldr	r3, [r7, #16]
 2684 009a 002B     		cmp	r3, #0
 2685 009c 08D1     		bne	.L179
 2686              		.loc 2 965 0
 2687 009e 7B69     		ldr	r3, [r7, #20]
 2688 00a0 1B7A     		ldrb	r3, [r3, #8]	@ zero_extendqisi2
 2689 00a2 5BB2     		sxtb	r3, r3
 2690 00a4 13F1090F 		cmn	r3, #9
 2691 00a8 02DB     		blt	.L179
 2692              		.loc 2 965 0 is_stmt 0 discriminator 1
 2693 00aa 7B69     		ldr	r3, [r7, #20]
 2694 00ac 0022     		movs	r2, #0
 2695 00ae 1A72     		strb	r2, [r3, #8]
 2696              	.L179:
 2697              		.loc 2 967 0 is_stmt 1
 2698 00b0 7B69     		ldr	r3, [r7, #20]
 2699 00b2 9B6A     		ldr	r3, [r3, #40]
 2700 00b4 002B     		cmp	r3, #0
 2701 00b6 05D0     		beq	.L180
 2702              		.loc 2 967 0 is_stmt 0 discriminator 1
 2703 00b8 7B69     		ldr	r3, [r7, #20]
 2704 00ba 9B6A     		ldr	r3, [r3, #40]
 2705 00bc 7869     		ldr	r0, [r7, #20]
 2706 00be 0221     		movs	r1, #2
 2707 00c0 0022     		movs	r2, #0
 2708 00c2 9847     		blx	r3
 2709              	.L180:
 2710              		.loc 2 969 0 is_stmt 1
 2711 00c4 3B69     		ldr	r3, [r7, #16]
 2712 00c6 002B     		cmp	r3, #0
 2713 00c8 04D0     		beq	.L181
 2714              		.loc 2 970 0
 2715 00ca 7B69     		ldr	r3, [r7, #20]
 2716 00cc 0C33     		adds	r3, r3, #12
 2717 00ce 1846     		mov	r0, r3
 2718 00d0 FFF7FEFF 		bl	sys_sem_signal
 2719              	.L181:
 2720              		.loc 2 972 0
 2721 00d4 0023     		movs	r3, #0
 2722              	.L174:
 2723 00d6 5BB2     		sxtb	r3, r3
 2724              		.loc 2 973 0
 2725 00d8 1846     		mov	r0, r3
 2726 00da 1837     		adds	r7, r7, #24
 2727 00dc BD46     		mov	sp, r7
 2728              		@ sp needed
 2729 00de 80BD     		pop	{r7, pc}
 2730              	.L183:
 2731              		.align	2
 2732              	.L182:
 2733 00e0 18030000 		.word	.LC23
 2734 00e4 38030000 		.word	.LC24
 2735              		.cfi_endproc
 2736              	.LFE276:
 2737              		.size	do_connected, .-do_connected
 2738 00e8 AFF30080 		.section	.rodata
ARM GAS  C:\Users\Luis\AppData\Local\Temp\ccd19DXF.s 			page 51


 2738      AFF30080 
 2739 0375 000000   		.align	2
 2740              	.LC25:
 2741 0378 496E7661 		.ascii	"Invalid netconn type\000"
 2741      6C696420 
 2741      6E657463 
 2741      6F6E6E20 
 2741      74797065 
 2742              		.section	.text.do_connect,"ax",%progbits
 2743              		.align	2
 2744              		.p2align 4,,15
 2745              		.global	do_connect
 2746              		.thumb
 2747              		.thumb_func
 2748              		.type	do_connect, %function
 2749              	do_connect:
 2750              	.LFB277:
 2751              		.loc 2 985 0
 2752              		.cfi_startproc
 2753              		@ args = 0, pretend = 0, frame = 16
 2754              		@ frame_needed = 1, uses_anonymous_args = 0
 2755 0000 80B5     		push	{r7, lr}
 2756              		.cfi_def_cfa_offset 8
 2757              		.cfi_offset 7, -8
 2758              		.cfi_offset 14, -4
 2759 0002 84B0     		sub	sp, sp, #16
 2760              		.cfi_def_cfa_offset 24
 2761 0004 00AF     		add	r7, sp, #0
 2762              		.cfi_def_cfa_register 7
 2763 0006 7860     		str	r0, [r7, #4]
 2764              		.loc 2 986 0
 2765 0008 7B68     		ldr	r3, [r7, #4]
 2766 000a 1B68     		ldr	r3, [r3]
 2767 000c 5B68     		ldr	r3, [r3, #4]
 2768 000e 002B     		cmp	r3, #0
 2769 0010 03D1     		bne	.L185
 2770              		.loc 2 988 0
 2771 0012 7B68     		ldr	r3, [r7, #4]
 2772 0014 F422     		movs	r2, #244
 2773 0016 1A71     		strb	r2, [r3, #4]
 2774 0018 86E0     		b	.L186
 2775              	.L185:
 2776              		.loc 2 990 0
 2777 001a 7B68     		ldr	r3, [r7, #4]
 2778 001c 1B68     		ldr	r3, [r3]
 2779 001e 1B78     		ldrb	r3, [r3]	@ zero_extendqisi2
 2780 0020 03F0F003 		and	r3, r3, #240
 2781 0024 202B     		cmp	r3, #32
 2782 0026 12D0     		beq	.L188
 2783 0028 402B     		cmp	r3, #64
 2784 002a 02D0     		beq	.L189
 2785 002c 102B     		cmp	r3, #16
 2786 002e 1FD0     		beq	.L190
 2787 0030 73E0     		b	.L197
 2788              	.L189:
 2789              		.loc 2 993 0
 2790 0032 7B68     		ldr	r3, [r7, #4]
ARM GAS  C:\Users\Luis\AppData\Local\Temp\ccd19DXF.s 			page 52


 2791 0034 1B68     		ldr	r3, [r3]
 2792 0036 5A68     		ldr	r2, [r3, #4]
 2793 0038 7B68     		ldr	r3, [r7, #4]
 2794 003a 9B68     		ldr	r3, [r3, #8]
 2795 003c 1046     		mov	r0, r2
 2796 003e 1946     		mov	r1, r3
 2797 0040 FFF7FEFF 		bl	raw_connect
 2798 0044 0346     		mov	r3, r0
 2799 0046 1A46     		mov	r2, r3
 2800 0048 7B68     		ldr	r3, [r7, #4]
 2801 004a 1A71     		strb	r2, [r3, #4]
 2802              		.loc 2 994 0
 2803 004c 6CE0     		b	.L186
 2804              	.L188:
 2805              		.loc 2 998 0
 2806 004e 7B68     		ldr	r3, [r7, #4]
 2807 0050 1B68     		ldr	r3, [r3]
 2808 0052 5968     		ldr	r1, [r3, #4]
 2809 0054 7B68     		ldr	r3, [r7, #4]
 2810 0056 9A68     		ldr	r2, [r3, #8]
 2811 0058 7B68     		ldr	r3, [r7, #4]
 2812 005a 9B89     		ldrh	r3, [r3, #12]
 2813 005c 0846     		mov	r0, r1
 2814 005e 1146     		mov	r1, r2
 2815 0060 1A46     		mov	r2, r3
 2816 0062 FFF7FEFF 		bl	udp_connect
 2817 0066 0346     		mov	r3, r0
 2818 0068 1A46     		mov	r2, r3
 2819 006a 7B68     		ldr	r3, [r7, #4]
 2820 006c 1A71     		strb	r2, [r3, #4]
 2821              		.loc 2 999 0
 2822 006e 5BE0     		b	.L186
 2823              	.L190:
 2824              		.loc 2 1004 0
 2825 0070 7B68     		ldr	r3, [r7, #4]
 2826 0072 1B68     		ldr	r3, [r3]
 2827 0074 5B78     		ldrb	r3, [r3, #1]	@ zero_extendqisi2
 2828 0076 002B     		cmp	r3, #0
 2829 0078 03D0     		beq	.L191
 2830              		.loc 2 1005 0
 2831 007a 7B68     		ldr	r3, [r7, #4]
 2832 007c F722     		movs	r2, #247
 2833 007e 1A71     		strb	r2, [r3, #4]
 2834 0080 4AE0     		b	.L192
 2835              	.L191:
 2836              		.loc 2 1007 0
 2837 0082 7B68     		ldr	r3, [r7, #4]
 2838 0084 1B68     		ldr	r3, [r3]
 2839 0086 1846     		mov	r0, r3
 2840 0088 FFF7FEFF 		bl	setup_tcp
 2841              		.loc 2 1008 0
 2842 008c 7B68     		ldr	r3, [r7, #4]
 2843 008e 1B68     		ldr	r3, [r3]
 2844 0090 5968     		ldr	r1, [r3, #4]
 2845 0092 7B68     		ldr	r3, [r7, #4]
 2846 0094 9A68     		ldr	r2, [r3, #8]
 2847 0096 7B68     		ldr	r3, [r7, #4]
ARM GAS  C:\Users\Luis\AppData\Local\Temp\ccd19DXF.s 			page 53


 2848 0098 9B89     		ldrh	r3, [r3, #12]
 2849 009a 0846     		mov	r0, r1
 2850 009c 1146     		mov	r1, r2
 2851 009e 1A46     		mov	r2, r3
 2852 00a0 264B     		ldr	r3, .L198
 2853 00a2 FFF7FEFF 		bl	tcp_connect
 2854 00a6 0346     		mov	r3, r0
 2855 00a8 1A46     		mov	r2, r3
 2856 00aa 7B68     		ldr	r3, [r7, #4]
 2857 00ac 1A71     		strb	r2, [r3, #4]
 2858              		.loc 2 1010 0
 2859 00ae 7B68     		ldr	r3, [r7, #4]
 2860 00b0 1B79     		ldrb	r3, [r3, #4]	@ zero_extendqisi2
 2861 00b2 002B     		cmp	r3, #0
 2862 00b4 30D1     		bne	.L192
 2863              	.LBB6:
 2864              		.loc 2 1011 0
 2865 00b6 7B68     		ldr	r3, [r7, #4]
 2866 00b8 1B68     		ldr	r3, [r3]
 2867 00ba 1B7F     		ldrb	r3, [r3, #28]	@ zero_extendqisi2
 2868 00bc 03F00203 		and	r3, r3, #2
 2869 00c0 002B     		cmp	r3, #0
 2870 00c2 0CBF     		ite	eq
 2871 00c4 0023     		moveq	r3, #0
 2872 00c6 0123     		movne	r3, #1
 2873 00c8 DBB2     		uxtb	r3, r3
 2874 00ca FB73     		strb	r3, [r7, #15]
 2875              		.loc 2 1012 0
 2876 00cc 7B68     		ldr	r3, [r7, #4]
 2877 00ce 1B68     		ldr	r3, [r3]
 2878 00d0 0322     		movs	r2, #3
 2879 00d2 5A70     		strb	r2, [r3, #1]
 2880              		.loc 2 1013 0
 2881 00d4 FB7B     		ldrb	r3, [r7, #15]	@ zero_extendqisi2
 2882 00d6 002B     		cmp	r3, #0
 2883 00d8 09D0     		beq	.L193
 2884              		.loc 2 1013 0 is_stmt 0 discriminator 1
 2885 00da 7B68     		ldr	r3, [r7, #4]
 2886 00dc 1B68     		ldr	r3, [r3]
 2887 00de 7A68     		ldr	r2, [r7, #4]
 2888 00e0 1268     		ldr	r2, [r2]
 2889 00e2 127F     		ldrb	r2, [r2, #28]	@ zero_extendqisi2
 2890 00e4 42F00402 		orr	r2, r2, #4
 2891 00e8 D2B2     		uxtb	r2, r2
 2892 00ea 1A77     		strb	r2, [r3, #28]
 2893 00ec 08E0     		b	.L194
 2894              	.L193:
 2895              		.loc 2 1013 0 discriminator 2
 2896 00ee 7B68     		ldr	r3, [r7, #4]
 2897 00f0 1B68     		ldr	r3, [r3]
 2898 00f2 7A68     		ldr	r2, [r7, #4]
 2899 00f4 1268     		ldr	r2, [r2]
 2900 00f6 127F     		ldrb	r2, [r2, #28]	@ zero_extendqisi2
 2901 00f8 22F00402 		bic	r2, r2, #4
 2902 00fc D2B2     		uxtb	r2, r2
 2903 00fe 1A77     		strb	r2, [r3, #28]
 2904              	.L194:
ARM GAS  C:\Users\Luis\AppData\Local\Temp\ccd19DXF.s 			page 54


 2905              		.loc 2 1014 0 is_stmt 1
 2906 0100 FB7B     		ldrb	r3, [r7, #15]	@ zero_extendqisi2
 2907 0102 002B     		cmp	r3, #0
 2908 0104 03D0     		beq	.L195
 2909              		.loc 2 1015 0
 2910 0106 7B68     		ldr	r3, [r7, #4]
 2911 0108 FB22     		movs	r2, #251
 2912 010a 1A71     		strb	r2, [r3, #4]
 2913 010c 04E0     		b	.L192
 2914              	.L195:
 2915              		.loc 2 1017 0
 2916 010e 7B68     		ldr	r3, [r7, #4]
 2917 0110 1B68     		ldr	r3, [r3]
 2918 0112 7A68     		ldr	r2, [r7, #4]
 2919 0114 5A62     		str	r2, [r3, #36]
 2920              		.loc 2 1020 0
 2921 0116 0DE0     		b	.L184
 2922              	.L192:
 2923              	.LBE6:
 2924              		.loc 2 1024 0
 2925 0118 06E0     		b	.L186
 2926              	.L197:
 2927              		.loc 2 1027 0
 2928 011a 0948     		ldr	r0, .L198+4
 2929 011c FFF7FEFF 		bl	osalSysHalt
 2930 0120 7B68     		ldr	r3, [r7, #4]
 2931 0122 FA22     		movs	r2, #250
 2932 0124 1A71     		strb	r2, [r3, #4]
 2933              		.loc 2 1028 0
 2934 0126 00BF     		nop
 2935              	.L186:
 2936              		.loc 2 1031 0
 2937 0128 7B68     		ldr	r3, [r7, #4]
 2938 012a 1B68     		ldr	r3, [r3]
 2939 012c 0C33     		adds	r3, r3, #12
 2940 012e 1846     		mov	r0, r3
 2941 0130 FFF7FEFF 		bl	sys_sem_signal
 2942              	.L184:
 2943              		.loc 2 1032 0
 2944 0134 1037     		adds	r7, r7, #16
 2945 0136 BD46     		mov	sp, r7
 2946              		@ sp needed
 2947 0138 80BD     		pop	{r7, pc}
 2948              	.L199:
 2949 013a 00BF     		.align	2
 2950              	.L198:
 2951 013c 00000000 		.word	do_connected
 2952 0140 78030000 		.word	.LC25
 2953              		.cfi_endproc
 2954              	.LFE277:
 2955              		.size	do_connect, .-do_connect
 2956 0144 AFF30080 		.section	.text.do_disconnect,"ax",%progbits
 2956      AFF30080 
 2956      AFF30080 
 2957              		.align	2
 2958              		.p2align 4,,15
 2959              		.global	do_disconnect
ARM GAS  C:\Users\Luis\AppData\Local\Temp\ccd19DXF.s 			page 55


 2960              		.thumb
 2961              		.thumb_func
 2962              		.type	do_disconnect, %function
 2963              	do_disconnect:
 2964              	.LFB278:
 2965              		.loc 2 1043 0
 2966              		.cfi_startproc
 2967              		@ args = 0, pretend = 0, frame = 8
 2968              		@ frame_needed = 1, uses_anonymous_args = 0
 2969 0000 80B5     		push	{r7, lr}
 2970              		.cfi_def_cfa_offset 8
 2971              		.cfi_offset 7, -8
 2972              		.cfi_offset 14, -4
 2973 0002 82B0     		sub	sp, sp, #8
 2974              		.cfi_def_cfa_offset 16
 2975 0004 00AF     		add	r7, sp, #0
 2976              		.cfi_def_cfa_register 7
 2977 0006 7860     		str	r0, [r7, #4]
 2978              		.loc 2 1045 0
 2979 0008 7B68     		ldr	r3, [r7, #4]
 2980 000a 1B68     		ldr	r3, [r3]
 2981 000c 1B78     		ldrb	r3, [r3]	@ zero_extendqisi2
 2982 000e 03F0F003 		and	r3, r3, #240
 2983 0012 202B     		cmp	r3, #32
 2984 0014 09D1     		bne	.L201
 2985              		.loc 2 1046 0
 2986 0016 7B68     		ldr	r3, [r7, #4]
 2987 0018 1B68     		ldr	r3, [r3]
 2988 001a 5B68     		ldr	r3, [r3, #4]
 2989 001c 1846     		mov	r0, r3
 2990 001e FFF7FEFF 		bl	udp_disconnect
 2991              		.loc 2 1047 0
 2992 0022 7B68     		ldr	r3, [r7, #4]
 2993 0024 0022     		movs	r2, #0
 2994 0026 1A71     		strb	r2, [r3, #4]
 2995 0028 02E0     		b	.L202
 2996              	.L201:
 2997              		.loc 2 1051 0
 2998 002a 7B68     		ldr	r3, [r7, #4]
 2999 002c FA22     		movs	r2, #250
 3000 002e 1A71     		strb	r2, [r3, #4]
 3001              	.L202:
 3002              		.loc 2 1053 0
 3003 0030 7B68     		ldr	r3, [r7, #4]
 3004 0032 1B68     		ldr	r3, [r3]
 3005 0034 0C33     		adds	r3, r3, #12
 3006 0036 1846     		mov	r0, r3
 3007 0038 FFF7FEFF 		bl	sys_sem_signal
 3008              		.loc 2 1054 0
 3009 003c 0837     		adds	r7, r7, #8
 3010 003e BD46     		mov	sp, r7
 3011              		@ sp needed
 3012 0040 80BD     		pop	{r7, pc}
 3013              		.cfi_endproc
 3014              	.LFE278:
 3015              		.size	do_disconnect, .-do_disconnect
 3016 0042 00BFAFF3 		.section	.text.do_listen,"ax",%progbits
ARM GAS  C:\Users\Luis\AppData\Local\Temp\ccd19DXF.s 			page 56


 3016      0080AFF3 
 3016      0080AFF3 
 3016      0080
 3017              		.align	2
 3018              		.p2align 4,,15
 3019              		.global	do_listen
 3020              		.thumb
 3021              		.thumb_func
 3022              		.type	do_listen, %function
 3023              	do_listen:
 3024              	.LFB279:
 3025              		.loc 2 1065 0
 3026              		.cfi_startproc
 3027              		@ args = 0, pretend = 0, frame = 16
 3028              		@ frame_needed = 1, uses_anonymous_args = 0
 3029 0000 80B5     		push	{r7, lr}
 3030              		.cfi_def_cfa_offset 8
 3031              		.cfi_offset 7, -8
 3032              		.cfi_offset 14, -4
 3033 0002 84B0     		sub	sp, sp, #16
 3034              		.cfi_def_cfa_offset 24
 3035 0004 00AF     		add	r7, sp, #0
 3036              		.cfi_def_cfa_register 7
 3037 0006 7860     		str	r0, [r7, #4]
 3038              		.loc 2 1066 0
 3039 0008 7B68     		ldr	r3, [r7, #4]
 3040 000a 1B68     		ldr	r3, [r3]
 3041 000c 1B7A     		ldrb	r3, [r3, #8]	@ zero_extendqisi2
 3042 000e 5BB2     		sxtb	r3, r3
 3043 0010 13F1090F 		cmn	r3, #9
 3044 0014 05DA     		bge	.L204
 3045              		.loc 2 1067 0
 3046 0016 7B68     		ldr	r3, [r7, #4]
 3047 0018 1B68     		ldr	r3, [r3]
 3048 001a 1A7A     		ldrb	r2, [r3, #8]	@ zero_extendqisi2
 3049 001c 7B68     		ldr	r3, [r7, #4]
 3050 001e 1A71     		strb	r2, [r3, #4]
 3051 0020 75E0     		b	.L205
 3052              	.L204:
 3053              		.loc 2 1069 0
 3054 0022 7B68     		ldr	r3, [r7, #4]
 3055 0024 F322     		movs	r2, #243
 3056 0026 1A71     		strb	r2, [r3, #4]
 3057              		.loc 2 1070 0
 3058 0028 7B68     		ldr	r3, [r7, #4]
 3059 002a 1B68     		ldr	r3, [r3]
 3060 002c 5B68     		ldr	r3, [r3, #4]
 3061 002e 002B     		cmp	r3, #0
 3062 0030 6DD0     		beq	.L205
 3063              		.loc 2 1071 0
 3064 0032 7B68     		ldr	r3, [r7, #4]
 3065 0034 1B68     		ldr	r3, [r3]
 3066 0036 1B78     		ldrb	r3, [r3]	@ zero_extendqisi2
 3067 0038 102B     		cmp	r3, #16
 3068 003a 65D1     		bne	.L206
 3069              		.loc 2 1072 0
 3070 003c 7B68     		ldr	r3, [r7, #4]
ARM GAS  C:\Users\Luis\AppData\Local\Temp\ccd19DXF.s 			page 57


 3071 003e 1B68     		ldr	r3, [r3]
 3072 0040 5B78     		ldrb	r3, [r3, #1]	@ zero_extendqisi2
 3073 0042 002B     		cmp	r3, #0
 3074 0044 5FD1     		bne	.L207
 3075              	.LBB7:
 3076              		.loc 2 1076 0
 3077 0046 7B68     		ldr	r3, [r7, #4]
 3078 0048 1B68     		ldr	r3, [r3]
 3079 004a 5B68     		ldr	r3, [r3, #4]
 3080 004c 1846     		mov	r0, r3
 3081 004e FF21     		movs	r1, #255
 3082 0050 FFF7FEFF 		bl	tcp_listen_with_backlog
 3083 0054 F860     		str	r0, [r7, #12]
 3084              		.loc 2 1078 0
 3085 0056 FB68     		ldr	r3, [r7, #12]
 3086 0058 002B     		cmp	r3, #0
 3087 005a 03D1     		bne	.L208
 3088              		.loc 2 1080 0
 3089 005c 7B68     		ldr	r3, [r7, #4]
 3090 005e FF22     		movs	r2, #255
 3091 0060 1A71     		strb	r2, [r3, #4]
 3092 0062 50E0     		b	.L207
 3093              	.L208:
 3094              		.loc 2 1083 0
 3095 0064 7B68     		ldr	r3, [r7, #4]
 3096 0066 1B68     		ldr	r3, [r3]
 3097 0068 1033     		adds	r3, r3, #16
 3098 006a 1846     		mov	r0, r3
 3099 006c FFF7FEFF 		bl	sys_mbox_valid
 3100 0070 0346     		mov	r3, r0
 3101 0072 002B     		cmp	r3, #0
 3102 0074 0BD0     		beq	.L209
 3103              		.loc 2 1085 0
 3104 0076 7B68     		ldr	r3, [r7, #4]
 3105 0078 1B68     		ldr	r3, [r3]
 3106 007a 1033     		adds	r3, r3, #16
 3107 007c 1846     		mov	r0, r3
 3108 007e FFF7FEFF 		bl	sys_mbox_free
 3109              		.loc 2 1086 0
 3110 0082 7B68     		ldr	r3, [r7, #4]
 3111 0084 1B68     		ldr	r3, [r3]
 3112 0086 1033     		adds	r3, r3, #16
 3113 0088 1846     		mov	r0, r3
 3114 008a FFF7FEFF 		bl	sys_mbox_set_invalid
 3115              	.L209:
 3116              		.loc 2 1088 0
 3117 008e 7B68     		ldr	r3, [r7, #4]
 3118 0090 0022     		movs	r2, #0
 3119 0092 1A71     		strb	r2, [r3, #4]
 3120              		.loc 2 1089 0
 3121 0094 7B68     		ldr	r3, [r7, #4]
 3122 0096 1B68     		ldr	r3, [r3]
 3123 0098 1433     		adds	r3, r3, #20
 3124 009a 1846     		mov	r0, r3
 3125 009c FFF7FEFF 		bl	sys_mbox_valid
 3126 00a0 0346     		mov	r3, r0
 3127 00a2 002B     		cmp	r3, #0
ARM GAS  C:\Users\Luis\AppData\Local\Temp\ccd19DXF.s 			page 58


 3128 00a4 0AD1     		bne	.L210
 3129              		.loc 2 1090 0
 3130 00a6 7B68     		ldr	r3, [r7, #4]
 3131 00a8 1B68     		ldr	r3, [r3]
 3132 00aa 1433     		adds	r3, r3, #20
 3133 00ac 1846     		mov	r0, r3
 3134 00ae 0421     		movs	r1, #4
 3135 00b0 FFF7FEFF 		bl	sys_mbox_new
 3136 00b4 0346     		mov	r3, r0
 3137 00b6 1A46     		mov	r2, r3
 3138 00b8 7B68     		ldr	r3, [r7, #4]
 3139 00ba 1A71     		strb	r2, [r3, #4]
 3140              	.L210:
 3141              		.loc 2 1092 0
 3142 00bc 7B68     		ldr	r3, [r7, #4]
 3143 00be 1B79     		ldrb	r3, [r3, #4]	@ zero_extendqisi2
 3144 00c0 002B     		cmp	r3, #0
 3145 00c2 18D1     		bne	.L211
 3146              		.loc 2 1093 0
 3147 00c4 7B68     		ldr	r3, [r7, #4]
 3148 00c6 1B68     		ldr	r3, [r3]
 3149 00c8 0222     		movs	r2, #2
 3150 00ca 5A70     		strb	r2, [r3, #1]
 3151              		.loc 2 1094 0
 3152 00cc 7B68     		ldr	r3, [r7, #4]
 3153 00ce 1B68     		ldr	r3, [r3]
 3154 00d0 FA68     		ldr	r2, [r7, #12]
 3155 00d2 5A60     		str	r2, [r3, #4]
 3156              		.loc 2 1095 0
 3157 00d4 7B68     		ldr	r3, [r7, #4]
 3158 00d6 1B68     		ldr	r3, [r3]
 3159 00d8 5A68     		ldr	r2, [r3, #4]
 3160 00da 7B68     		ldr	r3, [r7, #4]
 3161 00dc 1B68     		ldr	r3, [r3]
 3162 00de 1046     		mov	r0, r2
 3163 00e0 1946     		mov	r1, r3
 3164 00e2 FFF7FEFF 		bl	tcp_arg
 3165              		.loc 2 1096 0
 3166 00e6 7B68     		ldr	r3, [r7, #4]
 3167 00e8 1B68     		ldr	r3, [r3]
 3168 00ea 5B68     		ldr	r3, [r3, #4]
 3169 00ec 1846     		mov	r0, r3
 3170 00ee 0C49     		ldr	r1, .L212
 3171 00f0 FFF7FEFF 		bl	tcp_accept
 3172 00f4 07E0     		b	.L207
 3173              	.L211:
 3174              		.loc 2 1099 0
 3175 00f6 F868     		ldr	r0, [r7, #12]
 3176 00f8 FFF7FEFF 		bl	tcp_close
 3177              		.loc 2 1100 0
 3178 00fc 7B68     		ldr	r3, [r7, #4]
 3179 00fe 1B68     		ldr	r3, [r3]
 3180 0100 0022     		movs	r2, #0
 3181 0102 5A60     		str	r2, [r3, #4]
 3182              	.LBE7:
 3183 0104 03E0     		b	.L205
 3184              	.L207:
ARM GAS  C:\Users\Luis\AppData\Local\Temp\ccd19DXF.s 			page 59


 3185 0106 02E0     		b	.L205
 3186              	.L206:
 3187              		.loc 2 1105 0
 3188 0108 7B68     		ldr	r3, [r7, #4]
 3189 010a F222     		movs	r2, #242
 3190 010c 1A71     		strb	r2, [r3, #4]
 3191              	.L205:
 3192              		.loc 2 1109 0
 3193 010e 7B68     		ldr	r3, [r7, #4]
 3194 0110 1B68     		ldr	r3, [r3]
 3195 0112 0C33     		adds	r3, r3, #12
 3196 0114 1846     		mov	r0, r3
 3197 0116 FFF7FEFF 		bl	sys_sem_signal
 3198              		.loc 2 1110 0
 3199 011a 1037     		adds	r7, r7, #16
 3200 011c BD46     		mov	sp, r7
 3201              		@ sp needed
 3202 011e 80BD     		pop	{r7, pc}
 3203              	.L213:
 3204              		.align	2
 3205              	.L212:
 3206 0120 00000000 		.word	accept_function
 3207              		.cfi_endproc
 3208              	.LFE279:
 3209              		.size	do_listen, .-do_listen
 3210 0124 AFF30080 		.section	.text.do_send,"ax",%progbits
 3210      AFF30080 
 3210      AFF30080 
 3211              		.align	2
 3212              		.p2align 4,,15
 3213              		.global	do_send
 3214              		.thumb
 3215              		.thumb_func
 3216              		.type	do_send, %function
 3217              	do_send:
 3218              	.LFB280:
 3219              		.loc 2 1121 0
 3220              		.cfi_startproc
 3221              		@ args = 0, pretend = 0, frame = 8
 3222              		@ frame_needed = 1, uses_anonymous_args = 0
 3223 0000 80B5     		push	{r7, lr}
 3224              		.cfi_def_cfa_offset 8
 3225              		.cfi_offset 7, -8
 3226              		.cfi_offset 14, -4
 3227 0002 82B0     		sub	sp, sp, #8
 3228              		.cfi_def_cfa_offset 16
 3229 0004 00AF     		add	r7, sp, #0
 3230              		.cfi_def_cfa_register 7
 3231 0006 7860     		str	r0, [r7, #4]
 3232              		.loc 2 1122 0
 3233 0008 7B68     		ldr	r3, [r7, #4]
 3234 000a 1B68     		ldr	r3, [r3]
 3235 000c 1B7A     		ldrb	r3, [r3, #8]	@ zero_extendqisi2
 3236 000e 5BB2     		sxtb	r3, r3
 3237 0010 13F1090F 		cmn	r3, #9
 3238 0014 05DA     		bge	.L215
 3239              		.loc 2 1123 0
ARM GAS  C:\Users\Luis\AppData\Local\Temp\ccd19DXF.s 			page 60


 3240 0016 7B68     		ldr	r3, [r7, #4]
 3241 0018 1B68     		ldr	r3, [r3]
 3242 001a 1A7A     		ldrb	r2, [r3, #8]	@ zero_extendqisi2
 3243 001c 7B68     		ldr	r3, [r7, #4]
 3244 001e 1A71     		strb	r2, [r3, #4]
 3245 0020 6AE0     		b	.L216
 3246              	.L215:
 3247              		.loc 2 1125 0
 3248 0022 7B68     		ldr	r3, [r7, #4]
 3249 0024 F322     		movs	r2, #243
 3250 0026 1A71     		strb	r2, [r3, #4]
 3251              		.loc 2 1126 0
 3252 0028 7B68     		ldr	r3, [r7, #4]
 3253 002a 1B68     		ldr	r3, [r3]
 3254 002c 5B68     		ldr	r3, [r3, #4]
 3255 002e 002B     		cmp	r3, #0
 3256 0030 62D0     		beq	.L216
 3257              		.loc 2 1127 0
 3258 0032 7B68     		ldr	r3, [r7, #4]
 3259 0034 1B68     		ldr	r3, [r3]
 3260 0036 1B78     		ldrb	r3, [r3]	@ zero_extendqisi2
 3261 0038 03F0F003 		and	r3, r3, #240
 3262 003c 202B     		cmp	r3, #32
 3263 003e 2ED0     		beq	.L218
 3264 0040 402B     		cmp	r3, #64
 3265 0042 00D0     		beq	.L219
 3266              		.loc 2 1158 0
 3267 0044 58E0     		b	.L216
 3268              	.L219:
 3269              		.loc 2 1130 0
 3270 0046 7B68     		ldr	r3, [r7, #4]
 3271 0048 9B68     		ldr	r3, [r3, #8]
 3272 004a 0833     		adds	r3, r3, #8
 3273 004c 002B     		cmp	r3, #0
 3274 004e 04D0     		beq	.L220
 3275              		.loc 2 1130 0 is_stmt 0 discriminator 1
 3276 0050 7B68     		ldr	r3, [r7, #4]
 3277 0052 9B68     		ldr	r3, [r3, #8]
 3278 0054 9B68     		ldr	r3, [r3, #8]
 3279 0056 002B     		cmp	r3, #0
 3280 0058 0ED1     		bne	.L221
 3281              	.L220:
 3282              		.loc 2 1131 0 is_stmt 1
 3283 005a 7B68     		ldr	r3, [r7, #4]
 3284 005c 1B68     		ldr	r3, [r3]
 3285 005e 5A68     		ldr	r2, [r3, #4]
 3286 0060 7B68     		ldr	r3, [r7, #4]
 3287 0062 9B68     		ldr	r3, [r3, #8]
 3288 0064 1B68     		ldr	r3, [r3]
 3289 0066 1046     		mov	r0, r2
 3290 0068 1946     		mov	r1, r3
 3291 006a FFF7FEFF 		bl	raw_send
 3292 006e 0346     		mov	r3, r0
 3293 0070 1A46     		mov	r2, r3
 3294 0072 7B68     		ldr	r3, [r7, #4]
 3295 0074 1A71     		strb	r2, [r3, #4]
 3296              		.loc 2 1135 0
ARM GAS  C:\Users\Luis\AppData\Local\Temp\ccd19DXF.s 			page 61


 3297 0076 3FE0     		b	.L216
 3298              	.L221:
 3299              		.loc 2 1133 0
 3300 0078 7B68     		ldr	r3, [r7, #4]
 3301 007a 1B68     		ldr	r3, [r3]
 3302 007c 5968     		ldr	r1, [r3, #4]
 3303 007e 7B68     		ldr	r3, [r7, #4]
 3304 0080 9B68     		ldr	r3, [r3, #8]
 3305 0082 1A68     		ldr	r2, [r3]
 3306 0084 7B68     		ldr	r3, [r7, #4]
 3307 0086 9B68     		ldr	r3, [r3, #8]
 3308 0088 0833     		adds	r3, r3, #8
 3309 008a 0846     		mov	r0, r1
 3310 008c 1146     		mov	r1, r2
 3311 008e 1A46     		mov	r2, r3
 3312 0090 FFF7FEFF 		bl	raw_sendto
 3313 0094 0346     		mov	r3, r0
 3314 0096 1A46     		mov	r2, r3
 3315 0098 7B68     		ldr	r3, [r7, #4]
 3316 009a 1A71     		strb	r2, [r3, #4]
 3317              		.loc 2 1135 0
 3318 009c 2CE0     		b	.L216
 3319              	.L218:
 3320              		.loc 2 1149 0
 3321 009e 7B68     		ldr	r3, [r7, #4]
 3322 00a0 9B68     		ldr	r3, [r3, #8]
 3323 00a2 0833     		adds	r3, r3, #8
 3324 00a4 002B     		cmp	r3, #0
 3325 00a6 04D0     		beq	.L223
 3326              		.loc 2 1149 0 is_stmt 0 discriminator 1
 3327 00a8 7B68     		ldr	r3, [r7, #4]
 3328 00aa 9B68     		ldr	r3, [r3, #8]
 3329 00ac 9B68     		ldr	r3, [r3, #8]
 3330 00ae 002B     		cmp	r3, #0
 3331 00b0 0ED1     		bne	.L224
 3332              	.L223:
 3333              		.loc 2 1150 0 is_stmt 1
 3334 00b2 7B68     		ldr	r3, [r7, #4]
 3335 00b4 1B68     		ldr	r3, [r3]
 3336 00b6 5A68     		ldr	r2, [r3, #4]
 3337 00b8 7B68     		ldr	r3, [r7, #4]
 3338 00ba 9B68     		ldr	r3, [r3, #8]
 3339 00bc 1B68     		ldr	r3, [r3]
 3340 00be 1046     		mov	r0, r2
 3341 00c0 1946     		mov	r1, r3
 3342 00c2 FFF7FEFF 		bl	udp_send
 3343 00c6 0346     		mov	r3, r0
 3344 00c8 1A46     		mov	r2, r3
 3345 00ca 7B68     		ldr	r3, [r7, #4]
 3346 00cc 1A71     		strb	r2, [r3, #4]
 3347              		.loc 2 1155 0
 3348 00ce 12E0     		b	.L226
 3349              	.L224:
 3350              		.loc 2 1152 0
 3351 00d0 7B68     		ldr	r3, [r7, #4]
 3352 00d2 1B68     		ldr	r3, [r3]
 3353 00d4 5868     		ldr	r0, [r3, #4]
ARM GAS  C:\Users\Luis\AppData\Local\Temp\ccd19DXF.s 			page 62


 3354 00d6 7B68     		ldr	r3, [r7, #4]
 3355 00d8 9B68     		ldr	r3, [r3, #8]
 3356 00da 1968     		ldr	r1, [r3]
 3357 00dc 7B68     		ldr	r3, [r7, #4]
 3358 00de 9B68     		ldr	r3, [r3, #8]
 3359 00e0 03F10802 		add	r2, r3, #8
 3360 00e4 7B68     		ldr	r3, [r7, #4]
 3361 00e6 9B68     		ldr	r3, [r3, #8]
 3362 00e8 9B89     		ldrh	r3, [r3, #12]
 3363 00ea FFF7FEFF 		bl	udp_sendto
 3364 00ee 0346     		mov	r3, r0
 3365 00f0 1A46     		mov	r2, r3
 3366 00f2 7B68     		ldr	r3, [r7, #4]
 3367 00f4 1A71     		strb	r2, [r3, #4]
 3368              	.L226:
 3369              		.loc 2 1155 0
 3370 00f6 00BF     		nop
 3371              	.L216:
 3372              		.loc 2 1162 0
 3373 00f8 7B68     		ldr	r3, [r7, #4]
 3374 00fa 1B68     		ldr	r3, [r3]
 3375 00fc 0C33     		adds	r3, r3, #12
 3376 00fe 1846     		mov	r0, r3
 3377 0100 FFF7FEFF 		bl	sys_sem_signal
 3378              		.loc 2 1163 0
 3379 0104 0837     		adds	r7, r7, #8
 3380 0106 BD46     		mov	sp, r7
 3381              		@ sp needed
 3382 0108 80BD     		pop	{r7, pc}
 3383              		.cfi_endproc
 3384              	.LFE280:
 3385              		.size	do_send, .-do_send
 3386 010a 00BFAFF3 		.section	.text.do_recv,"ax",%progbits
 3386      0080
 3387              		.align	2
 3388              		.p2align 4,,15
 3389              		.global	do_recv
 3390              		.thumb
 3391              		.thumb_func
 3392              		.type	do_recv, %function
 3393              	do_recv:
 3394              	.LFB281:
 3395              		.loc 2 1174 0
 3396              		.cfi_startproc
 3397              		@ args = 0, pretend = 0, frame = 16
 3398              		@ frame_needed = 1, uses_anonymous_args = 0
 3399 0000 80B5     		push	{r7, lr}
 3400              		.cfi_def_cfa_offset 8
 3401              		.cfi_offset 7, -8
 3402              		.cfi_offset 14, -4
 3403 0002 84B0     		sub	sp, sp, #16
 3404              		.cfi_def_cfa_offset 24
 3405 0004 00AF     		add	r7, sp, #0
 3406              		.cfi_def_cfa_register 7
 3407 0006 7860     		str	r0, [r7, #4]
 3408              		.loc 2 1175 0
 3409 0008 7B68     		ldr	r3, [r7, #4]
ARM GAS  C:\Users\Luis\AppData\Local\Temp\ccd19DXF.s 			page 63


 3410 000a 0022     		movs	r2, #0
 3411 000c 1A71     		strb	r2, [r3, #4]
 3412              		.loc 2 1176 0
 3413 000e 7B68     		ldr	r3, [r7, #4]
 3414 0010 1B68     		ldr	r3, [r3]
 3415 0012 5B68     		ldr	r3, [r3, #4]
 3416 0014 002B     		cmp	r3, #0
 3417 0016 20D0     		beq	.L228
 3418              		.loc 2 1177 0
 3419 0018 7B68     		ldr	r3, [r7, #4]
 3420 001a 1B68     		ldr	r3, [r3]
 3421 001c 1B78     		ldrb	r3, [r3]	@ zero_extendqisi2
 3422 001e 102B     		cmp	r3, #16
 3423 0020 1BD1     		bne	.L228
 3424              	.LBB8:
 3425              		.loc 2 1184 0
 3426 0022 7B68     		ldr	r3, [r7, #4]
 3427 0024 9B68     		ldr	r3, [r3, #8]
 3428 0026 FB60     		str	r3, [r7, #12]
 3429              	.L231:
 3430              	.LBB9:
 3431              		.loc 2 1186 0
 3432 0028 FB68     		ldr	r3, [r7, #12]
 3433 002a B3F5803F 		cmp	r3, #65536
 3434 002e 02D2     		bcs	.L229
 3435              		.loc 2 1186 0 is_stmt 0 discriminator 1
 3436 0030 FB68     		ldr	r3, [r7, #12]
 3437 0032 9BB2     		uxth	r3, r3
 3438 0034 01E0     		b	.L230
 3439              	.L229:
 3440              		.loc 2 1186 0 discriminator 2
 3441 0036 4FF6FF73 		movw	r3, #65535
 3442              	.L230:
 3443              		.loc 2 1186 0 discriminator 3
 3444 003a 7B81     		strh	r3, [r7, #10]	@ movhi
 3445              		.loc 2 1187 0 is_stmt 1 discriminator 3
 3446 003c 7B68     		ldr	r3, [r7, #4]
 3447 003e 1B68     		ldr	r3, [r3]
 3448 0040 5A68     		ldr	r2, [r3, #4]
 3449 0042 7B89     		ldrh	r3, [r7, #10]
 3450 0044 1046     		mov	r0, r2
 3451 0046 1946     		mov	r1, r3
 3452 0048 FFF7FEFF 		bl	tcp_recved
 3453              		.loc 2 1188 0 discriminator 3
 3454 004c 7B89     		ldrh	r3, [r7, #10]
 3455 004e FA68     		ldr	r2, [r7, #12]
 3456 0050 D31A     		subs	r3, r2, r3
 3457 0052 FB60     		str	r3, [r7, #12]
 3458              	.LBE9:
 3459              		.loc 2 1189 0 discriminator 3
 3460 0054 FB68     		ldr	r3, [r7, #12]
 3461 0056 002B     		cmp	r3, #0
 3462 0058 E6D1     		bne	.L231
 3463              	.L228:
 3464              	.LBE8:
 3465              		.loc 2 1193 0
 3466 005a 7B68     		ldr	r3, [r7, #4]
ARM GAS  C:\Users\Luis\AppData\Local\Temp\ccd19DXF.s 			page 64


 3467 005c 1B68     		ldr	r3, [r3]
 3468 005e 0C33     		adds	r3, r3, #12
 3469 0060 1846     		mov	r0, r3
 3470 0062 FFF7FEFF 		bl	sys_sem_signal
 3471              		.loc 2 1194 0
 3472 0066 1037     		adds	r7, r7, #16
 3473 0068 BD46     		mov	sp, r7
 3474              		@ sp needed
 3475 006a 80BD     		pop	{r7, pc}
 3476              		.cfi_endproc
 3477              	.LFE281:
 3478              		.size	do_recv, .-do_recv
 3479 006c AFF30080 		.section	.rodata
 3480 038d 000000   		.align	2
 3481              	.LC26:
 3482 0390 636F6E6E 		.ascii	"conn->state == NETCONN_WRITE\000"
 3482      2D3E7374 
 3482      61746520 
 3482      3D3D204E 
 3482      4554434F 
 3483 03ad 000000   		.align	2
 3484              	.LC27:
 3485 03b0 636F6E6E 		.ascii	"conn->pcb.tcp != NULL\000"
 3485      2D3E7063 
 3485      622E7463 
 3485      7020213D 
 3485      204E554C 
 3486 03c6 0000     		.align	2
 3487              	.LC28:
 3488 03c8 636F6E6E 		.ascii	"conn->write_offset < conn->current_msg->msg.w.len\000"
 3488      2D3E7772 
 3488      6974655F 
 3488      6F666673 
 3488      6574203C 
 3489 03fa 0000     		.align	2
 3490              	.LC29:
 3491 03fc 646F5F77 		.ascii	"do_writemore: invalid length!\000"
 3491      72697465 
 3491      6D6F7265 
 3491      3A20696E 
 3491      76616C69 
 3492              		.section	.text.do_writemore,"ax",%progbits
 3493              		.align	2
 3494              		.p2align 4,,15
 3495              		.thumb
 3496              		.thumb_func
 3497              		.type	do_writemore, %function
 3498              	do_writemore:
 3499              	.LFB282:
 3500              		.loc 2 1209 0
 3501              		.cfi_startproc
 3502              		@ args = 0, pretend = 0, frame = 32
 3503              		@ frame_needed = 1, uses_anonymous_args = 0
 3504 0000 80B5     		push	{r7, lr}
 3505              		.cfi_def_cfa_offset 8
 3506              		.cfi_offset 7, -8
 3507              		.cfi_offset 14, -4
ARM GAS  C:\Users\Luis\AppData\Local\Temp\ccd19DXF.s 			page 65


 3508 0002 88B0     		sub	sp, sp, #32
 3509              		.cfi_def_cfa_offset 40
 3510 0004 00AF     		add	r7, sp, #0
 3511              		.cfi_def_cfa_register 7
 3512 0006 7860     		str	r0, [r7, #4]
 3513              		.loc 2 1213 0
 3514 0008 0023     		movs	r3, #0
 3515 000a FB76     		strb	r3, [r7, #27]
 3516              		.loc 2 1215 0
 3517 000c 7B68     		ldr	r3, [r7, #4]
 3518 000e 1B7F     		ldrb	r3, [r3, #28]	@ zero_extendqisi2
 3519 0010 03F00203 		and	r3, r3, #2
 3520 0014 002B     		cmp	r3, #0
 3521 0016 06D1     		bne	.L233
 3522              		.loc 2 1216 0 discriminator 2
 3523 0018 7B68     		ldr	r3, [r7, #4]
 3524 001a 5B6A     		ldr	r3, [r3, #36]
 3525 001c 1B7C     		ldrb	r3, [r3, #16]	@ zero_extendqisi2
 3526 001e 03F00403 		and	r3, r3, #4
 3527              		.loc 2 1215 0 discriminator 2
 3528 0022 002B     		cmp	r3, #0
 3529 0024 01D0     		beq	.L234
 3530              	.L233:
 3531              		.loc 2 1215 0 is_stmt 0 discriminator 1
 3532 0026 0123     		movs	r3, #1
 3533 0028 00E0     		b	.L235
 3534              	.L234:
 3535              		.loc 2 1215 0 discriminator 3
 3536 002a 0023     		movs	r3, #0
 3537              	.L235:
 3538              		.loc 2 1215 0 discriminator 4
 3539 002c 7B76     		strb	r3, [r7, #25]
 3540              		.loc 2 1217 0 is_stmt 1 discriminator 4
 3541 002e 7B68     		ldr	r3, [r7, #4]
 3542 0030 5B6A     		ldr	r3, [r3, #36]
 3543 0032 1B7C     		ldrb	r3, [r3, #16]
 3544 0034 BB76     		strb	r3, [r7, #26]
 3545              		.loc 2 1219 0 discriminator 4
 3546 0036 7B68     		ldr	r3, [r7, #4]
 3547 0038 002B     		cmp	r3, #0
 3548 003a 02D1     		bne	.L236
 3549              		.loc 2 1219 0 is_stmt 0 discriminator 1
 3550 003c 7B48     		ldr	r0, .L258
 3551 003e FFF7FEFF 		bl	osalSysHalt
 3552              	.L236:
 3553              		.loc 2 1220 0 is_stmt 1
 3554 0042 7B68     		ldr	r3, [r7, #4]
 3555 0044 5B78     		ldrb	r3, [r3, #1]	@ zero_extendqisi2
 3556 0046 012B     		cmp	r3, #1
 3557 0048 02D0     		beq	.L237
 3558              		.loc 2 1220 0 is_stmt 0 discriminator 1
 3559 004a 7948     		ldr	r0, .L258+4
 3560 004c FFF7FEFF 		bl	osalSysHalt
 3561              	.L237:
 3562              		.loc 2 1221 0 is_stmt 1
 3563 0050 7B68     		ldr	r3, [r7, #4]
 3564 0052 5B6A     		ldr	r3, [r3, #36]
ARM GAS  C:\Users\Luis\AppData\Local\Temp\ccd19DXF.s 			page 66


 3565 0054 002B     		cmp	r3, #0
 3566 0056 02D1     		bne	.L238
 3567              		.loc 2 1221 0 is_stmt 0 discriminator 1
 3568 0058 7648     		ldr	r0, .L258+8
 3569 005a FFF7FEFF 		bl	osalSysHalt
 3570              	.L238:
 3571              		.loc 2 1222 0 is_stmt 1
 3572 005e 7B68     		ldr	r3, [r7, #4]
 3573 0060 5B68     		ldr	r3, [r3, #4]
 3574 0062 002B     		cmp	r3, #0
 3575 0064 02D1     		bne	.L239
 3576              		.loc 2 1222 0 is_stmt 0 discriminator 1
 3577 0066 7448     		ldr	r0, .L258+12
 3578 0068 FFF7FEFF 		bl	osalSysHalt
 3579              	.L239:
 3580              		.loc 2 1223 0 is_stmt 1
 3581 006c 7B68     		ldr	r3, [r7, #4]
 3582 006e 1A6A     		ldr	r2, [r3, #32]
 3583 0070 7B68     		ldr	r3, [r7, #4]
 3584 0072 5B6A     		ldr	r3, [r3, #36]
 3585 0074 DB68     		ldr	r3, [r3, #12]
 3586 0076 9A42     		cmp	r2, r3
 3587 0078 02D3     		bcc	.L240
 3588              		.loc 2 1223 0 is_stmt 0 discriminator 1
 3589 007a 7048     		ldr	r0, .L258+16
 3590 007c FFF7FEFF 		bl	osalSysHalt
 3591              	.L240:
 3592              		.loc 2 1242 0 is_stmt 1
 3593 0080 7B68     		ldr	r3, [r7, #4]
 3594 0082 5B6A     		ldr	r3, [r3, #36]
 3595 0084 9A68     		ldr	r2, [r3, #8]
 3596 0086 7B68     		ldr	r3, [r7, #4]
 3597 0088 1B6A     		ldr	r3, [r3, #32]
 3598 008a 1344     		add	r3, r3, r2
 3599 008c 7B61     		str	r3, [r7, #20]
 3600              		.loc 2 1243 0
 3601 008e 7B68     		ldr	r3, [r7, #4]
 3602 0090 5B6A     		ldr	r3, [r3, #36]
 3603 0092 DA68     		ldr	r2, [r3, #12]
 3604 0094 7B68     		ldr	r3, [r7, #4]
 3605 0096 1B6A     		ldr	r3, [r3, #32]
 3606 0098 D31A     		subs	r3, r2, r3
 3607 009a 3B61     		str	r3, [r7, #16]
 3608              		.loc 2 1244 0
 3609 009c 3B69     		ldr	r3, [r7, #16]
 3610 009e B3F5803F 		cmp	r3, #65536
 3611 00a2 07D3     		bcc	.L241
 3612              		.loc 2 1245 0
 3613 00a4 4FF6FF73 		movw	r3, #65535
 3614 00a8 BB83     		strh	r3, [r7, #28]	@ movhi
 3615              		.loc 2 1249 0
 3616 00aa BB7E     		ldrb	r3, [r7, #26]
 3617 00ac 43F00203 		orr	r3, r3, #2
 3618 00b0 BB76     		strb	r3, [r7, #26]
 3619 00b2 01E0     		b	.L242
 3620              	.L241:
 3621              		.loc 2 1251 0
ARM GAS  C:\Users\Luis\AppData\Local\Temp\ccd19DXF.s 			page 67


 3622 00b4 3B69     		ldr	r3, [r7, #16]
 3623 00b6 BB83     		strh	r3, [r7, #28]	@ movhi
 3624              	.L242:
 3625              		.loc 2 1253 0
 3626 00b8 7B68     		ldr	r3, [r7, #4]
 3627 00ba 5B68     		ldr	r3, [r3, #4]
 3628 00bc B3F86630 		ldrh	r3, [r3, #102]	@ movhi
 3629 00c0 FB81     		strh	r3, [r7, #14]	@ movhi
 3630              		.loc 2 1254 0
 3631 00c2 FA89     		ldrh	r2, [r7, #14]
 3632 00c4 BB8B     		ldrh	r3, [r7, #28]
 3633 00c6 9A42     		cmp	r2, r3
 3634 00c8 0ED2     		bcs	.L243
 3635              		.loc 2 1256 0
 3636 00ca FB89     		ldrh	r3, [r7, #14]	@ movhi
 3637 00cc BB83     		strh	r3, [r7, #28]	@ movhi
 3638              		.loc 2 1257 0
 3639 00ce 7B7E     		ldrb	r3, [r7, #25]	@ zero_extendqisi2
 3640 00d0 002B     		cmp	r3, #0
 3641 00d2 05D0     		beq	.L244
 3642              		.loc 2 1258 0
 3643 00d4 BB8B     		ldrh	r3, [r7, #28]
 3644 00d6 002B     		cmp	r3, #0
 3645 00d8 06D1     		bne	.L243
 3646              		.loc 2 1259 0
 3647 00da F923     		movs	r3, #249
 3648 00dc FB77     		strb	r3, [r7, #31]
 3649              		.loc 2 1260 0
 3650 00de 22E0     		b	.L245
 3651              	.L244:
 3652              		.loc 2 1266 0
 3653 00e0 BB7E     		ldrb	r3, [r7, #26]
 3654 00e2 43F00203 		orr	r3, r3, #2
 3655 00e6 BB76     		strb	r3, [r7, #26]
 3656              	.L243:
 3657              		.loc 2 1269 0
 3658 00e8 7B68     		ldr	r3, [r7, #4]
 3659 00ea 1A6A     		ldr	r2, [r3, #32]
 3660 00ec BB8B     		ldrh	r3, [r7, #28]
 3661 00ee 1A44     		add	r2, r2, r3
 3662 00f0 7B68     		ldr	r3, [r7, #4]
 3663 00f2 5B6A     		ldr	r3, [r3, #36]
 3664 00f4 DB68     		ldr	r3, [r3, #12]
 3665 00f6 9A42     		cmp	r2, r3
 3666 00f8 02D9     		bls	.L246
 3667              		.loc 2 1269 0 is_stmt 0 discriminator 1
 3668 00fa 5148     		ldr	r0, .L258+20
 3669 00fc FFF7FEFF 		bl	osalSysHalt
 3670              	.L246:
 3671              		.loc 2 1270 0 is_stmt 1
 3672 0100 7B68     		ldr	r3, [r7, #4]
 3673 0102 5968     		ldr	r1, [r3, #4]
 3674 0104 BA8B     		ldrh	r2, [r7, #28]
 3675 0106 BB7E     		ldrb	r3, [r7, #26]	@ zero_extendqisi2
 3676 0108 0846     		mov	r0, r1
 3677 010a 7969     		ldr	r1, [r7, #20]
 3678 010c FFF7FEFF 		bl	tcp_write
ARM GAS  C:\Users\Luis\AppData\Local\Temp\ccd19DXF.s 			page 68


 3679 0110 0346     		mov	r3, r0
 3680 0112 FB77     		strb	r3, [r7, #31]
 3681              		.loc 2 1272 0
 3682 0114 97F91F30 		ldrsb	r3, [r7, #31]
 3683 0118 002B     		cmp	r3, #0
 3684 011a 04D0     		beq	.L245
 3685              		.loc 2 1272 0 is_stmt 0 discriminator 1
 3686 011c 97F91F30 		ldrsb	r3, [r7, #31]
 3687 0120 B3F1FF3F 		cmp	r3, #-1
 3688 0124 31D1     		bne	.L247
 3689              	.L245:
 3690              		.loc 2 1274 0 is_stmt 1
 3691 0126 7B7E     		ldrb	r3, [r7, #25]	@ zero_extendqisi2
 3692 0128 002B     		cmp	r3, #0
 3693 012a 17D0     		beq	.L248
 3694              		.loc 2 1274 0 is_stmt 0 discriminator 1
 3695 012c BA8B     		ldrh	r2, [r7, #28]
 3696 012e 7B68     		ldr	r3, [r7, #4]
 3697 0130 5B6A     		ldr	r3, [r3, #36]
 3698 0132 DB68     		ldr	r3, [r3, #12]
 3699 0134 9A42     		cmp	r2, r3
 3700 0136 11D2     		bcs	.L248
 3701              		.loc 2 1277 0 is_stmt 1
 3702 0138 7B68     		ldr	r3, [r7, #4]
 3703 013a 9B6A     		ldr	r3, [r3, #40]
 3704 013c 002B     		cmp	r3, #0
 3705 013e 05D0     		beq	.L249
 3706              		.loc 2 1277 0 is_stmt 0 discriminator 1
 3707 0140 7B68     		ldr	r3, [r7, #4]
 3708 0142 9B6A     		ldr	r3, [r3, #40]
 3709 0144 BA8B     		ldrh	r2, [r7, #28]
 3710 0146 7868     		ldr	r0, [r7, #4]
 3711 0148 0321     		movs	r1, #3
 3712 014a 9847     		blx	r3
 3713              	.L249:
 3714              		.loc 2 1278 0 is_stmt 1
 3715 014c 7B68     		ldr	r3, [r7, #4]
 3716 014e 1B7F     		ldrb	r3, [r3, #28]	@ zero_extendqisi2
 3717 0150 43F01003 		orr	r3, r3, #16
 3718 0154 DAB2     		uxtb	r2, r3
 3719 0156 7B68     		ldr	r3, [r7, #4]
 3720 0158 1A77     		strb	r2, [r3, #28]
 3721 015a 16E0     		b	.L247
 3722              	.L248:
 3723              		.loc 2 1279 0
 3724 015c 7B68     		ldr	r3, [r7, #4]
 3725 015e 5B68     		ldr	r3, [r3, #4]
 3726 0160 B3F86630 		ldrh	r3, [r3, #102]
 3727 0164 B3F5866F 		cmp	r3, #1072
 3728 0168 05D3     		bcc	.L250
 3729              		.loc 2 1280 0 discriminator 1
 3730 016a 7B68     		ldr	r3, [r7, #4]
 3731 016c 5B68     		ldr	r3, [r3, #4]
 3732 016e B3F86830 		ldrh	r3, [r3, #104]
 3733              		.loc 2 1279 0 discriminator 1
 3734 0172 042B     		cmp	r3, #4
 3735 0174 09D9     		bls	.L247
ARM GAS  C:\Users\Luis\AppData\Local\Temp\ccd19DXF.s 			page 69


 3736              	.L250:
 3737              		.loc 2 1283 0
 3738 0176 7B68     		ldr	r3, [r7, #4]
 3739 0178 9B6A     		ldr	r3, [r3, #40]
 3740 017a 002B     		cmp	r3, #0
 3741 017c 05D0     		beq	.L247
 3742              		.loc 2 1283 0 is_stmt 0 discriminator 1
 3743 017e 7B68     		ldr	r3, [r7, #4]
 3744 0180 9B6A     		ldr	r3, [r3, #40]
 3745 0182 BA8B     		ldrh	r2, [r7, #28]
 3746 0184 7868     		ldr	r0, [r7, #4]
 3747 0186 0321     		movs	r1, #3
 3748 0188 9847     		blx	r3
 3749              	.L247:
 3750              		.loc 2 1287 0 is_stmt 1
 3751 018a 97F91F30 		ldrsb	r3, [r7, #31]
 3752 018e 002B     		cmp	r3, #0
 3753 0190 1FD1     		bne	.L251
 3754              		.loc 2 1288 0
 3755 0192 7B68     		ldr	r3, [r7, #4]
 3756 0194 1A6A     		ldr	r2, [r3, #32]
 3757 0196 BB8B     		ldrh	r3, [r7, #28]
 3758 0198 1A44     		add	r2, r2, r3
 3759 019a 7B68     		ldr	r3, [r7, #4]
 3760 019c 1A62     		str	r2, [r3, #32]
 3761              		.loc 2 1289 0
 3762 019e 7B68     		ldr	r3, [r7, #4]
 3763 01a0 1A6A     		ldr	r2, [r3, #32]
 3764 01a2 7B68     		ldr	r3, [r7, #4]
 3765 01a4 5B6A     		ldr	r3, [r3, #36]
 3766 01a6 DB68     		ldr	r3, [r3, #12]
 3767 01a8 9A42     		cmp	r2, r3
 3768 01aa 02D0     		beq	.L252
 3769              		.loc 2 1289 0 is_stmt 0 discriminator 1
 3770 01ac 7B7E     		ldrb	r3, [r7, #25]	@ zero_extendqisi2
 3771 01ae 002B     		cmp	r3, #0
 3772 01b0 09D0     		beq	.L253
 3773              	.L252:
 3774              		.loc 2 1291 0 is_stmt 1
 3775 01b2 7B68     		ldr	r3, [r7, #4]
 3776 01b4 5B6A     		ldr	r3, [r3, #36]
 3777 01b6 7A68     		ldr	r2, [r7, #4]
 3778 01b8 126A     		ldr	r2, [r2, #32]
 3779 01ba DA60     		str	r2, [r3, #12]
 3780              		.loc 2 1293 0
 3781 01bc 0123     		movs	r3, #1
 3782 01be FB76     		strb	r3, [r7, #27]
 3783              		.loc 2 1294 0
 3784 01c0 7B68     		ldr	r3, [r7, #4]
 3785 01c2 0022     		movs	r2, #0
 3786 01c4 1A62     		str	r2, [r3, #32]
 3787              	.L253:
 3788              		.loc 2 1296 0
 3789 01c6 7B68     		ldr	r3, [r7, #4]
 3790 01c8 5B68     		ldr	r3, [r3, #4]
 3791 01ca 1846     		mov	r0, r3
 3792 01cc FFF7FEFF 		bl	tcp_output
ARM GAS  C:\Users\Luis\AppData\Local\Temp\ccd19DXF.s 			page 70


 3793 01d0 13E0     		b	.L254
 3794              	.L251:
 3795              		.loc 2 1297 0
 3796 01d2 97F91F30 		ldrsb	r3, [r7, #31]
 3797 01d6 B3F1FF3F 		cmp	r3, #-1
 3798 01da 08D1     		bne	.L255
 3799              		.loc 2 1297 0 is_stmt 0 discriminator 1
 3800 01dc 7B7E     		ldrb	r3, [r7, #25]	@ zero_extendqisi2
 3801 01de 002B     		cmp	r3, #0
 3802 01e0 05D1     		bne	.L255
 3803              		.loc 2 1303 0 is_stmt 1
 3804 01e2 7B68     		ldr	r3, [r7, #4]
 3805 01e4 5B68     		ldr	r3, [r3, #4]
 3806 01e6 1846     		mov	r0, r3
 3807 01e8 FFF7FEFF 		bl	tcp_output
 3808 01ec 05E0     		b	.L254
 3809              	.L255:
 3810              		.loc 2 1311 0
 3811 01ee 0123     		movs	r3, #1
 3812 01f0 FB76     		strb	r3, [r7, #27]
 3813              		.loc 2 1312 0
 3814 01f2 7B68     		ldr	r3, [r7, #4]
 3815 01f4 5B6A     		ldr	r3, [r3, #36]
 3816 01f6 0022     		movs	r2, #0
 3817 01f8 DA60     		str	r2, [r3, #12]
 3818              	.L254:
 3819              		.loc 2 1315 0
 3820 01fa FB7E     		ldrb	r3, [r7, #27]	@ zero_extendqisi2
 3821 01fc 002B     		cmp	r3, #0
 3822 01fe 0ED0     		beq	.L256
 3823              		.loc 2 1318 0
 3824 0200 7B68     		ldr	r3, [r7, #4]
 3825 0202 5B6A     		ldr	r3, [r3, #36]
 3826 0204 FA7F     		ldrb	r2, [r7, #31]
 3827 0206 1A71     		strb	r2, [r3, #4]
 3828              		.loc 2 1319 0
 3829 0208 7B68     		ldr	r3, [r7, #4]
 3830 020a 0022     		movs	r2, #0
 3831 020c 5A62     		str	r2, [r3, #36]
 3832              		.loc 2 1320 0
 3833 020e 7B68     		ldr	r3, [r7, #4]
 3834 0210 0022     		movs	r2, #0
 3835 0212 5A70     		strb	r2, [r3, #1]
 3836              		.loc 2 1325 0
 3837 0214 7B68     		ldr	r3, [r7, #4]
 3838 0216 0C33     		adds	r3, r3, #12
 3839 0218 1846     		mov	r0, r3
 3840 021a FFF7FEFF 		bl	sys_sem_signal
 3841              	.L256:
 3842              		.loc 2 1332 0
 3843 021e 0023     		movs	r3, #0
 3844 0220 5BB2     		sxtb	r3, r3
 3845              		.loc 2 1333 0
 3846 0222 1846     		mov	r0, r3
 3847 0224 2037     		adds	r7, r7, #32
 3848 0226 BD46     		mov	sp, r7
 3849              		@ sp needed
ARM GAS  C:\Users\Luis\AppData\Local\Temp\ccd19DXF.s 			page 71


 3850 0228 80BD     		pop	{r7, pc}
 3851              	.L259:
 3852 022a 00BF     		.align	2
 3853              	.L258:
 3854 022c C8000000 		.word	.LC6
 3855 0230 90030000 		.word	.LC26
 3856 0234 D8000000 		.word	.LC7
 3857 0238 B0030000 		.word	.LC27
 3858 023c C8030000 		.word	.LC28
 3859 0240 FC030000 		.word	.LC29
 3860              		.cfi_endproc
 3861              	.LFE282:
 3862              		.size	do_writemore, .-do_writemore
 3863 0244 AFF30080 		.section	.rodata
 3863      AFF30080 
 3863      AFF30080 
 3864 041a 0000     		.align	2
 3865              	.LC30:
 3866 041c 6D73672D 		.ascii	"msg->msg.w.len != 0\000"
 3866      3E6D7367 
 3866      2E772E6C 
 3866      656E2021 
 3866      3D203000 
 3867              		.section	.text.do_write,"ax",%progbits
 3868              		.align	2
 3869              		.p2align 4,,15
 3870              		.global	do_write
 3871              		.thumb
 3872              		.thumb_func
 3873              		.type	do_write, %function
 3874              	do_write:
 3875              	.LFB283:
 3876              		.loc 2 1344 0
 3877              		.cfi_startproc
 3878              		@ args = 0, pretend = 0, frame = 8
 3879              		@ frame_needed = 1, uses_anonymous_args = 0
 3880 0000 80B5     		push	{r7, lr}
 3881              		.cfi_def_cfa_offset 8
 3882              		.cfi_offset 7, -8
 3883              		.cfi_offset 14, -4
 3884 0002 82B0     		sub	sp, sp, #8
 3885              		.cfi_def_cfa_offset 16
 3886 0004 00AF     		add	r7, sp, #0
 3887              		.cfi_def_cfa_register 7
 3888 0006 7860     		str	r0, [r7, #4]
 3889              		.loc 2 1345 0
 3890 0008 7B68     		ldr	r3, [r7, #4]
 3891 000a 1B68     		ldr	r3, [r3]
 3892 000c 1B7A     		ldrb	r3, [r3, #8]	@ zero_extendqisi2
 3893 000e 5BB2     		sxtb	r3, r3
 3894 0010 13F1090F 		cmn	r3, #9
 3895 0014 05DA     		bge	.L261
 3896              		.loc 2 1346 0
 3897 0016 7B68     		ldr	r3, [r7, #4]
 3898 0018 1B68     		ldr	r3, [r3]
 3899 001a 1A7A     		ldrb	r2, [r3, #8]	@ zero_extendqisi2
 3900 001c 7B68     		ldr	r3, [r7, #4]
ARM GAS  C:\Users\Luis\AppData\Local\Temp\ccd19DXF.s 			page 72


 3901 001e 1A71     		strb	r2, [r3, #4]
 3902 0020 3FE0     		b	.L262
 3903              	.L261:
 3904              		.loc 2 1348 0
 3905 0022 7B68     		ldr	r3, [r7, #4]
 3906 0024 1B68     		ldr	r3, [r3]
 3907 0026 1B78     		ldrb	r3, [r3]	@ zero_extendqisi2
 3908 0028 102B     		cmp	r3, #16
 3909 002a 37D1     		bne	.L263
 3910              		.loc 2 1350 0
 3911 002c 7B68     		ldr	r3, [r7, #4]
 3912 002e 1B68     		ldr	r3, [r3]
 3913 0030 5B78     		ldrb	r3, [r3, #1]	@ zero_extendqisi2
 3914 0032 002B     		cmp	r3, #0
 3915 0034 03D0     		beq	.L264
 3916              		.loc 2 1352 0
 3917 0036 7B68     		ldr	r3, [r7, #4]
 3918 0038 FB22     		movs	r2, #251
 3919 003a 1A71     		strb	r2, [r3, #4]
 3920 003c 31E0     		b	.L262
 3921              	.L264:
 3922              		.loc 2 1353 0
 3923 003e 7B68     		ldr	r3, [r7, #4]
 3924 0040 1B68     		ldr	r3, [r3]
 3925 0042 5B68     		ldr	r3, [r3, #4]
 3926 0044 002B     		cmp	r3, #0
 3927 0046 25D0     		beq	.L266
 3928              		.loc 2 1354 0
 3929 0048 7B68     		ldr	r3, [r7, #4]
 3930 004a 1B68     		ldr	r3, [r3]
 3931 004c 0122     		movs	r2, #1
 3932 004e 5A70     		strb	r2, [r3, #1]
 3933              		.loc 2 1356 0
 3934 0050 7B68     		ldr	r3, [r7, #4]
 3935 0052 1B68     		ldr	r3, [r3]
 3936 0054 5B6A     		ldr	r3, [r3, #36]
 3937 0056 002B     		cmp	r3, #0
 3938 0058 04D1     		bne	.L267
 3939              		.loc 2 1356 0 is_stmt 0 discriminator 2
 3940 005a 7B68     		ldr	r3, [r7, #4]
 3941 005c 1B68     		ldr	r3, [r3]
 3942 005e 1B6A     		ldr	r3, [r3, #32]
 3943 0060 002B     		cmp	r3, #0
 3944 0062 02D0     		beq	.L268
 3945              	.L267:
 3946              		.loc 2 1356 0 discriminator 1
 3947 0064 1348     		ldr	r0, .L271
 3948 0066 FFF7FEFF 		bl	osalSysHalt
 3949              	.L268:
 3950              		.loc 2 1358 0 is_stmt 1
 3951 006a 7B68     		ldr	r3, [r7, #4]
 3952 006c DB68     		ldr	r3, [r3, #12]
 3953 006e 002B     		cmp	r3, #0
 3954 0070 02D1     		bne	.L269
 3955              		.loc 2 1358 0 is_stmt 0 discriminator 1
 3956 0072 1148     		ldr	r0, .L271+4
 3957 0074 FFF7FEFF 		bl	osalSysHalt
ARM GAS  C:\Users\Luis\AppData\Local\Temp\ccd19DXF.s 			page 73


 3958              	.L269:
 3959              		.loc 2 1359 0 is_stmt 1
 3960 0078 7B68     		ldr	r3, [r7, #4]
 3961 007a 1B68     		ldr	r3, [r3]
 3962 007c 7A68     		ldr	r2, [r7, #4]
 3963 007e 5A62     		str	r2, [r3, #36]
 3964              		.loc 2 1360 0
 3965 0080 7B68     		ldr	r3, [r7, #4]
 3966 0082 1B68     		ldr	r3, [r3]
 3967 0084 0022     		movs	r2, #0
 3968 0086 1A62     		str	r2, [r3, #32]
 3969              		.loc 2 1371 0
 3970 0088 7B68     		ldr	r3, [r7, #4]
 3971 008a 1B68     		ldr	r3, [r3]
 3972 008c 1846     		mov	r0, r3
 3973 008e FFF7FEFF 		bl	do_writemore
 3974              		.loc 2 1375 0
 3975 0092 0CE0     		b	.L260
 3976              	.L266:
 3977              		.loc 2 1377 0
 3978 0094 7B68     		ldr	r3, [r7, #4]
 3979 0096 F322     		movs	r2, #243
 3980 0098 1A71     		strb	r2, [r3, #4]
 3981 009a 02E0     		b	.L262
 3982              	.L263:
 3983              		.loc 2 1384 0
 3984 009c 7B68     		ldr	r3, [r7, #4]
 3985 009e FA22     		movs	r2, #250
 3986 00a0 1A71     		strb	r2, [r3, #4]
 3987              	.L262:
 3988              		.loc 2 1388 0
 3989 00a2 7B68     		ldr	r3, [r7, #4]
 3990 00a4 1B68     		ldr	r3, [r3]
 3991 00a6 0C33     		adds	r3, r3, #12
 3992 00a8 1846     		mov	r0, r3
 3993 00aa FFF7FEFF 		bl	sys_sem_signal
 3994              	.L260:
 3995              		.loc 2 1389 0
 3996 00ae 0837     		adds	r7, r7, #8
 3997 00b0 BD46     		mov	sp, r7
 3998              		@ sp needed
 3999 00b2 80BD     		pop	{r7, pc}
 4000              	.L272:
 4001              		.align	2
 4002              	.L271:
 4003 00b4 FC020000 		.word	.LC22
 4004 00b8 1C040000 		.word	.LC30
 4005              		.cfi_endproc
 4006              	.LFE283:
 4007              		.size	do_write, .-do_write
 4008 00bc AFF30080 		.section	.rodata
 4009              		.align	2
 4010              	.LC31:
 4011 0430 696E7661 		.ascii	"invalid netconn_type\000"
 4011      6C696420 
 4011      6E657463 
 4011      6F6E6E5F 
ARM GAS  C:\Users\Luis\AppData\Local\Temp\ccd19DXF.s 			page 74


 4011      74797065 
 4012 0445 000000   		.section	.text.do_getaddr,"ax",%progbits
 4013              		.align	2
 4014              		.p2align 4,,15
 4015              		.global	do_getaddr
 4016              		.thumb
 4017              		.thumb_func
 4018              		.type	do_getaddr, %function
 4019              	do_getaddr:
 4020              	.LFB284:
 4021              		.loc 2 1399 0
 4022              		.cfi_startproc
 4023              		@ args = 0, pretend = 0, frame = 8
 4024              		@ frame_needed = 1, uses_anonymous_args = 0
 4025 0000 80B5     		push	{r7, lr}
 4026              		.cfi_def_cfa_offset 8
 4027              		.cfi_offset 7, -8
 4028              		.cfi_offset 14, -4
 4029 0002 82B0     		sub	sp, sp, #8
 4030              		.cfi_def_cfa_offset 16
 4031 0004 00AF     		add	r7, sp, #0
 4032              		.cfi_def_cfa_register 7
 4033 0006 7860     		str	r0, [r7, #4]
 4034              		.loc 2 1400 0
 4035 0008 7B68     		ldr	r3, [r7, #4]
 4036 000a 1B68     		ldr	r3, [r3]
 4037 000c 5B68     		ldr	r3, [r3, #4]
 4038 000e 002B     		cmp	r3, #0
 4039 0010 66D0     		beq	.L274
 4040              		.loc 2 1401 0
 4041 0012 7B68     		ldr	r3, [r7, #4]
 4042 0014 9B68     		ldr	r3, [r3, #8]
 4043 0016 7A68     		ldr	r2, [r7, #4]
 4044 0018 127C     		ldrb	r2, [r2, #16]	@ zero_extendqisi2
 4045 001a 002A     		cmp	r2, #0
 4046 001c 05D0     		beq	.L275
 4047              		.loc 2 1401 0 is_stmt 0 discriminator 1
 4048 001e 7A68     		ldr	r2, [r7, #4]
 4049 0020 1268     		ldr	r2, [r2]
 4050 0022 5268     		ldr	r2, [r2, #4]
 4051 0024 1268     		ldr	r2, [r2]
 4052 0026 1A60     		str	r2, [r3]
 4053 0028 04E0     		b	.L276
 4054              	.L275:
 4055              		.loc 2 1402 0 is_stmt 1 discriminator 2
 4056 002a 7A68     		ldr	r2, [r7, #4]
 4057 002c 1268     		ldr	r2, [r2]
 4058 002e 5268     		ldr	r2, [r2, #4]
 4059              		.loc 2 1401 0 discriminator 2
 4060 0030 5268     		ldr	r2, [r2, #4]
 4061 0032 1A60     		str	r2, [r3]
 4062              	.L276:
 4063              		.loc 2 1404 0
 4064 0034 7B68     		ldr	r3, [r7, #4]
 4065 0036 0022     		movs	r2, #0
 4066 0038 1A71     		strb	r2, [r3, #4]
 4067              		.loc 2 1405 0
ARM GAS  C:\Users\Luis\AppData\Local\Temp\ccd19DXF.s 			page 75


 4068 003a 7B68     		ldr	r3, [r7, #4]
 4069 003c 1B68     		ldr	r3, [r3]
 4070 003e 1B78     		ldrb	r3, [r3]	@ zero_extendqisi2
 4071 0040 03F0F003 		and	r3, r3, #240
 4072 0044 202B     		cmp	r3, #32
 4073 0046 14D0     		beq	.L278
 4074 0048 402B     		cmp	r3, #64
 4075 004a 02D0     		beq	.L279
 4076 004c 102B     		cmp	r3, #16
 4077 004e 31D0     		beq	.L280
 4078 0050 41E0     		b	.L290
 4079              	.L279:
 4080              		.loc 2 1408 0
 4081 0052 7B68     		ldr	r3, [r7, #4]
 4082 0054 1B7C     		ldrb	r3, [r3, #16]	@ zero_extendqisi2
 4083 0056 002B     		cmp	r3, #0
 4084 0058 07D0     		beq	.L281
 4085              		.loc 2 1409 0
 4086 005a 7B68     		ldr	r3, [r7, #4]
 4087 005c DB68     		ldr	r3, [r3, #12]
 4088 005e 7A68     		ldr	r2, [r7, #4]
 4089 0060 1268     		ldr	r2, [r2]
 4090 0062 5268     		ldr	r2, [r2, #4]
 4091 0064 127C     		ldrb	r2, [r2, #16]	@ zero_extendqisi2
 4092 0066 1A80     		strh	r2, [r3]	@ movhi
 4093              		.loc 2 1414 0
 4094 0068 39E0     		b	.L283
 4095              	.L281:
 4096              		.loc 2 1412 0
 4097 006a 7B68     		ldr	r3, [r7, #4]
 4098 006c F322     		movs	r2, #243
 4099 006e 1A71     		strb	r2, [r3, #4]
 4100              		.loc 2 1414 0
 4101 0070 35E0     		b	.L283
 4102              	.L278:
 4103              		.loc 2 1418 0
 4104 0072 7B68     		ldr	r3, [r7, #4]
 4105 0074 1B7C     		ldrb	r3, [r3, #16]	@ zero_extendqisi2
 4106 0076 002B     		cmp	r3, #0
 4107 0078 07D0     		beq	.L284
 4108              		.loc 2 1419 0
 4109 007a 7B68     		ldr	r3, [r7, #4]
 4110 007c DB68     		ldr	r3, [r3, #12]
 4111 007e 7A68     		ldr	r2, [r7, #4]
 4112 0080 1268     		ldr	r2, [r2]
 4113 0082 5268     		ldr	r2, [r2, #4]
 4114 0084 528A     		ldrh	r2, [r2, #18]
 4115 0086 1A80     		strh	r2, [r3]	@ movhi
 4116 0088 13E0     		b	.L285
 4117              	.L284:
 4118              		.loc 2 1421 0
 4119 008a 7B68     		ldr	r3, [r7, #4]
 4120 008c 1B68     		ldr	r3, [r3]
 4121 008e 5B68     		ldr	r3, [r3, #4]
 4122 0090 1B7C     		ldrb	r3, [r3, #16]	@ zero_extendqisi2
 4123 0092 03F00403 		and	r3, r3, #4
 4124 0096 002B     		cmp	r3, #0
ARM GAS  C:\Users\Luis\AppData\Local\Temp\ccd19DXF.s 			page 76


 4125 0098 03D1     		bne	.L286
 4126              		.loc 2 1422 0
 4127 009a 7B68     		ldr	r3, [r7, #4]
 4128 009c F322     		movs	r2, #243
 4129 009e 1A71     		strb	r2, [r3, #4]
 4130 00a0 07E0     		b	.L285
 4131              	.L286:
 4132              		.loc 2 1424 0
 4133 00a2 7B68     		ldr	r3, [r7, #4]
 4134 00a4 DB68     		ldr	r3, [r3, #12]
 4135 00a6 7A68     		ldr	r2, [r7, #4]
 4136 00a8 1268     		ldr	r2, [r2]
 4137 00aa 5268     		ldr	r2, [r2, #4]
 4138 00ac 928A     		ldrh	r2, [r2, #20]
 4139 00ae 1A80     		strh	r2, [r3]	@ movhi
 4140              		.loc 2 1427 0
 4141 00b0 15E0     		b	.L283
 4142              	.L285:
 4143 00b2 14E0     		b	.L283
 4144              	.L280:
 4145              		.loc 2 1431 0
 4146 00b4 7B68     		ldr	r3, [r7, #4]
 4147 00b6 DA68     		ldr	r2, [r3, #12]
 4148 00b8 7B68     		ldr	r3, [r7, #4]
 4149 00ba 1B7C     		ldrb	r3, [r3, #16]	@ zero_extendqisi2
 4150 00bc 002B     		cmp	r3, #0
 4151 00be 04D0     		beq	.L287
 4152              		.loc 2 1431 0 is_stmt 0 discriminator 1
 4153 00c0 7B68     		ldr	r3, [r7, #4]
 4154 00c2 1B68     		ldr	r3, [r3]
 4155 00c4 5B68     		ldr	r3, [r3, #4]
 4156 00c6 5B8B     		ldrh	r3, [r3, #26]
 4157 00c8 03E0     		b	.L288
 4158              	.L287:
 4159              		.loc 2 1431 0 discriminator 2
 4160 00ca 7B68     		ldr	r3, [r7, #4]
 4161 00cc 1B68     		ldr	r3, [r3]
 4162 00ce 5B68     		ldr	r3, [r3, #4]
 4163 00d0 9B8B     		ldrh	r3, [r3, #28]
 4164              	.L288:
 4165              		.loc 2 1431 0 discriminator 3
 4166 00d2 1380     		strh	r3, [r2]	@ movhi
 4167              		.loc 2 1432 0 is_stmt 1 discriminator 3
 4168 00d4 03E0     		b	.L283
 4169              	.L290:
 4170              		.loc 2 1435 0
 4171 00d6 0848     		ldr	r0, .L291
 4172 00d8 FFF7FEFF 		bl	osalSysHalt
 4173              		.loc 2 1436 0
 4174 00dc 00BF     		nop
 4175              	.L283:
 4176 00de 02E0     		b	.L289
 4177              	.L274:
 4178              		.loc 2 1439 0
 4179 00e0 7B68     		ldr	r3, [r7, #4]
 4180 00e2 F322     		movs	r2, #243
 4181 00e4 1A71     		strb	r2, [r3, #4]
ARM GAS  C:\Users\Luis\AppData\Local\Temp\ccd19DXF.s 			page 77


 4182              	.L289:
 4183              		.loc 2 1441 0
 4184 00e6 7B68     		ldr	r3, [r7, #4]
 4185 00e8 1B68     		ldr	r3, [r3]
 4186 00ea 0C33     		adds	r3, r3, #12
 4187 00ec 1846     		mov	r0, r3
 4188 00ee FFF7FEFF 		bl	sys_sem_signal
 4189              		.loc 2 1442 0
 4190 00f2 0837     		adds	r7, r7, #8
 4191 00f4 BD46     		mov	sp, r7
 4192              		@ sp needed
 4193 00f6 80BD     		pop	{r7, pc}
 4194              	.L292:
 4195              		.align	2
 4196              	.L291:
 4197 00f8 30040000 		.word	.LC31
 4198              		.cfi_endproc
 4199              	.LFE284:
 4200              		.size	do_getaddr, .-do_getaddr
 4201 00fc AFF30080 		.section	.text.do_close,"ax",%progbits
 4202              		.align	2
 4203              		.p2align 4,,15
 4204              		.global	do_close
 4205              		.thumb
 4206              		.thumb_func
 4207              		.type	do_close, %function
 4208              	do_close:
 4209              	.LFB285:
 4210              		.loc 2 1452 0
 4211              		.cfi_startproc
 4212              		@ args = 0, pretend = 0, frame = 8
 4213              		@ frame_needed = 1, uses_anonymous_args = 0
 4214 0000 80B5     		push	{r7, lr}
 4215              		.cfi_def_cfa_offset 8
 4216              		.cfi_offset 7, -8
 4217              		.cfi_offset 14, -4
 4218 0002 82B0     		sub	sp, sp, #8
 4219              		.cfi_def_cfa_offset 16
 4220 0004 00AF     		add	r7, sp, #0
 4221              		.cfi_def_cfa_register 7
 4222 0006 7860     		str	r0, [r7, #4]
 4223              		.loc 2 1455 0
 4224 0008 7B68     		ldr	r3, [r7, #4]
 4225 000a 1B68     		ldr	r3, [r3]
 4226 000c 5B78     		ldrb	r3, [r3, #1]	@ zero_extendqisi2
 4227 000e 002B     		cmp	r3, #0
 4228 0010 10D0     		beq	.L294
 4229              		.loc 2 1455 0 is_stmt 0 discriminator 1
 4230 0012 7B68     		ldr	r3, [r7, #4]
 4231 0014 1B68     		ldr	r3, [r3]
 4232 0016 5B78     		ldrb	r3, [r3, #1]	@ zero_extendqisi2
 4233 0018 022B     		cmp	r3, #2
 4234 001a 0BD0     		beq	.L294
 4235              		.loc 2 1457 0 is_stmt 1
 4236 001c 7B68     		ldr	r3, [r7, #4]
 4237 001e 1B68     		ldr	r3, [r3]
 4238 0020 1B78     		ldrb	r3, [r3]	@ zero_extendqisi2
ARM GAS  C:\Users\Luis\AppData\Local\Temp\ccd19DXF.s 			page 78


 4239 0022 102B     		cmp	r3, #16
 4240 0024 02D0     		beq	.L295
 4241              		.loc 2 1457 0 is_stmt 0 discriminator 1
 4242 0026 2848     		ldr	r0, .L303
 4243 0028 FFF7FEFF 		bl	osalSysHalt
 4244              	.L295:
 4245              		.loc 2 1458 0 is_stmt 1
 4246 002c 7B68     		ldr	r3, [r7, #4]
 4247 002e FB22     		movs	r2, #251
 4248 0030 1A71     		strb	r2, [r3, #4]
 4249 0032 3FE0     		b	.L296
 4250              	.L294:
 4251              		.loc 2 1459 0
 4252 0034 7B68     		ldr	r3, [r7, #4]
 4253 0036 1B68     		ldr	r3, [r3]
 4254 0038 5B68     		ldr	r3, [r3, #4]
 4255 003a 002B     		cmp	r3, #0
 4256 003c 37D0     		beq	.L297
 4257              		.loc 2 1459 0 is_stmt 0 discriminator 1
 4258 003e 7B68     		ldr	r3, [r7, #4]
 4259 0040 1B68     		ldr	r3, [r3]
 4260 0042 1B78     		ldrb	r3, [r3]	@ zero_extendqisi2
 4261 0044 102B     		cmp	r3, #16
 4262 0046 32D1     		bne	.L297
 4263              		.loc 2 1460 0 is_stmt 1
 4264 0048 7B68     		ldr	r3, [r7, #4]
 4265 004a 1B7A     		ldrb	r3, [r3, #8]	@ zero_extendqisi2
 4266 004c 032B     		cmp	r3, #3
 4267 004e 08D0     		beq	.L298
 4268              		.loc 2 1460 0 is_stmt 0 discriminator 1
 4269 0050 7B68     		ldr	r3, [r7, #4]
 4270 0052 1B68     		ldr	r3, [r3]
 4271 0054 5B78     		ldrb	r3, [r3, #1]	@ zero_extendqisi2
 4272 0056 022B     		cmp	r3, #2
 4273 0058 03D1     		bne	.L298
 4274              		.loc 2 1462 0 is_stmt 1
 4275 005a 7B68     		ldr	r3, [r7, #4]
 4276 005c F322     		movs	r2, #243
 4277 005e 1A71     		strb	r2, [r3, #4]
 4278              		.loc 2 1460 0
 4279 0060 28E0     		b	.L296
 4280              	.L298:
 4281              		.loc 2 1464 0
 4282 0062 7B68     		ldr	r3, [r7, #4]
 4283 0064 1B7A     		ldrb	r3, [r3, #8]	@ zero_extendqisi2
 4284 0066 03F00103 		and	r3, r3, #1
 4285 006a 002B     		cmp	r3, #0
 4286 006c 04D0     		beq	.L299
 4287              		.loc 2 1466 0
 4288 006e 7B68     		ldr	r3, [r7, #4]
 4289 0070 1B68     		ldr	r3, [r3]
 4290 0072 1846     		mov	r0, r3
 4291 0074 FFF7FEFF 		bl	netconn_drain
 4292              	.L299:
 4293              		.loc 2 1468 0
 4294 0078 7B68     		ldr	r3, [r7, #4]
 4295 007a 1B68     		ldr	r3, [r3]
ARM GAS  C:\Users\Luis\AppData\Local\Temp\ccd19DXF.s 			page 79


 4296 007c 5B6A     		ldr	r3, [r3, #36]
 4297 007e 002B     		cmp	r3, #0
 4298 0080 04D1     		bne	.L300
 4299              		.loc 2 1468 0 is_stmt 0 discriminator 2
 4300 0082 7B68     		ldr	r3, [r7, #4]
 4301 0084 1B68     		ldr	r3, [r3]
 4302 0086 1B6A     		ldr	r3, [r3, #32]
 4303 0088 002B     		cmp	r3, #0
 4304 008a 02D0     		beq	.L301
 4305              	.L300:
 4306              		.loc 2 1468 0 discriminator 1
 4307 008c 0F48     		ldr	r0, .L303+4
 4308 008e FFF7FEFF 		bl	osalSysHalt
 4309              	.L301:
 4310              		.loc 2 1470 0 is_stmt 1
 4311 0092 7B68     		ldr	r3, [r7, #4]
 4312 0094 1B68     		ldr	r3, [r3]
 4313 0096 0422     		movs	r2, #4
 4314 0098 5A70     		strb	r2, [r3, #1]
 4315              		.loc 2 1471 0
 4316 009a 7B68     		ldr	r3, [r7, #4]
 4317 009c 1B68     		ldr	r3, [r3]
 4318 009e 7A68     		ldr	r2, [r7, #4]
 4319 00a0 5A62     		str	r2, [r3, #36]
 4320              		.loc 2 1472 0
 4321 00a2 7B68     		ldr	r3, [r7, #4]
 4322 00a4 1B68     		ldr	r3, [r3]
 4323 00a6 1846     		mov	r0, r3
 4324 00a8 FFF7FEFF 		bl	do_close_internal
 4325              		.loc 2 1474 0
 4326 00ac 08E0     		b	.L293
 4327              	.L297:
 4328              		.loc 2 1479 0
 4329 00ae 7B68     		ldr	r3, [r7, #4]
 4330 00b0 FA22     		movs	r2, #250
 4331 00b2 1A71     		strb	r2, [r3, #4]
 4332              	.L296:
 4333              		.loc 2 1481 0
 4334 00b4 7B68     		ldr	r3, [r7, #4]
 4335 00b6 1B68     		ldr	r3, [r3]
 4336 00b8 0C33     		adds	r3, r3, #12
 4337 00ba 1846     		mov	r0, r3
 4338 00bc FFF7FEFF 		bl	sys_sem_signal
 4339              	.L293:
 4340              		.loc 2 1482 0
 4341 00c0 0837     		adds	r7, r7, #8
 4342 00c2 BD46     		mov	sp, r7
 4343              		@ sp needed
 4344 00c4 80BD     		pop	{r7, pc}
 4345              	.L304:
 4346 00c6 00BF     		.align	2
 4347              	.L303:
 4348 00c8 BC020000 		.word	.LC20
 4349 00cc FC020000 		.word	.LC22
 4350              		.cfi_endproc
 4351              	.LFE285:
 4352              		.size	do_close, .-do_close
ARM GAS  C:\Users\Luis\AppData\Local\Temp\ccd19DXF.s 			page 80


 4353              		.text
 4354              	.Letext0:
 4355              		.file 3 "c:\\emtechesdk\\gcc\\lib\\gcc\\arm-none-eabi\\4.8.3\\include\\stddef.h"
 4356              		.file 4 "c:\\emtechesdk\\gcc\\arm-none-eabi\\include\\stdint.h"
 4357              		.file 5 "../../ChibiOS/os/rt/ports/ARMCMx/compilers/GCC/chtypes.h"
 4358              		.file 6 "../../ChibiOS/os/rt/include/chsystypes.h"
 4359              		.file 7 "../../ChibiOS/os/rt/include/chschd.h"
 4360              		.file 8 "../../ChibiOS/os/rt/ports/ARMCMx/chcore.h"
 4361              		.file 9 "../../ChibiOS/os/rt/ports/ARMCMx/chcore_v7m.h"
 4362              		.file 10 "../../ChibiOS/os/rt/include/chdebug.h"
 4363              		.file 11 "../../ChibiOS/os/rt/include/chtm.h"
 4364              		.file 12 "../../ChibiOS/os/rt/include/chstats.h"
 4365              		.file 13 "../../ChibiOS/os/rt/include/chsem.h"
 4366              		.file 14 "../../ChibiOS/os/rt/include/chmtx.h"
 4367              		.file 15 "../../ChibiOS/os/rt/include/chmboxes.h"
 4368              		.file 16 "../../ChibiOS/os/various/lwip_bindings/arch/cc.h"
 4369              		.file 17 "../../ChibiOS/ext/lwip/src/include/ipv4/lwip/ip_addr.h"
 4370              		.file 18 "../../ChibiOS/ext/lwip/src/include/lwip/err.h"
 4371              		.file 19 "../../ChibiOS/os/various/lwip_bindings/arch/sys_arch.h"
 4372              		.file 20 "../../ChibiOS/ext/lwip/src/include/lwip/pbuf.h"
 4373              		.file 21 "../../ChibiOS/ext/lwip/src/include/lwip/netbuf.h"
 4374              		.file 22 "../../ChibiOS/ext/lwip/src/include/lwip/api.h"
 4375              		.file 23 "../../ChibiOS/ext/lwip/src/include/ipv4/lwip/ip.h"
 4376              		.file 24 "../../ChibiOS/ext/lwip/src/include/lwip/tcp.h"
 4377              		.file 25 "../../ChibiOS/ext/lwip/src/include/lwip/udp.h"
 4378              		.file 26 "../../ChibiOS/ext/lwip/src/include/lwip/raw.h"
 4379              		.file 27 "../../ChibiOS/ext/lwip/src/include/lwip/api_msg.h"
 4380              		.file 28 "../../ChibiOS/ext/lwip/src/include/lwip/memp.h"
 4381              		.file 29 "../../ChibiOS/os/ext/CMSIS/include/core_cm4.h"