ARM GAS  C:\Users\Luis\AppData\Local\Temp\ccaYFvbx.s 			page 1


   1              		.syntax unified
   2              		.cpu cortex-m4
   3              		.fpu softvfp
   4              		.eabi_attribute 20, 1
   5              		.eabi_attribute 21, 1
   6              		.eabi_attribute 23, 3
   7              		.eabi_attribute 24, 1
   8              		.eabi_attribute 25, 1
   9              		.eabi_attribute 26, 1
  10              		.eabi_attribute 30, 6
  11              		.eabi_attribute 34, 1
  12              		.eabi_attribute 18, 4
  13              		.thumb
  14              		.file	"def.c"
  15              		.text
  16              	.Ltext0:
  17              		.cfi_sections	.debug_frame
  18              		.section	.text.lwip_htons,"ax",%progbits
  19              		.align	2
  20              		.p2align 4,,15
  21              		.global	lwip_htons
  22              		.thumb
  23              		.thumb_func
  24              		.type	lwip_htons, %function
  25              	lwip_htons:
  26              	.LFB260:
  27              		.file 1 "../../ChibiOS/ext/lwip/src/core/def.c"
  28              		.loc 1 65 0
  29              		.cfi_startproc
  30              		@ args = 0, pretend = 0, frame = 8
  31              		@ frame_needed = 1, uses_anonymous_args = 0
  32              		@ link register save eliminated.
  33 0000 80B4     		push	{r7}
  34              		.cfi_def_cfa_offset 4
  35              		.cfi_offset 7, -4
  36 0002 83B0     		sub	sp, sp, #12
  37              		.cfi_def_cfa_offset 16
  38 0004 00AF     		add	r7, sp, #0
  39              		.cfi_def_cfa_register 7
  40 0006 0346     		mov	r3, r0
  41 0008 FB80     		strh	r3, [r7, #6]	@ movhi
  42              		.loc 1 66 0
  43 000a FB88     		ldrh	r3, [r7, #6]
  44 000c 1B02     		lsls	r3, r3, #8
  45 000e 9AB2     		uxth	r2, r3
  46 0010 FB88     		ldrh	r3, [r7, #6]
  47 0012 1B0A     		lsrs	r3, r3, #8
  48 0014 9BB2     		uxth	r3, r3
  49 0016 9BB2     		uxth	r3, r3
  50 0018 1343     		orrs	r3, r3, r2
  51 001a 9BB2     		uxth	r3, r3
  52 001c 9BB2     		uxth	r3, r3
  53              		.loc 1 67 0
  54 001e 1846     		mov	r0, r3
  55 0020 0C37     		adds	r7, r7, #12
  56 0022 BD46     		mov	sp, r7
  57              		@ sp needed
ARM GAS  C:\Users\Luis\AppData\Local\Temp\ccaYFvbx.s 			page 2


  58 0024 5DF8047B 		ldr	r7, [sp], #4
  59 0028 7047     		bx	lr
  60              		.cfi_endproc
  61              	.LFE260:
  62              		.size	lwip_htons, .-lwip_htons
  63 002a 00BFAFF3 		.section	.text.lwip_ntohs,"ax",%progbits
  63      0080
  64              		.align	2
  65              		.p2align 4,,15
  66              		.global	lwip_ntohs
  67              		.thumb
  68              		.thumb_func
  69              		.type	lwip_ntohs, %function
  70              	lwip_ntohs:
  71              	.LFB261:
  72              		.loc 1 77 0
  73              		.cfi_startproc
  74              		@ args = 0, pretend = 0, frame = 8
  75              		@ frame_needed = 1, uses_anonymous_args = 0
  76 0000 80B5     		push	{r7, lr}
  77              		.cfi_def_cfa_offset 8
  78              		.cfi_offset 7, -8
  79              		.cfi_offset 14, -4
  80 0002 82B0     		sub	sp, sp, #8
  81              		.cfi_def_cfa_offset 16
  82 0004 00AF     		add	r7, sp, #0
  83              		.cfi_def_cfa_register 7
  84 0006 0346     		mov	r3, r0
  85 0008 FB80     		strh	r3, [r7, #6]	@ movhi
  86              		.loc 1 78 0
  87 000a FB88     		ldrh	r3, [r7, #6]
  88 000c 1846     		mov	r0, r3
  89 000e FFF7FEFF 		bl	lwip_htons
  90 0012 0346     		mov	r3, r0
  91              		.loc 1 79 0
  92 0014 1846     		mov	r0, r3
  93 0016 0837     		adds	r7, r7, #8
  94 0018 BD46     		mov	sp, r7
  95              		@ sp needed
  96 001a 80BD     		pop	{r7, pc}
  97              		.cfi_endproc
  98              	.LFE261:
  99              		.size	lwip_ntohs, .-lwip_ntohs
 100 001c AFF30080 		.section	.text.lwip_htonl,"ax",%progbits
 101              		.align	2
 102              		.p2align 4,,15
 103              		.global	lwip_htonl
 104              		.thumb
 105              		.thumb_func
 106              		.type	lwip_htonl, %function
 107              	lwip_htonl:
 108              	.LFB262:
 109              		.loc 1 89 0
 110              		.cfi_startproc
 111              		@ args = 0, pretend = 0, frame = 8
 112              		@ frame_needed = 1, uses_anonymous_args = 0
 113              		@ link register save eliminated.
ARM GAS  C:\Users\Luis\AppData\Local\Temp\ccaYFvbx.s 			page 3


 114 0000 80B4     		push	{r7}
 115              		.cfi_def_cfa_offset 4
 116              		.cfi_offset 7, -4
 117 0002 83B0     		sub	sp, sp, #12
 118              		.cfi_def_cfa_offset 16
 119 0004 00AF     		add	r7, sp, #0
 120              		.cfi_def_cfa_register 7
 121 0006 7860     		str	r0, [r7, #4]
 122              		.loc 1 90 0
 123 0008 7B68     		ldr	r3, [r7, #4]
 124 000a 1A06     		lsls	r2, r3, #24
 125              		.loc 1 91 0
 126 000c 7B68     		ldr	r3, [r7, #4]
 127 000e 03F47F43 		and	r3, r3, #65280
 128 0012 1B02     		lsls	r3, r3, #8
 129              		.loc 1 90 0
 130 0014 1A43     		orrs	r2, r2, r3
 131              		.loc 1 92 0
 132 0016 7B68     		ldr	r3, [r7, #4]
 133 0018 03F47F03 		and	r3, r3, #16711680
 134 001c 1B0A     		lsrs	r3, r3, #8
 135              		.loc 1 91 0
 136 001e 1A43     		orrs	r2, r2, r3
 137              		.loc 1 93 0
 138 0020 7B68     		ldr	r3, [r7, #4]
 139 0022 1B0E     		lsrs	r3, r3, #24
 140              		.loc 1 90 0
 141 0024 1343     		orrs	r3, r3, r2
 142              		.loc 1 94 0
 143 0026 1846     		mov	r0, r3
 144 0028 0C37     		adds	r7, r7, #12
 145 002a BD46     		mov	sp, r7
 146              		@ sp needed
 147 002c 5DF8047B 		ldr	r7, [sp], #4
 148 0030 7047     		bx	lr
 149              		.cfi_endproc
 150              	.LFE262:
 151              		.size	lwip_htonl, .-lwip_htonl
 152 0032 00BFAFF3 		.section	.text.lwip_ntohl,"ax",%progbits
 152      0080AFF3 
 152      0080AFF3 
 152      0080
 153              		.align	2
 154              		.p2align 4,,15
 155              		.global	lwip_ntohl
 156              		.thumb
 157              		.thumb_func
 158              		.type	lwip_ntohl, %function
 159              	lwip_ntohl:
 160              	.LFB263:
 161              		.loc 1 104 0
 162              		.cfi_startproc
 163              		@ args = 0, pretend = 0, frame = 8
 164              		@ frame_needed = 1, uses_anonymous_args = 0
 165 0000 80B5     		push	{r7, lr}
 166              		.cfi_def_cfa_offset 8
 167              		.cfi_offset 7, -8
ARM GAS  C:\Users\Luis\AppData\Local\Temp\ccaYFvbx.s 			page 4


 168              		.cfi_offset 14, -4
 169 0002 82B0     		sub	sp, sp, #8
 170              		.cfi_def_cfa_offset 16
 171 0004 00AF     		add	r7, sp, #0
 172              		.cfi_def_cfa_register 7
 173 0006 7860     		str	r0, [r7, #4]
 174              		.loc 1 105 0
 175 0008 7868     		ldr	r0, [r7, #4]
 176 000a FFF7FEFF 		bl	lwip_htonl
 177 000e 0346     		mov	r3, r0
 178              		.loc 1 106 0
 179 0010 1846     		mov	r0, r3
 180 0012 0837     		adds	r7, r7, #8
 181 0014 BD46     		mov	sp, r7
 182              		@ sp needed
 183 0016 80BD     		pop	{r7, pc}
 184              		.cfi_endproc
 185              	.LFE263:
 186              		.size	lwip_ntohl, .-lwip_ntohl
 187 0018 AFF30080 		.text
 187      AFF30080 
 188              	.Letext0:
 189              		.file 2 "c:\\emtechesdk\\gcc\\arm-none-eabi\\include\\stdint.h"
 190              		.file 3 "../../ChibiOS/os/rt/ports/ARMCMx/compilers/GCC/chtypes.h"
 191              		.file 4 "../../ChibiOS/os/rt/include/chsystypes.h"
 192              		.file 5 "../../ChibiOS/os/rt/include/chschd.h"
 193              		.file 6 "../../ChibiOS/os/rt/ports/ARMCMx/chcore.h"
 194              		.file 7 "../../ChibiOS/os/rt/ports/ARMCMx/chcore_v7m.h"
 195              		.file 8 "../../ChibiOS/os/rt/include/chdebug.h"
 196              		.file 9 "../../ChibiOS/os/rt/include/chtm.h"
 197              		.file 10 "../../ChibiOS/os/rt/include/chstats.h"
 198              		.file 11 "../../ChibiOS/os/rt/include/chsem.h"
 199              		.file 12 "../../ChibiOS/os/rt/include/chmtx.h"
 200              		.file 13 "../../ChibiOS/os/various/lwip_bindings/arch/cc.h"
 201              		.file 14 "../../ChibiOS/os/ext/CMSIS/include/core_cm4.h"