ARM GAS  C:\Users\Luis\AppData\Local\Temp\ccaYFvbx.s 			page 1


   1              		.syntax unified
   2              		.cpu cortex-m4
   3              		.fpu softvfp
   4              		.eabi_attribute 20, 1
   5              		.eabi_attribute 21, 1
   6              		.eabi_attribute 23, 3
   7              		.eabi_attribute 24, 1
   8              		.eabi_attribute 25, 1
   9              		.eabi_attribute 26, 1
  10              		.eabi_attribute 30, 6
  11              		.eabi_attribute 34, 1
  12              		.eabi_attribute 18, 4
  13              		.thumb
  14              		.file	"def.c"
  15              		.text
  16              	.Ltext0:
  17              		.cfi_sections	.debug_frame
  18              		.section	.text.lwip_htons,"ax",%progbits
  19              		.align	2
  20              		.p2align 4,,15
  21              		.global	lwip_htons
  22              		.thumb
  23              		.thumb_func
  24              		.type	lwip_htons, %function
  25              	lwip_htons:
  26              	.LFB260:
  27              		.file 1 "../../ChibiOS/ext/lwip/src/core/def.c"
  28              		.loc 1 65 0
  29              		.cfi_startproc
  30              		@ args = 0, pretend = 0, frame = 8
  31              		@ frame_needed = 1, uses_anonymous_args = 0
  32              		@ link register save eliminated.
  33 0000 80B4     		push	{r7}
  34              		.cfi_def_cfa_offset 4
  35              		.cfi_offset 7, -4
  36 0002 83B0     		sub	sp, sp, #12
  37              		.cfi_def_cfa_offset 16
  38 0004 00AF     		add	r7, sp, #0
  39              		.cfi_def_cfa_register 7
  40 0006 0346     		mov	r3, r0
  41 0008 FB80     		strh	r3, [r7, #6]	@ movhi
  42              		.loc 1 66 0
  43 000a FB88     		ldrh	r3, [r7, #6]
  44 000c 1B02     		lsls	r3, r3, #8
  45 000e 9AB2     		uxth	r2, r3
  46 0010 FB88     		ldrh	r3, [r7, #6]
  47 0012 1B0A     		lsrs	r3, r3, #8
  48 0014 9BB2     		uxth	r3, r3
  49 0016 9BB2     		uxth	r3, r3
  50 0018 1343     		orrs	r3, r3, r2
  51 001a 9BB2     		uxth	r3, r3
  52 001c 9BB2     		uxth	r3, r3
  53              		.loc 1 67 0
  54 001e 1846     		mov	r0, r3
  55 0020 0C37     		adds	r7, r7, #12
  56 0022 BD46     		mov	sp, r7
  57              		@ sp needed
ARM GAS  C:\Users\Luis\AppData\Local\Temp\ccaYFvbx.s 			page 2


  58 0024 5DF8047B 		ldr	r7, [sp], #4
  59 0028 7047     		bx	lr
  60              		.cfi_endproc
  61              	.LFE260:
  62              		.size	lwip_htons, .-lwip_htons
  63 002a 00BFAFF3 		.section	.text.lwip_ntohs,"ax",%progbits
  63      0080
  64              		.align	2
  65              		.p2align 4,,15
  66              		.global	lwip_ntohs
  67              		.thumb
  68              		.thumb_func
  69              		.type	lwip_ntohs, %function
  70              	lwip_ntohs:
  71              	.LFB261:
  72              		.loc 1 77 0
  73              		.cfi_startproc
  74              		@ args = 0, pretend = 0, frame = 8
  75              		@ frame_needed = 1, uses_anonymous_args = 0
  76 0000 80B5     		push	{r7, lr}
  77              		.cfi_def_cfa_offset 8
  78              		.cfi_offset 7, -8
  79              		.cfi_offset 14, -4
  80 0002 82B0     		sub	sp, sp, #8
  81              		.cfi_def_cfa_offset 16
  82 0004 00AF     		add	r7, sp, #0
  83              		.cfi_def_cfa_register 7
  84 0006 0346     		mov	r3, r0
  85 0008 FB80     		strh	r3, [r7, #6]	@ movhi
  86              		.loc 1 78 0
  87 000a FB88     		ldrh	r3, [r7, #6]
  88 000c 1846     		mov	r0, r3
  89 000e FFF7FEFF 		bl	lwip_htons
  90 0012 0346     		mov	r3, r0
  91              		.loc 1 79 0
  92 0014 1846     		mov	r0, r3
  93 0016 0837     		adds	r7, r7, #8
  94 0018 BD46     		mov	sp, r7
  95              		@ sp needed
  96 001a 80BD     		pop	{r7, pc}
  97              		.cfi_endproc
  98              	.LFE261:
  99              		.size	lwip_ntohs, .-lwip_ntohs
 100 001c AFF30080 		.section	.text.lwip_htonl,"ax",%progbits
 101              		.align	2
 102              		.p2align 4,,15
 103              		.global	lwip_htonl
 104              		.thumb
 105              		.thumb_func
 106              		.type	lwip_htonl, %function
 107              	lwip_htonl:
 108              	.LFB262:
 109              		.loc 1 89 0
 110              		.cfi_startproc
 111              		@ args = 0, pretend = 0, frame = 8
 112              		@ frame_needed = 1, uses_anonymous_args = 0
 113              		@ link register save eliminated.
ARM GAS  C:\Users\Luis\AppData\Local\Temp\ccaYFvbx.s 			page 3


 114 0000 80B4     		push	{r7}
 115              		.cfi_def_cfa_offset 4
 116              		.cfi_offset 7, -4
 117 0002 83B0     		sub	sp, sp, #12
 118              		.cfi_def_cfa_offset 16
 119 0004 00AF     		add	r7, sp, #0
 120              		.cfi_def_cfa_register 7
 121 0006 7860     		str	r0, [r7, #4]
 122              		.loc 1 90 0
 123 0008 7B68     		ldr	r3, [r7, #4]
 124 000a 1A06     		lsls	r2, r3, #24
 125              		.loc 1 91 0
 126 000c 7B68     		ldr	r3, [r7, #4]
 127 000e 03F47F43 		and	r3, r3, #65280
 128 0012 1B02     		lsls	r3, r3, #8
 129              		.loc 1 90 0
 130 0014 1A43     		orrs	r2, r2, r3
 131              		.loc 1 92 0
 132 0016 7B68     		ldr	r3, [r7, #4]
 133 0018 03F47F03 		and	r3, r3, #16711680
 134 001c 1B0A     		lsrs	r3, r3, #8
 135              		.loc 1 91 0
 136 001e 1A43     		orrs	r2, r2, r3
 137              		.loc 1 93 0
 138 0020 7B68     		ldr	r3, [r7, #4]
 139 0022 1B0E     		lsrs	r3, r3, #24
 140              		.loc 1 90 0
 141 0024 1343     		orrs	r3, r3, r2
 142              		.loc 1 94 0
 143 0026 1846     		mov	r0, r3
 144 0028 0C37     		adds	r7, r7, #12
 145 002a BD46     		mov	sp, r7
 146              		@ sp needed
 147 002c 5DF8047B 		ldr	r7, [sp], #4
 148 0030 7047     		bx	lr
 149              		.cfi_endproc
 150              	.LFE262:
 151              		.size	lwip_htonl, .-lwip_htonl
 152 0032 00BFAFF3 		.section	.text.lwip_ntohl,"ax",%progbits
 152      0080AFF3 
 152      0080AFF3 
 152      0080
 153              		.align	2
 154              		.p2align 4,,15
 155              		.global	lwip_ntohl
 156              		.thumb
 157              		.thumb_func
 158              		.type	lwip_ntohl, %function
 159              	lwip_ntohl:
 160              	.LFB263:
 161              		.loc 1 104 0
 162              		.cfi_startproc
 163              		@ args = 0, pretend = 0, frame = 8
 164              		@ frame_needed = 1, uses_anonymous_args = 0
 165 0000 80B5     		push	{r7, lr}
 166              		.cfi_def_cfa_offset 8
 167              		.cfi_offset 7, -8
ARM GAS  C:\Users\Luis\AppData\Local\Temp\ccaYFvbx.s 			page 4


 168              		.cfi_offset 14, -4
 169 0002 82B0     		sub	sp, sp, #8
 170              		.cfi_def_cfa_offset 16
 171 0004 00AF     		add	r7, sp, #0
 172              		.cfi_def_cfa_register 7
 173 0006 7860     		str	r0, [r7, #4]
 174              		.loc 1 105 0
 175 0008 7868     		ldr	r0, [r7, #4]
 176 000a FFF7FEFF 		bl	lwip_htonl
 177 000e 0346     		mov	r3, r0
 178              		.loc 1 106 0
 179 0010 1846     		mov	r0, r3
 180 0012 0837     		adds	r7, r7, #8
 181 0014 BD46     		mov	sp, r7
 182              		@ sp needed
 183 0016 80BD     		pop	{r7, pc}
 184              		.cfi_endproc
 185              	.LFE263:
 186              		.size	lwip_ntohl, .-lwip_ntohl
 187 0018 AFF30080 		.text
 187      AFF30080 
 188              	.Letext0:
 189              		.file 2 "c:\\emtechesdk\\gcc\\arm-none-eabi\\include\\stdint.h"
 190              		.file 3 "../../ChibiOS/os/rt/ports/ARMCMx/compilers/GCC/chtypes.h"
 191              		.file 4 "../../ChibiOS/os/rt/include/chsystypes.h"
 192              		.file 5 "../../ChibiOS/os/rt/include/chschd.h"
 193              		.file 6 "../../ChibiOS/os/rt/ports/ARMCMx/chcore.h"
 194              		.file 7 "../../ChibiOS/os/rt/ports/ARMCMx/chcore_v7m.h"
 195              		.file 8 "../../ChibiOS/os/rt/include/chdebug.h"
 196              		.file 9 "../../ChibiOS/os/rt/include/chtm.h"
 197              		.file 10 "../../ChibiOS/os/rt/include/chstats.h"
 198              		.file 11 "../../ChibiOS/os/rt/include/chsem.h"
 199              		.file 12 "../../ChibiOS/os/rt/include/chmtx.h"
 200              		.file 13 "../../ChibiOS/os/various/lwip_bindings/arch/cc.h"
 201              		.file 14 "../../ChibiOS/os/ext/CMSIS/include/core_cm4.h"
 202              		.section	.debug_info,"",%progbits
 203              	.Ldebug_info0:
 204 0000 63080000 		.4byte	0x863
 205 0004 0400     		.2byte	0x4
 206 0006 00000000 		.4byte	.Ldebug_abbrev0
 207 000a 04       		.byte	0x4
 208 000b 01       		.uleb128 0x1
 209 000c 9F040000 		.4byte	.LASF134
 210 0010 01       		.byte	0x1
 211 0011 76050000 		.4byte	.LASF135
 212 0015 8A010000 		.4byte	.LASF136
 213 0019 00000000 		.4byte	.Ldebug_ranges0+0
 214 001d 00000000 		.4byte	0
 215 0021 00000000 		.4byte	.Ldebug_line0
 216 0025 02       		.uleb128 0x2
 217 0026 04       		.byte	0x4
 218 0027 05       		.byte	0x5
 219 0028 696E7400 		.ascii	"int\000"
 220 002c 03       		.uleb128 0x3
 221 002d 04       		.byte	0x4
 222 002e 07       		.byte	0x7
 223 002f 0E020000 		.4byte	.LASF0
ARM GAS  C:\Users\Luis\AppData\Local\Temp\ccaYFvbx.s 			page 5


 224 0033 03       		.uleb128 0x3
 225 0034 01       		.byte	0x1
 226 0035 06       		.byte	0x6
 227 0036 0B010000 		.4byte	.LASF1
 228 003a 04       		.uleb128 0x4
 229 003b 1F060000 		.4byte	.LASF4
 230 003f 02       		.byte	0x2
 231 0040 2A       		.byte	0x2a
 232 0041 45000000 		.4byte	0x45
 233 0045 03       		.uleb128 0x3
 234 0046 01       		.byte	0x1
 235 0047 08       		.byte	0x8
 236 0048 DF030000 		.4byte	.LASF2
 237 004c 03       		.uleb128 0x3
 238 004d 02       		.byte	0x2
 239 004e 05       		.byte	0x5
 240 004f F7030000 		.4byte	.LASF3
 241 0053 04       		.uleb128 0x4
 242 0054 50010000 		.4byte	.LASF5
 243 0058 02       		.byte	0x2
 244 0059 36       		.byte	0x36
 245 005a 5E000000 		.4byte	0x5e
 246 005e 03       		.uleb128 0x3
 247 005f 02       		.byte	0x2
 248 0060 07       		.byte	0x7
 249 0061 4E020000 		.4byte	.LASF6
 250 0065 04       		.uleb128 0x4
 251 0066 D7030000 		.4byte	.LASF7
 252 006a 02       		.byte	0x2
 253 006b 4F       		.byte	0x4f
 254 006c 70000000 		.4byte	0x70
 255 0070 03       		.uleb128 0x3
 256 0071 04       		.byte	0x4
 257 0072 05       		.byte	0x5
 258 0073 38010000 		.4byte	.LASF8
 259 0077 04       		.uleb128 0x4
 260 0078 57040000 		.4byte	.LASF9
 261 007c 02       		.byte	0x2
 262 007d 50       		.byte	0x50
 263 007e 82000000 		.4byte	0x82
 264 0082 03       		.uleb128 0x3
 265 0083 04       		.byte	0x4
 266 0084 07       		.byte	0x7
 267 0085 88040000 		.4byte	.LASF10
 268 0089 03       		.uleb128 0x3
 269 008a 08       		.byte	0x8
 270 008b 05       		.byte	0x5
 271 008c FD000000 		.4byte	.LASF11
 272 0090 04       		.uleb128 0x4
 273 0091 29000000 		.4byte	.LASF12
 274 0095 02       		.byte	0x2
 275 0096 78       		.byte	0x78
 276 0097 9B000000 		.4byte	0x9b
 277 009b 03       		.uleb128 0x3
 278 009c 08       		.byte	0x8
 279 009d 07       		.byte	0x7
 280 009e 84000000 		.4byte	.LASF13
ARM GAS  C:\Users\Luis\AppData\Local\Temp\ccaYFvbx.s 			page 6


 281 00a2 05       		.uleb128 0x5
 282 00a3 65000000 		.4byte	0x65
 283 00a7 04       		.uleb128 0x4
 284 00a8 D3050000 		.4byte	.LASF14
 285 00ac 03       		.byte	0x3
 286 00ad 45       		.byte	0x45
 287 00ae 77000000 		.4byte	0x77
 288 00b2 04       		.uleb128 0x4
 289 00b3 ED000000 		.4byte	.LASF15
 290 00b7 03       		.byte	0x3
 291 00b8 46       		.byte	0x46
 292 00b9 90000000 		.4byte	0x90
 293 00bd 04       		.uleb128 0x4
 294 00be A3020000 		.4byte	.LASF16
 295 00c2 03       		.byte	0x3
 296 00c3 48       		.byte	0x48
 297 00c4 3A000000 		.4byte	0x3a
 298 00c8 04       		.uleb128 0x4
 299 00c9 41010000 		.4byte	.LASF17
 300 00cd 03       		.byte	0x3
 301 00ce 49       		.byte	0x49
 302 00cf 3A000000 		.4byte	0x3a
 303 00d3 04       		.uleb128 0x4
 304 00d4 97030000 		.4byte	.LASF18
 305 00d8 03       		.byte	0x3
 306 00d9 4A       		.byte	0x4a
 307 00da 3A000000 		.4byte	0x3a
 308 00de 04       		.uleb128 0x4
 309 00df C0030000 		.4byte	.LASF19
 310 00e3 03       		.byte	0x3
 311 00e4 4C       		.byte	0x4c
 312 00e5 77000000 		.4byte	0x77
 313 00e9 04       		.uleb128 0x4
 314 00ea 7A020000 		.4byte	.LASF20
 315 00ee 03       		.byte	0x3
 316 00ef 4D       		.byte	0x4d
 317 00f0 65000000 		.4byte	0x65
 318 00f4 04       		.uleb128 0x4
 319 00f5 CF020000 		.4byte	.LASF21
 320 00f9 03       		.byte	0x3
 321 00fa 4F       		.byte	0x4f
 322 00fb 77000000 		.4byte	0x77
 323 00ff 04       		.uleb128 0x4
 324 0100 FD010000 		.4byte	.LASF22
 325 0104 03       		.byte	0x3
 326 0105 51       		.byte	0x51
 327 0106 65000000 		.4byte	0x65
 328 010a 04       		.uleb128 0x4
 329 010b 85020000 		.4byte	.LASF23
 330 010f 03       		.byte	0x3
 331 0110 52       		.byte	0x52
 332 0111 77000000 		.4byte	0x77
 333 0115 04       		.uleb128 0x4
 334 0116 9C050000 		.4byte	.LASF24
 335 011a 04       		.byte	0x4
 336 011b 33       		.byte	0x33
 337 011c 77000000 		.4byte	0x77
ARM GAS  C:\Users\Luis\AppData\Local\Temp\ccaYFvbx.s 			page 7


 338 0120 04       		.uleb128 0x4
 339 0121 10060000 		.4byte	.LASF25
 340 0125 04       		.byte	0x4
 341 0126 3F       		.byte	0x3f
 342 0127 2B010000 		.4byte	0x12b
 343 012b 06       		.uleb128 0x6
 344 012c 70020000 		.4byte	.LASF48
 345 0130 68       		.byte	0x68
 346 0131 05       		.byte	0x5
 347 0132 C2       		.byte	0xc2
 348 0133 3E020000 		.4byte	0x23e
 349 0137 07       		.uleb128 0x7
 350 0138 17040000 		.4byte	.LASF26
 351 013c 05       		.byte	0x5
 352 013d C3       		.byte	0xc3
 353 013e 49020000 		.4byte	0x249
 354 0142 00       		.byte	0
 355 0143 07       		.uleb128 0x7
 356 0144 B9030000 		.4byte	.LASF27
 357 0148 05       		.byte	0x5
 358 0149 C5       		.byte	0xc5
 359 014a 49020000 		.4byte	0x249
 360 014e 04       		.byte	0x4
 361 014f 07       		.uleb128 0x7
 362 0150 F6000000 		.4byte	.LASF28
 363 0154 05       		.byte	0x5
 364 0155 C7       		.byte	0xc7
 365 0156 DE000000 		.4byte	0xde
 366 015a 08       		.byte	0x8
 367 015b 07       		.uleb128 0x7
 368 015c 74060000 		.4byte	.LASF29
 369 0160 05       		.byte	0x5
 370 0161 C8       		.byte	0xc8
 371 0162 B2040000 		.4byte	0x4b2
 372 0166 0C       		.byte	0xc
 373 0167 07       		.uleb128 0x7
 374 0168 59010000 		.4byte	.LASF30
 375 016c 05       		.byte	0x5
 376 016d CA       		.byte	0xca
 377 016e 49020000 		.4byte	0x249
 378 0172 10       		.byte	0x10
 379 0173 07       		.uleb128 0x7
 380 0174 54030000 		.4byte	.LASF31
 381 0178 05       		.byte	0x5
 382 0179 CB       		.byte	0xcb
 383 017a 49020000 		.4byte	0x249
 384 017e 14       		.byte	0x14
 385 017f 07       		.uleb128 0x7
 386 0180 2E060000 		.4byte	.LASF32
 387 0184 05       		.byte	0x5
 388 0185 D2       		.byte	0xd2
 389 0186 56070000 		.4byte	0x756
 390 018a 18       		.byte	0x18
 391 018b 07       		.uleb128 0x7
 392 018c 03020000 		.4byte	.LASF33
 393 0190 05       		.byte	0x5
 394 0191 D8       		.byte	0xd8
ARM GAS  C:\Users\Luis\AppData\Local\Temp\ccaYFvbx.s 			page 8


 395 0192 68070000 		.4byte	0x768
 396 0196 1C       		.byte	0x1c
 397 0197 07       		.uleb128 0x7
 398 0198 01040000 		.4byte	.LASF34
 399 019c 05       		.byte	0x5
 400 019d DD       		.byte	0xdd
 401 019e C8000000 		.4byte	0xc8
 402 01a2 20       		.byte	0x20
 403 01a3 07       		.uleb128 0x7
 404 01a4 1E040000 		.4byte	.LASF35
 405 01a8 05       		.byte	0x5
 406 01a9 E1       		.byte	0xe1
 407 01aa BD000000 		.4byte	0xbd
 408 01ae 21       		.byte	0x21
 409 01af 07       		.uleb128 0x7
 410 01b0 01060000 		.4byte	.LASF36
 411 01b4 05       		.byte	0x5
 412 01b5 E6       		.byte	0xe6
 413 01b6 D3000000 		.4byte	0xd3
 414 01ba 22       		.byte	0x22
 415 01bb 08       		.uleb128 0x8
 416 01bc 705F7500 		.ascii	"p_u\000"
 417 01c0 05       		.byte	0x5
 418 01c1 3101     		.2byte	0x131
 419 01c3 91060000 		.4byte	0x691
 420 01c7 24       		.byte	0x24
 421 01c8 09       		.uleb128 0x9
 422 01c9 FC020000 		.4byte	.LASF37
 423 01cd 05       		.byte	0x5
 424 01ce 3601     		.2byte	0x136
 425 01d0 4F020000 		.4byte	0x24f
 426 01d4 28       		.byte	0x28
 427 01d5 09       		.uleb128 0x9
 428 01d6 2A020000 		.4byte	.LASF38
 429 01da 05       		.byte	0x5
 430 01db 3C01     		.2byte	0x13c
 431 01dd 73020000 		.4byte	0x273
 432 01e1 2C       		.byte	0x2c
 433 01e2 09       		.uleb128 0x9
 434 01e3 51060000 		.4byte	.LASF39
 435 01e7 05       		.byte	0x5
 436 01e8 4001     		.2byte	0x140
 437 01ea E9000000 		.4byte	0xe9
 438 01ee 34       		.byte	0x34
 439 01ef 09       		.uleb128 0x9
 440 01f0 4C040000 		.4byte	.LASF40
 441 01f4 05       		.byte	0x5
 442 01f5 4601     		.2byte	0x146
 443 01f7 F4000000 		.4byte	0xf4
 444 01fb 38       		.byte	0x38
 445 01fc 09       		.uleb128 0x9
 446 01fd ED030000 		.4byte	.LASF41
 447 0201 05       		.byte	0x5
 448 0202 4D01     		.2byte	0x14d
 449 0204 50070000 		.4byte	0x750
 450 0208 3C       		.byte	0x3c
 451 0209 09       		.uleb128 0x9
ARM GAS  C:\Users\Luis\AppData\Local\Temp\ccaYFvbx.s 			page 9


 452 020a A6050000 		.4byte	.LASF42
 453 020e 05       		.byte	0x5
 454 020f 5101     		.2byte	0x151
 455 0211 DE000000 		.4byte	0xde
 456 0215 40       		.byte	0x40
 457 0216 09       		.uleb128 0x9
 458 0217 17010000 		.4byte	.LASF43
 459 021b 05       		.byte	0x5
 460 021c 5801     		.2byte	0x158
 461 021e 26030000 		.4byte	0x326
 462 0222 44       		.byte	0x44
 463 0223 09       		.uleb128 0x9
 464 0224 26040000 		.4byte	.LASF44
 465 0228 05       		.byte	0x5
 466 0229 5E01     		.2byte	0x15e
 467 022b 42060000 		.4byte	0x642
 468 022f 48       		.byte	0x48
 469 0230 09       		.uleb128 0x9
 470 0231 3B020000 		.4byte	.LASF45
 471 0235 05       		.byte	0x5
 472 0236 6201     		.2byte	0x162
 473 0238 26030000 		.4byte	0x326
 474 023c 60       		.byte	0x60
 475 023d 00       		.byte	0
 476 023e 04       		.uleb128 0x4
 477 023f 0F030000 		.4byte	.LASF46
 478 0243 04       		.byte	0x4
 479 0244 44       		.byte	0x44
 480 0245 49020000 		.4byte	0x249
 481 0249 0A       		.uleb128 0xa
 482 024a 04       		.byte	0x4
 483 024b 20010000 		.4byte	0x120
 484 024f 04       		.uleb128 0x4
 485 0250 35060000 		.4byte	.LASF47
 486 0254 04       		.byte	0x4
 487 0255 49       		.byte	0x49
 488 0256 5A020000 		.4byte	0x25a
 489 025a 06       		.uleb128 0x6
 490 025b 78040000 		.4byte	.LASF49
 491 025f 04       		.byte	0x4
 492 0260 05       		.byte	0x5
 493 0261 B0       		.byte	0xb0
 494 0262 73020000 		.4byte	0x273
 495 0266 07       		.uleb128 0x7
 496 0267 17040000 		.4byte	.LASF26
 497 026b 05       		.byte	0x5
 498 026c B1       		.byte	0xb1
 499 026d 49020000 		.4byte	0x249
 500 0271 00       		.byte	0
 501 0272 00       		.byte	0
 502 0273 04       		.uleb128 0x4
 503 0274 E8050000 		.4byte	.LASF50
 504 0278 04       		.byte	0x4
 505 0279 50       		.byte	0x50
 506 027a 7E020000 		.4byte	0x27e
 507 027e 06       		.uleb128 0x6
 508 027f 4B000000 		.4byte	.LASF51
ARM GAS  C:\Users\Luis\AppData\Local\Temp\ccaYFvbx.s 			page 10


 509 0283 08       		.byte	0x8
 510 0284 05       		.byte	0x5
 511 0285 B7       		.byte	0xb7
 512 0286 A3020000 		.4byte	0x2a3
 513 028a 07       		.uleb128 0x7
 514 028b 17040000 		.4byte	.LASF26
 515 028f 05       		.byte	0x5
 516 0290 B8       		.byte	0xb8
 517 0291 49020000 		.4byte	0x249
 518 0295 00       		.byte	0
 519 0296 07       		.uleb128 0x7
 520 0297 B9030000 		.4byte	.LASF27
 521 029b 05       		.byte	0x5
 522 029c B9       		.byte	0xb9
 523 029d 49020000 		.4byte	0x249
 524 02a1 04       		.byte	0x4
 525 02a2 00       		.byte	0
 526 02a3 04       		.uleb128 0x4
 527 02a4 07000000 		.4byte	.LASF52
 528 02a8 04       		.byte	0x4
 529 02a9 57       		.byte	0x57
 530 02aa AE020000 		.4byte	0x2ae
 531 02ae 0B       		.uleb128 0xb
 532 02af C1020000 		.4byte	.LASF53
 533 02b3 1C       		.byte	0x1c
 534 02b4 05       		.byte	0x5
 535 02b5 9001     		.2byte	0x190
 536 02b7 0A030000 		.4byte	0x30a
 537 02bb 09       		.uleb128 0x9
 538 02bc 67040000 		.4byte	.LASF54
 539 02c0 05       		.byte	0x5
 540 02c1 9101     		.2byte	0x191
 541 02c3 73020000 		.4byte	0x273
 542 02c7 00       		.byte	0
 543 02c8 09       		.uleb128 0x9
 544 02c9 09040000 		.4byte	.LASF55
 545 02cd 05       		.byte	0x5
 546 02ce 9201     		.2byte	0x192
 547 02d0 DE000000 		.4byte	0xde
 548 02d4 08       		.byte	0x8
 549 02d5 09       		.uleb128 0x9
 550 02d6 5C030000 		.4byte	.LASF56
 551 02da 05       		.byte	0x5
 552 02db 9401     		.2byte	0x194
 553 02dd B2040000 		.4byte	0x4b2
 554 02e1 0C       		.byte	0xc
 555 02e2 09       		.uleb128 0x9
 556 02e3 71010000 		.4byte	.LASF57
 557 02e7 05       		.byte	0x5
 558 02e8 9701     		.2byte	0x197
 559 02ea 49020000 		.4byte	0x249
 560 02ee 10       		.byte	0x10
 561 02ef 09       		.uleb128 0x9
 562 02f0 84030000 		.4byte	.LASF58
 563 02f4 05       		.byte	0x5
 564 02f5 9801     		.2byte	0x198
 565 02f7 49020000 		.4byte	0x249
ARM GAS  C:\Users\Luis\AppData\Local\Temp\ccaYFvbx.s 			page 11


 566 02fb 14       		.byte	0x14
 567 02fc 09       		.uleb128 0x9
 568 02fd 7A030000 		.4byte	.LASF59
 569 0301 05       		.byte	0x5
 570 0302 9B01     		.2byte	0x19b
 571 0304 49020000 		.4byte	0x249
 572 0308 18       		.byte	0x18
 573 0309 00       		.byte	0
 574 030a 04       		.uleb128 0x4
 575 030b B1050000 		.4byte	.LASF60
 576 030f 04       		.byte	0x4
 577 0310 5C       		.byte	0x5c
 578 0311 15030000 		.4byte	0x315
 579 0315 0A       		.uleb128 0xa
 580 0316 04       		.byte	0x4
 581 0317 1B030000 		.4byte	0x31b
 582 031b 0C       		.uleb128 0xc
 583 031c 26030000 		.4byte	0x326
 584 0320 0D       		.uleb128 0xd
 585 0321 26030000 		.4byte	0x326
 586 0325 00       		.byte	0
 587 0326 0E       		.uleb128 0xe
 588 0327 04       		.byte	0x4
 589 0328 04       		.uleb128 0x4
 590 0329 A9030000 		.4byte	.LASF61
 591 032d 04       		.byte	0x4
 592 032e 61       		.byte	0x61
 593 032f 33030000 		.4byte	0x333
 594 0333 0B       		.uleb128 0xb
 595 0334 2E040000 		.4byte	.LASF62
 596 0338 14       		.byte	0x14
 597 0339 05       		.byte	0x5
 598 033a 6B01     		.2byte	0x16b
 599 033c 82030000 		.4byte	0x382
 600 0340 09       		.uleb128 0x9
 601 0341 1B020000 		.4byte	.LASF63
 602 0345 05       		.byte	0x5
 603 0346 6C01     		.2byte	0x16c
 604 0348 6E070000 		.4byte	0x76e
 605 034c 00       		.byte	0
 606 034d 09       		.uleb128 0x9
 607 034e 82010000 		.4byte	.LASF64
 608 0352 05       		.byte	0x5
 609 0353 6D01     		.2byte	0x16d
 610 0355 6E070000 		.4byte	0x76e
 611 0359 04       		.byte	0x4
 612 035a 09       		.uleb128 0x9
 613 035b 6F040000 		.4byte	.LASF65
 614 035f 05       		.byte	0x5
 615 0360 6E01     		.2byte	0x16e
 616 0362 15010000 		.4byte	0x115
 617 0366 08       		.byte	0x8
 618 0367 09       		.uleb128 0x9
 619 0368 7A060000 		.4byte	.LASF66
 620 036c 05       		.byte	0x5
 621 036d 6F01     		.2byte	0x16f
 622 036f 0A030000 		.4byte	0x30a
ARM GAS  C:\Users\Luis\AppData\Local\Temp\ccaYFvbx.s 			page 12


 623 0373 0C       		.byte	0xc
 624 0374 09       		.uleb128 0x9
 625 0375 DB050000 		.4byte	.LASF67
 626 0379 05       		.byte	0x5
 627 037a 7101     		.2byte	0x171
 628 037c 26030000 		.4byte	0x326
 629 0380 10       		.byte	0x10
 630 0381 00       		.byte	0
 631 0382 04       		.uleb128 0x4
 632 0383 CA000000 		.4byte	.LASF68
 633 0387 04       		.byte	0x4
 634 0388 66       		.byte	0x66
 635 0389 8D030000 		.4byte	0x38d
 636 038d 0B       		.uleb128 0xb
 637 038e 22030000 		.4byte	.LASF69
 638 0392 10       		.byte	0x10
 639 0393 05       		.byte	0x5
 640 0394 7B01     		.2byte	0x17b
 641 0396 CF030000 		.4byte	0x3cf
 642 039a 09       		.uleb128 0x9
 643 039b 1B020000 		.4byte	.LASF63
 644 039f 05       		.byte	0x5
 645 03a0 7C01     		.2byte	0x17c
 646 03a2 6E070000 		.4byte	0x76e
 647 03a6 00       		.byte	0
 648 03a7 09       		.uleb128 0x9
 649 03a8 82010000 		.4byte	.LASF64
 650 03ac 05       		.byte	0x5
 651 03ad 7E01     		.2byte	0x17e
 652 03af 6E070000 		.4byte	0x76e
 653 03b3 04       		.byte	0x4
 654 03b4 09       		.uleb128 0x9
 655 03b5 6F040000 		.4byte	.LASF65
 656 03b9 05       		.byte	0x5
 657 03ba 8001     		.2byte	0x180
 658 03bc 15010000 		.4byte	0x115
 659 03c0 08       		.byte	0x8
 660 03c1 09       		.uleb128 0x9
 661 03c2 48030000 		.4byte	.LASF70
 662 03c6 05       		.byte	0x5
 663 03c7 8801     		.2byte	0x188
 664 03c9 15010000 		.4byte	0x115
 665 03cd 0C       		.byte	0xc
 666 03ce 00       		.byte	0
 667 03cf 04       		.uleb128 0x4
 668 03d0 5C000000 		.4byte	.LASF71
 669 03d4 04       		.byte	0x4
 670 03d5 6B       		.byte	0x6b
 671 03d6 DA030000 		.4byte	0x3da
 672 03da 0F       		.uleb128 0xf
 673 03db CD010000 		.4byte	.LASF72
 674 03df 1404     		.2byte	0x414
 675 03e1 05       		.byte	0x5
 676 03e2 A201     		.2byte	0x1a2
 677 03e4 1D040000 		.4byte	0x41d
 678 03e8 09       		.uleb128 0x9
 679 03e9 BA050000 		.4byte	.LASF73
ARM GAS  C:\Users\Luis\AppData\Local\Temp\ccaYFvbx.s 			page 13


 680 03ed 05       		.byte	0x5
 681 03ee AA01     		.2byte	0x1aa
 682 03f0 74070000 		.4byte	0x774
 683 03f4 00       		.byte	0
 684 03f5 09       		.uleb128 0x9
 685 03f6 08060000 		.4byte	.LASF74
 686 03fa 05       		.byte	0x5
 687 03fb AF01     		.2byte	0x1af
 688 03fd FF000000 		.4byte	0xff
 689 0401 04       		.byte	0x4
 690 0402 09       		.uleb128 0x9
 691 0403 E5010000 		.4byte	.LASF75
 692 0407 05       		.byte	0x5
 693 0408 B301     		.2byte	0x1b3
 694 040a FF000000 		.4byte	0xff
 695 040e 08       		.byte	0x8
 696 040f 09       		.uleb128 0x9
 697 0410 44060000 		.4byte	.LASF76
 698 0414 05       		.byte	0x5
 699 0415 B901     		.2byte	0x1b9
 700 0417 D4050000 		.4byte	0x5d4
 701 041b 0C       		.byte	0xc
 702 041c 00       		.byte	0
 703 041d 04       		.uleb128 0x4
 704 041e 8C020000 		.4byte	.LASF77
 705 0422 04       		.byte	0x4
 706 0423 70       		.byte	0x70
 707 0424 28040000 		.4byte	0x428
 708 0428 0F       		.uleb128 0xf
 709 0429 2E010000 		.4byte	.LASF78
 710 042d E805     		.2byte	0x5e8
 711 042f 05       		.byte	0x5
 712 0430 C201     		.2byte	0x1c2
 713 0432 95040000 		.4byte	0x495
 714 0436 09       		.uleb128 0x9
 715 0437 19060000 		.4byte	.LASF79
 716 043b 05       		.byte	0x5
 717 043c C601     		.2byte	0x1c6
 718 043e A3020000 		.4byte	0x2a3
 719 0442 00       		.byte	0
 720 0443 09       		.uleb128 0x9
 721 0444 27010000 		.4byte	.LASF80
 722 0448 05       		.byte	0x5
 723 0449 CA01     		.2byte	0x1ca
 724 044b 82030000 		.4byte	0x382
 725 044f 1C       		.byte	0x1c
 726 0450 08       		.uleb128 0x8
 727 0451 64626700 		.ascii	"dbg\000"
 728 0455 05       		.byte	0x5
 729 0456 CE01     		.2byte	0x1ce
 730 0458 CF030000 		.4byte	0x3cf
 731 045c 2C       		.byte	0x2c
 732 045d 10       		.uleb128 0x10
 733 045e BF000000 		.4byte	.LASF81
 734 0462 05       		.byte	0x5
 735 0463 D201     		.2byte	0x1d2
 736 0465 20010000 		.4byte	0x120
ARM GAS  C:\Users\Luis\AppData\Local\Temp\ccaYFvbx.s 			page 14


 737 0469 4004     		.2byte	0x440
 738 046b 11       		.uleb128 0x11
 739 046c 746D00   		.ascii	"tm\000"
 740 046f 05       		.byte	0x5
 741 0470 D701     		.2byte	0x1d7
 742 0472 F4050000 		.4byte	0x5f4
 743 0476 A804     		.2byte	0x4a8
 744 0478 10       		.uleb128 0x10
 745 0479 32000000 		.4byte	.LASF82
 746 047d 05       		.byte	0x5
 747 047e DD01     		.2byte	0x1dd
 748 0480 86060000 		.4byte	0x686
 749 0484 B004     		.2byte	0x4b0
 750 0486 10       		.uleb128 0x10
 751 0487 EE010000 		.4byte	.LASF83
 752 048b 05       		.byte	0x5
 753 048c E301     		.2byte	0x1e3
 754 048e 79070000 		.4byte	0x779
 755 0492 E804     		.2byte	0x4e8
 756 0494 00       		.byte	0
 757 0495 03       		.uleb128 0x3
 758 0496 04       		.byte	0x4
 759 0497 07       		.byte	0x7
 760 0498 06030000 		.4byte	.LASF84
 761 049c 04       		.uleb128 0x4
 762 049d 79010000 		.4byte	.LASF85
 763 04a1 06       		.byte	0x6
 764 04a2 65       		.byte	0x65
 765 04a3 26030000 		.4byte	0x326
 766 04a7 04       		.uleb128 0x4
 767 04a8 F1020000 		.4byte	.LASF86
 768 04ac 06       		.byte	0x6
 769 04ad 6D       		.byte	0x6d
 770 04ae 90000000 		.4byte	0x90
 771 04b2 06       		.uleb128 0x6
 772 04b3 CB050000 		.4byte	.LASF87
 773 04b7 04       		.byte	0x4
 774 04b8 06       		.byte	0x6
 775 04b9 89       		.byte	0x89
 776 04ba CB040000 		.4byte	0x4cb
 777 04be 12       		.uleb128 0x12
 778 04bf 72313300 		.ascii	"r13\000"
 779 04c3 06       		.byte	0x6
 780 04c4 8A       		.byte	0x8a
 781 04c5 46050000 		.4byte	0x546
 782 04c9 00       		.byte	0
 783 04ca 00       		.byte	0
 784 04cb 06       		.uleb128 0x6
 785 04cc 3F000000 		.4byte	.LASF88
 786 04d0 24       		.byte	0x24
 787 04d1 07       		.byte	0x7
 788 04d2 F4       		.byte	0xf4
 789 04d3 46050000 		.4byte	0x546
 790 04d7 08       		.uleb128 0x8
 791 04d8 723400   		.ascii	"r4\000"
 792 04db 07       		.byte	0x7
 793 04dc 0701     		.2byte	0x107
ARM GAS  C:\Users\Luis\AppData\Local\Temp\ccaYFvbx.s 			page 15


 794 04de 9C040000 		.4byte	0x49c
 795 04e2 00       		.byte	0
 796 04e3 08       		.uleb128 0x8
 797 04e4 723500   		.ascii	"r5\000"
 798 04e7 07       		.byte	0x7
 799 04e8 0801     		.2byte	0x108
 800 04ea 9C040000 		.4byte	0x49c
 801 04ee 04       		.byte	0x4
 802 04ef 08       		.uleb128 0x8
 803 04f0 723600   		.ascii	"r6\000"
 804 04f3 07       		.byte	0x7
 805 04f4 0901     		.2byte	0x109
 806 04f6 9C040000 		.4byte	0x49c
 807 04fa 08       		.byte	0x8
 808 04fb 08       		.uleb128 0x8
 809 04fc 723700   		.ascii	"r7\000"
 810 04ff 07       		.byte	0x7
 811 0500 0A01     		.2byte	0x10a
 812 0502 9C040000 		.4byte	0x49c
 813 0506 0C       		.byte	0xc
 814 0507 08       		.uleb128 0x8
 815 0508 723800   		.ascii	"r8\000"
 816 050b 07       		.byte	0x7
 817 050c 0B01     		.2byte	0x10b
 818 050e 9C040000 		.4byte	0x49c
 819 0512 10       		.byte	0x10
 820 0513 08       		.uleb128 0x8
 821 0514 723900   		.ascii	"r9\000"
 822 0517 07       		.byte	0x7
 823 0518 0C01     		.2byte	0x10c
 824 051a 9C040000 		.4byte	0x49c
 825 051e 14       		.byte	0x14
 826 051f 08       		.uleb128 0x8
 827 0520 72313000 		.ascii	"r10\000"
 828 0524 07       		.byte	0x7
 829 0525 0D01     		.2byte	0x10d
 830 0527 9C040000 		.4byte	0x49c
 831 052b 18       		.byte	0x18
 832 052c 08       		.uleb128 0x8
 833 052d 72313100 		.ascii	"r11\000"
 834 0531 07       		.byte	0x7
 835 0532 0E01     		.2byte	0x10e
 836 0534 9C040000 		.4byte	0x49c
 837 0538 1C       		.byte	0x1c
 838 0539 08       		.uleb128 0x8
 839 053a 6C7200   		.ascii	"lr\000"
 840 053d 07       		.byte	0x7
 841 053e 0F01     		.2byte	0x10f
 842 0540 9C040000 		.4byte	0x49c
 843 0544 20       		.byte	0x20
 844 0545 00       		.byte	0
 845 0546 0A       		.uleb128 0xa
 846 0547 04       		.byte	0x4
 847 0548 CB040000 		.4byte	0x4cb
 848 054c 13       		.uleb128 0x13
 849 054d 10       		.byte	0x10
 850 054e 08       		.byte	0x8
ARM GAS  C:\Users\Luis\AppData\Local\Temp\ccaYFvbx.s 			page 16


 851 054f 51       		.byte	0x51
 852 0550 85050000 		.4byte	0x585
 853 0554 07       		.uleb128 0x7
 854 0555 14000000 		.4byte	.LASF89
 855 0559 08       		.byte	0x8
 856 055a 55       		.byte	0x55
 857 055b 15010000 		.4byte	0x115
 858 055f 00       		.byte	0
 859 0560 07       		.uleb128 0x7
 860 0561 4A010000 		.4byte	.LASF90
 861 0565 08       		.byte	0x8
 862 0566 59       		.byte	0x59
 863 0567 49020000 		.4byte	0x249
 864 056b 04       		.byte	0x4
 865 056c 07       		.uleb128 0x7
 866 056d 6A060000 		.4byte	.LASF91
 867 0571 08       		.byte	0x8
 868 0572 5D       		.byte	0x5d
 869 0573 26030000 		.4byte	0x326
 870 0577 08       		.byte	0x8
 871 0578 07       		.uleb128 0x7
 872 0579 AD000000 		.4byte	.LASF92
 873 057d 08       		.byte	0x8
 874 057e 61       		.byte	0x61
 875 057f 3A000000 		.4byte	0x3a
 876 0583 0C       		.byte	0xc
 877 0584 00       		.byte	0
 878 0585 04       		.uleb128 0x4
 879 0586 39030000 		.4byte	.LASF93
 880 058a 08       		.byte	0x8
 881 058b 62       		.byte	0x62
 882 058c 4C050000 		.4byte	0x54c
 883 0590 14       		.uleb128 0x14
 884 0591 0804     		.2byte	0x408
 885 0593 08       		.byte	0x8
 886 0594 67       		.byte	0x67
 887 0595 BE050000 		.4byte	0x5be
 888 0599 07       		.uleb128 0x7
 889 059a 69010000 		.4byte	.LASF94
 890 059e 08       		.byte	0x8
 891 059f 6B       		.byte	0x6b
 892 05a0 2C000000 		.4byte	0x2c
 893 05a4 00       		.byte	0
 894 05a5 07       		.uleb128 0x7
 895 05a6 00000000 		.4byte	.LASF95
 896 05aa 08       		.byte	0x8
 897 05ab 6F       		.byte	0x6f
 898 05ac BE050000 		.4byte	0x5be
 899 05b0 04       		.byte	0x4
 900 05b1 07       		.uleb128 0x7
 901 05b2 9F030000 		.4byte	.LASF96
 902 05b6 08       		.byte	0x8
 903 05b7 73       		.byte	0x73
 904 05b8 C4050000 		.4byte	0x5c4
 905 05bc 08       		.byte	0x8
 906 05bd 00       		.byte	0
 907 05be 0A       		.uleb128 0xa
ARM GAS  C:\Users\Luis\AppData\Local\Temp\ccaYFvbx.s 			page 17


 908 05bf 04       		.byte	0x4
 909 05c0 85050000 		.4byte	0x585
 910 05c4 15       		.uleb128 0x15
 911 05c5 85050000 		.4byte	0x585
 912 05c9 D4050000 		.4byte	0x5d4
 913 05cd 16       		.uleb128 0x16
 914 05ce 95040000 		.4byte	0x495
 915 05d2 3F       		.byte	0x3f
 916 05d3 00       		.byte	0
 917 05d4 04       		.uleb128 0x4
 918 05d5 9B000000 		.4byte	.LASF97
 919 05d9 08       		.byte	0x8
 920 05da 74       		.byte	0x74
 921 05db 90050000 		.4byte	0x590
 922 05df 13       		.uleb128 0x13
 923 05e0 04       		.byte	0x4
 924 05e1 09       		.byte	0x9
 925 05e2 38       		.byte	0x38
 926 05e3 F4050000 		.4byte	0x5f4
 927 05e7 07       		.uleb128 0x7
 928 05e8 C4050000 		.4byte	.LASF98
 929 05ec 09       		.byte	0x9
 930 05ed 3C       		.byte	0x3c
 931 05ee A7000000 		.4byte	0xa7
 932 05f2 00       		.byte	0
 933 05f3 00       		.byte	0
 934 05f4 04       		.uleb128 0x4
 935 05f5 62030000 		.4byte	.LASF99
 936 05f9 09       		.byte	0x9
 937 05fa 3D       		.byte	0x3d
 938 05fb DF050000 		.4byte	0x5df
 939 05ff 13       		.uleb128 0x13
 940 0600 18       		.byte	0x18
 941 0601 09       		.byte	0x9
 942 0602 48       		.byte	0x48
 943 0603 42060000 		.4byte	0x642
 944 0607 07       		.uleb128 0x7
 945 0608 71050000 		.4byte	.LASF100
 946 060c 09       		.byte	0x9
 947 060d 49       		.byte	0x49
 948 060e A7000000 		.4byte	0xa7
 949 0612 00       		.byte	0
 950 0613 07       		.uleb128 0x7
 951 0614 6B000000 		.4byte	.LASF101
 952 0618 09       		.byte	0x9
 953 0619 4A       		.byte	0x4a
 954 061a A7000000 		.4byte	0xa7
 955 061e 04       		.byte	0x4
 956 061f 07       		.uleb128 0x7
 957 0620 80020000 		.4byte	.LASF102
 958 0624 09       		.byte	0x9
 959 0625 4B       		.byte	0x4b
 960 0626 A7000000 		.4byte	0xa7
 961 062a 08       		.byte	0x8
 962 062b 12       		.uleb128 0x12
 963 062c 6E00     		.ascii	"n\000"
 964 062e 09       		.byte	0x9
ARM GAS  C:\Users\Luis\AppData\Local\Temp\ccaYFvbx.s 			page 18


 965 062f 4C       		.byte	0x4c
 966 0630 0A010000 		.4byte	0x10a
 967 0634 0C       		.byte	0xc
 968 0635 07       		.uleb128 0x7
 969 0636 8C030000 		.4byte	.LASF103
 970 063a 09       		.byte	0x9
 971 063b 4D       		.byte	0x4d
 972 063c B2000000 		.4byte	0xb2
 973 0640 10       		.byte	0x10
 974 0641 00       		.byte	0
 975 0642 04       		.uleb128 0x4
 976 0643 71000000 		.4byte	.LASF104
 977 0647 09       		.byte	0x9
 978 0648 4E       		.byte	0x4e
 979 0649 FF050000 		.4byte	0x5ff
 980 064d 13       		.uleb128 0x13
 981 064e 38       		.byte	0x38
 982 064f 0A       		.byte	0xa
 983 0650 38       		.byte	0x38
 984 0651 86060000 		.4byte	0x686
 985 0655 07       		.uleb128 0x7
 986 0656 42020000 		.4byte	.LASF105
 987 065a 0A       		.byte	0xa
 988 065b 39       		.byte	0x39
 989 065c 0A010000 		.4byte	0x10a
 990 0660 00       		.byte	0
 991 0661 07       		.uleb128 0x7
 992 0662 C8030000 		.4byte	.LASF106
 993 0666 0A       		.byte	0xa
 994 0667 3A       		.byte	0x3a
 995 0668 0A010000 		.4byte	0x10a
 996 066c 04       		.byte	0x4
 997 066d 07       		.uleb128 0x7
 998 066e 57060000 		.4byte	.LASF107
 999 0672 0A       		.byte	0xa
 1000 0673 3B       		.byte	0x3b
 1001 0674 42060000 		.4byte	0x642
 1002 0678 08       		.byte	0x8
 1003 0679 07       		.uleb128 0x7
 1004 067a DB020000 		.4byte	.LASF108
 1005 067e 0A       		.byte	0xa
 1006 067f 3D       		.byte	0x3d
 1007 0680 42060000 		.4byte	0x642
 1008 0684 20       		.byte	0x20
 1009 0685 00       		.byte	0
 1010 0686 04       		.uleb128 0x4
 1011 0687 61020000 		.4byte	.LASF109
 1012 068b 0A       		.byte	0xa
 1013 068c 3F       		.byte	0x3f
 1014 068d 4D060000 		.4byte	0x64d
 1015 0691 17       		.uleb128 0x17
 1016 0692 04       		.byte	0x4
 1017 0693 05       		.byte	0x5
 1018 0694 FA       		.byte	0xfa
 1019 0695 EE060000 		.4byte	0x6ee
 1020 0699 18       		.uleb128 0x18
 1021 069a 22000000 		.4byte	.LASF110
ARM GAS  C:\Users\Luis\AppData\Local\Temp\ccaYFvbx.s 			page 19


 1022 069e 05       		.byte	0x5
 1023 069f 0101     		.2byte	0x101
 1024 06a1 E9000000 		.4byte	0xe9
 1025 06a5 18       		.uleb128 0x18
 1026 06a6 B6000000 		.4byte	.LASF111
 1027 06aa 05       		.byte	0x5
 1028 06ab 0801     		.2byte	0x108
 1029 06ad E9000000 		.4byte	0xe9
 1030 06b1 18       		.uleb128 0x18
 1031 06b2 27060000 		.4byte	.LASF112
 1032 06b6 05       		.byte	0x5
 1033 06b7 0F01     		.2byte	0x10f
 1034 06b9 26030000 		.4byte	0x326
 1035 06bd 18       		.uleb128 0x18
 1036 06be 1C000000 		.4byte	.LASF113
 1037 06c2 05       		.byte	0x5
 1038 06c3 1601     		.2byte	0x116
 1039 06c5 EE060000 		.4byte	0x6ee
 1040 06c9 18       		.uleb128 0x18
 1041 06ca 23020000 		.4byte	.LASF114
 1042 06ce 05       		.byte	0x5
 1043 06cf 1E01     		.2byte	0x11e
 1044 06d1 19070000 		.4byte	0x719
 1045 06d5 18       		.uleb128 0x18
 1046 06d6 60040000 		.4byte	.LASF115
 1047 06da 05       		.byte	0x5
 1048 06db 2701     		.2byte	0x127
 1049 06dd 50070000 		.4byte	0x750
 1050 06e1 18       		.uleb128 0x18
 1051 06e2 10040000 		.4byte	.LASF116
 1052 06e6 05       		.byte	0x5
 1053 06e7 2F01     		.2byte	0x12f
 1054 06e9 F4000000 		.4byte	0xf4
 1055 06ed 00       		.byte	0
 1056 06ee 0A       		.uleb128 0xa
 1057 06ef 04       		.byte	0x4
 1058 06f0 3E020000 		.4byte	0x23e
 1059 06f4 06       		.uleb128 0x6
 1060 06f5 3F040000 		.4byte	.LASF117
 1061 06f9 0C       		.byte	0xc
 1062 06fa 0B       		.byte	0xb
 1063 06fb 34       		.byte	0x34
 1064 06fc 19070000 		.4byte	0x719
 1065 0700 07       		.uleb128 0x7
 1066 0701 61010000 		.4byte	.LASF118
 1067 0705 0B       		.byte	0xb
 1068 0706 35       		.byte	0x35
 1069 0707 73020000 		.4byte	0x273
 1070 070b 00       		.byte	0
 1071 070c 07       		.uleb128 0x7
 1072 070d 48020000 		.4byte	.LASF119
 1073 0711 0B       		.byte	0xb
 1074 0712 37       		.byte	0x37
 1075 0713 FF000000 		.4byte	0xff
 1076 0717 08       		.byte	0x8
 1077 0718 00       		.byte	0
 1078 0719 0A       		.uleb128 0xa
ARM GAS  C:\Users\Luis\AppData\Local\Temp\ccaYFvbx.s 			page 20


 1079 071a 04       		.byte	0x4
 1080 071b F4060000 		.4byte	0x6f4
 1081 071f 06       		.uleb128 0x6
 1082 0720 F8050000 		.4byte	.LASF120
 1083 0724 10       		.byte	0x10
 1084 0725 0C       		.byte	0xc
 1085 0726 39       		.byte	0x39
 1086 0727 50070000 		.4byte	0x750
 1087 072b 07       		.uleb128 0x7
 1088 072c 1F010000 		.4byte	.LASF121
 1089 0730 0C       		.byte	0xc
 1090 0731 3A       		.byte	0x3a
 1091 0732 73020000 		.4byte	0x273
 1092 0736 00       		.byte	0
 1093 0737 07       		.uleb128 0x7
 1094 0738 62060000 		.4byte	.LASF122
 1095 073c 0C       		.byte	0xc
 1096 073d 3C       		.byte	0x3c
 1097 073e 49020000 		.4byte	0x249
 1098 0742 08       		.byte	0x8
 1099 0743 07       		.uleb128 0x7
 1100 0744 73030000 		.4byte	.LASF123
 1101 0748 0C       		.byte	0xc
 1102 0749 3E       		.byte	0x3e
 1103 074a 94070000 		.4byte	0x794
 1104 074e 0C       		.byte	0xc
 1105 074f 00       		.byte	0
 1106 0750 0A       		.uleb128 0xa
 1107 0751 04       		.byte	0x4
 1108 0752 1F070000 		.4byte	0x71f
 1109 0756 0A       		.uleb128 0xa
 1110 0757 04       		.byte	0x4
 1111 0758 5C070000 		.4byte	0x75c
 1112 075c 19       		.uleb128 0x19
 1113 075d 61070000 		.4byte	0x761
 1114 0761 03       		.uleb128 0x3
 1115 0762 01       		.byte	0x1
 1116 0763 08       		.byte	0x8
 1117 0764 9A040000 		.4byte	.LASF124
 1118 0768 0A       		.uleb128 0xa
 1119 0769 04       		.byte	0x4
 1120 076a A7040000 		.4byte	0x4a7
 1121 076e 0A       		.uleb128 0xa
 1122 076f 04       		.byte	0x4
 1123 0770 28030000 		.4byte	0x328
 1124 0774 05       		.uleb128 0x5
 1125 0775 56070000 		.4byte	0x756
 1126 0779 15       		.uleb128 0x15
 1127 077a A7040000 		.4byte	0x4a7
 1128 077e 89070000 		.4byte	0x789
 1129 0782 16       		.uleb128 0x16
 1130 0783 95040000 		.4byte	0x495
 1131 0787 1F       		.byte	0x1f
 1132 0788 00       		.byte	0
 1133 0789 04       		.uleb128 0x4
 1134 078a DD010000 		.4byte	.LASF125
 1135 078e 0C       		.byte	0xc
ARM GAS  C:\Users\Luis\AppData\Local\Temp\ccaYFvbx.s 			page 21


 1136 078f 34       		.byte	0x34
 1137 0790 1F070000 		.4byte	0x71f
 1138 0794 0A       		.uleb128 0xa
 1139 0795 04       		.byte	0x4
 1140 0796 89070000 		.4byte	0x789
 1141 079a 03       		.uleb128 0x3
 1142 079b 01       		.byte	0x1
 1143 079c 02       		.byte	0x2
 1144 079d D1030000 		.4byte	.LASF126
 1145 07a1 04       		.uleb128 0x4
 1146 07a2 E2050000 		.4byte	.LASF127
 1147 07a6 0D       		.byte	0xd
 1148 07a7 3A       		.byte	0x3a
 1149 07a8 53000000 		.4byte	0x53
 1150 07ac 04       		.uleb128 0x4
 1151 07ad 35020000 		.4byte	.LASF128
 1152 07b1 0D       		.byte	0xd
 1153 07b2 3C       		.byte	0x3c
 1154 07b3 77000000 		.4byte	0x77
 1155 07b7 1A       		.uleb128 0x1a
 1156 07b8 E6020000 		.4byte	.LASF129
 1157 07bc 01       		.byte	0x1
 1158 07bd 40       		.byte	0x40
 1159 07be A1070000 		.4byte	0x7a1
 1160 07c2 00000000 		.4byte	.LFB260
 1161 07c6 2A000000 		.4byte	.LFE260-.LFB260
 1162 07ca 01       		.uleb128 0x1
 1163 07cb 9C       		.byte	0x9c
 1164 07cc DD070000 		.4byte	0x7dd
 1165 07d0 1B       		.uleb128 0x1b
 1166 07d1 6E00     		.ascii	"n\000"
 1167 07d3 01       		.byte	0x1
 1168 07d4 40       		.byte	0x40
 1169 07d5 A1070000 		.4byte	0x7a1
 1170 07d9 02       		.uleb128 0x2
 1171 07da 91       		.byte	0x91
 1172 07db 76       		.sleb128 -10
 1173 07dc 00       		.byte	0
 1174 07dd 1C       		.uleb128 0x1c
 1175 07de AB020000 		.4byte	.LASF130
 1176 07e2 01       		.byte	0x1
 1177 07e3 4C       		.byte	0x4c
 1178 07e4 A1070000 		.4byte	0x7a1
 1179 07e8 00000000 		.4byte	.LFB261
 1180 07ec 1C000000 		.4byte	.LFE261-.LFB261
 1181 07f0 01       		.uleb128 0x1
 1182 07f1 9C       		.byte	0x9c
 1183 07f2 03080000 		.4byte	0x803
 1184 07f6 1B       		.uleb128 0x1b
 1185 07f7 6E00     		.ascii	"n\000"
 1186 07f9 01       		.byte	0x1
 1187 07fa 4C       		.byte	0x4c
 1188 07fb A1070000 		.4byte	0x7a1
 1189 07ff 02       		.uleb128 0x2
 1190 0800 91       		.byte	0x91
 1191 0801 76       		.sleb128 -10
 1192 0802 00       		.byte	0
ARM GAS  C:\Users\Luis\AppData\Local\Temp\ccaYFvbx.s 			page 22


 1193 0803 1A       		.uleb128 0x1a
 1194 0804 B6020000 		.4byte	.LASF131
 1195 0808 01       		.byte	0x1
 1196 0809 58       		.byte	0x58
 1197 080a AC070000 		.4byte	0x7ac
 1198 080e 00000000 		.4byte	.LFB262
 1199 0812 32000000 		.4byte	.LFE262-.LFB262
 1200 0816 01       		.uleb128 0x1
 1201 0817 9C       		.byte	0x9c
 1202 0818 29080000 		.4byte	0x829
 1203 081c 1B       		.uleb128 0x1b
 1204 081d 6E00     		.ascii	"n\000"
 1205 081f 01       		.byte	0x1
 1206 0820 58       		.byte	0x58
 1207 0821 AC070000 		.4byte	0x7ac
 1208 0825 02       		.uleb128 0x2
 1209 0826 91       		.byte	0x91
 1210 0827 74       		.sleb128 -12
 1211 0828 00       		.byte	0
 1212 0829 1C       		.uleb128 0x1c
 1213 082a 98020000 		.4byte	.LASF132
 1214 082e 01       		.byte	0x1
 1215 082f 67       		.byte	0x67
 1216 0830 AC070000 		.4byte	0x7ac
 1217 0834 00000000 		.4byte	.LFB263
 1218 0838 18000000 		.4byte	.LFE263-.LFB263
 1219 083c 01       		.uleb128 0x1
 1220 083d 9C       		.byte	0x9c
 1221 083e 4F080000 		.4byte	0x84f
 1222 0842 1B       		.uleb128 0x1b
 1223 0843 6E00     		.ascii	"n\000"
 1224 0845 01       		.byte	0x1
 1225 0846 67       		.byte	0x67
 1226 0847 AC070000 		.4byte	0x7ac
 1227 084b 02       		.uleb128 0x2
 1228 084c 91       		.byte	0x91
 1229 084d 74       		.sleb128 -12
 1230 084e 00       		.byte	0
 1231 084f 1D       		.uleb128 0x1d
 1232 0850 E0000000 		.4byte	.LASF133
 1233 0854 0E       		.byte	0xe
 1234 0855 A706     		.2byte	0x6a7
 1235 0857 A2000000 		.4byte	0xa2
 1236 085b 1E       		.uleb128 0x1e
 1237 085c 636800   		.ascii	"ch\000"
 1238 085f 05       		.byte	0x5
 1239 0860 0902     		.2byte	0x209
 1240 0862 1D040000 		.4byte	0x41d
 1241 0866 00       		.byte	0
 1242              		.section	.debug_abbrev,"",%progbits
 1243              	.Ldebug_abbrev0:
 1244 0000 01       		.uleb128 0x1
 1245 0001 11       		.uleb128 0x11
 1246 0002 01       		.byte	0x1
 1247 0003 25       		.uleb128 0x25
 1248 0004 0E       		.uleb128 0xe
 1249 0005 13       		.uleb128 0x13
ARM GAS  C:\Users\Luis\AppData\Local\Temp\ccaYFvbx.s 			page 23


 1250 0006 0B       		.uleb128 0xb
 1251 0007 03       		.uleb128 0x3
 1252 0008 0E       		.uleb128 0xe
 1253 0009 1B       		.uleb128 0x1b
 1254 000a 0E       		.uleb128 0xe
 1255 000b 55       		.uleb128 0x55
 1256 000c 17       		.uleb128 0x17
 1257 000d 11       		.uleb128 0x11
 1258 000e 01       		.uleb128 0x1
 1259 000f 10       		.uleb128 0x10
 1260 0010 17       		.uleb128 0x17
 1261 0011 00       		.byte	0
 1262 0012 00       		.byte	0
 1263 0013 02       		.uleb128 0x2
 1264 0014 24       		.uleb128 0x24
 1265 0015 00       		.byte	0
 1266 0016 0B       		.uleb128 0xb
 1267 0017 0B       		.uleb128 0xb
 1268 0018 3E       		.uleb128 0x3e
 1269 0019 0B       		.uleb128 0xb
 1270 001a 03       		.uleb128 0x3
 1271 001b 08       		.uleb128 0x8
 1272 001c 00       		.byte	0
 1273 001d 00       		.byte	0
 1274 001e 03       		.uleb128 0x3
 1275 001f 24       		.uleb128 0x24
 1276 0020 00       		.byte	0
 1277 0021 0B       		.uleb128 0xb
 1278 0022 0B       		.uleb128 0xb
 1279 0023 3E       		.uleb128 0x3e
 1280 0024 0B       		.uleb128 0xb
 1281 0025 03       		.uleb128 0x3
 1282 0026 0E       		.uleb128 0xe
 1283 0027 00       		.byte	0
 1284 0028 00       		.byte	0
 1285 0029 04       		.uleb128 0x4
 1286 002a 16       		.uleb128 0x16
 1287 002b 00       		.byte	0
 1288 002c 03       		.uleb128 0x3
 1289 002d 0E       		.uleb128 0xe
 1290 002e 3A       		.uleb128 0x3a
 1291 002f 0B       		.uleb128 0xb
 1292 0030 3B       		.uleb128 0x3b
 1293 0031 0B       		.uleb128 0xb
 1294 0032 49       		.uleb128 0x49
 1295 0033 13       		.uleb128 0x13
 1296 0034 00       		.byte	0
 1297 0035 00       		.byte	0
 1298 0036 05       		.uleb128 0x5
 1299 0037 35       		.uleb128 0x35
 1300 0038 00       		.byte	0
 1301 0039 49       		.uleb128 0x49
 1302 003a 13       		.uleb128 0x13
 1303 003b 00       		.byte	0
 1304 003c 00       		.byte	0
 1305 003d 06       		.uleb128 0x6
 1306 003e 13       		.uleb128 0x13
ARM GAS  C:\Users\Luis\AppData\Local\Temp\ccaYFvbx.s 			page 24


 1307 003f 01       		.byte	0x1
 1308 0040 03       		.uleb128 0x3
 1309 0041 0E       		.uleb128 0xe
 1310 0042 0B       		.uleb128 0xb
 1311 0043 0B       		.uleb128 0xb
 1312 0044 3A       		.uleb128 0x3a
 1313 0045 0B       		.uleb128 0xb
 1314 0046 3B       		.uleb128 0x3b
 1315 0047 0B       		.uleb128 0xb
 1316 0048 01       		.uleb128 0x1
 1317 0049 13       		.uleb128 0x13
 1318 004a 00       		.byte	0
 1319 004b 00       		.byte	0
 1320 004c 07       		.uleb128 0x7
 1321 004d 0D       		.uleb128 0xd
 1322 004e 00       		.byte	0
 1323 004f 03       		.uleb128 0x3
 1324 0050 0E       		.uleb128 0xe
 1325 0051 3A       		.uleb128 0x3a
 1326 0052 0B       		.uleb128 0xb
 1327 0053 3B       		.uleb128 0x3b
 1328 0054 0B       		.uleb128 0xb
 1329 0055 49       		.uleb128 0x49
 1330 0056 13       		.uleb128 0x13
 1331 0057 38       		.uleb128 0x38
 1332 0058 0B       		.uleb128 0xb
 1333 0059 00       		.byte	0
 1334 005a 00       		.byte	0
 1335 005b 08       		.uleb128 0x8
 1336 005c 0D       		.uleb128 0xd
 1337 005d 00       		.byte	0
 1338 005e 03       		.uleb128 0x3
 1339 005f 08       		.uleb128 0x8
 1340 0060 3A       		.uleb128 0x3a
 1341 0061 0B       		.uleb128 0xb
 1342 0062 3B       		.uleb128 0x3b
 1343 0063 05       		.uleb128 0x5
 1344 0064 49       		.uleb128 0x49
 1345 0065 13       		.uleb128 0x13
 1346 0066 38       		.uleb128 0x38
 1347 0067 0B       		.uleb128 0xb
 1348 0068 00       		.byte	0
 1349 0069 00       		.byte	0
 1350 006a 09       		.uleb128 0x9
 1351 006b 0D       		.uleb128 0xd
 1352 006c 00       		.byte	0
 1353 006d 03       		.uleb128 0x3
 1354 006e 0E       		.uleb128 0xe
 1355 006f 3A       		.uleb128 0x3a
 1356 0070 0B       		.uleb128 0xb
 1357 0071 3B       		.uleb128 0x3b
 1358 0072 05       		.uleb128 0x5
 1359 0073 49       		.uleb128 0x49
 1360 0074 13       		.uleb128 0x13
 1361 0075 38       		.uleb128 0x38
 1362 0076 0B       		.uleb128 0xb
 1363 0077 00       		.byte	0
ARM GAS  C:\Users\Luis\AppData\Local\Temp\ccaYFvbx.s 			page 25


 1364 0078 00       		.byte	0
 1365 0079 0A       		.uleb128 0xa
 1366 007a 0F       		.uleb128 0xf
 1367 007b 00       		.byte	0
 1368 007c 0B       		.uleb128 0xb
 1369 007d 0B       		.uleb128 0xb
 1370 007e 49       		.uleb128 0x49
 1371 007f 13       		.uleb128 0x13
 1372 0080 00       		.byte	0
 1373 0081 00       		.byte	0
 1374 0082 0B       		.uleb128 0xb
 1375 0083 13       		.uleb128 0x13
 1376 0084 01       		.byte	0x1
 1377 0085 03       		.uleb128 0x3
 1378 0086 0E       		.uleb128 0xe
 1379 0087 0B       		.uleb128 0xb
 1380 0088 0B       		.uleb128 0xb
 1381 0089 3A       		.uleb128 0x3a
 1382 008a 0B       		.uleb128 0xb
 1383 008b 3B       		.uleb128 0x3b
 1384 008c 05       		.uleb128 0x5
 1385 008d 01       		.uleb128 0x1
 1386 008e 13       		.uleb128 0x13
 1387 008f 00       		.byte	0
 1388 0090 00       		.byte	0
 1389 0091 0C       		.uleb128 0xc
 1390 0092 15       		.uleb128 0x15
 1391 0093 01       		.byte	0x1
 1392 0094 27       		.uleb128 0x27
 1393 0095 19       		.uleb128 0x19
 1394 0096 01       		.uleb128 0x1
 1395 0097 13       		.uleb128 0x13
 1396 0098 00       		.byte	0
 1397 0099 00       		.byte	0
 1398 009a 0D       		.uleb128 0xd
 1399 009b 05       		.uleb128 0x5
 1400 009c 00       		.byte	0
 1401 009d 49       		.uleb128 0x49
 1402 009e 13       		.uleb128 0x13
 1403 009f 00       		.byte	0
 1404 00a0 00       		.byte	0
 1405 00a1 0E       		.uleb128 0xe
 1406 00a2 0F       		.uleb128 0xf
 1407 00a3 00       		.byte	0
 1408 00a4 0B       		.uleb128 0xb
 1409 00a5 0B       		.uleb128 0xb
 1410 00a6 00       		.byte	0
 1411 00a7 00       		.byte	0
 1412 00a8 0F       		.uleb128 0xf
 1413 00a9 13       		.uleb128 0x13
 1414 00aa 01       		.byte	0x1
 1415 00ab 03       		.uleb128 0x3
 1416 00ac 0E       		.uleb128 0xe
 1417 00ad 0B       		.uleb128 0xb
 1418 00ae 05       		.uleb128 0x5
 1419 00af 3A       		.uleb128 0x3a
 1420 00b0 0B       		.uleb128 0xb
ARM GAS  C:\Users\Luis\AppData\Local\Temp\ccaYFvbx.s 			page 26


 1421 00b1 3B       		.uleb128 0x3b
 1422 00b2 05       		.uleb128 0x5
 1423 00b3 01       		.uleb128 0x1
 1424 00b4 13       		.uleb128 0x13
 1425 00b5 00       		.byte	0
 1426 00b6 00       		.byte	0
 1427 00b7 10       		.uleb128 0x10
 1428 00b8 0D       		.uleb128 0xd
 1429 00b9 00       		.byte	0
 1430 00ba 03       		.uleb128 0x3
 1431 00bb 0E       		.uleb128 0xe
 1432 00bc 3A       		.uleb128 0x3a
 1433 00bd 0B       		.uleb128 0xb
 1434 00be 3B       		.uleb128 0x3b
 1435 00bf 05       		.uleb128 0x5
 1436 00c0 49       		.uleb128 0x49
 1437 00c1 13       		.uleb128 0x13
 1438 00c2 38       		.uleb128 0x38
 1439 00c3 05       		.uleb128 0x5
 1440 00c4 00       		.byte	0
 1441 00c5 00       		.byte	0
 1442 00c6 11       		.uleb128 0x11
 1443 00c7 0D       		.uleb128 0xd
 1444 00c8 00       		.byte	0
 1445 00c9 03       		.uleb128 0x3
 1446 00ca 08       		.uleb128 0x8
 1447 00cb 3A       		.uleb128 0x3a
 1448 00cc 0B       		.uleb128 0xb
 1449 00cd 3B       		.uleb128 0x3b
 1450 00ce 05       		.uleb128 0x5
 1451 00cf 49       		.uleb128 0x49
 1452 00d0 13       		.uleb128 0x13
 1453 00d1 38       		.uleb128 0x38
 1454 00d2 05       		.uleb128 0x5
 1455 00d3 00       		.byte	0
 1456 00d4 00       		.byte	0
 1457 00d5 12       		.uleb128 0x12
 1458 00d6 0D       		.uleb128 0xd
 1459 00d7 00       		.byte	0
 1460 00d8 03       		.uleb128 0x3
 1461 00d9 08       		.uleb128 0x8
 1462 00da 3A       		.uleb128 0x3a
 1463 00db 0B       		.uleb128 0xb
 1464 00dc 3B       		.uleb128 0x3b
 1465 00dd 0B       		.uleb128 0xb
 1466 00de 49       		.uleb128 0x49
 1467 00df 13       		.uleb128 0x13
 1468 00e0 38       		.uleb128 0x38
 1469 00e1 0B       		.uleb128 0xb
 1470 00e2 00       		.byte	0
 1471 00e3 00       		.byte	0
 1472 00e4 13       		.uleb128 0x13
 1473 00e5 13       		.uleb128 0x13
 1474 00e6 01       		.byte	0x1
 1475 00e7 0B       		.uleb128 0xb
 1476 00e8 0B       		.uleb128 0xb
 1477 00e9 3A       		.uleb128 0x3a
ARM GAS  C:\Users\Luis\AppData\Local\Temp\ccaYFvbx.s 			page 27


 1478 00ea 0B       		.uleb128 0xb
 1479 00eb 3B       		.uleb128 0x3b
 1480 00ec 0B       		.uleb128 0xb
 1481 00ed 01       		.uleb128 0x1
 1482 00ee 13       		.uleb128 0x13
 1483 00ef 00       		.byte	0
 1484 00f0 00       		.byte	0
 1485 00f1 14       		.uleb128 0x14
 1486 00f2 13       		.uleb128 0x13
 1487 00f3 01       		.byte	0x1
 1488 00f4 0B       		.uleb128 0xb
 1489 00f5 05       		.uleb128 0x5
 1490 00f6 3A       		.uleb128 0x3a
 1491 00f7 0B       		.uleb128 0xb
 1492 00f8 3B       		.uleb128 0x3b
 1493 00f9 0B       		.uleb128 0xb
 1494 00fa 01       		.uleb128 0x1
 1495 00fb 13       		.uleb128 0x13
 1496 00fc 00       		.byte	0
 1497 00fd 00       		.byte	0
 1498 00fe 15       		.uleb128 0x15
 1499 00ff 01       		.uleb128 0x1
 1500 0100 01       		.byte	0x1
 1501 0101 49       		.uleb128 0x49
 1502 0102 13       		.uleb128 0x13
 1503 0103 01       		.uleb128 0x1
 1504 0104 13       		.uleb128 0x13
 1505 0105 00       		.byte	0
 1506 0106 00       		.byte	0
 1507 0107 16       		.uleb128 0x16
 1508 0108 21       		.uleb128 0x21
 1509 0109 00       		.byte	0
 1510 010a 49       		.uleb128 0x49
 1511 010b 13       		.uleb128 0x13
 1512 010c 2F       		.uleb128 0x2f
 1513 010d 0B       		.uleb128 0xb
 1514 010e 00       		.byte	0
 1515 010f 00       		.byte	0
 1516 0110 17       		.uleb128 0x17
 1517 0111 17       		.uleb128 0x17
 1518 0112 01       		.byte	0x1
 1519 0113 0B       		.uleb128 0xb
 1520 0114 0B       		.uleb128 0xb
 1521 0115 3A       		.uleb128 0x3a
 1522 0116 0B       		.uleb128 0xb
 1523 0117 3B       		.uleb128 0x3b
 1524 0118 0B       		.uleb128 0xb
 1525 0119 01       		.uleb128 0x1
 1526 011a 13       		.uleb128 0x13
 1527 011b 00       		.byte	0
 1528 011c 00       		.byte	0
 1529 011d 18       		.uleb128 0x18
 1530 011e 0D       		.uleb128 0xd
 1531 011f 00       		.byte	0
 1532 0120 03       		.uleb128 0x3
 1533 0121 0E       		.uleb128 0xe
 1534 0122 3A       		.uleb128 0x3a
ARM GAS  C:\Users\Luis\AppData\Local\Temp\ccaYFvbx.s 			page 28


 1535 0123 0B       		.uleb128 0xb
 1536 0124 3B       		.uleb128 0x3b
 1537 0125 05       		.uleb128 0x5
 1538 0126 49       		.uleb128 0x49
 1539 0127 13       		.uleb128 0x13
 1540 0128 00       		.byte	0
 1541 0129 00       		.byte	0
 1542 012a 19       		.uleb128 0x19
 1543 012b 26       		.uleb128 0x26
 1544 012c 00       		.byte	0
 1545 012d 49       		.uleb128 0x49
 1546 012e 13       		.uleb128 0x13
 1547 012f 00       		.byte	0
 1548 0130 00       		.byte	0
 1549 0131 1A       		.uleb128 0x1a
 1550 0132 2E       		.uleb128 0x2e
 1551 0133 01       		.byte	0x1
 1552 0134 3F       		.uleb128 0x3f
 1553 0135 19       		.uleb128 0x19
 1554 0136 03       		.uleb128 0x3
 1555 0137 0E       		.uleb128 0xe
 1556 0138 3A       		.uleb128 0x3a
 1557 0139 0B       		.uleb128 0xb
 1558 013a 3B       		.uleb128 0x3b
 1559 013b 0B       		.uleb128 0xb
 1560 013c 27       		.uleb128 0x27
 1561 013d 19       		.uleb128 0x19
 1562 013e 49       		.uleb128 0x49
 1563 013f 13       		.uleb128 0x13
 1564 0140 11       		.uleb128 0x11
 1565 0141 01       		.uleb128 0x1
 1566 0142 12       		.uleb128 0x12
 1567 0143 06       		.uleb128 0x6
 1568 0144 40       		.uleb128 0x40
 1569 0145 18       		.uleb128 0x18
 1570 0146 9742     		.uleb128 0x2117
 1571 0148 19       		.uleb128 0x19
 1572 0149 01       		.uleb128 0x1
 1573 014a 13       		.uleb128 0x13
 1574 014b 00       		.byte	0
 1575 014c 00       		.byte	0
 1576 014d 1B       		.uleb128 0x1b
 1577 014e 05       		.uleb128 0x5
 1578 014f 00       		.byte	0
 1579 0150 03       		.uleb128 0x3
 1580 0151 08       		.uleb128 0x8
 1581 0152 3A       		.uleb128 0x3a
 1582 0153 0B       		.uleb128 0xb
 1583 0154 3B       		.uleb128 0x3b
 1584 0155 0B       		.uleb128 0xb
 1585 0156 49       		.uleb128 0x49
 1586 0157 13       		.uleb128 0x13
 1587 0158 02       		.uleb128 0x2
 1588 0159 18       		.uleb128 0x18
 1589 015a 00       		.byte	0
 1590 015b 00       		.byte	0
 1591 015c 1C       		.uleb128 0x1c
ARM GAS  C:\Users\Luis\AppData\Local\Temp\ccaYFvbx.s 			page 29


 1592 015d 2E       		.uleb128 0x2e
 1593 015e 01       		.byte	0x1
 1594 015f 3F       		.uleb128 0x3f
 1595 0160 19       		.uleb128 0x19
 1596 0161 03       		.uleb128 0x3
 1597 0162 0E       		.uleb128 0xe
 1598 0163 3A       		.uleb128 0x3a
 1599 0164 0B       		.uleb128 0xb
 1600 0165 3B       		.uleb128 0x3b
 1601 0166 0B       		.uleb128 0xb
 1602 0167 27       		.uleb128 0x27
 1603 0168 19       		.uleb128 0x19
 1604 0169 49       		.uleb128 0x49
 1605 016a 13       		.uleb128 0x13
 1606 016b 11       		.uleb128 0x11
 1607 016c 01       		.uleb128 0x1
 1608 016d 12       		.uleb128 0x12
 1609 016e 06       		.uleb128 0x6
 1610 016f 40       		.uleb128 0x40
 1611 0170 18       		.uleb128 0x18
 1612 0171 9642     		.uleb128 0x2116
 1613 0173 19       		.uleb128 0x19
 1614 0174 01       		.uleb128 0x1
 1615 0175 13       		.uleb128 0x13
 1616 0176 00       		.byte	0
 1617 0177 00       		.byte	0
 1618 0178 1D       		.uleb128 0x1d
 1619 0179 34       		.uleb128 0x34
 1620 017a 00       		.byte	0
 1621 017b 03       		.uleb128 0x3
 1622 017c 0E       		.uleb128 0xe
 1623 017d 3A       		.uleb128 0x3a
 1624 017e 0B       		.uleb128 0xb
 1625 017f 3B       		.uleb128 0x3b
 1626 0180 05       		.uleb128 0x5
 1627 0181 49       		.uleb128 0x49
 1628 0182 13       		.uleb128 0x13
 1629 0183 3F       		.uleb128 0x3f
 1630 0184 19       		.uleb128 0x19
 1631 0185 3C       		.uleb128 0x3c
 1632 0186 19       		.uleb128 0x19
 1633 0187 00       		.byte	0
 1634 0188 00       		.byte	0
 1635 0189 1E       		.uleb128 0x1e
 1636 018a 34       		.uleb128 0x34
 1637 018b 00       		.byte	0
 1638 018c 03       		.uleb128 0x3
 1639 018d 08       		.uleb128 0x8
 1640 018e 3A       		.uleb128 0x3a
 1641 018f 0B       		.uleb128 0xb
 1642 0190 3B       		.uleb128 0x3b
 1643 0191 05       		.uleb128 0x5
 1644 0192 49       		.uleb128 0x49
 1645 0193 13       		.uleb128 0x13
 1646 0194 3F       		.uleb128 0x3f
 1647 0195 19       		.uleb128 0x19
 1648 0196 3C       		.uleb128 0x3c
ARM GAS  C:\Users\Luis\AppData\Local\Temp\ccaYFvbx.s 			page 30


 1649 0197 19       		.uleb128 0x19
 1650 0198 00       		.byte	0
 1651 0199 00       		.byte	0
 1652 019a 00       		.byte	0
 1653              		.section	.debug_aranges,"",%progbits
 1654 0000 34000000 		.4byte	0x34
 1655 0004 0200     		.2byte	0x2
 1656 0006 00000000 		.4byte	.Ldebug_info0
 1657 000a 04       		.byte	0x4
 1658 000b 00       		.byte	0
 1659 000c 0000     		.2byte	0
 1660 000e 0000     		.2byte	0
 1661 0010 00000000 		.4byte	.LFB260
 1662 0014 2A000000 		.4byte	.LFE260-.LFB260
 1663 0018 00000000 		.4byte	.LFB261
 1664 001c 1C000000 		.4byte	.LFE261-.LFB261
 1665 0020 00000000 		.4byte	.LFB262
 1666 0024 32000000 		.4byte	.LFE262-.LFB262
 1667 0028 00000000 		.4byte	.LFB263
 1668 002c 18000000 		.4byte	.LFE263-.LFB263
 1669 0030 00000000 		.4byte	0
 1670 0034 00000000 		.4byte	0
 1671              		.section	.debug_ranges,"",%progbits
 1672              	.Ldebug_ranges0:
 1673 0000 00000000 		.4byte	.LFB260
 1674 0004 2A000000 		.4byte	.LFE260
 1675 0008 00000000 		.4byte	.LFB261
 1676 000c 1C000000 		.4byte	.LFE261
 1677 0010 00000000 		.4byte	.LFB262
 1678 0014 32000000 		.4byte	.LFE262
 1679 0018 00000000 		.4byte	.LFB263
 1680 001c 18000000 		.4byte	.LFE263
 1681 0020 00000000 		.4byte	0
 1682 0024 00000000 		.4byte	0
 1683              		.section	.debug_line,"",%progbits
 1684              	.Ldebug_line0:
 1685 0000 14020000 		.section	.debug_str,"MS",%progbits,1
 1685      0200C001 
 1685      00000201 
 1685      FB0E0D00 
 1685      01010101 
 1686              	.LASF95:
 1687 0000 74625F70 		.ascii	"tb_ptr\000"
 1687      747200
 1688              	.LASF52:
 1689 0007 72656164 		.ascii	"ready_list_t\000"
 1689      795F6C69 
 1689      73745F74 
 1689      00
 1690              	.LASF89:
 1691 0014 73655F74 		.ascii	"se_time\000"
 1691      696D6500 
 1692              	.LASF113:
 1693 001c 77747472 		.ascii	"wttrp\000"
 1693      7000
 1694              	.LASF110:
 1695 0022 7264796D 		.ascii	"rdymsg\000"
ARM GAS  C:\Users\Luis\AppData\Local\Temp\ccaYFvbx.s 			page 31


 1695      736700
 1696              	.LASF12:
 1697 0029 75696E74 		.ascii	"uint64_t\000"
 1697      36345F74 
 1697      00
 1698              	.LASF82:
 1699 0032 6B65726E 		.ascii	"kernel_stats\000"
 1699      656C5F73 
 1699      74617473 
 1699      00
 1700              	.LASF88:
 1701 003f 706F7274 		.ascii	"port_intctx\000"
 1701      5F696E74 
 1701      63747800 
 1702              	.LASF51:
 1703 004b 63685F74 		.ascii	"ch_threads_queue\000"
 1703      68726561 
 1703      64735F71 
 1703      75657565 
 1703      00
 1704              	.LASF71:
 1705 005c 73797374 		.ascii	"system_debug_t\000"
 1705      656D5F64 
 1705      65627567 
 1705      5F7400
 1706              	.LASF101:
 1707 006b 776F7273 		.ascii	"worst\000"
 1707      7400
 1708              	.LASF104:
 1709 0071 74696D65 		.ascii	"time_measurement_t\000"
 1709      5F6D6561 
 1709      73757265 
 1709      6D656E74 
 1709      5F7400
 1710              	.LASF13:
 1711 0084 6C6F6E67 		.ascii	"long long unsigned int\000"
 1711      206C6F6E 
 1711      6720756E 
 1711      7369676E 
 1711      65642069 
 1712              	.LASF97:
 1713 009b 63685F74 		.ascii	"ch_trace_buffer_t\000"
 1713      72616365 
 1713      5F627566 
 1713      6665725F 
 1713      7400
 1714              	.LASF92:
 1715 00ad 73655F73 		.ascii	"se_state\000"
 1715      74617465 
 1715      00
 1716              	.LASF111:
 1717 00b6 65786974 		.ascii	"exitcode\000"
 1717      636F6465 
 1717      00
 1718              	.LASF81:
 1719 00bf 6D61696E 		.ascii	"mainthread\000"
 1719      74687265 
ARM GAS  C:\Users\Luis\AppData\Local\Temp\ccaYFvbx.s 			page 32


 1719      616400
 1720              	.LASF68:
 1721 00ca 76697274 		.ascii	"virtual_timers_list_t\000"
 1721      75616C5F 
 1721      74696D65 
 1721      72735F6C 
 1721      6973745F 
 1722              	.LASF133:
 1723 00e0 49544D5F 		.ascii	"ITM_RxBuffer\000"
 1723      52784275 
 1723      66666572 
 1723      00
 1724              	.LASF15:
 1725 00ed 72747469 		.ascii	"rttime_t\000"
 1725      6D655F74 
 1725      00
 1726              	.LASF28:
 1727 00f6 705F7072 		.ascii	"p_prio\000"
 1727      696F00
 1728              	.LASF11:
 1729 00fd 6C6F6E67 		.ascii	"long long int\000"
 1729      206C6F6E 
 1729      6720696E 
 1729      7400
 1730              	.LASF1:
 1731 010b 7369676E 		.ascii	"signed char\000"
 1731      65642063 
 1731      68617200 
 1732              	.LASF43:
 1733 0117 705F6D70 		.ascii	"p_mpool\000"
 1733      6F6F6C00 
 1734              	.LASF121:
 1735 011f 6D5F7175 		.ascii	"m_queue\000"
 1735      65756500 
 1736              	.LASF80:
 1737 0127 76746C69 		.ascii	"vtlist\000"
 1737      737400
 1738              	.LASF78:
 1739 012e 63685F73 		.ascii	"ch_system\000"
 1739      79737465 
 1739      6D00
 1740              	.LASF8:
 1741 0138 6C6F6E67 		.ascii	"long int\000"
 1741      20696E74 
 1741      00
 1742              	.LASF17:
 1743 0141 74737461 		.ascii	"tstate_t\000"
 1743      74655F74 
 1743      00
 1744              	.LASF90:
 1745 014a 73655F74 		.ascii	"se_tp\000"
 1745      7000
 1746              	.LASF5:
 1747 0150 75696E74 		.ascii	"uint16_t\000"
 1747      31365F74 
 1747      00
 1748              	.LASF30:
ARM GAS  C:\Users\Luis\AppData\Local\Temp\ccaYFvbx.s 			page 33


 1749 0159 705F6E65 		.ascii	"p_newer\000"
 1749      77657200 
 1750              	.LASF118:
 1751 0161 735F7175 		.ascii	"s_queue\000"
 1751      65756500 
 1752              	.LASF94:
 1753 0169 74625F73 		.ascii	"tb_size\000"
 1753      697A6500 
 1754              	.LASF57:
 1755 0171 725F6E65 		.ascii	"r_newer\000"
 1755      77657200 
 1756              	.LASF85:
 1757 0179 72656761 		.ascii	"regarm_t\000"
 1757      726D5F74 
 1757      00
 1758              	.LASF64:
 1759 0182 76745F70 		.ascii	"vt_prev\000"
 1759      72657600 
 1760              	.LASF136:
 1761 018a 433A5C55 		.ascii	"C:\\Users\\Luis\\git\\DSP-Library-Lanin\\examples\\"
 1761      73657273 
 1761      5C4C7569 
 1761      735C6769 
 1761      745C4453 
 1762 01b7 53544D33 		.ascii	"STM32F407_EMTECH-LWIP\000"
 1762      32463430 
 1762      375F454D 
 1762      54454348 
 1762      2D4C5749 
 1763              	.LASF72:
 1764 01cd 63685F73 		.ascii	"ch_system_debug\000"
 1764      79737465 
 1764      6D5F6465 
 1764      62756700 
 1765              	.LASF125:
 1766 01dd 6D757465 		.ascii	"mutex_t\000"
 1766      785F7400 
 1767              	.LASF75:
 1768 01e5 6C6F636B 		.ascii	"lock_cnt\000"
 1768      5F636E74 
 1768      00
 1769              	.LASF83:
 1770 01ee 69646C65 		.ascii	"idle_thread_wa\000"
 1770      5F746872 
 1770      6561645F 
 1770      776100
 1771              	.LASF22:
 1772 01fd 636E745F 		.ascii	"cnt_t\000"
 1772      7400
 1773              	.LASF33:
 1774 0203 705F7374 		.ascii	"p_stklimit\000"
 1774      6B6C696D 
 1774      697400
 1775              	.LASF0:
 1776 020e 756E7369 		.ascii	"unsigned int\000"
 1776      676E6564 
 1776      20696E74 
ARM GAS  C:\Users\Luis\AppData\Local\Temp\ccaYFvbx.s 			page 34


 1776      00
 1777              	.LASF63:
 1778 021b 76745F6E 		.ascii	"vt_next\000"
 1778      65787400 
 1779              	.LASF114:
 1780 0223 77747365 		.ascii	"wtsemp\000"
 1780      6D7000
 1781              	.LASF38:
 1782 022a 705F6D73 		.ascii	"p_msgqueue\000"
 1782      67717565 
 1782      756500
 1783              	.LASF128:
 1784 0235 7533325F 		.ascii	"u32_t\000"
 1784      7400
 1785              	.LASF45:
 1786 023b 746C7350 		.ascii	"tlsPtr\000"
 1786      747200
 1787              	.LASF105:
 1788 0242 6E5F6972 		.ascii	"n_irq\000"
 1788      7100
 1789              	.LASF119:
 1790 0248 735F636E 		.ascii	"s_cnt\000"
 1790      7400
 1791              	.LASF6:
 1792 024e 73686F72 		.ascii	"short unsigned int\000"
 1792      7420756E 
 1792      7369676E 
 1792      65642069 
 1792      6E7400
 1793              	.LASF109:
 1794 0261 6B65726E 		.ascii	"kernel_stats_t\000"
 1794      656C5F73 
 1794      74617473 
 1794      5F7400
 1795              	.LASF48:
 1796 0270 63685F74 		.ascii	"ch_thread\000"
 1796      68726561 
 1796      6400
 1797              	.LASF20:
 1798 027a 6D73675F 		.ascii	"msg_t\000"
 1798      7400
 1799              	.LASF102:
 1800 0280 6C617374 		.ascii	"last\000"
 1800      00
 1801              	.LASF23:
 1802 0285 75636E74 		.ascii	"ucnt_t\000"
 1802      5F7400
 1803              	.LASF77:
 1804 028c 63685F73 		.ascii	"ch_system_t\000"
 1804      79737465 
 1804      6D5F7400 
 1805              	.LASF132:
 1806 0298 6C776970 		.ascii	"lwip_ntohl\000"
 1806      5F6E746F 
 1806      686C00
 1807              	.LASF16:
 1808 02a3 746D6F64 		.ascii	"tmode_t\000"
ARM GAS  C:\Users\Luis\AppData\Local\Temp\ccaYFvbx.s 			page 35


 1808      655F7400 
 1809              	.LASF130:
 1810 02ab 6C776970 		.ascii	"lwip_ntohs\000"
 1810      5F6E746F 
 1810      687300
 1811              	.LASF131:
 1812 02b6 6C776970 		.ascii	"lwip_htonl\000"
 1812      5F68746F 
 1812      6E6C00
 1813              	.LASF53:
 1814 02c1 63685F72 		.ascii	"ch_ready_list\000"
 1814      65616479 
 1814      5F6C6973 
 1814      7400
 1815              	.LASF21:
 1816 02cf 6576656E 		.ascii	"eventmask_t\000"
 1816      746D6173 
 1816      6B5F7400 
 1817              	.LASF108:
 1818 02db 6D5F6372 		.ascii	"m_crit_isr\000"
 1818      69745F69 
 1818      737200
 1819              	.LASF129:
 1820 02e6 6C776970 		.ascii	"lwip_htons\000"
 1820      5F68746F 
 1820      6E7300
 1821              	.LASF86:
 1822 02f1 73746B61 		.ascii	"stkalign_t\000"
 1822      6C69676E 
 1822      5F7400
 1823              	.LASF37:
 1824 02fc 705F7761 		.ascii	"p_waiting\000"
 1824      6974696E 
 1824      6700
 1825              	.LASF84:
 1826 0306 73697A65 		.ascii	"sizetype\000"
 1826      74797065 
 1826      00
 1827              	.LASF46:
 1828 030f 74687265 		.ascii	"thread_reference_t\000"
 1828      61645F72 
 1828      65666572 
 1828      656E6365 
 1828      5F7400
 1829              	.LASF69:
 1830 0322 63685F76 		.ascii	"ch_virtual_timers_list\000"
 1830      69727475 
 1830      616C5F74 
 1830      696D6572 
 1830      735F6C69 
 1831              	.LASF93:
 1832 0339 63685F73 		.ascii	"ch_swc_event_t\000"
 1832      77635F65 
 1832      76656E74 
 1832      5F7400
 1833              	.LASF70:
 1834 0348 76745F6C 		.ascii	"vt_lasttime\000"
ARM GAS  C:\Users\Luis\AppData\Local\Temp\ccaYFvbx.s 			page 36


 1834      61737474 
 1834      696D6500 
 1835              	.LASF31:
 1836 0354 705F6F6C 		.ascii	"p_older\000"
 1836      64657200 
 1837              	.LASF56:
 1838 035c 725F6374 		.ascii	"r_ctx\000"
 1838      7800
 1839              	.LASF99:
 1840 0362 746D5F63 		.ascii	"tm_calibration_t\000"
 1840      616C6962 
 1840      72617469 
 1840      6F6E5F74 
 1840      00
 1841              	.LASF123:
 1842 0373 6D5F6E65 		.ascii	"m_next\000"
 1842      787400
 1843              	.LASF59:
 1844 037a 725F6375 		.ascii	"r_current\000"
 1844      7272656E 
 1844      7400
 1845              	.LASF58:
 1846 0384 725F6F6C 		.ascii	"r_older\000"
 1846      64657200 
 1847              	.LASF103:
 1848 038c 63756D75 		.ascii	"cumulative\000"
 1848      6C617469 
 1848      766500
 1849              	.LASF18:
 1850 0397 74726566 		.ascii	"trefs_t\000"
 1850      735F7400 
 1851              	.LASF96:
 1852 039f 74625F62 		.ascii	"tb_buffer\000"
 1852      75666665 
 1852      7200
 1853              	.LASF61:
 1854 03a9 76697274 		.ascii	"virtual_timer_t\000"
 1854      75616C5F 
 1854      74696D65 
 1854      725F7400 
 1855              	.LASF27:
 1856 03b9 705F7072 		.ascii	"p_prev\000"
 1856      657600
 1857              	.LASF19:
 1858 03c0 74707269 		.ascii	"tprio_t\000"
 1858      6F5F7400 
 1859              	.LASF106:
 1860 03c8 6E5F6374 		.ascii	"n_ctxswc\000"
 1860      78737763 
 1860      00
 1861              	.LASF126:
 1862 03d1 5F426F6F 		.ascii	"_Bool\000"
 1862      6C00
 1863              	.LASF7:
 1864 03d7 696E7433 		.ascii	"int32_t\000"
 1864      325F7400 
 1865              	.LASF2:
ARM GAS  C:\Users\Luis\AppData\Local\Temp\ccaYFvbx.s 			page 37


 1866 03df 756E7369 		.ascii	"unsigned char\000"
 1866      676E6564 
 1866      20636861 
 1866      7200
 1867              	.LASF41:
 1868 03ed 705F6D74 		.ascii	"p_mtxlist\000"
 1868      786C6973 
 1868      7400
 1869              	.LASF3:
 1870 03f7 73686F72 		.ascii	"short int\000"
 1870      7420696E 
 1870      7400
 1871              	.LASF34:
 1872 0401 705F7374 		.ascii	"p_state\000"
 1872      61746500 
 1873              	.LASF55:
 1874 0409 725F7072 		.ascii	"r_prio\000"
 1874      696F00
 1875              	.LASF116:
 1876 0410 65776D61 		.ascii	"ewmask\000"
 1876      736B00
 1877              	.LASF26:
 1878 0417 705F6E65 		.ascii	"p_next\000"
 1878      787400
 1879              	.LASF35:
 1880 041e 705F666C 		.ascii	"p_flags\000"
 1880      61677300 
 1881              	.LASF44:
 1882 0426 705F7374 		.ascii	"p_stats\000"
 1882      61747300 
 1883              	.LASF62:
 1884 042e 63685F76 		.ascii	"ch_virtual_timer\000"
 1884      69727475 
 1884      616C5F74 
 1884      696D6572 
 1884      00
 1885              	.LASF117:
 1886 043f 63685F73 		.ascii	"ch_semaphore\000"
 1886      656D6170 
 1886      686F7265 
 1886      00
 1887              	.LASF40:
 1888 044c 705F6570 		.ascii	"p_epending\000"
 1888      656E6469 
 1888      6E6700
 1889              	.LASF9:
 1890 0457 75696E74 		.ascii	"uint32_t\000"
 1890      33325F74 
 1890      00
 1891              	.LASF115:
 1892 0460 77746D74 		.ascii	"wtmtxp\000"
 1892      787000
 1893              	.LASF54:
 1894 0467 725F7175 		.ascii	"r_queue\000"
 1894      65756500 
 1895              	.LASF65:
 1896 046f 76745F64 		.ascii	"vt_delta\000"
ARM GAS  C:\Users\Luis\AppData\Local\Temp\ccaYFvbx.s 			page 38


 1896      656C7461 
 1896      00
 1897              	.LASF49:
 1898 0478 63685F74 		.ascii	"ch_threads_list\000"
 1898      68726561 
 1898      64735F6C 
 1898      69737400 
 1899              	.LASF10:
 1900 0488 6C6F6E67 		.ascii	"long unsigned int\000"
 1900      20756E73 
 1900      69676E65 
 1900      6420696E 
 1900      7400
 1901              	.LASF124:
 1902 049a 63686172 		.ascii	"char\000"
 1902      00
 1903              	.LASF134:
 1904 049f 474E5520 		.ascii	"GNU C 4.8.3 20131129 (release) [ARM/embedded-4_8-br"
 1904      4320342E 
 1904      382E3320 
 1904      32303133 
 1904      31313239 
 1905 04d2 616E6368 		.ascii	"anch revision 205641] -mcpu=cortex-m4 -mapcs-frame "
 1905      20726576 
 1905      6973696F 
 1905      6E203230 
 1905      35363431 
 1906 0505 2D6D6E6F 		.ascii	"-mno-thumb-interwork -mthumb -ggdb -O0 -falign-func"
 1906      2D746875 
 1906      6D622D69 
 1906      6E746572 
 1906      776F726B 
 1907 0538 74696F6E 		.ascii	"tions=16 -ffunction-sections -fdata-sections -fno-c"
 1907      733D3136 
 1907      202D6666 
 1907      756E6374 
 1907      696F6E2D 
 1908 056b 6F6D6D6F 		.ascii	"ommon\000"
 1908      6E00
 1909              	.LASF100:
 1910 0571 62657374 		.ascii	"best\000"
 1910      00
 1911              	.LASF135:
 1912 0576 2E2E2F2E 		.ascii	"../../ChibiOS/ext/lwip/src/core/def.c\000"
 1912      2E2F4368 
 1912      6962694F 
 1912      532F6578 
 1912      742F6C77 
 1913              	.LASF24:
 1914 059c 73797374 		.ascii	"systime_t\000"
 1914      696D655F 
 1914      7400
 1915              	.LASF42:
 1916 05a6 705F7265 		.ascii	"p_realprio\000"
 1916      616C7072 
 1916      696F00
 1917              	.LASF60:
ARM GAS  C:\Users\Luis\AppData\Local\Temp\ccaYFvbx.s 			page 39


 1918 05b1 76746675 		.ascii	"vtfunc_t\000"
 1918      6E635F74 
 1918      00
 1919              	.LASF73:
 1920 05ba 70616E69 		.ascii	"panic_msg\000"
 1920      635F6D73 
 1920      6700
 1921              	.LASF98:
 1922 05c4 6F666673 		.ascii	"offset\000"
 1922      657400
 1923              	.LASF87:
 1924 05cb 636F6E74 		.ascii	"context\000"
 1924      65787400 
 1925              	.LASF14:
 1926 05d3 7274636E 		.ascii	"rtcnt_t\000"
 1926      745F7400 
 1927              	.LASF67:
 1928 05db 76745F70 		.ascii	"vt_par\000"
 1928      617200
 1929              	.LASF127:
 1930 05e2 7531365F 		.ascii	"u16_t\000"
 1930      7400
 1931              	.LASF50:
 1932 05e8 74687265 		.ascii	"threads_queue_t\000"
 1932      6164735F 
 1932      71756575 
 1932      655F7400 
 1933              	.LASF120:
 1934 05f8 63685F6D 		.ascii	"ch_mutex\000"
 1934      75746578 
 1934      00
 1935              	.LASF36:
 1936 0601 705F7265 		.ascii	"p_refs\000"
 1936      667300
 1937              	.LASF74:
 1938 0608 6973725F 		.ascii	"isr_cnt\000"
 1938      636E7400 
 1939              	.LASF25:
 1940 0610 74687265 		.ascii	"thread_t\000"
 1940      61645F74 
 1940      00
 1941              	.LASF79:
 1942 0619 726C6973 		.ascii	"rlist\000"
 1942      7400
 1943              	.LASF4:
 1944 061f 75696E74 		.ascii	"uint8_t\000"
 1944      385F7400 
 1945              	.LASF112:
 1946 0627 77746F62 		.ascii	"wtobjp\000"
 1946      6A7000
 1947              	.LASF32:
 1948 062e 705F6E61 		.ascii	"p_name\000"
 1948      6D6500
 1949              	.LASF47:
 1950 0635 74687265 		.ascii	"threads_list_t\000"
 1950      6164735F 
 1950      6C697374 
ARM GAS  C:\Users\Luis\AppData\Local\Temp\ccaYFvbx.s 			page 40


 1950      5F7400
 1951              	.LASF76:
 1952 0644 74726163 		.ascii	"trace_buffer\000"
 1952      655F6275 
 1952      66666572 
 1952      00
 1953              	.LASF39:
 1954 0651 705F6D73 		.ascii	"p_msg\000"
 1954      6700
 1955              	.LASF107:
 1956 0657 6D5F6372 		.ascii	"m_crit_thd\000"
 1956      69745F74 
 1956      686400
 1957              	.LASF122:
 1958 0662 6D5F6F77 		.ascii	"m_owner\000"
 1958      6E657200 
 1959              	.LASF91:
 1960 066a 73655F77 		.ascii	"se_wtobjp\000"
 1960      746F626A 
 1960      7000
 1961              	.LASF29:
 1962 0674 705F6374 		.ascii	"p_ctx\000"
 1962      7800
 1963              	.LASF66:
 1964 067a 76745F66 		.ascii	"vt_func\000"
 1964      756E6300 
 1965              		.ident	"GCC: (GNU Tools for ARM Embedded Processors) 4.8.3 20131129 (release) [ARM/embedded-4_8-br
ARM GAS  C:\Users\Luis\AppData\Local\Temp\ccaYFvbx.s 			page 41


DEFINED SYMBOLS
                            *ABS*:00000000 def.c
C:\Users\Luis\AppData\Local\Temp\ccaYFvbx.s:19     .text.lwip_htons:00000000 $t
C:\Users\Luis\AppData\Local\Temp\ccaYFvbx.s:25     .text.lwip_htons:00000000 lwip_htons
C:\Users\Luis\AppData\Local\Temp\ccaYFvbx.s:64     .text.lwip_ntohs:00000000 $t
C:\Users\Luis\AppData\Local\Temp\ccaYFvbx.s:70     .text.lwip_ntohs:00000000 lwip_ntohs
C:\Users\Luis\AppData\Local\Temp\ccaYFvbx.s:101    .text.lwip_htonl:00000000 $t
C:\Users\Luis\AppData\Local\Temp\ccaYFvbx.s:107    .text.lwip_htonl:00000000 lwip_htonl
C:\Users\Luis\AppData\Local\Temp\ccaYFvbx.s:153    .text.lwip_ntohl:00000000 $t
C:\Users\Luis\AppData\Local\Temp\ccaYFvbx.s:159    .text.lwip_ntohl:00000000 lwip_ntohl
                     .debug_frame:00000010 $d

NO UNDEFINED SYMBOLS
