ARM GAS  C:\Users\Luis\AppData\Local\Temp\ccSH6HF5.s 			page 1


   1              		.syntax unified
   2              		.cpu cortex-m4
   3              		.fpu softvfp
   4              		.eabi_attribute 20, 1
   5              		.eabi_attribute 21, 1
   6              		.eabi_attribute 23, 3
   7              		.eabi_attribute 24, 1
   8              		.eabi_attribute 25, 1
   9              		.eabi_attribute 26, 1
  10              		.eabi_attribute 30, 6
  11              		.eabi_attribute 34, 1
  12              		.eabi_attribute 18, 4
  13              		.thumb
  14              		.file	"etharp.c"
  15              		.text
  16              	.Ltext0:
  17              		.cfi_sections	.debug_frame
  18              		.section	.text.osalSysHalt,"ax",%progbits
  19              		.align	2
  20              		.p2align 4,,15
  21              		.thumb
  22              		.thumb_func
  23              		.type	osalSysHalt, %function
  24              	osalSysHalt:
  25              	.LFB230:
  26              		.file 1 "../../ChibiOS/os/hal/osal/rt/osal.h"
  27              		.loc 1 460 0
  28              		.cfi_startproc
  29              		@ args = 0, pretend = 0, frame = 8
  30              		@ frame_needed = 1, uses_anonymous_args = 0
  31 0000 80B5     		push	{r7, lr}
  32              		.cfi_def_cfa_offset 8
  33              		.cfi_offset 7, -8
  34              		.cfi_offset 14, -4
  35 0002 82B0     		sub	sp, sp, #8
  36              		.cfi_def_cfa_offset 16
  37 0004 00AF     		add	r7, sp, #0
  38              		.cfi_def_cfa_register 7
  39 0006 7860     		str	r0, [r7, #4]
  40              		.loc 1 462 0
  41 0008 7868     		ldr	r0, [r7, #4]
  42 000a FFF7FEFF 		bl	chSysHalt
  43              		.loc 1 463 0
  44 000e 0837     		adds	r7, r7, #8
  45 0010 BD46     		mov	sp, r7
  46              		@ sp needed
  47 0012 80BD     		pop	{r7, pc}
  48              		.cfi_endproc
  49              	.LFE230:
  50              		.size	osalSysHalt, .-osalSysHalt
  51              		.global	ethbroadcast
  52 0014 AFF30080 		.section	.rodata.ethbroadcast,"a",%progbits
  52      AFF30080 
  52      AFF30080 
  53              		.align	2
  54              		.type	ethbroadcast, %object
  55              		.size	ethbroadcast, 6
ARM GAS  C:\Users\Luis\AppData\Local\Temp\ccSH6HF5.s 			page 2


  56              	ethbroadcast:
  57 0000 FF       		.byte	-1
  58 0001 FF       		.byte	-1
  59 0002 FF       		.byte	-1
  60 0003 FF       		.byte	-1
  61 0004 FF       		.byte	-1
  62 0005 FF       		.byte	-1
  63              		.global	ethzero
  64 0006 0000     		.section	.rodata.ethzero,"a",%progbits
  65              		.align	2
  66              		.type	ethzero, %object
  67              		.size	ethzero, 6
  68              	ethzero:
  69 0000 00000000 		.space	6
  69      0000
  70 0006 0000     		.section	.bss.arp_table,"aw",%nobits
  71              		.align	2
  72              		.type	arp_table, %object
  73              		.size	arp_table, 200
  74              	arp_table:
  75 0000 00000000 		.space	200
  75      00000000 
  75      00000000 
  75      00000000 
  75      00000000 
  76              		.section	.bss.etharp_cached_entry,"aw",%nobits
  77              		.type	etharp_cached_entry, %object
  78              		.size	etharp_cached_entry, 1
  79              	etharp_cached_entry:
  80 0000 00       		.space	1
  81              		.section	.text.etharp_free_entry,"ax",%progbits
  82              		.align	2
  83              		.p2align 4,,15
  84              		.thumb
  85              		.thumb_func
  86              		.type	etharp_free_entry, %function
  87              	etharp_free_entry:
  88              	.LFB260:
  89              		.file 2 "../../ChibiOS/ext/lwip/src/netif/etharp.c"
  90              		.loc 2 178 0
  91              		.cfi_startproc
  92              		@ args = 0, pretend = 0, frame = 8
  93              		@ frame_needed = 1, uses_anonymous_args = 0
  94 0000 80B5     		push	{r7, lr}
  95              		.cfi_def_cfa_offset 8
  96              		.cfi_offset 7, -8
  97              		.cfi_offset 14, -4
  98 0002 82B0     		sub	sp, sp, #8
  99              		.cfi_def_cfa_offset 16
 100 0004 00AF     		add	r7, sp, #0
 101              		.cfi_def_cfa_register 7
 102 0006 7860     		str	r0, [r7, #4]
 103              		.loc 2 182 0
 104 0008 1549     		ldr	r1, .L4
 105 000a 7A68     		ldr	r2, [r7, #4]
 106 000c 1346     		mov	r3, r2
 107 000e 9B00     		lsls	r3, r3, #2
ARM GAS  C:\Users\Luis\AppData\Local\Temp\ccSH6HF5.s 			page 3


 108 0010 1344     		add	r3, r3, r2
 109 0012 9B00     		lsls	r3, r3, #2
 110 0014 0B44     		add	r3, r3, r1
 111 0016 1B68     		ldr	r3, [r3]
 112 0018 002B     		cmp	r3, #0
 113 001a 13D0     		beq	.L3
 114              		.loc 2 185 0
 115 001c 1049     		ldr	r1, .L4
 116 001e 7A68     		ldr	r2, [r7, #4]
 117 0020 1346     		mov	r3, r2
 118 0022 9B00     		lsls	r3, r3, #2
 119 0024 1344     		add	r3, r3, r2
 120 0026 9B00     		lsls	r3, r3, #2
 121 0028 0B44     		add	r3, r3, r1
 122 002a 1B68     		ldr	r3, [r3]
 123 002c 1846     		mov	r0, r3
 124 002e FFF7FEFF 		bl	pbuf_free
 125              		.loc 2 186 0
 126 0032 0B49     		ldr	r1, .L4
 127 0034 7A68     		ldr	r2, [r7, #4]
 128 0036 1346     		mov	r3, r2
 129 0038 9B00     		lsls	r3, r3, #2
 130 003a 1344     		add	r3, r3, r2
 131 003c 9B00     		lsls	r3, r3, #2
 132 003e 0B44     		add	r3, r3, r1
 133 0040 0022     		movs	r2, #0
 134 0042 1A60     		str	r2, [r3]
 135              	.L3:
 136              		.loc 2 189 0
 137 0044 0649     		ldr	r1, .L4
 138 0046 7A68     		ldr	r2, [r7, #4]
 139 0048 1346     		mov	r3, r2
 140 004a 9B00     		lsls	r3, r3, #2
 141 004c 1344     		add	r3, r3, r2
 142 004e 9B00     		lsls	r3, r3, #2
 143 0050 0B44     		add	r3, r3, r1
 144 0052 1033     		adds	r3, r3, #16
 145 0054 0022     		movs	r2, #0
 146 0056 9A70     		strb	r2, [r3, #2]
 147              		.loc 2 197 0
 148 0058 0837     		adds	r7, r7, #8
 149 005a BD46     		mov	sp, r7
 150              		@ sp needed
 151 005c 80BD     		pop	{r7, pc}
 152              	.L5:
 153 005e 00BF     		.align	2
 154              	.L4:
 155 0060 00000000 		.word	arp_table
 156              		.cfi_endproc
 157              	.LFE260:
 158              		.size	etharp_free_entry, .-etharp_free_entry
 159 0064 AFF30080 		.section	.text.etharp_tmr,"ax",%progbits
 159      AFF30080 
 159      AFF30080 
 160              		.align	2
 161              		.p2align 4,,15
 162              		.global	etharp_tmr
ARM GAS  C:\Users\Luis\AppData\Local\Temp\ccSH6HF5.s 			page 4


 163              		.thumb
 164              		.thumb_func
 165              		.type	etharp_tmr, %function
 166              	etharp_tmr:
 167              	.LFB261:
 168              		.loc 2 207 0
 169              		.cfi_startproc
 170              		@ args = 0, pretend = 0, frame = 8
 171              		@ frame_needed = 1, uses_anonymous_args = 0
 172 0000 80B5     		push	{r7, lr}
 173              		.cfi_def_cfa_offset 8
 174              		.cfi_offset 7, -8
 175              		.cfi_offset 14, -4
 176 0002 82B0     		sub	sp, sp, #8
 177              		.cfi_def_cfa_offset 16
 178 0004 00AF     		add	r7, sp, #0
 179              		.cfi_def_cfa_register 7
 180              		.loc 2 212 0
 181 0006 0023     		movs	r3, #0
 182 0008 FB71     		strb	r3, [r7, #7]
 183 000a 5EE0     		b	.L7
 184              	.L11:
 185              	.LBB2:
 186              		.loc 2 213 0
 187 000c FA79     		ldrb	r2, [r7, #7]	@ zero_extendqisi2
 188 000e 3249     		ldr	r1, .L12
 189 0010 1346     		mov	r3, r2
 190 0012 9B00     		lsls	r3, r3, #2
 191 0014 1344     		add	r3, r3, r2
 192 0016 9B00     		lsls	r3, r3, #2
 193 0018 0B44     		add	r3, r3, r1
 194 001a 1033     		adds	r3, r3, #16
 195 001c 9B78     		ldrb	r3, [r3, #2]
 196 001e BB71     		strb	r3, [r7, #6]
 197              		.loc 2 214 0
 198 0020 BB79     		ldrb	r3, [r7, #6]	@ zero_extendqisi2
 199 0022 002B     		cmp	r3, #0
 200 0024 4ED0     		beq	.L8
 201              		.loc 2 219 0
 202 0026 FA79     		ldrb	r2, [r7, #7]	@ zero_extendqisi2
 203 0028 2B49     		ldr	r1, .L12
 204 002a 1346     		mov	r3, r2
 205 002c 9B00     		lsls	r3, r3, #2
 206 002e 1344     		add	r3, r3, r2
 207 0030 9B00     		lsls	r3, r3, #2
 208 0032 0B44     		add	r3, r3, r1
 209 0034 1033     		adds	r3, r3, #16
 210 0036 DB78     		ldrb	r3, [r3, #3]	@ zero_extendqisi2
 211 0038 0133     		adds	r3, r3, #1
 212 003a D9B2     		uxtb	r1, r3
 213 003c 2648     		ldr	r0, .L12
 214 003e 1346     		mov	r3, r2
 215 0040 9B00     		lsls	r3, r3, #2
 216 0042 1344     		add	r3, r3, r2
 217 0044 9B00     		lsls	r3, r3, #2
 218 0046 0344     		add	r3, r3, r0
 219 0048 1033     		adds	r3, r3, #16
ARM GAS  C:\Users\Luis\AppData\Local\Temp\ccSH6HF5.s 			page 5


 220 004a 0A46     		mov	r2, r1
 221 004c DA70     		strb	r2, [r3, #3]
 222              		.loc 2 220 0
 223 004e FA79     		ldrb	r2, [r7, #7]	@ zero_extendqisi2
 224 0050 2149     		ldr	r1, .L12
 225 0052 1346     		mov	r3, r2
 226 0054 9B00     		lsls	r3, r3, #2
 227 0056 1344     		add	r3, r3, r2
 228 0058 9B00     		lsls	r3, r3, #2
 229 005a 0B44     		add	r3, r3, r1
 230 005c 1033     		adds	r3, r3, #16
 231 005e DB78     		ldrb	r3, [r3, #3]	@ zero_extendqisi2
 232 0060 EF2B     		cmp	r3, #239
 233 0062 15D8     		bhi	.L9
 234              		.loc 2 221 0 discriminator 1
 235 0064 FA79     		ldrb	r2, [r7, #7]	@ zero_extendqisi2
 236 0066 1C49     		ldr	r1, .L12
 237 0068 1346     		mov	r3, r2
 238 006a 9B00     		lsls	r3, r3, #2
 239 006c 1344     		add	r3, r3, r2
 240 006e 9B00     		lsls	r3, r3, #2
 241 0070 0B44     		add	r3, r3, r1
 242 0072 1033     		adds	r3, r3, #16
 243 0074 9B78     		ldrb	r3, [r3, #2]	@ zero_extendqisi2
 244              		.loc 2 220 0 discriminator 1
 245 0076 012B     		cmp	r3, #1
 246 0078 0FD1     		bne	.L10
 247              		.loc 2 222 0
 248 007a FA79     		ldrb	r2, [r7, #7]	@ zero_extendqisi2
 249 007c 1649     		ldr	r1, .L12
 250 007e 1346     		mov	r3, r2
 251 0080 9B00     		lsls	r3, r3, #2
 252 0082 1344     		add	r3, r3, r2
 253 0084 9B00     		lsls	r3, r3, #2
 254 0086 0B44     		add	r3, r3, r1
 255 0088 1033     		adds	r3, r3, #16
 256 008a DB78     		ldrb	r3, [r3, #3]	@ zero_extendqisi2
 257              		.loc 2 221 0
 258 008c 012B     		cmp	r3, #1
 259 008e 04D9     		bls	.L10
 260              	.L9:
 261              		.loc 2 227 0
 262 0090 FB79     		ldrb	r3, [r7, #7]	@ zero_extendqisi2
 263 0092 1846     		mov	r0, r3
 264 0094 FFF7FEFF 		bl	etharp_free_entry
 265 0098 14E0     		b	.L8
 266              	.L10:
 267              		.loc 2 229 0
 268 009a FA79     		ldrb	r2, [r7, #7]	@ zero_extendqisi2
 269 009c 0E49     		ldr	r1, .L12
 270 009e 1346     		mov	r3, r2
 271 00a0 9B00     		lsls	r3, r3, #2
 272 00a2 1344     		add	r3, r3, r2
 273 00a4 9B00     		lsls	r3, r3, #2
 274 00a6 0B44     		add	r3, r3, r1
 275 00a8 1033     		adds	r3, r3, #16
 276 00aa 9B78     		ldrb	r3, [r3, #2]	@ zero_extendqisi2
ARM GAS  C:\Users\Luis\AppData\Local\Temp\ccSH6HF5.s 			page 6


 277 00ac 032B     		cmp	r3, #3
 278 00ae 09D1     		bne	.L8
 279              		.loc 2 232 0
 280 00b0 FA79     		ldrb	r2, [r7, #7]	@ zero_extendqisi2
 281 00b2 0949     		ldr	r1, .L12
 282 00b4 1346     		mov	r3, r2
 283 00b6 9B00     		lsls	r3, r3, #2
 284 00b8 1344     		add	r3, r3, r2
 285 00ba 9B00     		lsls	r3, r3, #2
 286 00bc 0B44     		add	r3, r3, r1
 287 00be 1033     		adds	r3, r3, #16
 288 00c0 0222     		movs	r2, #2
 289 00c2 9A70     		strb	r2, [r3, #2]
 290              	.L8:
 291              	.LBE2:
 292              		.loc 2 212 0
 293 00c4 FB79     		ldrb	r3, [r7, #7]
 294 00c6 0133     		adds	r3, r3, #1
 295 00c8 FB71     		strb	r3, [r7, #7]
 296              	.L7:
 297              		.loc 2 212 0 is_stmt 0 discriminator 1
 298 00ca FB79     		ldrb	r3, [r7, #7]	@ zero_extendqisi2
 299 00cc 092B     		cmp	r3, #9
 300 00ce 9DD9     		bls	.L11
 301              		.loc 2 242 0 is_stmt 1
 302 00d0 0837     		adds	r7, r7, #8
 303 00d2 BD46     		mov	sp, r7
 304              		@ sp needed
 305 00d4 80BD     		pop	{r7, pc}
 306              	.L13:
 307 00d6 00BF     		.align	2
 308              	.L12:
 309 00d8 00000000 		.word	arp_table
 310              		.cfi_endproc
 311              	.LFE261:
 312              		.size	etharp_tmr, .-etharp_tmr
 313 00dc AFF30080 		.section	.rodata
 314              		.align	2
 315              	.LC0:
 316 0000 73746174 		.ascii	"state == ETHARP_STATE_PENDING || state >= ETHARP_ST"
 316      65203D3D 
 316      20455448 
 316      4152505F 
 316      53544154 
 317 0033 4154455F 		.ascii	"ATE_STABLE\000"
 317      53544142 
 317      4C4500
 318 003e 0000     		.align	2
 319              	.LC1:
 320 0040 6172705F 		.ascii	"arp_table[i].q == NULL\000"
 320      7461626C 
 320      655B695D 
 320      2E71203D 
 320      3D204E55 
 321 0057 00       		.align	2
 322              	.LC2:
 323 0058 69203C20 		.ascii	"i < ARP_TABLE_SIZE\000"
ARM GAS  C:\Users\Luis\AppData\Local\Temp\ccSH6HF5.s 			page 7


 323      4152505F 
 323      5441424C 
 323      455F5349 
 323      5A4500
 324 006b 00       		.align	2
 325              	.LC3:
 326 006c 6172705F 		.ascii	"arp_table[i].state == ETHARP_STATE_EMPTY\000"
 326      7461626C 
 326      655B695D 
 326      2E737461 
 326      7465203D 
 327              		.section	.text.etharp_find_entry,"ax",%progbits
 328              		.align	2
 329              		.p2align 4,,15
 330              		.thumb
 331              		.thumb_func
 332              		.type	etharp_find_entry, %function
 333              	etharp_find_entry:
 334              	.LFB262:
 335              		.loc 2 267 0
 336              		.cfi_startproc
 337              		@ args = 0, pretend = 0, frame = 24
 338              		@ frame_needed = 1, uses_anonymous_args = 0
 339 0000 80B5     		push	{r7, lr}
 340              		.cfi_def_cfa_offset 8
 341              		.cfi_offset 7, -8
 342              		.cfi_offset 14, -4
 343 0002 86B0     		sub	sp, sp, #24
 344              		.cfi_def_cfa_offset 32
 345 0004 00AF     		add	r7, sp, #0
 346              		.cfi_def_cfa_register 7
 347 0006 7860     		str	r0, [r7, #4]
 348 0008 0B46     		mov	r3, r1
 349 000a FB70     		strb	r3, [r7, #3]
 350              		.loc 2 268 0
 351 000c 0A23     		movs	r3, #10
 352 000e FB75     		strb	r3, [r7, #23]
 353 0010 0A23     		movs	r3, #10
 354 0012 BB75     		strb	r3, [r7, #22]
 355              		.loc 2 269 0
 356 0014 0A23     		movs	r3, #10
 357 0016 7B75     		strb	r3, [r7, #21]
 358              		.loc 2 270 0
 359 0018 0023     		movs	r3, #0
 360 001a 3B75     		strb	r3, [r7, #20]
 361 001c 0023     		movs	r3, #0
 362 001e FB74     		strb	r3, [r7, #19]
 363 0020 0023     		movs	r3, #0
 364 0022 BB74     		strb	r3, [r7, #18]
 365              		.loc 2 272 0
 366 0024 0A23     		movs	r3, #10
 367 0026 7B74     		strb	r3, [r7, #17]
 368              		.loc 2 274 0
 369 0028 0023     		movs	r3, #0
 370 002a 3B74     		strb	r3, [r7, #16]
 371              		.loc 2 291 0
 372 002c 0023     		movs	r3, #0
ARM GAS  C:\Users\Luis\AppData\Local\Temp\ccSH6HF5.s 			page 8


 373 002e 3B75     		strb	r3, [r7, #20]
 374 0030 8EE0     		b	.L15
 375              	.L25:
 376              	.LBB3:
 377              		.loc 2 292 0
 378 0032 3A7D     		ldrb	r2, [r7, #20]	@ zero_extendqisi2
 379 0034 8449     		ldr	r1, .L39
 380 0036 1346     		mov	r3, r2
 381 0038 9B00     		lsls	r3, r3, #2
 382 003a 1344     		add	r3, r3, r2
 383 003c 9B00     		lsls	r3, r3, #2
 384 003e 0B44     		add	r3, r3, r1
 385 0040 1033     		adds	r3, r3, #16
 386 0042 9B78     		ldrb	r3, [r3, #2]
 387 0044 FB73     		strb	r3, [r7, #15]
 388              		.loc 2 294 0
 389 0046 97F91530 		ldrsb	r3, [r7, #21]
 390 004a 0A2B     		cmp	r3, #10
 391 004c 05D1     		bne	.L16
 392              		.loc 2 294 0 is_stmt 0 discriminator 1
 393 004e FB7B     		ldrb	r3, [r7, #15]	@ zero_extendqisi2
 394 0050 002B     		cmp	r3, #0
 395 0052 02D1     		bne	.L16
 396              		.loc 2 297 0 is_stmt 1
 397 0054 3B7D     		ldrb	r3, [r7, #20]
 398 0056 7B75     		strb	r3, [r7, #21]
 399 0058 77E0     		b	.L17
 400              	.L16:
 401              		.loc 2 298 0
 402 005a FB7B     		ldrb	r3, [r7, #15]	@ zero_extendqisi2
 403 005c 002B     		cmp	r3, #0
 404 005e 74D0     		beq	.L17
 405              		.loc 2 299 0
 406 0060 FB7B     		ldrb	r3, [r7, #15]	@ zero_extendqisi2
 407 0062 012B     		cmp	r3, #1
 408 0064 05D0     		beq	.L18
 409              		.loc 2 299 0 is_stmt 0 discriminator 1
 410 0066 FB7B     		ldrb	r3, [r7, #15]	@ zero_extendqisi2
 411 0068 012B     		cmp	r3, #1
 412 006a 02D8     		bhi	.L18
 413 006c 7748     		ldr	r0, .L39+4
 414 006e FFF7FEFF 		bl	osalSysHalt
 415              	.L18:
 416              		.loc 2 302 0 is_stmt 1
 417 0072 7B68     		ldr	r3, [r7, #4]
 418 0074 002B     		cmp	r3, #0
 419 0076 0ED0     		beq	.L19
 420              		.loc 2 302 0 is_stmt 0 discriminator 1
 421 0078 7B68     		ldr	r3, [r7, #4]
 422 007a 1968     		ldr	r1, [r3]
 423 007c 3A7D     		ldrb	r2, [r7, #20]	@ zero_extendqisi2
 424 007e 7248     		ldr	r0, .L39
 425 0080 1346     		mov	r3, r2
 426 0082 9B00     		lsls	r3, r3, #2
 427 0084 1344     		add	r3, r3, r2
 428 0086 9B00     		lsls	r3, r3, #2
 429 0088 0344     		add	r3, r3, r0
ARM GAS  C:\Users\Luis\AppData\Local\Temp\ccSH6HF5.s 			page 9


 430 008a 0433     		adds	r3, r3, #4
 431 008c 1B68     		ldr	r3, [r3]
 432 008e 9942     		cmp	r1, r3
 433 0090 01D1     		bne	.L19
 434              		.loc 2 305 0 is_stmt 1
 435 0092 3B7D     		ldrb	r3, [r7, #20]	@ zero_extendqisi2
 436 0094 D2E0     		b	.L20
 437              	.L19:
 438              		.loc 2 308 0
 439 0096 FB7B     		ldrb	r3, [r7, #15]	@ zero_extendqisi2
 440 0098 012B     		cmp	r3, #1
 441 009a 3BD1     		bne	.L21
 442              		.loc 2 310 0
 443 009c 3A7D     		ldrb	r2, [r7, #20]	@ zero_extendqisi2
 444 009e 6A49     		ldr	r1, .L39
 445 00a0 1346     		mov	r3, r2
 446 00a2 9B00     		lsls	r3, r3, #2
 447 00a4 1344     		add	r3, r3, r2
 448 00a6 9B00     		lsls	r3, r3, #2
 449 00a8 0B44     		add	r3, r3, r1
 450 00aa 1B68     		ldr	r3, [r3]
 451 00ac 002B     		cmp	r3, #0
 452 00ae 18D0     		beq	.L22
 453              		.loc 2 311 0
 454 00b0 3A7D     		ldrb	r2, [r7, #20]	@ zero_extendqisi2
 455 00b2 6549     		ldr	r1, .L39
 456 00b4 1346     		mov	r3, r2
 457 00b6 9B00     		lsls	r3, r3, #2
 458 00b8 1344     		add	r3, r3, r2
 459 00ba 9B00     		lsls	r3, r3, #2
 460 00bc 0B44     		add	r3, r3, r1
 461 00be 1033     		adds	r3, r3, #16
 462 00c0 DB78     		ldrb	r3, [r3, #3]	@ zero_extendqisi2
 463 00c2 3A7C     		ldrb	r2, [r7, #16]	@ zero_extendqisi2
 464 00c4 9A42     		cmp	r2, r3
 465 00c6 40D8     		bhi	.L17
 466              		.loc 2 312 0
 467 00c8 3B7D     		ldrb	r3, [r7, #20]
 468 00ca 7B74     		strb	r3, [r7, #17]
 469              		.loc 2 313 0
 470 00cc 3A7D     		ldrb	r2, [r7, #20]	@ zero_extendqisi2
 471 00ce 5E49     		ldr	r1, .L39
 472 00d0 1346     		mov	r3, r2
 473 00d2 9B00     		lsls	r3, r3, #2
 474 00d4 1344     		add	r3, r3, r2
 475 00d6 9B00     		lsls	r3, r3, #2
 476 00d8 0B44     		add	r3, r3, r1
 477 00da 1033     		adds	r3, r3, #16
 478 00dc DB78     		ldrb	r3, [r3, #3]
 479 00de 3B74     		strb	r3, [r7, #16]
 480 00e0 33E0     		b	.L17
 481              	.L22:
 482              		.loc 2 318 0
 483 00e2 3A7D     		ldrb	r2, [r7, #20]	@ zero_extendqisi2
 484 00e4 5849     		ldr	r1, .L39
 485 00e6 1346     		mov	r3, r2
 486 00e8 9B00     		lsls	r3, r3, #2
ARM GAS  C:\Users\Luis\AppData\Local\Temp\ccSH6HF5.s 			page 10


 487 00ea 1344     		add	r3, r3, r2
 488 00ec 9B00     		lsls	r3, r3, #2
 489 00ee 0B44     		add	r3, r3, r1
 490 00f0 1033     		adds	r3, r3, #16
 491 00f2 DB78     		ldrb	r3, [r3, #3]	@ zero_extendqisi2
 492 00f4 FA7C     		ldrb	r2, [r7, #19]	@ zero_extendqisi2
 493 00f6 9A42     		cmp	r2, r3
 494 00f8 27D8     		bhi	.L17
 495              		.loc 2 319 0
 496 00fa 3B7D     		ldrb	r3, [r7, #20]
 497 00fc FB75     		strb	r3, [r7, #23]
 498              		.loc 2 320 0
 499 00fe 3A7D     		ldrb	r2, [r7, #20]	@ zero_extendqisi2
 500 0100 5149     		ldr	r1, .L39
 501 0102 1346     		mov	r3, r2
 502 0104 9B00     		lsls	r3, r3, #2
 503 0106 1344     		add	r3, r3, r2
 504 0108 9B00     		lsls	r3, r3, #2
 505 010a 0B44     		add	r3, r3, r1
 506 010c 1033     		adds	r3, r3, #16
 507 010e DB78     		ldrb	r3, [r3, #3]
 508 0110 FB74     		strb	r3, [r7, #19]
 509 0112 1AE0     		b	.L17
 510              	.L21:
 511              		.loc 2 324 0
 512 0114 FB7B     		ldrb	r3, [r7, #15]	@ zero_extendqisi2
 513 0116 012B     		cmp	r3, #1
 514 0118 17D9     		bls	.L17
 515              		.loc 2 331 0
 516 011a 3A7D     		ldrb	r2, [r7, #20]	@ zero_extendqisi2
 517 011c 4A49     		ldr	r1, .L39
 518 011e 1346     		mov	r3, r2
 519 0120 9B00     		lsls	r3, r3, #2
 520 0122 1344     		add	r3, r3, r2
 521 0124 9B00     		lsls	r3, r3, #2
 522 0126 0B44     		add	r3, r3, r1
 523 0128 1033     		adds	r3, r3, #16
 524 012a DB78     		ldrb	r3, [r3, #3]	@ zero_extendqisi2
 525 012c BA7C     		ldrb	r2, [r7, #18]	@ zero_extendqisi2
 526 012e 9A42     		cmp	r2, r3
 527 0130 0BD8     		bhi	.L17
 528              		.loc 2 332 0
 529 0132 3B7D     		ldrb	r3, [r7, #20]
 530 0134 BB75     		strb	r3, [r7, #22]
 531              		.loc 2 333 0
 532 0136 3A7D     		ldrb	r2, [r7, #20]	@ zero_extendqisi2
 533 0138 4349     		ldr	r1, .L39
 534 013a 1346     		mov	r3, r2
 535 013c 9B00     		lsls	r3, r3, #2
 536 013e 1344     		add	r3, r3, r2
 537 0140 9B00     		lsls	r3, r3, #2
 538 0142 0B44     		add	r3, r3, r1
 539 0144 1033     		adds	r3, r3, #16
 540 0146 DB78     		ldrb	r3, [r3, #3]
 541 0148 BB74     		strb	r3, [r7, #18]
 542              	.L17:
 543              	.LBE3:
ARM GAS  C:\Users\Luis\AppData\Local\Temp\ccSH6HF5.s 			page 11


 544              		.loc 2 291 0
 545 014a 3B7D     		ldrb	r3, [r7, #20]
 546 014c 0133     		adds	r3, r3, #1
 547 014e 3B75     		strb	r3, [r7, #20]
 548              	.L15:
 549              		.loc 2 291 0 is_stmt 0 discriminator 1
 550 0150 3B7D     		ldrb	r3, [r7, #20]	@ zero_extendqisi2
 551 0152 092B     		cmp	r3, #9
 552 0154 7FF66DAF 		bls	.L25
 553              		.loc 2 342 0 is_stmt 1
 554 0158 FB78     		ldrb	r3, [r7, #3]	@ zero_extendqisi2
 555 015a 03F00203 		and	r3, r3, #2
 556 015e 002B     		cmp	r3, #0
 557 0160 08D1     		bne	.L26
 558              		.loc 2 342 0 is_stmt 0 discriminator 1
 559 0162 97F91530 		ldrsb	r3, [r7, #21]
 560 0166 0A2B     		cmp	r3, #10
 561 0168 06D1     		bne	.L27
 562              		.loc 2 344 0 is_stmt 1
 563 016a FB78     		ldrb	r3, [r7, #3]	@ zero_extendqisi2
 564 016c 03F00103 		and	r3, r3, #1
 565 0170 002B     		cmp	r3, #0
 566 0172 01D1     		bne	.L27
 567              	.L26:
 568              		.loc 2 346 0
 569 0174 FF23     		movs	r3, #255
 570 0176 61E0     		b	.L20
 571              	.L27:
 572              		.loc 2 359 0
 573 0178 97F91530 		ldrsb	r3, [r7, #21]
 574 017c 092B     		cmp	r3, #9
 575 017e 02DC     		bgt	.L28
 576              		.loc 2 360 0
 577 0180 7B7D     		ldrb	r3, [r7, #21]
 578 0182 3B75     		strb	r3, [r7, #20]
 579 0184 2DE0     		b	.L29
 580              	.L28:
 581              		.loc 2 364 0
 582 0186 97F91630 		ldrsb	r3, [r7, #22]
 583 018a 092B     		cmp	r3, #9
 584 018c 0FDC     		bgt	.L30
 585              		.loc 2 366 0
 586 018e BB7D     		ldrb	r3, [r7, #22]
 587 0190 3B75     		strb	r3, [r7, #20]
 588              		.loc 2 369 0
 589 0192 3A7D     		ldrb	r2, [r7, #20]	@ zero_extendqisi2
 590 0194 2C49     		ldr	r1, .L39
 591 0196 1346     		mov	r3, r2
 592 0198 9B00     		lsls	r3, r3, #2
 593 019a 1344     		add	r3, r3, r2
 594 019c 9B00     		lsls	r3, r3, #2
 595 019e 0B44     		add	r3, r3, r1
 596 01a0 1B68     		ldr	r3, [r3]
 597 01a2 002B     		cmp	r3, #0
 598 01a4 13D0     		beq	.L32
 599              		.loc 2 369 0 is_stmt 0 discriminator 1
 600 01a6 2A48     		ldr	r0, .L39+8
ARM GAS  C:\Users\Luis\AppData\Local\Temp\ccSH6HF5.s 			page 12


 601 01a8 FFF7FEFF 		bl	osalSysHalt
 602 01ac 0FE0     		b	.L32
 603              	.L30:
 604              		.loc 2 371 0 is_stmt 1
 605 01ae 97F91730 		ldrsb	r3, [r7, #23]
 606 01b2 092B     		cmp	r3, #9
 607 01b4 02DC     		bgt	.L33
 608              		.loc 2 373 0
 609 01b6 FB7D     		ldrb	r3, [r7, #23]
 610 01b8 3B75     		strb	r3, [r7, #20]
 611 01ba 08E0     		b	.L32
 612              	.L33:
 613              		.loc 2 376 0
 614 01bc 97F91130 		ldrsb	r3, [r7, #17]
 615 01c0 092B     		cmp	r3, #9
 616 01c2 02DC     		bgt	.L34
 617              		.loc 2 378 0
 618 01c4 7B7C     		ldrb	r3, [r7, #17]
 619 01c6 3B75     		strb	r3, [r7, #20]
 620 01c8 01E0     		b	.L32
 621              	.L34:
 622              		.loc 2 383 0
 623 01ca FF23     		movs	r3, #255
 624 01cc 36E0     		b	.L20
 625              	.L32:
 626              		.loc 2 387 0
 627 01ce 3B7D     		ldrb	r3, [r7, #20]	@ zero_extendqisi2
 628 01d0 092B     		cmp	r3, #9
 629 01d2 02D9     		bls	.L35
 630              		.loc 2 387 0 is_stmt 0 discriminator 1
 631 01d4 1F48     		ldr	r0, .L39+12
 632 01d6 FFF7FEFF 		bl	osalSysHalt
 633              	.L35:
 634              		.loc 2 388 0 is_stmt 1
 635 01da 3B7D     		ldrb	r3, [r7, #20]	@ zero_extendqisi2
 636 01dc 1846     		mov	r0, r3
 637 01de FFF7FEFF 		bl	etharp_free_entry
 638              	.L29:
 639              		.loc 2 391 0
 640 01e2 3B7D     		ldrb	r3, [r7, #20]	@ zero_extendqisi2
 641 01e4 092B     		cmp	r3, #9
 642 01e6 02D9     		bls	.L36
 643              		.loc 2 391 0 is_stmt 0 discriminator 1
 644 01e8 1A48     		ldr	r0, .L39+12
 645 01ea FFF7FEFF 		bl	osalSysHalt
 646              	.L36:
 647              		.loc 2 392 0 is_stmt 1
 648 01ee 3A7D     		ldrb	r2, [r7, #20]	@ zero_extendqisi2
 649 01f0 1549     		ldr	r1, .L39
 650 01f2 1346     		mov	r3, r2
 651 01f4 9B00     		lsls	r3, r3, #2
 652 01f6 1344     		add	r3, r3, r2
 653 01f8 9B00     		lsls	r3, r3, #2
 654 01fa 0B44     		add	r3, r3, r1
 655 01fc 1033     		adds	r3, r3, #16
 656 01fe 9B78     		ldrb	r3, [r3, #2]	@ zero_extendqisi2
 657 0200 002B     		cmp	r3, #0
ARM GAS  C:\Users\Luis\AppData\Local\Temp\ccSH6HF5.s 			page 13


 658 0202 02D0     		beq	.L37
 659              		.loc 2 392 0 is_stmt 0 discriminator 1
 660 0204 1448     		ldr	r0, .L39+16
 661 0206 FFF7FEFF 		bl	osalSysHalt
 662              	.L37:
 663              		.loc 2 396 0 is_stmt 1
 664 020a 7B68     		ldr	r3, [r7, #4]
 665 020c 002B     		cmp	r3, #0
 666 020e 0AD0     		beq	.L38
 667              		.loc 2 398 0
 668 0210 3A7D     		ldrb	r2, [r7, #20]	@ zero_extendqisi2
 669 0212 7B68     		ldr	r3, [r7, #4]
 670 0214 1968     		ldr	r1, [r3]
 671 0216 0C48     		ldr	r0, .L39
 672 0218 1346     		mov	r3, r2
 673 021a 9B00     		lsls	r3, r3, #2
 674 021c 1344     		add	r3, r3, r2
 675 021e 9B00     		lsls	r3, r3, #2
 676 0220 0344     		add	r3, r3, r0
 677 0222 0433     		adds	r3, r3, #4
 678 0224 1960     		str	r1, [r3]
 679              	.L38:
 680              		.loc 2 400 0
 681 0226 3A7D     		ldrb	r2, [r7, #20]	@ zero_extendqisi2
 682 0228 0749     		ldr	r1, .L39
 683 022a 1346     		mov	r3, r2
 684 022c 9B00     		lsls	r3, r3, #2
 685 022e 1344     		add	r3, r3, r2
 686 0230 9B00     		lsls	r3, r3, #2
 687 0232 0B44     		add	r3, r3, r1
 688 0234 1033     		adds	r3, r3, #16
 689 0236 0022     		movs	r2, #0
 690 0238 DA70     		strb	r2, [r3, #3]
 691              		.loc 2 401 0
 692 023a 3B7D     		ldrb	r3, [r7, #20]	@ zero_extendqisi2
 693              	.L20:
 694 023c 5BB2     		sxtb	r3, r3
 695              		.loc 2 402 0
 696 023e 1846     		mov	r0, r3
 697 0240 1837     		adds	r7, r7, #24
 698 0242 BD46     		mov	sp, r7
 699              		@ sp needed
 700 0244 80BD     		pop	{r7, pc}
 701              	.L40:
 702 0246 00BF     		.align	2
 703              	.L39:
 704 0248 00000000 		.word	arp_table
 705 024c 00000000 		.word	.LC0
 706 0250 40000000 		.word	.LC1
 707 0254 58000000 		.word	.LC2
 708 0258 6C000000 		.word	.LC3
 709              		.cfi_endproc
 710              	.LFE262:
 711              		.size	etharp_find_entry, .-etharp_find_entry
 712 025c AFF30080 		.section	.rodata
 713 0095 000000   		.align	2
 714              	.LC4:
ARM GAS  C:\Users\Luis\AppData\Local\Temp\ccSH6HF5.s 			page 14


 715 0098 6E657469 		.ascii	"netif->hwaddr_len must be the same as ETHARP_HWADDR"
 715      662D3E68 
 715      77616464 
 715      725F6C65 
 715      6E206D75 
 716 00cb 5F4C454E 		.ascii	"_LEN for etharp!\000"
 716      20666F72 
 716      20657468 
 716      61727021 
 716      00
 717              		.section	.text.etharp_send_ip,"ax",%progbits
 718              		.align	2
 719              		.p2align 4,,15
 720              		.thumb
 721              		.thumb_func
 722              		.type	etharp_send_ip, %function
 723              	etharp_send_ip:
 724              	.LFB263:
 725              		.loc 2 416 0
 726              		.cfi_startproc
 727              		@ args = 0, pretend = 0, frame = 24
 728              		@ frame_needed = 1, uses_anonymous_args = 0
 729 0000 80B5     		push	{r7, lr}
 730              		.cfi_def_cfa_offset 8
 731              		.cfi_offset 7, -8
 732              		.cfi_offset 14, -4
 733 0002 86B0     		sub	sp, sp, #24
 734              		.cfi_def_cfa_offset 32
 735 0004 00AF     		add	r7, sp, #0
 736              		.cfi_def_cfa_register 7
 737 0006 F860     		str	r0, [r7, #12]
 738 0008 B960     		str	r1, [r7, #8]
 739 000a 7A60     		str	r2, [r7, #4]
 740 000c 3B60     		str	r3, [r7]
 741              		.loc 2 417 0
 742 000e BB68     		ldr	r3, [r7, #8]
 743 0010 5B68     		ldr	r3, [r3, #4]
 744 0012 7B61     		str	r3, [r7, #20]
 745              		.loc 2 419 0
 746 0014 FB68     		ldr	r3, [r7, #12]
 747 0016 93F82230 		ldrb	r3, [r3, #34]	@ zero_extendqisi2
 748 001a 062B     		cmp	r3, #6
 749 001c 02D0     		beq	.L42
 750              		.loc 2 419 0 is_stmt 0 discriminator 1
 751 001e 1048     		ldr	r0, .L44
 752 0020 FFF7FEFF 		bl	osalSysHalt
 753              	.L42:
 754              		.loc 2 421 0 is_stmt 1
 755 0024 7B69     		ldr	r3, [r7, #20]
 756 0026 1846     		mov	r0, r3
 757 0028 3968     		ldr	r1, [r7]
 758 002a 0622     		movs	r2, #6
 759 002c FFF7FEFF 		bl	memcpy
 760              		.loc 2 422 0
 761 0030 7B69     		ldr	r3, [r7, #20]
 762 0032 0633     		adds	r3, r3, #6
 763 0034 1846     		mov	r0, r3
ARM GAS  C:\Users\Luis\AppData\Local\Temp\ccSH6HF5.s 			page 15


 764 0036 7968     		ldr	r1, [r7, #4]
 765 0038 0622     		movs	r2, #6
 766 003a FFF7FEFF 		bl	memcpy
 767              		.loc 2 423 0
 768 003e 7B69     		ldr	r3, [r7, #20]
 769 0040 0022     		movs	r2, #0
 770 0042 42F00802 		orr	r2, r2, #8
 771 0046 1A73     		strb	r2, [r3, #12]
 772 0048 0022     		movs	r2, #0
 773 004a 5A73     		strb	r2, [r3, #13]
 774              		.loc 2 426 0
 775 004c FB68     		ldr	r3, [r7, #12]
 776 004e 9B69     		ldr	r3, [r3, #24]
 777 0050 F868     		ldr	r0, [r7, #12]
 778 0052 B968     		ldr	r1, [r7, #8]
 779 0054 9847     		blx	r3
 780 0056 0346     		mov	r3, r0
 781              		.loc 2 427 0
 782 0058 1846     		mov	r0, r3
 783 005a 1837     		adds	r7, r7, #24
 784 005c BD46     		mov	sp, r7
 785              		@ sp needed
 786 005e 80BD     		pop	{r7, pc}
 787              	.L45:
 788              		.align	2
 789              	.L44:
 790 0060 98000000 		.word	.LC4
 791              		.cfi_endproc
 792              	.LFE263:
 793              		.size	etharp_send_ip, .-etharp_send_ip
 794 0064 AFF30080 		.section	.rodata
 794      AFF30080 
 794      AFF30080 
 795              		.align	2
 796              	.LC5:
 797 00dc 6E657469 		.ascii	"netif->hwaddr_len == ETHARP_HWADDR_LEN\000"
 797      662D3E68 
 797      77616464 
 797      725F6C65 
 797      6E203D3D 
 798              		.section	.text.etharp_update_arp_entry,"ax",%progbits
 799              		.align	2
 800              		.p2align 4,,15
 801              		.thumb
 802              		.thumb_func
 803              		.type	etharp_update_arp_entry, %function
 804              	etharp_update_arp_entry:
 805              	.LFB264:
 806              		.loc 2 449 0
 807              		.cfi_startproc
 808              		@ args = 0, pretend = 0, frame = 24
 809              		@ frame_needed = 1, uses_anonymous_args = 0
 810 0000 80B5     		push	{r7, lr}
 811              		.cfi_def_cfa_offset 8
 812              		.cfi_offset 7, -8
 813              		.cfi_offset 14, -4
 814 0002 86B0     		sub	sp, sp, #24
ARM GAS  C:\Users\Luis\AppData\Local\Temp\ccSH6HF5.s 			page 16


 815              		.cfi_def_cfa_offset 32
 816 0004 00AF     		add	r7, sp, #0
 817              		.cfi_def_cfa_register 7
 818 0006 F860     		str	r0, [r7, #12]
 819 0008 B960     		str	r1, [r7, #8]
 820 000a 7A60     		str	r2, [r7, #4]
 821 000c FB70     		strb	r3, [r7, #3]
 822              		.loc 2 451 0
 823 000e FB68     		ldr	r3, [r7, #12]
 824 0010 93F82230 		ldrb	r3, [r3, #34]	@ zero_extendqisi2
 825 0014 062B     		cmp	r3, #6
 826 0016 02D0     		beq	.L47
 827              		.loc 2 451 0 is_stmt 0 discriminator 1
 828 0018 4448     		ldr	r0, .L53
 829 001a FFF7FEFF 		bl	osalSysHalt
 830              	.L47:
 831              		.loc 2 457 0 is_stmt 1
 832 001e BB68     		ldr	r3, [r7, #8]
 833 0020 002B     		cmp	r3, #0
 834 0022 12D0     		beq	.L48
 835              		.loc 2 457 0 is_stmt 0 discriminator 1
 836 0024 BB68     		ldr	r3, [r7, #8]
 837 0026 1B68     		ldr	r3, [r3]
 838 0028 002B     		cmp	r3, #0
 839 002a 0ED0     		beq	.L48
 840              		.loc 2 458 0 is_stmt 1 discriminator 1
 841 002c BB68     		ldr	r3, [r7, #8]
 842 002e 1B68     		ldr	r3, [r3]
 843 0030 1846     		mov	r0, r3
 844 0032 F968     		ldr	r1, [r7, #12]
 845 0034 FFF7FEFF 		bl	ip4_addr_isbroadcast
 846 0038 0346     		mov	r3, r0
 847              		.loc 2 457 0 discriminator 1
 848 003a 002B     		cmp	r3, #0
 849 003c 05D1     		bne	.L48
 850              		.loc 2 459 0
 851 003e BB68     		ldr	r3, [r7, #8]
 852 0040 1B68     		ldr	r3, [r3]
 853 0042 03F0F003 		and	r3, r3, #240
 854              		.loc 2 458 0
 855 0046 E02B     		cmp	r3, #224
 856 0048 01D1     		bne	.L49
 857              	.L48:
 858              		.loc 2 461 0
 859 004a F223     		movs	r3, #242
 860 004c 68E0     		b	.L50
 861              	.L49:
 862              		.loc 2 464 0
 863 004e FB78     		ldrb	r3, [r7, #3]	@ zero_extendqisi2
 864 0050 B868     		ldr	r0, [r7, #8]
 865 0052 1946     		mov	r1, r3
 866 0054 FFF7FEFF 		bl	etharp_find_entry
 867 0058 0346     		mov	r3, r0
 868 005a FB75     		strb	r3, [r7, #23]
 869              		.loc 2 466 0
 870 005c 97F91730 		ldrsb	r3, [r7, #23]
 871 0060 002B     		cmp	r3, #0
ARM GAS  C:\Users\Luis\AppData\Local\Temp\ccSH6HF5.s 			page 17


 872 0062 01DA     		bge	.L51
 873              		.loc 2 467 0
 874 0064 FB7D     		ldrb	r3, [r7, #23]	@ zero_extendqisi2
 875 0066 5BE0     		b	.L50
 876              	.L51:
 877              		.loc 2 478 0
 878 0068 97F91720 		ldrsb	r2, [r7, #23]
 879 006c 3049     		ldr	r1, .L53+4
 880 006e 1346     		mov	r3, r2
 881 0070 9B00     		lsls	r3, r3, #2
 882 0072 1344     		add	r3, r3, r2
 883 0074 9B00     		lsls	r3, r3, #2
 884 0076 0B44     		add	r3, r3, r1
 885 0078 1033     		adds	r3, r3, #16
 886 007a 0222     		movs	r2, #2
 887 007c 9A70     		strb	r2, [r3, #2]
 888              		.loc 2 482 0
 889 007e 97F91720 		ldrsb	r2, [r7, #23]
 890 0082 2B49     		ldr	r1, .L53+4
 891 0084 1346     		mov	r3, r2
 892 0086 9B00     		lsls	r3, r3, #2
 893 0088 1344     		add	r3, r3, r2
 894 008a 9B00     		lsls	r3, r3, #2
 895 008c 0B44     		add	r3, r3, r1
 896 008e 0833     		adds	r3, r3, #8
 897 0090 FA68     		ldr	r2, [r7, #12]
 898 0092 1A60     		str	r2, [r3]
 899              		.loc 2 488 0
 900 0094 97F91720 		ldrsb	r2, [r7, #23]
 901 0098 1346     		mov	r3, r2
 902 009a 9B00     		lsls	r3, r3, #2
 903 009c 1344     		add	r3, r3, r2
 904 009e 9B00     		lsls	r3, r3, #2
 905 00a0 03F10802 		add	r2, r3, #8
 906 00a4 224B     		ldr	r3, .L53+4
 907 00a6 1344     		add	r3, r3, r2
 908 00a8 0433     		adds	r3, r3, #4
 909 00aa 7A68     		ldr	r2, [r7, #4]
 910 00ac 1168     		ldr	r1, [r2]	@ unaligned
 911 00ae 1960     		str	r1, [r3]	@ unaligned
 912 00b0 9288     		ldrh	r2, [r2, #4]	@ unaligned
 913 00b2 9A80     		strh	r2, [r3, #4]	@ unaligned
 914              		.loc 2 490 0
 915 00b4 97F91720 		ldrsb	r2, [r7, #23]
 916 00b8 1D49     		ldr	r1, .L53+4
 917 00ba 1346     		mov	r3, r2
 918 00bc 9B00     		lsls	r3, r3, #2
 919 00be 1344     		add	r3, r3, r2
 920 00c0 9B00     		lsls	r3, r3, #2
 921 00c2 0B44     		add	r3, r3, r1
 922 00c4 1033     		adds	r3, r3, #16
 923 00c6 0022     		movs	r2, #0
 924 00c8 DA70     		strb	r2, [r3, #3]
 925              		.loc 2 504 0
 926 00ca 97F91720 		ldrsb	r2, [r7, #23]
 927 00ce 1849     		ldr	r1, .L53+4
 928 00d0 1346     		mov	r3, r2
ARM GAS  C:\Users\Luis\AppData\Local\Temp\ccSH6HF5.s 			page 18


 929 00d2 9B00     		lsls	r3, r3, #2
 930 00d4 1344     		add	r3, r3, r2
 931 00d6 9B00     		lsls	r3, r3, #2
 932 00d8 0B44     		add	r3, r3, r1
 933 00da 1B68     		ldr	r3, [r3]
 934 00dc 002B     		cmp	r3, #0
 935 00de 1ED0     		beq	.L52
 936              	.LBB4:
 937              		.loc 2 505 0
 938 00e0 97F91720 		ldrsb	r2, [r7, #23]
 939 00e4 1249     		ldr	r1, .L53+4
 940 00e6 1346     		mov	r3, r2
 941 00e8 9B00     		lsls	r3, r3, #2
 942 00ea 1344     		add	r3, r3, r2
 943 00ec 9B00     		lsls	r3, r3, #2
 944 00ee 0B44     		add	r3, r3, r1
 945 00f0 1B68     		ldr	r3, [r3]
 946 00f2 3B61     		str	r3, [r7, #16]
 947              		.loc 2 506 0
 948 00f4 97F91720 		ldrsb	r2, [r7, #23]
 949 00f8 0D49     		ldr	r1, .L53+4
 950 00fa 1346     		mov	r3, r2
 951 00fc 9B00     		lsls	r3, r3, #2
 952 00fe 1344     		add	r3, r3, r2
 953 0100 9B00     		lsls	r3, r3, #2
 954 0102 0B44     		add	r3, r3, r1
 955 0104 0022     		movs	r2, #0
 956 0106 1A60     		str	r2, [r3]
 957              		.loc 2 509 0
 958 0108 FB68     		ldr	r3, [r7, #12]
 959 010a 2333     		adds	r3, r3, #35
 960 010c F868     		ldr	r0, [r7, #12]
 961 010e 3969     		ldr	r1, [r7, #16]
 962 0110 1A46     		mov	r2, r3
 963 0112 7B68     		ldr	r3, [r7, #4]
 964 0114 FFF7FEFF 		bl	etharp_send_ip
 965              		.loc 2 511 0
 966 0118 3869     		ldr	r0, [r7, #16]
 967 011a FFF7FEFF 		bl	pbuf_free
 968              	.L52:
 969              	.LBE4:
 970              		.loc 2 513 0
 971 011e 0023     		movs	r3, #0
 972              	.L50:
 973 0120 5BB2     		sxtb	r3, r3
 974              		.loc 2 514 0
 975 0122 1846     		mov	r0, r3
 976 0124 1837     		adds	r7, r7, #24
 977 0126 BD46     		mov	sp, r7
 978              		@ sp needed
 979 0128 80BD     		pop	{r7, pc}
 980              	.L54:
 981 012a 00BF     		.align	2
 982              	.L53:
 983 012c DC000000 		.word	.LC5
 984 0130 00000000 		.word	arp_table
 985              		.cfi_endproc
ARM GAS  C:\Users\Luis\AppData\Local\Temp\ccSH6HF5.s 			page 19


 986              	.LFE264:
 987              		.size	etharp_update_arp_entry, .-etharp_update_arp_entry
 988 0134 AFF30080 		.section	.text.etharp_cleanup_netif,"ax",%progbits
 988      AFF30080 
 988      AFF30080 
 989              		.align	2
 990              		.p2align 4,,15
 991              		.global	etharp_cleanup_netif
 992              		.thumb
 993              		.thumb_func
 994              		.type	etharp_cleanup_netif, %function
 995              	etharp_cleanup_netif:
 996              	.LFB265:
 997              		.loc 2 580 0
 998              		.cfi_startproc
 999              		@ args = 0, pretend = 0, frame = 16
 1000              		@ frame_needed = 1, uses_anonymous_args = 0
 1001 0000 80B5     		push	{r7, lr}
 1002              		.cfi_def_cfa_offset 8
 1003              		.cfi_offset 7, -8
 1004              		.cfi_offset 14, -4
 1005 0002 84B0     		sub	sp, sp, #16
 1006              		.cfi_def_cfa_offset 24
 1007 0004 00AF     		add	r7, sp, #0
 1008              		.cfi_def_cfa_register 7
 1009 0006 7860     		str	r0, [r7, #4]
 1010              		.loc 2 583 0
 1011 0008 0023     		movs	r3, #0
 1012 000a FB73     		strb	r3, [r7, #15]
 1013 000c 1FE0     		b	.L56
 1014              	.L58:
 1015              	.LBB5:
 1016              		.loc 2 584 0
 1017 000e FA7B     		ldrb	r2, [r7, #15]	@ zero_extendqisi2
 1018 0010 1249     		ldr	r1, .L59
 1019 0012 1346     		mov	r3, r2
 1020 0014 9B00     		lsls	r3, r3, #2
 1021 0016 1344     		add	r3, r3, r2
 1022 0018 9B00     		lsls	r3, r3, #2
 1023 001a 0B44     		add	r3, r3, r1
 1024 001c 1033     		adds	r3, r3, #16
 1025 001e 9B78     		ldrb	r3, [r3, #2]
 1026 0020 BB73     		strb	r3, [r7, #14]
 1027              		.loc 2 585 0
 1028 0022 BB7B     		ldrb	r3, [r7, #14]	@ zero_extendqisi2
 1029 0024 002B     		cmp	r3, #0
 1030 0026 0FD0     		beq	.L57
 1031              		.loc 2 585 0 is_stmt 0 discriminator 1
 1032 0028 FA7B     		ldrb	r2, [r7, #15]	@ zero_extendqisi2
 1033 002a 0C49     		ldr	r1, .L59
 1034 002c 1346     		mov	r3, r2
 1035 002e 9B00     		lsls	r3, r3, #2
 1036 0030 1344     		add	r3, r3, r2
 1037 0032 9B00     		lsls	r3, r3, #2
 1038 0034 0B44     		add	r3, r3, r1
 1039 0036 0833     		adds	r3, r3, #8
 1040 0038 1A68     		ldr	r2, [r3]
ARM GAS  C:\Users\Luis\AppData\Local\Temp\ccSH6HF5.s 			page 20


 1041 003a 7B68     		ldr	r3, [r7, #4]
 1042 003c 9A42     		cmp	r2, r3
 1043 003e 03D1     		bne	.L57
 1044              		.loc 2 586 0 is_stmt 1
 1045 0040 FB7B     		ldrb	r3, [r7, #15]	@ zero_extendqisi2
 1046 0042 1846     		mov	r0, r3
 1047 0044 FFF7FEFF 		bl	etharp_free_entry
 1048              	.L57:
 1049              	.LBE5:
 1050              		.loc 2 583 0
 1051 0048 FB7B     		ldrb	r3, [r7, #15]
 1052 004a 0133     		adds	r3, r3, #1
 1053 004c FB73     		strb	r3, [r7, #15]
 1054              	.L56:
 1055              		.loc 2 583 0 is_stmt 0 discriminator 1
 1056 004e FB7B     		ldrb	r3, [r7, #15]	@ zero_extendqisi2
 1057 0050 092B     		cmp	r3, #9
 1058 0052 DCD9     		bls	.L58
 1059              		.loc 2 589 0 is_stmt 1
 1060 0054 1037     		adds	r7, r7, #16
 1061 0056 BD46     		mov	sp, r7
 1062              		@ sp needed
 1063 0058 80BD     		pop	{r7, pc}
 1064              	.L60:
 1065 005a 00BF     		.align	2
 1066              	.L59:
 1067 005c 00000000 		.word	arp_table
 1068              		.cfi_endproc
 1069              	.LFE265:
 1070              		.size	etharp_cleanup_netif, .-etharp_cleanup_netif
 1071              		.section	.rodata
 1072 0103 00       		.align	2
 1073              	.LC6:
 1074 0104 6574685F 		.ascii	"eth_ret != NULL && ip_ret != NULL\000"
 1074      72657420 
 1074      213D204E 
 1074      554C4C20 
 1074      26262069 
 1075              		.section	.text.etharp_find_addr,"ax",%progbits
 1076              		.align	2
 1077              		.p2align 4,,15
 1078              		.global	etharp_find_addr
 1079              		.thumb
 1080              		.thumb_func
 1081              		.type	etharp_find_addr, %function
 1082              	etharp_find_addr:
 1083              	.LFB266:
 1084              		.loc 2 605 0
 1085              		.cfi_startproc
 1086              		@ args = 0, pretend = 0, frame = 24
 1087              		@ frame_needed = 1, uses_anonymous_args = 0
 1088 0000 80B5     		push	{r7, lr}
 1089              		.cfi_def_cfa_offset 8
 1090              		.cfi_offset 7, -8
 1091              		.cfi_offset 14, -4
 1092 0002 86B0     		sub	sp, sp, #24
 1093              		.cfi_def_cfa_offset 32
ARM GAS  C:\Users\Luis\AppData\Local\Temp\ccSH6HF5.s 			page 21


 1094 0004 00AF     		add	r7, sp, #0
 1095              		.cfi_def_cfa_register 7
 1096 0006 F860     		str	r0, [r7, #12]
 1097 0008 B960     		str	r1, [r7, #8]
 1098 000a 7A60     		str	r2, [r7, #4]
 1099 000c 3B60     		str	r3, [r7]
 1100              		.loc 2 608 0
 1101 000e 7B68     		ldr	r3, [r7, #4]
 1102 0010 002B     		cmp	r3, #0
 1103 0012 02D0     		beq	.L62
 1104              		.loc 2 608 0 is_stmt 0 discriminator 2
 1105 0014 3B68     		ldr	r3, [r7]
 1106 0016 002B     		cmp	r3, #0
 1107 0018 02D1     		bne	.L63
 1108              	.L62:
 1109              		.loc 2 608 0 discriminator 1
 1110 001a 1C48     		ldr	r0, .L66
 1111 001c FFF7FEFF 		bl	osalSysHalt
 1112              	.L63:
 1113              		.loc 2 613 0 is_stmt 1
 1114 0020 B868     		ldr	r0, [r7, #8]
 1115 0022 0221     		movs	r1, #2
 1116 0024 FFF7FEFF 		bl	etharp_find_entry
 1117 0028 0346     		mov	r3, r0
 1118 002a FB75     		strb	r3, [r7, #23]
 1119              		.loc 2 614 0
 1120 002c 97F91730 		ldrsb	r3, [r7, #23]
 1121 0030 002B     		cmp	r3, #0
 1122 0032 25DB     		blt	.L64
 1123              		.loc 2 614 0 is_stmt 0 discriminator 1
 1124 0034 97F91720 		ldrsb	r2, [r7, #23]
 1125 0038 1549     		ldr	r1, .L66+4
 1126 003a 1346     		mov	r3, r2
 1127 003c 9B00     		lsls	r3, r3, #2
 1128 003e 1344     		add	r3, r3, r2
 1129 0040 9B00     		lsls	r3, r3, #2
 1130 0042 0B44     		add	r3, r3, r1
 1131 0044 1033     		adds	r3, r3, #16
 1132 0046 9B78     		ldrb	r3, [r3, #2]	@ zero_extendqisi2
 1133 0048 012B     		cmp	r3, #1
 1134 004a 19D9     		bls	.L64
 1135              		.loc 2 615 0 is_stmt 1
 1136 004c 97F91720 		ldrsb	r2, [r7, #23]
 1137 0050 1346     		mov	r3, r2
 1138 0052 9B00     		lsls	r3, r3, #2
 1139 0054 1344     		add	r3, r3, r2
 1140 0056 9B00     		lsls	r3, r3, #2
 1141 0058 03F10802 		add	r2, r3, #8
 1142 005c 0C4B     		ldr	r3, .L66+4
 1143 005e 1344     		add	r3, r3, r2
 1144 0060 1A1D     		adds	r2, r3, #4
 1145 0062 7B68     		ldr	r3, [r7, #4]
 1146 0064 1A60     		str	r2, [r3]
 1147              		.loc 2 616 0
 1148 0066 97F91720 		ldrsb	r2, [r7, #23]
 1149 006a 1346     		mov	r3, r2
 1150 006c 9B00     		lsls	r3, r3, #2
ARM GAS  C:\Users\Luis\AppData\Local\Temp\ccSH6HF5.s 			page 22


 1151 006e 1344     		add	r3, r3, r2
 1152 0070 9B00     		lsls	r3, r3, #2
 1153 0072 074A     		ldr	r2, .L66+4
 1154 0074 1344     		add	r3, r3, r2
 1155 0076 1A1D     		adds	r2, r3, #4
 1156 0078 3B68     		ldr	r3, [r7]
 1157 007a 1A60     		str	r2, [r3]
 1158              		.loc 2 617 0
 1159 007c FB7D     		ldrb	r3, [r7, #23]	@ zero_extendqisi2
 1160 007e 00E0     		b	.L65
 1161              	.L64:
 1162              		.loc 2 619 0
 1163 0080 FF23     		movs	r3, #255
 1164              	.L65:
 1165 0082 5BB2     		sxtb	r3, r3
 1166              		.loc 2 620 0
 1167 0084 1846     		mov	r0, r3
 1168 0086 1837     		adds	r7, r7, #24
 1169 0088 BD46     		mov	sp, r7
 1170              		@ sp needed
 1171 008a 80BD     		pop	{r7, pc}
 1172              	.L67:
 1173              		.align	2
 1174              	.L66:
 1175 008c 04010000 		.word	.LC6
 1176 0090 00000000 		.word	arp_table
 1177              		.cfi_endproc
 1178              	.LFE266:
 1179              		.size	etharp_find_addr, .-etharp_find_addr
 1180 0094 AFF30080 		.section	.rodata
 1180      AFF30080 
 1180      AFF30080 
 1181 0126 0000     		.align	2
 1182              	.LC7:
 1183 0128 6E657469 		.ascii	"netif != NULL\000"
 1183      6620213D 
 1183      204E554C 
 1183      4C00
 1184              		.section	.text.etharp_arp_input,"ax",%progbits
 1185              		.align	2
 1186              		.p2align 4,,15
 1187              		.thumb
 1188              		.thumb_func
 1189              		.type	etharp_arp_input, %function
 1190              	etharp_arp_input:
 1191              	.LFB267:
 1192              		.loc 2 689 0
 1193              		.cfi_startproc
 1194              		@ args = 0, pretend = 0, frame = 40
 1195              		@ frame_needed = 1, uses_anonymous_args = 0
 1196 0000 80B5     		push	{r7, lr}
 1197              		.cfi_def_cfa_offset 8
 1198              		.cfi_offset 7, -8
 1199              		.cfi_offset 14, -4
 1200 0002 8AB0     		sub	sp, sp, #40
 1201              		.cfi_def_cfa_offset 48
 1202 0004 00AF     		add	r7, sp, #0
ARM GAS  C:\Users\Luis\AppData\Local\Temp\ccSH6HF5.s 			page 23


 1203              		.cfi_def_cfa_register 7
 1204 0006 F860     		str	r0, [r7, #12]
 1205 0008 B960     		str	r1, [r7, #8]
 1206 000a 7A60     		str	r2, [r7, #4]
 1207              		.loc 2 699 0
 1208 000c FB68     		ldr	r3, [r7, #12]
 1209 000e 002B     		cmp	r3, #0
 1210 0010 03D1     		bne	.L69
 1211              		.loc 2 699 0 is_stmt 0 discriminator 1
 1212 0012 7348     		ldr	r0, .L89
 1213 0014 FFF7FEFF 		bl	osalSysHalt
 1214 0018 DFE0     		b	.L68
 1215              	.L69:
 1216              		.loc 2 703 0 is_stmt 1
 1217 001a 7B68     		ldr	r3, [r7, #4]
 1218 001c 5B89     		ldrh	r3, [r3, #10]
 1219 001e 292B     		cmp	r3, #41
 1220 0020 0FD8     		bhi	.L71
 1221              		.loc 2 707 0
 1222 0022 704B     		ldr	r3, .L89+4
 1223 0024 5B8C     		ldrh	r3, [r3, #34]
 1224 0026 0133     		adds	r3, r3, #1
 1225 0028 9AB2     		uxth	r2, r3
 1226 002a 6E4B     		ldr	r3, .L89+4
 1227 002c 5A84     		strh	r2, [r3, #34]	@ movhi
 1228              		.loc 2 708 0
 1229 002e 6D4B     		ldr	r3, .L89+4
 1230 0030 DB8B     		ldrh	r3, [r3, #30]
 1231 0032 0133     		adds	r3, r3, #1
 1232 0034 9AB2     		uxth	r2, r3
 1233 0036 6B4B     		ldr	r3, .L89+4
 1234 0038 DA83     		strh	r2, [r3, #30]	@ movhi
 1235              		.loc 2 709 0
 1236 003a 7868     		ldr	r0, [r7, #4]
 1237 003c FFF7FEFF 		bl	pbuf_free
 1238              		.loc 2 710 0
 1239 0040 CBE0     		b	.L68
 1240              	.L71:
 1241              		.loc 2 713 0
 1242 0042 7B68     		ldr	r3, [r7, #4]
 1243 0044 5B68     		ldr	r3, [r3, #4]
 1244 0046 3B62     		str	r3, [r7, #32]
 1245              		.loc 2 714 0
 1246 0048 3B6A     		ldr	r3, [r7, #32]
 1247 004a 0E33     		adds	r3, r3, #14
 1248 004c FB61     		str	r3, [r7, #28]
 1249              		.loc 2 722 0
 1250 004e FB69     		ldr	r3, [r7, #28]
 1251 0050 1B88     		ldrh	r3, [r3]	@ unaligned
 1252 0052 9BB2     		uxth	r3, r3
 1253 0054 B3F5807F 		cmp	r3, #256
 1254 0058 0CD1     		bne	.L72
 1255              		.loc 2 723 0 discriminator 1
 1256 005a FB69     		ldr	r3, [r7, #28]
 1257 005c 1B79     		ldrb	r3, [r3, #4]	@ zero_extendqisi2
 1258              		.loc 2 722 0 discriminator 1
 1259 005e 062B     		cmp	r3, #6
ARM GAS  C:\Users\Luis\AppData\Local\Temp\ccSH6HF5.s 			page 24


 1260 0060 08D1     		bne	.L72
 1261              		.loc 2 724 0
 1262 0062 FB69     		ldr	r3, [r7, #28]
 1263 0064 5B79     		ldrb	r3, [r3, #5]	@ zero_extendqisi2
 1264              		.loc 2 723 0
 1265 0066 042B     		cmp	r3, #4
 1266 0068 04D1     		bne	.L72
 1267              		.loc 2 725 0
 1268 006a FB69     		ldr	r3, [r7, #28]
 1269 006c 5B88     		ldrh	r3, [r3, #2]	@ unaligned
 1270 006e 9BB2     		uxth	r3, r3
 1271              		.loc 2 724 0
 1272 0070 082B     		cmp	r3, #8
 1273 0072 0FD0     		beq	.L73
 1274              	.L72:
 1275              		.loc 2 729 0
 1276 0074 5B4B     		ldr	r3, .L89+4
 1277 0076 1B8D     		ldrh	r3, [r3, #40]
 1278 0078 0133     		adds	r3, r3, #1
 1279 007a 9AB2     		uxth	r2, r3
 1280 007c 594B     		ldr	r3, .L89+4
 1281 007e 1A85     		strh	r2, [r3, #40]	@ movhi
 1282              		.loc 2 730 0
 1283 0080 584B     		ldr	r3, .L89+4
 1284 0082 DB8B     		ldrh	r3, [r3, #30]
 1285 0084 0133     		adds	r3, r3, #1
 1286 0086 9AB2     		uxth	r2, r3
 1287 0088 564B     		ldr	r3, .L89+4
 1288 008a DA83     		strh	r2, [r3, #30]	@ movhi
 1289              		.loc 2 731 0
 1290 008c 7868     		ldr	r0, [r7, #4]
 1291 008e FFF7FEFF 		bl	pbuf_free
 1292              		.loc 2 732 0
 1293 0092 A2E0     		b	.L68
 1294              	.L73:
 1295              		.loc 2 734 0
 1296 0094 534B     		ldr	r3, .L89+4
 1297 0096 5B8B     		ldrh	r3, [r3, #26]
 1298 0098 0133     		adds	r3, r3, #1
 1299 009a 9AB2     		uxth	r2, r3
 1300 009c 514B     		ldr	r3, .L89+4
 1301 009e 5A83     		strh	r2, [r3, #26]	@ movhi
 1302              		.loc 2 745 0
 1303 00a0 FB69     		ldr	r3, [r7, #28]
 1304 00a2 0E33     		adds	r3, r3, #14
 1305 00a4 07F11802 		add	r2, r7, #24
 1306 00a8 1046     		mov	r0, r2
 1307 00aa 1946     		mov	r1, r3
 1308 00ac 0422     		movs	r2, #4
 1309 00ae FFF7FEFF 		bl	memcpy
 1310              		.loc 2 746 0
 1311 00b2 FB69     		ldr	r3, [r7, #28]
 1312 00b4 1833     		adds	r3, r3, #24
 1313 00b6 07F11402 		add	r2, r7, #20
 1314 00ba 1046     		mov	r0, r2
 1315 00bc 1946     		mov	r1, r3
 1316 00be 0422     		movs	r2, #4
ARM GAS  C:\Users\Luis\AppData\Local\Temp\ccSH6HF5.s 			page 25


 1317 00c0 FFF7FEFF 		bl	memcpy
 1318              		.loc 2 749 0
 1319 00c4 FB68     		ldr	r3, [r7, #12]
 1320 00c6 0433     		adds	r3, r3, #4
 1321 00c8 002B     		cmp	r3, #0
 1322 00ca 03D0     		beq	.L74
 1323              		.loc 2 749 0 is_stmt 0 discriminator 1
 1324 00cc FB68     		ldr	r3, [r7, #12]
 1325 00ce 5B68     		ldr	r3, [r3, #4]
 1326 00d0 002B     		cmp	r3, #0
 1327 00d2 03D1     		bne	.L75
 1328              	.L74:
 1329              		.loc 2 750 0 is_stmt 1
 1330 00d4 0023     		movs	r3, #0
 1331 00d6 87F82730 		strb	r3, [r7, #39]
 1332 00da 09E0     		b	.L76
 1333              	.L75:
 1334              		.loc 2 753 0
 1335 00dc 7A69     		ldr	r2, [r7, #20]
 1336 00de FB68     		ldr	r3, [r7, #12]
 1337 00e0 5B68     		ldr	r3, [r3, #4]
 1338 00e2 9A42     		cmp	r2, r3
 1339 00e4 14BF     		ite	ne
 1340 00e6 0023     		movne	r3, #0
 1341 00e8 0123     		moveq	r3, #1
 1342 00ea DBB2     		uxtb	r3, r3
 1343 00ec 87F82730 		strb	r3, [r7, #39]
 1344              	.L76:
 1345              		.loc 2 761 0
 1346 00f0 FB69     		ldr	r3, [r7, #28]
 1347 00f2 03F10802 		add	r2, r3, #8
 1348 00f6 97F82730 		ldrb	r3, [r7, #39]	@ zero_extendqisi2
 1349 00fa 002B     		cmp	r3, #0
 1350 00fc 01D0     		beq	.L77
 1351              		.loc 2 761 0 is_stmt 0 discriminator 1
 1352 00fe 0123     		movs	r3, #1
 1353 0100 00E0     		b	.L78
 1354              	.L77:
 1355              		.loc 2 761 0 discriminator 2
 1356 0102 0223     		movs	r3, #2
 1357              	.L78:
 1358              		.loc 2 761 0 discriminator 3
 1359 0104 07F11801 		add	r1, r7, #24
 1360 0108 F868     		ldr	r0, [r7, #12]
 1361 010a FFF7FEFF 		bl	etharp_update_arp_entry
 1362              		.loc 2 765 0 is_stmt 1 discriminator 3
 1363 010e FB69     		ldr	r3, [r7, #28]
 1364 0110 DB88     		ldrh	r3, [r3, #6]	@ unaligned
 1365 0112 9BB2     		uxth	r3, r3
 1366 0114 B3F5807F 		cmp	r3, #256
 1367 0118 03D0     		beq	.L80
 1368 011a B3F5007F 		cmp	r3, #512
 1369 011e 58D0     		beq	.L88
 1370              		.loc 2 765 0 is_stmt 0
 1371 0120 50E0     		b	.L87
 1372              	.L80:
 1373              		.loc 2 774 0 is_stmt 1
ARM GAS  C:\Users\Luis\AppData\Local\Temp\ccSH6HF5.s 			page 26


 1374 0122 97F82730 		ldrb	r3, [r7, #39]	@ zero_extendqisi2
 1375 0126 002B     		cmp	r3, #0
 1376 0128 48D0     		beq	.L82
 1377              		.loc 2 780 0
 1378 012a 0220     		movs	r0, #2
 1379 012c FFF7FEFF 		bl	lwip_htons
 1380 0130 0346     		mov	r3, r0
 1381 0132 1A46     		mov	r2, r3
 1382 0134 FB69     		ldr	r3, [r7, #28]
 1383 0136 DA80     		strh	r2, [r3, #6]	@ unaligned
 1384              		.loc 2 782 0
 1385 0138 FB69     		ldr	r3, [r7, #28]
 1386 013a 03F11802 		add	r2, r3, #24
 1387 013e FB69     		ldr	r3, [r7, #28]
 1388 0140 0E33     		adds	r3, r3, #14
 1389 0142 1046     		mov	r0, r2
 1390 0144 1946     		mov	r1, r3
 1391 0146 0422     		movs	r2, #4
 1392 0148 FFF7FEFF 		bl	memcpy
 1393              		.loc 2 783 0
 1394 014c FB69     		ldr	r3, [r7, #28]
 1395 014e 03F10E02 		add	r2, r3, #14
 1396 0152 FB68     		ldr	r3, [r7, #12]
 1397 0154 0433     		adds	r3, r3, #4
 1398 0156 1046     		mov	r0, r2
 1399 0158 1946     		mov	r1, r3
 1400 015a 0422     		movs	r2, #4
 1401 015c FFF7FEFF 		bl	memcpy
 1402              		.loc 2 785 0
 1403 0160 FB68     		ldr	r3, [r7, #12]
 1404 0162 93F82230 		ldrb	r3, [r3, #34]	@ zero_extendqisi2
 1405 0166 062B     		cmp	r3, #6
 1406 0168 02D0     		beq	.L83
 1407              		.loc 2 785 0 is_stmt 0 discriminator 1
 1408 016a 1F48     		ldr	r0, .L89+8
 1409 016c FFF7FEFF 		bl	osalSysHalt
 1410              	.L83:
 1411              		.loc 2 794 0 is_stmt 1
 1412 0170 FB69     		ldr	r3, [r7, #28]
 1413 0172 03F11202 		add	r2, r3, #18
 1414 0176 FB69     		ldr	r3, [r7, #28]
 1415 0178 0833     		adds	r3, r3, #8
 1416 017a 1046     		mov	r0, r2
 1417 017c 1946     		mov	r1, r3
 1418 017e 0622     		movs	r2, #6
 1419 0180 FFF7FEFF 		bl	memcpy
 1420              		.loc 2 798 0
 1421 0184 3A6A     		ldr	r2, [r7, #32]
 1422 0186 FB69     		ldr	r3, [r7, #28]
 1423 0188 0833     		adds	r3, r3, #8
 1424 018a 1046     		mov	r0, r2
 1425 018c 1946     		mov	r1, r3
 1426 018e 0622     		movs	r2, #6
 1427 0190 FFF7FEFF 		bl	memcpy
 1428              		.loc 2 800 0
 1429 0194 FB69     		ldr	r3, [r7, #28]
 1430 0196 0833     		adds	r3, r3, #8
ARM GAS  C:\Users\Luis\AppData\Local\Temp\ccSH6HF5.s 			page 27


 1431 0198 1846     		mov	r0, r3
 1432 019a B968     		ldr	r1, [r7, #8]
 1433 019c 0622     		movs	r2, #6
 1434 019e FFF7FEFF 		bl	memcpy
 1435              		.loc 2 801 0
 1436 01a2 3B6A     		ldr	r3, [r7, #32]
 1437 01a4 0633     		adds	r3, r3, #6
 1438 01a6 1846     		mov	r0, r3
 1439 01a8 B968     		ldr	r1, [r7, #8]
 1440 01aa 0622     		movs	r2, #6
 1441 01ac FFF7FEFF 		bl	memcpy
 1442              		.loc 2 807 0
 1443 01b0 FB68     		ldr	r3, [r7, #12]
 1444 01b2 9B69     		ldr	r3, [r3, #24]
 1445 01b4 F868     		ldr	r0, [r7, #12]
 1446 01b6 7968     		ldr	r1, [r7, #4]
 1447 01b8 9847     		blx	r3
 1448 01ba 02E0     		b	.L84
 1449              	.L82:
 1450              		.loc 2 809 0
 1451 01bc FB68     		ldr	r3, [r7, #12]
 1452 01be 0433     		adds	r3, r3, #4
 1453 01c0 002B     		cmp	r3, #0
 1454              	.L84:
 1455              		.loc 2 817 0
 1456 01c2 07E0     		b	.L85
 1457              	.L87:
 1458              		.loc 2 831 0
 1459 01c4 074B     		ldr	r3, .L89+4
 1460 01c6 9B8D     		ldrh	r3, [r3, #44]
 1461 01c8 0133     		adds	r3, r3, #1
 1462 01ca 9AB2     		uxth	r2, r3
 1463 01cc 054B     		ldr	r3, .L89+4
 1464 01ce 9A85     		strh	r2, [r3, #44]	@ movhi
 1465              		.loc 2 832 0
 1466 01d0 00E0     		b	.L85
 1467              	.L88:
 1468              		.loc 2 828 0
 1469 01d2 00BF     		nop
 1470              	.L85:
 1471              		.loc 2 835 0
 1472 01d4 7868     		ldr	r0, [r7, #4]
 1473 01d6 FFF7FEFF 		bl	pbuf_free
 1474              	.L68:
 1475              		.loc 2 836 0
 1476 01da 2837     		adds	r7, r7, #40
 1477 01dc BD46     		mov	sp, r7
 1478              		@ sp needed
 1479 01de 80BD     		pop	{r7, pc}
 1480              	.L90:
 1481              		.align	2
 1482              	.L89:
 1483 01e0 28010000 		.word	.LC7
 1484 01e4 00000000 		.word	lwip_stats
 1485 01e8 98000000 		.word	.LC4
 1486              		.cfi_endproc
 1487              	.LFE267:
ARM GAS  C:\Users\Luis\AppData\Local\Temp\ccSH6HF5.s 			page 28


 1488              		.size	etharp_arp_input, .-etharp_arp_input
 1489              		.section	.rodata
 1490 0136 0000     		.align	2
 1491              	.LC8:
 1492 0138 6172705F 		.ascii	"arp_table[arp_idx].state >= ETHARP_STATE_STABLE\000"
 1492      7461626C 
 1492      655B6172 
 1492      705F6964 
 1492      785D2E73 
 1493              		.section	.text.etharp_output_to_arp_index,"ax",%progbits
 1494              		.align	2
 1495              		.p2align 4,,15
 1496              		.thumb
 1497              		.thumb_func
 1498              		.type	etharp_output_to_arp_index, %function
 1499              	etharp_output_to_arp_index:
 1500              	.LFB268:
 1501              		.loc 2 843 0
 1502              		.cfi_startproc
 1503              		@ args = 0, pretend = 0, frame = 16
 1504              		@ frame_needed = 1, uses_anonymous_args = 0
 1505 0000 90B5     		push	{r4, r7, lr}
 1506              		.cfi_def_cfa_offset 12
 1507              		.cfi_offset 4, -12
 1508              		.cfi_offset 7, -8
 1509              		.cfi_offset 14, -4
 1510 0002 85B0     		sub	sp, sp, #20
 1511              		.cfi_def_cfa_offset 32
 1512 0004 00AF     		add	r7, sp, #0
 1513              		.cfi_def_cfa_register 7
 1514 0006 F860     		str	r0, [r7, #12]
 1515 0008 B960     		str	r1, [r7, #8]
 1516 000a 1346     		mov	r3, r2
 1517 000c FB71     		strb	r3, [r7, #7]
 1518              		.loc 2 844 0
 1519 000e FA79     		ldrb	r2, [r7, #7]	@ zero_extendqisi2
 1520 0010 2949     		ldr	r1, .L95
 1521 0012 1346     		mov	r3, r2
 1522 0014 9B00     		lsls	r3, r3, #2
 1523 0016 1344     		add	r3, r3, r2
 1524 0018 9B00     		lsls	r3, r3, #2
 1525 001a 0B44     		add	r3, r3, r1
 1526 001c 1033     		adds	r3, r3, #16
 1527 001e 9B78     		ldrb	r3, [r3, #2]	@ zero_extendqisi2
 1528 0020 012B     		cmp	r3, #1
 1529 0022 02D8     		bhi	.L92
 1530              		.loc 2 844 0 is_stmt 0 discriminator 1
 1531 0024 2548     		ldr	r0, .L95+4
 1532 0026 FFF7FEFF 		bl	osalSysHalt
 1533              	.L92:
 1534              		.loc 2 849 0 is_stmt 1
 1535 002a FA79     		ldrb	r2, [r7, #7]	@ zero_extendqisi2
 1536 002c 2249     		ldr	r1, .L95
 1537 002e 1346     		mov	r3, r2
 1538 0030 9B00     		lsls	r3, r3, #2
 1539 0032 1344     		add	r3, r3, r2
 1540 0034 9B00     		lsls	r3, r3, #2
ARM GAS  C:\Users\Luis\AppData\Local\Temp\ccSH6HF5.s 			page 29


 1541 0036 0B44     		add	r3, r3, r1
 1542 0038 1033     		adds	r3, r3, #16
 1543 003a 9B78     		ldrb	r3, [r3, #2]	@ zero_extendqisi2
 1544 003c 022B     		cmp	r3, #2
 1545 003e 23D1     		bne	.L93
 1546              		.loc 2 850 0 discriminator 1
 1547 0040 FA79     		ldrb	r2, [r7, #7]	@ zero_extendqisi2
 1548 0042 1D49     		ldr	r1, .L95
 1549 0044 1346     		mov	r3, r2
 1550 0046 9B00     		lsls	r3, r3, #2
 1551 0048 1344     		add	r3, r3, r2
 1552 004a 9B00     		lsls	r3, r3, #2
 1553 004c 0B44     		add	r3, r3, r1
 1554 004e 1033     		adds	r3, r3, #16
 1555 0050 DB78     		ldrb	r3, [r3, #3]	@ zero_extendqisi2
 1556              		.loc 2 849 0 discriminator 1
 1557 0052 E32B     		cmp	r3, #227
 1558 0054 18D9     		bls	.L93
 1559              		.loc 2 851 0
 1560 0056 FA79     		ldrb	r2, [r7, #7]	@ zero_extendqisi2
 1561 0058 1346     		mov	r3, r2
 1562 005a 9B00     		lsls	r3, r3, #2
 1563 005c 1344     		add	r3, r3, r2
 1564 005e 9B00     		lsls	r3, r3, #2
 1565 0060 154A     		ldr	r2, .L95
 1566 0062 1344     		add	r3, r3, r2
 1567 0064 0433     		adds	r3, r3, #4
 1568 0066 F868     		ldr	r0, [r7, #12]
 1569 0068 1946     		mov	r1, r3
 1570 006a FFF7FEFF 		bl	etharp_request
 1571 006e 0346     		mov	r3, r0
 1572 0070 002B     		cmp	r3, #0
 1573 0072 09D1     		bne	.L93
 1574              		.loc 2 852 0
 1575 0074 FA79     		ldrb	r2, [r7, #7]	@ zero_extendqisi2
 1576 0076 1049     		ldr	r1, .L95
 1577 0078 1346     		mov	r3, r2
 1578 007a 9B00     		lsls	r3, r3, #2
 1579 007c 1344     		add	r3, r3, r2
 1580 007e 9B00     		lsls	r3, r3, #2
 1581 0080 0B44     		add	r3, r3, r1
 1582 0082 1033     		adds	r3, r3, #16
 1583 0084 0322     		movs	r2, #3
 1584 0086 9A70     		strb	r2, [r3, #2]
 1585              	.L93:
 1586              		.loc 2 856 0
 1587 0088 FB68     		ldr	r3, [r7, #12]
 1588 008a 03F12304 		add	r4, r3, #35
 1589              		.loc 2 857 0
 1590 008e FA79     		ldrb	r2, [r7, #7]	@ zero_extendqisi2
 1591              		.loc 2 856 0
 1592 0090 1346     		mov	r3, r2
 1593 0092 9B00     		lsls	r3, r3, #2
 1594 0094 1344     		add	r3, r3, r2
 1595 0096 9B00     		lsls	r3, r3, #2
 1596 0098 03F10802 		add	r2, r3, #8
 1597 009c 064B     		ldr	r3, .L95
ARM GAS  C:\Users\Luis\AppData\Local\Temp\ccSH6HF5.s 			page 30


 1598 009e 1344     		add	r3, r3, r2
 1599 00a0 0433     		adds	r3, r3, #4
 1600 00a2 F868     		ldr	r0, [r7, #12]
 1601 00a4 B968     		ldr	r1, [r7, #8]
 1602 00a6 2246     		mov	r2, r4
 1603 00a8 FFF7FEFF 		bl	etharp_send_ip
 1604 00ac 0346     		mov	r3, r0
 1605              		.loc 2 858 0
 1606 00ae 1846     		mov	r0, r3
 1607 00b0 1437     		adds	r7, r7, #20
 1608 00b2 BD46     		mov	sp, r7
 1609              		@ sp needed
 1610 00b4 90BD     		pop	{r4, r7, pc}
 1611              	.L96:
 1612 00b6 00BF     		.align	2
 1613              	.L95:
 1614 00b8 00000000 		.word	arp_table
 1615 00bc 38010000 		.word	.LC8
 1616              		.cfi_endproc
 1617              	.LFE268:
 1618              		.size	etharp_output_to_arp_index, .-etharp_output_to_arp_index
 1619              		.section	.rodata
 1620              		.align	2
 1621              	.LC9:
 1622 0168 7120213D 		.ascii	"q != NULL\000"
 1622      204E554C 
 1622      4C00
 1623 0172 0000     		.align	2
 1624              	.LC10:
 1625 0174 69706164 		.ascii	"ipaddr != NULL\000"
 1625      64722021 
 1625      3D204E55 
 1625      4C4C00
 1626              		.section	.text.etharp_output,"ax",%progbits
 1627              		.align	2
 1628              		.p2align 4,,15
 1629              		.global	etharp_output
 1630              		.thumb
 1631              		.thumb_func
 1632              		.type	etharp_output, %function
 1633              	etharp_output:
 1634              	.LFB269:
 1635              		.loc 2 880 0
 1636              		.cfi_startproc
 1637              		@ args = 0, pretend = 0, frame = 32
 1638              		@ frame_needed = 1, uses_anonymous_args = 0
 1639 0000 80B5     		push	{r7, lr}
 1640              		.cfi_def_cfa_offset 8
 1641              		.cfi_offset 7, -8
 1642              		.cfi_offset 14, -4
 1643 0002 88B0     		sub	sp, sp, #32
 1644              		.cfi_def_cfa_offset 40
 1645 0004 00AF     		add	r7, sp, #0
 1646              		.cfi_def_cfa_register 7
 1647 0006 F860     		str	r0, [r7, #12]
 1648 0008 B960     		str	r1, [r7, #8]
 1649 000a 7A60     		str	r2, [r7, #4]
ARM GAS  C:\Users\Luis\AppData\Local\Temp\ccSH6HF5.s 			page 31


 1650              		.loc 2 883 0
 1651 000c 7B68     		ldr	r3, [r7, #4]
 1652 000e BB61     		str	r3, [r7, #24]
 1653              		.loc 2 885 0
 1654 0010 FB68     		ldr	r3, [r7, #12]
 1655 0012 002B     		cmp	r3, #0
 1656 0014 02D1     		bne	.L98
 1657              		.loc 2 885 0 is_stmt 0 discriminator 1
 1658 0016 6A48     		ldr	r0, .L113
 1659 0018 FFF7FEFF 		bl	osalSysHalt
 1660              	.L98:
 1661              		.loc 2 886 0 is_stmt 1
 1662 001c BB68     		ldr	r3, [r7, #8]
 1663 001e 002B     		cmp	r3, #0
 1664 0020 02D1     		bne	.L99
 1665              		.loc 2 886 0 is_stmt 0 discriminator 1
 1666 0022 6848     		ldr	r0, .L113+4
 1667 0024 FFF7FEFF 		bl	osalSysHalt
 1668              	.L99:
 1669              		.loc 2 887 0 is_stmt 1
 1670 0028 7B68     		ldr	r3, [r7, #4]
 1671 002a 002B     		cmp	r3, #0
 1672 002c 02D1     		bne	.L100
 1673              		.loc 2 887 0 is_stmt 0 discriminator 1
 1674 002e 6648     		ldr	r0, .L113+8
 1675 0030 FFF7FEFF 		bl	osalSysHalt
 1676              	.L100:
 1677              		.loc 2 890 0 is_stmt 1
 1678 0034 B868     		ldr	r0, [r7, #8]
 1679 0036 0E21     		movs	r1, #14
 1680 0038 FFF7FEFF 		bl	pbuf_header
 1681 003c 0346     		mov	r3, r0
 1682 003e 002B     		cmp	r3, #0
 1683 0040 07D0     		beq	.L101
 1684              		.loc 2 894 0
 1685 0042 624B     		ldr	r3, .L113+12
 1686 0044 5B89     		ldrh	r3, [r3, #10]
 1687 0046 0133     		adds	r3, r3, #1
 1688 0048 9AB2     		uxth	r2, r3
 1689 004a 604B     		ldr	r3, .L113+12
 1690 004c 5A81     		strh	r2, [r3, #10]	@ movhi
 1691              		.loc 2 895 0
 1692 004e FE23     		movs	r3, #254
 1693 0050 B1E0     		b	.L112
 1694              	.L101:
 1695              		.loc 2 902 0
 1696 0052 7B68     		ldr	r3, [r7, #4]
 1697 0054 1B68     		ldr	r3, [r3]
 1698 0056 1846     		mov	r0, r3
 1699 0058 F968     		ldr	r1, [r7, #12]
 1700 005a FFF7FEFF 		bl	ip4_addr_isbroadcast
 1701 005e 0346     		mov	r3, r0
 1702 0060 002B     		cmp	r3, #0
 1703 0062 02D0     		beq	.L103
 1704              		.loc 2 904 0
 1705 0064 5A4B     		ldr	r3, .L113+16
 1706 0066 FB61     		str	r3, [r7, #28]
ARM GAS  C:\Users\Luis\AppData\Local\Temp\ccSH6HF5.s 			page 32


 1707 0068 9CE0     		b	.L104
 1708              	.L103:
 1709              		.loc 2 906 0
 1710 006a 7B68     		ldr	r3, [r7, #4]
 1711 006c 1B68     		ldr	r3, [r3]
 1712 006e 03F0F003 		and	r3, r3, #240
 1713 0072 E02B     		cmp	r3, #224
 1714 0074 16D1     		bne	.L105
 1715              		.loc 2 908 0
 1716 0076 0123     		movs	r3, #1
 1717 0078 3B74     		strb	r3, [r7, #16]
 1718              		.loc 2 909 0
 1719 007a 0023     		movs	r3, #0
 1720 007c 7B74     		strb	r3, [r7, #17]
 1721              		.loc 2 910 0
 1722 007e 5E23     		movs	r3, #94
 1723 0080 BB74     		strb	r3, [r7, #18]
 1724              		.loc 2 911 0
 1725 0082 7B68     		ldr	r3, [r7, #4]
 1726 0084 0133     		adds	r3, r3, #1
 1727 0086 1B78     		ldrb	r3, [r3]	@ zero_extendqisi2
 1728 0088 03F07F03 		and	r3, r3, #127
 1729 008c DBB2     		uxtb	r3, r3
 1730 008e FB74     		strb	r3, [r7, #19]
 1731              		.loc 2 912 0
 1732 0090 7B68     		ldr	r3, [r7, #4]
 1733 0092 9B78     		ldrb	r3, [r3, #2]	@ zero_extendqisi2
 1734 0094 3B75     		strb	r3, [r7, #20]
 1735              		.loc 2 913 0
 1736 0096 7B68     		ldr	r3, [r7, #4]
 1737 0098 DB78     		ldrb	r3, [r3, #3]	@ zero_extendqisi2
 1738 009a 7B75     		strb	r3, [r7, #21]
 1739              		.loc 2 915 0
 1740 009c 07F11003 		add	r3, r7, #16
 1741 00a0 FB61     		str	r3, [r7, #28]
 1742 00a2 7FE0     		b	.L104
 1743              	.L105:
 1744              	.LBB6:
 1745              		.loc 2 921 0
 1746 00a4 7B68     		ldr	r3, [r7, #4]
 1747 00a6 1A68     		ldr	r2, [r3]
 1748 00a8 FB68     		ldr	r3, [r7, #12]
 1749 00aa 5B68     		ldr	r3, [r3, #4]
 1750 00ac 5A40     		eors	r2, r2, r3
 1751 00ae FB68     		ldr	r3, [r7, #12]
 1752 00b0 9B68     		ldr	r3, [r3, #8]
 1753 00b2 1340     		ands	r3, r3, r2
 1754 00b4 002B     		cmp	r3, #0
 1755 00b6 14D0     		beq	.L106
 1756              		.loc 2 922 0 discriminator 1
 1757 00b8 7B68     		ldr	r3, [r7, #4]
 1758 00ba 1B68     		ldr	r3, [r3]
 1759 00bc 9AB2     		uxth	r2, r3
 1760              		.loc 2 921 0 discriminator 1
 1761 00be 4FF6A963 		movw	r3, #65193
 1762 00c2 9A42     		cmp	r2, r3
 1763 00c4 0DD0     		beq	.L106
ARM GAS  C:\Users\Luis\AppData\Local\Temp\ccSH6HF5.s 			page 33


 1764              		.loc 2 934 0
 1765 00c6 FB68     		ldr	r3, [r7, #12]
 1766 00c8 0C33     		adds	r3, r3, #12
 1767 00ca 002B     		cmp	r3, #0
 1768 00cc 07D0     		beq	.L107
 1769              		.loc 2 934 0 is_stmt 0 discriminator 1
 1770 00ce FB68     		ldr	r3, [r7, #12]
 1771 00d0 DB68     		ldr	r3, [r3, #12]
 1772 00d2 002B     		cmp	r3, #0
 1773 00d4 03D0     		beq	.L107
 1774              		.loc 2 936 0 is_stmt 1
 1775 00d6 FB68     		ldr	r3, [r7, #12]
 1776 00d8 0C33     		adds	r3, r3, #12
 1777 00da BB61     		str	r3, [r7, #24]
 1778 00dc 01E0     		b	.L106
 1779              	.L107:
 1780              		.loc 2 940 0
 1781 00de FC23     		movs	r3, #252
 1782 00e0 69E0     		b	.L112
 1783              	.L106:
 1784              		.loc 2 950 0
 1785 00e2 3C4B     		ldr	r3, .L113+20
 1786 00e4 1B78     		ldrb	r3, [r3]	@ zero_extendqisi2
 1787 00e6 1A46     		mov	r2, r3
 1788 00e8 3B49     		ldr	r1, .L113+24
 1789 00ea 1346     		mov	r3, r2
 1790 00ec 9B00     		lsls	r3, r3, #2
 1791 00ee 1344     		add	r3, r3, r2
 1792 00f0 9B00     		lsls	r3, r3, #2
 1793 00f2 0B44     		add	r3, r3, r1
 1794 00f4 1033     		adds	r3, r3, #16
 1795 00f6 9B78     		ldrb	r3, [r3, #2]	@ zero_extendqisi2
 1796 00f8 012B     		cmp	r3, #1
 1797 00fa 1DD9     		bls	.L108
 1798              		.loc 2 951 0 discriminator 1
 1799 00fc BB69     		ldr	r3, [r7, #24]
 1800 00fe 1968     		ldr	r1, [r3]
 1801 0100 344B     		ldr	r3, .L113+20
 1802 0102 1B78     		ldrb	r3, [r3]	@ zero_extendqisi2
 1803 0104 1A46     		mov	r2, r3
 1804 0106 3448     		ldr	r0, .L113+24
 1805 0108 1346     		mov	r3, r2
 1806 010a 9B00     		lsls	r3, r3, #2
 1807 010c 1344     		add	r3, r3, r2
 1808 010e 9B00     		lsls	r3, r3, #2
 1809 0110 0344     		add	r3, r3, r0
 1810 0112 0433     		adds	r3, r3, #4
 1811 0114 1B68     		ldr	r3, [r3]
 1812              		.loc 2 950 0 discriminator 1
 1813 0116 9942     		cmp	r1, r3
 1814 0118 0ED1     		bne	.L108
 1815              		.loc 2 953 0
 1816 011a 2C4B     		ldr	r3, .L113+12
 1817 011c DB8D     		ldrh	r3, [r3, #46]
 1818 011e 0133     		adds	r3, r3, #1
 1819 0120 9AB2     		uxth	r2, r3
 1820 0122 2A4B     		ldr	r3, .L113+12
ARM GAS  C:\Users\Luis\AppData\Local\Temp\ccSH6HF5.s 			page 34


 1821 0124 DA85     		strh	r2, [r3, #46]	@ movhi
 1822              		.loc 2 954 0
 1823 0126 2B4B     		ldr	r3, .L113+20
 1824 0128 1B78     		ldrb	r3, [r3]	@ zero_extendqisi2
 1825 012a F868     		ldr	r0, [r7, #12]
 1826 012c B968     		ldr	r1, [r7, #8]
 1827 012e 1A46     		mov	r2, r3
 1828 0130 FFF7FEFF 		bl	etharp_output_to_arp_index
 1829 0134 0346     		mov	r3, r0
 1830 0136 3EE0     		b	.L112
 1831              	.L108:
 1832              		.loc 2 963 0
 1833 0138 0023     		movs	r3, #0
 1834 013a FB75     		strb	r3, [r7, #23]
 1835 013c 27E0     		b	.L109
 1836              	.L111:
 1837              		.loc 2 964 0
 1838 013e 97F91720 		ldrsb	r2, [r7, #23]
 1839 0142 2549     		ldr	r1, .L113+24
 1840 0144 1346     		mov	r3, r2
 1841 0146 9B00     		lsls	r3, r3, #2
 1842 0148 1344     		add	r3, r3, r2
 1843 014a 9B00     		lsls	r3, r3, #2
 1844 014c 0B44     		add	r3, r3, r1
 1845 014e 1033     		adds	r3, r3, #16
 1846 0150 9B78     		ldrb	r3, [r3, #2]	@ zero_extendqisi2
 1847 0152 012B     		cmp	r3, #1
 1848 0154 18D9     		bls	.L110
 1849              		.loc 2 965 0 discriminator 1
 1850 0156 BB69     		ldr	r3, [r7, #24]
 1851 0158 1968     		ldr	r1, [r3]
 1852 015a 97F91720 		ldrsb	r2, [r7, #23]
 1853 015e 1E48     		ldr	r0, .L113+24
 1854 0160 1346     		mov	r3, r2
 1855 0162 9B00     		lsls	r3, r3, #2
 1856 0164 1344     		add	r3, r3, r2
 1857 0166 9B00     		lsls	r3, r3, #2
 1858 0168 0344     		add	r3, r3, r0
 1859 016a 0433     		adds	r3, r3, #4
 1860 016c 1B68     		ldr	r3, [r3]
 1861              		.loc 2 964 0 discriminator 1
 1862 016e 9942     		cmp	r1, r3
 1863 0170 0AD1     		bne	.L110
 1864              		.loc 2 967 0
 1865 0172 FA7D     		ldrb	r2, [r7, #23]	@ zero_extendqisi2
 1866 0174 174B     		ldr	r3, .L113+20
 1867 0176 1A70     		strb	r2, [r3]
 1868              		.loc 2 968 0
 1869 0178 FB7D     		ldrb	r3, [r7, #23]	@ zero_extendqisi2
 1870 017a F868     		ldr	r0, [r7, #12]
 1871 017c B968     		ldr	r1, [r7, #8]
 1872 017e 1A46     		mov	r2, r3
 1873 0180 FFF7FEFF 		bl	etharp_output_to_arp_index
 1874 0184 0346     		mov	r3, r0
 1875 0186 16E0     		b	.L112
 1876              	.L110:
 1877              		.loc 2 963 0
ARM GAS  C:\Users\Luis\AppData\Local\Temp\ccSH6HF5.s 			page 35


 1878 0188 FB7D     		ldrb	r3, [r7, #23]	@ zero_extendqisi2
 1879 018a 0133     		adds	r3, r3, #1
 1880 018c FB75     		strb	r3, [r7, #23]
 1881              	.L109:
 1882              		.loc 2 963 0 is_stmt 0 discriminator 1
 1883 018e 97F91730 		ldrsb	r3, [r7, #23]
 1884 0192 092B     		cmp	r3, #9
 1885 0194 D3DD     		ble	.L111
 1886              		.loc 2 973 0 is_stmt 1
 1887 0196 F868     		ldr	r0, [r7, #12]
 1888 0198 B969     		ldr	r1, [r7, #24]
 1889 019a BA68     		ldr	r2, [r7, #8]
 1890 019c FFF7FEFF 		bl	etharp_query
 1891 01a0 0346     		mov	r3, r0
 1892 01a2 08E0     		b	.L112
 1893              	.L104:
 1894              	.LBE6:
 1895              		.loc 2 979 0
 1896 01a4 FB68     		ldr	r3, [r7, #12]
 1897 01a6 2333     		adds	r3, r3, #35
 1898 01a8 F868     		ldr	r0, [r7, #12]
 1899 01aa B968     		ldr	r1, [r7, #8]
 1900 01ac 1A46     		mov	r2, r3
 1901 01ae FB69     		ldr	r3, [r7, #28]
 1902 01b0 FFF7FEFF 		bl	etharp_send_ip
 1903 01b4 0346     		mov	r3, r0
 1904              	.L112:
 1905 01b6 5BB2     		sxtb	r3, r3
 1906              		.loc 2 980 0
 1907 01b8 1846     		mov	r0, r3
 1908 01ba 2037     		adds	r7, r7, #32
 1909 01bc BD46     		mov	sp, r7
 1910              		@ sp needed
 1911 01be 80BD     		pop	{r7, pc}
 1912              	.L114:
 1913              		.align	2
 1914              	.L113:
 1915 01c0 28010000 		.word	.LC7
 1916 01c4 68010000 		.word	.LC9
 1917 01c8 74010000 		.word	.LC10
 1918 01cc 00000000 		.word	lwip_stats
 1919 01d0 00000000 		.word	ethbroadcast
 1920 01d4 00000000 		.word	etharp_cached_entry
 1921 01d8 00000000 		.word	arp_table
 1922              		.cfi_endproc
 1923              	.LFE269:
 1924              		.size	etharp_output, .-etharp_output
 1925 01dc AFF30080 		.section	.rodata
 1926 0183 00       		.align	2
 1927              	.LC11:
 1928 0184 6172705F 		.ascii	"arp_table[i].state == PENDING or STABLE\000"
 1928      7461626C 
 1928      655B695D 
 1928      2E737461 
 1928      7465203D 
 1929              		.align	2
 1930              	.LC12:
ARM GAS  C:\Users\Luis\AppData\Local\Temp\ccSH6HF5.s 			page 36


 1931 01ac 6E6F2070 		.ascii	"no packet queues allowed!\000"
 1931      61636B65 
 1931      74207175 
 1931      65756573 
 1931      20616C6C 
 1932              		.section	.text.etharp_query,"ax",%progbits
 1933              		.align	2
 1934              		.p2align 4,,15
 1935              		.global	etharp_query
 1936              		.thumb
 1937              		.thumb_func
 1938              		.type	etharp_query, %function
 1939              	etharp_query:
 1940              	.LFB270:
 1941              		.loc 2 1017 0
 1942              		.cfi_startproc
 1943              		@ args = 0, pretend = 0, frame = 40
 1944              		@ frame_needed = 1, uses_anonymous_args = 0
 1945 0000 80B5     		push	{r7, lr}
 1946              		.cfi_def_cfa_offset 8
 1947              		.cfi_offset 7, -8
 1948              		.cfi_offset 14, -4
 1949 0002 8AB0     		sub	sp, sp, #40
 1950              		.cfi_def_cfa_offset 48
 1951 0004 00AF     		add	r7, sp, #0
 1952              		.cfi_def_cfa_register 7
 1953 0006 F860     		str	r0, [r7, #12]
 1954 0008 B960     		str	r1, [r7, #8]
 1955 000a 7A60     		str	r2, [r7, #4]
 1956              		.loc 2 1018 0
 1957 000c FB68     		ldr	r3, [r7, #12]
 1958 000e 2333     		adds	r3, r3, #35
 1959 0010 BB61     		str	r3, [r7, #24]
 1960              		.loc 2 1019 0
 1961 0012 FF23     		movs	r3, #255
 1962 0014 87F82730 		strb	r3, [r7, #39]
 1963              		.loc 2 1023 0
 1964 0018 BB68     		ldr	r3, [r7, #8]
 1965 001a 1B68     		ldr	r3, [r3]
 1966 001c 1846     		mov	r0, r3
 1967 001e F968     		ldr	r1, [r7, #12]
 1968 0020 FFF7FEFF 		bl	ip4_addr_isbroadcast
 1969 0024 0346     		mov	r3, r0
 1970 0026 002B     		cmp	r3, #0
 1971 0028 0CD1     		bne	.L116
 1972              		.loc 2 1024 0 discriminator 1
 1973 002a BB68     		ldr	r3, [r7, #8]
 1974 002c 1B68     		ldr	r3, [r3]
 1975 002e 03F0F003 		and	r3, r3, #240
 1976              		.loc 2 1023 0 discriminator 1
 1977 0032 E02B     		cmp	r3, #224
 1978 0034 06D0     		beq	.L116
 1979              		.loc 2 1024 0
 1980 0036 BB68     		ldr	r3, [r7, #8]
 1981 0038 002B     		cmp	r3, #0
 1982 003a 03D0     		beq	.L116
 1983              		.loc 2 1025 0
ARM GAS  C:\Users\Luis\AppData\Local\Temp\ccSH6HF5.s 			page 37


 1984 003c BB68     		ldr	r3, [r7, #8]
 1985 003e 1B68     		ldr	r3, [r3]
 1986 0040 002B     		cmp	r3, #0
 1987 0042 01D1     		bne	.L117
 1988              	.L116:
 1989              		.loc 2 1027 0
 1990 0044 F223     		movs	r3, #242
 1991 0046 09E1     		b	.L118
 1992              	.L117:
 1993              		.loc 2 1031 0
 1994 0048 B868     		ldr	r0, [r7, #8]
 1995 004a 0121     		movs	r1, #1
 1996 004c FFF7FEFF 		bl	etharp_find_entry
 1997 0050 0346     		mov	r3, r0
 1998 0052 FB75     		strb	r3, [r7, #23]
 1999              		.loc 2 1034 0
 2000 0054 97F91730 		ldrsb	r3, [r7, #23]
 2001 0058 002B     		cmp	r3, #0
 2002 005a 0ADA     		bge	.L119
 2003              		.loc 2 1036 0
 2004 005c 7B68     		ldr	r3, [r7, #4]
 2005 005e 002B     		cmp	r3, #0
 2006 0060 05D0     		beq	.L120
 2007              		.loc 2 1038 0
 2008 0062 814B     		ldr	r3, .L138
 2009 0064 9B8C     		ldrh	r3, [r3, #36]
 2010 0066 0133     		adds	r3, r3, #1
 2011 0068 9AB2     		uxth	r2, r3
 2012 006a 7F4B     		ldr	r3, .L138
 2013 006c 9A84     		strh	r2, [r3, #36]	@ movhi
 2014              	.L120:
 2015              		.loc 2 1040 0
 2016 006e FB7D     		ldrb	r3, [r7, #23]	@ zero_extendqisi2
 2017 0070 F4E0     		b	.L118
 2018              	.L119:
 2019              		.loc 2 1044 0
 2020 0072 97F91720 		ldrsb	r2, [r7, #23]
 2021 0076 7D49     		ldr	r1, .L138+4
 2022 0078 1346     		mov	r3, r2
 2023 007a 9B00     		lsls	r3, r3, #2
 2024 007c 1344     		add	r3, r3, r2
 2025 007e 9B00     		lsls	r3, r3, #2
 2026 0080 0B44     		add	r3, r3, r1
 2027 0082 1033     		adds	r3, r3, #16
 2028 0084 9B78     		ldrb	r3, [r3, #2]	@ zero_extendqisi2
 2029 0086 002B     		cmp	r3, #0
 2030 0088 0AD1     		bne	.L121
 2031              		.loc 2 1045 0
 2032 008a 97F91720 		ldrsb	r2, [r7, #23]
 2033 008e 7749     		ldr	r1, .L138+4
 2034 0090 1346     		mov	r3, r2
 2035 0092 9B00     		lsls	r3, r3, #2
 2036 0094 1344     		add	r3, r3, r2
 2037 0096 9B00     		lsls	r3, r3, #2
 2038 0098 0B44     		add	r3, r3, r1
 2039 009a 1033     		adds	r3, r3, #16
 2040 009c 0122     		movs	r2, #1
ARM GAS  C:\Users\Luis\AppData\Local\Temp\ccSH6HF5.s 			page 38


 2041 009e 9A70     		strb	r2, [r3, #2]
 2042              	.L121:
 2043              		.loc 2 1049 0
 2044 00a0 97F91720 		ldrsb	r2, [r7, #23]
 2045 00a4 7149     		ldr	r1, .L138+4
 2046 00a6 1346     		mov	r3, r2
 2047 00a8 9B00     		lsls	r3, r3, #2
 2048 00aa 1344     		add	r3, r3, r2
 2049 00ac 9B00     		lsls	r3, r3, #2
 2050 00ae 0B44     		add	r3, r3, r1
 2051 00b0 1033     		adds	r3, r3, #16
 2052 00b2 9B78     		ldrb	r3, [r3, #2]	@ zero_extendqisi2
 2053 00b4 012B     		cmp	r3, #1
 2054 00b6 0ED0     		beq	.L122
 2055              		.loc 2 1049 0 is_stmt 0 discriminator 1
 2056 00b8 97F91720 		ldrsb	r2, [r7, #23]
 2057 00bc 6B49     		ldr	r1, .L138+4
 2058 00be 1346     		mov	r3, r2
 2059 00c0 9B00     		lsls	r3, r3, #2
 2060 00c2 1344     		add	r3, r3, r2
 2061 00c4 9B00     		lsls	r3, r3, #2
 2062 00c6 0B44     		add	r3, r3, r1
 2063 00c8 1033     		adds	r3, r3, #16
 2064 00ca 9B78     		ldrb	r3, [r3, #2]	@ zero_extendqisi2
 2065 00cc 012B     		cmp	r3, #1
 2066 00ce 02D8     		bhi	.L122
 2067 00d0 6748     		ldr	r0, .L138+8
 2068 00d2 FFF7FEFF 		bl	osalSysHalt
 2069              	.L122:
 2070              		.loc 2 1054 0 is_stmt 1
 2071 00d6 97F91720 		ldrsb	r2, [r7, #23]
 2072 00da 6449     		ldr	r1, .L138+4
 2073 00dc 1346     		mov	r3, r2
 2074 00de 9B00     		lsls	r3, r3, #2
 2075 00e0 1344     		add	r3, r3, r2
 2076 00e2 9B00     		lsls	r3, r3, #2
 2077 00e4 0B44     		add	r3, r3, r1
 2078 00e6 1033     		adds	r3, r3, #16
 2079 00e8 9B78     		ldrb	r3, [r3, #2]	@ zero_extendqisi2
 2080 00ea 012B     		cmp	r3, #1
 2081 00ec 02D0     		beq	.L123
 2082              		.loc 2 1054 0 is_stmt 0 discriminator 1
 2083 00ee 7B68     		ldr	r3, [r7, #4]
 2084 00f0 002B     		cmp	r3, #0
 2085 00f2 0CD1     		bne	.L124
 2086              	.L123:
 2087              		.loc 2 1056 0 is_stmt 1
 2088 00f4 F868     		ldr	r0, [r7, #12]
 2089 00f6 B968     		ldr	r1, [r7, #8]
 2090 00f8 FFF7FEFF 		bl	etharp_request
 2091 00fc 0346     		mov	r3, r0
 2092 00fe 87F82730 		strb	r3, [r7, #39]
 2093              		.loc 2 1063 0
 2094 0102 7B68     		ldr	r3, [r7, #4]
 2095 0104 002B     		cmp	r3, #0
 2096 0106 02D1     		bne	.L124
 2097              		.loc 2 1064 0
ARM GAS  C:\Users\Luis\AppData\Local\Temp\ccSH6HF5.s 			page 39


 2098 0108 97F82730 		ldrb	r3, [r7, #39]	@ zero_extendqisi2
 2099 010c A6E0     		b	.L118
 2100              	.L124:
 2101              		.loc 2 1069 0
 2102 010e 7B68     		ldr	r3, [r7, #4]
 2103 0110 002B     		cmp	r3, #0
 2104 0112 02D1     		bne	.L125
 2105              		.loc 2 1069 0 is_stmt 0 discriminator 1
 2106 0114 5748     		ldr	r0, .L138+12
 2107 0116 FFF7FEFF 		bl	osalSysHalt
 2108              	.L125:
 2109              		.loc 2 1071 0 is_stmt 1
 2110 011a 97F91720 		ldrsb	r2, [r7, #23]
 2111 011e 5349     		ldr	r1, .L138+4
 2112 0120 1346     		mov	r3, r2
 2113 0122 9B00     		lsls	r3, r3, #2
 2114 0124 1344     		add	r3, r3, r2
 2115 0126 9B00     		lsls	r3, r3, #2
 2116 0128 0B44     		add	r3, r3, r1
 2117 012a 1033     		adds	r3, r3, #16
 2118 012c 9B78     		ldrb	r3, [r3, #2]	@ zero_extendqisi2
 2119 012e 012B     		cmp	r3, #1
 2120 0130 16D9     		bls	.L126
 2121              		.loc 2 1073 0
 2122 0132 FA7D     		ldrb	r2, [r7, #23]	@ zero_extendqisi2
 2123 0134 504B     		ldr	r3, .L138+16
 2124 0136 1A70     		strb	r2, [r3]
 2125              		.loc 2 1075 0
 2126 0138 97F91720 		ldrsb	r2, [r7, #23]
 2127 013c 1346     		mov	r3, r2
 2128 013e 9B00     		lsls	r3, r3, #2
 2129 0140 1344     		add	r3, r3, r2
 2130 0142 9B00     		lsls	r3, r3, #2
 2131 0144 03F10802 		add	r2, r3, #8
 2132 0148 484B     		ldr	r3, .L138+4
 2133 014a 1344     		add	r3, r3, r2
 2134 014c 0433     		adds	r3, r3, #4
 2135 014e F868     		ldr	r0, [r7, #12]
 2136 0150 7968     		ldr	r1, [r7, #4]
 2137 0152 BA69     		ldr	r2, [r7, #24]
 2138 0154 FFF7FEFF 		bl	etharp_send_ip
 2139 0158 0346     		mov	r3, r0
 2140 015a 87F82730 		strb	r3, [r7, #39]
 2141 015e 7BE0     		b	.L127
 2142              	.L126:
 2143              		.loc 2 1077 0
 2144 0160 97F91720 		ldrsb	r2, [r7, #23]
 2145 0164 4149     		ldr	r1, .L138+4
 2146 0166 1346     		mov	r3, r2
 2147 0168 9B00     		lsls	r3, r3, #2
 2148 016a 1344     		add	r3, r3, r2
 2149 016c 9B00     		lsls	r3, r3, #2
 2150 016e 0B44     		add	r3, r3, r1
 2151 0170 1033     		adds	r3, r3, #16
 2152 0172 9B78     		ldrb	r3, [r3, #2]	@ zero_extendqisi2
 2153 0174 012B     		cmp	r3, #1
 2154 0176 6FD1     		bne	.L127
ARM GAS  C:\Users\Luis\AppData\Local\Temp\ccSH6HF5.s 			page 40


 2155              	.LBB7:
 2156              		.loc 2 1080 0
 2157 0178 0023     		movs	r3, #0
 2158 017a FB61     		str	r3, [r7, #28]
 2159              		.loc 2 1084 0
 2160 017c 7B68     		ldr	r3, [r7, #4]
 2161 017e 3B62     		str	r3, [r7, #32]
 2162              		.loc 2 1085 0
 2163 0180 16E0     		b	.L128
 2164              	.L132:
 2165              		.loc 2 1086 0
 2166 0182 3B6A     		ldr	r3, [r7, #32]
 2167 0184 5A89     		ldrh	r2, [r3, #10]
 2168 0186 3B6A     		ldr	r3, [r7, #32]
 2169 0188 1B89     		ldrh	r3, [r3, #8]
 2170 018a 9A42     		cmp	r2, r3
 2171 018c 06D1     		bne	.L129
 2172              		.loc 2 1086 0 is_stmt 0 discriminator 1
 2173 018e 3B6A     		ldr	r3, [r7, #32]
 2174 0190 1B68     		ldr	r3, [r3]
 2175 0192 002B     		cmp	r3, #0
 2176 0194 02D0     		beq	.L129
 2177 0196 3948     		ldr	r0, .L138+20
 2178 0198 FFF7FEFF 		bl	osalSysHalt
 2179              	.L129:
 2180              		.loc 2 1087 0 is_stmt 1
 2181 019c 3B6A     		ldr	r3, [r7, #32]
 2182 019e 1B7B     		ldrb	r3, [r3, #12]	@ zero_extendqisi2
 2183 01a0 012B     		cmp	r3, #1
 2184 01a2 02D0     		beq	.L130
 2185              		.loc 2 1088 0
 2186 01a4 0123     		movs	r3, #1
 2187 01a6 FB61     		str	r3, [r7, #28]
 2188              		.loc 2 1089 0
 2189 01a8 05E0     		b	.L131
 2190              	.L130:
 2191              		.loc 2 1091 0
 2192 01aa 3B6A     		ldr	r3, [r7, #32]
 2193 01ac 1B68     		ldr	r3, [r3]
 2194 01ae 3B62     		str	r3, [r7, #32]
 2195              	.L128:
 2196              		.loc 2 1085 0 discriminator 1
 2197 01b0 3B6A     		ldr	r3, [r7, #32]
 2198 01b2 002B     		cmp	r3, #0
 2199 01b4 E5D1     		bne	.L132
 2200              	.L131:
 2201              		.loc 2 1093 0
 2202 01b6 FB69     		ldr	r3, [r7, #28]
 2203 01b8 002B     		cmp	r3, #0
 2204 01ba 17D0     		beq	.L133
 2205              		.loc 2 1095 0
 2206 01bc 3B6A     		ldr	r3, [r7, #32]
 2207 01be 1B89     		ldrh	r3, [r3, #8]
 2208 01c0 0320     		movs	r0, #3
 2209 01c2 1946     		mov	r1, r3
 2210 01c4 0022     		movs	r2, #0
 2211 01c6 FFF7FEFF 		bl	pbuf_alloc
ARM GAS  C:\Users\Luis\AppData\Local\Temp\ccSH6HF5.s 			page 41


 2212 01ca 3862     		str	r0, [r7, #32]
 2213              		.loc 2 1096 0
 2214 01cc 3B6A     		ldr	r3, [r7, #32]
 2215 01ce 002B     		cmp	r3, #0
 2216 01d0 11D0     		beq	.L135
 2217              		.loc 2 1097 0
 2218 01d2 386A     		ldr	r0, [r7, #32]
 2219 01d4 7968     		ldr	r1, [r7, #4]
 2220 01d6 FFF7FEFF 		bl	pbuf_copy
 2221 01da 0346     		mov	r3, r0
 2222 01dc 002B     		cmp	r3, #0
 2223 01de 0AD0     		beq	.L135
 2224              		.loc 2 1098 0
 2225 01e0 386A     		ldr	r0, [r7, #32]
 2226 01e2 FFF7FEFF 		bl	pbuf_free
 2227              		.loc 2 1099 0
 2228 01e6 0023     		movs	r3, #0
 2229 01e8 3B62     		str	r3, [r7, #32]
 2230 01ea 04E0     		b	.L135
 2231              	.L133:
 2232              		.loc 2 1104 0
 2233 01ec 7B68     		ldr	r3, [r7, #4]
 2234 01ee 3B62     		str	r3, [r7, #32]
 2235              		.loc 2 1105 0
 2236 01f0 386A     		ldr	r0, [r7, #32]
 2237 01f2 FFF7FEFF 		bl	pbuf_ref
 2238              	.L135:
 2239              		.loc 2 1108 0
 2240 01f6 3B6A     		ldr	r3, [r7, #32]
 2241 01f8 002B     		cmp	r3, #0
 2242 01fa 24D0     		beq	.L136
 2243              		.loc 2 1139 0
 2244 01fc 97F91720 		ldrsb	r2, [r7, #23]
 2245 0200 1A49     		ldr	r1, .L138+4
 2246 0202 1346     		mov	r3, r2
 2247 0204 9B00     		lsls	r3, r3, #2
 2248 0206 1344     		add	r3, r3, r2
 2249 0208 9B00     		lsls	r3, r3, #2
 2250 020a 0B44     		add	r3, r3, r1
 2251 020c 1B68     		ldr	r3, [r3]
 2252 020e 002B     		cmp	r3, #0
 2253 0210 0BD0     		beq	.L137
 2254              		.loc 2 1141 0
 2255 0212 97F91720 		ldrsb	r2, [r7, #23]
 2256 0216 1549     		ldr	r1, .L138+4
 2257 0218 1346     		mov	r3, r2
 2258 021a 9B00     		lsls	r3, r3, #2
 2259 021c 1344     		add	r3, r3, r2
 2260 021e 9B00     		lsls	r3, r3, #2
 2261 0220 0B44     		add	r3, r3, r1
 2262 0222 1B68     		ldr	r3, [r3]
 2263 0224 1846     		mov	r0, r3
 2264 0226 FFF7FEFF 		bl	pbuf_free
 2265              	.L137:
 2266              		.loc 2 1143 0
 2267 022a 97F91720 		ldrsb	r2, [r7, #23]
 2268 022e 0F49     		ldr	r1, .L138+4
ARM GAS  C:\Users\Luis\AppData\Local\Temp\ccSH6HF5.s 			page 42


 2269 0230 1346     		mov	r3, r2
 2270 0232 9B00     		lsls	r3, r3, #2
 2271 0234 1344     		add	r3, r3, r2
 2272 0236 9B00     		lsls	r3, r3, #2
 2273 0238 0B44     		add	r3, r3, r1
 2274 023a 3A6A     		ldr	r2, [r7, #32]
 2275 023c 1A60     		str	r2, [r3]
 2276              		.loc 2 1144 0
 2277 023e 0023     		movs	r3, #0
 2278 0240 87F82730 		strb	r3, [r7, #39]
 2279 0244 08E0     		b	.L127
 2280              	.L136:
 2281              		.loc 2 1148 0
 2282 0246 084B     		ldr	r3, .L138
 2283 0248 9B8C     		ldrh	r3, [r3, #36]
 2284 024a 0133     		adds	r3, r3, #1
 2285 024c 9AB2     		uxth	r2, r3
 2286 024e 064B     		ldr	r3, .L138
 2287 0250 9A84     		strh	r2, [r3, #36]	@ movhi
 2288              		.loc 2 1150 0
 2289 0252 FF23     		movs	r3, #255
 2290 0254 87F82730 		strb	r3, [r7, #39]
 2291              	.L127:
 2292              	.LBE7:
 2293              		.loc 2 1153 0
 2294 0258 97F82730 		ldrb	r3, [r7, #39]	@ zero_extendqisi2
 2295              	.L118:
 2296 025c 5BB2     		sxtb	r3, r3
 2297              		.loc 2 1154 0
 2298 025e 1846     		mov	r0, r3
 2299 0260 2837     		adds	r7, r7, #40
 2300 0262 BD46     		mov	sp, r7
 2301              		@ sp needed
 2302 0264 80BD     		pop	{r7, pc}
 2303              	.L139:
 2304 0266 00BF     		.align	2
 2305              	.L138:
 2306 0268 00000000 		.word	lwip_stats
 2307 026c 00000000 		.word	arp_table
 2308 0270 84010000 		.word	.LC11
 2309 0274 68010000 		.word	.LC9
 2310 0278 00000000 		.word	etharp_cached_entry
 2311 027c AC010000 		.word	.LC12
 2312              		.cfi_endproc
 2313              	.LFE270:
 2314              		.size	etharp_query, .-etharp_query
 2315              		.section	.rodata
 2316 01c6 0000     		.align	2
 2317              	.LC13:
 2318 01c8 63686563 		.ascii	"check that first pbuf can hold struct etharp_hdr\000"
 2318      6B207468 
 2318      61742066 
 2318      69727374 
 2318      20706275 
 2319              		.section	.text.etharp_raw,"ax",%progbits
 2320              		.align	2
 2321              		.p2align 4,,15
ARM GAS  C:\Users\Luis\AppData\Local\Temp\ccSH6HF5.s 			page 43


 2322              		.thumb
 2323              		.thumb_func
 2324              		.type	etharp_raw, %function
 2325              	etharp_raw:
 2326              	.LFB271:
 2327              		.loc 2 1180 0
 2328              		.cfi_startproc
 2329              		@ args = 16, pretend = 0, frame = 32
 2330              		@ frame_needed = 1, uses_anonymous_args = 0
 2331 0000 80B5     		push	{r7, lr}
 2332              		.cfi_def_cfa_offset 8
 2333              		.cfi_offset 7, -8
 2334              		.cfi_offset 14, -4
 2335 0002 88B0     		sub	sp, sp, #32
 2336              		.cfi_def_cfa_offset 40
 2337 0004 00AF     		add	r7, sp, #0
 2338              		.cfi_def_cfa_register 7
 2339 0006 F860     		str	r0, [r7, #12]
 2340 0008 B960     		str	r1, [r7, #8]
 2341 000a 7A60     		str	r2, [r7, #4]
 2342 000c 3B60     		str	r3, [r7]
 2343              		.loc 2 1182 0
 2344 000e 0023     		movs	r3, #0
 2345 0010 FB77     		strb	r3, [r7, #31]
 2346              		.loc 2 1189 0
 2347 0012 FB68     		ldr	r3, [r7, #12]
 2348 0014 002B     		cmp	r3, #0
 2349 0016 02D1     		bne	.L141
 2350              		.loc 2 1189 0 is_stmt 0 discriminator 1
 2351 0018 4748     		ldr	r0, .L146
 2352 001a FFF7FEFF 		bl	osalSysHalt
 2353              	.L141:
 2354              		.loc 2 1192 0 is_stmt 1
 2355 001e 0320     		movs	r0, #3
 2356 0020 2A21     		movs	r1, #42
 2357 0022 0022     		movs	r2, #0
 2358 0024 FFF7FEFF 		bl	pbuf_alloc
 2359 0028 B861     		str	r0, [r7, #24]
 2360              		.loc 2 1194 0
 2361 002a BB69     		ldr	r3, [r7, #24]
 2362 002c 002B     		cmp	r3, #0
 2363 002e 07D1     		bne	.L142
 2364              		.loc 2 1197 0
 2365 0030 424B     		ldr	r3, .L146+4
 2366 0032 9B8C     		ldrh	r3, [r3, #36]
 2367 0034 0133     		adds	r3, r3, #1
 2368 0036 9AB2     		uxth	r2, r3
 2369 0038 404B     		ldr	r3, .L146+4
 2370 003a 9A84     		strh	r2, [r3, #36]	@ movhi
 2371              		.loc 2 1198 0
 2372 003c FF23     		movs	r3, #255
 2373 003e 75E0     		b	.L143
 2374              	.L142:
 2375              		.loc 2 1200 0
 2376 0040 BB69     		ldr	r3, [r7, #24]
 2377 0042 5B89     		ldrh	r3, [r3, #10]
 2378 0044 292B     		cmp	r3, #41
ARM GAS  C:\Users\Luis\AppData\Local\Temp\ccSH6HF5.s 			page 44


 2379 0046 02D8     		bhi	.L144
 2380              		.loc 2 1200 0 is_stmt 0 discriminator 1
 2381 0048 3D48     		ldr	r0, .L146+8
 2382 004a FFF7FEFF 		bl	osalSysHalt
 2383              	.L144:
 2384              		.loc 2 1203 0 is_stmt 1
 2385 004e BB69     		ldr	r3, [r7, #24]
 2386 0050 5B68     		ldr	r3, [r3, #4]
 2387 0052 7B61     		str	r3, [r7, #20]
 2388              		.loc 2 1204 0
 2389 0054 7B69     		ldr	r3, [r7, #20]
 2390 0056 0E33     		adds	r3, r3, #14
 2391 0058 3B61     		str	r3, [r7, #16]
 2392              		.loc 2 1206 0
 2393 005a BB8E     		ldrh	r3, [r7, #52]
 2394 005c 1846     		mov	r0, r3
 2395 005e FFF7FEFF 		bl	lwip_htons
 2396 0062 0346     		mov	r3, r0
 2397 0064 1A46     		mov	r2, r3
 2398 0066 3B69     		ldr	r3, [r7, #16]
 2399 0068 DA80     		strh	r2, [r3, #6]	@ unaligned
 2400              		.loc 2 1208 0
 2401 006a FB68     		ldr	r3, [r7, #12]
 2402 006c 93F82230 		ldrb	r3, [r3, #34]	@ zero_extendqisi2
 2403 0070 062B     		cmp	r3, #6
 2404 0072 02D0     		beq	.L145
 2405              		.loc 2 1208 0 is_stmt 0 discriminator 1
 2406 0074 3348     		ldr	r0, .L146+12
 2407 0076 FFF7FEFF 		bl	osalSysHalt
 2408              	.L145:
 2409              		.loc 2 1217 0 is_stmt 1
 2410 007a 3B69     		ldr	r3, [r7, #16]
 2411 007c 0833     		adds	r3, r3, #8
 2412 007e 1846     		mov	r0, r3
 2413 0080 3968     		ldr	r1, [r7]
 2414 0082 0622     		movs	r2, #6
 2415 0084 FFF7FEFF 		bl	memcpy
 2416              		.loc 2 1218 0
 2417 0088 3B69     		ldr	r3, [r7, #16]
 2418 008a 1233     		adds	r3, r3, #18
 2419 008c 1846     		mov	r0, r3
 2420 008e F96A     		ldr	r1, [r7, #44]
 2421 0090 0622     		movs	r2, #6
 2422 0092 FFF7FEFF 		bl	memcpy
 2423              		.loc 2 1223 0
 2424 0096 7B69     		ldr	r3, [r7, #20]
 2425 0098 1846     		mov	r0, r3
 2426 009a 7968     		ldr	r1, [r7, #4]
 2427 009c 0622     		movs	r2, #6
 2428 009e FFF7FEFF 		bl	memcpy
 2429              		.loc 2 1225 0
 2430 00a2 7B69     		ldr	r3, [r7, #20]
 2431 00a4 0633     		adds	r3, r3, #6
 2432 00a6 1846     		mov	r0, r3
 2433 00a8 B968     		ldr	r1, [r7, #8]
 2434 00aa 0622     		movs	r2, #6
 2435 00ac FFF7FEFF 		bl	memcpy
ARM GAS  C:\Users\Luis\AppData\Local\Temp\ccSH6HF5.s 			page 45


 2436              		.loc 2 1228 0
 2437 00b0 3B69     		ldr	r3, [r7, #16]
 2438 00b2 0E33     		adds	r3, r3, #14
 2439 00b4 1846     		mov	r0, r3
 2440 00b6 B96A     		ldr	r1, [r7, #40]
 2441 00b8 0422     		movs	r2, #4
 2442 00ba FFF7FEFF 		bl	memcpy
 2443              		.loc 2 1229 0
 2444 00be 3B69     		ldr	r3, [r7, #16]
 2445 00c0 1833     		adds	r3, r3, #24
 2446 00c2 1846     		mov	r0, r3
 2447 00c4 396B     		ldr	r1, [r7, #48]
 2448 00c6 0422     		movs	r2, #4
 2449 00c8 FFF7FEFF 		bl	memcpy
 2450              		.loc 2 1231 0
 2451 00cc 3B69     		ldr	r3, [r7, #16]
 2452 00ce 0022     		movs	r2, #0
 2453 00d0 1A70     		strb	r2, [r3]
 2454 00d2 0022     		movs	r2, #0
 2455 00d4 42F00102 		orr	r2, r2, #1
 2456 00d8 5A70     		strb	r2, [r3, #1]
 2457              		.loc 2 1232 0
 2458 00da 3B69     		ldr	r3, [r7, #16]
 2459 00dc 0022     		movs	r2, #0
 2460 00de 42F00802 		orr	r2, r2, #8
 2461 00e2 9A70     		strb	r2, [r3, #2]
 2462 00e4 0022     		movs	r2, #0
 2463 00e6 DA70     		strb	r2, [r3, #3]
 2464              		.loc 2 1234 0
 2465 00e8 3B69     		ldr	r3, [r7, #16]
 2466 00ea 0622     		movs	r2, #6
 2467 00ec 1A71     		strb	r2, [r3, #4]
 2468              		.loc 2 1235 0
 2469 00ee 3B69     		ldr	r3, [r7, #16]
 2470 00f0 0422     		movs	r2, #4
 2471 00f2 5A71     		strb	r2, [r3, #5]
 2472              		.loc 2 1237 0
 2473 00f4 7B69     		ldr	r3, [r7, #20]
 2474 00f6 0022     		movs	r2, #0
 2475 00f8 42F00802 		orr	r2, r2, #8
 2476 00fc 1A73     		strb	r2, [r3, #12]
 2477 00fe 0022     		movs	r2, #0
 2478 0100 42F00602 		orr	r2, r2, #6
 2479 0104 5A73     		strb	r2, [r3, #13]
 2480              		.loc 2 1239 0
 2481 0106 FB68     		ldr	r3, [r7, #12]
 2482 0108 9B69     		ldr	r3, [r3, #24]
 2483 010a F868     		ldr	r0, [r7, #12]
 2484 010c B969     		ldr	r1, [r7, #24]
 2485 010e 9847     		blx	r3
 2486 0110 0346     		mov	r3, r0
 2487 0112 FB77     		strb	r3, [r7, #31]
 2488              		.loc 2 1240 0
 2489 0114 094B     		ldr	r3, .L146+4
 2490 0116 1B8B     		ldrh	r3, [r3, #24]
 2491 0118 0133     		adds	r3, r3, #1
 2492 011a 9AB2     		uxth	r2, r3
ARM GAS  C:\Users\Luis\AppData\Local\Temp\ccSH6HF5.s 			page 46


 2493 011c 074B     		ldr	r3, .L146+4
 2494 011e 1A83     		strh	r2, [r3, #24]	@ movhi
 2495              		.loc 2 1242 0
 2496 0120 B869     		ldr	r0, [r7, #24]
 2497 0122 FFF7FEFF 		bl	pbuf_free
 2498              		.loc 2 1243 0
 2499 0126 0023     		movs	r3, #0
 2500 0128 BB61     		str	r3, [r7, #24]
 2501              		.loc 2 1246 0
 2502 012a FB7F     		ldrb	r3, [r7, #31]	@ zero_extendqisi2
 2503              	.L143:
 2504 012c 5BB2     		sxtb	r3, r3
 2505              		.loc 2 1247 0
 2506 012e 1846     		mov	r0, r3
 2507 0130 2037     		adds	r7, r7, #32
 2508 0132 BD46     		mov	sp, r7
 2509              		@ sp needed
 2510 0134 80BD     		pop	{r7, pc}
 2511              	.L147:
 2512 0136 00BF     		.align	2
 2513              	.L146:
 2514 0138 28010000 		.word	.LC7
 2515 013c 00000000 		.word	lwip_stats
 2516 0140 C8010000 		.word	.LC13
 2517 0144 98000000 		.word	.LC4
 2518              		.cfi_endproc
 2519              	.LFE271:
 2520              		.size	etharp_raw, .-etharp_raw
 2521 0148 AFF30080 		.section	.text.etharp_request,"ax",%progbits
 2521      AFF30080 
 2522              		.align	2
 2523              		.p2align 4,,15
 2524              		.global	etharp_request
 2525              		.thumb
 2526              		.thumb_func
 2527              		.type	etharp_request, %function
 2528              	etharp_request:
 2529              	.LFB272:
 2530              		.loc 2 1260 0
 2531              		.cfi_startproc
 2532              		@ args = 0, pretend = 0, frame = 8
 2533              		@ frame_needed = 1, uses_anonymous_args = 0
 2534 0000 80B5     		push	{r7, lr}
 2535              		.cfi_def_cfa_offset 8
 2536              		.cfi_offset 7, -8
 2537              		.cfi_offset 14, -4
 2538 0002 86B0     		sub	sp, sp, #24
 2539              		.cfi_def_cfa_offset 32
 2540 0004 04AF     		add	r7, sp, #16
 2541              		.cfi_def_cfa 7, 16
 2542 0006 7860     		str	r0, [r7, #4]
 2543 0008 3960     		str	r1, [r7]
 2544              		.loc 2 1262 0
 2545 000a 7B68     		ldr	r3, [r7, #4]
 2546 000c 03F12302 		add	r2, r3, #35
 2547              		.loc 2 1263 0
 2548 0010 7B68     		ldr	r3, [r7, #4]
ARM GAS  C:\Users\Luis\AppData\Local\Temp\ccSH6HF5.s 			page 47


 2549 0012 2333     		adds	r3, r3, #35
 2550 0014 7968     		ldr	r1, [r7, #4]
 2551 0016 0431     		adds	r1, r1, #4
 2552              		.loc 2 1262 0
 2553 0018 0091     		str	r1, [sp]
 2554 001a 0849     		ldr	r1, .L150
 2555 001c 0191     		str	r1, [sp, #4]
 2556 001e 3968     		ldr	r1, [r7]
 2557 0020 0291     		str	r1, [sp, #8]
 2558 0022 0121     		movs	r1, #1
 2559 0024 0391     		str	r1, [sp, #12]
 2560 0026 7868     		ldr	r0, [r7, #4]
 2561 0028 1146     		mov	r1, r2
 2562 002a 054A     		ldr	r2, .L150+4
 2563 002c FFF7FEFF 		bl	etharp_raw
 2564 0030 0346     		mov	r3, r0
 2565              		.loc 2 1265 0
 2566 0032 1846     		mov	r0, r3
 2567 0034 0837     		adds	r7, r7, #8
 2568 0036 BD46     		mov	sp, r7
 2569              		@ sp needed
 2570 0038 80BD     		pop	{r7, pc}
 2571              	.L151:
 2572 003a 00BF     		.align	2
 2573              	.L150:
 2574 003c 00000000 		.word	ethzero
 2575 0040 00000000 		.word	ethbroadcast
 2576              		.cfi_endproc
 2577              	.LFE272:
 2578              		.size	etharp_request, .-etharp_request
 2579 0044 AFF30080 		.section	.rodata
 2579      AFF30080 
 2579      AFF30080 
 2580 01f9 000000   		.align	2
 2581              	.LC14:
 2582 01fc 43616E27 		.ascii	"Can't move over header in packet\000"
 2582      74206D6F 
 2582      7665206F 
 2582      76657220 
 2582      68656164 
 2583 021d 000000   		.section	.text.ethernet_input,"ax",%progbits
 2584              		.align	2
 2585              		.p2align 4,,15
 2586              		.global	ethernet_input
 2587              		.thumb
 2588              		.thumb_func
 2589              		.type	ethernet_input, %function
 2590              	ethernet_input:
 2591              	.LFB273:
 2592              		.loc 2 1278 0
 2593              		.cfi_startproc
 2594              		@ args = 0, pretend = 0, frame = 24
 2595              		@ frame_needed = 1, uses_anonymous_args = 0
 2596 0000 80B5     		push	{r7, lr}
 2597              		.cfi_def_cfa_offset 8
 2598              		.cfi_offset 7, -8
 2599              		.cfi_offset 14, -4
ARM GAS  C:\Users\Luis\AppData\Local\Temp\ccSH6HF5.s 			page 48


 2600 0002 86B0     		sub	sp, sp, #24
 2601              		.cfi_def_cfa_offset 32
 2602 0004 00AF     		add	r7, sp, #0
 2603              		.cfi_def_cfa_register 7
 2604 0006 7860     		str	r0, [r7, #4]
 2605 0008 3960     		str	r1, [r7]
 2606              		.loc 2 1282 0
 2607 000a 0E23     		movs	r3, #14
 2608 000c FB82     		strh	r3, [r7, #22]	@ movhi
 2609              		.loc 2 1285 0
 2610 000e 7B68     		ldr	r3, [r7, #4]
 2611 0010 5B89     		ldrh	r3, [r3, #10]
 2612 0012 0E2B     		cmp	r3, #14
 2613 0014 0CD8     		bhi	.L153
 2614              		.loc 2 1287 0
 2615 0016 464B     		ldr	r3, .L167
 2616 0018 1B8D     		ldrh	r3, [r3, #40]
 2617 001a 0133     		adds	r3, r3, #1
 2618 001c 9AB2     		uxth	r2, r3
 2619 001e 444B     		ldr	r3, .L167
 2620 0020 1A85     		strh	r2, [r3, #40]	@ movhi
 2621              		.loc 2 1288 0
 2622 0022 434B     		ldr	r3, .L167
 2623 0024 DB8B     		ldrh	r3, [r3, #30]
 2624 0026 0133     		adds	r3, r3, #1
 2625 0028 9AB2     		uxth	r2, r3
 2626 002a 414B     		ldr	r3, .L167
 2627 002c DA83     		strh	r2, [r3, #30]	@ movhi
 2628              		.loc 2 1289 0
 2629 002e 75E0     		b	.L154
 2630              	.L153:
 2631              		.loc 2 1293 0
 2632 0030 7B68     		ldr	r3, [r7, #4]
 2633 0032 5B68     		ldr	r3, [r3, #4]
 2634 0034 3B61     		str	r3, [r7, #16]
 2635              		.loc 2 1302 0
 2636 0036 3B69     		ldr	r3, [r7, #16]
 2637 0038 1A7B     		ldrb	r2, [r3, #12]	@ zero_extendqisi2
 2638 003a 5B7B     		ldrb	r3, [r3, #13]	@ zero_extendqisi2
 2639 003c 1B02     		lsls	r3, r3, #8
 2640 003e 1343     		orrs	r3, r3, r2
 2641 0040 FB81     		strh	r3, [r7, #14]	@ movhi
 2642              		.loc 2 1332 0
 2643 0042 3B69     		ldr	r3, [r7, #16]
 2644 0044 1B78     		ldrb	r3, [r3]	@ zero_extendqisi2
 2645 0046 03F00103 		and	r3, r3, #1
 2646 004a 002B     		cmp	r3, #0
 2647 004c 23D0     		beq	.L155
 2648              		.loc 2 1334 0
 2649 004e 3B69     		ldr	r3, [r7, #16]
 2650 0050 1B78     		ldrb	r3, [r3]	@ zero_extendqisi2
 2651 0052 012B     		cmp	r3, #1
 2652 0054 0FD1     		bne	.L156
 2653              		.loc 2 1335 0
 2654 0056 3B69     		ldr	r3, [r7, #16]
 2655 0058 5B78     		ldrb	r3, [r3, #1]	@ zero_extendqisi2
 2656 005a 002B     		cmp	r3, #0
ARM GAS  C:\Users\Luis\AppData\Local\Temp\ccSH6HF5.s 			page 49


 2657 005c 1BD1     		bne	.L155
 2658              		.loc 2 1336 0 discriminator 1
 2659 005e 3B69     		ldr	r3, [r7, #16]
 2660 0060 9B78     		ldrb	r3, [r3, #2]	@ zero_extendqisi2
 2661              		.loc 2 1335 0 discriminator 1
 2662 0062 5E2B     		cmp	r3, #94
 2663 0064 17D1     		bne	.L155
 2664              		.loc 2 1338 0
 2665 0066 7B68     		ldr	r3, [r7, #4]
 2666 0068 5B7B     		ldrb	r3, [r3, #13]	@ zero_extendqisi2
 2667 006a 43F01003 		orr	r3, r3, #16
 2668 006e DAB2     		uxtb	r2, r3
 2669 0070 7B68     		ldr	r3, [r7, #4]
 2670 0072 5A73     		strb	r2, [r3, #13]
 2671 0074 0FE0     		b	.L155
 2672              	.L156:
 2673              		.loc 2 1340 0
 2674 0076 3B69     		ldr	r3, [r7, #16]
 2675 0078 1846     		mov	r0, r3
 2676 007a 2E49     		ldr	r1, .L167+4
 2677 007c 0622     		movs	r2, #6
 2678 007e FFF7FEFF 		bl	memcmp
 2679 0082 0346     		mov	r3, r0
 2680 0084 002B     		cmp	r3, #0
 2681 0086 06D1     		bne	.L155
 2682              		.loc 2 1342 0
 2683 0088 7B68     		ldr	r3, [r7, #4]
 2684 008a 5B7B     		ldrb	r3, [r3, #13]	@ zero_extendqisi2
 2685 008c 43F00803 		orr	r3, r3, #8
 2686 0090 DAB2     		uxtb	r2, r3
 2687 0092 7B68     		ldr	r3, [r7, #4]
 2688 0094 5A73     		strb	r2, [r3, #13]
 2689              	.L155:
 2690              		.loc 2 1346 0
 2691 0096 FB89     		ldrh	r3, [r7, #14]
 2692 0098 082B     		cmp	r3, #8
 2693 009a 03D0     		beq	.L159
 2694 009c B3F5C16F 		cmp	r3, #1544
 2695 00a0 1DD0     		beq	.L160
 2696 00a2 2CE0     		b	.L166
 2697              	.L159:
 2698              		.loc 2 1350 0
 2699 00a4 3B68     		ldr	r3, [r7]
 2700 00a6 93F82930 		ldrb	r3, [r3, #41]	@ zero_extendqisi2
 2701 00aa 03F02003 		and	r3, r3, #32
 2702 00ae 002B     		cmp	r3, #0
 2703 00b0 00D1     		bne	.L161
 2704              		.loc 2 1351 0
 2705 00b2 33E0     		b	.L154
 2706              	.L161:
 2707              		.loc 2 1358 0
 2708 00b4 FB8A     		ldrh	r3, [r7, #22]
 2709 00b6 5B42     		negs	r3, r3
 2710 00b8 9BB2     		uxth	r3, r3
 2711 00ba 9BB2     		uxth	r3, r3
 2712 00bc 1BB2     		sxth	r3, r3
 2713 00be 7868     		ldr	r0, [r7, #4]
ARM GAS  C:\Users\Luis\AppData\Local\Temp\ccSH6HF5.s 			page 50


 2714 00c0 1946     		mov	r1, r3
 2715 00c2 FFF7FEFF 		bl	pbuf_header
 2716 00c6 0346     		mov	r3, r0
 2717 00c8 002B     		cmp	r3, #0
 2718 00ca 03D0     		beq	.L162
 2719              		.loc 2 1359 0 discriminator 1
 2720 00cc 1A48     		ldr	r0, .L167+8
 2721 00ce FFF7FEFF 		bl	osalSysHalt
 2722              		.loc 2 1360 0 discriminator 1
 2723 00d2 23E0     		b	.L154
 2724              	.L162:
 2725              		.loc 2 1363 0
 2726 00d4 7868     		ldr	r0, [r7, #4]
 2727 00d6 3968     		ldr	r1, [r7]
 2728 00d8 FFF7FEFF 		bl	ip_input
 2729              		.loc 2 1365 0
 2730 00dc 1CE0     		b	.L163
 2731              	.L160:
 2732              		.loc 2 1368 0
 2733 00de 3B68     		ldr	r3, [r7]
 2734 00e0 93F82930 		ldrb	r3, [r3, #41]	@ zero_extendqisi2
 2735 00e4 03F02003 		and	r3, r3, #32
 2736 00e8 002B     		cmp	r3, #0
 2737 00ea 00D1     		bne	.L164
 2738              		.loc 2 1369 0
 2739 00ec 16E0     		b	.L154
 2740              	.L164:
 2741              		.loc 2 1372 0
 2742 00ee 3B68     		ldr	r3, [r7]
 2743 00f0 2333     		adds	r3, r3, #35
 2744 00f2 3868     		ldr	r0, [r7]
 2745 00f4 1946     		mov	r1, r3
 2746 00f6 7A68     		ldr	r2, [r7, #4]
 2747 00f8 FFF7FEFF 		bl	etharp_arp_input
 2748              		.loc 2 1373 0
 2749 00fc 0CE0     		b	.L163
 2750              	.L166:
 2751              		.loc 2 1386 0
 2752 00fe 0C4B     		ldr	r3, .L167
 2753 0100 1B8D     		ldrh	r3, [r3, #40]
 2754 0102 0133     		adds	r3, r3, #1
 2755 0104 9AB2     		uxth	r2, r3
 2756 0106 0A4B     		ldr	r3, .L167
 2757 0108 1A85     		strh	r2, [r3, #40]	@ movhi
 2758              		.loc 2 1387 0
 2759 010a 094B     		ldr	r3, .L167
 2760 010c DB8B     		ldrh	r3, [r3, #30]
 2761 010e 0133     		adds	r3, r3, #1
 2762 0110 9AB2     		uxth	r2, r3
 2763 0112 074B     		ldr	r3, .L167
 2764 0114 DA83     		strh	r2, [r3, #30]	@ movhi
 2765              		.loc 2 1388 0
 2766 0116 01E0     		b	.L154
 2767              	.L163:
 2768              		.loc 2 1393 0
 2769 0118 0023     		movs	r3, #0
 2770 011a 03E0     		b	.L165
ARM GAS  C:\Users\Luis\AppData\Local\Temp\ccSH6HF5.s 			page 51


 2771              	.L154:
 2772              		.loc 2 1396 0
 2773 011c 7868     		ldr	r0, [r7, #4]
 2774 011e FFF7FEFF 		bl	pbuf_free
 2775              		.loc 2 1397 0
 2776 0122 0023     		movs	r3, #0
 2777              	.L165:
 2778 0124 5BB2     		sxtb	r3, r3
 2779              		.loc 2 1398 0
 2780 0126 1846     		mov	r0, r3
 2781 0128 1837     		adds	r7, r7, #24
 2782 012a BD46     		mov	sp, r7
 2783              		@ sp needed
 2784 012c 80BD     		pop	{r7, pc}
 2785              	.L168:
 2786 012e 00BF     		.align	2
 2787              	.L167:
 2788 0130 00000000 		.word	lwip_stats
 2789 0134 00000000 		.word	ethbroadcast
 2790 0138 FC010000 		.word	.LC14
 2791              		.cfi_endproc
 2792              	.LFE273:
 2793              		.size	ethernet_input, .-ethernet_input
 2794 013c AFF30080 		.text
 2795              	.Letext0:
 2796              		.file 3 "c:\\emtechesdk\\gcc\\lib\\gcc\\arm-none-eabi\\4.8.3\\include\\stddef.h"
 2797              		.file 4 "c:\\emtechesdk\\gcc\\arm-none-eabi\\include\\stdint.h"
 2798              		.file 5 "../../ChibiOS/os/rt/ports/ARMCMx/compilers/GCC/chtypes.h"
 2799              		.file 6 "../../ChibiOS/os/rt/include/chsystypes.h"
 2800              		.file 7 "../../ChibiOS/os/rt/include/chschd.h"
 2801              		.file 8 "../../ChibiOS/os/rt/ports/ARMCMx/chcore.h"
 2802              		.file 9 "../../ChibiOS/os/rt/ports/ARMCMx/chcore_v7m.h"
 2803              		.file 10 "../../ChibiOS/os/rt/include/chdebug.h"
 2804              		.file 11 "../../ChibiOS/os/rt/include/chtm.h"
 2805              		.file 12 "../../ChibiOS/os/rt/include/chstats.h"
 2806              		.file 13 "../../ChibiOS/os/rt/include/chsem.h"
 2807              		.file 14 "../../ChibiOS/os/rt/include/chmtx.h"
 2808              		.file 15 "../../ChibiOS/os/various/lwip_bindings/arch/cc.h"
 2809              		.file 16 "../../ChibiOS/ext/lwip/src/include/ipv4/lwip/ip_addr.h"
 2810              		.file 17 "../../ChibiOS/ext/lwip/src/include/lwip/err.h"
 2811              		.file 18 "../../ChibiOS/ext/lwip/src/include/lwip/pbuf.h"
 2812              		.file 19 "../../ChibiOS/ext/lwip/src/include/lwip/netif.h"
 2813              		.file 20 "../../ChibiOS/ext/lwip/src/include/lwip/mem.h"
 2814              		.file 21 "../../ChibiOS/ext/lwip/src/include/lwip/memp.h"
 2815              		.file 22 "../../ChibiOS/ext/lwip/src/include/lwip/stats.h"
 2816              		.file 23 "../../ChibiOS/ext/lwip/src/include/netif/etharp.h"
 2817              		.file 24 "../../ChibiOS/os/ext/CMSIS/include/core_cm4.h"
 2818              		.section	.debug_info,"",%progbits
 2819              	.Ldebug_info0:
 2820 0000 C3140000 		.4byte	0x14c3
 2821 0004 0400     		.2byte	0x4
 2822 0006 00000000 		.4byte	.Ldebug_abbrev0
 2823 000a 04       		.byte	0x4
 2824 000b 01       		.uleb128 0x1
 2825 000c 43010000 		.4byte	.LASF275
 2826 0010 01       		.byte	0x1
 2827 0011 A2050000 		.4byte	.LASF276
ARM GAS  C:\Users\Luis\AppData\Local\Temp\ccSH6HF5.s 			page 52


 2828 0015 1C050000 		.4byte	.LASF277
 2829 0019 00000000 		.4byte	.Ldebug_ranges0+0
 2830 001d 00000000 		.4byte	0
 2831 0021 00000000 		.4byte	.Ldebug_line0
 2832 0025 02       		.uleb128 0x2
 2833 0026 04       		.byte	0x4
 2834 0027 05       		.byte	0x5
 2835 0028 696E7400 		.ascii	"int\000"
 2836 002c 03       		.uleb128 0x3
 2837 002d 6A080000 		.4byte	.LASF1
 2838 0031 03       		.byte	0x3
 2839 0032 D4       		.byte	0xd4
 2840 0033 37000000 		.4byte	0x37
 2841 0037 04       		.uleb128 0x4
 2842 0038 04       		.byte	0x4
 2843 0039 07       		.byte	0x7
 2844 003a D1000000 		.4byte	.LASF0
 2845 003e 03       		.uleb128 0x3
 2846 003f DF050000 		.4byte	.LASF2
 2847 0043 04       		.byte	0x4
 2848 0044 29       		.byte	0x29
 2849 0045 49000000 		.4byte	0x49
 2850 0049 04       		.uleb128 0x4
 2851 004a 01       		.byte	0x1
 2852 004b 06       		.byte	0x6
 2853 004c B10B0000 		.4byte	.LASF3
 2854 0050 03       		.uleb128 0x3
 2855 0051 C1060000 		.4byte	.LASF4
 2856 0055 04       		.byte	0x4
 2857 0056 2A       		.byte	0x2a
 2858 0057 5B000000 		.4byte	0x5b
 2859 005b 04       		.uleb128 0x4
 2860 005c 01       		.byte	0x1
 2861 005d 08       		.byte	0x8
 2862 005e ED0A0000 		.4byte	.LASF5
 2863 0062 03       		.uleb128 0x3
 2864 0063 BF030000 		.4byte	.LASF6
 2865 0067 04       		.byte	0x4
 2866 0068 35       		.byte	0x35
 2867 0069 6D000000 		.4byte	0x6d
 2868 006d 04       		.uleb128 0x4
 2869 006e 02       		.byte	0x2
 2870 006f 05       		.byte	0x5
 2871 0070 0D090000 		.4byte	.LASF7
 2872 0074 03       		.uleb128 0x3
 2873 0075 61080000 		.4byte	.LASF8
 2874 0079 04       		.byte	0x4
 2875 007a 36       		.byte	0x36
 2876 007b 7F000000 		.4byte	0x7f
 2877 007f 04       		.uleb128 0x4
 2878 0080 02       		.byte	0x2
 2879 0081 07       		.byte	0x7
 2880 0082 BD0B0000 		.4byte	.LASF9
 2881 0086 03       		.uleb128 0x3
 2882 0087 9C0A0000 		.4byte	.LASF10
 2883 008b 04       		.byte	0x4
 2884 008c 4F       		.byte	0x4f
ARM GAS  C:\Users\Luis\AppData\Local\Temp\ccSH6HF5.s 			page 53


 2885 008d 91000000 		.4byte	0x91
 2886 0091 04       		.uleb128 0x4
 2887 0092 04       		.byte	0x4
 2888 0093 05       		.byte	0x5
 2889 0094 0B000000 		.4byte	.LASF11
 2890 0098 03       		.uleb128 0x3
 2891 0099 14030000 		.4byte	.LASF12
 2892 009d 04       		.byte	0x4
 2893 009e 50       		.byte	0x50
 2894 009f A3000000 		.4byte	0xa3
 2895 00a3 04       		.uleb128 0x4
 2896 00a4 04       		.byte	0x4
 2897 00a5 07       		.byte	0x7
 2898 00a6 560A0000 		.4byte	.LASF13
 2899 00aa 04       		.uleb128 0x4
 2900 00ab 08       		.byte	0x8
 2901 00ac 05       		.byte	0x5
 2902 00ad 02050000 		.4byte	.LASF14
 2903 00b1 03       		.uleb128 0x3
 2904 00b2 540B0000 		.4byte	.LASF15
 2905 00b6 04       		.byte	0x4
 2906 00b7 78       		.byte	0x78
 2907 00b8 BC000000 		.4byte	0xbc
 2908 00bc 04       		.uleb128 0x4
 2909 00bd 08       		.byte	0x8
 2910 00be 07       		.byte	0x7
 2911 00bf E9030000 		.4byte	.LASF16
 2912 00c3 05       		.uleb128 0x5
 2913 00c4 86000000 		.4byte	0x86
 2914 00c8 03       		.uleb128 0x3
 2915 00c9 E3000000 		.4byte	.LASF17
 2916 00cd 05       		.byte	0x5
 2917 00ce 45       		.byte	0x45
 2918 00cf 98000000 		.4byte	0x98
 2919 00d3 03       		.uleb128 0x3
 2920 00d4 64060000 		.4byte	.LASF18
 2921 00d8 05       		.byte	0x5
 2922 00d9 46       		.byte	0x46
 2923 00da B1000000 		.4byte	0xb1
 2924 00de 03       		.uleb128 0x3
 2925 00df 37080000 		.4byte	.LASF19
 2926 00e3 05       		.byte	0x5
 2927 00e4 48       		.byte	0x48
 2928 00e5 50000000 		.4byte	0x50
 2929 00e9 03       		.uleb128 0x3
 2930 00ea 7F060000 		.4byte	.LASF20
 2931 00ee 05       		.byte	0x5
 2932 00ef 49       		.byte	0x49
 2933 00f0 50000000 		.4byte	0x50
 2934 00f4 03       		.uleb128 0x3
 2935 00f5 470A0000 		.4byte	.LASF21
 2936 00f9 05       		.byte	0x5
 2937 00fa 4A       		.byte	0x4a
 2938 00fb 50000000 		.4byte	0x50
 2939 00ff 03       		.uleb128 0x3
 2940 0100 A6030000 		.4byte	.LASF22
 2941 0104 05       		.byte	0x5
ARM GAS  C:\Users\Luis\AppData\Local\Temp\ccSH6HF5.s 			page 54


 2942 0105 4C       		.byte	0x4c
 2943 0106 98000000 		.4byte	0x98
 2944 010a 03       		.uleb128 0x3
 2945 010b 6C070000 		.4byte	.LASF23
 2946 010f 05       		.byte	0x5
 2947 0110 4D       		.byte	0x4d
 2948 0111 86000000 		.4byte	0x86
 2949 0115 03       		.uleb128 0x3
 2950 0116 39030000 		.4byte	.LASF24
 2951 011a 05       		.byte	0x5
 2952 011b 4F       		.byte	0x4f
 2953 011c 98000000 		.4byte	0x98
 2954 0120 03       		.uleb128 0x3
 2955 0121 31040000 		.4byte	.LASF25
 2956 0125 05       		.byte	0x5
 2957 0126 51       		.byte	0x51
 2958 0127 86000000 		.4byte	0x86
 2959 012b 03       		.uleb128 0x3
 2960 012c 3F080000 		.4byte	.LASF26
 2961 0130 05       		.byte	0x5
 2962 0131 52       		.byte	0x52
 2963 0132 98000000 		.4byte	0x98
 2964 0136 03       		.uleb128 0x3
 2965 0137 AC000000 		.4byte	.LASF27
 2966 013b 06       		.byte	0x6
 2967 013c 33       		.byte	0x33
 2968 013d 98000000 		.4byte	0x98
 2969 0141 03       		.uleb128 0x3
 2970 0142 AF040000 		.4byte	.LASF28
 2971 0146 06       		.byte	0x6
 2972 0147 3F       		.byte	0x3f
 2973 0148 4C010000 		.4byte	0x14c
 2974 014c 06       		.uleb128 0x6
 2975 014d EE060000 		.4byte	.LASF51
 2976 0151 68       		.byte	0x68
 2977 0152 07       		.byte	0x7
 2978 0153 C2       		.byte	0xc2
 2979 0154 5F020000 		.4byte	0x25f
 2980 0158 07       		.uleb128 0x7
 2981 0159 84090000 		.4byte	.LASF29
 2982 015d 07       		.byte	0x7
 2983 015e C3       		.byte	0xc3
 2984 015f 6A020000 		.4byte	0x26a
 2985 0163 00       		.byte	0
 2986 0164 07       		.uleb128 0x7
 2987 0165 370A0000 		.4byte	.LASF30
 2988 0169 07       		.byte	0x7
 2989 016a C5       		.byte	0xc5
 2990 016b 6A020000 		.4byte	0x26a
 2991 016f 04       		.byte	0x4
 2992 0170 07       		.uleb128 0x7
 2993 0171 7B000000 		.4byte	.LASF31
 2994 0175 07       		.byte	0x7
 2995 0176 C7       		.byte	0xc7
 2996 0177 FF000000 		.4byte	0xff
 2997 017b 08       		.byte	0x8
 2998 017c 07       		.uleb128 0x7
ARM GAS  C:\Users\Luis\AppData\Local\Temp\ccSH6HF5.s 			page 55


 2999 017d 98090000 		.4byte	.LASF32
 3000 0181 07       		.byte	0x7
 3001 0182 C8       		.byte	0xc8
 3002 0183 D3040000 		.4byte	0x4d3
 3003 0187 0C       		.byte	0xc
 3004 0188 07       		.uleb128 0x7
 3005 0189 62040000 		.4byte	.LASF33
 3006 018d 07       		.byte	0x7
 3007 018e CA       		.byte	0xca
 3008 018f 6A020000 		.4byte	0x26a
 3009 0193 10       		.byte	0x10
 3010 0194 07       		.uleb128 0x7
 3011 0195 9E060000 		.4byte	.LASF34
 3012 0199 07       		.byte	0x7
 3013 019a CB       		.byte	0xcb
 3014 019b 6A020000 		.4byte	0x26a
 3015 019f 14       		.byte	0x14
 3016 01a0 07       		.uleb128 0x7
 3017 01a1 5A080000 		.4byte	.LASF35
 3018 01a5 07       		.byte	0x7
 3019 01a6 D2       		.byte	0xd2
 3020 01a7 77070000 		.4byte	0x777
 3021 01ab 18       		.byte	0x18
 3022 01ac 07       		.uleb128 0x7
 3023 01ad B6060000 		.4byte	.LASF36
 3024 01b1 07       		.byte	0x7
 3025 01b2 D8       		.byte	0xd8
 3026 01b3 89070000 		.4byte	0x789
 3027 01b7 1C       		.byte	0x1c
 3028 01b8 07       		.uleb128 0x7
 3029 01b9 E6060000 		.4byte	.LASF37
 3030 01bd 07       		.byte	0x7
 3031 01be DD       		.byte	0xdd
 3032 01bf E9000000 		.4byte	0xe9
 3033 01c3 20       		.byte	0x20
 3034 01c4 07       		.uleb128 0x7
 3035 01c5 A8070000 		.4byte	.LASF38
 3036 01c9 07       		.byte	0x7
 3037 01ca E1       		.byte	0xe1
 3038 01cb DE000000 		.4byte	0xde
 3039 01cf 21       		.byte	0x21
 3040 01d0 07       		.uleb128 0x7
 3041 01d1 030B0000 		.4byte	.LASF39
 3042 01d5 07       		.byte	0x7
 3043 01d6 E6       		.byte	0xe6
 3044 01d7 F4000000 		.4byte	0xf4
 3045 01db 22       		.byte	0x22
 3046 01dc 08       		.uleb128 0x8
 3047 01dd 705F7500 		.ascii	"p_u\000"
 3048 01e1 07       		.byte	0x7
 3049 01e2 3101     		.2byte	0x131
 3050 01e4 B2060000 		.4byte	0x6b2
 3051 01e8 24       		.byte	0x24
 3052 01e9 09       		.uleb128 0x9
 3053 01ea 1E010000 		.4byte	.LASF40
 3054 01ee 07       		.byte	0x7
 3055 01ef 3601     		.2byte	0x136
ARM GAS  C:\Users\Luis\AppData\Local\Temp\ccSH6HF5.s 			page 56


 3056 01f1 70020000 		.4byte	0x270
 3057 01f5 28       		.byte	0x28
 3058 01f6 09       		.uleb128 0x9
 3059 01f7 C6000000 		.4byte	.LASF41
 3060 01fb 07       		.byte	0x7
 3061 01fc 3C01     		.2byte	0x13c
 3062 01fe 94020000 		.4byte	0x294
 3063 0202 2C       		.byte	0x2c
 3064 0203 09       		.uleb128 0x9
 3065 0204 28080000 		.4byte	.LASF42
 3066 0208 07       		.byte	0x7
 3067 0209 4001     		.2byte	0x140
 3068 020b 0A010000 		.4byte	0x10a
 3069 020f 34       		.byte	0x34
 3070 0210 09       		.uleb128 0x9
 3071 0211 26090000 		.4byte	.LASF43
 3072 0215 07       		.byte	0x7
 3073 0216 4601     		.2byte	0x146
 3074 0218 15010000 		.4byte	0x115
 3075 021c 38       		.byte	0x38
 3076 021d 09       		.uleb128 0x9
 3077 021e 6E0A0000 		.4byte	.LASF44
 3078 0222 07       		.byte	0x7
 3079 0223 4D01     		.2byte	0x14d
 3080 0225 71070000 		.4byte	0x771
 3081 0229 3C       		.byte	0x3c
 3082 022a 09       		.uleb128 0x9
 3083 022b F5080000 		.4byte	.LASF45
 3084 022f 07       		.byte	0x7
 3085 0230 5101     		.2byte	0x151
 3086 0232 FF000000 		.4byte	0xff
 3087 0236 40       		.byte	0x40
 3088 0237 09       		.uleb128 0x9
 3089 0238 D6060000 		.4byte	.LASF46
 3090 023c 07       		.byte	0x7
 3091 023d 5801     		.2byte	0x158
 3092 023f 47030000 		.4byte	0x347
 3093 0243 44       		.byte	0x44
 3094 0244 09       		.uleb128 0x9
 3095 0245 CE060000 		.4byte	.LASF47
 3096 0249 07       		.byte	0x7
 3097 024a 5E01     		.2byte	0x15e
 3098 024c 63060000 		.4byte	0x663
 3099 0250 48       		.byte	0x48
 3100 0251 09       		.uleb128 0x9
 3101 0252 D60B0000 		.4byte	.LASF48
 3102 0256 07       		.byte	0x7
 3103 0257 6201     		.2byte	0x162
 3104 0259 47030000 		.4byte	0x347
 3105 025d 60       		.byte	0x60
 3106 025e 00       		.byte	0
 3107 025f 03       		.uleb128 0x3
 3108 0260 56000000 		.4byte	.LASF49
 3109 0264 06       		.byte	0x6
 3110 0265 44       		.byte	0x44
 3111 0266 6A020000 		.4byte	0x26a
 3112 026a 0A       		.uleb128 0xa
ARM GAS  C:\Users\Luis\AppData\Local\Temp\ccSH6HF5.s 			page 57


 3113 026b 04       		.byte	0x4
 3114 026c 41010000 		.4byte	0x141
 3115 0270 03       		.uleb128 0x3
 3116 0271 F6000000 		.4byte	.LASF50
 3117 0275 06       		.byte	0x6
 3118 0276 49       		.byte	0x49
 3119 0277 7B020000 		.4byte	0x27b
 3120 027b 06       		.uleb128 0x6
 3121 027c 25060000 		.4byte	.LASF52
 3122 0280 04       		.byte	0x4
 3123 0281 07       		.byte	0x7
 3124 0282 B0       		.byte	0xb0
 3125 0283 94020000 		.4byte	0x294
 3126 0287 07       		.uleb128 0x7
 3127 0288 84090000 		.4byte	.LASF29
 3128 028c 07       		.byte	0x7
 3129 028d B1       		.byte	0xb1
 3130 028e 6A020000 		.4byte	0x26a
 3131 0292 00       		.byte	0
 3132 0293 00       		.byte	0
 3133 0294 03       		.uleb128 0x3
 3134 0295 14000000 		.4byte	.LASF53
 3135 0299 06       		.byte	0x6
 3136 029a 50       		.byte	0x50
 3137 029b 9F020000 		.4byte	0x29f
 3138 029f 06       		.uleb128 0x6
 3139 02a0 3C070000 		.4byte	.LASF54
 3140 02a4 08       		.byte	0x8
 3141 02a5 07       		.byte	0x7
 3142 02a6 B7       		.byte	0xb7
 3143 02a7 C4020000 		.4byte	0x2c4
 3144 02ab 07       		.uleb128 0x7
 3145 02ac 84090000 		.4byte	.LASF29
 3146 02b0 07       		.byte	0x7
 3147 02b1 B8       		.byte	0xb8
 3148 02b2 6A020000 		.4byte	0x26a
 3149 02b6 00       		.byte	0
 3150 02b7 07       		.uleb128 0x7
 3151 02b8 370A0000 		.4byte	.LASF30
 3152 02bc 07       		.byte	0x7
 3153 02bd B9       		.byte	0xb9
 3154 02be 6A020000 		.4byte	0x26a
 3155 02c2 04       		.byte	0x4
 3156 02c3 00       		.byte	0
 3157 02c4 03       		.uleb128 0x3
 3158 02c5 780A0000 		.4byte	.LASF55
 3159 02c9 06       		.byte	0x6
 3160 02ca 57       		.byte	0x57
 3161 02cb CF020000 		.4byte	0x2cf
 3162 02cf 0B       		.uleb128 0xb
 3163 02d0 21020000 		.4byte	.LASF56
 3164 02d4 1C       		.byte	0x1c
 3165 02d5 07       		.byte	0x7
 3166 02d6 9001     		.2byte	0x190
 3167 02d8 2B030000 		.4byte	0x32b
 3168 02dc 09       		.uleb128 0x9
 3169 02dd 5C070000 		.4byte	.LASF57
ARM GAS  C:\Users\Luis\AppData\Local\Temp\ccSH6HF5.s 			page 58


 3170 02e1 07       		.byte	0x7
 3171 02e2 9101     		.2byte	0x191
 3172 02e4 94020000 		.4byte	0x294
 3173 02e8 00       		.byte	0
 3174 02e9 09       		.uleb128 0x9
 3175 02ea 45030000 		.4byte	.LASF58
 3176 02ee 07       		.byte	0x7
 3177 02ef 9201     		.2byte	0x192
 3178 02f1 FF000000 		.4byte	0xff
 3179 02f5 08       		.byte	0x8
 3180 02f6 09       		.uleb128 0x9
 3181 02f7 D00B0000 		.4byte	.LASF59
 3182 02fb 07       		.byte	0x7
 3183 02fc 9401     		.2byte	0x194
 3184 02fe D3040000 		.4byte	0x4d3
 3185 0302 0C       		.byte	0xc
 3186 0303 09       		.uleb128 0x9
 3187 0304 64070000 		.4byte	.LASF60
 3188 0308 07       		.byte	0x7
 3189 0309 9701     		.2byte	0x197
 3190 030b 6A020000 		.4byte	0x26a
 3191 030f 10       		.byte	0x10
 3192 0310 09       		.uleb128 0x9
 3193 0311 E9070000 		.4byte	.LASF61
 3194 0315 07       		.byte	0x7
 3195 0316 9801     		.2byte	0x198
 3196 0318 6A020000 		.4byte	0x26a
 3197 031c 14       		.byte	0x14
 3198 031d 09       		.uleb128 0x9
 3199 031e 1C090000 		.4byte	.LASF62
 3200 0322 07       		.byte	0x7
 3201 0323 9B01     		.2byte	0x19b
 3202 0325 6A020000 		.4byte	0x26a
 3203 0329 18       		.byte	0x18
 3204 032a 00       		.byte	0
 3205 032b 03       		.uleb128 0x3
 3206 032c A2020000 		.4byte	.LASF63
 3207 0330 06       		.byte	0x6
 3208 0331 5C       		.byte	0x5c
 3209 0332 36030000 		.4byte	0x336
 3210 0336 0A       		.uleb128 0xa
 3211 0337 04       		.byte	0x4
 3212 0338 3C030000 		.4byte	0x33c
 3213 033c 0C       		.uleb128 0xc
 3214 033d 47030000 		.4byte	0x347
 3215 0341 0D       		.uleb128 0xd
 3216 0342 47030000 		.4byte	0x347
 3217 0346 00       		.byte	0
 3218 0347 0E       		.uleb128 0xe
 3219 0348 04       		.byte	0x4
 3220 0349 03       		.uleb128 0x3
 3221 034a B0070000 		.4byte	.LASF64
 3222 034e 06       		.byte	0x6
 3223 034f 61       		.byte	0x61
 3224 0350 54030000 		.4byte	0x354
 3225 0354 0B       		.uleb128 0xb
 3226 0355 AE030000 		.4byte	.LASF65
ARM GAS  C:\Users\Luis\AppData\Local\Temp\ccSH6HF5.s 			page 59


 3227 0359 14       		.byte	0x14
 3228 035a 07       		.byte	0x7
 3229 035b 6B01     		.2byte	0x16b
 3230 035d A3030000 		.4byte	0x3a3
 3231 0361 09       		.uleb128 0x9
 3232 0362 410B0000 		.4byte	.LASF66
 3233 0366 07       		.byte	0x7
 3234 0367 6C01     		.2byte	0x16c
 3235 0369 8F070000 		.4byte	0x78f
 3236 036d 00       		.byte	0
 3237 036e 09       		.uleb128 0x9
 3238 036f F00B0000 		.4byte	.LASF67
 3239 0373 07       		.byte	0x7
 3240 0374 6D01     		.2byte	0x16d
 3241 0376 8F070000 		.4byte	0x78f
 3242 037a 04       		.byte	0x4
 3243 037b 09       		.uleb128 0x9
 3244 037c 81040000 		.4byte	.LASF68
 3245 0380 07       		.byte	0x7
 3246 0381 6E01     		.2byte	0x16e
 3247 0383 36010000 		.4byte	0x136
 3248 0387 08       		.byte	0x8
 3249 0388 09       		.uleb128 0x9
 3250 0389 E80B0000 		.4byte	.LASF69
 3251 038d 07       		.byte	0x7
 3252 038e 6F01     		.2byte	0x16f
 3253 0390 2B030000 		.4byte	0x32b
 3254 0394 0C       		.byte	0xc
 3255 0395 09       		.uleb128 0x9
 3256 0396 D70A0000 		.4byte	.LASF70
 3257 039a 07       		.byte	0x7
 3258 039b 7101     		.2byte	0x171
 3259 039d 47030000 		.4byte	0x347
 3260 03a1 10       		.byte	0x10
 3261 03a2 00       		.byte	0
 3262 03a3 03       		.uleb128 0x3
 3263 03a4 77080000 		.4byte	.LASF71
 3264 03a8 06       		.byte	0x6
 3265 03a9 66       		.byte	0x66
 3266 03aa AE030000 		.4byte	0x3ae
 3267 03ae 0B       		.uleb128 0xb
 3268 03af 6A040000 		.4byte	.LASF72
 3269 03b3 10       		.byte	0x10
 3270 03b4 07       		.byte	0x7
 3271 03b5 7B01     		.2byte	0x17b
 3272 03b7 F0030000 		.4byte	0x3f0
 3273 03bb 09       		.uleb128 0x9
 3274 03bc 410B0000 		.4byte	.LASF66
 3275 03c0 07       		.byte	0x7
 3276 03c1 7C01     		.2byte	0x17c
 3277 03c3 8F070000 		.4byte	0x78f
 3278 03c7 00       		.byte	0
 3279 03c8 09       		.uleb128 0x9
 3280 03c9 F00B0000 		.4byte	.LASF67
 3281 03cd 07       		.byte	0x7
 3282 03ce 7E01     		.2byte	0x17e
 3283 03d0 8F070000 		.4byte	0x78f
ARM GAS  C:\Users\Luis\AppData\Local\Temp\ccSH6HF5.s 			page 60


 3284 03d4 04       		.byte	0x4
 3285 03d5 09       		.uleb128 0x9
 3286 03d6 81040000 		.4byte	.LASF68
 3287 03da 07       		.byte	0x7
 3288 03db 8001     		.2byte	0x180
 3289 03dd 36010000 		.4byte	0x136
 3290 03e1 08       		.byte	0x8
 3291 03e2 09       		.uleb128 0x9
 3292 03e3 6D060000 		.4byte	.LASF73
 3293 03e7 07       		.byte	0x7
 3294 03e8 8801     		.2byte	0x188
 3295 03ea 36010000 		.4byte	0x136
 3296 03ee 0C       		.byte	0xc
 3297 03ef 00       		.byte	0
 3298 03f0 03       		.uleb128 0x3
 3299 03f1 09070000 		.4byte	.LASF74
 3300 03f5 06       		.byte	0x6
 3301 03f6 6B       		.byte	0x6b
 3302 03f7 FB030000 		.4byte	0x3fb
 3303 03fb 0F       		.uleb128 0xf
 3304 03fc 92020000 		.4byte	.LASF75
 3305 0400 1404     		.2byte	0x414
 3306 0402 07       		.byte	0x7
 3307 0403 A201     		.2byte	0x1a2
 3308 0405 3E040000 		.4byte	0x43e
 3309 0409 09       		.uleb128 0x9
 3310 040a 170B0000 		.4byte	.LASF76
 3311 040e 07       		.byte	0x7
 3312 040f AA01     		.2byte	0x1aa
 3313 0411 95070000 		.4byte	0x795
 3314 0415 00       		.byte	0
 3315 0416 09       		.uleb128 0x9
 3316 0417 54040000 		.4byte	.LASF77
 3317 041b 07       		.byte	0x7
 3318 041c AF01     		.2byte	0x1af
 3319 041e 20010000 		.4byte	0x120
 3320 0422 04       		.byte	0x4
 3321 0423 09       		.uleb128 0x9
 3322 0424 AE080000 		.4byte	.LASF78
 3323 0428 07       		.byte	0x7
 3324 0429 B301     		.2byte	0x1b3
 3325 042b 20010000 		.4byte	0x120
 3326 042f 08       		.byte	0x8
 3327 0430 09       		.uleb128 0x9
 3328 0431 A40A0000 		.4byte	.LASF79
 3329 0435 07       		.byte	0x7
 3330 0436 B901     		.2byte	0x1b9
 3331 0438 F5050000 		.4byte	0x5f5
 3332 043c 0C       		.byte	0xc
 3333 043d 00       		.byte	0
 3334 043e 03       		.uleb128 0x3
 3335 043f 670B0000 		.4byte	.LASF80
 3336 0443 06       		.byte	0x6
 3337 0444 70       		.byte	0x70
 3338 0445 49040000 		.4byte	0x449
 3339 0449 0F       		.uleb128 0xf
 3340 044a 6F090000 		.4byte	.LASF81
ARM GAS  C:\Users\Luis\AppData\Local\Temp\ccSH6HF5.s 			page 61


 3341 044e E805     		.2byte	0x5e8
 3342 0450 07       		.byte	0x7
 3343 0451 C201     		.2byte	0x1c2
 3344 0453 B6040000 		.4byte	0x4b6
 3345 0457 09       		.uleb128 0x9
 3346 0458 A3090000 		.4byte	.LASF82
 3347 045c 07       		.byte	0x7
 3348 045d C601     		.2byte	0x1c6
 3349 045f C4020000 		.4byte	0x2c4
 3350 0463 00       		.byte	0
 3351 0464 09       		.uleb128 0x9
 3352 0465 1A020000 		.4byte	.LASF83
 3353 0469 07       		.byte	0x7
 3354 046a CA01     		.2byte	0x1ca
 3355 046c A3030000 		.4byte	0x3a3
 3356 0470 1C       		.byte	0x1c
 3357 0471 08       		.uleb128 0x8
 3358 0472 64626700 		.ascii	"dbg\000"
 3359 0476 07       		.byte	0x7
 3360 0477 CE01     		.2byte	0x1ce
 3361 0479 F0030000 		.4byte	0x3f0
 3362 047d 2C       		.byte	0x2c
 3363 047e 10       		.uleb128 0x10
 3364 047f 46080000 		.4byte	.LASF84
 3365 0483 07       		.byte	0x7
 3366 0484 D201     		.2byte	0x1d2
 3367 0486 41010000 		.4byte	0x141
 3368 048a 4004     		.2byte	0x440
 3369 048c 11       		.uleb128 0x11
 3370 048d 746D00   		.ascii	"tm\000"
 3371 0490 07       		.byte	0x7
 3372 0491 D701     		.2byte	0x1d7
 3373 0493 15060000 		.4byte	0x615
 3374 0497 A804     		.2byte	0x4a8
 3375 0499 10       		.uleb128 0x10
 3376 049a 4C030000 		.4byte	.LASF85
 3377 049e 07       		.byte	0x7
 3378 049f DD01     		.2byte	0x1dd
 3379 04a1 A7060000 		.4byte	0x6a7
 3380 04a5 B004     		.2byte	0x4b0
 3381 04a7 10       		.uleb128 0x10
 3382 04a8 2F020000 		.4byte	.LASF86
 3383 04ac 07       		.byte	0x7
 3384 04ad E301     		.2byte	0x1e3
 3385 04af 9A070000 		.4byte	0x79a
 3386 04b3 E804     		.2byte	0x4e8
 3387 04b5 00       		.byte	0
 3388 04b6 04       		.uleb128 0x4
 3389 04b7 04       		.byte	0x4
 3390 04b8 07       		.byte	0x7
 3391 04b9 3E0A0000 		.4byte	.LASF87
 3392 04bd 03       		.uleb128 0x3
 3393 04be 00070000 		.4byte	.LASF88
 3394 04c2 08       		.byte	0x8
 3395 04c3 65       		.byte	0x65
 3396 04c4 47030000 		.4byte	0x347
 3397 04c8 03       		.uleb128 0x3
ARM GAS  C:\Users\Luis\AppData\Local\Temp\ccSH6HF5.s 			page 62


 3398 04c9 260B0000 		.4byte	.LASF89
 3399 04cd 08       		.byte	0x8
 3400 04ce 6D       		.byte	0x6d
 3401 04cf B1000000 		.4byte	0xb1
 3402 04d3 06       		.uleb128 0x6
 3403 04d4 20080000 		.4byte	.LASF90
 3404 04d8 04       		.byte	0x4
 3405 04d9 08       		.byte	0x8
 3406 04da 89       		.byte	0x89
 3407 04db EC040000 		.4byte	0x4ec
 3408 04df 12       		.uleb128 0x12
 3409 04e0 72313300 		.ascii	"r13\000"
 3410 04e4 08       		.byte	0x8
 3411 04e5 8A       		.byte	0x8a
 3412 04e6 67050000 		.4byte	0x567
 3413 04ea 00       		.byte	0
 3414 04eb 00       		.byte	0
 3415 04ec 06       		.uleb128 0x6
 3416 04ed 39090000 		.4byte	.LASF91
 3417 04f1 24       		.byte	0x24
 3418 04f2 09       		.byte	0x9
 3419 04f3 F4       		.byte	0xf4
 3420 04f4 67050000 		.4byte	0x567
 3421 04f8 08       		.uleb128 0x8
 3422 04f9 723400   		.ascii	"r4\000"
 3423 04fc 09       		.byte	0x9
 3424 04fd 0701     		.2byte	0x107
 3425 04ff BD040000 		.4byte	0x4bd
 3426 0503 00       		.byte	0
 3427 0504 08       		.uleb128 0x8
 3428 0505 723500   		.ascii	"r5\000"
 3429 0508 09       		.byte	0x9
 3430 0509 0801     		.2byte	0x108
 3431 050b BD040000 		.4byte	0x4bd
 3432 050f 04       		.byte	0x4
 3433 0510 08       		.uleb128 0x8
 3434 0511 723600   		.ascii	"r6\000"
 3435 0514 09       		.byte	0x9
 3436 0515 0901     		.2byte	0x109
 3437 0517 BD040000 		.4byte	0x4bd
 3438 051b 08       		.byte	0x8
 3439 051c 08       		.uleb128 0x8
 3440 051d 723700   		.ascii	"r7\000"
 3441 0520 09       		.byte	0x9
 3442 0521 0A01     		.2byte	0x10a
 3443 0523 BD040000 		.4byte	0x4bd
 3444 0527 0C       		.byte	0xc
 3445 0528 08       		.uleb128 0x8
 3446 0529 723800   		.ascii	"r8\000"
 3447 052c 09       		.byte	0x9
 3448 052d 0B01     		.2byte	0x10b
 3449 052f BD040000 		.4byte	0x4bd
 3450 0533 10       		.byte	0x10
 3451 0534 08       		.uleb128 0x8
 3452 0535 723900   		.ascii	"r9\000"
 3453 0538 09       		.byte	0x9
 3454 0539 0C01     		.2byte	0x10c
ARM GAS  C:\Users\Luis\AppData\Local\Temp\ccSH6HF5.s 			page 63


 3455 053b BD040000 		.4byte	0x4bd
 3456 053f 14       		.byte	0x14
 3457 0540 08       		.uleb128 0x8
 3458 0541 72313000 		.ascii	"r10\000"
 3459 0545 09       		.byte	0x9
 3460 0546 0D01     		.2byte	0x10d
 3461 0548 BD040000 		.4byte	0x4bd
 3462 054c 18       		.byte	0x18
 3463 054d 08       		.uleb128 0x8
 3464 054e 72313100 		.ascii	"r11\000"
 3465 0552 09       		.byte	0x9
 3466 0553 0E01     		.2byte	0x10e
 3467 0555 BD040000 		.4byte	0x4bd
 3468 0559 1C       		.byte	0x1c
 3469 055a 08       		.uleb128 0x8
 3470 055b 6C7200   		.ascii	"lr\000"
 3471 055e 09       		.byte	0x9
 3472 055f 0F01     		.2byte	0x10f
 3473 0561 BD040000 		.4byte	0x4bd
 3474 0565 20       		.byte	0x20
 3475 0566 00       		.byte	0
 3476 0567 0A       		.uleb128 0xa
 3477 0568 04       		.byte	0x4
 3478 0569 EC040000 		.4byte	0x4ec
 3479 056d 13       		.uleb128 0x13
 3480 056e 10       		.byte	0x10
 3481 056f 0A       		.byte	0xa
 3482 0570 51       		.byte	0x51
 3483 0571 A6050000 		.4byte	0x5a6
 3484 0575 07       		.uleb128 0x7
 3485 0576 AE060000 		.4byte	.LASF92
 3486 057a 0A       		.byte	0xa
 3487 057b 55       		.byte	0x55
 3488 057c 36010000 		.4byte	0x136
 3489 0580 00       		.byte	0
 3490 0581 07       		.uleb128 0x7
 3491 0582 88060000 		.4byte	.LASF93
 3492 0586 0A       		.byte	0xa
 3493 0587 59       		.byte	0x59
 3494 0588 6A020000 		.4byte	0x26a
 3495 058c 04       		.byte	0x4
 3496 058d 07       		.uleb128 0x7
 3497 058e 00040000 		.4byte	.LASF94
 3498 0592 0A       		.byte	0xa
 3499 0593 5D       		.byte	0x5d
 3500 0594 47030000 		.4byte	0x347
 3501 0598 08       		.byte	0x8
 3502 0599 07       		.uleb128 0x7
 3503 059a 28010000 		.4byte	.LASF95
 3504 059e 0A       		.byte	0xa
 3505 059f 61       		.byte	0x61
 3506 05a0 50000000 		.4byte	0x50
 3507 05a4 0C       		.byte	0xc
 3508 05a5 00       		.byte	0
 3509 05a6 03       		.uleb128 0x3
 3510 05a7 C00A0000 		.4byte	.LASF96
 3511 05ab 0A       		.byte	0xa
ARM GAS  C:\Users\Luis\AppData\Local\Temp\ccSH6HF5.s 			page 64


 3512 05ac 62       		.byte	0x62
 3513 05ad 6D050000 		.4byte	0x56d
 3514 05b1 14       		.uleb128 0x14
 3515 05b2 0804     		.2byte	0x408
 3516 05b4 0A       		.byte	0xa
 3517 05b5 67       		.byte	0x67
 3518 05b6 DF050000 		.4byte	0x5df
 3519 05ba 07       		.uleb128 0x7
 3520 05bb F8060000 		.4byte	.LASF97
 3521 05bf 0A       		.byte	0xa
 3522 05c0 6B       		.byte	0x6b
 3523 05c1 37000000 		.4byte	0x37
 3524 05c5 00       		.byte	0
 3525 05c6 07       		.uleb128 0x7
 3526 05c7 DB070000 		.4byte	.LASF98
 3527 05cb 0A       		.byte	0xa
 3528 05cc 6F       		.byte	0x6f
 3529 05cd DF050000 		.4byte	0x5df
 3530 05d1 04       		.byte	0x4
 3531 05d2 07       		.uleb128 0x7
 3532 05d3 CC070000 		.4byte	.LASF99
 3533 05d7 0A       		.byte	0xa
 3534 05d8 73       		.byte	0x73
 3535 05d9 E5050000 		.4byte	0x5e5
 3536 05dd 08       		.byte	0x8
 3537 05de 00       		.byte	0
 3538 05df 0A       		.uleb128 0xa
 3539 05e0 04       		.byte	0x4
 3540 05e1 A6050000 		.4byte	0x5a6
 3541 05e5 15       		.uleb128 0x15
 3542 05e6 A6050000 		.4byte	0x5a6
 3543 05ea F5050000 		.4byte	0x5f5
 3544 05ee 16       		.uleb128 0x16
 3545 05ef B6040000 		.4byte	0x4b6
 3546 05f3 3F       		.byte	0x3f
 3547 05f4 00       		.byte	0
 3548 05f5 03       		.uleb128 0x3
 3549 05f6 980B0000 		.4byte	.LASF100
 3550 05fa 0A       		.byte	0xa
 3551 05fb 74       		.byte	0x74
 3552 05fc B1050000 		.4byte	0x5b1
 3553 0600 13       		.uleb128 0x13
 3554 0601 04       		.byte	0x4
 3555 0602 0B       		.byte	0xb
 3556 0603 38       		.byte	0x38
 3557 0604 15060000 		.4byte	0x615
 3558 0608 07       		.uleb128 0x7
 3559 0609 0A040000 		.4byte	.LASF101
 3560 060d 0B       		.byte	0xb
 3561 060e 3C       		.byte	0x3c
 3562 060f C8000000 		.4byte	0xc8
 3563 0613 00       		.byte	0
 3564 0614 00       		.byte	0
 3565 0615 03       		.uleb128 0x3
 3566 0616 03030000 		.4byte	.LASF102
 3567 061a 0B       		.byte	0xb
 3568 061b 3D       		.byte	0x3d
ARM GAS  C:\Users\Luis\AppData\Local\Temp\ccSH6HF5.s 			page 65


 3569 061c 00060000 		.4byte	0x600
 3570 0620 13       		.uleb128 0x13
 3571 0621 18       		.byte	0x18
 3572 0622 0B       		.byte	0xb
 3573 0623 48       		.byte	0x48
 3574 0624 63060000 		.4byte	0x663
 3575 0628 07       		.uleb128 0x7
 3576 0629 DE0A0000 		.4byte	.LASF103
 3577 062d 0B       		.byte	0xb
 3578 062e 49       		.byte	0x49
 3579 062f C8000000 		.4byte	0xc8
 3580 0633 00       		.byte	0
 3581 0634 07       		.uleb128 0x7
 3582 0635 5C040000 		.4byte	.LASF104
 3583 0639 0B       		.byte	0xb
 3584 063a 4A       		.byte	0x4a
 3585 063b C8000000 		.4byte	0xc8
 3586 063f 04       		.byte	0x4
 3587 0640 07       		.uleb128 0x7
 3588 0641 9D050000 		.4byte	.LASF105
 3589 0645 0B       		.byte	0xb
 3590 0646 4B       		.byte	0x4b
 3591 0647 C8000000 		.4byte	0xc8
 3592 064b 08       		.byte	0x8
 3593 064c 12       		.uleb128 0x12
 3594 064d 6E00     		.ascii	"n\000"
 3595 064f 0B       		.byte	0xb
 3596 0650 4C       		.byte	0x4c
 3597 0651 2B010000 		.4byte	0x12b
 3598 0655 0C       		.byte	0xc
 3599 0656 07       		.uleb128 0x7
 3600 0657 0B010000 		.4byte	.LASF106
 3601 065b 0B       		.byte	0xb
 3602 065c 4D       		.byte	0x4d
 3603 065d D3000000 		.4byte	0xd3
 3604 0661 10       		.byte	0x10
 3605 0662 00       		.byte	0
 3606 0663 03       		.uleb128 0x3
 3607 0664 CC050000 		.4byte	.LASF107
 3608 0668 0B       		.byte	0xb
 3609 0669 4E       		.byte	0x4e
 3610 066a 20060000 		.4byte	0x620
 3611 066e 13       		.uleb128 0x13
 3612 066f 38       		.byte	0x38
 3613 0670 0C       		.byte	0xc
 3614 0671 38       		.byte	0x38
 3615 0672 A7060000 		.4byte	0x6a7
 3616 0676 07       		.uleb128 0x7
 3617 0677 DA080000 		.4byte	.LASF108
 3618 067b 0C       		.byte	0xc
 3619 067c 39       		.byte	0x39
 3620 067d 2B010000 		.4byte	0x12b
 3621 0681 00       		.byte	0
 3622 0682 07       		.uleb128 0x7
 3623 0683 00080000 		.4byte	.LASF109
 3624 0687 0C       		.byte	0xc
 3625 0688 3A       		.byte	0x3a
ARM GAS  C:\Users\Luis\AppData\Local\Temp\ccSH6HF5.s 			page 66


 3626 0689 2B010000 		.4byte	0x12b
 3627 068d 04       		.byte	0x4
 3628 068e 07       		.uleb128 0x7
 3629 068f 79090000 		.4byte	.LASF110
 3630 0693 0C       		.byte	0xc
 3631 0694 3B       		.byte	0x3b
 3632 0695 63060000 		.4byte	0x663
 3633 0699 08       		.byte	0x8
 3634 069a 07       		.uleb128 0x7
 3635 069b EB000000 		.4byte	.LASF111
 3636 069f 0C       		.byte	0xc
 3637 06a0 3D       		.byte	0x3d
 3638 06a1 63060000 		.4byte	0x663
 3639 06a5 20       		.byte	0x20
 3640 06a6 00       		.byte	0
 3641 06a7 03       		.uleb128 0x3
 3642 06a8 2A030000 		.4byte	.LASF112
 3643 06ac 0C       		.byte	0xc
 3644 06ad 3F       		.byte	0x3f
 3645 06ae 6E060000 		.4byte	0x66e
 3646 06b2 17       		.uleb128 0x17
 3647 06b3 04       		.byte	0x4
 3648 06b4 07       		.byte	0x7
 3649 06b5 FA       		.byte	0xfa
 3650 06b6 0F070000 		.4byte	0x70f
 3651 06ba 18       		.uleb128 0x18
 3652 06bb D0040000 		.4byte	.LASF113
 3653 06bf 07       		.byte	0x7
 3654 06c0 0101     		.2byte	0x101
 3655 06c2 0A010000 		.4byte	0x10a
 3656 06c6 18       		.uleb128 0x18
 3657 06c7 2C0C0000 		.4byte	.LASF114
 3658 06cb 07       		.byte	0x7
 3659 06cc 0801     		.2byte	0x108
 3660 06ce 0A010000 		.4byte	0x10a
 3661 06d2 18       		.uleb128 0x18
 3662 06d3 AB020000 		.4byte	.LASF115
 3663 06d7 07       		.byte	0x7
 3664 06d8 0F01     		.2byte	0x10f
 3665 06da 47030000 		.4byte	0x347
 3666 06de 18       		.uleb128 0x18
 3667 06df 7F0B0000 		.4byte	.LASF116
 3668 06e3 07       		.byte	0x7
 3669 06e4 1601     		.2byte	0x116
 3670 06e6 0F070000 		.4byte	0x70f
 3671 06ea 18       		.uleb128 0x18
 3672 06eb B90A0000 		.4byte	.LASF117
 3673 06ef 07       		.byte	0x7
 3674 06f0 1E01     		.2byte	0x11e
 3675 06f2 3A070000 		.4byte	0x73a
 3676 06f6 18       		.uleb128 0x18
 3677 06f7 3B000000 		.4byte	.LASF118
 3678 06fb 07       		.byte	0x7
 3679 06fc 2701     		.2byte	0x127
 3680 06fe 71070000 		.4byte	0x771
 3681 0702 18       		.uleb128 0x18
 3682 0703 48020000 		.4byte	.LASF119
ARM GAS  C:\Users\Luis\AppData\Local\Temp\ccSH6HF5.s 			page 67


 3683 0707 07       		.byte	0x7
 3684 0708 2F01     		.2byte	0x12f
 3685 070a 15010000 		.4byte	0x115
 3686 070e 00       		.byte	0
 3687 070f 0A       		.uleb128 0xa
 3688 0710 04       		.byte	0x4
 3689 0711 5F020000 		.4byte	0x25f
 3690 0715 06       		.uleb128 0x6
 3691 0716 99030000 		.4byte	.LASF120
 3692 071a 0C       		.byte	0xc
 3693 071b 0D       		.byte	0xd
 3694 071c 34       		.byte	0x34
 3695 071d 3A070000 		.4byte	0x73a
 3696 0721 07       		.uleb128 0x7
 3697 0722 BE000000 		.4byte	.LASF121
 3698 0726 0D       		.byte	0xd
 3699 0727 35       		.byte	0x35
 3700 0728 94020000 		.4byte	0x294
 3701 072c 00       		.byte	0
 3702 072d 07       		.uleb128 0x7
 3703 072e D1020000 		.4byte	.LASF122
 3704 0732 0D       		.byte	0xd
 3705 0733 37       		.byte	0x37
 3706 0734 20010000 		.4byte	0x120
 3707 0738 08       		.byte	0x8
 3708 0739 00       		.byte	0
 3709 073a 0A       		.uleb128 0xa
 3710 073b 04       		.byte	0x4
 3711 073c 15070000 		.4byte	0x715
 3712 0740 06       		.uleb128 0x6
 3713 0741 69050000 		.4byte	.LASF123
 3714 0745 10       		.byte	0x10
 3715 0746 0E       		.byte	0xe
 3716 0747 39       		.byte	0x39
 3717 0748 71070000 		.4byte	0x771
 3718 074c 07       		.uleb128 0x7
 3719 074d 31090000 		.4byte	.LASF124
 3720 0751 0E       		.byte	0xe
 3721 0752 3A       		.byte	0x3a
 3722 0753 94020000 		.4byte	0x294
 3723 0757 00       		.byte	0
 3724 0758 07       		.uleb128 0x7
 3725 0759 B6000000 		.4byte	.LASF125
 3726 075d 0E       		.byte	0xe
 3727 075e 3C       		.byte	0x3c
 3728 075f 6A020000 		.4byte	0x26a
 3729 0763 08       		.byte	0x8
 3730 0764 07       		.uleb128 0x7
 3731 0765 AA0B0000 		.4byte	.LASF126
 3732 0769 0E       		.byte	0xe
 3733 076a 3E       		.byte	0x3e
 3734 076b B5070000 		.4byte	0x7b5
 3735 076f 0C       		.byte	0xc
 3736 0770 00       		.byte	0
 3737 0771 0A       		.uleb128 0xa
 3738 0772 04       		.byte	0x4
 3739 0773 40070000 		.4byte	0x740
ARM GAS  C:\Users\Luis\AppData\Local\Temp\ccSH6HF5.s 			page 68


 3740 0777 0A       		.uleb128 0xa
 3741 0778 04       		.byte	0x4
 3742 0779 7D070000 		.4byte	0x77d
 3743 077d 19       		.uleb128 0x19
 3744 077e 82070000 		.4byte	0x782
 3745 0782 04       		.uleb128 0x4
 3746 0783 01       		.byte	0x1
 3747 0784 08       		.byte	0x8
 3748 0785 6F000000 		.4byte	.LASF127
 3749 0789 0A       		.uleb128 0xa
 3750 078a 04       		.byte	0x4
 3751 078b C8040000 		.4byte	0x4c8
 3752 078f 0A       		.uleb128 0xa
 3753 0790 04       		.byte	0x4
 3754 0791 49030000 		.4byte	0x349
 3755 0795 05       		.uleb128 0x5
 3756 0796 77070000 		.4byte	0x777
 3757 079a 15       		.uleb128 0x15
 3758 079b C8040000 		.4byte	0x4c8
 3759 079f AA070000 		.4byte	0x7aa
 3760 07a3 16       		.uleb128 0x16
 3761 07a4 B6040000 		.4byte	0x4b6
 3762 07a8 1F       		.byte	0x1f
 3763 07a9 00       		.byte	0
 3764 07aa 03       		.uleb128 0x3
 3765 07ab CF0A0000 		.4byte	.LASF128
 3766 07af 0E       		.byte	0xe
 3767 07b0 34       		.byte	0x34
 3768 07b1 40070000 		.4byte	0x740
 3769 07b5 0A       		.uleb128 0xa
 3770 07b6 04       		.byte	0x4
 3771 07b7 AA070000 		.4byte	0x7aa
 3772 07bb 04       		.uleb128 0x4
 3773 07bc 01       		.byte	0x1
 3774 07bd 02       		.byte	0x2
 3775 07be FC040000 		.4byte	.LASF129
 3776 07c2 03       		.uleb128 0x3
 3777 07c3 97070000 		.4byte	.LASF130
 3778 07c7 0F       		.byte	0xf
 3779 07c8 38       		.byte	0x38
 3780 07c9 50000000 		.4byte	0x50
 3781 07cd 03       		.uleb128 0x3
 3782 07ce 7B050000 		.4byte	.LASF131
 3783 07d2 0F       		.byte	0xf
 3784 07d3 39       		.byte	0x39
 3785 07d4 3E000000 		.4byte	0x3e
 3786 07d8 03       		.uleb128 0x3
 3787 07d9 71080000 		.4byte	.LASF132
 3788 07dd 0F       		.byte	0xf
 3789 07de 3A       		.byte	0x3a
 3790 07df 74000000 		.4byte	0x74
 3791 07e3 03       		.uleb128 0x3
 3792 07e4 960A0000 		.4byte	.LASF133
 3793 07e8 0F       		.byte	0xf
 3794 07e9 3B       		.byte	0x3b
 3795 07ea 62000000 		.4byte	0x62
 3796 07ee 03       		.uleb128 0x3
ARM GAS  C:\Users\Luis\AppData\Local\Temp\ccSH6HF5.s 			page 69


 3797 07ef 07090000 		.4byte	.LASF134
 3798 07f3 0F       		.byte	0xf
 3799 07f4 3C       		.byte	0x3c
 3800 07f5 98000000 		.4byte	0x98
 3801 07f9 06       		.uleb128 0x6
 3802 07fa 350C0000 		.4byte	.LASF135
 3803 07fe 04       		.byte	0x4
 3804 07ff 10       		.byte	0x10
 3805 0800 2C       		.byte	0x2c
 3806 0801 12080000 		.4byte	0x812
 3807 0805 07       		.uleb128 0x7
 3808 0806 310B0000 		.4byte	.LASF136
 3809 080a 10       		.byte	0x10
 3810 080b 2D       		.byte	0x2d
 3811 080c EE070000 		.4byte	0x7ee
 3812 0810 00       		.byte	0
 3813 0811 00       		.byte	0
 3814 0812 03       		.uleb128 0x3
 3815 0813 F80B0000 		.4byte	.LASF137
 3816 0817 10       		.byte	0x10
 3817 0818 40       		.byte	0x40
 3818 0819 F9070000 		.4byte	0x7f9
 3819 081d 06       		.uleb128 0x6
 3820 081e 2E080000 		.4byte	.LASF138
 3821 0822 04       		.byte	0x4
 3822 0823 10       		.byte	0x10
 3823 0824 4B       		.byte	0x4b
 3824 0825 36080000 		.4byte	0x836
 3825 0829 07       		.uleb128 0x7
 3826 082a 31010000 		.4byte	.LASF139
 3827 082e 10       		.byte	0x10
 3828 082f 4C       		.byte	0x4c
 3829 0830 36080000 		.4byte	0x836
 3830 0834 00       		.byte	0
 3831 0835 00       		.byte	0
 3832 0836 15       		.uleb128 0x15
 3833 0837 D8070000 		.4byte	0x7d8
 3834 083b 46080000 		.4byte	0x846
 3835 083f 16       		.uleb128 0x16
 3836 0840 B6040000 		.4byte	0x4b6
 3837 0844 01       		.byte	0x1
 3838 0845 00       		.byte	0
 3839 0846 03       		.uleb128 0x3
 3840 0847 05010000 		.4byte	.LASF140
 3841 084b 11       		.byte	0x11
 3842 084c 2F       		.byte	0x2f
 3843 084d CD070000 		.4byte	0x7cd
 3844 0851 1A       		.uleb128 0x1a
 3845 0852 01       		.byte	0x1
 3846 0853 12       		.byte	0x12
 3847 0854 32       		.byte	0x32
 3848 0855 72080000 		.4byte	0x872
 3849 0859 1B       		.uleb128 0x1b
 3850 085a D7020000 		.4byte	.LASF141
 3851 085e 00       		.sleb128 0
 3852 085f 1B       		.uleb128 0x1b
 3853 0860 F4040000 		.4byte	.LASF142
ARM GAS  C:\Users\Luis\AppData\Local\Temp\ccSH6HF5.s 			page 70


 3854 0864 01       		.sleb128 1
 3855 0865 1B       		.uleb128 0x1b
 3856 0866 16080000 		.4byte	.LASF143
 3857 086a 02       		.sleb128 2
 3858 086b 1B       		.uleb128 0x1b
 3859 086c 9D000000 		.4byte	.LASF144
 3860 0870 03       		.sleb128 3
 3861 0871 00       		.byte	0
 3862 0872 1A       		.uleb128 0x1a
 3863 0873 01       		.byte	0x1
 3864 0874 12       		.byte	0x12
 3865 0875 39       		.byte	0x39
 3866 0876 93080000 		.4byte	0x893
 3867 087a 1B       		.uleb128 0x1b
 3868 087b 51080000 		.4byte	.LASF145
 3869 087f 00       		.sleb128 0
 3870 0880 1B       		.uleb128 0x1b
 3871 0881 020C0000 		.4byte	.LASF146
 3872 0885 01       		.sleb128 1
 3873 0886 1B       		.uleb128 0x1b
 3874 0887 9F040000 		.4byte	.LASF147
 3875 088b 02       		.sleb128 2
 3876 088c 1B       		.uleb128 0x1b
 3877 088d 5F050000 		.4byte	.LASF148
 3878 0891 03       		.sleb128 3
 3879 0892 00       		.byte	0
 3880 0893 06       		.uleb128 0x6
 3881 0894 210B0000 		.4byte	.LASF149
 3882 0898 10       		.byte	0x10
 3883 0899 12       		.byte	0x12
 3884 089a 4F       		.byte	0x4f
 3885 089b F4080000 		.4byte	0x8f4
 3886 089f 07       		.uleb128 0x7
 3887 08a0 DE000000 		.4byte	.LASF150
 3888 08a4 12       		.byte	0x12
 3889 08a5 51       		.byte	0x51
 3890 08a6 F4080000 		.4byte	0x8f4
 3891 08aa 00       		.byte	0
 3892 08ab 07       		.uleb128 0x7
 3893 08ac D7040000 		.4byte	.LASF151
 3894 08b0 12       		.byte	0x12
 3895 08b1 54       		.byte	0x54
 3896 08b2 47030000 		.4byte	0x347
 3897 08b6 04       		.byte	0x4
 3898 08b7 07       		.uleb128 0x7
 3899 08b8 C1040000 		.4byte	.LASF152
 3900 08bc 12       		.byte	0x12
 3901 08bd 5D       		.byte	0x5d
 3902 08be D8070000 		.4byte	0x7d8
 3903 08c2 08       		.byte	0x8
 3904 08c3 12       		.uleb128 0x12
 3905 08c4 6C656E00 		.ascii	"len\000"
 3906 08c8 12       		.byte	0x12
 3907 08c9 60       		.byte	0x60
 3908 08ca D8070000 		.4byte	0x7d8
 3909 08ce 0A       		.byte	0xa
 3910 08cf 07       		.uleb128 0x7
ARM GAS  C:\Users\Luis\AppData\Local\Temp\ccSH6HF5.s 			page 71


 3911 08d0 C9060000 		.4byte	.LASF153
 3912 08d4 12       		.byte	0x12
 3913 08d5 63       		.byte	0x63
 3914 08d6 C2070000 		.4byte	0x7c2
 3915 08da 0C       		.byte	0xc
 3916 08db 07       		.uleb128 0x7
 3917 08dc A6000000 		.4byte	.LASF154
 3918 08e0 12       		.byte	0x12
 3919 08e1 66       		.byte	0x66
 3920 08e2 C2070000 		.4byte	0x7c2
 3921 08e6 0D       		.byte	0xd
 3922 08e7 12       		.uleb128 0x12
 3923 08e8 72656600 		.ascii	"ref\000"
 3924 08ec 12       		.byte	0x12
 3925 08ed 6D       		.byte	0x6d
 3926 08ee D8070000 		.4byte	0x7d8
 3927 08f2 0E       		.byte	0xe
 3928 08f3 00       		.byte	0
 3929 08f4 0A       		.uleb128 0xa
 3930 08f5 04       		.byte	0x4
 3931 08f6 93080000 		.4byte	0x893
 3932 08fa 0A       		.uleb128 0xa
 3933 08fb 04       		.byte	0x4
 3934 08fc 00090000 		.4byte	0x900
 3935 0900 06       		.uleb128 0x6
 3936 0901 69000000 		.4byte	.LASF155
 3937 0905 30       		.byte	0x30
 3938 0906 13       		.byte	0x13
 3939 0907 88       		.byte	0x88
 3940 0908 B4090000 		.4byte	0x9b4
 3941 090c 07       		.uleb128 0x7
 3942 090d DE000000 		.4byte	.LASF150
 3943 0911 13       		.byte	0x13
 3944 0912 8A       		.byte	0x8a
 3945 0913 FA080000 		.4byte	0x8fa
 3946 0917 00       		.byte	0
 3947 0918 07       		.uleb128 0x7
 3948 0919 350C0000 		.4byte	.LASF135
 3949 091d 13       		.byte	0x13
 3950 091e 8D       		.byte	0x8d
 3951 091f 12080000 		.4byte	0x812
 3952 0923 04       		.byte	0x4
 3953 0924 07       		.uleb128 0x7
 3954 0925 34070000 		.4byte	.LASF156
 3955 0929 13       		.byte	0x13
 3956 092a 8E       		.byte	0x8e
 3957 092b 12080000 		.4byte	0x812
 3958 092f 08       		.byte	0x8
 3959 0930 12       		.uleb128 0x12
 3960 0931 677700   		.ascii	"gw\000"
 3961 0934 13       		.byte	0x13
 3962 0935 8F       		.byte	0x8f
 3963 0936 12080000 		.4byte	0x812
 3964 093a 0C       		.byte	0xc
 3965 093b 07       		.uleb128 0x7
 3966 093c 09080000 		.4byte	.LASF157
 3967 0940 13       		.byte	0x13
ARM GAS  C:\Users\Luis\AppData\Local\Temp\ccSH6HF5.s 			page 72


 3968 0941 93       		.byte	0x93
 3969 0942 B4090000 		.4byte	0x9b4
 3970 0946 10       		.byte	0x10
 3971 0947 07       		.uleb128 0x7
 3972 0948 74000000 		.4byte	.LASF158
 3973 094c 13       		.byte	0x13
 3974 094d 97       		.byte	0x97
 3975 094e D9090000 		.4byte	0x9d9
 3976 0952 14       		.byte	0x14
 3977 0953 07       		.uleb128 0x7
 3978 0954 1C0C0000 		.4byte	.LASF159
 3979 0958 13       		.byte	0x13
 3980 0959 9B       		.byte	0x9b
 3981 095a 090A0000 		.4byte	0xa09
 3982 095e 18       		.byte	0x18
 3983 095f 07       		.uleb128 0x7
 3984 0960 3B0B0000 		.4byte	.LASF160
 3985 0964 13       		.byte	0x13
 3986 0965 AC       		.byte	0xac
 3987 0966 47030000 		.4byte	0x347
 3988 096a 1C       		.byte	0x1c
 3989 096b 12       		.uleb128 0x12
 3990 096c 6D747500 		.ascii	"mtu\000"
 3991 0970 13       		.byte	0x13
 3992 0971 BA       		.byte	0xba
 3993 0972 D8070000 		.4byte	0x7d8
 3994 0976 20       		.byte	0x20
 3995 0977 07       		.uleb128 0x7
 3996 0978 37040000 		.4byte	.LASF161
 3997 097c 13       		.byte	0x13
 3998 097d BC       		.byte	0xbc
 3999 097e C2070000 		.4byte	0x7c2
 4000 0982 22       		.byte	0x22
 4001 0983 07       		.uleb128 0x7
 4002 0984 DB030000 		.4byte	.LASF162
 4003 0988 13       		.byte	0x13
 4004 0989 BE       		.byte	0xbe
 4005 098a 2E0A0000 		.4byte	0xa2e
 4006 098e 23       		.byte	0x23
 4007 098f 07       		.uleb128 0x7
 4008 0990 A6000000 		.4byte	.LASF154
 4009 0994 13       		.byte	0x13
 4010 0995 C0       		.byte	0xc0
 4011 0996 C2070000 		.4byte	0x7c2
 4012 099a 29       		.byte	0x29
 4013 099b 07       		.uleb128 0x7
 4014 099c DD090000 		.4byte	.LASF163
 4015 09a0 13       		.byte	0x13
 4016 09a1 C2       		.byte	0xc2
 4017 09a2 3E0A0000 		.4byte	0xa3e
 4018 09a6 2A       		.byte	0x2a
 4019 09a7 12       		.uleb128 0x12
 4020 09a8 6E756D00 		.ascii	"num\000"
 4021 09ac 13       		.byte	0x13
 4022 09ad C4       		.byte	0xc4
 4023 09ae C2070000 		.4byte	0x7c2
 4024 09b2 2C       		.byte	0x2c
ARM GAS  C:\Users\Luis\AppData\Local\Temp\ccSH6HF5.s 			page 73


 4025 09b3 00       		.byte	0
 4026 09b4 03       		.uleb128 0x3
 4027 09b5 F4020000 		.4byte	.LASF164
 4028 09b9 13       		.byte	0x13
 4029 09ba 6D       		.byte	0x6d
 4030 09bb BF090000 		.4byte	0x9bf
 4031 09bf 0A       		.uleb128 0xa
 4032 09c0 04       		.byte	0x4
 4033 09c1 C5090000 		.4byte	0x9c5
 4034 09c5 1C       		.uleb128 0x1c
 4035 09c6 46080000 		.4byte	0x846
 4036 09ca D9090000 		.4byte	0x9d9
 4037 09ce 0D       		.uleb128 0xd
 4038 09cf F4080000 		.4byte	0x8f4
 4039 09d3 0D       		.uleb128 0xd
 4040 09d4 FA080000 		.4byte	0x8fa
 4041 09d8 00       		.byte	0
 4042 09d9 03       		.uleb128 0x3
 4043 09da 5C020000 		.4byte	.LASF165
 4044 09de 13       		.byte	0x13
 4045 09df 76       		.byte	0x76
 4046 09e0 E4090000 		.4byte	0x9e4
 4047 09e4 0A       		.uleb128 0xa
 4048 09e5 04       		.byte	0x4
 4049 09e6 EA090000 		.4byte	0x9ea
 4050 09ea 1C       		.uleb128 0x1c
 4051 09eb 46080000 		.4byte	0x846
 4052 09ef 030A0000 		.4byte	0xa03
 4053 09f3 0D       		.uleb128 0xd
 4054 09f4 FA080000 		.4byte	0x8fa
 4055 09f8 0D       		.uleb128 0xd
 4056 09f9 F4080000 		.4byte	0x8f4
 4057 09fd 0D       		.uleb128 0xd
 4058 09fe 030A0000 		.4byte	0xa03
 4059 0a02 00       		.byte	0
 4060 0a03 0A       		.uleb128 0xa
 4061 0a04 04       		.byte	0x4
 4062 0a05 12080000 		.4byte	0x812
 4063 0a09 03       		.uleb128 0x3
 4064 0a0a E2090000 		.4byte	.LASF166
 4065 0a0e 13       		.byte	0x13
 4066 0a0f 7E       		.byte	0x7e
 4067 0a10 140A0000 		.4byte	0xa14
 4068 0a14 0A       		.uleb128 0xa
 4069 0a15 04       		.byte	0x4
 4070 0a16 1A0A0000 		.4byte	0xa1a
 4071 0a1a 1C       		.uleb128 0x1c
 4072 0a1b 46080000 		.4byte	0x846
 4073 0a1f 2E0A0000 		.4byte	0xa2e
 4074 0a23 0D       		.uleb128 0xd
 4075 0a24 FA080000 		.4byte	0x8fa
 4076 0a28 0D       		.uleb128 0xd
 4077 0a29 F4080000 		.4byte	0x8f4
 4078 0a2d 00       		.byte	0
 4079 0a2e 15       		.uleb128 0x15
 4080 0a2f C2070000 		.4byte	0x7c2
 4081 0a33 3E0A0000 		.4byte	0xa3e
ARM GAS  C:\Users\Luis\AppData\Local\Temp\ccSH6HF5.s 			page 74


 4082 0a37 16       		.uleb128 0x16
 4083 0a38 B6040000 		.4byte	0x4b6
 4084 0a3c 05       		.byte	0x5
 4085 0a3d 00       		.byte	0
 4086 0a3e 15       		.uleb128 0x15
 4087 0a3f 82070000 		.4byte	0x782
 4088 0a43 4E0A0000 		.4byte	0xa4e
 4089 0a47 16       		.uleb128 0x16
 4090 0a48 B6040000 		.4byte	0x4b6
 4091 0a4c 01       		.byte	0x1
 4092 0a4d 00       		.byte	0
 4093 0a4e 03       		.uleb128 0x3
 4094 0a4f 59060000 		.4byte	.LASF167
 4095 0a53 14       		.byte	0x14
 4096 0a54 4C       		.byte	0x4c
 4097 0a55 D8070000 		.4byte	0x7d8
 4098 0a59 1A       		.uleb128 0x1a
 4099 0a5a 01       		.byte	0x1
 4100 0a5b 15       		.byte	0x15
 4101 0a5c 2B       		.byte	0x2b
 4102 0a5d BC0A0000 		.4byte	0xabc
 4103 0a61 1B       		.uleb128 0x1b
 4104 0a62 E0080000 		.4byte	.LASF168
 4105 0a66 00       		.sleb128 0
 4106 0a67 1B       		.uleb128 0x1b
 4107 0a68 8B090000 		.4byte	.LASF169
 4108 0a6c 01       		.sleb128 1
 4109 0a6d 1B       		.uleb128 0x1b
 4110 0a6e 85070000 		.4byte	.LASF170
 4111 0a72 02       		.sleb128 2
 4112 0a73 1B       		.uleb128 0x1b
 4113 0a74 42000000 		.4byte	.LASF171
 4114 0a78 03       		.sleb128 3
 4115 0a79 1B       		.uleb128 0x1b
 4116 0a7a 0A0B0000 		.4byte	.LASF172
 4117 0a7e 04       		.sleb128 4
 4118 0a7f 1B       		.uleb128 0x1b
 4119 0a80 F1070000 		.4byte	.LASF173
 4120 0a84 05       		.sleb128 5
 4121 0a85 1B       		.uleb128 0x1b
 4122 0a86 F6090000 		.4byte	.LASF174
 4123 0a8a 06       		.sleb128 6
 4124 0a8b 1B       		.uleb128 0x1b
 4125 0a8c 28070000 		.4byte	.LASF175
 4126 0a90 07       		.sleb128 7
 4127 0a91 1B       		.uleb128 0x1b
 4128 0a92 1D030000 		.4byte	.LASF176
 4129 0a96 08       		.sleb128 8
 4130 0a97 1B       		.uleb128 0x1b
 4131 0a98 59030000 		.4byte	.LASF177
 4132 0a9c 09       		.sleb128 9
 4133 0a9d 1B       		.uleb128 0x1b
 4134 0a9e 8A040000 		.4byte	.LASF178
 4135 0aa2 0A       		.sleb128 10
 4136 0aa3 1B       		.uleb128 0x1b
 4137 0aa4 5E090000 		.4byte	.LASF179
 4138 0aa8 0B       		.sleb128 11
ARM GAS  C:\Users\Luis\AppData\Local\Temp\ccSH6HF5.s 			page 75


 4139 0aa9 1B       		.uleb128 0x1b
 4140 0aaa 14060000 		.4byte	.LASF180
 4141 0aae 0C       		.sleb128 12
 4142 0aaf 1B       		.uleb128 0x1b
 4143 0ab0 6C020000 		.4byte	.LASF181
 4144 0ab4 0D       		.sleb128 13
 4145 0ab5 1B       		.uleb128 0x1b
 4146 0ab6 72050000 		.4byte	.LASF182
 4147 0aba 0E       		.sleb128 14
 4148 0abb 00       		.byte	0
 4149 0abc 06       		.uleb128 0x6
 4150 0abd 2F000000 		.4byte	.LASF183
 4151 0ac1 18       		.byte	0x18
 4152 0ac2 16       		.byte	0x16
 4153 0ac3 3A       		.byte	0x3a
 4154 0ac4 580B0000 		.4byte	0xb58
 4155 0ac8 07       		.uleb128 0x7
 4156 0ac9 DD0B0000 		.4byte	.LASF184
 4157 0acd 16       		.byte	0x16
 4158 0ace 3B       		.byte	0x3b
 4159 0acf D8070000 		.4byte	0x7d8
 4160 0ad3 00       		.byte	0
 4161 0ad4 07       		.uleb128 0x7
 4162 0ad5 930B0000 		.4byte	.LASF185
 4163 0ad9 16       		.byte	0x16
 4164 0ada 3C       		.byte	0x3c
 4165 0adb D8070000 		.4byte	0x7d8
 4166 0adf 02       		.byte	0x2
 4167 0ae0 12       		.uleb128 0x12
 4168 0ae1 667700   		.ascii	"fw\000"
 4169 0ae4 16       		.byte	0x16
 4170 0ae5 3D       		.byte	0x3d
 4171 0ae6 D8070000 		.4byte	0x7d8
 4172 0aea 04       		.byte	0x4
 4173 0aeb 07       		.uleb128 0x7
 4174 0aec 360B0000 		.4byte	.LASF186
 4175 0af0 16       		.byte	0x16
 4176 0af1 3E       		.byte	0x3e
 4177 0af2 D8070000 		.4byte	0x7d8
 4178 0af6 06       		.byte	0x6
 4179 0af7 07       		.uleb128 0x7
 4180 0af8 E2070000 		.4byte	.LASF187
 4181 0afc 16       		.byte	0x16
 4182 0afd 3F       		.byte	0x3f
 4183 0afe D8070000 		.4byte	0x7d8
 4184 0b02 08       		.byte	0x8
 4185 0b03 07       		.uleb128 0x7
 4186 0b04 280A0000 		.4byte	.LASF188
 4187 0b08 16       		.byte	0x16
 4188 0b09 40       		.byte	0x40
 4189 0b0a D8070000 		.4byte	0x7d8
 4190 0b0e 0A       		.byte	0xa
 4191 0b0f 07       		.uleb128 0x7
 4192 0b10 0F080000 		.4byte	.LASF189
 4193 0b14 16       		.byte	0x16
 4194 0b15 41       		.byte	0x41
 4195 0b16 D8070000 		.4byte	0x7d8
ARM GAS  C:\Users\Luis\AppData\Local\Temp\ccSH6HF5.s 			page 76


 4196 0b1a 0C       		.byte	0xc
 4197 0b1b 07       		.uleb128 0x7
 4198 0b1c 45090000 		.4byte	.LASF190
 4199 0b20 16       		.byte	0x16
 4200 0b21 42       		.byte	0x42
 4201 0b22 D8070000 		.4byte	0x7d8
 4202 0b26 0E       		.byte	0xe
 4203 0b27 07       		.uleb128 0x7
 4204 0b28 B10A0000 		.4byte	.LASF191
 4205 0b2c 16       		.byte	0x16
 4206 0b2d 43       		.byte	0x43
 4207 0b2e D8070000 		.4byte	0x7d8
 4208 0b32 10       		.byte	0x10
 4209 0b33 07       		.uleb128 0x7
 4210 0b34 6C030000 		.4byte	.LASF192
 4211 0b38 16       		.byte	0x16
 4212 0b39 44       		.byte	0x44
 4213 0b3a D8070000 		.4byte	0x7d8
 4214 0b3e 12       		.byte	0x12
 4215 0b3f 12       		.uleb128 0x12
 4216 0b40 65727200 		.ascii	"err\000"
 4217 0b44 16       		.byte	0x16
 4218 0b45 45       		.byte	0x45
 4219 0b46 D8070000 		.4byte	0x7d8
 4220 0b4a 14       		.byte	0x14
 4221 0b4b 07       		.uleb128 0x7
 4222 0b4c D4090000 		.4byte	.LASF193
 4223 0b50 16       		.byte	0x16
 4224 0b51 46       		.byte	0x46
 4225 0b52 D8070000 		.4byte	0x7d8
 4226 0b56 16       		.byte	0x16
 4227 0b57 00       		.byte	0
 4228 0b58 06       		.uleb128 0x6
 4229 0b59 3E020000 		.4byte	.LASF194
 4230 0b5d 0A       		.byte	0xa
 4231 0b5e 16       		.byte	0x16
 4232 0b5f 5A       		.byte	0x5a
 4233 0b60 A10B0000 		.4byte	0xba1
 4234 0b64 07       		.uleb128 0x7
 4235 0b65 58090000 		.4byte	.LASF195
 4236 0b69 16       		.byte	0x16
 4237 0b6a 5E       		.byte	0x5e
 4238 0b6b 4E0A0000 		.4byte	0xa4e
 4239 0b6f 00       		.byte	0
 4240 0b70 07       		.uleb128 0x7
 4241 0b71 D6070000 		.4byte	.LASF196
 4242 0b75 16       		.byte	0x16
 4243 0b76 5F       		.byte	0x5f
 4244 0b77 4E0A0000 		.4byte	0xa4e
 4245 0b7b 02       		.byte	0x2
 4246 0b7c 12       		.uleb128 0x12
 4247 0b7d 6D617800 		.ascii	"max\000"
 4248 0b81 16       		.byte	0x16
 4249 0b82 60       		.byte	0x60
 4250 0b83 4E0A0000 		.4byte	0xa4e
 4251 0b87 04       		.byte	0x4
 4252 0b88 12       		.uleb128 0x12
ARM GAS  C:\Users\Luis\AppData\Local\Temp\ccSH6HF5.s 			page 77


 4253 0b89 65727200 		.ascii	"err\000"
 4254 0b8d 16       		.byte	0x16
 4255 0b8e 61       		.byte	0x61
 4256 0b8f D8070000 		.4byte	0x7d8
 4257 0b93 06       		.byte	0x6
 4258 0b94 07       		.uleb128 0x7
 4259 0b95 51060000 		.4byte	.LASF197
 4260 0b99 16       		.byte	0x16
 4261 0b9a 62       		.byte	0x62
 4262 0b9b D8070000 		.4byte	0x7d8
 4263 0b9f 08       		.byte	0x8
 4264 0ba0 00       		.byte	0
 4265 0ba1 06       		.uleb128 0x6
 4266 0ba2 E6020000 		.4byte	.LASF198
 4267 0ba6 06       		.byte	0x6
 4268 0ba7 16       		.byte	0x16
 4269 0ba8 65       		.byte	0x65
 4270 0ba9 D20B0000 		.4byte	0xbd2
 4271 0bad 07       		.uleb128 0x7
 4272 0bae D6070000 		.4byte	.LASF196
 4273 0bb2 16       		.byte	0x16
 4274 0bb3 66       		.byte	0x66
 4275 0bb4 D8070000 		.4byte	0x7d8
 4276 0bb8 00       		.byte	0
 4277 0bb9 12       		.uleb128 0x12
 4278 0bba 6D617800 		.ascii	"max\000"
 4279 0bbe 16       		.byte	0x16
 4280 0bbf 67       		.byte	0x67
 4281 0bc0 D8070000 		.4byte	0x7d8
 4282 0bc4 02       		.byte	0x2
 4283 0bc5 12       		.uleb128 0x12
 4284 0bc6 65727200 		.ascii	"err\000"
 4285 0bca 16       		.byte	0x16
 4286 0bcb 68       		.byte	0x68
 4287 0bcc D8070000 		.4byte	0x7d8
 4288 0bd0 04       		.byte	0x4
 4289 0bd1 00       		.byte	0
 4290 0bd2 06       		.uleb128 0x6
 4291 0bd3 E30A0000 		.4byte	.LASF199
 4292 0bd7 12       		.byte	0x12
 4293 0bd8 16       		.byte	0x16
 4294 0bd9 6B       		.byte	0x6b
 4295 0bda 030C0000 		.4byte	0xc03
 4296 0bde 12       		.uleb128 0x12
 4297 0bdf 73656D00 		.ascii	"sem\000"
 4298 0be3 16       		.byte	0x16
 4299 0be4 6C       		.byte	0x6c
 4300 0be5 A10B0000 		.4byte	0xba1
 4301 0be9 00       		.byte	0
 4302 0bea 07       		.uleb128 0x7
 4303 0beb 8B030000 		.4byte	.LASF200
 4304 0bef 16       		.byte	0x16
 4305 0bf0 6D       		.byte	0x6d
 4306 0bf1 A10B0000 		.4byte	0xba1
 4307 0bf5 06       		.byte	0x6
 4308 0bf6 07       		.uleb128 0x7
 4309 0bf7 9E090000 		.4byte	.LASF201
ARM GAS  C:\Users\Luis\AppData\Local\Temp\ccSH6HF5.s 			page 78


 4310 0bfb 16       		.byte	0x16
 4311 0bfc 6E       		.byte	0x6e
 4312 0bfd A10B0000 		.4byte	0xba1
 4313 0c01 0C       		.byte	0xc
 4314 0c02 00       		.byte	0
 4315 0c03 1D       		.uleb128 0x1d
 4316 0c04 A8040000 		.4byte	.LASF202
 4317 0c08 5001     		.2byte	0x150
 4318 0c0a 16       		.byte	0x16
 4319 0c0b 71       		.byte	0x71
 4320 0c0c 890C0000 		.4byte	0xc89
 4321 0c10 07       		.uleb128 0x7
 4322 0c11 15020000 		.4byte	.LASF203
 4323 0c15 16       		.byte	0x16
 4324 0c16 73       		.byte	0x73
 4325 0c17 BC0A0000 		.4byte	0xabc
 4326 0c1b 00       		.byte	0
 4327 0c1c 07       		.uleb128 0x7
 4328 0c1d E2030000 		.4byte	.LASF204
 4329 0c21 16       		.byte	0x16
 4330 0c22 76       		.byte	0x76
 4331 0c23 BC0A0000 		.4byte	0xabc
 4332 0c27 18       		.byte	0x18
 4333 0c28 07       		.uleb128 0x7
 4334 0c29 91030000 		.4byte	.LASF205
 4335 0c2d 16       		.byte	0x16
 4336 0c2e 79       		.byte	0x79
 4337 0c2f BC0A0000 		.4byte	0xabc
 4338 0c33 30       		.byte	0x30
 4339 0c34 12       		.uleb128 0x12
 4340 0c35 697000   		.ascii	"ip\000"
 4341 0c38 16       		.byte	0x16
 4342 0c39 7C       		.byte	0x7c
 4343 0c3a BC0A0000 		.4byte	0xabc
 4344 0c3e 48       		.byte	0x48
 4345 0c3f 07       		.uleb128 0x7
 4346 0c40 17090000 		.4byte	.LASF206
 4347 0c44 16       		.byte	0x16
 4348 0c45 7F       		.byte	0x7f
 4349 0c46 BC0A0000 		.4byte	0xabc
 4350 0c4a 60       		.byte	0x60
 4351 0c4b 12       		.uleb128 0x12
 4352 0c4c 75647000 		.ascii	"udp\000"
 4353 0c50 16       		.byte	0x16
 4354 0c51 85       		.byte	0x85
 4355 0c52 BC0A0000 		.4byte	0xabc
 4356 0c56 78       		.byte	0x78
 4357 0c57 12       		.uleb128 0x12
 4358 0c58 74637000 		.ascii	"tcp\000"
 4359 0c5c 16       		.byte	0x16
 4360 0c5d 88       		.byte	0x88
 4361 0c5e BC0A0000 		.4byte	0xabc
 4362 0c62 90       		.byte	0x90
 4363 0c63 12       		.uleb128 0x12
 4364 0c64 6D656D00 		.ascii	"mem\000"
 4365 0c68 16       		.byte	0x16
 4366 0c69 8B       		.byte	0x8b
ARM GAS  C:\Users\Luis\AppData\Local\Temp\ccSH6HF5.s 			page 79


 4367 0c6a 580B0000 		.4byte	0xb58
 4368 0c6e A8       		.byte	0xa8
 4369 0c6f 07       		.uleb128 0x7
 4370 0c70 92070000 		.4byte	.LASF207
 4371 0c74 16       		.byte	0x16
 4372 0c75 8E       		.byte	0x8e
 4373 0c76 890C0000 		.4byte	0xc89
 4374 0c7a B2       		.byte	0xb2
 4375 0c7b 1E       		.uleb128 0x1e
 4376 0c7c 73797300 		.ascii	"sys\000"
 4377 0c80 16       		.byte	0x16
 4378 0c81 91       		.byte	0x91
 4379 0c82 D20B0000 		.4byte	0xbd2
 4380 0c86 3E01     		.2byte	0x13e
 4381 0c88 00       		.byte	0
 4382 0c89 15       		.uleb128 0x15
 4383 0c8a 580B0000 		.4byte	0xb58
 4384 0c8e 990C0000 		.4byte	0xc99
 4385 0c92 16       		.uleb128 0x16
 4386 0c93 B6040000 		.4byte	0x4b6
 4387 0c97 0D       		.byte	0xd
 4388 0c98 00       		.byte	0
 4389 0c99 06       		.uleb128 0x6
 4390 0c9a 8E060000 		.4byte	.LASF208
 4391 0c9e 06       		.byte	0x6
 4392 0c9f 17       		.byte	0x17
 4393 0ca0 3B       		.byte	0x3b
 4394 0ca1 B20C0000 		.4byte	0xcb2
 4395 0ca5 07       		.uleb128 0x7
 4396 0ca6 310B0000 		.4byte	.LASF136
 4397 0caa 17       		.byte	0x17
 4398 0cab 3C       		.byte	0x3c
 4399 0cac 2E0A0000 		.4byte	0xa2e
 4400 0cb0 00       		.byte	0
 4401 0cb1 00       		.byte	0
 4402 0cb2 06       		.uleb128 0x6
 4403 0cb3 DE060000 		.4byte	.LASF209
 4404 0cb7 0E       		.byte	0xe
 4405 0cb8 17       		.byte	0x17
 4406 0cb9 48       		.byte	0x48
 4407 0cba E30C0000 		.4byte	0xce3
 4408 0cbe 07       		.uleb128 0x7
 4409 0cbf 270C0000 		.4byte	.LASF210
 4410 0cc3 17       		.byte	0x17
 4411 0cc4 4C       		.byte	0x4c
 4412 0cc5 990C0000 		.4byte	0xc99
 4413 0cc9 00       		.byte	0
 4414 0cca 12       		.uleb128 0x12
 4415 0ccb 73726300 		.ascii	"src\000"
 4416 0ccf 17       		.byte	0x17
 4417 0cd0 4D       		.byte	0x4d
 4418 0cd1 990C0000 		.4byte	0xc99
 4419 0cd5 06       		.byte	0x6
 4420 0cd6 07       		.uleb128 0x7
 4421 0cd7 C9060000 		.4byte	.LASF153
 4422 0cdb 17       		.byte	0x17
 4423 0cdc 4E       		.byte	0x4e
ARM GAS  C:\Users\Luis\AppData\Local\Temp\ccSH6HF5.s 			page 80


 4424 0cdd D8070000 		.4byte	0x7d8
 4425 0ce1 0C       		.byte	0xc
 4426 0ce2 00       		.byte	0
 4427 0ce3 06       		.uleb128 0x6
 4428 0ce4 24000000 		.4byte	.LASF211
 4429 0ce8 1C       		.byte	0x1c
 4430 0ce9 17       		.byte	0x17
 4431 0cea 73       		.byte	0x73
 4432 0ceb 5C0D0000 		.4byte	0xd5c
 4433 0cef 07       		.uleb128 0x7
 4434 0cf0 1E060000 		.4byte	.LASF212
 4435 0cf4 17       		.byte	0x17
 4436 0cf5 74       		.byte	0x74
 4437 0cf6 D8070000 		.4byte	0x7d8
 4438 0cfa 00       		.byte	0
 4439 0cfb 07       		.uleb128 0x7
 4440 0cfc 79060000 		.4byte	.LASF213
 4441 0d00 17       		.byte	0x17
 4442 0d01 75       		.byte	0x75
 4443 0d02 D8070000 		.4byte	0x7d8
 4444 0d06 02       		.byte	0x2
 4445 0d07 07       		.uleb128 0x7
 4446 0d08 E20B0000 		.4byte	.LASF214
 4447 0d0c 17       		.byte	0x17
 4448 0d0d 76       		.byte	0x76
 4449 0d0e C2070000 		.4byte	0x7c2
 4450 0d12 04       		.byte	0x4
 4451 0d13 07       		.uleb128 0x7
 4452 0d14 8C000000 		.4byte	.LASF215
 4453 0d18 17       		.byte	0x17
 4454 0d19 77       		.byte	0x77
 4455 0d1a C2070000 		.4byte	0x7c2
 4456 0d1e 05       		.byte	0x5
 4457 0d1f 07       		.uleb128 0x7
 4458 0d20 97060000 		.4byte	.LASF216
 4459 0d24 17       		.byte	0x17
 4460 0d25 78       		.byte	0x78
 4461 0d26 D8070000 		.4byte	0x7d8
 4462 0d2a 06       		.byte	0x6
 4463 0d2b 07       		.uleb128 0x7
 4464 0d2c 8A050000 		.4byte	.LASF217
 4465 0d30 17       		.byte	0x17
 4466 0d31 79       		.byte	0x79
 4467 0d32 990C0000 		.4byte	0xc99
 4468 0d36 08       		.byte	0x8
 4469 0d37 07       		.uleb128 0x7
 4470 0d38 A6060000 		.4byte	.LASF218
 4471 0d3c 17       		.byte	0x17
 4472 0d3d 7A       		.byte	0x7a
 4473 0d3e 1D080000 		.4byte	0x81d
 4474 0d42 0E       		.byte	0xe
 4475 0d43 07       		.uleb128 0x7
 4476 0d44 FB0A0000 		.4byte	.LASF219
 4477 0d48 17       		.byte	0x17
 4478 0d49 7B       		.byte	0x7b
 4479 0d4a 990C0000 		.4byte	0xc99
 4480 0d4e 12       		.byte	0x12
ARM GAS  C:\Users\Luis\AppData\Local\Temp\ccSH6HF5.s 			page 81


 4481 0d4f 07       		.uleb128 0x7
 4482 0d50 16010000 		.4byte	.LASF220
 4483 0d54 17       		.byte	0x17
 4484 0d55 7C       		.byte	0x7c
 4485 0d56 1D080000 		.4byte	0x81d
 4486 0d5a 18       		.byte	0x18
 4487 0d5b 00       		.byte	0
 4488 0d5c 1F       		.uleb128 0x1f
 4489 0d5d E6050000 		.4byte	.LASF278
 4490 0d61 01       		.byte	0x1
 4491 0d62 02       		.byte	0x2
 4492 0d63 5F       		.byte	0x5f
 4493 0d64 810D0000 		.4byte	0xd81
 4494 0d68 1B       		.uleb128 0x1b
 4495 0d69 18040000 		.4byte	.LASF221
 4496 0d6d 00       		.sleb128 0
 4497 0d6e 1B       		.uleb128 0x1b
 4498 0d6f 050A0000 		.4byte	.LASF222
 4499 0d73 01       		.sleb128 1
 4500 0d74 1B       		.uleb128 0x1b
 4501 0d75 BD020000 		.4byte	.LASF223
 4502 0d79 02       		.sleb128 2
 4503 0d7a 1B       		.uleb128 0x1b
 4504 0d7b 8D080000 		.4byte	.LASF224
 4505 0d7f 03       		.sleb128 3
 4506 0d80 00       		.byte	0
 4507 0d81 06       		.uleb128 0x6
 4508 0d82 C7030000 		.4byte	.LASF225
 4509 0d86 14       		.byte	0x14
 4510 0d87 02       		.byte	0x2
 4511 0d88 69       		.byte	0x69
 4512 0d89 D40D0000 		.4byte	0xdd4
 4513 0d8d 12       		.uleb128 0x12
 4514 0d8e 7100     		.ascii	"q\000"
 4515 0d90 02       		.byte	0x2
 4516 0d91 6F       		.byte	0x6f
 4517 0d92 F4080000 		.4byte	0x8f4
 4518 0d96 00       		.byte	0
 4519 0d97 07       		.uleb128 0x7
 4520 0d98 C9040000 		.4byte	.LASF226
 4521 0d9c 02       		.byte	0x2
 4522 0d9d 71       		.byte	0x71
 4523 0d9e 12080000 		.4byte	0x812
 4524 0da2 04       		.byte	0x4
 4525 0da3 07       		.uleb128 0x7
 4526 0da4 69000000 		.4byte	.LASF155
 4527 0da8 02       		.byte	0x2
 4528 0da9 72       		.byte	0x72
 4529 0daa FA080000 		.4byte	0x8fa
 4530 0dae 08       		.byte	0x8
 4531 0daf 07       		.uleb128 0x7
 4532 0db0 95000000 		.4byte	.LASF227
 4533 0db4 02       		.byte	0x2
 4534 0db5 73       		.byte	0x73
 4535 0db6 990C0000 		.4byte	0xc99
 4536 0dba 0C       		.byte	0xc
 4537 0dbb 07       		.uleb128 0x7
ARM GAS  C:\Users\Luis\AppData\Local\Temp\ccSH6HF5.s 			page 82


 4538 0dbc 3B0B0000 		.4byte	.LASF160
 4539 0dc0 02       		.byte	0x2
 4540 0dc1 74       		.byte	0x74
 4541 0dc2 C2070000 		.4byte	0x7c2
 4542 0dc6 12       		.byte	0x12
 4543 0dc7 07       		.uleb128 0x7
 4544 0dc8 2B040000 		.4byte	.LASF228
 4545 0dcc 02       		.byte	0x2
 4546 0dcd 75       		.byte	0x75
 4547 0dce C2070000 		.4byte	0x7c2
 4548 0dd2 13       		.byte	0x13
 4549 0dd3 00       		.byte	0
 4550 0dd4 20       		.uleb128 0x20
 4551 0dd5 C0070000 		.4byte	.LASF229
 4552 0dd9 01       		.byte	0x1
 4553 0dda CC01     		.2byte	0x1cc
 4554 0ddc 00000000 		.4byte	.LFB230
 4555 0de0 14000000 		.4byte	.LFE230-.LFB230
 4556 0de4 01       		.uleb128 0x1
 4557 0de5 9C       		.byte	0x9c
 4558 0de6 FA0D0000 		.4byte	0xdfa
 4559 0dea 21       		.uleb128 0x21
 4560 0deb 11040000 		.4byte	.LASF231
 4561 0def 01       		.byte	0x1
 4562 0df0 CC01     		.2byte	0x1cc
 4563 0df2 77070000 		.4byte	0x777
 4564 0df6 02       		.uleb128 0x2
 4565 0df7 91       		.byte	0x91
 4566 0df8 74       		.sleb128 -12
 4567 0df9 00       		.byte	0
 4568 0dfa 22       		.uleb128 0x22
 4569 0dfb 42040000 		.4byte	.LASF230
 4570 0dff 02       		.byte	0x2
 4571 0e00 B1       		.byte	0xb1
 4572 0e01 00000000 		.4byte	.LFB260
 4573 0e05 64000000 		.4byte	.LFE260-.LFB260
 4574 0e09 01       		.uleb128 0x1
 4575 0e0a 9C       		.byte	0x9c
 4576 0e0b 1C0E0000 		.4byte	0xe1c
 4577 0e0f 23       		.uleb128 0x23
 4578 0e10 6900     		.ascii	"i\000"
 4579 0e12 02       		.byte	0x2
 4580 0e13 B1       		.byte	0xb1
 4581 0e14 25000000 		.4byte	0x25
 4582 0e18 02       		.uleb128 0x2
 4583 0e19 91       		.byte	0x91
 4584 0e1a 74       		.sleb128 -12
 4585 0e1b 00       		.byte	0
 4586 0e1c 24       		.uleb128 0x24
 4587 0e1d 92050000 		.4byte	.LASF243
 4588 0e21 02       		.byte	0x2
 4589 0e22 CE       		.byte	0xce
 4590 0e23 00000000 		.4byte	.LFB261
 4591 0e27 DC000000 		.4byte	.LFE261-.LFB261
 4592 0e2b 01       		.uleb128 0x1
 4593 0e2c 9C       		.byte	0x9c
 4594 0e2d 560E0000 		.4byte	0xe56
ARM GAS  C:\Users\Luis\AppData\Local\Temp\ccSH6HF5.s 			page 83


 4595 0e31 25       		.uleb128 0x25
 4596 0e32 6900     		.ascii	"i\000"
 4597 0e34 02       		.byte	0x2
 4598 0e35 D0       		.byte	0xd0
 4599 0e36 C2070000 		.4byte	0x7c2
 4600 0e3a 02       		.uleb128 0x2
 4601 0e3b 91       		.byte	0x91
 4602 0e3c 77       		.sleb128 -9
 4603 0e3d 26       		.uleb128 0x26
 4604 0e3e 0C000000 		.4byte	.LBB2
 4605 0e42 B8000000 		.4byte	.LBE2-.LBB2
 4606 0e46 27       		.uleb128 0x27
 4607 0e47 3B0B0000 		.4byte	.LASF160
 4608 0e4b 02       		.byte	0x2
 4609 0e4c D5       		.byte	0xd5
 4610 0e4d C2070000 		.4byte	0x7c2
 4611 0e51 02       		.uleb128 0x2
 4612 0e52 91       		.byte	0x91
 4613 0e53 76       		.sleb128 -10
 4614 0e54 00       		.byte	0
 4615 0e55 00       		.byte	0
 4616 0e56 28       		.uleb128 0x28
 4617 0e57 02060000 		.4byte	.LASF239
 4618 0e5b 02       		.byte	0x2
 4619 0e5c 0A01     		.2byte	0x10a
 4620 0e5e CD070000 		.4byte	0x7cd
 4621 0e62 00000000 		.4byte	.LFB262
 4622 0e66 5C020000 		.4byte	.LFE262-.LFB262
 4623 0e6a 01       		.uleb128 0x1
 4624 0e6b 9C       		.byte	0x9c
 4625 0e6c 1E0F0000 		.4byte	0xf1e
 4626 0e70 21       		.uleb128 0x21
 4627 0e71 C9040000 		.4byte	.LASF226
 4628 0e75 02       		.byte	0x2
 4629 0e76 0A01     		.2byte	0x10a
 4630 0e78 030A0000 		.4byte	0xa03
 4631 0e7c 02       		.uleb128 0x2
 4632 0e7d 91       		.byte	0x91
 4633 0e7e 64       		.sleb128 -28
 4634 0e7f 21       		.uleb128 0x21
 4635 0e80 A6000000 		.4byte	.LASF154
 4636 0e84 02       		.byte	0x2
 4637 0e85 0A01     		.2byte	0x10a
 4638 0e87 C2070000 		.4byte	0x7c2
 4639 0e8b 02       		.uleb128 0x2
 4640 0e8c 91       		.byte	0x91
 4641 0e8d 63       		.sleb128 -29
 4642 0e8e 29       		.uleb128 0x29
 4643 0e8f 10050000 		.4byte	.LASF232
 4644 0e93 02       		.byte	0x2
 4645 0e94 0C01     		.2byte	0x10c
 4646 0e96 CD070000 		.4byte	0x7cd
 4647 0e9a 02       		.uleb128 0x2
 4648 0e9b 91       		.byte	0x91
 4649 0e9c 77       		.sleb128 -9
 4650 0e9d 29       		.uleb128 0x29
 4651 0e9e 00000000 		.4byte	.LASF233
ARM GAS  C:\Users\Luis\AppData\Local\Temp\ccSH6HF5.s 			page 84


 4652 0ea2 02       		.byte	0x2
 4653 0ea3 0C01     		.2byte	0x10c
 4654 0ea5 CD070000 		.4byte	0x7cd
 4655 0ea9 02       		.uleb128 0x2
 4656 0eaa 91       		.byte	0x91
 4657 0eab 76       		.sleb128 -10
 4658 0eac 29       		.uleb128 0x29
 4659 0ead 680A0000 		.4byte	.LASF234
 4660 0eb1 02       		.byte	0x2
 4661 0eb2 0D01     		.2byte	0x10d
 4662 0eb4 CD070000 		.4byte	0x7cd
 4663 0eb8 02       		.uleb128 0x2
 4664 0eb9 91       		.byte	0x91
 4665 0eba 75       		.sleb128 -11
 4666 0ebb 2A       		.uleb128 0x2a
 4667 0ebc 6900     		.ascii	"i\000"
 4668 0ebe 02       		.byte	0x2
 4669 0ebf 0E01     		.2byte	0x10e
 4670 0ec1 C2070000 		.4byte	0x7c2
 4671 0ec5 02       		.uleb128 0x2
 4672 0ec6 91       		.byte	0x91
 4673 0ec7 74       		.sleb128 -12
 4674 0ec8 29       		.uleb128 0x29
 4675 0ec9 730B0000 		.4byte	.LASF235
 4676 0ecd 02       		.byte	0x2
 4677 0ece 0E01     		.2byte	0x10e
 4678 0ed0 C2070000 		.4byte	0x7c2
 4679 0ed4 02       		.uleb128 0x2
 4680 0ed5 91       		.byte	0x91
 4681 0ed6 73       		.sleb128 -13
 4682 0ed7 29       		.uleb128 0x29
 4683 0ed8 B7080000 		.4byte	.LASF236
 4684 0edc 02       		.byte	0x2
 4685 0edd 0E01     		.2byte	0x10e
 4686 0edf C2070000 		.4byte	0x7c2
 4687 0ee3 02       		.uleb128 0x2
 4688 0ee4 91       		.byte	0x91
 4689 0ee5 72       		.sleb128 -14
 4690 0ee6 29       		.uleb128 0x29
 4691 0ee7 80050000 		.4byte	.LASF237
 4692 0eeb 02       		.byte	0x2
 4693 0eec 1001     		.2byte	0x110
 4694 0eee CD070000 		.4byte	0x7cd
 4695 0ef2 02       		.uleb128 0x2
 4696 0ef3 91       		.byte	0x91
 4697 0ef4 71       		.sleb128 -15
 4698 0ef5 29       		.uleb128 0x29
 4699 0ef6 82000000 		.4byte	.LASF238
 4700 0efa 02       		.byte	0x2
 4701 0efb 1201     		.2byte	0x112
 4702 0efd C2070000 		.4byte	0x7c2
 4703 0f01 02       		.uleb128 0x2
 4704 0f02 91       		.byte	0x91
 4705 0f03 70       		.sleb128 -16
 4706 0f04 26       		.uleb128 0x26
 4707 0f05 32000000 		.4byte	.LBB3
 4708 0f09 18010000 		.4byte	.LBE3-.LBB3
ARM GAS  C:\Users\Luis\AppData\Local\Temp\ccSH6HF5.s 			page 85


 4709 0f0d 29       		.uleb128 0x29
 4710 0f0e 3B0B0000 		.4byte	.LASF160
 4711 0f12 02       		.byte	0x2
 4712 0f13 2401     		.2byte	0x124
 4713 0f15 C2070000 		.4byte	0x7c2
 4714 0f19 02       		.uleb128 0x2
 4715 0f1a 91       		.byte	0x91
 4716 0f1b 6F       		.sleb128 -17
 4717 0f1c 00       		.byte	0
 4718 0f1d 00       		.byte	0
 4719 0f1e 28       		.uleb128 0x28
 4720 0f1f 4D070000 		.4byte	.LASF240
 4721 0f23 02       		.byte	0x2
 4722 0f24 9F01     		.2byte	0x19f
 4723 0f26 46080000 		.4byte	0x846
 4724 0f2a 00000000 		.4byte	.LFB263
 4725 0f2e 64000000 		.4byte	.LFE263-.LFB263
 4726 0f32 01       		.uleb128 0x1
 4727 0f33 9C       		.byte	0x9c
 4728 0f34 820F0000 		.4byte	0xf82
 4729 0f38 21       		.uleb128 0x21
 4730 0f39 69000000 		.4byte	.LASF155
 4731 0f3d 02       		.byte	0x2
 4732 0f3e 9F01     		.2byte	0x19f
 4733 0f40 FA080000 		.4byte	0x8fa
 4734 0f44 02       		.uleb128 0x2
 4735 0f45 91       		.byte	0x91
 4736 0f46 6C       		.sleb128 -20
 4737 0f47 2B       		.uleb128 0x2b
 4738 0f48 7000     		.ascii	"p\000"
 4739 0f4a 02       		.byte	0x2
 4740 0f4b 9F01     		.2byte	0x19f
 4741 0f4d F4080000 		.4byte	0x8f4
 4742 0f51 02       		.uleb128 0x2
 4743 0f52 91       		.byte	0x91
 4744 0f53 68       		.sleb128 -24
 4745 0f54 2B       		.uleb128 0x2b
 4746 0f55 73726300 		.ascii	"src\000"
 4747 0f59 02       		.byte	0x2
 4748 0f5a 9F01     		.2byte	0x19f
 4749 0f5c 820F0000 		.4byte	0xf82
 4750 0f60 02       		.uleb128 0x2
 4751 0f61 91       		.byte	0x91
 4752 0f62 64       		.sleb128 -28
 4753 0f63 2B       		.uleb128 0x2b
 4754 0f64 64737400 		.ascii	"dst\000"
 4755 0f68 02       		.byte	0x2
 4756 0f69 9F01     		.2byte	0x19f
 4757 0f6b 820F0000 		.4byte	0xf82
 4758 0f6f 02       		.uleb128 0x2
 4759 0f70 91       		.byte	0x91
 4760 0f71 60       		.sleb128 -32
 4761 0f72 29       		.uleb128 0x29
 4762 0f73 00090000 		.4byte	.LASF241
 4763 0f77 02       		.byte	0x2
 4764 0f78 A101     		.2byte	0x1a1
 4765 0f7a 880F0000 		.4byte	0xf88
ARM GAS  C:\Users\Luis\AppData\Local\Temp\ccSH6HF5.s 			page 86


 4766 0f7e 02       		.uleb128 0x2
 4767 0f7f 91       		.byte	0x91
 4768 0f80 74       		.sleb128 -12
 4769 0f81 00       		.byte	0
 4770 0f82 0A       		.uleb128 0xa
 4771 0f83 04       		.byte	0x4
 4772 0f84 990C0000 		.4byte	0xc99
 4773 0f88 0A       		.uleb128 0xa
 4774 0f89 04       		.byte	0x4
 4775 0f8a B20C0000 		.4byte	0xcb2
 4776 0f8e 28       		.uleb128 0x28
 4777 0f8f 73030000 		.4byte	.LASF242
 4778 0f93 02       		.byte	0x2
 4779 0f94 C001     		.2byte	0x1c0
 4780 0f96 46080000 		.4byte	0x846
 4781 0f9a 00000000 		.4byte	.LFB264
 4782 0f9e 34010000 		.4byte	.LFE264-.LFB264
 4783 0fa2 01       		.uleb128 0x1
 4784 0fa3 9C       		.byte	0x9c
 4785 0fa4 09100000 		.4byte	0x1009
 4786 0fa8 21       		.uleb128 0x21
 4787 0fa9 69000000 		.4byte	.LASF155
 4788 0fad 02       		.byte	0x2
 4789 0fae C001     		.2byte	0x1c0
 4790 0fb0 FA080000 		.4byte	0x8fa
 4791 0fb4 02       		.uleb128 0x2
 4792 0fb5 91       		.byte	0x91
 4793 0fb6 6C       		.sleb128 -20
 4794 0fb7 21       		.uleb128 0x21
 4795 0fb8 C9040000 		.4byte	.LASF226
 4796 0fbc 02       		.byte	0x2
 4797 0fbd C001     		.2byte	0x1c0
 4798 0fbf 030A0000 		.4byte	0xa03
 4799 0fc3 02       		.uleb128 0x2
 4800 0fc4 91       		.byte	0x91
 4801 0fc5 68       		.sleb128 -24
 4802 0fc6 21       		.uleb128 0x21
 4803 0fc7 95000000 		.4byte	.LASF227
 4804 0fcb 02       		.byte	0x2
 4805 0fcc C001     		.2byte	0x1c0
 4806 0fce 820F0000 		.4byte	0xf82
 4807 0fd2 02       		.uleb128 0x2
 4808 0fd3 91       		.byte	0x91
 4809 0fd4 64       		.sleb128 -28
 4810 0fd5 21       		.uleb128 0x21
 4811 0fd6 A6000000 		.4byte	.LASF154
 4812 0fda 02       		.byte	0x2
 4813 0fdb C001     		.2byte	0x1c0
 4814 0fdd C2070000 		.4byte	0x7c2
 4815 0fe1 02       		.uleb128 0x2
 4816 0fe2 91       		.byte	0x91
 4817 0fe3 63       		.sleb128 -29
 4818 0fe4 2A       		.uleb128 0x2a
 4819 0fe5 6900     		.ascii	"i\000"
 4820 0fe7 02       		.byte	0x2
 4821 0fe8 C201     		.2byte	0x1c2
 4822 0fea CD070000 		.4byte	0x7cd
ARM GAS  C:\Users\Luis\AppData\Local\Temp\ccSH6HF5.s 			page 87


 4823 0fee 02       		.uleb128 0x2
 4824 0fef 91       		.byte	0x91
 4825 0ff0 77       		.sleb128 -9
 4826 0ff1 26       		.uleb128 0x26
 4827 0ff2 E0000000 		.4byte	.LBB4
 4828 0ff6 3E000000 		.4byte	.LBE4-.LBB4
 4829 0ffa 2A       		.uleb128 0x2a
 4830 0ffb 7000     		.ascii	"p\000"
 4831 0ffd 02       		.byte	0x2
 4832 0ffe F901     		.2byte	0x1f9
 4833 1000 F4080000 		.4byte	0x8f4
 4834 1004 02       		.uleb128 0x2
 4835 1005 91       		.byte	0x91
 4836 1006 70       		.sleb128 -16
 4837 1007 00       		.byte	0
 4838 1008 00       		.byte	0
 4839 1009 2C       		.uleb128 0x2c
 4840 100a DF040000 		.4byte	.LASF244
 4841 100e 02       		.byte	0x2
 4842 100f 4302     		.2byte	0x243
 4843 1011 00000000 		.4byte	.LFB265
 4844 1015 60000000 		.4byte	.LFE265-.LFB265
 4845 1019 01       		.uleb128 0x1
 4846 101a 9C       		.byte	0x9c
 4847 101b 55100000 		.4byte	0x1055
 4848 101f 21       		.uleb128 0x21
 4849 1020 69000000 		.4byte	.LASF155
 4850 1024 02       		.byte	0x2
 4851 1025 4302     		.2byte	0x243
 4852 1027 FA080000 		.4byte	0x8fa
 4853 102b 02       		.uleb128 0x2
 4854 102c 91       		.byte	0x91
 4855 102d 6C       		.sleb128 -20
 4856 102e 2A       		.uleb128 0x2a
 4857 102f 6900     		.ascii	"i\000"
 4858 1031 02       		.byte	0x2
 4859 1032 4502     		.2byte	0x245
 4860 1034 C2070000 		.4byte	0x7c2
 4861 1038 02       		.uleb128 0x2
 4862 1039 91       		.byte	0x91
 4863 103a 77       		.sleb128 -9
 4864 103b 26       		.uleb128 0x26
 4865 103c 0E000000 		.4byte	.LBB5
 4866 1040 3A000000 		.4byte	.LBE5-.LBB5
 4867 1044 29       		.uleb128 0x29
 4868 1045 3B0B0000 		.4byte	.LASF160
 4869 1049 02       		.byte	0x2
 4870 104a 4802     		.2byte	0x248
 4871 104c C2070000 		.4byte	0x7c2
 4872 1050 02       		.uleb128 0x2
 4873 1051 91       		.byte	0x91
 4874 1052 76       		.sleb128 -10
 4875 1053 00       		.byte	0
 4876 1054 00       		.byte	0
 4877 1055 2D       		.uleb128 0x2d
 4878 1056 0B0C0000 		.4byte	.LASF251
 4879 105a 02       		.byte	0x2
ARM GAS  C:\Users\Luis\AppData\Local\Temp\ccSH6HF5.s 			page 88


 4880 105b 5B02     		.2byte	0x25b
 4881 105d CD070000 		.4byte	0x7cd
 4882 1061 00000000 		.4byte	.LFB266
 4883 1065 94000000 		.4byte	.LFE266-.LFB266
 4884 1069 01       		.uleb128 0x1
 4885 106a 9C       		.byte	0x9c
 4886 106b B9100000 		.4byte	0x10b9
 4887 106f 21       		.uleb128 0x21
 4888 1070 69000000 		.4byte	.LASF155
 4889 1074 02       		.byte	0x2
 4890 1075 5B02     		.2byte	0x25b
 4891 1077 FA080000 		.4byte	0x8fa
 4892 107b 02       		.uleb128 0x2
 4893 107c 91       		.byte	0x91
 4894 107d 6C       		.sleb128 -20
 4895 107e 21       		.uleb128 0x21
 4896 107f C9040000 		.4byte	.LASF226
 4897 1083 02       		.byte	0x2
 4898 1084 5B02     		.2byte	0x25b
 4899 1086 030A0000 		.4byte	0xa03
 4900 108a 02       		.uleb128 0x2
 4901 108b 91       		.byte	0x91
 4902 108c 68       		.sleb128 -24
 4903 108d 21       		.uleb128 0x21
 4904 108e 7D070000 		.4byte	.LASF245
 4905 1092 02       		.byte	0x2
 4906 1093 5C02     		.2byte	0x25c
 4907 1095 B9100000 		.4byte	0x10b9
 4908 1099 02       		.uleb128 0x2
 4909 109a 91       		.byte	0x91
 4910 109b 64       		.sleb128 -28
 4911 109c 21       		.uleb128 0x21
 4912 109d 4F0A0000 		.4byte	.LASF246
 4913 10a1 02       		.byte	0x2
 4914 10a2 5C02     		.2byte	0x25c
 4915 10a4 BF100000 		.4byte	0x10bf
 4916 10a8 02       		.uleb128 0x2
 4917 10a9 91       		.byte	0x91
 4918 10aa 60       		.sleb128 -32
 4919 10ab 2A       		.uleb128 0x2a
 4920 10ac 6900     		.ascii	"i\000"
 4921 10ae 02       		.byte	0x2
 4922 10af 5E02     		.2byte	0x25e
 4923 10b1 CD070000 		.4byte	0x7cd
 4924 10b5 02       		.uleb128 0x2
 4925 10b6 91       		.byte	0x91
 4926 10b7 77       		.sleb128 -9
 4927 10b8 00       		.byte	0
 4928 10b9 0A       		.uleb128 0xa
 4929 10ba 04       		.byte	0x4
 4930 10bb 820F0000 		.4byte	0xf82
 4931 10bf 0A       		.uleb128 0xa
 4932 10c0 04       		.byte	0x4
 4933 10c1 030A0000 		.4byte	0xa03
 4934 10c5 20       		.uleb128 0x20
 4935 10c6 B4090000 		.4byte	.LASF247
 4936 10ca 02       		.byte	0x2
ARM GAS  C:\Users\Luis\AppData\Local\Temp\ccSH6HF5.s 			page 89


 4937 10cb B002     		.2byte	0x2b0
 4938 10cd 00000000 		.4byte	.LFB267
 4939 10d1 EC010000 		.4byte	.LFE267-.LFB267
 4940 10d5 01       		.uleb128 0x1
 4941 10d6 9C       		.byte	0x9c
 4942 10d7 52110000 		.4byte	0x1152
 4943 10db 21       		.uleb128 0x21
 4944 10dc 69000000 		.4byte	.LASF155
 4945 10e0 02       		.byte	0x2
 4946 10e1 B002     		.2byte	0x2b0
 4947 10e3 FA080000 		.4byte	0x8fa
 4948 10e7 02       		.uleb128 0x2
 4949 10e8 91       		.byte	0x91
 4950 10e9 5C       		.sleb128 -36
 4951 10ea 21       		.uleb128 0x21
 4952 10eb 95000000 		.4byte	.LASF227
 4953 10ef 02       		.byte	0x2
 4954 10f0 B002     		.2byte	0x2b0
 4955 10f2 820F0000 		.4byte	0xf82
 4956 10f6 02       		.uleb128 0x2
 4957 10f7 91       		.byte	0x91
 4958 10f8 58       		.sleb128 -40
 4959 10f9 2B       		.uleb128 0x2b
 4960 10fa 7000     		.ascii	"p\000"
 4961 10fc 02       		.byte	0x2
 4962 10fd B002     		.2byte	0x2b0
 4963 10ff F4080000 		.4byte	0x8f4
 4964 1103 02       		.uleb128 0x2
 4965 1104 91       		.byte	0x91
 4966 1105 54       		.sleb128 -44
 4967 1106 2A       		.uleb128 0x2a
 4968 1107 68647200 		.ascii	"hdr\000"
 4969 110b 02       		.byte	0x2
 4970 110c B202     		.2byte	0x2b2
 4971 110e 52110000 		.4byte	0x1152
 4972 1112 02       		.uleb128 0x2
 4973 1113 91       		.byte	0x91
 4974 1114 6C       		.sleb128 -20
 4975 1115 29       		.uleb128 0x29
 4976 1116 00090000 		.4byte	.LASF241
 4977 111a 02       		.byte	0x2
 4978 111b B302     		.2byte	0x2b3
 4979 111d 880F0000 		.4byte	0xf88
 4980 1121 02       		.uleb128 0x2
 4981 1122 91       		.byte	0x91
 4982 1123 70       		.sleb128 -16
 4983 1124 29       		.uleb128 0x29
 4984 1125 A6060000 		.4byte	.LASF218
 4985 1129 02       		.byte	0x2
 4986 112a B502     		.2byte	0x2b5
 4987 112c 12080000 		.4byte	0x812
 4988 1130 02       		.uleb128 0x2
 4989 1131 91       		.byte	0x91
 4990 1132 68       		.sleb128 -24
 4991 1133 29       		.uleb128 0x29
 4992 1134 16010000 		.4byte	.LASF220
 4993 1138 02       		.byte	0x2
ARM GAS  C:\Users\Luis\AppData\Local\Temp\ccSH6HF5.s 			page 90


 4994 1139 B502     		.2byte	0x2b5
 4995 113b 12080000 		.4byte	0x812
 4996 113f 02       		.uleb128 0x2
 4997 1140 91       		.byte	0x91
 4998 1141 64       		.sleb128 -28
 4999 1142 29       		.uleb128 0x29
 5000 1143 8F0A0000 		.4byte	.LASF248
 5001 1147 02       		.byte	0x2
 5002 1148 B602     		.2byte	0x2b6
 5003 114a C2070000 		.4byte	0x7c2
 5004 114e 02       		.uleb128 0x2
 5005 114f 91       		.byte	0x91
 5006 1150 77       		.sleb128 -9
 5007 1151 00       		.byte	0
 5008 1152 0A       		.uleb128 0xa
 5009 1153 04       		.byte	0x4
 5010 1154 E30C0000 		.4byte	0xce3
 5011 1158 28       		.uleb128 0x28
 5012 1159 3D0C0000 		.4byte	.LASF249
 5013 115d 02       		.byte	0x2
 5014 115e 4A03     		.2byte	0x34a
 5015 1160 46080000 		.4byte	0x846
 5016 1164 00000000 		.4byte	.LFB268
 5017 1168 C0000000 		.4byte	.LFE268-.LFB268
 5018 116c 01       		.uleb128 0x1
 5019 116d 9C       		.byte	0x9c
 5020 116e 9E110000 		.4byte	0x119e
 5021 1172 21       		.uleb128 0x21
 5022 1173 69000000 		.4byte	.LASF155
 5023 1177 02       		.byte	0x2
 5024 1178 4A03     		.2byte	0x34a
 5025 117a FA080000 		.4byte	0x8fa
 5026 117e 02       		.uleb128 0x2
 5027 117f 91       		.byte	0x91
 5028 1180 6C       		.sleb128 -20
 5029 1181 2B       		.uleb128 0x2b
 5030 1182 7100     		.ascii	"q\000"
 5031 1184 02       		.byte	0x2
 5032 1185 4A03     		.2byte	0x34a
 5033 1187 F4080000 		.4byte	0x8f4
 5034 118b 02       		.uleb128 0x2
 5035 118c 91       		.byte	0x91
 5036 118d 68       		.sleb128 -24
 5037 118e 21       		.uleb128 0x21
 5038 118f ED080000 		.4byte	.LASF250
 5039 1193 02       		.byte	0x2
 5040 1194 4A03     		.2byte	0x34a
 5041 1196 C2070000 		.4byte	0x7c2
 5042 119a 02       		.uleb128 0x2
 5043 119b 91       		.byte	0x91
 5044 119c 67       		.sleb128 -25
 5045 119d 00       		.byte	0
 5046 119e 2D       		.uleb128 0x2d
 5047 119f 850B0000 		.4byte	.LASF252
 5048 11a3 02       		.byte	0x2
 5049 11a4 6F03     		.2byte	0x36f
 5050 11a6 46080000 		.4byte	0x846
ARM GAS  C:\Users\Luis\AppData\Local\Temp\ccSH6HF5.s 			page 91


 5051 11aa 00000000 		.4byte	.LFB269
 5052 11ae DC010000 		.4byte	.LFE269-.LFB269
 5053 11b2 01       		.uleb128 0x1
 5054 11b3 9C       		.byte	0x9c
 5055 11b4 28120000 		.4byte	0x1228
 5056 11b8 21       		.uleb128 0x21
 5057 11b9 69000000 		.4byte	.LASF155
 5058 11bd 02       		.byte	0x2
 5059 11be 6F03     		.2byte	0x36f
 5060 11c0 FA080000 		.4byte	0x8fa
 5061 11c4 02       		.uleb128 0x2
 5062 11c5 91       		.byte	0x91
 5063 11c6 64       		.sleb128 -28
 5064 11c7 2B       		.uleb128 0x2b
 5065 11c8 7100     		.ascii	"q\000"
 5066 11ca 02       		.byte	0x2
 5067 11cb 6F03     		.2byte	0x36f
 5068 11cd F4080000 		.4byte	0x8f4
 5069 11d1 02       		.uleb128 0x2
 5070 11d2 91       		.byte	0x91
 5071 11d3 60       		.sleb128 -32
 5072 11d4 21       		.uleb128 0x21
 5073 11d5 C9040000 		.4byte	.LASF226
 5074 11d9 02       		.byte	0x2
 5075 11da 6F03     		.2byte	0x36f
 5076 11dc 030A0000 		.4byte	0xa03
 5077 11e0 02       		.uleb128 0x2
 5078 11e1 91       		.byte	0x91
 5079 11e2 5C       		.sleb128 -36
 5080 11e3 29       		.uleb128 0x29
 5081 11e4 270C0000 		.4byte	.LASF210
 5082 11e8 02       		.byte	0x2
 5083 11e9 7103     		.2byte	0x371
 5084 11eb 820F0000 		.4byte	0xf82
 5085 11ef 02       		.uleb128 0x2
 5086 11f0 91       		.byte	0x91
 5087 11f1 74       		.sleb128 -12
 5088 11f2 29       		.uleb128 0x29
 5089 11f3 5D0B0000 		.4byte	.LASF253
 5090 11f7 02       		.byte	0x2
 5091 11f8 7203     		.2byte	0x372
 5092 11fa 990C0000 		.4byte	0xc99
 5093 11fe 02       		.uleb128 0x2
 5094 11ff 91       		.byte	0x91
 5095 1200 68       		.sleb128 -24
 5096 1201 29       		.uleb128 0x29
 5097 1202 B8040000 		.4byte	.LASF254
 5098 1206 02       		.byte	0x2
 5099 1207 7303     		.2byte	0x373
 5100 1209 030A0000 		.4byte	0xa03
 5101 120d 02       		.uleb128 0x2
 5102 120e 91       		.byte	0x91
 5103 120f 70       		.sleb128 -16
 5104 1210 26       		.uleb128 0x26
 5105 1211 A4000000 		.4byte	.LBB6
 5106 1215 00010000 		.4byte	.LBE6-.LBB6
 5107 1219 2A       		.uleb128 0x2a
ARM GAS  C:\Users\Luis\AppData\Local\Temp\ccSH6HF5.s 			page 92


 5108 121a 6900     		.ascii	"i\000"
 5109 121c 02       		.byte	0x2
 5110 121d 9603     		.2byte	0x396
 5111 121f CD070000 		.4byte	0x7cd
 5112 1223 02       		.uleb128 0x2
 5113 1224 91       		.byte	0x91
 5114 1225 6F       		.sleb128 -17
 5115 1226 00       		.byte	0
 5116 1227 00       		.byte	0
 5117 1228 2D       		.uleb128 0x2d
 5118 1229 4F020000 		.4byte	.LASF255
 5119 122d 02       		.byte	0x2
 5120 122e F803     		.2byte	0x3f8
 5121 1230 46080000 		.4byte	0x846
 5122 1234 00000000 		.4byte	.LFB270
 5123 1238 80020000 		.4byte	.LFE270-.LFB270
 5124 123c 01       		.uleb128 0x1
 5125 123d 9C       		.byte	0x9c
 5126 123e BF120000 		.4byte	0x12bf
 5127 1242 21       		.uleb128 0x21
 5128 1243 69000000 		.4byte	.LASF155
 5129 1247 02       		.byte	0x2
 5130 1248 F803     		.2byte	0x3f8
 5131 124a FA080000 		.4byte	0x8fa
 5132 124e 02       		.uleb128 0x2
 5133 124f 91       		.byte	0x91
 5134 1250 5C       		.sleb128 -36
 5135 1251 21       		.uleb128 0x21
 5136 1252 C9040000 		.4byte	.LASF226
 5137 1256 02       		.byte	0x2
 5138 1257 F803     		.2byte	0x3f8
 5139 1259 030A0000 		.4byte	0xa03
 5140 125d 02       		.uleb128 0x2
 5141 125e 91       		.byte	0x91
 5142 125f 58       		.sleb128 -40
 5143 1260 2B       		.uleb128 0x2b
 5144 1261 7100     		.ascii	"q\000"
 5145 1263 02       		.byte	0x2
 5146 1264 F803     		.2byte	0x3f8
 5147 1266 F4080000 		.4byte	0x8f4
 5148 126a 02       		.uleb128 0x2
 5149 126b 91       		.byte	0x91
 5150 126c 54       		.sleb128 -44
 5151 126d 29       		.uleb128 0x29
 5152 126e 49060000 		.4byte	.LASF256
 5153 1272 02       		.byte	0x2
 5154 1273 FA03     		.2byte	0x3fa
 5155 1275 820F0000 		.4byte	0xf82
 5156 1279 02       		.uleb128 0x2
 5157 127a 91       		.byte	0x91
 5158 127b 68       		.sleb128 -24
 5159 127c 29       		.uleb128 0x29
 5160 127d D4030000 		.4byte	.LASF257
 5161 1281 02       		.byte	0x2
 5162 1282 FB03     		.2byte	0x3fb
 5163 1284 46080000 		.4byte	0x846
 5164 1288 02       		.uleb128 0x2
ARM GAS  C:\Users\Luis\AppData\Local\Temp\ccSH6HF5.s 			page 93


 5165 1289 91       		.byte	0x91
 5166 128a 77       		.sleb128 -9
 5167 128b 2A       		.uleb128 0x2a
 5168 128c 6900     		.ascii	"i\000"
 5169 128e 02       		.byte	0x2
 5170 128f FC03     		.2byte	0x3fc
 5171 1291 CD070000 		.4byte	0x7cd
 5172 1295 02       		.uleb128 0x2
 5173 1296 91       		.byte	0x91
 5174 1297 67       		.sleb128 -25
 5175 1298 26       		.uleb128 0x26
 5176 1299 78010000 		.4byte	.LBB7
 5177 129d E0000000 		.4byte	.LBE7-.LBB7
 5178 12a1 2A       		.uleb128 0x2a
 5179 12a2 7000     		.ascii	"p\000"
 5180 12a4 02       		.byte	0x2
 5181 12a5 3704     		.2byte	0x437
 5182 12a7 F4080000 		.4byte	0x8f4
 5183 12ab 02       		.uleb128 0x2
 5184 12ac 91       		.byte	0x91
 5185 12ad 70       		.sleb128 -16
 5186 12ae 29       		.uleb128 0x29
 5187 12af 37010000 		.4byte	.LASF258
 5188 12b3 02       		.byte	0x2
 5189 12b4 3804     		.2byte	0x438
 5190 12b6 25000000 		.4byte	0x25
 5191 12ba 02       		.uleb128 0x2
 5192 12bb 91       		.byte	0x91
 5193 12bc 6C       		.sleb128 -20
 5194 12bd 00       		.byte	0
 5195 12be 00       		.byte	0
 5196 12bf 28       		.uleb128 0x28
 5197 12c0 B2020000 		.4byte	.LASF259
 5198 12c4 02       		.byte	0x2
 5199 12c5 9704     		.2byte	0x497
 5200 12c7 46080000 		.4byte	0x846
 5201 12cb 00000000 		.4byte	.LFB271
 5202 12cf 48010000 		.4byte	.LFE271-.LFB271
 5203 12d3 01       		.uleb128 0x1
 5204 12d4 9C       		.byte	0x9c
 5205 12d5 8C130000 		.4byte	0x138c
 5206 12d9 21       		.uleb128 0x21
 5207 12da 69000000 		.4byte	.LASF155
 5208 12de 02       		.byte	0x2
 5209 12df 9704     		.2byte	0x497
 5210 12e1 FA080000 		.4byte	0x8fa
 5211 12e5 02       		.uleb128 0x2
 5212 12e6 91       		.byte	0x91
 5213 12e7 64       		.sleb128 -28
 5214 12e8 21       		.uleb128 0x21
 5215 12e9 86020000 		.4byte	.LASF260
 5216 12ed 02       		.byte	0x2
 5217 12ee 9704     		.2byte	0x497
 5218 12f0 8C130000 		.4byte	0x138c
 5219 12f4 02       		.uleb128 0x2
 5220 12f5 91       		.byte	0x91
 5221 12f6 60       		.sleb128 -32
ARM GAS  C:\Users\Luis\AppData\Local\Temp\ccSH6HF5.s 			page 94


 5222 12f7 21       		.uleb128 0x21
 5223 12f8 9C070000 		.4byte	.LASF261
 5224 12fc 02       		.byte	0x2
 5225 12fd 9804     		.2byte	0x498
 5226 12ff 8C130000 		.4byte	0x138c
 5227 1303 02       		.uleb128 0x2
 5228 1304 91       		.byte	0x91
 5229 1305 5C       		.sleb128 -36
 5230 1306 21       		.uleb128 0x21
 5231 1307 72070000 		.4byte	.LASF262
 5232 130b 02       		.byte	0x2
 5233 130c 9904     		.2byte	0x499
 5234 130e 8C130000 		.4byte	0x138c
 5235 1312 02       		.uleb128 0x2
 5236 1313 91       		.byte	0x91
 5237 1314 58       		.sleb128 -40
 5238 1315 21       		.uleb128 0x21
 5239 1316 A9090000 		.4byte	.LASF263
 5240 131a 02       		.byte	0x2
 5241 131b 9904     		.2byte	0x499
 5242 131d 97130000 		.4byte	0x1397
 5243 1321 02       		.uleb128 0x2
 5244 1322 91       		.byte	0x91
 5245 1323 00       		.sleb128 0
 5246 1324 21       		.uleb128 0x21
 5247 1325 490B0000 		.4byte	.LASF264
 5248 1329 02       		.byte	0x2
 5249 132a 9A04     		.2byte	0x49a
 5250 132c 8C130000 		.4byte	0x138c
 5251 1330 02       		.uleb128 0x2
 5252 1331 91       		.byte	0x91
 5253 1332 04       		.sleb128 4
 5254 1333 21       		.uleb128 0x21
 5255 1334 CF080000 		.4byte	.LASF265
 5256 1338 02       		.byte	0x2
 5257 1339 9A04     		.2byte	0x49a
 5258 133b 97130000 		.4byte	0x1397
 5259 133f 02       		.uleb128 0x2
 5260 1340 91       		.byte	0x91
 5261 1341 08       		.sleb128 8
 5262 1342 21       		.uleb128 0x21
 5263 1343 97060000 		.4byte	.LASF216
 5264 1347 02       		.byte	0x2
 5265 1348 9B04     		.2byte	0x49b
 5266 134a A2130000 		.4byte	0x13a2
 5267 134e 02       		.uleb128 0x2
 5268 134f 91       		.byte	0x91
 5269 1350 0C       		.sleb128 12
 5270 1351 2A       		.uleb128 0x2a
 5271 1352 7000     		.ascii	"p\000"
 5272 1354 02       		.byte	0x2
 5273 1355 9D04     		.2byte	0x49d
 5274 1357 F4080000 		.4byte	0x8f4
 5275 135b 02       		.uleb128 0x2
 5276 135c 91       		.byte	0x91
 5277 135d 70       		.sleb128 -16
 5278 135e 29       		.uleb128 0x29
ARM GAS  C:\Users\Luis\AppData\Local\Temp\ccSH6HF5.s 			page 95


 5279 135f D4030000 		.4byte	.LASF257
 5280 1363 02       		.byte	0x2
 5281 1364 9E04     		.2byte	0x49e
 5282 1366 46080000 		.4byte	0x846
 5283 136a 02       		.uleb128 0x2
 5284 136b 91       		.byte	0x91
 5285 136c 77       		.sleb128 -9
 5286 136d 29       		.uleb128 0x29
 5287 136e 00090000 		.4byte	.LASF241
 5288 1372 02       		.byte	0x2
 5289 1373 9F04     		.2byte	0x49f
 5290 1375 880F0000 		.4byte	0xf88
 5291 1379 02       		.uleb128 0x2
 5292 137a 91       		.byte	0x91
 5293 137b 6C       		.sleb128 -20
 5294 137c 2A       		.uleb128 0x2a
 5295 137d 68647200 		.ascii	"hdr\000"
 5296 1381 02       		.byte	0x2
 5297 1382 A004     		.2byte	0x4a0
 5298 1384 52110000 		.4byte	0x1152
 5299 1388 02       		.uleb128 0x2
 5300 1389 91       		.byte	0x91
 5301 138a 68       		.sleb128 -24
 5302 138b 00       		.byte	0
 5303 138c 0A       		.uleb128 0xa
 5304 138d 04       		.byte	0x4
 5305 138e 92130000 		.4byte	0x1392
 5306 1392 19       		.uleb128 0x19
 5307 1393 990C0000 		.4byte	0xc99
 5308 1397 0A       		.uleb128 0xa
 5309 1398 04       		.byte	0x4
 5310 1399 9D130000 		.4byte	0x139d
 5311 139d 19       		.uleb128 0x19
 5312 139e 12080000 		.4byte	0x812
 5313 13a2 19       		.uleb128 0x19
 5314 13a3 D8070000 		.4byte	0x7d8
 5315 13a7 2D       		.uleb128 0x2d
 5316 13a8 C5090000 		.4byte	.LASF266
 5317 13ac 02       		.byte	0x2
 5318 13ad EB04     		.2byte	0x4eb
 5319 13af 46080000 		.4byte	0x846
 5320 13b3 00000000 		.4byte	.LFB272
 5321 13b7 44000000 		.4byte	.LFE272-.LFB272
 5322 13bb 01       		.uleb128 0x1
 5323 13bc 9C       		.byte	0x9c
 5324 13bd E0130000 		.4byte	0x13e0
 5325 13c1 21       		.uleb128 0x21
 5326 13c2 69000000 		.4byte	.LASF155
 5327 13c6 02       		.byte	0x2
 5328 13c7 EB04     		.2byte	0x4eb
 5329 13c9 FA080000 		.4byte	0x8fa
 5330 13cd 02       		.uleb128 0x2
 5331 13ce 91       		.byte	0x91
 5332 13cf 74       		.sleb128 -12
 5333 13d0 21       		.uleb128 0x21
 5334 13d1 C9040000 		.4byte	.LASF226
 5335 13d5 02       		.byte	0x2
ARM GAS  C:\Users\Luis\AppData\Local\Temp\ccSH6HF5.s 			page 96


 5336 13d6 EB04     		.2byte	0x4eb
 5337 13d8 030A0000 		.4byte	0xa03
 5338 13dc 02       		.uleb128 0x2
 5339 13dd 91       		.byte	0x91
 5340 13de 70       		.sleb128 -16
 5341 13df 00       		.byte	0
 5342 13e0 2D       		.uleb128 0x2d
 5343 13e1 F3050000 		.4byte	.LASF267
 5344 13e5 02       		.byte	0x2
 5345 13e6 FD04     		.2byte	0x4fd
 5346 13e8 46080000 		.4byte	0x846
 5347 13ec 00000000 		.4byte	.LFB273
 5348 13f0 3C010000 		.4byte	.LFE273-.LFB273
 5349 13f4 01       		.uleb128 0x1
 5350 13f5 9C       		.byte	0x9c
 5351 13f6 50140000 		.4byte	0x1450
 5352 13fa 2B       		.uleb128 0x2b
 5353 13fb 7000     		.ascii	"p\000"
 5354 13fd 02       		.byte	0x2
 5355 13fe FD04     		.2byte	0x4fd
 5356 1400 F4080000 		.4byte	0x8f4
 5357 1404 02       		.uleb128 0x2
 5358 1405 91       		.byte	0x91
 5359 1406 64       		.sleb128 -28
 5360 1407 21       		.uleb128 0x21
 5361 1408 69000000 		.4byte	.LASF155
 5362 140c 02       		.byte	0x2
 5363 140d FD04     		.2byte	0x4fd
 5364 140f FA080000 		.4byte	0x8fa
 5365 1413 02       		.uleb128 0x2
 5366 1414 91       		.byte	0x91
 5367 1415 60       		.sleb128 -32
 5368 1416 29       		.uleb128 0x29
 5369 1417 00090000 		.4byte	.LASF241
 5370 141b 02       		.byte	0x2
 5371 141c FF04     		.2byte	0x4ff
 5372 141e 880F0000 		.4byte	0xf88
 5373 1422 02       		.uleb128 0x2
 5374 1423 91       		.byte	0x91
 5375 1424 70       		.sleb128 -16
 5376 1425 29       		.uleb128 0x29
 5377 1426 C9060000 		.4byte	.LASF153
 5378 142a 02       		.byte	0x2
 5379 142b 0005     		.2byte	0x500
 5380 142d D8070000 		.4byte	0x7d8
 5381 1431 02       		.uleb128 0x2
 5382 1432 91       		.byte	0x91
 5383 1433 6E       		.sleb128 -18
 5384 1434 29       		.uleb128 0x29
 5385 1435 1A0A0000 		.4byte	.LASF268
 5386 1439 02       		.byte	0x2
 5387 143a 0205     		.2byte	0x502
 5388 143c E3070000 		.4byte	0x7e3
 5389 1440 02       		.uleb128 0x2
 5390 1441 91       		.byte	0x91
 5391 1442 76       		.sleb128 -10
 5392 1443 2E       		.uleb128 0x2e
ARM GAS  C:\Users\Luis\AppData\Local\Temp\ccSH6HF5.s 			page 97


 5393 1444 18070000 		.4byte	.LASF279
 5394 1448 02       		.byte	0x2
 5395 1449 7305     		.2byte	0x573
 5396 144b 1C010000 		.4byte	.L154
 5397 144f 00       		.byte	0
 5398 1450 15       		.uleb128 0x15
 5399 1451 810D0000 		.4byte	0xd81
 5400 1455 60140000 		.4byte	0x1460
 5401 1459 16       		.uleb128 0x16
 5402 145a B6040000 		.4byte	0x4b6
 5403 145e 09       		.byte	0x9
 5404 145f 00       		.byte	0
 5405 1460 27       		.uleb128 0x27
 5406 1461 850A0000 		.4byte	.LASF269
 5407 1465 02       		.byte	0x2
 5408 1466 78       		.byte	0x78
 5409 1467 50140000 		.4byte	0x1450
 5410 146b 05       		.uleb128 0x5
 5411 146c 03       		.byte	0x3
 5412 146d 00000000 		.4byte	arp_table
 5413 1471 27       		.uleb128 0x27
 5414 1472 35060000 		.4byte	.LASF270
 5415 1476 02       		.byte	0x2
 5416 1477 7B       		.byte	0x7b
 5417 1478 C2070000 		.4byte	0x7c2
 5418 147c 05       		.uleb128 0x5
 5419 147d 03       		.byte	0x3
 5420 147e 00000000 		.4byte	etharp_cached_entry
 5421 1482 2F       		.uleb128 0x2f
 5422 1483 4B090000 		.4byte	.LASF271
 5423 1487 18       		.byte	0x18
 5424 1488 A706     		.2byte	0x6a7
 5425 148a C3000000 		.4byte	0xc3
 5426 148e 30       		.uleb128 0x30
 5427 148f 636800   		.ascii	"ch\000"
 5428 1492 07       		.byte	0x7
 5429 1493 0902     		.2byte	0x209
 5430 1495 3E040000 		.4byte	0x43e
 5431 1499 31       		.uleb128 0x31
 5432 149a 7B020000 		.4byte	.LASF272
 5433 149e 16       		.byte	0x16
 5434 149f 95       		.byte	0x95
 5435 14a0 030C0000 		.4byte	0xc03
 5436 14a4 32       		.uleb128 0x32
 5437 14a5 C2080000 		.4byte	.LASF273
 5438 14a9 02       		.byte	0x2
 5439 14aa 41       		.byte	0x41
 5440 14ab 92130000 		.4byte	0x1392
 5441 14af 05       		.uleb128 0x5
 5442 14b0 03       		.byte	0x3
 5443 14b1 00000000 		.4byte	ethbroadcast
 5444 14b5 32       		.uleb128 0x32
 5445 14b6 2F0A0000 		.4byte	.LASF274
 5446 14ba 02       		.byte	0x2
 5447 14bb 42       		.byte	0x42
 5448 14bc 92130000 		.4byte	0x1392
 5449 14c0 05       		.uleb128 0x5
ARM GAS  C:\Users\Luis\AppData\Local\Temp\ccSH6HF5.s 			page 98


 5450 14c1 03       		.byte	0x3
 5451 14c2 00000000 		.4byte	ethzero
 5452 14c6 00       		.byte	0
 5453              		.section	.debug_abbrev,"",%progbits
 5454              	.Ldebug_abbrev0:
 5455 0000 01       		.uleb128 0x1
 5456 0001 11       		.uleb128 0x11
 5457 0002 01       		.byte	0x1
 5458 0003 25       		.uleb128 0x25
 5459 0004 0E       		.uleb128 0xe
 5460 0005 13       		.uleb128 0x13
 5461 0006 0B       		.uleb128 0xb
 5462 0007 03       		.uleb128 0x3
 5463 0008 0E       		.uleb128 0xe
 5464 0009 1B       		.uleb128 0x1b
 5465 000a 0E       		.uleb128 0xe
 5466 000b 55       		.uleb128 0x55
 5467 000c 17       		.uleb128 0x17
 5468 000d 11       		.uleb128 0x11
 5469 000e 01       		.uleb128 0x1
 5470 000f 10       		.uleb128 0x10
 5471 0010 17       		.uleb128 0x17
 5472 0011 00       		.byte	0
 5473 0012 00       		.byte	0
 5474 0013 02       		.uleb128 0x2
 5475 0014 24       		.uleb128 0x24
 5476 0015 00       		.byte	0
 5477 0016 0B       		.uleb128 0xb
 5478 0017 0B       		.uleb128 0xb
 5479 0018 3E       		.uleb128 0x3e
 5480 0019 0B       		.uleb128 0xb
 5481 001a 03       		.uleb128 0x3
 5482 001b 08       		.uleb128 0x8
 5483 001c 00       		.byte	0
 5484 001d 00       		.byte	0
 5485 001e 03       		.uleb128 0x3
 5486 001f 16       		.uleb128 0x16
 5487 0020 00       		.byte	0
 5488 0021 03       		.uleb128 0x3
 5489 0022 0E       		.uleb128 0xe
 5490 0023 3A       		.uleb128 0x3a
 5491 0024 0B       		.uleb128 0xb
 5492 0025 3B       		.uleb128 0x3b
 5493 0026 0B       		.uleb128 0xb
 5494 0027 49       		.uleb128 0x49
 5495 0028 13       		.uleb128 0x13
 5496 0029 00       		.byte	0
 5497 002a 00       		.byte	0
 5498 002b 04       		.uleb128 0x4
 5499 002c 24       		.uleb128 0x24
 5500 002d 00       		.byte	0
 5501 002e 0B       		.uleb128 0xb
 5502 002f 0B       		.uleb128 0xb
 5503 0030 3E       		.uleb128 0x3e
 5504 0031 0B       		.uleb128 0xb
 5505 0032 03       		.uleb128 0x3
 5506 0033 0E       		.uleb128 0xe
ARM GAS  C:\Users\Luis\AppData\Local\Temp\ccSH6HF5.s 			page 99


 5507 0034 00       		.byte	0
 5508 0035 00       		.byte	0
 5509 0036 05       		.uleb128 0x5
 5510 0037 35       		.uleb128 0x35
 5511 0038 00       		.byte	0
 5512 0039 49       		.uleb128 0x49
 5513 003a 13       		.uleb128 0x13
 5514 003b 00       		.byte	0
 5515 003c 00       		.byte	0
 5516 003d 06       		.uleb128 0x6
 5517 003e 13       		.uleb128 0x13
 5518 003f 01       		.byte	0x1
 5519 0040 03       		.uleb128 0x3
 5520 0041 0E       		.uleb128 0xe
 5521 0042 0B       		.uleb128 0xb
 5522 0043 0B       		.uleb128 0xb
 5523 0044 3A       		.uleb128 0x3a
 5524 0045 0B       		.uleb128 0xb
 5525 0046 3B       		.uleb128 0x3b
 5526 0047 0B       		.uleb128 0xb
 5527 0048 01       		.uleb128 0x1
 5528 0049 13       		.uleb128 0x13
 5529 004a 00       		.byte	0
 5530 004b 00       		.byte	0
 5531 004c 07       		.uleb128 0x7
 5532 004d 0D       		.uleb128 0xd
 5533 004e 00       		.byte	0
 5534 004f 03       		.uleb128 0x3
 5535 0050 0E       		.uleb128 0xe
 5536 0051 3A       		.uleb128 0x3a
 5537 0052 0B       		.uleb128 0xb
 5538 0053 3B       		.uleb128 0x3b
 5539 0054 0B       		.uleb128 0xb
 5540 0055 49       		.uleb128 0x49
 5541 0056 13       		.uleb128 0x13
 5542 0057 38       		.uleb128 0x38
 5543 0058 0B       		.uleb128 0xb
 5544 0059 00       		.byte	0
 5545 005a 00       		.byte	0
 5546 005b 08       		.uleb128 0x8
 5547 005c 0D       		.uleb128 0xd
 5548 005d 00       		.byte	0
 5549 005e 03       		.uleb128 0x3
 5550 005f 08       		.uleb128 0x8
 5551 0060 3A       		.uleb128 0x3a
 5552 0061 0B       		.uleb128 0xb
 5553 0062 3B       		.uleb128 0x3b
 5554 0063 05       		.uleb128 0x5
 5555 0064 49       		.uleb128 0x49
 5556 0065 13       		.uleb128 0x13
 5557 0066 38       		.uleb128 0x38
 5558 0067 0B       		.uleb128 0xb
 5559 0068 00       		.byte	0
 5560 0069 00       		.byte	0
 5561 006a 09       		.uleb128 0x9
 5562 006b 0D       		.uleb128 0xd
 5563 006c 00       		.byte	0
ARM GAS  C:\Users\Luis\AppData\Local\Temp\ccSH6HF5.s 			page 100


 5564 006d 03       		.uleb128 0x3
 5565 006e 0E       		.uleb128 0xe
 5566 006f 3A       		.uleb128 0x3a
 5567 0070 0B       		.uleb128 0xb
 5568 0071 3B       		.uleb128 0x3b
 5569 0072 05       		.uleb128 0x5
 5570 0073 49       		.uleb128 0x49
 5571 0074 13       		.uleb128 0x13
 5572 0075 38       		.uleb128 0x38
 5573 0076 0B       		.uleb128 0xb
 5574 0077 00       		.byte	0
 5575 0078 00       		.byte	0
 5576 0079 0A       		.uleb128 0xa
 5577 007a 0F       		.uleb128 0xf
 5578 007b 00       		.byte	0
 5579 007c 0B       		.uleb128 0xb
 5580 007d 0B       		.uleb128 0xb
 5581 007e 49       		.uleb128 0x49
 5582 007f 13       		.uleb128 0x13
 5583 0080 00       		.byte	0
 5584 0081 00       		.byte	0
 5585 0082 0B       		.uleb128 0xb
 5586 0083 13       		.uleb128 0x13
 5587 0084 01       		.byte	0x1
 5588 0085 03       		.uleb128 0x3
 5589 0086 0E       		.uleb128 0xe
 5590 0087 0B       		.uleb128 0xb
 5591 0088 0B       		.uleb128 0xb
 5592 0089 3A       		.uleb128 0x3a
 5593 008a 0B       		.uleb128 0xb
 5594 008b 3B       		.uleb128 0x3b
 5595 008c 05       		.uleb128 0x5
 5596 008d 01       		.uleb128 0x1
 5597 008e 13       		.uleb128 0x13
 5598 008f 00       		.byte	0
 5599 0090 00       		.byte	0
 5600 0091 0C       		.uleb128 0xc
 5601 0092 15       		.uleb128 0x15
 5602 0093 01       		.byte	0x1
 5603 0094 27       		.uleb128 0x27
 5604 0095 19       		.uleb128 0x19
 5605 0096 01       		.uleb128 0x1
 5606 0097 13       		.uleb128 0x13
 5607 0098 00       		.byte	0
 5608 0099 00       		.byte	0
 5609 009a 0D       		.uleb128 0xd
 5610 009b 05       		.uleb128 0x5
 5611 009c 00       		.byte	0
 5612 009d 49       		.uleb128 0x49
 5613 009e 13       		.uleb128 0x13
 5614 009f 00       		.byte	0
 5615 00a0 00       		.byte	0
 5616 00a1 0E       		.uleb128 0xe
 5617 00a2 0F       		.uleb128 0xf
 5618 00a3 00       		.byte	0
 5619 00a4 0B       		.uleb128 0xb
 5620 00a5 0B       		.uleb128 0xb
ARM GAS  C:\Users\Luis\AppData\Local\Temp\ccSH6HF5.s 			page 101


 5621 00a6 00       		.byte	0
 5622 00a7 00       		.byte	0
 5623 00a8 0F       		.uleb128 0xf
 5624 00a9 13       		.uleb128 0x13
 5625 00aa 01       		.byte	0x1
 5626 00ab 03       		.uleb128 0x3
 5627 00ac 0E       		.uleb128 0xe
 5628 00ad 0B       		.uleb128 0xb
 5629 00ae 05       		.uleb128 0x5
 5630 00af 3A       		.uleb128 0x3a
 5631 00b0 0B       		.uleb128 0xb
 5632 00b1 3B       		.uleb128 0x3b
 5633 00b2 05       		.uleb128 0x5
 5634 00b3 01       		.uleb128 0x1
 5635 00b4 13       		.uleb128 0x13
 5636 00b5 00       		.byte	0
 5637 00b6 00       		.byte	0
 5638 00b7 10       		.uleb128 0x10
 5639 00b8 0D       		.uleb128 0xd
 5640 00b9 00       		.byte	0
 5641 00ba 03       		.uleb128 0x3
 5642 00bb 0E       		.uleb128 0xe
 5643 00bc 3A       		.uleb128 0x3a
 5644 00bd 0B       		.uleb128 0xb
 5645 00be 3B       		.uleb128 0x3b
 5646 00bf 05       		.uleb128 0x5
 5647 00c0 49       		.uleb128 0x49
 5648 00c1 13       		.uleb128 0x13
 5649 00c2 38       		.uleb128 0x38
 5650 00c3 05       		.uleb128 0x5
 5651 00c4 00       		.byte	0
 5652 00c5 00       		.byte	0
 5653 00c6 11       		.uleb128 0x11
 5654 00c7 0D       		.uleb128 0xd
 5655 00c8 00       		.byte	0
 5656 00c9 03       		.uleb128 0x3
 5657 00ca 08       		.uleb128 0x8
 5658 00cb 3A       		.uleb128 0x3a
 5659 00cc 0B       		.uleb128 0xb
 5660 00cd 3B       		.uleb128 0x3b
 5661 00ce 05       		.uleb128 0x5
 5662 00cf 49       		.uleb128 0x49
 5663 00d0 13       		.uleb128 0x13
 5664 00d1 38       		.uleb128 0x38
 5665 00d2 05       		.uleb128 0x5
 5666 00d3 00       		.byte	0
 5667 00d4 00       		.byte	0
 5668 00d5 12       		.uleb128 0x12
 5669 00d6 0D       		.uleb128 0xd
 5670 00d7 00       		.byte	0
 5671 00d8 03       		.uleb128 0x3
 5672 00d9 08       		.uleb128 0x8
 5673 00da 3A       		.uleb128 0x3a
 5674 00db 0B       		.uleb128 0xb
 5675 00dc 3B       		.uleb128 0x3b
 5676 00dd 0B       		.uleb128 0xb
 5677 00de 49       		.uleb128 0x49
ARM GAS  C:\Users\Luis\AppData\Local\Temp\ccSH6HF5.s 			page 102


 5678 00df 13       		.uleb128 0x13
 5679 00e0 38       		.uleb128 0x38
 5680 00e1 0B       		.uleb128 0xb
 5681 00e2 00       		.byte	0
 5682 00e3 00       		.byte	0
 5683 00e4 13       		.uleb128 0x13
 5684 00e5 13       		.uleb128 0x13
 5685 00e6 01       		.byte	0x1
 5686 00e7 0B       		.uleb128 0xb
 5687 00e8 0B       		.uleb128 0xb
 5688 00e9 3A       		.uleb128 0x3a
 5689 00ea 0B       		.uleb128 0xb
 5690 00eb 3B       		.uleb128 0x3b
 5691 00ec 0B       		.uleb128 0xb
 5692 00ed 01       		.uleb128 0x1
 5693 00ee 13       		.uleb128 0x13
 5694 00ef 00       		.byte	0
 5695 00f0 00       		.byte	0
 5696 00f1 14       		.uleb128 0x14
 5697 00f2 13       		.uleb128 0x13
 5698 00f3 01       		.byte	0x1
 5699 00f4 0B       		.uleb128 0xb
 5700 00f5 05       		.uleb128 0x5
 5701 00f6 3A       		.uleb128 0x3a
 5702 00f7 0B       		.uleb128 0xb
 5703 00f8 3B       		.uleb128 0x3b
 5704 00f9 0B       		.uleb128 0xb
 5705 00fa 01       		.uleb128 0x1
 5706 00fb 13       		.uleb128 0x13
 5707 00fc 00       		.byte	0
 5708 00fd 00       		.byte	0
 5709 00fe 15       		.uleb128 0x15
 5710 00ff 01       		.uleb128 0x1
 5711 0100 01       		.byte	0x1
 5712 0101 49       		.uleb128 0x49
 5713 0102 13       		.uleb128 0x13
 5714 0103 01       		.uleb128 0x1
 5715 0104 13       		.uleb128 0x13
 5716 0105 00       		.byte	0
 5717 0106 00       		.byte	0
 5718 0107 16       		.uleb128 0x16
 5719 0108 21       		.uleb128 0x21
 5720 0109 00       		.byte	0
 5721 010a 49       		.uleb128 0x49
 5722 010b 13       		.uleb128 0x13
 5723 010c 2F       		.uleb128 0x2f
 5724 010d 0B       		.uleb128 0xb
 5725 010e 00       		.byte	0
 5726 010f 00       		.byte	0
 5727 0110 17       		.uleb128 0x17
 5728 0111 17       		.uleb128 0x17
 5729 0112 01       		.byte	0x1
 5730 0113 0B       		.uleb128 0xb
 5731 0114 0B       		.uleb128 0xb
 5732 0115 3A       		.uleb128 0x3a
 5733 0116 0B       		.uleb128 0xb
 5734 0117 3B       		.uleb128 0x3b
ARM GAS  C:\Users\Luis\AppData\Local\Temp\ccSH6HF5.s 			page 103


 5735 0118 0B       		.uleb128 0xb
 5736 0119 01       		.uleb128 0x1
 5737 011a 13       		.uleb128 0x13
 5738 011b 00       		.byte	0
 5739 011c 00       		.byte	0
 5740 011d 18       		.uleb128 0x18
 5741 011e 0D       		.uleb128 0xd
 5742 011f 00       		.byte	0
 5743 0120 03       		.uleb128 0x3
 5744 0121 0E       		.uleb128 0xe
 5745 0122 3A       		.uleb128 0x3a
 5746 0123 0B       		.uleb128 0xb
 5747 0124 3B       		.uleb128 0x3b
 5748 0125 05       		.uleb128 0x5
 5749 0126 49       		.uleb128 0x49
 5750 0127 13       		.uleb128 0x13
 5751 0128 00       		.byte	0
 5752 0129 00       		.byte	0
 5753 012a 19       		.uleb128 0x19
 5754 012b 26       		.uleb128 0x26
 5755 012c 00       		.byte	0
 5756 012d 49       		.uleb128 0x49
 5757 012e 13       		.uleb128 0x13
 5758 012f 00       		.byte	0
 5759 0130 00       		.byte	0
 5760 0131 1A       		.uleb128 0x1a
 5761 0132 04       		.uleb128 0x4
 5762 0133 01       		.byte	0x1
 5763 0134 0B       		.uleb128 0xb
 5764 0135 0B       		.uleb128 0xb
 5765 0136 3A       		.uleb128 0x3a
 5766 0137 0B       		.uleb128 0xb
 5767 0138 3B       		.uleb128 0x3b
 5768 0139 0B       		.uleb128 0xb
 5769 013a 01       		.uleb128 0x1
 5770 013b 13       		.uleb128 0x13
 5771 013c 00       		.byte	0
 5772 013d 00       		.byte	0
 5773 013e 1B       		.uleb128 0x1b
 5774 013f 28       		.uleb128 0x28
 5775 0140 00       		.byte	0
 5776 0141 03       		.uleb128 0x3
 5777 0142 0E       		.uleb128 0xe
 5778 0143 1C       		.uleb128 0x1c
 5779 0144 0D       		.uleb128 0xd
 5780 0145 00       		.byte	0
 5781 0146 00       		.byte	0
 5782 0147 1C       		.uleb128 0x1c
 5783 0148 15       		.uleb128 0x15
 5784 0149 01       		.byte	0x1
 5785 014a 27       		.uleb128 0x27
 5786 014b 19       		.uleb128 0x19
 5787 014c 49       		.uleb128 0x49
 5788 014d 13       		.uleb128 0x13
 5789 014e 01       		.uleb128 0x1
 5790 014f 13       		.uleb128 0x13
 5791 0150 00       		.byte	0
ARM GAS  C:\Users\Luis\AppData\Local\Temp\ccSH6HF5.s 			page 104


 5792 0151 00       		.byte	0
 5793 0152 1D       		.uleb128 0x1d
 5794 0153 13       		.uleb128 0x13
 5795 0154 01       		.byte	0x1
 5796 0155 03       		.uleb128 0x3
 5797 0156 0E       		.uleb128 0xe
 5798 0157 0B       		.uleb128 0xb
 5799 0158 05       		.uleb128 0x5
 5800 0159 3A       		.uleb128 0x3a
 5801 015a 0B       		.uleb128 0xb
 5802 015b 3B       		.uleb128 0x3b
 5803 015c 0B       		.uleb128 0xb
 5804 015d 01       		.uleb128 0x1
 5805 015e 13       		.uleb128 0x13
 5806 015f 00       		.byte	0
 5807 0160 00       		.byte	0
 5808 0161 1E       		.uleb128 0x1e
 5809 0162 0D       		.uleb128 0xd
 5810 0163 00       		.byte	0
 5811 0164 03       		.uleb128 0x3
 5812 0165 08       		.uleb128 0x8
 5813 0166 3A       		.uleb128 0x3a
 5814 0167 0B       		.uleb128 0xb
 5815 0168 3B       		.uleb128 0x3b
 5816 0169 0B       		.uleb128 0xb
 5817 016a 49       		.uleb128 0x49
 5818 016b 13       		.uleb128 0x13
 5819 016c 38       		.uleb128 0x38
 5820 016d 05       		.uleb128 0x5
 5821 016e 00       		.byte	0
 5822 016f 00       		.byte	0
 5823 0170 1F       		.uleb128 0x1f
 5824 0171 04       		.uleb128 0x4
 5825 0172 01       		.byte	0x1
 5826 0173 03       		.uleb128 0x3
 5827 0174 0E       		.uleb128 0xe
 5828 0175 0B       		.uleb128 0xb
 5829 0176 0B       		.uleb128 0xb
 5830 0177 3A       		.uleb128 0x3a
 5831 0178 0B       		.uleb128 0xb
 5832 0179 3B       		.uleb128 0x3b
 5833 017a 0B       		.uleb128 0xb
 5834 017b 01       		.uleb128 0x1
 5835 017c 13       		.uleb128 0x13
 5836 017d 00       		.byte	0
 5837 017e 00       		.byte	0
 5838 017f 20       		.uleb128 0x20
 5839 0180 2E       		.uleb128 0x2e
 5840 0181 01       		.byte	0x1
 5841 0182 03       		.uleb128 0x3
 5842 0183 0E       		.uleb128 0xe
 5843 0184 3A       		.uleb128 0x3a
 5844 0185 0B       		.uleb128 0xb
 5845 0186 3B       		.uleb128 0x3b
 5846 0187 05       		.uleb128 0x5
 5847 0188 27       		.uleb128 0x27
 5848 0189 19       		.uleb128 0x19
ARM GAS  C:\Users\Luis\AppData\Local\Temp\ccSH6HF5.s 			page 105


 5849 018a 11       		.uleb128 0x11
 5850 018b 01       		.uleb128 0x1
 5851 018c 12       		.uleb128 0x12
 5852 018d 06       		.uleb128 0x6
 5853 018e 40       		.uleb128 0x40
 5854 018f 18       		.uleb128 0x18
 5855 0190 9642     		.uleb128 0x2116
 5856 0192 19       		.uleb128 0x19
 5857 0193 01       		.uleb128 0x1
 5858 0194 13       		.uleb128 0x13
 5859 0195 00       		.byte	0
 5860 0196 00       		.byte	0
 5861 0197 21       		.uleb128 0x21
 5862 0198 05       		.uleb128 0x5
 5863 0199 00       		.byte	0
 5864 019a 03       		.uleb128 0x3
 5865 019b 0E       		.uleb128 0xe
 5866 019c 3A       		.uleb128 0x3a
 5867 019d 0B       		.uleb128 0xb
 5868 019e 3B       		.uleb128 0x3b
 5869 019f 05       		.uleb128 0x5
 5870 01a0 49       		.uleb128 0x49
 5871 01a1 13       		.uleb128 0x13
 5872 01a2 02       		.uleb128 0x2
 5873 01a3 18       		.uleb128 0x18
 5874 01a4 00       		.byte	0
 5875 01a5 00       		.byte	0
 5876 01a6 22       		.uleb128 0x22
 5877 01a7 2E       		.uleb128 0x2e
 5878 01a8 01       		.byte	0x1
 5879 01a9 03       		.uleb128 0x3
 5880 01aa 0E       		.uleb128 0xe
 5881 01ab 3A       		.uleb128 0x3a
 5882 01ac 0B       		.uleb128 0xb
 5883 01ad 3B       		.uleb128 0x3b
 5884 01ae 0B       		.uleb128 0xb
 5885 01af 27       		.uleb128 0x27
 5886 01b0 19       		.uleb128 0x19
 5887 01b1 11       		.uleb128 0x11
 5888 01b2 01       		.uleb128 0x1
 5889 01b3 12       		.uleb128 0x12
 5890 01b4 06       		.uleb128 0x6
 5891 01b5 40       		.uleb128 0x40
 5892 01b6 18       		.uleb128 0x18
 5893 01b7 9642     		.uleb128 0x2116
 5894 01b9 19       		.uleb128 0x19
 5895 01ba 01       		.uleb128 0x1
 5896 01bb 13       		.uleb128 0x13
 5897 01bc 00       		.byte	0
 5898 01bd 00       		.byte	0
 5899 01be 23       		.uleb128 0x23
 5900 01bf 05       		.uleb128 0x5
 5901 01c0 00       		.byte	0
 5902 01c1 03       		.uleb128 0x3
 5903 01c2 08       		.uleb128 0x8
 5904 01c3 3A       		.uleb128 0x3a
 5905 01c4 0B       		.uleb128 0xb
ARM GAS  C:\Users\Luis\AppData\Local\Temp\ccSH6HF5.s 			page 106


 5906 01c5 3B       		.uleb128 0x3b
 5907 01c6 0B       		.uleb128 0xb
 5908 01c7 49       		.uleb128 0x49
 5909 01c8 13       		.uleb128 0x13
 5910 01c9 02       		.uleb128 0x2
 5911 01ca 18       		.uleb128 0x18
 5912 01cb 00       		.byte	0
 5913 01cc 00       		.byte	0
 5914 01cd 24       		.uleb128 0x24
 5915 01ce 2E       		.uleb128 0x2e
 5916 01cf 01       		.byte	0x1
 5917 01d0 3F       		.uleb128 0x3f
 5918 01d1 19       		.uleb128 0x19
 5919 01d2 03       		.uleb128 0x3
 5920 01d3 0E       		.uleb128 0xe
 5921 01d4 3A       		.uleb128 0x3a
 5922 01d5 0B       		.uleb128 0xb
 5923 01d6 3B       		.uleb128 0x3b
 5924 01d7 0B       		.uleb128 0xb
 5925 01d8 27       		.uleb128 0x27
 5926 01d9 19       		.uleb128 0x19
 5927 01da 11       		.uleb128 0x11
 5928 01db 01       		.uleb128 0x1
 5929 01dc 12       		.uleb128 0x12
 5930 01dd 06       		.uleb128 0x6
 5931 01de 40       		.uleb128 0x40
 5932 01df 18       		.uleb128 0x18
 5933 01e0 9642     		.uleb128 0x2116
 5934 01e2 19       		.uleb128 0x19
 5935 01e3 01       		.uleb128 0x1
 5936 01e4 13       		.uleb128 0x13
 5937 01e5 00       		.byte	0
 5938 01e6 00       		.byte	0
 5939 01e7 25       		.uleb128 0x25
 5940 01e8 34       		.uleb128 0x34
 5941 01e9 00       		.byte	0
 5942 01ea 03       		.uleb128 0x3
 5943 01eb 08       		.uleb128 0x8
 5944 01ec 3A       		.uleb128 0x3a
 5945 01ed 0B       		.uleb128 0xb
 5946 01ee 3B       		.uleb128 0x3b
 5947 01ef 0B       		.uleb128 0xb
 5948 01f0 49       		.uleb128 0x49
 5949 01f1 13       		.uleb128 0x13
 5950 01f2 02       		.uleb128 0x2
 5951 01f3 18       		.uleb128 0x18
 5952 01f4 00       		.byte	0
 5953 01f5 00       		.byte	0
 5954 01f6 26       		.uleb128 0x26
 5955 01f7 0B       		.uleb128 0xb
 5956 01f8 01       		.byte	0x1
 5957 01f9 11       		.uleb128 0x11
 5958 01fa 01       		.uleb128 0x1
 5959 01fb 12       		.uleb128 0x12
 5960 01fc 06       		.uleb128 0x6
 5961 01fd 00       		.byte	0
 5962 01fe 00       		.byte	0
ARM GAS  C:\Users\Luis\AppData\Local\Temp\ccSH6HF5.s 			page 107


 5963 01ff 27       		.uleb128 0x27
 5964 0200 34       		.uleb128 0x34
 5965 0201 00       		.byte	0
 5966 0202 03       		.uleb128 0x3
 5967 0203 0E       		.uleb128 0xe
 5968 0204 3A       		.uleb128 0x3a
 5969 0205 0B       		.uleb128 0xb
 5970 0206 3B       		.uleb128 0x3b
 5971 0207 0B       		.uleb128 0xb
 5972 0208 49       		.uleb128 0x49
 5973 0209 13       		.uleb128 0x13
 5974 020a 02       		.uleb128 0x2
 5975 020b 18       		.uleb128 0x18
 5976 020c 00       		.byte	0
 5977 020d 00       		.byte	0
 5978 020e 28       		.uleb128 0x28
 5979 020f 2E       		.uleb128 0x2e
 5980 0210 01       		.byte	0x1
 5981 0211 03       		.uleb128 0x3
 5982 0212 0E       		.uleb128 0xe
 5983 0213 3A       		.uleb128 0x3a
 5984 0214 0B       		.uleb128 0xb
 5985 0215 3B       		.uleb128 0x3b
 5986 0216 05       		.uleb128 0x5
 5987 0217 27       		.uleb128 0x27
 5988 0218 19       		.uleb128 0x19
 5989 0219 49       		.uleb128 0x49
 5990 021a 13       		.uleb128 0x13
 5991 021b 11       		.uleb128 0x11
 5992 021c 01       		.uleb128 0x1
 5993 021d 12       		.uleb128 0x12
 5994 021e 06       		.uleb128 0x6
 5995 021f 40       		.uleb128 0x40
 5996 0220 18       		.uleb128 0x18
 5997 0221 9642     		.uleb128 0x2116
 5998 0223 19       		.uleb128 0x19
 5999 0224 01       		.uleb128 0x1
 6000 0225 13       		.uleb128 0x13
 6001 0226 00       		.byte	0
 6002 0227 00       		.byte	0
 6003 0228 29       		.uleb128 0x29
 6004 0229 34       		.uleb128 0x34
 6005 022a 00       		.byte	0
 6006 022b 03       		.uleb128 0x3
 6007 022c 0E       		.uleb128 0xe
 6008 022d 3A       		.uleb128 0x3a
 6009 022e 0B       		.uleb128 0xb
 6010 022f 3B       		.uleb128 0x3b
 6011 0230 05       		.uleb128 0x5
 6012 0231 49       		.uleb128 0x49
 6013 0232 13       		.uleb128 0x13
 6014 0233 02       		.uleb128 0x2
 6015 0234 18       		.uleb128 0x18
 6016 0235 00       		.byte	0
 6017 0236 00       		.byte	0
 6018 0237 2A       		.uleb128 0x2a
 6019 0238 34       		.uleb128 0x34
ARM GAS  C:\Users\Luis\AppData\Local\Temp\ccSH6HF5.s 			page 108


 6020 0239 00       		.byte	0
 6021 023a 03       		.uleb128 0x3
 6022 023b 08       		.uleb128 0x8
 6023 023c 3A       		.uleb128 0x3a
 6024 023d 0B       		.uleb128 0xb
 6025 023e 3B       		.uleb128 0x3b
 6026 023f 05       		.uleb128 0x5
 6027 0240 49       		.uleb128 0x49
 6028 0241 13       		.uleb128 0x13
 6029 0242 02       		.uleb128 0x2
 6030 0243 18       		.uleb128 0x18
 6031 0244 00       		.byte	0
 6032 0245 00       		.byte	0
 6033 0246 2B       		.uleb128 0x2b
 6034 0247 05       		.uleb128 0x5
 6035 0248 00       		.byte	0
 6036 0249 03       		.uleb128 0x3
 6037 024a 08       		.uleb128 0x8
 6038 024b 3A       		.uleb128 0x3a
 6039 024c 0B       		.uleb128 0xb
 6040 024d 3B       		.uleb128 0x3b
 6041 024e 05       		.uleb128 0x5
 6042 024f 49       		.uleb128 0x49
 6043 0250 13       		.uleb128 0x13
 6044 0251 02       		.uleb128 0x2
 6045 0252 18       		.uleb128 0x18
 6046 0253 00       		.byte	0
 6047 0254 00       		.byte	0
 6048 0255 2C       		.uleb128 0x2c
 6049 0256 2E       		.uleb128 0x2e
 6050 0257 01       		.byte	0x1
 6051 0258 3F       		.uleb128 0x3f
 6052 0259 19       		.uleb128 0x19
 6053 025a 03       		.uleb128 0x3
 6054 025b 0E       		.uleb128 0xe
 6055 025c 3A       		.uleb128 0x3a
 6056 025d 0B       		.uleb128 0xb
 6057 025e 3B       		.uleb128 0x3b
 6058 025f 05       		.uleb128 0x5
 6059 0260 27       		.uleb128 0x27
 6060 0261 19       		.uleb128 0x19
 6061 0262 11       		.uleb128 0x11
 6062 0263 01       		.uleb128 0x1
 6063 0264 12       		.uleb128 0x12
 6064 0265 06       		.uleb128 0x6
 6065 0266 40       		.uleb128 0x40
 6066 0267 18       		.uleb128 0x18
 6067 0268 9642     		.uleb128 0x2116
 6068 026a 19       		.uleb128 0x19
 6069 026b 01       		.uleb128 0x1
 6070 026c 13       		.uleb128 0x13
 6071 026d 00       		.byte	0
 6072 026e 00       		.byte	0
 6073 026f 2D       		.uleb128 0x2d
 6074 0270 2E       		.uleb128 0x2e
 6075 0271 01       		.byte	0x1
 6076 0272 3F       		.uleb128 0x3f
ARM GAS  C:\Users\Luis\AppData\Local\Temp\ccSH6HF5.s 			page 109


 6077 0273 19       		.uleb128 0x19
 6078 0274 03       		.uleb128 0x3
 6079 0275 0E       		.uleb128 0xe
 6080 0276 3A       		.uleb128 0x3a
 6081 0277 0B       		.uleb128 0xb
 6082 0278 3B       		.uleb128 0x3b
 6083 0279 05       		.uleb128 0x5
 6084 027a 27       		.uleb128 0x27
 6085 027b 19       		.uleb128 0x19
 6086 027c 49       		.uleb128 0x49
 6087 027d 13       		.uleb128 0x13
 6088 027e 11       		.uleb128 0x11
 6089 027f 01       		.uleb128 0x1
 6090 0280 12       		.uleb128 0x12
 6091 0281 06       		.uleb128 0x6
 6092 0282 40       		.uleb128 0x40
 6093 0283 18       		.uleb128 0x18
 6094 0284 9642     		.uleb128 0x2116
 6095 0286 19       		.uleb128 0x19
 6096 0287 01       		.uleb128 0x1
 6097 0288 13       		.uleb128 0x13
 6098 0289 00       		.byte	0
 6099 028a 00       		.byte	0
 6100 028b 2E       		.uleb128 0x2e
 6101 028c 0A       		.uleb128 0xa
 6102 028d 00       		.byte	0
 6103 028e 03       		.uleb128 0x3
 6104 028f 0E       		.uleb128 0xe
 6105 0290 3A       		.uleb128 0x3a
 6106 0291 0B       		.uleb128 0xb
 6107 0292 3B       		.uleb128 0x3b
 6108 0293 05       		.uleb128 0x5
 6109 0294 11       		.uleb128 0x11
 6110 0295 01       		.uleb128 0x1
 6111 0296 00       		.byte	0
 6112 0297 00       		.byte	0
 6113 0298 2F       		.uleb128 0x2f
 6114 0299 34       		.uleb128 0x34
 6115 029a 00       		.byte	0
 6116 029b 03       		.uleb128 0x3
 6117 029c 0E       		.uleb128 0xe
 6118 029d 3A       		.uleb128 0x3a
 6119 029e 0B       		.uleb128 0xb
 6120 029f 3B       		.uleb128 0x3b
 6121 02a0 05       		.uleb128 0x5
 6122 02a1 49       		.uleb128 0x49
 6123 02a2 13       		.uleb128 0x13
 6124 02a3 3F       		.uleb128 0x3f
 6125 02a4 19       		.uleb128 0x19
 6126 02a5 3C       		.uleb128 0x3c
 6127 02a6 19       		.uleb128 0x19
 6128 02a7 00       		.byte	0
 6129 02a8 00       		.byte	0
 6130 02a9 30       		.uleb128 0x30
 6131 02aa 34       		.uleb128 0x34
 6132 02ab 00       		.byte	0
 6133 02ac 03       		.uleb128 0x3
ARM GAS  C:\Users\Luis\AppData\Local\Temp\ccSH6HF5.s 			page 110


 6134 02ad 08       		.uleb128 0x8
 6135 02ae 3A       		.uleb128 0x3a
 6136 02af 0B       		.uleb128 0xb
 6137 02b0 3B       		.uleb128 0x3b
 6138 02b1 05       		.uleb128 0x5
 6139 02b2 49       		.uleb128 0x49
 6140 02b3 13       		.uleb128 0x13
 6141 02b4 3F       		.uleb128 0x3f
 6142 02b5 19       		.uleb128 0x19
 6143 02b6 3C       		.uleb128 0x3c
 6144 02b7 19       		.uleb128 0x19
 6145 02b8 00       		.byte	0
 6146 02b9 00       		.byte	0
 6147 02ba 31       		.uleb128 0x31
 6148 02bb 34       		.uleb128 0x34
 6149 02bc 00       		.byte	0
 6150 02bd 03       		.uleb128 0x3
 6151 02be 0E       		.uleb128 0xe
 6152 02bf 3A       		.uleb128 0x3a
 6153 02c0 0B       		.uleb128 0xb
 6154 02c1 3B       		.uleb128 0x3b
 6155 02c2 0B       		.uleb128 0xb
 6156 02c3 49       		.uleb128 0x49
 6157 02c4 13       		.uleb128 0x13
 6158 02c5 3F       		.uleb128 0x3f
 6159 02c6 19       		.uleb128 0x19
 6160 02c7 3C       		.uleb128 0x3c
 6161 02c8 19       		.uleb128 0x19
 6162 02c9 00       		.byte	0
 6163 02ca 00       		.byte	0
 6164 02cb 32       		.uleb128 0x32
 6165 02cc 34       		.uleb128 0x34
 6166 02cd 00       		.byte	0
 6167 02ce 03       		.uleb128 0x3
 6168 02cf 0E       		.uleb128 0xe
 6169 02d0 3A       		.uleb128 0x3a
 6170 02d1 0B       		.uleb128 0xb
 6171 02d2 3B       		.uleb128 0x3b
 6172 02d3 0B       		.uleb128 0xb
 6173 02d4 49       		.uleb128 0x49
 6174 02d5 13       		.uleb128 0x13
 6175 02d6 3F       		.uleb128 0x3f
 6176 02d7 19       		.uleb128 0x19
 6177 02d8 02       		.uleb128 0x2
 6178 02d9 18       		.uleb128 0x18
 6179 02da 00       		.byte	0
 6180 02db 00       		.byte	0
 6181 02dc 00       		.byte	0
 6182              		.section	.debug_aranges,"",%progbits
 6183 0000 8C000000 		.4byte	0x8c
 6184 0004 0200     		.2byte	0x2
 6185 0006 00000000 		.4byte	.Ldebug_info0
 6186 000a 04       		.byte	0x4
 6187 000b 00       		.byte	0
 6188 000c 0000     		.2byte	0
 6189 000e 0000     		.2byte	0
 6190 0010 00000000 		.4byte	.LFB230
ARM GAS  C:\Users\Luis\AppData\Local\Temp\ccSH6HF5.s 			page 111


 6191 0014 14000000 		.4byte	.LFE230-.LFB230
 6192 0018 00000000 		.4byte	.LFB260
 6193 001c 64000000 		.4byte	.LFE260-.LFB260
 6194 0020 00000000 		.4byte	.LFB261
 6195 0024 DC000000 		.4byte	.LFE261-.LFB261
 6196 0028 00000000 		.4byte	.LFB262
 6197 002c 5C020000 		.4byte	.LFE262-.LFB262
 6198 0030 00000000 		.4byte	.LFB263
 6199 0034 64000000 		.4byte	.LFE263-.LFB263
 6200 0038 00000000 		.4byte	.LFB264
 6201 003c 34010000 		.4byte	.LFE264-.LFB264
 6202 0040 00000000 		.4byte	.LFB265
 6203 0044 60000000 		.4byte	.LFE265-.LFB265
 6204 0048 00000000 		.4byte	.LFB266
 6205 004c 94000000 		.4byte	.LFE266-.LFB266
 6206 0050 00000000 		.4byte	.LFB267
 6207 0054 EC010000 		.4byte	.LFE267-.LFB267
 6208 0058 00000000 		.4byte	.LFB268
 6209 005c C0000000 		.4byte	.LFE268-.LFB268
 6210 0060 00000000 		.4byte	.LFB269
 6211 0064 DC010000 		.4byte	.LFE269-.LFB269
 6212 0068 00000000 		.4byte	.LFB270
 6213 006c 80020000 		.4byte	.LFE270-.LFB270
 6214 0070 00000000 		.4byte	.LFB271
 6215 0074 48010000 		.4byte	.LFE271-.LFB271
 6216 0078 00000000 		.4byte	.LFB272
 6217 007c 44000000 		.4byte	.LFE272-.LFB272
 6218 0080 00000000 		.4byte	.LFB273
 6219 0084 3C010000 		.4byte	.LFE273-.LFB273
 6220 0088 00000000 		.4byte	0
 6221 008c 00000000 		.4byte	0
 6222              		.section	.debug_ranges,"",%progbits
 6223              	.Ldebug_ranges0:
 6224 0000 00000000 		.4byte	.LFB230
 6225 0004 14000000 		.4byte	.LFE230
 6226 0008 00000000 		.4byte	.LFB260
 6227 000c 64000000 		.4byte	.LFE260
 6228 0010 00000000 		.4byte	.LFB261
 6229 0014 DC000000 		.4byte	.LFE261
 6230 0018 00000000 		.4byte	.LFB262
 6231 001c 5C020000 		.4byte	.LFE262
 6232 0020 00000000 		.4byte	.LFB263
 6233 0024 64000000 		.4byte	.LFE263
 6234 0028 00000000 		.4byte	.LFB264
 6235 002c 34010000 		.4byte	.LFE264
 6236 0030 00000000 		.4byte	.LFB265
 6237 0034 60000000 		.4byte	.LFE265
 6238 0038 00000000 		.4byte	.LFB266
 6239 003c 94000000 		.4byte	.LFE266
 6240 0040 00000000 		.4byte	.LFB267
 6241 0044 EC010000 		.4byte	.LFE267
 6242 0048 00000000 		.4byte	.LFB268
 6243 004c C0000000 		.4byte	.LFE268
 6244 0050 00000000 		.4byte	.LFB269
 6245 0054 DC010000 		.4byte	.LFE269
 6246 0058 00000000 		.4byte	.LFB270
 6247 005c 80020000 		.4byte	.LFE270
ARM GAS  C:\Users\Luis\AppData\Local\Temp\ccSH6HF5.s 			page 112


 6248 0060 00000000 		.4byte	.LFB271
 6249 0064 48010000 		.4byte	.LFE271
 6250 0068 00000000 		.4byte	.LFB272
 6251 006c 44000000 		.4byte	.LFE272
 6252 0070 00000000 		.4byte	.LFB273
 6253 0074 3C010000 		.4byte	.LFE273
 6254 0078 00000000 		.4byte	0
 6255 007c 00000000 		.4byte	0
 6256              		.section	.debug_line,"",%progbits
 6257              	.Ldebug_line0:
 6258 0000 D9060000 		.section	.debug_str,"MS",%progbits,1
 6258      02000003 
 6258      00000201 
 6258      FB0E0D00 
 6258      01010101 
 6259              	.LASF233:
 6260 0000 6F6C645F 		.ascii	"old_stable\000"
 6260      73746162 
 6260      6C6500
 6261              	.LASF11:
 6262 000b 6C6F6E67 		.ascii	"long int\000"
 6262      20696E74 
 6262      00
 6263              	.LASF53:
 6264 0014 74687265 		.ascii	"threads_queue_t\000"
 6264      6164735F 
 6264      71756575 
 6264      655F7400 
 6265              	.LASF211:
 6266 0024 65746861 		.ascii	"etharp_hdr\000"
 6266      72705F68 
 6266      647200
 6267              	.LASF183:
 6268 002f 73746174 		.ascii	"stats_proto\000"
 6268      735F7072 
 6268      6F746F00 
 6269              	.LASF118:
 6270 003b 77746D74 		.ascii	"wtmtxp\000"
 6270      787000
 6271              	.LASF171:
 6272 0042 4D454D50 		.ascii	"MEMP_TCP_PCB_LISTEN\000"
 6272      5F544350 
 6272      5F504342 
 6272      5F4C4953 
 6272      54454E00 
 6273              	.LASF49:
 6274 0056 74687265 		.ascii	"thread_reference_t\000"
 6274      61645F72 
 6274      65666572 
 6274      656E6365 
 6274      5F7400
 6275              	.LASF155:
 6276 0069 6E657469 		.ascii	"netif\000"
 6276      6600
 6277              	.LASF127:
 6278 006f 63686172 		.ascii	"char\000"
 6278      00
ARM GAS  C:\Users\Luis\AppData\Local\Temp\ccSH6HF5.s 			page 113


 6279              	.LASF158:
 6280 0074 6F757470 		.ascii	"output\000"
 6280      757400
 6281              	.LASF31:
 6282 007b 705F7072 		.ascii	"p_prio\000"
 6282      696F00
 6283              	.LASF238:
 6284 0082 6167655F 		.ascii	"age_queue\000"
 6284      71756575 
 6284      6500
 6285              	.LASF215:
 6286 008c 70726F74 		.ascii	"protolen\000"
 6286      6F6C656E 
 6286      00
 6287              	.LASF227:
 6288 0095 65746861 		.ascii	"ethaddr\000"
 6288      64647200 
 6289              	.LASF144:
 6290 009d 50425546 		.ascii	"PBUF_RAW\000"
 6290      5F524157 
 6290      00
 6291              	.LASF154:
 6292 00a6 666C6167 		.ascii	"flags\000"
 6292      7300
 6293              	.LASF27:
 6294 00ac 73797374 		.ascii	"systime_t\000"
 6294      696D655F 
 6294      7400
 6295              	.LASF125:
 6296 00b6 6D5F6F77 		.ascii	"m_owner\000"
 6296      6E657200 
 6297              	.LASF121:
 6298 00be 735F7175 		.ascii	"s_queue\000"
 6298      65756500 
 6299              	.LASF41:
 6300 00c6 705F6D73 		.ascii	"p_msgqueue\000"
 6300      67717565 
 6300      756500
 6301              	.LASF0:
 6302 00d1 756E7369 		.ascii	"unsigned int\000"
 6302      676E6564 
 6302      20696E74 
 6302      00
 6303              	.LASF150:
 6304 00de 6E657874 		.ascii	"next\000"
 6304      00
 6305              	.LASF17:
 6306 00e3 7274636E 		.ascii	"rtcnt_t\000"
 6306      745F7400 
 6307              	.LASF111:
 6308 00eb 6D5F6372 		.ascii	"m_crit_isr\000"
 6308      69745F69 
 6308      737200
 6309              	.LASF50:
 6310 00f6 74687265 		.ascii	"threads_list_t\000"
 6310      6164735F 
 6310      6C697374 
ARM GAS  C:\Users\Luis\AppData\Local\Temp\ccSH6HF5.s 			page 114


 6310      5F7400
 6311              	.LASF140:
 6312 0105 6572725F 		.ascii	"err_t\000"
 6312      7400
 6313              	.LASF106:
 6314 010b 63756D75 		.ascii	"cumulative\000"
 6314      6C617469 
 6314      766500
 6315              	.LASF220:
 6316 0116 64697061 		.ascii	"dipaddr\000"
 6316      64647200 
 6317              	.LASF40:
 6318 011e 705F7761 		.ascii	"p_waiting\000"
 6318      6974696E 
 6318      6700
 6319              	.LASF95:
 6320 0128 73655F73 		.ascii	"se_state\000"
 6320      74617465 
 6320      00
 6321              	.LASF139:
 6322 0131 61646472 		.ascii	"addrw\000"
 6322      7700
 6323              	.LASF258:
 6324 0137 636F7079 		.ascii	"copy_needed\000"
 6324      5F6E6565 
 6324      64656400 
 6325              	.LASF275:
 6326 0143 474E5520 		.ascii	"GNU C 4.8.3 20131129 (release) [ARM/embedded-4_8-br"
 6326      4320342E 
 6326      382E3320 
 6326      32303133 
 6326      31313239 
 6327 0176 616E6368 		.ascii	"anch revision 205641] -mcpu=cortex-m4 -mapcs-frame "
 6327      20726576 
 6327      6973696F 
 6327      6E203230 
 6327      35363431 
 6328 01a9 2D6D6E6F 		.ascii	"-mno-thumb-interwork -mthumb -ggdb -O0 -falign-func"
 6328      2D746875 
 6328      6D622D69 
 6328      6E746572 
 6328      776F726B 
 6329 01dc 74696F6E 		.ascii	"tions=16 -ffunction-sections -fdata-sections -fno-c"
 6329      733D3136 
 6329      202D6666 
 6329      756E6374 
 6329      696F6E2D 
 6330 020f 6F6D6D6F 		.ascii	"ommon\000"
 6330      6E00
 6331              	.LASF203:
 6332 0215 6C696E6B 		.ascii	"link\000"
 6332      00
 6333              	.LASF83:
 6334 021a 76746C69 		.ascii	"vtlist\000"
 6334      737400
 6335              	.LASF56:
 6336 0221 63685F72 		.ascii	"ch_ready_list\000"
ARM GAS  C:\Users\Luis\AppData\Local\Temp\ccSH6HF5.s 			page 115


 6336      65616479 
 6336      5F6C6973 
 6336      7400
 6337              	.LASF86:
 6338 022f 69646C65 		.ascii	"idle_thread_wa\000"
 6338      5F746872 
 6338      6561645F 
 6338      776100
 6339              	.LASF194:
 6340 023e 73746174 		.ascii	"stats_mem\000"
 6340      735F6D65 
 6340      6D00
 6341              	.LASF119:
 6342 0248 65776D61 		.ascii	"ewmask\000"
 6342      736B00
 6343              	.LASF255:
 6344 024f 65746861 		.ascii	"etharp_query\000"
 6344      72705F71 
 6344      75657279 
 6344      00
 6345              	.LASF165:
 6346 025c 6E657469 		.ascii	"netif_output_fn\000"
 6346      665F6F75 
 6346      74707574 
 6346      5F666E00 
 6347              	.LASF181:
 6348 026c 4D454D50 		.ascii	"MEMP_PBUF_POOL\000"
 6348      5F504255 
 6348      465F504F 
 6348      4F4C00
 6349              	.LASF272:
 6350 027b 6C776970 		.ascii	"lwip_stats\000"
 6350      5F737461 
 6350      747300
 6351              	.LASF260:
 6352 0286 65746873 		.ascii	"ethsrc_addr\000"
 6352      72635F61 
 6352      64647200 
 6353              	.LASF75:
 6354 0292 63685F73 		.ascii	"ch_system_debug\000"
 6354      79737465 
 6354      6D5F6465 
 6354      62756700 
 6355              	.LASF63:
 6356 02a2 76746675 		.ascii	"vtfunc_t\000"
 6356      6E635F74 
 6356      00
 6357              	.LASF115:
 6358 02ab 77746F62 		.ascii	"wtobjp\000"
 6358      6A7000
 6359              	.LASF259:
 6360 02b2 65746861 		.ascii	"etharp_raw\000"
 6360      72705F72 
 6360      617700
 6361              	.LASF223:
 6362 02bd 45544841 		.ascii	"ETHARP_STATE_STABLE\000"
 6362      52505F53 
ARM GAS  C:\Users\Luis\AppData\Local\Temp\ccSH6HF5.s 			page 116


 6362      54415445 
 6362      5F535441 
 6362      424C4500 
 6363              	.LASF122:
 6364 02d1 735F636E 		.ascii	"s_cnt\000"
 6364      7400
 6365              	.LASF141:
 6366 02d7 50425546 		.ascii	"PBUF_TRANSPORT\000"
 6366      5F545241 
 6366      4E53504F 
 6366      525400
 6367              	.LASF198:
 6368 02e6 73746174 		.ascii	"stats_syselem\000"
 6368      735F7379 
 6368      73656C65 
 6368      6D00
 6369              	.LASF164:
 6370 02f4 6E657469 		.ascii	"netif_input_fn\000"
 6370      665F696E 
 6370      7075745F 
 6370      666E00
 6371              	.LASF102:
 6372 0303 746D5F63 		.ascii	"tm_calibration_t\000"
 6372      616C6962 
 6372      72617469 
 6372      6F6E5F74 
 6372      00
 6373              	.LASF12:
 6374 0314 75696E74 		.ascii	"uint32_t\000"
 6374      33325F74 
 6374      00
 6375              	.LASF176:
 6376 031d 4D454D50 		.ascii	"MEMP_NETCONN\000"
 6376      5F4E4554 
 6376      434F4E4E 
 6376      00
 6377              	.LASF112:
 6378 032a 6B65726E 		.ascii	"kernel_stats_t\000"
 6378      656C5F73 
 6378      74617473 
 6378      5F7400
 6379              	.LASF24:
 6380 0339 6576656E 		.ascii	"eventmask_t\000"
 6380      746D6173 
 6380      6B5F7400 
 6381              	.LASF58:
 6382 0345 725F7072 		.ascii	"r_prio\000"
 6382      696F00
 6383              	.LASF85:
 6384 034c 6B65726E 		.ascii	"kernel_stats\000"
 6384      656C5F73 
 6384      74617473 
 6384      00
 6385              	.LASF177:
 6386 0359 4D454D50 		.ascii	"MEMP_TCPIP_MSG_API\000"
 6386      5F544350 
 6386      49505F4D 
ARM GAS  C:\Users\Luis\AppData\Local\Temp\ccSH6HF5.s 			page 117


 6386      53475F41 
 6386      504900
 6387              	.LASF192:
 6388 036c 6F707465 		.ascii	"opterr\000"
 6388      727200
 6389              	.LASF242:
 6390 0373 65746861 		.ascii	"etharp_update_arp_entry\000"
 6390      72705F75 
 6390      70646174 
 6390      655F6172 
 6390      705F656E 
 6391              	.LASF200:
 6392 038b 6D757465 		.ascii	"mutex\000"
 6392      7800
 6393              	.LASF205:
 6394 0391 69705F66 		.ascii	"ip_frag\000"
 6394      72616700 
 6395              	.LASF120:
 6396 0399 63685F73 		.ascii	"ch_semaphore\000"
 6396      656D6170 
 6396      686F7265 
 6396      00
 6397              	.LASF22:
 6398 03a6 74707269 		.ascii	"tprio_t\000"
 6398      6F5F7400 
 6399              	.LASF65:
 6400 03ae 63685F76 		.ascii	"ch_virtual_timer\000"
 6400      69727475 
 6400      616C5F74 
 6400      696D6572 
 6400      00
 6401              	.LASF6:
 6402 03bf 696E7431 		.ascii	"int16_t\000"
 6402      365F7400 
 6403              	.LASF225:
 6404 03c7 65746861 		.ascii	"etharp_entry\000"
 6404      72705F65 
 6404      6E747279 
 6404      00
 6405              	.LASF257:
 6406 03d4 72657375 		.ascii	"result\000"
 6406      6C7400
 6407              	.LASF162:
 6408 03db 68776164 		.ascii	"hwaddr\000"
 6408      647200
 6409              	.LASF204:
 6410 03e2 65746861 		.ascii	"etharp\000"
 6410      727000
 6411              	.LASF16:
 6412 03e9 6C6F6E67 		.ascii	"long long unsigned int\000"
 6412      206C6F6E 
 6412      6720756E 
 6412      7369676E 
 6412      65642069 
 6413              	.LASF94:
 6414 0400 73655F77 		.ascii	"se_wtobjp\000"
 6414      746F626A 
ARM GAS  C:\Users\Luis\AppData\Local\Temp\ccSH6HF5.s 			page 118


 6414      7000
 6415              	.LASF101:
 6416 040a 6F666673 		.ascii	"offset\000"
 6416      657400
 6417              	.LASF231:
 6418 0411 72656173 		.ascii	"reason\000"
 6418      6F6E00
 6419              	.LASF221:
 6420 0418 45544841 		.ascii	"ETHARP_STATE_EMPTY\000"
 6420      52505F53 
 6420      54415445 
 6420      5F454D50 
 6420      545900
 6421              	.LASF228:
 6422 042b 6374696D 		.ascii	"ctime\000"
 6422      6500
 6423              	.LASF25:
 6424 0431 636E745F 		.ascii	"cnt_t\000"
 6424      7400
 6425              	.LASF161:
 6426 0437 68776164 		.ascii	"hwaddr_len\000"
 6426      64725F6C 
 6426      656E00
 6427              	.LASF230:
 6428 0442 65746861 		.ascii	"etharp_free_entry\000"
 6428      72705F66 
 6428      7265655F 
 6428      656E7472 
 6428      7900
 6429              	.LASF77:
 6430 0454 6973725F 		.ascii	"isr_cnt\000"
 6430      636E7400 
 6431              	.LASF104:
 6432 045c 776F7273 		.ascii	"worst\000"
 6432      7400
 6433              	.LASF33:
 6434 0462 705F6E65 		.ascii	"p_newer\000"
 6434      77657200 
 6435              	.LASF72:
 6436 046a 63685F76 		.ascii	"ch_virtual_timers_list\000"
 6436      69727475 
 6436      616C5F74 
 6436      696D6572 
 6436      735F6C69 
 6437              	.LASF68:
 6438 0481 76745F64 		.ascii	"vt_delta\000"
 6438      656C7461 
 6438      00
 6439              	.LASF178:
 6440 048a 4D454D50 		.ascii	"MEMP_TCPIP_MSG_INPKT\000"
 6440      5F544350 
 6440      49505F4D 
 6440      53475F49 
 6440      4E504B54 
 6441              	.LASF147:
 6442 049f 50425546 		.ascii	"PBUF_REF\000"
 6442      5F524546 
ARM GAS  C:\Users\Luis\AppData\Local\Temp\ccSH6HF5.s 			page 119


 6442      00
 6443              	.LASF202:
 6444 04a8 73746174 		.ascii	"stats_\000"
 6444      735F00
 6445              	.LASF28:
 6446 04af 74687265 		.ascii	"thread_t\000"
 6446      61645F74 
 6446      00
 6447              	.LASF254:
 6448 04b8 6473745F 		.ascii	"dst_addr\000"
 6448      61646472 
 6448      00
 6449              	.LASF152:
 6450 04c1 746F745F 		.ascii	"tot_len\000"
 6450      6C656E00 
 6451              	.LASF226:
 6452 04c9 69706164 		.ascii	"ipaddr\000"
 6452      647200
 6453              	.LASF113:
 6454 04d0 7264796D 		.ascii	"rdymsg\000"
 6454      736700
 6455              	.LASF151:
 6456 04d7 7061796C 		.ascii	"payload\000"
 6456      6F616400 
 6457              	.LASF244:
 6458 04df 65746861 		.ascii	"etharp_cleanup_netif\000"
 6458      72705F63 
 6458      6C65616E 
 6458      75705F6E 
 6458      65746966 
 6459              	.LASF142:
 6460 04f4 50425546 		.ascii	"PBUF_IP\000"
 6460      5F495000 
 6461              	.LASF129:
 6462 04fc 5F426F6F 		.ascii	"_Bool\000"
 6462      6C00
 6463              	.LASF14:
 6464 0502 6C6F6E67 		.ascii	"long long int\000"
 6464      206C6F6E 
 6464      6720696E 
 6464      7400
 6465              	.LASF232:
 6466 0510 6F6C645F 		.ascii	"old_pending\000"
 6466      70656E64 
 6466      696E6700 
 6467              	.LASF277:
 6468 051c 433A5C55 		.ascii	"C:\\Users\\Luis\\git\\DSP-Library-Lanin\\examples\\"
 6468      73657273 
 6468      5C4C7569 
 6468      735C6769 
 6468      745C4453 
 6469 0549 53544D33 		.ascii	"STM32F407_EMTECH-LWIP\000"
 6469      32463430 
 6469      375F454D 
 6469      54454348 
 6469      2D4C5749 
 6470              	.LASF148:
ARM GAS  C:\Users\Luis\AppData\Local\Temp\ccSH6HF5.s 			page 120


 6471 055f 50425546 		.ascii	"PBUF_POOL\000"
 6471      5F504F4F 
 6471      4C00
 6472              	.LASF123:
 6473 0569 63685F6D 		.ascii	"ch_mutex\000"
 6473      75746578 
 6473      00
 6474              	.LASF182:
 6475 0572 4D454D50 		.ascii	"MEMP_MAX\000"
 6475      5F4D4158 
 6475      00
 6476              	.LASF131:
 6477 057b 73385F74 		.ascii	"s8_t\000"
 6477      00
 6478              	.LASF237:
 6479 0580 6F6C645F 		.ascii	"old_queue\000"
 6479      71756575 
 6479      6500
 6480              	.LASF217:
 6481 058a 73687761 		.ascii	"shwaddr\000"
 6481      64647200 
 6482              	.LASF243:
 6483 0592 65746861 		.ascii	"etharp_tmr\000"
 6483      72705F74 
 6483      6D7200
 6484              	.LASF105:
 6485 059d 6C617374 		.ascii	"last\000"
 6485      00
 6486              	.LASF276:
 6487 05a2 2E2E2F2E 		.ascii	"../../ChibiOS/ext/lwip/src/netif/etharp.c\000"
 6487      2E2F4368 
 6487      6962694F 
 6487      532F6578 
 6487      742F6C77 
 6488              	.LASF107:
 6489 05cc 74696D65 		.ascii	"time_measurement_t\000"
 6489      5F6D6561 
 6489      73757265 
 6489      6D656E74 
 6489      5F7400
 6490              	.LASF2:
 6491 05df 696E7438 		.ascii	"int8_t\000"
 6491      5F7400
 6492              	.LASF278:
 6493 05e6 65746861 		.ascii	"etharp_state\000"
 6493      72705F73 
 6493      74617465 
 6493      00
 6494              	.LASF267:
 6495 05f3 65746865 		.ascii	"ethernet_input\000"
 6495      726E6574 
 6495      5F696E70 
 6495      757400
 6496              	.LASF239:
 6497 0602 65746861 		.ascii	"etharp_find_entry\000"
 6497      72705F66 
 6497      696E645F 
ARM GAS  C:\Users\Luis\AppData\Local\Temp\ccSH6HF5.s 			page 121


 6497      656E7472 
 6497      7900
 6498              	.LASF180:
 6499 0614 4D454D50 		.ascii	"MEMP_PBUF\000"
 6499      5F504255 
 6499      4600
 6500              	.LASF212:
 6501 061e 68777479 		.ascii	"hwtype\000"
 6501      706500
 6502              	.LASF52:
 6503 0625 63685F74 		.ascii	"ch_threads_list\000"
 6503      68726561 
 6503      64735F6C 
 6503      69737400 
 6504              	.LASF270:
 6505 0635 65746861 		.ascii	"etharp_cached_entry\000"
 6505      72705F63 
 6505      61636865 
 6505      645F656E 
 6505      74727900 
 6506              	.LASF256:
 6507 0649 73726361 		.ascii	"srcaddr\000"
 6507      64647200 
 6508              	.LASF197:
 6509 0651 696C6C65 		.ascii	"illegal\000"
 6509      67616C00 
 6510              	.LASF167:
 6511 0659 6D656D5F 		.ascii	"mem_size_t\000"
 6511      73697A65 
 6511      5F7400
 6512              	.LASF18:
 6513 0664 72747469 		.ascii	"rttime_t\000"
 6513      6D655F74 
 6513      00
 6514              	.LASF73:
 6515 066d 76745F6C 		.ascii	"vt_lasttime\000"
 6515      61737474 
 6515      696D6500 
 6516              	.LASF213:
 6517 0679 70726F74 		.ascii	"proto\000"
 6517      6F00
 6518              	.LASF20:
 6519 067f 74737461 		.ascii	"tstate_t\000"
 6519      74655F74 
 6519      00
 6520              	.LASF93:
 6521 0688 73655F74 		.ascii	"se_tp\000"
 6521      7000
 6522              	.LASF208:
 6523 068e 6574685F 		.ascii	"eth_addr\000"
 6523      61646472 
 6523      00
 6524              	.LASF216:
 6525 0697 6F70636F 		.ascii	"opcode\000"
 6525      646500
 6526              	.LASF34:
 6527 069e 705F6F6C 		.ascii	"p_older\000"
ARM GAS  C:\Users\Luis\AppData\Local\Temp\ccSH6HF5.s 			page 122


 6527      64657200 
 6528              	.LASF218:
 6529 06a6 73697061 		.ascii	"sipaddr\000"
 6529      64647200 
 6530              	.LASF92:
 6531 06ae 73655F74 		.ascii	"se_time\000"
 6531      696D6500 
 6532              	.LASF36:
 6533 06b6 705F7374 		.ascii	"p_stklimit\000"
 6533      6B6C696D 
 6533      697400
 6534              	.LASF4:
 6535 06c1 75696E74 		.ascii	"uint8_t\000"
 6535      385F7400 
 6536              	.LASF153:
 6537 06c9 74797065 		.ascii	"type\000"
 6537      00
 6538              	.LASF47:
 6539 06ce 705F7374 		.ascii	"p_stats\000"
 6539      61747300 
 6540              	.LASF46:
 6541 06d6 705F6D70 		.ascii	"p_mpool\000"
 6541      6F6F6C00 
 6542              	.LASF209:
 6543 06de 6574685F 		.ascii	"eth_hdr\000"
 6543      68647200 
 6544              	.LASF37:
 6545 06e6 705F7374 		.ascii	"p_state\000"
 6545      61746500 
 6546              	.LASF51:
 6547 06ee 63685F74 		.ascii	"ch_thread\000"
 6547      68726561 
 6547      6400
 6548              	.LASF97:
 6549 06f8 74625F73 		.ascii	"tb_size\000"
 6549      697A6500 
 6550              	.LASF88:
 6551 0700 72656761 		.ascii	"regarm_t\000"
 6551      726D5F74 
 6551      00
 6552              	.LASF74:
 6553 0709 73797374 		.ascii	"system_debug_t\000"
 6553      656D5F64 
 6553      65627567 
 6553      5F7400
 6554              	.LASF279:
 6555 0718 66726565 		.ascii	"free_and_return\000"
 6555      5F616E64 
 6555      5F726574 
 6555      75726E00 
 6556              	.LASF175:
 6557 0728 4D454D50 		.ascii	"MEMP_NETBUF\000"
 6557      5F4E4554 
 6557      42554600 
 6558              	.LASF156:
 6559 0734 6E65746D 		.ascii	"netmask\000"
 6559      61736B00 
ARM GAS  C:\Users\Luis\AppData\Local\Temp\ccSH6HF5.s 			page 123


 6560              	.LASF54:
 6561 073c 63685F74 		.ascii	"ch_threads_queue\000"
 6561      68726561 
 6561      64735F71 
 6561      75657565 
 6561      00
 6562              	.LASF240:
 6563 074d 65746861 		.ascii	"etharp_send_ip\000"
 6563      72705F73 
 6563      656E645F 
 6563      697000
 6564              	.LASF57:
 6565 075c 725F7175 		.ascii	"r_queue\000"
 6565      65756500 
 6566              	.LASF60:
 6567 0764 725F6E65 		.ascii	"r_newer\000"
 6567      77657200 
 6568              	.LASF23:
 6569 076c 6D73675F 		.ascii	"msg_t\000"
 6569      7400
 6570              	.LASF262:
 6571 0772 68777372 		.ascii	"hwsrc_addr\000"
 6571      635F6164 
 6571      647200
 6572              	.LASF245:
 6573 077d 6574685F 		.ascii	"eth_ret\000"
 6573      72657400 
 6574              	.LASF170:
 6575 0785 4D454D50 		.ascii	"MEMP_TCP_PCB\000"
 6575      5F544350 
 6575      5F504342 
 6575      00
 6576              	.LASF207:
 6577 0792 6D656D70 		.ascii	"memp\000"
 6577      00
 6578              	.LASF130:
 6579 0797 75385F74 		.ascii	"u8_t\000"
 6579      00
 6580              	.LASF261:
 6581 079c 65746864 		.ascii	"ethdst_addr\000"
 6581      73745F61 
 6581      64647200 
 6582              	.LASF38:
 6583 07a8 705F666C 		.ascii	"p_flags\000"
 6583      61677300 
 6584              	.LASF64:
 6585 07b0 76697274 		.ascii	"virtual_timer_t\000"
 6585      75616C5F 
 6585      74696D65 
 6585      725F7400 
 6586              	.LASF229:
 6587 07c0 6F73616C 		.ascii	"osalSysHalt\000"
 6587      53797348 
 6587      616C7400 
 6588              	.LASF99:
 6589 07cc 74625F62 		.ascii	"tb_buffer\000"
 6589      75666665 
ARM GAS  C:\Users\Luis\AppData\Local\Temp\ccSH6HF5.s 			page 124


 6589      7200
 6590              	.LASF196:
 6591 07d6 75736564 		.ascii	"used\000"
 6591      00
 6592              	.LASF98:
 6593 07db 74625F70 		.ascii	"tb_ptr\000"
 6593      747200
 6594              	.LASF187:
 6595 07e2 63686B65 		.ascii	"chkerr\000"
 6595      727200
 6596              	.LASF61:
 6597 07e9 725F6F6C 		.ascii	"r_older\000"
 6597      64657200 
 6598              	.LASF173:
 6599 07f1 4D454D50 		.ascii	"MEMP_REASSDATA\000"
 6599      5F524541 
 6599      53534441 
 6599      544100
 6600              	.LASF109:
 6601 0800 6E5F6374 		.ascii	"n_ctxswc\000"
 6601      78737763 
 6601      00
 6602              	.LASF157:
 6603 0809 696E7075 		.ascii	"input\000"
 6603      7400
 6604              	.LASF189:
 6605 080f 6D656D65 		.ascii	"memerr\000"
 6605      727200
 6606              	.LASF143:
 6607 0816 50425546 		.ascii	"PBUF_LINK\000"
 6607      5F4C494E 
 6607      4B00
 6608              	.LASF90:
 6609 0820 636F6E74 		.ascii	"context\000"
 6609      65787400 
 6610              	.LASF42:
 6611 0828 705F6D73 		.ascii	"p_msg\000"
 6611      6700
 6612              	.LASF138:
 6613 082e 69705F61 		.ascii	"ip_addr2\000"
 6613      64647232 
 6613      00
 6614              	.LASF19:
 6615 0837 746D6F64 		.ascii	"tmode_t\000"
 6615      655F7400 
 6616              	.LASF26:
 6617 083f 75636E74 		.ascii	"ucnt_t\000"
 6617      5F7400
 6618              	.LASF84:
 6619 0846 6D61696E 		.ascii	"mainthread\000"
 6619      74687265 
 6619      616400
 6620              	.LASF145:
 6621 0851 50425546 		.ascii	"PBUF_RAM\000"
 6621      5F52414D 
 6621      00
 6622              	.LASF35:
ARM GAS  C:\Users\Luis\AppData\Local\Temp\ccSH6HF5.s 			page 125


 6623 085a 705F6E61 		.ascii	"p_name\000"
 6623      6D6500
 6624              	.LASF8:
 6625 0861 75696E74 		.ascii	"uint16_t\000"
 6625      31365F74 
 6625      00
 6626              	.LASF1:
 6627 086a 73697A65 		.ascii	"size_t\000"
 6627      5F7400
 6628              	.LASF132:
 6629 0871 7531365F 		.ascii	"u16_t\000"
 6629      7400
 6630              	.LASF71:
 6631 0877 76697274 		.ascii	"virtual_timers_list_t\000"
 6631      75616C5F 
 6631      74696D65 
 6631      72735F6C 
 6631      6973745F 
 6632              	.LASF224:
 6633 088d 45544841 		.ascii	"ETHARP_STATE_STABLE_REREQUESTING\000"
 6633      52505F53 
 6633      54415445 
 6633      5F535441 
 6633      424C455F 
 6634              	.LASF78:
 6635 08ae 6C6F636B 		.ascii	"lock_cnt\000"
 6635      5F636E74 
 6635      00
 6636              	.LASF236:
 6637 08b7 6167655F 		.ascii	"age_stable\000"
 6637      73746162 
 6637      6C6500
 6638              	.LASF273:
 6639 08c2 65746862 		.ascii	"ethbroadcast\000"
 6639      726F6164 
 6639      63617374 
 6639      00
 6640              	.LASF265:
 6641 08cf 69706473 		.ascii	"ipdst_addr\000"
 6641      745F6164 
 6641      647200
 6642              	.LASF108:
 6643 08da 6E5F6972 		.ascii	"n_irq\000"
 6643      7100
 6644              	.LASF168:
 6645 08e0 4D454D50 		.ascii	"MEMP_RAW_PCB\000"
 6645      5F524157 
 6645      5F504342 
 6645      00
 6646              	.LASF250:
 6647 08ed 6172705F 		.ascii	"arp_idx\000"
 6647      69647800 
 6648              	.LASF45:
 6649 08f5 705F7265 		.ascii	"p_realprio\000"
 6649      616C7072 
 6649      696F00
 6650              	.LASF241:
ARM GAS  C:\Users\Luis\AppData\Local\Temp\ccSH6HF5.s 			page 126


 6651 0900 65746868 		.ascii	"ethhdr\000"
 6651      647200
 6652              	.LASF134:
 6653 0907 7533325F 		.ascii	"u32_t\000"
 6653      7400
 6654              	.LASF7:
 6655 090d 73686F72 		.ascii	"short int\000"
 6655      7420696E 
 6655      7400
 6656              	.LASF206:
 6657 0917 69636D70 		.ascii	"icmp\000"
 6657      00
 6658              	.LASF62:
 6659 091c 725F6375 		.ascii	"r_current\000"
 6659      7272656E 
 6659      7400
 6660              	.LASF43:
 6661 0926 705F6570 		.ascii	"p_epending\000"
 6661      656E6469 
 6661      6E6700
 6662              	.LASF124:
 6663 0931 6D5F7175 		.ascii	"m_queue\000"
 6663      65756500 
 6664              	.LASF91:
 6665 0939 706F7274 		.ascii	"port_intctx\000"
 6665      5F696E74 
 6665      63747800 
 6666              	.LASF190:
 6667 0945 72746572 		.ascii	"rterr\000"
 6667      7200
 6668              	.LASF271:
 6669 094b 49544D5F 		.ascii	"ITM_RxBuffer\000"
 6669      52784275 
 6669      66666572 
 6669      00
 6670              	.LASF195:
 6671 0958 61766169 		.ascii	"avail\000"
 6671      6C00
 6672              	.LASF179:
 6673 095e 4D454D50 		.ascii	"MEMP_SYS_TIMEOUT\000"
 6673      5F535953 
 6673      5F54494D 
 6673      454F5554 
 6673      00
 6674              	.LASF81:
 6675 096f 63685F73 		.ascii	"ch_system\000"
 6675      79737465 
 6675      6D00
 6676              	.LASF110:
 6677 0979 6D5F6372 		.ascii	"m_crit_thd\000"
 6677      69745F74 
 6677      686400
 6678              	.LASF29:
 6679 0984 705F6E65 		.ascii	"p_next\000"
 6679      787400
 6680              	.LASF169:
 6681 098b 4D454D50 		.ascii	"MEMP_UDP_PCB\000"
ARM GAS  C:\Users\Luis\AppData\Local\Temp\ccSH6HF5.s 			page 127


 6681      5F554450 
 6681      5F504342 
 6681      00
 6682              	.LASF32:
 6683 0998 705F6374 		.ascii	"p_ctx\000"
 6683      7800
 6684              	.LASF201:
 6685 099e 6D626F78 		.ascii	"mbox\000"
 6685      00
 6686              	.LASF82:
 6687 09a3 726C6973 		.ascii	"rlist\000"
 6687      7400
 6688              	.LASF263:
 6689 09a9 69707372 		.ascii	"ipsrc_addr\000"
 6689      635F6164 
 6689      647200
 6690              	.LASF247:
 6691 09b4 65746861 		.ascii	"etharp_arp_input\000"
 6691      72705F61 
 6691      72705F69 
 6691      6E707574 
 6691      00
 6692              	.LASF266:
 6693 09c5 65746861 		.ascii	"etharp_request\000"
 6693      72705F72 
 6693      65717565 
 6693      737400
 6694              	.LASF193:
 6695 09d4 63616368 		.ascii	"cachehit\000"
 6695      65686974 
 6695      00
 6696              	.LASF163:
 6697 09dd 6E616D65 		.ascii	"name\000"
 6697      00
 6698              	.LASF166:
 6699 09e2 6E657469 		.ascii	"netif_linkoutput_fn\000"
 6699      665F6C69 
 6699      6E6B6F75 
 6699      74707574 
 6699      5F666E00 
 6700              	.LASF174:
 6701 09f6 4D454D50 		.ascii	"MEMP_FRAG_PBUF\000"
 6701      5F465241 
 6701      475F5042 
 6701      554600
 6702              	.LASF222:
 6703 0a05 45544841 		.ascii	"ETHARP_STATE_PENDING\000"
 6703      52505F53 
 6703      54415445 
 6703      5F50454E 
 6703      44494E47 
 6704              	.LASF268:
 6705 0a1a 69705F68 		.ascii	"ip_hdr_offset\000"
 6705      64725F6F 
 6705      66667365 
 6705      7400
 6706              	.LASF188:
ARM GAS  C:\Users\Luis\AppData\Local\Temp\ccSH6HF5.s 			page 128


 6707 0a28 6C656E65 		.ascii	"lenerr\000"
 6707      727200
 6708              	.LASF274:
 6709 0a2f 6574687A 		.ascii	"ethzero\000"
 6709      65726F00 
 6710              	.LASF30:
 6711 0a37 705F7072 		.ascii	"p_prev\000"
 6711      657600
 6712              	.LASF87:
 6713 0a3e 73697A65 		.ascii	"sizetype\000"
 6713      74797065 
 6713      00
 6714              	.LASF21:
 6715 0a47 74726566 		.ascii	"trefs_t\000"
 6715      735F7400 
 6716              	.LASF246:
 6717 0a4f 69705F72 		.ascii	"ip_ret\000"
 6717      657400
 6718              	.LASF13:
 6719 0a56 6C6F6E67 		.ascii	"long unsigned int\000"
 6719      20756E73 
 6719      69676E65 
 6719      6420696E 
 6719      7400
 6720              	.LASF234:
 6721 0a68 656D7074 		.ascii	"empty\000"
 6721      7900
 6722              	.LASF44:
 6723 0a6e 705F6D74 		.ascii	"p_mtxlist\000"
 6723      786C6973 
 6723      7400
 6724              	.LASF55:
 6725 0a78 72656164 		.ascii	"ready_list_t\000"
 6725      795F6C69 
 6725      73745F74 
 6725      00
 6726              	.LASF269:
 6727 0a85 6172705F 		.ascii	"arp_table\000"
 6727      7461626C 
 6727      6500
 6728              	.LASF248:
 6729 0a8f 666F725F 		.ascii	"for_us\000"
 6729      757300
 6730              	.LASF133:
 6731 0a96 7331365F 		.ascii	"s16_t\000"
 6731      7400
 6732              	.LASF10:
 6733 0a9c 696E7433 		.ascii	"int32_t\000"
 6733      325F7400 
 6734              	.LASF79:
 6735 0aa4 74726163 		.ascii	"trace_buffer\000"
 6735      655F6275 
 6735      66666572 
 6735      00
 6736              	.LASF191:
 6737 0ab1 70726F74 		.ascii	"proterr\000"
 6737      65727200 
ARM GAS  C:\Users\Luis\AppData\Local\Temp\ccSH6HF5.s 			page 129


 6738              	.LASF117:
 6739 0ab9 77747365 		.ascii	"wtsemp\000"
 6739      6D7000
 6740              	.LASF96:
 6741 0ac0 63685F73 		.ascii	"ch_swc_event_t\000"
 6741      77635F65 
 6741      76656E74 
 6741      5F7400
 6742              	.LASF128:
 6743 0acf 6D757465 		.ascii	"mutex_t\000"
 6743      785F7400 
 6744              	.LASF70:
 6745 0ad7 76745F70 		.ascii	"vt_par\000"
 6745      617200
 6746              	.LASF103:
 6747 0ade 62657374 		.ascii	"best\000"
 6747      00
 6748              	.LASF199:
 6749 0ae3 73746174 		.ascii	"stats_sys\000"
 6749      735F7379 
 6749      7300
 6750              	.LASF5:
 6751 0aed 756E7369 		.ascii	"unsigned char\000"
 6751      676E6564 
 6751      20636861 
 6751      7200
 6752              	.LASF219:
 6753 0afb 64687761 		.ascii	"dhwaddr\000"
 6753      64647200 
 6754              	.LASF39:
 6755 0b03 705F7265 		.ascii	"p_refs\000"
 6755      667300
 6756              	.LASF172:
 6757 0b0a 4D454D50 		.ascii	"MEMP_TCP_SEG\000"
 6757      5F544350 
 6757      5F534547 
 6757      00
 6758              	.LASF76:
 6759 0b17 70616E69 		.ascii	"panic_msg\000"
 6759      635F6D73 
 6759      6700
 6760              	.LASF149:
 6761 0b21 70627566 		.ascii	"pbuf\000"
 6761      00
 6762              	.LASF89:
 6763 0b26 73746B61 		.ascii	"stkalign_t\000"
 6763      6C69676E 
 6763      5F7400
 6764              	.LASF136:
 6765 0b31 61646472 		.ascii	"addr\000"
 6765      00
 6766              	.LASF186:
 6767 0b36 64726F70 		.ascii	"drop\000"
 6767      00
 6768              	.LASF160:
 6769 0b3b 73746174 		.ascii	"state\000"
 6769      6500
ARM GAS  C:\Users\Luis\AppData\Local\Temp\ccSH6HF5.s 			page 130


 6770              	.LASF66:
 6771 0b41 76745F6E 		.ascii	"vt_next\000"
 6771      65787400 
 6772              	.LASF264:
 6773 0b49 68776473 		.ascii	"hwdst_addr\000"
 6773      745F6164 
 6773      647200
 6774              	.LASF15:
 6775 0b54 75696E74 		.ascii	"uint64_t\000"
 6775      36345F74 
 6775      00
 6776              	.LASF253:
 6777 0b5d 6D636173 		.ascii	"mcastaddr\000"
 6777      74616464 
 6777      7200
 6778              	.LASF80:
 6779 0b67 63685F73 		.ascii	"ch_system_t\000"
 6779      79737465 
 6779      6D5F7400 
 6780              	.LASF235:
 6781 0b73 6167655F 		.ascii	"age_pending\000"
 6781      70656E64 
 6781      696E6700 
 6782              	.LASF116:
 6783 0b7f 77747472 		.ascii	"wttrp\000"
 6783      7000
 6784              	.LASF252:
 6785 0b85 65746861 		.ascii	"etharp_output\000"
 6785      72705F6F 
 6785      75747075 
 6785      7400
 6786              	.LASF185:
 6787 0b93 72656376 		.ascii	"recv\000"
 6787      00
 6788              	.LASF100:
 6789 0b98 63685F74 		.ascii	"ch_trace_buffer_t\000"
 6789      72616365 
 6789      5F627566 
 6789      6665725F 
 6789      7400
 6790              	.LASF126:
 6791 0baa 6D5F6E65 		.ascii	"m_next\000"
 6791      787400
 6792              	.LASF3:
 6793 0bb1 7369676E 		.ascii	"signed char\000"
 6793      65642063 
 6793      68617200 
 6794              	.LASF9:
 6795 0bbd 73686F72 		.ascii	"short unsigned int\000"
 6795      7420756E 
 6795      7369676E 
 6795      65642069 
 6795      6E7400
 6796              	.LASF59:
 6797 0bd0 725F6374 		.ascii	"r_ctx\000"
 6797      7800
 6798              	.LASF48:
ARM GAS  C:\Users\Luis\AppData\Local\Temp\ccSH6HF5.s 			page 131


 6799 0bd6 746C7350 		.ascii	"tlsPtr\000"
 6799      747200
 6800              	.LASF184:
 6801 0bdd 786D6974 		.ascii	"xmit\000"
 6801      00
 6802              	.LASF214:
 6803 0be2 68776C65 		.ascii	"hwlen\000"
 6803      6E00
 6804              	.LASF69:
 6805 0be8 76745F66 		.ascii	"vt_func\000"
 6805      756E6300 
 6806              	.LASF67:
 6807 0bf0 76745F70 		.ascii	"vt_prev\000"
 6807      72657600 
 6808              	.LASF137:
 6809 0bf8 69705F61 		.ascii	"ip_addr_t\000"
 6809      6464725F 
 6809      7400
 6810              	.LASF146:
 6811 0c02 50425546 		.ascii	"PBUF_ROM\000"
 6811      5F524F4D 
 6811      00
 6812              	.LASF251:
 6813 0c0b 65746861 		.ascii	"etharp_find_addr\000"
 6813      72705F66 
 6813      696E645F 
 6813      61646472 
 6813      00
 6814              	.LASF159:
 6815 0c1c 6C696E6B 		.ascii	"linkoutput\000"
 6815      6F757470 
 6815      757400
 6816              	.LASF210:
 6817 0c27 64657374 		.ascii	"dest\000"
 6817      00
 6818              	.LASF114:
 6819 0c2c 65786974 		.ascii	"exitcode\000"
 6819      636F6465 
 6819      00
 6820              	.LASF135:
 6821 0c35 69705F61 		.ascii	"ip_addr\000"
 6821      64647200 
 6822              	.LASF249:
 6823 0c3d 65746861 		.ascii	"etharp_output_to_arp_index\000"
 6823      72705F6F 
 6823      75747075 
 6823      745F746F 
 6823      5F617270 
 6824              		.ident	"GCC: (GNU Tools for ARM Embedded Processors) 4.8.3 20131129 (release) [ARM/embedded-4_8-br
ARM GAS  C:\Users\Luis\AppData\Local\Temp\ccSH6HF5.s 			page 132


DEFINED SYMBOLS
                            *ABS*:00000000 etharp.c
C:\Users\Luis\AppData\Local\Temp\ccSH6HF5.s:19     .text.osalSysHalt:00000000 $t
C:\Users\Luis\AppData\Local\Temp\ccSH6HF5.s:24     .text.osalSysHalt:00000000 osalSysHalt
C:\Users\Luis\AppData\Local\Temp\ccSH6HF5.s:56     .rodata.ethbroadcast:00000000 ethbroadcast
C:\Users\Luis\AppData\Local\Temp\ccSH6HF5.s:53     .rodata.ethbroadcast:00000000 $d
C:\Users\Luis\AppData\Local\Temp\ccSH6HF5.s:68     .rodata.ethzero:00000000 ethzero
C:\Users\Luis\AppData\Local\Temp\ccSH6HF5.s:65     .rodata.ethzero:00000000 $d
C:\Users\Luis\AppData\Local\Temp\ccSH6HF5.s:71     .bss.arp_table:00000000 $d
C:\Users\Luis\AppData\Local\Temp\ccSH6HF5.s:74     .bss.arp_table:00000000 arp_table
C:\Users\Luis\AppData\Local\Temp\ccSH6HF5.s:79     .bss.etharp_cached_entry:00000000 etharp_cached_entry
C:\Users\Luis\AppData\Local\Temp\ccSH6HF5.s:80     .bss.etharp_cached_entry:00000000 $d
C:\Users\Luis\AppData\Local\Temp\ccSH6HF5.s:82     .text.etharp_free_entry:00000000 $t
C:\Users\Luis\AppData\Local\Temp\ccSH6HF5.s:87     .text.etharp_free_entry:00000000 etharp_free_entry
C:\Users\Luis\AppData\Local\Temp\ccSH6HF5.s:155    .text.etharp_free_entry:00000060 $d
C:\Users\Luis\AppData\Local\Temp\ccSH6HF5.s:160    .text.etharp_tmr:00000000 $t
C:\Users\Luis\AppData\Local\Temp\ccSH6HF5.s:166    .text.etharp_tmr:00000000 etharp_tmr
C:\Users\Luis\AppData\Local\Temp\ccSH6HF5.s:309    .text.etharp_tmr:000000d8 $d
C:\Users\Luis\AppData\Local\Temp\ccSH6HF5.s:314    .rodata:00000000 $d
C:\Users\Luis\AppData\Local\Temp\ccSH6HF5.s:328    .text.etharp_find_entry:00000000 $t
C:\Users\Luis\AppData\Local\Temp\ccSH6HF5.s:333    .text.etharp_find_entry:00000000 etharp_find_entry
C:\Users\Luis\AppData\Local\Temp\ccSH6HF5.s:704    .text.etharp_find_entry:00000248 $d
C:\Users\Luis\AppData\Local\Temp\ccSH6HF5.s:718    .text.etharp_send_ip:00000000 $t
C:\Users\Luis\AppData\Local\Temp\ccSH6HF5.s:723    .text.etharp_send_ip:00000000 etharp_send_ip
C:\Users\Luis\AppData\Local\Temp\ccSH6HF5.s:790    .text.etharp_send_ip:00000060 $d
C:\Users\Luis\AppData\Local\Temp\ccSH6HF5.s:799    .text.etharp_update_arp_entry:00000000 $t
C:\Users\Luis\AppData\Local\Temp\ccSH6HF5.s:804    .text.etharp_update_arp_entry:00000000 etharp_update_arp_entry
C:\Users\Luis\AppData\Local\Temp\ccSH6HF5.s:983    .text.etharp_update_arp_entry:0000012c $d
C:\Users\Luis\AppData\Local\Temp\ccSH6HF5.s:989    .text.etharp_cleanup_netif:00000000 $t
C:\Users\Luis\AppData\Local\Temp\ccSH6HF5.s:995    .text.etharp_cleanup_netif:00000000 etharp_cleanup_netif
C:\Users\Luis\AppData\Local\Temp\ccSH6HF5.s:1067   .text.etharp_cleanup_netif:0000005c $d
C:\Users\Luis\AppData\Local\Temp\ccSH6HF5.s:1076   .text.etharp_find_addr:00000000 $t
C:\Users\Luis\AppData\Local\Temp\ccSH6HF5.s:1082   .text.etharp_find_addr:00000000 etharp_find_addr
C:\Users\Luis\AppData\Local\Temp\ccSH6HF5.s:1175   .text.etharp_find_addr:0000008c $d
C:\Users\Luis\AppData\Local\Temp\ccSH6HF5.s:1185   .text.etharp_arp_input:00000000 $t
C:\Users\Luis\AppData\Local\Temp\ccSH6HF5.s:1190   .text.etharp_arp_input:00000000 etharp_arp_input
C:\Users\Luis\AppData\Local\Temp\ccSH6HF5.s:1483   .text.etharp_arp_input:000001e0 $d
C:\Users\Luis\AppData\Local\Temp\ccSH6HF5.s:1494   .text.etharp_output_to_arp_index:00000000 $t
C:\Users\Luis\AppData\Local\Temp\ccSH6HF5.s:1499   .text.etharp_output_to_arp_index:00000000 etharp_output_to_arp_index
C:\Users\Luis\AppData\Local\Temp\ccSH6HF5.s:2528   .text.etharp_request:00000000 etharp_request
C:\Users\Luis\AppData\Local\Temp\ccSH6HF5.s:1614   .text.etharp_output_to_arp_index:000000b8 $d
C:\Users\Luis\AppData\Local\Temp\ccSH6HF5.s:1627   .text.etharp_output:00000000 $t
C:\Users\Luis\AppData\Local\Temp\ccSH6HF5.s:1633   .text.etharp_output:00000000 etharp_output
C:\Users\Luis\AppData\Local\Temp\ccSH6HF5.s:1939   .text.etharp_query:00000000 etharp_query
C:\Users\Luis\AppData\Local\Temp\ccSH6HF5.s:1915   .text.etharp_output:000001c0 $d
C:\Users\Luis\AppData\Local\Temp\ccSH6HF5.s:1933   .text.etharp_query:00000000 $t
C:\Users\Luis\AppData\Local\Temp\ccSH6HF5.s:2306   .text.etharp_query:00000268 $d
C:\Users\Luis\AppData\Local\Temp\ccSH6HF5.s:2320   .text.etharp_raw:00000000 $t
C:\Users\Luis\AppData\Local\Temp\ccSH6HF5.s:2325   .text.etharp_raw:00000000 etharp_raw
C:\Users\Luis\AppData\Local\Temp\ccSH6HF5.s:2514   .text.etharp_raw:00000138 $d
C:\Users\Luis\AppData\Local\Temp\ccSH6HF5.s:2522   .text.etharp_request:00000000 $t
C:\Users\Luis\AppData\Local\Temp\ccSH6HF5.s:2574   .text.etharp_request:0000003c $d
C:\Users\Luis\AppData\Local\Temp\ccSH6HF5.s:2584   .text.ethernet_input:00000000 $t
C:\Users\Luis\AppData\Local\Temp\ccSH6HF5.s:2590   .text.ethernet_input:00000000 ethernet_input
C:\Users\Luis\AppData\Local\Temp\ccSH6HF5.s:2788   .text.ethernet_input:00000130 $d
                     .debug_frame:00000010 $d
C:\Users\Luis\AppData\Local\Temp\ccSH6HF5.s:159    .text.etharp_free_entry:00000064 $t
ARM GAS  C:\Users\Luis\AppData\Local\Temp\ccSH6HF5.s 			page 133


C:\Users\Luis\AppData\Local\Temp\ccSH6HF5.s:313    .text.etharp_tmr:000000dc $t
C:\Users\Luis\AppData\Local\Temp\ccSH6HF5.s:712    .text.etharp_find_entry:0000025c $t
C:\Users\Luis\AppData\Local\Temp\ccSH6HF5.s:794    .text.etharp_send_ip:00000064 $t
C:\Users\Luis\AppData\Local\Temp\ccSH6HF5.s:988    .text.etharp_update_arp_entry:00000134 $t
C:\Users\Luis\AppData\Local\Temp\ccSH6HF5.s:1180   .text.etharp_find_addr:00000094 $t
C:\Users\Luis\AppData\Local\Temp\ccSH6HF5.s:6824   .text.etharp_arp_input:000001ec $t
C:\Users\Luis\AppData\Local\Temp\ccSH6HF5.s:1925   .text.etharp_output:000001dc $t
C:\Users\Luis\AppData\Local\Temp\ccSH6HF5.s:2521   .text.etharp_raw:00000148 $t
C:\Users\Luis\AppData\Local\Temp\ccSH6HF5.s:2579   .text.etharp_request:00000044 $t
C:\Users\Luis\AppData\Local\Temp\ccSH6HF5.s:2794   .text.ethernet_input:0000013c $t

UNDEFINED SYMBOLS
chSysHalt
pbuf_free
memcpy
ip4_addr_isbroadcast
lwip_htons
lwip_stats
pbuf_header
pbuf_alloc
pbuf_copy
pbuf_ref
memcmp
ip_input
