ARM GAS  C:\Users\Luis\AppData\Local\Temp\ccSH6HF5.s 			page 1


   1              		.syntax unified
   2              		.cpu cortex-m4
   3              		.fpu softvfp
   4              		.eabi_attribute 20, 1
   5              		.eabi_attribute 21, 1
   6              		.eabi_attribute 23, 3
   7              		.eabi_attribute 24, 1
   8              		.eabi_attribute 25, 1
   9              		.eabi_attribute 26, 1
  10              		.eabi_attribute 30, 6
  11              		.eabi_attribute 34, 1
  12              		.eabi_attribute 18, 4
  13              		.thumb
  14              		.file	"etharp.c"
  15              		.text
  16              	.Ltext0:
  17              		.cfi_sections	.debug_frame
  18              		.section	.text.osalSysHalt,"ax",%progbits
  19              		.align	2
  20              		.p2align 4,,15
  21              		.thumb
  22              		.thumb_func
  23              		.type	osalSysHalt, %function
  24              	osalSysHalt:
  25              	.LFB230:
  26              		.file 1 "../../ChibiOS/os/hal/osal/rt/osal.h"
  27              		.loc 1 460 0
  28              		.cfi_startproc
  29              		@ args = 0, pretend = 0, frame = 8
  30              		@ frame_needed = 1, uses_anonymous_args = 0
  31 0000 80B5     		push	{r7, lr}
  32              		.cfi_def_cfa_offset 8
  33              		.cfi_offset 7, -8
  34              		.cfi_offset 14, -4
  35 0002 82B0     		sub	sp, sp, #8
  36              		.cfi_def_cfa_offset 16
  37 0004 00AF     		add	r7, sp, #0
  38              		.cfi_def_cfa_register 7
  39 0006 7860     		str	r0, [r7, #4]
  40              		.loc 1 462 0
  41 0008 7868     		ldr	r0, [r7, #4]
  42 000a FFF7FEFF 		bl	chSysHalt
  43              		.loc 1 463 0
  44 000e 0837     		adds	r7, r7, #8
  45 0010 BD46     		mov	sp, r7
  46              		@ sp needed
  47 0012 80BD     		pop	{r7, pc}
  48              		.cfi_endproc
  49              	.LFE230:
  50              		.size	osalSysHalt, .-osalSysHalt
  51              		.global	ethbroadcast
  52 0014 AFF30080 		.section	.rodata.ethbroadcast,"a",%progbits
  52      AFF30080 
  52      AFF30080 
  53              		.align	2
  54              		.type	ethbroadcast, %object
  55              		.size	ethbroadcast, 6
ARM GAS  C:\Users\Luis\AppData\Local\Temp\ccSH6HF5.s 			page 2


  56              	ethbroadcast:
  57 0000 FF       		.byte	-1
  58 0001 FF       		.byte	-1
  59 0002 FF       		.byte	-1
  60 0003 FF       		.byte	-1
  61 0004 FF       		.byte	-1
  62 0005 FF       		.byte	-1
  63              		.global	ethzero
  64 0006 0000     		.section	.rodata.ethzero,"a",%progbits
  65              		.align	2
  66              		.type	ethzero, %object
  67              		.size	ethzero, 6
  68              	ethzero:
  69 0000 00000000 		.space	6
  69      0000
  70 0006 0000     		.section	.bss.arp_table,"aw",%nobits
  71              		.align	2
  72              		.type	arp_table, %object
  73              		.size	arp_table, 200
  74              	arp_table:
  75 0000 00000000 		.space	200
  75      00000000 
  75      00000000 
  75      00000000 
  75      00000000 
  76              		.section	.bss.etharp_cached_entry,"aw",%nobits
  77              		.type	etharp_cached_entry, %object
  78              		.size	etharp_cached_entry, 1
  79              	etharp_cached_entry:
  80 0000 00       		.space	1
  81              		.section	.text.etharp_free_entry,"ax",%progbits
  82              		.align	2
  83              		.p2align 4,,15
  84              		.thumb
  85              		.thumb_func
  86              		.type	etharp_free_entry, %function
  87              	etharp_free_entry:
  88              	.LFB260:
  89              		.file 2 "../../ChibiOS/ext/lwip/src/netif/etharp.c"
  90              		.loc 2 178 0
  91              		.cfi_startproc
  92              		@ args = 0, pretend = 0, frame = 8
  93              		@ frame_needed = 1, uses_anonymous_args = 0
  94 0000 80B5     		push	{r7, lr}
  95              		.cfi_def_cfa_offset 8
  96              		.cfi_offset 7, -8
  97              		.cfi_offset 14, -4
  98 0002 82B0     		sub	sp, sp, #8
  99              		.cfi_def_cfa_offset 16
 100 0004 00AF     		add	r7, sp, #0
 101              		.cfi_def_cfa_register 7
 102 0006 7860     		str	r0, [r7, #4]
 103              		.loc 2 182 0
 104 0008 1549     		ldr	r1, .L4
 105 000a 7A68     		ldr	r2, [r7, #4]
 106 000c 1346     		mov	r3, r2
 107 000e 9B00     		lsls	r3, r3, #2
ARM GAS  C:\Users\Luis\AppData\Local\Temp\ccSH6HF5.s 			page 3


 108 0010 1344     		add	r3, r3, r2
 109 0012 9B00     		lsls	r3, r3, #2
 110 0014 0B44     		add	r3, r3, r1
 111 0016 1B68     		ldr	r3, [r3]
 112 0018 002B     		cmp	r3, #0
 113 001a 13D0     		beq	.L3
 114              		.loc 2 185 0
 115 001c 1049     		ldr	r1, .L4
 116 001e 7A68     		ldr	r2, [r7, #4]
 117 0020 1346     		mov	r3, r2
 118 0022 9B00     		lsls	r3, r3, #2
 119 0024 1344     		add	r3, r3, r2
 120 0026 9B00     		lsls	r3, r3, #2
 121 0028 0B44     		add	r3, r3, r1
 122 002a 1B68     		ldr	r3, [r3]
 123 002c 1846     		mov	r0, r3
 124 002e FFF7FEFF 		bl	pbuf_free
 125              		.loc 2 186 0
 126 0032 0B49     		ldr	r1, .L4
 127 0034 7A68     		ldr	r2, [r7, #4]
 128 0036 1346     		mov	r3, r2
 129 0038 9B00     		lsls	r3, r3, #2
 130 003a 1344     		add	r3, r3, r2
 131 003c 9B00     		lsls	r3, r3, #2
 132 003e 0B44     		add	r3, r3, r1
 133 0040 0022     		movs	r2, #0
 134 0042 1A60     		str	r2, [r3]
 135              	.L3:
 136              		.loc 2 189 0
 137 0044 0649     		ldr	r1, .L4
 138 0046 7A68     		ldr	r2, [r7, #4]
 139 0048 1346     		mov	r3, r2
 140 004a 9B00     		lsls	r3, r3, #2
 141 004c 1344     		add	r3, r3, r2
 142 004e 9B00     		lsls	r3, r3, #2
 143 0050 0B44     		add	r3, r3, r1
 144 0052 1033     		adds	r3, r3, #16
 145 0054 0022     		movs	r2, #0
 146 0056 9A70     		strb	r2, [r3, #2]
 147              		.loc 2 197 0
 148 0058 0837     		adds	r7, r7, #8
 149 005a BD46     		mov	sp, r7
 150              		@ sp needed
 151 005c 80BD     		pop	{r7, pc}
 152              	.L5:
 153 005e 00BF     		.align	2
 154              	.L4:
 155 0060 00000000 		.word	arp_table
 156              		.cfi_endproc
 157              	.LFE260:
 158              		.size	etharp_free_entry, .-etharp_free_entry
 159 0064 AFF30080 		.section	.text.etharp_tmr,"ax",%progbits
 159      AFF30080 
 159      AFF30080 
 160              		.align	2
 161              		.p2align 4,,15
 162              		.global	etharp_tmr
ARM GAS  C:\Users\Luis\AppData\Local\Temp\ccSH6HF5.s 			page 4


 163              		.thumb
 164              		.thumb_func
 165              		.type	etharp_tmr, %function
 166              	etharp_tmr:
 167              	.LFB261:
 168              		.loc 2 207 0
 169              		.cfi_startproc
 170              		@ args = 0, pretend = 0, frame = 8
 171              		@ frame_needed = 1, uses_anonymous_args = 0
 172 0000 80B5     		push	{r7, lr}
 173              		.cfi_def_cfa_offset 8
 174              		.cfi_offset 7, -8
 175              		.cfi_offset 14, -4
 176 0002 82B0     		sub	sp, sp, #8
 177              		.cfi_def_cfa_offset 16
 178 0004 00AF     		add	r7, sp, #0
 179              		.cfi_def_cfa_register 7
 180              		.loc 2 212 0
 181 0006 0023     		movs	r3, #0
 182 0008 FB71     		strb	r3, [r7, #7]
 183 000a 5EE0     		b	.L7
 184              	.L11:
 185              	.LBB2:
 186              		.loc 2 213 0
 187 000c FA79     		ldrb	r2, [r7, #7]	@ zero_extendqisi2
 188 000e 3249     		ldr	r1, .L12
 189 0010 1346     		mov	r3, r2
 190 0012 9B00     		lsls	r3, r3, #2
 191 0014 1344     		add	r3, r3, r2
 192 0016 9B00     		lsls	r3, r3, #2
 193 0018 0B44     		add	r3, r3, r1
 194 001a 1033     		adds	r3, r3, #16
 195 001c 9B78     		ldrb	r3, [r3, #2]
 196 001e BB71     		strb	r3, [r7, #6]
 197              		.loc 2 214 0
 198 0020 BB79     		ldrb	r3, [r7, #6]	@ zero_extendqisi2
 199 0022 002B     		cmp	r3, #0
 200 0024 4ED0     		beq	.L8
 201              		.loc 2 219 0
 202 0026 FA79     		ldrb	r2, [r7, #7]	@ zero_extendqisi2
 203 0028 2B49     		ldr	r1, .L12
 204 002a 1346     		mov	r3, r2
 205 002c 9B00     		lsls	r3, r3, #2
 206 002e 1344     		add	r3, r3, r2
 207 0030 9B00     		lsls	r3, r3, #2
 208 0032 0B44     		add	r3, r3, r1
 209 0034 1033     		adds	r3, r3, #16
 210 0036 DB78     		ldrb	r3, [r3, #3]	@ zero_extendqisi2
 211 0038 0133     		adds	r3, r3, #1
 212 003a D9B2     		uxtb	r1, r3
 213 003c 2648     		ldr	r0, .L12
 214 003e 1346     		mov	r3, r2
 215 0040 9B00     		lsls	r3, r3, #2
 216 0042 1344     		add	r3, r3, r2
 217 0044 9B00     		lsls	r3, r3, #2
 218 0046 0344     		add	r3, r3, r0
 219 0048 1033     		adds	r3, r3, #16
ARM GAS  C:\Users\Luis\AppData\Local\Temp\ccSH6HF5.s 			page 5


 220 004a 0A46     		mov	r2, r1
 221 004c DA70     		strb	r2, [r3, #3]
 222              		.loc 2 220 0
 223 004e FA79     		ldrb	r2, [r7, #7]	@ zero_extendqisi2
 224 0050 2149     		ldr	r1, .L12
 225 0052 1346     		mov	r3, r2
 226 0054 9B00     		lsls	r3, r3, #2
 227 0056 1344     		add	r3, r3, r2
 228 0058 9B00     		lsls	r3, r3, #2
 229 005a 0B44     		add	r3, r3, r1
 230 005c 1033     		adds	r3, r3, #16
 231 005e DB78     		ldrb	r3, [r3, #3]	@ zero_extendqisi2
 232 0060 EF2B     		cmp	r3, #239
 233 0062 15D8     		bhi	.L9
 234              		.loc 2 221 0 discriminator 1
 235 0064 FA79     		ldrb	r2, [r7, #7]	@ zero_extendqisi2
 236 0066 1C49     		ldr	r1, .L12
 237 0068 1346     		mov	r3, r2
 238 006a 9B00     		lsls	r3, r3, #2
 239 006c 1344     		add	r3, r3, r2
 240 006e 9B00     		lsls	r3, r3, #2
 241 0070 0B44     		add	r3, r3, r1
 242 0072 1033     		adds	r3, r3, #16
 243 0074 9B78     		ldrb	r3, [r3, #2]	@ zero_extendqisi2
 244              		.loc 2 220 0 discriminator 1
 245 0076 012B     		cmp	r3, #1
 246 0078 0FD1     		bne	.L10
 247              		.loc 2 222 0
 248 007a FA79     		ldrb	r2, [r7, #7]	@ zero_extendqisi2
 249 007c 1649     		ldr	r1, .L12
 250 007e 1346     		mov	r3, r2
 251 0080 9B00     		lsls	r3, r3, #2
 252 0082 1344     		add	r3, r3, r2
 253 0084 9B00     		lsls	r3, r3, #2
 254 0086 0B44     		add	r3, r3, r1
 255 0088 1033     		adds	r3, r3, #16
 256 008a DB78     		ldrb	r3, [r3, #3]	@ zero_extendqisi2
 257              		.loc 2 221 0
 258 008c 012B     		cmp	r3, #1
 259 008e 04D9     		bls	.L10
 260              	.L9:
 261              		.loc 2 227 0
 262 0090 FB79     		ldrb	r3, [r7, #7]	@ zero_extendqisi2
 263 0092 1846     		mov	r0, r3
 264 0094 FFF7FEFF 		bl	etharp_free_entry
 265 0098 14E0     		b	.L8
 266              	.L10:
 267              		.loc 2 229 0
 268 009a FA79     		ldrb	r2, [r7, #7]	@ zero_extendqisi2
 269 009c 0E49     		ldr	r1, .L12
 270 009e 1346     		mov	r3, r2
 271 00a0 9B00     		lsls	r3, r3, #2
 272 00a2 1344     		add	r3, r3, r2
 273 00a4 9B00     		lsls	r3, r3, #2
 274 00a6 0B44     		add	r3, r3, r1
 275 00a8 1033     		adds	r3, r3, #16
 276 00aa 9B78     		ldrb	r3, [r3, #2]	@ zero_extendqisi2
ARM GAS  C:\Users\Luis\AppData\Local\Temp\ccSH6HF5.s 			page 6


 277 00ac 032B     		cmp	r3, #3
 278 00ae 09D1     		bne	.L8
 279              		.loc 2 232 0
 280 00b0 FA79     		ldrb	r2, [r7, #7]	@ zero_extendqisi2
 281 00b2 0949     		ldr	r1, .L12
 282 00b4 1346     		mov	r3, r2
 283 00b6 9B00     		lsls	r3, r3, #2
 284 00b8 1344     		add	r3, r3, r2
 285 00ba 9B00     		lsls	r3, r3, #2
 286 00bc 0B44     		add	r3, r3, r1
 287 00be 1033     		adds	r3, r3, #16
 288 00c0 0222     		movs	r2, #2
 289 00c2 9A70     		strb	r2, [r3, #2]
 290              	.L8:
 291              	.LBE2:
 292              		.loc 2 212 0
 293 00c4 FB79     		ldrb	r3, [r7, #7]
 294 00c6 0133     		adds	r3, r3, #1
 295 00c8 FB71     		strb	r3, [r7, #7]
 296              	.L7:
 297              		.loc 2 212 0 is_stmt 0 discriminator 1
 298 00ca FB79     		ldrb	r3, [r7, #7]	@ zero_extendqisi2
 299 00cc 092B     		cmp	r3, #9
 300 00ce 9DD9     		bls	.L11
 301              		.loc 2 242 0 is_stmt 1
 302 00d0 0837     		adds	r7, r7, #8
 303 00d2 BD46     		mov	sp, r7
 304              		@ sp needed
 305 00d4 80BD     		pop	{r7, pc}
 306              	.L13:
 307 00d6 00BF     		.align	2
 308              	.L12:
 309 00d8 00000000 		.word	arp_table
 310              		.cfi_endproc
 311              	.LFE261:
 312              		.size	etharp_tmr, .-etharp_tmr
 313 00dc AFF30080 		.section	.rodata
 314              		.align	2
 315              	.LC0:
 316 0000 73746174 		.ascii	"state == ETHARP_STATE_PENDING || state >= ETHARP_ST"
 316      65203D3D 
 316      20455448 
 316      4152505F 
 316      53544154 
 317 0033 4154455F 		.ascii	"ATE_STABLE\000"
 317      53544142 
 317      4C4500
 318 003e 0000     		.align	2
 319              	.LC1:
 320 0040 6172705F 		.ascii	"arp_table[i].q == NULL\000"
 320      7461626C 
 320      655B695D 
 320      2E71203D 
 320      3D204E55 
 321 0057 00       		.align	2
 322              	.LC2:
 323 0058 69203C20 		.ascii	"i < ARP_TABLE_SIZE\000"
ARM GAS  C:\Users\Luis\AppData\Local\Temp\ccSH6HF5.s 			page 7


 323      4152505F 
 323      5441424C 
 323      455F5349 
 323      5A4500
 324 006b 00       		.align	2
 325              	.LC3:
 326 006c 6172705F 		.ascii	"arp_table[i].state == ETHARP_STATE_EMPTY\000"
 326      7461626C 
 326      655B695D 
 326      2E737461 
 326      7465203D 
 327              		.section	.text.etharp_find_entry,"ax",%progbits
 328              		.align	2
 329              		.p2align 4,,15
 330              		.thumb
 331              		.thumb_func
 332              		.type	etharp_find_entry, %function
 333              	etharp_find_entry:
 334              	.LFB262:
 335              		.loc 2 267 0
 336              		.cfi_startproc
 337              		@ args = 0, pretend = 0, frame = 24
 338              		@ frame_needed = 1, uses_anonymous_args = 0
 339 0000 80B5     		push	{r7, lr}
 340              		.cfi_def_cfa_offset 8
 341              		.cfi_offset 7, -8
 342              		.cfi_offset 14, -4
 343 0002 86B0     		sub	sp, sp, #24
 344              		.cfi_def_cfa_offset 32
 345 0004 00AF     		add	r7, sp, #0
 346              		.cfi_def_cfa_register 7
 347 0006 7860     		str	r0, [r7, #4]
 348 0008 0B46     		mov	r3, r1
 349 000a FB70     		strb	r3, [r7, #3]
 350              		.loc 2 268 0
 351 000c 0A23     		movs	r3, #10
 352 000e FB75     		strb	r3, [r7, #23]
 353 0010 0A23     		movs	r3, #10
 354 0012 BB75     		strb	r3, [r7, #22]
 355              		.loc 2 269 0
 356 0014 0A23     		movs	r3, #10
 357 0016 7B75     		strb	r3, [r7, #21]
 358              		.loc 2 270 0
 359 0018 0023     		movs	r3, #0
 360 001a 3B75     		strb	r3, [r7, #20]
 361 001c 0023     		movs	r3, #0
 362 001e FB74     		strb	r3, [r7, #19]
 363 0020 0023     		movs	r3, #0
 364 0022 BB74     		strb	r3, [r7, #18]
 365              		.loc 2 272 0
 366 0024 0A23     		movs	r3, #10
 367 0026 7B74     		strb	r3, [r7, #17]
 368              		.loc 2 274 0
 369 0028 0023     		movs	r3, #0
 370 002a 3B74     		strb	r3, [r7, #16]
 371              		.loc 2 291 0
 372 002c 0023     		movs	r3, #0
ARM GAS  C:\Users\Luis\AppData\Local\Temp\ccSH6HF5.s 			page 8


 373 002e 3B75     		strb	r3, [r7, #20]
 374 0030 8EE0     		b	.L15
 375              	.L25:
 376              	.LBB3:
 377              		.loc 2 292 0
 378 0032 3A7D     		ldrb	r2, [r7, #20]	@ zero_extendqisi2
 379 0034 8449     		ldr	r1, .L39
 380 0036 1346     		mov	r3, r2
 381 0038 9B00     		lsls	r3, r3, #2
 382 003a 1344     		add	r3, r3, r2
 383 003c 9B00     		lsls	r3, r3, #2
 384 003e 0B44     		add	r3, r3, r1
 385 0040 1033     		adds	r3, r3, #16
 386 0042 9B78     		ldrb	r3, [r3, #2]
 387 0044 FB73     		strb	r3, [r7, #15]
 388              		.loc 2 294 0
 389 0046 97F91530 		ldrsb	r3, [r7, #21]
 390 004a 0A2B     		cmp	r3, #10
 391 004c 05D1     		bne	.L16
 392              		.loc 2 294 0 is_stmt 0 discriminator 1
 393 004e FB7B     		ldrb	r3, [r7, #15]	@ zero_extendqisi2
 394 0050 002B     		cmp	r3, #0
 395 0052 02D1     		bne	.L16
 396              		.loc 2 297 0 is_stmt 1
 397 0054 3B7D     		ldrb	r3, [r7, #20]
 398 0056 7B75     		strb	r3, [r7, #21]
 399 0058 77E0     		b	.L17
 400              	.L16:
 401              		.loc 2 298 0
 402 005a FB7B     		ldrb	r3, [r7, #15]	@ zero_extendqisi2
 403 005c 002B     		cmp	r3, #0
 404 005e 74D0     		beq	.L17
 405              		.loc 2 299 0
 406 0060 FB7B     		ldrb	r3, [r7, #15]	@ zero_extendqisi2
 407 0062 012B     		cmp	r3, #1
 408 0064 05D0     		beq	.L18
 409              		.loc 2 299 0 is_stmt 0 discriminator 1
 410 0066 FB7B     		ldrb	r3, [r7, #15]	@ zero_extendqisi2
 411 0068 012B     		cmp	r3, #1
 412 006a 02D8     		bhi	.L18
 413 006c 7748     		ldr	r0, .L39+4
 414 006e FFF7FEFF 		bl	osalSysHalt
 415              	.L18:
 416              		.loc 2 302 0 is_stmt 1
 417 0072 7B68     		ldr	r3, [r7, #4]
 418 0074 002B     		cmp	r3, #0
 419 0076 0ED0     		beq	.L19
 420              		.loc 2 302 0 is_stmt 0 discriminator 1
 421 0078 7B68     		ldr	r3, [r7, #4]
 422 007a 1968     		ldr	r1, [r3]
 423 007c 3A7D     		ldrb	r2, [r7, #20]	@ zero_extendqisi2
 424 007e 7248     		ldr	r0, .L39
 425 0080 1346     		mov	r3, r2
 426 0082 9B00     		lsls	r3, r3, #2
 427 0084 1344     		add	r3, r3, r2
 428 0086 9B00     		lsls	r3, r3, #2
 429 0088 0344     		add	r3, r3, r0
ARM GAS  C:\Users\Luis\AppData\Local\Temp\ccSH6HF5.s 			page 9


 430 008a 0433     		adds	r3, r3, #4
 431 008c 1B68     		ldr	r3, [r3]
 432 008e 9942     		cmp	r1, r3
 433 0090 01D1     		bne	.L19
 434              		.loc 2 305 0 is_stmt 1
 435 0092 3B7D     		ldrb	r3, [r7, #20]	@ zero_extendqisi2
 436 0094 D2E0     		b	.L20
 437              	.L19:
 438              		.loc 2 308 0
 439 0096 FB7B     		ldrb	r3, [r7, #15]	@ zero_extendqisi2
 440 0098 012B     		cmp	r3, #1
 441 009a 3BD1     		bne	.L21
 442              		.loc 2 310 0
 443 009c 3A7D     		ldrb	r2, [r7, #20]	@ zero_extendqisi2
 444 009e 6A49     		ldr	r1, .L39
 445 00a0 1346     		mov	r3, r2
 446 00a2 9B00     		lsls	r3, r3, #2
 447 00a4 1344     		add	r3, r3, r2
 448 00a6 9B00     		lsls	r3, r3, #2
 449 00a8 0B44     		add	r3, r3, r1
 450 00aa 1B68     		ldr	r3, [r3]
 451 00ac 002B     		cmp	r3, #0
 452 00ae 18D0     		beq	.L22
 453              		.loc 2 311 0
 454 00b0 3A7D     		ldrb	r2, [r7, #20]	@ zero_extendqisi2
 455 00b2 6549     		ldr	r1, .L39
 456 00b4 1346     		mov	r3, r2
 457 00b6 9B00     		lsls	r3, r3, #2
 458 00b8 1344     		add	r3, r3, r2
 459 00ba 9B00     		lsls	r3, r3, #2
 460 00bc 0B44     		add	r3, r3, r1
 461 00be 1033     		adds	r3, r3, #16
 462 00c0 DB78     		ldrb	r3, [r3, #3]	@ zero_extendqisi2
 463 00c2 3A7C     		ldrb	r2, [r7, #16]	@ zero_extendqisi2
 464 00c4 9A42     		cmp	r2, r3
 465 00c6 40D8     		bhi	.L17
 466              		.loc 2 312 0
 467 00c8 3B7D     		ldrb	r3, [r7, #20]
 468 00ca 7B74     		strb	r3, [r7, #17]
 469              		.loc 2 313 0
 470 00cc 3A7D     		ldrb	r2, [r7, #20]	@ zero_extendqisi2
 471 00ce 5E49     		ldr	r1, .L39
 472 00d0 1346     		mov	r3, r2
 473 00d2 9B00     		lsls	r3, r3, #2
 474 00d4 1344     		add	r3, r3, r2
 475 00d6 9B00     		lsls	r3, r3, #2
 476 00d8 0B44     		add	r3, r3, r1
 477 00da 1033     		adds	r3, r3, #16
 478 00dc DB78     		ldrb	r3, [r3, #3]
 479 00de 3B74     		strb	r3, [r7, #16]
 480 00e0 33E0     		b	.L17
 481              	.L22:
 482              		.loc 2 318 0
 483 00e2 3A7D     		ldrb	r2, [r7, #20]	@ zero_extendqisi2
 484 00e4 5849     		ldr	r1, .L39
 485 00e6 1346     		mov	r3, r2
 486 00e8 9B00     		lsls	r3, r3, #2
ARM GAS  C:\Users\Luis\AppData\Local\Temp\ccSH6HF5.s 			page 10


 487 00ea 1344     		add	r3, r3, r2
 488 00ec 9B00     		lsls	r3, r3, #2
 489 00ee 0B44     		add	r3, r3, r1
 490 00f0 1033     		adds	r3, r3, #16
 491 00f2 DB78     		ldrb	r3, [r3, #3]	@ zero_extendqisi2
 492 00f4 FA7C     		ldrb	r2, [r7, #19]	@ zero_extendqisi2
 493 00f6 9A42     		cmp	r2, r3
 494 00f8 27D8     		bhi	.L17
 495              		.loc 2 319 0
 496 00fa 3B7D     		ldrb	r3, [r7, #20]
 497 00fc FB75     		strb	r3, [r7, #23]
 498              		.loc 2 320 0
 499 00fe 3A7D     		ldrb	r2, [r7, #20]	@ zero_extendqisi2
 500 0100 5149     		ldr	r1, .L39
 501 0102 1346     		mov	r3, r2
 502 0104 9B00     		lsls	r3, r3, #2
 503 0106 1344     		add	r3, r3, r2
 504 0108 9B00     		lsls	r3, r3, #2
 505 010a 0B44     		add	r3, r3, r1
 506 010c 1033     		adds	r3, r3, #16
 507 010e DB78     		ldrb	r3, [r3, #3]
 508 0110 FB74     		strb	r3, [r7, #19]
 509 0112 1AE0     		b	.L17
 510              	.L21:
 511              		.loc 2 324 0
 512 0114 FB7B     		ldrb	r3, [r7, #15]	@ zero_extendqisi2
 513 0116 012B     		cmp	r3, #1
 514 0118 17D9     		bls	.L17
 515              		.loc 2 331 0
 516 011a 3A7D     		ldrb	r2, [r7, #20]	@ zero_extendqisi2
 517 011c 4A49     		ldr	r1, .L39
 518 011e 1346     		mov	r3, r2
 519 0120 9B00     		lsls	r3, r3, #2
 520 0122 1344     		add	r3, r3, r2
 521 0124 9B00     		lsls	r3, r3, #2
 522 0126 0B44     		add	r3, r3, r1
 523 0128 1033     		adds	r3, r3, #16
 524 012a DB78     		ldrb	r3, [r3, #3]	@ zero_extendqisi2
 525 012c BA7C     		ldrb	r2, [r7, #18]	@ zero_extendqisi2
 526 012e 9A42     		cmp	r2, r3
 527 0130 0BD8     		bhi	.L17
 528              		.loc 2 332 0
 529 0132 3B7D     		ldrb	r3, [r7, #20]
 530 0134 BB75     		strb	r3, [r7, #22]
 531              		.loc 2 333 0
 532 0136 3A7D     		ldrb	r2, [r7, #20]	@ zero_extendqisi2
 533 0138 4349     		ldr	r1, .L39
 534 013a 1346     		mov	r3, r2
 535 013c 9B00     		lsls	r3, r3, #2
 536 013e 1344     		add	r3, r3, r2
 537 0140 9B00     		lsls	r3, r3, #2
 538 0142 0B44     		add	r3, r3, r1
 539 0144 1033     		adds	r3, r3, #16
 540 0146 DB78     		ldrb	r3, [r3, #3]
 541 0148 BB74     		strb	r3, [r7, #18]
 542              	.L17:
 543              	.LBE3:
ARM GAS  C:\Users\Luis\AppData\Local\Temp\ccSH6HF5.s 			page 11


 544              		.loc 2 291 0
 545 014a 3B7D     		ldrb	r3, [r7, #20]
 546 014c 0133     		adds	r3, r3, #1
 547 014e 3B75     		strb	r3, [r7, #20]
 548              	.L15:
 549              		.loc 2 291 0 is_stmt 0 discriminator 1
 550 0150 3B7D     		ldrb	r3, [r7, #20]	@ zero_extendqisi2
 551 0152 092B     		cmp	r3, #9
 552 0154 7FF66DAF 		bls	.L25
 553              		.loc 2 342 0 is_stmt 1
 554 0158 FB78     		ldrb	r3, [r7, #3]	@ zero_extendqisi2
 555 015a 03F00203 		and	r3, r3, #2
 556 015e 002B     		cmp	r3, #0
 557 0160 08D1     		bne	.L26
 558              		.loc 2 342 0 is_stmt 0 discriminator 1
 559 0162 97F91530 		ldrsb	r3, [r7, #21]
 560 0166 0A2B     		cmp	r3, #10
 561 0168 06D1     		bne	.L27
 562              		.loc 2 344 0 is_stmt 1
 563 016a FB78     		ldrb	r3, [r7, #3]	@ zero_extendqisi2
 564 016c 03F00103 		and	r3, r3, #1
 565 0170 002B     		cmp	r3, #0
 566 0172 01D1     		bne	.L27
 567              	.L26:
 568              		.loc 2 346 0
 569 0174 FF23     		movs	r3, #255
 570 0176 61E0     		b	.L20
 571              	.L27:
 572              		.loc 2 359 0
 573 0178 97F91530 		ldrsb	r3, [r7, #21]
 574 017c 092B     		cmp	r3, #9
 575 017e 02DC     		bgt	.L28
 576              		.loc 2 360 0
 577 0180 7B7D     		ldrb	r3, [r7, #21]
 578 0182 3B75     		strb	r3, [r7, #20]
 579 0184 2DE0     		b	.L29
 580              	.L28:
 581              		.loc 2 364 0
 582 0186 97F91630 		ldrsb	r3, [r7, #22]
 583 018a 092B     		cmp	r3, #9
 584 018c 0FDC     		bgt	.L30
 585              		.loc 2 366 0
 586 018e BB7D     		ldrb	r3, [r7, #22]
 587 0190 3B75     		strb	r3, [r7, #20]
 588              		.loc 2 369 0
 589 0192 3A7D     		ldrb	r2, [r7, #20]	@ zero_extendqisi2
 590 0194 2C49     		ldr	r1, .L39
 591 0196 1346     		mov	r3, r2
 592 0198 9B00     		lsls	r3, r3, #2
 593 019a 1344     		add	r3, r3, r2
 594 019c 9B00     		lsls	r3, r3, #2
 595 019e 0B44     		add	r3, r3, r1
 596 01a0 1B68     		ldr	r3, [r3]
 597 01a2 002B     		cmp	r3, #0
 598 01a4 13D0     		beq	.L32
 599              		.loc 2 369 0 is_stmt 0 discriminator 1
 600 01a6 2A48     		ldr	r0, .L39+8
ARM GAS  C:\Users\Luis\AppData\Local\Temp\ccSH6HF5.s 			page 12


 601 01a8 FFF7FEFF 		bl	osalSysHalt
 602 01ac 0FE0     		b	.L32
 603              	.L30:
 604              		.loc 2 371 0 is_stmt 1
 605 01ae 97F91730 		ldrsb	r3, [r7, #23]
 606 01b2 092B     		cmp	r3, #9
 607 01b4 02DC     		bgt	.L33
 608              		.loc 2 373 0
 609 01b6 FB7D     		ldrb	r3, [r7, #23]
 610 01b8 3B75     		strb	r3, [r7, #20]
 611 01ba 08E0     		b	.L32
 612              	.L33:
 613              		.loc 2 376 0
 614 01bc 97F91130 		ldrsb	r3, [r7, #17]
 615 01c0 092B     		cmp	r3, #9
 616 01c2 02DC     		bgt	.L34
 617              		.loc 2 378 0
 618 01c4 7B7C     		ldrb	r3, [r7, #17]
 619 01c6 3B75     		strb	r3, [r7, #20]
 620 01c8 01E0     		b	.L32
 621              	.L34:
 622              		.loc 2 383 0
 623 01ca FF23     		movs	r3, #255
 624 01cc 36E0     		b	.L20
 625              	.L32:
 626              		.loc 2 387 0
 627 01ce 3B7D     		ldrb	r3, [r7, #20]	@ zero_extendqisi2
 628 01d0 092B     		cmp	r3, #9
 629 01d2 02D9     		bls	.L35
 630              		.loc 2 387 0 is_stmt 0 discriminator 1
 631 01d4 1F48     		ldr	r0, .L39+12
 632 01d6 FFF7FEFF 		bl	osalSysHalt
 633              	.L35:
 634              		.loc 2 388 0 is_stmt 1
 635 01da 3B7D     		ldrb	r3, [r7, #20]	@ zero_extendqisi2
 636 01dc 1846     		mov	r0, r3
 637 01de FFF7FEFF 		bl	etharp_free_entry
 638              	.L29:
 639              		.loc 2 391 0
 640 01e2 3B7D     		ldrb	r3, [r7, #20]	@ zero_extendqisi2
 641 01e4 092B     		cmp	r3, #9
 642 01e6 02D9     		bls	.L36
 643              		.loc 2 391 0 is_stmt 0 discriminator 1
 644 01e8 1A48     		ldr	r0, .L39+12
 645 01ea FFF7FEFF 		bl	osalSysHalt
 646              	.L36:
 647              		.loc 2 392 0 is_stmt 1
 648 01ee 3A7D     		ldrb	r2, [r7, #20]	@ zero_extendqisi2
 649 01f0 1549     		ldr	r1, .L39
 650 01f2 1346     		mov	r3, r2
 651 01f4 9B00     		lsls	r3, r3, #2
 652 01f6 1344     		add	r3, r3, r2
 653 01f8 9B00     		lsls	r3, r3, #2
 654 01fa 0B44     		add	r3, r3, r1
 655 01fc 1033     		adds	r3, r3, #16
 656 01fe 9B78     		ldrb	r3, [r3, #2]	@ zero_extendqisi2
 657 0200 002B     		cmp	r3, #0
ARM GAS  C:\Users\Luis\AppData\Local\Temp\ccSH6HF5.s 			page 13


 658 0202 02D0     		beq	.L37
 659              		.loc 2 392 0 is_stmt 0 discriminator 1
 660 0204 1448     		ldr	r0, .L39+16
 661 0206 FFF7FEFF 		bl	osalSysHalt
 662              	.L37:
 663              		.loc 2 396 0 is_stmt 1
 664 020a 7B68     		ldr	r3, [r7, #4]
 665 020c 002B     		cmp	r3, #0
 666 020e 0AD0     		beq	.L38
 667              		.loc 2 398 0
 668 0210 3A7D     		ldrb	r2, [r7, #20]	@ zero_extendqisi2
 669 0212 7B68     		ldr	r3, [r7, #4]
 670 0214 1968     		ldr	r1, [r3]
 671 0216 0C48     		ldr	r0, .L39
 672 0218 1346     		mov	r3, r2
 673 021a 9B00     		lsls	r3, r3, #2
 674 021c 1344     		add	r3, r3, r2
 675 021e 9B00     		lsls	r3, r3, #2
 676 0220 0344     		add	r3, r3, r0
 677 0222 0433     		adds	r3, r3, #4
 678 0224 1960     		str	r1, [r3]
 679              	.L38:
 680              		.loc 2 400 0
 681 0226 3A7D     		ldrb	r2, [r7, #20]	@ zero_extendqisi2
 682 0228 0749     		ldr	r1, .L39
 683 022a 1346     		mov	r3, r2
 684 022c 9B00     		lsls	r3, r3, #2
 685 022e 1344     		add	r3, r3, r2
 686 0230 9B00     		lsls	r3, r3, #2
 687 0232 0B44     		add	r3, r3, r1
 688 0234 1033     		adds	r3, r3, #16
 689 0236 0022     		movs	r2, #0
 690 0238 DA70     		strb	r2, [r3, #3]
 691              		.loc 2 401 0
 692 023a 3B7D     		ldrb	r3, [r7, #20]	@ zero_extendqisi2
 693              	.L20:
 694 023c 5BB2     		sxtb	r3, r3
 695              		.loc 2 402 0
 696 023e 1846     		mov	r0, r3
 697 0240 1837     		adds	r7, r7, #24
 698 0242 BD46     		mov	sp, r7
 699              		@ sp needed
 700 0244 80BD     		pop	{r7, pc}
 701              	.L40:
 702 0246 00BF     		.align	2
 703              	.L39:
 704 0248 00000000 		.word	arp_table
 705 024c 00000000 		.word	.LC0
 706 0250 40000000 		.word	.LC1
 707 0254 58000000 		.word	.LC2
 708 0258 6C000000 		.word	.LC3
 709              		.cfi_endproc
 710              	.LFE262:
 711              		.size	etharp_find_entry, .-etharp_find_entry
 712 025c AFF30080 		.section	.rodata
 713 0095 000000   		.align	2
 714              	.LC4:
ARM GAS  C:\Users\Luis\AppData\Local\Temp\ccSH6HF5.s 			page 14


 715 0098 6E657469 		.ascii	"netif->hwaddr_len must be the same as ETHARP_HWADDR"
 715      662D3E68 
 715      77616464 
 715      725F6C65 
 715      6E206D75 
 716 00cb 5F4C454E 		.ascii	"_LEN for etharp!\000"
 716      20666F72 
 716      20657468 
 716      61727021 
 716      00
 717              		.section	.text.etharp_send_ip,"ax",%progbits
 718              		.align	2
 719              		.p2align 4,,15
 720              		.thumb
 721              		.thumb_func
 722              		.type	etharp_send_ip, %function
 723              	etharp_send_ip:
 724              	.LFB263:
 725              		.loc 2 416 0
 726              		.cfi_startproc
 727              		@ args = 0, pretend = 0, frame = 24
 728              		@ frame_needed = 1, uses_anonymous_args = 0
 729 0000 80B5     		push	{r7, lr}
 730              		.cfi_def_cfa_offset 8
 731              		.cfi_offset 7, -8
 732              		.cfi_offset 14, -4
 733 0002 86B0     		sub	sp, sp, #24
 734              		.cfi_def_cfa_offset 32
 735 0004 00AF     		add	r7, sp, #0
 736              		.cfi_def_cfa_register 7
 737 0006 F860     		str	r0, [r7, #12]
 738 0008 B960     		str	r1, [r7, #8]
 739 000a 7A60     		str	r2, [r7, #4]
 740 000c 3B60     		str	r3, [r7]
 741              		.loc 2 417 0
 742 000e BB68     		ldr	r3, [r7, #8]
 743 0010 5B68     		ldr	r3, [r3, #4]
 744 0012 7B61     		str	r3, [r7, #20]
 745              		.loc 2 419 0
 746 0014 FB68     		ldr	r3, [r7, #12]
 747 0016 93F82230 		ldrb	r3, [r3, #34]	@ zero_extendqisi2
 748 001a 062B     		cmp	r3, #6
 749 001c 02D0     		beq	.L42
 750              		.loc 2 419 0 is_stmt 0 discriminator 1
 751 001e 1048     		ldr	r0, .L44
 752 0020 FFF7FEFF 		bl	osalSysHalt
 753              	.L42:
 754              		.loc 2 421 0 is_stmt 1
 755 0024 7B69     		ldr	r3, [r7, #20]
 756 0026 1846     		mov	r0, r3
 757 0028 3968     		ldr	r1, [r7]
 758 002a 0622     		movs	r2, #6
 759 002c FFF7FEFF 		bl	memcpy
 760              		.loc 2 422 0
 761 0030 7B69     		ldr	r3, [r7, #20]
 762 0032 0633     		adds	r3, r3, #6
 763 0034 1846     		mov	r0, r3
ARM GAS  C:\Users\Luis\AppData\Local\Temp\ccSH6HF5.s 			page 15


 764 0036 7968     		ldr	r1, [r7, #4]
 765 0038 0622     		movs	r2, #6
 766 003a FFF7FEFF 		bl	memcpy
 767              		.loc 2 423 0
 768 003e 7B69     		ldr	r3, [r7, #20]
 769 0040 0022     		movs	r2, #0
 770 0042 42F00802 		orr	r2, r2, #8
 771 0046 1A73     		strb	r2, [r3, #12]
 772 0048 0022     		movs	r2, #0
 773 004a 5A73     		strb	r2, [r3, #13]
 774              		.loc 2 426 0
 775 004c FB68     		ldr	r3, [r7, #12]
 776 004e 9B69     		ldr	r3, [r3, #24]
 777 0050 F868     		ldr	r0, [r7, #12]
 778 0052 B968     		ldr	r1, [r7, #8]
 779 0054 9847     		blx	r3
 780 0056 0346     		mov	r3, r0
 781              		.loc 2 427 0
 782 0058 1846     		mov	r0, r3
 783 005a 1837     		adds	r7, r7, #24
 784 005c BD46     		mov	sp, r7
 785              		@ sp needed
 786 005e 80BD     		pop	{r7, pc}
 787              	.L45:
 788              		.align	2
 789              	.L44:
 790 0060 98000000 		.word	.LC4
 791              		.cfi_endproc
 792              	.LFE263:
 793              		.size	etharp_send_ip, .-etharp_send_ip
 794 0064 AFF30080 		.section	.rodata
 794      AFF30080 
 794      AFF30080 
 795              		.align	2
 796              	.LC5:
 797 00dc 6E657469 		.ascii	"netif->hwaddr_len == ETHARP_HWADDR_LEN\000"
 797      662D3E68 
 797      77616464 
 797      725F6C65 
 797      6E203D3D 
 798              		.section	.text.etharp_update_arp_entry,"ax",%progbits
 799              		.align	2
 800              		.p2align 4,,15
 801              		.thumb
 802              		.thumb_func
 803              		.type	etharp_update_arp_entry, %function
 804              	etharp_update_arp_entry:
 805              	.LFB264:
 806              		.loc 2 449 0
 807              		.cfi_startproc
 808              		@ args = 0, pretend = 0, frame = 24
 809              		@ frame_needed = 1, uses_anonymous_args = 0
 810 0000 80B5     		push	{r7, lr}
 811              		.cfi_def_cfa_offset 8
 812              		.cfi_offset 7, -8
 813              		.cfi_offset 14, -4
 814 0002 86B0     		sub	sp, sp, #24
ARM GAS  C:\Users\Luis\AppData\Local\Temp\ccSH6HF5.s 			page 16


 815              		.cfi_def_cfa_offset 32
 816 0004 00AF     		add	r7, sp, #0
 817              		.cfi_def_cfa_register 7
 818 0006 F860     		str	r0, [r7, #12]
 819 0008 B960     		str	r1, [r7, #8]
 820 000a 7A60     		str	r2, [r7, #4]
 821 000c FB70     		strb	r3, [r7, #3]
 822              		.loc 2 451 0
 823 000e FB68     		ldr	r3, [r7, #12]
 824 0010 93F82230 		ldrb	r3, [r3, #34]	@ zero_extendqisi2
 825 0014 062B     		cmp	r3, #6
 826 0016 02D0     		beq	.L47
 827              		.loc 2 451 0 is_stmt 0 discriminator 1
 828 0018 4448     		ldr	r0, .L53
 829 001a FFF7FEFF 		bl	osalSysHalt
 830              	.L47:
 831              		.loc 2 457 0 is_stmt 1
 832 001e BB68     		ldr	r3, [r7, #8]
 833 0020 002B     		cmp	r3, #0
 834 0022 12D0     		beq	.L48
 835              		.loc 2 457 0 is_stmt 0 discriminator 1
 836 0024 BB68     		ldr	r3, [r7, #8]
 837 0026 1B68     		ldr	r3, [r3]
 838 0028 002B     		cmp	r3, #0
 839 002a 0ED0     		beq	.L48
 840              		.loc 2 458 0 is_stmt 1 discriminator 1
 841 002c BB68     		ldr	r3, [r7, #8]
 842 002e 1B68     		ldr	r3, [r3]
 843 0030 1846     		mov	r0, r3
 844 0032 F968     		ldr	r1, [r7, #12]
 845 0034 FFF7FEFF 		bl	ip4_addr_isbroadcast
 846 0038 0346     		mov	r3, r0
 847              		.loc 2 457 0 discriminator 1
 848 003a 002B     		cmp	r3, #0
 849 003c 05D1     		bne	.L48
 850              		.loc 2 459 0
 851 003e BB68     		ldr	r3, [r7, #8]
 852 0040 1B68     		ldr	r3, [r3]
 853 0042 03F0F003 		and	r3, r3, #240
 854              		.loc 2 458 0
 855 0046 E02B     		cmp	r3, #224
 856 0048 01D1     		bne	.L49
 857              	.L48:
 858              		.loc 2 461 0
 859 004a F223     		movs	r3, #242
 860 004c 68E0     		b	.L50
 861              	.L49:
 862              		.loc 2 464 0
 863 004e FB78     		ldrb	r3, [r7, #3]	@ zero_extendqisi2
 864 0050 B868     		ldr	r0, [r7, #8]
 865 0052 1946     		mov	r1, r3
 866 0054 FFF7FEFF 		bl	etharp_find_entry
 867 0058 0346     		mov	r3, r0
 868 005a FB75     		strb	r3, [r7, #23]
 869              		.loc 2 466 0
 870 005c 97F91730 		ldrsb	r3, [r7, #23]
 871 0060 002B     		cmp	r3, #0
ARM GAS  C:\Users\Luis\AppData\Local\Temp\ccSH6HF5.s 			page 17


 872 0062 01DA     		bge	.L51
 873              		.loc 2 467 0
 874 0064 FB7D     		ldrb	r3, [r7, #23]	@ zero_extendqisi2
 875 0066 5BE0     		b	.L50
 876              	.L51:
 877              		.loc 2 478 0
 878 0068 97F91720 		ldrsb	r2, [r7, #23]
 879 006c 3049     		ldr	r1, .L53+4
 880 006e 1346     		mov	r3, r2
 881 0070 9B00     		lsls	r3, r3, #2
 882 0072 1344     		add	r3, r3, r2
 883 0074 9B00     		lsls	r3, r3, #2
 884 0076 0B44     		add	r3, r3, r1
 885 0078 1033     		adds	r3, r3, #16
 886 007a 0222     		movs	r2, #2
 887 007c 9A70     		strb	r2, [r3, #2]
 888              		.loc 2 482 0
 889 007e 97F91720 		ldrsb	r2, [r7, #23]
 890 0082 2B49     		ldr	r1, .L53+4
 891 0084 1346     		mov	r3, r2
 892 0086 9B00     		lsls	r3, r3, #2
 893 0088 1344     		add	r3, r3, r2
 894 008a 9B00     		lsls	r3, r3, #2
 895 008c 0B44     		add	r3, r3, r1
 896 008e 0833     		adds	r3, r3, #8
 897 0090 FA68     		ldr	r2, [r7, #12]
 898 0092 1A60     		str	r2, [r3]
 899              		.loc 2 488 0
 900 0094 97F91720 		ldrsb	r2, [r7, #23]
 901 0098 1346     		mov	r3, r2
 902 009a 9B00     		lsls	r3, r3, #2
 903 009c 1344     		add	r3, r3, r2
 904 009e 9B00     		lsls	r3, r3, #2
 905 00a0 03F10802 		add	r2, r3, #8
 906 00a4 224B     		ldr	r3, .L53+4
 907 00a6 1344     		add	r3, r3, r2
 908 00a8 0433     		adds	r3, r3, #4
 909 00aa 7A68     		ldr	r2, [r7, #4]
 910 00ac 1168     		ldr	r1, [r2]	@ unaligned
 911 00ae 1960     		str	r1, [r3]	@ unaligned
 912 00b0 9288     		ldrh	r2, [r2, #4]	@ unaligned
 913 00b2 9A80     		strh	r2, [r3, #4]	@ unaligned
 914              		.loc 2 490 0
 915 00b4 97F91720 		ldrsb	r2, [r7, #23]
 916 00b8 1D49     		ldr	r1, .L53+4
 917 00ba 1346     		mov	r3, r2
 918 00bc 9B00     		lsls	r3, r3, #2
 919 00be 1344     		add	r3, r3, r2
 920 00c0 9B00     		lsls	r3, r3, #2
 921 00c2 0B44     		add	r3, r3, r1
 922 00c4 1033     		adds	r3, r3, #16
 923 00c6 0022     		movs	r2, #0
 924 00c8 DA70     		strb	r2, [r3, #3]
 925              		.loc 2 504 0
 926 00ca 97F91720 		ldrsb	r2, [r7, #23]
 927 00ce 1849     		ldr	r1, .L53+4
 928 00d0 1346     		mov	r3, r2
ARM GAS  C:\Users\Luis\AppData\Local\Temp\ccSH6HF5.s 			page 18


 929 00d2 9B00     		lsls	r3, r3, #2
 930 00d4 1344     		add	r3, r3, r2
 931 00d6 9B00     		lsls	r3, r3, #2
 932 00d8 0B44     		add	r3, r3, r1
 933 00da 1B68     		ldr	r3, [r3]
 934 00dc 002B     		cmp	r3, #0
 935 00de 1ED0     		beq	.L52
 936              	.LBB4:
 937              		.loc 2 505 0
 938 00e0 97F91720 		ldrsb	r2, [r7, #23]
 939 00e4 1249     		ldr	r1, .L53+4
 940 00e6 1346     		mov	r3, r2
 941 00e8 9B00     		lsls	r3, r3, #2
 942 00ea 1344     		add	r3, r3, r2
 943 00ec 9B00     		lsls	r3, r3, #2
 944 00ee 0B44     		add	r3, r3, r1
 945 00f0 1B68     		ldr	r3, [r3]
 946 00f2 3B61     		str	r3, [r7, #16]
 947              		.loc 2 506 0
 948 00f4 97F91720 		ldrsb	r2, [r7, #23]
 949 00f8 0D49     		ldr	r1, .L53+4
 950 00fa 1346     		mov	r3, r2
 951 00fc 9B00     		lsls	r3, r3, #2
 952 00fe 1344     		add	r3, r3, r2
 953 0100 9B00     		lsls	r3, r3, #2
 954 0102 0B44     		add	r3, r3, r1
 955 0104 0022     		movs	r2, #0
 956 0106 1A60     		str	r2, [r3]
 957              		.loc 2 509 0
 958 0108 FB68     		ldr	r3, [r7, #12]
 959 010a 2333     		adds	r3, r3, #35
 960 010c F868     		ldr	r0, [r7, #12]
 961 010e 3969     		ldr	r1, [r7, #16]
 962 0110 1A46     		mov	r2, r3
 963 0112 7B68     		ldr	r3, [r7, #4]
 964 0114 FFF7FEFF 		bl	etharp_send_ip
 965              		.loc 2 511 0
 966 0118 3869     		ldr	r0, [r7, #16]
 967 011a FFF7FEFF 		bl	pbuf_free
 968              	.L52:
 969              	.LBE4:
 970              		.loc 2 513 0
 971 011e 0023     		movs	r3, #0
 972              	.L50:
 973 0120 5BB2     		sxtb	r3, r3
 974              		.loc 2 514 0
 975 0122 1846     		mov	r0, r3
 976 0124 1837     		adds	r7, r7, #24
 977 0126 BD46     		mov	sp, r7
 978              		@ sp needed
 979 0128 80BD     		pop	{r7, pc}
 980              	.L54:
 981 012a 00BF     		.align	2
 982              	.L53:
 983 012c DC000000 		.word	.LC5
 984 0130 00000000 		.word	arp_table
 985              		.cfi_endproc
ARM GAS  C:\Users\Luis\AppData\Local\Temp\ccSH6HF5.s 			page 19


 986              	.LFE264:
 987              		.size	etharp_update_arp_entry, .-etharp_update_arp_entry
 988 0134 AFF30080 		.section	.text.etharp_cleanup_netif,"ax",%progbits
 988      AFF30080 
 988      AFF30080 
 989              		.align	2
 990              		.p2align 4,,15
 991              		.global	etharp_cleanup_netif
 992              		.thumb
 993              		.thumb_func
 994              		.type	etharp_cleanup_netif, %function
 995              	etharp_cleanup_netif:
 996              	.LFB265:
 997              		.loc 2 580 0
 998              		.cfi_startproc
 999              		@ args = 0, pretend = 0, frame = 16
 1000              		@ frame_needed = 1, uses_anonymous_args = 0
 1001 0000 80B5     		push	{r7, lr}
 1002              		.cfi_def_cfa_offset 8
 1003              		.cfi_offset 7, -8
 1004              		.cfi_offset 14, -4
 1005 0002 84B0     		sub	sp, sp, #16
 1006              		.cfi_def_cfa_offset 24
 1007 0004 00AF     		add	r7, sp, #0
 1008              		.cfi_def_cfa_register 7
 1009 0006 7860     		str	r0, [r7, #4]
 1010              		.loc 2 583 0
 1011 0008 0023     		movs	r3, #0
 1012 000a FB73     		strb	r3, [r7, #15]
 1013 000c 1FE0     		b	.L56
 1014              	.L58:
 1015              	.LBB5:
 1016              		.loc 2 584 0
 1017 000e FA7B     		ldrb	r2, [r7, #15]	@ zero_extendqisi2
 1018 0010 1249     		ldr	r1, .L59
 1019 0012 1346     		mov	r3, r2
 1020 0014 9B00     		lsls	r3, r3, #2
 1021 0016 1344     		add	r3, r3, r2
 1022 0018 9B00     		lsls	r3, r3, #2
 1023 001a 0B44     		add	r3, r3, r1
 1024 001c 1033     		adds	r3, r3, #16
 1025 001e 9B78     		ldrb	r3, [r3, #2]
 1026 0020 BB73     		strb	r3, [r7, #14]
 1027              		.loc 2 585 0
 1028 0022 BB7B     		ldrb	r3, [r7, #14]	@ zero_extendqisi2
 1029 0024 002B     		cmp	r3, #0
 1030 0026 0FD0     		beq	.L57
 1031              		.loc 2 585 0 is_stmt 0 discriminator 1
 1032 0028 FA7B     		ldrb	r2, [r7, #15]	@ zero_extendqisi2
 1033 002a 0C49     		ldr	r1, .L59
 1034 002c 1346     		mov	r3, r2
 1035 002e 9B00     		lsls	r3, r3, #2
 1036 0030 1344     		add	r3, r3, r2
 1037 0032 9B00     		lsls	r3, r3, #2
 1038 0034 0B44     		add	r3, r3, r1
 1039 0036 0833     		adds	r3, r3, #8
 1040 0038 1A68     		ldr	r2, [r3]
ARM GAS  C:\Users\Luis\AppData\Local\Temp\ccSH6HF5.s 			page 20


 1041 003a 7B68     		ldr	r3, [r7, #4]
 1042 003c 9A42     		cmp	r2, r3
 1043 003e 03D1     		bne	.L57
 1044              		.loc 2 586 0 is_stmt 1
 1045 0040 FB7B     		ldrb	r3, [r7, #15]	@ zero_extendqisi2
 1046 0042 1846     		mov	r0, r3
 1047 0044 FFF7FEFF 		bl	etharp_free_entry
 1048              	.L57:
 1049              	.LBE5:
 1050              		.loc 2 583 0
 1051 0048 FB7B     		ldrb	r3, [r7, #15]
 1052 004a 0133     		adds	r3, r3, #1
 1053 004c FB73     		strb	r3, [r7, #15]
 1054              	.L56:
 1055              		.loc 2 583 0 is_stmt 0 discriminator 1
 1056 004e FB7B     		ldrb	r3, [r7, #15]	@ zero_extendqisi2
 1057 0050 092B     		cmp	r3, #9
 1058 0052 DCD9     		bls	.L58
 1059              		.loc 2 589 0 is_stmt 1
 1060 0054 1037     		adds	r7, r7, #16
 1061 0056 BD46     		mov	sp, r7
 1062              		@ sp needed
 1063 0058 80BD     		pop	{r7, pc}
 1064              	.L60:
 1065 005a 00BF     		.align	2
 1066              	.L59:
 1067 005c 00000000 		.word	arp_table
 1068              		.cfi_endproc
 1069              	.LFE265:
 1070              		.size	etharp_cleanup_netif, .-etharp_cleanup_netif
 1071              		.section	.rodata
 1072 0103 00       		.align	2
 1073              	.LC6:
 1074 0104 6574685F 		.ascii	"eth_ret != NULL && ip_ret != NULL\000"
 1074      72657420 
 1074      213D204E 
 1074      554C4C20 
 1074      26262069 
 1075              		.section	.text.etharp_find_addr,"ax",%progbits
 1076              		.align	2
 1077              		.p2align 4,,15
 1078              		.global	etharp_find_addr
 1079              		.thumb
 1080              		.thumb_func
 1081              		.type	etharp_find_addr, %function
 1082              	etharp_find_addr:
 1083              	.LFB266:
 1084              		.loc 2 605 0
 1085              		.cfi_startproc
 1086              		@ args = 0, pretend = 0, frame = 24
 1087              		@ frame_needed = 1, uses_anonymous_args = 0
 1088 0000 80B5     		push	{r7, lr}
 1089              		.cfi_def_cfa_offset 8
 1090              		.cfi_offset 7, -8
 1091              		.cfi_offset 14, -4
 1092 0002 86B0     		sub	sp, sp, #24
 1093              		.cfi_def_cfa_offset 32
ARM GAS  C:\Users\Luis\AppData\Local\Temp\ccSH6HF5.s 			page 21


 1094 0004 00AF     		add	r7, sp, #0
 1095              		.cfi_def_cfa_register 7
 1096 0006 F860     		str	r0, [r7, #12]
 1097 0008 B960     		str	r1, [r7, #8]
 1098 000a 7A60     		str	r2, [r7, #4]
 1099 000c 3B60     		str	r3, [r7]
 1100              		.loc 2 608 0
 1101 000e 7B68     		ldr	r3, [r7, #4]
 1102 0010 002B     		cmp	r3, #0
 1103 0012 02D0     		beq	.L62
 1104              		.loc 2 608 0 is_stmt 0 discriminator 2
 1105 0014 3B68     		ldr	r3, [r7]
 1106 0016 002B     		cmp	r3, #0
 1107 0018 02D1     		bne	.L63
 1108              	.L62:
 1109              		.loc 2 608 0 discriminator 1
 1110 001a 1C48     		ldr	r0, .L66
 1111 001c FFF7FEFF 		bl	osalSysHalt
 1112              	.L63:
 1113              		.loc 2 613 0 is_stmt 1
 1114 0020 B868     		ldr	r0, [r7, #8]
 1115 0022 0221     		movs	r1, #2
 1116 0024 FFF7FEFF 		bl	etharp_find_entry
 1117 0028 0346     		mov	r3, r0
 1118 002a FB75     		strb	r3, [r7, #23]
 1119              		.loc 2 614 0
 1120 002c 97F91730 		ldrsb	r3, [r7, #23]
 1121 0030 002B     		cmp	r3, #0
 1122 0032 25DB     		blt	.L64
 1123              		.loc 2 614 0 is_stmt 0 discriminator 1
 1124 0034 97F91720 		ldrsb	r2, [r7, #23]
 1125 0038 1549     		ldr	r1, .L66+4
 1126 003a 1346     		mov	r3, r2
 1127 003c 9B00     		lsls	r3, r3, #2
 1128 003e 1344     		add	r3, r3, r2
 1129 0040 9B00     		lsls	r3, r3, #2
 1130 0042 0B44     		add	r3, r3, r1
 1131 0044 1033     		adds	r3, r3, #16
 1132 0046 9B78     		ldrb	r3, [r3, #2]	@ zero_extendqisi2
 1133 0048 012B     		cmp	r3, #1
 1134 004a 19D9     		bls	.L64
 1135              		.loc 2 615 0 is_stmt 1
 1136 004c 97F91720 		ldrsb	r2, [r7, #23]
 1137 0050 1346     		mov	r3, r2
 1138 0052 9B00     		lsls	r3, r3, #2
 1139 0054 1344     		add	r3, r3, r2
 1140 0056 9B00     		lsls	r3, r3, #2
 1141 0058 03F10802 		add	r2, r3, #8
 1142 005c 0C4B     		ldr	r3, .L66+4
 1143 005e 1344     		add	r3, r3, r2
 1144 0060 1A1D     		adds	r2, r3, #4
 1145 0062 7B68     		ldr	r3, [r7, #4]
 1146 0064 1A60     		str	r2, [r3]
 1147              		.loc 2 616 0
 1148 0066 97F91720 		ldrsb	r2, [r7, #23]
 1149 006a 1346     		mov	r3, r2
 1150 006c 9B00     		lsls	r3, r3, #2
ARM GAS  C:\Users\Luis\AppData\Local\Temp\ccSH6HF5.s 			page 22


 1151 006e 1344     		add	r3, r3, r2
 1152 0070 9B00     		lsls	r3, r3, #2
 1153 0072 074A     		ldr	r2, .L66+4
 1154 0074 1344     		add	r3, r3, r2
 1155 0076 1A1D     		adds	r2, r3, #4
 1156 0078 3B68     		ldr	r3, [r7]
 1157 007a 1A60     		str	r2, [r3]
 1158              		.loc 2 617 0
 1159 007c FB7D     		ldrb	r3, [r7, #23]	@ zero_extendqisi2
 1160 007e 00E0     		b	.L65
 1161              	.L64:
 1162              		.loc 2 619 0
 1163 0080 FF23     		movs	r3, #255
 1164              	.L65:
 1165 0082 5BB2     		sxtb	r3, r3
 1166              		.loc 2 620 0
 1167 0084 1846     		mov	r0, r3
 1168 0086 1837     		adds	r7, r7, #24
 1169 0088 BD46     		mov	sp, r7
 1170              		@ sp needed
 1171 008a 80BD     		pop	{r7, pc}
 1172              	.L67:
 1173              		.align	2
 1174              	.L66:
 1175 008c 04010000 		.word	.LC6
 1176 0090 00000000 		.word	arp_table
 1177              		.cfi_endproc
 1178              	.LFE266:
 1179              		.size	etharp_find_addr, .-etharp_find_addr
 1180 0094 AFF30080 		.section	.rodata
 1180      AFF30080 
 1180      AFF30080 
 1181 0126 0000     		.align	2
 1182              	.LC7:
 1183 0128 6E657469 		.ascii	"netif != NULL\000"
 1183      6620213D 
 1183      204E554C 
 1183      4C00
 1184              		.section	.text.etharp_arp_input,"ax",%progbits
 1185              		.align	2
 1186              		.p2align 4,,15
 1187              		.thumb
 1188              		.thumb_func
 1189              		.type	etharp_arp_input, %function
 1190              	etharp_arp_input:
 1191              	.LFB267:
 1192              		.loc 2 689 0
 1193              		.cfi_startproc
 1194              		@ args = 0, pretend = 0, frame = 40
 1195              		@ frame_needed = 1, uses_anonymous_args = 0
 1196 0000 80B5     		push	{r7, lr}
 1197              		.cfi_def_cfa_offset 8
 1198              		.cfi_offset 7, -8
 1199              		.cfi_offset 14, -4
 1200 0002 8AB0     		sub	sp, sp, #40
 1201              		.cfi_def_cfa_offset 48
 1202 0004 00AF     		add	r7, sp, #0
ARM GAS  C:\Users\Luis\AppData\Local\Temp\ccSH6HF5.s 			page 23


 1203              		.cfi_def_cfa_register 7
 1204 0006 F860     		str	r0, [r7, #12]
 1205 0008 B960     		str	r1, [r7, #8]
 1206 000a 7A60     		str	r2, [r7, #4]
 1207              		.loc 2 699 0
 1208 000c FB68     		ldr	r3, [r7, #12]
 1209 000e 002B     		cmp	r3, #0
 1210 0010 03D1     		bne	.L69
 1211              		.loc 2 699 0 is_stmt 0 discriminator 1
 1212 0012 7348     		ldr	r0, .L89
 1213 0014 FFF7FEFF 		bl	osalSysHalt
 1214 0018 DFE0     		b	.L68
 1215              	.L69:
 1216              		.loc 2 703 0 is_stmt 1
 1217 001a 7B68     		ldr	r3, [r7, #4]
 1218 001c 5B89     		ldrh	r3, [r3, #10]
 1219 001e 292B     		cmp	r3, #41
 1220 0020 0FD8     		bhi	.L71
 1221              		.loc 2 707 0
 1222 0022 704B     		ldr	r3, .L89+4
 1223 0024 5B8C     		ldrh	r3, [r3, #34]
 1224 0026 0133     		adds	r3, r3, #1
 1225 0028 9AB2     		uxth	r2, r3
 1226 002a 6E4B     		ldr	r3, .L89+4
 1227 002c 5A84     		strh	r2, [r3, #34]	@ movhi
 1228              		.loc 2 708 0
 1229 002e 6D4B     		ldr	r3, .L89+4
 1230 0030 DB8B     		ldrh	r3, [r3, #30]
 1231 0032 0133     		adds	r3, r3, #1
 1232 0034 9AB2     		uxth	r2, r3
 1233 0036 6B4B     		ldr	r3, .L89+4
 1234 0038 DA83     		strh	r2, [r3, #30]	@ movhi
 1235              		.loc 2 709 0
 1236 003a 7868     		ldr	r0, [r7, #4]
 1237 003c FFF7FEFF 		bl	pbuf_free
 1238              		.loc 2 710 0
 1239 0040 CBE0     		b	.L68
 1240              	.L71:
 1241              		.loc 2 713 0
 1242 0042 7B68     		ldr	r3, [r7, #4]
 1243 0044 5B68     		ldr	r3, [r3, #4]
 1244 0046 3B62     		str	r3, [r7, #32]
 1245              		.loc 2 714 0
 1246 0048 3B6A     		ldr	r3, [r7, #32]
 1247 004a 0E33     		adds	r3, r3, #14
 1248 004c FB61     		str	r3, [r7, #28]
 1249              		.loc 2 722 0
 1250 004e FB69     		ldr	r3, [r7, #28]
 1251 0050 1B88     		ldrh	r3, [r3]	@ unaligned
 1252 0052 9BB2     		uxth	r3, r3
 1253 0054 B3F5807F 		cmp	r3, #256
 1254 0058 0CD1     		bne	.L72
 1255              		.loc 2 723 0 discriminator 1
 1256 005a FB69     		ldr	r3, [r7, #28]
 1257 005c 1B79     		ldrb	r3, [r3, #4]	@ zero_extendqisi2
 1258              		.loc 2 722 0 discriminator 1
 1259 005e 062B     		cmp	r3, #6
ARM GAS  C:\Users\Luis\AppData\Local\Temp\ccSH6HF5.s 			page 24


 1260 0060 08D1     		bne	.L72
 1261              		.loc 2 724 0
 1262 0062 FB69     		ldr	r3, [r7, #28]
 1263 0064 5B79     		ldrb	r3, [r3, #5]	@ zero_extendqisi2
 1264              		.loc 2 723 0
 1265 0066 042B     		cmp	r3, #4
 1266 0068 04D1     		bne	.L72
 1267              		.loc 2 725 0
 1268 006a FB69     		ldr	r3, [r7, #28]
 1269 006c 5B88     		ldrh	r3, [r3, #2]	@ unaligned
 1270 006e 9BB2     		uxth	r3, r3
 1271              		.loc 2 724 0
 1272 0070 082B     		cmp	r3, #8
 1273 0072 0FD0     		beq	.L73
 1274              	.L72:
 1275              		.loc 2 729 0
 1276 0074 5B4B     		ldr	r3, .L89+4
 1277 0076 1B8D     		ldrh	r3, [r3, #40]
 1278 0078 0133     		adds	r3, r3, #1
 1279 007a 9AB2     		uxth	r2, r3
 1280 007c 594B     		ldr	r3, .L89+4
 1281 007e 1A85     		strh	r2, [r3, #40]	@ movhi
 1282              		.loc 2 730 0
 1283 0080 584B     		ldr	r3, .L89+4
 1284 0082 DB8B     		ldrh	r3, [r3, #30]
 1285 0084 0133     		adds	r3, r3, #1
 1286 0086 9AB2     		uxth	r2, r3
 1287 0088 564B     		ldr	r3, .L89+4
 1288 008a DA83     		strh	r2, [r3, #30]	@ movhi
 1289              		.loc 2 731 0
 1290 008c 7868     		ldr	r0, [r7, #4]
 1291 008e FFF7FEFF 		bl	pbuf_free
 1292              		.loc 2 732 0
 1293 0092 A2E0     		b	.L68
 1294              	.L73:
 1295              		.loc 2 734 0
 1296 0094 534B     		ldr	r3, .L89+4
 1297 0096 5B8B     		ldrh	r3, [r3, #26]
 1298 0098 0133     		adds	r3, r3, #1
 1299 009a 9AB2     		uxth	r2, r3
 1300 009c 514B     		ldr	r3, .L89+4
 1301 009e 5A83     		strh	r2, [r3, #26]	@ movhi
 1302              		.loc 2 745 0
 1303 00a0 FB69     		ldr	r3, [r7, #28]
 1304 00a2 0E33     		adds	r3, r3, #14
 1305 00a4 07F11802 		add	r2, r7, #24
 1306 00a8 1046     		mov	r0, r2
 1307 00aa 1946     		mov	r1, r3
 1308 00ac 0422     		movs	r2, #4
 1309 00ae FFF7FEFF 		bl	memcpy
 1310              		.loc 2 746 0
 1311 00b2 FB69     		ldr	r3, [r7, #28]
 1312 00b4 1833     		adds	r3, r3, #24
 1313 00b6 07F11402 		add	r2, r7, #20
 1314 00ba 1046     		mov	r0, r2
 1315 00bc 1946     		mov	r1, r3
 1316 00be 0422     		movs	r2, #4
ARM GAS  C:\Users\Luis\AppData\Local\Temp\ccSH6HF5.s 			page 25


 1317 00c0 FFF7FEFF 		bl	memcpy
 1318              		.loc 2 749 0
 1319 00c4 FB68     		ldr	r3, [r7, #12]
 1320 00c6 0433     		adds	r3, r3, #4
 1321 00c8 002B     		cmp	r3, #0
 1322 00ca 03D0     		beq	.L74
 1323              		.loc 2 749 0 is_stmt 0 discriminator 1
 1324 00cc FB68     		ldr	r3, [r7, #12]
 1325 00ce 5B68     		ldr	r3, [r3, #4]
 1326 00d0 002B     		cmp	r3, #0
 1327 00d2 03D1     		bne	.L75
 1328              	.L74:
 1329              		.loc 2 750 0 is_stmt 1
 1330 00d4 0023     		movs	r3, #0
 1331 00d6 87F82730 		strb	r3, [r7, #39]
 1332 00da 09E0     		b	.L76
 1333              	.L75:
 1334              		.loc 2 753 0
 1335 00dc 7A69     		ldr	r2, [r7, #20]
 1336 00de FB68     		ldr	r3, [r7, #12]
 1337 00e0 5B68     		ldr	r3, [r3, #4]
 1338 00e2 9A42     		cmp	r2, r3
 1339 00e4 14BF     		ite	ne
 1340 00e6 0023     		movne	r3, #0
 1341 00e8 0123     		moveq	r3, #1
 1342 00ea DBB2     		uxtb	r3, r3
 1343 00ec 87F82730 		strb	r3, [r7, #39]
 1344              	.L76:
 1345              		.loc 2 761 0
 1346 00f0 FB69     		ldr	r3, [r7, #28]
 1347 00f2 03F10802 		add	r2, r3, #8
 1348 00f6 97F82730 		ldrb	r3, [r7, #39]	@ zero_extendqisi2
 1349 00fa 002B     		cmp	r3, #0
 1350 00fc 01D0     		beq	.L77
 1351              		.loc 2 761 0 is_stmt 0 discriminator 1
 1352 00fe 0123     		movs	r3, #1
 1353 0100 00E0     		b	.L78
 1354              	.L77:
 1355              		.loc 2 761 0 discriminator 2
 1356 0102 0223     		movs	r3, #2
 1357              	.L78:
 1358              		.loc 2 761 0 discriminator 3
 1359 0104 07F11801 		add	r1, r7, #24
 1360 0108 F868     		ldr	r0, [r7, #12]
 1361 010a FFF7FEFF 		bl	etharp_update_arp_entry
 1362              		.loc 2 765 0 is_stmt 1 discriminator 3
 1363 010e FB69     		ldr	r3, [r7, #28]
 1364 0110 DB88     		ldrh	r3, [r3, #6]	@ unaligned
 1365 0112 9BB2     		uxth	r3, r3
 1366 0114 B3F5807F 		cmp	r3, #256
 1367 0118 03D0     		beq	.L80
 1368 011a B3F5007F 		cmp	r3, #512
 1369 011e 58D0     		beq	.L88
 1370              		.loc 2 765 0 is_stmt 0
 1371 0120 50E0     		b	.L87
 1372              	.L80:
 1373              		.loc 2 774 0 is_stmt 1
ARM GAS  C:\Users\Luis\AppData\Local\Temp\ccSH6HF5.s 			page 26


 1374 0122 97F82730 		ldrb	r3, [r7, #39]	@ zero_extendqisi2
 1375 0126 002B     		cmp	r3, #0
 1376 0128 48D0     		beq	.L82
 1377              		.loc 2 780 0
 1378 012a 0220     		movs	r0, #2
 1379 012c FFF7FEFF 		bl	lwip_htons
 1380 0130 0346     		mov	r3, r0
 1381 0132 1A46     		mov	r2, r3
 1382 0134 FB69     		ldr	r3, [r7, #28]
 1383 0136 DA80     		strh	r2, [r3, #6]	@ unaligned
 1384              		.loc 2 782 0
 1385 0138 FB69     		ldr	r3, [r7, #28]
 1386 013a 03F11802 		add	r2, r3, #24
 1387 013e FB69     		ldr	r3, [r7, #28]
 1388 0140 0E33     		adds	r3, r3, #14
 1389 0142 1046     		mov	r0, r2
 1390 0144 1946     		mov	r1, r3
 1391 0146 0422     		movs	r2, #4
 1392 0148 FFF7FEFF 		bl	memcpy
 1393              		.loc 2 783 0
 1394 014c FB69     		ldr	r3, [r7, #28]
 1395 014e 03F10E02 		add	r2, r3, #14
 1396 0152 FB68     		ldr	r3, [r7, #12]
 1397 0154 0433     		adds	r3, r3, #4
 1398 0156 1046     		mov	r0, r2
 1399 0158 1946     		mov	r1, r3
 1400 015a 0422     		movs	r2, #4
 1401 015c FFF7FEFF 		bl	memcpy
 1402              		.loc 2 785 0
 1403 0160 FB68     		ldr	r3, [r7, #12]
 1404 0162 93F82230 		ldrb	r3, [r3, #34]	@ zero_extendqisi2
 1405 0166 062B     		cmp	r3, #6
 1406 0168 02D0     		beq	.L83
 1407              		.loc 2 785 0 is_stmt 0 discriminator 1
 1408 016a 1F48     		ldr	r0, .L89+8
 1409 016c FFF7FEFF 		bl	osalSysHalt
 1410              	.L83:
 1411              		.loc 2 794 0 is_stmt 1
 1412 0170 FB69     		ldr	r3, [r7, #28]
 1413 0172 03F11202 		add	r2, r3, #18
 1414 0176 FB69     		ldr	r3, [r7, #28]
 1415 0178 0833     		adds	r3, r3, #8
 1416 017a 1046     		mov	r0, r2
 1417 017c 1946     		mov	r1, r3
 1418 017e 0622     		movs	r2, #6
 1419 0180 FFF7FEFF 		bl	memcpy
 1420              		.loc 2 798 0
 1421 0184 3A6A     		ldr	r2, [r7, #32]
 1422 0186 FB69     		ldr	r3, [r7, #28]
 1423 0188 0833     		adds	r3, r3, #8
 1424 018a 1046     		mov	r0, r2
 1425 018c 1946     		mov	r1, r3
 1426 018e 0622     		movs	r2, #6
 1427 0190 FFF7FEFF 		bl	memcpy
 1428              		.loc 2 800 0
 1429 0194 FB69     		ldr	r3, [r7, #28]
 1430 0196 0833     		adds	r3, r3, #8
ARM GAS  C:\Users\Luis\AppData\Local\Temp\ccSH6HF5.s 			page 27


 1431 0198 1846     		mov	r0, r3
 1432 019a B968     		ldr	r1, [r7, #8]
 1433 019c 0622     		movs	r2, #6
 1434 019e FFF7FEFF 		bl	memcpy
 1435              		.loc 2 801 0
 1436 01a2 3B6A     		ldr	r3, [r7, #32]
 1437 01a4 0633     		adds	r3, r3, #6
 1438 01a6 1846     		mov	r0, r3
 1439 01a8 B968     		ldr	r1, [r7, #8]
 1440 01aa 0622     		movs	r2, #6
 1441 01ac FFF7FEFF 		bl	memcpy
 1442              		.loc 2 807 0
 1443 01b0 FB68     		ldr	r3, [r7, #12]
 1444 01b2 9B69     		ldr	r3, [r3, #24]
 1445 01b4 F868     		ldr	r0, [r7, #12]
 1446 01b6 7968     		ldr	r1, [r7, #4]
 1447 01b8 9847     		blx	r3
 1448 01ba 02E0     		b	.L84
 1449              	.L82:
 1450              		.loc 2 809 0
 1451 01bc FB68     		ldr	r3, [r7, #12]
 1452 01be 0433     		adds	r3, r3, #4
 1453 01c0 002B     		cmp	r3, #0
 1454              	.L84:
 1455              		.loc 2 817 0
 1456 01c2 07E0     		b	.L85
 1457              	.L87:
 1458              		.loc 2 831 0
 1459 01c4 074B     		ldr	r3, .L89+4
 1460 01c6 9B8D     		ldrh	r3, [r3, #44]
 1461 01c8 0133     		adds	r3, r3, #1
 1462 01ca 9AB2     		uxth	r2, r3
 1463 01cc 054B     		ldr	r3, .L89+4
 1464 01ce 9A85     		strh	r2, [r3, #44]	@ movhi
 1465              		.loc 2 832 0
 1466 01d0 00E0     		b	.L85
 1467              	.L88:
 1468              		.loc 2 828 0
 1469 01d2 00BF     		nop
 1470              	.L85:
 1471              		.loc 2 835 0
 1472 01d4 7868     		ldr	r0, [r7, #4]
 1473 01d6 FFF7FEFF 		bl	pbuf_free
 1474              	.L68:
 1475              		.loc 2 836 0
 1476 01da 2837     		adds	r7, r7, #40
 1477 01dc BD46     		mov	sp, r7
 1478              		@ sp needed
 1479 01de 80BD     		pop	{r7, pc}
 1480              	.L90:
 1481              		.align	2
 1482              	.L89:
 1483 01e0 28010000 		.word	.LC7
 1484 01e4 00000000 		.word	lwip_stats
 1485 01e8 98000000 		.word	.LC4
 1486              		.cfi_endproc
 1487              	.LFE267:
ARM GAS  C:\Users\Luis\AppData\Local\Temp\ccSH6HF5.s 			page 28


 1488              		.size	etharp_arp_input, .-etharp_arp_input
 1489              		.section	.rodata
 1490 0136 0000     		.align	2
 1491              	.LC8:
 1492 0138 6172705F 		.ascii	"arp_table[arp_idx].state >= ETHARP_STATE_STABLE\000"
 1492      7461626C 
 1492      655B6172 
 1492      705F6964 
 1492      785D2E73 
 1493              		.section	.text.etharp_output_to_arp_index,"ax",%progbits
 1494              		.align	2
 1495              		.p2align 4,,15
 1496              		.thumb
 1497              		.thumb_func
 1498              		.type	etharp_output_to_arp_index, %function
 1499              	etharp_output_to_arp_index:
 1500              	.LFB268:
 1501              		.loc 2 843 0
 1502              		.cfi_startproc
 1503              		@ args = 0, pretend = 0, frame = 16
 1504              		@ frame_needed = 1, uses_anonymous_args = 0
 1505 0000 90B5     		push	{r4, r7, lr}
 1506              		.cfi_def_cfa_offset 12
 1507              		.cfi_offset 4, -12
 1508              		.cfi_offset 7, -8
 1509              		.cfi_offset 14, -4
 1510 0002 85B0     		sub	sp, sp, #20
 1511              		.cfi_def_cfa_offset 32
 1512 0004 00AF     		add	r7, sp, #0
 1513              		.cfi_def_cfa_register 7
 1514 0006 F860     		str	r0, [r7, #12]
 1515 0008 B960     		str	r1, [r7, #8]
 1516 000a 1346     		mov	r3, r2
 1517 000c FB71     		strb	r3, [r7, #7]
 1518              		.loc 2 844 0
 1519 000e FA79     		ldrb	r2, [r7, #7]	@ zero_extendqisi2
 1520 0010 2949     		ldr	r1, .L95
 1521 0012 1346     		mov	r3, r2
 1522 0014 9B00     		lsls	r3, r3, #2
 1523 0016 1344     		add	r3, r3, r2
 1524 0018 9B00     		lsls	r3, r3, #2
 1525 001a 0B44     		add	r3, r3, r1
 1526 001c 1033     		adds	r3, r3, #16
 1527 001e 9B78     		ldrb	r3, [r3, #2]	@ zero_extendqisi2
 1528 0020 012B     		cmp	r3, #1
 1529 0022 02D8     		bhi	.L92
 1530              		.loc 2 844 0 is_stmt 0 discriminator 1
 1531 0024 2548     		ldr	r0, .L95+4
 1532 0026 FFF7FEFF 		bl	osalSysHalt
 1533              	.L92:
 1534              		.loc 2 849 0 is_stmt 1
 1535 002a FA79     		ldrb	r2, [r7, #7]	@ zero_extendqisi2
 1536 002c 2249     		ldr	r1, .L95
 1537 002e 1346     		mov	r3, r2
 1538 0030 9B00     		lsls	r3, r3, #2
 1539 0032 1344     		add	r3, r3, r2
 1540 0034 9B00     		lsls	r3, r3, #2
ARM GAS  C:\Users\Luis\AppData\Local\Temp\ccSH6HF5.s 			page 29


 1541 0036 0B44     		add	r3, r3, r1
 1542 0038 1033     		adds	r3, r3, #16
 1543 003a 9B78     		ldrb	r3, [r3, #2]	@ zero_extendqisi2
 1544 003c 022B     		cmp	r3, #2
 1545 003e 23D1     		bne	.L93
 1546              		.loc 2 850 0 discriminator 1
 1547 0040 FA79     		ldrb	r2, [r7, #7]	@ zero_extendqisi2
 1548 0042 1D49     		ldr	r1, .L95
 1549 0044 1346     		mov	r3, r2
 1550 0046 9B00     		lsls	r3, r3, #2
 1551 0048 1344     		add	r3, r3, r2
 1552 004a 9B00     		lsls	r3, r3, #2
 1553 004c 0B44     		add	r3, r3, r1
 1554 004e 1033     		adds	r3, r3, #16
 1555 0050 DB78     		ldrb	r3, [r3, #3]	@ zero_extendqisi2
 1556              		.loc 2 849 0 discriminator 1
 1557 0052 E32B     		cmp	r3, #227
 1558 0054 18D9     		bls	.L93
 1559              		.loc 2 851 0
 1560 0056 FA79     		ldrb	r2, [r7, #7]	@ zero_extendqisi2
 1561 0058 1346     		mov	r3, r2
 1562 005a 9B00     		lsls	r3, r3, #2
 1563 005c 1344     		add	r3, r3, r2
 1564 005e 9B00     		lsls	r3, r3, #2
 1565 0060 154A     		ldr	r2, .L95
 1566 0062 1344     		add	r3, r3, r2
 1567 0064 0433     		adds	r3, r3, #4
 1568 0066 F868     		ldr	r0, [r7, #12]
 1569 0068 1946     		mov	r1, r3
 1570 006a FFF7FEFF 		bl	etharp_request
 1571 006e 0346     		mov	r3, r0
 1572 0070 002B     		cmp	r3, #0
 1573 0072 09D1     		bne	.L93
 1574              		.loc 2 852 0
 1575 0074 FA79     		ldrb	r2, [r7, #7]	@ zero_extendqisi2
 1576 0076 1049     		ldr	r1, .L95
 1577 0078 1346     		mov	r3, r2
 1578 007a 9B00     		lsls	r3, r3, #2
 1579 007c 1344     		add	r3, r3, r2
 1580 007e 9B00     		lsls	r3, r3, #2
 1581 0080 0B44     		add	r3, r3, r1
 1582 0082 1033     		adds	r3, r3, #16
 1583 0084 0322     		movs	r2, #3
 1584 0086 9A70     		strb	r2, [r3, #2]
 1585              	.L93:
 1586              		.loc 2 856 0
 1587 0088 FB68     		ldr	r3, [r7, #12]
 1588 008a 03F12304 		add	r4, r3, #35
 1589              		.loc 2 857 0
 1590 008e FA79     		ldrb	r2, [r7, #7]	@ zero_extendqisi2
 1591              		.loc 2 856 0
 1592 0090 1346     		mov	r3, r2
 1593 0092 9B00     		lsls	r3, r3, #2
 1594 0094 1344     		add	r3, r3, r2
 1595 0096 9B00     		lsls	r3, r3, #2
 1596 0098 03F10802 		add	r2, r3, #8
 1597 009c 064B     		ldr	r3, .L95
ARM GAS  C:\Users\Luis\AppData\Local\Temp\ccSH6HF5.s 			page 30


 1598 009e 1344     		add	r3, r3, r2
 1599 00a0 0433     		adds	r3, r3, #4
 1600 00a2 F868     		ldr	r0, [r7, #12]
 1601 00a4 B968     		ldr	r1, [r7, #8]
 1602 00a6 2246     		mov	r2, r4
 1603 00a8 FFF7FEFF 		bl	etharp_send_ip
 1604 00ac 0346     		mov	r3, r0
 1605              		.loc 2 858 0
 1606 00ae 1846     		mov	r0, r3
 1607 00b0 1437     		adds	r7, r7, #20
 1608 00b2 BD46     		mov	sp, r7
 1609              		@ sp needed
 1610 00b4 90BD     		pop	{r4, r7, pc}
 1611              	.L96:
 1612 00b6 00BF     		.align	2
 1613              	.L95:
 1614 00b8 00000000 		.word	arp_table
 1615 00bc 38010000 		.word	.LC8
 1616              		.cfi_endproc
 1617              	.LFE268:
 1618              		.size	etharp_output_to_arp_index, .-etharp_output_to_arp_index
 1619              		.section	.rodata
 1620              		.align	2
 1621              	.LC9:
 1622 0168 7120213D 		.ascii	"q != NULL\000"
 1622      204E554C 
 1622      4C00
 1623 0172 0000     		.align	2
 1624              	.LC10:
 1625 0174 69706164 		.ascii	"ipaddr != NULL\000"
 1625      64722021 
 1625      3D204E55 
 1625      4C4C00
 1626              		.section	.text.etharp_output,"ax",%progbits
 1627              		.align	2
 1628              		.p2align 4,,15
 1629              		.global	etharp_output
 1630              		.thumb
 1631              		.thumb_func
 1632              		.type	etharp_output, %function
 1633              	etharp_output:
 1634              	.LFB269:
 1635              		.loc 2 880 0
 1636              		.cfi_startproc
 1637              		@ args = 0, pretend = 0, frame = 32
 1638              		@ frame_needed = 1, uses_anonymous_args = 0
 1639 0000 80B5     		push	{r7, lr}
 1640              		.cfi_def_cfa_offset 8
 1641              		.cfi_offset 7, -8
 1642              		.cfi_offset 14, -4
 1643 0002 88B0     		sub	sp, sp, #32
 1644              		.cfi_def_cfa_offset 40
 1645 0004 00AF     		add	r7, sp, #0
 1646              		.cfi_def_cfa_register 7
 1647 0006 F860     		str	r0, [r7, #12]
 1648 0008 B960     		str	r1, [r7, #8]
 1649 000a 7A60     		str	r2, [r7, #4]
ARM GAS  C:\Users\Luis\AppData\Local\Temp\ccSH6HF5.s 			page 31


 1650              		.loc 2 883 0
 1651 000c 7B68     		ldr	r3, [r7, #4]
 1652 000e BB61     		str	r3, [r7, #24]
 1653              		.loc 2 885 0
 1654 0010 FB68     		ldr	r3, [r7, #12]
 1655 0012 002B     		cmp	r3, #0
 1656 0014 02D1     		bne	.L98
 1657              		.loc 2 885 0 is_stmt 0 discriminator 1
 1658 0016 6A48     		ldr	r0, .L113
 1659 0018 FFF7FEFF 		bl	osalSysHalt
 1660              	.L98:
 1661              		.loc 2 886 0 is_stmt 1
 1662 001c BB68     		ldr	r3, [r7, #8]
 1663 001e 002B     		cmp	r3, #0
 1664 0020 02D1     		bne	.L99
 1665              		.loc 2 886 0 is_stmt 0 discriminator 1
 1666 0022 6848     		ldr	r0, .L113+4
 1667 0024 FFF7FEFF 		bl	osalSysHalt
 1668              	.L99:
 1669              		.loc 2 887 0 is_stmt 1
 1670 0028 7B68     		ldr	r3, [r7, #4]
 1671 002a 002B     		cmp	r3, #0
 1672 002c 02D1     		bne	.L100
 1673              		.loc 2 887 0 is_stmt 0 discriminator 1
 1674 002e 6648     		ldr	r0, .L113+8
 1675 0030 FFF7FEFF 		bl	osalSysHalt
 1676              	.L100:
 1677              		.loc 2 890 0 is_stmt 1
 1678 0034 B868     		ldr	r0, [r7, #8]
 1679 0036 0E21     		movs	r1, #14
 1680 0038 FFF7FEFF 		bl	pbuf_header
 1681 003c 0346     		mov	r3, r0
 1682 003e 002B     		cmp	r3, #0
 1683 0040 07D0     		beq	.L101
 1684              		.loc 2 894 0
 1685 0042 624B     		ldr	r3, .L113+12
 1686 0044 5B89     		ldrh	r3, [r3, #10]
 1687 0046 0133     		adds	r3, r3, #1
 1688 0048 9AB2     		uxth	r2, r3
 1689 004a 604B     		ldr	r3, .L113+12
 1690 004c 5A81     		strh	r2, [r3, #10]	@ movhi
 1691              		.loc 2 895 0
 1692 004e FE23     		movs	r3, #254
 1693 0050 B1E0     		b	.L112
 1694              	.L101:
 1695              		.loc 2 902 0
 1696 0052 7B68     		ldr	r3, [r7, #4]
 1697 0054 1B68     		ldr	r3, [r3]
 1698 0056 1846     		mov	r0, r3
 1699 0058 F968     		ldr	r1, [r7, #12]
 1700 005a FFF7FEFF 		bl	ip4_addr_isbroadcast
 1701 005e 0346     		mov	r3, r0
 1702 0060 002B     		cmp	r3, #0
 1703 0062 02D0     		beq	.L103
 1704              		.loc 2 904 0
 1705 0064 5A4B     		ldr	r3, .L113+16
 1706 0066 FB61     		str	r3, [r7, #28]
ARM GAS  C:\Users\Luis\AppData\Local\Temp\ccSH6HF5.s 			page 32


 1707 0068 9CE0     		b	.L104
 1708              	.L103:
 1709              		.loc 2 906 0
 1710 006a 7B68     		ldr	r3, [r7, #4]
 1711 006c 1B68     		ldr	r3, [r3]
 1712 006e 03F0F003 		and	r3, r3, #240
 1713 0072 E02B     		cmp	r3, #224
 1714 0074 16D1     		bne	.L105
 1715              		.loc 2 908 0
 1716 0076 0123     		movs	r3, #1
 1717 0078 3B74     		strb	r3, [r7, #16]
 1718              		.loc 2 909 0
 1719 007a 0023     		movs	r3, #0
 1720 007c 7B74     		strb	r3, [r7, #17]
 1721              		.loc 2 910 0
 1722 007e 5E23     		movs	r3, #94
 1723 0080 BB74     		strb	r3, [r7, #18]
 1724              		.loc 2 911 0
 1725 0082 7B68     		ldr	r3, [r7, #4]
 1726 0084 0133     		adds	r3, r3, #1
 1727 0086 1B78     		ldrb	r3, [r3]	@ zero_extendqisi2
 1728 0088 03F07F03 		and	r3, r3, #127
 1729 008c DBB2     		uxtb	r3, r3
 1730 008e FB74     		strb	r3, [r7, #19]
 1731              		.loc 2 912 0
 1732 0090 7B68     		ldr	r3, [r7, #4]
 1733 0092 9B78     		ldrb	r3, [r3, #2]	@ zero_extendqisi2
 1734 0094 3B75     		strb	r3, [r7, #20]
 1735              		.loc 2 913 0
 1736 0096 7B68     		ldr	r3, [r7, #4]
 1737 0098 DB78     		ldrb	r3, [r3, #3]	@ zero_extendqisi2
 1738 009a 7B75     		strb	r3, [r7, #21]
 1739              		.loc 2 915 0
 1740 009c 07F11003 		add	r3, r7, #16
 1741 00a0 FB61     		str	r3, [r7, #28]
 1742 00a2 7FE0     		b	.L104
 1743              	.L105:
 1744              	.LBB6:
 1745              		.loc 2 921 0
 1746 00a4 7B68     		ldr	r3, [r7, #4]
 1747 00a6 1A68     		ldr	r2, [r3]
 1748 00a8 FB68     		ldr	r3, [r7, #12]
 1749 00aa 5B68     		ldr	r3, [r3, #4]
 1750 00ac 5A40     		eors	r2, r2, r3
 1751 00ae FB68     		ldr	r3, [r7, #12]
 1752 00b0 9B68     		ldr	r3, [r3, #8]
 1753 00b2 1340     		ands	r3, r3, r2
 1754 00b4 002B     		cmp	r3, #0
 1755 00b6 14D0     		beq	.L106
 1756              		.loc 2 922 0 discriminator 1
 1757 00b8 7B68     		ldr	r3, [r7, #4]
 1758 00ba 1B68     		ldr	r3, [r3]
 1759 00bc 9AB2     		uxth	r2, r3
 1760              		.loc 2 921 0 discriminator 1
 1761 00be 4FF6A963 		movw	r3, #65193
 1762 00c2 9A42     		cmp	r2, r3
 1763 00c4 0DD0     		beq	.L106
ARM GAS  C:\Users\Luis\AppData\Local\Temp\ccSH6HF5.s 			page 33


 1764              		.loc 2 934 0
 1765 00c6 FB68     		ldr	r3, [r7, #12]
 1766 00c8 0C33     		adds	r3, r3, #12
 1767 00ca 002B     		cmp	r3, #0
 1768 00cc 07D0     		beq	.L107
 1769              		.loc 2 934 0 is_stmt 0 discriminator 1
 1770 00ce FB68     		ldr	r3, [r7, #12]
 1771 00d0 DB68     		ldr	r3, [r3, #12]
 1772 00d2 002B     		cmp	r3, #0
 1773 00d4 03D0     		beq	.L107
 1774              		.loc 2 936 0 is_stmt 1
 1775 00d6 FB68     		ldr	r3, [r7, #12]
 1776 00d8 0C33     		adds	r3, r3, #12
 1777 00da BB61     		str	r3, [r7, #24]
 1778 00dc 01E0     		b	.L106
 1779              	.L107:
 1780              		.loc 2 940 0
 1781 00de FC23     		movs	r3, #252
 1782 00e0 69E0     		b	.L112
 1783              	.L106:
 1784              		.loc 2 950 0
 1785 00e2 3C4B     		ldr	r3, .L113+20
 1786 00e4 1B78     		ldrb	r3, [r3]	@ zero_extendqisi2
 1787 00e6 1A46     		mov	r2, r3
 1788 00e8 3B49     		ldr	r1, .L113+24
 1789 00ea 1346     		mov	r3, r2
 1790 00ec 9B00     		lsls	r3, r3, #2
 1791 00ee 1344     		add	r3, r3, r2
 1792 00f0 9B00     		lsls	r3, r3, #2
 1793 00f2 0B44     		add	r3, r3, r1
 1794 00f4 1033     		adds	r3, r3, #16
 1795 00f6 9B78     		ldrb	r3, [r3, #2]	@ zero_extendqisi2
 1796 00f8 012B     		cmp	r3, #1
 1797 00fa 1DD9     		bls	.L108
 1798              		.loc 2 951 0 discriminator 1
 1799 00fc BB69     		ldr	r3, [r7, #24]
 1800 00fe 1968     		ldr	r1, [r3]
 1801 0100 344B     		ldr	r3, .L113+20
 1802 0102 1B78     		ldrb	r3, [r3]	@ zero_extendqisi2
 1803 0104 1A46     		mov	r2, r3
 1804 0106 3448     		ldr	r0, .L113+24
 1805 0108 1346     		mov	r3, r2
 1806 010a 9B00     		lsls	r3, r3, #2
 1807 010c 1344     		add	r3, r3, r2
 1808 010e 9B00     		lsls	r3, r3, #2
 1809 0110 0344     		add	r3, r3, r0
 1810 0112 0433     		adds	r3, r3, #4
 1811 0114 1B68     		ldr	r3, [r3]
 1812              		.loc 2 950 0 discriminator 1
 1813 0116 9942     		cmp	r1, r3
 1814 0118 0ED1     		bne	.L108
 1815              		.loc 2 953 0
 1816 011a 2C4B     		ldr	r3, .L113+12
 1817 011c DB8D     		ldrh	r3, [r3, #46]
 1818 011e 0133     		adds	r3, r3, #1
 1819 0120 9AB2     		uxth	r2, r3
 1820 0122 2A4B     		ldr	r3, .L113+12
ARM GAS  C:\Users\Luis\AppData\Local\Temp\ccSH6HF5.s 			page 34


 1821 0124 DA85     		strh	r2, [r3, #46]	@ movhi
 1822              		.loc 2 954 0
 1823 0126 2B4B     		ldr	r3, .L113+20
 1824 0128 1B78     		ldrb	r3, [r3]	@ zero_extendqisi2
 1825 012a F868     		ldr	r0, [r7, #12]
 1826 012c B968     		ldr	r1, [r7, #8]
 1827 012e 1A46     		mov	r2, r3
 1828 0130 FFF7FEFF 		bl	etharp_output_to_arp_index
 1829 0134 0346     		mov	r3, r0
 1830 0136 3EE0     		b	.L112
 1831              	.L108:
 1832              		.loc 2 963 0
 1833 0138 0023     		movs	r3, #0
 1834 013a FB75     		strb	r3, [r7, #23]
 1835 013c 27E0     		b	.L109
 1836              	.L111:
 1837              		.loc 2 964 0
 1838 013e 97F91720 		ldrsb	r2, [r7, #23]
 1839 0142 2549     		ldr	r1, .L113+24
 1840 0144 1346     		mov	r3, r2
 1841 0146 9B00     		lsls	r3, r3, #2
 1842 0148 1344     		add	r3, r3, r2
 1843 014a 9B00     		lsls	r3, r3, #2
 1844 014c 0B44     		add	r3, r3, r1
 1845 014e 1033     		adds	r3, r3, #16
 1846 0150 9B78     		ldrb	r3, [r3, #2]	@ zero_extendqisi2
 1847 0152 012B     		cmp	r3, #1
 1848 0154 18D9     		bls	.L110
 1849              		.loc 2 965 0 discriminator 1
 1850 0156 BB69     		ldr	r3, [r7, #24]
 1851 0158 1968     		ldr	r1, [r3]
 1852 015a 97F91720 		ldrsb	r2, [r7, #23]
 1853 015e 1E48     		ldr	r0, .L113+24
 1854 0160 1346     		mov	r3, r2
 1855 0162 9B00     		lsls	r3, r3, #2
 1856 0164 1344     		add	r3, r3, r2
 1857 0166 9B00     		lsls	r3, r3, #2
 1858 0168 0344     		add	r3, r3, r0
 1859 016a 0433     		adds	r3, r3, #4
 1860 016c 1B68     		ldr	r3, [r3]
 1861              		.loc 2 964 0 discriminator 1
 1862 016e 9942     		cmp	r1, r3
 1863 0170 0AD1     		bne	.L110
 1864              		.loc 2 967 0
 1865 0172 FA7D     		ldrb	r2, [r7, #23]	@ zero_extendqisi2
 1866 0174 174B     		ldr	r3, .L113+20
 1867 0176 1A70     		strb	r2, [r3]
 1868              		.loc 2 968 0
 1869 0178 FB7D     		ldrb	r3, [r7, #23]	@ zero_extendqisi2
 1870 017a F868     		ldr	r0, [r7, #12]
 1871 017c B968     		ldr	r1, [r7, #8]
 1872 017e 1A46     		mov	r2, r3
 1873 0180 FFF7FEFF 		bl	etharp_output_to_arp_index
 1874 0184 0346     		mov	r3, r0
 1875 0186 16E0     		b	.L112
 1876              	.L110:
 1877              		.loc 2 963 0
ARM GAS  C:\Users\Luis\AppData\Local\Temp\ccSH6HF5.s 			page 35


 1878 0188 FB7D     		ldrb	r3, [r7, #23]	@ zero_extendqisi2
 1879 018a 0133     		adds	r3, r3, #1
 1880 018c FB75     		strb	r3, [r7, #23]
 1881              	.L109:
 1882              		.loc 2 963 0 is_stmt 0 discriminator 1
 1883 018e 97F91730 		ldrsb	r3, [r7, #23]
 1884 0192 092B     		cmp	r3, #9
 1885 0194 D3DD     		ble	.L111
 1886              		.loc 2 973 0 is_stmt 1
 1887 0196 F868     		ldr	r0, [r7, #12]
 1888 0198 B969     		ldr	r1, [r7, #24]
 1889 019a BA68     		ldr	r2, [r7, #8]
 1890 019c FFF7FEFF 		bl	etharp_query
 1891 01a0 0346     		mov	r3, r0
 1892 01a2 08E0     		b	.L112
 1893              	.L104:
 1894              	.LBE6:
 1895              		.loc 2 979 0
 1896 01a4 FB68     		ldr	r3, [r7, #12]
 1897 01a6 2333     		adds	r3, r3, #35
 1898 01a8 F868     		ldr	r0, [r7, #12]
 1899 01aa B968     		ldr	r1, [r7, #8]
 1900 01ac 1A46     		mov	r2, r3
 1901 01ae FB69     		ldr	r3, [r7, #28]
 1902 01b0 FFF7FEFF 		bl	etharp_send_ip
 1903 01b4 0346     		mov	r3, r0
 1904              	.L112:
 1905 01b6 5BB2     		sxtb	r3, r3
 1906              		.loc 2 980 0
 1907 01b8 1846     		mov	r0, r3
 1908 01ba 2037     		adds	r7, r7, #32
 1909 01bc BD46     		mov	sp, r7
 1910              		@ sp needed
 1911 01be 80BD     		pop	{r7, pc}
 1912              	.L114:
 1913              		.align	2
 1914              	.L113:
 1915 01c0 28010000 		.word	.LC7
 1916 01c4 68010000 		.word	.LC9
 1917 01c8 74010000 		.word	.LC10
 1918 01cc 00000000 		.word	lwip_stats
 1919 01d0 00000000 		.word	ethbroadcast
 1920 01d4 00000000 		.word	etharp_cached_entry
 1921 01d8 00000000 		.word	arp_table
 1922              		.cfi_endproc
 1923              	.LFE269:
 1924              		.size	etharp_output, .-etharp_output
 1925 01dc AFF30080 		.section	.rodata
 1926 0183 00       		.align	2
 1927              	.LC11:
 1928 0184 6172705F 		.ascii	"arp_table[i].state == PENDING or STABLE\000"
 1928      7461626C 
 1928      655B695D 
 1928      2E737461 
 1928      7465203D 
 1929              		.align	2
 1930              	.LC12:
ARM GAS  C:\Users\Luis\AppData\Local\Temp\ccSH6HF5.s 			page 36


 1931 01ac 6E6F2070 		.ascii	"no packet queues allowed!\000"
 1931      61636B65 
 1931      74207175 
 1931      65756573 
 1931      20616C6C 
 1932              		.section	.text.etharp_query,"ax",%progbits
 1933              		.align	2
 1934              		.p2align 4,,15
 1935              		.global	etharp_query
 1936              		.thumb
 1937              		.thumb_func
 1938              		.type	etharp_query, %function
 1939              	etharp_query:
 1940              	.LFB270:
 1941              		.loc 2 1017 0
 1942              		.cfi_startproc
 1943              		@ args = 0, pretend = 0, frame = 40
 1944              		@ frame_needed = 1, uses_anonymous_args = 0
 1945 0000 80B5     		push	{r7, lr}
 1946              		.cfi_def_cfa_offset 8
 1947              		.cfi_offset 7, -8
 1948              		.cfi_offset 14, -4
 1949 0002 8AB0     		sub	sp, sp, #40
 1950              		.cfi_def_cfa_offset 48
 1951 0004 00AF     		add	r7, sp, #0
 1952              		.cfi_def_cfa_register 7
 1953 0006 F860     		str	r0, [r7, #12]
 1954 0008 B960     		str	r1, [r7, #8]
 1955 000a 7A60     		str	r2, [r7, #4]
 1956              		.loc 2 1018 0
 1957 000c FB68     		ldr	r3, [r7, #12]
 1958 000e 2333     		adds	r3, r3, #35
 1959 0010 BB61     		str	r3, [r7, #24]
 1960              		.loc 2 1019 0
 1961 0012 FF23     		movs	r3, #255
 1962 0014 87F82730 		strb	r3, [r7, #39]
 1963              		.loc 2 1023 0
 1964 0018 BB68     		ldr	r3, [r7, #8]
 1965 001a 1B68     		ldr	r3, [r3]
 1966 001c 1846     		mov	r0, r3
 1967 001e F968     		ldr	r1, [r7, #12]
 1968 0020 FFF7FEFF 		bl	ip4_addr_isbroadcast
 1969 0024 0346     		mov	r3, r0
 1970 0026 002B     		cmp	r3, #0
 1971 0028 0CD1     		bne	.L116
 1972              		.loc 2 1024 0 discriminator 1
 1973 002a BB68     		ldr	r3, [r7, #8]
 1974 002c 1B68     		ldr	r3, [r3]
 1975 002e 03F0F003 		and	r3, r3, #240
 1976              		.loc 2 1023 0 discriminator 1
 1977 0032 E02B     		cmp	r3, #224
 1978 0034 06D0     		beq	.L116
 1979              		.loc 2 1024 0
 1980 0036 BB68     		ldr	r3, [r7, #8]
 1981 0038 002B     		cmp	r3, #0
 1982 003a 03D0     		beq	.L116
 1983              		.loc 2 1025 0
ARM GAS  C:\Users\Luis\AppData\Local\Temp\ccSH6HF5.s 			page 37


 1984 003c BB68     		ldr	r3, [r7, #8]
 1985 003e 1B68     		ldr	r3, [r3]
 1986 0040 002B     		cmp	r3, #0
 1987 0042 01D1     		bne	.L117
 1988              	.L116:
 1989              		.loc 2 1027 0
 1990 0044 F223     		movs	r3, #242
 1991 0046 09E1     		b	.L118
 1992              	.L117:
 1993              		.loc 2 1031 0
 1994 0048 B868     		ldr	r0, [r7, #8]
 1995 004a 0121     		movs	r1, #1
 1996 004c FFF7FEFF 		bl	etharp_find_entry
 1997 0050 0346     		mov	r3, r0
 1998 0052 FB75     		strb	r3, [r7, #23]
 1999              		.loc 2 1034 0
 2000 0054 97F91730 		ldrsb	r3, [r7, #23]
 2001 0058 002B     		cmp	r3, #0
 2002 005a 0ADA     		bge	.L119
 2003              		.loc 2 1036 0
 2004 005c 7B68     		ldr	r3, [r7, #4]
 2005 005e 002B     		cmp	r3, #0
 2006 0060 05D0     		beq	.L120
 2007              		.loc 2 1038 0
 2008 0062 814B     		ldr	r3, .L138
 2009 0064 9B8C     		ldrh	r3, [r3, #36]
 2010 0066 0133     		adds	r3, r3, #1
 2011 0068 9AB2     		uxth	r2, r3
 2012 006a 7F4B     		ldr	r3, .L138
 2013 006c 9A84     		strh	r2, [r3, #36]	@ movhi
 2014              	.L120:
 2015              		.loc 2 1040 0
 2016 006e FB7D     		ldrb	r3, [r7, #23]	@ zero_extendqisi2
 2017 0070 F4E0     		b	.L118
 2018              	.L119:
 2019              		.loc 2 1044 0
 2020 0072 97F91720 		ldrsb	r2, [r7, #23]
 2021 0076 7D49     		ldr	r1, .L138+4
 2022 0078 1346     		mov	r3, r2
 2023 007a 9B00     		lsls	r3, r3, #2
 2024 007c 1344     		add	r3, r3, r2
 2025 007e 9B00     		lsls	r3, r3, #2
 2026 0080 0B44     		add	r3, r3, r1
 2027 0082 1033     		adds	r3, r3, #16
 2028 0084 9B78     		ldrb	r3, [r3, #2]	@ zero_extendqisi2
 2029 0086 002B     		cmp	r3, #0
 2030 0088 0AD1     		bne	.L121
 2031              		.loc 2 1045 0
 2032 008a 97F91720 		ldrsb	r2, [r7, #23]
 2033 008e 7749     		ldr	r1, .L138+4
 2034 0090 1346     		mov	r3, r2
 2035 0092 9B00     		lsls	r3, r3, #2
 2036 0094 1344     		add	r3, r3, r2
 2037 0096 9B00     		lsls	r3, r3, #2
 2038 0098 0B44     		add	r3, r3, r1
 2039 009a 1033     		adds	r3, r3, #16
 2040 009c 0122     		movs	r2, #1
ARM GAS  C:\Users\Luis\AppData\Local\Temp\ccSH6HF5.s 			page 38


 2041 009e 9A70     		strb	r2, [r3, #2]
 2042              	.L121:
 2043              		.loc 2 1049 0
 2044 00a0 97F91720 		ldrsb	r2, [r7, #23]
 2045 00a4 7149     		ldr	r1, .L138+4
 2046 00a6 1346     		mov	r3, r2
 2047 00a8 9B00     		lsls	r3, r3, #2
 2048 00aa 1344     		add	r3, r3, r2
 2049 00ac 9B00     		lsls	r3, r3, #2
 2050 00ae 0B44     		add	r3, r3, r1
 2051 00b0 1033     		adds	r3, r3, #16
 2052 00b2 9B78     		ldrb	r3, [r3, #2]	@ zero_extendqisi2
 2053 00b4 012B     		cmp	r3, #1
 2054 00b6 0ED0     		beq	.L122
 2055              		.loc 2 1049 0 is_stmt 0 discriminator 1
 2056 00b8 97F91720 		ldrsb	r2, [r7, #23]
 2057 00bc 6B49     		ldr	r1, .L138+4
 2058 00be 1346     		mov	r3, r2
 2059 00c0 9B00     		lsls	r3, r3, #2
 2060 00c2 1344     		add	r3, r3, r2
 2061 00c4 9B00     		lsls	r3, r3, #2
 2062 00c6 0B44     		add	r3, r3, r1
 2063 00c8 1033     		adds	r3, r3, #16
 2064 00ca 9B78     		ldrb	r3, [r3, #2]	@ zero_extendqisi2
 2065 00cc 012B     		cmp	r3, #1
 2066 00ce 02D8     		bhi	.L122
 2067 00d0 6748     		ldr	r0, .L138+8
 2068 00d2 FFF7FEFF 		bl	osalSysHalt
 2069              	.L122:
 2070              		.loc 2 1054 0 is_stmt 1
 2071 00d6 97F91720 		ldrsb	r2, [r7, #23]
 2072 00da 6449     		ldr	r1, .L138+4
 2073 00dc 1346     		mov	r3, r2
 2074 00de 9B00     		lsls	r3, r3, #2
 2075 00e0 1344     		add	r3, r3, r2
 2076 00e2 9B00     		lsls	r3, r3, #2
 2077 00e4 0B44     		add	r3, r3, r1
 2078 00e6 1033     		adds	r3, r3, #16
 2079 00e8 9B78     		ldrb	r3, [r3, #2]	@ zero_extendqisi2
 2080 00ea 012B     		cmp	r3, #1
 2081 00ec 02D0     		beq	.L123
 2082              		.loc 2 1054 0 is_stmt 0 discriminator 1
 2083 00ee 7B68     		ldr	r3, [r7, #4]
 2084 00f0 002B     		cmp	r3, #0
 2085 00f2 0CD1     		bne	.L124
 2086              	.L123:
 2087              		.loc 2 1056 0 is_stmt 1
 2088 00f4 F868     		ldr	r0, [r7, #12]
 2089 00f6 B968     		ldr	r1, [r7, #8]
 2090 00f8 FFF7FEFF 		bl	etharp_request
 2091 00fc 0346     		mov	r3, r0
 2092 00fe 87F82730 		strb	r3, [r7, #39]
 2093              		.loc 2 1063 0
 2094 0102 7B68     		ldr	r3, [r7, #4]
 2095 0104 002B     		cmp	r3, #0
 2096 0106 02D1     		bne	.L124
 2097              		.loc 2 1064 0
ARM GAS  C:\Users\Luis\AppData\Local\Temp\ccSH6HF5.s 			page 39


 2098 0108 97F82730 		ldrb	r3, [r7, #39]	@ zero_extendqisi2
 2099 010c A6E0     		b	.L118
 2100              	.L124:
 2101              		.loc 2 1069 0
 2102 010e 7B68     		ldr	r3, [r7, #4]
 2103 0110 002B     		cmp	r3, #0
 2104 0112 02D1     		bne	.L125
 2105              		.loc 2 1069 0 is_stmt 0 discriminator 1
 2106 0114 5748     		ldr	r0, .L138+12
 2107 0116 FFF7FEFF 		bl	osalSysHalt
 2108              	.L125:
 2109              		.loc 2 1071 0 is_stmt 1
 2110 011a 97F91720 		ldrsb	r2, [r7, #23]
 2111 011e 5349     		ldr	r1, .L138+4
 2112 0120 1346     		mov	r3, r2
 2113 0122 9B00     		lsls	r3, r3, #2
 2114 0124 1344     		add	r3, r3, r2
 2115 0126 9B00     		lsls	r3, r3, #2
 2116 0128 0B44     		add	r3, r3, r1
 2117 012a 1033     		adds	r3, r3, #16
 2118 012c 9B78     		ldrb	r3, [r3, #2]	@ zero_extendqisi2
 2119 012e 012B     		cmp	r3, #1
 2120 0130 16D9     		bls	.L126
 2121              		.loc 2 1073 0
 2122 0132 FA7D     		ldrb	r2, [r7, #23]	@ zero_extendqisi2
 2123 0134 504B     		ldr	r3, .L138+16
 2124 0136 1A70     		strb	r2, [r3]
 2125              		.loc 2 1075 0
 2126 0138 97F91720 		ldrsb	r2, [r7, #23]
 2127 013c 1346     		mov	r3, r2
 2128 013e 9B00     		lsls	r3, r3, #2
 2129 0140 1344     		add	r3, r3, r2
 2130 0142 9B00     		lsls	r3, r3, #2
 2131 0144 03F10802 		add	r2, r3, #8
 2132 0148 484B     		ldr	r3, .L138+4
 2133 014a 1344     		add	r3, r3, r2
 2134 014c 0433     		adds	r3, r3, #4
 2135 014e F868     		ldr	r0, [r7, #12]
 2136 0150 7968     		ldr	r1, [r7, #4]
 2137 0152 BA69     		ldr	r2, [r7, #24]
 2138 0154 FFF7FEFF 		bl	etharp_send_ip
 2139 0158 0346     		mov	r3, r0
 2140 015a 87F82730 		strb	r3, [r7, #39]
 2141 015e 7BE0     		b	.L127
 2142              	.L126:
 2143              		.loc 2 1077 0
 2144 0160 97F91720 		ldrsb	r2, [r7, #23]
 2145 0164 4149     		ldr	r1, .L138+4
 2146 0166 1346     		mov	r3, r2
 2147 0168 9B00     		lsls	r3, r3, #2
 2148 016a 1344     		add	r3, r3, r2
 2149 016c 9B00     		lsls	r3, r3, #2
 2150 016e 0B44     		add	r3, r3, r1
 2151 0170 1033     		adds	r3, r3, #16
 2152 0172 9B78     		ldrb	r3, [r3, #2]	@ zero_extendqisi2
 2153 0174 012B     		cmp	r3, #1
 2154 0176 6FD1     		bne	.L127
ARM GAS  C:\Users\Luis\AppData\Local\Temp\ccSH6HF5.s 			page 40


 2155              	.LBB7:
 2156              		.loc 2 1080 0
 2157 0178 0023     		movs	r3, #0
 2158 017a FB61     		str	r3, [r7, #28]
 2159              		.loc 2 1084 0
 2160 017c 7B68     		ldr	r3, [r7, #4]
 2161 017e 3B62     		str	r3, [r7, #32]
 2162              		.loc 2 1085 0
 2163 0180 16E0     		b	.L128
 2164              	.L132:
 2165              		.loc 2 1086 0
 2166 0182 3B6A     		ldr	r3, [r7, #32]
 2167 0184 5A89     		ldrh	r2, [r3, #10]
 2168 0186 3B6A     		ldr	r3, [r7, #32]
 2169 0188 1B89     		ldrh	r3, [r3, #8]
 2170 018a 9A42     		cmp	r2, r3
 2171 018c 06D1     		bne	.L129
 2172              		.loc 2 1086 0 is_stmt 0 discriminator 1
 2173 018e 3B6A     		ldr	r3, [r7, #32]
 2174 0190 1B68     		ldr	r3, [r3]
 2175 0192 002B     		cmp	r3, #0
 2176 0194 02D0     		beq	.L129
 2177 0196 3948     		ldr	r0, .L138+20
 2178 0198 FFF7FEFF 		bl	osalSysHalt
 2179              	.L129:
 2180              		.loc 2 1087 0 is_stmt 1
 2181 019c 3B6A     		ldr	r3, [r7, #32]
 2182 019e 1B7B     		ldrb	r3, [r3, #12]	@ zero_extendqisi2
 2183 01a0 012B     		cmp	r3, #1
 2184 01a2 02D0     		beq	.L130
 2185              		.loc 2 1088 0
 2186 01a4 0123     		movs	r3, #1
 2187 01a6 FB61     		str	r3, [r7, #28]
 2188              		.loc 2 1089 0
 2189 01a8 05E0     		b	.L131
 2190              	.L130:
 2191              		.loc 2 1091 0
 2192 01aa 3B6A     		ldr	r3, [r7, #32]
 2193 01ac 1B68     		ldr	r3, [r3]
 2194 01ae 3B62     		str	r3, [r7, #32]
 2195              	.L128:
 2196              		.loc 2 1085 0 discriminator 1
 2197 01b0 3B6A     		ldr	r3, [r7, #32]
 2198 01b2 002B     		cmp	r3, #0
 2199 01b4 E5D1     		bne	.L132
 2200              	.L131:
 2201              		.loc 2 1093 0
 2202 01b6 FB69     		ldr	r3, [r7, #28]
 2203 01b8 002B     		cmp	r3, #0
 2204 01ba 17D0     		beq	.L133
 2205              		.loc 2 1095 0
 2206 01bc 3B6A     		ldr	r3, [r7, #32]
 2207 01be 1B89     		ldrh	r3, [r3, #8]
 2208 01c0 0320     		movs	r0, #3
 2209 01c2 1946     		mov	r1, r3
 2210 01c4 0022     		movs	r2, #0
 2211 01c6 FFF7FEFF 		bl	pbuf_alloc
ARM GAS  C:\Users\Luis\AppData\Local\Temp\ccSH6HF5.s 			page 41


 2212 01ca 3862     		str	r0, [r7, #32]
 2213              		.loc 2 1096 0
 2214 01cc 3B6A     		ldr	r3, [r7, #32]
 2215 01ce 002B     		cmp	r3, #0
 2216 01d0 11D0     		beq	.L135
 2217              		.loc 2 1097 0
 2218 01d2 386A     		ldr	r0, [r7, #32]
 2219 01d4 7968     		ldr	r1, [r7, #4]
 2220 01d6 FFF7FEFF 		bl	pbuf_copy
 2221 01da 0346     		mov	r3, r0
 2222 01dc 002B     		cmp	r3, #0
 2223 01de 0AD0     		beq	.L135
 2224              		.loc 2 1098 0
 2225 01e0 386A     		ldr	r0, [r7, #32]
 2226 01e2 FFF7FEFF 		bl	pbuf_free
 2227              		.loc 2 1099 0
 2228 01e6 0023     		movs	r3, #0
 2229 01e8 3B62     		str	r3, [r7, #32]
 2230 01ea 04E0     		b	.L135
 2231              	.L133:
 2232              		.loc 2 1104 0
 2233 01ec 7B68     		ldr	r3, [r7, #4]
 2234 01ee 3B62     		str	r3, [r7, #32]
 2235              		.loc 2 1105 0
 2236 01f0 386A     		ldr	r0, [r7, #32]
 2237 01f2 FFF7FEFF 		bl	pbuf_ref
 2238              	.L135:
 2239              		.loc 2 1108 0
 2240 01f6 3B6A     		ldr	r3, [r7, #32]
 2241 01f8 002B     		cmp	r3, #0
 2242 01fa 24D0     		beq	.L136
 2243              		.loc 2 1139 0
 2244 01fc 97F91720 		ldrsb	r2, [r7, #23]
 2245 0200 1A49     		ldr	r1, .L138+4
 2246 0202 1346     		mov	r3, r2
 2247 0204 9B00     		lsls	r3, r3, #2
 2248 0206 1344     		add	r3, r3, r2
 2249 0208 9B00     		lsls	r3, r3, #2
 2250 020a 0B44     		add	r3, r3, r1
 2251 020c 1B68     		ldr	r3, [r3]
 2252 020e 002B     		cmp	r3, #0
 2253 0210 0BD0     		beq	.L137
 2254              		.loc 2 1141 0
 2255 0212 97F91720 		ldrsb	r2, [r7, #23]
 2256 0216 1549     		ldr	r1, .L138+4
 2257 0218 1346     		mov	r3, r2
 2258 021a 9B00     		lsls	r3, r3, #2
 2259 021c 1344     		add	r3, r3, r2
 2260 021e 9B00     		lsls	r3, r3, #2
 2261 0220 0B44     		add	r3, r3, r1
 2262 0222 1B68     		ldr	r3, [r3]
 2263 0224 1846     		mov	r0, r3
 2264 0226 FFF7FEFF 		bl	pbuf_free
 2265              	.L137:
 2266              		.loc 2 1143 0
 2267 022a 97F91720 		ldrsb	r2, [r7, #23]
 2268 022e 0F49     		ldr	r1, .L138+4
ARM GAS  C:\Users\Luis\AppData\Local\Temp\ccSH6HF5.s 			page 42


 2269 0230 1346     		mov	r3, r2
 2270 0232 9B00     		lsls	r3, r3, #2
 2271 0234 1344     		add	r3, r3, r2
 2272 0236 9B00     		lsls	r3, r3, #2
 2273 0238 0B44     		add	r3, r3, r1
 2274 023a 3A6A     		ldr	r2, [r7, #32]
 2275 023c 1A60     		str	r2, [r3]
 2276              		.loc 2 1144 0
 2277 023e 0023     		movs	r3, #0
 2278 0240 87F82730 		strb	r3, [r7, #39]
 2279 0244 08E0     		b	.L127
 2280              	.L136:
 2281              		.loc 2 1148 0
 2282 0246 084B     		ldr	r3, .L138
 2283 0248 9B8C     		ldrh	r3, [r3, #36]
 2284 024a 0133     		adds	r3, r3, #1
 2285 024c 9AB2     		uxth	r2, r3
 2286 024e 064B     		ldr	r3, .L138
 2287 0250 9A84     		strh	r2, [r3, #36]	@ movhi
 2288              		.loc 2 1150 0
 2289 0252 FF23     		movs	r3, #255
 2290 0254 87F82730 		strb	r3, [r7, #39]
 2291              	.L127:
 2292              	.LBE7:
 2293              		.loc 2 1153 0
 2294 0258 97F82730 		ldrb	r3, [r7, #39]	@ zero_extendqisi2
 2295              	.L118:
 2296 025c 5BB2     		sxtb	r3, r3
 2297              		.loc 2 1154 0
 2298 025e 1846     		mov	r0, r3
 2299 0260 2837     		adds	r7, r7, #40
 2300 0262 BD46     		mov	sp, r7
 2301              		@ sp needed
 2302 0264 80BD     		pop	{r7, pc}
 2303              	.L139:
 2304 0266 00BF     		.align	2
 2305              	.L138:
 2306 0268 00000000 		.word	lwip_stats
 2307 026c 00000000 		.word	arp_table
 2308 0270 84010000 		.word	.LC11
 2309 0274 68010000 		.word	.LC9
 2310 0278 00000000 		.word	etharp_cached_entry
 2311 027c AC010000 		.word	.LC12
 2312              		.cfi_endproc
 2313              	.LFE270:
 2314              		.size	etharp_query, .-etharp_query
 2315              		.section	.rodata
 2316 01c6 0000     		.align	2
 2317              	.LC13:
 2318 01c8 63686563 		.ascii	"check that first pbuf can hold struct etharp_hdr\000"
 2318      6B207468 
 2318      61742066 
 2318      69727374 
 2318      20706275 
 2319              		.section	.text.etharp_raw,"ax",%progbits
 2320              		.align	2
 2321              		.p2align 4,,15
ARM GAS  C:\Users\Luis\AppData\Local\Temp\ccSH6HF5.s 			page 43


 2322              		.thumb
 2323              		.thumb_func
 2324              		.type	etharp_raw, %function
 2325              	etharp_raw:
 2326              	.LFB271:
 2327              		.loc 2 1180 0
 2328              		.cfi_startproc
 2329              		@ args = 16, pretend = 0, frame = 32
 2330              		@ frame_needed = 1, uses_anonymous_args = 0
 2331 0000 80B5     		push	{r7, lr}
 2332              		.cfi_def_cfa_offset 8
 2333              		.cfi_offset 7, -8
 2334              		.cfi_offset 14, -4
 2335 0002 88B0     		sub	sp, sp, #32
 2336              		.cfi_def_cfa_offset 40
 2337 0004 00AF     		add	r7, sp, #0
 2338              		.cfi_def_cfa_register 7
 2339 0006 F860     		str	r0, [r7, #12]
 2340 0008 B960     		str	r1, [r7, #8]
 2341 000a 7A60     		str	r2, [r7, #4]
 2342 000c 3B60     		str	r3, [r7]
 2343              		.loc 2 1182 0
 2344 000e 0023     		movs	r3, #0
 2345 0010 FB77     		strb	r3, [r7, #31]
 2346              		.loc 2 1189 0
 2347 0012 FB68     		ldr	r3, [r7, #12]
 2348 0014 002B     		cmp	r3, #0
 2349 0016 02D1     		bne	.L141
 2350              		.loc 2 1189 0 is_stmt 0 discriminator 1
 2351 0018 4748     		ldr	r0, .L146
 2352 001a FFF7FEFF 		bl	osalSysHalt
 2353              	.L141:
 2354              		.loc 2 1192 0 is_stmt 1
 2355 001e 0320     		movs	r0, #3
 2356 0020 2A21     		movs	r1, #42
 2357 0022 0022     		movs	r2, #0
 2358 0024 FFF7FEFF 		bl	pbuf_alloc
 2359 0028 B861     		str	r0, [r7, #24]
 2360              		.loc 2 1194 0
 2361 002a BB69     		ldr	r3, [r7, #24]
 2362 002c 002B     		cmp	r3, #0
 2363 002e 07D1     		bne	.L142
 2364              		.loc 2 1197 0
 2365 0030 424B     		ldr	r3, .L146+4
 2366 0032 9B8C     		ldrh	r3, [r3, #36]
 2367 0034 0133     		adds	r3, r3, #1
 2368 0036 9AB2     		uxth	r2, r3
 2369 0038 404B     		ldr	r3, .L146+4
 2370 003a 9A84     		strh	r2, [r3, #36]	@ movhi
 2371              		.loc 2 1198 0
 2372 003c FF23     		movs	r3, #255
 2373 003e 75E0     		b	.L143
 2374              	.L142:
 2375              		.loc 2 1200 0
 2376 0040 BB69     		ldr	r3, [r7, #24]
 2377 0042 5B89     		ldrh	r3, [r3, #10]
 2378 0044 292B     		cmp	r3, #41
ARM GAS  C:\Users\Luis\AppData\Local\Temp\ccSH6HF5.s 			page 44


 2379 0046 02D8     		bhi	.L144
 2380              		.loc 2 1200 0 is_stmt 0 discriminator 1
 2381 0048 3D48     		ldr	r0, .L146+8
 2382 004a FFF7FEFF 		bl	osalSysHalt
 2383              	.L144:
 2384              		.loc 2 1203 0 is_stmt 1
 2385 004e BB69     		ldr	r3, [r7, #24]
 2386 0050 5B68     		ldr	r3, [r3, #4]
 2387 0052 7B61     		str	r3, [r7, #20]
 2388              		.loc 2 1204 0
 2389 0054 7B69     		ldr	r3, [r7, #20]
 2390 0056 0E33     		adds	r3, r3, #14
 2391 0058 3B61     		str	r3, [r7, #16]
 2392              		.loc 2 1206 0
 2393 005a BB8E     		ldrh	r3, [r7, #52]
 2394 005c 1846     		mov	r0, r3
 2395 005e FFF7FEFF 		bl	lwip_htons
 2396 0062 0346     		mov	r3, r0
 2397 0064 1A46     		mov	r2, r3
 2398 0066 3B69     		ldr	r3, [r7, #16]
 2399 0068 DA80     		strh	r2, [r3, #6]	@ unaligned
 2400              		.loc 2 1208 0
 2401 006a FB68     		ldr	r3, [r7, #12]
 2402 006c 93F82230 		ldrb	r3, [r3, #34]	@ zero_extendqisi2
 2403 0070 062B     		cmp	r3, #6
 2404 0072 02D0     		beq	.L145
 2405              		.loc 2 1208 0 is_stmt 0 discriminator 1
 2406 0074 3348     		ldr	r0, .L146+12
 2407 0076 FFF7FEFF 		bl	osalSysHalt
 2408              	.L145:
 2409              		.loc 2 1217 0 is_stmt 1
 2410 007a 3B69     		ldr	r3, [r7, #16]
 2411 007c 0833     		adds	r3, r3, #8
 2412 007e 1846     		mov	r0, r3
 2413 0080 3968     		ldr	r1, [r7]
 2414 0082 0622     		movs	r2, #6
 2415 0084 FFF7FEFF 		bl	memcpy
 2416              		.loc 2 1218 0
 2417 0088 3B69     		ldr	r3, [r7, #16]
 2418 008a 1233     		adds	r3, r3, #18
 2419 008c 1846     		mov	r0, r3
 2420 008e F96A     		ldr	r1, [r7, #44]
 2421 0090 0622     		movs	r2, #6
 2422 0092 FFF7FEFF 		bl	memcpy
 2423              		.loc 2 1223 0
 2424 0096 7B69     		ldr	r3, [r7, #20]
 2425 0098 1846     		mov	r0, r3
 2426 009a 7968     		ldr	r1, [r7, #4]
 2427 009c 0622     		movs	r2, #6
 2428 009e FFF7FEFF 		bl	memcpy
 2429              		.loc 2 1225 0
 2430 00a2 7B69     		ldr	r3, [r7, #20]
 2431 00a4 0633     		adds	r3, r3, #6
 2432 00a6 1846     		mov	r0, r3
 2433 00a8 B968     		ldr	r1, [r7, #8]
 2434 00aa 0622     		movs	r2, #6
 2435 00ac FFF7FEFF 		bl	memcpy
ARM GAS  C:\Users\Luis\AppData\Local\Temp\ccSH6HF5.s 			page 45


 2436              		.loc 2 1228 0
 2437 00b0 3B69     		ldr	r3, [r7, #16]
 2438 00b2 0E33     		adds	r3, r3, #14
 2439 00b4 1846     		mov	r0, r3
 2440 00b6 B96A     		ldr	r1, [r7, #40]
 2441 00b8 0422     		movs	r2, #4
 2442 00ba FFF7FEFF 		bl	memcpy
 2443              		.loc 2 1229 0
 2444 00be 3B69     		ldr	r3, [r7, #16]
 2445 00c0 1833     		adds	r3, r3, #24
 2446 00c2 1846     		mov	r0, r3
 2447 00c4 396B     		ldr	r1, [r7, #48]
 2448 00c6 0422     		movs	r2, #4
 2449 00c8 FFF7FEFF 		bl	memcpy
 2450              		.loc 2 1231 0
 2451 00cc 3B69     		ldr	r3, [r7, #16]
 2452 00ce 0022     		movs	r2, #0
 2453 00d0 1A70     		strb	r2, [r3]
 2454 00d2 0022     		movs	r2, #0
 2455 00d4 42F00102 		orr	r2, r2, #1
 2456 00d8 5A70     		strb	r2, [r3, #1]
 2457              		.loc 2 1232 0
 2458 00da 3B69     		ldr	r3, [r7, #16]
 2459 00dc 0022     		movs	r2, #0
 2460 00de 42F00802 		orr	r2, r2, #8
 2461 00e2 9A70     		strb	r2, [r3, #2]
 2462 00e4 0022     		movs	r2, #0
 2463 00e6 DA70     		strb	r2, [r3, #3]
 2464              		.loc 2 1234 0
 2465 00e8 3B69     		ldr	r3, [r7, #16]
 2466 00ea 0622     		movs	r2, #6
 2467 00ec 1A71     		strb	r2, [r3, #4]
 2468              		.loc 2 1235 0
 2469 00ee 3B69     		ldr	r3, [r7, #16]
 2470 00f0 0422     		movs	r2, #4
 2471 00f2 5A71     		strb	r2, [r3, #5]
 2472              		.loc 2 1237 0
 2473 00f4 7B69     		ldr	r3, [r7, #20]
 2474 00f6 0022     		movs	r2, #0
 2475 00f8 42F00802 		orr	r2, r2, #8
 2476 00fc 1A73     		strb	r2, [r3, #12]
 2477 00fe 0022     		movs	r2, #0
 2478 0100 42F00602 		orr	r2, r2, #6
 2479 0104 5A73     		strb	r2, [r3, #13]
 2480              		.loc 2 1239 0
 2481 0106 FB68     		ldr	r3, [r7, #12]
 2482 0108 9B69     		ldr	r3, [r3, #24]
 2483 010a F868     		ldr	r0, [r7, #12]
 2484 010c B969     		ldr	r1, [r7, #24]
 2485 010e 9847     		blx	r3
 2486 0110 0346     		mov	r3, r0
 2487 0112 FB77     		strb	r3, [r7, #31]
 2488              		.loc 2 1240 0
 2489 0114 094B     		ldr	r3, .L146+4
 2490 0116 1B8B     		ldrh	r3, [r3, #24]
 2491 0118 0133     		adds	r3, r3, #1
 2492 011a 9AB2     		uxth	r2, r3
ARM GAS  C:\Users\Luis\AppData\Local\Temp\ccSH6HF5.s 			page 46


 2493 011c 074B     		ldr	r3, .L146+4
 2494 011e 1A83     		strh	r2, [r3, #24]	@ movhi
 2495              		.loc 2 1242 0
 2496 0120 B869     		ldr	r0, [r7, #24]
 2497 0122 FFF7FEFF 		bl	pbuf_free
 2498              		.loc 2 1243 0
 2499 0126 0023     		movs	r3, #0
 2500 0128 BB61     		str	r3, [r7, #24]
 2501              		.loc 2 1246 0
 2502 012a FB7F     		ldrb	r3, [r7, #31]	@ zero_extendqisi2
 2503              	.L143:
 2504 012c 5BB2     		sxtb	r3, r3
 2505              		.loc 2 1247 0
 2506 012e 1846     		mov	r0, r3
 2507 0130 2037     		adds	r7, r7, #32
 2508 0132 BD46     		mov	sp, r7
 2509              		@ sp needed
 2510 0134 80BD     		pop	{r7, pc}
 2511              	.L147:
 2512 0136 00BF     		.align	2
 2513              	.L146:
 2514 0138 28010000 		.word	.LC7
 2515 013c 00000000 		.word	lwip_stats
 2516 0140 C8010000 		.word	.LC13
 2517 0144 98000000 		.word	.LC4
 2518              		.cfi_endproc
 2519              	.LFE271:
 2520              		.size	etharp_raw, .-etharp_raw
 2521 0148 AFF30080 		.section	.text.etharp_request,"ax",%progbits
 2521      AFF30080 
 2522              		.align	2
 2523              		.p2align 4,,15
 2524              		.global	etharp_request
 2525              		.thumb
 2526              		.thumb_func
 2527              		.type	etharp_request, %function
 2528              	etharp_request:
 2529              	.LFB272:
 2530              		.loc 2 1260 0
 2531              		.cfi_startproc
 2532              		@ args = 0, pretend = 0, frame = 8
 2533              		@ frame_needed = 1, uses_anonymous_args = 0
 2534 0000 80B5     		push	{r7, lr}
 2535              		.cfi_def_cfa_offset 8
 2536              		.cfi_offset 7, -8
 2537              		.cfi_offset 14, -4
 2538 0002 86B0     		sub	sp, sp, #24
 2539              		.cfi_def_cfa_offset 32
 2540 0004 04AF     		add	r7, sp, #16
 2541              		.cfi_def_cfa 7, 16
 2542 0006 7860     		str	r0, [r7, #4]
 2543 0008 3960     		str	r1, [r7]
 2544              		.loc 2 1262 0
 2545 000a 7B68     		ldr	r3, [r7, #4]
 2546 000c 03F12302 		add	r2, r3, #35
 2547              		.loc 2 1263 0
 2548 0010 7B68     		ldr	r3, [r7, #4]
ARM GAS  C:\Users\Luis\AppData\Local\Temp\ccSH6HF5.s 			page 47


 2549 0012 2333     		adds	r3, r3, #35
 2550 0014 7968     		ldr	r1, [r7, #4]
 2551 0016 0431     		adds	r1, r1, #4
 2552              		.loc 2 1262 0
 2553 0018 0091     		str	r1, [sp]
 2554 001a 0849     		ldr	r1, .L150
 2555 001c 0191     		str	r1, [sp, #4]
 2556 001e 3968     		ldr	r1, [r7]
 2557 0020 0291     		str	r1, [sp, #8]
 2558 0022 0121     		movs	r1, #1
 2559 0024 0391     		str	r1, [sp, #12]
 2560 0026 7868     		ldr	r0, [r7, #4]
 2561 0028 1146     		mov	r1, r2
 2562 002a 054A     		ldr	r2, .L150+4
 2563 002c FFF7FEFF 		bl	etharp_raw
 2564 0030 0346     		mov	r3, r0
 2565              		.loc 2 1265 0
 2566 0032 1846     		mov	r0, r3
 2567 0034 0837     		adds	r7, r7, #8
 2568 0036 BD46     		mov	sp, r7
 2569              		@ sp needed
 2570 0038 80BD     		pop	{r7, pc}
 2571              	.L151:
 2572 003a 00BF     		.align	2
 2573              	.L150:
 2574 003c 00000000 		.word	ethzero
 2575 0040 00000000 		.word	ethbroadcast
 2576              		.cfi_endproc
 2577              	.LFE272:
 2578              		.size	etharp_request, .-etharp_request
 2579 0044 AFF30080 		.section	.rodata
 2579      AFF30080 
 2579      AFF30080 
 2580 01f9 000000   		.align	2
 2581              	.LC14:
 2582 01fc 43616E27 		.ascii	"Can't move over header in packet\000"
 2582      74206D6F 
 2582      7665206F 
 2582      76657220 
 2582      68656164 
 2583 021d 000000   		.section	.text.ethernet_input,"ax",%progbits
 2584              		.align	2
 2585              		.p2align 4,,15
 2586              		.global	ethernet_input
 2587              		.thumb
 2588              		.thumb_func
 2589              		.type	ethernet_input, %function
 2590              	ethernet_input:
 2591              	.LFB273:
 2592              		.loc 2 1278 0
 2593              		.cfi_startproc
 2594              		@ args = 0, pretend = 0, frame = 24
 2595              		@ frame_needed = 1, uses_anonymous_args = 0
 2596 0000 80B5     		push	{r7, lr}
 2597              		.cfi_def_cfa_offset 8
 2598              		.cfi_offset 7, -8
 2599              		.cfi_offset 14, -4
ARM GAS  C:\Users\Luis\AppData\Local\Temp\ccSH6HF5.s 			page 48


 2600 0002 86B0     		sub	sp, sp, #24
 2601              		.cfi_def_cfa_offset 32
 2602 0004 00AF     		add	r7, sp, #0
 2603              		.cfi_def_cfa_register 7
 2604 0006 7860     		str	r0, [r7, #4]
 2605 0008 3960     		str	r1, [r7]
 2606              		.loc 2 1282 0
 2607 000a 0E23     		movs	r3, #14
 2608 000c FB82     		strh	r3, [r7, #22]	@ movhi
 2609              		.loc 2 1285 0
 2610 000e 7B68     		ldr	r3, [r7, #4]
 2611 0010 5B89     		ldrh	r3, [r3, #10]
 2612 0012 0E2B     		cmp	r3, #14
 2613 0014 0CD8     		bhi	.L153
 2614              		.loc 2 1287 0
 2615 0016 464B     		ldr	r3, .L167
 2616 0018 1B8D     		ldrh	r3, [r3, #40]
 2617 001a 0133     		adds	r3, r3, #1
 2618 001c 9AB2     		uxth	r2, r3
 2619 001e 444B     		ldr	r3, .L167
 2620 0020 1A85     		strh	r2, [r3, #40]	@ movhi
 2621              		.loc 2 1288 0
 2622 0022 434B     		ldr	r3, .L167
 2623 0024 DB8B     		ldrh	r3, [r3, #30]
 2624 0026 0133     		adds	r3, r3, #1
 2625 0028 9AB2     		uxth	r2, r3
 2626 002a 414B     		ldr	r3, .L167
 2627 002c DA83     		strh	r2, [r3, #30]	@ movhi
 2628              		.loc 2 1289 0
 2629 002e 75E0     		b	.L154
 2630              	.L153:
 2631              		.loc 2 1293 0
 2632 0030 7B68     		ldr	r3, [r7, #4]
 2633 0032 5B68     		ldr	r3, [r3, #4]
 2634 0034 3B61     		str	r3, [r7, #16]
 2635              		.loc 2 1302 0
 2636 0036 3B69     		ldr	r3, [r7, #16]
 2637 0038 1A7B     		ldrb	r2, [r3, #12]	@ zero_extendqisi2
 2638 003a 5B7B     		ldrb	r3, [r3, #13]	@ zero_extendqisi2
 2639 003c 1B02     		lsls	r3, r3, #8
 2640 003e 1343     		orrs	r3, r3, r2
 2641 0040 FB81     		strh	r3, [r7, #14]	@ movhi
 2642              		.loc 2 1332 0
 2643 0042 3B69     		ldr	r3, [r7, #16]
 2644 0044 1B78     		ldrb	r3, [r3]	@ zero_extendqisi2
 2645 0046 03F00103 		and	r3, r3, #1
 2646 004a 002B     		cmp	r3, #0
 2647 004c 23D0     		beq	.L155
 2648              		.loc 2 1334 0
 2649 004e 3B69     		ldr	r3, [r7, #16]
 2650 0050 1B78     		ldrb	r3, [r3]	@ zero_extendqisi2
 2651 0052 012B     		cmp	r3, #1
 2652 0054 0FD1     		bne	.L156
 2653              		.loc 2 1335 0
 2654 0056 3B69     		ldr	r3, [r7, #16]
 2655 0058 5B78     		ldrb	r3, [r3, #1]	@ zero_extendqisi2
 2656 005a 002B     		cmp	r3, #0
ARM GAS  C:\Users\Luis\AppData\Local\Temp\ccSH6HF5.s 			page 49


 2657 005c 1BD1     		bne	.L155
 2658              		.loc 2 1336 0 discriminator 1
 2659 005e 3B69     		ldr	r3, [r7, #16]
 2660 0060 9B78     		ldrb	r3, [r3, #2]	@ zero_extendqisi2
 2661              		.loc 2 1335 0 discriminator 1
 2662 0062 5E2B     		cmp	r3, #94
 2663 0064 17D1     		bne	.L155
 2664              		.loc 2 1338 0
 2665 0066 7B68     		ldr	r3, [r7, #4]
 2666 0068 5B7B     		ldrb	r3, [r3, #13]	@ zero_extendqisi2
 2667 006a 43F01003 		orr	r3, r3, #16
 2668 006e DAB2     		uxtb	r2, r3
 2669 0070 7B68     		ldr	r3, [r7, #4]
 2670 0072 5A73     		strb	r2, [r3, #13]
 2671 0074 0FE0     		b	.L155
 2672              	.L156:
 2673              		.loc 2 1340 0
 2674 0076 3B69     		ldr	r3, [r7, #16]
 2675 0078 1846     		mov	r0, r3
 2676 007a 2E49     		ldr	r1, .L167+4
 2677 007c 0622     		movs	r2, #6
 2678 007e FFF7FEFF 		bl	memcmp
 2679 0082 0346     		mov	r3, r0
 2680 0084 002B     		cmp	r3, #0
 2681 0086 06D1     		bne	.L155
 2682              		.loc 2 1342 0
 2683 0088 7B68     		ldr	r3, [r7, #4]
 2684 008a 5B7B     		ldrb	r3, [r3, #13]	@ zero_extendqisi2
 2685 008c 43F00803 		orr	r3, r3, #8
 2686 0090 DAB2     		uxtb	r2, r3
 2687 0092 7B68     		ldr	r3, [r7, #4]
 2688 0094 5A73     		strb	r2, [r3, #13]
 2689              	.L155:
 2690              		.loc 2 1346 0
 2691 0096 FB89     		ldrh	r3, [r7, #14]
 2692 0098 082B     		cmp	r3, #8
 2693 009a 03D0     		beq	.L159
 2694 009c B3F5C16F 		cmp	r3, #1544
 2695 00a0 1DD0     		beq	.L160
 2696 00a2 2CE0     		b	.L166
 2697              	.L159:
 2698              		.loc 2 1350 0
 2699 00a4 3B68     		ldr	r3, [r7]
 2700 00a6 93F82930 		ldrb	r3, [r3, #41]	@ zero_extendqisi2
 2701 00aa 03F02003 		and	r3, r3, #32
 2702 00ae 002B     		cmp	r3, #0
 2703 00b0 00D1     		bne	.L161
 2704              		.loc 2 1351 0
 2705 00b2 33E0     		b	.L154
 2706              	.L161:
 2707              		.loc 2 1358 0
 2708 00b4 FB8A     		ldrh	r3, [r7, #22]
 2709 00b6 5B42     		negs	r3, r3
 2710 00b8 9BB2     		uxth	r3, r3
 2711 00ba 9BB2     		uxth	r3, r3
 2712 00bc 1BB2     		sxth	r3, r3
 2713 00be 7868     		ldr	r0, [r7, #4]
ARM GAS  C:\Users\Luis\AppData\Local\Temp\ccSH6HF5.s 			page 50


 2714 00c0 1946     		mov	r1, r3
 2715 00c2 FFF7FEFF 		bl	pbuf_header
 2716 00c6 0346     		mov	r3, r0
 2717 00c8 002B     		cmp	r3, #0
 2718 00ca 03D0     		beq	.L162
 2719              		.loc 2 1359 0 discriminator 1
 2720 00cc 1A48     		ldr	r0, .L167+8
 2721 00ce FFF7FEFF 		bl	osalSysHalt
 2722              		.loc 2 1360 0 discriminator 1
 2723 00d2 23E0     		b	.L154
 2724              	.L162:
 2725              		.loc 2 1363 0
 2726 00d4 7868     		ldr	r0, [r7, #4]
 2727 00d6 3968     		ldr	r1, [r7]
 2728 00d8 FFF7FEFF 		bl	ip_input
 2729              		.loc 2 1365 0
 2730 00dc 1CE0     		b	.L163
 2731              	.L160:
 2732              		.loc 2 1368 0
 2733 00de 3B68     		ldr	r3, [r7]
 2734 00e0 93F82930 		ldrb	r3, [r3, #41]	@ zero_extendqisi2
 2735 00e4 03F02003 		and	r3, r3, #32
 2736 00e8 002B     		cmp	r3, #0
 2737 00ea 00D1     		bne	.L164
 2738              		.loc 2 1369 0
 2739 00ec 16E0     		b	.L154
 2740              	.L164:
 2741              		.loc 2 1372 0
 2742 00ee 3B68     		ldr	r3, [r7]
 2743 00f0 2333     		adds	r3, r3, #35
 2744 00f2 3868     		ldr	r0, [r7]
 2745 00f4 1946     		mov	r1, r3
 2746 00f6 7A68     		ldr	r2, [r7, #4]
 2747 00f8 FFF7FEFF 		bl	etharp_arp_input
 2748              		.loc 2 1373 0
 2749 00fc 0CE0     		b	.L163
 2750              	.L166:
 2751              		.loc 2 1386 0
 2752 00fe 0C4B     		ldr	r3, .L167
 2753 0100 1B8D     		ldrh	r3, [r3, #40]
 2754 0102 0133     		adds	r3, r3, #1
 2755 0104 9AB2     		uxth	r2, r3
 2756 0106 0A4B     		ldr	r3, .L167
 2757 0108 1A85     		strh	r2, [r3, #40]	@ movhi
 2758              		.loc 2 1387 0
 2759 010a 094B     		ldr	r3, .L167
 2760 010c DB8B     		ldrh	r3, [r3, #30]
 2761 010e 0133     		adds	r3, r3, #1
 2762 0110 9AB2     		uxth	r2, r3
 2763 0112 074B     		ldr	r3, .L167
 2764 0114 DA83     		strh	r2, [r3, #30]	@ movhi
 2765              		.loc 2 1388 0
 2766 0116 01E0     		b	.L154
 2767              	.L163:
 2768              		.loc 2 1393 0
 2769 0118 0023     		movs	r3, #0
 2770 011a 03E0     		b	.L165
ARM GAS  C:\Users\Luis\AppData\Local\Temp\ccSH6HF5.s 			page 51


 2771              	.L154:
 2772              		.loc 2 1396 0
 2773 011c 7868     		ldr	r0, [r7, #4]
 2774 011e FFF7FEFF 		bl	pbuf_free
 2775              		.loc 2 1397 0
 2776 0122 0023     		movs	r3, #0
 2777              	.L165:
 2778 0124 5BB2     		sxtb	r3, r3
 2779              		.loc 2 1398 0
 2780 0126 1846     		mov	r0, r3
 2781 0128 1837     		adds	r7, r7, #24
 2782 012a BD46     		mov	sp, r7
 2783              		@ sp needed
 2784 012c 80BD     		pop	{r7, pc}
 2785              	.L168:
 2786 012e 00BF     		.align	2
 2787              	.L167:
 2788 0130 00000000 		.word	lwip_stats
 2789 0134 00000000 		.word	ethbroadcast
 2790 0138 FC010000 		.word	.LC14
 2791              		.cfi_endproc
 2792              	.LFE273:
 2793              		.size	ethernet_input, .-ethernet_input
 2794 013c AFF30080 		.text
 2795              	.Letext0:
 2796              		.file 3 "c:\\emtechesdk\\gcc\\lib\\gcc\\arm-none-eabi\\4.8.3\\include\\stddef.h"
 2797              		.file 4 "c:\\emtechesdk\\gcc\\arm-none-eabi\\include\\stdint.h"
 2798              		.file 5 "../../ChibiOS/os/rt/ports/ARMCMx/compilers/GCC/chtypes.h"
 2799              		.file 6 "../../ChibiOS/os/rt/include/chsystypes.h"
 2800              		.file 7 "../../ChibiOS/os/rt/include/chschd.h"
 2801              		.file 8 "../../ChibiOS/os/rt/ports/ARMCMx/chcore.h"
 2802              		.file 9 "../../ChibiOS/os/rt/ports/ARMCMx/chcore_v7m.h"
 2803              		.file 10 "../../ChibiOS/os/rt/include/chdebug.h"
 2804              		.file 11 "../../ChibiOS/os/rt/include/chtm.h"
 2805              		.file 12 "../../ChibiOS/os/rt/include/chstats.h"
 2806              		.file 13 "../../ChibiOS/os/rt/include/chsem.h"
 2807              		.file 14 "../../ChibiOS/os/rt/include/chmtx.h"
 2808              		.file 15 "../../ChibiOS/os/various/lwip_bindings/arch/cc.h"
 2809              		.file 16 "../../ChibiOS/ext/lwip/src/include/ipv4/lwip/ip_addr.h"
 2810              		.file 17 "../../ChibiOS/ext/lwip/src/include/lwip/err.h"
 2811              		.file 18 "../../ChibiOS/ext/lwip/src/include/lwip/pbuf.h"
 2812              		.file 19 "../../ChibiOS/ext/lwip/src/include/lwip/netif.h"
 2813              		.file 20 "../../ChibiOS/ext/lwip/src/include/lwip/mem.h"
 2814              		.file 21 "../../ChibiOS/ext/lwip/src/include/lwip/memp.h"
 2815              		.file 22 "../../ChibiOS/ext/lwip/src/include/lwip/stats.h"
 2816              		.file 23 "../../ChibiOS/ext/lwip/src/include/netif/etharp.h"
 2817              		.file 24 "../../ChibiOS/os/ext/CMSIS/include/core_cm4.h"