ARM GAS  C:\Users\Luis\AppData\Local\Temp\cco7ssVy.s 			page 1


   1              		.syntax unified
   2              		.cpu cortex-m4
   3              		.fpu softvfp
   4              		.eabi_attribute 20, 1
   5              		.eabi_attribute 21, 1
   6              		.eabi_attribute 23, 3
   7              		.eabi_attribute 24, 1
   8              		.eabi_attribute 25, 1
   9              		.eabi_attribute 26, 1
  10              		.eabi_attribute 30, 6
  11              		.eabi_attribute 34, 1
  12              		.eabi_attribute 18, 4
  13              		.thumb
  14              		.file	"evtimer.c"
  15              		.text
  16              	.Ltext0:
  17              		.cfi_sections	.debug_frame
  18              		.section	.text.port_lock,"ax",%progbits
  19              		.align	2
  20              		.p2align 4,,15
  21              		.thumb
  22              		.thumb_func
  23              		.type	port_lock, %function
  24              	port_lock:
  25              	.LFB116:
  26              		.file 1 "../../ChibiOS/os/rt/ports/ARMCMx/chcore_v7m.h"
  27              		.loc 1 444 0
  28              		.cfi_startproc
  29              		@ args = 0, pretend = 0, frame = 8
  30              		@ frame_needed = 1, uses_anonymous_args = 0
  31              		@ link register save eliminated.
  32 0000 80B4     		push	{r7}
  33              		.cfi_def_cfa_offset 4
  34              		.cfi_offset 7, -4
  35 0002 83B0     		sub	sp, sp, #12
  36              		.cfi_def_cfa_offset 16
  37 0004 00AF     		add	r7, sp, #0
  38              		.cfi_def_cfa_register 7
  39 0006 2023     		movs	r3, #32
  40 0008 7B60     		str	r3, [r7, #4]
  41              	.LBB6:
  42              	.LBB7:
  43              		.file 2 "../../ChibiOS/os/ext/CMSIS/include/core_cmFunc.h"
  44              		.loc 2 546 0
  45 000a 7B68     		ldr	r3, [r7, #4]
  46              	@ 546 "../../ChibiOS/os/ext/CMSIS/include/core_cmFunc.h" 1
  47 000c 83F31188 		MSR basepri, r3
  48              	@ 0 "" 2
  49              		.thumb
  50              	.LBE7:
  51              	.LBE6:
  52              		.loc 1 451 0
  53 0010 0C37     		adds	r7, r7, #12
  54 0012 BD46     		mov	sp, r7
  55              		@ sp needed
  56 0014 5DF8047B 		ldr	r7, [sp], #4
  57 0018 7047     		bx	lr
ARM GAS  C:\Users\Luis\AppData\Local\Temp\cco7ssVy.s 			page 2


  58              		.cfi_endproc
  59              	.LFE116:
  60              		.size	port_lock, .-port_lock
  61 001a 00BFAFF3 		.section	.text.port_unlock,"ax",%progbits
  61      0080
  62              		.align	2
  63              		.p2align 4,,15
  64              		.thumb
  65              		.thumb_func
  66              		.type	port_unlock, %function
  67              	port_unlock:
  68              	.LFB117:
  69              		.loc 1 458 0
  70              		.cfi_startproc
  71              		@ args = 0, pretend = 0, frame = 8
  72              		@ frame_needed = 1, uses_anonymous_args = 0
  73              		@ link register save eliminated.
  74 0000 80B4     		push	{r7}
  75              		.cfi_def_cfa_offset 4
  76              		.cfi_offset 7, -4
  77 0002 83B0     		sub	sp, sp, #12
  78              		.cfi_def_cfa_offset 16
  79 0004 00AF     		add	r7, sp, #0
  80              		.cfi_def_cfa_register 7
  81 0006 0023     		movs	r3, #0
  82 0008 7B60     		str	r3, [r7, #4]
  83              	.LBB8:
  84              	.LBB9:
  85              		.loc 2 546 0
  86 000a 7B68     		ldr	r3, [r7, #4]
  87              	@ 546 "../../ChibiOS/os/ext/CMSIS/include/core_cmFunc.h" 1
  88 000c 83F31188 		MSR basepri, r3
  89              	@ 0 "" 2
  90              		.thumb
  91              	.LBE9:
  92              	.LBE8:
  93              		.loc 1 465 0
  94 0010 0C37     		adds	r7, r7, #12
  95 0012 BD46     		mov	sp, r7
  96              		@ sp needed
  97 0014 5DF8047B 		ldr	r7, [sp], #4
  98 0018 7047     		bx	lr
  99              		.cfi_endproc
 100              	.LFE117:
 101              		.size	port_unlock, .-port_unlock
 102 001a 00BFAFF3 		.section	.text.port_lock_from_isr,"ax",%progbits
 102      0080
 103              		.align	2
 104              		.p2align 4,,15
 105              		.thumb
 106              		.thumb_func
 107              		.type	port_lock_from_isr, %function
 108              	port_lock_from_isr:
 109              	.LFB118:
 110              		.loc 1 473 0
 111              		.cfi_startproc
 112              		@ args = 0, pretend = 0, frame = 0
ARM GAS  C:\Users\Luis\AppData\Local\Temp\cco7ssVy.s 			page 3


 113              		@ frame_needed = 1, uses_anonymous_args = 0
 114 0000 80B5     		push	{r7, lr}
 115              		.cfi_def_cfa_offset 8
 116              		.cfi_offset 7, -8
 117              		.cfi_offset 14, -4
 118 0002 00AF     		add	r7, sp, #0
 119              		.cfi_def_cfa_register 7
 120              		.loc 1 475 0
 121 0004 FFF7FEFF 		bl	port_lock
 122              		.loc 1 476 0
 123 0008 80BD     		pop	{r7, pc}
 124              		.cfi_endproc
 125              	.LFE118:
 126              		.size	port_lock_from_isr, .-port_lock_from_isr
 127 000a 00BFAFF3 		.section	.text.port_unlock_from_isr,"ax",%progbits
 127      0080
 128              		.align	2
 129              		.p2align 4,,15
 130              		.thumb
 131              		.thumb_func
 132              		.type	port_unlock_from_isr, %function
 133              	port_unlock_from_isr:
 134              	.LFB119:
 135              		.loc 1 484 0
 136              		.cfi_startproc
 137              		@ args = 0, pretend = 0, frame = 0
 138              		@ frame_needed = 1, uses_anonymous_args = 0
 139 0000 80B5     		push	{r7, lr}
 140              		.cfi_def_cfa_offset 8
 141              		.cfi_offset 7, -8
 142              		.cfi_offset 14, -4
 143 0002 00AF     		add	r7, sp, #0
 144              		.cfi_def_cfa_register 7
 145              		.loc 1 486 0
 146 0004 FFF7FEFF 		bl	port_unlock
 147              		.loc 1 487 0
 148 0008 80BD     		pop	{r7, pc}
 149              		.cfi_endproc
 150              	.LFE119:
 151              		.size	port_unlock_from_isr, .-port_unlock_from_isr
 152 000a 00BFAFF3 		.section	.text.chSysLock,"ax",%progbits
 152      0080
 153              		.align	2
 154              		.p2align 4,,15
 155              		.thumb
 156              		.thumb_func
 157              		.type	chSysLock, %function
 158              	chSysLock:
 159              	.LFB156:
 160              		.file 3 "../../ChibiOS/os/rt/include/chsys.h"
 161              		.loc 3 346 0
 162              		.cfi_startproc
 163              		@ args = 0, pretend = 0, frame = 0
 164              		@ frame_needed = 1, uses_anonymous_args = 0
 165 0000 80B5     		push	{r7, lr}
 166              		.cfi_def_cfa_offset 8
 167              		.cfi_offset 7, -8
ARM GAS  C:\Users\Luis\AppData\Local\Temp\cco7ssVy.s 			page 4


 168              		.cfi_offset 14, -4
 169 0002 00AF     		add	r7, sp, #0
 170              		.cfi_def_cfa_register 7
 171              		.loc 3 348 0
 172 0004 FFF7FEFF 		bl	port_lock
 173              		.loc 3 349 0
 174 0008 FFF7FEFF 		bl	_stats_start_measure_crit_thd
 175              		.loc 3 350 0
 176 000c FFF7FEFF 		bl	_dbg_check_lock
 177              		.loc 3 351 0
 178 0010 80BD     		pop	{r7, pc}
 179              		.cfi_endproc
 180              	.LFE156:
 181              		.size	chSysLock, .-chSysLock
 182 0012 00BFAFF3 		.section	.text.chSysUnlock,"ax",%progbits
 182      0080AFF3 
 182      0080AFF3 
 182      0080
 183              		.align	2
 184              		.p2align 4,,15
 185              		.thumb
 186              		.thumb_func
 187              		.type	chSysUnlock, %function
 188              	chSysUnlock:
 189              	.LFB157:
 190              		.loc 3 358 0
 191              		.cfi_startproc
 192              		@ args = 0, pretend = 0, frame = 0
 193              		@ frame_needed = 1, uses_anonymous_args = 0
 194 0000 80B5     		push	{r7, lr}
 195              		.cfi_def_cfa_offset 8
 196              		.cfi_offset 7, -8
 197              		.cfi_offset 14, -4
 198 0002 00AF     		add	r7, sp, #0
 199              		.cfi_def_cfa_register 7
 200              		.loc 3 360 0
 201 0004 FFF7FEFF 		bl	_dbg_check_unlock
 202              		.loc 3 361 0
 203 0008 FFF7FEFF 		bl	_stats_stop_measure_crit_thd
 204              		.loc 3 367 0
 205 000c 094B     		ldr	r3, .L8
 206 000e 1A68     		ldr	r2, [r3]
 207 0010 084B     		ldr	r3, .L8
 208 0012 9A42     		cmp	r2, r3
 209 0014 0AD0     		beq	.L7
 210              		.loc 3 367 0 is_stmt 0 discriminator 1
 211 0016 074B     		ldr	r3, .L8
 212 0018 9B69     		ldr	r3, [r3, #24]
 213 001a 9A68     		ldr	r2, [r3, #8]
 214 001c 054B     		ldr	r3, .L8
 215 001e 1B68     		ldr	r3, [r3]
 216 0020 9B68     		ldr	r3, [r3, #8]
 217 0022 9A42     		cmp	r2, r3
 218 0024 02D2     		bcs	.L7
 219 0026 0448     		ldr	r0, .L8+4
 220 0028 FFF7FEFF 		bl	chSysHalt
 221              	.L7:
ARM GAS  C:\Users\Luis\AppData\Local\Temp\cco7ssVy.s 			page 5


 222              		.loc 3 371 0 is_stmt 1
 223 002c FFF7FEFF 		bl	port_unlock
 224              		.loc 3 372 0
 225 0030 80BD     		pop	{r7, pc}
 226              	.L9:
 227 0032 00BF     		.align	2
 228              	.L8:
 229 0034 00000000 		.word	ch
 230 0038 00000000 		.word	__func__.5842
 231              		.cfi_endproc
 232              	.LFE157:
 233              		.size	chSysUnlock, .-chSysUnlock
 234 003c AFF30080 		.section	.text.chSysLockFromISR,"ax",%progbits
 235              		.align	2
 236              		.p2align 4,,15
 237              		.thumb
 238              		.thumb_func
 239              		.type	chSysLockFromISR, %function
 240              	chSysLockFromISR:
 241              	.LFB158:
 242              		.loc 3 386 0
 243              		.cfi_startproc
 244              		@ args = 0, pretend = 0, frame = 0
 245              		@ frame_needed = 1, uses_anonymous_args = 0
 246 0000 80B5     		push	{r7, lr}
 247              		.cfi_def_cfa_offset 8
 248              		.cfi_offset 7, -8
 249              		.cfi_offset 14, -4
 250 0002 00AF     		add	r7, sp, #0
 251              		.cfi_def_cfa_register 7
 252              		.loc 3 388 0
 253 0004 FFF7FEFF 		bl	port_lock_from_isr
 254              		.loc 3 389 0
 255 0008 FFF7FEFF 		bl	_stats_start_measure_crit_isr
 256              		.loc 3 390 0
 257 000c FFF7FEFF 		bl	_dbg_check_lock_from_isr
 258              		.loc 3 391 0
 259 0010 80BD     		pop	{r7, pc}
 260              		.cfi_endproc
 261              	.LFE158:
 262              		.size	chSysLockFromISR, .-chSysLockFromISR
 263 0012 00BFAFF3 		.section	.text.chSysUnlockFromISR,"ax",%progbits
 263      0080AFF3 
 263      0080AFF3 
 263      0080
 264              		.align	2
 265              		.p2align 4,,15
 266              		.thumb
 267              		.thumb_func
 268              		.type	chSysUnlockFromISR, %function
 269              	chSysUnlockFromISR:
 270              	.LFB159:
 271              		.loc 3 406 0
 272              		.cfi_startproc
 273              		@ args = 0, pretend = 0, frame = 0
 274              		@ frame_needed = 1, uses_anonymous_args = 0
 275 0000 80B5     		push	{r7, lr}
ARM GAS  C:\Users\Luis\AppData\Local\Temp\cco7ssVy.s 			page 6


 276              		.cfi_def_cfa_offset 8
 277              		.cfi_offset 7, -8
 278              		.cfi_offset 14, -4
 279 0002 00AF     		add	r7, sp, #0
 280              		.cfi_def_cfa_register 7
 281              		.loc 3 408 0
 282 0004 FFF7FEFF 		bl	_dbg_check_unlock_from_isr
 283              		.loc 3 409 0
 284 0008 FFF7FEFF 		bl	_stats_stop_measure_crit_isr
 285              		.loc 3 410 0
 286 000c FFF7FEFF 		bl	port_unlock_from_isr
 287              		.loc 3 411 0
 288 0010 80BD     		pop	{r7, pc}
 289              		.cfi_endproc
 290              	.LFE159:
 291              		.size	chSysUnlockFromISR, .-chSysUnlockFromISR
 292 0012 00BFAFF3 		.section	.text.chVTObjectInit,"ax",%progbits
 292      0080AFF3 
 292      0080AFF3 
 292      0080
 293              		.align	2
 294              		.p2align 4,,15
 295              		.thumb
 296              		.thumb_func
 297              		.type	chVTObjectInit, %function
 298              	chVTObjectInit:
 299              	.LFB163:
 300              		.file 4 "../../ChibiOS/os/rt/include/chvt.h"
 301              		.loc 4 210 0
 302              		.cfi_startproc
 303              		@ args = 0, pretend = 0, frame = 8
 304              		@ frame_needed = 1, uses_anonymous_args = 0
 305              		@ link register save eliminated.
 306 0000 80B4     		push	{r7}
 307              		.cfi_def_cfa_offset 4
 308              		.cfi_offset 7, -4
 309 0002 83B0     		sub	sp, sp, #12
 310              		.cfi_def_cfa_offset 16
 311 0004 00AF     		add	r7, sp, #0
 312              		.cfi_def_cfa_register 7
 313 0006 7860     		str	r0, [r7, #4]
 314              		.loc 4 212 0
 315 0008 7B68     		ldr	r3, [r7, #4]
 316 000a 0022     		movs	r2, #0
 317 000c DA60     		str	r2, [r3, #12]
 318              		.loc 4 213 0
 319 000e 0C37     		adds	r7, r7, #12
 320 0010 BD46     		mov	sp, r7
 321              		@ sp needed
 322 0012 5DF8047B 		ldr	r7, [sp], #4
 323 0016 7047     		bx	lr
 324              		.cfi_endproc
 325              	.LFE163:
 326              		.size	chVTObjectInit, .-chVTObjectInit
 327 0018 AFF30080 		.section	.text.chVTIsArmedI,"ax",%progbits
 327      AFF30080 
 328              		.align	2
ARM GAS  C:\Users\Luis\AppData\Local\Temp\cco7ssVy.s 			page 7


 329              		.p2align 4,,15
 330              		.thumb
 331              		.thumb_func
 332              		.type	chVTIsArmedI, %function
 333              	chVTIsArmedI:
 334              	.LFB170:
 335              		.loc 4 337 0
 336              		.cfi_startproc
 337              		@ args = 0, pretend = 0, frame = 8
 338              		@ frame_needed = 1, uses_anonymous_args = 0
 339 0000 80B5     		push	{r7, lr}
 340              		.cfi_def_cfa_offset 8
 341              		.cfi_offset 7, -8
 342              		.cfi_offset 14, -4
 343 0002 82B0     		sub	sp, sp, #8
 344              		.cfi_def_cfa_offset 16
 345 0004 00AF     		add	r7, sp, #0
 346              		.cfi_def_cfa_register 7
 347 0006 7860     		str	r0, [r7, #4]
 348              		.loc 4 339 0
 349 0008 FFF7FEFF 		bl	chDbgCheckClassI
 350              		.loc 4 341 0
 351 000c 7B68     		ldr	r3, [r7, #4]
 352 000e DB68     		ldr	r3, [r3, #12]
 353 0010 002B     		cmp	r3, #0
 354 0012 0CBF     		ite	eq
 355 0014 0023     		moveq	r3, #0
 356 0016 0123     		movne	r3, #1
 357 0018 DBB2     		uxtb	r3, r3
 358              		.loc 4 342 0
 359 001a 1846     		mov	r0, r3
 360 001c 0837     		adds	r7, r7, #8
 361 001e BD46     		mov	sp, r7
 362              		@ sp needed
 363 0020 80BD     		pop	{r7, pc}
 364              		.cfi_endproc
 365              	.LFE170:
 366              		.size	chVTIsArmedI, .-chVTIsArmedI
 367 0022 00BFAFF3 		.section	.text.chVTResetI,"ax",%progbits
 367      0080AFF3 
 367      0080AFF3 
 367      0080
 368              		.align	2
 369              		.p2align 4,,15
 370              		.thumb
 371              		.thumb_func
 372              		.type	chVTResetI, %function
 373              	chVTResetI:
 374              	.LFB172:
 375              		.loc 4 374 0
 376              		.cfi_startproc
 377              		@ args = 0, pretend = 0, frame = 8
 378              		@ frame_needed = 1, uses_anonymous_args = 0
 379 0000 80B5     		push	{r7, lr}
 380              		.cfi_def_cfa_offset 8
 381              		.cfi_offset 7, -8
 382              		.cfi_offset 14, -4
ARM GAS  C:\Users\Luis\AppData\Local\Temp\cco7ssVy.s 			page 8


 383 0002 82B0     		sub	sp, sp, #8
 384              		.cfi_def_cfa_offset 16
 385 0004 00AF     		add	r7, sp, #0
 386              		.cfi_def_cfa_register 7
 387 0006 7860     		str	r0, [r7, #4]
 388              		.loc 4 376 0
 389 0008 7868     		ldr	r0, [r7, #4]
 390 000a FFF7FEFF 		bl	chVTIsArmedI
 391 000e 0346     		mov	r3, r0
 392 0010 002B     		cmp	r3, #0
 393 0012 02D0     		beq	.L15
 394              		.loc 4 377 0
 395 0014 7868     		ldr	r0, [r7, #4]
 396 0016 FFF7FEFF 		bl	chVTDoResetI
 397              	.L15:
 398              		.loc 4 379 0
 399 001a 0837     		adds	r7, r7, #8
 400 001c BD46     		mov	sp, r7
 401              		@ sp needed
 402 001e 80BD     		pop	{r7, pc}
 403              		.cfi_endproc
 404              	.LFE172:
 405              		.size	chVTResetI, .-chVTResetI
 406              		.section	.text.chVTSetI,"ax",%progbits
 407              		.align	2
 408              		.p2align 4,,15
 409              		.thumb
 410              		.thumb_func
 411              		.type	chVTSetI, %function
 412              	chVTSetI:
 413              	.LFB174:
 414              		.loc 4 421 0
 415              		.cfi_startproc
 416              		@ args = 0, pretend = 0, frame = 16
 417              		@ frame_needed = 1, uses_anonymous_args = 0
 418 0000 80B5     		push	{r7, lr}
 419              		.cfi_def_cfa_offset 8
 420              		.cfi_offset 7, -8
 421              		.cfi_offset 14, -4
 422 0002 84B0     		sub	sp, sp, #16
 423              		.cfi_def_cfa_offset 24
 424 0004 00AF     		add	r7, sp, #0
 425              		.cfi_def_cfa_register 7
 426 0006 F860     		str	r0, [r7, #12]
 427 0008 B960     		str	r1, [r7, #8]
 428 000a 7A60     		str	r2, [r7, #4]
 429 000c 3B60     		str	r3, [r7]
 430              		.loc 4 423 0
 431 000e F868     		ldr	r0, [r7, #12]
 432 0010 FFF7FEFF 		bl	chVTResetI
 433              		.loc 4 424 0
 434 0014 F868     		ldr	r0, [r7, #12]
 435 0016 B968     		ldr	r1, [r7, #8]
 436 0018 7A68     		ldr	r2, [r7, #4]
 437 001a 3B68     		ldr	r3, [r7]
 438 001c FFF7FEFF 		bl	chVTDoSetI
 439              		.loc 4 425 0
ARM GAS  C:\Users\Luis\AppData\Local\Temp\cco7ssVy.s 			page 9


 440 0020 1037     		adds	r7, r7, #16
 441 0022 BD46     		mov	sp, r7
 442              		@ sp needed
 443 0024 80BD     		pop	{r7, pc}
 444              		.cfi_endproc
 445              	.LFE174:
 446              		.size	chVTSetI, .-chVTSetI
 447 0026 00BFAFF3 		.section	.text.chVTSet,"ax",%progbits
 447      0080AFF3 
 447      0080
 448              		.align	2
 449              		.p2align 4,,15
 450              		.thumb
 451              		.thumb_func
 452              		.type	chVTSet, %function
 453              	chVTSet:
 454              	.LFB175:
 455              		.loc 4 450 0
 456              		.cfi_startproc
 457              		@ args = 0, pretend = 0, frame = 16
 458              		@ frame_needed = 1, uses_anonymous_args = 0
 459 0000 80B5     		push	{r7, lr}
 460              		.cfi_def_cfa_offset 8
 461              		.cfi_offset 7, -8
 462              		.cfi_offset 14, -4
 463 0002 84B0     		sub	sp, sp, #16
 464              		.cfi_def_cfa_offset 24
 465 0004 00AF     		add	r7, sp, #0
 466              		.cfi_def_cfa_register 7
 467 0006 F860     		str	r0, [r7, #12]
 468 0008 B960     		str	r1, [r7, #8]
 469 000a 7A60     		str	r2, [r7, #4]
 470 000c 3B60     		str	r3, [r7]
 471              		.loc 4 452 0
 472 000e FFF7FEFF 		bl	chSysLock
 473              		.loc 4 453 0
 474 0012 F868     		ldr	r0, [r7, #12]
 475 0014 B968     		ldr	r1, [r7, #8]
 476 0016 7A68     		ldr	r2, [r7, #4]
 477 0018 3B68     		ldr	r3, [r7]
 478 001a FFF7FEFF 		bl	chVTSetI
 479              		.loc 4 454 0
 480 001e FFF7FEFF 		bl	chSysUnlock
 481              		.loc 4 455 0
 482 0022 1037     		adds	r7, r7, #16
 483 0024 BD46     		mov	sp, r7
 484              		@ sp needed
 485 0026 80BD     		pop	{r7, pc}
 486              		.cfi_endproc
 487              	.LFE175:
 488              		.size	chVTSet, .-chVTSet
 489 0028 AFF30080 		.section	.text.chEvtObjectInit,"ax",%progbits
 489      AFF30080 
 490              		.align	2
 491              		.p2align 4,,15
 492              		.thumb
 493              		.thumb_func
ARM GAS  C:\Users\Luis\AppData\Local\Temp\cco7ssVy.s 			page 10


 494              		.type	chEvtObjectInit, %function
 495              	chEvtObjectInit:
 496              	.LFB204:
 497              		.file 5 "../../ChibiOS/os/rt/include/chevents.h"
 498              		.loc 5 170 0
 499              		.cfi_startproc
 500              		@ args = 0, pretend = 0, frame = 8
 501              		@ frame_needed = 1, uses_anonymous_args = 0
 502              		@ link register save eliminated.
 503 0000 80B4     		push	{r7}
 504              		.cfi_def_cfa_offset 4
 505              		.cfi_offset 7, -4
 506 0002 83B0     		sub	sp, sp, #12
 507              		.cfi_def_cfa_offset 16
 508 0004 00AF     		add	r7, sp, #0
 509              		.cfi_def_cfa_register 7
 510 0006 7860     		str	r0, [r7, #4]
 511              		.loc 5 172 0
 512 0008 7B68     		ldr	r3, [r7, #4]
 513 000a 7A68     		ldr	r2, [r7, #4]
 514 000c 1A60     		str	r2, [r3]
 515              		.loc 5 173 0
 516 000e 0C37     		adds	r7, r7, #12
 517 0010 BD46     		mov	sp, r7
 518              		@ sp needed
 519 0012 5DF8047B 		ldr	r7, [sp], #4
 520 0016 7047     		bx	lr
 521              		.cfi_endproc
 522              	.LFE204:
 523              		.size	chEvtObjectInit, .-chEvtObjectInit
 524 0018 AFF30080 		.section	.text.chEvtBroadcastI,"ax",%progbits
 524      AFF30080 
 525              		.align	2
 526              		.p2align 4,,15
 527              		.thumb
 528              		.thumb_func
 529              		.type	chEvtBroadcastI, %function
 530              	chEvtBroadcastI:
 531              	.LFB209:
 532              		.loc 5 254 0
 533              		.cfi_startproc
 534              		@ args = 0, pretend = 0, frame = 8
 535              		@ frame_needed = 1, uses_anonymous_args = 0
 536 0000 80B5     		push	{r7, lr}
 537              		.cfi_def_cfa_offset 8
 538              		.cfi_offset 7, -8
 539              		.cfi_offset 14, -4
 540 0002 82B0     		sub	sp, sp, #8
 541              		.cfi_def_cfa_offset 16
 542 0004 00AF     		add	r7, sp, #0
 543              		.cfi_def_cfa_register 7
 544 0006 7860     		str	r0, [r7, #4]
 545              		.loc 5 256 0
 546 0008 7868     		ldr	r0, [r7, #4]
 547 000a 0021     		movs	r1, #0
 548 000c FFF7FEFF 		bl	chEvtBroadcastFlagsI
 549              		.loc 5 257 0
ARM GAS  C:\Users\Luis\AppData\Local\Temp\cco7ssVy.s 			page 11


 550 0010 0837     		adds	r7, r7, #8
 551 0012 BD46     		mov	sp, r7
 552              		@ sp needed
 553 0014 80BD     		pop	{r7, pc}
 554              		.cfi_endproc
 555              	.LFE209:
 556              		.size	chEvtBroadcastI, .-chEvtBroadcastI
 557 0016 00BFAFF3 		.section	.text.tmrcb,"ax",%progbits
 557      0080AFF3 
 557      0080
 558              		.align	2
 559              		.p2align 4,,15
 560              		.thumb
 561              		.thumb_func
 562              		.type	tmrcb, %function
 563              	tmrcb:
 564              	.LFB230:
 565              		.file 6 "../../ChibiOS/os/various/evtimer.c"
 566              		.loc 6 48 0
 567              		.cfi_startproc
 568              		@ args = 0, pretend = 0, frame = 16
 569              		@ frame_needed = 1, uses_anonymous_args = 0
 570 0000 80B5     		push	{r7, lr}
 571              		.cfi_def_cfa_offset 8
 572              		.cfi_offset 7, -8
 573              		.cfi_offset 14, -4
 574 0002 84B0     		sub	sp, sp, #16
 575              		.cfi_def_cfa_offset 24
 576 0004 00AF     		add	r7, sp, #0
 577              		.cfi_def_cfa_register 7
 578 0006 7860     		str	r0, [r7, #4]
 579              		.loc 6 49 0
 580 0008 7B68     		ldr	r3, [r7, #4]
 581 000a FB60     		str	r3, [r7, #12]
 582              		.loc 6 51 0
 583 000c FFF7FEFF 		bl	chSysLockFromISR
 584              		.loc 6 52 0
 585 0010 FB68     		ldr	r3, [r7, #12]
 586 0012 1433     		adds	r3, r3, #20
 587 0014 1846     		mov	r0, r3
 588 0016 FFF7FEFF 		bl	chEvtBroadcastI
 589              		.loc 6 53 0
 590 001a FA68     		ldr	r2, [r7, #12]
 591 001c FB68     		ldr	r3, [r7, #12]
 592 001e 9B69     		ldr	r3, [r3, #24]
 593 0020 1046     		mov	r0, r2
 594 0022 1946     		mov	r1, r3
 595 0024 044A     		ldr	r2, .L22
 596 0026 FB68     		ldr	r3, [r7, #12]
 597 0028 FFF7FEFF 		bl	chVTDoSetI
 598              		.loc 6 54 0
 599 002c FFF7FEFF 		bl	chSysUnlockFromISR
 600              		.loc 6 55 0
 601 0030 1037     		adds	r7, r7, #16
 602 0032 BD46     		mov	sp, r7
 603              		@ sp needed
 604 0034 80BD     		pop	{r7, pc}
ARM GAS  C:\Users\Luis\AppData\Local\Temp\cco7ssVy.s 			page 12


 605              	.L23:
 606 0036 00BF     		.align	2
 607              	.L22:
 608 0038 00000000 		.word	tmrcb
 609              		.cfi_endproc
 610              	.LFE230:
 611              		.size	tmrcb, .-tmrcb
 612 003c AFF30080 		.section	.text.evtObjectInit,"ax",%progbits
 613              		.align	2
 614              		.p2align 4,,15
 615              		.global	evtObjectInit
 616              		.thumb
 617              		.thumb_func
 618              		.type	evtObjectInit, %function
 619              	evtObjectInit:
 620              	.LFB231:
 621              		.loc 6 67 0
 622              		.cfi_startproc
 623              		@ args = 0, pretend = 0, frame = 8
 624              		@ frame_needed = 1, uses_anonymous_args = 0
 625 0000 80B5     		push	{r7, lr}
 626              		.cfi_def_cfa_offset 8
 627              		.cfi_offset 7, -8
 628              		.cfi_offset 14, -4
 629 0002 82B0     		sub	sp, sp, #8
 630              		.cfi_def_cfa_offset 16
 631 0004 00AF     		add	r7, sp, #0
 632              		.cfi_def_cfa_register 7
 633 0006 7860     		str	r0, [r7, #4]
 634 0008 3960     		str	r1, [r7]
 635              		.loc 6 69 0
 636 000a 7B68     		ldr	r3, [r7, #4]
 637 000c 1433     		adds	r3, r3, #20
 638 000e 1846     		mov	r0, r3
 639 0010 FFF7FEFF 		bl	chEvtObjectInit
 640              		.loc 6 70 0
 641 0014 7B68     		ldr	r3, [r7, #4]
 642 0016 1846     		mov	r0, r3
 643 0018 FFF7FEFF 		bl	chVTObjectInit
 644              		.loc 6 71 0
 645 001c 7B68     		ldr	r3, [r7, #4]
 646 001e 3A68     		ldr	r2, [r7]
 647 0020 9A61     		str	r2, [r3, #24]
 648              		.loc 6 72 0
 649 0022 0837     		adds	r7, r7, #8
 650 0024 BD46     		mov	sp, r7
 651              		@ sp needed
 652 0026 80BD     		pop	{r7, pc}
 653              		.cfi_endproc
 654              	.LFE231:
 655              		.size	evtObjectInit, .-evtObjectInit
 656 0028 AFF30080 		.section	.text.evtStart,"ax",%progbits
 656      AFF30080 
 657              		.align	2
 658              		.p2align 4,,15
 659              		.global	evtStart
 660              		.thumb
ARM GAS  C:\Users\Luis\AppData\Local\Temp\cco7ssVy.s 			page 13


 661              		.thumb_func
 662              		.type	evtStart, %function
 663              	evtStart:
 664              	.LFB232:
 665              		.loc 6 80 0
 666              		.cfi_startproc
 667              		@ args = 0, pretend = 0, frame = 8
 668              		@ frame_needed = 1, uses_anonymous_args = 0
 669 0000 80B5     		push	{r7, lr}
 670              		.cfi_def_cfa_offset 8
 671              		.cfi_offset 7, -8
 672              		.cfi_offset 14, -4
 673 0002 82B0     		sub	sp, sp, #8
 674              		.cfi_def_cfa_offset 16
 675 0004 00AF     		add	r7, sp, #0
 676              		.cfi_def_cfa_register 7
 677 0006 7860     		str	r0, [r7, #4]
 678              		.loc 6 82 0
 679 0008 7A68     		ldr	r2, [r7, #4]
 680 000a 7B68     		ldr	r3, [r7, #4]
 681 000c 9B69     		ldr	r3, [r3, #24]
 682 000e 1046     		mov	r0, r2
 683 0010 1946     		mov	r1, r3
 684 0012 034A     		ldr	r2, .L26
 685 0014 7B68     		ldr	r3, [r7, #4]
 686 0016 FFF7FEFF 		bl	chVTSet
 687              		.loc 6 83 0
 688 001a 0837     		adds	r7, r7, #8
 689 001c BD46     		mov	sp, r7
 690              		@ sp needed
 691 001e 80BD     		pop	{r7, pc}
 692              	.L27:
 693              		.align	2
 694              	.L26:
 695 0020 00000000 		.word	tmrcb
 696              		.cfi_endproc
 697              	.LFE232:
 698              		.size	evtStart, .-evtStart
 699 0024 AFF30080 		.section	.rodata.__func__.5842,"a",%progbits
 699      AFF30080 
 699      AFF30080 
 700              		.align	2
 701              		.type	__func__.5842, %object
 702              		.size	__func__.5842, 12
 703              	__func__.5842:
 704 0000 63685379 		.ascii	"chSysUnlock\000"
 704      73556E6C 
 704      6F636B00 
 705              		.text
 706              	.Letext0:
 707              		.file 7 "c:\\emtechesdk\\gcc\\arm-none-eabi\\include\\stdint.h"
 708              		.file 8 "../../ChibiOS/os/rt/ports/ARMCMx/compilers/GCC/chtypes.h"
 709              		.file 9 "../../ChibiOS/os/rt/include/chsystypes.h"
 710              		.file 10 "../../ChibiOS/os/rt/include/chschd.h"
 711              		.file 11 "../../ChibiOS/os/rt/ports/ARMCMx/chcore.h"
 712              		.file 12 "../../ChibiOS/os/rt/include/chdebug.h"
 713              		.file 13 "../../ChibiOS/os/rt/include/chtm.h"
ARM GAS  C:\Users\Luis\AppData\Local\Temp\cco7ssVy.s 			page 14


 714              		.file 14 "../../ChibiOS/os/rt/include/chstats.h"
 715              		.file 15 "../../ChibiOS/os/rt/include/chsem.h"
 716              		.file 16 "../../ChibiOS/os/rt/include/chmtx.h"
 717              		.file 17 "../../ChibiOS/os/various/evtimer.h"
 718              		.file 18 "../../ChibiOS/os/ext/CMSIS/include/core_cm4.h"