ARM GAS  C:\Users\Luis\AppData\Local\Temp\ccPmRWnQ.s 			page 1


   1              		.syntax unified
   2              		.cpu cortex-m4
   3              		.fpu softvfp
   4              		.eabi_attribute 20, 1
   5              		.eabi_attribute 21, 1
   6              		.eabi_attribute 23, 3
   7              		.eabi_attribute 24, 1
   8              		.eabi_attribute 25, 1
   9              		.eabi_attribute 26, 1
  10              		.eabi_attribute 30, 6
  11              		.eabi_attribute 34, 1
  12              		.eabi_attribute 18, 4
  13              		.thumb
  14              		.file	"icmp.c"
  15              		.text
  16              	.Ltext0:
  17              		.cfi_sections	.debug_frame
  18              		.section	.text.osalSysHalt,"ax",%progbits
  19              		.align	2
  20              		.p2align 4,,15
  21              		.thumb
  22              		.thumb_func
  23              		.type	osalSysHalt, %function
  24              	osalSysHalt:
  25              	.LFB230:
  26              		.file 1 "../../ChibiOS/os/hal/osal/rt/osal.h"
  27              		.loc 1 460 0
  28              		.cfi_startproc
  29              		@ args = 0, pretend = 0, frame = 8
  30              		@ frame_needed = 1, uses_anonymous_args = 0
  31 0000 80B5     		push	{r7, lr}
  32              		.cfi_def_cfa_offset 8
  33              		.cfi_offset 7, -8
  34              		.cfi_offset 14, -4
  35 0002 82B0     		sub	sp, sp, #8
  36              		.cfi_def_cfa_offset 16
  37 0004 00AF     		add	r7, sp, #0
  38              		.cfi_def_cfa_register 7
  39 0006 7860     		str	r0, [r7, #4]
  40              		.loc 1 462 0
  41 0008 7868     		ldr	r0, [r7, #4]
  42 000a FFF7FEFF 		bl	chSysHalt
  43              		.loc 1 463 0
  44 000e 0837     		adds	r7, r7, #8
  45 0010 BD46     		mov	sp, r7
  46              		@ sp needed
  47 0012 80BD     		pop	{r7, pc}
  48              		.cfi_endproc
  49              	.LFE230:
  50              		.size	osalSysHalt, .-osalSysHalt
  51 0014 AFF30080 		.section	.rodata
  51      AFF30080 
  51      AFF30080 
  52              		.align	2
  53              	.LC0:
  54 0000 69636D70 		.ascii	"icmp_input: moving p->payload to ip header failed\012"
  54      5F696E70 
ARM GAS  C:\Users\Luis\AppData\Local\Temp\ccPmRWnQ.s 			page 2


  54      75743A20 
  54      6D6F7669 
  54      6E672070 
  55 0032 00       		.ascii	"\000"
  56 0033 00       		.align	2
  57              	.LC1:
  58 0034 63686563 		.ascii	"check that first pbuf can hold struct the ICMP head"
  58      6B207468 
  58      61742066 
  58      69727374 
  58      20706275 
  59 0067 657200   		.ascii	"er\000"
  60 006a 0000     		.align	2
  61              	.LC2:
  62 006c 69636D70 		.ascii	"icmp_input: copying to new pbuf failed\012\000"
  62      5F696E70 
  62      75743A20 
  62      636F7079 
  62      696E6720 
  63              		.align	2
  64              	.LC3:
  65 0094 69636D70 		.ascii	"icmp_input: restoring original p->payload failed\012"
  65      5F696E70 
  65      75743A20 
  65      72657374 
  65      6F72696E 
  66 00c5 00       		.ascii	"\000"
  67 00c6 0000     		.align	2
  68              	.LC4:
  69 00c8 43616E27 		.ascii	"Can't move over header in packet\000"
  69      74206D6F 
  69      7665206F 
  69      76657220 
  69      68656164 
  70              		.section	.text.icmp_input,"ax",%progbits
  71              		.align	2
  72              		.p2align 4,,15
  73              		.global	icmp_input
  74              		.thumb
  75              		.thumb_func
  76              		.type	icmp_input, %function
  77              	icmp_input:
  78              	.LFB260:
  79              		.file 2 "../../ChibiOS/ext/lwip/src/core/ipv4/icmp.c"
  80              		.loc 2 78 0
  81              		.cfi_startproc
  82              		@ args = 0, pretend = 0, frame = 32
  83              		@ frame_needed = 1, uses_anonymous_args = 0
  84 0000 80B5     		push	{r7, lr}
  85              		.cfi_def_cfa_offset 8
  86              		.cfi_offset 7, -8
  87              		.cfi_offset 14, -4
  88 0002 8CB0     		sub	sp, sp, #48
  89              		.cfi_def_cfa_offset 56
  90 0004 04AF     		add	r7, sp, #16
  91              		.cfi_def_cfa 7, 40
  92 0006 7860     		str	r0, [r7, #4]
ARM GAS  C:\Users\Luis\AppData\Local\Temp\ccPmRWnQ.s 			page 3


  93 0008 3960     		str	r1, [r7]
  94              		.loc 2 87 0
  95 000a A74B     		ldr	r3, .L28
  96 000c B3F86230 		ldrh	r3, [r3, #98]
  97 0010 0133     		adds	r3, r3, #1
  98 0012 9AB2     		uxth	r2, r3
  99 0014 A44B     		ldr	r3, .L28
 100 0016 A3F86220 		strh	r2, [r3, #98]	@ movhi
 101              		.loc 2 91 0
 102 001a 7B68     		ldr	r3, [r7, #4]
 103 001c 5B68     		ldr	r3, [r3, #4]
 104 001e FB61     		str	r3, [r7, #28]
 105              		.loc 2 92 0
 106 0020 FB69     		ldr	r3, [r7, #28]
 107 0022 1B78     		ldrb	r3, [r3]	@ zero_extendqisi2
 108 0024 03F00F03 		and	r3, r3, #15
 109 0028 9BB2     		uxth	r3, r3
 110 002a 9B00     		lsls	r3, r3, #2
 111 002c 9BB2     		uxth	r3, r3
 112 002e FB82     		strh	r3, [r7, #22]	@ movhi
 113              		.loc 2 93 0
 114 0030 FB8A     		ldrh	r3, [r7, #22]
 115 0032 5B42     		negs	r3, r3
 116 0034 9BB2     		uxth	r3, r3
 117 0036 9BB2     		uxth	r3, r3
 118 0038 1BB2     		sxth	r3, r3
 119 003a 7868     		ldr	r0, [r7, #4]
 120 003c 1946     		mov	r1, r3
 121 003e FFF7FEFF 		bl	pbuf_header
 122 0042 0346     		mov	r3, r0
 123 0044 002B     		cmp	r3, #0
 124 0046 40F01481 		bne	.L3
 125              		.loc 2 93 0 is_stmt 0 discriminator 1
 126 004a 7B68     		ldr	r3, [r7, #4]
 127 004c 1B89     		ldrh	r3, [r3, #8]
 128 004e 032B     		cmp	r3, #3
 129 0050 40F20F81 		bls	.L3
 130              		.loc 2 98 0 is_stmt 1
 131 0054 7B68     		ldr	r3, [r7, #4]
 132 0056 5B68     		ldr	r3, [r3, #4]
 133 0058 1B78     		ldrb	r3, [r3]
 134 005a 7B75     		strb	r3, [r7, #21]
 135              		.loc 2 102 0
 136 005c 7B7D     		ldrb	r3, [r7, #21]	@ zero_extendqisi2
 137 005e 002B     		cmp	r3, #0
 138 0060 00F00281 		beq	.L27
 139 0064 082B     		cmp	r3, #8
 140 0066 40F0EE80 		bne	.L26
 141              	.LBB2:
 142              		.loc 2 110 0
 143 006a 0123     		movs	r3, #1
 144 006c BB61     		str	r3, [r7, #24]
 145              		.loc 2 113 0
 146 006e 8F4B     		ldr	r3, .L28+4
 147 0070 1B68     		ldr	r3, [r3]
 148 0072 03F0F003 		and	r3, r3, #240
 149 0076 E02B     		cmp	r3, #224
ARM GAS  C:\Users\Luis\AppData\Local\Temp\ccPmRWnQ.s 			page 4


 150 0078 01D1     		bne	.L8
 151              		.loc 2 114 0
 152 007a 0023     		movs	r3, #0
 153 007c BB61     		str	r3, [r7, #24]
 154              	.L8:
 155              		.loc 2 119 0
 156 007e 8B4B     		ldr	r3, .L28+4
 157 0080 1B68     		ldr	r3, [r3]
 158 0082 1846     		mov	r0, r3
 159 0084 3968     		ldr	r1, [r7]
 160 0086 FFF7FEFF 		bl	ip4_addr_isbroadcast
 161 008a 0346     		mov	r3, r0
 162 008c 002B     		cmp	r3, #0
 163 008e 01D0     		beq	.L9
 164              		.loc 2 120 0
 165 0090 0023     		movs	r3, #0
 166 0092 BB61     		str	r3, [r7, #24]
 167              	.L9:
 168              		.loc 2 124 0
 169 0094 BB69     		ldr	r3, [r7, #24]
 170 0096 002B     		cmp	r3, #0
 171 0098 0BD1     		bne	.L10
 172              		.loc 2 126 0
 173 009a 834B     		ldr	r3, .L28
 174 009c B3F87430 		ldrh	r3, [r3, #116]
 175 00a0 0133     		adds	r3, r3, #1
 176 00a2 9AB2     		uxth	r2, r3
 177 00a4 804B     		ldr	r3, .L28
 178 00a6 A3F87420 		strh	r2, [r3, #116]	@ movhi
 179              		.loc 2 127 0
 180 00aa 7868     		ldr	r0, [r7, #4]
 181 00ac FFF7FEFF 		bl	pbuf_free
 182              		.loc 2 128 0
 183 00b0 F7E0     		b	.L2
 184              	.L10:
 185              	.LBE2:
 186              		.loc 2 133 0
 187 00b2 7B68     		ldr	r3, [r7, #4]
 188 00b4 1B89     		ldrh	r3, [r3, #8]
 189 00b6 072B     		cmp	r3, #7
 190 00b8 00D8     		bhi	.L12
 191              		.loc 2 135 0
 192 00ba DAE0     		b	.L3
 193              	.L12:
 194              		.loc 2 137 0
 195 00bc 7868     		ldr	r0, [r7, #4]
 196 00be FFF7FEFF 		bl	inet_chksum_pbuf
 197 00c2 0346     		mov	r3, r0
 198 00c4 002B     		cmp	r3, #0
 199 00c6 0BD0     		beq	.L13
 200              		.loc 2 139 0
 201 00c8 7868     		ldr	r0, [r7, #4]
 202 00ca FFF7FEFF 		bl	pbuf_free
 203              		.loc 2 140 0
 204 00ce 764B     		ldr	r3, .L28
 205 00d0 B3F86830 		ldrh	r3, [r3, #104]
 206 00d4 0133     		adds	r3, r3, #1
ARM GAS  C:\Users\Luis\AppData\Local\Temp\ccPmRWnQ.s 			page 5


 207 00d6 9AB2     		uxth	r2, r3
 208 00d8 734B     		ldr	r3, .L28
 209 00da A3F86820 		strh	r2, [r3, #104]	@ movhi
 210              		.loc 2 142 0
 211 00de E0E0     		b	.L2
 212              	.L13:
 213              		.loc 2 145 0
 214 00e0 7868     		ldr	r0, [r7, #4]
 215 00e2 2221     		movs	r1, #34
 216 00e4 FFF7FEFF 		bl	pbuf_header
 217 00e8 0346     		mov	r3, r0
 218 00ea 002B     		cmp	r3, #0
 219 00ec 47D0     		beq	.L14
 220              	.LBB3:
 221              		.loc 2 151 0
 222 00ee B7F91630 		ldrsh	r3, [r7, #22]
 223 00f2 7868     		ldr	r0, [r7, #4]
 224 00f4 1946     		mov	r1, r3
 225 00f6 FFF7FEFF 		bl	pbuf_header
 226 00fa 0346     		mov	r3, r0
 227 00fc 002B     		cmp	r3, #0
 228 00fe 03D0     		beq	.L15
 229              		.loc 2 152 0 discriminator 1
 230 0100 6B48     		ldr	r0, .L28+8
 231 0102 FFF7FEFF 		bl	osalSysHalt
 232              		.loc 2 153 0 discriminator 1
 233 0106 C0E0     		b	.L16
 234              	.L15:
 235              		.loc 2 156 0
 236 0108 7B68     		ldr	r3, [r7, #4]
 237 010a 1B89     		ldrh	r3, [r3, #8]
 238 010c 0220     		movs	r0, #2
 239 010e 1946     		mov	r1, r3
 240 0110 0022     		movs	r2, #0
 241 0112 FFF7FEFF 		bl	pbuf_alloc
 242 0116 3861     		str	r0, [r7, #16]
 243              		.loc 2 157 0
 244 0118 3B69     		ldr	r3, [r7, #16]
 245 011a 002B     		cmp	r3, #0
 246 011c 00D1     		bne	.L17
 247              		.loc 2 159 0
 248 011e B4E0     		b	.L16
 249              	.L17:
 250              		.loc 2 161 0
 251 0120 3B69     		ldr	r3, [r7, #16]
 252 0122 5B89     		ldrh	r3, [r3, #10]
 253 0124 1A46     		mov	r2, r3
 254 0126 B7F91630 		ldrsh	r3, [r7, #22]
 255 012a 0833     		adds	r3, r3, #8
 256 012c 9A42     		cmp	r2, r3
 257 012e 02D2     		bcs	.L18
 258              		.loc 2 161 0 is_stmt 0 discriminator 1
 259 0130 6048     		ldr	r0, .L28+12
 260 0132 FFF7FEFF 		bl	osalSysHalt
 261              	.L18:
 262              		.loc 2 164 0 is_stmt 1
 263 0136 3869     		ldr	r0, [r7, #16]
ARM GAS  C:\Users\Luis\AppData\Local\Temp\ccPmRWnQ.s 			page 6


 264 0138 7968     		ldr	r1, [r7, #4]
 265 013a FFF7FEFF 		bl	pbuf_copy
 266 013e 0346     		mov	r3, r0
 267 0140 002B     		cmp	r3, #0
 268 0142 03D0     		beq	.L19
 269              		.loc 2 165 0 discriminator 1
 270 0144 5C48     		ldr	r0, .L28+16
 271 0146 FFF7FEFF 		bl	osalSysHalt
 272              		.loc 2 166 0 discriminator 1
 273 014a 9EE0     		b	.L16
 274              	.L19:
 275              		.loc 2 168 0
 276 014c 3B69     		ldr	r3, [r7, #16]
 277 014e 5B68     		ldr	r3, [r3, #4]
 278 0150 FB61     		str	r3, [r7, #28]
 279              		.loc 2 170 0
 280 0152 FB8A     		ldrh	r3, [r7, #22]
 281 0154 5B42     		negs	r3, r3
 282 0156 9BB2     		uxth	r3, r3
 283 0158 9BB2     		uxth	r3, r3
 284 015a 1BB2     		sxth	r3, r3
 285 015c 3869     		ldr	r0, [r7, #16]
 286 015e 1946     		mov	r1, r3
 287 0160 FFF7FEFF 		bl	pbuf_header
 288 0164 0346     		mov	r3, r0
 289 0166 002B     		cmp	r3, #0
 290 0168 03D0     		beq	.L20
 291              		.loc 2 171 0 discriminator 1
 292 016a 5448     		ldr	r0, .L28+20
 293 016c FFF7FEFF 		bl	osalSysHalt
 294              		.loc 2 172 0 discriminator 1
 295 0170 8BE0     		b	.L16
 296              	.L20:
 297              		.loc 2 175 0
 298 0172 7868     		ldr	r0, [r7, #4]
 299 0174 FFF7FEFF 		bl	pbuf_free
 300              		.loc 2 177 0
 301 0178 3B69     		ldr	r3, [r7, #16]
 302 017a 7B60     		str	r3, [r7, #4]
 303              	.LBE3:
 304 017c 0BE0     		b	.L21
 305              	.L14:
 306              		.loc 2 180 0
 307 017e 7868     		ldr	r0, [r7, #4]
 308 0180 6FF02101 		mvn	r1, #33
 309 0184 FFF7FEFF 		bl	pbuf_header
 310 0188 0346     		mov	r3, r0
 311 018a 002B     		cmp	r3, #0
 312 018c 03D0     		beq	.L21
 313              		.loc 2 181 0 discriminator 1
 314 018e 4B48     		ldr	r0, .L28+20
 315 0190 FFF7FEFF 		bl	osalSysHalt
 316              		.loc 2 182 0 discriminator 1
 317 0194 79E0     		b	.L16
 318              	.L21:
 319              		.loc 2 189 0
 320 0196 7B68     		ldr	r3, [r7, #4]
ARM GAS  C:\Users\Luis\AppData\Local\Temp\ccPmRWnQ.s 			page 7


 321 0198 5B68     		ldr	r3, [r3, #4]
 322 019a FB60     		str	r3, [r7, #12]
 323              		.loc 2 190 0
 324 019c 434B     		ldr	r3, .L28+4
 325 019e 1A68     		ldr	r2, [r3]
 326 01a0 FB69     		ldr	r3, [r7, #28]
 327 01a2 DA60     		str	r2, [r3, #12]	@ unaligned
 328              		.loc 2 191 0
 329 01a4 464B     		ldr	r3, .L28+24
 330 01a6 1A68     		ldr	r2, [r3]
 331 01a8 FB69     		ldr	r3, [r7, #28]
 332 01aa 1A61     		str	r2, [r3, #16]	@ unaligned
 333              		.loc 2 192 0
 334 01ac FB68     		ldr	r3, [r7, #12]
 335 01ae 0022     		movs	r2, #0
 336 01b0 1A70     		strb	r2, [r3]
 337              		.loc 2 195 0
 338 01b2 FB68     		ldr	r3, [r7, #12]
 339 01b4 5B88     		ldrh	r3, [r3, #2]	@ unaligned
 340 01b6 9AB2     		uxth	r2, r3
 341 01b8 4FF6F673 		movw	r3, #65526
 342 01bc 9A42     		cmp	r2, r3
 343 01be 07D9     		bls	.L22
 344              		.loc 2 196 0
 345 01c0 FB68     		ldr	r3, [r7, #12]
 346 01c2 5B88     		ldrh	r3, [r3, #2]	@ unaligned
 347 01c4 9BB2     		uxth	r3, r3
 348 01c6 0933     		adds	r3, r3, #9
 349 01c8 9AB2     		uxth	r2, r3
 350 01ca FB68     		ldr	r3, [r7, #12]
 351 01cc 5A80     		strh	r2, [r3, #2]	@ unaligned
 352 01ce 06E0     		b	.L23
 353              	.L22:
 354              		.loc 2 198 0
 355 01d0 FB68     		ldr	r3, [r7, #12]
 356 01d2 5B88     		ldrh	r3, [r3, #2]	@ unaligned
 357 01d4 9BB2     		uxth	r3, r3
 358 01d6 0833     		adds	r3, r3, #8
 359 01d8 9AB2     		uxth	r2, r3
 360 01da FB68     		ldr	r3, [r7, #12]
 361 01dc 5A80     		strh	r2, [r3, #2]	@ unaligned
 362              	.L23:
 363              		.loc 2 205 0
 364 01de FB69     		ldr	r3, [r7, #28]
 365 01e0 FF22     		movs	r2, #255
 366 01e2 1A72     		strb	r2, [r3, #8]
 367              		.loc 2 206 0
 368 01e4 FB69     		ldr	r3, [r7, #28]
 369 01e6 0022     		movs	r2, #0
 370 01e8 9A72     		strb	r2, [r3, #10]
 371 01ea 0022     		movs	r2, #0
 372 01ec DA72     		strb	r2, [r3, #11]
 373              		.loc 2 208 0
 374 01ee F869     		ldr	r0, [r7, #28]
 375 01f0 1421     		movs	r1, #20
 376 01f2 FFF7FEFF 		bl	inet_chksum
 377 01f6 0346     		mov	r3, r0
ARM GAS  C:\Users\Luis\AppData\Local\Temp\ccPmRWnQ.s 			page 8


 378 01f8 1A46     		mov	r2, r3
 379 01fa FB69     		ldr	r3, [r7, #28]
 380 01fc 5A81     		strh	r2, [r3, #10]	@ unaligned
 381              		.loc 2 211 0
 382 01fe 2A4B     		ldr	r3, .L28
 383 0200 B3F86030 		ldrh	r3, [r3, #96]
 384 0204 0133     		adds	r3, r3, #1
 385 0206 9AB2     		uxth	r2, r3
 386 0208 274B     		ldr	r3, .L28
 387 020a A3F86020 		strh	r2, [r3, #96]	@ movhi
 388              		.loc 2 217 0
 389 020e B7F91630 		ldrsh	r3, [r7, #22]
 390 0212 7868     		ldr	r0, [r7, #4]
 391 0214 1946     		mov	r1, r3
 392 0216 FFF7FEFF 		bl	pbuf_header
 393 021a 0346     		mov	r3, r0
 394 021c 002B     		cmp	r3, #0
 395 021e 03D0     		beq	.L24
 396              		.loc 2 218 0 discriminator 1
 397 0220 2848     		ldr	r0, .L28+28
 398 0222 FFF7FEFF 		bl	osalSysHalt
 399 0226 0DE0     		b	.L25
 400              	.L24:
 401              	.LBB4:
 402              		.loc 2 222 0
 403 0228 0023     		movs	r3, #0
 404 022a 0093     		str	r3, [sp]
 405 022c 0123     		movs	r3, #1
 406 022e 0193     		str	r3, [sp, #4]
 407 0230 3B68     		ldr	r3, [r7]
 408 0232 0293     		str	r3, [sp, #8]
 409 0234 7868     		ldr	r0, [r7, #4]
 410 0236 1D49     		ldr	r1, .L28+4
 411 0238 0022     		movs	r2, #0
 412 023a FF23     		movs	r3, #255
 413 023c FFF7FEFF 		bl	ip_output_if
 414 0240 0346     		mov	r3, r0
 415 0242 FB72     		strb	r3, [r7, #11]
 416              	.L25:
 417              	.LBE4:
 418              		.loc 2 228 0
 419 0244 11E0     		b	.L7
 420              	.L26:
 421              		.loc 2 232 0
 422 0246 184B     		ldr	r3, .L28
 423 0248 B3F87030 		ldrh	r3, [r3, #112]
 424 024c 0133     		adds	r3, r3, #1
 425 024e 9AB2     		uxth	r2, r3
 426 0250 154B     		ldr	r3, .L28
 427 0252 A3F87020 		strh	r2, [r3, #112]	@ movhi
 428              		.loc 2 233 0
 429 0256 144B     		ldr	r3, .L28
 430 0258 B3F86630 		ldrh	r3, [r3, #102]
 431 025c 0133     		adds	r3, r3, #1
 432 025e 9AB2     		uxth	r2, r3
 433 0260 114B     		ldr	r3, .L28
 434 0262 A3F86620 		strh	r2, [r3, #102]	@ movhi
ARM GAS  C:\Users\Luis\AppData\Local\Temp\ccPmRWnQ.s 			page 9


 435 0266 00E0     		b	.L7
 436              	.L27:
 437              		.loc 2 106 0
 438 0268 00BF     		nop
 439              	.L7:
 440              		.loc 2 235 0
 441 026a 7868     		ldr	r0, [r7, #4]
 442 026c FFF7FEFF 		bl	pbuf_free
 443              		.loc 2 236 0
 444 0270 17E0     		b	.L2
 445              	.L3:
 446              		.loc 2 238 0
 447 0272 7868     		ldr	r0, [r7, #4]
 448 0274 FFF7FEFF 		bl	pbuf_free
 449              		.loc 2 239 0
 450 0278 0B4B     		ldr	r3, .L28
 451 027a B3F86A30 		ldrh	r3, [r3, #106]
 452 027e 0133     		adds	r3, r3, #1
 453 0280 9AB2     		uxth	r2, r3
 454 0282 094B     		ldr	r3, .L28
 455 0284 A3F86A20 		strh	r2, [r3, #106]	@ movhi
 456              		.loc 2 241 0
 457 0288 0BE0     		b	.L2
 458              	.L16:
 459              		.loc 2 244 0
 460 028a 7868     		ldr	r0, [r7, #4]
 461 028c FFF7FEFF 		bl	pbuf_free
 462              		.loc 2 245 0
 463 0290 054B     		ldr	r3, .L28
 464 0292 B3F87430 		ldrh	r3, [r3, #116]
 465 0296 0133     		adds	r3, r3, #1
 466 0298 9AB2     		uxth	r2, r3
 467 029a 034B     		ldr	r3, .L28
 468 029c A3F87420 		strh	r2, [r3, #116]	@ movhi
 469              		.loc 2 247 0
 470 02a0 00BF     		nop
 471              	.L2:
 472              		.loc 2 249 0
 473 02a2 2037     		adds	r7, r7, #32
 474 02a4 BD46     		mov	sp, r7
 475              		@ sp needed
 476 02a6 80BD     		pop	{r7, pc}
 477              	.L29:
 478              		.align	2
 479              	.L28:
 480 02a8 00000000 		.word	lwip_stats
 481 02ac 00000000 		.word	current_iphdr_dest
 482 02b0 00000000 		.word	.LC0
 483 02b4 34000000 		.word	.LC1
 484 02b8 6C000000 		.word	.LC2
 485 02bc 94000000 		.word	.LC3
 486 02c0 00000000 		.word	current_iphdr_src
 487 02c4 C8000000 		.word	.LC4
 488              		.cfi_endproc
 489              	.LFE260:
 490              		.size	icmp_input, .-icmp_input
 491 02c8 AFF30080 		.section	.text.icmp_dest_unreach,"ax",%progbits
ARM GAS  C:\Users\Luis\AppData\Local\Temp\ccPmRWnQ.s 			page 10


 491      AFF30080 
 492              		.align	2
 493              		.p2align 4,,15
 494              		.global	icmp_dest_unreach
 495              		.thumb
 496              		.thumb_func
 497              		.type	icmp_dest_unreach, %function
 498              	icmp_dest_unreach:
 499              	.LFB261:
 500              		.loc 2 262 0
 501              		.cfi_startproc
 502              		@ args = 0, pretend = 0, frame = 8
 503              		@ frame_needed = 1, uses_anonymous_args = 0
 504 0000 80B5     		push	{r7, lr}
 505              		.cfi_def_cfa_offset 8
 506              		.cfi_offset 7, -8
 507              		.cfi_offset 14, -4
 508 0002 82B0     		sub	sp, sp, #8
 509              		.cfi_def_cfa_offset 16
 510 0004 00AF     		add	r7, sp, #0
 511              		.cfi_def_cfa_register 7
 512 0006 7860     		str	r0, [r7, #4]
 513 0008 0B46     		mov	r3, r1
 514 000a FB70     		strb	r3, [r7, #3]
 515              		.loc 2 263 0
 516 000c FB78     		ldrb	r3, [r7, #3]	@ zero_extendqisi2
 517 000e 7868     		ldr	r0, [r7, #4]
 518 0010 0321     		movs	r1, #3
 519 0012 1A46     		mov	r2, r3
 520 0014 FFF7FEFF 		bl	icmp_send_response
 521              		.loc 2 264 0
 522 0018 0837     		adds	r7, r7, #8
 523 001a BD46     		mov	sp, r7
 524              		@ sp needed
 525 001c 80BD     		pop	{r7, pc}
 526              		.cfi_endproc
 527              	.LFE261:
 528              		.size	icmp_dest_unreach, .-icmp_dest_unreach
 529 001e 00BF     		.section	.text.icmp_time_exceeded,"ax",%progbits
 530              		.align	2
 531              		.p2align 4,,15
 532              		.global	icmp_time_exceeded
 533              		.thumb
 534              		.thumb_func
 535              		.type	icmp_time_exceeded, %function
 536              	icmp_time_exceeded:
 537              	.LFB262:
 538              		.loc 2 276 0
 539              		.cfi_startproc
 540              		@ args = 0, pretend = 0, frame = 8
 541              		@ frame_needed = 1, uses_anonymous_args = 0
 542 0000 80B5     		push	{r7, lr}
 543              		.cfi_def_cfa_offset 8
 544              		.cfi_offset 7, -8
 545              		.cfi_offset 14, -4
 546 0002 82B0     		sub	sp, sp, #8
 547              		.cfi_def_cfa_offset 16
ARM GAS  C:\Users\Luis\AppData\Local\Temp\ccPmRWnQ.s 			page 11


 548 0004 00AF     		add	r7, sp, #0
 549              		.cfi_def_cfa_register 7
 550 0006 7860     		str	r0, [r7, #4]
 551 0008 0B46     		mov	r3, r1
 552 000a FB70     		strb	r3, [r7, #3]
 553              		.loc 2 277 0
 554 000c FB78     		ldrb	r3, [r7, #3]	@ zero_extendqisi2
 555 000e 7868     		ldr	r0, [r7, #4]
 556 0010 0B21     		movs	r1, #11
 557 0012 1A46     		mov	r2, r3
 558 0014 FFF7FEFF 		bl	icmp_send_response
 559              		.loc 2 278 0
 560 0018 0837     		adds	r7, r7, #8
 561 001a BD46     		mov	sp, r7
 562              		@ sp needed
 563 001c 80BD     		pop	{r7, pc}
 564              		.cfi_endproc
 565              	.LFE262:
 566              		.size	icmp_time_exceeded, .-icmp_time_exceeded
 567 001e 00BF     		.section	.rodata
 568 00e9 000000   		.align	2
 569              	.LC5:
 570 00ec 63686563 		.ascii	"check that first pbuf can hold icmp message\000"
 570      6B207468 
 570      61742066 
 570      69727374 
 570      20706275 
 571              		.section	.text.icmp_send_response,"ax",%progbits
 572              		.align	2
 573              		.p2align 4,,15
 574              		.thumb
 575              		.thumb_func
 576              		.type	icmp_send_response, %function
 577              	icmp_send_response:
 578              	.LFB263:
 579              		.loc 2 292 0
 580              		.cfi_startproc
 581              		@ args = 0, pretend = 0, frame = 24
 582              		@ frame_needed = 1, uses_anonymous_args = 0
 583 0000 80B5     		push	{r7, lr}
 584              		.cfi_def_cfa_offset 8
 585              		.cfi_offset 7, -8
 586              		.cfi_offset 14, -4
 587 0002 88B0     		sub	sp, sp, #32
 588              		.cfi_def_cfa_offset 40
 589 0004 02AF     		add	r7, sp, #8
 590              		.cfi_def_cfa 7, 32
 591 0006 7860     		str	r0, [r7, #4]
 592 0008 1346     		mov	r3, r2
 593 000a 0A46     		mov	r2, r1
 594 000c FA70     		strb	r2, [r7, #3]
 595 000e BB70     		strb	r3, [r7, #2]
 596              		.loc 2 300 0
 597 0010 0120     		movs	r0, #1
 598 0012 2421     		movs	r1, #36
 599 0014 0022     		movs	r2, #0
 600 0016 FFF7FEFF 		bl	pbuf_alloc
ARM GAS  C:\Users\Luis\AppData\Local\Temp\ccPmRWnQ.s 			page 12


 601 001a 7861     		str	r0, [r7, #20]
 602              		.loc 2 302 0
 603 001c 7B69     		ldr	r3, [r7, #20]
 604 001e 002B     		cmp	r3, #0
 605 0020 50D0     		beq	.L32
 606              		.loc 2 306 0
 607 0022 7B69     		ldr	r3, [r7, #20]
 608 0024 5B89     		ldrh	r3, [r3, #10]
 609 0026 232B     		cmp	r3, #35
 610 0028 02D8     		bhi	.L35
 611              		.loc 2 306 0 is_stmt 0 discriminator 1
 612 002a 2848     		ldr	r0, .L36
 613 002c FFF7FEFF 		bl	osalSysHalt
 614              	.L35:
 615              		.loc 2 309 0 is_stmt 1
 616 0030 7B68     		ldr	r3, [r7, #4]
 617 0032 5B68     		ldr	r3, [r3, #4]
 618 0034 3B61     		str	r3, [r7, #16]
 619              		.loc 2 316 0
 620 0036 7B69     		ldr	r3, [r7, #20]
 621 0038 5B68     		ldr	r3, [r3, #4]
 622 003a FB60     		str	r3, [r7, #12]
 623              		.loc 2 317 0
 624 003c FB68     		ldr	r3, [r7, #12]
 625 003e FA78     		ldrb	r2, [r7, #3]
 626 0040 1A70     		strb	r2, [r3]
 627              		.loc 2 318 0
 628 0042 FB68     		ldr	r3, [r7, #12]
 629 0044 BA78     		ldrb	r2, [r7, #2]
 630 0046 5A70     		strb	r2, [r3, #1]
 631              		.loc 2 319 0
 632 0048 FB68     		ldr	r3, [r7, #12]
 633 004a 0022     		movs	r2, #0
 634 004c 1A71     		strb	r2, [r3, #4]
 635 004e 0022     		movs	r2, #0
 636 0050 5A71     		strb	r2, [r3, #5]
 637              		.loc 2 320 0
 638 0052 FB68     		ldr	r3, [r7, #12]
 639 0054 0022     		movs	r2, #0
 640 0056 9A71     		strb	r2, [r3, #6]
 641 0058 0022     		movs	r2, #0
 642 005a DA71     		strb	r2, [r3, #7]
 643              		.loc 2 323 0
 644 005c 7B69     		ldr	r3, [r7, #20]
 645 005e 5B68     		ldr	r3, [r3, #4]
 646 0060 03F10802 		add	r2, r3, #8
 647 0064 7B68     		ldr	r3, [r7, #4]
 648 0066 5B68     		ldr	r3, [r3, #4]
 649 0068 1046     		mov	r0, r2
 650 006a 1946     		mov	r1, r3
 651 006c 1C22     		movs	r2, #28
 652 006e FFF7FEFF 		bl	memcpy
 653              		.loc 2 327 0
 654 0072 FB68     		ldr	r3, [r7, #12]
 655 0074 0022     		movs	r2, #0
 656 0076 9A70     		strb	r2, [r3, #2]
 657 0078 0022     		movs	r2, #0
ARM GAS  C:\Users\Luis\AppData\Local\Temp\ccPmRWnQ.s 			page 13


 658 007a DA70     		strb	r2, [r3, #3]
 659              		.loc 2 328 0
 660 007c 7B69     		ldr	r3, [r7, #20]
 661 007e 5B89     		ldrh	r3, [r3, #10]
 662 0080 F868     		ldr	r0, [r7, #12]
 663 0082 1946     		mov	r1, r3
 664 0084 FFF7FEFF 		bl	inet_chksum
 665 0088 0346     		mov	r3, r0
 666 008a 1A46     		mov	r2, r3
 667 008c FB68     		ldr	r3, [r7, #12]
 668 008e 5A80     		strh	r2, [r3, #2]	@ unaligned
 669              		.loc 2 329 0
 670 0090 0F4B     		ldr	r3, .L36+4
 671 0092 B3F86030 		ldrh	r3, [r3, #96]
 672 0096 0133     		adds	r3, r3, #1
 673 0098 9AB2     		uxth	r2, r3
 674 009a 0D4B     		ldr	r3, .L36+4
 675 009c A3F86020 		strh	r2, [r3, #96]	@ movhi
 676              		.loc 2 334 0
 677 00a0 3B69     		ldr	r3, [r7, #16]
 678 00a2 DB68     		ldr	r3, [r3, #12]	@ unaligned
 679 00a4 BB60     		str	r3, [r7, #8]
 680              		.loc 2 335 0
 681 00a6 07F10803 		add	r3, r7, #8
 682 00aa 0022     		movs	r2, #0
 683 00ac 0092     		str	r2, [sp]
 684 00ae 0122     		movs	r2, #1
 685 00b0 0192     		str	r2, [sp, #4]
 686 00b2 7869     		ldr	r0, [r7, #20]
 687 00b4 0021     		movs	r1, #0
 688 00b6 1A46     		mov	r2, r3
 689 00b8 FF23     		movs	r3, #255
 690 00ba FFF7FEFF 		bl	ip_output
 691              		.loc 2 336 0
 692 00be 7869     		ldr	r0, [r7, #20]
 693 00c0 FFF7FEFF 		bl	pbuf_free
 694              	.L32:
 695              		.loc 2 337 0
 696 00c4 1837     		adds	r7, r7, #24
 697 00c6 BD46     		mov	sp, r7
 698              		@ sp needed
 699 00c8 80BD     		pop	{r7, pc}
 700              	.L37:
 701 00ca 00BF     		.align	2
 702              	.L36:
 703 00cc EC000000 		.word	.LC5
 704 00d0 00000000 		.word	lwip_stats
 705              		.cfi_endproc
 706              	.LFE263:
 707              		.size	icmp_send_response, .-icmp_send_response
 708 00d4 AFF30080 		.text
 708      AFF30080 
 708      AFF30080 
 709              	.Letext0:
 710              		.file 3 "c:\\emtechesdk\\gcc\\arm-none-eabi\\include\\stdint.h"
 711              		.file 4 "../../ChibiOS/os/rt/ports/ARMCMx/compilers/GCC/chtypes.h"
 712              		.file 5 "../../ChibiOS/os/rt/include/chsystypes.h"
ARM GAS  C:\Users\Luis\AppData\Local\Temp\ccPmRWnQ.s 			page 14


 713              		.file 6 "../../ChibiOS/os/rt/include/chschd.h"
 714              		.file 7 "../../ChibiOS/os/rt/ports/ARMCMx/chcore.h"
 715              		.file 8 "../../ChibiOS/os/rt/ports/ARMCMx/chcore_v7m.h"
 716              		.file 9 "../../ChibiOS/os/rt/include/chdebug.h"
 717              		.file 10 "../../ChibiOS/os/rt/include/chtm.h"
 718              		.file 11 "../../ChibiOS/os/rt/include/chstats.h"
 719              		.file 12 "../../ChibiOS/os/rt/include/chsem.h"
 720              		.file 13 "../../ChibiOS/os/rt/include/chmtx.h"
 721              		.file 14 "../../ChibiOS/os/various/lwip_bindings/arch/cc.h"
 722              		.file 15 "../../ChibiOS/ext/lwip/src/include/lwip/err.h"
 723              		.file 16 "../../ChibiOS/ext/lwip/src/include/lwip/pbuf.h"
 724              		.file 17 "../../ChibiOS/ext/lwip/src/include/ipv4/lwip/ip_addr.h"
 725              		.file 18 "../../ChibiOS/ext/lwip/src/include/lwip/netif.h"
 726              		.file 19 "../../ChibiOS/ext/lwip/src/include/ipv4/lwip/icmp.h"
 727              		.file 20 "../../ChibiOS/ext/lwip/src/include/ipv4/lwip/ip.h"
 728              		.file 21 "../../ChibiOS/ext/lwip/src/include/lwip/mem.h"
 729              		.file 22 "../../ChibiOS/ext/lwip/src/include/lwip/stats.h"
 730              		.file 23 "../../ChibiOS/os/ext/CMSIS/include/core_cm4.h"
 731              		.section	.debug_info,"",%progbits
 732              	.Ldebug_info0:
 733 0000 4E0F0000 		.4byte	0xf4e
 734 0004 0400     		.2byte	0x4
 735 0006 00000000 		.4byte	.Ldebug_abbrev0
 736 000a 04       		.byte	0x4
 737 000b 01       		.uleb128 0x1
 738 000c 07010000 		.4byte	.LASF231
 739 0010 01       		.byte	0x1
 740 0011 3A040000 		.4byte	.LASF232
 741 0015 66040000 		.4byte	.LASF233
 742 0019 00000000 		.4byte	.Ldebug_ranges0+0
 743 001d 00000000 		.4byte	0
 744 0021 00000000 		.4byte	.Ldebug_line0
 745 0025 02       		.uleb128 0x2
 746 0026 04       		.byte	0x4
 747 0027 05       		.byte	0x5
 748 0028 696E7400 		.ascii	"int\000"
 749 002c 03       		.uleb128 0x3
 750 002d 04       		.byte	0x4
 751 002e 07       		.byte	0x7
 752 002f 92000000 		.4byte	.LASF0
 753 0033 04       		.uleb128 0x4
 754 0034 AC020000 		.4byte	.LASF2
 755 0038 03       		.byte	0x3
 756 0039 29       		.byte	0x29
 757 003a 3E000000 		.4byte	0x3e
 758 003e 03       		.uleb128 0x3
 759 003f 01       		.byte	0x1
 760 0040 06       		.byte	0x6
 761 0041 5E090000 		.4byte	.LASF1
 762 0045 04       		.uleb128 0x4
 763 0046 5A050000 		.4byte	.LASF3
 764 004a 03       		.byte	0x3
 765 004b 2A       		.byte	0x2a
 766 004c 50000000 		.4byte	0x50
 767 0050 03       		.uleb128 0x3
 768 0051 01       		.byte	0x1
 769 0052 08       		.byte	0x8
ARM GAS  C:\Users\Luis\AppData\Local\Temp\ccPmRWnQ.s 			page 15


 770 0053 8B080000 		.4byte	.LASF4
 771 0057 04       		.uleb128 0x4
 772 0058 24030000 		.4byte	.LASF5
 773 005c 03       		.byte	0x3
 774 005d 35       		.byte	0x35
 775 005e 62000000 		.4byte	0x62
 776 0062 03       		.uleb128 0x3
 777 0063 02       		.byte	0x2
 778 0064 05       		.byte	0x5
 779 0065 15070000 		.4byte	.LASF6
 780 0069 04       		.uleb128 0x4
 781 006a BC060000 		.4byte	.LASF7
 782 006e 03       		.byte	0x3
 783 006f 36       		.byte	0x36
 784 0070 74000000 		.4byte	0x74
 785 0074 03       		.uleb128 0x3
 786 0075 02       		.byte	0x2
 787 0076 07       		.byte	0x7
 788 0077 6A090000 		.4byte	.LASF8
 789 007b 04       		.uleb128 0x4
 790 007c 41080000 		.4byte	.LASF9
 791 0080 03       		.byte	0x3
 792 0081 4F       		.byte	0x4f
 793 0082 86000000 		.4byte	0x86
 794 0086 03       		.uleb128 0x3
 795 0087 04       		.byte	0x4
 796 0088 05       		.byte	0x5
 797 0089 41070000 		.4byte	.LASF10
 798 008d 04       		.uleb128 0x4
 799 008e A3020000 		.4byte	.LASF11
 800 0092 03       		.byte	0x3
 801 0093 50       		.byte	0x50
 802 0094 98000000 		.4byte	0x98
 803 0098 03       		.uleb128 0x3
 804 0099 04       		.byte	0x4
 805 009a 07       		.byte	0x7
 806 009b 12080000 		.4byte	.LASF12
 807 009f 03       		.uleb128 0x3
 808 00a0 08       		.byte	0x8
 809 00a1 05       		.byte	0x5
 810 00a2 31050000 		.4byte	.LASF13
 811 00a6 04       		.uleb128 0x4
 812 00a7 19090000 		.4byte	.LASF14
 813 00ab 03       		.byte	0x3
 814 00ac 78       		.byte	0x78
 815 00ad B1000000 		.4byte	0xb1
 816 00b1 03       		.uleb128 0x3
 817 00b2 08       		.byte	0x8
 818 00b3 07       		.byte	0x7
 819 00b4 3A030000 		.4byte	.LASF15
 820 00b8 05       		.uleb128 0x5
 821 00b9 7B000000 		.4byte	0x7b
 822 00bd 04       		.uleb128 0x4
 823 00be E0060000 		.4byte	.LASF16
 824 00c2 04       		.byte	0x4
 825 00c3 45       		.byte	0x45
 826 00c4 8D000000 		.4byte	0x8d
ARM GAS  C:\Users\Luis\AppData\Local\Temp\ccPmRWnQ.s 			page 16


 827 00c8 04       		.uleb128 0x4
 828 00c9 FE040000 		.4byte	.LASF17
 829 00cd 04       		.byte	0x4
 830 00ce 46       		.byte	0x46
 831 00cf A6000000 		.4byte	0xa6
 832 00d3 04       		.uleb128 0x4
 833 00d4 A2060000 		.4byte	.LASF18
 834 00d8 04       		.byte	0x4
 835 00d9 48       		.byte	0x48
 836 00da 45000000 		.4byte	0x45
 837 00de 04       		.uleb128 0x4
 838 00df 22050000 		.4byte	.LASF19
 839 00e3 04       		.byte	0x4
 840 00e4 49       		.byte	0x49
 841 00e5 45000000 		.4byte	0x45
 842 00e9 04       		.uleb128 0x4
 843 00ea 0A080000 		.4byte	.LASF20
 844 00ee 04       		.byte	0x4
 845 00ef 4A       		.byte	0x4a
 846 00f0 45000000 		.4byte	0x45
 847 00f4 04       		.uleb128 0x4
 848 00f5 0B030000 		.4byte	.LASF21
 849 00f9 04       		.byte	0x4
 850 00fa 4C       		.byte	0x4c
 851 00fb 8D000000 		.4byte	0x8d
 852 00ff 04       		.uleb128 0x4
 853 0100 00060000 		.4byte	.LASF22
 854 0104 04       		.byte	0x4
 855 0105 4D       		.byte	0x4d
 856 0106 7B000000 		.4byte	0x7b
 857 010a 04       		.uleb128 0x4
 858 010b C2020000 		.4byte	.LASF23
 859 010f 04       		.byte	0x4
 860 0110 4F       		.byte	0x4f
 861 0111 8D000000 		.4byte	0x8d
 862 0115 04       		.uleb128 0x4
 863 0116 FA050000 		.4byte	.LASF24
 864 011a 04       		.byte	0x4
 865 011b 51       		.byte	0x51
 866 011c 7B000000 		.4byte	0x7b
 867 0120 04       		.uleb128 0x4
 868 0121 AA060000 		.4byte	.LASF25
 869 0125 04       		.byte	0x4
 870 0126 52       		.byte	0x52
 871 0127 8D000000 		.4byte	0x8d
 872 012b 04       		.uleb128 0x4
 873 012c 6D000000 		.4byte	.LASF26
 874 0130 05       		.byte	0x5
 875 0131 33       		.byte	0x33
 876 0132 8D000000 		.4byte	0x8d
 877 0136 04       		.uleb128 0x4
 878 0137 0D040000 		.4byte	.LASF27
 879 013b 05       		.byte	0x5
 880 013c 3F       		.byte	0x3f
 881 013d 41010000 		.4byte	0x141
 882 0141 06       		.uleb128 0x6
 883 0142 86050000 		.4byte	.LASF50
ARM GAS  C:\Users\Luis\AppData\Local\Temp\ccPmRWnQ.s 			page 17


 884 0146 68       		.byte	0x68
 885 0147 06       		.byte	0x6
 886 0148 C2       		.byte	0xc2
 887 0149 54020000 		.4byte	0x254
 888 014d 07       		.uleb128 0x7
 889 014e 8D070000 		.4byte	.LASF28
 890 0152 06       		.byte	0x6
 891 0153 C3       		.byte	0xc3
 892 0154 5F020000 		.4byte	0x25f
 893 0158 00       		.byte	0
 894 0159 07       		.uleb128 0x7
 895 015a F5070000 		.4byte	.LASF29
 896 015e 06       		.byte	0x6
 897 015f C5       		.byte	0xc5
 898 0160 5F020000 		.4byte	0x25f
 899 0164 04       		.byte	0x4
 900 0165 07       		.uleb128 0x7
 901 0166 4E000000 		.4byte	.LASF30
 902 016a 06       		.byte	0x6
 903 016b C7       		.byte	0xc7
 904 016c F4000000 		.4byte	0xf4
 905 0170 08       		.byte	0x8
 906 0171 07       		.uleb128 0x7
 907 0172 94070000 		.4byte	.LASF31
 908 0176 06       		.byte	0x6
 909 0177 C8       		.byte	0xc8
 910 0178 C8040000 		.4byte	0x4c8
 911 017c 0C       		.byte	0xc
 912 017d 07       		.uleb128 0x7
 913 017e D5030000 		.4byte	.LASF32
 914 0182 06       		.byte	0x6
 915 0183 CA       		.byte	0xca
 916 0184 5F020000 		.4byte	0x25f
 917 0188 10       		.byte	0x10
 918 0189 07       		.uleb128 0x7
 919 018a 3F050000 		.4byte	.LASF33
 920 018e 06       		.byte	0x6
 921 018f CB       		.byte	0xcb
 922 0190 5F020000 		.4byte	0x25f
 923 0194 14       		.byte	0x14
 924 0195 07       		.uleb128 0x7
 925 0196 D4040000 		.4byte	.LASF34
 926 019a 06       		.byte	0x6
 927 019b D2       		.byte	0xd2
 928 019c 6C070000 		.4byte	0x76c
 929 01a0 18       		.byte	0x18
 930 01a1 07       		.uleb128 0x7
 931 01a2 4F050000 		.4byte	.LASF35
 932 01a6 06       		.byte	0x6
 933 01a7 D8       		.byte	0xd8
 934 01a8 7E070000 		.4byte	0x77e
 935 01ac 1C       		.byte	0x1c
 936 01ad 07       		.uleb128 0x7
 937 01ae 7E050000 		.4byte	.LASF36
 938 01b2 06       		.byte	0x6
 939 01b3 DD       		.byte	0xdd
 940 01b4 DE000000 		.4byte	0xde
ARM GAS  C:\Users\Luis\AppData\Local\Temp\ccPmRWnQ.s 			page 18


 941 01b8 20       		.byte	0x20
 942 01b9 07       		.uleb128 0x7
 943 01ba 13060000 		.4byte	.LASF37
 944 01be 06       		.byte	0x6
 945 01bf E1       		.byte	0xe1
 946 01c0 D3000000 		.4byte	0xd3
 947 01c4 21       		.byte	0x21
 948 01c5 07       		.uleb128 0x7
 949 01c6 AF080000 		.4byte	.LASF38
 950 01ca 06       		.byte	0x6
 951 01cb E6       		.byte	0xe6
 952 01cc E9000000 		.4byte	0xe9
 953 01d0 22       		.byte	0x22
 954 01d1 08       		.uleb128 0x8
 955 01d2 705F7500 		.ascii	"p_u\000"
 956 01d6 06       		.byte	0x6
 957 01d7 3101     		.2byte	0x131
 958 01d9 A7060000 		.4byte	0x6a7
 959 01dd 24       		.byte	0x24
 960 01de 09       		.uleb128 0x9
 961 01df E2000000 		.4byte	.LASF39
 962 01e3 06       		.byte	0x6
 963 01e4 3601     		.2byte	0x136
 964 01e6 65020000 		.4byte	0x265
 965 01ea 28       		.byte	0x28
 966 01eb 09       		.uleb128 0x9
 967 01ec 87000000 		.4byte	.LASF40
 968 01f0 06       		.byte	0x6
 969 01f1 3C01     		.2byte	0x13c
 970 01f3 89020000 		.4byte	0x289
 971 01f7 2C       		.byte	0x2c
 972 01f8 09       		.uleb128 0x9
 973 01f9 9C060000 		.4byte	.LASF41
 974 01fd 06       		.byte	0x6
 975 01fe 4001     		.2byte	0x140
 976 0200 FF000000 		.4byte	0xff
 977 0204 34       		.byte	0x34
 978 0205 09       		.uleb128 0x9
 979 0206 2E070000 		.4byte	.LASF42
 980 020a 06       		.byte	0x6
 981 020b 4601     		.2byte	0x146
 982 020d 0A010000 		.4byte	0x10a
 983 0211 38       		.byte	0x38
 984 0212 09       		.uleb128 0x9
 985 0213 24080000 		.4byte	.LASF43
 986 0217 06       		.byte	0x6
 987 0218 4D01     		.2byte	0x14d
 988 021a 66070000 		.4byte	0x766
 989 021e 3C       		.byte	0x3c
 990 021f 09       		.uleb128 0x9
 991 0220 F7060000 		.4byte	.LASF44
 992 0224 06       		.byte	0x6
 993 0225 5101     		.2byte	0x151
 994 0227 F4000000 		.4byte	0xf4
 995 022b 40       		.byte	0x40
 996 022c 09       		.uleb128 0x9
 997 022d 6F050000 		.4byte	.LASF45
ARM GAS  C:\Users\Luis\AppData\Local\Temp\ccPmRWnQ.s 			page 19


 998 0231 06       		.byte	0x6
 999 0232 5801     		.2byte	0x158
 1000 0234 3C030000 		.4byte	0x33c
 1001 0238 44       		.byte	0x44
 1002 0239 09       		.uleb128 0x9
 1003 023a 67050000 		.4byte	.LASF46
 1004 023e 06       		.byte	0x6
 1005 023f 5E01     		.2byte	0x15e
 1006 0241 58060000 		.4byte	0x658
 1007 0245 48       		.byte	0x48
 1008 0246 09       		.uleb128 0x9
 1009 0247 83090000 		.4byte	.LASF47
 1010 024b 06       		.byte	0x6
 1011 024c 6201     		.2byte	0x162
 1012 024e 3C030000 		.4byte	0x33c
 1013 0252 60       		.byte	0x60
 1014 0253 00       		.byte	0
 1015 0254 04       		.uleb128 0x4
 1016 0255 C5060000 		.4byte	.LASF48
 1017 0259 05       		.byte	0x5
 1018 025a 44       		.byte	0x44
 1019 025b 5F020000 		.4byte	0x25f
 1020 025f 0A       		.uleb128 0xa
 1021 0260 04       		.byte	0x4
 1022 0261 36010000 		.4byte	0x136
 1023 0265 04       		.uleb128 0x4
 1024 0266 C2000000 		.4byte	.LASF49
 1025 026a 05       		.byte	0x5
 1026 026b 49       		.byte	0x49
 1027 026c 70020000 		.4byte	0x270
 1028 0270 06       		.uleb128 0x6
 1029 0271 DB040000 		.4byte	.LASF51
 1030 0275 04       		.byte	0x4
 1031 0276 06       		.byte	0x6
 1032 0277 B0       		.byte	0xb0
 1033 0278 89020000 		.4byte	0x289
 1034 027c 07       		.uleb128 0x7
 1035 027d 8D070000 		.4byte	.LASF28
 1036 0281 06       		.byte	0x6
 1037 0282 B1       		.byte	0xb1
 1038 0283 5F020000 		.4byte	0x25f
 1039 0287 00       		.byte	0
 1040 0288 00       		.byte	0
 1041 0289 04       		.uleb128 0x4
 1042 028a 00000000 		.4byte	.LASF52
 1043 028e 05       		.byte	0x5
 1044 028f 50       		.byte	0x50
 1045 0290 94020000 		.4byte	0x294
 1046 0294 06       		.uleb128 0x6
 1047 0295 D9050000 		.4byte	.LASF53
 1048 0299 08       		.byte	0x8
 1049 029a 06       		.byte	0x6
 1050 029b B7       		.byte	0xb7
 1051 029c B9020000 		.4byte	0x2b9
 1052 02a0 07       		.uleb128 0x7
 1053 02a1 8D070000 		.4byte	.LASF28
 1054 02a5 06       		.byte	0x6
ARM GAS  C:\Users\Luis\AppData\Local\Temp\ccPmRWnQ.s 			page 20


 1055 02a6 B8       		.byte	0xb8
 1056 02a7 5F020000 		.4byte	0x25f
 1057 02ab 00       		.byte	0
 1058 02ac 07       		.uleb128 0x7
 1059 02ad F5070000 		.4byte	.LASF29
 1060 02b1 06       		.byte	0x6
 1061 02b2 B9       		.byte	0xb9
 1062 02b3 5F020000 		.4byte	0x25f
 1063 02b7 04       		.byte	0x4
 1064 02b8 00       		.byte	0
 1065 02b9 04       		.uleb128 0x4
 1066 02ba 2E080000 		.4byte	.LASF54
 1067 02be 05       		.byte	0x5
 1068 02bf 57       		.byte	0x57
 1069 02c0 C4020000 		.4byte	0x2c4
 1070 02c4 0B       		.uleb128 0xb
 1071 02c5 E5010000 		.4byte	.LASF55
 1072 02c9 1C       		.byte	0x1c
 1073 02ca 06       		.byte	0x6
 1074 02cb 9001     		.2byte	0x190
 1075 02cd 20030000 		.4byte	0x320
 1076 02d1 09       		.uleb128 0x9
 1077 02d2 EA050000 		.4byte	.LASF56
 1078 02d6 06       		.byte	0x6
 1079 02d7 9101     		.2byte	0x191
 1080 02d9 89020000 		.4byte	0x289
 1081 02dd 00       		.byte	0
 1082 02de 09       		.uleb128 0x9
 1083 02df CE020000 		.4byte	.LASF57
 1084 02e3 06       		.byte	0x6
 1085 02e4 9201     		.2byte	0x192
 1086 02e6 F4000000 		.4byte	0xf4
 1087 02ea 08       		.byte	0x8
 1088 02eb 09       		.uleb128 0x9
 1089 02ec 7D090000 		.4byte	.LASF58
 1090 02f0 06       		.byte	0x6
 1091 02f1 9401     		.2byte	0x194
 1092 02f3 C8040000 		.4byte	0x4c8
 1093 02f7 0C       		.byte	0xc
 1094 02f8 09       		.uleb128 0x9
 1095 02f9 F2050000 		.4byte	.LASF59
 1096 02fd 06       		.byte	0x6
 1097 02fe 9701     		.2byte	0x197
 1098 0300 5F020000 		.4byte	0x25f
 1099 0304 10       		.byte	0x10
 1100 0305 09       		.uleb128 0x9
 1101 0306 5A060000 		.4byte	.LASF60
 1102 030a 06       		.byte	0x6
 1103 030b 9801     		.2byte	0x198
 1104 030d 5F020000 		.4byte	0x25f
 1105 0311 14       		.byte	0x14
 1106 0312 09       		.uleb128 0x9
 1107 0313 24070000 		.4byte	.LASF61
 1108 0317 06       		.byte	0x6
 1109 0318 9B01     		.2byte	0x19b
 1110 031a 5F020000 		.4byte	0x25f
 1111 031e 18       		.byte	0x18
ARM GAS  C:\Users\Luis\AppData\Local\Temp\ccPmRWnQ.s 			page 21


 1112 031f 00       		.byte	0
 1113 0320 04       		.uleb128 0x4
 1114 0321 33020000 		.4byte	.LASF62
 1115 0325 05       		.byte	0x5
 1116 0326 5C       		.byte	0x5c
 1117 0327 2B030000 		.4byte	0x32b
 1118 032b 0A       		.uleb128 0xa
 1119 032c 04       		.byte	0x4
 1120 032d 31030000 		.4byte	0x331
 1121 0331 0C       		.uleb128 0xc
 1122 0332 3C030000 		.4byte	0x33c
 1123 0336 0D       		.uleb128 0xd
 1124 0337 3C030000 		.4byte	0x33c
 1125 033b 00       		.byte	0
 1126 033c 0E       		.uleb128 0xe
 1127 033d 04       		.byte	0x4
 1128 033e 04       		.uleb128 0x4
 1129 033f 21060000 		.4byte	.LASF63
 1130 0343 05       		.byte	0x5
 1131 0344 61       		.byte	0x61
 1132 0345 49030000 		.4byte	0x349
 1133 0349 0B       		.uleb128 0xb
 1134 034a 13030000 		.4byte	.LASF64
 1135 034e 14       		.byte	0x14
 1136 034f 06       		.byte	0x6
 1137 0350 6B01     		.2byte	0x16b
 1138 0352 98030000 		.4byte	0x398
 1139 0356 09       		.uleb128 0x9
 1140 0357 11090000 		.4byte	.LASF65
 1141 035b 06       		.byte	0x6
 1142 035c 6C01     		.2byte	0x16c
 1143 035e 84070000 		.4byte	0x784
 1144 0362 00       		.byte	0
 1145 0363 09       		.uleb128 0x9
 1146 0364 AA090000 		.4byte	.LASF66
 1147 0368 06       		.byte	0x6
 1148 0369 6D01     		.2byte	0x16d
 1149 036b 84070000 		.4byte	0x784
 1150 036f 04       		.byte	0x4
 1151 0370 09       		.uleb128 0x9
 1152 0371 F4030000 		.4byte	.LASF67
 1153 0375 06       		.byte	0x6
 1154 0376 6E01     		.2byte	0x16e
 1155 0378 2B010000 		.4byte	0x12b
 1156 037c 08       		.byte	0x8
 1157 037d 09       		.uleb128 0x9
 1158 037e A2090000 		.4byte	.LASF68
 1159 0382 06       		.byte	0x6
 1160 0383 6F01     		.2byte	0x16f
 1161 0385 20030000 		.4byte	0x320
 1162 0389 0C       		.byte	0xc
 1163 038a 09       		.uleb128 0x9
 1164 038b E2020000 		.4byte	.LASF69
 1165 038f 06       		.byte	0x6
 1166 0390 7101     		.2byte	0x171
 1167 0392 3C030000 		.4byte	0x33c
 1168 0396 10       		.byte	0x10
ARM GAS  C:\Users\Luis\AppData\Local\Temp\ccPmRWnQ.s 			page 22


 1169 0397 00       		.byte	0
 1170 0398 04       		.uleb128 0x4
 1171 0399 99080000 		.4byte	.LASF70
 1172 039d 05       		.byte	0x5
 1173 039e 66       		.byte	0x66
 1174 039f A3030000 		.4byte	0x3a3
 1175 03a3 0B       		.uleb128 0xb
 1176 03a4 DD030000 		.4byte	.LASF71
 1177 03a8 10       		.byte	0x10
 1178 03a9 06       		.byte	0x6
 1179 03aa 7B01     		.2byte	0x17b
 1180 03ac E5030000 		.4byte	0x3e5
 1181 03b0 09       		.uleb128 0x9
 1182 03b1 11090000 		.4byte	.LASF65
 1183 03b5 06       		.byte	0x6
 1184 03b6 7C01     		.2byte	0x17c
 1185 03b8 84070000 		.4byte	0x784
 1186 03bc 00       		.byte	0
 1187 03bd 09       		.uleb128 0x9
 1188 03be AA090000 		.4byte	.LASF66
 1189 03c2 06       		.byte	0x6
 1190 03c3 7E01     		.2byte	0x17e
 1191 03c5 84070000 		.4byte	0x784
 1192 03c9 04       		.byte	0x4
 1193 03ca 09       		.uleb128 0x9
 1194 03cb F4030000 		.4byte	.LASF67
 1195 03cf 06       		.byte	0x6
 1196 03d0 8001     		.2byte	0x180
 1197 03d2 2B010000 		.4byte	0x12b
 1198 03d6 08       		.byte	0x8
 1199 03d7 09       		.uleb128 0x9
 1200 03d8 07050000 		.4byte	.LASF72
 1201 03dc 06       		.byte	0x6
 1202 03dd 8801     		.2byte	0x188
 1203 03df 2B010000 		.4byte	0x12b
 1204 03e3 0C       		.byte	0xc
 1205 03e4 00       		.byte	0
 1206 03e5 04       		.uleb128 0x4
 1207 03e6 C2050000 		.4byte	.LASF73
 1208 03ea 05       		.byte	0x5
 1209 03eb 6B       		.byte	0x6b
 1210 03ec F0030000 		.4byte	0x3f0
 1211 03f0 0F       		.uleb128 0xf
 1212 03f1 43020000 		.4byte	.LASF74
 1213 03f5 1404     		.2byte	0x414
 1214 03f7 06       		.byte	0x6
 1215 03f8 A201     		.2byte	0x1a2
 1216 03fa 33040000 		.4byte	0x433
 1217 03fe 09       		.uleb128 0x9
 1218 03ff B6080000 		.4byte	.LASF75
 1219 0403 06       		.byte	0x6
 1220 0404 AA01     		.2byte	0x1aa
 1221 0406 8A070000 		.4byte	0x78a
 1222 040a 00       		.byte	0
 1223 040b 09       		.uleb128 0x9
 1224 040c BB030000 		.4byte	.LASF76
 1225 0410 06       		.byte	0x6
ARM GAS  C:\Users\Luis\AppData\Local\Temp\ccPmRWnQ.s 			page 23


 1226 0411 AF01     		.2byte	0x1af
 1227 0413 15010000 		.4byte	0x115
 1228 0417 04       		.byte	0x4
 1229 0418 09       		.uleb128 0x9
 1230 0419 E8060000 		.4byte	.LASF77
 1231 041d 06       		.byte	0x6
 1232 041e B301     		.2byte	0x1b3
 1233 0420 15010000 		.4byte	0x115
 1234 0424 08       		.byte	0x8
 1235 0425 09       		.uleb128 0x9
 1236 0426 49080000 		.4byte	.LASF78
 1237 042a 06       		.byte	0x6
 1238 042b B901     		.2byte	0x1b9
 1239 042d EA050000 		.4byte	0x5ea
 1240 0431 0C       		.byte	0xc
 1241 0432 00       		.byte	0
 1242 0433 04       		.uleb128 0x4
 1243 0434 28090000 		.4byte	.LASF79
 1244 0438 05       		.byte	0x5
 1245 0439 70       		.byte	0x70
 1246 043a 3E040000 		.4byte	0x43e
 1247 043e 0F       		.uleb128 0xf
 1248 043f 6F070000 		.4byte	.LASF80
 1249 0443 E805     		.2byte	0x5e8
 1250 0445 06       		.byte	0x6
 1251 0446 C201     		.2byte	0x1c2
 1252 0448 AB040000 		.4byte	0x4ab
 1253 044c 09       		.uleb128 0x9
 1254 044d 9F070000 		.4byte	.LASF81
 1255 0451 06       		.byte	0x6
 1256 0452 C601     		.2byte	0x1c6
 1257 0454 B9020000 		.4byte	0x2b9
 1258 0458 00       		.byte	0
 1259 0459 09       		.uleb128 0x9
 1260 045a DE010000 		.4byte	.LASF82
 1261 045e 06       		.byte	0x6
 1262 045f CA01     		.2byte	0x1ca
 1263 0461 98030000 		.4byte	0x398
 1264 0465 1C       		.byte	0x1c
 1265 0466 08       		.uleb128 0x8
 1266 0467 64626700 		.ascii	"dbg\000"
 1267 046b 06       		.byte	0x6
 1268 046c CE01     		.2byte	0x1ce
 1269 046e E5030000 		.4byte	0x3e5
 1270 0472 2C       		.byte	0x2c
 1271 0473 10       		.uleb128 0x10
 1272 0474 B1060000 		.4byte	.LASF83
 1273 0478 06       		.byte	0x6
 1274 0479 D201     		.2byte	0x1d2
 1275 047b 36010000 		.4byte	0x136
 1276 047f 4004     		.2byte	0x440
 1277 0481 11       		.uleb128 0x11
 1278 0482 746D00   		.ascii	"tm\000"
 1279 0485 06       		.byte	0x6
 1280 0486 D701     		.2byte	0x1d7
 1281 0488 0A060000 		.4byte	0x60a
 1282 048c A804     		.2byte	0x4a8
ARM GAS  C:\Users\Luis\AppData\Local\Temp\ccPmRWnQ.s 			page 24


 1283 048e 10       		.uleb128 0x10
 1284 048f D5020000 		.4byte	.LASF84
 1285 0493 06       		.byte	0x6
 1286 0494 DD01     		.2byte	0x1dd
 1287 0496 9C060000 		.4byte	0x69c
 1288 049a B004     		.2byte	0x4b0
 1289 049c 10       		.uleb128 0x10
 1290 049d F3010000 		.4byte	.LASF85
 1291 04a1 06       		.byte	0x6
 1292 04a2 E301     		.2byte	0x1e3
 1293 04a4 8F070000 		.4byte	0x78f
 1294 04a8 E804     		.2byte	0x4e8
 1295 04aa 00       		.byte	0
 1296 04ab 03       		.uleb128 0x3
 1297 04ac 04       		.byte	0x4
 1298 04ad 07       		.byte	0x7
 1299 04ae 01080000 		.4byte	.LASF86
 1300 04b2 04       		.uleb128 0x4
 1301 04b3 B9050000 		.4byte	.LASF87
 1302 04b7 07       		.byte	0x7
 1303 04b8 65       		.byte	0x65
 1304 04b9 3C030000 		.4byte	0x33c
 1305 04bd 04       		.uleb128 0x4
 1306 04be E0080000 		.4byte	.LASF88
 1307 04c2 07       		.byte	0x7
 1308 04c3 6D       		.byte	0x6d
 1309 04c4 A6000000 		.4byte	0xa6
 1310 04c8 06       		.uleb128 0x6
 1311 04c9 06060000 		.4byte	.LASF89
 1312 04cd 04       		.byte	0x4
 1313 04ce 07       		.byte	0x7
 1314 04cf 89       		.byte	0x89
 1315 04d0 E1040000 		.4byte	0x4e1
 1316 04d4 12       		.uleb128 0x12
 1317 04d5 72313300 		.ascii	"r13\000"
 1318 04d9 07       		.byte	0x7
 1319 04da 8A       		.byte	0x8a
 1320 04db 5C050000 		.4byte	0x55c
 1321 04df 00       		.byte	0
 1322 04e0 00       		.byte	0
 1323 04e1 06       		.uleb128 0x6
 1324 04e2 4A070000 		.4byte	.LASF90
 1325 04e6 24       		.byte	0x24
 1326 04e7 08       		.byte	0x8
 1327 04e8 F4       		.byte	0xf4
 1328 04e9 5C050000 		.4byte	0x55c
 1329 04ed 08       		.uleb128 0x8
 1330 04ee 723400   		.ascii	"r4\000"
 1331 04f1 08       		.byte	0x8
 1332 04f2 0701     		.2byte	0x107
 1333 04f4 B2040000 		.4byte	0x4b2
 1334 04f8 00       		.byte	0
 1335 04f9 08       		.uleb128 0x8
 1336 04fa 723500   		.ascii	"r5\000"
 1337 04fd 08       		.byte	0x8
 1338 04fe 0801     		.2byte	0x108
 1339 0500 B2040000 		.4byte	0x4b2
ARM GAS  C:\Users\Luis\AppData\Local\Temp\ccPmRWnQ.s 			page 25


 1340 0504 04       		.byte	0x4
 1341 0505 08       		.uleb128 0x8
 1342 0506 723600   		.ascii	"r6\000"
 1343 0509 08       		.byte	0x8
 1344 050a 0901     		.2byte	0x109
 1345 050c B2040000 		.4byte	0x4b2
 1346 0510 08       		.byte	0x8
 1347 0511 08       		.uleb128 0x8
 1348 0512 723700   		.ascii	"r7\000"
 1349 0515 08       		.byte	0x8
 1350 0516 0A01     		.2byte	0x10a
 1351 0518 B2040000 		.4byte	0x4b2
 1352 051c 0C       		.byte	0xc
 1353 051d 08       		.uleb128 0x8
 1354 051e 723800   		.ascii	"r8\000"
 1355 0521 08       		.byte	0x8
 1356 0522 0B01     		.2byte	0x10b
 1357 0524 B2040000 		.4byte	0x4b2
 1358 0528 10       		.byte	0x10
 1359 0529 08       		.uleb128 0x8
 1360 052a 723900   		.ascii	"r9\000"
 1361 052d 08       		.byte	0x8
 1362 052e 0C01     		.2byte	0x10c
 1363 0530 B2040000 		.4byte	0x4b2
 1364 0534 14       		.byte	0x14
 1365 0535 08       		.uleb128 0x8
 1366 0536 72313000 		.ascii	"r10\000"
 1367 053a 08       		.byte	0x8
 1368 053b 0D01     		.2byte	0x10d
 1369 053d B2040000 		.4byte	0x4b2
 1370 0541 18       		.byte	0x18
 1371 0542 08       		.uleb128 0x8
 1372 0543 72313100 		.ascii	"r11\000"
 1373 0547 08       		.byte	0x8
 1374 0548 0E01     		.2byte	0x10e
 1375 054a B2040000 		.4byte	0x4b2
 1376 054e 1C       		.byte	0x1c
 1377 054f 08       		.uleb128 0x8
 1378 0550 6C7200   		.ascii	"lr\000"
 1379 0553 08       		.byte	0x8
 1380 0554 0F01     		.2byte	0x10f
 1381 0556 B2040000 		.4byte	0x4b2
 1382 055a 20       		.byte	0x20
 1383 055b 00       		.byte	0
 1384 055c 0A       		.uleb128 0xa
 1385 055d 04       		.byte	0x4
 1386 055e E1040000 		.4byte	0x4e1
 1387 0562 13       		.uleb128 0x13
 1388 0563 10       		.byte	0x10
 1389 0564 09       		.byte	0x9
 1390 0565 51       		.byte	0x51
 1391 0566 9B050000 		.4byte	0x59b
 1392 056a 07       		.uleb128 0x7
 1393 056b 47050000 		.4byte	.LASF91
 1394 056f 09       		.byte	0x9
 1395 0570 55       		.byte	0x55
 1396 0571 2B010000 		.4byte	0x12b
ARM GAS  C:\Users\Luis\AppData\Local\Temp\ccPmRWnQ.s 			page 26


 1397 0575 00       		.byte	0
 1398 0576 07       		.uleb128 0x7
 1399 0577 2B050000 		.4byte	.LASF92
 1400 057b 09       		.byte	0x9
 1401 057c 59       		.byte	0x59
 1402 057d 5F020000 		.4byte	0x25f
 1403 0581 04       		.byte	0x4
 1404 0582 07       		.uleb128 0x7
 1405 0583 51030000 		.4byte	.LASF93
 1406 0587 09       		.byte	0x9
 1407 0588 5D       		.byte	0x5d
 1408 0589 3C030000 		.4byte	0x33c
 1409 058d 08       		.byte	0x8
 1410 058e 07       		.uleb128 0x7
 1411 058f F3000000 		.4byte	.LASF94
 1412 0593 09       		.byte	0x9
 1413 0594 61       		.byte	0x61
 1414 0595 45000000 		.4byte	0x45
 1415 0599 0C       		.byte	0xc
 1416 059a 00       		.byte	0
 1417 059b 04       		.uleb128 0x4
 1418 059c 65080000 		.4byte	.LASF95
 1419 05a0 09       		.byte	0x9
 1420 05a1 62       		.byte	0x62
 1421 05a2 62050000 		.4byte	0x562
 1422 05a6 14       		.uleb128 0x14
 1423 05a7 0804     		.2byte	0x408
 1424 05a9 09       		.byte	0x9
 1425 05aa 67       		.byte	0x67
 1426 05ab D4050000 		.4byte	0x5d4
 1427 05af 07       		.uleb128 0x7
 1428 05b0 A3050000 		.4byte	.LASF96
 1429 05b4 09       		.byte	0x9
 1430 05b5 6B       		.byte	0x6b
 1431 05b6 2C000000 		.4byte	0x2c
 1432 05ba 00       		.byte	0
 1433 05bb 07       		.uleb128 0x7
 1434 05bc 4C060000 		.4byte	.LASF97
 1435 05c0 09       		.byte	0x9
 1436 05c1 6F       		.byte	0x6f
 1437 05c2 D4050000 		.4byte	0x5d4
 1438 05c6 04       		.byte	0x4
 1439 05c7 07       		.uleb128 0x7
 1440 05c8 3D060000 		.4byte	.LASF98
 1441 05cc 09       		.byte	0x9
 1442 05cd 73       		.byte	0x73
 1443 05ce DA050000 		.4byte	0x5da
 1444 05d2 08       		.byte	0x8
 1445 05d3 00       		.byte	0
 1446 05d4 0A       		.uleb128 0xa
 1447 05d5 04       		.byte	0x4
 1448 05d6 9B050000 		.4byte	0x59b
 1449 05da 15       		.uleb128 0x15
 1450 05db 9B050000 		.4byte	0x59b
 1451 05df EA050000 		.4byte	0x5ea
 1452 05e3 16       		.uleb128 0x16
 1453 05e4 AB040000 		.4byte	0x4ab
ARM GAS  C:\Users\Luis\AppData\Local\Temp\ccPmRWnQ.s 			page 27


 1454 05e8 3F       		.byte	0x3f
 1455 05e9 00       		.byte	0
 1456 05ea 04       		.uleb128 0x4
 1457 05eb 45090000 		.4byte	.LASF99
 1458 05ef 09       		.byte	0x9
 1459 05f0 74       		.byte	0x74
 1460 05f1 A6050000 		.4byte	0x5a6
 1461 05f5 13       		.uleb128 0x13
 1462 05f6 04       		.byte	0x4
 1463 05f7 0A       		.byte	0xa
 1464 05f8 38       		.byte	0x38
 1465 05f9 0A060000 		.4byte	0x60a
 1466 05fd 07       		.uleb128 0x7
 1467 05fe 6E030000 		.4byte	.LASF100
 1468 0602 0A       		.byte	0xa
 1469 0603 3C       		.byte	0x3c
 1470 0604 BD000000 		.4byte	0xbd
 1471 0608 00       		.byte	0
 1472 0609 00       		.byte	0
 1473 060a 04       		.uleb128 0x4
 1474 060b 23000000 		.4byte	.LASF101
 1475 060f 0A       		.byte	0xa
 1476 0610 3D       		.byte	0x3d
 1477 0611 F5050000 		.4byte	0x5f5
 1478 0615 13       		.uleb128 0x13
 1479 0616 18       		.byte	0x18
 1480 0617 0A       		.byte	0xa
 1481 0618 48       		.byte	0x48
 1482 0619 58060000 		.4byte	0x658
 1483 061d 07       		.uleb128 0x7
 1484 061e 7C080000 		.4byte	.LASF102
 1485 0622 0A       		.byte	0xa
 1486 0623 49       		.byte	0x49
 1487 0624 BD000000 		.4byte	0xbd
 1488 0628 00       		.byte	0
 1489 0629 07       		.uleb128 0x7
 1490 062a C3030000 		.4byte	.LASF103
 1491 062e 0A       		.byte	0xa
 1492 062f 4A       		.byte	0x4a
 1493 0630 BD000000 		.4byte	0xbd
 1494 0634 04       		.byte	0x4
 1495 0635 07       		.uleb128 0x7
 1496 0636 C6040000 		.4byte	.LASF104
 1497 063a 0A       		.byte	0xa
 1498 063b 4B       		.byte	0x4b
 1499 063c BD000000 		.4byte	0xbd
 1500 0640 08       		.byte	0x8
 1501 0641 12       		.uleb128 0x12
 1502 0642 6E00     		.ascii	"n\000"
 1503 0644 0A       		.byte	0xa
 1504 0645 4C       		.byte	0x4c
 1505 0646 20010000 		.4byte	0x120
 1506 064a 0C       		.byte	0xc
 1507 064b 07       		.uleb128 0x7
 1508 064c D7000000 		.4byte	.LASF105
 1509 0650 0A       		.byte	0xa
 1510 0651 4D       		.byte	0x4d
ARM GAS  C:\Users\Luis\AppData\Local\Temp\ccPmRWnQ.s 			page 28


 1511 0652 C8000000 		.4byte	0xc8
 1512 0656 10       		.byte	0x10
 1513 0657 00       		.byte	0
 1514 0658 04       		.uleb128 0x4
 1515 0659 90050000 		.4byte	.LASF106
 1516 065d 0A       		.byte	0xa
 1517 065e 4E       		.byte	0x4e
 1518 065f 15060000 		.4byte	0x615
 1519 0663 13       		.uleb128 0x13
 1520 0664 38       		.byte	0x38
 1521 0665 0B       		.byte	0xb
 1522 0666 38       		.byte	0x38
 1523 0667 9C060000 		.4byte	0x69c
 1524 066b 07       		.uleb128 0x7
 1525 066c F1060000 		.4byte	.LASF107
 1526 0670 0B       		.byte	0xb
 1527 0671 39       		.byte	0x39
 1528 0672 20010000 		.4byte	0x120
 1529 0676 00       		.byte	0
 1530 0677 07       		.uleb128 0x7
 1531 0678 70060000 		.4byte	.LASF108
 1532 067c 0B       		.byte	0xb
 1533 067d 3A       		.byte	0x3a
 1534 067e 20010000 		.4byte	0x120
 1535 0682 04       		.byte	0x4
 1536 0683 07       		.uleb128 0x7
 1537 0684 79070000 		.4byte	.LASF109
 1538 0688 0B       		.byte	0xb
 1539 0689 3B       		.byte	0x3b
 1540 068a 58060000 		.4byte	0x658
 1541 068e 08       		.byte	0x8
 1542 068f 07       		.uleb128 0x7
 1543 0690 B7000000 		.4byte	.LASF110
 1544 0694 0B       		.byte	0xb
 1545 0695 3D       		.byte	0x3d
 1546 0696 58060000 		.4byte	0x658
 1547 069a 20       		.byte	0x20
 1548 069b 00       		.byte	0
 1549 069c 04       		.uleb128 0x4
 1550 069d B3020000 		.4byte	.LASF111
 1551 06a1 0B       		.byte	0xb
 1552 06a2 3F       		.byte	0x3f
 1553 06a3 63060000 		.4byte	0x663
 1554 06a7 17       		.uleb128 0x17
 1555 06a8 04       		.byte	0x4
 1556 06a9 06       		.byte	0x6
 1557 06aa FA       		.byte	0xfa
 1558 06ab 04070000 		.4byte	0x704
 1559 06af 18       		.uleb128 0x18
 1560 06b0 1D040000 		.4byte	.LASF112
 1561 06b4 06       		.byte	0x6
 1562 06b5 0101     		.2byte	0x101
 1563 06b7 FF000000 		.4byte	0xff
 1564 06bb 18       		.uleb128 0x18
 1565 06bc DA090000 		.4byte	.LASF113
 1566 06c0 06       		.byte	0x6
 1567 06c1 0801     		.2byte	0x108
ARM GAS  C:\Users\Luis\AppData\Local\Temp\ccPmRWnQ.s 			page 29


 1568 06c3 FF000000 		.4byte	0xff
 1569 06c7 18       		.uleb128 0x18
 1570 06c8 3C020000 		.4byte	.LASF114
 1571 06cc 06       		.byte	0x6
 1572 06cd 0F01     		.2byte	0x10f
 1573 06cf 3C030000 		.4byte	0x33c
 1574 06d3 18       		.uleb128 0x18
 1575 06d4 34090000 		.4byte	.LASF115
 1576 06d8 06       		.byte	0x6
 1577 06d9 1601     		.2byte	0x116
 1578 06db 04070000 		.4byte	0x704
 1579 06df 18       		.uleb128 0x18
 1580 06e0 5E080000 		.4byte	.LASF116
 1581 06e4 06       		.byte	0x6
 1582 06e5 1E01     		.2byte	0x11e
 1583 06e7 2F070000 		.4byte	0x72f
 1584 06eb 18       		.uleb128 0x18
 1585 06ec 1C000000 		.4byte	.LASF117
 1586 06f0 06       		.byte	0x6
 1587 06f1 2701     		.2byte	0x127
 1588 06f3 66070000 		.4byte	0x766
 1589 06f7 18       		.uleb128 0x18
 1590 06f8 0C020000 		.4byte	.LASF118
 1591 06fc 06       		.byte	0x6
 1592 06fd 2F01     		.2byte	0x12f
 1593 06ff 0A010000 		.4byte	0x10a
 1594 0703 00       		.byte	0
 1595 0704 0A       		.uleb128 0xa
 1596 0705 04       		.byte	0x4
 1597 0706 54020000 		.4byte	0x254
 1598 070a 06       		.uleb128 0x6
 1599 070b FE020000 		.4byte	.LASF119
 1600 070f 0C       		.byte	0xc
 1601 0710 0C       		.byte	0xc
 1602 0711 34       		.byte	0x34
 1603 0712 2F070000 		.4byte	0x72f
 1604 0716 07       		.uleb128 0x7
 1605 0717 7F000000 		.4byte	.LASF120
 1606 071b 0C       		.byte	0xc
 1607 071c 35       		.byte	0x35
 1608 071d 89020000 		.4byte	0x289
 1609 0721 00       		.byte	0
 1610 0722 07       		.uleb128 0x7
 1611 0723 5E020000 		.4byte	.LASF121
 1612 0727 0C       		.byte	0xc
 1613 0728 37       		.byte	0x37
 1614 0729 15010000 		.4byte	0x115
 1615 072d 08       		.byte	0x8
 1616 072e 00       		.byte	0
 1617 072f 0A       		.uleb128 0xa
 1618 0730 04       		.byte	0x4
 1619 0731 0A070000 		.4byte	0x70a
 1620 0735 06       		.uleb128 0x6
 1621 0736 B3040000 		.4byte	.LASF122
 1622 073a 10       		.byte	0x10
 1623 073b 0D       		.byte	0xd
 1624 073c 39       		.byte	0x39
ARM GAS  C:\Users\Luis\AppData\Local\Temp\ccPmRWnQ.s 			page 30


 1625 073d 66070000 		.4byte	0x766
 1626 0741 07       		.uleb128 0x7
 1627 0742 39070000 		.4byte	.LASF123
 1628 0746 0D       		.byte	0xd
 1629 0747 3A       		.byte	0x3a
 1630 0748 89020000 		.4byte	0x289
 1631 074c 00       		.byte	0
 1632 074d 07       		.uleb128 0x7
 1633 074e 77000000 		.4byte	.LASF124
 1634 0752 0D       		.byte	0xd
 1635 0753 3C       		.byte	0x3c
 1636 0754 5F020000 		.4byte	0x25f
 1637 0758 08       		.byte	0x8
 1638 0759 07       		.uleb128 0x7
 1639 075a 57090000 		.4byte	.LASF125
 1640 075e 0D       		.byte	0xd
 1641 075f 3E       		.byte	0x3e
 1642 0760 AA070000 		.4byte	0x7aa
 1643 0764 0C       		.byte	0xc
 1644 0765 00       		.byte	0
 1645 0766 0A       		.uleb128 0xa
 1646 0767 04       		.byte	0x4
 1647 0768 35070000 		.4byte	0x735
 1648 076c 0A       		.uleb128 0xa
 1649 076d 04       		.byte	0x4
 1650 076e 72070000 		.4byte	0x772
 1651 0772 19       		.uleb128 0x19
 1652 0773 77070000 		.4byte	0x777
 1653 0777 03       		.uleb128 0x3
 1654 0778 01       		.byte	0x1
 1655 0779 08       		.byte	0x8
 1656 077a 42000000 		.4byte	.LASF126
 1657 077e 0A       		.uleb128 0xa
 1658 077f 04       		.byte	0x4
 1659 0780 BD040000 		.4byte	0x4bd
 1660 0784 0A       		.uleb128 0xa
 1661 0785 04       		.byte	0x4
 1662 0786 3E030000 		.4byte	0x33e
 1663 078a 05       		.uleb128 0x5
 1664 078b 6C070000 		.4byte	0x76c
 1665 078f 15       		.uleb128 0x15
 1666 0790 BD040000 		.4byte	0x4bd
 1667 0794 9F070000 		.4byte	0x79f
 1668 0798 16       		.uleb128 0x16
 1669 0799 AB040000 		.4byte	0x4ab
 1670 079d 1F       		.byte	0x1f
 1671 079e 00       		.byte	0
 1672 079f 04       		.uleb128 0x4
 1673 07a0 74080000 		.4byte	.LASF127
 1674 07a4 0D       		.byte	0xd
 1675 07a5 34       		.byte	0x34
 1676 07a6 35070000 		.4byte	0x735
 1677 07aa 0A       		.uleb128 0xa
 1678 07ab 04       		.byte	0x4
 1679 07ac 9F070000 		.4byte	0x79f
 1680 07b0 03       		.uleb128 0x3
 1681 07b1 01       		.byte	0x1
ARM GAS  C:\Users\Luis\AppData\Local\Temp\ccPmRWnQ.s 			page 31


 1682 07b2 02       		.byte	0x2
 1683 07b3 34040000 		.4byte	.LASF128
 1684 07b7 04       		.uleb128 0x4
 1685 07b8 0E060000 		.4byte	.LASF129
 1686 07bc 0E       		.byte	0xe
 1687 07bd 38       		.byte	0x38
 1688 07be 45000000 		.4byte	0x45
 1689 07c2 04       		.uleb128 0x4
 1690 07c3 BC040000 		.4byte	.LASF130
 1691 07c7 0E       		.byte	0xe
 1692 07c8 39       		.byte	0x39
 1693 07c9 33000000 		.4byte	0x33
 1694 07cd 04       		.uleb128 0x4
 1695 07ce FC000000 		.4byte	.LASF131
 1696 07d2 0E       		.byte	0xe
 1697 07d3 3A       		.byte	0x3a
 1698 07d4 69000000 		.4byte	0x69
 1699 07d8 04       		.uleb128 0x4
 1700 07d9 3B080000 		.4byte	.LASF132
 1701 07dd 0E       		.byte	0xe
 1702 07de 3B       		.byte	0x3b
 1703 07df 57000000 		.4byte	0x57
 1704 07e3 04       		.uleb128 0x4
 1705 07e4 0F070000 		.4byte	.LASF133
 1706 07e8 0E       		.byte	0xe
 1707 07e9 3C       		.byte	0x3c
 1708 07ea 8D000000 		.4byte	0x8d
 1709 07ee 04       		.uleb128 0x4
 1710 07ef D1000000 		.4byte	.LASF134
 1711 07f3 0F       		.byte	0xf
 1712 07f4 2F       		.byte	0x2f
 1713 07f5 C2070000 		.4byte	0x7c2
 1714 07f9 1A       		.uleb128 0x1a
 1715 07fa 01       		.byte	0x1
 1716 07fb 10       		.byte	0x10
 1717 07fc 32       		.byte	0x32
 1718 07fd 1A080000 		.4byte	0x81a
 1719 0801 1B       		.uleb128 0x1b
 1720 0802 64020000 		.4byte	.LASF135
 1721 0806 00       		.sleb128 0
 1722 0807 1B       		.uleb128 0x1b
 1723 0808 2C040000 		.4byte	.LASF136
 1724 080c 01       		.sleb128 1
 1725 080d 1B       		.uleb128 0x1b
 1726 080e 92060000 		.4byte	.LASF137
 1727 0812 02       		.sleb128 2
 1728 0813 1B       		.uleb128 0x1b
 1729 0814 5E000000 		.4byte	.LASF138
 1730 0818 03       		.sleb128 3
 1731 0819 00       		.byte	0
 1732 081a 1A       		.uleb128 0x1a
 1733 081b 01       		.byte	0x1
 1734 081c 10       		.byte	0x10
 1735 081d 39       		.byte	0x39
 1736 081e 3B080000 		.4byte	0x83b
 1737 0822 1B       		.uleb128 0x1b
 1738 0823 55000000 		.4byte	.LASF139
ARM GAS  C:\Users\Luis\AppData\Local\Temp\ccPmRWnQ.s 			page 32


 1739 0827 00       		.sleb128 0
 1740 0828 1B       		.uleb128 0x1b
 1741 0829 C1090000 		.4byte	.LASF140
 1742 082d 01       		.sleb128 1
 1743 082e 1B       		.uleb128 0x1b
 1744 082f FD030000 		.4byte	.LASF141
 1745 0833 02       		.sleb128 2
 1746 0834 1B       		.uleb128 0x1b
 1747 0835 A9040000 		.4byte	.LASF142
 1748 0839 03       		.sleb128 3
 1749 083a 00       		.byte	0
 1750 083b 06       		.uleb128 0x6
 1751 083c C0080000 		.4byte	.LASF143
 1752 0840 10       		.byte	0x10
 1753 0841 10       		.byte	0x10
 1754 0842 4F       		.byte	0x4f
 1755 0843 9C080000 		.4byte	0x89c
 1756 0847 07       		.uleb128 0x7
 1757 0848 9F000000 		.4byte	.LASF144
 1758 084c 10       		.byte	0x10
 1759 084d 51       		.byte	0x51
 1760 084e 9C080000 		.4byte	0x89c
 1761 0852 00       		.byte	0
 1762 0853 07       		.uleb128 0x7
 1763 0854 24040000 		.4byte	.LASF145
 1764 0858 10       		.byte	0x10
 1765 0859 54       		.byte	0x54
 1766 085a 3C030000 		.4byte	0x33c
 1767 085e 04       		.byte	0x4
 1768 085f 07       		.uleb128 0x7
 1769 0860 09090000 		.4byte	.LASF146
 1770 0864 10       		.byte	0x10
 1771 0865 5D       		.byte	0x5d
 1772 0866 CD070000 		.4byte	0x7cd
 1773 086a 08       		.byte	0x8
 1774 086b 12       		.uleb128 0x12
 1775 086c 6C656E00 		.ascii	"len\000"
 1776 0870 10       		.byte	0x10
 1777 0871 60       		.byte	0x60
 1778 0872 CD070000 		.4byte	0x7cd
 1779 0876 0A       		.byte	0xa
 1780 0877 07       		.uleb128 0x7
 1781 0878 62050000 		.4byte	.LASF147
 1782 087c 10       		.byte	0x10
 1783 087d 63       		.byte	0x63
 1784 087e B7070000 		.4byte	0x7b7
 1785 0882 0C       		.byte	0xc
 1786 0883 07       		.uleb128 0x7
 1787 0884 67000000 		.4byte	.LASF148
 1788 0888 10       		.byte	0x10
 1789 0889 66       		.byte	0x66
 1790 088a B7070000 		.4byte	0x7b7
 1791 088e 0D       		.byte	0xd
 1792 088f 12       		.uleb128 0x12
 1793 0890 72656600 		.ascii	"ref\000"
 1794 0894 10       		.byte	0x10
 1795 0895 6D       		.byte	0x6d
ARM GAS  C:\Users\Luis\AppData\Local\Temp\ccPmRWnQ.s 			page 33


 1796 0896 CD070000 		.4byte	0x7cd
 1797 089a 0E       		.byte	0xe
 1798 089b 00       		.byte	0
 1799 089c 0A       		.uleb128 0xa
 1800 089d 04       		.byte	0x4
 1801 089e 3B080000 		.4byte	0x83b
 1802 08a2 06       		.uleb128 0x6
 1803 08a3 E3090000 		.4byte	.LASF149
 1804 08a7 04       		.byte	0x4
 1805 08a8 11       		.byte	0x11
 1806 08a9 2C       		.byte	0x2c
 1807 08aa BB080000 		.4byte	0x8bb
 1808 08ae 07       		.uleb128 0x7
 1809 08af EB080000 		.4byte	.LASF150
 1810 08b3 11       		.byte	0x11
 1811 08b4 2D       		.byte	0x2d
 1812 08b5 E3070000 		.4byte	0x7e3
 1813 08b9 00       		.byte	0
 1814 08ba 00       		.byte	0
 1815 08bb 06       		.uleb128 0x6
 1816 08bc 13050000 		.4byte	.LASF151
 1817 08c0 04       		.byte	0x4
 1818 08c1 11       		.byte	0x11
 1819 08c2 36       		.byte	0x36
 1820 08c3 D4080000 		.4byte	0x8d4
 1821 08c7 07       		.uleb128 0x7
 1822 08c8 EB080000 		.4byte	.LASF150
 1823 08cc 11       		.byte	0x11
 1824 08cd 37       		.byte	0x37
 1825 08ce E3070000 		.4byte	0x7e3
 1826 08d2 00       		.byte	0
 1827 08d3 00       		.byte	0
 1828 08d4 04       		.uleb128 0x4
 1829 08d5 B7090000 		.4byte	.LASF152
 1830 08d9 11       		.byte	0x11
 1831 08da 40       		.byte	0x40
 1832 08db A2080000 		.4byte	0x8a2
 1833 08df 04       		.uleb128 0x4
 1834 08e0 C5080000 		.4byte	.LASF153
 1835 08e4 11       		.byte	0x11
 1836 08e5 41       		.byte	0x41
 1837 08e6 BB080000 		.4byte	0x8bb
 1838 08ea 0A       		.uleb128 0xa
 1839 08eb 04       		.byte	0x4
 1840 08ec F0080000 		.4byte	0x8f0
 1841 08f0 06       		.uleb128 0x6
 1842 08f1 22090000 		.4byte	.LASF154
 1843 08f5 30       		.byte	0x30
 1844 08f6 12       		.byte	0x12
 1845 08f7 88       		.byte	0x88
 1846 08f8 A4090000 		.4byte	0x9a4
 1847 08fc 07       		.uleb128 0x7
 1848 08fd 9F000000 		.4byte	.LASF144
 1849 0901 12       		.byte	0x12
 1850 0902 8A       		.byte	0x8a
 1851 0903 EA080000 		.4byte	0x8ea
 1852 0907 00       		.byte	0
ARM GAS  C:\Users\Luis\AppData\Local\Temp\ccPmRWnQ.s 			page 34


 1853 0908 07       		.uleb128 0x7
 1854 0909 E3090000 		.4byte	.LASF149
 1855 090d 12       		.byte	0x12
 1856 090e 8D       		.byte	0x8d
 1857 090f D4080000 		.4byte	0x8d4
 1858 0913 04       		.byte	0x4
 1859 0914 07       		.uleb128 0x7
 1860 0915 D1050000 		.4byte	.LASF155
 1861 0919 12       		.byte	0x12
 1862 091a 8E       		.byte	0x8e
 1863 091b D4080000 		.4byte	0x8d4
 1864 091f 08       		.byte	0x8
 1865 0920 12       		.uleb128 0x12
 1866 0921 677700   		.ascii	"gw\000"
 1867 0924 12       		.byte	0x12
 1868 0925 8F       		.byte	0x8f
 1869 0926 D4080000 		.4byte	0x8d4
 1870 092a 0C       		.byte	0xc
 1871 092b 07       		.uleb128 0x7
 1872 092c 79060000 		.4byte	.LASF156
 1873 0930 12       		.byte	0x12
 1874 0931 93       		.byte	0x93
 1875 0932 A4090000 		.4byte	0x9a4
 1876 0936 10       		.byte	0x10
 1877 0937 07       		.uleb128 0x7
 1878 0938 47000000 		.4byte	.LASF157
 1879 093c 12       		.byte	0x12
 1880 093d 97       		.byte	0x97
 1881 093e C9090000 		.4byte	0x9c9
 1882 0942 14       		.byte	0x14
 1883 0943 07       		.uleb128 0x7
 1884 0944 CA090000 		.4byte	.LASF158
 1885 0948 12       		.byte	0x12
 1886 0949 9B       		.byte	0x9b
 1887 094a F9090000 		.4byte	0x9f9
 1888 094e 18       		.byte	0x18
 1889 094f 07       		.uleb128 0x7
 1890 0950 03090000 		.4byte	.LASF159
 1891 0954 12       		.byte	0x12
 1892 0955 AC       		.byte	0xac
 1893 0956 3C030000 		.4byte	0x33c
 1894 095a 1C       		.byte	0x1c
 1895 095b 12       		.uleb128 0x12
 1896 095c 6D747500 		.ascii	"mtu\000"
 1897 0960 12       		.byte	0x12
 1898 0961 BA       		.byte	0xba
 1899 0962 CD070000 		.4byte	0x7cd
 1900 0966 20       		.byte	0x20
 1901 0967 07       		.uleb128 0x7
 1902 0968 A8030000 		.4byte	.LASF160
 1903 096c 12       		.byte	0x12
 1904 096d BC       		.byte	0xbc
 1905 096e B7070000 		.4byte	0x7b7
 1906 0972 22       		.byte	0x22
 1907 0973 07       		.uleb128 0x7
 1908 0974 2C030000 		.4byte	.LASF161
 1909 0978 12       		.byte	0x12
ARM GAS  C:\Users\Luis\AppData\Local\Temp\ccPmRWnQ.s 			page 35


 1910 0979 BE       		.byte	0xbe
 1911 097a 1E0A0000 		.4byte	0xa1e
 1912 097e 23       		.byte	0x23
 1913 097f 07       		.uleb128 0x7
 1914 0980 67000000 		.4byte	.LASF148
 1915 0984 12       		.byte	0x12
 1916 0985 C0       		.byte	0xc0
 1917 0986 B7070000 		.4byte	0x7b7
 1918 098a 29       		.byte	0x29
 1919 098b 07       		.uleb128 0x7
 1920 098c C2070000 		.4byte	.LASF162
 1921 0990 12       		.byte	0x12
 1922 0991 C2       		.byte	0xc2
 1923 0992 2E0A0000 		.4byte	0xa2e
 1924 0996 2A       		.byte	0x2a
 1925 0997 12       		.uleb128 0x12
 1926 0998 6E756D00 		.ascii	"num\000"
 1927 099c 12       		.byte	0x12
 1928 099d C4       		.byte	0xc4
 1929 099e B7070000 		.4byte	0x7b7
 1930 09a2 2C       		.byte	0x2c
 1931 09a3 00       		.byte	0
 1932 09a4 04       		.uleb128 0x4
 1933 09a5 94020000 		.4byte	.LASF163
 1934 09a9 12       		.byte	0x12
 1935 09aa 6D       		.byte	0x6d
 1936 09ab AF090000 		.4byte	0x9af
 1937 09af 0A       		.uleb128 0xa
 1938 09b0 04       		.byte	0x4
 1939 09b1 B5090000 		.4byte	0x9b5
 1940 09b5 1C       		.uleb128 0x1c
 1941 09b6 EE070000 		.4byte	0x7ee
 1942 09ba C9090000 		.4byte	0x9c9
 1943 09be 0D       		.uleb128 0xd
 1944 09bf 9C080000 		.4byte	0x89c
 1945 09c3 0D       		.uleb128 0xd
 1946 09c4 EA080000 		.4byte	0x8ea
 1947 09c8 00       		.byte	0
 1948 09c9 04       		.uleb128 0x4
 1949 09ca 18020000 		.4byte	.LASF164
 1950 09ce 12       		.byte	0x12
 1951 09cf 76       		.byte	0x76
 1952 09d0 D4090000 		.4byte	0x9d4
 1953 09d4 0A       		.uleb128 0xa
 1954 09d5 04       		.byte	0x4
 1955 09d6 DA090000 		.4byte	0x9da
 1956 09da 1C       		.uleb128 0x1c
 1957 09db EE070000 		.4byte	0x7ee
 1958 09df F3090000 		.4byte	0x9f3
 1959 09e3 0D       		.uleb128 0xd
 1960 09e4 EA080000 		.4byte	0x8ea
 1961 09e8 0D       		.uleb128 0xd
 1962 09e9 9C080000 		.4byte	0x89c
 1963 09ed 0D       		.uleb128 0xd
 1964 09ee F3090000 		.4byte	0x9f3
 1965 09f2 00       		.byte	0
 1966 09f3 0A       		.uleb128 0xa
ARM GAS  C:\Users\Luis\AppData\Local\Temp\ccPmRWnQ.s 			page 36


 1967 09f4 04       		.byte	0x4
 1968 09f5 D4080000 		.4byte	0x8d4
 1969 09f9 04       		.uleb128 0x4
 1970 09fa C7070000 		.4byte	.LASF165
 1971 09fe 12       		.byte	0x12
 1972 09ff 7E       		.byte	0x7e
 1973 0a00 040A0000 		.4byte	0xa04
 1974 0a04 0A       		.uleb128 0xa
 1975 0a05 04       		.byte	0x4
 1976 0a06 0A0A0000 		.4byte	0xa0a
 1977 0a0a 1C       		.uleb128 0x1c
 1978 0a0b EE070000 		.4byte	0x7ee
 1979 0a0f 1E0A0000 		.4byte	0xa1e
 1980 0a13 0D       		.uleb128 0xd
 1981 0a14 EA080000 		.4byte	0x8ea
 1982 0a18 0D       		.uleb128 0xd
 1983 0a19 9C080000 		.4byte	0x89c
 1984 0a1d 00       		.byte	0
 1985 0a1e 15       		.uleb128 0x15
 1986 0a1f B7070000 		.4byte	0x7b7
 1987 0a23 2E0A0000 		.4byte	0xa2e
 1988 0a27 16       		.uleb128 0x16
 1989 0a28 AB040000 		.4byte	0x4ab
 1990 0a2c 05       		.byte	0x5
 1991 0a2d 00       		.byte	0
 1992 0a2e 15       		.uleb128 0x15
 1993 0a2f 77070000 		.4byte	0x777
 1994 0a33 3E0A0000 		.4byte	0xa3e
 1995 0a37 16       		.uleb128 0x16
 1996 0a38 AB040000 		.4byte	0x4ab
 1997 0a3c 01       		.byte	0x1
 1998 0a3d 00       		.byte	0
 1999 0a3e 1D       		.uleb128 0x1d
 2000 0a3f DB070000 		.4byte	.LASF172
 2001 0a43 01       		.byte	0x1
 2002 0a44 13       		.byte	0x13
 2003 0a45 38       		.byte	0x38
 2004 0a46 6F0A0000 		.4byte	0xa6f
 2005 0a4a 1B       		.uleb128 0x1b
 2006 0a4b A4000000 		.4byte	.LASF166
 2007 0a4f 00       		.sleb128 0
 2008 0a50 1B       		.uleb128 0x1b
 2009 0a51 34000000 		.4byte	.LASF167
 2010 0a55 01       		.sleb128 1
 2011 0a56 1B       		.uleb128 0x1b
 2012 0a57 D1080000 		.4byte	.LASF168
 2013 0a5b 02       		.sleb128 2
 2014 0a5c 1B       		.uleb128 0x1b
 2015 0a5d 62060000 		.4byte	.LASF169
 2016 0a61 03       		.sleb128 3
 2017 0a62 1B       		.uleb128 0x1b
 2018 0a63 F0080000 		.4byte	.LASF170
 2019 0a67 04       		.sleb128 4
 2020 0a68 1B       		.uleb128 0x1b
 2021 0a69 C9030000 		.4byte	.LASF171
 2022 0a6d 05       		.sleb128 5
 2023 0a6e 00       		.byte	0
ARM GAS  C:\Users\Luis\AppData\Local\Temp\ccPmRWnQ.s 			page 37


 2024 0a6f 1D       		.uleb128 0x1d
 2025 0a70 87020000 		.4byte	.LASF173
 2026 0a74 01       		.byte	0x1
 2027 0a75 13       		.byte	0x13
 2028 0a76 41       		.byte	0x41
 2029 0a77 880A0000 		.4byte	0xa88
 2030 0a7b 1B       		.uleb128 0x1b
 2031 0a7c B6070000 		.4byte	.LASF174
 2032 0a80 00       		.sleb128 0
 2033 0a81 1B       		.uleb128 0x1b
 2034 0a82 02070000 		.4byte	.LASF175
 2035 0a86 01       		.sleb128 1
 2036 0a87 00       		.byte	0
 2037 0a88 06       		.uleb128 0x6
 2038 0a89 AB050000 		.4byte	.LASF176
 2039 0a8d 08       		.byte	0x8
 2040 0a8e 13       		.byte	0x13
 2041 0a8f 4F       		.byte	0x4f
 2042 0a90 D00A0000 		.4byte	0xad0
 2043 0a94 07       		.uleb128 0x7
 2044 0a95 62050000 		.4byte	.LASF147
 2045 0a99 13       		.byte	0x13
 2046 0a9a 50       		.byte	0x50
 2047 0a9b B7070000 		.4byte	0x7b7
 2048 0a9f 00       		.byte	0
 2049 0aa0 07       		.uleb128 0x7
 2050 0aa1 C1040000 		.4byte	.LASF177
 2051 0aa5 13       		.byte	0x13
 2052 0aa6 51       		.byte	0x51
 2053 0aa7 B7070000 		.4byte	0x7b7
 2054 0aab 01       		.byte	0x1
 2055 0aac 07       		.uleb128 0x7
 2056 0aad 16040000 		.4byte	.LASF178
 2057 0ab1 13       		.byte	0x13
 2058 0ab2 52       		.byte	0x52
 2059 0ab3 CD070000 		.4byte	0x7cd
 2060 0ab7 02       		.byte	0x2
 2061 0ab8 12       		.uleb128 0x12
 2062 0ab9 696400   		.ascii	"id\000"
 2063 0abc 13       		.byte	0x13
 2064 0abd 53       		.byte	0x53
 2065 0abe CD070000 		.4byte	0x7cd
 2066 0ac2 04       		.byte	0x4
 2067 0ac3 07       		.uleb128 0x7
 2068 0ac4 81020000 		.4byte	.LASF179
 2069 0ac8 13       		.byte	0x13
 2070 0ac9 54       		.byte	0x54
 2071 0aca CD070000 		.4byte	0x7cd
 2072 0ace 06       		.byte	0x6
 2073 0acf 00       		.byte	0
 2074 0ad0 06       		.uleb128 0x6
 2075 0ad1 AF070000 		.4byte	.LASF180
 2076 0ad5 14       		.byte	0x14
 2077 0ad6 14       		.byte	0x14
 2078 0ad7 74       		.byte	0x74
 2079 0ad8 550B0000 		.4byte	0xb55
 2080 0adc 07       		.uleb128 0x7
ARM GAS  C:\Users\Luis\AppData\Local\Temp\ccPmRWnQ.s 			page 38


 2081 0add 1B060000 		.4byte	.LASF181
 2082 0ae1 14       		.byte	0x14
 2083 0ae2 76       		.byte	0x76
 2084 0ae3 B7070000 		.4byte	0x7b7
 2085 0ae7 00       		.byte	0
 2086 0ae8 07       		.uleb128 0x7
 2087 0ae9 FC070000 		.4byte	.LASF182
 2088 0aed 14       		.byte	0x14
 2089 0aee 78       		.byte	0x78
 2090 0aef B7070000 		.4byte	0x7b7
 2091 0af3 01       		.byte	0x1
 2092 0af4 07       		.uleb128 0x7
 2093 0af5 B2090000 		.4byte	.LASF183
 2094 0af9 14       		.byte	0x14
 2095 0afa 7A       		.byte	0x7a
 2096 0afb CD070000 		.4byte	0x7cd
 2097 0aff 02       		.byte	0x2
 2098 0b00 12       		.uleb128 0x12
 2099 0b01 5F696400 		.ascii	"_id\000"
 2100 0b05 14       		.byte	0x14
 2101 0b06 7C       		.byte	0x7c
 2102 0b07 CD070000 		.4byte	0x7cd
 2103 0b0b 04       		.byte	0x4
 2104 0b0c 07       		.uleb128 0x7
 2105 0b0d B3030000 		.4byte	.LASF184
 2106 0b11 14       		.byte	0x14
 2107 0b12 7E       		.byte	0x7e
 2108 0b13 CD070000 		.4byte	0x7cd
 2109 0b17 06       		.byte	0x6
 2110 0b18 07       		.uleb128 0x7
 2111 0b19 02010000 		.4byte	.LASF185
 2112 0b1d 14       		.byte	0x14
 2113 0b1e 84       		.byte	0x84
 2114 0b1f B7070000 		.4byte	0x7b7
 2115 0b23 08       		.byte	0x8
 2116 0b24 07       		.uleb128 0x7
 2117 0b25 77050000 		.4byte	.LASF186
 2118 0b29 14       		.byte	0x14
 2119 0b2a 86       		.byte	0x86
 2120 0b2b B7070000 		.4byte	0x7b7
 2121 0b2f 09       		.byte	0x9
 2122 0b30 07       		.uleb128 0x7
 2123 0b31 A0030000 		.4byte	.LASF187
 2124 0b35 14       		.byte	0x14
 2125 0b36 88       		.byte	0x88
 2126 0b37 CD070000 		.4byte	0x7cd
 2127 0b3b 0A       		.byte	0xa
 2128 0b3c 12       		.uleb128 0x12
 2129 0b3d 73726300 		.ascii	"src\000"
 2130 0b41 14       		.byte	0x14
 2131 0b42 8A       		.byte	0x8a
 2132 0b43 DF080000 		.4byte	0x8df
 2133 0b47 0C       		.byte	0xc
 2134 0b48 07       		.uleb128 0x7
 2135 0b49 D5090000 		.4byte	.LASF188
 2136 0b4d 14       		.byte	0x14
 2137 0b4e 8B       		.byte	0x8b
ARM GAS  C:\Users\Luis\AppData\Local\Temp\ccPmRWnQ.s 			page 39


 2138 0b4f DF080000 		.4byte	0x8df
 2139 0b53 10       		.byte	0x10
 2140 0b54 00       		.byte	0
 2141 0b55 04       		.uleb128 0x4
 2142 0b56 F3040000 		.4byte	.LASF189
 2143 0b5a 15       		.byte	0x15
 2144 0b5b 4C       		.byte	0x4c
 2145 0b5c CD070000 		.4byte	0x7cd
 2146 0b60 06       		.uleb128 0x6
 2147 0b61 10000000 		.4byte	.LASF190
 2148 0b65 18       		.byte	0x18
 2149 0b66 16       		.byte	0x16
 2150 0b67 3A       		.byte	0x3a
 2151 0b68 FC0B0000 		.4byte	0xbfc
 2152 0b6c 07       		.uleb128 0x7
 2153 0b6d 8A090000 		.4byte	.LASF191
 2154 0b71 16       		.byte	0x16
 2155 0b72 3B       		.byte	0x3b
 2156 0b73 CD070000 		.4byte	0x7cd
 2157 0b77 00       		.byte	0
 2158 0b78 07       		.uleb128 0x7
 2159 0b79 40090000 		.4byte	.LASF192
 2160 0b7d 16       		.byte	0x16
 2161 0b7e 3C       		.byte	0x3c
 2162 0b7f CD070000 		.4byte	0x7cd
 2163 0b83 02       		.byte	0x2
 2164 0b84 12       		.uleb128 0x12
 2165 0b85 667700   		.ascii	"fw\000"
 2166 0b88 16       		.byte	0x16
 2167 0b89 3D       		.byte	0x3d
 2168 0b8a CD070000 		.4byte	0x7cd
 2169 0b8e 04       		.byte	0x4
 2170 0b8f 07       		.uleb128 0x7
 2171 0b90 FE080000 		.4byte	.LASF193
 2172 0b94 16       		.byte	0x16
 2173 0b95 3E       		.byte	0x3e
 2174 0b96 CD070000 		.4byte	0x7cd
 2175 0b9a 06       		.byte	0x6
 2176 0b9b 07       		.uleb128 0x7
 2177 0b9c 53060000 		.4byte	.LASF194
 2178 0ba0 16       		.byte	0x16
 2179 0ba1 3F       		.byte	0x3f
 2180 0ba2 CD070000 		.4byte	0x7cd
 2181 0ba6 08       		.byte	0x8
 2182 0ba7 07       		.uleb128 0x7
 2183 0ba8 EE070000 		.4byte	.LASF195
 2184 0bac 16       		.byte	0x16
 2185 0bad 40       		.byte	0x40
 2186 0bae CD070000 		.4byte	0x7cd
 2187 0bb2 0A       		.byte	0xa
 2188 0bb3 07       		.uleb128 0x7
 2189 0bb4 EC000000 		.4byte	.LASF196
 2190 0bb8 16       		.byte	0x16
 2191 0bb9 41       		.byte	0x41
 2192 0bba CD070000 		.4byte	0x7cd
 2193 0bbe 0C       		.byte	0xc
 2194 0bbf 07       		.uleb128 0x7
ARM GAS  C:\Users\Luis\AppData\Local\Temp\ccPmRWnQ.s 			page 40


 2195 0bc0 56070000 		.4byte	.LASF197
 2196 0bc4 16       		.byte	0x16
 2197 0bc5 42       		.byte	0x42
 2198 0bc6 CD070000 		.4byte	0x7cd
 2199 0bca 0E       		.byte	0xe
 2200 0bcb 07       		.uleb128 0x7
 2201 0bcc 56080000 		.4byte	.LASF198
 2202 0bd0 16       		.byte	0x16
 2203 0bd1 43       		.byte	0x43
 2204 0bd2 CD070000 		.4byte	0x7cd
 2205 0bd6 10       		.byte	0x10
 2206 0bd7 07       		.uleb128 0x7
 2207 0bd8 E9020000 		.4byte	.LASF199
 2208 0bdc 16       		.byte	0x16
 2209 0bdd 44       		.byte	0x44
 2210 0bde CD070000 		.4byte	0x7cd
 2211 0be2 12       		.byte	0x12
 2212 0be3 12       		.uleb128 0x12
 2213 0be4 65727200 		.ascii	"err\000"
 2214 0be8 16       		.byte	0x16
 2215 0be9 45       		.byte	0x45
 2216 0bea CD070000 		.4byte	0x7cd
 2217 0bee 14       		.byte	0x14
 2218 0bef 07       		.uleb128 0x7
 2219 0bf0 84070000 		.4byte	.LASF200
 2220 0bf4 16       		.byte	0x16
 2221 0bf5 46       		.byte	0x46
 2222 0bf6 CD070000 		.4byte	0x7cd
 2223 0bfa 16       		.byte	0x16
 2224 0bfb 00       		.byte	0
 2225 0bfc 06       		.uleb128 0x6
 2226 0bfd 02020000 		.4byte	.LASF201
 2227 0c01 0A       		.byte	0xa
 2228 0c02 16       		.byte	0x16
 2229 0c03 5A       		.byte	0x5a
 2230 0c04 450C0000 		.4byte	0xc45
 2231 0c08 07       		.uleb128 0x7
 2232 0c09 69070000 		.4byte	.LASF202
 2233 0c0d 16       		.byte	0x16
 2234 0c0e 5E       		.byte	0x5e
 2235 0c0f 550B0000 		.4byte	0xb55
 2236 0c13 00       		.byte	0
 2237 0c14 07       		.uleb128 0x7
 2238 0c15 47060000 		.4byte	.LASF203
 2239 0c19 16       		.byte	0x16
 2240 0c1a 5F       		.byte	0x5f
 2241 0c1b 550B0000 		.4byte	0xb55
 2242 0c1f 02       		.byte	0x2
 2243 0c20 12       		.uleb128 0x12
 2244 0c21 6D617800 		.ascii	"max\000"
 2245 0c25 16       		.byte	0x16
 2246 0c26 60       		.byte	0x60
 2247 0c27 550B0000 		.4byte	0xb55
 2248 0c2b 04       		.byte	0x4
 2249 0c2c 12       		.uleb128 0x12
 2250 0c2d 65727200 		.ascii	"err\000"
 2251 0c31 16       		.byte	0x16
ARM GAS  C:\Users\Luis\AppData\Local\Temp\ccPmRWnQ.s 			page 41


 2252 0c32 61       		.byte	0x61
 2253 0c33 CD070000 		.4byte	0x7cd
 2254 0c37 06       		.byte	0x6
 2255 0c38 07       		.uleb128 0x7
 2256 0c39 EB040000 		.4byte	.LASF204
 2257 0c3d 16       		.byte	0x16
 2258 0c3e 62       		.byte	0x62
 2259 0c3f CD070000 		.4byte	0x7cd
 2260 0c43 08       		.byte	0x8
 2261 0c44 00       		.byte	0
 2262 0c45 06       		.uleb128 0x6
 2263 0c46 73020000 		.4byte	.LASF205
 2264 0c4a 06       		.byte	0x6
 2265 0c4b 16       		.byte	0x16
 2266 0c4c 65       		.byte	0x65
 2267 0c4d 760C0000 		.4byte	0xc76
 2268 0c51 07       		.uleb128 0x7
 2269 0c52 47060000 		.4byte	.LASF203
 2270 0c56 16       		.byte	0x16
 2271 0c57 66       		.byte	0x66
 2272 0c58 CD070000 		.4byte	0x7cd
 2273 0c5c 00       		.byte	0
 2274 0c5d 12       		.uleb128 0x12
 2275 0c5e 6D617800 		.ascii	"max\000"
 2276 0c62 16       		.byte	0x16
 2277 0c63 67       		.byte	0x67
 2278 0c64 CD070000 		.4byte	0x7cd
 2279 0c68 02       		.byte	0x2
 2280 0c69 12       		.uleb128 0x12
 2281 0c6a 65727200 		.ascii	"err\000"
 2282 0c6e 16       		.byte	0x16
 2283 0c6f 68       		.byte	0x68
 2284 0c70 CD070000 		.4byte	0x7cd
 2285 0c74 04       		.byte	0x4
 2286 0c75 00       		.byte	0
 2287 0c76 06       		.uleb128 0x6
 2288 0c77 81080000 		.4byte	.LASF206
 2289 0c7b 12       		.byte	0x12
 2290 0c7c 16       		.byte	0x16
 2291 0c7d 6B       		.byte	0x6b
 2292 0c7e A70C0000 		.4byte	0xca7
 2293 0c82 12       		.uleb128 0x12
 2294 0c83 73656D00 		.ascii	"sem\000"
 2295 0c87 16       		.byte	0x16
 2296 0c88 6C       		.byte	0x6c
 2297 0c89 450C0000 		.4byte	0xc45
 2298 0c8d 00       		.byte	0
 2299 0c8e 07       		.uleb128 0x7
 2300 0c8f F0020000 		.4byte	.LASF207
 2301 0c93 16       		.byte	0x16
 2302 0c94 6D       		.byte	0x6d
 2303 0c95 450C0000 		.4byte	0xc45
 2304 0c99 06       		.byte	0x6
 2305 0c9a 07       		.uleb128 0x7
 2306 0c9b 9A070000 		.4byte	.LASF208
 2307 0c9f 16       		.byte	0x16
 2308 0ca0 6E       		.byte	0x6e
ARM GAS  C:\Users\Luis\AppData\Local\Temp\ccPmRWnQ.s 			page 42


 2309 0ca1 450C0000 		.4byte	0xc45
 2310 0ca5 0C       		.byte	0xc
 2311 0ca6 00       		.byte	0
 2312 0ca7 1E       		.uleb128 0x1e
 2313 0ca8 06040000 		.4byte	.LASF209
 2314 0cac 5001     		.2byte	0x150
 2315 0cae 16       		.byte	0x16
 2316 0caf 71       		.byte	0x71
 2317 0cb0 2D0D0000 		.4byte	0xd2d
 2318 0cb4 07       		.uleb128 0x7
 2319 0cb5 D9010000 		.4byte	.LASF210
 2320 0cb9 16       		.byte	0x16
 2321 0cba 73       		.byte	0x73
 2322 0cbb 600B0000 		.4byte	0xb60
 2323 0cbf 00       		.byte	0
 2324 0cc0 07       		.uleb128 0x7
 2325 0cc1 33030000 		.4byte	.LASF211
 2326 0cc5 16       		.byte	0x16
 2327 0cc6 76       		.byte	0x76
 2328 0cc7 600B0000 		.4byte	0xb60
 2329 0ccb 18       		.byte	0x18
 2330 0ccc 07       		.uleb128 0x7
 2331 0ccd F6020000 		.4byte	.LASF212
 2332 0cd1 16       		.byte	0x16
 2333 0cd2 79       		.byte	0x79
 2334 0cd3 600B0000 		.4byte	0xb60
 2335 0cd7 30       		.byte	0x30
 2336 0cd8 12       		.uleb128 0x12
 2337 0cd9 697000   		.ascii	"ip\000"
 2338 0cdc 16       		.byte	0x16
 2339 0cdd 7C       		.byte	0x7c
 2340 0cde 600B0000 		.4byte	0xb60
 2341 0ce2 48       		.byte	0x48
 2342 0ce3 07       		.uleb128 0x7
 2343 0ce4 1F070000 		.4byte	.LASF213
 2344 0ce8 16       		.byte	0x16
 2345 0ce9 7F       		.byte	0x7f
 2346 0cea 600B0000 		.4byte	0xb60
 2347 0cee 60       		.byte	0x60
 2348 0cef 12       		.uleb128 0x12
 2349 0cf0 75647000 		.ascii	"udp\000"
 2350 0cf4 16       		.byte	0x16
 2351 0cf5 85       		.byte	0x85
 2352 0cf6 600B0000 		.4byte	0xb60
 2353 0cfa 78       		.byte	0x78
 2354 0cfb 12       		.uleb128 0x12
 2355 0cfc 74637000 		.ascii	"tcp\000"
 2356 0d00 16       		.byte	0x16
 2357 0d01 88       		.byte	0x88
 2358 0d02 600B0000 		.4byte	0xb60
 2359 0d06 90       		.byte	0x90
 2360 0d07 12       		.uleb128 0x12
 2361 0d08 6D656D00 		.ascii	"mem\000"
 2362 0d0c 16       		.byte	0x16
 2363 0d0d 8B       		.byte	0x8b
 2364 0d0e FC0B0000 		.4byte	0xbfc
 2365 0d12 A8       		.byte	0xa8
ARM GAS  C:\Users\Luis\AppData\Local\Temp\ccPmRWnQ.s 			page 43


 2366 0d13 07       		.uleb128 0x7
 2367 0d14 E9070000 		.4byte	.LASF214
 2368 0d18 16       		.byte	0x16
 2369 0d19 8E       		.byte	0x8e
 2370 0d1a 2D0D0000 		.4byte	0xd2d
 2371 0d1e B2       		.byte	0xb2
 2372 0d1f 1F       		.uleb128 0x1f
 2373 0d20 73797300 		.ascii	"sys\000"
 2374 0d24 16       		.byte	0x16
 2375 0d25 91       		.byte	0x91
 2376 0d26 760C0000 		.4byte	0xc76
 2377 0d2a 3E01     		.2byte	0x13e
 2378 0d2c 00       		.byte	0
 2379 0d2d 15       		.uleb128 0x15
 2380 0d2e FC0B0000 		.4byte	0xbfc
 2381 0d32 3D0D0000 		.4byte	0xd3d
 2382 0d36 16       		.uleb128 0x16
 2383 0d37 AB040000 		.4byte	0x4ab
 2384 0d3b 0D       		.byte	0xd
 2385 0d3c 00       		.byte	0
 2386 0d3d 20       		.uleb128 0x20
 2387 0d3e 31060000 		.4byte	.LASF223
 2388 0d42 01       		.byte	0x1
 2389 0d43 CC01     		.2byte	0x1cc
 2390 0d45 00000000 		.4byte	.LFB230
 2391 0d49 14000000 		.4byte	.LFE230-.LFB230
 2392 0d4d 01       		.uleb128 0x1
 2393 0d4e 9C       		.byte	0x9c
 2394 0d4f 630D0000 		.4byte	0xd63
 2395 0d53 21       		.uleb128 0x21
 2396 0d54 75030000 		.4byte	.LASF215
 2397 0d58 01       		.byte	0x1
 2398 0d59 CC01     		.2byte	0x1cc
 2399 0d5b 6C070000 		.4byte	0x76c
 2400 0d5f 02       		.uleb128 0x2
 2401 0d60 91       		.byte	0x91
 2402 0d61 74       		.sleb128 -12
 2403 0d62 00       		.byte	0
 2404 0d63 22       		.uleb128 0x22
 2405 0d64 53020000 		.4byte	.LASF220
 2406 0d68 02       		.byte	0x2
 2407 0d69 4D       		.byte	0x4d
 2408 0d6a 00000000 		.4byte	.LFB260
 2409 0d6e C8020000 		.4byte	.LFE260-.LFB260
 2410 0d72 01       		.uleb128 0x1
 2411 0d73 9C       		.byte	0x9c
 2412 0d74 2F0E0000 		.4byte	0xe2f
 2413 0d78 23       		.uleb128 0x23
 2414 0d79 7000     		.ascii	"p\000"
 2415 0d7b 02       		.byte	0x2
 2416 0d7c 4D       		.byte	0x4d
 2417 0d7d 9C080000 		.4byte	0x89c
 2418 0d81 02       		.uleb128 0x2
 2419 0d82 91       		.byte	0x91
 2420 0d83 5C       		.sleb128 -36
 2421 0d84 23       		.uleb128 0x23
 2422 0d85 696E7000 		.ascii	"inp\000"
ARM GAS  C:\Users\Luis\AppData\Local\Temp\ccPmRWnQ.s 			page 44


 2423 0d89 02       		.byte	0x2
 2424 0d8a 4D       		.byte	0x4d
 2425 0d8b EA080000 		.4byte	0x8ea
 2426 0d8f 02       		.uleb128 0x2
 2427 0d90 91       		.byte	0x91
 2428 0d91 58       		.sleb128 -40
 2429 0d92 24       		.uleb128 0x24
 2430 0d93 62050000 		.4byte	.LASF147
 2431 0d97 02       		.byte	0x2
 2432 0d98 4F       		.byte	0x4f
 2433 0d99 B7070000 		.4byte	0x7b7
 2434 0d9d 02       		.uleb128 0x2
 2435 0d9e 91       		.byte	0x91
 2436 0d9f 6D       		.sleb128 -19
 2437 0da0 24       		.uleb128 0x24
 2438 0da1 B1000000 		.4byte	.LASF216
 2439 0da5 02       		.byte	0x2
 2440 0da6 53       		.byte	0x53
 2441 0da7 2F0E0000 		.4byte	0xe2f
 2442 0dab 02       		.uleb128 0x2
 2443 0dac 91       		.byte	0x91
 2444 0dad 64       		.sleb128 -28
 2445 0dae 24       		.uleb128 0x24
 2446 0daf 3A090000 		.4byte	.LASF217
 2447 0db3 02       		.byte	0x2
 2448 0db4 54       		.byte	0x54
 2449 0db5 350E0000 		.4byte	0xe35
 2450 0db9 02       		.uleb128 0x2
 2451 0dba 91       		.byte	0x91
 2452 0dbb 74       		.sleb128 -12
 2453 0dbc 24       		.uleb128 0x24
 2454 0dbd 13020000 		.4byte	.LASF218
 2455 0dc1 02       		.byte	0x2
 2456 0dc2 55       		.byte	0x55
 2457 0dc3 D8070000 		.4byte	0x7d8
 2458 0dc7 02       		.uleb128 0x2
 2459 0dc8 91       		.byte	0x91
 2460 0dc9 6E       		.sleb128 -18
 2461 0dca 25       		.uleb128 0x25
 2462 0dcb EE070000 		.4byte	.LASF195
 2463 0dcf 02       		.byte	0x2
 2464 0dd0 ED       		.byte	0xed
 2465 0dd1 72020000 		.4byte	.L3
 2466 0dd5 25       		.uleb128 0x25
 2467 0dd6 EC000000 		.4byte	.LASF196
 2468 0dda 02       		.byte	0x2
 2469 0ddb F3       		.byte	0xf3
 2470 0ddc 8A020000 		.4byte	.L16
 2471 0de0 26       		.uleb128 0x26
 2472 0de1 6A000000 		.4byte	.LBB2
 2473 0de5 48000000 		.4byte	.LBE2-.LBB2
 2474 0de9 FC0D0000 		.4byte	0xdfc
 2475 0ded 24       		.uleb128 0x24
 2476 0dee CB040000 		.4byte	.LASF219
 2477 0df2 02       		.byte	0x2
 2478 0df3 6E       		.byte	0x6e
 2479 0df4 25000000 		.4byte	0x25
ARM GAS  C:\Users\Luis\AppData\Local\Temp\ccPmRWnQ.s 			page 45


 2480 0df8 02       		.uleb128 0x2
 2481 0df9 91       		.byte	0x91
 2482 0dfa 70       		.sleb128 -16
 2483 0dfb 00       		.byte	0
 2484 0dfc 26       		.uleb128 0x26
 2485 0dfd EE000000 		.4byte	.LBB3
 2486 0e01 8E000000 		.4byte	.LBE3-.LBB3
 2487 0e05 160E0000 		.4byte	0xe16
 2488 0e09 27       		.uleb128 0x27
 2489 0e0a 7200     		.ascii	"r\000"
 2490 0e0c 02       		.byte	0x2
 2491 0e0d 95       		.byte	0x95
 2492 0e0e 9C080000 		.4byte	0x89c
 2493 0e12 02       		.uleb128 0x2
 2494 0e13 91       		.byte	0x91
 2495 0e14 68       		.sleb128 -24
 2496 0e15 00       		.byte	0
 2497 0e16 28       		.uleb128 0x28
 2498 0e17 28020000 		.4byte	.LBB4
 2499 0e1b 1C000000 		.4byte	.LBE4-.LBB4
 2500 0e1f 27       		.uleb128 0x27
 2501 0e20 72657400 		.ascii	"ret\000"
 2502 0e24 02       		.byte	0x2
 2503 0e25 DC       		.byte	0xdc
 2504 0e26 EE070000 		.4byte	0x7ee
 2505 0e2a 02       		.uleb128 0x2
 2506 0e2b 91       		.byte	0x91
 2507 0e2c 63       		.sleb128 -29
 2508 0e2d 00       		.byte	0
 2509 0e2e 00       		.byte	0
 2510 0e2f 0A       		.uleb128 0xa
 2511 0e30 04       		.byte	0x4
 2512 0e31 880A0000 		.4byte	0xa88
 2513 0e35 0A       		.uleb128 0xa
 2514 0e36 04       		.byte	0x4
 2515 0e37 D00A0000 		.4byte	0xad0
 2516 0e3b 29       		.uleb128 0x29
 2517 0e3c 7C030000 		.4byte	.LASF221
 2518 0e40 02       		.byte	0x2
 2519 0e41 0501     		.2byte	0x105
 2520 0e43 00000000 		.4byte	.LFB261
 2521 0e47 1E000000 		.4byte	.LFE261-.LFB261
 2522 0e4b 01       		.uleb128 0x1
 2523 0e4c 9C       		.byte	0x9c
 2524 0e4d 6C0E0000 		.4byte	0xe6c
 2525 0e51 2A       		.uleb128 0x2a
 2526 0e52 7000     		.ascii	"p\000"
 2527 0e54 02       		.byte	0x2
 2528 0e55 0501     		.2byte	0x105
 2529 0e57 9C080000 		.4byte	0x89c
 2530 0e5b 02       		.uleb128 0x2
 2531 0e5c 91       		.byte	0x91
 2532 0e5d 74       		.sleb128 -12
 2533 0e5e 2A       		.uleb128 0x2a
 2534 0e5f 7400     		.ascii	"t\000"
 2535 0e61 02       		.byte	0x2
 2536 0e62 0501     		.2byte	0x105
ARM GAS  C:\Users\Luis\AppData\Local\Temp\ccPmRWnQ.s 			page 46


 2537 0e64 3E0A0000 		.4byte	0xa3e
 2538 0e68 02       		.uleb128 0x2
 2539 0e69 91       		.byte	0x91
 2540 0e6a 73       		.sleb128 -13
 2541 0e6b 00       		.byte	0
 2542 0e6c 29       		.uleb128 0x29
 2543 0e6d 5B030000 		.4byte	.LASF222
 2544 0e71 02       		.byte	0x2
 2545 0e72 1301     		.2byte	0x113
 2546 0e74 00000000 		.4byte	.LFB262
 2547 0e78 1E000000 		.4byte	.LFE262-.LFB262
 2548 0e7c 01       		.uleb128 0x1
 2549 0e7d 9C       		.byte	0x9c
 2550 0e7e 9D0E0000 		.4byte	0xe9d
 2551 0e82 2A       		.uleb128 0x2a
 2552 0e83 7000     		.ascii	"p\000"
 2553 0e85 02       		.byte	0x2
 2554 0e86 1301     		.2byte	0x113
 2555 0e88 9C080000 		.4byte	0x89c
 2556 0e8c 02       		.uleb128 0x2
 2557 0e8d 91       		.byte	0x91
 2558 0e8e 74       		.sleb128 -12
 2559 0e8f 2A       		.uleb128 0x2a
 2560 0e90 7400     		.ascii	"t\000"
 2561 0e92 02       		.byte	0x2
 2562 0e93 1301     		.2byte	0x113
 2563 0e95 6F0A0000 		.4byte	0xa6f
 2564 0e99 02       		.uleb128 0x2
 2565 0e9a 91       		.byte	0x91
 2566 0e9b 73       		.sleb128 -13
 2567 0e9c 00       		.byte	0
 2568 0e9d 20       		.uleb128 0x20
 2569 0e9e 7F060000 		.4byte	.LASF224
 2570 0ea2 02       		.byte	0x2
 2571 0ea3 2301     		.2byte	0x123
 2572 0ea5 00000000 		.4byte	.LFB263
 2573 0ea9 D4000000 		.4byte	.LFE263-.LFB263
 2574 0ead 01       		.uleb128 0x1
 2575 0eae 9C       		.byte	0x9c
 2576 0eaf 190F0000 		.4byte	0xf19
 2577 0eb3 2A       		.uleb128 0x2a
 2578 0eb4 7000     		.ascii	"p\000"
 2579 0eb6 02       		.byte	0x2
 2580 0eb7 2301     		.2byte	0x123
 2581 0eb9 9C080000 		.4byte	0x89c
 2582 0ebd 02       		.uleb128 0x2
 2583 0ebe 91       		.byte	0x91
 2584 0ebf 64       		.sleb128 -28
 2585 0ec0 21       		.uleb128 0x21
 2586 0ec1 62050000 		.4byte	.LASF147
 2587 0ec5 02       		.byte	0x2
 2588 0ec6 2301     		.2byte	0x123
 2589 0ec8 B7070000 		.4byte	0x7b7
 2590 0ecc 02       		.uleb128 0x2
 2591 0ecd 91       		.byte	0x91
 2592 0ece 63       		.sleb128 -29
 2593 0ecf 21       		.uleb128 0x21
ARM GAS  C:\Users\Luis\AppData\Local\Temp\ccPmRWnQ.s 			page 47


 2594 0ed0 C1040000 		.4byte	.LASF177
 2595 0ed4 02       		.byte	0x2
 2596 0ed5 2301     		.2byte	0x123
 2597 0ed7 B7070000 		.4byte	0x7b7
 2598 0edb 02       		.uleb128 0x2
 2599 0edc 91       		.byte	0x91
 2600 0edd 62       		.sleb128 -30
 2601 0ede 2B       		.uleb128 0x2b
 2602 0edf 7100     		.ascii	"q\000"
 2603 0ee1 02       		.byte	0x2
 2604 0ee2 2501     		.2byte	0x125
 2605 0ee4 9C080000 		.4byte	0x89c
 2606 0ee8 02       		.uleb128 0x2
 2607 0ee9 91       		.byte	0x91
 2608 0eea 74       		.sleb128 -12
 2609 0eeb 2C       		.uleb128 0x2c
 2610 0eec 3A090000 		.4byte	.LASF217
 2611 0ef0 02       		.byte	0x2
 2612 0ef1 2601     		.2byte	0x126
 2613 0ef3 350E0000 		.4byte	0xe35
 2614 0ef7 02       		.uleb128 0x2
 2615 0ef8 91       		.byte	0x91
 2616 0ef9 70       		.sleb128 -16
 2617 0efa 2C       		.uleb128 0x2c
 2618 0efb D8060000 		.4byte	.LASF225
 2619 0eff 02       		.byte	0x2
 2620 0f00 2801     		.2byte	0x128
 2621 0f02 2F0E0000 		.4byte	0xe2f
 2622 0f06 02       		.uleb128 0x2
 2623 0f07 91       		.byte	0x91
 2624 0f08 6C       		.sleb128 -20
 2625 0f09 2C       		.uleb128 0x2c
 2626 0f0a A5070000 		.4byte	.LASF226
 2627 0f0e 02       		.byte	0x2
 2628 0f0f 2901     		.2byte	0x129
 2629 0f11 D4080000 		.4byte	0x8d4
 2630 0f15 02       		.uleb128 0x2
 2631 0f16 91       		.byte	0x91
 2632 0f17 68       		.sleb128 -24
 2633 0f18 00       		.byte	0
 2634 0f19 2D       		.uleb128 0x2d
 2635 0f1a 5C070000 		.4byte	.LASF227
 2636 0f1e 17       		.byte	0x17
 2637 0f1f A706     		.2byte	0x6a7
 2638 0f21 B8000000 		.4byte	0xb8
 2639 0f25 2E       		.uleb128 0x2e
 2640 0f26 636800   		.ascii	"ch\000"
 2641 0f29 06       		.byte	0x6
 2642 0f2a 0902     		.2byte	0x209
 2643 0f2c 33040000 		.4byte	0x433
 2644 0f30 2F       		.uleb128 0x2f
 2645 0f31 8E030000 		.4byte	.LASF228
 2646 0f35 14       		.byte	0x14
 2647 0f36 AA       		.byte	0xaa
 2648 0f37 D4080000 		.4byte	0x8d4
 2649 0f3b 2F       		.uleb128 0x2f
 2650 0f3c 8F090000 		.4byte	.LASF229
ARM GAS  C:\Users\Luis\AppData\Local\Temp\ccPmRWnQ.s 			page 48


 2651 0f40 14       		.byte	0x14
 2652 0f41 AC       		.byte	0xac
 2653 0f42 D4080000 		.4byte	0x8d4
 2654 0f46 2F       		.uleb128 0x2f
 2655 0f47 28020000 		.4byte	.LASF230
 2656 0f4b 16       		.byte	0x16
 2657 0f4c 95       		.byte	0x95
 2658 0f4d A70C0000 		.4byte	0xca7
 2659 0f51 00       		.byte	0
 2660              		.section	.debug_abbrev,"",%progbits
 2661              	.Ldebug_abbrev0:
 2662 0000 01       		.uleb128 0x1
 2663 0001 11       		.uleb128 0x11
 2664 0002 01       		.byte	0x1
 2665 0003 25       		.uleb128 0x25
 2666 0004 0E       		.uleb128 0xe
 2667 0005 13       		.uleb128 0x13
 2668 0006 0B       		.uleb128 0xb
 2669 0007 03       		.uleb128 0x3
 2670 0008 0E       		.uleb128 0xe
 2671 0009 1B       		.uleb128 0x1b
 2672 000a 0E       		.uleb128 0xe
 2673 000b 55       		.uleb128 0x55
 2674 000c 17       		.uleb128 0x17
 2675 000d 11       		.uleb128 0x11
 2676 000e 01       		.uleb128 0x1
 2677 000f 10       		.uleb128 0x10
 2678 0010 17       		.uleb128 0x17
 2679 0011 00       		.byte	0
 2680 0012 00       		.byte	0
 2681 0013 02       		.uleb128 0x2
 2682 0014 24       		.uleb128 0x24
 2683 0015 00       		.byte	0
 2684 0016 0B       		.uleb128 0xb
 2685 0017 0B       		.uleb128 0xb
 2686 0018 3E       		.uleb128 0x3e
 2687 0019 0B       		.uleb128 0xb
 2688 001a 03       		.uleb128 0x3
 2689 001b 08       		.uleb128 0x8
 2690 001c 00       		.byte	0
 2691 001d 00       		.byte	0
 2692 001e 03       		.uleb128 0x3
 2693 001f 24       		.uleb128 0x24
 2694 0020 00       		.byte	0
 2695 0021 0B       		.uleb128 0xb
 2696 0022 0B       		.uleb128 0xb
 2697 0023 3E       		.uleb128 0x3e
 2698 0024 0B       		.uleb128 0xb
 2699 0025 03       		.uleb128 0x3
 2700 0026 0E       		.uleb128 0xe
 2701 0027 00       		.byte	0
 2702 0028 00       		.byte	0
 2703 0029 04       		.uleb128 0x4
 2704 002a 16       		.uleb128 0x16
 2705 002b 00       		.byte	0
 2706 002c 03       		.uleb128 0x3
 2707 002d 0E       		.uleb128 0xe
ARM GAS  C:\Users\Luis\AppData\Local\Temp\ccPmRWnQ.s 			page 49


 2708 002e 3A       		.uleb128 0x3a
 2709 002f 0B       		.uleb128 0xb
 2710 0030 3B       		.uleb128 0x3b
 2711 0031 0B       		.uleb128 0xb
 2712 0032 49       		.uleb128 0x49
 2713 0033 13       		.uleb128 0x13
 2714 0034 00       		.byte	0
 2715 0035 00       		.byte	0
 2716 0036 05       		.uleb128 0x5
 2717 0037 35       		.uleb128 0x35
 2718 0038 00       		.byte	0
 2719 0039 49       		.uleb128 0x49
 2720 003a 13       		.uleb128 0x13
 2721 003b 00       		.byte	0
 2722 003c 00       		.byte	0
 2723 003d 06       		.uleb128 0x6
 2724 003e 13       		.uleb128 0x13
 2725 003f 01       		.byte	0x1
 2726 0040 03       		.uleb128 0x3
 2727 0041 0E       		.uleb128 0xe
 2728 0042 0B       		.uleb128 0xb
 2729 0043 0B       		.uleb128 0xb
 2730 0044 3A       		.uleb128 0x3a
 2731 0045 0B       		.uleb128 0xb
 2732 0046 3B       		.uleb128 0x3b
 2733 0047 0B       		.uleb128 0xb
 2734 0048 01       		.uleb128 0x1
 2735 0049 13       		.uleb128 0x13
 2736 004a 00       		.byte	0
 2737 004b 00       		.byte	0
 2738 004c 07       		.uleb128 0x7
 2739 004d 0D       		.uleb128 0xd
 2740 004e 00       		.byte	0
 2741 004f 03       		.uleb128 0x3
 2742 0050 0E       		.uleb128 0xe
 2743 0051 3A       		.uleb128 0x3a
 2744 0052 0B       		.uleb128 0xb
 2745 0053 3B       		.uleb128 0x3b
 2746 0054 0B       		.uleb128 0xb
 2747 0055 49       		.uleb128 0x49
 2748 0056 13       		.uleb128 0x13
 2749 0057 38       		.uleb128 0x38
 2750 0058 0B       		.uleb128 0xb
 2751 0059 00       		.byte	0
 2752 005a 00       		.byte	0
 2753 005b 08       		.uleb128 0x8
 2754 005c 0D       		.uleb128 0xd
 2755 005d 00       		.byte	0
 2756 005e 03       		.uleb128 0x3
 2757 005f 08       		.uleb128 0x8
 2758 0060 3A       		.uleb128 0x3a
 2759 0061 0B       		.uleb128 0xb
 2760 0062 3B       		.uleb128 0x3b
 2761 0063 05       		.uleb128 0x5
 2762 0064 49       		.uleb128 0x49
 2763 0065 13       		.uleb128 0x13
 2764 0066 38       		.uleb128 0x38
ARM GAS  C:\Users\Luis\AppData\Local\Temp\ccPmRWnQ.s 			page 50


 2765 0067 0B       		.uleb128 0xb
 2766 0068 00       		.byte	0
 2767 0069 00       		.byte	0
 2768 006a 09       		.uleb128 0x9
 2769 006b 0D       		.uleb128 0xd
 2770 006c 00       		.byte	0
 2771 006d 03       		.uleb128 0x3
 2772 006e 0E       		.uleb128 0xe
 2773 006f 3A       		.uleb128 0x3a
 2774 0070 0B       		.uleb128 0xb
 2775 0071 3B       		.uleb128 0x3b
 2776 0072 05       		.uleb128 0x5
 2777 0073 49       		.uleb128 0x49
 2778 0074 13       		.uleb128 0x13
 2779 0075 38       		.uleb128 0x38
 2780 0076 0B       		.uleb128 0xb
 2781 0077 00       		.byte	0
 2782 0078 00       		.byte	0
 2783 0079 0A       		.uleb128 0xa
 2784 007a 0F       		.uleb128 0xf
 2785 007b 00       		.byte	0
 2786 007c 0B       		.uleb128 0xb
 2787 007d 0B       		.uleb128 0xb
 2788 007e 49       		.uleb128 0x49
 2789 007f 13       		.uleb128 0x13
 2790 0080 00       		.byte	0
 2791 0081 00       		.byte	0
 2792 0082 0B       		.uleb128 0xb
 2793 0083 13       		.uleb128 0x13
 2794 0084 01       		.byte	0x1
 2795 0085 03       		.uleb128 0x3
 2796 0086 0E       		.uleb128 0xe
 2797 0087 0B       		.uleb128 0xb
 2798 0088 0B       		.uleb128 0xb
 2799 0089 3A       		.uleb128 0x3a
 2800 008a 0B       		.uleb128 0xb
 2801 008b 3B       		.uleb128 0x3b
 2802 008c 05       		.uleb128 0x5
 2803 008d 01       		.uleb128 0x1
 2804 008e 13       		.uleb128 0x13
 2805 008f 00       		.byte	0
 2806 0090 00       		.byte	0
 2807 0091 0C       		.uleb128 0xc
 2808 0092 15       		.uleb128 0x15
 2809 0093 01       		.byte	0x1
 2810 0094 27       		.uleb128 0x27
 2811 0095 19       		.uleb128 0x19
 2812 0096 01       		.uleb128 0x1
 2813 0097 13       		.uleb128 0x13
 2814 0098 00       		.byte	0
 2815 0099 00       		.byte	0
 2816 009a 0D       		.uleb128 0xd
 2817 009b 05       		.uleb128 0x5
 2818 009c 00       		.byte	0
 2819 009d 49       		.uleb128 0x49
 2820 009e 13       		.uleb128 0x13
 2821 009f 00       		.byte	0
ARM GAS  C:\Users\Luis\AppData\Local\Temp\ccPmRWnQ.s 			page 51


 2822 00a0 00       		.byte	0
 2823 00a1 0E       		.uleb128 0xe
 2824 00a2 0F       		.uleb128 0xf
 2825 00a3 00       		.byte	0
 2826 00a4 0B       		.uleb128 0xb
 2827 00a5 0B       		.uleb128 0xb
 2828 00a6 00       		.byte	0
 2829 00a7 00       		.byte	0
 2830 00a8 0F       		.uleb128 0xf
 2831 00a9 13       		.uleb128 0x13
 2832 00aa 01       		.byte	0x1
 2833 00ab 03       		.uleb128 0x3
 2834 00ac 0E       		.uleb128 0xe
 2835 00ad 0B       		.uleb128 0xb
 2836 00ae 05       		.uleb128 0x5
 2837 00af 3A       		.uleb128 0x3a
 2838 00b0 0B       		.uleb128 0xb
 2839 00b1 3B       		.uleb128 0x3b
 2840 00b2 05       		.uleb128 0x5
 2841 00b3 01       		.uleb128 0x1
 2842 00b4 13       		.uleb128 0x13
 2843 00b5 00       		.byte	0
 2844 00b6 00       		.byte	0
 2845 00b7 10       		.uleb128 0x10
 2846 00b8 0D       		.uleb128 0xd
 2847 00b9 00       		.byte	0
 2848 00ba 03       		.uleb128 0x3
 2849 00bb 0E       		.uleb128 0xe
 2850 00bc 3A       		.uleb128 0x3a
 2851 00bd 0B       		.uleb128 0xb
 2852 00be 3B       		.uleb128 0x3b
 2853 00bf 05       		.uleb128 0x5
 2854 00c0 49       		.uleb128 0x49
 2855 00c1 13       		.uleb128 0x13
 2856 00c2 38       		.uleb128 0x38
 2857 00c3 05       		.uleb128 0x5
 2858 00c4 00       		.byte	0
 2859 00c5 00       		.byte	0
 2860 00c6 11       		.uleb128 0x11
 2861 00c7 0D       		.uleb128 0xd
 2862 00c8 00       		.byte	0
 2863 00c9 03       		.uleb128 0x3
 2864 00ca 08       		.uleb128 0x8
 2865 00cb 3A       		.uleb128 0x3a
 2866 00cc 0B       		.uleb128 0xb
 2867 00cd 3B       		.uleb128 0x3b
 2868 00ce 05       		.uleb128 0x5
 2869 00cf 49       		.uleb128 0x49
 2870 00d0 13       		.uleb128 0x13
 2871 00d1 38       		.uleb128 0x38
 2872 00d2 05       		.uleb128 0x5
 2873 00d3 00       		.byte	0
 2874 00d4 00       		.byte	0
 2875 00d5 12       		.uleb128 0x12
 2876 00d6 0D       		.uleb128 0xd
 2877 00d7 00       		.byte	0
 2878 00d8 03       		.uleb128 0x3
ARM GAS  C:\Users\Luis\AppData\Local\Temp\ccPmRWnQ.s 			page 52


 2879 00d9 08       		.uleb128 0x8
 2880 00da 3A       		.uleb128 0x3a
 2881 00db 0B       		.uleb128 0xb
 2882 00dc 3B       		.uleb128 0x3b
 2883 00dd 0B       		.uleb128 0xb
 2884 00de 49       		.uleb128 0x49
 2885 00df 13       		.uleb128 0x13
 2886 00e0 38       		.uleb128 0x38
 2887 00e1 0B       		.uleb128 0xb
 2888 00e2 00       		.byte	0
 2889 00e3 00       		.byte	0
 2890 00e4 13       		.uleb128 0x13
 2891 00e5 13       		.uleb128 0x13
 2892 00e6 01       		.byte	0x1
 2893 00e7 0B       		.uleb128 0xb
 2894 00e8 0B       		.uleb128 0xb
 2895 00e9 3A       		.uleb128 0x3a
 2896 00ea 0B       		.uleb128 0xb
 2897 00eb 3B       		.uleb128 0x3b
 2898 00ec 0B       		.uleb128 0xb
 2899 00ed 01       		.uleb128 0x1
 2900 00ee 13       		.uleb128 0x13
 2901 00ef 00       		.byte	0
 2902 00f0 00       		.byte	0
 2903 00f1 14       		.uleb128 0x14
 2904 00f2 13       		.uleb128 0x13
 2905 00f3 01       		.byte	0x1
 2906 00f4 0B       		.uleb128 0xb
 2907 00f5 05       		.uleb128 0x5
 2908 00f6 3A       		.uleb128 0x3a
 2909 00f7 0B       		.uleb128 0xb
 2910 00f8 3B       		.uleb128 0x3b
 2911 00f9 0B       		.uleb128 0xb
 2912 00fa 01       		.uleb128 0x1
 2913 00fb 13       		.uleb128 0x13
 2914 00fc 00       		.byte	0
 2915 00fd 00       		.byte	0
 2916 00fe 15       		.uleb128 0x15
 2917 00ff 01       		.uleb128 0x1
 2918 0100 01       		.byte	0x1
 2919 0101 49       		.uleb128 0x49
 2920 0102 13       		.uleb128 0x13
 2921 0103 01       		.uleb128 0x1
 2922 0104 13       		.uleb128 0x13
 2923 0105 00       		.byte	0
 2924 0106 00       		.byte	0
 2925 0107 16       		.uleb128 0x16
 2926 0108 21       		.uleb128 0x21
 2927 0109 00       		.byte	0
 2928 010a 49       		.uleb128 0x49
 2929 010b 13       		.uleb128 0x13
 2930 010c 2F       		.uleb128 0x2f
 2931 010d 0B       		.uleb128 0xb
 2932 010e 00       		.byte	0
 2933 010f 00       		.byte	0
 2934 0110 17       		.uleb128 0x17
 2935 0111 17       		.uleb128 0x17
ARM GAS  C:\Users\Luis\AppData\Local\Temp\ccPmRWnQ.s 			page 53


 2936 0112 01       		.byte	0x1
 2937 0113 0B       		.uleb128 0xb
 2938 0114 0B       		.uleb128 0xb
 2939 0115 3A       		.uleb128 0x3a
 2940 0116 0B       		.uleb128 0xb
 2941 0117 3B       		.uleb128 0x3b
 2942 0118 0B       		.uleb128 0xb
 2943 0119 01       		.uleb128 0x1
 2944 011a 13       		.uleb128 0x13
 2945 011b 00       		.byte	0
 2946 011c 00       		.byte	0
 2947 011d 18       		.uleb128 0x18
 2948 011e 0D       		.uleb128 0xd
 2949 011f 00       		.byte	0
 2950 0120 03       		.uleb128 0x3
 2951 0121 0E       		.uleb128 0xe
 2952 0122 3A       		.uleb128 0x3a
 2953 0123 0B       		.uleb128 0xb
 2954 0124 3B       		.uleb128 0x3b
 2955 0125 05       		.uleb128 0x5
 2956 0126 49       		.uleb128 0x49
 2957 0127 13       		.uleb128 0x13
 2958 0128 00       		.byte	0
 2959 0129 00       		.byte	0
 2960 012a 19       		.uleb128 0x19
 2961 012b 26       		.uleb128 0x26
 2962 012c 00       		.byte	0
 2963 012d 49       		.uleb128 0x49
 2964 012e 13       		.uleb128 0x13
 2965 012f 00       		.byte	0
 2966 0130 00       		.byte	0
 2967 0131 1A       		.uleb128 0x1a
 2968 0132 04       		.uleb128 0x4
 2969 0133 01       		.byte	0x1
 2970 0134 0B       		.uleb128 0xb
 2971 0135 0B       		.uleb128 0xb
 2972 0136 3A       		.uleb128 0x3a
 2973 0137 0B       		.uleb128 0xb
 2974 0138 3B       		.uleb128 0x3b
 2975 0139 0B       		.uleb128 0xb
 2976 013a 01       		.uleb128 0x1
 2977 013b 13       		.uleb128 0x13
 2978 013c 00       		.byte	0
 2979 013d 00       		.byte	0
 2980 013e 1B       		.uleb128 0x1b
 2981 013f 28       		.uleb128 0x28
 2982 0140 00       		.byte	0
 2983 0141 03       		.uleb128 0x3
 2984 0142 0E       		.uleb128 0xe
 2985 0143 1C       		.uleb128 0x1c
 2986 0144 0D       		.uleb128 0xd
 2987 0145 00       		.byte	0
 2988 0146 00       		.byte	0
 2989 0147 1C       		.uleb128 0x1c
 2990 0148 15       		.uleb128 0x15
 2991 0149 01       		.byte	0x1
 2992 014a 27       		.uleb128 0x27
ARM GAS  C:\Users\Luis\AppData\Local\Temp\ccPmRWnQ.s 			page 54


 2993 014b 19       		.uleb128 0x19
 2994 014c 49       		.uleb128 0x49
 2995 014d 13       		.uleb128 0x13
 2996 014e 01       		.uleb128 0x1
 2997 014f 13       		.uleb128 0x13
 2998 0150 00       		.byte	0
 2999 0151 00       		.byte	0
 3000 0152 1D       		.uleb128 0x1d
 3001 0153 04       		.uleb128 0x4
 3002 0154 01       		.byte	0x1
 3003 0155 03       		.uleb128 0x3
 3004 0156 0E       		.uleb128 0xe
 3005 0157 0B       		.uleb128 0xb
 3006 0158 0B       		.uleb128 0xb
 3007 0159 3A       		.uleb128 0x3a
 3008 015a 0B       		.uleb128 0xb
 3009 015b 3B       		.uleb128 0x3b
 3010 015c 0B       		.uleb128 0xb
 3011 015d 01       		.uleb128 0x1
 3012 015e 13       		.uleb128 0x13
 3013 015f 00       		.byte	0
 3014 0160 00       		.byte	0
 3015 0161 1E       		.uleb128 0x1e
 3016 0162 13       		.uleb128 0x13
 3017 0163 01       		.byte	0x1
 3018 0164 03       		.uleb128 0x3
 3019 0165 0E       		.uleb128 0xe
 3020 0166 0B       		.uleb128 0xb
 3021 0167 05       		.uleb128 0x5
 3022 0168 3A       		.uleb128 0x3a
 3023 0169 0B       		.uleb128 0xb
 3024 016a 3B       		.uleb128 0x3b
 3025 016b 0B       		.uleb128 0xb
 3026 016c 01       		.uleb128 0x1
 3027 016d 13       		.uleb128 0x13
 3028 016e 00       		.byte	0
 3029 016f 00       		.byte	0
 3030 0170 1F       		.uleb128 0x1f
 3031 0171 0D       		.uleb128 0xd
 3032 0172 00       		.byte	0
 3033 0173 03       		.uleb128 0x3
 3034 0174 08       		.uleb128 0x8
 3035 0175 3A       		.uleb128 0x3a
 3036 0176 0B       		.uleb128 0xb
 3037 0177 3B       		.uleb128 0x3b
 3038 0178 0B       		.uleb128 0xb
 3039 0179 49       		.uleb128 0x49
 3040 017a 13       		.uleb128 0x13
 3041 017b 38       		.uleb128 0x38
 3042 017c 05       		.uleb128 0x5
 3043 017d 00       		.byte	0
 3044 017e 00       		.byte	0
 3045 017f 20       		.uleb128 0x20
 3046 0180 2E       		.uleb128 0x2e
 3047 0181 01       		.byte	0x1
 3048 0182 03       		.uleb128 0x3
 3049 0183 0E       		.uleb128 0xe
ARM GAS  C:\Users\Luis\AppData\Local\Temp\ccPmRWnQ.s 			page 55


 3050 0184 3A       		.uleb128 0x3a
 3051 0185 0B       		.uleb128 0xb
 3052 0186 3B       		.uleb128 0x3b
 3053 0187 05       		.uleb128 0x5
 3054 0188 27       		.uleb128 0x27
 3055 0189 19       		.uleb128 0x19
 3056 018a 11       		.uleb128 0x11
 3057 018b 01       		.uleb128 0x1
 3058 018c 12       		.uleb128 0x12
 3059 018d 06       		.uleb128 0x6
 3060 018e 40       		.uleb128 0x40
 3061 018f 18       		.uleb128 0x18
 3062 0190 9642     		.uleb128 0x2116
 3063 0192 19       		.uleb128 0x19
 3064 0193 01       		.uleb128 0x1
 3065 0194 13       		.uleb128 0x13
 3066 0195 00       		.byte	0
 3067 0196 00       		.byte	0
 3068 0197 21       		.uleb128 0x21
 3069 0198 05       		.uleb128 0x5
 3070 0199 00       		.byte	0
 3071 019a 03       		.uleb128 0x3
 3072 019b 0E       		.uleb128 0xe
 3073 019c 3A       		.uleb128 0x3a
 3074 019d 0B       		.uleb128 0xb
 3075 019e 3B       		.uleb128 0x3b
 3076 019f 05       		.uleb128 0x5
 3077 01a0 49       		.uleb128 0x49
 3078 01a1 13       		.uleb128 0x13
 3079 01a2 02       		.uleb128 0x2
 3080 01a3 18       		.uleb128 0x18
 3081 01a4 00       		.byte	0
 3082 01a5 00       		.byte	0
 3083 01a6 22       		.uleb128 0x22
 3084 01a7 2E       		.uleb128 0x2e
 3085 01a8 01       		.byte	0x1
 3086 01a9 3F       		.uleb128 0x3f
 3087 01aa 19       		.uleb128 0x19
 3088 01ab 03       		.uleb128 0x3
 3089 01ac 0E       		.uleb128 0xe
 3090 01ad 3A       		.uleb128 0x3a
 3091 01ae 0B       		.uleb128 0xb
 3092 01af 3B       		.uleb128 0x3b
 3093 01b0 0B       		.uleb128 0xb
 3094 01b1 27       		.uleb128 0x27
 3095 01b2 19       		.uleb128 0x19
 3096 01b3 11       		.uleb128 0x11
 3097 01b4 01       		.uleb128 0x1
 3098 01b5 12       		.uleb128 0x12
 3099 01b6 06       		.uleb128 0x6
 3100 01b7 40       		.uleb128 0x40
 3101 01b8 18       		.uleb128 0x18
 3102 01b9 9642     		.uleb128 0x2116
 3103 01bb 19       		.uleb128 0x19
 3104 01bc 01       		.uleb128 0x1
 3105 01bd 13       		.uleb128 0x13
 3106 01be 00       		.byte	0
ARM GAS  C:\Users\Luis\AppData\Local\Temp\ccPmRWnQ.s 			page 56


 3107 01bf 00       		.byte	0
 3108 01c0 23       		.uleb128 0x23
 3109 01c1 05       		.uleb128 0x5
 3110 01c2 00       		.byte	0
 3111 01c3 03       		.uleb128 0x3
 3112 01c4 08       		.uleb128 0x8
 3113 01c5 3A       		.uleb128 0x3a
 3114 01c6 0B       		.uleb128 0xb
 3115 01c7 3B       		.uleb128 0x3b
 3116 01c8 0B       		.uleb128 0xb
 3117 01c9 49       		.uleb128 0x49
 3118 01ca 13       		.uleb128 0x13
 3119 01cb 02       		.uleb128 0x2
 3120 01cc 18       		.uleb128 0x18
 3121 01cd 00       		.byte	0
 3122 01ce 00       		.byte	0
 3123 01cf 24       		.uleb128 0x24
 3124 01d0 34       		.uleb128 0x34
 3125 01d1 00       		.byte	0
 3126 01d2 03       		.uleb128 0x3
 3127 01d3 0E       		.uleb128 0xe
 3128 01d4 3A       		.uleb128 0x3a
 3129 01d5 0B       		.uleb128 0xb
 3130 01d6 3B       		.uleb128 0x3b
 3131 01d7 0B       		.uleb128 0xb
 3132 01d8 49       		.uleb128 0x49
 3133 01d9 13       		.uleb128 0x13
 3134 01da 02       		.uleb128 0x2
 3135 01db 18       		.uleb128 0x18
 3136 01dc 00       		.byte	0
 3137 01dd 00       		.byte	0
 3138 01de 25       		.uleb128 0x25
 3139 01df 0A       		.uleb128 0xa
 3140 01e0 00       		.byte	0
 3141 01e1 03       		.uleb128 0x3
 3142 01e2 0E       		.uleb128 0xe
 3143 01e3 3A       		.uleb128 0x3a
 3144 01e4 0B       		.uleb128 0xb
 3145 01e5 3B       		.uleb128 0x3b
 3146 01e6 0B       		.uleb128 0xb
 3147 01e7 11       		.uleb128 0x11
 3148 01e8 01       		.uleb128 0x1
 3149 01e9 00       		.byte	0
 3150 01ea 00       		.byte	0
 3151 01eb 26       		.uleb128 0x26
 3152 01ec 0B       		.uleb128 0xb
 3153 01ed 01       		.byte	0x1
 3154 01ee 11       		.uleb128 0x11
 3155 01ef 01       		.uleb128 0x1
 3156 01f0 12       		.uleb128 0x12
 3157 01f1 06       		.uleb128 0x6
 3158 01f2 01       		.uleb128 0x1
 3159 01f3 13       		.uleb128 0x13
 3160 01f4 00       		.byte	0
 3161 01f5 00       		.byte	0
 3162 01f6 27       		.uleb128 0x27
 3163 01f7 34       		.uleb128 0x34
ARM GAS  C:\Users\Luis\AppData\Local\Temp\ccPmRWnQ.s 			page 57


 3164 01f8 00       		.byte	0
 3165 01f9 03       		.uleb128 0x3
 3166 01fa 08       		.uleb128 0x8
 3167 01fb 3A       		.uleb128 0x3a
 3168 01fc 0B       		.uleb128 0xb
 3169 01fd 3B       		.uleb128 0x3b
 3170 01fe 0B       		.uleb128 0xb
 3171 01ff 49       		.uleb128 0x49
 3172 0200 13       		.uleb128 0x13
 3173 0201 02       		.uleb128 0x2
 3174 0202 18       		.uleb128 0x18
 3175 0203 00       		.byte	0
 3176 0204 00       		.byte	0
 3177 0205 28       		.uleb128 0x28
 3178 0206 0B       		.uleb128 0xb
 3179 0207 01       		.byte	0x1
 3180 0208 11       		.uleb128 0x11
 3181 0209 01       		.uleb128 0x1
 3182 020a 12       		.uleb128 0x12
 3183 020b 06       		.uleb128 0x6
 3184 020c 00       		.byte	0
 3185 020d 00       		.byte	0
 3186 020e 29       		.uleb128 0x29
 3187 020f 2E       		.uleb128 0x2e
 3188 0210 01       		.byte	0x1
 3189 0211 3F       		.uleb128 0x3f
 3190 0212 19       		.uleb128 0x19
 3191 0213 03       		.uleb128 0x3
 3192 0214 0E       		.uleb128 0xe
 3193 0215 3A       		.uleb128 0x3a
 3194 0216 0B       		.uleb128 0xb
 3195 0217 3B       		.uleb128 0x3b
 3196 0218 05       		.uleb128 0x5
 3197 0219 27       		.uleb128 0x27
 3198 021a 19       		.uleb128 0x19
 3199 021b 11       		.uleb128 0x11
 3200 021c 01       		.uleb128 0x1
 3201 021d 12       		.uleb128 0x12
 3202 021e 06       		.uleb128 0x6
 3203 021f 40       		.uleb128 0x40
 3204 0220 18       		.uleb128 0x18
 3205 0221 9642     		.uleb128 0x2116
 3206 0223 19       		.uleb128 0x19
 3207 0224 01       		.uleb128 0x1
 3208 0225 13       		.uleb128 0x13
 3209 0226 00       		.byte	0
 3210 0227 00       		.byte	0
 3211 0228 2A       		.uleb128 0x2a
 3212 0229 05       		.uleb128 0x5
 3213 022a 00       		.byte	0
 3214 022b 03       		.uleb128 0x3
 3215 022c 08       		.uleb128 0x8
 3216 022d 3A       		.uleb128 0x3a
 3217 022e 0B       		.uleb128 0xb
 3218 022f 3B       		.uleb128 0x3b
 3219 0230 05       		.uleb128 0x5
 3220 0231 49       		.uleb128 0x49
ARM GAS  C:\Users\Luis\AppData\Local\Temp\ccPmRWnQ.s 			page 58


 3221 0232 13       		.uleb128 0x13
 3222 0233 02       		.uleb128 0x2
 3223 0234 18       		.uleb128 0x18
 3224 0235 00       		.byte	0
 3225 0236 00       		.byte	0
 3226 0237 2B       		.uleb128 0x2b
 3227 0238 34       		.uleb128 0x34
 3228 0239 00       		.byte	0
 3229 023a 03       		.uleb128 0x3
 3230 023b 08       		.uleb128 0x8
 3231 023c 3A       		.uleb128 0x3a
 3232 023d 0B       		.uleb128 0xb
 3233 023e 3B       		.uleb128 0x3b
 3234 023f 05       		.uleb128 0x5
 3235 0240 49       		.uleb128 0x49
 3236 0241 13       		.uleb128 0x13
 3237 0242 02       		.uleb128 0x2
 3238 0243 18       		.uleb128 0x18
 3239 0244 00       		.byte	0
 3240 0245 00       		.byte	0
 3241 0246 2C       		.uleb128 0x2c
 3242 0247 34       		.uleb128 0x34
 3243 0248 00       		.byte	0
 3244 0249 03       		.uleb128 0x3
 3245 024a 0E       		.uleb128 0xe
 3246 024b 3A       		.uleb128 0x3a
 3247 024c 0B       		.uleb128 0xb
 3248 024d 3B       		.uleb128 0x3b
 3249 024e 05       		.uleb128 0x5
 3250 024f 49       		.uleb128 0x49
 3251 0250 13       		.uleb128 0x13
 3252 0251 02       		.uleb128 0x2
 3253 0252 18       		.uleb128 0x18
 3254 0253 00       		.byte	0
 3255 0254 00       		.byte	0
 3256 0255 2D       		.uleb128 0x2d
 3257 0256 34       		.uleb128 0x34
 3258 0257 00       		.byte	0
 3259 0258 03       		.uleb128 0x3
 3260 0259 0E       		.uleb128 0xe
 3261 025a 3A       		.uleb128 0x3a
 3262 025b 0B       		.uleb128 0xb
 3263 025c 3B       		.uleb128 0x3b
 3264 025d 05       		.uleb128 0x5
 3265 025e 49       		.uleb128 0x49
 3266 025f 13       		.uleb128 0x13
 3267 0260 3F       		.uleb128 0x3f
 3268 0261 19       		.uleb128 0x19
 3269 0262 3C       		.uleb128 0x3c
 3270 0263 19       		.uleb128 0x19
 3271 0264 00       		.byte	0
 3272 0265 00       		.byte	0
 3273 0266 2E       		.uleb128 0x2e
 3274 0267 34       		.uleb128 0x34
 3275 0268 00       		.byte	0
 3276 0269 03       		.uleb128 0x3
 3277 026a 08       		.uleb128 0x8
ARM GAS  C:\Users\Luis\AppData\Local\Temp\ccPmRWnQ.s 			page 59


 3278 026b 3A       		.uleb128 0x3a
 3279 026c 0B       		.uleb128 0xb
 3280 026d 3B       		.uleb128 0x3b
 3281 026e 05       		.uleb128 0x5
 3282 026f 49       		.uleb128 0x49
 3283 0270 13       		.uleb128 0x13
 3284 0271 3F       		.uleb128 0x3f
 3285 0272 19       		.uleb128 0x19
 3286 0273 3C       		.uleb128 0x3c
 3287 0274 19       		.uleb128 0x19
 3288 0275 00       		.byte	0
 3289 0276 00       		.byte	0
 3290 0277 2F       		.uleb128 0x2f
 3291 0278 34       		.uleb128 0x34
 3292 0279 00       		.byte	0
 3293 027a 03       		.uleb128 0x3
 3294 027b 0E       		.uleb128 0xe
 3295 027c 3A       		.uleb128 0x3a
 3296 027d 0B       		.uleb128 0xb
 3297 027e 3B       		.uleb128 0x3b
 3298 027f 0B       		.uleb128 0xb
 3299 0280 49       		.uleb128 0x49
 3300 0281 13       		.uleb128 0x13
 3301 0282 3F       		.uleb128 0x3f
 3302 0283 19       		.uleb128 0x19
 3303 0284 3C       		.uleb128 0x3c
 3304 0285 19       		.uleb128 0x19
 3305 0286 00       		.byte	0
 3306 0287 00       		.byte	0
 3307 0288 00       		.byte	0
 3308              		.section	.debug_aranges,"",%progbits
 3309 0000 3C000000 		.4byte	0x3c
 3310 0004 0200     		.2byte	0x2
 3311 0006 00000000 		.4byte	.Ldebug_info0
 3312 000a 04       		.byte	0x4
 3313 000b 00       		.byte	0
 3314 000c 0000     		.2byte	0
 3315 000e 0000     		.2byte	0
 3316 0010 00000000 		.4byte	.LFB230
 3317 0014 14000000 		.4byte	.LFE230-.LFB230
 3318 0018 00000000 		.4byte	.LFB260
 3319 001c C8020000 		.4byte	.LFE260-.LFB260
 3320 0020 00000000 		.4byte	.LFB261
 3321 0024 1E000000 		.4byte	.LFE261-.LFB261
 3322 0028 00000000 		.4byte	.LFB262
 3323 002c 1E000000 		.4byte	.LFE262-.LFB262
 3324 0030 00000000 		.4byte	.LFB263
 3325 0034 D4000000 		.4byte	.LFE263-.LFB263
 3326 0038 00000000 		.4byte	0
 3327 003c 00000000 		.4byte	0
 3328              		.section	.debug_ranges,"",%progbits
 3329              	.Ldebug_ranges0:
 3330 0000 00000000 		.4byte	.LFB230
 3331 0004 14000000 		.4byte	.LFE230
 3332 0008 00000000 		.4byte	.LFB260
 3333 000c C8020000 		.4byte	.LFE260
 3334 0010 00000000 		.4byte	.LFB261
ARM GAS  C:\Users\Luis\AppData\Local\Temp\ccPmRWnQ.s 			page 60


 3335 0014 1E000000 		.4byte	.LFE261
 3336 0018 00000000 		.4byte	.LFB262
 3337 001c 1E000000 		.4byte	.LFE262
 3338 0020 00000000 		.4byte	.LFB263
 3339 0024 D4000000 		.4byte	.LFE263
 3340 0028 00000000 		.4byte	0
 3341 002c 00000000 		.4byte	0
 3342              		.section	.debug_line,"",%progbits
 3343              	.Ldebug_line0:
 3344 0000 8D030000 		.section	.debug_str,"MS",%progbits,1
 3344      02009302 
 3344      00000201 
 3344      FB0E0D00 
 3344      01010101 
 3345              	.LASF52:
 3346 0000 74687265 		.ascii	"threads_queue_t\000"
 3346      6164735F 
 3346      71756575 
 3346      655F7400 
 3347              	.LASF190:
 3348 0010 73746174 		.ascii	"stats_proto\000"
 3348      735F7072 
 3348      6F746F00 
 3349              	.LASF117:
 3350 001c 77746D74 		.ascii	"wtmtxp\000"
 3350      787000
 3351              	.LASF101:
 3352 0023 746D5F63 		.ascii	"tm_calibration_t\000"
 3352      616C6962 
 3352      72617469 
 3352      6F6E5F74 
 3352      00
 3353              	.LASF167:
 3354 0034 49434D50 		.ascii	"ICMP_DUR_HOST\000"
 3354      5F445552 
 3354      5F484F53 
 3354      5400
 3355              	.LASF126:
 3356 0042 63686172 		.ascii	"char\000"
 3356      00
 3357              	.LASF157:
 3358 0047 6F757470 		.ascii	"output\000"
 3358      757400
 3359              	.LASF30:
 3360 004e 705F7072 		.ascii	"p_prio\000"
 3360      696F00
 3361              	.LASF139:
 3362 0055 50425546 		.ascii	"PBUF_RAM\000"
 3362      5F52414D 
 3362      00
 3363              	.LASF138:
 3364 005e 50425546 		.ascii	"PBUF_RAW\000"
 3364      5F524157 
 3364      00
 3365              	.LASF148:
 3366 0067 666C6167 		.ascii	"flags\000"
 3366      7300
ARM GAS  C:\Users\Luis\AppData\Local\Temp\ccPmRWnQ.s 			page 61


 3367              	.LASF26:
 3368 006d 73797374 		.ascii	"systime_t\000"
 3368      696D655F 
 3368      7400
 3369              	.LASF124:
 3370 0077 6D5F6F77 		.ascii	"m_owner\000"
 3370      6E657200 
 3371              	.LASF120:
 3372 007f 735F7175 		.ascii	"s_queue\000"
 3372      65756500 
 3373              	.LASF40:
 3374 0087 705F6D73 		.ascii	"p_msgqueue\000"
 3374      67717565 
 3374      756500
 3375              	.LASF0:
 3376 0092 756E7369 		.ascii	"unsigned int\000"
 3376      676E6564 
 3376      20696E74 
 3376      00
 3377              	.LASF144:
 3378 009f 6E657874 		.ascii	"next\000"
 3378      00
 3379              	.LASF166:
 3380 00a4 49434D50 		.ascii	"ICMP_DUR_NET\000"
 3380      5F445552 
 3380      5F4E4554 
 3380      00
 3381              	.LASF216:
 3382 00b1 69656368 		.ascii	"iecho\000"
 3382      6F00
 3383              	.LASF110:
 3384 00b7 6D5F6372 		.ascii	"m_crit_isr\000"
 3384      69745F69 
 3384      737200
 3385              	.LASF49:
 3386 00c2 74687265 		.ascii	"threads_list_t\000"
 3386      6164735F 
 3386      6C697374 
 3386      5F7400
 3387              	.LASF134:
 3388 00d1 6572725F 		.ascii	"err_t\000"
 3388      7400
 3389              	.LASF105:
 3390 00d7 63756D75 		.ascii	"cumulative\000"
 3390      6C617469 
 3390      766500
 3391              	.LASF39:
 3392 00e2 705F7761 		.ascii	"p_waiting\000"
 3392      6974696E 
 3392      6700
 3393              	.LASF196:
 3394 00ec 6D656D65 		.ascii	"memerr\000"
 3394      727200
 3395              	.LASF94:
 3396 00f3 73655F73 		.ascii	"se_state\000"
 3396      74617465 
 3396      00
ARM GAS  C:\Users\Luis\AppData\Local\Temp\ccPmRWnQ.s 			page 62


 3397              	.LASF131:
 3398 00fc 7531365F 		.ascii	"u16_t\000"
 3398      7400
 3399              	.LASF185:
 3400 0102 5F74746C 		.ascii	"_ttl\000"
 3400      00
 3401              	.LASF231:
 3402 0107 474E5520 		.ascii	"GNU C 4.8.3 20131129 (release) [ARM/embedded-4_8-br"
 3402      4320342E 
 3402      382E3320 
 3402      32303133 
 3402      31313239 
 3403 013a 616E6368 		.ascii	"anch revision 205641] -mcpu=cortex-m4 -mapcs-frame "
 3403      20726576 
 3403      6973696F 
 3403      6E203230 
 3403      35363431 
 3404 016d 2D6D6E6F 		.ascii	"-mno-thumb-interwork -mthumb -ggdb -O0 -falign-func"
 3404      2D746875 
 3404      6D622D69 
 3404      6E746572 
 3404      776F726B 
 3405 01a0 74696F6E 		.ascii	"tions=16 -ffunction-sections -fdata-sections -fno-c"
 3405      733D3136 
 3405      202D6666 
 3405      756E6374 
 3405      696F6E2D 
 3406 01d3 6F6D6D6F 		.ascii	"ommon\000"
 3406      6E00
 3407              	.LASF210:
 3408 01d9 6C696E6B 		.ascii	"link\000"
 3408      00
 3409              	.LASF82:
 3410 01de 76746C69 		.ascii	"vtlist\000"
 3410      737400
 3411              	.LASF55:
 3412 01e5 63685F72 		.ascii	"ch_ready_list\000"
 3412      65616479 
 3412      5F6C6973 
 3412      7400
 3413              	.LASF85:
 3414 01f3 69646C65 		.ascii	"idle_thread_wa\000"
 3414      5F746872 
 3414      6561645F 
 3414      776100
 3415              	.LASF201:
 3416 0202 73746174 		.ascii	"stats_mem\000"
 3416      735F6D65 
 3416      6D00
 3417              	.LASF118:
 3418 020c 65776D61 		.ascii	"ewmask\000"
 3418      736B00
 3419              	.LASF218:
 3420 0213 686C656E 		.ascii	"hlen\000"
 3420      00
 3421              	.LASF164:
 3422 0218 6E657469 		.ascii	"netif_output_fn\000"
ARM GAS  C:\Users\Luis\AppData\Local\Temp\ccPmRWnQ.s 			page 63


 3422      665F6F75 
 3422      74707574 
 3422      5F666E00 
 3423              	.LASF230:
 3424 0228 6C776970 		.ascii	"lwip_stats\000"
 3424      5F737461 
 3424      747300
 3425              	.LASF62:
 3426 0233 76746675 		.ascii	"vtfunc_t\000"
 3426      6E635F74 
 3426      00
 3427              	.LASF114:
 3428 023c 77746F62 		.ascii	"wtobjp\000"
 3428      6A7000
 3429              	.LASF74:
 3430 0243 63685F73 		.ascii	"ch_system_debug\000"
 3430      79737465 
 3430      6D5F6465 
 3430      62756700 
 3431              	.LASF220:
 3432 0253 69636D70 		.ascii	"icmp_input\000"
 3432      5F696E70 
 3432      757400
 3433              	.LASF121:
 3434 025e 735F636E 		.ascii	"s_cnt\000"
 3434      7400
 3435              	.LASF135:
 3436 0264 50425546 		.ascii	"PBUF_TRANSPORT\000"
 3436      5F545241 
 3436      4E53504F 
 3436      525400
 3437              	.LASF205:
 3438 0273 73746174 		.ascii	"stats_syselem\000"
 3438      735F7379 
 3438      73656C65 
 3438      6D00
 3439              	.LASF179:
 3440 0281 7365716E 		.ascii	"seqno\000"
 3440      6F00
 3441              	.LASF173:
 3442 0287 69636D70 		.ascii	"icmp_te_type\000"
 3442      5F74655F 
 3442      74797065 
 3442      00
 3443              	.LASF163:
 3444 0294 6E657469 		.ascii	"netif_input_fn\000"
 3444      665F696E 
 3444      7075745F 
 3444      666E00
 3445              	.LASF11:
 3446 02a3 75696E74 		.ascii	"uint32_t\000"
 3446      33325F74 
 3446      00
 3447              	.LASF2:
 3448 02ac 696E7438 		.ascii	"int8_t\000"
 3448      5F7400
 3449              	.LASF111:
ARM GAS  C:\Users\Luis\AppData\Local\Temp\ccPmRWnQ.s 			page 64


 3450 02b3 6B65726E 		.ascii	"kernel_stats_t\000"
 3450      656C5F73 
 3450      74617473 
 3450      5F7400
 3451              	.LASF23:
 3452 02c2 6576656E 		.ascii	"eventmask_t\000"
 3452      746D6173 
 3452      6B5F7400 
 3453              	.LASF57:
 3454 02ce 725F7072 		.ascii	"r_prio\000"
 3454      696F00
 3455              	.LASF84:
 3456 02d5 6B65726E 		.ascii	"kernel_stats\000"
 3456      656C5F73 
 3456      74617473 
 3456      00
 3457              	.LASF69:
 3458 02e2 76745F70 		.ascii	"vt_par\000"
 3458      617200
 3459              	.LASF199:
 3460 02e9 6F707465 		.ascii	"opterr\000"
 3460      727200
 3461              	.LASF207:
 3462 02f0 6D757465 		.ascii	"mutex\000"
 3462      7800
 3463              	.LASF212:
 3464 02f6 69705F66 		.ascii	"ip_frag\000"
 3464      72616700 
 3465              	.LASF119:
 3466 02fe 63685F73 		.ascii	"ch_semaphore\000"
 3466      656D6170 
 3466      686F7265 
 3466      00
 3467              	.LASF21:
 3468 030b 74707269 		.ascii	"tprio_t\000"
 3468      6F5F7400 
 3469              	.LASF64:
 3470 0313 63685F76 		.ascii	"ch_virtual_timer\000"
 3470      69727475 
 3470      616C5F74 
 3470      696D6572 
 3470      00
 3471              	.LASF5:
 3472 0324 696E7431 		.ascii	"int16_t\000"
 3472      365F7400 
 3473              	.LASF161:
 3474 032c 68776164 		.ascii	"hwaddr\000"
 3474      647200
 3475              	.LASF211:
 3476 0333 65746861 		.ascii	"etharp\000"
 3476      727000
 3477              	.LASF15:
 3478 033a 6C6F6E67 		.ascii	"long long unsigned int\000"
 3478      206C6F6E 
 3478      6720756E 
 3478      7369676E 
 3478      65642069 
ARM GAS  C:\Users\Luis\AppData\Local\Temp\ccPmRWnQ.s 			page 65


 3479              	.LASF93:
 3480 0351 73655F77 		.ascii	"se_wtobjp\000"
 3480      746F626A 
 3480      7000
 3481              	.LASF222:
 3482 035b 69636D70 		.ascii	"icmp_time_exceeded\000"
 3482      5F74696D 
 3482      655F6578 
 3482      63656564 
 3482      656400
 3483              	.LASF100:
 3484 036e 6F666673 		.ascii	"offset\000"
 3484      657400
 3485              	.LASF215:
 3486 0375 72656173 		.ascii	"reason\000"
 3486      6F6E00
 3487              	.LASF221:
 3488 037c 69636D70 		.ascii	"icmp_dest_unreach\000"
 3488      5F646573 
 3488      745F756E 
 3488      72656163 
 3488      6800
 3489              	.LASF228:
 3490 038e 63757272 		.ascii	"current_iphdr_src\000"
 3490      656E745F 
 3490      69706864 
 3490      725F7372 
 3490      6300
 3491              	.LASF187:
 3492 03a0 5F63686B 		.ascii	"_chksum\000"
 3492      73756D00 
 3493              	.LASF160:
 3494 03a8 68776164 		.ascii	"hwaddr_len\000"
 3494      64725F6C 
 3494      656E00
 3495              	.LASF184:
 3496 03b3 5F6F6666 		.ascii	"_offset\000"
 3496      73657400 
 3497              	.LASF76:
 3498 03bb 6973725F 		.ascii	"isr_cnt\000"
 3498      636E7400 
 3499              	.LASF103:
 3500 03c3 776F7273 		.ascii	"worst\000"
 3500      7400
 3501              	.LASF171:
 3502 03c9 49434D50 		.ascii	"ICMP_DUR_SR\000"
 3502      5F445552 
 3502      5F535200 
 3503              	.LASF32:
 3504 03d5 705F6E65 		.ascii	"p_newer\000"
 3504      77657200 
 3505              	.LASF71:
 3506 03dd 63685F76 		.ascii	"ch_virtual_timers_list\000"
 3506      69727475 
 3506      616C5F74 
 3506      696D6572 
 3506      735F6C69 
ARM GAS  C:\Users\Luis\AppData\Local\Temp\ccPmRWnQ.s 			page 66


 3507              	.LASF67:
 3508 03f4 76745F64 		.ascii	"vt_delta\000"
 3508      656C7461 
 3508      00
 3509              	.LASF141:
 3510 03fd 50425546 		.ascii	"PBUF_REF\000"
 3510      5F524546 
 3510      00
 3511              	.LASF209:
 3512 0406 73746174 		.ascii	"stats_\000"
 3512      735F00
 3513              	.LASF27:
 3514 040d 74687265 		.ascii	"thread_t\000"
 3514      61645F74 
 3514      00
 3515              	.LASF178:
 3516 0416 63686B73 		.ascii	"chksum\000"
 3516      756D00
 3517              	.LASF112:
 3518 041d 7264796D 		.ascii	"rdymsg\000"
 3518      736700
 3519              	.LASF145:
 3520 0424 7061796C 		.ascii	"payload\000"
 3520      6F616400 
 3521              	.LASF136:
 3522 042c 50425546 		.ascii	"PBUF_IP\000"
 3522      5F495000 
 3523              	.LASF128:
 3524 0434 5F426F6F 		.ascii	"_Bool\000"
 3524      6C00
 3525              	.LASF232:
 3526 043a 2E2E2F2E 		.ascii	"../../ChibiOS/ext/lwip/src/core/ipv4/icmp.c\000"
 3526      2E2F4368 
 3526      6962694F 
 3526      532F6578 
 3526      742F6C77 
 3527              	.LASF233:
 3528 0466 433A5C55 		.ascii	"C:\\Users\\Luis\\git\\DSP-Library-Lanin\\examples\\"
 3528      73657273 
 3528      5C4C7569 
 3528      735C6769 
 3528      745C4453 
 3529 0493 53544D33 		.ascii	"STM32F407_EMTECH-LWIP\000"
 3529      32463430 
 3529      375F454D 
 3529      54454348 
 3529      2D4C5749 
 3530              	.LASF142:
 3531 04a9 50425546 		.ascii	"PBUF_POOL\000"
 3531      5F504F4F 
 3531      4C00
 3532              	.LASF122:
 3533 04b3 63685F6D 		.ascii	"ch_mutex\000"
 3533      75746578 
 3533      00
 3534              	.LASF130:
 3535 04bc 73385F74 		.ascii	"s8_t\000"
ARM GAS  C:\Users\Luis\AppData\Local\Temp\ccPmRWnQ.s 			page 67


 3535      00
 3536              	.LASF177:
 3537 04c1 636F6465 		.ascii	"code\000"
 3537      00
 3538              	.LASF104:
 3539 04c6 6C617374 		.ascii	"last\000"
 3539      00
 3540              	.LASF219:
 3541 04cb 61636365 		.ascii	"accepted\000"
 3541      70746564 
 3541      00
 3542              	.LASF34:
 3543 04d4 705F6E61 		.ascii	"p_name\000"
 3543      6D6500
 3544              	.LASF51:
 3545 04db 63685F74 		.ascii	"ch_threads_list\000"
 3545      68726561 
 3545      64735F6C 
 3545      69737400 
 3546              	.LASF204:
 3547 04eb 696C6C65 		.ascii	"illegal\000"
 3547      67616C00 
 3548              	.LASF189:
 3549 04f3 6D656D5F 		.ascii	"mem_size_t\000"
 3549      73697A65 
 3549      5F7400
 3550              	.LASF17:
 3551 04fe 72747469 		.ascii	"rttime_t\000"
 3551      6D655F74 
 3551      00
 3552              	.LASF72:
 3553 0507 76745F6C 		.ascii	"vt_lasttime\000"
 3553      61737474 
 3553      696D6500 
 3554              	.LASF151:
 3555 0513 69705F61 		.ascii	"ip_addr_packed\000"
 3555      6464725F 
 3555      7061636B 
 3555      656400
 3556              	.LASF19:
 3557 0522 74737461 		.ascii	"tstate_t\000"
 3557      74655F74 
 3557      00
 3558              	.LASF92:
 3559 052b 73655F74 		.ascii	"se_tp\000"
 3559      7000
 3560              	.LASF13:
 3561 0531 6C6F6E67 		.ascii	"long long int\000"
 3561      206C6F6E 
 3561      6720696E 
 3561      7400
 3562              	.LASF33:
 3563 053f 705F6F6C 		.ascii	"p_older\000"
 3563      64657200 
 3564              	.LASF91:
 3565 0547 73655F74 		.ascii	"se_time\000"
 3565      696D6500 
ARM GAS  C:\Users\Luis\AppData\Local\Temp\ccPmRWnQ.s 			page 68


 3566              	.LASF35:
 3567 054f 705F7374 		.ascii	"p_stklimit\000"
 3567      6B6C696D 
 3567      697400
 3568              	.LASF3:
 3569 055a 75696E74 		.ascii	"uint8_t\000"
 3569      385F7400 
 3570              	.LASF147:
 3571 0562 74797065 		.ascii	"type\000"
 3571      00
 3572              	.LASF46:
 3573 0567 705F7374 		.ascii	"p_stats\000"
 3573      61747300 
 3574              	.LASF45:
 3575 056f 705F6D70 		.ascii	"p_mpool\000"
 3575      6F6F6C00 
 3576              	.LASF186:
 3577 0577 5F70726F 		.ascii	"_proto\000"
 3577      746F00
 3578              	.LASF36:
 3579 057e 705F7374 		.ascii	"p_state\000"
 3579      61746500 
 3580              	.LASF50:
 3581 0586 63685F74 		.ascii	"ch_thread\000"
 3581      68726561 
 3581      6400
 3582              	.LASF106:
 3583 0590 74696D65 		.ascii	"time_measurement_t\000"
 3583      5F6D6561 
 3583      73757265 
 3583      6D656E74 
 3583      5F7400
 3584              	.LASF96:
 3585 05a3 74625F73 		.ascii	"tb_size\000"
 3585      697A6500 
 3586              	.LASF176:
 3587 05ab 69636D70 		.ascii	"icmp_echo_hdr\000"
 3587      5F656368 
 3587      6F5F6864 
 3587      7200
 3588              	.LASF87:
 3589 05b9 72656761 		.ascii	"regarm_t\000"
 3589      726D5F74 
 3589      00
 3590              	.LASF73:
 3591 05c2 73797374 		.ascii	"system_debug_t\000"
 3591      656D5F64 
 3591      65627567 
 3591      5F7400
 3592              	.LASF155:
 3593 05d1 6E65746D 		.ascii	"netmask\000"
 3593      61736B00 
 3594              	.LASF53:
 3595 05d9 63685F74 		.ascii	"ch_threads_queue\000"
 3595      68726561 
 3595      64735F71 
 3595      75657565 
ARM GAS  C:\Users\Luis\AppData\Local\Temp\ccPmRWnQ.s 			page 69


 3595      00
 3596              	.LASF56:
 3597 05ea 725F7175 		.ascii	"r_queue\000"
 3597      65756500 
 3598              	.LASF59:
 3599 05f2 725F6E65 		.ascii	"r_newer\000"
 3599      77657200 
 3600              	.LASF24:
 3601 05fa 636E745F 		.ascii	"cnt_t\000"
 3601      7400
 3602              	.LASF22:
 3603 0600 6D73675F 		.ascii	"msg_t\000"
 3603      7400
 3604              	.LASF89:
 3605 0606 636F6E74 		.ascii	"context\000"
 3605      65787400 
 3606              	.LASF129:
 3607 060e 75385F74 		.ascii	"u8_t\000"
 3607      00
 3608              	.LASF37:
 3609 0613 705F666C 		.ascii	"p_flags\000"
 3609      61677300 
 3610              	.LASF181:
 3611 061b 5F765F68 		.ascii	"_v_hl\000"
 3611      6C00
 3612              	.LASF63:
 3613 0621 76697274 		.ascii	"virtual_timer_t\000"
 3613      75616C5F 
 3613      74696D65 
 3613      725F7400 
 3614              	.LASF223:
 3615 0631 6F73616C 		.ascii	"osalSysHalt\000"
 3615      53797348 
 3615      616C7400 
 3616              	.LASF98:
 3617 063d 74625F62 		.ascii	"tb_buffer\000"
 3617      75666665 
 3617      7200
 3618              	.LASF203:
 3619 0647 75736564 		.ascii	"used\000"
 3619      00
 3620              	.LASF97:
 3621 064c 74625F70 		.ascii	"tb_ptr\000"
 3621      747200
 3622              	.LASF194:
 3623 0653 63686B65 		.ascii	"chkerr\000"
 3623      727200
 3624              	.LASF60:
 3625 065a 725F6F6C 		.ascii	"r_older\000"
 3625      64657200 
 3626              	.LASF169:
 3627 0662 49434D50 		.ascii	"ICMP_DUR_PORT\000"
 3627      5F445552 
 3627      5F504F52 
 3627      5400
 3628              	.LASF108:
 3629 0670 6E5F6374 		.ascii	"n_ctxswc\000"
ARM GAS  C:\Users\Luis\AppData\Local\Temp\ccPmRWnQ.s 			page 70


 3629      78737763 
 3629      00
 3630              	.LASF156:
 3631 0679 696E7075 		.ascii	"input\000"
 3631      7400
 3632              	.LASF224:
 3633 067f 69636D70 		.ascii	"icmp_send_response\000"
 3633      5F73656E 
 3633      645F7265 
 3633      73706F6E 
 3633      736500
 3634              	.LASF137:
 3635 0692 50425546 		.ascii	"PBUF_LINK\000"
 3635      5F4C494E 
 3635      4B00
 3636              	.LASF41:
 3637 069c 705F6D73 		.ascii	"p_msg\000"
 3637      6700
 3638              	.LASF18:
 3639 06a2 746D6F64 		.ascii	"tmode_t\000"
 3639      655F7400 
 3640              	.LASF25:
 3641 06aa 75636E74 		.ascii	"ucnt_t\000"
 3641      5F7400
 3642              	.LASF83:
 3643 06b1 6D61696E 		.ascii	"mainthread\000"
 3643      74687265 
 3643      616400
 3644              	.LASF7:
 3645 06bc 75696E74 		.ascii	"uint16_t\000"
 3645      31365F74 
 3645      00
 3646              	.LASF48:
 3647 06c5 74687265 		.ascii	"thread_reference_t\000"
 3647      61645F72 
 3647      65666572 
 3647      656E6365 
 3647      5F7400
 3648              	.LASF225:
 3649 06d8 69636D70 		.ascii	"icmphdr\000"
 3649      68647200 
 3650              	.LASF16:
 3651 06e0 7274636E 		.ascii	"rtcnt_t\000"
 3651      745F7400 
 3652              	.LASF77:
 3653 06e8 6C6F636B 		.ascii	"lock_cnt\000"
 3653      5F636E74 
 3653      00
 3654              	.LASF107:
 3655 06f1 6E5F6972 		.ascii	"n_irq\000"
 3655      7100
 3656              	.LASF44:
 3657 06f7 705F7265 		.ascii	"p_realprio\000"
 3657      616C7072 
 3657      696F00
 3658              	.LASF175:
 3659 0702 49434D50 		.ascii	"ICMP_TE_FRAG\000"
ARM GAS  C:\Users\Luis\AppData\Local\Temp\ccPmRWnQ.s 			page 71


 3659      5F54455F 
 3659      46524147 
 3659      00
 3660              	.LASF133:
 3661 070f 7533325F 		.ascii	"u32_t\000"
 3661      7400
 3662              	.LASF6:
 3663 0715 73686F72 		.ascii	"short int\000"
 3663      7420696E 
 3663      7400
 3664              	.LASF213:
 3665 071f 69636D70 		.ascii	"icmp\000"
 3665      00
 3666              	.LASF61:
 3667 0724 725F6375 		.ascii	"r_current\000"
 3667      7272656E 
 3667      7400
 3668              	.LASF42:
 3669 072e 705F6570 		.ascii	"p_epending\000"
 3669      656E6469 
 3669      6E6700
 3670              	.LASF123:
 3671 0739 6D5F7175 		.ascii	"m_queue\000"
 3671      65756500 
 3672              	.LASF10:
 3673 0741 6C6F6E67 		.ascii	"long int\000"
 3673      20696E74 
 3673      00
 3674              	.LASF90:
 3675 074a 706F7274 		.ascii	"port_intctx\000"
 3675      5F696E74 
 3675      63747800 
 3676              	.LASF197:
 3677 0756 72746572 		.ascii	"rterr\000"
 3677      7200
 3678              	.LASF227:
 3679 075c 49544D5F 		.ascii	"ITM_RxBuffer\000"
 3679      52784275 
 3679      66666572 
 3679      00
 3680              	.LASF202:
 3681 0769 61766169 		.ascii	"avail\000"
 3681      6C00
 3682              	.LASF80:
 3683 076f 63685F73 		.ascii	"ch_system\000"
 3683      79737465 
 3683      6D00
 3684              	.LASF109:
 3685 0779 6D5F6372 		.ascii	"m_crit_thd\000"
 3685      69745F74 
 3685      686400
 3686              	.LASF200:
 3687 0784 63616368 		.ascii	"cachehit\000"
 3687      65686974 
 3687      00
 3688              	.LASF28:
 3689 078d 705F6E65 		.ascii	"p_next\000"
ARM GAS  C:\Users\Luis\AppData\Local\Temp\ccPmRWnQ.s 			page 72


 3689      787400
 3690              	.LASF31:
 3691 0794 705F6374 		.ascii	"p_ctx\000"
 3691      7800
 3692              	.LASF208:
 3693 079a 6D626F78 		.ascii	"mbox\000"
 3693      00
 3694              	.LASF81:
 3695 079f 726C6973 		.ascii	"rlist\000"
 3695      7400
 3696              	.LASF226:
 3697 07a5 69706864 		.ascii	"iphdr_src\000"
 3697      725F7372 
 3697      6300
 3698              	.LASF180:
 3699 07af 69705F68 		.ascii	"ip_hdr\000"
 3699      647200
 3700              	.LASF174:
 3701 07b6 49434D50 		.ascii	"ICMP_TE_TTL\000"
 3701      5F54455F 
 3701      54544C00 
 3702              	.LASF162:
 3703 07c2 6E616D65 		.ascii	"name\000"
 3703      00
 3704              	.LASF165:
 3705 07c7 6E657469 		.ascii	"netif_linkoutput_fn\000"
 3705      665F6C69 
 3705      6E6B6F75 
 3705      74707574 
 3705      5F666E00 
 3706              	.LASF172:
 3707 07db 69636D70 		.ascii	"icmp_dur_type\000"
 3707      5F647572 
 3707      5F747970 
 3707      6500
 3708              	.LASF214:
 3709 07e9 6D656D70 		.ascii	"memp\000"
 3709      00
 3710              	.LASF195:
 3711 07ee 6C656E65 		.ascii	"lenerr\000"
 3711      727200
 3712              	.LASF29:
 3713 07f5 705F7072 		.ascii	"p_prev\000"
 3713      657600
 3714              	.LASF182:
 3715 07fc 5F746F73 		.ascii	"_tos\000"
 3715      00
 3716              	.LASF86:
 3717 0801 73697A65 		.ascii	"sizetype\000"
 3717      74797065 
 3717      00
 3718              	.LASF20:
 3719 080a 74726566 		.ascii	"trefs_t\000"
 3719      735F7400 
 3720              	.LASF12:
 3721 0812 6C6F6E67 		.ascii	"long unsigned int\000"
 3721      20756E73 
ARM GAS  C:\Users\Luis\AppData\Local\Temp\ccPmRWnQ.s 			page 73


 3721      69676E65 
 3721      6420696E 
 3721      7400
 3722              	.LASF43:
 3723 0824 705F6D74 		.ascii	"p_mtxlist\000"
 3723      786C6973 
 3723      7400
 3724              	.LASF54:
 3725 082e 72656164 		.ascii	"ready_list_t\000"
 3725      795F6C69 
 3725      73745F74 
 3725      00
 3726              	.LASF132:
 3727 083b 7331365F 		.ascii	"s16_t\000"
 3727      7400
 3728              	.LASF9:
 3729 0841 696E7433 		.ascii	"int32_t\000"
 3729      325F7400 
 3730              	.LASF78:
 3731 0849 74726163 		.ascii	"trace_buffer\000"
 3731      655F6275 
 3731      66666572 
 3731      00
 3732              	.LASF198:
 3733 0856 70726F74 		.ascii	"proterr\000"
 3733      65727200 
 3734              	.LASF116:
 3735 085e 77747365 		.ascii	"wtsemp\000"
 3735      6D7000
 3736              	.LASF95:
 3737 0865 63685F73 		.ascii	"ch_swc_event_t\000"
 3737      77635F65 
 3737      76656E74 
 3737      5F7400
 3738              	.LASF127:
 3739 0874 6D757465 		.ascii	"mutex_t\000"
 3739      785F7400 
 3740              	.LASF102:
 3741 087c 62657374 		.ascii	"best\000"
 3741      00
 3742              	.LASF206:
 3743 0881 73746174 		.ascii	"stats_sys\000"
 3743      735F7379 
 3743      7300
 3744              	.LASF4:
 3745 088b 756E7369 		.ascii	"unsigned char\000"
 3745      676E6564 
 3745      20636861 
 3745      7200
 3746              	.LASF70:
 3747 0899 76697274 		.ascii	"virtual_timers_list_t\000"
 3747      75616C5F 
 3747      74696D65 
 3747      72735F6C 
 3747      6973745F 
 3748              	.LASF38:
 3749 08af 705F7265 		.ascii	"p_refs\000"
ARM GAS  C:\Users\Luis\AppData\Local\Temp\ccPmRWnQ.s 			page 74


 3749      667300
 3750              	.LASF75:
 3751 08b6 70616E69 		.ascii	"panic_msg\000"
 3751      635F6D73 
 3751      6700
 3752              	.LASF143:
 3753 08c0 70627566 		.ascii	"pbuf\000"
 3753      00
 3754              	.LASF153:
 3755 08c5 69705F61 		.ascii	"ip_addr_p_t\000"
 3755      6464725F 
 3755      705F7400 
 3756              	.LASF168:
 3757 08d1 49434D50 		.ascii	"ICMP_DUR_PROTO\000"
 3757      5F445552 
 3757      5F50524F 
 3757      544F00
 3758              	.LASF88:
 3759 08e0 73746B61 		.ascii	"stkalign_t\000"
 3759      6C69676E 
 3759      5F7400
 3760              	.LASF150:
 3761 08eb 61646472 		.ascii	"addr\000"
 3761      00
 3762              	.LASF170:
 3763 08f0 49434D50 		.ascii	"ICMP_DUR_FRAG\000"
 3763      5F445552 
 3763      5F465241 
 3763      4700
 3764              	.LASF193:
 3765 08fe 64726F70 		.ascii	"drop\000"
 3765      00
 3766              	.LASF159:
 3767 0903 73746174 		.ascii	"state\000"
 3767      6500
 3768              	.LASF146:
 3769 0909 746F745F 		.ascii	"tot_len\000"
 3769      6C656E00 
 3770              	.LASF65:
 3771 0911 76745F6E 		.ascii	"vt_next\000"
 3771      65787400 
 3772              	.LASF14:
 3773 0919 75696E74 		.ascii	"uint64_t\000"
 3773      36345F74 
 3773      00
 3774              	.LASF154:
 3775 0922 6E657469 		.ascii	"netif\000"
 3775      6600
 3776              	.LASF79:
 3777 0928 63685F73 		.ascii	"ch_system_t\000"
 3777      79737465 
 3777      6D5F7400 
 3778              	.LASF115:
 3779 0934 77747472 		.ascii	"wttrp\000"
 3779      7000
 3780              	.LASF217:
 3781 093a 69706864 		.ascii	"iphdr\000"
ARM GAS  C:\Users\Luis\AppData\Local\Temp\ccPmRWnQ.s 			page 75


 3781      7200
 3782              	.LASF192:
 3783 0940 72656376 		.ascii	"recv\000"
 3783      00
 3784              	.LASF99:
 3785 0945 63685F74 		.ascii	"ch_trace_buffer_t\000"
 3785      72616365 
 3785      5F627566 
 3785      6665725F 
 3785      7400
 3786              	.LASF125:
 3787 0957 6D5F6E65 		.ascii	"m_next\000"
 3787      787400
 3788              	.LASF1:
 3789 095e 7369676E 		.ascii	"signed char\000"
 3789      65642063 
 3789      68617200 
 3790              	.LASF8:
 3791 096a 73686F72 		.ascii	"short unsigned int\000"
 3791      7420756E 
 3791      7369676E 
 3791      65642069 
 3791      6E7400
 3792              	.LASF58:
 3793 097d 725F6374 		.ascii	"r_ctx\000"
 3793      7800
 3794              	.LASF47:
 3795 0983 746C7350 		.ascii	"tlsPtr\000"
 3795      747200
 3796              	.LASF191:
 3797 098a 786D6974 		.ascii	"xmit\000"
 3797      00
 3798              	.LASF229:
 3799 098f 63757272 		.ascii	"current_iphdr_dest\000"
 3799      656E745F 
 3799      69706864 
 3799      725F6465 
 3799      737400
 3800              	.LASF68:
 3801 09a2 76745F66 		.ascii	"vt_func\000"
 3801      756E6300 
 3802              	.LASF66:
 3803 09aa 76745F70 		.ascii	"vt_prev\000"
 3803      72657600 
 3804              	.LASF183:
 3805 09b2 5F6C656E 		.ascii	"_len\000"
 3805      00
 3806              	.LASF152:
 3807 09b7 69705F61 		.ascii	"ip_addr_t\000"
 3807      6464725F 
 3807      7400
 3808              	.LASF140:
 3809 09c1 50425546 		.ascii	"PBUF_ROM\000"
 3809      5F524F4D 
 3809      00
 3810              	.LASF158:
 3811 09ca 6C696E6B 		.ascii	"linkoutput\000"
ARM GAS  C:\Users\Luis\AppData\Local\Temp\ccPmRWnQ.s 			page 76


 3811      6F757470 
 3811      757400
 3812              	.LASF188:
 3813 09d5 64657374 		.ascii	"dest\000"
 3813      00
 3814              	.LASF113:
 3815 09da 65786974 		.ascii	"exitcode\000"
 3815      636F6465 
 3815      00
 3816              	.LASF149:
 3817 09e3 69705F61 		.ascii	"ip_addr\000"
 3817      64647200 
 3818              		.ident	"GCC: (GNU Tools for ARM Embedded Processors) 4.8.3 20131129 (release) [ARM/embedded-4_8-br
ARM GAS  C:\Users\Luis\AppData\Local\Temp\ccPmRWnQ.s 			page 77


DEFINED SYMBOLS
                            *ABS*:00000000 icmp.c
C:\Users\Luis\AppData\Local\Temp\ccPmRWnQ.s:19     .text.osalSysHalt:00000000 $t
C:\Users\Luis\AppData\Local\Temp\ccPmRWnQ.s:24     .text.osalSysHalt:00000000 osalSysHalt
C:\Users\Luis\AppData\Local\Temp\ccPmRWnQ.s:52     .rodata:00000000 $d
C:\Users\Luis\AppData\Local\Temp\ccPmRWnQ.s:71     .text.icmp_input:00000000 $t
C:\Users\Luis\AppData\Local\Temp\ccPmRWnQ.s:77     .text.icmp_input:00000000 icmp_input
C:\Users\Luis\AppData\Local\Temp\ccPmRWnQ.s:480    .text.icmp_input:000002a8 $d
C:\Users\Luis\AppData\Local\Temp\ccPmRWnQ.s:492    .text.icmp_dest_unreach:00000000 $t
C:\Users\Luis\AppData\Local\Temp\ccPmRWnQ.s:498    .text.icmp_dest_unreach:00000000 icmp_dest_unreach
C:\Users\Luis\AppData\Local\Temp\ccPmRWnQ.s:577    .text.icmp_send_response:00000000 icmp_send_response
C:\Users\Luis\AppData\Local\Temp\ccPmRWnQ.s:530    .text.icmp_time_exceeded:00000000 $t
C:\Users\Luis\AppData\Local\Temp\ccPmRWnQ.s:536    .text.icmp_time_exceeded:00000000 icmp_time_exceeded
C:\Users\Luis\AppData\Local\Temp\ccPmRWnQ.s:572    .text.icmp_send_response:00000000 $t
C:\Users\Luis\AppData\Local\Temp\ccPmRWnQ.s:703    .text.icmp_send_response:000000cc $d
                     .debug_frame:00000010 $d
C:\Users\Luis\AppData\Local\Temp\ccPmRWnQ.s:491    .text.icmp_input:000002c8 $t
C:\Users\Luis\AppData\Local\Temp\ccPmRWnQ.s:708    .text.icmp_send_response:000000d4 $t

UNDEFINED SYMBOLS
chSysHalt
pbuf_header
ip4_addr_isbroadcast
pbuf_free
inet_chksum_pbuf
pbuf_alloc
pbuf_copy
inet_chksum
ip_output_if
lwip_stats
current_iphdr_dest
current_iphdr_src
memcpy
ip_output
