ARM GAS  C:\Users\Luis\AppData\Local\Temp\ccPmRWnQ.s 			page 1


   1              		.syntax unified
   2              		.cpu cortex-m4
   3              		.fpu softvfp
   4              		.eabi_attribute 20, 1
   5              		.eabi_attribute 21, 1
   6              		.eabi_attribute 23, 3
   7              		.eabi_attribute 24, 1
   8              		.eabi_attribute 25, 1
   9              		.eabi_attribute 26, 1
  10              		.eabi_attribute 30, 6
  11              		.eabi_attribute 34, 1
  12              		.eabi_attribute 18, 4
  13              		.thumb
  14              		.file	"icmp.c"
  15              		.text
  16              	.Ltext0:
  17              		.cfi_sections	.debug_frame
  18              		.section	.text.osalSysHalt,"ax",%progbits
  19              		.align	2
  20              		.p2align 4,,15
  21              		.thumb
  22              		.thumb_func
  23              		.type	osalSysHalt, %function
  24              	osalSysHalt:
  25              	.LFB230:
  26              		.file 1 "../../ChibiOS/os/hal/osal/rt/osal.h"
  27              		.loc 1 460 0
  28              		.cfi_startproc
  29              		@ args = 0, pretend = 0, frame = 8
  30              		@ frame_needed = 1, uses_anonymous_args = 0
  31 0000 80B5     		push	{r7, lr}
  32              		.cfi_def_cfa_offset 8
  33              		.cfi_offset 7, -8
  34              		.cfi_offset 14, -4
  35 0002 82B0     		sub	sp, sp, #8
  36              		.cfi_def_cfa_offset 16
  37 0004 00AF     		add	r7, sp, #0
  38              		.cfi_def_cfa_register 7
  39 0006 7860     		str	r0, [r7, #4]
  40              		.loc 1 462 0
  41 0008 7868     		ldr	r0, [r7, #4]
  42 000a FFF7FEFF 		bl	chSysHalt
  43              		.loc 1 463 0
  44 000e 0837     		adds	r7, r7, #8
  45 0010 BD46     		mov	sp, r7
  46              		@ sp needed
  47 0012 80BD     		pop	{r7, pc}
  48              		.cfi_endproc
  49              	.LFE230:
  50              		.size	osalSysHalt, .-osalSysHalt
  51 0014 AFF30080 		.section	.rodata
  51      AFF30080 
  51      AFF30080 
  52              		.align	2
  53              	.LC0:
  54 0000 69636D70 		.ascii	"icmp_input: moving p->payload to ip header failed\012"
  54      5F696E70 
ARM GAS  C:\Users\Luis\AppData\Local\Temp\ccPmRWnQ.s 			page 2


  54      75743A20 
  54      6D6F7669 
  54      6E672070 
  55 0032 00       		.ascii	"\000"
  56 0033 00       		.align	2
  57              	.LC1:
  58 0034 63686563 		.ascii	"check that first pbuf can hold struct the ICMP head"
  58      6B207468 
  58      61742066 
  58      69727374 
  58      20706275 
  59 0067 657200   		.ascii	"er\000"
  60 006a 0000     		.align	2
  61              	.LC2:
  62 006c 69636D70 		.ascii	"icmp_input: copying to new pbuf failed\012\000"
  62      5F696E70 
  62      75743A20 
  62      636F7079 
  62      696E6720 
  63              		.align	2
  64              	.LC3:
  65 0094 69636D70 		.ascii	"icmp_input: restoring original p->payload failed\012"
  65      5F696E70 
  65      75743A20 
  65      72657374 
  65      6F72696E 
  66 00c5 00       		.ascii	"\000"
  67 00c6 0000     		.align	2
  68              	.LC4:
  69 00c8 43616E27 		.ascii	"Can't move over header in packet\000"
  69      74206D6F 
  69      7665206F 
  69      76657220 
  69      68656164 
  70              		.section	.text.icmp_input,"ax",%progbits
  71              		.align	2
  72              		.p2align 4,,15
  73              		.global	icmp_input
  74              		.thumb
  75              		.thumb_func
  76              		.type	icmp_input, %function
  77              	icmp_input:
  78              	.LFB260:
  79              		.file 2 "../../ChibiOS/ext/lwip/src/core/ipv4/icmp.c"
  80              		.loc 2 78 0
  81              		.cfi_startproc
  82              		@ args = 0, pretend = 0, frame = 32
  83              		@ frame_needed = 1, uses_anonymous_args = 0
  84 0000 80B5     		push	{r7, lr}
  85              		.cfi_def_cfa_offset 8
  86              		.cfi_offset 7, -8
  87              		.cfi_offset 14, -4
  88 0002 8CB0     		sub	sp, sp, #48
  89              		.cfi_def_cfa_offset 56
  90 0004 04AF     		add	r7, sp, #16
  91              		.cfi_def_cfa 7, 40
  92 0006 7860     		str	r0, [r7, #4]
ARM GAS  C:\Users\Luis\AppData\Local\Temp\ccPmRWnQ.s 			page 3


  93 0008 3960     		str	r1, [r7]
  94              		.loc 2 87 0
  95 000a A74B     		ldr	r3, .L28
  96 000c B3F86230 		ldrh	r3, [r3, #98]
  97 0010 0133     		adds	r3, r3, #1
  98 0012 9AB2     		uxth	r2, r3
  99 0014 A44B     		ldr	r3, .L28
 100 0016 A3F86220 		strh	r2, [r3, #98]	@ movhi
 101              		.loc 2 91 0
 102 001a 7B68     		ldr	r3, [r7, #4]
 103 001c 5B68     		ldr	r3, [r3, #4]
 104 001e FB61     		str	r3, [r7, #28]
 105              		.loc 2 92 0
 106 0020 FB69     		ldr	r3, [r7, #28]
 107 0022 1B78     		ldrb	r3, [r3]	@ zero_extendqisi2
 108 0024 03F00F03 		and	r3, r3, #15
 109 0028 9BB2     		uxth	r3, r3
 110 002a 9B00     		lsls	r3, r3, #2
 111 002c 9BB2     		uxth	r3, r3
 112 002e FB82     		strh	r3, [r7, #22]	@ movhi
 113              		.loc 2 93 0
 114 0030 FB8A     		ldrh	r3, [r7, #22]
 115 0032 5B42     		negs	r3, r3
 116 0034 9BB2     		uxth	r3, r3
 117 0036 9BB2     		uxth	r3, r3
 118 0038 1BB2     		sxth	r3, r3
 119 003a 7868     		ldr	r0, [r7, #4]
 120 003c 1946     		mov	r1, r3
 121 003e FFF7FEFF 		bl	pbuf_header
 122 0042 0346     		mov	r3, r0
 123 0044 002B     		cmp	r3, #0
 124 0046 40F01481 		bne	.L3
 125              		.loc 2 93 0 is_stmt 0 discriminator 1
 126 004a 7B68     		ldr	r3, [r7, #4]
 127 004c 1B89     		ldrh	r3, [r3, #8]
 128 004e 032B     		cmp	r3, #3
 129 0050 40F20F81 		bls	.L3
 130              		.loc 2 98 0 is_stmt 1
 131 0054 7B68     		ldr	r3, [r7, #4]
 132 0056 5B68     		ldr	r3, [r3, #4]
 133 0058 1B78     		ldrb	r3, [r3]
 134 005a 7B75     		strb	r3, [r7, #21]
 135              		.loc 2 102 0
 136 005c 7B7D     		ldrb	r3, [r7, #21]	@ zero_extendqisi2
 137 005e 002B     		cmp	r3, #0
 138 0060 00F00281 		beq	.L27
 139 0064 082B     		cmp	r3, #8
 140 0066 40F0EE80 		bne	.L26
 141              	.LBB2:
 142              		.loc 2 110 0
 143 006a 0123     		movs	r3, #1
 144 006c BB61     		str	r3, [r7, #24]
 145              		.loc 2 113 0
 146 006e 8F4B     		ldr	r3, .L28+4
 147 0070 1B68     		ldr	r3, [r3]
 148 0072 03F0F003 		and	r3, r3, #240
 149 0076 E02B     		cmp	r3, #224
ARM GAS  C:\Users\Luis\AppData\Local\Temp\ccPmRWnQ.s 			page 4


 150 0078 01D1     		bne	.L8
 151              		.loc 2 114 0
 152 007a 0023     		movs	r3, #0
 153 007c BB61     		str	r3, [r7, #24]
 154              	.L8:
 155              		.loc 2 119 0
 156 007e 8B4B     		ldr	r3, .L28+4
 157 0080 1B68     		ldr	r3, [r3]
 158 0082 1846     		mov	r0, r3
 159 0084 3968     		ldr	r1, [r7]
 160 0086 FFF7FEFF 		bl	ip4_addr_isbroadcast
 161 008a 0346     		mov	r3, r0
 162 008c 002B     		cmp	r3, #0
 163 008e 01D0     		beq	.L9
 164              		.loc 2 120 0
 165 0090 0023     		movs	r3, #0
 166 0092 BB61     		str	r3, [r7, #24]
 167              	.L9:
 168              		.loc 2 124 0
 169 0094 BB69     		ldr	r3, [r7, #24]
 170 0096 002B     		cmp	r3, #0
 171 0098 0BD1     		bne	.L10
 172              		.loc 2 126 0
 173 009a 834B     		ldr	r3, .L28
 174 009c B3F87430 		ldrh	r3, [r3, #116]
 175 00a0 0133     		adds	r3, r3, #1
 176 00a2 9AB2     		uxth	r2, r3
 177 00a4 804B     		ldr	r3, .L28
 178 00a6 A3F87420 		strh	r2, [r3, #116]	@ movhi
 179              		.loc 2 127 0
 180 00aa 7868     		ldr	r0, [r7, #4]
 181 00ac FFF7FEFF 		bl	pbuf_free
 182              		.loc 2 128 0
 183 00b0 F7E0     		b	.L2
 184              	.L10:
 185              	.LBE2:
 186              		.loc 2 133 0
 187 00b2 7B68     		ldr	r3, [r7, #4]
 188 00b4 1B89     		ldrh	r3, [r3, #8]
 189 00b6 072B     		cmp	r3, #7
 190 00b8 00D8     		bhi	.L12
 191              		.loc 2 135 0
 192 00ba DAE0     		b	.L3
 193              	.L12:
 194              		.loc 2 137 0
 195 00bc 7868     		ldr	r0, [r7, #4]
 196 00be FFF7FEFF 		bl	inet_chksum_pbuf
 197 00c2 0346     		mov	r3, r0
 198 00c4 002B     		cmp	r3, #0
 199 00c6 0BD0     		beq	.L13
 200              		.loc 2 139 0
 201 00c8 7868     		ldr	r0, [r7, #4]
 202 00ca FFF7FEFF 		bl	pbuf_free
 203              		.loc 2 140 0
 204 00ce 764B     		ldr	r3, .L28
 205 00d0 B3F86830 		ldrh	r3, [r3, #104]
 206 00d4 0133     		adds	r3, r3, #1
ARM GAS  C:\Users\Luis\AppData\Local\Temp\ccPmRWnQ.s 			page 5


 207 00d6 9AB2     		uxth	r2, r3
 208 00d8 734B     		ldr	r3, .L28
 209 00da A3F86820 		strh	r2, [r3, #104]	@ movhi
 210              		.loc 2 142 0
 211 00de E0E0     		b	.L2
 212              	.L13:
 213              		.loc 2 145 0
 214 00e0 7868     		ldr	r0, [r7, #4]
 215 00e2 2221     		movs	r1, #34
 216 00e4 FFF7FEFF 		bl	pbuf_header
 217 00e8 0346     		mov	r3, r0
 218 00ea 002B     		cmp	r3, #0
 219 00ec 47D0     		beq	.L14
 220              	.LBB3:
 221              		.loc 2 151 0
 222 00ee B7F91630 		ldrsh	r3, [r7, #22]
 223 00f2 7868     		ldr	r0, [r7, #4]
 224 00f4 1946     		mov	r1, r3
 225 00f6 FFF7FEFF 		bl	pbuf_header
 226 00fa 0346     		mov	r3, r0
 227 00fc 002B     		cmp	r3, #0
 228 00fe 03D0     		beq	.L15
 229              		.loc 2 152 0 discriminator 1
 230 0100 6B48     		ldr	r0, .L28+8
 231 0102 FFF7FEFF 		bl	osalSysHalt
 232              		.loc 2 153 0 discriminator 1
 233 0106 C0E0     		b	.L16
 234              	.L15:
 235              		.loc 2 156 0
 236 0108 7B68     		ldr	r3, [r7, #4]
 237 010a 1B89     		ldrh	r3, [r3, #8]
 238 010c 0220     		movs	r0, #2
 239 010e 1946     		mov	r1, r3
 240 0110 0022     		movs	r2, #0
 241 0112 FFF7FEFF 		bl	pbuf_alloc
 242 0116 3861     		str	r0, [r7, #16]
 243              		.loc 2 157 0
 244 0118 3B69     		ldr	r3, [r7, #16]
 245 011a 002B     		cmp	r3, #0
 246 011c 00D1     		bne	.L17
 247              		.loc 2 159 0
 248 011e B4E0     		b	.L16
 249              	.L17:
 250              		.loc 2 161 0
 251 0120 3B69     		ldr	r3, [r7, #16]
 252 0122 5B89     		ldrh	r3, [r3, #10]
 253 0124 1A46     		mov	r2, r3
 254 0126 B7F91630 		ldrsh	r3, [r7, #22]
 255 012a 0833     		adds	r3, r3, #8
 256 012c 9A42     		cmp	r2, r3
 257 012e 02D2     		bcs	.L18
 258              		.loc 2 161 0 is_stmt 0 discriminator 1
 259 0130 6048     		ldr	r0, .L28+12
 260 0132 FFF7FEFF 		bl	osalSysHalt
 261              	.L18:
 262              		.loc 2 164 0 is_stmt 1
 263 0136 3869     		ldr	r0, [r7, #16]
ARM GAS  C:\Users\Luis\AppData\Local\Temp\ccPmRWnQ.s 			page 6


 264 0138 7968     		ldr	r1, [r7, #4]
 265 013a FFF7FEFF 		bl	pbuf_copy
 266 013e 0346     		mov	r3, r0
 267 0140 002B     		cmp	r3, #0
 268 0142 03D0     		beq	.L19
 269              		.loc 2 165 0 discriminator 1
 270 0144 5C48     		ldr	r0, .L28+16
 271 0146 FFF7FEFF 		bl	osalSysHalt
 272              		.loc 2 166 0 discriminator 1
 273 014a 9EE0     		b	.L16
 274              	.L19:
 275              		.loc 2 168 0
 276 014c 3B69     		ldr	r3, [r7, #16]
 277 014e 5B68     		ldr	r3, [r3, #4]
 278 0150 FB61     		str	r3, [r7, #28]
 279              		.loc 2 170 0
 280 0152 FB8A     		ldrh	r3, [r7, #22]
 281 0154 5B42     		negs	r3, r3
 282 0156 9BB2     		uxth	r3, r3
 283 0158 9BB2     		uxth	r3, r3
 284 015a 1BB2     		sxth	r3, r3
 285 015c 3869     		ldr	r0, [r7, #16]
 286 015e 1946     		mov	r1, r3
 287 0160 FFF7FEFF 		bl	pbuf_header
 288 0164 0346     		mov	r3, r0
 289 0166 002B     		cmp	r3, #0
 290 0168 03D0     		beq	.L20
 291              		.loc 2 171 0 discriminator 1
 292 016a 5448     		ldr	r0, .L28+20
 293 016c FFF7FEFF 		bl	osalSysHalt
 294              		.loc 2 172 0 discriminator 1
 295 0170 8BE0     		b	.L16
 296              	.L20:
 297              		.loc 2 175 0
 298 0172 7868     		ldr	r0, [r7, #4]
 299 0174 FFF7FEFF 		bl	pbuf_free
 300              		.loc 2 177 0
 301 0178 3B69     		ldr	r3, [r7, #16]
 302 017a 7B60     		str	r3, [r7, #4]
 303              	.LBE3:
 304 017c 0BE0     		b	.L21
 305              	.L14:
 306              		.loc 2 180 0
 307 017e 7868     		ldr	r0, [r7, #4]
 308 0180 6FF02101 		mvn	r1, #33
 309 0184 FFF7FEFF 		bl	pbuf_header
 310 0188 0346     		mov	r3, r0
 311 018a 002B     		cmp	r3, #0
 312 018c 03D0     		beq	.L21
 313              		.loc 2 181 0 discriminator 1
 314 018e 4B48     		ldr	r0, .L28+20
 315 0190 FFF7FEFF 		bl	osalSysHalt
 316              		.loc 2 182 0 discriminator 1
 317 0194 79E0     		b	.L16
 318              	.L21:
 319              		.loc 2 189 0
 320 0196 7B68     		ldr	r3, [r7, #4]
ARM GAS  C:\Users\Luis\AppData\Local\Temp\ccPmRWnQ.s 			page 7


 321 0198 5B68     		ldr	r3, [r3, #4]
 322 019a FB60     		str	r3, [r7, #12]
 323              		.loc 2 190 0
 324 019c 434B     		ldr	r3, .L28+4
 325 019e 1A68     		ldr	r2, [r3]
 326 01a0 FB69     		ldr	r3, [r7, #28]
 327 01a2 DA60     		str	r2, [r3, #12]	@ unaligned
 328              		.loc 2 191 0
 329 01a4 464B     		ldr	r3, .L28+24
 330 01a6 1A68     		ldr	r2, [r3]
 331 01a8 FB69     		ldr	r3, [r7, #28]
 332 01aa 1A61     		str	r2, [r3, #16]	@ unaligned
 333              		.loc 2 192 0
 334 01ac FB68     		ldr	r3, [r7, #12]
 335 01ae 0022     		movs	r2, #0
 336 01b0 1A70     		strb	r2, [r3]
 337              		.loc 2 195 0
 338 01b2 FB68     		ldr	r3, [r7, #12]
 339 01b4 5B88     		ldrh	r3, [r3, #2]	@ unaligned
 340 01b6 9AB2     		uxth	r2, r3
 341 01b8 4FF6F673 		movw	r3, #65526
 342 01bc 9A42     		cmp	r2, r3
 343 01be 07D9     		bls	.L22
 344              		.loc 2 196 0
 345 01c0 FB68     		ldr	r3, [r7, #12]
 346 01c2 5B88     		ldrh	r3, [r3, #2]	@ unaligned
 347 01c4 9BB2     		uxth	r3, r3
 348 01c6 0933     		adds	r3, r3, #9
 349 01c8 9AB2     		uxth	r2, r3
 350 01ca FB68     		ldr	r3, [r7, #12]
 351 01cc 5A80     		strh	r2, [r3, #2]	@ unaligned
 352 01ce 06E0     		b	.L23
 353              	.L22:
 354              		.loc 2 198 0
 355 01d0 FB68     		ldr	r3, [r7, #12]
 356 01d2 5B88     		ldrh	r3, [r3, #2]	@ unaligned
 357 01d4 9BB2     		uxth	r3, r3
 358 01d6 0833     		adds	r3, r3, #8
 359 01d8 9AB2     		uxth	r2, r3
 360 01da FB68     		ldr	r3, [r7, #12]
 361 01dc 5A80     		strh	r2, [r3, #2]	@ unaligned
 362              	.L23:
 363              		.loc 2 205 0
 364 01de FB69     		ldr	r3, [r7, #28]
 365 01e0 FF22     		movs	r2, #255
 366 01e2 1A72     		strb	r2, [r3, #8]
 367              		.loc 2 206 0
 368 01e4 FB69     		ldr	r3, [r7, #28]
 369 01e6 0022     		movs	r2, #0
 370 01e8 9A72     		strb	r2, [r3, #10]
 371 01ea 0022     		movs	r2, #0
 372 01ec DA72     		strb	r2, [r3, #11]
 373              		.loc 2 208 0
 374 01ee F869     		ldr	r0, [r7, #28]
 375 01f0 1421     		movs	r1, #20
 376 01f2 FFF7FEFF 		bl	inet_chksum
 377 01f6 0346     		mov	r3, r0
ARM GAS  C:\Users\Luis\AppData\Local\Temp\ccPmRWnQ.s 			page 8


 378 01f8 1A46     		mov	r2, r3
 379 01fa FB69     		ldr	r3, [r7, #28]
 380 01fc 5A81     		strh	r2, [r3, #10]	@ unaligned
 381              		.loc 2 211 0
 382 01fe 2A4B     		ldr	r3, .L28
 383 0200 B3F86030 		ldrh	r3, [r3, #96]
 384 0204 0133     		adds	r3, r3, #1
 385 0206 9AB2     		uxth	r2, r3
 386 0208 274B     		ldr	r3, .L28
 387 020a A3F86020 		strh	r2, [r3, #96]	@ movhi
 388              		.loc 2 217 0
 389 020e B7F91630 		ldrsh	r3, [r7, #22]
 390 0212 7868     		ldr	r0, [r7, #4]
 391 0214 1946     		mov	r1, r3
 392 0216 FFF7FEFF 		bl	pbuf_header
 393 021a 0346     		mov	r3, r0
 394 021c 002B     		cmp	r3, #0
 395 021e 03D0     		beq	.L24
 396              		.loc 2 218 0 discriminator 1
 397 0220 2848     		ldr	r0, .L28+28
 398 0222 FFF7FEFF 		bl	osalSysHalt
 399 0226 0DE0     		b	.L25
 400              	.L24:
 401              	.LBB4:
 402              		.loc 2 222 0
 403 0228 0023     		movs	r3, #0
 404 022a 0093     		str	r3, [sp]
 405 022c 0123     		movs	r3, #1
 406 022e 0193     		str	r3, [sp, #4]
 407 0230 3B68     		ldr	r3, [r7]
 408 0232 0293     		str	r3, [sp, #8]
 409 0234 7868     		ldr	r0, [r7, #4]
 410 0236 1D49     		ldr	r1, .L28+4
 411 0238 0022     		movs	r2, #0
 412 023a FF23     		movs	r3, #255
 413 023c FFF7FEFF 		bl	ip_output_if
 414 0240 0346     		mov	r3, r0
 415 0242 FB72     		strb	r3, [r7, #11]
 416              	.L25:
 417              	.LBE4:
 418              		.loc 2 228 0
 419 0244 11E0     		b	.L7
 420              	.L26:
 421              		.loc 2 232 0
 422 0246 184B     		ldr	r3, .L28
 423 0248 B3F87030 		ldrh	r3, [r3, #112]
 424 024c 0133     		adds	r3, r3, #1
 425 024e 9AB2     		uxth	r2, r3
 426 0250 154B     		ldr	r3, .L28
 427 0252 A3F87020 		strh	r2, [r3, #112]	@ movhi
 428              		.loc 2 233 0
 429 0256 144B     		ldr	r3, .L28
 430 0258 B3F86630 		ldrh	r3, [r3, #102]
 431 025c 0133     		adds	r3, r3, #1
 432 025e 9AB2     		uxth	r2, r3
 433 0260 114B     		ldr	r3, .L28
 434 0262 A3F86620 		strh	r2, [r3, #102]	@ movhi
ARM GAS  C:\Users\Luis\AppData\Local\Temp\ccPmRWnQ.s 			page 9


 435 0266 00E0     		b	.L7
 436              	.L27:
 437              		.loc 2 106 0
 438 0268 00BF     		nop
 439              	.L7:
 440              		.loc 2 235 0
 441 026a 7868     		ldr	r0, [r7, #4]
 442 026c FFF7FEFF 		bl	pbuf_free
 443              		.loc 2 236 0
 444 0270 17E0     		b	.L2
 445              	.L3:
 446              		.loc 2 238 0
 447 0272 7868     		ldr	r0, [r7, #4]
 448 0274 FFF7FEFF 		bl	pbuf_free
 449              		.loc 2 239 0
 450 0278 0B4B     		ldr	r3, .L28
 451 027a B3F86A30 		ldrh	r3, [r3, #106]
 452 027e 0133     		adds	r3, r3, #1
 453 0280 9AB2     		uxth	r2, r3
 454 0282 094B     		ldr	r3, .L28
 455 0284 A3F86A20 		strh	r2, [r3, #106]	@ movhi
 456              		.loc 2 241 0
 457 0288 0BE0     		b	.L2
 458              	.L16:
 459              		.loc 2 244 0
 460 028a 7868     		ldr	r0, [r7, #4]
 461 028c FFF7FEFF 		bl	pbuf_free
 462              		.loc 2 245 0
 463 0290 054B     		ldr	r3, .L28
 464 0292 B3F87430 		ldrh	r3, [r3, #116]
 465 0296 0133     		adds	r3, r3, #1
 466 0298 9AB2     		uxth	r2, r3
 467 029a 034B     		ldr	r3, .L28
 468 029c A3F87420 		strh	r2, [r3, #116]	@ movhi
 469              		.loc 2 247 0
 470 02a0 00BF     		nop
 471              	.L2:
 472              		.loc 2 249 0
 473 02a2 2037     		adds	r7, r7, #32
 474 02a4 BD46     		mov	sp, r7
 475              		@ sp needed
 476 02a6 80BD     		pop	{r7, pc}
 477              	.L29:
 478              		.align	2
 479              	.L28:
 480 02a8 00000000 		.word	lwip_stats
 481 02ac 00000000 		.word	current_iphdr_dest
 482 02b0 00000000 		.word	.LC0
 483 02b4 34000000 		.word	.LC1
 484 02b8 6C000000 		.word	.LC2
 485 02bc 94000000 		.word	.LC3
 486 02c0 00000000 		.word	current_iphdr_src
 487 02c4 C8000000 		.word	.LC4
 488              		.cfi_endproc
 489              	.LFE260:
 490              		.size	icmp_input, .-icmp_input
 491 02c8 AFF30080 		.section	.text.icmp_dest_unreach,"ax",%progbits
ARM GAS  C:\Users\Luis\AppData\Local\Temp\ccPmRWnQ.s 			page 10


 491      AFF30080 
 492              		.align	2
 493              		.p2align 4,,15
 494              		.global	icmp_dest_unreach
 495              		.thumb
 496              		.thumb_func
 497              		.type	icmp_dest_unreach, %function
 498              	icmp_dest_unreach:
 499              	.LFB261:
 500              		.loc 2 262 0
 501              		.cfi_startproc
 502              		@ args = 0, pretend = 0, frame = 8
 503              		@ frame_needed = 1, uses_anonymous_args = 0
 504 0000 80B5     		push	{r7, lr}
 505              		.cfi_def_cfa_offset 8
 506              		.cfi_offset 7, -8
 507              		.cfi_offset 14, -4
 508 0002 82B0     		sub	sp, sp, #8
 509              		.cfi_def_cfa_offset 16
 510 0004 00AF     		add	r7, sp, #0
 511              		.cfi_def_cfa_register 7
 512 0006 7860     		str	r0, [r7, #4]
 513 0008 0B46     		mov	r3, r1
 514 000a FB70     		strb	r3, [r7, #3]
 515              		.loc 2 263 0
 516 000c FB78     		ldrb	r3, [r7, #3]	@ zero_extendqisi2
 517 000e 7868     		ldr	r0, [r7, #4]
 518 0010 0321     		movs	r1, #3
 519 0012 1A46     		mov	r2, r3
 520 0014 FFF7FEFF 		bl	icmp_send_response
 521              		.loc 2 264 0
 522 0018 0837     		adds	r7, r7, #8
 523 001a BD46     		mov	sp, r7
 524              		@ sp needed
 525 001c 80BD     		pop	{r7, pc}
 526              		.cfi_endproc
 527              	.LFE261:
 528              		.size	icmp_dest_unreach, .-icmp_dest_unreach
 529 001e 00BF     		.section	.text.icmp_time_exceeded,"ax",%progbits
 530              		.align	2
 531              		.p2align 4,,15
 532              		.global	icmp_time_exceeded
 533              		.thumb
 534              		.thumb_func
 535              		.type	icmp_time_exceeded, %function
 536              	icmp_time_exceeded:
 537              	.LFB262:
 538              		.loc 2 276 0
 539              		.cfi_startproc
 540              		@ args = 0, pretend = 0, frame = 8
 541              		@ frame_needed = 1, uses_anonymous_args = 0
 542 0000 80B5     		push	{r7, lr}
 543              		.cfi_def_cfa_offset 8
 544              		.cfi_offset 7, -8
 545              		.cfi_offset 14, -4
 546 0002 82B0     		sub	sp, sp, #8
 547              		.cfi_def_cfa_offset 16
ARM GAS  C:\Users\Luis\AppData\Local\Temp\ccPmRWnQ.s 			page 11


 548 0004 00AF     		add	r7, sp, #0
 549              		.cfi_def_cfa_register 7
 550 0006 7860     		str	r0, [r7, #4]
 551 0008 0B46     		mov	r3, r1
 552 000a FB70     		strb	r3, [r7, #3]
 553              		.loc 2 277 0
 554 000c FB78     		ldrb	r3, [r7, #3]	@ zero_extendqisi2
 555 000e 7868     		ldr	r0, [r7, #4]
 556 0010 0B21     		movs	r1, #11
 557 0012 1A46     		mov	r2, r3
 558 0014 FFF7FEFF 		bl	icmp_send_response
 559              		.loc 2 278 0
 560 0018 0837     		adds	r7, r7, #8
 561 001a BD46     		mov	sp, r7
 562              		@ sp needed
 563 001c 80BD     		pop	{r7, pc}
 564              		.cfi_endproc
 565              	.LFE262:
 566              		.size	icmp_time_exceeded, .-icmp_time_exceeded
 567 001e 00BF     		.section	.rodata
 568 00e9 000000   		.align	2
 569              	.LC5:
 570 00ec 63686563 		.ascii	"check that first pbuf can hold icmp message\000"
 570      6B207468 
 570      61742066 
 570      69727374 
 570      20706275 
 571              		.section	.text.icmp_send_response,"ax",%progbits
 572              		.align	2
 573              		.p2align 4,,15
 574              		.thumb
 575              		.thumb_func
 576              		.type	icmp_send_response, %function
 577              	icmp_send_response:
 578              	.LFB263:
 579              		.loc 2 292 0
 580              		.cfi_startproc
 581              		@ args = 0, pretend = 0, frame = 24
 582              		@ frame_needed = 1, uses_anonymous_args = 0
 583 0000 80B5     		push	{r7, lr}
 584              		.cfi_def_cfa_offset 8
 585              		.cfi_offset 7, -8
 586              		.cfi_offset 14, -4
 587 0002 88B0     		sub	sp, sp, #32
 588              		.cfi_def_cfa_offset 40
 589 0004 02AF     		add	r7, sp, #8
 590              		.cfi_def_cfa 7, 32
 591 0006 7860     		str	r0, [r7, #4]
 592 0008 1346     		mov	r3, r2
 593 000a 0A46     		mov	r2, r1
 594 000c FA70     		strb	r2, [r7, #3]
 595 000e BB70     		strb	r3, [r7, #2]
 596              		.loc 2 300 0
 597 0010 0120     		movs	r0, #1
 598 0012 2421     		movs	r1, #36
 599 0014 0022     		movs	r2, #0
 600 0016 FFF7FEFF 		bl	pbuf_alloc
ARM GAS  C:\Users\Luis\AppData\Local\Temp\ccPmRWnQ.s 			page 12


 601 001a 7861     		str	r0, [r7, #20]
 602              		.loc 2 302 0
 603 001c 7B69     		ldr	r3, [r7, #20]
 604 001e 002B     		cmp	r3, #0
 605 0020 50D0     		beq	.L32
 606              		.loc 2 306 0
 607 0022 7B69     		ldr	r3, [r7, #20]
 608 0024 5B89     		ldrh	r3, [r3, #10]
 609 0026 232B     		cmp	r3, #35
 610 0028 02D8     		bhi	.L35
 611              		.loc 2 306 0 is_stmt 0 discriminator 1
 612 002a 2848     		ldr	r0, .L36
 613 002c FFF7FEFF 		bl	osalSysHalt
 614              	.L35:
 615              		.loc 2 309 0 is_stmt 1
 616 0030 7B68     		ldr	r3, [r7, #4]
 617 0032 5B68     		ldr	r3, [r3, #4]
 618 0034 3B61     		str	r3, [r7, #16]
 619              		.loc 2 316 0
 620 0036 7B69     		ldr	r3, [r7, #20]
 621 0038 5B68     		ldr	r3, [r3, #4]
 622 003a FB60     		str	r3, [r7, #12]
 623              		.loc 2 317 0
 624 003c FB68     		ldr	r3, [r7, #12]
 625 003e FA78     		ldrb	r2, [r7, #3]
 626 0040 1A70     		strb	r2, [r3]
 627              		.loc 2 318 0
 628 0042 FB68     		ldr	r3, [r7, #12]
 629 0044 BA78     		ldrb	r2, [r7, #2]
 630 0046 5A70     		strb	r2, [r3, #1]
 631              		.loc 2 319 0
 632 0048 FB68     		ldr	r3, [r7, #12]
 633 004a 0022     		movs	r2, #0
 634 004c 1A71     		strb	r2, [r3, #4]
 635 004e 0022     		movs	r2, #0
 636 0050 5A71     		strb	r2, [r3, #5]
 637              		.loc 2 320 0
 638 0052 FB68     		ldr	r3, [r7, #12]
 639 0054 0022     		movs	r2, #0
 640 0056 9A71     		strb	r2, [r3, #6]
 641 0058 0022     		movs	r2, #0
 642 005a DA71     		strb	r2, [r3, #7]
 643              		.loc 2 323 0
 644 005c 7B69     		ldr	r3, [r7, #20]
 645 005e 5B68     		ldr	r3, [r3, #4]
 646 0060 03F10802 		add	r2, r3, #8
 647 0064 7B68     		ldr	r3, [r7, #4]
 648 0066 5B68     		ldr	r3, [r3, #4]
 649 0068 1046     		mov	r0, r2
 650 006a 1946     		mov	r1, r3
 651 006c 1C22     		movs	r2, #28
 652 006e FFF7FEFF 		bl	memcpy
 653              		.loc 2 327 0
 654 0072 FB68     		ldr	r3, [r7, #12]
 655 0074 0022     		movs	r2, #0
 656 0076 9A70     		strb	r2, [r3, #2]
 657 0078 0022     		movs	r2, #0
ARM GAS  C:\Users\Luis\AppData\Local\Temp\ccPmRWnQ.s 			page 13


 658 007a DA70     		strb	r2, [r3, #3]
 659              		.loc 2 328 0
 660 007c 7B69     		ldr	r3, [r7, #20]
 661 007e 5B89     		ldrh	r3, [r3, #10]
 662 0080 F868     		ldr	r0, [r7, #12]
 663 0082 1946     		mov	r1, r3
 664 0084 FFF7FEFF 		bl	inet_chksum
 665 0088 0346     		mov	r3, r0
 666 008a 1A46     		mov	r2, r3
 667 008c FB68     		ldr	r3, [r7, #12]
 668 008e 5A80     		strh	r2, [r3, #2]	@ unaligned
 669              		.loc 2 329 0
 670 0090 0F4B     		ldr	r3, .L36+4
 671 0092 B3F86030 		ldrh	r3, [r3, #96]
 672 0096 0133     		adds	r3, r3, #1
 673 0098 9AB2     		uxth	r2, r3
 674 009a 0D4B     		ldr	r3, .L36+4
 675 009c A3F86020 		strh	r2, [r3, #96]	@ movhi
 676              		.loc 2 334 0
 677 00a0 3B69     		ldr	r3, [r7, #16]
 678 00a2 DB68     		ldr	r3, [r3, #12]	@ unaligned
 679 00a4 BB60     		str	r3, [r7, #8]
 680              		.loc 2 335 0
 681 00a6 07F10803 		add	r3, r7, #8
 682 00aa 0022     		movs	r2, #0
 683 00ac 0092     		str	r2, [sp]
 684 00ae 0122     		movs	r2, #1
 685 00b0 0192     		str	r2, [sp, #4]
 686 00b2 7869     		ldr	r0, [r7, #20]
 687 00b4 0021     		movs	r1, #0
 688 00b6 1A46     		mov	r2, r3
 689 00b8 FF23     		movs	r3, #255
 690 00ba FFF7FEFF 		bl	ip_output
 691              		.loc 2 336 0
 692 00be 7869     		ldr	r0, [r7, #20]
 693 00c0 FFF7FEFF 		bl	pbuf_free
 694              	.L32:
 695              		.loc 2 337 0
 696 00c4 1837     		adds	r7, r7, #24
 697 00c6 BD46     		mov	sp, r7
 698              		@ sp needed
 699 00c8 80BD     		pop	{r7, pc}
 700              	.L37:
 701 00ca 00BF     		.align	2
 702              	.L36:
 703 00cc EC000000 		.word	.LC5
 704 00d0 00000000 		.word	lwip_stats
 705              		.cfi_endproc
 706              	.LFE263:
 707              		.size	icmp_send_response, .-icmp_send_response
 708 00d4 AFF30080 		.text
 708      AFF30080 
 708      AFF30080 
 709              	.Letext0:
 710              		.file 3 "c:\\emtechesdk\\gcc\\arm-none-eabi\\include\\stdint.h"
 711              		.file 4 "../../ChibiOS/os/rt/ports/ARMCMx/compilers/GCC/chtypes.h"
 712              		.file 5 "../../ChibiOS/os/rt/include/chsystypes.h"
ARM GAS  C:\Users\Luis\AppData\Local\Temp\ccPmRWnQ.s 			page 14


 713              		.file 6 "../../ChibiOS/os/rt/include/chschd.h"
 714              		.file 7 "../../ChibiOS/os/rt/ports/ARMCMx/chcore.h"
 715              		.file 8 "../../ChibiOS/os/rt/ports/ARMCMx/chcore_v7m.h"
 716              		.file 9 "../../ChibiOS/os/rt/include/chdebug.h"
 717              		.file 10 "../../ChibiOS/os/rt/include/chtm.h"
 718              		.file 11 "../../ChibiOS/os/rt/include/chstats.h"
 719              		.file 12 "../../ChibiOS/os/rt/include/chsem.h"
 720              		.file 13 "../../ChibiOS/os/rt/include/chmtx.h"
 721              		.file 14 "../../ChibiOS/os/various/lwip_bindings/arch/cc.h"
 722              		.file 15 "../../ChibiOS/ext/lwip/src/include/lwip/err.h"
 723              		.file 16 "../../ChibiOS/ext/lwip/src/include/lwip/pbuf.h"
 724              		.file 17 "../../ChibiOS/ext/lwip/src/include/ipv4/lwip/ip_addr.h"
 725              		.file 18 "../../ChibiOS/ext/lwip/src/include/lwip/netif.h"
 726              		.file 19 "../../ChibiOS/ext/lwip/src/include/ipv4/lwip/icmp.h"
 727              		.file 20 "../../ChibiOS/ext/lwip/src/include/ipv4/lwip/ip.h"
 728              		.file 21 "../../ChibiOS/ext/lwip/src/include/lwip/mem.h"
 729              		.file 22 "../../ChibiOS/ext/lwip/src/include/lwip/stats.h"
 730              		.file 23 "../../ChibiOS/os/ext/CMSIS/include/core_cm4.h"