ARM GAS  C:\Users\Luis\AppData\Local\Temp\ccujRJeJ.s 			page 1


   1              		.syntax unified
   2              		.cpu cortex-m4
   3              		.fpu softvfp
   4              		.eabi_attribute 20, 1
   5              		.eabi_attribute 21, 1
   6              		.eabi_attribute 23, 3
   7              		.eabi_attribute 24, 1
   8              		.eabi_attribute 25, 1
   9              		.eabi_attribute 26, 1
  10              		.eabi_attribute 30, 6
  11              		.eabi_attribute 34, 1
  12              		.eabi_attribute 18, 4
  13              		.thumb
  14              		.file	"inet_chksum.c"
  15              		.text
  16              	.Ltext0:
  17              		.cfi_sections	.debug_frame
  18              		.section	.text.osalSysHalt,"ax",%progbits
  19              		.align	2
  20              		.p2align 4,,15
  21              		.thumb
  22              		.thumb_func
  23              		.type	osalSysHalt, %function
  24              	osalSysHalt:
  25              	.LFB230:
  26              		.file 1 "../../ChibiOS/os/hal/osal/rt/osal.h"
  27              		.loc 1 460 0
  28              		.cfi_startproc
  29              		@ args = 0, pretend = 0, frame = 8
  30              		@ frame_needed = 1, uses_anonymous_args = 0
  31 0000 80B5     		push	{r7, lr}
  32              		.cfi_def_cfa_offset 8
  33              		.cfi_offset 7, -8
  34              		.cfi_offset 14, -4
  35 0002 82B0     		sub	sp, sp, #8
  36              		.cfi_def_cfa_offset 16
  37 0004 00AF     		add	r7, sp, #0
  38              		.cfi_def_cfa_register 7
  39 0006 7860     		str	r0, [r7, #4]
  40              		.loc 1 462 0
  41 0008 7868     		ldr	r0, [r7, #4]
  42 000a FFF7FEFF 		bl	chSysHalt
  43              		.loc 1 463 0
  44 000e 0837     		adds	r7, r7, #8
  45 0010 BD46     		mov	sp, r7
  46              		@ sp needed
  47 0012 80BD     		pop	{r7, pc}
  48              		.cfi_endproc
  49              	.LFE230:
  50              		.size	osalSysHalt, .-osalSysHalt
  51 0014 AFF30080 		.section	.text.lwip_standard_chksum,"ax",%progbits
  51      AFF30080 
  51      AFF30080 
  52              		.align	2
  53              		.p2align 4,,15
  54              		.thumb
  55              		.thumb_func
ARM GAS  C:\Users\Luis\AppData\Local\Temp\ccujRJeJ.s 			page 2


  56              		.type	lwip_standard_chksum, %function
  57              	lwip_standard_chksum:
  58              	.LFB260:
  59              		.file 2 "../../ChibiOS/ext/lwip/src/core/ipv4/inet_chksum.c"
  60              		.loc 2 136 0
  61              		.cfi_startproc
  62              		@ args = 0, pretend = 0, frame = 32
  63              		@ frame_needed = 1, uses_anonymous_args = 0
  64              		@ link register save eliminated.
  65 0000 80B4     		push	{r7}
  66              		.cfi_def_cfa_offset 4
  67              		.cfi_offset 7, -4
  68 0002 89B0     		sub	sp, sp, #36
  69              		.cfi_def_cfa_offset 40
  70 0004 00AF     		add	r7, sp, #0
  71              		.cfi_def_cfa_register 7
  72 0006 7860     		str	r0, [r7, #4]
  73 0008 3960     		str	r1, [r7]
  74              		.loc 2 137 0
  75 000a 7B68     		ldr	r3, [r7, #4]
  76 000c FB61     		str	r3, [r7, #28]
  77              		.loc 2 138 0
  78 000e 0023     		movs	r3, #0
  79 0010 FB81     		strh	r3, [r7, #14]	@ movhi
  80              		.loc 2 139 0
  81 0012 0023     		movs	r3, #0
  82 0014 7B61     		str	r3, [r7, #20]
  83              		.loc 2 140 0
  84 0016 FB69     		ldr	r3, [r7, #28]
  85 0018 03F00103 		and	r3, r3, #1
  86 001c 3B61     		str	r3, [r7, #16]
  87              		.loc 2 143 0
  88 001e 3B69     		ldr	r3, [r7, #16]
  89 0020 002B     		cmp	r3, #0
  90 0022 0DD0     		beq	.L3
  91              		.loc 2 143 0 is_stmt 0 discriminator 1
  92 0024 3B68     		ldr	r3, [r7]
  93 0026 002B     		cmp	r3, #0
  94 0028 0ADD     		ble	.L3
  95              		.loc 2 144 0 is_stmt 1
  96 002a 07F10E03 		add	r3, r7, #14
  97 002e 0133     		adds	r3, r3, #1
  98 0030 FA69     		ldr	r2, [r7, #28]
  99 0032 511C     		adds	r1, r2, #1
 100 0034 F961     		str	r1, [r7, #28]
 101 0036 1278     		ldrb	r2, [r2]	@ zero_extendqisi2
 102 0038 1A70     		strb	r2, [r3]
 103              		.loc 2 145 0
 104 003a 3B68     		ldr	r3, [r7]
 105 003c 013B     		subs	r3, r3, #1
 106 003e 3B60     		str	r3, [r7]
 107              	.L3:
 108              		.loc 2 149 0
 109 0040 FB69     		ldr	r3, [r7, #28]
 110 0042 BB61     		str	r3, [r7, #24]
 111              		.loc 2 150 0
 112 0044 09E0     		b	.L4
ARM GAS  C:\Users\Luis\AppData\Local\Temp\ccujRJeJ.s 			page 3


 113              	.L5:
 114              		.loc 2 151 0
 115 0046 BB69     		ldr	r3, [r7, #24]
 116 0048 9A1C     		adds	r2, r3, #2
 117 004a BA61     		str	r2, [r7, #24]
 118 004c 1B88     		ldrh	r3, [r3]
 119 004e 7A69     		ldr	r2, [r7, #20]
 120 0050 1344     		add	r3, r3, r2
 121 0052 7B61     		str	r3, [r7, #20]
 122              		.loc 2 152 0
 123 0054 3B68     		ldr	r3, [r7]
 124 0056 023B     		subs	r3, r3, #2
 125 0058 3B60     		str	r3, [r7]
 126              	.L4:
 127              		.loc 2 150 0 discriminator 1
 128 005a 3B68     		ldr	r3, [r7]
 129 005c 012B     		cmp	r3, #1
 130 005e F2DC     		bgt	.L5
 131              		.loc 2 156 0
 132 0060 3B68     		ldr	r3, [r7]
 133 0062 002B     		cmp	r3, #0
 134 0064 04DD     		ble	.L6
 135              		.loc 2 157 0
 136 0066 07F10E03 		add	r3, r7, #14
 137 006a BA69     		ldr	r2, [r7, #24]
 138 006c 1278     		ldrb	r2, [r2]	@ zero_extendqisi2
 139 006e 1A70     		strb	r2, [r3]
 140              	.L6:
 141              		.loc 2 161 0
 142 0070 FB89     		ldrh	r3, [r7, #14]
 143 0072 7A69     		ldr	r2, [r7, #20]
 144 0074 1344     		add	r3, r3, r2
 145 0076 7B61     		str	r3, [r7, #20]
 146              		.loc 2 165 0
 147 0078 7B69     		ldr	r3, [r7, #20]
 148 007a 1A0C     		lsrs	r2, r3, #16
 149 007c 7B69     		ldr	r3, [r7, #20]
 150 007e 9BB2     		uxth	r3, r3
 151 0080 1344     		add	r3, r3, r2
 152 0082 7B61     		str	r3, [r7, #20]
 153              		.loc 2 166 0
 154 0084 7B69     		ldr	r3, [r7, #20]
 155 0086 1A0C     		lsrs	r2, r3, #16
 156 0088 7B69     		ldr	r3, [r7, #20]
 157 008a 9BB2     		uxth	r3, r3
 158 008c 1344     		add	r3, r3, r2
 159 008e 7B61     		str	r3, [r7, #20]
 160              		.loc 2 169 0
 161 0090 3B69     		ldr	r3, [r7, #16]
 162 0092 002B     		cmp	r3, #0
 163 0094 08D0     		beq	.L7
 164              		.loc 2 170 0
 165 0096 7B69     		ldr	r3, [r7, #20]
 166 0098 1B02     		lsls	r3, r3, #8
 167 009a 9AB2     		uxth	r2, r3
 168 009c 7B69     		ldr	r3, [r7, #20]
 169 009e 03F47F43 		and	r3, r3, #65280
ARM GAS  C:\Users\Luis\AppData\Local\Temp\ccujRJeJ.s 			page 4


 170 00a2 1B0A     		lsrs	r3, r3, #8
 171 00a4 1343     		orrs	r3, r3, r2
 172 00a6 7B61     		str	r3, [r7, #20]
 173              	.L7:
 174              		.loc 2 173 0
 175 00a8 7B69     		ldr	r3, [r7, #20]
 176 00aa 9BB2     		uxth	r3, r3
 177              		.loc 2 174 0
 178 00ac 1846     		mov	r0, r3
 179 00ae 2437     		adds	r7, r7, #36
 180 00b0 BD46     		mov	sp, r7
 181              		@ sp needed
 182 00b2 5DF8047B 		ldr	r7, [sp], #4
 183 00b6 7047     		bx	lr
 184              		.cfi_endproc
 185              	.LFE260:
 186              		.size	lwip_standard_chksum, .-lwip_standard_chksum
 187 00b8 AFF30080 		.section	.text.inet_chksum_pseudo,"ax",%progbits
 187      AFF30080 
 188              		.align	2
 189              		.p2align 4,,15
 190              		.global	inet_chksum_pseudo
 191              		.thumb
 192              		.thumb_func
 193              		.type	inet_chksum_pseudo, %function
 194              	inet_chksum_pseudo:
 195              	.LFB261:
 196              		.loc 2 275 0
 197              		.cfi_startproc
 198              		@ args = 4, pretend = 0, frame = 32
 199              		@ frame_needed = 1, uses_anonymous_args = 0
 200 0000 80B5     		push	{r7, lr}
 201              		.cfi_def_cfa_offset 8
 202              		.cfi_offset 7, -8
 203              		.cfi_offset 14, -4
 204 0002 88B0     		sub	sp, sp, #32
 205              		.cfi_def_cfa_offset 40
 206 0004 00AF     		add	r7, sp, #0
 207              		.cfi_def_cfa_register 7
 208 0006 F860     		str	r0, [r7, #12]
 209 0008 B960     		str	r1, [r7, #8]
 210 000a 7A60     		str	r2, [r7, #4]
 211 000c FB70     		strb	r3, [r7, #3]
 212              		.loc 2 281 0
 213 000e 0023     		movs	r3, #0
 214 0010 FB61     		str	r3, [r7, #28]
 215              		.loc 2 282 0
 216 0012 0023     		movs	r3, #0
 217 0014 FB75     		strb	r3, [r7, #23]
 218              		.loc 2 284 0
 219 0016 FB68     		ldr	r3, [r7, #12]
 220 0018 BB61     		str	r3, [r7, #24]
 221 001a 28E0     		b	.L10
 222              	.L12:
 223              		.loc 2 287 0
 224 001c BB69     		ldr	r3, [r7, #24]
 225 001e 5A68     		ldr	r2, [r3, #4]
ARM GAS  C:\Users\Luis\AppData\Local\Temp\ccujRJeJ.s 			page 5


 226 0020 BB69     		ldr	r3, [r7, #24]
 227 0022 5B89     		ldrh	r3, [r3, #10]
 228 0024 1046     		mov	r0, r2
 229 0026 1946     		mov	r1, r3
 230 0028 FFF7FEFF 		bl	lwip_standard_chksum
 231 002c 0346     		mov	r3, r0
 232 002e FA69     		ldr	r2, [r7, #28]
 233 0030 1344     		add	r3, r3, r2
 234 0032 FB61     		str	r3, [r7, #28]
 235              		.loc 2 291 0
 236 0034 FB69     		ldr	r3, [r7, #28]
 237 0036 1A0C     		lsrs	r2, r3, #16
 238 0038 FB69     		ldr	r3, [r7, #28]
 239 003a 9BB2     		uxth	r3, r3
 240 003c 1344     		add	r3, r3, r2
 241 003e FB61     		str	r3, [r7, #28]
 242              		.loc 2 292 0
 243 0040 BB69     		ldr	r3, [r7, #24]
 244 0042 5B89     		ldrh	r3, [r3, #10]
 245 0044 03F00103 		and	r3, r3, #1
 246 0048 9BB2     		uxth	r3, r3
 247 004a 002B     		cmp	r3, #0
 248 004c 0CD0     		beq	.L11
 249              		.loc 2 293 0
 250 004e FB7D     		ldrb	r3, [r7, #23]
 251 0050 C3F10103 		rsb	r3, r3, #1
 252 0054 FB75     		strb	r3, [r7, #23]
 253              		.loc 2 294 0
 254 0056 FB69     		ldr	r3, [r7, #28]
 255 0058 1B02     		lsls	r3, r3, #8
 256 005a 9AB2     		uxth	r2, r3
 257 005c FB69     		ldr	r3, [r7, #28]
 258 005e 03F47F43 		and	r3, r3, #65280
 259 0062 1B0A     		lsrs	r3, r3, #8
 260 0064 1343     		orrs	r3, r3, r2
 261 0066 FB61     		str	r3, [r7, #28]
 262              	.L11:
 263              		.loc 2 284 0
 264 0068 BB69     		ldr	r3, [r7, #24]
 265 006a 1B68     		ldr	r3, [r3]
 266 006c BB61     		str	r3, [r7, #24]
 267              	.L10:
 268              		.loc 2 284 0 is_stmt 0 discriminator 1
 269 006e BB69     		ldr	r3, [r7, #24]
 270 0070 002B     		cmp	r3, #0
 271 0072 D3D1     		bne	.L12
 272              		.loc 2 299 0 is_stmt 1
 273 0074 FB7D     		ldrb	r3, [r7, #23]	@ zero_extendqisi2
 274 0076 002B     		cmp	r3, #0
 275 0078 08D0     		beq	.L13
 276              		.loc 2 300 0
 277 007a FB69     		ldr	r3, [r7, #28]
 278 007c 1B02     		lsls	r3, r3, #8
 279 007e 9AB2     		uxth	r2, r3
 280 0080 FB69     		ldr	r3, [r7, #28]
 281 0082 03F47F43 		and	r3, r3, #65280
 282 0086 1B0A     		lsrs	r3, r3, #8
ARM GAS  C:\Users\Luis\AppData\Local\Temp\ccujRJeJ.s 			page 6


 283 0088 1343     		orrs	r3, r3, r2
 284 008a FB61     		str	r3, [r7, #28]
 285              	.L13:
 286              		.loc 2 302 0
 287 008c BB68     		ldr	r3, [r7, #8]
 288 008e 1B68     		ldr	r3, [r3]
 289 0090 3B61     		str	r3, [r7, #16]
 290              		.loc 2 303 0
 291 0092 3B69     		ldr	r3, [r7, #16]
 292 0094 9BB2     		uxth	r3, r3
 293 0096 FA69     		ldr	r2, [r7, #28]
 294 0098 1344     		add	r3, r3, r2
 295 009a FB61     		str	r3, [r7, #28]
 296              		.loc 2 304 0
 297 009c 3B69     		ldr	r3, [r7, #16]
 298 009e 1B0C     		lsrs	r3, r3, #16
 299 00a0 FA69     		ldr	r2, [r7, #28]
 300 00a2 1344     		add	r3, r3, r2
 301 00a4 FB61     		str	r3, [r7, #28]
 302              		.loc 2 305 0
 303 00a6 7B68     		ldr	r3, [r7, #4]
 304 00a8 1B68     		ldr	r3, [r3]
 305 00aa 3B61     		str	r3, [r7, #16]
 306              		.loc 2 306 0
 307 00ac 3B69     		ldr	r3, [r7, #16]
 308 00ae 9BB2     		uxth	r3, r3
 309 00b0 FA69     		ldr	r2, [r7, #28]
 310 00b2 1344     		add	r3, r3, r2
 311 00b4 FB61     		str	r3, [r7, #28]
 312              		.loc 2 307 0
 313 00b6 3B69     		ldr	r3, [r7, #16]
 314 00b8 1B0C     		lsrs	r3, r3, #16
 315 00ba FA69     		ldr	r2, [r7, #28]
 316 00bc 1344     		add	r3, r3, r2
 317 00be FB61     		str	r3, [r7, #28]
 318              		.loc 2 308 0
 319 00c0 FB78     		ldrb	r3, [r7, #3]	@ zero_extendqisi2
 320 00c2 9BB2     		uxth	r3, r3
 321 00c4 1846     		mov	r0, r3
 322 00c6 FFF7FEFF 		bl	lwip_htons
 323 00ca 0346     		mov	r3, r0
 324 00cc FA69     		ldr	r2, [r7, #28]
 325 00ce 1344     		add	r3, r3, r2
 326 00d0 FB61     		str	r3, [r7, #28]
 327              		.loc 2 309 0
 328 00d2 3B8D     		ldrh	r3, [r7, #40]
 329 00d4 1846     		mov	r0, r3
 330 00d6 FFF7FEFF 		bl	lwip_htons
 331 00da 0346     		mov	r3, r0
 332 00dc FA69     		ldr	r2, [r7, #28]
 333 00de 1344     		add	r3, r3, r2
 334 00e0 FB61     		str	r3, [r7, #28]
 335              		.loc 2 313 0
 336 00e2 FB69     		ldr	r3, [r7, #28]
 337 00e4 1A0C     		lsrs	r2, r3, #16
 338 00e6 FB69     		ldr	r3, [r7, #28]
 339 00e8 9BB2     		uxth	r3, r3
ARM GAS  C:\Users\Luis\AppData\Local\Temp\ccujRJeJ.s 			page 7


 340 00ea 1344     		add	r3, r3, r2
 341 00ec FB61     		str	r3, [r7, #28]
 342              		.loc 2 314 0
 343 00ee FB69     		ldr	r3, [r7, #28]
 344 00f0 1A0C     		lsrs	r2, r3, #16
 345 00f2 FB69     		ldr	r3, [r7, #28]
 346 00f4 9BB2     		uxth	r3, r3
 347 00f6 1344     		add	r3, r3, r2
 348 00f8 FB61     		str	r3, [r7, #28]
 349              		.loc 2 316 0
 350 00fa FB69     		ldr	r3, [r7, #28]
 351 00fc 9BB2     		uxth	r3, r3
 352 00fe DB43     		mvns	r3, r3
 353 0100 9BB2     		uxth	r3, r3
 354              		.loc 2 317 0
 355 0102 1846     		mov	r0, r3
 356 0104 2037     		adds	r7, r7, #32
 357 0106 BD46     		mov	sp, r7
 358              		@ sp needed
 359 0108 80BD     		pop	{r7, pc}
 360              		.cfi_endproc
 361              	.LFE261:
 362              		.size	inet_chksum_pseudo, .-inet_chksum_pseudo
 363 010a 00BFAFF3 		.section	.rodata
 363      0080
 364              		.align	2
 365              	.LC0:
 366 0000 64656C65 		.ascii	"delete me\000"
 366      7465206D 
 366      6500
 367 000a 0000     		.section	.text.inet_chksum_pseudo_partial,"ax",%progbits
 368              		.align	2
 369              		.p2align 4,,15
 370              		.global	inet_chksum_pseudo_partial
 371              		.thumb
 372              		.thumb_func
 373              		.type	inet_chksum_pseudo_partial, %function
 374              	inet_chksum_pseudo_partial:
 375              	.LFB262:
 376              		.loc 2 335 0
 377              		.cfi_startproc
 378              		@ args = 8, pretend = 0, frame = 32
 379              		@ frame_needed = 1, uses_anonymous_args = 0
 380 0000 80B5     		push	{r7, lr}
 381              		.cfi_def_cfa_offset 8
 382              		.cfi_offset 7, -8
 383              		.cfi_offset 14, -4
 384 0002 88B0     		sub	sp, sp, #32
 385              		.cfi_def_cfa_offset 40
 386 0004 00AF     		add	r7, sp, #0
 387              		.cfi_def_cfa_register 7
 388 0006 F860     		str	r0, [r7, #12]
 389 0008 B960     		str	r1, [r7, #8]
 390 000a 7A60     		str	r2, [r7, #4]
 391 000c FB70     		strb	r3, [r7, #3]
 392              		.loc 2 342 0
 393 000e 0023     		movs	r3, #0
ARM GAS  C:\Users\Luis\AppData\Local\Temp\ccujRJeJ.s 			page 8


 394 0010 FB61     		str	r3, [r7, #28]
 395              		.loc 2 343 0
 396 0012 0023     		movs	r3, #0
 397 0014 FB75     		strb	r3, [r7, #23]
 398              		.loc 2 345 0
 399 0016 FB68     		ldr	r3, [r7, #12]
 400 0018 BB61     		str	r3, [r7, #24]
 401 001a 3CE0     		b	.L16
 402              	.L21:
 403              		.loc 2 348 0
 404 001c BB69     		ldr	r3, [r7, #24]
 405 001e 5B89     		ldrh	r3, [r3, #10]	@ movhi
 406 0020 BB82     		strh	r3, [r7, #20]	@ movhi
 407              		.loc 2 349 0
 408 0022 BA8A     		ldrh	r2, [r7, #20]
 409 0024 BB8D     		ldrh	r3, [r7, #44]
 410 0026 9A42     		cmp	r2, r3
 411 0028 01D9     		bls	.L17
 412              		.loc 2 350 0
 413 002a BB8D     		ldrh	r3, [r7, #44]	@ movhi
 414 002c BB82     		strh	r3, [r7, #20]	@ movhi
 415              	.L17:
 416              		.loc 2 352 0
 417 002e BB69     		ldr	r3, [r7, #24]
 418 0030 5A68     		ldr	r2, [r3, #4]
 419 0032 BB8A     		ldrh	r3, [r7, #20]
 420 0034 1046     		mov	r0, r2
 421 0036 1946     		mov	r1, r3
 422 0038 FFF7FEFF 		bl	lwip_standard_chksum
 423 003c 0346     		mov	r3, r0
 424 003e FA69     		ldr	r2, [r7, #28]
 425 0040 1344     		add	r3, r3, r2
 426 0042 FB61     		str	r3, [r7, #28]
 427              		.loc 2 353 0
 428 0044 BA8D     		ldrh	r2, [r7, #44]	@ movhi
 429 0046 BB8A     		ldrh	r3, [r7, #20]	@ movhi
 430 0048 D31A     		subs	r3, r2, r3
 431 004a BB85     		strh	r3, [r7, #44]	@ movhi
 432              		.loc 2 354 0
 433 004c BA8D     		ldrh	r2, [r7, #44]
 434 004e 47F6FE73 		movw	r3, #32766
 435 0052 9A42     		cmp	r2, r3
 436 0054 02D9     		bls	.L18
 437              		.loc 2 354 0 is_stmt 0 discriminator 1
 438 0056 3848     		ldr	r0, .L24
 439 0058 FFF7FEFF 		bl	osalSysHalt
 440              	.L18:
 441              		.loc 2 357 0 is_stmt 1
 442 005c FB69     		ldr	r3, [r7, #28]
 443 005e 1A0C     		lsrs	r2, r3, #16
 444 0060 FB69     		ldr	r3, [r7, #28]
 445 0062 9BB2     		uxth	r3, r3
 446 0064 1344     		add	r3, r3, r2
 447 0066 FB61     		str	r3, [r7, #28]
 448              		.loc 2 358 0
 449 0068 BB69     		ldr	r3, [r7, #24]
 450 006a 5B89     		ldrh	r3, [r3, #10]
ARM GAS  C:\Users\Luis\AppData\Local\Temp\ccujRJeJ.s 			page 9


 451 006c 03F00103 		and	r3, r3, #1
 452 0070 9BB2     		uxth	r3, r3
 453 0072 002B     		cmp	r3, #0
 454 0074 0CD0     		beq	.L19
 455              		.loc 2 359 0
 456 0076 FB7D     		ldrb	r3, [r7, #23]
 457 0078 C3F10103 		rsb	r3, r3, #1
 458 007c FB75     		strb	r3, [r7, #23]
 459              		.loc 2 360 0
 460 007e FB69     		ldr	r3, [r7, #28]
 461 0080 1B02     		lsls	r3, r3, #8
 462 0082 9AB2     		uxth	r2, r3
 463 0084 FB69     		ldr	r3, [r7, #28]
 464 0086 03F47F43 		and	r3, r3, #65280
 465 008a 1B0A     		lsrs	r3, r3, #8
 466 008c 1343     		orrs	r3, r3, r2
 467 008e FB61     		str	r3, [r7, #28]
 468              	.L19:
 469              		.loc 2 345 0
 470 0090 BB69     		ldr	r3, [r7, #24]
 471 0092 1B68     		ldr	r3, [r3]
 472 0094 BB61     		str	r3, [r7, #24]
 473              	.L16:
 474              		.loc 2 345 0 is_stmt 0 discriminator 1
 475 0096 BB69     		ldr	r3, [r7, #24]
 476 0098 002B     		cmp	r3, #0
 477 009a 02D0     		beq	.L20
 478              		.loc 2 345 0 discriminator 2
 479 009c BB8D     		ldrh	r3, [r7, #44]
 480 009e 002B     		cmp	r3, #0
 481 00a0 BCD1     		bne	.L21
 482              	.L20:
 483              		.loc 2 365 0 is_stmt 1
 484 00a2 FB7D     		ldrb	r3, [r7, #23]	@ zero_extendqisi2
 485 00a4 002B     		cmp	r3, #0
 486 00a6 08D0     		beq	.L22
 487              		.loc 2 366 0
 488 00a8 FB69     		ldr	r3, [r7, #28]
 489 00aa 1B02     		lsls	r3, r3, #8
 490 00ac 9AB2     		uxth	r2, r3
 491 00ae FB69     		ldr	r3, [r7, #28]
 492 00b0 03F47F43 		and	r3, r3, #65280
 493 00b4 1B0A     		lsrs	r3, r3, #8
 494 00b6 1343     		orrs	r3, r3, r2
 495 00b8 FB61     		str	r3, [r7, #28]
 496              	.L22:
 497              		.loc 2 368 0
 498 00ba BB68     		ldr	r3, [r7, #8]
 499 00bc 1B68     		ldr	r3, [r3]
 500 00be 3B61     		str	r3, [r7, #16]
 501              		.loc 2 369 0
 502 00c0 3B69     		ldr	r3, [r7, #16]
 503 00c2 9BB2     		uxth	r3, r3
 504 00c4 FA69     		ldr	r2, [r7, #28]
 505 00c6 1344     		add	r3, r3, r2
 506 00c8 FB61     		str	r3, [r7, #28]
 507              		.loc 2 370 0
ARM GAS  C:\Users\Luis\AppData\Local\Temp\ccujRJeJ.s 			page 10


 508 00ca 3B69     		ldr	r3, [r7, #16]
 509 00cc 1B0C     		lsrs	r3, r3, #16
 510 00ce FA69     		ldr	r2, [r7, #28]
 511 00d0 1344     		add	r3, r3, r2
 512 00d2 FB61     		str	r3, [r7, #28]
 513              		.loc 2 371 0
 514 00d4 7B68     		ldr	r3, [r7, #4]
 515 00d6 1B68     		ldr	r3, [r3]
 516 00d8 3B61     		str	r3, [r7, #16]
 517              		.loc 2 372 0
 518 00da 3B69     		ldr	r3, [r7, #16]
 519 00dc 9BB2     		uxth	r3, r3
 520 00de FA69     		ldr	r2, [r7, #28]
 521 00e0 1344     		add	r3, r3, r2
 522 00e2 FB61     		str	r3, [r7, #28]
 523              		.loc 2 373 0
 524 00e4 3B69     		ldr	r3, [r7, #16]
 525 00e6 1B0C     		lsrs	r3, r3, #16
 526 00e8 FA69     		ldr	r2, [r7, #28]
 527 00ea 1344     		add	r3, r3, r2
 528 00ec FB61     		str	r3, [r7, #28]
 529              		.loc 2 374 0
 530 00ee FB78     		ldrb	r3, [r7, #3]	@ zero_extendqisi2
 531 00f0 9BB2     		uxth	r3, r3
 532 00f2 1846     		mov	r0, r3
 533 00f4 FFF7FEFF 		bl	lwip_htons
 534 00f8 0346     		mov	r3, r0
 535 00fa FA69     		ldr	r2, [r7, #28]
 536 00fc 1344     		add	r3, r3, r2
 537 00fe FB61     		str	r3, [r7, #28]
 538              		.loc 2 375 0
 539 0100 3B8D     		ldrh	r3, [r7, #40]
 540 0102 1846     		mov	r0, r3
 541 0104 FFF7FEFF 		bl	lwip_htons
 542 0108 0346     		mov	r3, r0
 543 010a FA69     		ldr	r2, [r7, #28]
 544 010c 1344     		add	r3, r3, r2
 545 010e FB61     		str	r3, [r7, #28]
 546              		.loc 2 379 0
 547 0110 FB69     		ldr	r3, [r7, #28]
 548 0112 1A0C     		lsrs	r2, r3, #16
 549 0114 FB69     		ldr	r3, [r7, #28]
 550 0116 9BB2     		uxth	r3, r3
 551 0118 1344     		add	r3, r3, r2
 552 011a FB61     		str	r3, [r7, #28]
 553              		.loc 2 380 0
 554 011c FB69     		ldr	r3, [r7, #28]
 555 011e 1A0C     		lsrs	r2, r3, #16
 556 0120 FB69     		ldr	r3, [r7, #28]
 557 0122 9BB2     		uxth	r3, r3
 558 0124 1344     		add	r3, r3, r2
 559 0126 FB61     		str	r3, [r7, #28]
 560              		.loc 2 382 0
 561 0128 FB69     		ldr	r3, [r7, #28]
 562 012a 9BB2     		uxth	r3, r3
 563 012c DB43     		mvns	r3, r3
 564 012e 9BB2     		uxth	r3, r3
ARM GAS  C:\Users\Luis\AppData\Local\Temp\ccujRJeJ.s 			page 11


 565              		.loc 2 383 0
 566 0130 1846     		mov	r0, r3
 567 0132 2037     		adds	r7, r7, #32
 568 0134 BD46     		mov	sp, r7
 569              		@ sp needed
 570 0136 80BD     		pop	{r7, pc}
 571              	.L25:
 572              		.align	2
 573              	.L24:
 574 0138 00000000 		.word	.LC0
 575              		.cfi_endproc
 576              	.LFE262:
 577              		.size	inet_chksum_pseudo_partial, .-inet_chksum_pseudo_partial
 578 013c AFF30080 		.section	.text.inet_chksum,"ax",%progbits
 579              		.align	2
 580              		.p2align 4,,15
 581              		.global	inet_chksum
 582              		.thumb
 583              		.thumb_func
 584              		.type	inet_chksum, %function
 585              	inet_chksum:
 586              	.LFB263:
 587              		.loc 2 397 0
 588              		.cfi_startproc
 589              		@ args = 0, pretend = 0, frame = 8
 590              		@ frame_needed = 1, uses_anonymous_args = 0
 591 0000 80B5     		push	{r7, lr}
 592              		.cfi_def_cfa_offset 8
 593              		.cfi_offset 7, -8
 594              		.cfi_offset 14, -4
 595 0002 82B0     		sub	sp, sp, #8
 596              		.cfi_def_cfa_offset 16
 597 0004 00AF     		add	r7, sp, #0
 598              		.cfi_def_cfa_register 7
 599 0006 7860     		str	r0, [r7, #4]
 600 0008 0B46     		mov	r3, r1
 601 000a 7B80     		strh	r3, [r7, #2]	@ movhi
 602              		.loc 2 398 0
 603 000c 7B88     		ldrh	r3, [r7, #2]
 604 000e 7868     		ldr	r0, [r7, #4]
 605 0010 1946     		mov	r1, r3
 606 0012 FFF7FEFF 		bl	lwip_standard_chksum
 607 0016 0346     		mov	r3, r0
 608 0018 DB43     		mvns	r3, r3
 609 001a 9BB2     		uxth	r3, r3
 610              		.loc 2 399 0
 611 001c 1846     		mov	r0, r3
 612 001e 0837     		adds	r7, r7, #8
 613 0020 BD46     		mov	sp, r7
 614              		@ sp needed
 615 0022 80BD     		pop	{r7, pc}
 616              		.cfi_endproc
 617              	.LFE263:
 618              		.size	inet_chksum, .-inet_chksum
 619 0024 AFF30080 		.section	.text.inet_chksum_pbuf,"ax",%progbits
 619      AFF30080 
 619      AFF30080 
ARM GAS  C:\Users\Luis\AppData\Local\Temp\ccujRJeJ.s 			page 12


 620              		.align	2
 621              		.p2align 4,,15
 622              		.global	inet_chksum_pbuf
 623              		.thumb
 624              		.thumb_func
 625              		.type	inet_chksum_pbuf, %function
 626              	inet_chksum_pbuf:
 627              	.LFB264:
 628              		.loc 2 410 0
 629              		.cfi_startproc
 630              		@ args = 0, pretend = 0, frame = 24
 631              		@ frame_needed = 1, uses_anonymous_args = 0
 632 0000 80B5     		push	{r7, lr}
 633              		.cfi_def_cfa_offset 8
 634              		.cfi_offset 7, -8
 635              		.cfi_offset 14, -4
 636 0002 86B0     		sub	sp, sp, #24
 637              		.cfi_def_cfa_offset 32
 638 0004 00AF     		add	r7, sp, #0
 639              		.cfi_def_cfa_register 7
 640 0006 7860     		str	r0, [r7, #4]
 641              		.loc 2 415 0
 642 0008 0023     		movs	r3, #0
 643 000a 7B61     		str	r3, [r7, #20]
 644              		.loc 2 416 0
 645 000c 0023     		movs	r3, #0
 646 000e FB73     		strb	r3, [r7, #15]
 647              		.loc 2 417 0
 648 0010 7B68     		ldr	r3, [r7, #4]
 649 0012 3B61     		str	r3, [r7, #16]
 650 0014 28E0     		b	.L29
 651              	.L31:
 652              		.loc 2 418 0
 653 0016 3B69     		ldr	r3, [r7, #16]
 654 0018 5A68     		ldr	r2, [r3, #4]
 655 001a 3B69     		ldr	r3, [r7, #16]
 656 001c 5B89     		ldrh	r3, [r3, #10]
 657 001e 1046     		mov	r0, r2
 658 0020 1946     		mov	r1, r3
 659 0022 FFF7FEFF 		bl	lwip_standard_chksum
 660 0026 0346     		mov	r3, r0
 661 0028 7A69     		ldr	r2, [r7, #20]
 662 002a 1344     		add	r3, r3, r2
 663 002c 7B61     		str	r3, [r7, #20]
 664              		.loc 2 419 0
 665 002e 7B69     		ldr	r3, [r7, #20]
 666 0030 1A0C     		lsrs	r2, r3, #16
 667 0032 7B69     		ldr	r3, [r7, #20]
 668 0034 9BB2     		uxth	r3, r3
 669 0036 1344     		add	r3, r3, r2
 670 0038 7B61     		str	r3, [r7, #20]
 671              		.loc 2 420 0
 672 003a 3B69     		ldr	r3, [r7, #16]
 673 003c 5B89     		ldrh	r3, [r3, #10]
 674 003e 03F00103 		and	r3, r3, #1
 675 0042 9BB2     		uxth	r3, r3
 676 0044 002B     		cmp	r3, #0
ARM GAS  C:\Users\Luis\AppData\Local\Temp\ccujRJeJ.s 			page 13


 677 0046 0CD0     		beq	.L30
 678              		.loc 2 421 0
 679 0048 FB7B     		ldrb	r3, [r7, #15]
 680 004a C3F10103 		rsb	r3, r3, #1
 681 004e FB73     		strb	r3, [r7, #15]
 682              		.loc 2 422 0
 683 0050 7B69     		ldr	r3, [r7, #20]
 684 0052 1B02     		lsls	r3, r3, #8
 685 0054 9AB2     		uxth	r2, r3
 686 0056 7B69     		ldr	r3, [r7, #20]
 687 0058 03F47F43 		and	r3, r3, #65280
 688 005c 1B0A     		lsrs	r3, r3, #8
 689 005e 1343     		orrs	r3, r3, r2
 690 0060 7B61     		str	r3, [r7, #20]
 691              	.L30:
 692              		.loc 2 417 0
 693 0062 3B69     		ldr	r3, [r7, #16]
 694 0064 1B68     		ldr	r3, [r3]
 695 0066 3B61     		str	r3, [r7, #16]
 696              	.L29:
 697              		.loc 2 417 0 is_stmt 0 discriminator 1
 698 0068 3B69     		ldr	r3, [r7, #16]
 699 006a 002B     		cmp	r3, #0
 700 006c D3D1     		bne	.L31
 701              		.loc 2 426 0 is_stmt 1
 702 006e FB7B     		ldrb	r3, [r7, #15]	@ zero_extendqisi2
 703 0070 002B     		cmp	r3, #0
 704 0072 08D0     		beq	.L32
 705              		.loc 2 427 0
 706 0074 7B69     		ldr	r3, [r7, #20]
 707 0076 1B02     		lsls	r3, r3, #8
 708 0078 9AB2     		uxth	r2, r3
 709 007a 7B69     		ldr	r3, [r7, #20]
 710 007c 03F47F43 		and	r3, r3, #65280
 711 0080 1B0A     		lsrs	r3, r3, #8
 712 0082 1343     		orrs	r3, r3, r2
 713 0084 7B61     		str	r3, [r7, #20]
 714              	.L32:
 715              		.loc 2 429 0
 716 0086 7B69     		ldr	r3, [r7, #20]
 717 0088 9BB2     		uxth	r3, r3
 718 008a DB43     		mvns	r3, r3
 719 008c 9BB2     		uxth	r3, r3
 720              		.loc 2 430 0
 721 008e 1846     		mov	r0, r3
 722 0090 1837     		adds	r7, r7, #24
 723 0092 BD46     		mov	sp, r7
 724              		@ sp needed
 725 0094 80BD     		pop	{r7, pc}
 726              		.cfi_endproc
 727              	.LFE264:
 728              		.size	inet_chksum_pbuf, .-inet_chksum_pbuf
 729 0096 00BFAFF3 		.text
 729      0080AFF3 
 729      0080
 730              	.Letext0:
 731              		.file 3 "c:\\emtechesdk\\gcc\\arm-none-eabi\\include\\stdint.h"
ARM GAS  C:\Users\Luis\AppData\Local\Temp\ccujRJeJ.s 			page 14


 732              		.file 4 "../../ChibiOS/os/rt/ports/ARMCMx/compilers/GCC/chtypes.h"
 733              		.file 5 "../../ChibiOS/os/rt/include/chsystypes.h"
 734              		.file 6 "../../ChibiOS/os/rt/include/chschd.h"
 735              		.file 7 "../../ChibiOS/os/rt/ports/ARMCMx/chcore.h"
 736              		.file 8 "../../ChibiOS/os/rt/ports/ARMCMx/chcore_v7m.h"
 737              		.file 9 "../../ChibiOS/os/rt/include/chdebug.h"
 738              		.file 10 "../../ChibiOS/os/rt/include/chtm.h"
 739              		.file 11 "../../ChibiOS/os/rt/include/chstats.h"
 740              		.file 12 "../../ChibiOS/os/rt/include/chsem.h"
 741              		.file 13 "../../ChibiOS/os/rt/include/chmtx.h"
 742              		.file 14 "../../ChibiOS/os/various/lwip_bindings/arch/cc.h"
 743              		.file 15 "../../ChibiOS/ext/lwip/src/include/lwip/pbuf.h"
 744              		.file 16 "../../ChibiOS/ext/lwip/src/include/ipv4/lwip/ip_addr.h"
 745              		.file 17 "../../ChibiOS/os/ext/CMSIS/include/core_cm4.h"