ARM GAS  C:\Users\Luis\AppData\Local\Temp\ccKPaE82.s 			page 1


   1              		.syntax unified
   2              		.cpu cortex-m4
   3              		.fpu softvfp
   4              		.eabi_attribute 20, 1
   5              		.eabi_attribute 21, 1
   6              		.eabi_attribute 23, 3
   7              		.eabi_attribute 24, 1
   8              		.eabi_attribute 25, 1
   9              		.eabi_attribute 26, 1
  10              		.eabi_attribute 30, 6
  11              		.eabi_attribute 34, 1
  12              		.eabi_attribute 18, 4
  13              		.thumb
  14              		.file	"ip.c"
  15              		.text
  16              	.Ltext0:
  17              		.cfi_sections	.debug_frame
  18              		.section	.text.osalSysHalt,"ax",%progbits
  19              		.align	2
  20              		.p2align 4,,15
  21              		.thumb
  22              		.thumb_func
  23              		.type	osalSysHalt, %function
  24              	osalSysHalt:
  25              	.LFB230:
  26              		.file 1 "../../ChibiOS/os/hal/osal/rt/osal.h"
  27              		.loc 1 460 0
  28              		.cfi_startproc
  29              		@ args = 0, pretend = 0, frame = 8
  30              		@ frame_needed = 1, uses_anonymous_args = 0
  31 0000 80B5     		push	{r7, lr}
  32              		.cfi_def_cfa_offset 8
  33              		.cfi_offset 7, -8
  34              		.cfi_offset 14, -4
  35 0002 82B0     		sub	sp, sp, #8
  36              		.cfi_def_cfa_offset 16
  37 0004 00AF     		add	r7, sp, #0
  38              		.cfi_def_cfa_register 7
  39 0006 7860     		str	r0, [r7, #4]
  40              		.loc 1 462 0
  41 0008 7868     		ldr	r0, [r7, #4]
  42 000a FFF7FEFF 		bl	chSysHalt
  43              		.loc 1 463 0
  44 000e 0837     		adds	r7, r7, #8
  45 0010 BD46     		mov	sp, r7
  46              		@ sp needed
  47 0012 80BD     		pop	{r7, pc}
  48              		.cfi_endproc
  49              	.LFE230:
  50              		.size	osalSysHalt, .-osalSysHalt
  51              		.global	current_netif
  52 0014 AFF30080 		.section	.bss.current_netif,"aw",%nobits
  52      AFF30080 
  52      AFF30080 
  53              		.align	2
  54              		.type	current_netif, %object
  55              		.size	current_netif, 4
ARM GAS  C:\Users\Luis\AppData\Local\Temp\ccKPaE82.s 			page 2


  56              	current_netif:
  57 0000 00000000 		.space	4
  58              		.global	current_header
  59              		.section	.bss.current_header,"aw",%nobits
  60              		.align	2
  61              		.type	current_header, %object
  62              		.size	current_header, 4
  63              	current_header:
  64 0000 00000000 		.space	4
  65              		.global	current_iphdr_src
  66              		.section	.bss.current_iphdr_src,"aw",%nobits
  67              		.align	2
  68              		.type	current_iphdr_src, %object
  69              		.size	current_iphdr_src, 4
  70              	current_iphdr_src:
  71 0000 00000000 		.space	4
  72              		.global	current_iphdr_dest
  73              		.section	.bss.current_iphdr_dest,"aw",%nobits
  74              		.align	2
  75              		.type	current_iphdr_dest, %object
  76              		.size	current_iphdr_dest, 4
  77              	current_iphdr_dest:
  78 0000 00000000 		.space	4
  79              		.section	.bss.ip_id,"aw",%nobits
  80              		.align	1
  81              		.type	ip_id, %object
  82              		.size	ip_id, 2
  83              	ip_id:
  84 0000 0000     		.space	2
  85              		.section	.text.ip_route,"ax",%progbits
  86              		.align	2
  87              		.p2align 4,,15
  88              		.global	ip_route
  89              		.thumb
  90              		.thumb_func
  91              		.type	ip_route, %function
  92              	ip_route:
  93              	.LFB260:
  94              		.file 2 "../../ChibiOS/ext/lwip/src/core/ipv4/ip.c"
  95              		.loc 2 125 0
  96              		.cfi_startproc
  97              		@ args = 0, pretend = 0, frame = 16
  98              		@ frame_needed = 1, uses_anonymous_args = 0
  99              		@ link register save eliminated.
 100 0000 80B4     		push	{r7}
 101              		.cfi_def_cfa_offset 4
 102              		.cfi_offset 7, -4
 103 0002 85B0     		sub	sp, sp, #20
 104              		.cfi_def_cfa_offset 24
 105 0004 00AF     		add	r7, sp, #0
 106              		.cfi_def_cfa_register 7
 107 0006 7860     		str	r0, [r7, #4]
 108              		.loc 2 136 0
 109 0008 1D4B     		ldr	r3, .L9
 110 000a 1B68     		ldr	r3, [r3]
 111 000c FB60     		str	r3, [r7, #12]
 112 000e 15E0     		b	.L3
ARM GAS  C:\Users\Luis\AppData\Local\Temp\ccKPaE82.s 			page 3


 113              	.L6:
 114              		.loc 2 138 0
 115 0010 FB68     		ldr	r3, [r7, #12]
 116 0012 93F82930 		ldrb	r3, [r3, #41]	@ zero_extendqisi2
 117 0016 03F00103 		and	r3, r3, #1
 118 001a 002B     		cmp	r3, #0
 119 001c 0BD0     		beq	.L4
 120              		.loc 2 139 0
 121 001e 7B68     		ldr	r3, [r7, #4]
 122 0020 1A68     		ldr	r2, [r3]
 123 0022 FB68     		ldr	r3, [r7, #12]
 124 0024 5B68     		ldr	r3, [r3, #4]
 125 0026 5A40     		eors	r2, r2, r3
 126 0028 FB68     		ldr	r3, [r7, #12]
 127 002a 9B68     		ldr	r3, [r3, #8]
 128 002c 1340     		ands	r3, r3, r2
 129 002e 002B     		cmp	r3, #0
 130 0030 01D1     		bne	.L4
 131              		.loc 2 141 0
 132 0032 FB68     		ldr	r3, [r7, #12]
 133 0034 1DE0     		b	.L5
 134              	.L4:
 135              		.loc 2 136 0
 136 0036 FB68     		ldr	r3, [r7, #12]
 137 0038 1B68     		ldr	r3, [r3]
 138 003a FB60     		str	r3, [r7, #12]
 139              	.L3:
 140              		.loc 2 136 0 is_stmt 0 discriminator 1
 141 003c FB68     		ldr	r3, [r7, #12]
 142 003e 002B     		cmp	r3, #0
 143 0040 E6D1     		bne	.L6
 144              		.loc 2 145 0 is_stmt 1
 145 0042 104B     		ldr	r3, .L9+4
 146 0044 1B68     		ldr	r3, [r3]
 147 0046 002B     		cmp	r3, #0
 148 0048 07D0     		beq	.L7
 149              		.loc 2 145 0 is_stmt 0 discriminator 1
 150 004a 0E4B     		ldr	r3, .L9+4
 151 004c 1B68     		ldr	r3, [r3]
 152 004e 93F82930 		ldrb	r3, [r3, #41]	@ zero_extendqisi2
 153 0052 03F00103 		and	r3, r3, #1
 154 0056 002B     		cmp	r3, #0
 155 0058 09D1     		bne	.L8
 156              	.L7:
 157              		.loc 2 148 0 is_stmt 1
 158 005a 0B4B     		ldr	r3, .L9+8
 159 005c B3F85630 		ldrh	r3, [r3, #86]
 160 0060 0133     		adds	r3, r3, #1
 161 0062 9AB2     		uxth	r2, r3
 162 0064 084B     		ldr	r3, .L9+8
 163 0066 A3F85620 		strh	r2, [r3, #86]	@ movhi
 164              		.loc 2 150 0
 165 006a 0023     		movs	r3, #0
 166 006c 01E0     		b	.L5
 167              	.L8:
 168              		.loc 2 153 0
 169 006e 054B     		ldr	r3, .L9+4
ARM GAS  C:\Users\Luis\AppData\Local\Temp\ccKPaE82.s 			page 4


 170 0070 1B68     		ldr	r3, [r3]
 171              	.L5:
 172              		.loc 2 154 0
 173 0072 1846     		mov	r0, r3
 174 0074 1437     		adds	r7, r7, #20
 175 0076 BD46     		mov	sp, r7
 176              		@ sp needed
 177 0078 5DF8047B 		ldr	r7, [sp], #4
 178 007c 7047     		bx	lr
 179              	.L10:
 180 007e 00BF     		.align	2
 181              	.L9:
 182 0080 00000000 		.word	netif_list
 183 0084 00000000 		.word	netif_default
 184 0088 00000000 		.word	lwip_stats
 185              		.cfi_endproc
 186              	.LFE260:
 187              		.size	ip_route, .-ip_route
 188 008c AFF30080 		.section	.text.ip_input,"ax",%progbits
 189              		.align	2
 190              		.p2align 4,,15
 191              		.global	ip_input
 192              		.thumb
 193              		.thumb_func
 194              		.type	ip_input, %function
 195              	ip_input:
 196              	.LFB261:
 197              		.loc 2 306 0
 198              		.cfi_startproc
 199              		@ args = 0, pretend = 0, frame = 24
 200              		@ frame_needed = 1, uses_anonymous_args = 0
 201 0000 80B5     		push	{r7, lr}
 202              		.cfi_def_cfa_offset 8
 203              		.cfi_offset 7, -8
 204              		.cfi_offset 14, -4
 205 0002 86B0     		sub	sp, sp, #24
 206              		.cfi_def_cfa_offset 32
 207 0004 00AF     		add	r7, sp, #0
 208              		.cfi_def_cfa_register 7
 209 0006 7860     		str	r0, [r7, #4]
 210 0008 3960     		str	r1, [r7]
 211              		.loc 2 315 0
 212 000a 8A4B     		ldr	r3, .L35
 213 000c B3F84A30 		ldrh	r3, [r3, #74]
 214 0010 0133     		adds	r3, r3, #1
 215 0012 9AB2     		uxth	r2, r3
 216 0014 874B     		ldr	r3, .L35
 217 0016 A3F84A20 		strh	r2, [r3, #74]	@ movhi
 218              		.loc 2 319 0
 219 001a 7B68     		ldr	r3, [r7, #4]
 220 001c 5B68     		ldr	r3, [r3, #4]
 221 001e 7B61     		str	r3, [r7, #20]
 222              		.loc 2 320 0
 223 0020 7B69     		ldr	r3, [r7, #20]
 224 0022 1B78     		ldrb	r3, [r3]	@ zero_extendqisi2
 225 0024 1B09     		lsrs	r3, r3, #4
 226 0026 DBB2     		uxtb	r3, r3
ARM GAS  C:\Users\Luis\AppData\Local\Temp\ccKPaE82.s 			page 5


 227 0028 042B     		cmp	r3, #4
 228 002a 14D0     		beq	.L12
 229              		.loc 2 323 0
 230 002c 7868     		ldr	r0, [r7, #4]
 231 002e FFF7FEFF 		bl	pbuf_free
 232              		.loc 2 324 0
 233 0032 804B     		ldr	r3, .L35
 234 0034 B3F85C30 		ldrh	r3, [r3, #92]
 235 0038 0133     		adds	r3, r3, #1
 236 003a 9AB2     		uxth	r2, r3
 237 003c 7D4B     		ldr	r3, .L35
 238 003e A3F85C20 		strh	r2, [r3, #92]	@ movhi
 239              		.loc 2 325 0
 240 0042 7C4B     		ldr	r3, .L35
 241 0044 B3F84E30 		ldrh	r3, [r3, #78]
 242 0048 0133     		adds	r3, r3, #1
 243 004a 9AB2     		uxth	r2, r3
 244 004c 794B     		ldr	r3, .L35
 245 004e A3F84E20 		strh	r2, [r3, #78]	@ movhi
 246              		.loc 2 327 0
 247 0052 0023     		movs	r3, #0
 248 0054 30E1     		b	.L13
 249              	.L12:
 250              		.loc 2 338 0
 251 0056 7B69     		ldr	r3, [r7, #20]
 252 0058 1B78     		ldrb	r3, [r3]	@ zero_extendqisi2
 253 005a 03F00F03 		and	r3, r3, #15
 254 005e 7B81     		strh	r3, [r7, #10]	@ movhi
 255              		.loc 2 340 0
 256 0060 7B89     		ldrh	r3, [r7, #10]	@ movhi
 257 0062 9B00     		lsls	r3, r3, #2
 258 0064 7B81     		strh	r3, [r7, #10]	@ movhi
 259              		.loc 2 342 0
 260 0066 7B69     		ldr	r3, [r7, #20]
 261 0068 5B88     		ldrh	r3, [r3, #2]	@ unaligned
 262 006a 9BB2     		uxth	r3, r3
 263 006c 1846     		mov	r0, r3
 264 006e FFF7FEFF 		bl	lwip_ntohs
 265 0072 0346     		mov	r3, r0
 266 0074 3B81     		strh	r3, [r7, #8]	@ movhi
 267              		.loc 2 345 0
 268 0076 7B68     		ldr	r3, [r7, #4]
 269 0078 5B89     		ldrh	r3, [r3, #10]
 270 007a 7A89     		ldrh	r2, [r7, #10]
 271 007c 9A42     		cmp	r2, r3
 272 007e 04D8     		bhi	.L14
 273              		.loc 2 345 0 is_stmt 0 discriminator 1
 274 0080 7B68     		ldr	r3, [r7, #4]
 275 0082 1B89     		ldrh	r3, [r3, #8]
 276 0084 3A89     		ldrh	r2, [r7, #8]
 277 0086 9A42     		cmp	r2, r3
 278 0088 14D9     		bls	.L15
 279              	.L14:
 280              		.loc 2 357 0 is_stmt 1
 281 008a 7868     		ldr	r0, [r7, #4]
 282 008c FFF7FEFF 		bl	pbuf_free
 283              		.loc 2 358 0
ARM GAS  C:\Users\Luis\AppData\Local\Temp\ccKPaE82.s 			page 6


 284 0090 684B     		ldr	r3, .L35
 285 0092 B3F85230 		ldrh	r3, [r3, #82]
 286 0096 0133     		adds	r3, r3, #1
 287 0098 9AB2     		uxth	r2, r3
 288 009a 664B     		ldr	r3, .L35
 289 009c A3F85220 		strh	r2, [r3, #82]	@ movhi
 290              		.loc 2 359 0
 291 00a0 644B     		ldr	r3, .L35
 292 00a2 B3F84E30 		ldrh	r3, [r3, #78]
 293 00a6 0133     		adds	r3, r3, #1
 294 00a8 9AB2     		uxth	r2, r3
 295 00aa 624B     		ldr	r3, .L35
 296 00ac A3F84E20 		strh	r2, [r3, #78]	@ movhi
 297              		.loc 2 361 0
 298 00b0 0023     		movs	r3, #0
 299 00b2 01E1     		b	.L13
 300              	.L15:
 301              		.loc 2 366 0
 302 00b4 7B89     		ldrh	r3, [r7, #10]
 303 00b6 7869     		ldr	r0, [r7, #20]
 304 00b8 1946     		mov	r1, r3
 305 00ba FFF7FEFF 		bl	inet_chksum
 306 00be 0346     		mov	r3, r0
 307 00c0 002B     		cmp	r3, #0
 308 00c2 14D0     		beq	.L16
 309              		.loc 2 371 0
 310 00c4 7868     		ldr	r0, [r7, #4]
 311 00c6 FFF7FEFF 		bl	pbuf_free
 312              		.loc 2 372 0
 313 00ca 5A4B     		ldr	r3, .L35
 314 00cc B3F85030 		ldrh	r3, [r3, #80]
 315 00d0 0133     		adds	r3, r3, #1
 316 00d2 9AB2     		uxth	r2, r3
 317 00d4 574B     		ldr	r3, .L35
 318 00d6 A3F85020 		strh	r2, [r3, #80]	@ movhi
 319              		.loc 2 373 0
 320 00da 564B     		ldr	r3, .L35
 321 00dc B3F84E30 		ldrh	r3, [r3, #78]
 322 00e0 0133     		adds	r3, r3, #1
 323 00e2 9AB2     		uxth	r2, r3
 324 00e4 534B     		ldr	r3, .L35
 325 00e6 A3F84E20 		strh	r2, [r3, #78]	@ movhi
 326              		.loc 2 375 0
 327 00ea 0023     		movs	r3, #0
 328 00ec E4E0     		b	.L13
 329              	.L16:
 330              		.loc 2 381 0
 331 00ee 3B89     		ldrh	r3, [r7, #8]
 332 00f0 7868     		ldr	r0, [r7, #4]
 333 00f2 1946     		mov	r1, r3
 334 00f4 FFF7FEFF 		bl	pbuf_realloc
 335              		.loc 2 384 0
 336 00f8 7B69     		ldr	r3, [r7, #20]
 337 00fa 1A69     		ldr	r2, [r3, #16]	@ unaligned
 338 00fc 4E4B     		ldr	r3, .L35+4
 339 00fe 1A60     		str	r2, [r3]
 340              		.loc 2 385 0
ARM GAS  C:\Users\Luis\AppData\Local\Temp\ccKPaE82.s 			page 7


 341 0100 7B69     		ldr	r3, [r7, #20]
 342 0102 DA68     		ldr	r2, [r3, #12]	@ unaligned
 343 0104 4D4B     		ldr	r3, .L35+8
 344 0106 1A60     		str	r2, [r3]
 345              	.LBB2:
 346              		.loc 2 401 0
 347 0108 0123     		movs	r3, #1
 348 010a FB60     		str	r3, [r7, #12]
 349              		.loc 2 402 0
 350 010c 3B68     		ldr	r3, [r7]
 351 010e 3B61     		str	r3, [r7, #16]
 352              	.L22:
 353              		.loc 2 411 0
 354 0110 3B69     		ldr	r3, [r7, #16]
 355 0112 93F82930 		ldrb	r3, [r3, #41]	@ zero_extendqisi2
 356 0116 03F00103 		and	r3, r3, #1
 357 011a 002B     		cmp	r3, #0
 358 011c 16D0     		beq	.L17
 359              		.loc 2 411 0 is_stmt 0 discriminator 1
 360 011e 3B69     		ldr	r3, [r7, #16]
 361 0120 0433     		adds	r3, r3, #4
 362 0122 002B     		cmp	r3, #0
 363 0124 12D0     		beq	.L17
 364 0126 3B69     		ldr	r3, [r7, #16]
 365 0128 5B68     		ldr	r3, [r3, #4]
 366 012a 002B     		cmp	r3, #0
 367 012c 0ED0     		beq	.L17
 368              		.loc 2 413 0 is_stmt 1
 369 012e 424B     		ldr	r3, .L35+4
 370 0130 1A68     		ldr	r2, [r3]
 371 0132 3B69     		ldr	r3, [r7, #16]
 372 0134 5B68     		ldr	r3, [r3, #4]
 373 0136 9A42     		cmp	r2, r3
 374 0138 1ED0     		beq	.L18
 375              		.loc 2 415 0 discriminator 1
 376 013a 3F4B     		ldr	r3, .L35+4
 377 013c 1B68     		ldr	r3, [r3]
 378 013e 1846     		mov	r0, r3
 379 0140 3969     		ldr	r1, [r7, #16]
 380 0142 FFF7FEFF 		bl	ip4_addr_isbroadcast
 381 0146 0346     		mov	r3, r0
 382              		.loc 2 413 0 discriminator 1
 383 0148 002B     		cmp	r3, #0
 384 014a 15D1     		bne	.L18
 385              	.L17:
 386              		.loc 2 433 0
 387 014c FB68     		ldr	r3, [r7, #12]
 388 014e 002B     		cmp	r3, #0
 389 0150 05D0     		beq	.L19
 390              		.loc 2 434 0
 391 0152 0023     		movs	r3, #0
 392 0154 FB60     		str	r3, [r7, #12]
 393              		.loc 2 435 0
 394 0156 3A4B     		ldr	r3, .L35+12
 395 0158 1B68     		ldr	r3, [r3]
 396 015a 3B61     		str	r3, [r7, #16]
 397 015c 02E0     		b	.L20
ARM GAS  C:\Users\Luis\AppData\Local\Temp\ccKPaE82.s 			page 8


 398              	.L19:
 399              		.loc 2 437 0
 400 015e 3B69     		ldr	r3, [r7, #16]
 401 0160 1B68     		ldr	r3, [r3]
 402 0162 3B61     		str	r3, [r7, #16]
 403              	.L20:
 404              		.loc 2 439 0
 405 0164 3A69     		ldr	r2, [r7, #16]
 406 0166 3B68     		ldr	r3, [r7]
 407 0168 9A42     		cmp	r2, r3
 408 016a 02D1     		bne	.L21
 409              		.loc 2 440 0
 410 016c 3B69     		ldr	r3, [r7, #16]
 411 016e 1B68     		ldr	r3, [r3]
 412 0170 3B61     		str	r3, [r7, #16]
 413              	.L21:
 414              		.loc 2 442 0
 415 0172 3B69     		ldr	r3, [r7, #16]
 416 0174 002B     		cmp	r3, #0
 417 0176 CBD1     		bne	.L22
 418              	.L18:
 419              	.LBE2:
 420              		.loc 2 475 0
 421 0178 304B     		ldr	r3, .L35+8
 422 017a 1B68     		ldr	r3, [r3]
 423 017c 1846     		mov	r0, r3
 424 017e 3968     		ldr	r1, [r7]
 425 0180 FFF7FEFF 		bl	ip4_addr_isbroadcast
 426 0184 0346     		mov	r3, r0
 427 0186 002B     		cmp	r3, #0
 428 0188 05D1     		bne	.L23
 429              		.loc 2 476 0 discriminator 1
 430 018a 2C4B     		ldr	r3, .L35+8
 431 018c 1B68     		ldr	r3, [r3]
 432 018e 03F0F003 		and	r3, r3, #240
 433              		.loc 2 475 0 discriminator 1
 434 0192 E02B     		cmp	r3, #224
 435 0194 0CD1     		bne	.L24
 436              	.L23:
 437              		.loc 2 480 0
 438 0196 7868     		ldr	r0, [r7, #4]
 439 0198 FFF7FEFF 		bl	pbuf_free
 440              		.loc 2 481 0
 441 019c 254B     		ldr	r3, .L35
 442 019e B3F84E30 		ldrh	r3, [r3, #78]
 443 01a2 0133     		adds	r3, r3, #1
 444 01a4 9AB2     		uxth	r2, r3
 445 01a6 234B     		ldr	r3, .L35
 446 01a8 A3F84E20 		strh	r2, [r3, #78]	@ movhi
 447              		.loc 2 484 0
 448 01ac 0023     		movs	r3, #0
 449 01ae 83E0     		b	.L13
 450              	.L24:
 451              		.loc 2 489 0
 452 01b0 3B69     		ldr	r3, [r7, #16]
 453 01b2 002B     		cmp	r3, #0
 454 01b4 04D1     		bne	.L25
ARM GAS  C:\Users\Luis\AppData\Local\Temp\ccKPaE82.s 			page 9


 455              		.loc 2 503 0
 456 01b6 7868     		ldr	r0, [r7, #4]
 457 01b8 FFF7FEFF 		bl	pbuf_free
 458              		.loc 2 504 0
 459 01bc 0023     		movs	r3, #0
 460 01be 7BE0     		b	.L13
 461              	.L25:
 462              		.loc 2 507 0
 463 01c0 7B69     		ldr	r3, [r7, #20]
 464 01c2 DB88     		ldrh	r3, [r3, #6]	@ unaligned
 465 01c4 9BB2     		uxth	r3, r3
 466 01c6 1A46     		mov	r2, r3
 467 01c8 4FF63F73 		movw	r3, #65343
 468 01cc 1340     		ands	r3, r3, r2
 469 01ce 002B     		cmp	r3, #0
 470 01d0 0BD0     		beq	.L26
 471              		.loc 2 512 0
 472 01d2 7868     		ldr	r0, [r7, #4]
 473 01d4 FFF7FEFF 		bl	ip_reass
 474 01d8 7860     		str	r0, [r7, #4]
 475              		.loc 2 514 0
 476 01da 7B68     		ldr	r3, [r7, #4]
 477 01dc 002B     		cmp	r3, #0
 478 01de 01D1     		bne	.L27
 479              		.loc 2 515 0
 480 01e0 0023     		movs	r3, #0
 481 01e2 69E0     		b	.L13
 482              	.L27:
 483              		.loc 2 517 0
 484 01e4 7B68     		ldr	r3, [r7, #4]
 485 01e6 5B68     		ldr	r3, [r3, #4]
 486 01e8 7B61     		str	r3, [r7, #20]
 487              	.L26:
 488              		.loc 2 553 0
 489 01ea 164B     		ldr	r3, .L35+16
 490 01ec 3A68     		ldr	r2, [r7]
 491 01ee 1A60     		str	r2, [r3]
 492              		.loc 2 554 0
 493 01f0 154B     		ldr	r3, .L35+20
 494 01f2 7A69     		ldr	r2, [r7, #20]
 495 01f4 1A60     		str	r2, [r3]
 496              		.loc 2 558 0
 497 01f6 7868     		ldr	r0, [r7, #4]
 498 01f8 3968     		ldr	r1, [r7]
 499 01fa FFF7FEFF 		bl	raw_input
 500 01fe 0346     		mov	r3, r0
 501 0200 002B     		cmp	r3, #0
 502 0202 4CD1     		bne	.L28
 503              		.loc 2 561 0
 504 0204 7B69     		ldr	r3, [r7, #20]
 505 0206 5B7A     		ldrb	r3, [r3, #9]	@ zero_extendqisi2
 506 0208 062B     		cmp	r3, #6
 507 020a 09D0     		beq	.L30
 508 020c 112B     		cmp	r3, #17
 509 020e 02D0     		beq	.L31
 510 0210 012B     		cmp	r3, #1
 511 0212 0AD0     		beq	.L32
ARM GAS  C:\Users\Luis\AppData\Local\Temp\ccKPaE82.s 			page 10


 512 0214 1AE0     		b	.L34
 513              	.L31:
 514              		.loc 2 568 0
 515 0216 7868     		ldr	r0, [r7, #4]
 516 0218 3968     		ldr	r1, [r7]
 517 021a FFF7FEFF 		bl	udp_input
 518              		.loc 2 569 0
 519 021e 3EE0     		b	.L28
 520              	.L30:
 521              		.loc 2 574 0
 522 0220 7868     		ldr	r0, [r7, #4]
 523 0222 3968     		ldr	r1, [r7]
 524 0224 FFF7FEFF 		bl	tcp_input
 525              		.loc 2 575 0
 526 0228 39E0     		b	.L28
 527              	.L32:
 528              		.loc 2 580 0
 529 022a 7868     		ldr	r0, [r7, #4]
 530 022c 3968     		ldr	r1, [r7]
 531 022e FFF7FEFF 		bl	icmp_input
 532              		.loc 2 581 0
 533 0232 34E0     		b	.L28
 534              	.L36:
 535              		.align	2
 536              	.L35:
 537 0234 00000000 		.word	lwip_stats
 538 0238 00000000 		.word	current_iphdr_dest
 539 023c 00000000 		.word	current_iphdr_src
 540 0240 00000000 		.word	netif_list
 541 0244 00000000 		.word	current_netif
 542 0248 00000000 		.word	current_header
 543              	.L34:
 544              		.loc 2 591 0
 545 024c 1D4B     		ldr	r3, .L37
 546 024e 1B68     		ldr	r3, [r3]
 547 0250 1846     		mov	r0, r3
 548 0252 3968     		ldr	r1, [r7]
 549 0254 FFF7FEFF 		bl	ip4_addr_isbroadcast
 550 0258 0346     		mov	r3, r0
 551 025a 002B     		cmp	r3, #0
 552 025c 0CD1     		bne	.L33
 553              		.loc 2 592 0 discriminator 1
 554 025e 194B     		ldr	r3, .L37
 555 0260 1B68     		ldr	r3, [r3]
 556 0262 03F0F003 		and	r3, r3, #240
 557              		.loc 2 591 0 discriminator 1
 558 0266 E02B     		cmp	r3, #224
 559 0268 06D0     		beq	.L33
 560              		.loc 2 593 0
 561 026a 7B68     		ldr	r3, [r7, #4]
 562 026c 7A69     		ldr	r2, [r7, #20]
 563 026e 5A60     		str	r2, [r3, #4]
 564              		.loc 2 594 0
 565 0270 7868     		ldr	r0, [r7, #4]
 566 0272 0221     		movs	r1, #2
 567 0274 FFF7FEFF 		bl	icmp_dest_unreach
 568              	.L33:
ARM GAS  C:\Users\Luis\AppData\Local\Temp\ccKPaE82.s 			page 11


 569              		.loc 2 597 0
 570 0278 7868     		ldr	r0, [r7, #4]
 571 027a FFF7FEFF 		bl	pbuf_free
 572              		.loc 2 601 0
 573 027e 124B     		ldr	r3, .L37+4
 574 0280 B3F85830 		ldrh	r3, [r3, #88]
 575 0284 0133     		adds	r3, r3, #1
 576 0286 9AB2     		uxth	r2, r3
 577 0288 0F4B     		ldr	r3, .L37+4
 578 028a A3F85820 		strh	r2, [r3, #88]	@ movhi
 579              		.loc 2 602 0
 580 028e 0E4B     		ldr	r3, .L37+4
 581 0290 B3F84E30 		ldrh	r3, [r3, #78]
 582 0294 0133     		adds	r3, r3, #1
 583 0296 9AB2     		uxth	r2, r3
 584 0298 0B4B     		ldr	r3, .L37+4
 585 029a A3F84E20 		strh	r2, [r3, #78]	@ movhi
 586              	.L28:
 587              		.loc 2 607 0
 588 029e 0B4B     		ldr	r3, .L37+8
 589 02a0 0022     		movs	r2, #0
 590 02a2 1A60     		str	r2, [r3]
 591              		.loc 2 608 0
 592 02a4 0A4B     		ldr	r3, .L37+12
 593 02a6 0022     		movs	r2, #0
 594 02a8 1A60     		str	r2, [r3]
 595              		.loc 2 609 0
 596 02aa 0A4B     		ldr	r3, .L37+16
 597 02ac 0022     		movs	r2, #0
 598 02ae 1A60     		str	r2, [r3]
 599              		.loc 2 610 0
 600 02b0 044B     		ldr	r3, .L37
 601 02b2 0022     		movs	r2, #0
 602 02b4 1A60     		str	r2, [r3]
 603              		.loc 2 612 0
 604 02b6 0023     		movs	r3, #0
 605              	.L13:
 606 02b8 5BB2     		sxtb	r3, r3
 607              		.loc 2 613 0
 608 02ba 1846     		mov	r0, r3
 609 02bc 1837     		adds	r7, r7, #24
 610 02be BD46     		mov	sp, r7
 611              		@ sp needed
 612 02c0 80BD     		pop	{r7, pc}
 613              	.L38:
 614 02c2 00BF     		.align	2
 615              	.L37:
 616 02c4 00000000 		.word	current_iphdr_dest
 617 02c8 00000000 		.word	lwip_stats
 618 02cc 00000000 		.word	current_netif
 619 02d0 00000000 		.word	current_header
 620 02d4 00000000 		.word	current_iphdr_src
 621              		.cfi_endproc
 622              	.LFE261:
 623              		.size	ip_input, .-ip_input
 624 02d8 AFF30080 		.section	.rodata
 624      AFF30080 
ARM GAS  C:\Users\Luis\AppData\Local\Temp\ccKPaE82.s 			page 12


 625              		.align	2
 626              	.LC0:
 627 0000 702D3E72 		.ascii	"p->ref == 1\000"
 627      6566203D 
 627      3D203100 
 628              		.align	2
 629              	.LC1:
 630 000c 63686563 		.ascii	"check that first pbuf can hold struct ip_hdr\000"
 630      6B207468 
 630      61742066 
 630      69727374 
 630      20706275 
 631 0039 000000   		.section	.text.ip_output_if,"ax",%progbits
 632              		.align	2
 633              		.p2align 4,,15
 634              		.global	ip_output_if
 635              		.thumb
 636              		.thumb_func
 637              		.type	ip_output_if, %function
 638              	ip_output_if:
 639              	.LFB262:
 640              		.loc 2 644 0
 641              		.cfi_startproc
 642              		@ args = 12, pretend = 0, frame = 32
 643              		@ frame_needed = 1, uses_anonymous_args = 0
 644 0000 80B5     		push	{r7, lr}
 645              		.cfi_def_cfa_offset 8
 646              		.cfi_offset 7, -8
 647              		.cfi_offset 14, -4
 648 0002 88B0     		sub	sp, sp, #32
 649              		.cfi_def_cfa_offset 40
 650 0004 00AF     		add	r7, sp, #0
 651              		.cfi_def_cfa_register 7
 652 0006 F860     		str	r0, [r7, #12]
 653 0008 B960     		str	r1, [r7, #8]
 654 000a 7A60     		str	r2, [r7, #4]
 655 000c FB70     		strb	r3, [r7, #3]
 656              		.loc 2 663 0
 657 000e 0023     		movs	r3, #0
 658 0010 FB61     		str	r3, [r7, #28]
 659              		.loc 2 668 0
 660 0012 FB68     		ldr	r3, [r7, #12]
 661 0014 DB89     		ldrh	r3, [r3, #14]
 662 0016 012B     		cmp	r3, #1
 663 0018 02D0     		beq	.L40
 664              		.loc 2 668 0 is_stmt 0 discriminator 1
 665 001a 6F48     		ldr	r0, .L51
 666 001c FFF7FEFF 		bl	osalSysHalt
 667              	.L40:
 668              		.loc 2 673 0 is_stmt 1
 669 0020 7B68     		ldr	r3, [r7, #4]
 670 0022 002B     		cmp	r3, #0
 671 0024 00F0AA80 		beq	.L41
 672              	.LBB3:
 673              		.loc 2 674 0
 674 0028 1423     		movs	r3, #20
 675 002a 7B83     		strh	r3, [r7, #26]	@ movhi
ARM GAS  C:\Users\Luis\AppData\Local\Temp\ccKPaE82.s 			page 13


 676              		.loc 2 704 0
 677 002c F868     		ldr	r0, [r7, #12]
 678 002e 1421     		movs	r1, #20
 679 0030 FFF7FEFF 		bl	pbuf_header
 680 0034 0346     		mov	r3, r0
 681 0036 002B     		cmp	r3, #0
 682 0038 09D0     		beq	.L42
 683              		.loc 2 707 0
 684 003a 684B     		ldr	r3, .L51+4
 685 003c B3F85C30 		ldrh	r3, [r3, #92]
 686 0040 0133     		adds	r3, r3, #1
 687 0042 9AB2     		uxth	r2, r3
 688 0044 654B     		ldr	r3, .L51+4
 689 0046 A3F85C20 		strh	r2, [r3, #92]	@ movhi
 690              		.loc 2 709 0
 691 004a FE23     		movs	r3, #254
 692 004c BFE0     		b	.L50
 693              	.L42:
 694              		.loc 2 712 0
 695 004e FB68     		ldr	r3, [r7, #12]
 696 0050 5B68     		ldr	r3, [r3, #4]
 697 0052 7B61     		str	r3, [r7, #20]
 698              		.loc 2 713 0
 699 0054 FB68     		ldr	r3, [r7, #12]
 700 0056 5B89     		ldrh	r3, [r3, #10]
 701 0058 132B     		cmp	r3, #19
 702 005a 02D8     		bhi	.L44
 703              		.loc 2 713 0 is_stmt 0 discriminator 1
 704 005c 6048     		ldr	r0, .L51+8
 705 005e FFF7FEFF 		bl	osalSysHalt
 706              	.L44:
 707              		.loc 2 716 0 is_stmt 1
 708 0062 7B69     		ldr	r3, [r7, #20]
 709 0064 FA78     		ldrb	r2, [r7, #3]
 710 0066 1A72     		strb	r2, [r3, #8]
 711              		.loc 2 717 0
 712 0068 7B69     		ldr	r3, [r7, #20]
 713 006a 97F82C20 		ldrb	r2, [r7, #44]
 714 006e 5A72     		strb	r2, [r3, #9]
 715              		.loc 2 719 0
 716 0070 97F82C30 		ldrb	r3, [r7, #44]	@ zero_extendqisi2
 717 0074 1A02     		lsls	r2, r3, #8
 718 0076 FB78     		ldrb	r3, [r7, #3]	@ zero_extendqisi2
 719 0078 1343     		orrs	r3, r3, r2
 720 007a FA69     		ldr	r2, [r7, #28]
 721 007c 1344     		add	r3, r3, r2
 722 007e FB61     		str	r3, [r7, #28]
 723              		.loc 2 723 0
 724 0080 7B68     		ldr	r3, [r7, #4]
 725 0082 1A68     		ldr	r2, [r3]
 726 0084 7B69     		ldr	r3, [r7, #20]
 727 0086 1A61     		str	r2, [r3, #16]	@ unaligned
 728              		.loc 2 725 0
 729 0088 7B69     		ldr	r3, [r7, #20]
 730 008a 1B69     		ldr	r3, [r3, #16]	@ unaligned
 731 008c 9BB2     		uxth	r3, r3
 732 008e FA69     		ldr	r2, [r7, #28]
ARM GAS  C:\Users\Luis\AppData\Local\Temp\ccKPaE82.s 			page 14


 733 0090 1344     		add	r3, r3, r2
 734 0092 FB61     		str	r3, [r7, #28]
 735              		.loc 2 726 0
 736 0094 7B69     		ldr	r3, [r7, #20]
 737 0096 1B69     		ldr	r3, [r3, #16]	@ unaligned
 738 0098 1B0C     		lsrs	r3, r3, #16
 739 009a FA69     		ldr	r2, [r7, #28]
 740 009c 1344     		add	r3, r3, r2
 741 009e FB61     		str	r3, [r7, #28]
 742              		.loc 2 729 0
 743 00a0 7B8B     		ldrh	r3, [r7, #26]
 744 00a2 9B08     		lsrs	r3, r3, #2
 745 00a4 9BB2     		uxth	r3, r3
 746 00a6 DBB2     		uxtb	r3, r3
 747 00a8 43F04003 		orr	r3, r3, #64
 748 00ac DAB2     		uxtb	r2, r3
 749 00ae 7B69     		ldr	r3, [r7, #20]
 750 00b0 1A70     		strb	r2, [r3]
 751              		.loc 2 730 0
 752 00b2 7B69     		ldr	r3, [r7, #20]
 753 00b4 97F82820 		ldrb	r2, [r7, #40]
 754 00b8 5A70     		strb	r2, [r3, #1]
 755              		.loc 2 732 0
 756 00ba 97F82830 		ldrb	r3, [r7, #40]	@ zero_extendqisi2
 757 00be 1A02     		lsls	r2, r3, #8
 758 00c0 7B69     		ldr	r3, [r7, #20]
 759 00c2 1B78     		ldrb	r3, [r3]	@ zero_extendqisi2
 760 00c4 1343     		orrs	r3, r3, r2
 761 00c6 FA69     		ldr	r2, [r7, #28]
 762 00c8 1344     		add	r3, r3, r2
 763 00ca FB61     		str	r3, [r7, #28]
 764              		.loc 2 734 0
 765 00cc FB68     		ldr	r3, [r7, #12]
 766 00ce 1B89     		ldrh	r3, [r3, #8]
 767 00d0 1846     		mov	r0, r3
 768 00d2 FFF7FEFF 		bl	lwip_htons
 769 00d6 0346     		mov	r3, r0
 770 00d8 1A46     		mov	r2, r3
 771 00da 7B69     		ldr	r3, [r7, #20]
 772 00dc 5A80     		strh	r2, [r3, #2]	@ unaligned
 773              		.loc 2 736 0
 774 00de 7B69     		ldr	r3, [r7, #20]
 775 00e0 5B88     		ldrh	r3, [r3, #2]	@ unaligned
 776 00e2 9BB2     		uxth	r3, r3
 777 00e4 FA69     		ldr	r2, [r7, #28]
 778 00e6 1344     		add	r3, r3, r2
 779 00e8 FB61     		str	r3, [r7, #28]
 780              		.loc 2 738 0
 781 00ea 7B69     		ldr	r3, [r7, #20]
 782 00ec 0022     		movs	r2, #0
 783 00ee 9A71     		strb	r2, [r3, #6]
 784 00f0 0022     		movs	r2, #0
 785 00f2 DA71     		strb	r2, [r3, #7]
 786              		.loc 2 739 0
 787 00f4 3B4B     		ldr	r3, .L51+12
 788 00f6 1B88     		ldrh	r3, [r3]
 789 00f8 1846     		mov	r0, r3
ARM GAS  C:\Users\Luis\AppData\Local\Temp\ccKPaE82.s 			page 15


 790 00fa FFF7FEFF 		bl	lwip_htons
 791 00fe 0346     		mov	r3, r0
 792 0100 1A46     		mov	r2, r3
 793 0102 7B69     		ldr	r3, [r7, #20]
 794 0104 9A80     		strh	r2, [r3, #4]	@ unaligned
 795              		.loc 2 741 0
 796 0106 7B69     		ldr	r3, [r7, #20]
 797 0108 9B88     		ldrh	r3, [r3, #4]	@ unaligned
 798 010a 9BB2     		uxth	r3, r3
 799 010c FA69     		ldr	r2, [r7, #28]
 800 010e 1344     		add	r3, r3, r2
 801 0110 FB61     		str	r3, [r7, #28]
 802              		.loc 2 743 0
 803 0112 344B     		ldr	r3, .L51+12
 804 0114 1B88     		ldrh	r3, [r3]
 805 0116 0133     		adds	r3, r3, #1
 806 0118 9AB2     		uxth	r2, r3
 807 011a 324B     		ldr	r3, .L51+12
 808 011c 1A80     		strh	r2, [r3]	@ movhi
 809              		.loc 2 745 0
 810 011e BB68     		ldr	r3, [r7, #8]
 811 0120 002B     		cmp	r3, #0
 812 0122 03D0     		beq	.L45
 813              		.loc 2 745 0 is_stmt 0 discriminator 1
 814 0124 BB68     		ldr	r3, [r7, #8]
 815 0126 1B68     		ldr	r3, [r3]
 816 0128 002B     		cmp	r3, #0
 817 012a 04D1     		bne	.L46
 818              	.L45:
 819              		.loc 2 746 0 is_stmt 1
 820 012c 3B6B     		ldr	r3, [r7, #48]
 821 012e 5A68     		ldr	r2, [r3, #4]
 822 0130 7B69     		ldr	r3, [r7, #20]
 823 0132 DA60     		str	r2, [r3, #12]	@ unaligned
 824 0134 03E0     		b	.L47
 825              	.L46:
 826              		.loc 2 749 0
 827 0136 BB68     		ldr	r3, [r7, #8]
 828 0138 1A68     		ldr	r2, [r3]
 829 013a 7B69     		ldr	r3, [r7, #20]
 830 013c DA60     		str	r2, [r3, #12]	@ unaligned
 831              	.L47:
 832              		.loc 2 753 0
 833 013e 7B69     		ldr	r3, [r7, #20]
 834 0140 DB68     		ldr	r3, [r3, #12]	@ unaligned
 835 0142 9BB2     		uxth	r3, r3
 836 0144 FA69     		ldr	r2, [r7, #28]
 837 0146 1344     		add	r3, r3, r2
 838 0148 FB61     		str	r3, [r7, #28]
 839              		.loc 2 754 0
 840 014a 7B69     		ldr	r3, [r7, #20]
 841 014c DB68     		ldr	r3, [r3, #12]	@ unaligned
 842 014e 1B0C     		lsrs	r3, r3, #16
 843 0150 FA69     		ldr	r2, [r7, #28]
 844 0152 1344     		add	r3, r3, r2
 845 0154 FB61     		str	r3, [r7, #28]
 846              		.loc 2 755 0
ARM GAS  C:\Users\Luis\AppData\Local\Temp\ccKPaE82.s 			page 16


 847 0156 FB69     		ldr	r3, [r7, #28]
 848 0158 1A0C     		lsrs	r2, r3, #16
 849 015a FB69     		ldr	r3, [r7, #28]
 850 015c 9BB2     		uxth	r3, r3
 851 015e 1344     		add	r3, r3, r2
 852 0160 FB61     		str	r3, [r7, #28]
 853              		.loc 2 756 0
 854 0162 FB69     		ldr	r3, [r7, #28]
 855 0164 1B0C     		lsrs	r3, r3, #16
 856 0166 FA69     		ldr	r2, [r7, #28]
 857 0168 1344     		add	r3, r3, r2
 858 016a FB61     		str	r3, [r7, #28]
 859              		.loc 2 757 0
 860 016c FB69     		ldr	r3, [r7, #28]
 861 016e DB43     		mvns	r3, r3
 862 0170 FB61     		str	r3, [r7, #28]
 863              		.loc 2 758 0
 864 0172 FB69     		ldr	r3, [r7, #28]
 865 0174 9AB2     		uxth	r2, r3
 866 0176 7B69     		ldr	r3, [r7, #20]
 867 0178 5A81     		strh	r2, [r3, #10]	@ unaligned
 868              	.LBE3:
 869 017a 08E0     		b	.L48
 870              	.L41:
 871              		.loc 2 767 0
 872 017c FB68     		ldr	r3, [r7, #12]
 873 017e 5B68     		ldr	r3, [r3, #4]
 874 0180 7B61     		str	r3, [r7, #20]
 875              		.loc 2 768 0
 876 0182 7B69     		ldr	r3, [r7, #20]
 877 0184 1B69     		ldr	r3, [r3, #16]	@ unaligned
 878 0186 3B61     		str	r3, [r7, #16]
 879              		.loc 2 769 0
 880 0188 07F11003 		add	r3, r7, #16
 881 018c 7B60     		str	r3, [r7, #4]
 882              	.L48:
 883              		.loc 2 772 0
 884 018e 134B     		ldr	r3, .L51+4
 885 0190 B3F84830 		ldrh	r3, [r3, #72]
 886 0194 0133     		adds	r3, r3, #1
 887 0196 9AB2     		uxth	r2, r3
 888 0198 104B     		ldr	r3, .L51+4
 889 019a A3F84820 		strh	r2, [r3, #72]	@ movhi
 890              		.loc 2 791 0
 891 019e 3B6B     		ldr	r3, [r7, #48]
 892 01a0 1B8C     		ldrh	r3, [r3, #32]
 893 01a2 002B     		cmp	r3, #0
 894 01a4 0CD0     		beq	.L49
 895              		.loc 2 791 0 is_stmt 0 discriminator 1
 896 01a6 FB68     		ldr	r3, [r7, #12]
 897 01a8 1A89     		ldrh	r2, [r3, #8]
 898 01aa 3B6B     		ldr	r3, [r7, #48]
 899 01ac 1B8C     		ldrh	r3, [r3, #32]
 900 01ae 9A42     		cmp	r2, r3
 901 01b0 06D9     		bls	.L49
 902              		.loc 2 792 0 is_stmt 1
 903 01b2 F868     		ldr	r0, [r7, #12]
ARM GAS  C:\Users\Luis\AppData\Local\Temp\ccKPaE82.s 			page 17


 904 01b4 396B     		ldr	r1, [r7, #48]
 905 01b6 7A68     		ldr	r2, [r7, #4]
 906 01b8 FFF7FEFF 		bl	ip_frag
 907 01bc 0346     		mov	r3, r0
 908 01be 06E0     		b	.L50
 909              	.L49:
 910              		.loc 2 797 0
 911 01c0 3B6B     		ldr	r3, [r7, #48]
 912 01c2 5B69     		ldr	r3, [r3, #20]
 913 01c4 386B     		ldr	r0, [r7, #48]
 914 01c6 F968     		ldr	r1, [r7, #12]
 915 01c8 7A68     		ldr	r2, [r7, #4]
 916 01ca 9847     		blx	r3
 917 01cc 0346     		mov	r3, r0
 918              	.L50:
 919 01ce 5BB2     		sxtb	r3, r3
 920              		.loc 2 798 0
 921 01d0 1846     		mov	r0, r3
 922 01d2 2037     		adds	r7, r7, #32
 923 01d4 BD46     		mov	sp, r7
 924              		@ sp needed
 925 01d6 80BD     		pop	{r7, pc}
 926              	.L52:
 927              		.align	2
 928              	.L51:
 929 01d8 00000000 		.word	.LC0
 930 01dc 00000000 		.word	lwip_stats
 931 01e0 0C000000 		.word	.LC1
 932 01e4 00000000 		.word	ip_id
 933              		.cfi_endproc
 934              	.LFE262:
 935              		.size	ip_output_if, .-ip_output_if
 936 01e8 AFF30080 		.section	.text.ip_output,"ax",%progbits
 936      AFF30080 
 937              		.align	2
 938              		.p2align 4,,15
 939              		.global	ip_output
 940              		.thumb
 941              		.thumb_func
 942              		.type	ip_output, %function
 943              	ip_output:
 944              	.LFB263:
 945              		.loc 2 820 0
 946              		.cfi_startproc
 947              		@ args = 8, pretend = 0, frame = 24
 948              		@ frame_needed = 1, uses_anonymous_args = 0
 949 0000 80B5     		push	{r7, lr}
 950              		.cfi_def_cfa_offset 8
 951              		.cfi_offset 7, -8
 952              		.cfi_offset 14, -4
 953 0002 8AB0     		sub	sp, sp, #40
 954              		.cfi_def_cfa_offset 48
 955 0004 04AF     		add	r7, sp, #16
 956              		.cfi_def_cfa 7, 32
 957 0006 F860     		str	r0, [r7, #12]
 958 0008 B960     		str	r1, [r7, #8]
 959 000a 7A60     		str	r2, [r7, #4]
ARM GAS  C:\Users\Luis\AppData\Local\Temp\ccKPaE82.s 			page 18


 960 000c FB70     		strb	r3, [r7, #3]
 961              		.loc 2 825 0
 962 000e FB68     		ldr	r3, [r7, #12]
 963 0010 DB89     		ldrh	r3, [r3, #14]
 964 0012 012B     		cmp	r3, #1
 965 0014 02D0     		beq	.L54
 966              		.loc 2 825 0 is_stmt 0 discriminator 1
 967 0016 1448     		ldr	r0, .L57
 968 0018 FFF7FEFF 		bl	osalSysHalt
 969              	.L54:
 970              		.loc 2 827 0 is_stmt 1
 971 001c 7868     		ldr	r0, [r7, #4]
 972 001e FFF7FEFF 		bl	ip_route
 973 0022 7861     		str	r0, [r7, #20]
 974 0024 7B69     		ldr	r3, [r7, #20]
 975 0026 002B     		cmp	r3, #0
 976 0028 09D1     		bne	.L55
 977              		.loc 2 830 0
 978 002a 104B     		ldr	r3, .L57+4
 979 002c B3F85630 		ldrh	r3, [r3, #86]
 980 0030 0133     		adds	r3, r3, #1
 981 0032 9AB2     		uxth	r2, r3
 982 0034 0D4B     		ldr	r3, .L57+4
 983 0036 A3F85620 		strh	r2, [r3, #86]	@ movhi
 984              		.loc 2 831 0
 985 003a FC23     		movs	r3, #252
 986 003c 0EE0     		b	.L56
 987              	.L55:
 988              		.loc 2 834 0
 989 003e FB78     		ldrb	r3, [r7, #3]	@ zero_extendqisi2
 990 0040 97F82020 		ldrb	r2, [r7, #32]	@ zero_extendqisi2
 991 0044 0092     		str	r2, [sp]
 992 0046 97F82420 		ldrb	r2, [r7, #36]	@ zero_extendqisi2
 993 004a 0192     		str	r2, [sp, #4]
 994 004c 7A69     		ldr	r2, [r7, #20]
 995 004e 0292     		str	r2, [sp, #8]
 996 0050 F868     		ldr	r0, [r7, #12]
 997 0052 B968     		ldr	r1, [r7, #8]
 998 0054 7A68     		ldr	r2, [r7, #4]
 999 0056 FFF7FEFF 		bl	ip_output_if
 1000 005a 0346     		mov	r3, r0
 1001              	.L56:
 1002 005c 5BB2     		sxtb	r3, r3
 1003              		.loc 2 835 0
 1004 005e 1846     		mov	r0, r3
 1005 0060 1837     		adds	r7, r7, #24
 1006 0062 BD46     		mov	sp, r7
 1007              		@ sp needed
 1008 0064 80BD     		pop	{r7, pc}
 1009              	.L58:
 1010 0066 00BF     		.align	2
 1011              	.L57:
 1012 0068 00000000 		.word	.LC0
 1013 006c 00000000 		.word	lwip_stats
 1014              		.cfi_endproc
 1015              	.LFE263:
 1016              		.size	ip_output, .-ip_output
ARM GAS  C:\Users\Luis\AppData\Local\Temp\ccKPaE82.s 			page 19


 1017              		.text
 1018              	.Letext0:
 1019              		.file 3 "c:\\emtechesdk\\gcc\\lib\\gcc\\arm-none-eabi\\4.8.3\\include\\stddef.h"
 1020              		.file 4 "c:\\emtechesdk\\gcc\\arm-none-eabi\\include\\stdint.h"
 1021              		.file 5 "../../ChibiOS/os/rt/ports/ARMCMx/compilers/GCC/chtypes.h"
 1022              		.file 6 "../../ChibiOS/os/rt/include/chsystypes.h"
 1023              		.file 7 "../../ChibiOS/os/rt/include/chschd.h"
 1024              		.file 8 "../../ChibiOS/os/rt/ports/ARMCMx/chcore.h"
 1025              		.file 9 "../../ChibiOS/os/rt/ports/ARMCMx/chcore_v7m.h"
 1026              		.file 10 "../../ChibiOS/os/rt/include/chdebug.h"
 1027              		.file 11 "../../ChibiOS/os/rt/include/chtm.h"
 1028              		.file 12 "../../ChibiOS/os/rt/include/chstats.h"
 1029              		.file 13 "../../ChibiOS/os/rt/include/chsem.h"
 1030              		.file 14 "../../ChibiOS/os/rt/include/chmtx.h"
 1031              		.file 15 "../../ChibiOS/os/various/lwip_bindings/arch/cc.h"
 1032              		.file 16 "../../ChibiOS/ext/lwip/src/include/lwip/err.h"
 1033              		.file 17 "../../ChibiOS/ext/lwip/src/include/lwip/pbuf.h"
 1034              		.file 18 "../../ChibiOS/ext/lwip/src/include/ipv4/lwip/ip_addr.h"
 1035              		.file 19 "../../ChibiOS/ext/lwip/src/include/lwip/netif.h"
 1036              		.file 20 "../../ChibiOS/ext/lwip/src/include/ipv4/lwip/ip.h"
 1037              		.file 21 "../../ChibiOS/ext/lwip/src/include/lwip/mem.h"
 1038              		.file 22 "../../ChibiOS/ext/lwip/src/include/lwip/stats.h"
 1039              		.file 23 "../../ChibiOS/os/ext/CMSIS/include/core_cm4.h"
 1040              		.file 24 "../../ChibiOS/ext/lwip/src/include/ipv4/lwip/icmp.h"
 1041              		.file 25 "../../ChibiOS/ext/lwip/src/include/lwip/memp.h"