ARM GAS  C:\Users\Luis\AppData\Local\Temp\ccKPaE82.s 			page 1


   1              		.syntax unified
   2              		.cpu cortex-m4
   3              		.fpu softvfp
   4              		.eabi_attribute 20, 1
   5              		.eabi_attribute 21, 1
   6              		.eabi_attribute 23, 3
   7              		.eabi_attribute 24, 1
   8              		.eabi_attribute 25, 1
   9              		.eabi_attribute 26, 1
  10              		.eabi_attribute 30, 6
  11              		.eabi_attribute 34, 1
  12              		.eabi_attribute 18, 4
  13              		.thumb
  14              		.file	"ip.c"
  15              		.text
  16              	.Ltext0:
  17              		.cfi_sections	.debug_frame
  18              		.section	.text.osalSysHalt,"ax",%progbits
  19              		.align	2
  20              		.p2align 4,,15
  21              		.thumb
  22              		.thumb_func
  23              		.type	osalSysHalt, %function
  24              	osalSysHalt:
  25              	.LFB230:
  26              		.file 1 "../../ChibiOS/os/hal/osal/rt/osal.h"
  27              		.loc 1 460 0
  28              		.cfi_startproc
  29              		@ args = 0, pretend = 0, frame = 8
  30              		@ frame_needed = 1, uses_anonymous_args = 0
  31 0000 80B5     		push	{r7, lr}
  32              		.cfi_def_cfa_offset 8
  33              		.cfi_offset 7, -8
  34              		.cfi_offset 14, -4
  35 0002 82B0     		sub	sp, sp, #8
  36              		.cfi_def_cfa_offset 16
  37 0004 00AF     		add	r7, sp, #0
  38              		.cfi_def_cfa_register 7
  39 0006 7860     		str	r0, [r7, #4]
  40              		.loc 1 462 0
  41 0008 7868     		ldr	r0, [r7, #4]
  42 000a FFF7FEFF 		bl	chSysHalt
  43              		.loc 1 463 0
  44 000e 0837     		adds	r7, r7, #8
  45 0010 BD46     		mov	sp, r7
  46              		@ sp needed
  47 0012 80BD     		pop	{r7, pc}
  48              		.cfi_endproc
  49              	.LFE230:
  50              		.size	osalSysHalt, .-osalSysHalt
  51              		.global	current_netif
  52 0014 AFF30080 		.section	.bss.current_netif,"aw",%nobits
  52      AFF30080 
  52      AFF30080 
  53              		.align	2
  54              		.type	current_netif, %object
  55              		.size	current_netif, 4
ARM GAS  C:\Users\Luis\AppData\Local\Temp\ccKPaE82.s 			page 2


  56              	current_netif:
  57 0000 00000000 		.space	4
  58              		.global	current_header
  59              		.section	.bss.current_header,"aw",%nobits
  60              		.align	2
  61              		.type	current_header, %object
  62              		.size	current_header, 4
  63              	current_header:
  64 0000 00000000 		.space	4
  65              		.global	current_iphdr_src
  66              		.section	.bss.current_iphdr_src,"aw",%nobits
  67              		.align	2
  68              		.type	current_iphdr_src, %object
  69              		.size	current_iphdr_src, 4
  70              	current_iphdr_src:
  71 0000 00000000 		.space	4
  72              		.global	current_iphdr_dest
  73              		.section	.bss.current_iphdr_dest,"aw",%nobits
  74              		.align	2
  75              		.type	current_iphdr_dest, %object
  76              		.size	current_iphdr_dest, 4
  77              	current_iphdr_dest:
  78 0000 00000000 		.space	4
  79              		.section	.bss.ip_id,"aw",%nobits
  80              		.align	1
  81              		.type	ip_id, %object
  82              		.size	ip_id, 2
  83              	ip_id:
  84 0000 0000     		.space	2
  85              		.section	.text.ip_route,"ax",%progbits
  86              		.align	2
  87              		.p2align 4,,15
  88              		.global	ip_route
  89              		.thumb
  90              		.thumb_func
  91              		.type	ip_route, %function
  92              	ip_route:
  93              	.LFB260:
  94              		.file 2 "../../ChibiOS/ext/lwip/src/core/ipv4/ip.c"
  95              		.loc 2 125 0
  96              		.cfi_startproc
  97              		@ args = 0, pretend = 0, frame = 16
  98              		@ frame_needed = 1, uses_anonymous_args = 0
  99              		@ link register save eliminated.
 100 0000 80B4     		push	{r7}
 101              		.cfi_def_cfa_offset 4
 102              		.cfi_offset 7, -4
 103 0002 85B0     		sub	sp, sp, #20
 104              		.cfi_def_cfa_offset 24
 105 0004 00AF     		add	r7, sp, #0
 106              		.cfi_def_cfa_register 7
 107 0006 7860     		str	r0, [r7, #4]
 108              		.loc 2 136 0
 109 0008 1D4B     		ldr	r3, .L9
 110 000a 1B68     		ldr	r3, [r3]
 111 000c FB60     		str	r3, [r7, #12]
 112 000e 15E0     		b	.L3
ARM GAS  C:\Users\Luis\AppData\Local\Temp\ccKPaE82.s 			page 3


 113              	.L6:
 114              		.loc 2 138 0
 115 0010 FB68     		ldr	r3, [r7, #12]
 116 0012 93F82930 		ldrb	r3, [r3, #41]	@ zero_extendqisi2
 117 0016 03F00103 		and	r3, r3, #1
 118 001a 002B     		cmp	r3, #0
 119 001c 0BD0     		beq	.L4
 120              		.loc 2 139 0
 121 001e 7B68     		ldr	r3, [r7, #4]
 122 0020 1A68     		ldr	r2, [r3]
 123 0022 FB68     		ldr	r3, [r7, #12]
 124 0024 5B68     		ldr	r3, [r3, #4]
 125 0026 5A40     		eors	r2, r2, r3
 126 0028 FB68     		ldr	r3, [r7, #12]
 127 002a 9B68     		ldr	r3, [r3, #8]
 128 002c 1340     		ands	r3, r3, r2
 129 002e 002B     		cmp	r3, #0
 130 0030 01D1     		bne	.L4
 131              		.loc 2 141 0
 132 0032 FB68     		ldr	r3, [r7, #12]
 133 0034 1DE0     		b	.L5
 134              	.L4:
 135              		.loc 2 136 0
 136 0036 FB68     		ldr	r3, [r7, #12]
 137 0038 1B68     		ldr	r3, [r3]
 138 003a FB60     		str	r3, [r7, #12]
 139              	.L3:
 140              		.loc 2 136 0 is_stmt 0 discriminator 1
 141 003c FB68     		ldr	r3, [r7, #12]
 142 003e 002B     		cmp	r3, #0
 143 0040 E6D1     		bne	.L6
 144              		.loc 2 145 0 is_stmt 1
 145 0042 104B     		ldr	r3, .L9+4
 146 0044 1B68     		ldr	r3, [r3]
 147 0046 002B     		cmp	r3, #0
 148 0048 07D0     		beq	.L7
 149              		.loc 2 145 0 is_stmt 0 discriminator 1
 150 004a 0E4B     		ldr	r3, .L9+4
 151 004c 1B68     		ldr	r3, [r3]
 152 004e 93F82930 		ldrb	r3, [r3, #41]	@ zero_extendqisi2
 153 0052 03F00103 		and	r3, r3, #1
 154 0056 002B     		cmp	r3, #0
 155 0058 09D1     		bne	.L8
 156              	.L7:
 157              		.loc 2 148 0 is_stmt 1
 158 005a 0B4B     		ldr	r3, .L9+8
 159 005c B3F85630 		ldrh	r3, [r3, #86]
 160 0060 0133     		adds	r3, r3, #1
 161 0062 9AB2     		uxth	r2, r3
 162 0064 084B     		ldr	r3, .L9+8
 163 0066 A3F85620 		strh	r2, [r3, #86]	@ movhi
 164              		.loc 2 150 0
 165 006a 0023     		movs	r3, #0
 166 006c 01E0     		b	.L5
 167              	.L8:
 168              		.loc 2 153 0
 169 006e 054B     		ldr	r3, .L9+4
ARM GAS  C:\Users\Luis\AppData\Local\Temp\ccKPaE82.s 			page 4


 170 0070 1B68     		ldr	r3, [r3]
 171              	.L5:
 172              		.loc 2 154 0
 173 0072 1846     		mov	r0, r3
 174 0074 1437     		adds	r7, r7, #20
 175 0076 BD46     		mov	sp, r7
 176              		@ sp needed
 177 0078 5DF8047B 		ldr	r7, [sp], #4
 178 007c 7047     		bx	lr
 179              	.L10:
 180 007e 00BF     		.align	2
 181              	.L9:
 182 0080 00000000 		.word	netif_list
 183 0084 00000000 		.word	netif_default
 184 0088 00000000 		.word	lwip_stats
 185              		.cfi_endproc
 186              	.LFE260:
 187              		.size	ip_route, .-ip_route
 188 008c AFF30080 		.section	.text.ip_input,"ax",%progbits
 189              		.align	2
 190              		.p2align 4,,15
 191              		.global	ip_input
 192              		.thumb
 193              		.thumb_func
 194              		.type	ip_input, %function
 195              	ip_input:
 196              	.LFB261:
 197              		.loc 2 306 0
 198              		.cfi_startproc
 199              		@ args = 0, pretend = 0, frame = 24
 200              		@ frame_needed = 1, uses_anonymous_args = 0
 201 0000 80B5     		push	{r7, lr}
 202              		.cfi_def_cfa_offset 8
 203              		.cfi_offset 7, -8
 204              		.cfi_offset 14, -4
 205 0002 86B0     		sub	sp, sp, #24
 206              		.cfi_def_cfa_offset 32
 207 0004 00AF     		add	r7, sp, #0
 208              		.cfi_def_cfa_register 7
 209 0006 7860     		str	r0, [r7, #4]
 210 0008 3960     		str	r1, [r7]
 211              		.loc 2 315 0
 212 000a 8A4B     		ldr	r3, .L35
 213 000c B3F84A30 		ldrh	r3, [r3, #74]
 214 0010 0133     		adds	r3, r3, #1
 215 0012 9AB2     		uxth	r2, r3
 216 0014 874B     		ldr	r3, .L35
 217 0016 A3F84A20 		strh	r2, [r3, #74]	@ movhi
 218              		.loc 2 319 0
 219 001a 7B68     		ldr	r3, [r7, #4]
 220 001c 5B68     		ldr	r3, [r3, #4]
 221 001e 7B61     		str	r3, [r7, #20]
 222              		.loc 2 320 0
 223 0020 7B69     		ldr	r3, [r7, #20]
 224 0022 1B78     		ldrb	r3, [r3]	@ zero_extendqisi2
 225 0024 1B09     		lsrs	r3, r3, #4
 226 0026 DBB2     		uxtb	r3, r3
ARM GAS  C:\Users\Luis\AppData\Local\Temp\ccKPaE82.s 			page 5


 227 0028 042B     		cmp	r3, #4
 228 002a 14D0     		beq	.L12
 229              		.loc 2 323 0
 230 002c 7868     		ldr	r0, [r7, #4]
 231 002e FFF7FEFF 		bl	pbuf_free
 232              		.loc 2 324 0
 233 0032 804B     		ldr	r3, .L35
 234 0034 B3F85C30 		ldrh	r3, [r3, #92]
 235 0038 0133     		adds	r3, r3, #1
 236 003a 9AB2     		uxth	r2, r3
 237 003c 7D4B     		ldr	r3, .L35
 238 003e A3F85C20 		strh	r2, [r3, #92]	@ movhi
 239              		.loc 2 325 0
 240 0042 7C4B     		ldr	r3, .L35
 241 0044 B3F84E30 		ldrh	r3, [r3, #78]
 242 0048 0133     		adds	r3, r3, #1
 243 004a 9AB2     		uxth	r2, r3
 244 004c 794B     		ldr	r3, .L35
 245 004e A3F84E20 		strh	r2, [r3, #78]	@ movhi
 246              		.loc 2 327 0
 247 0052 0023     		movs	r3, #0
 248 0054 30E1     		b	.L13
 249              	.L12:
 250              		.loc 2 338 0
 251 0056 7B69     		ldr	r3, [r7, #20]
 252 0058 1B78     		ldrb	r3, [r3]	@ zero_extendqisi2
 253 005a 03F00F03 		and	r3, r3, #15
 254 005e 7B81     		strh	r3, [r7, #10]	@ movhi
 255              		.loc 2 340 0
 256 0060 7B89     		ldrh	r3, [r7, #10]	@ movhi
 257 0062 9B00     		lsls	r3, r3, #2
 258 0064 7B81     		strh	r3, [r7, #10]	@ movhi
 259              		.loc 2 342 0
 260 0066 7B69     		ldr	r3, [r7, #20]
 261 0068 5B88     		ldrh	r3, [r3, #2]	@ unaligned
 262 006a 9BB2     		uxth	r3, r3
 263 006c 1846     		mov	r0, r3
 264 006e FFF7FEFF 		bl	lwip_ntohs
 265 0072 0346     		mov	r3, r0
 266 0074 3B81     		strh	r3, [r7, #8]	@ movhi
 267              		.loc 2 345 0
 268 0076 7B68     		ldr	r3, [r7, #4]
 269 0078 5B89     		ldrh	r3, [r3, #10]
 270 007a 7A89     		ldrh	r2, [r7, #10]
 271 007c 9A42     		cmp	r2, r3
 272 007e 04D8     		bhi	.L14
 273              		.loc 2 345 0 is_stmt 0 discriminator 1
 274 0080 7B68     		ldr	r3, [r7, #4]
 275 0082 1B89     		ldrh	r3, [r3, #8]
 276 0084 3A89     		ldrh	r2, [r7, #8]
 277 0086 9A42     		cmp	r2, r3
 278 0088 14D9     		bls	.L15
 279              	.L14:
 280              		.loc 2 357 0 is_stmt 1
 281 008a 7868     		ldr	r0, [r7, #4]
 282 008c FFF7FEFF 		bl	pbuf_free
 283              		.loc 2 358 0
ARM GAS  C:\Users\Luis\AppData\Local\Temp\ccKPaE82.s 			page 6


 284 0090 684B     		ldr	r3, .L35
 285 0092 B3F85230 		ldrh	r3, [r3, #82]
 286 0096 0133     		adds	r3, r3, #1
 287 0098 9AB2     		uxth	r2, r3
 288 009a 664B     		ldr	r3, .L35
 289 009c A3F85220 		strh	r2, [r3, #82]	@ movhi
 290              		.loc 2 359 0
 291 00a0 644B     		ldr	r3, .L35
 292 00a2 B3F84E30 		ldrh	r3, [r3, #78]
 293 00a6 0133     		adds	r3, r3, #1
 294 00a8 9AB2     		uxth	r2, r3
 295 00aa 624B     		ldr	r3, .L35
 296 00ac A3F84E20 		strh	r2, [r3, #78]	@ movhi
 297              		.loc 2 361 0
 298 00b0 0023     		movs	r3, #0
 299 00b2 01E1     		b	.L13
 300              	.L15:
 301              		.loc 2 366 0
 302 00b4 7B89     		ldrh	r3, [r7, #10]
 303 00b6 7869     		ldr	r0, [r7, #20]
 304 00b8 1946     		mov	r1, r3
 305 00ba FFF7FEFF 		bl	inet_chksum
 306 00be 0346     		mov	r3, r0
 307 00c0 002B     		cmp	r3, #0
 308 00c2 14D0     		beq	.L16
 309              		.loc 2 371 0
 310 00c4 7868     		ldr	r0, [r7, #4]
 311 00c6 FFF7FEFF 		bl	pbuf_free
 312              		.loc 2 372 0
 313 00ca 5A4B     		ldr	r3, .L35
 314 00cc B3F85030 		ldrh	r3, [r3, #80]
 315 00d0 0133     		adds	r3, r3, #1
 316 00d2 9AB2     		uxth	r2, r3
 317 00d4 574B     		ldr	r3, .L35
 318 00d6 A3F85020 		strh	r2, [r3, #80]	@ movhi
 319              		.loc 2 373 0
 320 00da 564B     		ldr	r3, .L35
 321 00dc B3F84E30 		ldrh	r3, [r3, #78]
 322 00e0 0133     		adds	r3, r3, #1
 323 00e2 9AB2     		uxth	r2, r3
 324 00e4 534B     		ldr	r3, .L35
 325 00e6 A3F84E20 		strh	r2, [r3, #78]	@ movhi
 326              		.loc 2 375 0
 327 00ea 0023     		movs	r3, #0
 328 00ec E4E0     		b	.L13
 329              	.L16:
 330              		.loc 2 381 0
 331 00ee 3B89     		ldrh	r3, [r7, #8]
 332 00f0 7868     		ldr	r0, [r7, #4]
 333 00f2 1946     		mov	r1, r3
 334 00f4 FFF7FEFF 		bl	pbuf_realloc
 335              		.loc 2 384 0
 336 00f8 7B69     		ldr	r3, [r7, #20]
 337 00fa 1A69     		ldr	r2, [r3, #16]	@ unaligned
 338 00fc 4E4B     		ldr	r3, .L35+4
 339 00fe 1A60     		str	r2, [r3]
 340              		.loc 2 385 0
ARM GAS  C:\Users\Luis\AppData\Local\Temp\ccKPaE82.s 			page 7


 341 0100 7B69     		ldr	r3, [r7, #20]
 342 0102 DA68     		ldr	r2, [r3, #12]	@ unaligned
 343 0104 4D4B     		ldr	r3, .L35+8
 344 0106 1A60     		str	r2, [r3]
 345              	.LBB2:
 346              		.loc 2 401 0
 347 0108 0123     		movs	r3, #1
 348 010a FB60     		str	r3, [r7, #12]
 349              		.loc 2 402 0
 350 010c 3B68     		ldr	r3, [r7]
 351 010e 3B61     		str	r3, [r7, #16]
 352              	.L22:
 353              		.loc 2 411 0
 354 0110 3B69     		ldr	r3, [r7, #16]
 355 0112 93F82930 		ldrb	r3, [r3, #41]	@ zero_extendqisi2
 356 0116 03F00103 		and	r3, r3, #1
 357 011a 002B     		cmp	r3, #0
 358 011c 16D0     		beq	.L17
 359              		.loc 2 411 0 is_stmt 0 discriminator 1
 360 011e 3B69     		ldr	r3, [r7, #16]
 361 0120 0433     		adds	r3, r3, #4
 362 0122 002B     		cmp	r3, #0
 363 0124 12D0     		beq	.L17
 364 0126 3B69     		ldr	r3, [r7, #16]
 365 0128 5B68     		ldr	r3, [r3, #4]
 366 012a 002B     		cmp	r3, #0
 367 012c 0ED0     		beq	.L17
 368              		.loc 2 413 0 is_stmt 1
 369 012e 424B     		ldr	r3, .L35+4
 370 0130 1A68     		ldr	r2, [r3]
 371 0132 3B69     		ldr	r3, [r7, #16]
 372 0134 5B68     		ldr	r3, [r3, #4]
 373 0136 9A42     		cmp	r2, r3
 374 0138 1ED0     		beq	.L18
 375              		.loc 2 415 0 discriminator 1
 376 013a 3F4B     		ldr	r3, .L35+4
 377 013c 1B68     		ldr	r3, [r3]
 378 013e 1846     		mov	r0, r3
 379 0140 3969     		ldr	r1, [r7, #16]
 380 0142 FFF7FEFF 		bl	ip4_addr_isbroadcast
 381 0146 0346     		mov	r3, r0
 382              		.loc 2 413 0 discriminator 1
 383 0148 002B     		cmp	r3, #0
 384 014a 15D1     		bne	.L18
 385              	.L17:
 386              		.loc 2 433 0
 387 014c FB68     		ldr	r3, [r7, #12]
 388 014e 002B     		cmp	r3, #0
 389 0150 05D0     		beq	.L19
 390              		.loc 2 434 0
 391 0152 0023     		movs	r3, #0
 392 0154 FB60     		str	r3, [r7, #12]
 393              		.loc 2 435 0
 394 0156 3A4B     		ldr	r3, .L35+12
 395 0158 1B68     		ldr	r3, [r3]
 396 015a 3B61     		str	r3, [r7, #16]
 397 015c 02E0     		b	.L20
ARM GAS  C:\Users\Luis\AppData\Local\Temp\ccKPaE82.s 			page 8


 398              	.L19:
 399              		.loc 2 437 0
 400 015e 3B69     		ldr	r3, [r7, #16]
 401 0160 1B68     		ldr	r3, [r3]
 402 0162 3B61     		str	r3, [r7, #16]
 403              	.L20:
 404              		.loc 2 439 0
 405 0164 3A69     		ldr	r2, [r7, #16]
 406 0166 3B68     		ldr	r3, [r7]
 407 0168 9A42     		cmp	r2, r3
 408 016a 02D1     		bne	.L21
 409              		.loc 2 440 0
 410 016c 3B69     		ldr	r3, [r7, #16]
 411 016e 1B68     		ldr	r3, [r3]
 412 0170 3B61     		str	r3, [r7, #16]
 413              	.L21:
 414              		.loc 2 442 0
 415 0172 3B69     		ldr	r3, [r7, #16]
 416 0174 002B     		cmp	r3, #0
 417 0176 CBD1     		bne	.L22
 418              	.L18:
 419              	.LBE2:
 420              		.loc 2 475 0
 421 0178 304B     		ldr	r3, .L35+8
 422 017a 1B68     		ldr	r3, [r3]
 423 017c 1846     		mov	r0, r3
 424 017e 3968     		ldr	r1, [r7]
 425 0180 FFF7FEFF 		bl	ip4_addr_isbroadcast
 426 0184 0346     		mov	r3, r0
 427 0186 002B     		cmp	r3, #0
 428 0188 05D1     		bne	.L23
 429              		.loc 2 476 0 discriminator 1
 430 018a 2C4B     		ldr	r3, .L35+8
 431 018c 1B68     		ldr	r3, [r3]
 432 018e 03F0F003 		and	r3, r3, #240
 433              		.loc 2 475 0 discriminator 1
 434 0192 E02B     		cmp	r3, #224
 435 0194 0CD1     		bne	.L24
 436              	.L23:
 437              		.loc 2 480 0
 438 0196 7868     		ldr	r0, [r7, #4]
 439 0198 FFF7FEFF 		bl	pbuf_free
 440              		.loc 2 481 0
 441 019c 254B     		ldr	r3, .L35
 442 019e B3F84E30 		ldrh	r3, [r3, #78]
 443 01a2 0133     		adds	r3, r3, #1
 444 01a4 9AB2     		uxth	r2, r3
 445 01a6 234B     		ldr	r3, .L35
 446 01a8 A3F84E20 		strh	r2, [r3, #78]	@ movhi
 447              		.loc 2 484 0
 448 01ac 0023     		movs	r3, #0
 449 01ae 83E0     		b	.L13
 450              	.L24:
 451              		.loc 2 489 0
 452 01b0 3B69     		ldr	r3, [r7, #16]
 453 01b2 002B     		cmp	r3, #0
 454 01b4 04D1     		bne	.L25
ARM GAS  C:\Users\Luis\AppData\Local\Temp\ccKPaE82.s 			page 9


 455              		.loc 2 503 0
 456 01b6 7868     		ldr	r0, [r7, #4]
 457 01b8 FFF7FEFF 		bl	pbuf_free
 458              		.loc 2 504 0
 459 01bc 0023     		movs	r3, #0
 460 01be 7BE0     		b	.L13
 461              	.L25:
 462              		.loc 2 507 0
 463 01c0 7B69     		ldr	r3, [r7, #20]
 464 01c2 DB88     		ldrh	r3, [r3, #6]	@ unaligned
 465 01c4 9BB2     		uxth	r3, r3
 466 01c6 1A46     		mov	r2, r3
 467 01c8 4FF63F73 		movw	r3, #65343
 468 01cc 1340     		ands	r3, r3, r2
 469 01ce 002B     		cmp	r3, #0
 470 01d0 0BD0     		beq	.L26
 471              		.loc 2 512 0
 472 01d2 7868     		ldr	r0, [r7, #4]
 473 01d4 FFF7FEFF 		bl	ip_reass
 474 01d8 7860     		str	r0, [r7, #4]
 475              		.loc 2 514 0
 476 01da 7B68     		ldr	r3, [r7, #4]
 477 01dc 002B     		cmp	r3, #0
 478 01de 01D1     		bne	.L27
 479              		.loc 2 515 0
 480 01e0 0023     		movs	r3, #0
 481 01e2 69E0     		b	.L13
 482              	.L27:
 483              		.loc 2 517 0
 484 01e4 7B68     		ldr	r3, [r7, #4]
 485 01e6 5B68     		ldr	r3, [r3, #4]
 486 01e8 7B61     		str	r3, [r7, #20]
 487              	.L26:
 488              		.loc 2 553 0
 489 01ea 164B     		ldr	r3, .L35+16
 490 01ec 3A68     		ldr	r2, [r7]
 491 01ee 1A60     		str	r2, [r3]
 492              		.loc 2 554 0
 493 01f0 154B     		ldr	r3, .L35+20
 494 01f2 7A69     		ldr	r2, [r7, #20]
 495 01f4 1A60     		str	r2, [r3]
 496              		.loc 2 558 0
 497 01f6 7868     		ldr	r0, [r7, #4]
 498 01f8 3968     		ldr	r1, [r7]
 499 01fa FFF7FEFF 		bl	raw_input
 500 01fe 0346     		mov	r3, r0
 501 0200 002B     		cmp	r3, #0
 502 0202 4CD1     		bne	.L28
 503              		.loc 2 561 0
 504 0204 7B69     		ldr	r3, [r7, #20]
 505 0206 5B7A     		ldrb	r3, [r3, #9]	@ zero_extendqisi2
 506 0208 062B     		cmp	r3, #6
 507 020a 09D0     		beq	.L30
 508 020c 112B     		cmp	r3, #17
 509 020e 02D0     		beq	.L31
 510 0210 012B     		cmp	r3, #1
 511 0212 0AD0     		beq	.L32
ARM GAS  C:\Users\Luis\AppData\Local\Temp\ccKPaE82.s 			page 10


 512 0214 1AE0     		b	.L34
 513              	.L31:
 514              		.loc 2 568 0
 515 0216 7868     		ldr	r0, [r7, #4]
 516 0218 3968     		ldr	r1, [r7]
 517 021a FFF7FEFF 		bl	udp_input
 518              		.loc 2 569 0
 519 021e 3EE0     		b	.L28
 520              	.L30:
 521              		.loc 2 574 0
 522 0220 7868     		ldr	r0, [r7, #4]
 523 0222 3968     		ldr	r1, [r7]
 524 0224 FFF7FEFF 		bl	tcp_input
 525              		.loc 2 575 0
 526 0228 39E0     		b	.L28
 527              	.L32:
 528              		.loc 2 580 0
 529 022a 7868     		ldr	r0, [r7, #4]
 530 022c 3968     		ldr	r1, [r7]
 531 022e FFF7FEFF 		bl	icmp_input
 532              		.loc 2 581 0
 533 0232 34E0     		b	.L28
 534              	.L36:
 535              		.align	2
 536              	.L35:
 537 0234 00000000 		.word	lwip_stats
 538 0238 00000000 		.word	current_iphdr_dest
 539 023c 00000000 		.word	current_iphdr_src
 540 0240 00000000 		.word	netif_list
 541 0244 00000000 		.word	current_netif
 542 0248 00000000 		.word	current_header
 543              	.L34:
 544              		.loc 2 591 0
 545 024c 1D4B     		ldr	r3, .L37
 546 024e 1B68     		ldr	r3, [r3]
 547 0250 1846     		mov	r0, r3
 548 0252 3968     		ldr	r1, [r7]
 549 0254 FFF7FEFF 		bl	ip4_addr_isbroadcast
 550 0258 0346     		mov	r3, r0
 551 025a 002B     		cmp	r3, #0
 552 025c 0CD1     		bne	.L33
 553              		.loc 2 592 0 discriminator 1
 554 025e 194B     		ldr	r3, .L37
 555 0260 1B68     		ldr	r3, [r3]
 556 0262 03F0F003 		and	r3, r3, #240
 557              		.loc 2 591 0 discriminator 1
 558 0266 E02B     		cmp	r3, #224
 559 0268 06D0     		beq	.L33
 560              		.loc 2 593 0
 561 026a 7B68     		ldr	r3, [r7, #4]
 562 026c 7A69     		ldr	r2, [r7, #20]
 563 026e 5A60     		str	r2, [r3, #4]
 564              		.loc 2 594 0
 565 0270 7868     		ldr	r0, [r7, #4]
 566 0272 0221     		movs	r1, #2
 567 0274 FFF7FEFF 		bl	icmp_dest_unreach
 568              	.L33:
ARM GAS  C:\Users\Luis\AppData\Local\Temp\ccKPaE82.s 			page 11


 569              		.loc 2 597 0
 570 0278 7868     		ldr	r0, [r7, #4]
 571 027a FFF7FEFF 		bl	pbuf_free
 572              		.loc 2 601 0
 573 027e 124B     		ldr	r3, .L37+4
 574 0280 B3F85830 		ldrh	r3, [r3, #88]
 575 0284 0133     		adds	r3, r3, #1
 576 0286 9AB2     		uxth	r2, r3
 577 0288 0F4B     		ldr	r3, .L37+4
 578 028a A3F85820 		strh	r2, [r3, #88]	@ movhi
 579              		.loc 2 602 0
 580 028e 0E4B     		ldr	r3, .L37+4
 581 0290 B3F84E30 		ldrh	r3, [r3, #78]
 582 0294 0133     		adds	r3, r3, #1
 583 0296 9AB2     		uxth	r2, r3
 584 0298 0B4B     		ldr	r3, .L37+4
 585 029a A3F84E20 		strh	r2, [r3, #78]	@ movhi
 586              	.L28:
 587              		.loc 2 607 0
 588 029e 0B4B     		ldr	r3, .L37+8
 589 02a0 0022     		movs	r2, #0
 590 02a2 1A60     		str	r2, [r3]
 591              		.loc 2 608 0
 592 02a4 0A4B     		ldr	r3, .L37+12
 593 02a6 0022     		movs	r2, #0
 594 02a8 1A60     		str	r2, [r3]
 595              		.loc 2 609 0
 596 02aa 0A4B     		ldr	r3, .L37+16
 597 02ac 0022     		movs	r2, #0
 598 02ae 1A60     		str	r2, [r3]
 599              		.loc 2 610 0
 600 02b0 044B     		ldr	r3, .L37
 601 02b2 0022     		movs	r2, #0
 602 02b4 1A60     		str	r2, [r3]
 603              		.loc 2 612 0
 604 02b6 0023     		movs	r3, #0
 605              	.L13:
 606 02b8 5BB2     		sxtb	r3, r3
 607              		.loc 2 613 0
 608 02ba 1846     		mov	r0, r3
 609 02bc 1837     		adds	r7, r7, #24
 610 02be BD46     		mov	sp, r7
 611              		@ sp needed
 612 02c0 80BD     		pop	{r7, pc}
 613              	.L38:
 614 02c2 00BF     		.align	2
 615              	.L37:
 616 02c4 00000000 		.word	current_iphdr_dest
 617 02c8 00000000 		.word	lwip_stats
 618 02cc 00000000 		.word	current_netif
 619 02d0 00000000 		.word	current_header
 620 02d4 00000000 		.word	current_iphdr_src
 621              		.cfi_endproc
 622              	.LFE261:
 623              		.size	ip_input, .-ip_input
 624 02d8 AFF30080 		.section	.rodata
 624      AFF30080 
ARM GAS  C:\Users\Luis\AppData\Local\Temp\ccKPaE82.s 			page 12


 625              		.align	2
 626              	.LC0:
 627 0000 702D3E72 		.ascii	"p->ref == 1\000"
 627      6566203D 
 627      3D203100 
 628              		.align	2
 629              	.LC1:
 630 000c 63686563 		.ascii	"check that first pbuf can hold struct ip_hdr\000"
 630      6B207468 
 630      61742066 
 630      69727374 
 630      20706275 
 631 0039 000000   		.section	.text.ip_output_if,"ax",%progbits
 632              		.align	2
 633              		.p2align 4,,15
 634              		.global	ip_output_if
 635              		.thumb
 636              		.thumb_func
 637              		.type	ip_output_if, %function
 638              	ip_output_if:
 639              	.LFB262:
 640              		.loc 2 644 0
 641              		.cfi_startproc
 642              		@ args = 12, pretend = 0, frame = 32
 643              		@ frame_needed = 1, uses_anonymous_args = 0
 644 0000 80B5     		push	{r7, lr}
 645              		.cfi_def_cfa_offset 8
 646              		.cfi_offset 7, -8
 647              		.cfi_offset 14, -4
 648 0002 88B0     		sub	sp, sp, #32
 649              		.cfi_def_cfa_offset 40
 650 0004 00AF     		add	r7, sp, #0
 651              		.cfi_def_cfa_register 7
 652 0006 F860     		str	r0, [r7, #12]
 653 0008 B960     		str	r1, [r7, #8]
 654 000a 7A60     		str	r2, [r7, #4]
 655 000c FB70     		strb	r3, [r7, #3]
 656              		.loc 2 663 0
 657 000e 0023     		movs	r3, #0
 658 0010 FB61     		str	r3, [r7, #28]
 659              		.loc 2 668 0
 660 0012 FB68     		ldr	r3, [r7, #12]
 661 0014 DB89     		ldrh	r3, [r3, #14]
 662 0016 012B     		cmp	r3, #1
 663 0018 02D0     		beq	.L40
 664              		.loc 2 668 0 is_stmt 0 discriminator 1
 665 001a 6F48     		ldr	r0, .L51
 666 001c FFF7FEFF 		bl	osalSysHalt
 667              	.L40:
 668              		.loc 2 673 0 is_stmt 1
 669 0020 7B68     		ldr	r3, [r7, #4]
 670 0022 002B     		cmp	r3, #0
 671 0024 00F0AA80 		beq	.L41
 672              	.LBB3:
 673              		.loc 2 674 0
 674 0028 1423     		movs	r3, #20
 675 002a 7B83     		strh	r3, [r7, #26]	@ movhi
ARM GAS  C:\Users\Luis\AppData\Local\Temp\ccKPaE82.s 			page 13


 676              		.loc 2 704 0
 677 002c F868     		ldr	r0, [r7, #12]
 678 002e 1421     		movs	r1, #20
 679 0030 FFF7FEFF 		bl	pbuf_header
 680 0034 0346     		mov	r3, r0
 681 0036 002B     		cmp	r3, #0
 682 0038 09D0     		beq	.L42
 683              		.loc 2 707 0
 684 003a 684B     		ldr	r3, .L51+4
 685 003c B3F85C30 		ldrh	r3, [r3, #92]
 686 0040 0133     		adds	r3, r3, #1
 687 0042 9AB2     		uxth	r2, r3
 688 0044 654B     		ldr	r3, .L51+4
 689 0046 A3F85C20 		strh	r2, [r3, #92]	@ movhi
 690              		.loc 2 709 0
 691 004a FE23     		movs	r3, #254
 692 004c BFE0     		b	.L50
 693              	.L42:
 694              		.loc 2 712 0
 695 004e FB68     		ldr	r3, [r7, #12]
 696 0050 5B68     		ldr	r3, [r3, #4]
 697 0052 7B61     		str	r3, [r7, #20]
 698              		.loc 2 713 0
 699 0054 FB68     		ldr	r3, [r7, #12]
 700 0056 5B89     		ldrh	r3, [r3, #10]
 701 0058 132B     		cmp	r3, #19
 702 005a 02D8     		bhi	.L44
 703              		.loc 2 713 0 is_stmt 0 discriminator 1
 704 005c 6048     		ldr	r0, .L51+8
 705 005e FFF7FEFF 		bl	osalSysHalt
 706              	.L44:
 707              		.loc 2 716 0 is_stmt 1
 708 0062 7B69     		ldr	r3, [r7, #20]
 709 0064 FA78     		ldrb	r2, [r7, #3]
 710 0066 1A72     		strb	r2, [r3, #8]
 711              		.loc 2 717 0
 712 0068 7B69     		ldr	r3, [r7, #20]
 713 006a 97F82C20 		ldrb	r2, [r7, #44]
 714 006e 5A72     		strb	r2, [r3, #9]
 715              		.loc 2 719 0
 716 0070 97F82C30 		ldrb	r3, [r7, #44]	@ zero_extendqisi2
 717 0074 1A02     		lsls	r2, r3, #8
 718 0076 FB78     		ldrb	r3, [r7, #3]	@ zero_extendqisi2
 719 0078 1343     		orrs	r3, r3, r2
 720 007a FA69     		ldr	r2, [r7, #28]
 721 007c 1344     		add	r3, r3, r2
 722 007e FB61     		str	r3, [r7, #28]
 723              		.loc 2 723 0
 724 0080 7B68     		ldr	r3, [r7, #4]
 725 0082 1A68     		ldr	r2, [r3]
 726 0084 7B69     		ldr	r3, [r7, #20]
 727 0086 1A61     		str	r2, [r3, #16]	@ unaligned
 728              		.loc 2 725 0
 729 0088 7B69     		ldr	r3, [r7, #20]
 730 008a 1B69     		ldr	r3, [r3, #16]	@ unaligned
 731 008c 9BB2     		uxth	r3, r3
 732 008e FA69     		ldr	r2, [r7, #28]
ARM GAS  C:\Users\Luis\AppData\Local\Temp\ccKPaE82.s 			page 14


 733 0090 1344     		add	r3, r3, r2
 734 0092 FB61     		str	r3, [r7, #28]
 735              		.loc 2 726 0
 736 0094 7B69     		ldr	r3, [r7, #20]
 737 0096 1B69     		ldr	r3, [r3, #16]	@ unaligned
 738 0098 1B0C     		lsrs	r3, r3, #16
 739 009a FA69     		ldr	r2, [r7, #28]
 740 009c 1344     		add	r3, r3, r2
 741 009e FB61     		str	r3, [r7, #28]
 742              		.loc 2 729 0
 743 00a0 7B8B     		ldrh	r3, [r7, #26]
 744 00a2 9B08     		lsrs	r3, r3, #2
 745 00a4 9BB2     		uxth	r3, r3
 746 00a6 DBB2     		uxtb	r3, r3
 747 00a8 43F04003 		orr	r3, r3, #64
 748 00ac DAB2     		uxtb	r2, r3
 749 00ae 7B69     		ldr	r3, [r7, #20]
 750 00b0 1A70     		strb	r2, [r3]
 751              		.loc 2 730 0
 752 00b2 7B69     		ldr	r3, [r7, #20]
 753 00b4 97F82820 		ldrb	r2, [r7, #40]
 754 00b8 5A70     		strb	r2, [r3, #1]
 755              		.loc 2 732 0
 756 00ba 97F82830 		ldrb	r3, [r7, #40]	@ zero_extendqisi2
 757 00be 1A02     		lsls	r2, r3, #8
 758 00c0 7B69     		ldr	r3, [r7, #20]
 759 00c2 1B78     		ldrb	r3, [r3]	@ zero_extendqisi2
 760 00c4 1343     		orrs	r3, r3, r2
 761 00c6 FA69     		ldr	r2, [r7, #28]
 762 00c8 1344     		add	r3, r3, r2
 763 00ca FB61     		str	r3, [r7, #28]
 764              		.loc 2 734 0
 765 00cc FB68     		ldr	r3, [r7, #12]
 766 00ce 1B89     		ldrh	r3, [r3, #8]
 767 00d0 1846     		mov	r0, r3
 768 00d2 FFF7FEFF 		bl	lwip_htons
 769 00d6 0346     		mov	r3, r0
 770 00d8 1A46     		mov	r2, r3
 771 00da 7B69     		ldr	r3, [r7, #20]
 772 00dc 5A80     		strh	r2, [r3, #2]	@ unaligned
 773              		.loc 2 736 0
 774 00de 7B69     		ldr	r3, [r7, #20]
 775 00e0 5B88     		ldrh	r3, [r3, #2]	@ unaligned
 776 00e2 9BB2     		uxth	r3, r3
 777 00e4 FA69     		ldr	r2, [r7, #28]
 778 00e6 1344     		add	r3, r3, r2
 779 00e8 FB61     		str	r3, [r7, #28]
 780              		.loc 2 738 0
 781 00ea 7B69     		ldr	r3, [r7, #20]
 782 00ec 0022     		movs	r2, #0
 783 00ee 9A71     		strb	r2, [r3, #6]
 784 00f0 0022     		movs	r2, #0
 785 00f2 DA71     		strb	r2, [r3, #7]
 786              		.loc 2 739 0
 787 00f4 3B4B     		ldr	r3, .L51+12
 788 00f6 1B88     		ldrh	r3, [r3]
 789 00f8 1846     		mov	r0, r3
ARM GAS  C:\Users\Luis\AppData\Local\Temp\ccKPaE82.s 			page 15


 790 00fa FFF7FEFF 		bl	lwip_htons
 791 00fe 0346     		mov	r3, r0
 792 0100 1A46     		mov	r2, r3
 793 0102 7B69     		ldr	r3, [r7, #20]
 794 0104 9A80     		strh	r2, [r3, #4]	@ unaligned
 795              		.loc 2 741 0
 796 0106 7B69     		ldr	r3, [r7, #20]
 797 0108 9B88     		ldrh	r3, [r3, #4]	@ unaligned
 798 010a 9BB2     		uxth	r3, r3
 799 010c FA69     		ldr	r2, [r7, #28]
 800 010e 1344     		add	r3, r3, r2
 801 0110 FB61     		str	r3, [r7, #28]
 802              		.loc 2 743 0
 803 0112 344B     		ldr	r3, .L51+12
 804 0114 1B88     		ldrh	r3, [r3]
 805 0116 0133     		adds	r3, r3, #1
 806 0118 9AB2     		uxth	r2, r3
 807 011a 324B     		ldr	r3, .L51+12
 808 011c 1A80     		strh	r2, [r3]	@ movhi
 809              		.loc 2 745 0
 810 011e BB68     		ldr	r3, [r7, #8]
 811 0120 002B     		cmp	r3, #0
 812 0122 03D0     		beq	.L45
 813              		.loc 2 745 0 is_stmt 0 discriminator 1
 814 0124 BB68     		ldr	r3, [r7, #8]
 815 0126 1B68     		ldr	r3, [r3]
 816 0128 002B     		cmp	r3, #0
 817 012a 04D1     		bne	.L46
 818              	.L45:
 819              		.loc 2 746 0 is_stmt 1
 820 012c 3B6B     		ldr	r3, [r7, #48]
 821 012e 5A68     		ldr	r2, [r3, #4]
 822 0130 7B69     		ldr	r3, [r7, #20]
 823 0132 DA60     		str	r2, [r3, #12]	@ unaligned
 824 0134 03E0     		b	.L47
 825              	.L46:
 826              		.loc 2 749 0
 827 0136 BB68     		ldr	r3, [r7, #8]
 828 0138 1A68     		ldr	r2, [r3]
 829 013a 7B69     		ldr	r3, [r7, #20]
 830 013c DA60     		str	r2, [r3, #12]	@ unaligned
 831              	.L47:
 832              		.loc 2 753 0
 833 013e 7B69     		ldr	r3, [r7, #20]
 834 0140 DB68     		ldr	r3, [r3, #12]	@ unaligned
 835 0142 9BB2     		uxth	r3, r3
 836 0144 FA69     		ldr	r2, [r7, #28]
 837 0146 1344     		add	r3, r3, r2
 838 0148 FB61     		str	r3, [r7, #28]
 839              		.loc 2 754 0
 840 014a 7B69     		ldr	r3, [r7, #20]
 841 014c DB68     		ldr	r3, [r3, #12]	@ unaligned
 842 014e 1B0C     		lsrs	r3, r3, #16
 843 0150 FA69     		ldr	r2, [r7, #28]
 844 0152 1344     		add	r3, r3, r2
 845 0154 FB61     		str	r3, [r7, #28]
 846              		.loc 2 755 0
ARM GAS  C:\Users\Luis\AppData\Local\Temp\ccKPaE82.s 			page 16


 847 0156 FB69     		ldr	r3, [r7, #28]
 848 0158 1A0C     		lsrs	r2, r3, #16
 849 015a FB69     		ldr	r3, [r7, #28]
 850 015c 9BB2     		uxth	r3, r3
 851 015e 1344     		add	r3, r3, r2
 852 0160 FB61     		str	r3, [r7, #28]
 853              		.loc 2 756 0
 854 0162 FB69     		ldr	r3, [r7, #28]
 855 0164 1B0C     		lsrs	r3, r3, #16
 856 0166 FA69     		ldr	r2, [r7, #28]
 857 0168 1344     		add	r3, r3, r2
 858 016a FB61     		str	r3, [r7, #28]
 859              		.loc 2 757 0
 860 016c FB69     		ldr	r3, [r7, #28]
 861 016e DB43     		mvns	r3, r3
 862 0170 FB61     		str	r3, [r7, #28]
 863              		.loc 2 758 0
 864 0172 FB69     		ldr	r3, [r7, #28]
 865 0174 9AB2     		uxth	r2, r3
 866 0176 7B69     		ldr	r3, [r7, #20]
 867 0178 5A81     		strh	r2, [r3, #10]	@ unaligned
 868              	.LBE3:
 869 017a 08E0     		b	.L48
 870              	.L41:
 871              		.loc 2 767 0
 872 017c FB68     		ldr	r3, [r7, #12]
 873 017e 5B68     		ldr	r3, [r3, #4]
 874 0180 7B61     		str	r3, [r7, #20]
 875              		.loc 2 768 0
 876 0182 7B69     		ldr	r3, [r7, #20]
 877 0184 1B69     		ldr	r3, [r3, #16]	@ unaligned
 878 0186 3B61     		str	r3, [r7, #16]
 879              		.loc 2 769 0
 880 0188 07F11003 		add	r3, r7, #16
 881 018c 7B60     		str	r3, [r7, #4]
 882              	.L48:
 883              		.loc 2 772 0
 884 018e 134B     		ldr	r3, .L51+4
 885 0190 B3F84830 		ldrh	r3, [r3, #72]
 886 0194 0133     		adds	r3, r3, #1
 887 0196 9AB2     		uxth	r2, r3
 888 0198 104B     		ldr	r3, .L51+4
 889 019a A3F84820 		strh	r2, [r3, #72]	@ movhi
 890              		.loc 2 791 0
 891 019e 3B6B     		ldr	r3, [r7, #48]
 892 01a0 1B8C     		ldrh	r3, [r3, #32]
 893 01a2 002B     		cmp	r3, #0
 894 01a4 0CD0     		beq	.L49
 895              		.loc 2 791 0 is_stmt 0 discriminator 1
 896 01a6 FB68     		ldr	r3, [r7, #12]
 897 01a8 1A89     		ldrh	r2, [r3, #8]
 898 01aa 3B6B     		ldr	r3, [r7, #48]
 899 01ac 1B8C     		ldrh	r3, [r3, #32]
 900 01ae 9A42     		cmp	r2, r3
 901 01b0 06D9     		bls	.L49
 902              		.loc 2 792 0 is_stmt 1
 903 01b2 F868     		ldr	r0, [r7, #12]
ARM GAS  C:\Users\Luis\AppData\Local\Temp\ccKPaE82.s 			page 17


 904 01b4 396B     		ldr	r1, [r7, #48]
 905 01b6 7A68     		ldr	r2, [r7, #4]
 906 01b8 FFF7FEFF 		bl	ip_frag
 907 01bc 0346     		mov	r3, r0
 908 01be 06E0     		b	.L50
 909              	.L49:
 910              		.loc 2 797 0
 911 01c0 3B6B     		ldr	r3, [r7, #48]
 912 01c2 5B69     		ldr	r3, [r3, #20]
 913 01c4 386B     		ldr	r0, [r7, #48]
 914 01c6 F968     		ldr	r1, [r7, #12]
 915 01c8 7A68     		ldr	r2, [r7, #4]
 916 01ca 9847     		blx	r3
 917 01cc 0346     		mov	r3, r0
 918              	.L50:
 919 01ce 5BB2     		sxtb	r3, r3
 920              		.loc 2 798 0
 921 01d0 1846     		mov	r0, r3
 922 01d2 2037     		adds	r7, r7, #32
 923 01d4 BD46     		mov	sp, r7
 924              		@ sp needed
 925 01d6 80BD     		pop	{r7, pc}
 926              	.L52:
 927              		.align	2
 928              	.L51:
 929 01d8 00000000 		.word	.LC0
 930 01dc 00000000 		.word	lwip_stats
 931 01e0 0C000000 		.word	.LC1
 932 01e4 00000000 		.word	ip_id
 933              		.cfi_endproc
 934              	.LFE262:
 935              		.size	ip_output_if, .-ip_output_if
 936 01e8 AFF30080 		.section	.text.ip_output,"ax",%progbits
 936      AFF30080 
 937              		.align	2
 938              		.p2align 4,,15
 939              		.global	ip_output
 940              		.thumb
 941              		.thumb_func
 942              		.type	ip_output, %function
 943              	ip_output:
 944              	.LFB263:
 945              		.loc 2 820 0
 946              		.cfi_startproc
 947              		@ args = 8, pretend = 0, frame = 24
 948              		@ frame_needed = 1, uses_anonymous_args = 0
 949 0000 80B5     		push	{r7, lr}
 950              		.cfi_def_cfa_offset 8
 951              		.cfi_offset 7, -8
 952              		.cfi_offset 14, -4
 953 0002 8AB0     		sub	sp, sp, #40
 954              		.cfi_def_cfa_offset 48
 955 0004 04AF     		add	r7, sp, #16
 956              		.cfi_def_cfa 7, 32
 957 0006 F860     		str	r0, [r7, #12]
 958 0008 B960     		str	r1, [r7, #8]
 959 000a 7A60     		str	r2, [r7, #4]
ARM GAS  C:\Users\Luis\AppData\Local\Temp\ccKPaE82.s 			page 18


 960 000c FB70     		strb	r3, [r7, #3]
 961              		.loc 2 825 0
 962 000e FB68     		ldr	r3, [r7, #12]
 963 0010 DB89     		ldrh	r3, [r3, #14]
 964 0012 012B     		cmp	r3, #1
 965 0014 02D0     		beq	.L54
 966              		.loc 2 825 0 is_stmt 0 discriminator 1
 967 0016 1448     		ldr	r0, .L57
 968 0018 FFF7FEFF 		bl	osalSysHalt
 969              	.L54:
 970              		.loc 2 827 0 is_stmt 1
 971 001c 7868     		ldr	r0, [r7, #4]
 972 001e FFF7FEFF 		bl	ip_route
 973 0022 7861     		str	r0, [r7, #20]
 974 0024 7B69     		ldr	r3, [r7, #20]
 975 0026 002B     		cmp	r3, #0
 976 0028 09D1     		bne	.L55
 977              		.loc 2 830 0
 978 002a 104B     		ldr	r3, .L57+4
 979 002c B3F85630 		ldrh	r3, [r3, #86]
 980 0030 0133     		adds	r3, r3, #1
 981 0032 9AB2     		uxth	r2, r3
 982 0034 0D4B     		ldr	r3, .L57+4
 983 0036 A3F85620 		strh	r2, [r3, #86]	@ movhi
 984              		.loc 2 831 0
 985 003a FC23     		movs	r3, #252
 986 003c 0EE0     		b	.L56
 987              	.L55:
 988              		.loc 2 834 0
 989 003e FB78     		ldrb	r3, [r7, #3]	@ zero_extendqisi2
 990 0040 97F82020 		ldrb	r2, [r7, #32]	@ zero_extendqisi2
 991 0044 0092     		str	r2, [sp]
 992 0046 97F82420 		ldrb	r2, [r7, #36]	@ zero_extendqisi2
 993 004a 0192     		str	r2, [sp, #4]
 994 004c 7A69     		ldr	r2, [r7, #20]
 995 004e 0292     		str	r2, [sp, #8]
 996 0050 F868     		ldr	r0, [r7, #12]
 997 0052 B968     		ldr	r1, [r7, #8]
 998 0054 7A68     		ldr	r2, [r7, #4]
 999 0056 FFF7FEFF 		bl	ip_output_if
 1000 005a 0346     		mov	r3, r0
 1001              	.L56:
 1002 005c 5BB2     		sxtb	r3, r3
 1003              		.loc 2 835 0
 1004 005e 1846     		mov	r0, r3
 1005 0060 1837     		adds	r7, r7, #24
 1006 0062 BD46     		mov	sp, r7
 1007              		@ sp needed
 1008 0064 80BD     		pop	{r7, pc}
 1009              	.L58:
 1010 0066 00BF     		.align	2
 1011              	.L57:
 1012 0068 00000000 		.word	.LC0
 1013 006c 00000000 		.word	lwip_stats
 1014              		.cfi_endproc
 1015              	.LFE263:
 1016              		.size	ip_output, .-ip_output
ARM GAS  C:\Users\Luis\AppData\Local\Temp\ccKPaE82.s 			page 19


 1017              		.text
 1018              	.Letext0:
 1019              		.file 3 "c:\\emtechesdk\\gcc\\lib\\gcc\\arm-none-eabi\\4.8.3\\include\\stddef.h"
 1020              		.file 4 "c:\\emtechesdk\\gcc\\arm-none-eabi\\include\\stdint.h"
 1021              		.file 5 "../../ChibiOS/os/rt/ports/ARMCMx/compilers/GCC/chtypes.h"
 1022              		.file 6 "../../ChibiOS/os/rt/include/chsystypes.h"
 1023              		.file 7 "../../ChibiOS/os/rt/include/chschd.h"
 1024              		.file 8 "../../ChibiOS/os/rt/ports/ARMCMx/chcore.h"
 1025              		.file 9 "../../ChibiOS/os/rt/ports/ARMCMx/chcore_v7m.h"
 1026              		.file 10 "../../ChibiOS/os/rt/include/chdebug.h"
 1027              		.file 11 "../../ChibiOS/os/rt/include/chtm.h"
 1028              		.file 12 "../../ChibiOS/os/rt/include/chstats.h"
 1029              		.file 13 "../../ChibiOS/os/rt/include/chsem.h"
 1030              		.file 14 "../../ChibiOS/os/rt/include/chmtx.h"
 1031              		.file 15 "../../ChibiOS/os/various/lwip_bindings/arch/cc.h"
 1032              		.file 16 "../../ChibiOS/ext/lwip/src/include/lwip/err.h"
 1033              		.file 17 "../../ChibiOS/ext/lwip/src/include/lwip/pbuf.h"
 1034              		.file 18 "../../ChibiOS/ext/lwip/src/include/ipv4/lwip/ip_addr.h"
 1035              		.file 19 "../../ChibiOS/ext/lwip/src/include/lwip/netif.h"
 1036              		.file 20 "../../ChibiOS/ext/lwip/src/include/ipv4/lwip/ip.h"
 1037              		.file 21 "../../ChibiOS/ext/lwip/src/include/lwip/mem.h"
 1038              		.file 22 "../../ChibiOS/ext/lwip/src/include/lwip/stats.h"
 1039              		.file 23 "../../ChibiOS/os/ext/CMSIS/include/core_cm4.h"
 1040              		.file 24 "../../ChibiOS/ext/lwip/src/include/ipv4/lwip/icmp.h"
 1041              		.file 25 "../../ChibiOS/ext/lwip/src/include/lwip/memp.h"
 1042              		.section	.debug_info,"",%progbits
 1043              	.Ldebug_info0:
 1044 0000 BF0F0000 		.4byte	0xfbf
 1045 0004 0400     		.2byte	0x4
 1046 0006 00000000 		.4byte	.Ldebug_abbrev0
 1047 000a 04       		.byte	0x4
 1048 000b 01       		.uleb128 0x1
 1049 000c 01010000 		.4byte	.LASF235
 1050 0010 01       		.byte	0x1
 1051 0011 FF090000 		.4byte	.LASF236
 1052 0015 21040000 		.4byte	.LASF237
 1053 0019 00000000 		.4byte	.Ldebug_ranges0+0
 1054 001d 00000000 		.4byte	0
 1055 0021 00000000 		.4byte	.Ldebug_line0
 1056 0025 02       		.uleb128 0x2
 1057 0026 04       		.byte	0x4
 1058 0027 05       		.byte	0x5
 1059 0028 696E7400 		.ascii	"int\000"
 1060 002c 03       		.uleb128 0x3
 1061 002d C8060000 		.4byte	.LASF1
 1062 0031 03       		.byte	0x3
 1063 0032 D4       		.byte	0xd4
 1064 0033 37000000 		.4byte	0x37
 1065 0037 04       		.uleb128 0x4
 1066 0038 04       		.byte	0x4
 1067 0039 07       		.byte	0x7
 1068 003a 92000000 		.4byte	.LASF0
 1069 003e 03       		.uleb128 0x3
 1070 003f A2040000 		.4byte	.LASF2
 1071 0043 04       		.byte	0x4
 1072 0044 29       		.byte	0x29
 1073 0045 49000000 		.4byte	0x49
ARM GAS  C:\Users\Luis\AppData\Local\Temp\ccKPaE82.s 			page 20


 1074 0049 04       		.uleb128 0x4
 1075 004a 01       		.byte	0x1
 1076 004b 06       		.byte	0x6
 1077 004c 93090000 		.4byte	.LASF3
 1078 0050 03       		.uleb128 0x3
 1079 0051 3F050000 		.4byte	.LASF4
 1080 0055 04       		.byte	0x4
 1081 0056 2A       		.byte	0x2a
 1082 0057 5B000000 		.4byte	0x5b
 1083 005b 04       		.uleb128 0x4
 1084 005c 01       		.byte	0x1
 1085 005d 08       		.byte	0x8
 1086 005e BF080000 		.4byte	.LASF5
 1087 0062 04       		.uleb128 0x4
 1088 0063 02       		.byte	0x2
 1089 0064 05       		.byte	0x5
 1090 0065 18070000 		.4byte	.LASF6
 1091 0069 03       		.uleb128 0x3
 1092 006a AC060000 		.4byte	.LASF7
 1093 006e 04       		.byte	0x4
 1094 006f 36       		.byte	0x36
 1095 0070 74000000 		.4byte	0x74
 1096 0074 04       		.uleb128 0x4
 1097 0075 02       		.byte	0x2
 1098 0076 07       		.byte	0x7
 1099 0077 9F090000 		.4byte	.LASF8
 1100 007b 03       		.uleb128 0x3
 1101 007c 6E080000 		.4byte	.LASF9
 1102 0080 04       		.byte	0x4
 1103 0081 4F       		.byte	0x4f
 1104 0082 86000000 		.4byte	0x86
 1105 0086 04       		.uleb128 0x4
 1106 0087 04       		.byte	0x4
 1107 0088 05       		.byte	0x5
 1108 0089 44070000 		.4byte	.LASF10
 1109 008d 03       		.uleb128 0x3
 1110 008e 7A020000 		.4byte	.LASF11
 1111 0092 04       		.byte	0x4
 1112 0093 50       		.byte	0x50
 1113 0094 98000000 		.4byte	0x98
 1114 0098 04       		.uleb128 0x4
 1115 0099 04       		.byte	0x4
 1116 009a 07       		.byte	0x7
 1117 009b 45080000 		.4byte	.LASF12
 1118 009f 04       		.uleb128 0x4
 1119 00a0 08       		.byte	0x8
 1120 00a1 05       		.byte	0x5
 1121 00a2 16050000 		.4byte	.LASF13
 1122 00a6 03       		.uleb128 0x3
 1123 00a7 4E090000 		.4byte	.LASF14
 1124 00ab 04       		.byte	0x4
 1125 00ac 78       		.byte	0x78
 1126 00ad B1000000 		.4byte	0xb1
 1127 00b1 04       		.uleb128 0x4
 1128 00b2 08       		.byte	0x8
 1129 00b3 07       		.byte	0x7
 1130 00b4 2A030000 		.4byte	.LASF15
ARM GAS  C:\Users\Luis\AppData\Local\Temp\ccKPaE82.s 			page 21


 1131 00b8 05       		.uleb128 0x5
 1132 00b9 7B000000 		.4byte	0x7b
 1133 00bd 03       		.uleb128 0x3
 1134 00be D5060000 		.4byte	.LASF16
 1135 00c2 05       		.byte	0x5
 1136 00c3 45       		.byte	0x45
 1137 00c4 8D000000 		.4byte	0x8d
 1138 00c8 03       		.uleb128 0x3
 1139 00c9 DD040000 		.4byte	.LASF17
 1140 00cd 05       		.byte	0x5
 1141 00ce 46       		.byte	0x46
 1142 00cf A6000000 		.4byte	0xa6
 1143 00d3 03       		.uleb128 0x3
 1144 00d4 92060000 		.4byte	.LASF18
 1145 00d8 05       		.byte	0x5
 1146 00d9 48       		.byte	0x48
 1147 00da 50000000 		.4byte	0x50
 1148 00de 03       		.uleb128 0x3
 1149 00df 07050000 		.4byte	.LASF19
 1150 00e3 05       		.byte	0x5
 1151 00e4 49       		.byte	0x49
 1152 00e5 50000000 		.4byte	0x50
 1153 00e9 03       		.uleb128 0x3
 1154 00ea 3D080000 		.4byte	.LASF20
 1155 00ee 05       		.byte	0x5
 1156 00ef 4A       		.byte	0x4a
 1157 00f0 50000000 		.4byte	0x50
 1158 00f4 03       		.uleb128 0x3
 1159 00f5 F4020000 		.4byte	.LASF21
 1160 00f9 05       		.byte	0x5
 1161 00fa 4C       		.byte	0x4c
 1162 00fb 8D000000 		.4byte	0x8d
 1163 00ff 03       		.uleb128 0x3
 1164 0100 D0050000 		.4byte	.LASF22
 1165 0104 05       		.byte	0x5
 1166 0105 4D       		.byte	0x4d
 1167 0106 7B000000 		.4byte	0x7b
 1168 010a 03       		.uleb128 0x3
 1169 010b 9F020000 		.4byte	.LASF23
 1170 010f 05       		.byte	0x5
 1171 0110 4F       		.byte	0x4f
 1172 0111 8D000000 		.4byte	0x8d
 1173 0115 03       		.uleb128 0x3
 1174 0116 CA050000 		.4byte	.LASF24
 1175 011a 05       		.byte	0x5
 1176 011b 51       		.byte	0x51
 1177 011c 7B000000 		.4byte	0x7b
 1178 0120 03       		.uleb128 0x3
 1179 0121 9A060000 		.4byte	.LASF25
 1180 0125 05       		.byte	0x5
 1181 0126 52       		.byte	0x52
 1182 0127 8D000000 		.4byte	0x8d
 1183 012b 03       		.uleb128 0x3
 1184 012c 5E000000 		.4byte	.LASF26
 1185 0130 06       		.byte	0x6
 1186 0131 33       		.byte	0x33
 1187 0132 8D000000 		.4byte	0x8d
ARM GAS  C:\Users\Luis\AppData\Local\Temp\ccKPaE82.s 			page 22


 1188 0136 03       		.uleb128 0x3
 1189 0137 EA030000 		.4byte	.LASF27
 1190 013b 06       		.byte	0x6
 1191 013c 3F       		.byte	0x3f
 1192 013d 41010000 		.4byte	0x141
 1193 0141 06       		.uleb128 0x6
 1194 0142 6B050000 		.4byte	.LASF50
 1195 0146 68       		.byte	0x68
 1196 0147 07       		.byte	0x7
 1197 0148 C2       		.byte	0xc2
 1198 0149 54020000 		.4byte	0x254
 1199 014d 07       		.uleb128 0x7
 1200 014e AD070000 		.4byte	.LASF28
 1201 0152 07       		.byte	0x7
 1202 0153 C3       		.byte	0xc3
 1203 0154 5F020000 		.4byte	0x25f
 1204 0158 00       		.byte	0
 1205 0159 07       		.uleb128 0x7
 1206 015a 28080000 		.4byte	.LASF29
 1207 015e 07       		.byte	0x7
 1208 015f C5       		.byte	0xc5
 1209 0160 5F020000 		.4byte	0x25f
 1210 0164 04       		.byte	0x4
 1211 0165 07       		.uleb128 0x7
 1212 0166 51000000 		.4byte	.LASF30
 1213 016a 07       		.byte	0x7
 1214 016b C7       		.byte	0xc7
 1215 016c F4000000 		.4byte	0xf4
 1216 0170 08       		.byte	0x8
 1217 0171 07       		.uleb128 0x7
 1218 0172 C1070000 		.4byte	.LASF31
 1219 0176 07       		.byte	0x7
 1220 0177 C8       		.byte	0xc8
 1221 0178 C8040000 		.4byte	0x4c8
 1222 017c 0C       		.byte	0xc
 1223 017d 07       		.uleb128 0x7
 1224 017e A1030000 		.4byte	.LASF32
 1225 0182 07       		.byte	0x7
 1226 0183 CA       		.byte	0xca
 1227 0184 5F020000 		.4byte	0x25f
 1228 0188 10       		.byte	0x10
 1229 0189 07       		.uleb128 0x7
 1230 018a 24050000 		.4byte	.LASF33
 1231 018e 07       		.byte	0x7
 1232 018f CB       		.byte	0xcb
 1233 0190 5F020000 		.4byte	0x25f
 1234 0194 14       		.byte	0x14
 1235 0195 07       		.uleb128 0x7
 1236 0196 A9040000 		.4byte	.LASF34
 1237 019a 07       		.byte	0x7
 1238 019b D2       		.byte	0xd2
 1239 019c 6C070000 		.4byte	0x76c
 1240 01a0 18       		.byte	0x18
 1241 01a1 07       		.uleb128 0x7
 1242 01a2 34050000 		.4byte	.LASF35
 1243 01a6 07       		.byte	0x7
 1244 01a7 D8       		.byte	0xd8
ARM GAS  C:\Users\Luis\AppData\Local\Temp\ccKPaE82.s 			page 23


 1245 01a8 7E070000 		.4byte	0x77e
 1246 01ac 1C       		.byte	0x1c
 1247 01ad 07       		.uleb128 0x7
 1248 01ae 63050000 		.4byte	.LASF36
 1249 01b2 07       		.byte	0x7
 1250 01b3 DD       		.byte	0xdd
 1251 01b4 DE000000 		.4byte	0xde
 1252 01b8 20       		.byte	0x20
 1253 01b9 07       		.uleb128 0x7
 1254 01ba E8050000 		.4byte	.LASF37
 1255 01be 07       		.byte	0x7
 1256 01bf E1       		.byte	0xe1
 1257 01c0 D3000000 		.4byte	0xd3
 1258 01c4 21       		.byte	0x21
 1259 01c5 07       		.uleb128 0x7
 1260 01c6 E3080000 		.4byte	.LASF38
 1261 01ca 07       		.byte	0x7
 1262 01cb E6       		.byte	0xe6
 1263 01cc E9000000 		.4byte	0xe9
 1264 01d0 22       		.byte	0x22
 1265 01d1 08       		.uleb128 0x8
 1266 01d2 705F7500 		.ascii	"p_u\000"
 1267 01d6 07       		.byte	0x7
 1268 01d7 3101     		.2byte	0x131
 1269 01d9 A7060000 		.4byte	0x6a7
 1270 01dd 24       		.byte	0x24
 1271 01de 09       		.uleb128 0x9
 1272 01df DC000000 		.4byte	.LASF39
 1273 01e3 07       		.byte	0x7
 1274 01e4 3601     		.2byte	0x136
 1275 01e6 65020000 		.4byte	0x265
 1276 01ea 28       		.byte	0x28
 1277 01eb 09       		.uleb128 0x9
 1278 01ec 87000000 		.4byte	.LASF40
 1279 01f0 07       		.byte	0x7
 1280 01f1 3C01     		.2byte	0x13c
 1281 01f3 89020000 		.4byte	0x289
 1282 01f7 2C       		.byte	0x2c
 1283 01f8 09       		.uleb128 0x9
 1284 01f9 72060000 		.4byte	.LASF41
 1285 01fd 07       		.byte	0x7
 1286 01fe 4001     		.2byte	0x140
 1287 0200 FF000000 		.4byte	0xff
 1288 0204 34       		.byte	0x34
 1289 0205 09       		.uleb128 0x9
 1290 0206 31070000 		.4byte	.LASF42
 1291 020a 07       		.byte	0x7
 1292 020b 4601     		.2byte	0x146
 1293 020d 0A010000 		.4byte	0x10a
 1294 0211 38       		.byte	0x38
 1295 0212 09       		.uleb128 0x9
 1296 0213 57080000 		.4byte	.LASF43
 1297 0217 07       		.byte	0x7
 1298 0218 4D01     		.2byte	0x14d
 1299 021a 66070000 		.4byte	0x766
 1300 021e 3C       		.byte	0x3c
 1301 021f 09       		.uleb128 0x9
ARM GAS  C:\Users\Luis\AppData\Local\Temp\ccKPaE82.s 			page 24


 1302 0220 07070000 		.4byte	.LASF44
 1303 0224 07       		.byte	0x7
 1304 0225 5101     		.2byte	0x151
 1305 0227 F4000000 		.4byte	0xf4
 1306 022b 40       		.byte	0x40
 1307 022c 09       		.uleb128 0x9
 1308 022d 54050000 		.4byte	.LASF45
 1309 0231 07       		.byte	0x7
 1310 0232 5801     		.2byte	0x158
 1311 0234 3C030000 		.4byte	0x33c
 1312 0238 44       		.byte	0x44
 1313 0239 09       		.uleb128 0x9
 1314 023a 4C050000 		.4byte	.LASF46
 1315 023e 07       		.byte	0x7
 1316 023f 5E01     		.2byte	0x15e
 1317 0241 58060000 		.4byte	0x658
 1318 0245 48       		.byte	0x48
 1319 0246 09       		.uleb128 0x9
 1320 0247 B8090000 		.4byte	.LASF47
 1321 024b 07       		.byte	0x7
 1322 024c 6201     		.2byte	0x162
 1323 024e 3C030000 		.4byte	0x33c
 1324 0252 60       		.byte	0x60
 1325 0253 00       		.byte	0
 1326 0254 03       		.uleb128 0x3
 1327 0255 B5060000 		.4byte	.LASF48
 1328 0259 06       		.byte	0x6
 1329 025a 44       		.byte	0x44
 1330 025b 5F020000 		.4byte	0x25f
 1331 025f 0A       		.uleb128 0xa
 1332 0260 04       		.byte	0x4
 1333 0261 36010000 		.4byte	0x136
 1334 0265 03       		.uleb128 0x3
 1335 0266 BC000000 		.4byte	.LASF49
 1336 026a 06       		.byte	0x6
 1337 026b 49       		.byte	0x49
 1338 026c 70020000 		.4byte	0x270
 1339 0270 06       		.uleb128 0x6
 1340 0271 BA040000 		.4byte	.LASF51
 1341 0275 04       		.byte	0x4
 1342 0276 07       		.byte	0x7
 1343 0277 B0       		.byte	0xb0
 1344 0278 89020000 		.4byte	0x289
 1345 027c 07       		.uleb128 0x7
 1346 027d AD070000 		.4byte	.LASF28
 1347 0281 07       		.byte	0x7
 1348 0282 B1       		.byte	0xb1
 1349 0283 5F020000 		.4byte	0x25f
 1350 0287 00       		.byte	0
 1351 0288 00       		.byte	0
 1352 0289 03       		.uleb128 0x3
 1353 028a 00000000 		.4byte	.LASF52
 1354 028e 06       		.byte	0x6
 1355 028f 50       		.byte	0x50
 1356 0290 94020000 		.4byte	0x294
 1357 0294 06       		.uleb128 0x6
 1358 0295 A9050000 		.4byte	.LASF53
ARM GAS  C:\Users\Luis\AppData\Local\Temp\ccKPaE82.s 			page 25


 1359 0299 08       		.byte	0x8
 1360 029a 07       		.byte	0x7
 1361 029b B7       		.byte	0xb7
 1362 029c B9020000 		.4byte	0x2b9
 1363 02a0 07       		.uleb128 0x7
 1364 02a1 AD070000 		.4byte	.LASF28
 1365 02a5 07       		.byte	0x7
 1366 02a6 B8       		.byte	0xb8
 1367 02a7 5F020000 		.4byte	0x25f
 1368 02ab 00       		.byte	0
 1369 02ac 07       		.uleb128 0x7
 1370 02ad 28080000 		.4byte	.LASF29
 1371 02b1 07       		.byte	0x7
 1372 02b2 B9       		.byte	0xb9
 1373 02b3 5F020000 		.4byte	0x25f
 1374 02b7 04       		.byte	0x4
 1375 02b8 00       		.byte	0
 1376 02b9 03       		.uleb128 0x3
 1377 02ba 61080000 		.4byte	.LASF54
 1378 02be 06       		.byte	0x6
 1379 02bf 57       		.byte	0x57
 1380 02c0 C4020000 		.4byte	0x2c4
 1381 02c4 0B       		.uleb128 0xb
 1382 02c5 DF010000 		.4byte	.LASF55
 1383 02c9 1C       		.byte	0x1c
 1384 02ca 07       		.byte	0x7
 1385 02cb 9001     		.2byte	0x190
 1386 02cd 20030000 		.4byte	0x320
 1387 02d1 09       		.uleb128 0x9
 1388 02d2 BA050000 		.4byte	.LASF56
 1389 02d6 07       		.byte	0x7
 1390 02d7 9101     		.2byte	0x191
 1391 02d9 89020000 		.4byte	0x289
 1392 02dd 00       		.byte	0
 1393 02de 09       		.uleb128 0x9
 1394 02df AB020000 		.4byte	.LASF57
 1395 02e3 07       		.byte	0x7
 1396 02e4 9201     		.2byte	0x192
 1397 02e6 F4000000 		.4byte	0xf4
 1398 02ea 08       		.byte	0x8
 1399 02eb 09       		.uleb128 0x9
 1400 02ec B2090000 		.4byte	.LASF58
 1401 02f0 07       		.byte	0x7
 1402 02f1 9401     		.2byte	0x194
 1403 02f3 C8040000 		.4byte	0x4c8
 1404 02f7 0C       		.byte	0xc
 1405 02f8 09       		.uleb128 0x9
 1406 02f9 C2050000 		.4byte	.LASF59
 1407 02fd 07       		.byte	0x7
 1408 02fe 9701     		.2byte	0x197
 1409 0300 5F020000 		.4byte	0x25f
 1410 0304 10       		.byte	0x10
 1411 0305 09       		.uleb128 0x9
 1412 0306 26060000 		.4byte	.LASF60
 1413 030a 07       		.byte	0x7
 1414 030b 9801     		.2byte	0x198
 1415 030d 5F020000 		.4byte	0x25f
ARM GAS  C:\Users\Luis\AppData\Local\Temp\ccKPaE82.s 			page 26


 1416 0311 14       		.byte	0x14
 1417 0312 09       		.uleb128 0x9
 1418 0313 27070000 		.4byte	.LASF61
 1419 0317 07       		.byte	0x7
 1420 0318 9B01     		.2byte	0x19b
 1421 031a 5F020000 		.4byte	0x25f
 1422 031e 18       		.byte	0x18
 1423 031f 00       		.byte	0
 1424 0320 03       		.uleb128 0x3
 1425 0321 37020000 		.4byte	.LASF62
 1426 0325 06       		.byte	0x6
 1427 0326 5C       		.byte	0x5c
 1428 0327 2B030000 		.4byte	0x32b
 1429 032b 0A       		.uleb128 0xa
 1430 032c 04       		.byte	0x4
 1431 032d 31030000 		.4byte	0x331
 1432 0331 0C       		.uleb128 0xc
 1433 0332 3C030000 		.4byte	0x33c
 1434 0336 0D       		.uleb128 0xd
 1435 0337 3C030000 		.4byte	0x33c
 1436 033b 00       		.byte	0
 1437 033c 0E       		.uleb128 0xe
 1438 033d 04       		.byte	0x4
 1439 033e 03       		.uleb128 0x3
 1440 033f F6050000 		.4byte	.LASF63
 1441 0343 06       		.byte	0x6
 1442 0344 61       		.byte	0x61
 1443 0345 49030000 		.4byte	0x349
 1444 0349 0B       		.uleb128 0xb
 1445 034a FC020000 		.4byte	.LASF64
 1446 034e 14       		.byte	0x14
 1447 034f 07       		.byte	0x7
 1448 0350 6B01     		.2byte	0x16b
 1449 0352 98030000 		.4byte	0x398
 1450 0356 09       		.uleb128 0x9
 1451 0357 46090000 		.4byte	.LASF65
 1452 035b 07       		.byte	0x7
 1453 035c 6C01     		.2byte	0x16c
 1454 035e 84070000 		.4byte	0x784
 1455 0362 00       		.byte	0
 1456 0363 09       		.uleb128 0x9
 1457 0364 DF090000 		.4byte	.LASF66
 1458 0368 07       		.byte	0x7
 1459 0369 6D01     		.2byte	0x16d
 1460 036b 84070000 		.4byte	0x784
 1461 036f 04       		.byte	0x4
 1462 0370 09       		.uleb128 0x9
 1463 0371 C0030000 		.4byte	.LASF67
 1464 0375 07       		.byte	0x7
 1465 0376 6E01     		.2byte	0x16e
 1466 0378 2B010000 		.4byte	0x12b
 1467 037c 08       		.byte	0x8
 1468 037d 09       		.uleb128 0x9
 1469 037e D7090000 		.4byte	.LASF68
 1470 0382 07       		.byte	0x7
 1471 0383 6F01     		.2byte	0x16f
 1472 0385 20030000 		.4byte	0x320
ARM GAS  C:\Users\Luis\AppData\Local\Temp\ccKPaE82.s 			page 27


 1473 0389 0C       		.byte	0xc
 1474 038a 09       		.uleb128 0x9
 1475 038b A9080000 		.4byte	.LASF69
 1476 038f 07       		.byte	0x7
 1477 0390 7101     		.2byte	0x171
 1478 0392 3C030000 		.4byte	0x33c
 1479 0396 10       		.byte	0x10
 1480 0397 00       		.byte	0
 1481 0398 03       		.uleb128 0x3
 1482 0399 CD080000 		.4byte	.LASF70
 1483 039d 06       		.byte	0x6
 1484 039e 66       		.byte	0x66
 1485 039f A3030000 		.4byte	0x3a3
 1486 03a3 0B       		.uleb128 0xb
 1487 03a4 A9030000 		.4byte	.LASF71
 1488 03a8 10       		.byte	0x10
 1489 03a9 07       		.byte	0x7
 1490 03aa 7B01     		.2byte	0x17b
 1491 03ac E5030000 		.4byte	0x3e5
 1492 03b0 09       		.uleb128 0x9
 1493 03b1 46090000 		.4byte	.LASF65
 1494 03b5 07       		.byte	0x7
 1495 03b6 7C01     		.2byte	0x17c
 1496 03b8 84070000 		.4byte	0x784
 1497 03bc 00       		.byte	0
 1498 03bd 09       		.uleb128 0x9
 1499 03be DF090000 		.4byte	.LASF66
 1500 03c2 07       		.byte	0x7
 1501 03c3 7E01     		.2byte	0x17e
 1502 03c5 84070000 		.4byte	0x784
 1503 03c9 04       		.byte	0x4
 1504 03ca 09       		.uleb128 0x9
 1505 03cb C0030000 		.4byte	.LASF67
 1506 03cf 07       		.byte	0x7
 1507 03d0 8001     		.2byte	0x180
 1508 03d2 2B010000 		.4byte	0x12b
 1509 03d6 08       		.byte	0x8
 1510 03d7 09       		.uleb128 0x9
 1511 03d8 E6040000 		.4byte	.LASF72
 1512 03dc 07       		.byte	0x7
 1513 03dd 8801     		.2byte	0x188
 1514 03df 2B010000 		.4byte	0x12b
 1515 03e3 0C       		.byte	0xc
 1516 03e4 00       		.byte	0
 1517 03e5 03       		.uleb128 0x3
 1518 03e6 86050000 		.4byte	.LASF73
 1519 03ea 06       		.byte	0x6
 1520 03eb 6B       		.byte	0x6b
 1521 03ec F0030000 		.4byte	0x3f0
 1522 03f0 0F       		.uleb128 0xf
 1523 03f1 4D020000 		.4byte	.LASF74
 1524 03f5 1404     		.2byte	0x414
 1525 03f7 07       		.byte	0x7
 1526 03f8 A201     		.2byte	0x1a2
 1527 03fa 33040000 		.4byte	0x433
 1528 03fe 09       		.uleb128 0x9
 1529 03ff 52060000 		.4byte	.LASF75
ARM GAS  C:\Users\Luis\AppData\Local\Temp\ccKPaE82.s 			page 28


 1530 0403 07       		.byte	0x7
 1531 0404 AA01     		.2byte	0x1aa
 1532 0406 8A070000 		.4byte	0x78a
 1533 040a 00       		.byte	0
 1534 040b 09       		.uleb128 0x9
 1535 040c 87030000 		.4byte	.LASF76
 1536 0410 07       		.byte	0x7
 1537 0411 AF01     		.2byte	0x1af
 1538 0413 15010000 		.4byte	0x115
 1539 0417 04       		.byte	0x4
 1540 0418 09       		.uleb128 0x9
 1541 0419 DD060000 		.4byte	.LASF77
 1542 041d 07       		.byte	0x7
 1543 041e B301     		.2byte	0x1b3
 1544 0420 15010000 		.4byte	0x115
 1545 0424 08       		.byte	0x8
 1546 0425 09       		.uleb128 0x9
 1547 0426 76080000 		.4byte	.LASF78
 1548 042a 07       		.byte	0x7
 1549 042b B901     		.2byte	0x1b9
 1550 042d EA050000 		.4byte	0x5ea
 1551 0431 0C       		.byte	0xc
 1552 0432 00       		.byte	0
 1553 0433 03       		.uleb128 0x3
 1554 0434 5D090000 		.4byte	.LASF79
 1555 0438 06       		.byte	0x6
 1556 0439 70       		.byte	0x70
 1557 043a 3E040000 		.4byte	0x43e
 1558 043e 0F       		.uleb128 0xf
 1559 043f 8F070000 		.4byte	.LASF80
 1560 0443 E805     		.2byte	0x5e8
 1561 0445 07       		.byte	0x7
 1562 0446 C201     		.2byte	0x1c2
 1563 0448 AB040000 		.4byte	0x4ab
 1564 044c 09       		.uleb128 0x9
 1565 044d CC070000 		.4byte	.LASF81
 1566 0451 07       		.byte	0x7
 1567 0452 C601     		.2byte	0x1c6
 1568 0454 B9020000 		.4byte	0x2b9
 1569 0458 00       		.byte	0
 1570 0459 09       		.uleb128 0x9
 1571 045a D8010000 		.4byte	.LASF82
 1572 045e 07       		.byte	0x7
 1573 045f CA01     		.2byte	0x1ca
 1574 0461 98030000 		.4byte	0x398
 1575 0465 1C       		.byte	0x1c
 1576 0466 08       		.uleb128 0x8
 1577 0467 64626700 		.ascii	"dbg\000"
 1578 046b 07       		.byte	0x7
 1579 046c CE01     		.2byte	0x1ce
 1580 046e E5030000 		.4byte	0x3e5
 1581 0472 2C       		.byte	0x2c
 1582 0473 10       		.uleb128 0x10
 1583 0474 A1060000 		.4byte	.LASF83
 1584 0478 07       		.byte	0x7
 1585 0479 D201     		.2byte	0x1d2
 1586 047b 36010000 		.4byte	0x136
ARM GAS  C:\Users\Luis\AppData\Local\Temp\ccKPaE82.s 			page 29


 1587 047f 4004     		.2byte	0x440
 1588 0481 11       		.uleb128 0x11
 1589 0482 746D00   		.ascii	"tm\000"
 1590 0485 07       		.byte	0x7
 1591 0486 D701     		.2byte	0x1d7
 1592 0488 0A060000 		.4byte	0x60a
 1593 048c A804     		.2byte	0x4a8
 1594 048e 10       		.uleb128 0x10
 1595 048f B2020000 		.4byte	.LASF84
 1596 0493 07       		.byte	0x7
 1597 0494 DD01     		.2byte	0x1dd
 1598 0496 9C060000 		.4byte	0x69c
 1599 049a B004     		.2byte	0x4b0
 1600 049c 10       		.uleb128 0x10
 1601 049d ED010000 		.4byte	.LASF85
 1602 04a1 07       		.byte	0x7
 1603 04a2 E301     		.2byte	0x1e3
 1604 04a4 8F070000 		.4byte	0x78f
 1605 04a8 E804     		.2byte	0x4e8
 1606 04aa 00       		.byte	0
 1607 04ab 04       		.uleb128 0x4
 1608 04ac 04       		.byte	0x4
 1609 04ad 07       		.byte	0x7
 1610 04ae 34080000 		.4byte	.LASF86
 1611 04b2 03       		.uleb128 0x3
 1612 04b3 7D050000 		.4byte	.LASF87
 1613 04b7 08       		.byte	0x8
 1614 04b8 65       		.byte	0x65
 1615 04b9 3C030000 		.4byte	0x33c
 1616 04bd 03       		.uleb128 0x3
 1617 04be 1D090000 		.4byte	.LASF88
 1618 04c2 08       		.byte	0x8
 1619 04c3 6D       		.byte	0x6d
 1620 04c4 A6000000 		.4byte	0xa6
 1621 04c8 06       		.uleb128 0x6
 1622 04c9 5C060000 		.4byte	.LASF89
 1623 04cd 04       		.byte	0x4
 1624 04ce 08       		.byte	0x8
 1625 04cf 89       		.byte	0x89
 1626 04d0 E1040000 		.4byte	0x4e1
 1627 04d4 12       		.uleb128 0x12
 1628 04d5 72313300 		.ascii	"r13\000"
 1629 04d9 08       		.byte	0x8
 1630 04da 8A       		.byte	0x8a
 1631 04db 5C050000 		.4byte	0x55c
 1632 04df 00       		.byte	0
 1633 04e0 00       		.byte	0
 1634 04e1 06       		.uleb128 0x6
 1635 04e2 4D070000 		.4byte	.LASF90
 1636 04e6 24       		.byte	0x24
 1637 04e7 09       		.byte	0x9
 1638 04e8 F4       		.byte	0xf4
 1639 04e9 5C050000 		.4byte	0x55c
 1640 04ed 08       		.uleb128 0x8
 1641 04ee 723400   		.ascii	"r4\000"
 1642 04f1 09       		.byte	0x9
 1643 04f2 0701     		.2byte	0x107
ARM GAS  C:\Users\Luis\AppData\Local\Temp\ccKPaE82.s 			page 30


 1644 04f4 B2040000 		.4byte	0x4b2
 1645 04f8 00       		.byte	0
 1646 04f9 08       		.uleb128 0x8
 1647 04fa 723500   		.ascii	"r5\000"
 1648 04fd 09       		.byte	0x9
 1649 04fe 0801     		.2byte	0x108
 1650 0500 B2040000 		.4byte	0x4b2
 1651 0504 04       		.byte	0x4
 1652 0505 08       		.uleb128 0x8
 1653 0506 723600   		.ascii	"r6\000"
 1654 0509 09       		.byte	0x9
 1655 050a 0901     		.2byte	0x109
 1656 050c B2040000 		.4byte	0x4b2
 1657 0510 08       		.byte	0x8
 1658 0511 08       		.uleb128 0x8
 1659 0512 723700   		.ascii	"r7\000"
 1660 0515 09       		.byte	0x9
 1661 0516 0A01     		.2byte	0x10a
 1662 0518 B2040000 		.4byte	0x4b2
 1663 051c 0C       		.byte	0xc
 1664 051d 08       		.uleb128 0x8
 1665 051e 723800   		.ascii	"r8\000"
 1666 0521 09       		.byte	0x9
 1667 0522 0B01     		.2byte	0x10b
 1668 0524 B2040000 		.4byte	0x4b2
 1669 0528 10       		.byte	0x10
 1670 0529 08       		.uleb128 0x8
 1671 052a 723900   		.ascii	"r9\000"
 1672 052d 09       		.byte	0x9
 1673 052e 0C01     		.2byte	0x10c
 1674 0530 B2040000 		.4byte	0x4b2
 1675 0534 14       		.byte	0x14
 1676 0535 08       		.uleb128 0x8
 1677 0536 72313000 		.ascii	"r10\000"
 1678 053a 09       		.byte	0x9
 1679 053b 0D01     		.2byte	0x10d
 1680 053d B2040000 		.4byte	0x4b2
 1681 0541 18       		.byte	0x18
 1682 0542 08       		.uleb128 0x8
 1683 0543 72313100 		.ascii	"r11\000"
 1684 0547 09       		.byte	0x9
 1685 0548 0E01     		.2byte	0x10e
 1686 054a B2040000 		.4byte	0x4b2
 1687 054e 1C       		.byte	0x1c
 1688 054f 08       		.uleb128 0x8
 1689 0550 6C7200   		.ascii	"lr\000"
 1690 0553 09       		.byte	0x9
 1691 0554 0F01     		.2byte	0x10f
 1692 0556 B2040000 		.4byte	0x4b2
 1693 055a 20       		.byte	0x20
 1694 055b 00       		.byte	0
 1695 055c 0A       		.uleb128 0xa
 1696 055d 04       		.byte	0x4
 1697 055e E1040000 		.4byte	0x4e1
 1698 0562 13       		.uleb128 0x13
 1699 0563 10       		.byte	0x10
 1700 0564 0A       		.byte	0xa
ARM GAS  C:\Users\Luis\AppData\Local\Temp\ccKPaE82.s 			page 31


 1701 0565 51       		.byte	0x51
 1702 0566 9B050000 		.4byte	0x59b
 1703 056a 07       		.uleb128 0x7
 1704 056b 2C050000 		.4byte	.LASF91
 1705 056f 0A       		.byte	0xa
 1706 0570 55       		.byte	0x55
 1707 0571 2B010000 		.4byte	0x12b
 1708 0575 00       		.byte	0
 1709 0576 07       		.uleb128 0x7
 1710 0577 10050000 		.4byte	.LASF92
 1711 057b 0A       		.byte	0xa
 1712 057c 59       		.byte	0x59
 1713 057d 5F020000 		.4byte	0x25f
 1714 0581 04       		.byte	0x4
 1715 0582 07       		.uleb128 0x7
 1716 0583 41030000 		.4byte	.LASF93
 1717 0587 0A       		.byte	0xa
 1718 0588 5D       		.byte	0x5d
 1719 0589 3C030000 		.4byte	0x33c
 1720 058d 08       		.byte	0x8
 1721 058e 07       		.uleb128 0x7
 1722 058f E6000000 		.4byte	.LASF94
 1723 0593 0A       		.byte	0xa
 1724 0594 61       		.byte	0x61
 1725 0595 50000000 		.4byte	0x50
 1726 0599 0C       		.byte	0xc
 1727 059a 00       		.byte	0
 1728 059b 03       		.uleb128 0x3
 1729 059c 92080000 		.4byte	.LASF95
 1730 05a0 0A       		.byte	0xa
 1731 05a1 62       		.byte	0x62
 1732 05a2 62050000 		.4byte	0x562
 1733 05a6 14       		.uleb128 0x14
 1734 05a7 0804     		.2byte	0x408
 1735 05a9 0A       		.byte	0xa
 1736 05aa 67       		.byte	0x67
 1737 05ab D4050000 		.4byte	0x5d4
 1738 05af 07       		.uleb128 0x7
 1739 05b0 75050000 		.4byte	.LASF96
 1740 05b4 0A       		.byte	0xa
 1741 05b5 6B       		.byte	0x6b
 1742 05b6 37000000 		.4byte	0x37
 1743 05ba 00       		.byte	0
 1744 05bb 07       		.uleb128 0x7
 1745 05bc 18060000 		.4byte	.LASF97
 1746 05c0 0A       		.byte	0xa
 1747 05c1 6F       		.byte	0x6f
 1748 05c2 D4050000 		.4byte	0x5d4
 1749 05c6 04       		.byte	0x4
 1750 05c7 07       		.uleb128 0x7
 1751 05c8 0E060000 		.4byte	.LASF98
 1752 05cc 0A       		.byte	0xa
 1753 05cd 73       		.byte	0x73
 1754 05ce DA050000 		.4byte	0x5da
 1755 05d2 08       		.byte	0x8
 1756 05d3 00       		.byte	0
 1757 05d4 0A       		.uleb128 0xa
ARM GAS  C:\Users\Luis\AppData\Local\Temp\ccKPaE82.s 			page 32


 1758 05d5 04       		.byte	0x4
 1759 05d6 9B050000 		.4byte	0x59b
 1760 05da 15       		.uleb128 0x15
 1761 05db 9B050000 		.4byte	0x59b
 1762 05df EA050000 		.4byte	0x5ea
 1763 05e3 16       		.uleb128 0x16
 1764 05e4 AB040000 		.4byte	0x4ab
 1765 05e8 3F       		.byte	0x3f
 1766 05e9 00       		.byte	0
 1767 05ea 03       		.uleb128 0x3
 1768 05eb 7A090000 		.4byte	.LASF99
 1769 05ef 0A       		.byte	0xa
 1770 05f0 74       		.byte	0x74
 1771 05f1 A6050000 		.4byte	0x5a6
 1772 05f5 13       		.uleb128 0x13
 1773 05f6 04       		.byte	0x4
 1774 05f7 0B       		.byte	0xb
 1775 05f8 38       		.byte	0x38
 1776 05f9 0A060000 		.4byte	0x60a
 1777 05fd 07       		.uleb128 0x7
 1778 05fe 14040000 		.4byte	.LASF100
 1779 0602 0B       		.byte	0xb
 1780 0603 3C       		.byte	0x3c
 1781 0604 BD000000 		.4byte	0xbd
 1782 0608 00       		.byte	0
 1783 0609 00       		.byte	0
 1784 060a 03       		.uleb128 0x3
 1785 060b 78060000 		.4byte	.LASF101
 1786 060f 0B       		.byte	0xb
 1787 0610 3D       		.byte	0x3d
 1788 0611 F5050000 		.4byte	0x5f5
 1789 0615 13       		.uleb128 0x13
 1790 0616 18       		.byte	0x18
 1791 0617 0B       		.byte	0xb
 1792 0618 48       		.byte	0x48
 1793 0619 58060000 		.4byte	0x658
 1794 061d 07       		.uleb128 0x7
 1795 061e B0080000 		.4byte	.LASF102
 1796 0622 0B       		.byte	0xb
 1797 0623 49       		.byte	0x49
 1798 0624 BD000000 		.4byte	0xbd
 1799 0628 00       		.byte	0
 1800 0629 07       		.uleb128 0x7
 1801 062a 8F030000 		.4byte	.LASF103
 1802 062e 0B       		.byte	0xb
 1803 062f 4A       		.byte	0x4a
 1804 0630 BD000000 		.4byte	0xbd
 1805 0634 04       		.byte	0x4
 1806 0635 07       		.uleb128 0x7
 1807 0636 8A040000 		.4byte	.LASF104
 1808 063a 0B       		.byte	0xb
 1809 063b 4B       		.byte	0x4b
 1810 063c BD000000 		.4byte	0xbd
 1811 0640 08       		.byte	0x8
 1812 0641 12       		.uleb128 0x12
 1813 0642 6E00     		.ascii	"n\000"
 1814 0644 0B       		.byte	0xb
ARM GAS  C:\Users\Luis\AppData\Local\Temp\ccKPaE82.s 			page 33


 1815 0645 4C       		.byte	0x4c
 1816 0646 20010000 		.4byte	0x120
 1817 064a 0C       		.byte	0xc
 1818 064b 07       		.uleb128 0x7
 1819 064c D1000000 		.4byte	.LASF105
 1820 0650 0B       		.byte	0xb
 1821 0651 4D       		.byte	0x4d
 1822 0652 C8000000 		.4byte	0xc8
 1823 0656 10       		.byte	0x10
 1824 0657 00       		.byte	0
 1825 0658 03       		.uleb128 0x3
 1826 0659 8F040000 		.4byte	.LASF106
 1827 065d 0B       		.byte	0xb
 1828 065e 4E       		.byte	0x4e
 1829 065f 15060000 		.4byte	0x615
 1830 0663 13       		.uleb128 0x13
 1831 0664 38       		.byte	0x38
 1832 0665 0C       		.byte	0xc
 1833 0666 38       		.byte	0x38
 1834 0667 9C060000 		.4byte	0x69c
 1835 066b 07       		.uleb128 0x7
 1836 066c E6060000 		.4byte	.LASF107
 1837 0670 0C       		.byte	0xc
 1838 0671 39       		.byte	0x39
 1839 0672 20010000 		.4byte	0x120
 1840 0676 00       		.byte	0
 1841 0677 07       		.uleb128 0x7
 1842 0678 3C060000 		.4byte	.LASF108
 1843 067c 0C       		.byte	0xc
 1844 067d 3A       		.byte	0x3a
 1845 067e 20010000 		.4byte	0x120
 1846 0682 04       		.byte	0x4
 1847 0683 07       		.uleb128 0x7
 1848 0684 99070000 		.4byte	.LASF109
 1849 0688 0C       		.byte	0xc
 1850 0689 3B       		.byte	0x3b
 1851 068a 58060000 		.4byte	0x658
 1852 068e 08       		.byte	0x8
 1853 068f 07       		.uleb128 0x7
 1854 0690 B1000000 		.4byte	.LASF110
 1855 0694 0C       		.byte	0xc
 1856 0695 3D       		.byte	0x3d
 1857 0696 58060000 		.4byte	0x658
 1858 069a 20       		.byte	0x20
 1859 069b 00       		.byte	0
 1860 069c 03       		.uleb128 0x3
 1861 069d 90020000 		.4byte	.LASF111
 1862 06a1 0C       		.byte	0xc
 1863 06a2 3F       		.byte	0x3f
 1864 06a3 63060000 		.4byte	0x663
 1865 06a7 17       		.uleb128 0x17
 1866 06a8 04       		.byte	0x4
 1867 06a9 07       		.byte	0x7
 1868 06aa FA       		.byte	0xfa
 1869 06ab 04070000 		.4byte	0x704
 1870 06af 18       		.uleb128 0x18
 1871 06b0 05040000 		.4byte	.LASF112
ARM GAS  C:\Users\Luis\AppData\Local\Temp\ccKPaE82.s 			page 34


 1872 06b4 07       		.byte	0x7
 1873 06b5 0101     		.2byte	0x101
 1874 06b7 FF000000 		.4byte	0xff
 1875 06bb 18       		.uleb128 0x18
 1876 06bc 430A0000 		.4byte	.LASF113
 1877 06c0 07       		.byte	0x7
 1878 06c1 0801     		.2byte	0x108
 1879 06c3 FF000000 		.4byte	0xff
 1880 06c7 18       		.uleb128 0x18
 1881 06c8 40020000 		.4byte	.LASF114
 1882 06cc 07       		.byte	0x7
 1883 06cd 0F01     		.2byte	0x10f
 1884 06cf 3C030000 		.4byte	0x33c
 1885 06d3 18       		.uleb128 0x18
 1886 06d4 69090000 		.4byte	.LASF115
 1887 06d8 07       		.byte	0x7
 1888 06d9 1601     		.2byte	0x116
 1889 06db 04070000 		.4byte	0x704
 1890 06df 18       		.uleb128 0x18
 1891 06e0 8B080000 		.4byte	.LASF116
 1892 06e4 07       		.byte	0x7
 1893 06e5 1E01     		.2byte	0x11e
 1894 06e7 2F070000 		.4byte	0x72f
 1895 06eb 18       		.uleb128 0x18
 1896 06ec 1C000000 		.4byte	.LASF117
 1897 06f0 07       		.byte	0x7
 1898 06f1 2701     		.2byte	0x127
 1899 06f3 66070000 		.4byte	0x766
 1900 06f7 18       		.uleb128 0x18
 1901 06f8 06020000 		.4byte	.LASF118
 1902 06fc 07       		.byte	0x7
 1903 06fd 2F01     		.2byte	0x12f
 1904 06ff 0A010000 		.4byte	0x10a
 1905 0703 00       		.byte	0
 1906 0704 0A       		.uleb128 0xa
 1907 0705 04       		.byte	0x4
 1908 0706 54020000 		.4byte	0x254
 1909 070a 06       		.uleb128 0x6
 1910 070b E7020000 		.4byte	.LASF119
 1911 070f 0C       		.byte	0xc
 1912 0710 0D       		.byte	0xd
 1913 0711 34       		.byte	0x34
 1914 0712 2F070000 		.4byte	0x72f
 1915 0716 07       		.uleb128 0x7
 1916 0717 7F000000 		.4byte	.LASF120
 1917 071b 0D       		.byte	0xd
 1918 071c 35       		.byte	0x35
 1919 071d 89020000 		.4byte	0x289
 1920 0721 00       		.byte	0
 1921 0722 07       		.uleb128 0x7
 1922 0723 47020000 		.4byte	.LASF121
 1923 0727 0D       		.byte	0xd
 1924 0728 37       		.byte	0x37
 1925 0729 15010000 		.4byte	0x115
 1926 072d 08       		.byte	0x8
 1927 072e 00       		.byte	0
 1928 072f 0A       		.uleb128 0xa
ARM GAS  C:\Users\Luis\AppData\Local\Temp\ccKPaE82.s 			page 35


 1929 0730 04       		.byte	0x4
 1930 0731 0A070000 		.4byte	0x70a
 1931 0735 06       		.uleb128 0x6
 1932 0736 64040000 		.4byte	.LASF122
 1933 073a 10       		.byte	0x10
 1934 073b 0E       		.byte	0xe
 1935 073c 39       		.byte	0x39
 1936 073d 66070000 		.4byte	0x766
 1937 0741 07       		.uleb128 0x7
 1938 0742 3C070000 		.4byte	.LASF123
 1939 0746 0E       		.byte	0xe
 1940 0747 3A       		.byte	0x3a
 1941 0748 89020000 		.4byte	0x289
 1942 074c 00       		.byte	0
 1943 074d 07       		.uleb128 0x7
 1944 074e 77000000 		.4byte	.LASF124
 1945 0752 0E       		.byte	0xe
 1946 0753 3C       		.byte	0x3c
 1947 0754 5F020000 		.4byte	0x25f
 1948 0758 08       		.byte	0x8
 1949 0759 07       		.uleb128 0x7
 1950 075a 8C090000 		.4byte	.LASF125
 1951 075e 0E       		.byte	0xe
 1952 075f 3E       		.byte	0x3e
 1953 0760 AA070000 		.4byte	0x7aa
 1954 0764 0C       		.byte	0xc
 1955 0765 00       		.byte	0
 1956 0766 0A       		.uleb128 0xa
 1957 0767 04       		.byte	0x4
 1958 0768 35070000 		.4byte	0x735
 1959 076c 0A       		.uleb128 0xa
 1960 076d 04       		.byte	0x4
 1961 076e 72070000 		.4byte	0x772
 1962 0772 19       		.uleb128 0x19
 1963 0773 77070000 		.4byte	0x777
 1964 0777 04       		.uleb128 0x4
 1965 0778 01       		.byte	0x1
 1966 0779 08       		.byte	0x8
 1967 077a 45000000 		.4byte	.LASF126
 1968 077e 0A       		.uleb128 0xa
 1969 077f 04       		.byte	0x4
 1970 0780 BD040000 		.4byte	0x4bd
 1971 0784 0A       		.uleb128 0xa
 1972 0785 04       		.byte	0x4
 1973 0786 3E030000 		.4byte	0x33e
 1974 078a 05       		.uleb128 0x5
 1975 078b 6C070000 		.4byte	0x76c
 1976 078f 15       		.uleb128 0x15
 1977 0790 BD040000 		.4byte	0x4bd
 1978 0794 9F070000 		.4byte	0x79f
 1979 0798 16       		.uleb128 0x16
 1980 0799 AB040000 		.4byte	0x4ab
 1981 079d 1F       		.byte	0x1f
 1982 079e 00       		.byte	0
 1983 079f 03       		.uleb128 0x3
 1984 07a0 A1080000 		.4byte	.LASF127
 1985 07a4 0E       		.byte	0xe
ARM GAS  C:\Users\Luis\AppData\Local\Temp\ccKPaE82.s 			page 36


 1986 07a5 34       		.byte	0x34
 1987 07a6 35070000 		.4byte	0x735
 1988 07aa 0A       		.uleb128 0xa
 1989 07ab 04       		.byte	0x4
 1990 07ac 9F070000 		.4byte	0x79f
 1991 07b0 04       		.uleb128 0x4
 1992 07b1 01       		.byte	0x1
 1993 07b2 02       		.byte	0x2
 1994 07b3 1B040000 		.4byte	.LASF128
 1995 07b7 03       		.uleb128 0x3
 1996 07b8 E3050000 		.4byte	.LASF129
 1997 07bc 0F       		.byte	0xf
 1998 07bd 38       		.byte	0x38
 1999 07be 50000000 		.4byte	0x50
 2000 07c2 03       		.uleb128 0x3
 2001 07c3 76040000 		.4byte	.LASF130
 2002 07c7 0F       		.byte	0xf
 2003 07c8 39       		.byte	0x39
 2004 07c9 3E000000 		.4byte	0x3e
 2005 07cd 03       		.uleb128 0x3
 2006 07ce EF000000 		.4byte	.LASF131
 2007 07d2 0F       		.byte	0xf
 2008 07d3 3A       		.byte	0x3a
 2009 07d4 69000000 		.4byte	0x69
 2010 07d8 03       		.uleb128 0x3
 2011 07d9 12070000 		.4byte	.LASF132
 2012 07dd 0F       		.byte	0xf
 2013 07de 3C       		.byte	0x3c
 2014 07df 8D000000 		.4byte	0x8d
 2015 07e3 03       		.uleb128 0x3
 2016 07e4 CB000000 		.4byte	.LASF133
 2017 07e8 10       		.byte	0x10
 2018 07e9 2F       		.byte	0x2f
 2019 07ea C2070000 		.4byte	0x7c2
 2020 07ee 06       		.uleb128 0x6
 2021 07ef F7080000 		.4byte	.LASF134
 2022 07f3 10       		.byte	0x10
 2023 07f4 11       		.byte	0x11
 2024 07f5 4F       		.byte	0x4f
 2025 07f6 4F080000 		.4byte	0x84f
 2026 07fa 07       		.uleb128 0x7
 2027 07fb 9F000000 		.4byte	.LASF135
 2028 07ff 11       		.byte	0x11
 2029 0800 51       		.byte	0x51
 2030 0801 4F080000 		.4byte	0x84f
 2031 0805 00       		.byte	0
 2032 0806 07       		.uleb128 0x7
 2033 0807 0C040000 		.4byte	.LASF136
 2034 080b 11       		.byte	0x11
 2035 080c 54       		.byte	0x54
 2036 080d 3C030000 		.4byte	0x33c
 2037 0811 04       		.byte	0x4
 2038 0812 07       		.uleb128 0x7
 2039 0813 FD030000 		.4byte	.LASF137
 2040 0817 11       		.byte	0x11
 2041 0818 5D       		.byte	0x5d
 2042 0819 CD070000 		.4byte	0x7cd
ARM GAS  C:\Users\Luis\AppData\Local\Temp\ccKPaE82.s 			page 37


 2043 081d 08       		.byte	0x8
 2044 081e 12       		.uleb128 0x12
 2045 081f 6C656E00 		.ascii	"len\000"
 2046 0823 11       		.byte	0x11
 2047 0824 60       		.byte	0x60
 2048 0825 CD070000 		.4byte	0x7cd
 2049 0829 0A       		.byte	0xa
 2050 082a 07       		.uleb128 0x7
 2051 082b 47050000 		.4byte	.LASF138
 2052 082f 11       		.byte	0x11
 2053 0830 63       		.byte	0x63
 2054 0831 B7070000 		.4byte	0x7b7
 2055 0835 0C       		.byte	0xc
 2056 0836 07       		.uleb128 0x7
 2057 0837 58000000 		.4byte	.LASF139
 2058 083b 11       		.byte	0x11
 2059 083c 66       		.byte	0x66
 2060 083d B7070000 		.4byte	0x7b7
 2061 0841 0D       		.byte	0xd
 2062 0842 12       		.uleb128 0x12
 2063 0843 72656600 		.ascii	"ref\000"
 2064 0847 11       		.byte	0x11
 2065 0848 6D       		.byte	0x6d
 2066 0849 CD070000 		.4byte	0x7cd
 2067 084d 0E       		.byte	0xe
 2068 084e 00       		.byte	0
 2069 084f 0A       		.uleb128 0xa
 2070 0850 04       		.byte	0x4
 2071 0851 EE070000 		.4byte	0x7ee
 2072 0855 06       		.uleb128 0x6
 2073 0856 560A0000 		.4byte	.LASF140
 2074 085a 04       		.byte	0x4
 2075 085b 12       		.byte	0x12
 2076 085c 2C       		.byte	0x2c
 2077 085d 6E080000 		.4byte	0x86e
 2078 0861 07       		.uleb128 0x7
 2079 0862 28090000 		.4byte	.LASF141
 2080 0866 12       		.byte	0x12
 2081 0867 2D       		.byte	0x2d
 2082 0868 D8070000 		.4byte	0x7d8
 2083 086c 00       		.byte	0
 2084 086d 00       		.byte	0
 2085 086e 06       		.uleb128 0x6
 2086 086f F2040000 		.4byte	.LASF142
 2087 0873 04       		.byte	0x4
 2088 0874 12       		.byte	0x12
 2089 0875 36       		.byte	0x36
 2090 0876 87080000 		.4byte	0x887
 2091 087a 07       		.uleb128 0x7
 2092 087b 28090000 		.4byte	.LASF141
 2093 087f 12       		.byte	0x12
 2094 0880 37       		.byte	0x37
 2095 0881 D8070000 		.4byte	0x7d8
 2096 0885 00       		.byte	0
 2097 0886 00       		.byte	0
 2098 0887 03       		.uleb128 0x3
 2099 0888 EC090000 		.4byte	.LASF143
ARM GAS  C:\Users\Luis\AppData\Local\Temp\ccKPaE82.s 			page 38


 2100 088c 12       		.byte	0x12
 2101 088d 40       		.byte	0x40
 2102 088e 55080000 		.4byte	0x855
 2103 0892 03       		.uleb128 0x3
 2104 0893 FC080000 		.4byte	.LASF144
 2105 0897 12       		.byte	0x12
 2106 0898 41       		.byte	0x41
 2107 0899 6E080000 		.4byte	0x86e
 2108 089d 0A       		.uleb128 0xa
 2109 089e 04       		.byte	0x4
 2110 089f A3080000 		.4byte	0x8a3
 2111 08a3 06       		.uleb128 0x6
 2112 08a4 57090000 		.4byte	.LASF145
 2113 08a8 30       		.byte	0x30
 2114 08a9 13       		.byte	0x13
 2115 08aa 88       		.byte	0x88
 2116 08ab 57090000 		.4byte	0x957
 2117 08af 07       		.uleb128 0x7
 2118 08b0 9F000000 		.4byte	.LASF135
 2119 08b4 13       		.byte	0x13
 2120 08b5 8A       		.byte	0x8a
 2121 08b6 9D080000 		.4byte	0x89d
 2122 08ba 00       		.byte	0
 2123 08bb 07       		.uleb128 0x7
 2124 08bc 560A0000 		.4byte	.LASF140
 2125 08c0 13       		.byte	0x13
 2126 08c1 8D       		.byte	0x8d
 2127 08c2 87080000 		.4byte	0x887
 2128 08c6 04       		.byte	0x4
 2129 08c7 07       		.uleb128 0x7
 2130 08c8 A1050000 		.4byte	.LASF146
 2131 08cc 13       		.byte	0x13
 2132 08cd 8E       		.byte	0x8e
 2133 08ce 87080000 		.4byte	0x887
 2134 08d2 08       		.byte	0x8
 2135 08d3 12       		.uleb128 0x12
 2136 08d4 677700   		.ascii	"gw\000"
 2137 08d7 13       		.byte	0x13
 2138 08d8 8F       		.byte	0x8f
 2139 08d9 87080000 		.4byte	0x887
 2140 08dd 0C       		.byte	0xc
 2141 08de 07       		.uleb128 0x7
 2142 08df 45060000 		.4byte	.LASF147
 2143 08e3 13       		.byte	0x13
 2144 08e4 93       		.byte	0x93
 2145 08e5 57090000 		.4byte	0x957
 2146 08e9 10       		.byte	0x10
 2147 08ea 07       		.uleb128 0x7
 2148 08eb 4A000000 		.4byte	.LASF148
 2149 08ef 13       		.byte	0x13
 2150 08f0 97       		.byte	0x97
 2151 08f1 7C090000 		.4byte	0x97c
 2152 08f5 14       		.byte	0x14
 2153 08f6 07       		.uleb128 0x7
 2154 08f7 330A0000 		.4byte	.LASF149
 2155 08fb 13       		.byte	0x13
 2156 08fc 9B       		.byte	0x9b
ARM GAS  C:\Users\Luis\AppData\Local\Temp\ccKPaE82.s 			page 39


 2157 08fd AC090000 		.4byte	0x9ac
 2158 0901 18       		.byte	0x18
 2159 0902 07       		.uleb128 0x7
 2160 0903 40090000 		.4byte	.LASF150
 2161 0907 13       		.byte	0x13
 2162 0908 AC       		.byte	0xac
 2163 0909 3C030000 		.4byte	0x33c
 2164 090d 1C       		.byte	0x1c
 2165 090e 12       		.uleb128 0x12
 2166 090f 6D747500 		.ascii	"mtu\000"
 2167 0913 13       		.byte	0x13
 2168 0914 BA       		.byte	0xba
 2169 0915 CD070000 		.4byte	0x7cd
 2170 0919 20       		.byte	0x20
 2171 091a 07       		.uleb128 0x7
 2172 091b 74030000 		.4byte	.LASF151
 2173 091f 13       		.byte	0x13
 2174 0920 BC       		.byte	0xbc
 2175 0921 B7070000 		.4byte	0x7b7
 2176 0925 22       		.byte	0x22
 2177 0926 07       		.uleb128 0x7
 2178 0927 18030000 		.4byte	.LASF152
 2179 092b 13       		.byte	0x13
 2180 092c BE       		.byte	0xbe
 2181 092d D1090000 		.4byte	0x9d1
 2182 0931 23       		.byte	0x23
 2183 0932 07       		.uleb128 0x7
 2184 0933 58000000 		.4byte	.LASF139
 2185 0937 13       		.byte	0x13
 2186 0938 C0       		.byte	0xc0
 2187 0939 B7070000 		.4byte	0x7b7
 2188 093d 29       		.byte	0x29
 2189 093e 07       		.uleb128 0x7
 2190 093f E6070000 		.4byte	.LASF153
 2191 0943 13       		.byte	0x13
 2192 0944 C2       		.byte	0xc2
 2193 0945 E1090000 		.4byte	0x9e1
 2194 0949 2A       		.byte	0x2a
 2195 094a 12       		.uleb128 0x12
 2196 094b 6E756D00 		.ascii	"num\000"
 2197 094f 13       		.byte	0x13
 2198 0950 C4       		.byte	0xc4
 2199 0951 B7070000 		.4byte	0x7b7
 2200 0955 2C       		.byte	0x2c
 2201 0956 00       		.byte	0
 2202 0957 03       		.uleb128 0x3
 2203 0958 6B020000 		.4byte	.LASF154
 2204 095c 13       		.byte	0x13
 2205 095d 6D       		.byte	0x6d
 2206 095e 62090000 		.4byte	0x962
 2207 0962 0A       		.uleb128 0xa
 2208 0963 04       		.byte	0x4
 2209 0964 68090000 		.4byte	0x968
 2210 0968 1A       		.uleb128 0x1a
 2211 0969 E3070000 		.4byte	0x7e3
 2212 096d 7C090000 		.4byte	0x97c
 2213 0971 0D       		.uleb128 0xd
ARM GAS  C:\Users\Luis\AppData\Local\Temp\ccKPaE82.s 			page 40


 2214 0972 4F080000 		.4byte	0x84f
 2215 0976 0D       		.uleb128 0xd
 2216 0977 9D080000 		.4byte	0x89d
 2217 097b 00       		.byte	0
 2218 097c 03       		.uleb128 0x3
 2219 097d 0D020000 		.4byte	.LASF155
 2220 0981 13       		.byte	0x13
 2221 0982 76       		.byte	0x76
 2222 0983 87090000 		.4byte	0x987
 2223 0987 0A       		.uleb128 0xa
 2224 0988 04       		.byte	0x4
 2225 0989 8D090000 		.4byte	0x98d
 2226 098d 1A       		.uleb128 0x1a
 2227 098e E3070000 		.4byte	0x7e3
 2228 0992 A6090000 		.4byte	0x9a6
 2229 0996 0D       		.uleb128 0xd
 2230 0997 9D080000 		.4byte	0x89d
 2231 099b 0D       		.uleb128 0xd
 2232 099c 4F080000 		.4byte	0x84f
 2233 09a0 0D       		.uleb128 0xd
 2234 09a1 A6090000 		.4byte	0x9a6
 2235 09a5 00       		.byte	0
 2236 09a6 0A       		.uleb128 0xa
 2237 09a7 04       		.byte	0x4
 2238 09a8 87080000 		.4byte	0x887
 2239 09ac 03       		.uleb128 0x3
 2240 09ad EB070000 		.4byte	.LASF156
 2241 09b1 13       		.byte	0x13
 2242 09b2 7E       		.byte	0x7e
 2243 09b3 B7090000 		.4byte	0x9b7
 2244 09b7 0A       		.uleb128 0xa
 2245 09b8 04       		.byte	0x4
 2246 09b9 BD090000 		.4byte	0x9bd
 2247 09bd 1A       		.uleb128 0x1a
 2248 09be E3070000 		.4byte	0x7e3
 2249 09c2 D1090000 		.4byte	0x9d1
 2250 09c6 0D       		.uleb128 0xd
 2251 09c7 9D080000 		.4byte	0x89d
 2252 09cb 0D       		.uleb128 0xd
 2253 09cc 4F080000 		.4byte	0x84f
 2254 09d0 00       		.byte	0
 2255 09d1 15       		.uleb128 0x15
 2256 09d2 B7070000 		.4byte	0x7b7
 2257 09d6 E1090000 		.4byte	0x9e1
 2258 09da 16       		.uleb128 0x16
 2259 09db AB040000 		.4byte	0x4ab
 2260 09df 05       		.byte	0x5
 2261 09e0 00       		.byte	0
 2262 09e1 15       		.uleb128 0x15
 2263 09e2 77070000 		.4byte	0x777
 2264 09e6 F1090000 		.4byte	0x9f1
 2265 09ea 16       		.uleb128 0x16
 2266 09eb AB040000 		.4byte	0x4ab
 2267 09ef 01       		.byte	0x1
 2268 09f0 00       		.byte	0
 2269 09f1 06       		.uleb128 0x6
 2270 09f2 DF070000 		.4byte	.LASF157
ARM GAS  C:\Users\Luis\AppData\Local\Temp\ccKPaE82.s 			page 41


 2271 09f6 14       		.byte	0x14
 2272 09f7 14       		.byte	0x14
 2273 09f8 74       		.byte	0x74
 2274 09f9 760A0000 		.4byte	0xa76
 2275 09fd 07       		.uleb128 0x7
 2276 09fe F0050000 		.4byte	.LASF158
 2277 0a02 14       		.byte	0x14
 2278 0a03 76       		.byte	0x76
 2279 0a04 B7070000 		.4byte	0x7b7
 2280 0a08 00       		.byte	0
 2281 0a09 07       		.uleb128 0x7
 2282 0a0a 2F080000 		.4byte	.LASF159
 2283 0a0e 14       		.byte	0x14
 2284 0a0f 78       		.byte	0x78
 2285 0a10 B7070000 		.4byte	0x7b7
 2286 0a14 01       		.byte	0x1
 2287 0a15 07       		.uleb128 0x7
 2288 0a16 E7090000 		.4byte	.LASF160
 2289 0a1a 14       		.byte	0x14
 2290 0a1b 7A       		.byte	0x7a
 2291 0a1c CD070000 		.4byte	0x7cd
 2292 0a20 02       		.byte	0x2
 2293 0a21 12       		.uleb128 0x12
 2294 0a22 5F696400 		.ascii	"_id\000"
 2295 0a26 14       		.byte	0x14
 2296 0a27 7C       		.byte	0x7c
 2297 0a28 CD070000 		.4byte	0x7cd
 2298 0a2c 04       		.byte	0x4
 2299 0a2d 07       		.uleb128 0x7
 2300 0a2e 7F030000 		.4byte	.LASF161
 2301 0a32 14       		.byte	0x14
 2302 0a33 7E       		.byte	0x7e
 2303 0a34 CD070000 		.4byte	0x7cd
 2304 0a38 06       		.byte	0x6
 2305 0a39 07       		.uleb128 0x7
 2306 0a3a F5000000 		.4byte	.LASF162
 2307 0a3e 14       		.byte	0x14
 2308 0a3f 84       		.byte	0x84
 2309 0a40 B7070000 		.4byte	0x7b7
 2310 0a44 08       		.byte	0x8
 2311 0a45 07       		.uleb128 0x7
 2312 0a46 5C050000 		.4byte	.LASF163
 2313 0a4a 14       		.byte	0x14
 2314 0a4b 86       		.byte	0x86
 2315 0a4c B7070000 		.4byte	0x7b7
 2316 0a50 09       		.byte	0x9
 2317 0a51 07       		.uleb128 0x7
 2318 0a52 6C030000 		.4byte	.LASF164
 2319 0a56 14       		.byte	0x14
 2320 0a57 88       		.byte	0x88
 2321 0a58 CD070000 		.4byte	0x7cd
 2322 0a5c 0A       		.byte	0xa
 2323 0a5d 12       		.uleb128 0x12
 2324 0a5e 73726300 		.ascii	"src\000"
 2325 0a62 14       		.byte	0x14
 2326 0a63 8A       		.byte	0x8a
 2327 0a64 92080000 		.4byte	0x892
ARM GAS  C:\Users\Luis\AppData\Local\Temp\ccKPaE82.s 			page 42


 2328 0a68 0C       		.byte	0xc
 2329 0a69 07       		.uleb128 0x7
 2330 0a6a 3E0A0000 		.4byte	.LASF165
 2331 0a6e 14       		.byte	0x14
 2332 0a6f 8B       		.byte	0x8b
 2333 0a70 92080000 		.4byte	0x892
 2334 0a74 10       		.byte	0x10
 2335 0a75 00       		.byte	0
 2336 0a76 03       		.uleb128 0x3
 2337 0a77 D2040000 		.4byte	.LASF166
 2338 0a7b 15       		.byte	0x15
 2339 0a7c 4C       		.byte	0x4c
 2340 0a7d CD070000 		.4byte	0x7cd
 2341 0a81 1B       		.uleb128 0x1b
 2342 0a82 0E080000 		.4byte	.LASF238
 2343 0a86 01       		.byte	0x1
 2344 0a87 18       		.byte	0x18
 2345 0a88 38       		.byte	0x38
 2346 0a89 B20A0000 		.4byte	0xab2
 2347 0a8d 1C       		.uleb128 0x1c
 2348 0a8e A4000000 		.4byte	.LASF167
 2349 0a92 00       		.sleb128 0
 2350 0a93 1C       		.uleb128 0x1c
 2351 0a94 37000000 		.4byte	.LASF168
 2352 0a98 01       		.sleb128 1
 2353 0a99 1C       		.uleb128 0x1c
 2354 0a9a 08090000 		.4byte	.LASF169
 2355 0a9e 02       		.sleb128 2
 2356 0a9f 1C       		.uleb128 0x1c
 2357 0aa0 2E060000 		.4byte	.LASF170
 2358 0aa4 03       		.sleb128 3
 2359 0aa5 1C       		.uleb128 0x1c
 2360 0aa6 2D090000 		.4byte	.LASF171
 2361 0aaa 04       		.sleb128 4
 2362 0aab 1C       		.uleb128 0x1c
 2363 0aac 95030000 		.4byte	.LASF172
 2364 0ab0 05       		.sleb128 5
 2365 0ab1 00       		.byte	0
 2366 0ab2 1D       		.uleb128 0x1d
 2367 0ab3 01       		.byte	0x1
 2368 0ab4 19       		.byte	0x19
 2369 0ab5 2B       		.byte	0x2b
 2370 0ab6 150B0000 		.4byte	0xb15
 2371 0aba 1C       		.uleb128 0x1c
 2372 0abb EC060000 		.4byte	.LASF173
 2373 0abf 00       		.sleb128 0
 2374 0ac0 1C       		.uleb128 0x1c
 2375 0ac1 B4070000 		.4byte	.LASF174
 2376 0ac5 01       		.sleb128 1
 2377 0ac6 1C       		.uleb128 0x1c
 2378 0ac7 D6050000 		.4byte	.LASF175
 2379 0acb 02       		.sleb128 2
 2380 0acc 1C       		.uleb128 0x1c
 2381 0acd 23000000 		.4byte	.LASF176
 2382 0ad1 03       		.sleb128 3
 2383 0ad2 1C       		.uleb128 0x1c
 2384 0ad3 EA080000 		.4byte	.LASF177
ARM GAS  C:\Users\Luis\AppData\Local\Temp\ccKPaE82.s 			page 43


 2385 0ad7 04       		.sleb128 4
 2386 0ad8 1C       		.uleb128 0x1c
 2387 0ad9 68000000 		.4byte	.LASF178
 2388 0add 05       		.sleb128 5
 2389 0ade 1C       		.uleb128 0x1c
 2390 0adf FF070000 		.4byte	.LASF179
 2391 0ae3 06       		.sleb128 6
 2392 0ae4 1C       		.uleb128 0x1c
 2393 0ae5 95050000 		.4byte	.LASF180
 2394 0ae9 07       		.sleb128 7
 2395 0aea 1C       		.uleb128 0x1c
 2396 0aeb 83020000 		.4byte	.LASF181
 2397 0aef 08       		.sleb128 8
 2398 0af0 1C       		.uleb128 0x1c
 2399 0af1 BF020000 		.4byte	.LASF182
 2400 0af5 09       		.sleb128 9
 2401 0af6 1C       		.uleb128 0x1c
 2402 0af7 C9030000 		.4byte	.LASF183
 2403 0afb 0A       		.sleb128 10
 2404 0afc 1C       		.uleb128 0x1c
 2405 0afd 72070000 		.4byte	.LASF184
 2406 0b01 0B       		.sleb128 11
 2407 0b02 1C       		.uleb128 0x1c
 2408 0b03 B0040000 		.4byte	.LASF185
 2409 0b07 0C       		.sleb128 12
 2410 0b08 1C       		.uleb128 0x1c
 2411 0b09 1D020000 		.4byte	.LASF186
 2412 0b0d 0D       		.sleb128 13
 2413 0b0e 1C       		.uleb128 0x1c
 2414 0b0f 6D040000 		.4byte	.LASF187
 2415 0b13 0E       		.sleb128 14
 2416 0b14 00       		.byte	0
 2417 0b15 06       		.uleb128 0x6
 2418 0b16 10000000 		.4byte	.LASF188
 2419 0b1a 18       		.byte	0x18
 2420 0b1b 16       		.byte	0x16
 2421 0b1c 3A       		.byte	0x3a
 2422 0b1d B10B0000 		.4byte	0xbb1
 2423 0b21 07       		.uleb128 0x7
 2424 0b22 BF090000 		.4byte	.LASF189
 2425 0b26 16       		.byte	0x16
 2426 0b27 3B       		.byte	0x3b
 2427 0b28 CD070000 		.4byte	0x7cd
 2428 0b2c 00       		.byte	0
 2429 0b2d 07       		.uleb128 0x7
 2430 0b2e 75090000 		.4byte	.LASF190
 2431 0b32 16       		.byte	0x16
 2432 0b33 3C       		.byte	0x3c
 2433 0b34 CD070000 		.4byte	0x7cd
 2434 0b38 02       		.byte	0x2
 2435 0b39 12       		.uleb128 0x12
 2436 0b3a 667700   		.ascii	"fw\000"
 2437 0b3d 16       		.byte	0x16
 2438 0b3e 3D       		.byte	0x3d
 2439 0b3f CD070000 		.4byte	0x7cd
 2440 0b43 04       		.byte	0x4
 2441 0b44 07       		.uleb128 0x7
ARM GAS  C:\Users\Luis\AppData\Local\Temp\ccKPaE82.s 			page 44


 2442 0b45 3B090000 		.4byte	.LASF191
 2443 0b49 16       		.byte	0x16
 2444 0b4a 3E       		.byte	0x3e
 2445 0b4b CD070000 		.4byte	0x7cd
 2446 0b4f 06       		.byte	0x6
 2447 0b50 07       		.uleb128 0x7
 2448 0b51 1F060000 		.4byte	.LASF192
 2449 0b55 16       		.byte	0x16
 2450 0b56 3F       		.byte	0x3f
 2451 0b57 CD070000 		.4byte	0x7cd
 2452 0b5b 08       		.byte	0x8
 2453 0b5c 07       		.uleb128 0x7
 2454 0b5d 21080000 		.4byte	.LASF193
 2455 0b61 16       		.byte	0x16
 2456 0b62 40       		.byte	0x40
 2457 0b63 CD070000 		.4byte	0x7cd
 2458 0b67 0A       		.byte	0xa
 2459 0b68 07       		.uleb128 0x7
 2460 0b69 4B060000 		.4byte	.LASF194
 2461 0b6d 16       		.byte	0x16
 2462 0b6e 41       		.byte	0x41
 2463 0b6f CD070000 		.4byte	0x7cd
 2464 0b73 0C       		.byte	0xc
 2465 0b74 07       		.uleb128 0x7
 2466 0b75 59070000 		.4byte	.LASF195
 2467 0b79 16       		.byte	0x16
 2468 0b7a 42       		.byte	0x42
 2469 0b7b CD070000 		.4byte	0x7cd
 2470 0b7f 0E       		.byte	0xe
 2471 0b80 07       		.uleb128 0x7
 2472 0b81 83080000 		.4byte	.LASF196
 2473 0b85 16       		.byte	0x16
 2474 0b86 43       		.byte	0x43
 2475 0b87 CD070000 		.4byte	0x7cd
 2476 0b8b 10       		.byte	0x10
 2477 0b8c 07       		.uleb128 0x7
 2478 0b8d D2020000 		.4byte	.LASF197
 2479 0b91 16       		.byte	0x16
 2480 0b92 44       		.byte	0x44
 2481 0b93 CD070000 		.4byte	0x7cd
 2482 0b97 12       		.byte	0x12
 2483 0b98 12       		.uleb128 0x12
 2484 0b99 65727200 		.ascii	"err\000"
 2485 0b9d 16       		.byte	0x16
 2486 0b9e 45       		.byte	0x45
 2487 0b9f CD070000 		.4byte	0x7cd
 2488 0ba3 14       		.byte	0x14
 2489 0ba4 07       		.uleb128 0x7
 2490 0ba5 A4070000 		.4byte	.LASF198
 2491 0ba9 16       		.byte	0x16
 2492 0baa 46       		.byte	0x46
 2493 0bab CD070000 		.4byte	0x7cd
 2494 0baf 16       		.byte	0x16
 2495 0bb0 00       		.byte	0
 2496 0bb1 06       		.uleb128 0x6
 2497 0bb2 FC010000 		.4byte	.LASF199
 2498 0bb6 0A       		.byte	0xa
ARM GAS  C:\Users\Luis\AppData\Local\Temp\ccKPaE82.s 			page 45


 2499 0bb7 16       		.byte	0x16
 2500 0bb8 5A       		.byte	0x5a
 2501 0bb9 FA0B0000 		.4byte	0xbfa
 2502 0bbd 07       		.uleb128 0x7
 2503 0bbe 6C070000 		.4byte	.LASF200
 2504 0bc2 16       		.byte	0x16
 2505 0bc3 5E       		.byte	0x5e
 2506 0bc4 760A0000 		.4byte	0xa76
 2507 0bc8 00       		.byte	0
 2508 0bc9 07       		.uleb128 0x7
 2509 0bca DE030000 		.4byte	.LASF201
 2510 0bce 16       		.byte	0x16
 2511 0bcf 5F       		.byte	0x5f
 2512 0bd0 760A0000 		.4byte	0xa76
 2513 0bd4 02       		.byte	0x2
 2514 0bd5 12       		.uleb128 0x12
 2515 0bd6 6D617800 		.ascii	"max\000"
 2516 0bda 16       		.byte	0x16
 2517 0bdb 60       		.byte	0x60
 2518 0bdc 760A0000 		.4byte	0xa76
 2519 0be0 04       		.byte	0x4
 2520 0be1 12       		.uleb128 0x12
 2521 0be2 65727200 		.ascii	"err\000"
 2522 0be6 16       		.byte	0x16
 2523 0be7 61       		.byte	0x61
 2524 0be8 CD070000 		.4byte	0x7cd
 2525 0bec 06       		.byte	0x6
 2526 0bed 07       		.uleb128 0x7
 2527 0bee CA040000 		.4byte	.LASF202
 2528 0bf2 16       		.byte	0x16
 2529 0bf3 62       		.byte	0x62
 2530 0bf4 CD070000 		.4byte	0x7cd
 2531 0bf8 08       		.byte	0x8
 2532 0bf9 00       		.byte	0
 2533 0bfa 06       		.uleb128 0x6
 2534 0bfb 5D020000 		.4byte	.LASF203
 2535 0bff 06       		.byte	0x6
 2536 0c00 16       		.byte	0x16
 2537 0c01 65       		.byte	0x65
 2538 0c02 2B0C0000 		.4byte	0xc2b
 2539 0c06 07       		.uleb128 0x7
 2540 0c07 DE030000 		.4byte	.LASF201
 2541 0c0b 16       		.byte	0x16
 2542 0c0c 66       		.byte	0x66
 2543 0c0d CD070000 		.4byte	0x7cd
 2544 0c11 00       		.byte	0
 2545 0c12 12       		.uleb128 0x12
 2546 0c13 6D617800 		.ascii	"max\000"
 2547 0c17 16       		.byte	0x16
 2548 0c18 67       		.byte	0x67
 2549 0c19 CD070000 		.4byte	0x7cd
 2550 0c1d 02       		.byte	0x2
 2551 0c1e 12       		.uleb128 0x12
 2552 0c1f 65727200 		.ascii	"err\000"
 2553 0c23 16       		.byte	0x16
 2554 0c24 68       		.byte	0x68
 2555 0c25 CD070000 		.4byte	0x7cd
ARM GAS  C:\Users\Luis\AppData\Local\Temp\ccKPaE82.s 			page 46


 2556 0c29 04       		.byte	0x4
 2557 0c2a 00       		.byte	0
 2558 0c2b 06       		.uleb128 0x6
 2559 0c2c B5080000 		.4byte	.LASF204
 2560 0c30 12       		.byte	0x12
 2561 0c31 16       		.byte	0x16
 2562 0c32 6B       		.byte	0x6b
 2563 0c33 5C0C0000 		.4byte	0xc5c
 2564 0c37 12       		.uleb128 0x12
 2565 0c38 73656D00 		.ascii	"sem\000"
 2566 0c3c 16       		.byte	0x16
 2567 0c3d 6C       		.byte	0x6c
 2568 0c3e FA0B0000 		.4byte	0xbfa
 2569 0c42 00       		.byte	0
 2570 0c43 07       		.uleb128 0x7
 2571 0c44 D9020000 		.4byte	.LASF205
 2572 0c48 16       		.byte	0x16
 2573 0c49 6D       		.byte	0x6d
 2574 0c4a FA0B0000 		.4byte	0xbfa
 2575 0c4e 06       		.byte	0x6
 2576 0c4f 07       		.uleb128 0x7
 2577 0c50 C7070000 		.4byte	.LASF206
 2578 0c54 16       		.byte	0x16
 2579 0c55 6E       		.byte	0x6e
 2580 0c56 FA0B0000 		.4byte	0xbfa
 2581 0c5a 0C       		.byte	0xc
 2582 0c5b 00       		.byte	0
 2583 0c5c 1E       		.uleb128 0x1e
 2584 0c5d E3030000 		.4byte	.LASF207
 2585 0c61 5001     		.2byte	0x150
 2586 0c63 16       		.byte	0x16
 2587 0c64 71       		.byte	0x71
 2588 0c65 E20C0000 		.4byte	0xce2
 2589 0c69 07       		.uleb128 0x7
 2590 0c6a D3010000 		.4byte	.LASF208
 2591 0c6e 16       		.byte	0x16
 2592 0c6f 73       		.byte	0x73
 2593 0c70 150B0000 		.4byte	0xb15
 2594 0c74 00       		.byte	0
 2595 0c75 07       		.uleb128 0x7
 2596 0c76 FA000000 		.4byte	.LASF209
 2597 0c7a 16       		.byte	0x16
 2598 0c7b 76       		.byte	0x76
 2599 0c7c 150B0000 		.4byte	0xb15
 2600 0c80 18       		.byte	0x18
 2601 0c81 07       		.uleb128 0x7
 2602 0c82 DF020000 		.4byte	.LASF210
 2603 0c86 16       		.byte	0x16
 2604 0c87 79       		.byte	0x79
 2605 0c88 150B0000 		.4byte	0xb15
 2606 0c8c 30       		.byte	0x30
 2607 0c8d 12       		.uleb128 0x12
 2608 0c8e 697000   		.ascii	"ip\000"
 2609 0c91 16       		.byte	0x16
 2610 0c92 7C       		.byte	0x7c
 2611 0c93 150B0000 		.4byte	0xb15
 2612 0c97 48       		.byte	0x48
ARM GAS  C:\Users\Luis\AppData\Local\Temp\ccKPaE82.s 			page 47


 2613 0c98 07       		.uleb128 0x7
 2614 0c99 22070000 		.4byte	.LASF211
 2615 0c9d 16       		.byte	0x16
 2616 0c9e 7F       		.byte	0x7f
 2617 0c9f 150B0000 		.4byte	0xb15
 2618 0ca3 60       		.byte	0x60
 2619 0ca4 12       		.uleb128 0x12
 2620 0ca5 75647000 		.ascii	"udp\000"
 2621 0ca9 16       		.byte	0x16
 2622 0caa 85       		.byte	0x85
 2623 0cab 150B0000 		.4byte	0xb15
 2624 0caf 78       		.byte	0x78
 2625 0cb0 12       		.uleb128 0x12
 2626 0cb1 74637000 		.ascii	"tcp\000"
 2627 0cb5 16       		.byte	0x16
 2628 0cb6 88       		.byte	0x88
 2629 0cb7 150B0000 		.4byte	0xb15
 2630 0cbb 90       		.byte	0x90
 2631 0cbc 12       		.uleb128 0x12
 2632 0cbd 6D656D00 		.ascii	"mem\000"
 2633 0cc1 16       		.byte	0x16
 2634 0cc2 8B       		.byte	0x8b
 2635 0cc3 B10B0000 		.4byte	0xbb1
 2636 0cc7 A8       		.byte	0xa8
 2637 0cc8 07       		.uleb128 0x7
 2638 0cc9 1C080000 		.4byte	.LASF212
 2639 0ccd 16       		.byte	0x16
 2640 0cce 8E       		.byte	0x8e
 2641 0ccf E20C0000 		.4byte	0xce2
 2642 0cd3 B2       		.byte	0xb2
 2643 0cd4 1F       		.uleb128 0x1f
 2644 0cd5 73797300 		.ascii	"sys\000"
 2645 0cd9 16       		.byte	0x16
 2646 0cda 91       		.byte	0x91
 2647 0cdb 2B0C0000 		.4byte	0xc2b
 2648 0cdf 3E01     		.2byte	0x13e
 2649 0ce1 00       		.byte	0
 2650 0ce2 15       		.uleb128 0x15
 2651 0ce3 B10B0000 		.4byte	0xbb1
 2652 0ce7 F20C0000 		.4byte	0xcf2
 2653 0ceb 16       		.uleb128 0x16
 2654 0cec AB040000 		.4byte	0x4ab
 2655 0cf0 0D       		.byte	0xd
 2656 0cf1 00       		.byte	0
 2657 0cf2 20       		.uleb128 0x20
 2658 0cf3 83070000 		.4byte	.LASF239
 2659 0cf7 01       		.byte	0x1
 2660 0cf8 CC01     		.2byte	0x1cc
 2661 0cfa 00000000 		.4byte	.LFB230
 2662 0cfe 14000000 		.4byte	.LFE230-.LFB230
 2663 0d02 01       		.uleb128 0x1
 2664 0d03 9C       		.byte	0x9c
 2665 0d04 180D0000 		.4byte	0xd18
 2666 0d08 21       		.uleb128 0x21
 2667 0d09 4B030000 		.4byte	.LASF213
 2668 0d0d 01       		.byte	0x1
 2669 0d0e CC01     		.2byte	0x1cc
ARM GAS  C:\Users\Luis\AppData\Local\Temp\ccKPaE82.s 			page 48


 2670 0d10 6C070000 		.4byte	0x76c
 2671 0d14 02       		.uleb128 0x2
 2672 0d15 91       		.byte	0x91
 2673 0d16 74       		.sleb128 -12
 2674 0d17 00       		.byte	0
 2675 0d18 22       		.uleb128 0x22
 2676 0d19 F6090000 		.4byte	.LASF214
 2677 0d1d 02       		.byte	0x2
 2678 0d1e 7C       		.byte	0x7c
 2679 0d1f 9D080000 		.4byte	0x89d
 2680 0d23 00000000 		.4byte	.LFB260
 2681 0d27 8C000000 		.4byte	.LFE260-.LFB260
 2682 0d2b 01       		.uleb128 0x1
 2683 0d2c 9C       		.byte	0x9c
 2684 0d2d 4E0D0000 		.4byte	0xd4e
 2685 0d31 23       		.uleb128 0x23
 2686 0d32 3E0A0000 		.4byte	.LASF165
 2687 0d36 02       		.byte	0x2
 2688 0d37 7C       		.byte	0x7c
 2689 0d38 A6090000 		.4byte	0x9a6
 2690 0d3c 02       		.uleb128 0x2
 2691 0d3d 91       		.byte	0x91
 2692 0d3e 6C       		.sleb128 -20
 2693 0d3f 24       		.uleb128 0x24
 2694 0d40 57090000 		.4byte	.LASF145
 2695 0d44 02       		.byte	0x2
 2696 0d45 7E       		.byte	0x7e
 2697 0d46 9D080000 		.4byte	0x89d
 2698 0d4a 02       		.uleb128 0x2
 2699 0d4b 91       		.byte	0x91
 2700 0d4c 74       		.sleb128 -12
 2701 0d4d 00       		.byte	0
 2702 0d4e 25       		.uleb128 0x25
 2703 0d4f 89060000 		.4byte	.LASF215
 2704 0d53 02       		.byte	0x2
 2705 0d54 3101     		.2byte	0x131
 2706 0d56 E3070000 		.4byte	0x7e3
 2707 0d5a 00000000 		.4byte	.LFB261
 2708 0d5e D8020000 		.4byte	.LFE261-.LFB261
 2709 0d62 01       		.uleb128 0x1
 2710 0d63 9C       		.byte	0x9c
 2711 0d64 DA0D0000 		.4byte	0xdda
 2712 0d68 26       		.uleb128 0x26
 2713 0d69 7000     		.ascii	"p\000"
 2714 0d6b 02       		.byte	0x2
 2715 0d6c 3101     		.2byte	0x131
 2716 0d6e 4F080000 		.4byte	0x84f
 2717 0d72 02       		.uleb128 0x2
 2718 0d73 91       		.byte	0x91
 2719 0d74 64       		.sleb128 -28
 2720 0d75 26       		.uleb128 0x26
 2721 0d76 696E7000 		.ascii	"inp\000"
 2722 0d7a 02       		.byte	0x2
 2723 0d7b 3101     		.2byte	0x131
 2724 0d7d 9D080000 		.4byte	0x89d
 2725 0d81 02       		.uleb128 0x2
 2726 0d82 91       		.byte	0x91
ARM GAS  C:\Users\Luis\AppData\Local\Temp\ccKPaE82.s 			page 49


 2727 0d83 60       		.sleb128 -32
 2728 0d84 27       		.uleb128 0x27
 2729 0d85 6F090000 		.4byte	.LASF216
 2730 0d89 02       		.byte	0x2
 2731 0d8a 3301     		.2byte	0x133
 2732 0d8c DA0D0000 		.4byte	0xdda
 2733 0d90 02       		.uleb128 0x2
 2734 0d91 91       		.byte	0x91
 2735 0d92 74       		.sleb128 -12
 2736 0d93 27       		.uleb128 0x27
 2737 0d94 57090000 		.4byte	.LASF145
 2738 0d98 02       		.byte	0x2
 2739 0d99 3401     		.2byte	0x134
 2740 0d9b 9D080000 		.4byte	0x89d
 2741 0d9f 02       		.uleb128 0x2
 2742 0da0 91       		.byte	0x91
 2743 0da1 70       		.sleb128 -16
 2744 0da2 27       		.uleb128 0x27
 2745 0da3 1F030000 		.4byte	.LASF217
 2746 0da7 02       		.byte	0x2
 2747 0da8 3501     		.2byte	0x135
 2748 0daa CD070000 		.4byte	0x7cd
 2749 0dae 02       		.uleb128 0x2
 2750 0daf 91       		.byte	0x91
 2751 0db0 6A       		.sleb128 -22
 2752 0db1 27       		.uleb128 0x27
 2753 0db2 290A0000 		.4byte	.LASF218
 2754 0db6 02       		.byte	0x2
 2755 0db7 3601     		.2byte	0x136
 2756 0db9 CD070000 		.4byte	0x7cd
 2757 0dbd 02       		.uleb128 0x2
 2758 0dbe 91       		.byte	0x91
 2759 0dbf 68       		.sleb128 -24
 2760 0dc0 28       		.uleb128 0x28
 2761 0dc1 08010000 		.4byte	.LBB2
 2762 0dc5 70000000 		.4byte	.LBE2-.LBB2
 2763 0dc9 27       		.uleb128 0x27
 2764 0dca 17090000 		.4byte	.LASF219
 2765 0dce 02       		.byte	0x2
 2766 0dcf 9101     		.2byte	0x191
 2767 0dd1 25000000 		.4byte	0x25
 2768 0dd5 02       		.uleb128 0x2
 2769 0dd6 91       		.byte	0x91
 2770 0dd7 6C       		.sleb128 -20
 2771 0dd8 00       		.byte	0
 2772 0dd9 00       		.byte	0
 2773 0dda 0A       		.uleb128 0xa
 2774 0ddb 04       		.byte	0x4
 2775 0ddc F1090000 		.4byte	0x9f1
 2776 0de0 25       		.uleb128 0x25
 2777 0de1 D2070000 		.4byte	.LASF220
 2778 0de5 02       		.byte	0x2
 2779 0de6 8102     		.2byte	0x281
 2780 0de8 E3070000 		.4byte	0x7e3
 2781 0dec 00000000 		.4byte	.LFB262
 2782 0df0 E8010000 		.4byte	.LFE262-.LFB262
 2783 0df4 01       		.uleb128 0x1
ARM GAS  C:\Users\Luis\AppData\Local\Temp\ccKPaE82.s 			page 50


 2784 0df5 9C       		.byte	0x9c
 2785 0df6 A80E0000 		.4byte	0xea8
 2786 0dfa 26       		.uleb128 0x26
 2787 0dfb 7000     		.ascii	"p\000"
 2788 0dfd 02       		.byte	0x2
 2789 0dfe 8102     		.2byte	0x281
 2790 0e00 4F080000 		.4byte	0x84f
 2791 0e04 02       		.uleb128 0x2
 2792 0e05 91       		.byte	0x91
 2793 0e06 64       		.sleb128 -28
 2794 0e07 26       		.uleb128 0x26
 2795 0e08 73726300 		.ascii	"src\000"
 2796 0e0c 02       		.byte	0x2
 2797 0e0d 8102     		.2byte	0x281
 2798 0e0f A6090000 		.4byte	0x9a6
 2799 0e13 02       		.uleb128 0x2
 2800 0e14 91       		.byte	0x91
 2801 0e15 60       		.sleb128 -32
 2802 0e16 21       		.uleb128 0x21
 2803 0e17 3E0A0000 		.4byte	.LASF165
 2804 0e1b 02       		.byte	0x2
 2805 0e1c 8102     		.2byte	0x281
 2806 0e1e A6090000 		.4byte	0x9a6
 2807 0e22 02       		.uleb128 0x2
 2808 0e23 91       		.byte	0x91
 2809 0e24 5C       		.sleb128 -36
 2810 0e25 26       		.uleb128 0x26
 2811 0e26 74746C00 		.ascii	"ttl\000"
 2812 0e2a 02       		.byte	0x2
 2813 0e2b 8202     		.2byte	0x282
 2814 0e2d B7070000 		.4byte	0x7b7
 2815 0e31 02       		.uleb128 0x2
 2816 0e32 91       		.byte	0x91
 2817 0e33 5B       		.sleb128 -37
 2818 0e34 26       		.uleb128 0x26
 2819 0e35 746F7300 		.ascii	"tos\000"
 2820 0e39 02       		.byte	0x2
 2821 0e3a 8202     		.2byte	0x282
 2822 0e3c B7070000 		.4byte	0x7b7
 2823 0e40 02       		.uleb128 0x2
 2824 0e41 91       		.byte	0x91
 2825 0e42 00       		.sleb128 0
 2826 0e43 21       		.uleb128 0x21
 2827 0e44 01050000 		.4byte	.LASF221
 2828 0e48 02       		.byte	0x2
 2829 0e49 8302     		.2byte	0x283
 2830 0e4b B7070000 		.4byte	0x7b7
 2831 0e4f 02       		.uleb128 0x2
 2832 0e50 91       		.byte	0x91
 2833 0e51 04       		.sleb128 4
 2834 0e52 21       		.uleb128 0x21
 2835 0e53 57090000 		.4byte	.LASF145
 2836 0e57 02       		.byte	0x2
 2837 0e58 8302     		.2byte	0x283
 2838 0e5a 9D080000 		.4byte	0x89d
 2839 0e5e 02       		.uleb128 0x2
 2840 0e5f 91       		.byte	0x91
ARM GAS  C:\Users\Luis\AppData\Local\Temp\ccKPaE82.s 			page 51


 2841 0e60 08       		.sleb128 8
 2842 0e61 27       		.uleb128 0x27
 2843 0e62 6F090000 		.4byte	.LASF216
 2844 0e66 02       		.byte	0x2
 2845 0e67 9402     		.2byte	0x294
 2846 0e69 DA0D0000 		.4byte	0xdda
 2847 0e6d 02       		.uleb128 0x2
 2848 0e6e 91       		.byte	0x91
 2849 0e6f 6C       		.sleb128 -20
 2850 0e70 27       		.uleb128 0x27
 2851 0e71 4C0A0000 		.4byte	.LASF222
 2852 0e75 02       		.byte	0x2
 2853 0e76 9502     		.2byte	0x295
 2854 0e78 87080000 		.4byte	0x887
 2855 0e7c 02       		.uleb128 0x2
 2856 0e7d 91       		.byte	0x91
 2857 0e7e 68       		.sleb128 -24
 2858 0e7f 27       		.uleb128 0x27
 2859 0e80 06060000 		.4byte	.LASF223
 2860 0e84 02       		.byte	0x2
 2861 0e85 9702     		.2byte	0x297
 2862 0e87 D8070000 		.4byte	0x7d8
 2863 0e8b 02       		.uleb128 0x2
 2864 0e8c 91       		.byte	0x91
 2865 0e8d 74       		.sleb128 -12
 2866 0e8e 28       		.uleb128 0x28
 2867 0e8f 28000000 		.4byte	.LBB3
 2868 0e93 52010000 		.4byte	.LBE3-.LBB3
 2869 0e97 27       		.uleb128 0x27
 2870 0e98 64030000 		.4byte	.LASF224
 2871 0e9c 02       		.byte	0x2
 2872 0e9d A202     		.2byte	0x2a2
 2873 0e9f CD070000 		.4byte	0x7cd
 2874 0ea3 02       		.uleb128 0x2
 2875 0ea4 91       		.byte	0x91
 2876 0ea5 72       		.sleb128 -14
 2877 0ea6 00       		.byte	0
 2878 0ea7 00       		.byte	0
 2879 0ea8 25       		.uleb128 0x25
 2880 0ea9 F3030000 		.4byte	.LASF225
 2881 0ead 02       		.byte	0x2
 2882 0eae 3203     		.2byte	0x332
 2883 0eb0 E3070000 		.4byte	0x7e3
 2884 0eb4 00000000 		.4byte	.LFB263
 2885 0eb8 70000000 		.4byte	.LFE263-.LFB263
 2886 0ebc 01       		.uleb128 0x1
 2887 0ebd 9C       		.byte	0x9c
 2888 0ebe 2A0F0000 		.4byte	0xf2a
 2889 0ec2 26       		.uleb128 0x26
 2890 0ec3 7000     		.ascii	"p\000"
 2891 0ec5 02       		.byte	0x2
 2892 0ec6 3203     		.2byte	0x332
 2893 0ec8 4F080000 		.4byte	0x84f
 2894 0ecc 02       		.uleb128 0x2
 2895 0ecd 91       		.byte	0x91
 2896 0ece 6C       		.sleb128 -20
 2897 0ecf 26       		.uleb128 0x26
ARM GAS  C:\Users\Luis\AppData\Local\Temp\ccKPaE82.s 			page 52


 2898 0ed0 73726300 		.ascii	"src\000"
 2899 0ed4 02       		.byte	0x2
 2900 0ed5 3203     		.2byte	0x332
 2901 0ed7 A6090000 		.4byte	0x9a6
 2902 0edb 02       		.uleb128 0x2
 2903 0edc 91       		.byte	0x91
 2904 0edd 68       		.sleb128 -24
 2905 0ede 21       		.uleb128 0x21
 2906 0edf 3E0A0000 		.4byte	.LASF165
 2907 0ee3 02       		.byte	0x2
 2908 0ee4 3203     		.2byte	0x332
 2909 0ee6 A6090000 		.4byte	0x9a6
 2910 0eea 02       		.uleb128 0x2
 2911 0eeb 91       		.byte	0x91
 2912 0eec 64       		.sleb128 -28
 2913 0eed 26       		.uleb128 0x26
 2914 0eee 74746C00 		.ascii	"ttl\000"
 2915 0ef2 02       		.byte	0x2
 2916 0ef3 3303     		.2byte	0x333
 2917 0ef5 B7070000 		.4byte	0x7b7
 2918 0ef9 02       		.uleb128 0x2
 2919 0efa 91       		.byte	0x91
 2920 0efb 63       		.sleb128 -29
 2921 0efc 26       		.uleb128 0x26
 2922 0efd 746F7300 		.ascii	"tos\000"
 2923 0f01 02       		.byte	0x2
 2924 0f02 3303     		.2byte	0x333
 2925 0f04 B7070000 		.4byte	0x7b7
 2926 0f08 02       		.uleb128 0x2
 2927 0f09 91       		.byte	0x91
 2928 0f0a 00       		.sleb128 0
 2929 0f0b 21       		.uleb128 0x21
 2930 0f0c 01050000 		.4byte	.LASF221
 2931 0f10 02       		.byte	0x2
 2932 0f11 3303     		.2byte	0x333
 2933 0f13 B7070000 		.4byte	0x7b7
 2934 0f17 02       		.uleb128 0x2
 2935 0f18 91       		.byte	0x91
 2936 0f19 04       		.sleb128 4
 2937 0f1a 27       		.uleb128 0x27
 2938 0f1b 57090000 		.4byte	.LASF145
 2939 0f1f 02       		.byte	0x2
 2940 0f20 3503     		.2byte	0x335
 2941 0f22 9D080000 		.4byte	0x89d
 2942 0f26 02       		.uleb128 0x2
 2943 0f27 91       		.byte	0x91
 2944 0f28 74       		.sleb128 -12
 2945 0f29 00       		.byte	0
 2946 0f2a 24       		.uleb128 0x24
 2947 0f2b CF060000 		.4byte	.LASF226
 2948 0f2f 02       		.byte	0x2
 2949 0f30 70       		.byte	0x70
 2950 0f31 CD070000 		.4byte	0x7cd
 2951 0f35 05       		.uleb128 0x5
 2952 0f36 03       		.byte	0x3
 2953 0f37 00000000 		.4byte	ip_id
 2954 0f3b 29       		.uleb128 0x29
ARM GAS  C:\Users\Luis\AppData\Local\Temp\ccKPaE82.s 			page 53


 2955 0f3c 5F070000 		.4byte	.LASF227
 2956 0f40 17       		.byte	0x17
 2957 0f41 A706     		.2byte	0x6a7
 2958 0f43 B8000000 		.4byte	0xb8
 2959 0f47 2A       		.uleb128 0x2a
 2960 0f48 636800   		.ascii	"ch\000"
 2961 0f4b 07       		.byte	0x7
 2962 0f4c 0902     		.2byte	0x209
 2963 0f4e 33040000 		.4byte	0x433
 2964 0f52 2B       		.uleb128 0x2b
 2965 0f53 0D030000 		.4byte	.LASF228
 2966 0f57 13       		.byte	0x13
 2967 0f58 FD       		.byte	0xfd
 2968 0f59 9D080000 		.4byte	0x89d
 2969 0f5d 2B       		.uleb128 0x2b
 2970 0f5e 64060000 		.4byte	.LASF229
 2971 0f62 13       		.byte	0x13
 2972 0f63 FF       		.byte	0xff
 2973 0f64 9D080000 		.4byte	0x89d
 2974 0f68 2C       		.uleb128 0x2c
 2975 0f69 F9060000 		.4byte	.LASF230
 2976 0f6d 02       		.byte	0x2
 2977 0f6e 64       		.byte	0x64
 2978 0f6f 9D080000 		.4byte	0x89d
 2979 0f73 05       		.uleb128 0x5
 2980 0f74 03       		.byte	0x3
 2981 0f75 00000000 		.4byte	current_netif
 2982 0f79 2C       		.uleb128 0x2c
 2983 0f7a 7B040000 		.4byte	.LASF231
 2984 0f7e 02       		.byte	0x2
 2985 0f7f 69       		.byte	0x69
 2986 0f80 8A0F0000 		.4byte	0xf8a
 2987 0f84 05       		.uleb128 0x5
 2988 0f85 03       		.byte	0x3
 2989 0f86 00000000 		.4byte	current_header
 2990 0f8a 0A       		.uleb128 0xa
 2991 0f8b 04       		.byte	0x4
 2992 0f8c 900F0000 		.4byte	0xf90
 2993 0f90 19       		.uleb128 0x19
 2994 0f91 F1090000 		.4byte	0x9f1
 2995 0f95 2C       		.uleb128 0x2c
 2996 0f96 52030000 		.4byte	.LASF232
 2997 0f9a 02       		.byte	0x2
 2998 0f9b 6B       		.byte	0x6b
 2999 0f9c 87080000 		.4byte	0x887
 3000 0fa0 05       		.uleb128 0x5
 3001 0fa1 03       		.byte	0x3
 3002 0fa2 00000000 		.4byte	current_iphdr_src
 3003 0fa6 2C       		.uleb128 0x2c
 3004 0fa7 C4090000 		.4byte	.LASF233
 3005 0fab 02       		.byte	0x2
 3006 0fac 6D       		.byte	0x6d
 3007 0fad 87080000 		.4byte	0x887
 3008 0fb1 05       		.uleb128 0x5
 3009 0fb2 03       		.byte	0x3
 3010 0fb3 00000000 		.4byte	current_iphdr_dest
 3011 0fb7 2B       		.uleb128 0x2b
ARM GAS  C:\Users\Luis\AppData\Local\Temp\ccKPaE82.s 			page 54


 3012 0fb8 2C020000 		.4byte	.LASF234
 3013 0fbc 16       		.byte	0x16
 3014 0fbd 95       		.byte	0x95
 3015 0fbe 5C0C0000 		.4byte	0xc5c
 3016 0fc2 00       		.byte	0
 3017              		.section	.debug_abbrev,"",%progbits
 3018              	.Ldebug_abbrev0:
 3019 0000 01       		.uleb128 0x1
 3020 0001 11       		.uleb128 0x11
 3021 0002 01       		.byte	0x1
 3022 0003 25       		.uleb128 0x25
 3023 0004 0E       		.uleb128 0xe
 3024 0005 13       		.uleb128 0x13
 3025 0006 0B       		.uleb128 0xb
 3026 0007 03       		.uleb128 0x3
 3027 0008 0E       		.uleb128 0xe
 3028 0009 1B       		.uleb128 0x1b
 3029 000a 0E       		.uleb128 0xe
 3030 000b 55       		.uleb128 0x55
 3031 000c 17       		.uleb128 0x17
 3032 000d 11       		.uleb128 0x11
 3033 000e 01       		.uleb128 0x1
 3034 000f 10       		.uleb128 0x10
 3035 0010 17       		.uleb128 0x17
 3036 0011 00       		.byte	0
 3037 0012 00       		.byte	0
 3038 0013 02       		.uleb128 0x2
 3039 0014 24       		.uleb128 0x24
 3040 0015 00       		.byte	0
 3041 0016 0B       		.uleb128 0xb
 3042 0017 0B       		.uleb128 0xb
 3043 0018 3E       		.uleb128 0x3e
 3044 0019 0B       		.uleb128 0xb
 3045 001a 03       		.uleb128 0x3
 3046 001b 08       		.uleb128 0x8
 3047 001c 00       		.byte	0
 3048 001d 00       		.byte	0
 3049 001e 03       		.uleb128 0x3
 3050 001f 16       		.uleb128 0x16
 3051 0020 00       		.byte	0
 3052 0021 03       		.uleb128 0x3
 3053 0022 0E       		.uleb128 0xe
 3054 0023 3A       		.uleb128 0x3a
 3055 0024 0B       		.uleb128 0xb
 3056 0025 3B       		.uleb128 0x3b
 3057 0026 0B       		.uleb128 0xb
 3058 0027 49       		.uleb128 0x49
 3059 0028 13       		.uleb128 0x13
 3060 0029 00       		.byte	0
 3061 002a 00       		.byte	0
 3062 002b 04       		.uleb128 0x4
 3063 002c 24       		.uleb128 0x24
 3064 002d 00       		.byte	0
 3065 002e 0B       		.uleb128 0xb
 3066 002f 0B       		.uleb128 0xb
 3067 0030 3E       		.uleb128 0x3e
 3068 0031 0B       		.uleb128 0xb
ARM GAS  C:\Users\Luis\AppData\Local\Temp\ccKPaE82.s 			page 55


 3069 0032 03       		.uleb128 0x3
 3070 0033 0E       		.uleb128 0xe
 3071 0034 00       		.byte	0
 3072 0035 00       		.byte	0
 3073 0036 05       		.uleb128 0x5
 3074 0037 35       		.uleb128 0x35
 3075 0038 00       		.byte	0
 3076 0039 49       		.uleb128 0x49
 3077 003a 13       		.uleb128 0x13
 3078 003b 00       		.byte	0
 3079 003c 00       		.byte	0
 3080 003d 06       		.uleb128 0x6
 3081 003e 13       		.uleb128 0x13
 3082 003f 01       		.byte	0x1
 3083 0040 03       		.uleb128 0x3
 3084 0041 0E       		.uleb128 0xe
 3085 0042 0B       		.uleb128 0xb
 3086 0043 0B       		.uleb128 0xb
 3087 0044 3A       		.uleb128 0x3a
 3088 0045 0B       		.uleb128 0xb
 3089 0046 3B       		.uleb128 0x3b
 3090 0047 0B       		.uleb128 0xb
 3091 0048 01       		.uleb128 0x1
 3092 0049 13       		.uleb128 0x13
 3093 004a 00       		.byte	0
 3094 004b 00       		.byte	0
 3095 004c 07       		.uleb128 0x7
 3096 004d 0D       		.uleb128 0xd
 3097 004e 00       		.byte	0
 3098 004f 03       		.uleb128 0x3
 3099 0050 0E       		.uleb128 0xe
 3100 0051 3A       		.uleb128 0x3a
 3101 0052 0B       		.uleb128 0xb
 3102 0053 3B       		.uleb128 0x3b
 3103 0054 0B       		.uleb128 0xb
 3104 0055 49       		.uleb128 0x49
 3105 0056 13       		.uleb128 0x13
 3106 0057 38       		.uleb128 0x38
 3107 0058 0B       		.uleb128 0xb
 3108 0059 00       		.byte	0
 3109 005a 00       		.byte	0
 3110 005b 08       		.uleb128 0x8
 3111 005c 0D       		.uleb128 0xd
 3112 005d 00       		.byte	0
 3113 005e 03       		.uleb128 0x3
 3114 005f 08       		.uleb128 0x8
 3115 0060 3A       		.uleb128 0x3a
 3116 0061 0B       		.uleb128 0xb
 3117 0062 3B       		.uleb128 0x3b
 3118 0063 05       		.uleb128 0x5
 3119 0064 49       		.uleb128 0x49
 3120 0065 13       		.uleb128 0x13
 3121 0066 38       		.uleb128 0x38
 3122 0067 0B       		.uleb128 0xb
 3123 0068 00       		.byte	0
 3124 0069 00       		.byte	0
 3125 006a 09       		.uleb128 0x9
ARM GAS  C:\Users\Luis\AppData\Local\Temp\ccKPaE82.s 			page 56


 3126 006b 0D       		.uleb128 0xd
 3127 006c 00       		.byte	0
 3128 006d 03       		.uleb128 0x3
 3129 006e 0E       		.uleb128 0xe
 3130 006f 3A       		.uleb128 0x3a
 3131 0070 0B       		.uleb128 0xb
 3132 0071 3B       		.uleb128 0x3b
 3133 0072 05       		.uleb128 0x5
 3134 0073 49       		.uleb128 0x49
 3135 0074 13       		.uleb128 0x13
 3136 0075 38       		.uleb128 0x38
 3137 0076 0B       		.uleb128 0xb
 3138 0077 00       		.byte	0
 3139 0078 00       		.byte	0
 3140 0079 0A       		.uleb128 0xa
 3141 007a 0F       		.uleb128 0xf
 3142 007b 00       		.byte	0
 3143 007c 0B       		.uleb128 0xb
 3144 007d 0B       		.uleb128 0xb
 3145 007e 49       		.uleb128 0x49
 3146 007f 13       		.uleb128 0x13
 3147 0080 00       		.byte	0
 3148 0081 00       		.byte	0
 3149 0082 0B       		.uleb128 0xb
 3150 0083 13       		.uleb128 0x13
 3151 0084 01       		.byte	0x1
 3152 0085 03       		.uleb128 0x3
 3153 0086 0E       		.uleb128 0xe
 3154 0087 0B       		.uleb128 0xb
 3155 0088 0B       		.uleb128 0xb
 3156 0089 3A       		.uleb128 0x3a
 3157 008a 0B       		.uleb128 0xb
 3158 008b 3B       		.uleb128 0x3b
 3159 008c 05       		.uleb128 0x5
 3160 008d 01       		.uleb128 0x1
 3161 008e 13       		.uleb128 0x13
 3162 008f 00       		.byte	0
 3163 0090 00       		.byte	0
 3164 0091 0C       		.uleb128 0xc
 3165 0092 15       		.uleb128 0x15
 3166 0093 01       		.byte	0x1
 3167 0094 27       		.uleb128 0x27
 3168 0095 19       		.uleb128 0x19
 3169 0096 01       		.uleb128 0x1
 3170 0097 13       		.uleb128 0x13
 3171 0098 00       		.byte	0
 3172 0099 00       		.byte	0
 3173 009a 0D       		.uleb128 0xd
 3174 009b 05       		.uleb128 0x5
 3175 009c 00       		.byte	0
 3176 009d 49       		.uleb128 0x49
 3177 009e 13       		.uleb128 0x13
 3178 009f 00       		.byte	0
 3179 00a0 00       		.byte	0
 3180 00a1 0E       		.uleb128 0xe
 3181 00a2 0F       		.uleb128 0xf
 3182 00a3 00       		.byte	0
ARM GAS  C:\Users\Luis\AppData\Local\Temp\ccKPaE82.s 			page 57


 3183 00a4 0B       		.uleb128 0xb
 3184 00a5 0B       		.uleb128 0xb
 3185 00a6 00       		.byte	0
 3186 00a7 00       		.byte	0
 3187 00a8 0F       		.uleb128 0xf
 3188 00a9 13       		.uleb128 0x13
 3189 00aa 01       		.byte	0x1
 3190 00ab 03       		.uleb128 0x3
 3191 00ac 0E       		.uleb128 0xe
 3192 00ad 0B       		.uleb128 0xb
 3193 00ae 05       		.uleb128 0x5
 3194 00af 3A       		.uleb128 0x3a
 3195 00b0 0B       		.uleb128 0xb
 3196 00b1 3B       		.uleb128 0x3b
 3197 00b2 05       		.uleb128 0x5
 3198 00b3 01       		.uleb128 0x1
 3199 00b4 13       		.uleb128 0x13
 3200 00b5 00       		.byte	0
 3201 00b6 00       		.byte	0
 3202 00b7 10       		.uleb128 0x10
 3203 00b8 0D       		.uleb128 0xd
 3204 00b9 00       		.byte	0
 3205 00ba 03       		.uleb128 0x3
 3206 00bb 0E       		.uleb128 0xe
 3207 00bc 3A       		.uleb128 0x3a
 3208 00bd 0B       		.uleb128 0xb
 3209 00be 3B       		.uleb128 0x3b
 3210 00bf 05       		.uleb128 0x5
 3211 00c0 49       		.uleb128 0x49
 3212 00c1 13       		.uleb128 0x13
 3213 00c2 38       		.uleb128 0x38
 3214 00c3 05       		.uleb128 0x5
 3215 00c4 00       		.byte	0
 3216 00c5 00       		.byte	0
 3217 00c6 11       		.uleb128 0x11
 3218 00c7 0D       		.uleb128 0xd
 3219 00c8 00       		.byte	0
 3220 00c9 03       		.uleb128 0x3
 3221 00ca 08       		.uleb128 0x8
 3222 00cb 3A       		.uleb128 0x3a
 3223 00cc 0B       		.uleb128 0xb
 3224 00cd 3B       		.uleb128 0x3b
 3225 00ce 05       		.uleb128 0x5
 3226 00cf 49       		.uleb128 0x49
 3227 00d0 13       		.uleb128 0x13
 3228 00d1 38       		.uleb128 0x38
 3229 00d2 05       		.uleb128 0x5
 3230 00d3 00       		.byte	0
 3231 00d4 00       		.byte	0
 3232 00d5 12       		.uleb128 0x12
 3233 00d6 0D       		.uleb128 0xd
 3234 00d7 00       		.byte	0
 3235 00d8 03       		.uleb128 0x3
 3236 00d9 08       		.uleb128 0x8
 3237 00da 3A       		.uleb128 0x3a
 3238 00db 0B       		.uleb128 0xb
 3239 00dc 3B       		.uleb128 0x3b
ARM GAS  C:\Users\Luis\AppData\Local\Temp\ccKPaE82.s 			page 58


 3240 00dd 0B       		.uleb128 0xb
 3241 00de 49       		.uleb128 0x49
 3242 00df 13       		.uleb128 0x13
 3243 00e0 38       		.uleb128 0x38
 3244 00e1 0B       		.uleb128 0xb
 3245 00e2 00       		.byte	0
 3246 00e3 00       		.byte	0
 3247 00e4 13       		.uleb128 0x13
 3248 00e5 13       		.uleb128 0x13
 3249 00e6 01       		.byte	0x1
 3250 00e7 0B       		.uleb128 0xb
 3251 00e8 0B       		.uleb128 0xb
 3252 00e9 3A       		.uleb128 0x3a
 3253 00ea 0B       		.uleb128 0xb
 3254 00eb 3B       		.uleb128 0x3b
 3255 00ec 0B       		.uleb128 0xb
 3256 00ed 01       		.uleb128 0x1
 3257 00ee 13       		.uleb128 0x13
 3258 00ef 00       		.byte	0
 3259 00f0 00       		.byte	0
 3260 00f1 14       		.uleb128 0x14
 3261 00f2 13       		.uleb128 0x13
 3262 00f3 01       		.byte	0x1
 3263 00f4 0B       		.uleb128 0xb
 3264 00f5 05       		.uleb128 0x5
 3265 00f6 3A       		.uleb128 0x3a
 3266 00f7 0B       		.uleb128 0xb
 3267 00f8 3B       		.uleb128 0x3b
 3268 00f9 0B       		.uleb128 0xb
 3269 00fa 01       		.uleb128 0x1
 3270 00fb 13       		.uleb128 0x13
 3271 00fc 00       		.byte	0
 3272 00fd 00       		.byte	0
 3273 00fe 15       		.uleb128 0x15
 3274 00ff 01       		.uleb128 0x1
 3275 0100 01       		.byte	0x1
 3276 0101 49       		.uleb128 0x49
 3277 0102 13       		.uleb128 0x13
 3278 0103 01       		.uleb128 0x1
 3279 0104 13       		.uleb128 0x13
 3280 0105 00       		.byte	0
 3281 0106 00       		.byte	0
 3282 0107 16       		.uleb128 0x16
 3283 0108 21       		.uleb128 0x21
 3284 0109 00       		.byte	0
 3285 010a 49       		.uleb128 0x49
 3286 010b 13       		.uleb128 0x13
 3287 010c 2F       		.uleb128 0x2f
 3288 010d 0B       		.uleb128 0xb
 3289 010e 00       		.byte	0
 3290 010f 00       		.byte	0
 3291 0110 17       		.uleb128 0x17
 3292 0111 17       		.uleb128 0x17
 3293 0112 01       		.byte	0x1
 3294 0113 0B       		.uleb128 0xb
 3295 0114 0B       		.uleb128 0xb
 3296 0115 3A       		.uleb128 0x3a
ARM GAS  C:\Users\Luis\AppData\Local\Temp\ccKPaE82.s 			page 59


 3297 0116 0B       		.uleb128 0xb
 3298 0117 3B       		.uleb128 0x3b
 3299 0118 0B       		.uleb128 0xb
 3300 0119 01       		.uleb128 0x1
 3301 011a 13       		.uleb128 0x13
 3302 011b 00       		.byte	0
 3303 011c 00       		.byte	0
 3304 011d 18       		.uleb128 0x18
 3305 011e 0D       		.uleb128 0xd
 3306 011f 00       		.byte	0
 3307 0120 03       		.uleb128 0x3
 3308 0121 0E       		.uleb128 0xe
 3309 0122 3A       		.uleb128 0x3a
 3310 0123 0B       		.uleb128 0xb
 3311 0124 3B       		.uleb128 0x3b
 3312 0125 05       		.uleb128 0x5
 3313 0126 49       		.uleb128 0x49
 3314 0127 13       		.uleb128 0x13
 3315 0128 00       		.byte	0
 3316 0129 00       		.byte	0
 3317 012a 19       		.uleb128 0x19
 3318 012b 26       		.uleb128 0x26
 3319 012c 00       		.byte	0
 3320 012d 49       		.uleb128 0x49
 3321 012e 13       		.uleb128 0x13
 3322 012f 00       		.byte	0
 3323 0130 00       		.byte	0
 3324 0131 1A       		.uleb128 0x1a
 3325 0132 15       		.uleb128 0x15
 3326 0133 01       		.byte	0x1
 3327 0134 27       		.uleb128 0x27
 3328 0135 19       		.uleb128 0x19
 3329 0136 49       		.uleb128 0x49
 3330 0137 13       		.uleb128 0x13
 3331 0138 01       		.uleb128 0x1
 3332 0139 13       		.uleb128 0x13
 3333 013a 00       		.byte	0
 3334 013b 00       		.byte	0
 3335 013c 1B       		.uleb128 0x1b
 3336 013d 04       		.uleb128 0x4
 3337 013e 01       		.byte	0x1
 3338 013f 03       		.uleb128 0x3
 3339 0140 0E       		.uleb128 0xe
 3340 0141 0B       		.uleb128 0xb
 3341 0142 0B       		.uleb128 0xb
 3342 0143 3A       		.uleb128 0x3a
 3343 0144 0B       		.uleb128 0xb
 3344 0145 3B       		.uleb128 0x3b
 3345 0146 0B       		.uleb128 0xb
 3346 0147 01       		.uleb128 0x1
 3347 0148 13       		.uleb128 0x13
 3348 0149 00       		.byte	0
 3349 014a 00       		.byte	0
 3350 014b 1C       		.uleb128 0x1c
 3351 014c 28       		.uleb128 0x28
 3352 014d 00       		.byte	0
 3353 014e 03       		.uleb128 0x3
ARM GAS  C:\Users\Luis\AppData\Local\Temp\ccKPaE82.s 			page 60


 3354 014f 0E       		.uleb128 0xe
 3355 0150 1C       		.uleb128 0x1c
 3356 0151 0D       		.uleb128 0xd
 3357 0152 00       		.byte	0
 3358 0153 00       		.byte	0
 3359 0154 1D       		.uleb128 0x1d
 3360 0155 04       		.uleb128 0x4
 3361 0156 01       		.byte	0x1
 3362 0157 0B       		.uleb128 0xb
 3363 0158 0B       		.uleb128 0xb
 3364 0159 3A       		.uleb128 0x3a
 3365 015a 0B       		.uleb128 0xb
 3366 015b 3B       		.uleb128 0x3b
 3367 015c 0B       		.uleb128 0xb
 3368 015d 01       		.uleb128 0x1
 3369 015e 13       		.uleb128 0x13
 3370 015f 00       		.byte	0
 3371 0160 00       		.byte	0
 3372 0161 1E       		.uleb128 0x1e
 3373 0162 13       		.uleb128 0x13
 3374 0163 01       		.byte	0x1
 3375 0164 03       		.uleb128 0x3
 3376 0165 0E       		.uleb128 0xe
 3377 0166 0B       		.uleb128 0xb
 3378 0167 05       		.uleb128 0x5
 3379 0168 3A       		.uleb128 0x3a
 3380 0169 0B       		.uleb128 0xb
 3381 016a 3B       		.uleb128 0x3b
 3382 016b 0B       		.uleb128 0xb
 3383 016c 01       		.uleb128 0x1
 3384 016d 13       		.uleb128 0x13
 3385 016e 00       		.byte	0
 3386 016f 00       		.byte	0
 3387 0170 1F       		.uleb128 0x1f
 3388 0171 0D       		.uleb128 0xd
 3389 0172 00       		.byte	0
 3390 0173 03       		.uleb128 0x3
 3391 0174 08       		.uleb128 0x8
 3392 0175 3A       		.uleb128 0x3a
 3393 0176 0B       		.uleb128 0xb
 3394 0177 3B       		.uleb128 0x3b
 3395 0178 0B       		.uleb128 0xb
 3396 0179 49       		.uleb128 0x49
 3397 017a 13       		.uleb128 0x13
 3398 017b 38       		.uleb128 0x38
 3399 017c 05       		.uleb128 0x5
 3400 017d 00       		.byte	0
 3401 017e 00       		.byte	0
 3402 017f 20       		.uleb128 0x20
 3403 0180 2E       		.uleb128 0x2e
 3404 0181 01       		.byte	0x1
 3405 0182 03       		.uleb128 0x3
 3406 0183 0E       		.uleb128 0xe
 3407 0184 3A       		.uleb128 0x3a
 3408 0185 0B       		.uleb128 0xb
 3409 0186 3B       		.uleb128 0x3b
 3410 0187 05       		.uleb128 0x5
ARM GAS  C:\Users\Luis\AppData\Local\Temp\ccKPaE82.s 			page 61


 3411 0188 27       		.uleb128 0x27
 3412 0189 19       		.uleb128 0x19
 3413 018a 11       		.uleb128 0x11
 3414 018b 01       		.uleb128 0x1
 3415 018c 12       		.uleb128 0x12
 3416 018d 06       		.uleb128 0x6
 3417 018e 40       		.uleb128 0x40
 3418 018f 18       		.uleb128 0x18
 3419 0190 9642     		.uleb128 0x2116
 3420 0192 19       		.uleb128 0x19
 3421 0193 01       		.uleb128 0x1
 3422 0194 13       		.uleb128 0x13
 3423 0195 00       		.byte	0
 3424 0196 00       		.byte	0
 3425 0197 21       		.uleb128 0x21
 3426 0198 05       		.uleb128 0x5
 3427 0199 00       		.byte	0
 3428 019a 03       		.uleb128 0x3
 3429 019b 0E       		.uleb128 0xe
 3430 019c 3A       		.uleb128 0x3a
 3431 019d 0B       		.uleb128 0xb
 3432 019e 3B       		.uleb128 0x3b
 3433 019f 05       		.uleb128 0x5
 3434 01a0 49       		.uleb128 0x49
 3435 01a1 13       		.uleb128 0x13
 3436 01a2 02       		.uleb128 0x2
 3437 01a3 18       		.uleb128 0x18
 3438 01a4 00       		.byte	0
 3439 01a5 00       		.byte	0
 3440 01a6 22       		.uleb128 0x22
 3441 01a7 2E       		.uleb128 0x2e
 3442 01a8 01       		.byte	0x1
 3443 01a9 3F       		.uleb128 0x3f
 3444 01aa 19       		.uleb128 0x19
 3445 01ab 03       		.uleb128 0x3
 3446 01ac 0E       		.uleb128 0xe
 3447 01ad 3A       		.uleb128 0x3a
 3448 01ae 0B       		.uleb128 0xb
 3449 01af 3B       		.uleb128 0x3b
 3450 01b0 0B       		.uleb128 0xb
 3451 01b1 27       		.uleb128 0x27
 3452 01b2 19       		.uleb128 0x19
 3453 01b3 49       		.uleb128 0x49
 3454 01b4 13       		.uleb128 0x13
 3455 01b5 11       		.uleb128 0x11
 3456 01b6 01       		.uleb128 0x1
 3457 01b7 12       		.uleb128 0x12
 3458 01b8 06       		.uleb128 0x6
 3459 01b9 40       		.uleb128 0x40
 3460 01ba 18       		.uleb128 0x18
 3461 01bb 9742     		.uleb128 0x2117
 3462 01bd 19       		.uleb128 0x19
 3463 01be 01       		.uleb128 0x1
 3464 01bf 13       		.uleb128 0x13
 3465 01c0 00       		.byte	0
 3466 01c1 00       		.byte	0
 3467 01c2 23       		.uleb128 0x23
ARM GAS  C:\Users\Luis\AppData\Local\Temp\ccKPaE82.s 			page 62


 3468 01c3 05       		.uleb128 0x5
 3469 01c4 00       		.byte	0
 3470 01c5 03       		.uleb128 0x3
 3471 01c6 0E       		.uleb128 0xe
 3472 01c7 3A       		.uleb128 0x3a
 3473 01c8 0B       		.uleb128 0xb
 3474 01c9 3B       		.uleb128 0x3b
 3475 01ca 0B       		.uleb128 0xb
 3476 01cb 49       		.uleb128 0x49
 3477 01cc 13       		.uleb128 0x13
 3478 01cd 02       		.uleb128 0x2
 3479 01ce 18       		.uleb128 0x18
 3480 01cf 00       		.byte	0
 3481 01d0 00       		.byte	0
 3482 01d1 24       		.uleb128 0x24
 3483 01d2 34       		.uleb128 0x34
 3484 01d3 00       		.byte	0
 3485 01d4 03       		.uleb128 0x3
 3486 01d5 0E       		.uleb128 0xe
 3487 01d6 3A       		.uleb128 0x3a
 3488 01d7 0B       		.uleb128 0xb
 3489 01d8 3B       		.uleb128 0x3b
 3490 01d9 0B       		.uleb128 0xb
 3491 01da 49       		.uleb128 0x49
 3492 01db 13       		.uleb128 0x13
 3493 01dc 02       		.uleb128 0x2
 3494 01dd 18       		.uleb128 0x18
 3495 01de 00       		.byte	0
 3496 01df 00       		.byte	0
 3497 01e0 25       		.uleb128 0x25
 3498 01e1 2E       		.uleb128 0x2e
 3499 01e2 01       		.byte	0x1
 3500 01e3 3F       		.uleb128 0x3f
 3501 01e4 19       		.uleb128 0x19
 3502 01e5 03       		.uleb128 0x3
 3503 01e6 0E       		.uleb128 0xe
 3504 01e7 3A       		.uleb128 0x3a
 3505 01e8 0B       		.uleb128 0xb
 3506 01e9 3B       		.uleb128 0x3b
 3507 01ea 05       		.uleb128 0x5
 3508 01eb 27       		.uleb128 0x27
 3509 01ec 19       		.uleb128 0x19
 3510 01ed 49       		.uleb128 0x49
 3511 01ee 13       		.uleb128 0x13
 3512 01ef 11       		.uleb128 0x11
 3513 01f0 01       		.uleb128 0x1
 3514 01f1 12       		.uleb128 0x12
 3515 01f2 06       		.uleb128 0x6
 3516 01f3 40       		.uleb128 0x40
 3517 01f4 18       		.uleb128 0x18
 3518 01f5 9642     		.uleb128 0x2116
 3519 01f7 19       		.uleb128 0x19
 3520 01f8 01       		.uleb128 0x1
 3521 01f9 13       		.uleb128 0x13
 3522 01fa 00       		.byte	0
 3523 01fb 00       		.byte	0
 3524 01fc 26       		.uleb128 0x26
ARM GAS  C:\Users\Luis\AppData\Local\Temp\ccKPaE82.s 			page 63


 3525 01fd 05       		.uleb128 0x5
 3526 01fe 00       		.byte	0
 3527 01ff 03       		.uleb128 0x3
 3528 0200 08       		.uleb128 0x8
 3529 0201 3A       		.uleb128 0x3a
 3530 0202 0B       		.uleb128 0xb
 3531 0203 3B       		.uleb128 0x3b
 3532 0204 05       		.uleb128 0x5
 3533 0205 49       		.uleb128 0x49
 3534 0206 13       		.uleb128 0x13
 3535 0207 02       		.uleb128 0x2
 3536 0208 18       		.uleb128 0x18
 3537 0209 00       		.byte	0
 3538 020a 00       		.byte	0
 3539 020b 27       		.uleb128 0x27
 3540 020c 34       		.uleb128 0x34
 3541 020d 00       		.byte	0
 3542 020e 03       		.uleb128 0x3
 3543 020f 0E       		.uleb128 0xe
 3544 0210 3A       		.uleb128 0x3a
 3545 0211 0B       		.uleb128 0xb
 3546 0212 3B       		.uleb128 0x3b
 3547 0213 05       		.uleb128 0x5
 3548 0214 49       		.uleb128 0x49
 3549 0215 13       		.uleb128 0x13
 3550 0216 02       		.uleb128 0x2
 3551 0217 18       		.uleb128 0x18
 3552 0218 00       		.byte	0
 3553 0219 00       		.byte	0
 3554 021a 28       		.uleb128 0x28
 3555 021b 0B       		.uleb128 0xb
 3556 021c 01       		.byte	0x1
 3557 021d 11       		.uleb128 0x11
 3558 021e 01       		.uleb128 0x1
 3559 021f 12       		.uleb128 0x12
 3560 0220 06       		.uleb128 0x6
 3561 0221 00       		.byte	0
 3562 0222 00       		.byte	0
 3563 0223 29       		.uleb128 0x29
 3564 0224 34       		.uleb128 0x34
 3565 0225 00       		.byte	0
 3566 0226 03       		.uleb128 0x3
 3567 0227 0E       		.uleb128 0xe
 3568 0228 3A       		.uleb128 0x3a
 3569 0229 0B       		.uleb128 0xb
 3570 022a 3B       		.uleb128 0x3b
 3571 022b 05       		.uleb128 0x5
 3572 022c 49       		.uleb128 0x49
 3573 022d 13       		.uleb128 0x13
 3574 022e 3F       		.uleb128 0x3f
 3575 022f 19       		.uleb128 0x19
 3576 0230 3C       		.uleb128 0x3c
 3577 0231 19       		.uleb128 0x19
 3578 0232 00       		.byte	0
 3579 0233 00       		.byte	0
 3580 0234 2A       		.uleb128 0x2a
 3581 0235 34       		.uleb128 0x34
ARM GAS  C:\Users\Luis\AppData\Local\Temp\ccKPaE82.s 			page 64


 3582 0236 00       		.byte	0
 3583 0237 03       		.uleb128 0x3
 3584 0238 08       		.uleb128 0x8
 3585 0239 3A       		.uleb128 0x3a
 3586 023a 0B       		.uleb128 0xb
 3587 023b 3B       		.uleb128 0x3b
 3588 023c 05       		.uleb128 0x5
 3589 023d 49       		.uleb128 0x49
 3590 023e 13       		.uleb128 0x13
 3591 023f 3F       		.uleb128 0x3f
 3592 0240 19       		.uleb128 0x19
 3593 0241 3C       		.uleb128 0x3c
 3594 0242 19       		.uleb128 0x19
 3595 0243 00       		.byte	0
 3596 0244 00       		.byte	0
 3597 0245 2B       		.uleb128 0x2b
 3598 0246 34       		.uleb128 0x34
 3599 0247 00       		.byte	0
 3600 0248 03       		.uleb128 0x3
 3601 0249 0E       		.uleb128 0xe
 3602 024a 3A       		.uleb128 0x3a
 3603 024b 0B       		.uleb128 0xb
 3604 024c 3B       		.uleb128 0x3b
 3605 024d 0B       		.uleb128 0xb
 3606 024e 49       		.uleb128 0x49
 3607 024f 13       		.uleb128 0x13
 3608 0250 3F       		.uleb128 0x3f
 3609 0251 19       		.uleb128 0x19
 3610 0252 3C       		.uleb128 0x3c
 3611 0253 19       		.uleb128 0x19
 3612 0254 00       		.byte	0
 3613 0255 00       		.byte	0
 3614 0256 2C       		.uleb128 0x2c
 3615 0257 34       		.uleb128 0x34
 3616 0258 00       		.byte	0
 3617 0259 03       		.uleb128 0x3
 3618 025a 0E       		.uleb128 0xe
 3619 025b 3A       		.uleb128 0x3a
 3620 025c 0B       		.uleb128 0xb
 3621 025d 3B       		.uleb128 0x3b
 3622 025e 0B       		.uleb128 0xb
 3623 025f 49       		.uleb128 0x49
 3624 0260 13       		.uleb128 0x13
 3625 0261 3F       		.uleb128 0x3f
 3626 0262 19       		.uleb128 0x19
 3627 0263 02       		.uleb128 0x2
 3628 0264 18       		.uleb128 0x18
 3629 0265 00       		.byte	0
 3630 0266 00       		.byte	0
 3631 0267 00       		.byte	0
 3632              		.section	.debug_aranges,"",%progbits
 3633 0000 3C000000 		.4byte	0x3c
 3634 0004 0200     		.2byte	0x2
 3635 0006 00000000 		.4byte	.Ldebug_info0
 3636 000a 04       		.byte	0x4
 3637 000b 00       		.byte	0
 3638 000c 0000     		.2byte	0
ARM GAS  C:\Users\Luis\AppData\Local\Temp\ccKPaE82.s 			page 65


 3639 000e 0000     		.2byte	0
 3640 0010 00000000 		.4byte	.LFB230
 3641 0014 14000000 		.4byte	.LFE230-.LFB230
 3642 0018 00000000 		.4byte	.LFB260
 3643 001c 8C000000 		.4byte	.LFE260-.LFB260
 3644 0020 00000000 		.4byte	.LFB261
 3645 0024 D8020000 		.4byte	.LFE261-.LFB261
 3646 0028 00000000 		.4byte	.LFB262
 3647 002c E8010000 		.4byte	.LFE262-.LFB262
 3648 0030 00000000 		.4byte	.LFB263
 3649 0034 70000000 		.4byte	.LFE263-.LFB263
 3650 0038 00000000 		.4byte	0
 3651 003c 00000000 		.4byte	0
 3652              		.section	.debug_ranges,"",%progbits
 3653              	.Ldebug_ranges0:
 3654 0000 00000000 		.4byte	.LFB230
 3655 0004 14000000 		.4byte	.LFE230
 3656 0008 00000000 		.4byte	.LFB260
 3657 000c 8C000000 		.4byte	.LFE260
 3658 0010 00000000 		.4byte	.LFB261
 3659 0014 D8020000 		.4byte	.LFE261
 3660 0018 00000000 		.4byte	.LFB262
 3661 001c E8010000 		.4byte	.LFE262
 3662 0020 00000000 		.4byte	.LFB263
 3663 0024 70000000 		.4byte	.LFE263
 3664 0028 00000000 		.4byte	0
 3665 002c 00000000 		.4byte	0
 3666              		.section	.debug_line,"",%progbits
 3667              	.Ldebug_line0:
 3668 0000 37040000 		.section	.debug_str,"MS",%progbits,1
 3668      0200DD02 
 3668      00000201 
 3668      FB0E0D00 
 3668      01010101 
 3669              	.LASF52:
 3670 0000 74687265 		.ascii	"threads_queue_t\000"
 3670      6164735F 
 3670      71756575 
 3670      655F7400 
 3671              	.LASF188:
 3672 0010 73746174 		.ascii	"stats_proto\000"
 3672      735F7072 
 3672      6F746F00 
 3673              	.LASF117:
 3674 001c 77746D74 		.ascii	"wtmtxp\000"
 3674      787000
 3675              	.LASF176:
 3676 0023 4D454D50 		.ascii	"MEMP_TCP_PCB_LISTEN\000"
 3676      5F544350 
 3676      5F504342 
 3676      5F4C4953 
 3676      54454E00 
 3677              	.LASF168:
 3678 0037 49434D50 		.ascii	"ICMP_DUR_HOST\000"
 3678      5F445552 
 3678      5F484F53 
 3678      5400
ARM GAS  C:\Users\Luis\AppData\Local\Temp\ccKPaE82.s 			page 66


 3679              	.LASF126:
 3680 0045 63686172 		.ascii	"char\000"
 3680      00
 3681              	.LASF148:
 3682 004a 6F757470 		.ascii	"output\000"
 3682      757400
 3683              	.LASF30:
 3684 0051 705F7072 		.ascii	"p_prio\000"
 3684      696F00
 3685              	.LASF139:
 3686 0058 666C6167 		.ascii	"flags\000"
 3686      7300
 3687              	.LASF26:
 3688 005e 73797374 		.ascii	"systime_t\000"
 3688      696D655F 
 3688      7400
 3689              	.LASF178:
 3690 0068 4D454D50 		.ascii	"MEMP_REASSDATA\000"
 3690      5F524541 
 3690      53534441 
 3690      544100
 3691              	.LASF124:
 3692 0077 6D5F6F77 		.ascii	"m_owner\000"
 3692      6E657200 
 3693              	.LASF120:
 3694 007f 735F7175 		.ascii	"s_queue\000"
 3694      65756500 
 3695              	.LASF40:
 3696 0087 705F6D73 		.ascii	"p_msgqueue\000"
 3696      67717565 
 3696      756500
 3697              	.LASF0:
 3698 0092 756E7369 		.ascii	"unsigned int\000"
 3698      676E6564 
 3698      20696E74 
 3698      00
 3699              	.LASF135:
 3700 009f 6E657874 		.ascii	"next\000"
 3700      00
 3701              	.LASF167:
 3702 00a4 49434D50 		.ascii	"ICMP_DUR_NET\000"
 3702      5F445552 
 3702      5F4E4554 
 3702      00
 3703              	.LASF110:
 3704 00b1 6D5F6372 		.ascii	"m_crit_isr\000"
 3704      69745F69 
 3704      737200
 3705              	.LASF49:
 3706 00bc 74687265 		.ascii	"threads_list_t\000"
 3706      6164735F 
 3706      6C697374 
 3706      5F7400
 3707              	.LASF133:
 3708 00cb 6572725F 		.ascii	"err_t\000"
 3708      7400
 3709              	.LASF105:
ARM GAS  C:\Users\Luis\AppData\Local\Temp\ccKPaE82.s 			page 67


 3710 00d1 63756D75 		.ascii	"cumulative\000"
 3710      6C617469 
 3710      766500
 3711              	.LASF39:
 3712 00dc 705F7761 		.ascii	"p_waiting\000"
 3712      6974696E 
 3712      6700
 3713              	.LASF94:
 3714 00e6 73655F73 		.ascii	"se_state\000"
 3714      74617465 
 3714      00
 3715              	.LASF131:
 3716 00ef 7531365F 		.ascii	"u16_t\000"
 3716      7400
 3717              	.LASF162:
 3718 00f5 5F74746C 		.ascii	"_ttl\000"
 3718      00
 3719              	.LASF209:
 3720 00fa 65746861 		.ascii	"etharp\000"
 3720      727000
 3721              	.LASF235:
 3722 0101 474E5520 		.ascii	"GNU C 4.8.3 20131129 (release) [ARM/embedded-4_8-br"
 3722      4320342E 
 3722      382E3320 
 3722      32303133 
 3722      31313239 
 3723 0134 616E6368 		.ascii	"anch revision 205641] -mcpu=cortex-m4 -mapcs-frame "
 3723      20726576 
 3723      6973696F 
 3723      6E203230 
 3723      35363431 
 3724 0167 2D6D6E6F 		.ascii	"-mno-thumb-interwork -mthumb -ggdb -O0 -falign-func"
 3724      2D746875 
 3724      6D622D69 
 3724      6E746572 
 3724      776F726B 
 3725 019a 74696F6E 		.ascii	"tions=16 -ffunction-sections -fdata-sections -fno-c"
 3725      733D3136 
 3725      202D6666 
 3725      756E6374 
 3725      696F6E2D 
 3726 01cd 6F6D6D6F 		.ascii	"ommon\000"
 3726      6E00
 3727              	.LASF208:
 3728 01d3 6C696E6B 		.ascii	"link\000"
 3728      00
 3729              	.LASF82:
 3730 01d8 76746C69 		.ascii	"vtlist\000"
 3730      737400
 3731              	.LASF55:
 3732 01df 63685F72 		.ascii	"ch_ready_list\000"
 3732      65616479 
 3732      5F6C6973 
 3732      7400
 3733              	.LASF85:
 3734 01ed 69646C65 		.ascii	"idle_thread_wa\000"
 3734      5F746872 
ARM GAS  C:\Users\Luis\AppData\Local\Temp\ccKPaE82.s 			page 68


 3734      6561645F 
 3734      776100
 3735              	.LASF199:
 3736 01fc 73746174 		.ascii	"stats_mem\000"
 3736      735F6D65 
 3736      6D00
 3737              	.LASF118:
 3738 0206 65776D61 		.ascii	"ewmask\000"
 3738      736B00
 3739              	.LASF155:
 3740 020d 6E657469 		.ascii	"netif_output_fn\000"
 3740      665F6F75 
 3740      74707574 
 3740      5F666E00 
 3741              	.LASF186:
 3742 021d 4D454D50 		.ascii	"MEMP_PBUF_POOL\000"
 3742      5F504255 
 3742      465F504F 
 3742      4F4C00
 3743              	.LASF234:
 3744 022c 6C776970 		.ascii	"lwip_stats\000"
 3744      5F737461 
 3744      747300
 3745              	.LASF62:
 3746 0237 76746675 		.ascii	"vtfunc_t\000"
 3746      6E635F74 
 3746      00
 3747              	.LASF114:
 3748 0240 77746F62 		.ascii	"wtobjp\000"
 3748      6A7000
 3749              	.LASF121:
 3750 0247 735F636E 		.ascii	"s_cnt\000"
 3750      7400
 3751              	.LASF74:
 3752 024d 63685F73 		.ascii	"ch_system_debug\000"
 3752      79737465 
 3752      6D5F6465 
 3752      62756700 
 3753              	.LASF203:
 3754 025d 73746174 		.ascii	"stats_syselem\000"
 3754      735F7379 
 3754      73656C65 
 3754      6D00
 3755              	.LASF154:
 3756 026b 6E657469 		.ascii	"netif_input_fn\000"
 3756      665F696E 
 3756      7075745F 
 3756      666E00
 3757              	.LASF11:
 3758 027a 75696E74 		.ascii	"uint32_t\000"
 3758      33325F74 
 3758      00
 3759              	.LASF181:
 3760 0283 4D454D50 		.ascii	"MEMP_NETCONN\000"
 3760      5F4E4554 
 3760      434F4E4E 
 3760      00
ARM GAS  C:\Users\Luis\AppData\Local\Temp\ccKPaE82.s 			page 69


 3761              	.LASF111:
 3762 0290 6B65726E 		.ascii	"kernel_stats_t\000"
 3762      656C5F73 
 3762      74617473 
 3762      5F7400
 3763              	.LASF23:
 3764 029f 6576656E 		.ascii	"eventmask_t\000"
 3764      746D6173 
 3764      6B5F7400 
 3765              	.LASF57:
 3766 02ab 725F7072 		.ascii	"r_prio\000"
 3766      696F00
 3767              	.LASF84:
 3768 02b2 6B65726E 		.ascii	"kernel_stats\000"
 3768      656C5F73 
 3768      74617473 
 3768      00
 3769              	.LASF182:
 3770 02bf 4D454D50 		.ascii	"MEMP_TCPIP_MSG_API\000"
 3770      5F544350 
 3770      49505F4D 
 3770      53475F41 
 3770      504900
 3771              	.LASF197:
 3772 02d2 6F707465 		.ascii	"opterr\000"
 3772      727200
 3773              	.LASF205:
 3774 02d9 6D757465 		.ascii	"mutex\000"
 3774      7800
 3775              	.LASF210:
 3776 02df 69705F66 		.ascii	"ip_frag\000"
 3776      72616700 
 3777              	.LASF119:
 3778 02e7 63685F73 		.ascii	"ch_semaphore\000"
 3778      656D6170 
 3778      686F7265 
 3778      00
 3779              	.LASF21:
 3780 02f4 74707269 		.ascii	"tprio_t\000"
 3780      6F5F7400 
 3781              	.LASF64:
 3782 02fc 63685F76 		.ascii	"ch_virtual_timer\000"
 3782      69727475 
 3782      616C5F74 
 3782      696D6572 
 3782      00
 3783              	.LASF228:
 3784 030d 6E657469 		.ascii	"netif_list\000"
 3784      665F6C69 
 3784      737400
 3785              	.LASF152:
 3786 0318 68776164 		.ascii	"hwaddr\000"
 3786      647200
 3787              	.LASF217:
 3788 031f 69706864 		.ascii	"iphdr_hlen\000"
 3788      725F686C 
 3788      656E00
ARM GAS  C:\Users\Luis\AppData\Local\Temp\ccKPaE82.s 			page 70


 3789              	.LASF15:
 3790 032a 6C6F6E67 		.ascii	"long long unsigned int\000"
 3790      206C6F6E 
 3790      6720756E 
 3790      7369676E 
 3790      65642069 
 3791              	.LASF93:
 3792 0341 73655F77 		.ascii	"se_wtobjp\000"
 3792      746F626A 
 3792      7000
 3793              	.LASF213:
 3794 034b 72656173 		.ascii	"reason\000"
 3794      6F6E00
 3795              	.LASF232:
 3796 0352 63757272 		.ascii	"current_iphdr_src\000"
 3796      656E745F 
 3796      69706864 
 3796      725F7372 
 3796      6300
 3797              	.LASF224:
 3798 0364 69705F68 		.ascii	"ip_hlen\000"
 3798      6C656E00 
 3799              	.LASF164:
 3800 036c 5F63686B 		.ascii	"_chksum\000"
 3800      73756D00 
 3801              	.LASF151:
 3802 0374 68776164 		.ascii	"hwaddr_len\000"
 3802      64725F6C 
 3802      656E00
 3803              	.LASF161:
 3804 037f 5F6F6666 		.ascii	"_offset\000"
 3804      73657400 
 3805              	.LASF76:
 3806 0387 6973725F 		.ascii	"isr_cnt\000"
 3806      636E7400 
 3807              	.LASF103:
 3808 038f 776F7273 		.ascii	"worst\000"
 3808      7400
 3809              	.LASF172:
 3810 0395 49434D50 		.ascii	"ICMP_DUR_SR\000"
 3810      5F445552 
 3810      5F535200 
 3811              	.LASF32:
 3812 03a1 705F6E65 		.ascii	"p_newer\000"
 3812      77657200 
 3813              	.LASF71:
 3814 03a9 63685F76 		.ascii	"ch_virtual_timers_list\000"
 3814      69727475 
 3814      616C5F74 
 3814      696D6572 
 3814      735F6C69 
 3815              	.LASF67:
 3816 03c0 76745F64 		.ascii	"vt_delta\000"
 3816      656C7461 
 3816      00
 3817              	.LASF183:
 3818 03c9 4D454D50 		.ascii	"MEMP_TCPIP_MSG_INPKT\000"
ARM GAS  C:\Users\Luis\AppData\Local\Temp\ccKPaE82.s 			page 71


 3818      5F544350 
 3818      49505F4D 
 3818      53475F49 
 3818      4E504B54 
 3819              	.LASF201:
 3820 03de 75736564 		.ascii	"used\000"
 3820      00
 3821              	.LASF207:
 3822 03e3 73746174 		.ascii	"stats_\000"
 3822      735F00
 3823              	.LASF27:
 3824 03ea 74687265 		.ascii	"thread_t\000"
 3824      61645F74 
 3824      00
 3825              	.LASF225:
 3826 03f3 69705F6F 		.ascii	"ip_output\000"
 3826      75747075 
 3826      7400
 3827              	.LASF137:
 3828 03fd 746F745F 		.ascii	"tot_len\000"
 3828      6C656E00 
 3829              	.LASF112:
 3830 0405 7264796D 		.ascii	"rdymsg\000"
 3830      736700
 3831              	.LASF136:
 3832 040c 7061796C 		.ascii	"payload\000"
 3832      6F616400 
 3833              	.LASF100:
 3834 0414 6F666673 		.ascii	"offset\000"
 3834      657400
 3835              	.LASF128:
 3836 041b 5F426F6F 		.ascii	"_Bool\000"
 3836      6C00
 3837              	.LASF237:
 3838 0421 433A5C55 		.ascii	"C:\\Users\\Luis\\git\\DSP-Library-Lanin\\examples\\"
 3838      73657273 
 3838      5C4C7569 
 3838      735C6769 
 3838      745C4453 
 3839 044e 53544D33 		.ascii	"STM32F407_EMTECH-LWIP\000"
 3839      32463430 
 3839      375F454D 
 3839      54454348 
 3839      2D4C5749 
 3840              	.LASF122:
 3841 0464 63685F6D 		.ascii	"ch_mutex\000"
 3841      75746578 
 3841      00
 3842              	.LASF187:
 3843 046d 4D454D50 		.ascii	"MEMP_MAX\000"
 3843      5F4D4158 
 3843      00
 3844              	.LASF130:
 3845 0476 73385F74 		.ascii	"s8_t\000"
 3845      00
 3846              	.LASF231:
 3847 047b 63757272 		.ascii	"current_header\000"
ARM GAS  C:\Users\Luis\AppData\Local\Temp\ccKPaE82.s 			page 72


 3847      656E745F 
 3847      68656164 
 3847      657200
 3848              	.LASF104:
 3849 048a 6C617374 		.ascii	"last\000"
 3849      00
 3850              	.LASF106:
 3851 048f 74696D65 		.ascii	"time_measurement_t\000"
 3851      5F6D6561 
 3851      73757265 
 3851      6D656E74 
 3851      5F7400
 3852              	.LASF2:
 3853 04a2 696E7438 		.ascii	"int8_t\000"
 3853      5F7400
 3854              	.LASF34:
 3855 04a9 705F6E61 		.ascii	"p_name\000"
 3855      6D6500
 3856              	.LASF185:
 3857 04b0 4D454D50 		.ascii	"MEMP_PBUF\000"
 3857      5F504255 
 3857      4600
 3858              	.LASF51:
 3859 04ba 63685F74 		.ascii	"ch_threads_list\000"
 3859      68726561 
 3859      64735F6C 
 3859      69737400 
 3860              	.LASF202:
 3861 04ca 696C6C65 		.ascii	"illegal\000"
 3861      67616C00 
 3862              	.LASF166:
 3863 04d2 6D656D5F 		.ascii	"mem_size_t\000"
 3863      73697A65 
 3863      5F7400
 3864              	.LASF17:
 3865 04dd 72747469 		.ascii	"rttime_t\000"
 3865      6D655F74 
 3865      00
 3866              	.LASF72:
 3867 04e6 76745F6C 		.ascii	"vt_lasttime\000"
 3867      61737474 
 3867      696D6500 
 3868              	.LASF142:
 3869 04f2 69705F61 		.ascii	"ip_addr_packed\000"
 3869      6464725F 
 3869      7061636B 
 3869      656400
 3870              	.LASF221:
 3871 0501 70726F74 		.ascii	"proto\000"
 3871      6F00
 3872              	.LASF19:
 3873 0507 74737461 		.ascii	"tstate_t\000"
 3873      74655F74 
 3873      00
 3874              	.LASF92:
 3875 0510 73655F74 		.ascii	"se_tp\000"
 3875      7000
ARM GAS  C:\Users\Luis\AppData\Local\Temp\ccKPaE82.s 			page 73


 3876              	.LASF13:
 3877 0516 6C6F6E67 		.ascii	"long long int\000"
 3877      206C6F6E 
 3877      6720696E 
 3877      7400
 3878              	.LASF33:
 3879 0524 705F6F6C 		.ascii	"p_older\000"
 3879      64657200 
 3880              	.LASF91:
 3881 052c 73655F74 		.ascii	"se_time\000"
 3881      696D6500 
 3882              	.LASF35:
 3883 0534 705F7374 		.ascii	"p_stklimit\000"
 3883      6B6C696D 
 3883      697400
 3884              	.LASF4:
 3885 053f 75696E74 		.ascii	"uint8_t\000"
 3885      385F7400 
 3886              	.LASF138:
 3887 0547 74797065 		.ascii	"type\000"
 3887      00
 3888              	.LASF46:
 3889 054c 705F7374 		.ascii	"p_stats\000"
 3889      61747300 
 3890              	.LASF45:
 3891 0554 705F6D70 		.ascii	"p_mpool\000"
 3891      6F6F6C00 
 3892              	.LASF163:
 3893 055c 5F70726F 		.ascii	"_proto\000"
 3893      746F00
 3894              	.LASF36:
 3895 0563 705F7374 		.ascii	"p_state\000"
 3895      61746500 
 3896              	.LASF50:
 3897 056b 63685F74 		.ascii	"ch_thread\000"
 3897      68726561 
 3897      6400
 3898              	.LASF96:
 3899 0575 74625F73 		.ascii	"tb_size\000"
 3899      697A6500 
 3900              	.LASF87:
 3901 057d 72656761 		.ascii	"regarm_t\000"
 3901      726D5F74 
 3901      00
 3902              	.LASF73:
 3903 0586 73797374 		.ascii	"system_debug_t\000"
 3903      656D5F64 
 3903      65627567 
 3903      5F7400
 3904              	.LASF180:
 3905 0595 4D454D50 		.ascii	"MEMP_NETBUF\000"
 3905      5F4E4554 
 3905      42554600 
 3906              	.LASF146:
 3907 05a1 6E65746D 		.ascii	"netmask\000"
 3907      61736B00 
 3908              	.LASF53:
ARM GAS  C:\Users\Luis\AppData\Local\Temp\ccKPaE82.s 			page 74


 3909 05a9 63685F74 		.ascii	"ch_threads_queue\000"
 3909      68726561 
 3909      64735F71 
 3909      75657565 
 3909      00
 3910              	.LASF56:
 3911 05ba 725F7175 		.ascii	"r_queue\000"
 3911      65756500 
 3912              	.LASF59:
 3913 05c2 725F6E65 		.ascii	"r_newer\000"
 3913      77657200 
 3914              	.LASF24:
 3915 05ca 636E745F 		.ascii	"cnt_t\000"
 3915      7400
 3916              	.LASF22:
 3917 05d0 6D73675F 		.ascii	"msg_t\000"
 3917      7400
 3918              	.LASF175:
 3919 05d6 4D454D50 		.ascii	"MEMP_TCP_PCB\000"
 3919      5F544350 
 3919      5F504342 
 3919      00
 3920              	.LASF129:
 3921 05e3 75385F74 		.ascii	"u8_t\000"
 3921      00
 3922              	.LASF37:
 3923 05e8 705F666C 		.ascii	"p_flags\000"
 3923      61677300 
 3924              	.LASF158:
 3925 05f0 5F765F68 		.ascii	"_v_hl\000"
 3925      6C00
 3926              	.LASF63:
 3927 05f6 76697274 		.ascii	"virtual_timer_t\000"
 3927      75616C5F 
 3927      74696D65 
 3927      725F7400 
 3928              	.LASF223:
 3929 0606 63686B5F 		.ascii	"chk_sum\000"
 3929      73756D00 
 3930              	.LASF98:
 3931 060e 74625F62 		.ascii	"tb_buffer\000"
 3931      75666665 
 3931      7200
 3932              	.LASF97:
 3933 0618 74625F70 		.ascii	"tb_ptr\000"
 3933      747200
 3934              	.LASF192:
 3935 061f 63686B65 		.ascii	"chkerr\000"
 3935      727200
 3936              	.LASF60:
 3937 0626 725F6F6C 		.ascii	"r_older\000"
 3937      64657200 
 3938              	.LASF170:
 3939 062e 49434D50 		.ascii	"ICMP_DUR_PORT\000"
 3939      5F445552 
 3939      5F504F52 
 3939      5400
ARM GAS  C:\Users\Luis\AppData\Local\Temp\ccKPaE82.s 			page 75


 3940              	.LASF108:
 3941 063c 6E5F6374 		.ascii	"n_ctxswc\000"
 3941      78737763 
 3941      00
 3942              	.LASF147:
 3943 0645 696E7075 		.ascii	"input\000"
 3943      7400
 3944              	.LASF194:
 3945 064b 6D656D65 		.ascii	"memerr\000"
 3945      727200
 3946              	.LASF75:
 3947 0652 70616E69 		.ascii	"panic_msg\000"
 3947      635F6D73 
 3947      6700
 3948              	.LASF89:
 3949 065c 636F6E74 		.ascii	"context\000"
 3949      65787400 
 3950              	.LASF229:
 3951 0664 6E657469 		.ascii	"netif_default\000"
 3951      665F6465 
 3951      6661756C 
 3951      7400
 3952              	.LASF41:
 3953 0672 705F6D73 		.ascii	"p_msg\000"
 3953      6700
 3954              	.LASF101:
 3955 0678 746D5F63 		.ascii	"tm_calibration_t\000"
 3955      616C6962 
 3955      72617469 
 3955      6F6E5F74 
 3955      00
 3956              	.LASF215:
 3957 0689 69705F69 		.ascii	"ip_input\000"
 3957      6E707574 
 3957      00
 3958              	.LASF18:
 3959 0692 746D6F64 		.ascii	"tmode_t\000"
 3959      655F7400 
 3960              	.LASF25:
 3961 069a 75636E74 		.ascii	"ucnt_t\000"
 3961      5F7400
 3962              	.LASF83:
 3963 06a1 6D61696E 		.ascii	"mainthread\000"
 3963      74687265 
 3963      616400
 3964              	.LASF7:
 3965 06ac 75696E74 		.ascii	"uint16_t\000"
 3965      31365F74 
 3965      00
 3966              	.LASF48:
 3967 06b5 74687265 		.ascii	"thread_reference_t\000"
 3967      61645F72 
 3967      65666572 
 3967      656E6365 
 3967      5F7400
 3968              	.LASF1:
 3969 06c8 73697A65 		.ascii	"size_t\000"
ARM GAS  C:\Users\Luis\AppData\Local\Temp\ccKPaE82.s 			page 76


 3969      5F7400
 3970              	.LASF226:
 3971 06cf 69705F69 		.ascii	"ip_id\000"
 3971      6400
 3972              	.LASF16:
 3973 06d5 7274636E 		.ascii	"rtcnt_t\000"
 3973      745F7400 
 3974              	.LASF77:
 3975 06dd 6C6F636B 		.ascii	"lock_cnt\000"
 3975      5F636E74 
 3975      00
 3976              	.LASF107:
 3977 06e6 6E5F6972 		.ascii	"n_irq\000"
 3977      7100
 3978              	.LASF173:
 3979 06ec 4D454D50 		.ascii	"MEMP_RAW_PCB\000"
 3979      5F524157 
 3979      5F504342 
 3979      00
 3980              	.LASF230:
 3981 06f9 63757272 		.ascii	"current_netif\000"
 3981      656E745F 
 3981      6E657469 
 3981      6600
 3982              	.LASF44:
 3983 0707 705F7265 		.ascii	"p_realprio\000"
 3983      616C7072 
 3983      696F00
 3984              	.LASF132:
 3985 0712 7533325F 		.ascii	"u32_t\000"
 3985      7400
 3986              	.LASF6:
 3987 0718 73686F72 		.ascii	"short int\000"
 3987      7420696E 
 3987      7400
 3988              	.LASF211:
 3989 0722 69636D70 		.ascii	"icmp\000"
 3989      00
 3990              	.LASF61:
 3991 0727 725F6375 		.ascii	"r_current\000"
 3991      7272656E 
 3991      7400
 3992              	.LASF42:
 3993 0731 705F6570 		.ascii	"p_epending\000"
 3993      656E6469 
 3993      6E6700
 3994              	.LASF123:
 3995 073c 6D5F7175 		.ascii	"m_queue\000"
 3995      65756500 
 3996              	.LASF10:
 3997 0744 6C6F6E67 		.ascii	"long int\000"
 3997      20696E74 
 3997      00
 3998              	.LASF90:
 3999 074d 706F7274 		.ascii	"port_intctx\000"
 3999      5F696E74 
 3999      63747800 
ARM GAS  C:\Users\Luis\AppData\Local\Temp\ccKPaE82.s 			page 77


 4000              	.LASF195:
 4001 0759 72746572 		.ascii	"rterr\000"
 4001      7200
 4002              	.LASF227:
 4003 075f 49544D5F 		.ascii	"ITM_RxBuffer\000"
 4003      52784275 
 4003      66666572 
 4003      00
 4004              	.LASF200:
 4005 076c 61766169 		.ascii	"avail\000"
 4005      6C00
 4006              	.LASF184:
 4007 0772 4D454D50 		.ascii	"MEMP_SYS_TIMEOUT\000"
 4007      5F535953 
 4007      5F54494D 
 4007      454F5554 
 4007      00
 4008              	.LASF239:
 4009 0783 6F73616C 		.ascii	"osalSysHalt\000"
 4009      53797348 
 4009      616C7400 
 4010              	.LASF80:
 4011 078f 63685F73 		.ascii	"ch_system\000"
 4011      79737465 
 4011      6D00
 4012              	.LASF109:
 4013 0799 6D5F6372 		.ascii	"m_crit_thd\000"
 4013      69745F74 
 4013      686400
 4014              	.LASF198:
 4015 07a4 63616368 		.ascii	"cachehit\000"
 4015      65686974 
 4015      00
 4016              	.LASF28:
 4017 07ad 705F6E65 		.ascii	"p_next\000"
 4017      787400
 4018              	.LASF174:
 4019 07b4 4D454D50 		.ascii	"MEMP_UDP_PCB\000"
 4019      5F554450 
 4019      5F504342 
 4019      00
 4020              	.LASF31:
 4021 07c1 705F6374 		.ascii	"p_ctx\000"
 4021      7800
 4022              	.LASF206:
 4023 07c7 6D626F78 		.ascii	"mbox\000"
 4023      00
 4024              	.LASF81:
 4025 07cc 726C6973 		.ascii	"rlist\000"
 4025      7400
 4026              	.LASF220:
 4027 07d2 69705F6F 		.ascii	"ip_output_if\000"
 4027      75747075 
 4027      745F6966 
 4027      00
 4028              	.LASF157:
 4029 07df 69705F68 		.ascii	"ip_hdr\000"
ARM GAS  C:\Users\Luis\AppData\Local\Temp\ccKPaE82.s 			page 78


 4029      647200
 4030              	.LASF153:
 4031 07e6 6E616D65 		.ascii	"name\000"
 4031      00
 4032              	.LASF156:
 4033 07eb 6E657469 		.ascii	"netif_linkoutput_fn\000"
 4033      665F6C69 
 4033      6E6B6F75 
 4033      74707574 
 4033      5F666E00 
 4034              	.LASF179:
 4035 07ff 4D454D50 		.ascii	"MEMP_FRAG_PBUF\000"
 4035      5F465241 
 4035      475F5042 
 4035      554600
 4036              	.LASF238:
 4037 080e 69636D70 		.ascii	"icmp_dur_type\000"
 4037      5F647572 
 4037      5F747970 
 4037      6500
 4038              	.LASF212:
 4039 081c 6D656D70 		.ascii	"memp\000"
 4039      00
 4040              	.LASF193:
 4041 0821 6C656E65 		.ascii	"lenerr\000"
 4041      727200
 4042              	.LASF29:
 4043 0828 705F7072 		.ascii	"p_prev\000"
 4043      657600
 4044              	.LASF159:
 4045 082f 5F746F73 		.ascii	"_tos\000"
 4045      00
 4046              	.LASF86:
 4047 0834 73697A65 		.ascii	"sizetype\000"
 4047      74797065 
 4047      00
 4048              	.LASF20:
 4049 083d 74726566 		.ascii	"trefs_t\000"
 4049      735F7400 
 4050              	.LASF12:
 4051 0845 6C6F6E67 		.ascii	"long unsigned int\000"
 4051      20756E73 
 4051      69676E65 
 4051      6420696E 
 4051      7400
 4052              	.LASF43:
 4053 0857 705F6D74 		.ascii	"p_mtxlist\000"
 4053      786C6973 
 4053      7400
 4054              	.LASF54:
 4055 0861 72656164 		.ascii	"ready_list_t\000"
 4055      795F6C69 
 4055      73745F74 
 4055      00
 4056              	.LASF9:
 4057 086e 696E7433 		.ascii	"int32_t\000"
 4057      325F7400 
ARM GAS  C:\Users\Luis\AppData\Local\Temp\ccKPaE82.s 			page 79


 4058              	.LASF78:
 4059 0876 74726163 		.ascii	"trace_buffer\000"
 4059      655F6275 
 4059      66666572 
 4059      00
 4060              	.LASF196:
 4061 0883 70726F74 		.ascii	"proterr\000"
 4061      65727200 
 4062              	.LASF116:
 4063 088b 77747365 		.ascii	"wtsemp\000"
 4063      6D7000
 4064              	.LASF95:
 4065 0892 63685F73 		.ascii	"ch_swc_event_t\000"
 4065      77635F65 
 4065      76656E74 
 4065      5F7400
 4066              	.LASF127:
 4067 08a1 6D757465 		.ascii	"mutex_t\000"
 4067      785F7400 
 4068              	.LASF69:
 4069 08a9 76745F70 		.ascii	"vt_par\000"
 4069      617200
 4070              	.LASF102:
 4071 08b0 62657374 		.ascii	"best\000"
 4071      00
 4072              	.LASF204:
 4073 08b5 73746174 		.ascii	"stats_sys\000"
 4073      735F7379 
 4073      7300
 4074              	.LASF5:
 4075 08bf 756E7369 		.ascii	"unsigned char\000"
 4075      676E6564 
 4075      20636861 
 4075      7200
 4076              	.LASF70:
 4077 08cd 76697274 		.ascii	"virtual_timers_list_t\000"
 4077      75616C5F 
 4077      74696D65 
 4077      72735F6C 
 4077      6973745F 
 4078              	.LASF38:
 4079 08e3 705F7265 		.ascii	"p_refs\000"
 4079      667300
 4080              	.LASF177:
 4081 08ea 4D454D50 		.ascii	"MEMP_TCP_SEG\000"
 4081      5F544350 
 4081      5F534547 
 4081      00
 4082              	.LASF134:
 4083 08f7 70627566 		.ascii	"pbuf\000"
 4083      00
 4084              	.LASF144:
 4085 08fc 69705F61 		.ascii	"ip_addr_p_t\000"
 4085      6464725F 
 4085      705F7400 
 4086              	.LASF169:
 4087 0908 49434D50 		.ascii	"ICMP_DUR_PROTO\000"
ARM GAS  C:\Users\Luis\AppData\Local\Temp\ccKPaE82.s 			page 80


 4087      5F445552 
 4087      5F50524F 
 4087      544F00
 4088              	.LASF219:
 4089 0917 66697273 		.ascii	"first\000"
 4089      7400
 4090              	.LASF88:
 4091 091d 73746B61 		.ascii	"stkalign_t\000"
 4091      6C69676E 
 4091      5F7400
 4092              	.LASF141:
 4093 0928 61646472 		.ascii	"addr\000"
 4093      00
 4094              	.LASF171:
 4095 092d 49434D50 		.ascii	"ICMP_DUR_FRAG\000"
 4095      5F445552 
 4095      5F465241 
 4095      4700
 4096              	.LASF191:
 4097 093b 64726F70 		.ascii	"drop\000"
 4097      00
 4098              	.LASF150:
 4099 0940 73746174 		.ascii	"state\000"
 4099      6500
 4100              	.LASF65:
 4101 0946 76745F6E 		.ascii	"vt_next\000"
 4101      65787400 
 4102              	.LASF14:
 4103 094e 75696E74 		.ascii	"uint64_t\000"
 4103      36345F74 
 4103      00
 4104              	.LASF145:
 4105 0957 6E657469 		.ascii	"netif\000"
 4105      6600
 4106              	.LASF79:
 4107 095d 63685F73 		.ascii	"ch_system_t\000"
 4107      79737465 
 4107      6D5F7400 
 4108              	.LASF115:
 4109 0969 77747472 		.ascii	"wttrp\000"
 4109      7000
 4110              	.LASF216:
 4111 096f 69706864 		.ascii	"iphdr\000"
 4111      7200
 4112              	.LASF190:
 4113 0975 72656376 		.ascii	"recv\000"
 4113      00
 4114              	.LASF99:
 4115 097a 63685F74 		.ascii	"ch_trace_buffer_t\000"
 4115      72616365 
 4115      5F627566 
 4115      6665725F 
 4115      7400
 4116              	.LASF125:
 4117 098c 6D5F6E65 		.ascii	"m_next\000"
 4117      787400
 4118              	.LASF3:
ARM GAS  C:\Users\Luis\AppData\Local\Temp\ccKPaE82.s 			page 81


 4119 0993 7369676E 		.ascii	"signed char\000"
 4119      65642063 
 4119      68617200 
 4120              	.LASF8:
 4121 099f 73686F72 		.ascii	"short unsigned int\000"
 4121      7420756E 
 4121      7369676E 
 4121      65642069 
 4121      6E7400
 4122              	.LASF58:
 4123 09b2 725F6374 		.ascii	"r_ctx\000"
 4123      7800
 4124              	.LASF47:
 4125 09b8 746C7350 		.ascii	"tlsPtr\000"
 4125      747200
 4126              	.LASF189:
 4127 09bf 786D6974 		.ascii	"xmit\000"
 4127      00
 4128              	.LASF233:
 4129 09c4 63757272 		.ascii	"current_iphdr_dest\000"
 4129      656E745F 
 4129      69706864 
 4129      725F6465 
 4129      737400
 4130              	.LASF68:
 4131 09d7 76745F66 		.ascii	"vt_func\000"
 4131      756E6300 
 4132              	.LASF66:
 4133 09df 76745F70 		.ascii	"vt_prev\000"
 4133      72657600 
 4134              	.LASF160:
 4135 09e7 5F6C656E 		.ascii	"_len\000"
 4135      00
 4136              	.LASF143:
 4137 09ec 69705F61 		.ascii	"ip_addr_t\000"
 4137      6464725F 
 4137      7400
 4138              	.LASF214:
 4139 09f6 69705F72 		.ascii	"ip_route\000"
 4139      6F757465 
 4139      00
 4140              	.LASF236:
 4141 09ff 2E2E2F2E 		.ascii	"../../ChibiOS/ext/lwip/src/core/ipv4/ip.c\000"
 4141      2E2F4368 
 4141      6962694F 
 4141      532F6578 
 4141      742F6C77 
 4142              	.LASF218:
 4143 0a29 69706864 		.ascii	"iphdr_len\000"
 4143      725F6C65 
 4143      6E00
 4144              	.LASF149:
 4145 0a33 6C696E6B 		.ascii	"linkoutput\000"
 4145      6F757470 
 4145      757400
 4146              	.LASF165:
 4147 0a3e 64657374 		.ascii	"dest\000"
ARM GAS  C:\Users\Luis\AppData\Local\Temp\ccKPaE82.s 			page 82


 4147      00
 4148              	.LASF113:
 4149 0a43 65786974 		.ascii	"exitcode\000"
 4149      636F6465 
 4149      00
 4150              	.LASF222:
 4151 0a4c 64657374 		.ascii	"dest_addr\000"
 4151      5F616464 
 4151      7200
 4152              	.LASF140:
 4153 0a56 69705F61 		.ascii	"ip_addr\000"
 4153      64647200 
 4154              		.ident	"GCC: (GNU Tools for ARM Embedded Processors) 4.8.3 20131129 (release) [ARM/embedded-4_8-br
ARM GAS  C:\Users\Luis\AppData\Local\Temp\ccKPaE82.s 			page 83


DEFINED SYMBOLS
                            *ABS*:00000000 ip.c
C:\Users\Luis\AppData\Local\Temp\ccKPaE82.s:19     .text.osalSysHalt:00000000 $t
C:\Users\Luis\AppData\Local\Temp\ccKPaE82.s:24     .text.osalSysHalt:00000000 osalSysHalt
C:\Users\Luis\AppData\Local\Temp\ccKPaE82.s:56     .bss.current_netif:00000000 current_netif
C:\Users\Luis\AppData\Local\Temp\ccKPaE82.s:53     .bss.current_netif:00000000 $d
C:\Users\Luis\AppData\Local\Temp\ccKPaE82.s:63     .bss.current_header:00000000 current_header
C:\Users\Luis\AppData\Local\Temp\ccKPaE82.s:60     .bss.current_header:00000000 $d
C:\Users\Luis\AppData\Local\Temp\ccKPaE82.s:70     .bss.current_iphdr_src:00000000 current_iphdr_src
C:\Users\Luis\AppData\Local\Temp\ccKPaE82.s:67     .bss.current_iphdr_src:00000000 $d
C:\Users\Luis\AppData\Local\Temp\ccKPaE82.s:77     .bss.current_iphdr_dest:00000000 current_iphdr_dest
C:\Users\Luis\AppData\Local\Temp\ccKPaE82.s:74     .bss.current_iphdr_dest:00000000 $d
C:\Users\Luis\AppData\Local\Temp\ccKPaE82.s:80     .bss.ip_id:00000000 $d
C:\Users\Luis\AppData\Local\Temp\ccKPaE82.s:83     .bss.ip_id:00000000 ip_id
C:\Users\Luis\AppData\Local\Temp\ccKPaE82.s:86     .text.ip_route:00000000 $t
C:\Users\Luis\AppData\Local\Temp\ccKPaE82.s:92     .text.ip_route:00000000 ip_route
C:\Users\Luis\AppData\Local\Temp\ccKPaE82.s:182    .text.ip_route:00000080 $d
C:\Users\Luis\AppData\Local\Temp\ccKPaE82.s:189    .text.ip_input:00000000 $t
C:\Users\Luis\AppData\Local\Temp\ccKPaE82.s:195    .text.ip_input:00000000 ip_input
C:\Users\Luis\AppData\Local\Temp\ccKPaE82.s:537    .text.ip_input:00000234 $d
C:\Users\Luis\AppData\Local\Temp\ccKPaE82.s:545    .text.ip_input:0000024c $t
C:\Users\Luis\AppData\Local\Temp\ccKPaE82.s:616    .text.ip_input:000002c4 $d
C:\Users\Luis\AppData\Local\Temp\ccKPaE82.s:625    .rodata:00000000 $d
C:\Users\Luis\AppData\Local\Temp\ccKPaE82.s:632    .text.ip_output_if:00000000 $t
C:\Users\Luis\AppData\Local\Temp\ccKPaE82.s:638    .text.ip_output_if:00000000 ip_output_if
C:\Users\Luis\AppData\Local\Temp\ccKPaE82.s:929    .text.ip_output_if:000001d8 $d
C:\Users\Luis\AppData\Local\Temp\ccKPaE82.s:937    .text.ip_output:00000000 $t
C:\Users\Luis\AppData\Local\Temp\ccKPaE82.s:943    .text.ip_output:00000000 ip_output
C:\Users\Luis\AppData\Local\Temp\ccKPaE82.s:1012   .text.ip_output:00000068 $d
                     .debug_frame:00000010 $d
C:\Users\Luis\AppData\Local\Temp\ccKPaE82.s:188    .text.ip_route:0000008c $t
C:\Users\Luis\AppData\Local\Temp\ccKPaE82.s:624    .text.ip_input:000002d8 $t
C:\Users\Luis\AppData\Local\Temp\ccKPaE82.s:936    .text.ip_output_if:000001e8 $t

UNDEFINED SYMBOLS
chSysHalt
netif_list
netif_default
lwip_stats
pbuf_free
lwip_ntohs
inet_chksum
pbuf_realloc
ip4_addr_isbroadcast
ip_reass
raw_input
udp_input
tcp_input
icmp_input
icmp_dest_unreach
pbuf_header
lwip_htons
ip_frag
