ARM GAS  C:\Users\Luis\AppData\Local\Temp\cctuEKFp.s 			page 1


   1              		.syntax unified
   2              		.cpu cortex-m4
   3              		.fpu softvfp
   4              		.eabi_attribute 20, 1
   5              		.eabi_attribute 21, 1
   6              		.eabi_attribute 23, 3
   7              		.eabi_attribute 24, 1
   8              		.eabi_attribute 25, 1
   9              		.eabi_attribute 26, 1
  10              		.eabi_attribute 30, 6
  11              		.eabi_attribute 34, 1
  12              		.eabi_attribute 18, 4
  13              		.thumb
  14              		.file	"ip_addr.c"
  15              		.text
  16              	.Ltext0:
  17              		.cfi_sections	.debug_frame
  18              		.section	.text.osalSysHalt,"ax",%progbits
  19              		.align	2
  20              		.p2align 4,,15
  21              		.thumb
  22              		.thumb_func
  23              		.type	osalSysHalt, %function
  24              	osalSysHalt:
  25              	.LFB230:
  26              		.file 1 "../../ChibiOS/os/hal/osal/rt/osal.h"
  27              		.loc 1 460 0
  28              		.cfi_startproc
  29              		@ args = 0, pretend = 0, frame = 8
  30              		@ frame_needed = 1, uses_anonymous_args = 0
  31 0000 80B5     		push	{r7, lr}
  32              		.cfi_def_cfa_offset 8
  33              		.cfi_offset 7, -8
  34              		.cfi_offset 14, -4
  35 0002 82B0     		sub	sp, sp, #8
  36              		.cfi_def_cfa_offset 16
  37 0004 00AF     		add	r7, sp, #0
  38              		.cfi_def_cfa_register 7
  39 0006 7860     		str	r0, [r7, #4]
  40              		.loc 1 462 0
  41 0008 7868     		ldr	r0, [r7, #4]
  42 000a FFF7FEFF 		bl	chSysHalt
  43              		.loc 1 463 0
  44 000e 0837     		adds	r7, r7, #8
  45 0010 BD46     		mov	sp, r7
  46              		@ sp needed
  47 0012 80BD     		pop	{r7, pc}
  48              		.cfi_endproc
  49              	.LFE230:
  50              		.size	osalSysHalt, .-osalSysHalt
  51              		.global	ip_addr_any
  52 0014 AFF30080 		.section	.rodata.ip_addr_any,"a",%progbits
  52      AFF30080 
  52      AFF30080 
  53              		.align	2
  54              		.type	ip_addr_any, %object
  55              		.size	ip_addr_any, 4
ARM GAS  C:\Users\Luis\AppData\Local\Temp\cctuEKFp.s 			page 2


  56              	ip_addr_any:
  57 0000 00000000 		.space	4
  58              		.global	ip_addr_broadcast
  59              		.section	.rodata.ip_addr_broadcast,"a",%progbits
  60              		.align	2
  61              		.type	ip_addr_broadcast, %object
  62              		.size	ip_addr_broadcast, 4
  63              	ip_addr_broadcast:
  64 0000 FFFFFFFF 		.word	-1
  65              		.section	.text.ip4_addr_isbroadcast,"ax",%progbits
  66              		.align	2
  67              		.p2align 4,,15
  68              		.global	ip4_addr_isbroadcast
  69              		.thumb
  70              		.thumb_func
  71              		.type	ip4_addr_isbroadcast, %function
  72              	ip4_addr_isbroadcast:
  73              	.LFB260:
  74              		.file 2 "../../ChibiOS/ext/lwip/src/core/ipv4/ip_addr.c"
  75              		.loc 2 56 0
  76              		.cfi_startproc
  77              		@ args = 0, pretend = 0, frame = 16
  78              		@ frame_needed = 1, uses_anonymous_args = 0
  79              		@ link register save eliminated.
  80 0000 80B4     		push	{r7}
  81              		.cfi_def_cfa_offset 4
  82              		.cfi_offset 7, -4
  83 0002 85B0     		sub	sp, sp, #20
  84              		.cfi_def_cfa_offset 24
  85 0004 00AF     		add	r7, sp, #0
  86              		.cfi_def_cfa_register 7
  87 0006 7860     		str	r0, [r7, #4]
  88 0008 3960     		str	r1, [r7]
  89              		.loc 2 58 0
  90 000a 7B68     		ldr	r3, [r7, #4]
  91 000c FB60     		str	r3, [r7, #12]
  92              		.loc 2 61 0
  93 000e 7B68     		ldr	r3, [r7, #4]
  94 0010 B3F1FF3F 		cmp	r3, #-1
  95 0014 02D0     		beq	.L3
  96              		.loc 2 61 0 is_stmt 0 discriminator 1
  97 0016 7B68     		ldr	r3, [r7, #4]
  98 0018 002B     		cmp	r3, #0
  99 001a 01D1     		bne	.L4
 100              	.L3:
 101              		.loc 2 63 0 is_stmt 1
 102 001c 0123     		movs	r3, #1
 103 001e 25E0     		b	.L9
 104              	.L4:
 105              		.loc 2 65 0
 106 0020 3B68     		ldr	r3, [r7]
 107 0022 93F82930 		ldrb	r3, [r3, #41]	@ zero_extendqisi2
 108 0026 03F00203 		and	r3, r3, #2
 109 002a 002B     		cmp	r3, #0
 110 002c 01D1     		bne	.L6
 111              		.loc 2 68 0
 112 002e 0023     		movs	r3, #0
ARM GAS  C:\Users\Luis\AppData\Local\Temp\cctuEKFp.s 			page 3


 113 0030 1CE0     		b	.L9
 114              	.L6:
 115              		.loc 2 70 0
 116 0032 3B68     		ldr	r3, [r7]
 117 0034 5A68     		ldr	r2, [r3, #4]
 118 0036 7B68     		ldr	r3, [r7, #4]
 119 0038 9A42     		cmp	r2, r3
 120 003a 01D1     		bne	.L7
 121              		.loc 2 71 0
 122 003c 0023     		movs	r3, #0
 123 003e 15E0     		b	.L9
 124              	.L7:
 125              		.loc 2 73 0
 126 0040 FA68     		ldr	r2, [r7, #12]
 127 0042 3B68     		ldr	r3, [r7]
 128 0044 5B68     		ldr	r3, [r3, #4]
 129 0046 5A40     		eors	r2, r2, r3
 130 0048 3B68     		ldr	r3, [r7]
 131 004a 9B68     		ldr	r3, [r3, #8]
 132 004c 1340     		ands	r3, r3, r2
 133 004e 002B     		cmp	r3, #0
 134 0050 0BD1     		bne	.L8
 135              		.loc 2 75 0
 136 0052 3B68     		ldr	r3, [r7]
 137 0054 9B68     		ldr	r3, [r3, #8]
 138 0056 DA43     		mvns	r2, r3
 139 0058 7B68     		ldr	r3, [r7, #4]
 140 005a 1A40     		ands	r2, r2, r3
 141              		.loc 2 76 0
 142 005c 3B68     		ldr	r3, [r7]
 143 005e 9B68     		ldr	r3, [r3, #8]
 144 0060 DB43     		mvns	r3, r3
 145              		.loc 2 75 0
 146 0062 9A42     		cmp	r2, r3
 147 0064 01D1     		bne	.L8
 148              		.loc 2 78 0
 149 0066 0123     		movs	r3, #1
 150 0068 00E0     		b	.L9
 151              	.L8:
 152              		.loc 2 80 0
 153 006a 0023     		movs	r3, #0
 154              	.L9:
 155              		.loc 2 82 0
 156 006c 1846     		mov	r0, r3
 157 006e 1437     		adds	r7, r7, #20
 158 0070 BD46     		mov	sp, r7
 159              		@ sp needed
 160 0072 5DF8047B 		ldr	r7, [sp], #4
 161 0076 7047     		bx	lr
 162              		.cfi_endproc
 163              	.LFE260:
 164              		.size	ip4_addr_isbroadcast, .-ip4_addr_isbroadcast
 165 0078 AFF30080 		.section	.text.ip4_addr_netmask_valid,"ax",%progbits
 165      AFF30080 
 166              		.align	2
 167              		.p2align 4,,15
 168              		.global	ip4_addr_netmask_valid
ARM GAS  C:\Users\Luis\AppData\Local\Temp\cctuEKFp.s 			page 4


 169              		.thumb
 170              		.thumb_func
 171              		.type	ip4_addr_netmask_valid, %function
 172              	ip4_addr_netmask_valid:
 173              	.LFB261:
 174              		.loc 2 91 0
 175              		.cfi_startproc
 176              		@ args = 0, pretend = 0, frame = 16
 177              		@ frame_needed = 1, uses_anonymous_args = 0
 178 0000 80B5     		push	{r7, lr}
 179              		.cfi_def_cfa_offset 8
 180              		.cfi_offset 7, -8
 181              		.cfi_offset 14, -4
 182 0002 84B0     		sub	sp, sp, #16
 183              		.cfi_def_cfa_offset 24
 184 0004 00AF     		add	r7, sp, #0
 185              		.cfi_def_cfa_register 7
 186 0006 7860     		str	r0, [r7, #4]
 187              		.loc 2 93 0
 188 0008 7868     		ldr	r0, [r7, #4]
 189 000a FFF7FEFF 		bl	lwip_htonl
 190 000e B860     		str	r0, [r7, #8]
 191              		.loc 2 96 0
 192 0010 4FF00043 		mov	r3, #-2147483648
 193 0014 FB60     		str	r3, [r7, #12]
 194 0016 08E0     		b	.L11
 195              	.L14:
 196              		.loc 2 97 0
 197 0018 BA68     		ldr	r2, [r7, #8]
 198 001a FB68     		ldr	r3, [r7, #12]
 199 001c 1340     		ands	r3, r3, r2
 200 001e 002B     		cmp	r3, #0
 201 0020 00D1     		bne	.L12
 202              		.loc 2 98 0
 203 0022 05E0     		b	.L13
 204              	.L12:
 205              		.loc 2 96 0
 206 0024 FB68     		ldr	r3, [r7, #12]
 207 0026 5B08     		lsrs	r3, r3, #1
 208 0028 FB60     		str	r3, [r7, #12]
 209              	.L11:
 210              		.loc 2 96 0 is_stmt 0 discriminator 1
 211 002a FB68     		ldr	r3, [r7, #12]
 212 002c 002B     		cmp	r3, #0
 213 002e F3D1     		bne	.L14
 214              	.L13:
 215              		.loc 2 102 0 is_stmt 1
 216 0030 09E0     		b	.L15
 217              	.L18:
 218              		.loc 2 103 0
 219 0032 BA68     		ldr	r2, [r7, #8]
 220 0034 FB68     		ldr	r3, [r7, #12]
 221 0036 1340     		ands	r3, r3, r2
 222 0038 002B     		cmp	r3, #0
 223 003a 01D0     		beq	.L16
 224              		.loc 2 105 0
 225 003c 0023     		movs	r3, #0
ARM GAS  C:\Users\Luis\AppData\Local\Temp\cctuEKFp.s 			page 5


 226 003e 06E0     		b	.L17
 227              	.L16:
 228              		.loc 2 102 0
 229 0040 FB68     		ldr	r3, [r7, #12]
 230 0042 5B08     		lsrs	r3, r3, #1
 231 0044 FB60     		str	r3, [r7, #12]
 232              	.L15:
 233              		.loc 2 102 0 is_stmt 0 discriminator 1
 234 0046 FB68     		ldr	r3, [r7, #12]
 235 0048 002B     		cmp	r3, #0
 236 004a F2D1     		bne	.L18
 237              		.loc 2 109 0 is_stmt 1
 238 004c 0123     		movs	r3, #1
 239              	.L17:
 240              		.loc 2 110 0
 241 004e 1846     		mov	r0, r3
 242 0050 1037     		adds	r7, r7, #16
 243 0052 BD46     		mov	sp, r7
 244              		@ sp needed
 245 0054 80BD     		pop	{r7, pc}
 246              		.cfi_endproc
 247              	.LFE261:
 248              		.size	ip4_addr_netmask_valid, .-ip4_addr_netmask_valid
 249 0056 00BFAFF3 		.section	.text.ipaddr_addr,"ax",%progbits
 249      0080AFF3 
 249      0080
 250              		.align	2
 251              		.p2align 4,,15
 252              		.global	ipaddr_addr
 253              		.thumb
 254              		.thumb_func
 255              		.type	ipaddr_addr, %function
 256              	ipaddr_addr:
 257              	.LFB262:
 258              		.loc 2 131 0
 259              		.cfi_startproc
 260              		@ args = 0, pretend = 0, frame = 16
 261              		@ frame_needed = 1, uses_anonymous_args = 0
 262 0000 80B5     		push	{r7, lr}
 263              		.cfi_def_cfa_offset 8
 264              		.cfi_offset 7, -8
 265              		.cfi_offset 14, -4
 266 0002 84B0     		sub	sp, sp, #16
 267              		.cfi_def_cfa_offset 24
 268 0004 00AF     		add	r7, sp, #0
 269              		.cfi_def_cfa_register 7
 270 0006 7860     		str	r0, [r7, #4]
 271              		.loc 2 134 0
 272 0008 07F10C03 		add	r3, r7, #12
 273 000c 7868     		ldr	r0, [r7, #4]
 274 000e 1946     		mov	r1, r3
 275 0010 FFF7FEFF 		bl	ipaddr_aton
 276 0014 0346     		mov	r3, r0
 277 0016 002B     		cmp	r3, #0
 278 0018 01D0     		beq	.L20
 279              		.loc 2 135 0
 280 001a FB68     		ldr	r3, [r7, #12]
ARM GAS  C:\Users\Luis\AppData\Local\Temp\cctuEKFp.s 			page 6


 281 001c 01E0     		b	.L22
 282              	.L20:
 283              		.loc 2 137 0
 284 001e 4FF0FF33 		mov	r3, #-1
 285              	.L22:
 286              		.loc 2 138 0
 287 0022 1846     		mov	r0, r3
 288 0024 1037     		adds	r7, r7, #16
 289 0026 BD46     		mov	sp, r7
 290              		@ sp needed
 291 0028 80BD     		pop	{r7, pc}
 292              		.cfi_endproc
 293              	.LFE262:
 294              		.size	ipaddr_addr, .-ipaddr_addr
 295 002a 00BFAFF3 		.section	.rodata
 295      0080
 296              		.align	2
 297              	.LC0:
 298 0000 756E6861 		.ascii	"unhandled\000"
 298      6E646C65 
 298      6400
 299 000a 0000     		.section	.text.ipaddr_aton,"ax",%progbits
 300              		.align	2
 301              		.p2align 4,,15
 302              		.global	ipaddr_aton
 303              		.thumb
 304              		.thumb_func
 305              		.type	ipaddr_aton, %function
 306              	ipaddr_aton:
 307              	.LFB263:
 308              		.loc 2 153 0
 309              		.cfi_startproc
 310              		@ args = 0, pretend = 0, frame = 40
 311              		@ frame_needed = 1, uses_anonymous_args = 0
 312 0000 80B5     		push	{r7, lr}
 313              		.cfi_def_cfa_offset 8
 314              		.cfi_offset 7, -8
 315              		.cfi_offset 14, -4
 316 0002 8AB0     		sub	sp, sp, #40
 317              		.cfi_def_cfa_offset 48
 318 0004 00AF     		add	r7, sp, #0
 319              		.cfi_def_cfa_register 7
 320 0006 7860     		str	r0, [r7, #4]
 321 0008 3960     		str	r1, [r7]
 322              		.loc 2 158 0
 323 000a 07F10C03 		add	r3, r7, #12
 324 000e FB61     		str	r3, [r7, #28]
 325              		.loc 2 160 0
 326 0010 7B68     		ldr	r3, [r7, #4]
 327 0012 1B78     		ldrb	r3, [r3]
 328 0014 87F82230 		strb	r3, [r7, #34]
 329              	.L42:
 330              		.loc 2 167 0
 331 0018 97F82230 		ldrb	r3, [r7, #34]	@ zero_extendqisi2
 332 001c 2F2B     		cmp	r3, #47
 333 001e 03D9     		bls	.L24
 334              		.loc 2 167 0 is_stmt 0 discriminator 1
ARM GAS  C:\Users\Luis\AppData\Local\Temp\cctuEKFp.s 			page 7


 335 0020 97F82230 		ldrb	r3, [r7, #34]	@ zero_extendqisi2
 336 0024 392B     		cmp	r3, #57
 337 0026 01D9     		bls	.L25
 338              	.L24:
 339              		.loc 2 168 0 is_stmt 1
 340 0028 0023     		movs	r3, #0
 341 002a 02E1     		b	.L56
 342              	.L25:
 343              		.loc 2 169 0
 344 002c 0023     		movs	r3, #0
 345 002e 7B62     		str	r3, [r7, #36]
 346              		.loc 2 170 0
 347 0030 0A23     		movs	r3, #10
 348 0032 87F82330 		strb	r3, [r7, #35]
 349              		.loc 2 171 0
 350 0036 97F82230 		ldrb	r3, [r7, #34]	@ zero_extendqisi2
 351 003a 302B     		cmp	r3, #48
 352 003c 1CD1     		bne	.L27
 353              		.loc 2 172 0
 354 003e 7B68     		ldr	r3, [r7, #4]
 355 0040 0133     		adds	r3, r3, #1
 356 0042 7B60     		str	r3, [r7, #4]
 357 0044 7B68     		ldr	r3, [r7, #4]
 358 0046 1B78     		ldrb	r3, [r3]
 359 0048 87F82230 		strb	r3, [r7, #34]
 360              		.loc 2 173 0
 361 004c 97F82230 		ldrb	r3, [r7, #34]	@ zero_extendqisi2
 362 0050 782B     		cmp	r3, #120
 363 0052 03D0     		beq	.L28
 364              		.loc 2 173 0 is_stmt 0 discriminator 1
 365 0054 97F82230 		ldrb	r3, [r7, #34]	@ zero_extendqisi2
 366 0058 582B     		cmp	r3, #88
 367 005a 0AD1     		bne	.L29
 368              	.L28:
 369              		.loc 2 174 0 is_stmt 1
 370 005c 1023     		movs	r3, #16
 371 005e 87F82330 		strb	r3, [r7, #35]
 372              		.loc 2 175 0
 373 0062 7B68     		ldr	r3, [r7, #4]
 374 0064 0133     		adds	r3, r3, #1
 375 0066 7B60     		str	r3, [r7, #4]
 376 0068 7B68     		ldr	r3, [r7, #4]
 377 006a 1B78     		ldrb	r3, [r3]
 378 006c 87F82230 		strb	r3, [r7, #34]
 379 0070 02E0     		b	.L27
 380              	.L29:
 381              		.loc 2 177 0
 382 0072 0823     		movs	r3, #8
 383 0074 87F82330 		strb	r3, [r7, #35]
 384              	.L27:
 385              		.loc 2 180 0
 386 0078 97F82230 		ldrb	r3, [r7, #34]	@ zero_extendqisi2
 387 007c 2F2B     		cmp	r3, #47
 388 007e 15D9     		bls	.L30
 389              		.loc 2 180 0 is_stmt 0 discriminator 1
 390 0080 97F82230 		ldrb	r3, [r7, #34]	@ zero_extendqisi2
 391 0084 392B     		cmp	r3, #57
ARM GAS  C:\Users\Luis\AppData\Local\Temp\cctuEKFp.s 			page 8


 392 0086 11D8     		bhi	.L30
 393              		.loc 2 181 0 is_stmt 1
 394 0088 97F82330 		ldrb	r3, [r7, #35]	@ zero_extendqisi2
 395 008c 7A6A     		ldr	r2, [r7, #36]
 396 008e 02FB03F2 		mul	r2, r2, r3
 397 0092 97F82230 		ldrb	r3, [r7, #34]	@ zero_extendqisi2
 398 0096 1344     		add	r3, r3, r2
 399 0098 303B     		subs	r3, r3, #48
 400 009a 7B62     		str	r3, [r7, #36]
 401              		.loc 2 182 0
 402 009c 7B68     		ldr	r3, [r7, #4]
 403 009e 0133     		adds	r3, r3, #1
 404 00a0 7B60     		str	r3, [r7, #4]
 405 00a2 7B68     		ldr	r3, [r7, #4]
 406 00a4 1B78     		ldrb	r3, [r3]
 407 00a6 87F82230 		strb	r3, [r7, #34]
 408              		.loc 2 188 0
 409 00aa E5E7     		b	.L27
 410              	.L30:
 411              		.loc 2 183 0
 412 00ac 97F82330 		ldrb	r3, [r7, #35]	@ zero_extendqisi2
 413 00b0 102B     		cmp	r3, #16
 414 00b2 33D1     		bne	.L32
 415              		.loc 2 183 0 is_stmt 0 discriminator 1
 416 00b4 97F82230 		ldrb	r3, [r7, #34]	@ zero_extendqisi2
 417 00b8 2F2B     		cmp	r3, #47
 418 00ba 03D9     		bls	.L33
 419 00bc 97F82230 		ldrb	r3, [r7, #34]	@ zero_extendqisi2
 420 00c0 392B     		cmp	r3, #57
 421 00c2 0FD9     		bls	.L34
 422              	.L33:
 423              		.loc 2 183 0 discriminator 2
 424 00c4 97F82230 		ldrb	r3, [r7, #34]	@ zero_extendqisi2
 425 00c8 602B     		cmp	r3, #96
 426 00ca 03D9     		bls	.L35
 427              		.loc 2 183 0 discriminator 1
 428 00cc 97F82230 		ldrb	r3, [r7, #34]	@ zero_extendqisi2
 429 00d0 662B     		cmp	r3, #102
 430 00d2 07D9     		bls	.L34
 431              	.L35:
 432              		.loc 2 183 0 discriminator 2
 433 00d4 97F82230 		ldrb	r3, [r7, #34]	@ zero_extendqisi2
 434 00d8 402B     		cmp	r3, #64
 435 00da 1FD9     		bls	.L32
 436              		.loc 2 183 0 discriminator 1
 437 00dc 97F82230 		ldrb	r3, [r7, #34]	@ zero_extendqisi2
 438 00e0 462B     		cmp	r3, #70
 439 00e2 1BD8     		bhi	.L32
 440              	.L34:
 441              		.loc 2 184 0 is_stmt 1
 442 00e4 7B6A     		ldr	r3, [r7, #36]
 443 00e6 1A01     		lsls	r2, r3, #4
 444 00e8 97F82230 		ldrb	r3, [r7, #34]	@ zero_extendqisi2
 445 00ec 03F10A01 		add	r1, r3, #10
 446 00f0 97F82230 		ldrb	r3, [r7, #34]	@ zero_extendqisi2
 447 00f4 602B     		cmp	r3, #96
 448 00f6 05D9     		bls	.L36
ARM GAS  C:\Users\Luis\AppData\Local\Temp\cctuEKFp.s 			page 9


 449              		.loc 2 184 0 is_stmt 0 discriminator 1
 450 00f8 97F82230 		ldrb	r3, [r7, #34]	@ zero_extendqisi2
 451 00fc 7A2B     		cmp	r3, #122
 452 00fe 01D8     		bhi	.L36
 453 0100 6123     		movs	r3, #97
 454 0102 00E0     		b	.L37
 455              	.L36:
 456              		.loc 2 184 0 discriminator 2
 457 0104 4123     		movs	r3, #65
 458              	.L37:
 459              		.loc 2 184 0 discriminator 3
 460 0106 CB1A     		subs	r3, r1, r3
 461 0108 1343     		orrs	r3, r3, r2
 462 010a 7B62     		str	r3, [r7, #36]
 463              		.loc 2 185 0 is_stmt 1 discriminator 3
 464 010c 7B68     		ldr	r3, [r7, #4]
 465 010e 0133     		adds	r3, r3, #1
 466 0110 7B60     		str	r3, [r7, #4]
 467 0112 7B68     		ldr	r3, [r7, #4]
 468 0114 1B78     		ldrb	r3, [r3]
 469 0116 87F82230 		strb	r3, [r7, #34]
 470              		.loc 2 188 0 discriminator 3
 471 011a ADE7     		b	.L27
 472              	.L32:
 473              		.loc 2 189 0
 474 011c 97F82230 		ldrb	r3, [r7, #34]	@ zero_extendqisi2
 475 0120 2E2B     		cmp	r3, #46
 476 0122 14D1     		bne	.L38
 477              		.loc 2 196 0
 478 0124 07F10C03 		add	r3, r7, #12
 479 0128 0C33     		adds	r3, r3, #12
 480 012a FA69     		ldr	r2, [r7, #28]
 481 012c 9A42     		cmp	r2, r3
 482 012e 01D3     		bcc	.L39
 483              		.loc 2 197 0
 484 0130 0023     		movs	r3, #0
 485 0132 7EE0     		b	.L56
 486              	.L39:
 487              		.loc 2 199 0
 488 0134 FB69     		ldr	r3, [r7, #28]
 489 0136 1A1D     		adds	r2, r3, #4
 490 0138 FA61     		str	r2, [r7, #28]
 491 013a 7A6A     		ldr	r2, [r7, #36]
 492 013c 1A60     		str	r2, [r3]
 493              		.loc 2 200 0
 494 013e 7B68     		ldr	r3, [r7, #4]
 495 0140 0133     		adds	r3, r3, #1
 496 0142 7B60     		str	r3, [r7, #4]
 497 0144 7B68     		ldr	r3, [r7, #4]
 498 0146 1B78     		ldrb	r3, [r3]
 499 0148 87F82230 		strb	r3, [r7, #34]
 500              		.loc 2 203 0
 501 014c 64E7     		b	.L42
 502              	.L38:
 503              		.loc 2 202 0
 504 014e 00BF     		nop
 505              		.loc 2 207 0
ARM GAS  C:\Users\Luis\AppData\Local\Temp\cctuEKFp.s 			page 10


 506 0150 97F82230 		ldrb	r3, [r7, #34]	@ zero_extendqisi2
 507 0154 002B     		cmp	r3, #0
 508 0156 19D0     		beq	.L43
 509              		.loc 2 207 0 is_stmt 0 discriminator 1
 510 0158 97F82230 		ldrb	r3, [r7, #34]	@ zero_extendqisi2
 511 015c 202B     		cmp	r3, #32
 512 015e 15D0     		beq	.L43
 513 0160 97F82230 		ldrb	r3, [r7, #34]	@ zero_extendqisi2
 514 0164 0C2B     		cmp	r3, #12
 515 0166 11D0     		beq	.L43
 516 0168 97F82230 		ldrb	r3, [r7, #34]	@ zero_extendqisi2
 517 016c 0A2B     		cmp	r3, #10
 518 016e 0DD0     		beq	.L43
 519 0170 97F82230 		ldrb	r3, [r7, #34]	@ zero_extendqisi2
 520 0174 0D2B     		cmp	r3, #13
 521 0176 09D0     		beq	.L43
 522 0178 97F82230 		ldrb	r3, [r7, #34]	@ zero_extendqisi2
 523 017c 092B     		cmp	r3, #9
 524 017e 05D0     		beq	.L43
 525 0180 97F82230 		ldrb	r3, [r7, #34]	@ zero_extendqisi2
 526 0184 0B2B     		cmp	r3, #11
 527 0186 01D0     		beq	.L43
 528              		.loc 2 208 0 is_stmt 1
 529 0188 0023     		movs	r3, #0
 530 018a 52E0     		b	.L56
 531              	.L43:
 532              		.loc 2 214 0
 533 018c FA69     		ldr	r2, [r7, #28]
 534 018e 07F10C03 		add	r3, r7, #12
 535 0192 D31A     		subs	r3, r2, r3
 536 0194 9B10     		asrs	r3, r3, #2
 537 0196 0133     		adds	r3, r3, #1
 538 0198 042B     		cmp	r3, #4
 539 019a 3BD8     		bhi	.L44
 540 019c 01A2     		adr	r2, .L46
 541 019e 52F823F0 		ldr	pc, [r2, r3, lsl #2]
 542 01a2 00BF     		.p2align 2
 543              	.L46:
 544 01a4 B9010000 		.word	.L45+1
 545 01a8 1D020000 		.word	.L57+1
 546 01ac BD010000 		.word	.L48+1
 547 01b0 D5010000 		.word	.L49+1
 548 01b4 F3010000 		.word	.L50+1
 549              	.L45:
 550              		.loc 2 217 0
 551 01b8 0023     		movs	r3, #0
 552 01ba 3AE0     		b	.L56
 553              	.L48:
 554              		.loc 2 223 0
 555 01bc 7B6A     		ldr	r3, [r7, #36]
 556 01be B3F1807F 		cmp	r3, #16777216
 557 01c2 01D3     		bcc	.L52
 558              		.loc 2 224 0
 559 01c4 0023     		movs	r3, #0
 560 01c6 34E0     		b	.L56
 561              	.L52:
 562              		.loc 2 226 0
ARM GAS  C:\Users\Luis\AppData\Local\Temp\cctuEKFp.s 			page 11


 563 01c8 FB68     		ldr	r3, [r7, #12]
 564 01ca 1B06     		lsls	r3, r3, #24
 565 01cc 7A6A     		ldr	r2, [r7, #36]
 566 01ce 1343     		orrs	r3, r3, r2
 567 01d0 7B62     		str	r3, [r7, #36]
 568              		.loc 2 227 0
 569 01d2 24E0     		b	.L51
 570              	.L49:
 571              		.loc 2 230 0
 572 01d4 7B6A     		ldr	r3, [r7, #36]
 573 01d6 B3F5803F 		cmp	r3, #65536
 574 01da 01D3     		bcc	.L53
 575              		.loc 2 231 0
 576 01dc 0023     		movs	r3, #0
 577 01de 28E0     		b	.L56
 578              	.L53:
 579              		.loc 2 233 0
 580 01e0 FB68     		ldr	r3, [r7, #12]
 581 01e2 1A06     		lsls	r2, r3, #24
 582 01e4 3B69     		ldr	r3, [r7, #16]
 583 01e6 1B04     		lsls	r3, r3, #16
 584 01e8 1343     		orrs	r3, r3, r2
 585 01ea 7A6A     		ldr	r2, [r7, #36]
 586 01ec 1343     		orrs	r3, r3, r2
 587 01ee 7B62     		str	r3, [r7, #36]
 588              		.loc 2 234 0
 589 01f0 15E0     		b	.L51
 590              	.L50:
 591              		.loc 2 237 0
 592 01f2 7B6A     		ldr	r3, [r7, #36]
 593 01f4 FF2B     		cmp	r3, #255
 594 01f6 01D9     		bls	.L54
 595              		.loc 2 238 0
 596 01f8 0023     		movs	r3, #0
 597 01fa 1AE0     		b	.L56
 598              	.L54:
 599              		.loc 2 240 0
 600 01fc FB68     		ldr	r3, [r7, #12]
 601 01fe 1A06     		lsls	r2, r3, #24
 602 0200 3B69     		ldr	r3, [r7, #16]
 603 0202 1B04     		lsls	r3, r3, #16
 604 0204 1A43     		orrs	r2, r2, r3
 605 0206 7B69     		ldr	r3, [r7, #20]
 606 0208 1B02     		lsls	r3, r3, #8
 607 020a 1343     		orrs	r3, r3, r2
 608 020c 7A6A     		ldr	r2, [r7, #36]
 609 020e 1343     		orrs	r3, r3, r2
 610 0210 7B62     		str	r3, [r7, #36]
 611              		.loc 2 241 0
 612 0212 04E0     		b	.L51
 613              	.L44:
 614              		.loc 2 243 0
 615 0214 0948     		ldr	r0, .L58
 616 0216 FFF7FEFF 		bl	osalSysHalt
 617              		.loc 2 244 0
 618 021a 00E0     		b	.L51
 619              	.L57:
ARM GAS  C:\Users\Luis\AppData\Local\Temp\cctuEKFp.s 			page 12


 620              		.loc 2 220 0
 621 021c 00BF     		nop
 622              	.L51:
 623              		.loc 2 246 0
 624 021e 3B68     		ldr	r3, [r7]
 625 0220 002B     		cmp	r3, #0
 626 0222 05D0     		beq	.L55
 627              		.loc 2 247 0
 628 0224 786A     		ldr	r0, [r7, #36]
 629 0226 FFF7FEFF 		bl	lwip_htonl
 630 022a 0246     		mov	r2, r0
 631 022c 3B68     		ldr	r3, [r7]
 632 022e 1A60     		str	r2, [r3]
 633              	.L55:
 634              		.loc 2 249 0
 635 0230 0123     		movs	r3, #1
 636              	.L56:
 637              		.loc 2 250 0
 638 0232 1846     		mov	r0, r3
 639 0234 2837     		adds	r7, r7, #40
 640 0236 BD46     		mov	sp, r7
 641              		@ sp needed
 642 0238 80BD     		pop	{r7, pc}
 643              	.L59:
 644 023a 00BF     		.align	2
 645              	.L58:
 646 023c 00000000 		.word	.LC0
 647              		.cfi_endproc
 648              	.LFE263:
 649              		.size	ipaddr_aton, .-ipaddr_aton
 650              		.section	.text.ipaddr_ntoa,"ax",%progbits
 651              		.align	2
 652              		.p2align 4,,15
 653              		.global	ipaddr_ntoa
 654              		.thumb
 655              		.thumb_func
 656              		.type	ipaddr_ntoa, %function
 657              	ipaddr_ntoa:
 658              	.LFB264:
 659              		.loc 2 262 0
 660              		.cfi_startproc
 661              		@ args = 0, pretend = 0, frame = 8
 662              		@ frame_needed = 1, uses_anonymous_args = 0
 663 0000 80B5     		push	{r7, lr}
 664              		.cfi_def_cfa_offset 8
 665              		.cfi_offset 7, -8
 666              		.cfi_offset 14, -4
 667 0002 82B0     		sub	sp, sp, #8
 668              		.cfi_def_cfa_offset 16
 669 0004 00AF     		add	r7, sp, #0
 670              		.cfi_def_cfa_register 7
 671 0006 7860     		str	r0, [r7, #4]
 672              		.loc 2 264 0
 673 0008 7868     		ldr	r0, [r7, #4]
 674 000a 0449     		ldr	r1, .L62
 675 000c 1022     		movs	r2, #16
 676 000e FFF7FEFF 		bl	ipaddr_ntoa_r
ARM GAS  C:\Users\Luis\AppData\Local\Temp\cctuEKFp.s 			page 13


 677 0012 0346     		mov	r3, r0
 678              		.loc 2 265 0
 679 0014 1846     		mov	r0, r3
 680 0016 0837     		adds	r7, r7, #8
 681 0018 BD46     		mov	sp, r7
 682              		@ sp needed
 683 001a 80BD     		pop	{r7, pc}
 684              	.L63:
 685              		.align	2
 686              	.L62:
 687 001c 00000000 		.word	str.8151
 688              		.cfi_endproc
 689              	.LFE264:
 690              		.size	ipaddr_ntoa, .-ipaddr_ntoa
 691              		.section	.text.ipaddr_ntoa_r,"ax",%progbits
 692              		.align	2
 693              		.p2align 4,,15
 694              		.global	ipaddr_ntoa_r
 695              		.thumb
 696              		.thumb_func
 697              		.type	ipaddr_ntoa_r, %function
 698              	ipaddr_ntoa_r:
 699              	.LFB265:
 700              		.loc 2 277 0
 701              		.cfi_startproc
 702              		@ args = 0, pretend = 0, frame = 48
 703              		@ frame_needed = 1, uses_anonymous_args = 0
 704              		@ link register save eliminated.
 705 0000 80B4     		push	{r7}
 706              		.cfi_def_cfa_offset 4
 707              		.cfi_offset 7, -4
 708 0002 8DB0     		sub	sp, sp, #52
 709              		.cfi_def_cfa_offset 56
 710 0004 00AF     		add	r7, sp, #0
 711              		.cfi_def_cfa_register 7
 712 0006 F860     		str	r0, [r7, #12]
 713 0008 B960     		str	r1, [r7, #8]
 714 000a 7A60     		str	r2, [r7, #4]
 715              		.loc 2 285 0
 716 000c 0023     		movs	r3, #0
 717 000e 3B62     		str	r3, [r7, #32]
 718              		.loc 2 287 0
 719 0010 FB68     		ldr	r3, [r7, #12]
 720 0012 1B68     		ldr	r3, [r3]
 721 0014 BB61     		str	r3, [r7, #24]
 722              		.loc 2 289 0
 723 0016 BB68     		ldr	r3, [r7, #8]
 724 0018 FB62     		str	r3, [r7, #44]
 725              		.loc 2 290 0
 726 001a 07F11803 		add	r3, r7, #24
 727 001e BB62     		str	r3, [r7, #40]
 728              		.loc 2 291 0
 729 0020 0023     		movs	r3, #0
 730 0022 87F82730 		strb	r3, [r7, #39]
 731 0026 58E0     		b	.L65
 732              	.L72:
 733              		.loc 2 292 0
ARM GAS  C:\Users\Luis\AppData\Local\Temp\cctuEKFp.s 			page 14


 734 0028 0023     		movs	r3, #0
 735 002a 87F82630 		strb	r3, [r7, #38]
 736              	.L66:
 737              		.loc 2 294 0 discriminator 1
 738 002e BB6A     		ldr	r3, [r7, #40]
 739 0030 1A78     		ldrb	r2, [r3]	@ zero_extendqisi2
 740 0032 324B     		ldr	r3, .L74
 741 0034 A3FB0213 		umull	r1, r3, r3, r2
 742 0038 D908     		lsrs	r1, r3, #3
 743 003a 0B46     		mov	r3, r1
 744 003c 9B00     		lsls	r3, r3, #2
 745 003e 0B44     		add	r3, r3, r1
 746 0040 5B00     		lsls	r3, r3, #1
 747 0042 D31A     		subs	r3, r2, r3
 748 0044 FB77     		strb	r3, [r7, #31]
 749              		.loc 2 295 0 discriminator 1
 750 0046 BB6A     		ldr	r3, [r7, #40]
 751 0048 1A78     		ldrb	r2, [r3]	@ zero_extendqisi2
 752 004a 2C4B     		ldr	r3, .L74
 753 004c A3FB0213 		umull	r1, r3, r3, r2
 754 0050 DB08     		lsrs	r3, r3, #3
 755 0052 DAB2     		uxtb	r2, r3
 756 0054 BB6A     		ldr	r3, [r7, #40]
 757 0056 1A70     		strb	r2, [r3]
 758              		.loc 2 296 0 discriminator 1
 759 0058 97F82630 		ldrb	r3, [r7, #38]	@ zero_extendqisi2
 760 005c 5A1C     		adds	r2, r3, #1
 761 005e 87F82620 		strb	r2, [r7, #38]
 762 0062 FA7F     		ldrb	r2, [r7, #31]
 763 0064 3032     		adds	r2, r2, #48
 764 0066 D2B2     		uxtb	r2, r2
 765 0068 07F13001 		add	r1, r7, #48
 766 006c 0B44     		add	r3, r3, r1
 767 006e 03F81C2C 		strb	r2, [r3, #-28]
 768              		.loc 2 297 0 discriminator 1
 769 0072 BB6A     		ldr	r3, [r7, #40]
 770 0074 1B78     		ldrb	r3, [r3]	@ zero_extendqisi2
 771 0076 002B     		cmp	r3, #0
 772 0078 D9D1     		bne	.L66
 773              		.loc 2 298 0
 774 007a 12E0     		b	.L67
 775              	.L70:
 776              		.loc 2 299 0
 777 007c 3B6A     		ldr	r3, [r7, #32]
 778 007e 5A1C     		adds	r2, r3, #1
 779 0080 3A62     		str	r2, [r7, #32]
 780 0082 7A68     		ldr	r2, [r7, #4]
 781 0084 9342     		cmp	r3, r2
 782 0086 01DB     		blt	.L68
 783              		.loc 2 300 0
 784 0088 0023     		movs	r3, #0
 785 008a 31E0     		b	.L73
 786              	.L68:
 787              		.loc 2 302 0
 788 008c FB6A     		ldr	r3, [r7, #44]
 789 008e 5A1C     		adds	r2, r3, #1
 790 0090 FA62     		str	r2, [r7, #44]
ARM GAS  C:\Users\Luis\AppData\Local\Temp\cctuEKFp.s 			page 15


 791 0092 97F82620 		ldrb	r2, [r7, #38]	@ zero_extendqisi2
 792 0096 07F13001 		add	r1, r7, #48
 793 009a 0A44     		add	r2, r2, r1
 794 009c 12F81C2C 		ldrb	r2, [r2, #-28]	@ zero_extendqisi2
 795 00a0 1A70     		strb	r2, [r3]
 796              	.L67:
 797              		.loc 2 298 0 discriminator 1
 798 00a2 97F82630 		ldrb	r3, [r7, #38]	@ zero_extendqisi2
 799 00a6 5A1E     		subs	r2, r3, #1
 800 00a8 87F82620 		strb	r2, [r7, #38]
 801 00ac 002B     		cmp	r3, #0
 802 00ae E5D1     		bne	.L70
 803              		.loc 2 304 0
 804 00b0 3B6A     		ldr	r3, [r7, #32]
 805 00b2 5A1C     		adds	r2, r3, #1
 806 00b4 3A62     		str	r2, [r7, #32]
 807 00b6 7A68     		ldr	r2, [r7, #4]
 808 00b8 9342     		cmp	r3, r2
 809 00ba 01DB     		blt	.L71
 810              		.loc 2 305 0
 811 00bc 0023     		movs	r3, #0
 812 00be 17E0     		b	.L73
 813              	.L71:
 814              		.loc 2 307 0
 815 00c0 FB6A     		ldr	r3, [r7, #44]
 816 00c2 5A1C     		adds	r2, r3, #1
 817 00c4 FA62     		str	r2, [r7, #44]
 818 00c6 2E22     		movs	r2, #46
 819 00c8 1A70     		strb	r2, [r3]
 820              		.loc 2 308 0
 821 00ca BB6A     		ldr	r3, [r7, #40]
 822 00cc 0133     		adds	r3, r3, #1
 823 00ce BB62     		str	r3, [r7, #40]
 824              		.loc 2 291 0
 825 00d0 97F82730 		ldrb	r3, [r7, #39]	@ zero_extendqisi2
 826 00d4 0133     		adds	r3, r3, #1
 827 00d6 87F82730 		strb	r3, [r7, #39]
 828              	.L65:
 829              		.loc 2 291 0 is_stmt 0 discriminator 1
 830 00da 97F82730 		ldrb	r3, [r7, #39]	@ zero_extendqisi2
 831 00de 032B     		cmp	r3, #3
 832 00e0 A2D9     		bls	.L72
 833              		.loc 2 310 0 is_stmt 1
 834 00e2 FB6A     		ldr	r3, [r7, #44]
 835 00e4 013B     		subs	r3, r3, #1
 836 00e6 FB62     		str	r3, [r7, #44]
 837 00e8 FB6A     		ldr	r3, [r7, #44]
 838 00ea 0022     		movs	r2, #0
 839 00ec 1A70     		strb	r2, [r3]
 840              		.loc 2 311 0
 841 00ee BB68     		ldr	r3, [r7, #8]
 842              	.L73:
 843              		.loc 2 312 0
 844 00f0 1846     		mov	r0, r3
 845 00f2 3437     		adds	r7, r7, #52
 846 00f4 BD46     		mov	sp, r7
 847              		@ sp needed
ARM GAS  C:\Users\Luis\AppData\Local\Temp\cctuEKFp.s 			page 16


 848 00f6 5DF8047B 		ldr	r7, [sp], #4
 849 00fa 7047     		bx	lr
 850              	.L75:
 851              		.align	2
 852              	.L74:
 853 00fc CDCCCCCC 		.word	-858993459
 854              		.cfi_endproc
 855              	.LFE265:
 856              		.size	ipaddr_ntoa_r, .-ipaddr_ntoa_r
 857              		.section	.bss.str.8151,"aw",%nobits
 858              		.align	2
 859              		.type	str.8151, %object
 860              		.size	str.8151, 16
 861              	str.8151:
 862 0000 00000000 		.space	16
 862      00000000 
 862      00000000 
 862      00000000 
 863              		.text
 864              	.Letext0:
 865              		.file 3 "c:\\emtechesdk\\gcc\\lib\\gcc\\arm-none-eabi\\4.8.3\\include\\stddef.h"
 866              		.file 4 "c:\\emtechesdk\\gcc\\arm-none-eabi\\include\\stdint.h"
 867              		.file 5 "../../ChibiOS/os/rt/ports/ARMCMx/compilers/GCC/chtypes.h"
 868              		.file 6 "../../ChibiOS/os/rt/include/chsystypes.h"
 869              		.file 7 "../../ChibiOS/os/rt/include/chschd.h"
 870              		.file 8 "../../ChibiOS/os/rt/ports/ARMCMx/chcore.h"
 871              		.file 9 "../../ChibiOS/os/rt/ports/ARMCMx/chcore_v7m.h"
 872              		.file 10 "../../ChibiOS/os/rt/include/chdebug.h"
 873              		.file 11 "../../ChibiOS/os/rt/include/chtm.h"
 874              		.file 12 "../../ChibiOS/os/rt/include/chstats.h"
 875              		.file 13 "../../ChibiOS/os/rt/include/chsem.h"
 876              		.file 14 "../../ChibiOS/os/rt/include/chmtx.h"
 877              		.file 15 "../../ChibiOS/os/various/lwip_bindings/arch/cc.h"
 878              		.file 16 "../../ChibiOS/ext/lwip/src/include/ipv4/lwip/ip_addr.h"
 879              		.file 17 "../../ChibiOS/ext/lwip/src/include/lwip/err.h"
 880              		.file 18 "../../ChibiOS/ext/lwip/src/include/lwip/pbuf.h"
 881              		.file 19 "../../ChibiOS/ext/lwip/src/include/lwip/netif.h"
 882              		.file 20 "../../ChibiOS/os/ext/CMSIS/include/core_cm4.h"
 883              		.section	.debug_info,"",%progbits
 884              	.Ldebug_info0:
 885 0000 AC0C0000 		.4byte	0xcac
 886 0004 0400     		.2byte	0x4
 887 0006 00000000 		.4byte	.Ldebug_abbrev0
 888 000a 04       		.byte	0x4
 889 000b 01       		.uleb128 0x1
 890 000c 8C050000 		.4byte	.LASF172
 891 0010 01       		.byte	0x1
 892 0011 38070000 		.4byte	.LASF173
 893 0015 D7010000 		.4byte	.LASF174
 894 0019 00000000 		.4byte	.Ldebug_ranges0+0
 895 001d 00000000 		.4byte	0
 896 0021 00000000 		.4byte	.Ldebug_line0
 897 0025 02       		.uleb128 0x2
 898 0026 04       		.byte	0x4
 899 0027 05       		.byte	0x5
 900 0028 696E7400 		.ascii	"int\000"
 901 002c 03       		.uleb128 0x3
ARM GAS  C:\Users\Luis\AppData\Local\Temp\cctuEKFp.s 			page 17


 902 002d 14000000 		.4byte	.LASF1
 903 0031 03       		.byte	0x3
 904 0032 D4       		.byte	0xd4
 905 0033 37000000 		.4byte	0x37
 906 0037 04       		.uleb128 0x4
 907 0038 04       		.byte	0x4
 908 0039 07       		.byte	0x7
 909 003a 5B020000 		.4byte	.LASF0
 910 003e 03       		.uleb128 0x3
 911 003f B8060000 		.4byte	.LASF2
 912 0043 04       		.byte	0x4
 913 0044 29       		.byte	0x29
 914 0045 49000000 		.4byte	0x49
 915 0049 04       		.uleb128 0x4
 916 004a 01       		.byte	0x1
 917 004b 06       		.byte	0x6
 918 004c 19010000 		.4byte	.LASF3
 919 0050 03       		.uleb128 0x3
 920 0051 17070000 		.4byte	.LASF4
 921 0055 04       		.byte	0x4
 922 0056 2A       		.byte	0x2a
 923 0057 5B000000 		.4byte	0x5b
 924 005b 04       		.uleb128 0x4
 925 005c 01       		.byte	0x1
 926 005d 08       		.byte	0x8
 927 005e 99040000 		.4byte	.LASF5
 928 0062 04       		.uleb128 0x4
 929 0063 02       		.byte	0x2
 930 0064 05       		.byte	0x5
 931 0065 B1040000 		.4byte	.LASF6
 932 0069 03       		.uleb128 0x3
 933 006a 8D010000 		.4byte	.LASF7
 934 006e 04       		.byte	0x4
 935 006f 36       		.byte	0x36
 936 0070 74000000 		.4byte	0x74
 937 0074 04       		.uleb128 0x4
 938 0075 02       		.byte	0x2
 939 0076 07       		.byte	0x7
 940 0077 A7020000 		.4byte	.LASF8
 941 007b 03       		.uleb128 0x3
 942 007c 91040000 		.4byte	.LASF9
 943 0080 04       		.byte	0x4
 944 0081 4F       		.byte	0x4f
 945 0082 86000000 		.4byte	0x86
 946 0086 04       		.uleb128 0x4
 947 0087 04       		.byte	0x4
 948 0088 05       		.byte	0x5
 949 0089 75010000 		.4byte	.LASF10
 950 008d 03       		.uleb128 0x3
 951 008e 44050000 		.4byte	.LASF11
 952 0092 04       		.byte	0x4
 953 0093 50       		.byte	0x50
 954 0094 98000000 		.4byte	0x98
 955 0098 04       		.uleb128 0x4
 956 0099 04       		.byte	0x4
 957 009a 07       		.byte	0x7
 958 009b 75050000 		.4byte	.LASF12
ARM GAS  C:\Users\Luis\AppData\Local\Temp\cctuEKFp.s 			page 18


 959 009f 04       		.uleb128 0x4
 960 00a0 08       		.byte	0x8
 961 00a1 05       		.byte	0x5
 962 00a2 0B010000 		.4byte	.LASF13
 963 00a6 03       		.uleb128 0x3
 964 00a7 1B000000 		.4byte	.LASF14
 965 00ab 04       		.byte	0x4
 966 00ac 78       		.byte	0x78
 967 00ad B1000000 		.4byte	0xb1
 968 00b1 04       		.uleb128 0x4
 969 00b2 08       		.byte	0x8
 970 00b3 07       		.byte	0x7
 971 00b4 80000000 		.4byte	.LASF15
 972 00b8 05       		.uleb128 0x5
 973 00b9 7B000000 		.4byte	0x7b
 974 00bd 03       		.uleb128 0x3
 975 00be B0060000 		.4byte	.LASF16
 976 00c2 05       		.byte	0x5
 977 00c3 45       		.byte	0x45
 978 00c4 8D000000 		.4byte	0x8d
 979 00c8 03       		.uleb128 0x3
 980 00c9 FB000000 		.4byte	.LASF17
 981 00cd 05       		.byte	0x5
 982 00ce 46       		.byte	0x46
 983 00cf A6000000 		.4byte	0xa6
 984 00d3 03       		.uleb128 0x3
 985 00d4 FE020000 		.4byte	.LASF18
 986 00d8 05       		.byte	0x5
 987 00d9 48       		.byte	0x48
 988 00da 50000000 		.4byte	0x50
 989 00de 03       		.uleb128 0x3
 990 00df 7E010000 		.4byte	.LASF19
 991 00e3 05       		.byte	0x5
 992 00e4 49       		.byte	0x49
 993 00e5 50000000 		.4byte	0x50
 994 00e9 03       		.uleb128 0x3
 995 00ea 4C040000 		.4byte	.LASF20
 996 00ee 05       		.byte	0x5
 997 00ef 4A       		.byte	0x4a
 998 00f0 50000000 		.4byte	0x50
 999 00f4 03       		.uleb128 0x3
 1000 00f5 75040000 		.4byte	.LASF21
 1001 00f9 05       		.byte	0x5
 1002 00fa 4C       		.byte	0x4c
 1003 00fb 8D000000 		.4byte	0x8d
 1004 00ff 03       		.uleb128 0x3
 1005 0100 E0020000 		.4byte	.LASF22
 1006 0104 05       		.byte	0x5
 1007 0105 4D       		.byte	0x4d
 1008 0106 7B000000 		.4byte	0x7b
 1009 010a 03       		.uleb128 0x3
 1010 010b 1F030000 		.4byte	.LASF23
 1011 010f 05       		.byte	0x5
 1012 0110 4F       		.byte	0x4f
 1013 0111 8D000000 		.4byte	0x8d
 1014 0115 03       		.uleb128 0x3
 1015 0116 4A020000 		.4byte	.LASF24
ARM GAS  C:\Users\Luis\AppData\Local\Temp\cctuEKFp.s 			page 19


 1016 011a 05       		.byte	0x5
 1017 011b 51       		.byte	0x51
 1018 011c 7B000000 		.4byte	0x7b
 1019 0120 03       		.uleb128 0x3
 1020 0121 EB020000 		.4byte	.LASF25
 1021 0125 05       		.byte	0x5
 1022 0126 52       		.byte	0x52
 1023 0127 8D000000 		.4byte	0x8d
 1024 012b 03       		.uleb128 0x3
 1025 012c 6A060000 		.4byte	.LASF26
 1026 0130 06       		.byte	0x6
 1027 0131 33       		.byte	0x33
 1028 0132 8D000000 		.4byte	0x8d
 1029 0136 03       		.uleb128 0x3
 1030 0137 01070000 		.4byte	.LASF27
 1031 013b 06       		.byte	0x6
 1032 013c 3F       		.byte	0x3f
 1033 013d 41010000 		.4byte	0x141
 1034 0141 06       		.uleb128 0x6
 1035 0142 C9020000 		.4byte	.LASF50
 1036 0146 68       		.byte	0x68
 1037 0147 07       		.byte	0x7
 1038 0148 C2       		.byte	0xc2
 1039 0149 54020000 		.4byte	0x254
 1040 014d 07       		.uleb128 0x7
 1041 014e E9040000 		.4byte	.LASF28
 1042 0152 07       		.byte	0x7
 1043 0153 C3       		.byte	0xc3
 1044 0154 5F020000 		.4byte	0x25f
 1045 0158 00       		.byte	0
 1046 0159 07       		.uleb128 0x7
 1047 015a 6E040000 		.4byte	.LASF29
 1048 015e 07       		.byte	0x7
 1049 015f C5       		.byte	0xc5
 1050 0160 5F020000 		.4byte	0x25f
 1051 0164 04       		.byte	0x4
 1052 0165 07       		.uleb128 0x7
 1053 0166 04010000 		.4byte	.LASF30
 1054 016a 07       		.byte	0x7
 1055 016b C7       		.byte	0xc7
 1056 016c F4000000 		.4byte	0xf4
 1057 0170 08       		.byte	0x8
 1058 0171 07       		.uleb128 0x7
 1059 0172 CB070000 		.4byte	.LASF31
 1060 0176 07       		.byte	0x7
 1061 0177 C8       		.byte	0xc8
 1062 0178 C8040000 		.4byte	0x4c8
 1063 017c 0C       		.byte	0xc
 1064 017d 07       		.uleb128 0x7
 1065 017e A1010000 		.4byte	.LASF32
 1066 0182 07       		.byte	0x7
 1067 0183 CA       		.byte	0xca
 1068 0184 5F020000 		.4byte	0x25f
 1069 0188 10       		.byte	0x10
 1070 0189 07       		.uleb128 0x7
 1071 018a D3040000 		.4byte	.LASF33
 1072 018e 07       		.byte	0x7
ARM GAS  C:\Users\Luis\AppData\Local\Temp\cctuEKFp.s 			page 20


 1073 018f CB       		.byte	0xcb
 1074 0190 5F020000 		.4byte	0x25f
 1075 0194 14       		.byte	0x14
 1076 0195 07       		.uleb128 0x7
 1077 0196 6E070000 		.4byte	.LASF34
 1078 019a 07       		.byte	0x7
 1079 019b D2       		.byte	0xd2
 1080 019c 6C070000 		.4byte	0x76c
 1081 01a0 18       		.byte	0x18
 1082 01a1 07       		.uleb128 0x7
 1083 01a2 50020000 		.4byte	.LASF35
 1084 01a6 07       		.byte	0x7
 1085 01a7 D8       		.byte	0xd8
 1086 01a8 7E070000 		.4byte	0x77e
 1087 01ac 1C       		.byte	0x1c
 1088 01ad 07       		.uleb128 0x7
 1089 01ae BB040000 		.4byte	.LASF36
 1090 01b2 07       		.byte	0x7
 1091 01b3 DD       		.byte	0xdd
 1092 01b4 DE000000 		.4byte	0xde
 1093 01b8 20       		.byte	0x20
 1094 01b9 07       		.uleb128 0x7
 1095 01ba F0040000 		.4byte	.LASF37
 1096 01be 07       		.byte	0x7
 1097 01bf E1       		.byte	0xe1
 1098 01c0 D3000000 		.4byte	0xd3
 1099 01c4 21       		.byte	0x21
 1100 01c5 07       		.uleb128 0x7
 1101 01c6 F2060000 		.4byte	.LASF38
 1102 01ca 07       		.byte	0x7
 1103 01cb E6       		.byte	0xe6
 1104 01cc E9000000 		.4byte	0xe9
 1105 01d0 22       		.byte	0x22
 1106 01d1 08       		.uleb128 0x8
 1107 01d2 705F7500 		.ascii	"p_u\000"
 1108 01d6 07       		.byte	0x7
 1109 01d7 3101     		.2byte	0x131
 1110 01d9 A7060000 		.4byte	0x6a7
 1111 01dd 24       		.byte	0x24
 1112 01de 09       		.uleb128 0x9
 1113 01df 72030000 		.4byte	.LASF39
 1114 01e3 07       		.byte	0x7
 1115 01e4 3601     		.2byte	0x136
 1116 01e6 65020000 		.4byte	0x265
 1117 01ea 28       		.byte	0x28
 1118 01eb 09       		.uleb128 0x9
 1119 01ec 7E020000 		.4byte	.LASF40
 1120 01f0 07       		.byte	0x7
 1121 01f1 3C01     		.2byte	0x13c
 1122 01f3 89020000 		.4byte	0x289
 1123 01f7 2C       		.byte	0x2c
 1124 01f8 09       		.uleb128 0x9
 1125 01f9 91070000 		.4byte	.LASF41
 1126 01fd 07       		.byte	0x7
 1127 01fe 4001     		.2byte	0x140
 1128 0200 FF000000 		.4byte	0xff
 1129 0204 34       		.byte	0x34
ARM GAS  C:\Users\Luis\AppData\Local\Temp\cctuEKFp.s 			page 21


 1130 0205 09       		.uleb128 0x9
 1131 0206 39050000 		.4byte	.LASF42
 1132 020a 07       		.byte	0x7
 1133 020b 4601     		.2byte	0x146
 1134 020d 0A010000 		.4byte	0x10a
 1135 0211 38       		.byte	0x38
 1136 0212 09       		.uleb128 0x9
 1137 0213 A7040000 		.4byte	.LASF43
 1138 0217 07       		.byte	0x7
 1139 0218 4D01     		.2byte	0x14d
 1140 021a 66070000 		.4byte	0x766
 1141 021e 3C       		.byte	0x3c
 1142 021f 09       		.uleb128 0x9
 1143 0220 74060000 		.4byte	.LASF44
 1144 0224 07       		.byte	0x7
 1145 0225 5101     		.2byte	0x151
 1146 0227 F4000000 		.4byte	0xf4
 1147 022b 40       		.byte	0x40
 1148 022c 09       		.uleb128 0x9
 1149 022d 2A010000 		.4byte	.LASF45
 1150 0231 07       		.byte	0x7
 1151 0232 5801     		.2byte	0x158
 1152 0234 3C030000 		.4byte	0x33c
 1153 0238 44       		.byte	0x44
 1154 0239 09       		.uleb128 0x9
 1155 023a F8040000 		.4byte	.LASF46
 1156 023e 07       		.byte	0x7
 1157 023f 5E01     		.2byte	0x15e
 1158 0241 58060000 		.4byte	0x658
 1159 0245 48       		.byte	0x48
 1160 0246 09       		.uleb128 0x9
 1161 0247 8F020000 		.4byte	.LASF47
 1162 024b 07       		.byte	0x7
 1163 024c 6201     		.2byte	0x162
 1164 024e 3C030000 		.4byte	0x33c
 1165 0252 60       		.byte	0x60
 1166 0253 00       		.byte	0
 1167 0254 03       		.uleb128 0x3
 1168 0255 25070000 		.4byte	.LASF48
 1169 0259 06       		.byte	0x6
 1170 025a 44       		.byte	0x44
 1171 025b 5F020000 		.4byte	0x25f
 1172 025f 0A       		.uleb128 0xa
 1173 0260 04       		.byte	0x4
 1174 0261 36010000 		.4byte	0x136
 1175 0265 03       		.uleb128 0x3
 1176 0266 75070000 		.4byte	.LASF49
 1177 026a 06       		.byte	0x6
 1178 026b 49       		.byte	0x49
 1179 026c 70020000 		.4byte	0x270
 1180 0270 06       		.uleb128 0x6
 1181 0271 65050000 		.4byte	.LASF51
 1182 0275 04       		.byte	0x4
 1183 0276 07       		.byte	0x7
 1184 0277 B0       		.byte	0xb0
 1185 0278 89020000 		.4byte	0x289
 1186 027c 07       		.uleb128 0x7
ARM GAS  C:\Users\Luis\AppData\Local\Temp\cctuEKFp.s 			page 22


 1187 027d E9040000 		.4byte	.LASF28
 1188 0281 07       		.byte	0x7
 1189 0282 B1       		.byte	0xb1
 1190 0283 5F020000 		.4byte	0x25f
 1191 0287 00       		.byte	0
 1192 0288 00       		.byte	0
 1193 0289 03       		.uleb128 0x3
 1194 028a D9060000 		.4byte	.LASF52
 1195 028e 06       		.byte	0x6
 1196 028f 50       		.byte	0x50
 1197 0290 94020000 		.4byte	0x294
 1198 0294 06       		.uleb128 0x6
 1199 0295 42000000 		.4byte	.LASF53
 1200 0299 08       		.byte	0x8
 1201 029a 07       		.byte	0x7
 1202 029b B7       		.byte	0xb7
 1203 029c B9020000 		.4byte	0x2b9
 1204 02a0 07       		.uleb128 0x7
 1205 02a1 E9040000 		.4byte	.LASF28
 1206 02a5 07       		.byte	0x7
 1207 02a6 B8       		.byte	0xb8
 1208 02a7 5F020000 		.4byte	0x25f
 1209 02ab 00       		.byte	0
 1210 02ac 07       		.uleb128 0x7
 1211 02ad 6E040000 		.4byte	.LASF29
 1212 02b1 07       		.byte	0x7
 1213 02b2 B9       		.byte	0xb9
 1214 02b3 5F020000 		.4byte	0x25f
 1215 02b7 04       		.byte	0x4
 1216 02b8 00       		.byte	0
 1217 02b9 03       		.uleb128 0x3
 1218 02ba CC060000 		.4byte	.LASF54
 1219 02be 06       		.byte	0x6
 1220 02bf 57       		.byte	0x57
 1221 02c0 C4020000 		.4byte	0x2c4
 1222 02c4 0B       		.uleb128 0xb
 1223 02c5 11030000 		.4byte	.LASF55
 1224 02c9 1C       		.byte	0x1c
 1225 02ca 07       		.byte	0x7
 1226 02cb 9001     		.2byte	0x190
 1227 02cd 20030000 		.4byte	0x320
 1228 02d1 09       		.uleb128 0x9
 1229 02d2 54050000 		.4byte	.LASF56
 1230 02d6 07       		.byte	0x7
 1231 02d7 9101     		.2byte	0x191
 1232 02d9 89020000 		.4byte	0x289
 1233 02dd 00       		.byte	0
 1234 02de 09       		.uleb128 0x9
 1235 02df DB040000 		.4byte	.LASF57
 1236 02e3 07       		.byte	0x7
 1237 02e4 9201     		.2byte	0x192
 1238 02e6 F4000000 		.4byte	0xf4
 1239 02ea 08       		.byte	0x8
 1240 02eb 09       		.uleb128 0x9
 1241 02ec F9030000 		.4byte	.LASF58
 1242 02f0 07       		.byte	0x7
 1243 02f1 9401     		.2byte	0x194
ARM GAS  C:\Users\Luis\AppData\Local\Temp\cctuEKFp.s 			page 23


 1244 02f3 C8040000 		.4byte	0x4c8
 1245 02f7 0C       		.byte	0xc
 1246 02f8 09       		.uleb128 0x9
 1247 02f9 B9010000 		.4byte	.LASF59
 1248 02fd 07       		.byte	0x7
 1249 02fe 9701     		.2byte	0x197
 1250 0300 5F020000 		.4byte	0x25f
 1251 0304 10       		.byte	0x10
 1252 0305 09       		.uleb128 0x9
 1253 0306 2C040000 		.4byte	.LASF60
 1254 030a 07       		.byte	0x7
 1255 030b 9801     		.2byte	0x198
 1256 030d 5F020000 		.4byte	0x25f
 1257 0311 14       		.byte	0x14
 1258 0312 09       		.uleb128 0x9
 1259 0313 22040000 		.4byte	.LASF61
 1260 0317 07       		.byte	0x7
 1261 0318 9B01     		.2byte	0x19b
 1262 031a 5F020000 		.4byte	0x25f
 1263 031e 18       		.byte	0x18
 1264 031f 00       		.byte	0
 1265 0320 03       		.uleb128 0x3
 1266 0321 7F060000 		.4byte	.LASF62
 1267 0325 06       		.byte	0x6
 1268 0326 5C       		.byte	0x5c
 1269 0327 2B030000 		.4byte	0x32b
 1270 032b 0A       		.uleb128 0xa
 1271 032c 04       		.byte	0x4
 1272 032d 31030000 		.4byte	0x331
 1273 0331 0C       		.uleb128 0xc
 1274 0332 3C030000 		.4byte	0x33c
 1275 0336 0D       		.uleb128 0xd
 1276 0337 3C030000 		.4byte	0x33c
 1277 033b 00       		.byte	0
 1278 033c 0E       		.uleb128 0xe
 1279 033d 04       		.byte	0x4
 1280 033e 03       		.uleb128 0x3
 1281 033f 5E040000 		.4byte	.LASF63
 1282 0343 06       		.byte	0x6
 1283 0344 61       		.byte	0x61
 1284 0345 49030000 		.4byte	0x349
 1285 0349 0B       		.uleb128 0xb
 1286 034a 1B050000 		.4byte	.LASF64
 1287 034e 14       		.byte	0x14
 1288 034f 07       		.byte	0x7
 1289 0350 6B01     		.2byte	0x16b
 1290 0352 98030000 		.4byte	0x398
 1291 0356 09       		.uleb128 0x9
 1292 0357 6F020000 		.4byte	.LASF65
 1293 035b 07       		.byte	0x7
 1294 035c 6C01     		.2byte	0x16c
 1295 035e 84070000 		.4byte	0x784
 1296 0362 00       		.byte	0
 1297 0363 09       		.uleb128 0x9
 1298 0364 CF010000 		.4byte	.LASF66
 1299 0368 07       		.byte	0x7
 1300 0369 6D01     		.2byte	0x16d
ARM GAS  C:\Users\Luis\AppData\Local\Temp\cctuEKFp.s 			page 24


 1301 036b 84070000 		.4byte	0x784
 1302 036f 04       		.byte	0x4
 1303 0370 09       		.uleb128 0x9
 1304 0371 5C050000 		.4byte	.LASF67
 1305 0375 07       		.byte	0x7
 1306 0376 6E01     		.2byte	0x16e
 1307 0378 2B010000 		.4byte	0x12b
 1308 037c 08       		.byte	0x8
 1309 037d 09       		.uleb128 0x9
 1310 037e D1070000 		.4byte	.LASF68
 1311 0382 07       		.byte	0x7
 1312 0383 6F01     		.2byte	0x16f
 1313 0385 20030000 		.4byte	0x320
 1314 0389 0C       		.byte	0xc
 1315 038a 09       		.uleb128 0x9
 1316 038b BF060000 		.4byte	.LASF69
 1317 038f 07       		.byte	0x7
 1318 0390 7101     		.2byte	0x171
 1319 0392 3C030000 		.4byte	0x33c
 1320 0396 10       		.byte	0x10
 1321 0397 00       		.byte	0
 1322 0398 03       		.uleb128 0x3
 1323 0399 D3000000 		.4byte	.LASF70
 1324 039d 06       		.byte	0x6
 1325 039e 66       		.byte	0x66
 1326 039f A3030000 		.4byte	0x3a3
 1327 03a3 0B       		.uleb128 0xb
 1328 03a4 AB030000 		.4byte	.LASF71
 1329 03a8 10       		.byte	0x10
 1330 03a9 07       		.byte	0x7
 1331 03aa 7B01     		.2byte	0x17b
 1332 03ac E5030000 		.4byte	0x3e5
 1333 03b0 09       		.uleb128 0x9
 1334 03b1 6F020000 		.4byte	.LASF65
 1335 03b5 07       		.byte	0x7
 1336 03b6 7C01     		.2byte	0x17c
 1337 03b8 84070000 		.4byte	0x784
 1338 03bc 00       		.byte	0
 1339 03bd 09       		.uleb128 0x9
 1340 03be CF010000 		.4byte	.LASF66
 1341 03c2 07       		.byte	0x7
 1342 03c3 7E01     		.2byte	0x17e
 1343 03c5 84070000 		.4byte	0x784
 1344 03c9 04       		.byte	0x4
 1345 03ca 09       		.uleb128 0x9
 1346 03cb 5C050000 		.4byte	.LASF67
 1347 03cf 07       		.byte	0x7
 1348 03d0 8001     		.2byte	0x180
 1349 03d2 2B010000 		.4byte	0x12b
 1350 03d6 08       		.byte	0x8
 1351 03d7 09       		.uleb128 0x9
 1352 03d8 E5030000 		.4byte	.LASF72
 1353 03dc 07       		.byte	0x7
 1354 03dd 8801     		.2byte	0x188
 1355 03df 2B010000 		.4byte	0x12b
 1356 03e3 0C       		.byte	0xc
 1357 03e4 00       		.byte	0
ARM GAS  C:\Users\Luis\AppData\Local\Temp\cctuEKFp.s 			page 25


 1358 03e5 03       		.uleb128 0x3
 1359 03e6 53000000 		.4byte	.LASF73
 1360 03ea 06       		.byte	0x6
 1361 03eb 6B       		.byte	0x6b
 1362 03ec F0030000 		.4byte	0x3f0
 1363 03f0 0F       		.uleb128 0xf
 1364 03f1 1A020000 		.4byte	.LASF74
 1365 03f5 1404     		.2byte	0x414
 1366 03f7 07       		.byte	0x7
 1367 03f8 A201     		.2byte	0x1a2
 1368 03fa 33040000 		.4byte	0x433
 1369 03fe 09       		.uleb128 0x9
 1370 03ff 88060000 		.4byte	.LASF75
 1371 0403 07       		.byte	0x7
 1372 0404 AA01     		.2byte	0x1aa
 1373 0406 8A070000 		.4byte	0x78a
 1374 040a 00       		.byte	0
 1375 040b 09       		.uleb128 0x9
 1376 040c F9060000 		.4byte	.LASF76
 1377 0410 07       		.byte	0x7
 1378 0411 AF01     		.2byte	0x1af
 1379 0413 15010000 		.4byte	0x115
 1380 0417 04       		.byte	0x4
 1381 0418 09       		.uleb128 0x9
 1382 0419 32020000 		.4byte	.LASF77
 1383 041d 07       		.byte	0x7
 1384 041e B301     		.2byte	0x1b3
 1385 0420 15010000 		.4byte	0x115
 1386 0424 08       		.byte	0x8
 1387 0425 09       		.uleb128 0x9
 1388 0426 84070000 		.4byte	.LASF78
 1389 042a 07       		.byte	0x7
 1390 042b B901     		.2byte	0x1b9
 1391 042d EA050000 		.4byte	0x5ea
 1392 0431 0C       		.byte	0xc
 1393 0432 00       		.byte	0
 1394 0433 03       		.uleb128 0x3
 1395 0434 F2020000 		.4byte	.LASF79
 1396 0438 06       		.byte	0x6
 1397 0439 70       		.byte	0x70
 1398 043a 3E040000 		.4byte	0x43e
 1399 043e 0F       		.uleb128 0xf
 1400 043f 6B010000 		.4byte	.LASF80
 1401 0443 E805     		.2byte	0x5e8
 1402 0445 07       		.byte	0x7
 1403 0446 C201     		.2byte	0x1c2
 1404 0448 AB040000 		.4byte	0x4ab
 1405 044c 09       		.uleb128 0x9
 1406 044d 11070000 		.4byte	.LASF81
 1407 0451 07       		.byte	0x7
 1408 0452 C601     		.2byte	0x1c6
 1409 0454 B9020000 		.4byte	0x2b9
 1410 0458 00       		.byte	0
 1411 0459 09       		.uleb128 0x9
 1412 045a 56010000 		.4byte	.LASF82
 1413 045e 07       		.byte	0x7
 1414 045f CA01     		.2byte	0x1ca
ARM GAS  C:\Users\Luis\AppData\Local\Temp\cctuEKFp.s 			page 26


 1415 0461 98030000 		.4byte	0x398
 1416 0465 1C       		.byte	0x1c
 1417 0466 08       		.uleb128 0x8
 1418 0467 64626700 		.ascii	"dbg\000"
 1419 046b 07       		.byte	0x7
 1420 046c CE01     		.2byte	0x1ce
 1421 046e E5030000 		.4byte	0x3e5
 1422 0472 2C       		.byte	0x2c
 1423 0473 10       		.uleb128 0x10
 1424 0474 C3000000 		.4byte	.LASF83
 1425 0478 07       		.byte	0x7
 1426 0479 D201     		.2byte	0x1d2
 1427 047b 36010000 		.4byte	0x136
 1428 047f 4004     		.2byte	0x440
 1429 0481 11       		.uleb128 0x11
 1430 0482 746D00   		.ascii	"tm\000"
 1431 0485 07       		.byte	0x7
 1432 0486 D701     		.2byte	0x1d7
 1433 0488 0A060000 		.4byte	0x60a
 1434 048c A804     		.2byte	0x4a8
 1435 048e 10       		.uleb128 0x10
 1436 048f 3F040000 		.4byte	.LASF84
 1437 0493 07       		.byte	0x7
 1438 0494 DD01     		.2byte	0x1dd
 1439 0496 9C060000 		.4byte	0x69c
 1440 049a B004     		.2byte	0x4b0
 1441 049c 10       		.uleb128 0x10
 1442 049d 3B020000 		.4byte	.LASF85
 1443 04a1 07       		.byte	0x7
 1444 04a2 E301     		.2byte	0x1e3
 1445 04a4 8F070000 		.4byte	0x78f
 1446 04a8 E804     		.2byte	0x4e8
 1447 04aa 00       		.byte	0
 1448 04ab 04       		.uleb128 0x4
 1449 04ac 04       		.byte	0x4
 1450 04ad 07       		.byte	0x7
 1451 04ae 82030000 		.4byte	.LASF86
 1452 04b2 03       		.uleb128 0x3
 1453 04b3 C6010000 		.4byte	.LASF87
 1454 04b7 08       		.byte	0x8
 1455 04b8 65       		.byte	0x65
 1456 04b9 3C030000 		.4byte	0x33c
 1457 04bd 03       		.uleb128 0x3
 1458 04be 2B030000 		.4byte	.LASF88
 1459 04c2 08       		.byte	0x8
 1460 04c3 6D       		.byte	0x6d
 1461 04c4 A6000000 		.4byte	0xa6
 1462 04c8 06       		.uleb128 0x6
 1463 04c9 A8060000 		.4byte	.LASF89
 1464 04cd 04       		.byte	0x4
 1465 04ce 08       		.byte	0x8
 1466 04cf 89       		.byte	0x89
 1467 04d0 E1040000 		.4byte	0x4e1
 1468 04d4 12       		.uleb128 0x12
 1469 04d5 72313300 		.ascii	"r13\000"
 1470 04d9 08       		.byte	0x8
 1471 04da 8A       		.byte	0x8a
ARM GAS  C:\Users\Luis\AppData\Local\Temp\cctuEKFp.s 			page 27


 1472 04db 5C050000 		.4byte	0x55c
 1473 04df 00       		.byte	0
 1474 04e0 00       		.byte	0
 1475 04e1 06       		.uleb128 0x6
 1476 04e2 36000000 		.4byte	.LASF90
 1477 04e6 24       		.byte	0x24
 1478 04e7 09       		.byte	0x9
 1479 04e8 F4       		.byte	0xf4
 1480 04e9 5C050000 		.4byte	0x55c
 1481 04ed 08       		.uleb128 0x8
 1482 04ee 723400   		.ascii	"r4\000"
 1483 04f1 09       		.byte	0x9
 1484 04f2 0701     		.2byte	0x107
 1485 04f4 B2040000 		.4byte	0x4b2
 1486 04f8 00       		.byte	0
 1487 04f9 08       		.uleb128 0x8
 1488 04fa 723500   		.ascii	"r5\000"
 1489 04fd 09       		.byte	0x9
 1490 04fe 0801     		.2byte	0x108
 1491 0500 B2040000 		.4byte	0x4b2
 1492 0504 04       		.byte	0x4
 1493 0505 08       		.uleb128 0x8
 1494 0506 723600   		.ascii	"r6\000"
 1495 0509 09       		.byte	0x9
 1496 050a 0901     		.2byte	0x109
 1497 050c B2040000 		.4byte	0x4b2
 1498 0510 08       		.byte	0x8
 1499 0511 08       		.uleb128 0x8
 1500 0512 723700   		.ascii	"r7\000"
 1501 0515 09       		.byte	0x9
 1502 0516 0A01     		.2byte	0x10a
 1503 0518 B2040000 		.4byte	0x4b2
 1504 051c 0C       		.byte	0xc
 1505 051d 08       		.uleb128 0x8
 1506 051e 723800   		.ascii	"r8\000"
 1507 0521 09       		.byte	0x9
 1508 0522 0B01     		.2byte	0x10b
 1509 0524 B2040000 		.4byte	0x4b2
 1510 0528 10       		.byte	0x10
 1511 0529 08       		.uleb128 0x8
 1512 052a 723900   		.ascii	"r9\000"
 1513 052d 09       		.byte	0x9
 1514 052e 0C01     		.2byte	0x10c
 1515 0530 B2040000 		.4byte	0x4b2
 1516 0534 14       		.byte	0x14
 1517 0535 08       		.uleb128 0x8
 1518 0536 72313000 		.ascii	"r10\000"
 1519 053a 09       		.byte	0x9
 1520 053b 0D01     		.2byte	0x10d
 1521 053d B2040000 		.4byte	0x4b2
 1522 0541 18       		.byte	0x18
 1523 0542 08       		.uleb128 0x8
 1524 0543 72313100 		.ascii	"r11\000"
 1525 0547 09       		.byte	0x9
 1526 0548 0E01     		.2byte	0x10e
 1527 054a B2040000 		.4byte	0x4b2
 1528 054e 1C       		.byte	0x1c
ARM GAS  C:\Users\Luis\AppData\Local\Temp\cctuEKFp.s 			page 28


 1529 054f 08       		.uleb128 0x8
 1530 0550 6C7200   		.ascii	"lr\000"
 1531 0553 09       		.byte	0x9
 1532 0554 0F01     		.2byte	0x10f
 1533 0556 B2040000 		.4byte	0x4b2
 1534 055a 20       		.byte	0x20
 1535 055b 00       		.byte	0
 1536 055c 0A       		.uleb128 0xa
 1537 055d 04       		.byte	0x4
 1538 055e E1040000 		.4byte	0x4e1
 1539 0562 13       		.uleb128 0x13
 1540 0563 10       		.byte	0x10
 1541 0564 0A       		.byte	0xa
 1542 0565 51       		.byte	0x51
 1543 0566 9B050000 		.4byte	0x59b
 1544 056a 07       		.uleb128 0x7
 1545 056b 0C000000 		.4byte	.LASF91
 1546 056f 0A       		.byte	0xa
 1547 0570 55       		.byte	0x55
 1548 0571 2B010000 		.4byte	0x12b
 1549 0575 00       		.byte	0
 1550 0576 07       		.uleb128 0x7
 1551 0577 87010000 		.4byte	.LASF92
 1552 057b 0A       		.byte	0xa
 1553 057c 59       		.byte	0x59
 1554 057d 5F020000 		.4byte	0x25f
 1555 0581 04       		.byte	0x4
 1556 0582 07       		.uleb128 0x7
 1557 0583 C1070000 		.4byte	.LASF93
 1558 0587 0A       		.byte	0xa
 1559 0588 5D       		.byte	0x5d
 1560 0589 3C030000 		.4byte	0x33c
 1561 058d 08       		.byte	0x8
 1562 058e 07       		.uleb128 0x7
 1563 058f A9000000 		.4byte	.LASF94
 1564 0593 0A       		.byte	0xa
 1565 0594 61       		.byte	0x61
 1566 0595 50000000 		.4byte	0x50
 1567 0599 0C       		.byte	0xc
 1568 059a 00       		.byte	0
 1569 059b 03       		.uleb128 0x3
 1570 059c D6030000 		.4byte	.LASF95
 1571 05a0 0A       		.byte	0xa
 1572 05a1 62       		.byte	0x62
 1573 05a2 62050000 		.4byte	0x562
 1574 05a6 14       		.uleb128 0x14
 1575 05a7 0804     		.2byte	0x408
 1576 05a9 0A       		.byte	0xa
 1577 05aa 67       		.byte	0x67
 1578 05ab D4050000 		.4byte	0x5d4
 1579 05af 07       		.uleb128 0x7
 1580 05b0 B1010000 		.4byte	.LASF96
 1581 05b4 0A       		.byte	0xa
 1582 05b5 6B       		.byte	0x6b
 1583 05b6 37000000 		.4byte	0x37
 1584 05ba 00       		.byte	0
 1585 05bb 07       		.uleb128 0x7
ARM GAS  C:\Users\Luis\AppData\Local\Temp\cctuEKFp.s 			page 29


 1586 05bc 00000000 		.4byte	.LASF97
 1587 05c0 0A       		.byte	0xa
 1588 05c1 6F       		.byte	0x6f
 1589 05c2 D4050000 		.4byte	0x5d4
 1590 05c6 04       		.byte	0x4
 1591 05c7 07       		.uleb128 0x7
 1592 05c8 54040000 		.4byte	.LASF98
 1593 05cc 0A       		.byte	0xa
 1594 05cd 73       		.byte	0x73
 1595 05ce DA050000 		.4byte	0x5da
 1596 05d2 08       		.byte	0x8
 1597 05d3 00       		.byte	0
 1598 05d4 0A       		.uleb128 0xa
 1599 05d5 04       		.byte	0x4
 1600 05d6 9B050000 		.4byte	0x59b
 1601 05da 15       		.uleb128 0x15
 1602 05db 9B050000 		.4byte	0x59b
 1603 05df EA050000 		.4byte	0x5ea
 1604 05e3 16       		.uleb128 0x16
 1605 05e4 AB040000 		.4byte	0x4ab
 1606 05e8 3F       		.byte	0x3f
 1607 05e9 00       		.byte	0
 1608 05ea 03       		.uleb128 0x3
 1609 05eb 97000000 		.4byte	.LASF99
 1610 05ef 0A       		.byte	0xa
 1611 05f0 74       		.byte	0x74
 1612 05f1 A6050000 		.4byte	0x5a6
 1613 05f5 13       		.uleb128 0x13
 1614 05f6 04       		.byte	0x4
 1615 05f7 0B       		.byte	0xb
 1616 05f8 38       		.byte	0x38
 1617 05f9 0A060000 		.4byte	0x60a
 1618 05fd 07       		.uleb128 0x7
 1619 05fe 92060000 		.4byte	.LASF100
 1620 0602 0B       		.byte	0xb
 1621 0603 3C       		.byte	0x3c
 1622 0604 BD000000 		.4byte	0xbd
 1623 0608 00       		.byte	0
 1624 0609 00       		.byte	0
 1625 060a 03       		.uleb128 0x3
 1626 060b FF030000 		.4byte	.LASF101
 1627 060f 0B       		.byte	0xb
 1628 0610 3D       		.byte	0x3d
 1629 0611 F5050000 		.4byte	0x5f5
 1630 0615 13       		.uleb128 0x13
 1631 0616 18       		.byte	0x18
 1632 0617 0B       		.byte	0xb
 1633 0618 48       		.byte	0x48
 1634 0619 58060000 		.4byte	0x658
 1635 061d 07       		.uleb128 0x7
 1636 061e 5E060000 		.4byte	.LASF102
 1637 0622 0B       		.byte	0xb
 1638 0623 49       		.byte	0x49
 1639 0624 BD000000 		.4byte	0xbd
 1640 0628 00       		.byte	0
 1641 0629 07       		.uleb128 0x7
 1642 062a 67000000 		.4byte	.LASF103
ARM GAS  C:\Users\Luis\AppData\Local\Temp\cctuEKFp.s 			page 30


 1643 062e 0B       		.byte	0xb
 1644 062f 4A       		.byte	0x4a
 1645 0630 BD000000 		.4byte	0xbd
 1646 0634 04       		.byte	0x4
 1647 0635 07       		.uleb128 0x7
 1648 0636 E6020000 		.4byte	.LASF104
 1649 063a 0B       		.byte	0xb
 1650 063b 4B       		.byte	0x4b
 1651 063c BD000000 		.4byte	0xbd
 1652 0640 08       		.byte	0x8
 1653 0641 12       		.uleb128 0x12
 1654 0642 6E00     		.ascii	"n\000"
 1655 0644 0B       		.byte	0xb
 1656 0645 4C       		.byte	0x4c
 1657 0646 20010000 		.4byte	0x120
 1658 064a 0C       		.byte	0xc
 1659 064b 07       		.uleb128 0x7
 1660 064c 34040000 		.4byte	.LASF105
 1661 0650 0B       		.byte	0xb
 1662 0651 4D       		.byte	0x4d
 1663 0652 C8000000 		.4byte	0xc8
 1664 0656 10       		.byte	0x10
 1665 0657 00       		.byte	0
 1666 0658 03       		.uleb128 0x3
 1667 0659 6D000000 		.4byte	.LASF106
 1668 065d 0B       		.byte	0xb
 1669 065e 4E       		.byte	0x4e
 1670 065f 15060000 		.4byte	0x615
 1671 0663 13       		.uleb128 0x13
 1672 0664 38       		.byte	0x38
 1673 0665 0C       		.byte	0xc
 1674 0666 38       		.byte	0x38
 1675 0667 9C060000 		.4byte	0x69c
 1676 066b 07       		.uleb128 0x7
 1677 066c 96020000 		.4byte	.LASF107
 1678 0670 0C       		.byte	0xc
 1679 0671 39       		.byte	0x39
 1680 0672 20010000 		.4byte	0x120
 1681 0676 00       		.byte	0
 1682 0677 07       		.uleb128 0x7
 1683 0678 82040000 		.4byte	.LASF108
 1684 067c 0C       		.byte	0xc
 1685 067d 3A       		.byte	0x3a
 1686 067e 20010000 		.4byte	0x120
 1687 0682 04       		.byte	0x4
 1688 0683 07       		.uleb128 0x7
 1689 0684 AE070000 		.4byte	.LASF109
 1690 0688 0C       		.byte	0xc
 1691 0689 3B       		.byte	0x3b
 1692 068a 58060000 		.4byte	0x658
 1693 068e 08       		.byte	0x8
 1694 068f 07       		.uleb128 0x7
 1695 0690 06030000 		.4byte	.LASF110
 1696 0694 0C       		.byte	0xc
 1697 0695 3D       		.byte	0x3d
 1698 0696 58060000 		.4byte	0x658
 1699 069a 20       		.byte	0x20
ARM GAS  C:\Users\Luis\AppData\Local\Temp\cctuEKFp.s 			page 31


 1700 069b 00       		.byte	0
 1701 069c 03       		.uleb128 0x3
 1702 069d BA020000 		.4byte	.LASF111
 1703 06a1 0C       		.byte	0xc
 1704 06a2 3F       		.byte	0x3f
 1705 06a3 63060000 		.4byte	0x663
 1706 06a7 17       		.uleb128 0x17
 1707 06a8 04       		.byte	0x4
 1708 06a9 07       		.byte	0x7
 1709 06aa FA       		.byte	0xfa
 1710 06ab 04070000 		.4byte	0x704
 1711 06af 18       		.uleb128 0x18
 1712 06b0 0E050000 		.4byte	.LASF112
 1713 06b4 07       		.byte	0x7
 1714 06b5 0101     		.2byte	0x101
 1715 06b7 FF000000 		.4byte	0xff
 1716 06bb 18       		.uleb128 0x18
 1717 06bc BA000000 		.4byte	.LASF113
 1718 06c0 07       		.byte	0x7
 1719 06c1 0801     		.2byte	0x108
 1720 06c3 FF000000 		.4byte	0xff
 1721 06c7 18       		.uleb128 0x18
 1722 06c8 67070000 		.4byte	.LASF114
 1723 06cc 07       		.byte	0x7
 1724 06cd 0F01     		.2byte	0x10f
 1725 06cf 3C030000 		.4byte	0x33c
 1726 06d3 18       		.uleb128 0x18
 1727 06d4 C2030000 		.4byte	.LASF115
 1728 06d8 07       		.byte	0x7
 1729 06d9 1601     		.2byte	0x116
 1730 06db 04070000 		.4byte	0x704
 1731 06df 18       		.uleb128 0x18
 1732 06e0 77020000 		.4byte	.LASF116
 1733 06e4 07       		.byte	0x7
 1734 06e5 1E01     		.2byte	0x11e
 1735 06e7 2F070000 		.4byte	0x72f
 1736 06eb 18       		.uleb128 0x18
 1737 06ec 4D050000 		.4byte	.LASF117
 1738 06f0 07       		.byte	0x7
 1739 06f1 2701     		.2byte	0x127
 1740 06f3 66070000 		.4byte	0x766
 1741 06f7 18       		.uleb128 0x18
 1742 06f8 E2040000 		.4byte	.LASF118
 1743 06fc 07       		.byte	0x7
 1744 06fd 2F01     		.2byte	0x12f
 1745 06ff 0A010000 		.4byte	0x10a
 1746 0703 00       		.byte	0
 1747 0704 0A       		.uleb128 0xa
 1748 0705 04       		.byte	0x4
 1749 0706 54020000 		.4byte	0x254
 1750 070a 06       		.uleb128 0x6
 1751 070b 2C050000 		.4byte	.LASF119
 1752 070f 0C       		.byte	0xc
 1753 0710 0D       		.byte	0xd
 1754 0711 34       		.byte	0x34
 1755 0712 2F070000 		.4byte	0x72f
 1756 0716 07       		.uleb128 0x7
ARM GAS  C:\Users\Luis\AppData\Local\Temp\cctuEKFp.s 			page 32


 1757 0717 B2000000 		.4byte	.LASF120
 1758 071b 0D       		.byte	0xd
 1759 071c 35       		.byte	0x35
 1760 071d 89020000 		.4byte	0x289
 1761 0721 00       		.byte	0
 1762 0722 07       		.uleb128 0x7
 1763 0723 9C020000 		.4byte	.LASF121
 1764 0727 0D       		.byte	0xd
 1765 0728 37       		.byte	0x37
 1766 0729 15010000 		.4byte	0x115
 1767 072d 08       		.byte	0x8
 1768 072e 00       		.byte	0
 1769 072f 0A       		.uleb128 0xa
 1770 0730 04       		.byte	0x4
 1771 0731 0A070000 		.4byte	0x70a
 1772 0735 06       		.uleb128 0x6
 1773 0736 E9060000 		.4byte	.LASF122
 1774 073a 10       		.byte	0x10
 1775 073b 0E       		.byte	0xe
 1776 073c 39       		.byte	0x39
 1777 073d 66070000 		.4byte	0x766
 1778 0741 07       		.uleb128 0x7
 1779 0742 32010000 		.4byte	.LASF123
 1780 0746 0E       		.byte	0xe
 1781 0747 3A       		.byte	0x3a
 1782 0748 89020000 		.4byte	0x289
 1783 074c 00       		.byte	0
 1784 074d 07       		.uleb128 0x7
 1785 074e B9070000 		.4byte	.LASF124
 1786 0752 0E       		.byte	0xe
 1787 0753 3C       		.byte	0x3c
 1788 0754 5F020000 		.4byte	0x25f
 1789 0758 08       		.byte	0x8
 1790 0759 07       		.uleb128 0x7
 1791 075a 63060000 		.4byte	.LASF125
 1792 075e 0E       		.byte	0xe
 1793 075f 3E       		.byte	0x3e
 1794 0760 AA070000 		.4byte	0x7aa
 1795 0764 0C       		.byte	0xc
 1796 0765 00       		.byte	0
 1797 0766 0A       		.uleb128 0xa
 1798 0767 04       		.byte	0x4
 1799 0768 35070000 		.4byte	0x735
 1800 076c 0A       		.uleb128 0xa
 1801 076d 04       		.byte	0x4
 1802 076e 72070000 		.4byte	0x772
 1803 0772 19       		.uleb128 0x19
 1804 0773 77070000 		.4byte	0x777
 1805 0777 04       		.uleb128 0x4
 1806 0778 01       		.byte	0x1
 1807 0779 08       		.byte	0x8
 1808 077a 87050000 		.4byte	.LASF126
 1809 077e 0A       		.uleb128 0xa
 1810 077f 04       		.byte	0x4
 1811 0780 BD040000 		.4byte	0x4bd
 1812 0784 0A       		.uleb128 0xa
 1813 0785 04       		.byte	0x4
ARM GAS  C:\Users\Luis\AppData\Local\Temp\cctuEKFp.s 			page 33


 1814 0786 3E030000 		.4byte	0x33e
 1815 078a 05       		.uleb128 0x5
 1816 078b 6C070000 		.4byte	0x76c
 1817 078f 15       		.uleb128 0x15
 1818 0790 BD040000 		.4byte	0x4bd
 1819 0794 9F070000 		.4byte	0x79f
 1820 0798 16       		.uleb128 0x16
 1821 0799 AB040000 		.4byte	0x4ab
 1822 079d 1F       		.byte	0x1f
 1823 079e 00       		.byte	0
 1824 079f 03       		.uleb128 0x3
 1825 07a0 2A020000 		.4byte	.LASF127
 1826 07a4 0E       		.byte	0xe
 1827 07a5 34       		.byte	0x34
 1828 07a6 35070000 		.4byte	0x735
 1829 07aa 0A       		.uleb128 0xa
 1830 07ab 04       		.byte	0x4
 1831 07ac 9F070000 		.4byte	0x79f
 1832 07b0 04       		.uleb128 0x4
 1833 07b1 01       		.byte	0x1
 1834 07b2 02       		.byte	0x2
 1835 07b3 8B040000 		.4byte	.LASF128
 1836 07b7 03       		.uleb128 0x3
 1837 07b8 25010000 		.4byte	.LASF129
 1838 07bc 0F       		.byte	0xf
 1839 07bd 38       		.byte	0x38
 1840 07be 50000000 		.4byte	0x50
 1841 07c2 03       		.uleb128 0x3
 1842 07c3 CE000000 		.4byte	.LASF130
 1843 07c7 0F       		.byte	0xf
 1844 07c8 39       		.byte	0x39
 1845 07c9 3E000000 		.4byte	0x3e
 1846 07cd 03       		.uleb128 0x3
 1847 07ce C6060000 		.4byte	.LASF131
 1848 07d2 0F       		.byte	0xf
 1849 07d3 3A       		.byte	0x3a
 1850 07d4 69000000 		.4byte	0x69
 1851 07d8 03       		.uleb128 0x3
 1852 07d9 89020000 		.4byte	.LASF132
 1853 07dd 0F       		.byte	0xf
 1854 07de 3C       		.byte	0x3c
 1855 07df 8D000000 		.4byte	0x8d
 1856 07e3 06       		.uleb128 0x6
 1857 07e4 F1030000 		.4byte	.LASF133
 1858 07e8 04       		.byte	0x4
 1859 07e9 10       		.byte	0x10
 1860 07ea 2C       		.byte	0x2c
 1861 07eb FC070000 		.4byte	0x7fc
 1862 07ef 07       		.uleb128 0x7
 1863 07f0 7D040000 		.4byte	.LASF134
 1864 07f4 10       		.byte	0x10
 1865 07f5 2D       		.byte	0x2d
 1866 07f6 D8070000 		.4byte	0x7d8
 1867 07fa 00       		.byte	0
 1868 07fb 00       		.byte	0
 1869 07fc 03       		.uleb128 0x3
 1870 07fd 68030000 		.4byte	.LASF135
ARM GAS  C:\Users\Luis\AppData\Local\Temp\cctuEKFp.s 			page 34


 1871 0801 10       		.byte	0x10
 1872 0802 40       		.byte	0x40
 1873 0803 E3070000 		.4byte	0x7e3
 1874 0807 03       		.uleb128 0x3
 1875 0808 7C030000 		.4byte	.LASF136
 1876 080c 11       		.byte	0x11
 1877 080d 2F       		.byte	0x2f
 1878 080e C2070000 		.4byte	0x7c2
 1879 0812 06       		.uleb128 0x6
 1880 0813 07000000 		.4byte	.LASF137
 1881 0817 10       		.byte	0x10
 1882 0818 12       		.byte	0x12
 1883 0819 4F       		.byte	0x4f
 1884 081a 73080000 		.4byte	0x873
 1885 081e 07       		.uleb128 0x7
 1886 081f F6000000 		.4byte	.LASF138
 1887 0823 12       		.byte	0x12
 1888 0824 51       		.byte	0x51
 1889 0825 73080000 		.4byte	0x873
 1890 0829 00       		.byte	0
 1891 082a 07       		.uleb128 0x7
 1892 082b CE030000 		.4byte	.LASF139
 1893 082f 12       		.byte	0x12
 1894 0830 54       		.byte	0x54
 1895 0831 3C030000 		.4byte	0x33c
 1896 0835 04       		.byte	0x4
 1897 0836 07       		.uleb128 0x7
 1898 0837 5D010000 		.4byte	.LASF140
 1899 083b 12       		.byte	0x12
 1900 083c 5D       		.byte	0x5d
 1901 083d CD070000 		.4byte	0x7cd
 1902 0841 08       		.byte	0x8
 1903 0842 12       		.uleb128 0x12
 1904 0843 6C656E00 		.ascii	"len\000"
 1905 0847 12       		.byte	0x12
 1906 0848 60       		.byte	0x60
 1907 0849 CD070000 		.4byte	0x7cd
 1908 084d 0A       		.byte	0xa
 1909 084e 07       		.uleb128 0x7
 1910 084f 62000000 		.4byte	.LASF141
 1911 0853 12       		.byte	0x12
 1912 0854 63       		.byte	0x63
 1913 0855 B7070000 		.4byte	0x7b7
 1914 0859 0C       		.byte	0xc
 1915 085a 07       		.uleb128 0x7
 1916 085b 1F070000 		.4byte	.LASF142
 1917 085f 12       		.byte	0x12
 1918 0860 66       		.byte	0x66
 1919 0861 B7070000 		.4byte	0x7b7
 1920 0865 0D       		.byte	0xd
 1921 0866 12       		.uleb128 0x12
 1922 0867 72656600 		.ascii	"ref\000"
 1923 086b 12       		.byte	0x12
 1924 086c 6D       		.byte	0x6d
 1925 086d CD070000 		.4byte	0x7cd
 1926 0871 0E       		.byte	0xe
 1927 0872 00       		.byte	0
ARM GAS  C:\Users\Luis\AppData\Local\Temp\cctuEKFp.s 			page 35


 1928 0873 0A       		.uleb128 0xa
 1929 0874 04       		.byte	0x4
 1930 0875 12080000 		.4byte	0x812
 1931 0879 0A       		.uleb128 0xa
 1932 087a 04       		.byte	0x4
 1933 087b 7F080000 		.4byte	0x87f
 1934 087f 06       		.uleb128 0x6
 1935 0880 C8030000 		.4byte	.LASF143
 1936 0884 30       		.byte	0x30
 1937 0885 13       		.byte	0x13
 1938 0886 88       		.byte	0x88
 1939 0887 33090000 		.4byte	0x933
 1940 088b 07       		.uleb128 0x7
 1941 088c F6000000 		.4byte	.LASF138
 1942 0890 13       		.byte	0x13
 1943 0891 8A       		.byte	0x8a
 1944 0892 79080000 		.4byte	0x879
 1945 0896 00       		.byte	0
 1946 0897 07       		.uleb128 0x7
 1947 0898 F1030000 		.4byte	.LASF133
 1948 089c 13       		.byte	0x13
 1949 089d 8D       		.byte	0x8d
 1950 089e FC070000 		.4byte	0x7fc
 1951 08a2 04       		.byte	0x4
 1952 08a3 07       		.uleb128 0x7
 1953 08a4 A9010000 		.4byte	.LASF144
 1954 08a8 13       		.byte	0x13
 1955 08a9 8E       		.byte	0x8e
 1956 08aa FC070000 		.4byte	0x7fc
 1957 08ae 08       		.byte	0x8
 1958 08af 12       		.uleb128 0x12
 1959 08b0 677700   		.ascii	"gw\000"
 1960 08b3 13       		.byte	0x13
 1961 08b4 8F       		.byte	0x8f
 1962 08b5 FC070000 		.4byte	0x7fc
 1963 08b9 0C       		.byte	0xc
 1964 08ba 07       		.uleb128 0x7
 1965 08bb 15050000 		.4byte	.LASF145
 1966 08bf 13       		.byte	0x13
 1967 08c0 93       		.byte	0x93
 1968 08c1 33090000 		.4byte	0x933
 1969 08c5 10       		.byte	0x10
 1970 08c6 07       		.uleb128 0x7
 1971 08c7 61030000 		.4byte	.LASF146
 1972 08cb 13       		.byte	0x13
 1973 08cc 97       		.byte	0x97
 1974 08cd 58090000 		.4byte	0x958
 1975 08d1 14       		.byte	0x14
 1976 08d2 07       		.uleb128 0x7
 1977 08d3 97070000 		.4byte	.LASF147
 1978 08d7 13       		.byte	0x13
 1979 08d8 9B       		.byte	0x9b
 1980 08d9 88090000 		.4byte	0x988
 1981 08dd 18       		.byte	0x18
 1982 08de 07       		.uleb128 0x7
 1983 08df 65010000 		.4byte	.LASF148
 1984 08e3 13       		.byte	0x13
ARM GAS  C:\Users\Luis\AppData\Local\Temp\cctuEKFp.s 			page 36


 1985 08e4 AC       		.byte	0xac
 1986 08e5 3C030000 		.4byte	0x33c
 1987 08e9 1C       		.byte	0x1c
 1988 08ea 12       		.uleb128 0x12
 1989 08eb 6D747500 		.ascii	"mtu\000"
 1990 08ef 13       		.byte	0x13
 1991 08f0 BA       		.byte	0xba
 1992 08f1 CD070000 		.4byte	0x7cd
 1993 08f5 20       		.byte	0x20
 1994 08f6 07       		.uleb128 0x7
 1995 08f7 96010000 		.4byte	.LASF149
 1996 08fb 13       		.byte	0x13
 1997 08fc BC       		.byte	0xbc
 1998 08fd B7070000 		.4byte	0x7b7
 1999 0901 22       		.byte	0x22
 2000 0902 07       		.uleb128 0x7
 2001 0903 3A010000 		.4byte	.LASF150
 2002 0907 13       		.byte	0x13
 2003 0908 BE       		.byte	0xbe
 2004 0909 AD090000 		.4byte	0x9ad
 2005 090d 23       		.byte	0x23
 2006 090e 07       		.uleb128 0x7
 2007 090f 1F070000 		.4byte	.LASF142
 2008 0913 13       		.byte	0x13
 2009 0914 C0       		.byte	0xc0
 2010 0915 B7070000 		.4byte	0x7b7
 2011 0919 29       		.byte	0x29
 2012 091a 07       		.uleb128 0x7
 2013 091b A2020000 		.4byte	.LASF151
 2014 091f 13       		.byte	0x13
 2015 0920 C2       		.byte	0xc2
 2016 0921 BD090000 		.4byte	0x9bd
 2017 0925 2A       		.byte	0x2a
 2018 0926 12       		.uleb128 0x12
 2019 0927 6E756D00 		.ascii	"num\000"
 2020 092b 13       		.byte	0x13
 2021 092c C4       		.byte	0xc4
 2022 092d B7070000 		.4byte	0x7b7
 2023 0931 2C       		.byte	0x2c
 2024 0932 00       		.byte	0
 2025 0933 03       		.uleb128 0x3
 2026 0934 99060000 		.4byte	.LASF152
 2027 0938 13       		.byte	0x13
 2028 0939 6D       		.byte	0x6d
 2029 093a 3E090000 		.4byte	0x93e
 2030 093e 0A       		.uleb128 0xa
 2031 093f 04       		.byte	0x4
 2032 0940 44090000 		.4byte	0x944
 2033 0944 1A       		.uleb128 0x1a
 2034 0945 07080000 		.4byte	0x807
 2035 0949 58090000 		.4byte	0x958
 2036 094d 0D       		.uleb128 0xd
 2037 094e 73080000 		.4byte	0x873
 2038 0952 0D       		.uleb128 0xd
 2039 0953 79080000 		.4byte	0x879
 2040 0957 00       		.byte	0
 2041 0958 03       		.uleb128 0x3
ARM GAS  C:\Users\Luis\AppData\Local\Temp\cctuEKFp.s 			page 37


 2042 0959 C3040000 		.4byte	.LASF153
 2043 095d 13       		.byte	0x13
 2044 095e 76       		.byte	0x76
 2045 095f 63090000 		.4byte	0x963
 2046 0963 0A       		.uleb128 0xa
 2047 0964 04       		.byte	0x4
 2048 0965 69090000 		.4byte	0x969
 2049 0969 1A       		.uleb128 0x1a
 2050 096a 07080000 		.4byte	0x807
 2051 096e 82090000 		.4byte	0x982
 2052 0972 0D       		.uleb128 0xd
 2053 0973 79080000 		.4byte	0x879
 2054 0977 0D       		.uleb128 0xd
 2055 0978 73080000 		.4byte	0x873
 2056 097c 0D       		.uleb128 0xd
 2057 097d 82090000 		.4byte	0x982
 2058 0981 00       		.byte	0
 2059 0982 0A       		.uleb128 0xa
 2060 0983 04       		.byte	0x4
 2061 0984 FC070000 		.4byte	0x7fc
 2062 0988 03       		.uleb128 0x3
 2063 0989 8B030000 		.4byte	.LASF154
 2064 098d 13       		.byte	0x13
 2065 098e 7E       		.byte	0x7e
 2066 098f 93090000 		.4byte	0x993
 2067 0993 0A       		.uleb128 0xa
 2068 0994 04       		.byte	0x4
 2069 0995 99090000 		.4byte	0x999
 2070 0999 1A       		.uleb128 0x1a
 2071 099a 07080000 		.4byte	0x807
 2072 099e AD090000 		.4byte	0x9ad
 2073 09a2 0D       		.uleb128 0xd
 2074 09a3 79080000 		.4byte	0x879
 2075 09a7 0D       		.uleb128 0xd
 2076 09a8 73080000 		.4byte	0x873
 2077 09ac 00       		.byte	0
 2078 09ad 15       		.uleb128 0x15
 2079 09ae B7070000 		.4byte	0x7b7
 2080 09b2 BD090000 		.4byte	0x9bd
 2081 09b6 16       		.uleb128 0x16
 2082 09b7 AB040000 		.4byte	0x4ab
 2083 09bb 05       		.byte	0x5
 2084 09bc 00       		.byte	0
 2085 09bd 15       		.uleb128 0x15
 2086 09be 77070000 		.4byte	0x777
 2087 09c2 CD090000 		.4byte	0x9cd
 2088 09c6 16       		.uleb128 0x16
 2089 09c7 AB040000 		.4byte	0x4ab
 2090 09cb 01       		.byte	0x1
 2091 09cc 00       		.byte	0
 2092 09cd 1B       		.uleb128 0x1b
 2093 09ce 50030000 		.4byte	.LASF175
 2094 09d2 01       		.byte	0x1
 2095 09d3 CC01     		.2byte	0x1cc
 2096 09d5 00000000 		.4byte	.LFB230
 2097 09d9 14000000 		.4byte	.LFE230-.LFB230
 2098 09dd 01       		.uleb128 0x1
ARM GAS  C:\Users\Luis\AppData\Local\Temp\cctuEKFp.s 			page 38


 2099 09de 9C       		.byte	0x9c
 2100 09df F3090000 		.4byte	0x9f3
 2101 09e3 1C       		.uleb128 0x1c
 2102 09e4 07050000 		.4byte	.LASF155
 2103 09e8 01       		.byte	0x1
 2104 09e9 CC01     		.2byte	0x1cc
 2105 09eb 6C070000 		.4byte	0x76c
 2106 09ef 02       		.uleb128 0x2
 2107 09f0 91       		.byte	0x91
 2108 09f1 74       		.sleb128 -12
 2109 09f2 00       		.byte	0
 2110 09f3 1D       		.uleb128 0x1d
 2111 09f4 41010000 		.4byte	.LASF156
 2112 09f8 02       		.byte	0x2
 2113 09f9 37       		.byte	0x37
 2114 09fa B7070000 		.4byte	0x7b7
 2115 09fe 00000000 		.4byte	.LFB260
 2116 0a02 78000000 		.4byte	.LFE260-.LFB260
 2117 0a06 01       		.uleb128 0x1
 2118 0a07 9C       		.byte	0x9c
 2119 0a08 370A0000 		.4byte	0xa37
 2120 0a0c 1E       		.uleb128 0x1e
 2121 0a0d 7D040000 		.4byte	.LASF134
 2122 0a11 02       		.byte	0x2
 2123 0a12 37       		.byte	0x37
 2124 0a13 D8070000 		.4byte	0x7d8
 2125 0a17 02       		.uleb128 0x2
 2126 0a18 91       		.byte	0x91
 2127 0a19 6C       		.sleb128 -20
 2128 0a1a 1E       		.uleb128 0x1e
 2129 0a1b C8030000 		.4byte	.LASF143
 2130 0a1f 02       		.byte	0x2
 2131 0a20 37       		.byte	0x37
 2132 0a21 370A0000 		.4byte	0xa37
 2133 0a25 02       		.uleb128 0x2
 2134 0a26 91       		.byte	0x91
 2135 0a27 68       		.sleb128 -24
 2136 0a28 1F       		.uleb128 0x1f
 2137 0a29 0A070000 		.4byte	.LASF158
 2138 0a2d 02       		.byte	0x2
 2139 0a2e 39       		.byte	0x39
 2140 0a2f FC070000 		.4byte	0x7fc
 2141 0a33 02       		.uleb128 0x2
 2142 0a34 91       		.byte	0x91
 2143 0a35 74       		.sleb128 -12
 2144 0a36 00       		.byte	0
 2145 0a37 0A       		.uleb128 0xa
 2146 0a38 04       		.byte	0x4
 2147 0a39 3D0A0000 		.4byte	0xa3d
 2148 0a3d 19       		.uleb128 0x19
 2149 0a3e 7F080000 		.4byte	0x87f
 2150 0a42 20       		.uleb128 0x20
 2151 0a43 D9070000 		.4byte	.LASF157
 2152 0a47 02       		.byte	0x2
 2153 0a48 5A       		.byte	0x5a
 2154 0a49 B7070000 		.4byte	0x7b7
 2155 0a4d 00000000 		.4byte	.LFB261
ARM GAS  C:\Users\Luis\AppData\Local\Temp\cctuEKFp.s 			page 39


 2156 0a51 56000000 		.4byte	.LFE261-.LFB261
 2157 0a55 01       		.uleb128 0x1
 2158 0a56 9C       		.byte	0x9c
 2159 0a57 860A0000 		.4byte	0xa86
 2160 0a5b 1E       		.uleb128 0x1e
 2161 0a5c A9010000 		.4byte	.LASF144
 2162 0a60 02       		.byte	0x2
 2163 0a61 5A       		.byte	0x5a
 2164 0a62 D8070000 		.4byte	0x7d8
 2165 0a66 02       		.uleb128 0x2
 2166 0a67 91       		.byte	0x91
 2167 0a68 6C       		.sleb128 -20
 2168 0a69 1F       		.uleb128 0x1f
 2169 0a6a C1010000 		.4byte	.LASF159
 2170 0a6e 02       		.byte	0x2
 2171 0a6f 5C       		.byte	0x5c
 2172 0a70 D8070000 		.4byte	0x7d8
 2173 0a74 02       		.uleb128 0x2
 2174 0a75 91       		.byte	0x91
 2175 0a76 74       		.sleb128 -12
 2176 0a77 1F       		.uleb128 0x1f
 2177 0a78 D3020000 		.4byte	.LASF160
 2178 0a7c 02       		.byte	0x2
 2179 0a7d 5D       		.byte	0x5d
 2180 0a7e D8070000 		.4byte	0x7d8
 2181 0a82 02       		.uleb128 0x2
 2182 0a83 91       		.byte	0x91
 2183 0a84 70       		.sleb128 -16
 2184 0a85 00       		.byte	0
 2185 0a86 20       		.uleb128 0x20
 2186 0a87 A2070000 		.4byte	.LASF161
 2187 0a8b 02       		.byte	0x2
 2188 0a8c 82       		.byte	0x82
 2189 0a8d D8070000 		.4byte	0x7d8
 2190 0a91 00000000 		.4byte	.LFB262
 2191 0a95 2A000000 		.4byte	.LFE262-.LFB262
 2192 0a99 01       		.uleb128 0x1
 2193 0a9a 9C       		.byte	0x9c
 2194 0a9b BB0A0000 		.4byte	0xabb
 2195 0a9f 21       		.uleb128 0x21
 2196 0aa0 637000   		.ascii	"cp\000"
 2197 0aa3 02       		.byte	0x2
 2198 0aa4 82       		.byte	0x82
 2199 0aa5 6C070000 		.4byte	0x76c
 2200 0aa9 02       		.uleb128 0x2
 2201 0aaa 91       		.byte	0x91
 2202 0aab 6C       		.sleb128 -20
 2203 0aac 22       		.uleb128 0x22
 2204 0aad 76616C00 		.ascii	"val\000"
 2205 0ab1 02       		.byte	0x2
 2206 0ab2 84       		.byte	0x84
 2207 0ab3 FC070000 		.4byte	0x7fc
 2208 0ab7 02       		.uleb128 0x2
 2209 0ab8 91       		.byte	0x91
 2210 0ab9 74       		.sleb128 -12
 2211 0aba 00       		.byte	0
 2212 0abb 20       		.uleb128 0x20
ARM GAS  C:\Users\Luis\AppData\Local\Temp\cctuEKFp.s 			page 40


 2213 0abc 9F030000 		.4byte	.LASF162
 2214 0ac0 02       		.byte	0x2
 2215 0ac1 98       		.byte	0x98
 2216 0ac2 25000000 		.4byte	0x25
 2217 0ac6 00000000 		.4byte	.LFB263
 2218 0aca 40020000 		.4byte	.LFE263-.LFB263
 2219 0ace 01       		.uleb128 0x1
 2220 0acf 9C       		.byte	0x9c
 2221 0ad0 330B0000 		.4byte	0xb33
 2222 0ad4 21       		.uleb128 0x21
 2223 0ad5 637000   		.ascii	"cp\000"
 2224 0ad8 02       		.byte	0x2
 2225 0ad9 98       		.byte	0x98
 2226 0ada 6C070000 		.4byte	0x76c
 2227 0ade 02       		.uleb128 0x2
 2228 0adf 91       		.byte	0x91
 2229 0ae0 54       		.sleb128 -44
 2230 0ae1 1E       		.uleb128 0x1e
 2231 0ae2 7D040000 		.4byte	.LASF134
 2232 0ae6 02       		.byte	0x2
 2233 0ae7 98       		.byte	0x98
 2234 0ae8 82090000 		.4byte	0x982
 2235 0aec 02       		.uleb128 0x2
 2236 0aed 91       		.byte	0x91
 2237 0aee 50       		.sleb128 -48
 2238 0aef 22       		.uleb128 0x22
 2239 0af0 76616C00 		.ascii	"val\000"
 2240 0af4 02       		.byte	0x2
 2241 0af5 9A       		.byte	0x9a
 2242 0af6 D8070000 		.4byte	0x7d8
 2243 0afa 02       		.uleb128 0x2
 2244 0afb 91       		.byte	0x91
 2245 0afc 74       		.sleb128 -12
 2246 0afd 1F       		.uleb128 0x1f
 2247 0afe 5C030000 		.4byte	.LASF163
 2248 0b02 02       		.byte	0x2
 2249 0b03 9B       		.byte	0x9b
 2250 0b04 B7070000 		.4byte	0x7b7
 2251 0b08 02       		.uleb128 0x2
 2252 0b09 91       		.byte	0x91
 2253 0b0a 73       		.sleb128 -13
 2254 0b0b 22       		.uleb128 0x22
 2255 0b0c 6300     		.ascii	"c\000"
 2256 0b0e 02       		.byte	0x2
 2257 0b0f 9C       		.byte	0x9c
 2258 0b10 77070000 		.4byte	0x777
 2259 0b14 02       		.uleb128 0x2
 2260 0b15 91       		.byte	0x91
 2261 0b16 72       		.sleb128 -14
 2262 0b17 1F       		.uleb128 0x1f
 2263 0b18 24000000 		.4byte	.LASF164
 2264 0b1c 02       		.byte	0x2
 2265 0b1d 9D       		.byte	0x9d
 2266 0b1e 330B0000 		.4byte	0xb33
 2267 0b22 02       		.uleb128 0x2
 2268 0b23 91       		.byte	0x91
 2269 0b24 5C       		.sleb128 -36
ARM GAS  C:\Users\Luis\AppData\Local\Temp\cctuEKFp.s 			page 41


 2270 0b25 22       		.uleb128 0x22
 2271 0b26 707000   		.ascii	"pp\000"
 2272 0b29 02       		.byte	0x2
 2273 0b2a 9E       		.byte	0x9e
 2274 0b2b 430B0000 		.4byte	0xb43
 2275 0b2f 02       		.uleb128 0x2
 2276 0b30 91       		.byte	0x91
 2277 0b31 6C       		.sleb128 -20
 2278 0b32 00       		.byte	0
 2279 0b33 15       		.uleb128 0x15
 2280 0b34 D8070000 		.4byte	0x7d8
 2281 0b38 430B0000 		.4byte	0xb43
 2282 0b3c 16       		.uleb128 0x16
 2283 0b3d AB040000 		.4byte	0x4ab
 2284 0b41 03       		.byte	0x3
 2285 0b42 00       		.byte	0
 2286 0b43 0A       		.uleb128 0xa
 2287 0b44 04       		.byte	0x4
 2288 0b45 D8070000 		.4byte	0x7d8
 2289 0b49 23       		.uleb128 0x23
 2290 0b4a 2A000000 		.4byte	.LASF165
 2291 0b4e 02       		.byte	0x2
 2292 0b4f 0501     		.2byte	0x105
 2293 0b51 850B0000 		.4byte	0xb85
 2294 0b55 00000000 		.4byte	.LFB264
 2295 0b59 20000000 		.4byte	.LFE264-.LFB264
 2296 0b5d 01       		.uleb128 0x1
 2297 0b5e 9C       		.byte	0x9c
 2298 0b5f 850B0000 		.4byte	0xb85
 2299 0b63 1C       		.uleb128 0x1c
 2300 0b64 7D040000 		.4byte	.LASF134
 2301 0b68 02       		.byte	0x2
 2302 0b69 0501     		.2byte	0x105
 2303 0b6b 8B0B0000 		.4byte	0xb8b
 2304 0b6f 02       		.uleb128 0x2
 2305 0b70 91       		.byte	0x91
 2306 0b71 74       		.sleb128 -12
 2307 0b72 24       		.uleb128 0x24
 2308 0b73 73747200 		.ascii	"str\000"
 2309 0b77 02       		.byte	0x2
 2310 0b78 0701     		.2byte	0x107
 2311 0b7a 960B0000 		.4byte	0xb96
 2312 0b7e 05       		.uleb128 0x5
 2313 0b7f 03       		.byte	0x3
 2314 0b80 00000000 		.4byte	str.8151
 2315 0b84 00       		.byte	0
 2316 0b85 0A       		.uleb128 0xa
 2317 0b86 04       		.byte	0x4
 2318 0b87 77070000 		.4byte	0x777
 2319 0b8b 0A       		.uleb128 0xa
 2320 0b8c 04       		.byte	0x4
 2321 0b8d 910B0000 		.4byte	0xb91
 2322 0b91 19       		.uleb128 0x19
 2323 0b92 FC070000 		.4byte	0x7fc
 2324 0b96 15       		.uleb128 0x15
 2325 0b97 77070000 		.4byte	0x777
 2326 0b9b A60B0000 		.4byte	0xba6
ARM GAS  C:\Users\Luis\AppData\Local\Temp\cctuEKFp.s 			page 42


 2327 0b9f 16       		.uleb128 0x16
 2328 0ba0 AB040000 		.4byte	0x4ab
 2329 0ba4 0F       		.byte	0xf
 2330 0ba5 00       		.byte	0
 2331 0ba6 25       		.uleb128 0x25
 2332 0ba7 42030000 		.4byte	.LASF166
 2333 0bab 02       		.byte	0x2
 2334 0bac 1401     		.2byte	0x114
 2335 0bae 850B0000 		.4byte	0xb85
 2336 0bb2 00000000 		.4byte	.LFB265
 2337 0bb6 00010000 		.4byte	.LFE265-.LFB265
 2338 0bba 01       		.uleb128 0x1
 2339 0bbb 9C       		.byte	0x9c
 2340 0bbc 600C0000 		.4byte	0xc60
 2341 0bc0 1C       		.uleb128 0x1c
 2342 0bc1 7D040000 		.4byte	.LASF134
 2343 0bc5 02       		.byte	0x2
 2344 0bc6 1401     		.2byte	0x114
 2345 0bc8 8B0B0000 		.4byte	0xb8b
 2346 0bcc 02       		.uleb128 0x2
 2347 0bcd 91       		.byte	0x91
 2348 0bce 54       		.sleb128 -44
 2349 0bcf 26       		.uleb128 0x26
 2350 0bd0 62756600 		.ascii	"buf\000"
 2351 0bd4 02       		.byte	0x2
 2352 0bd5 1401     		.2byte	0x114
 2353 0bd7 850B0000 		.4byte	0xb85
 2354 0bdb 02       		.uleb128 0x2
 2355 0bdc 91       		.byte	0x91
 2356 0bdd 50       		.sleb128 -48
 2357 0bde 1C       		.uleb128 0x1c
 2358 0bdf 00050000 		.4byte	.LASF167
 2359 0be3 02       		.byte	0x2
 2360 0be4 1401     		.2byte	0x114
 2361 0be6 25000000 		.4byte	0x25
 2362 0bea 02       		.uleb128 0x2
 2363 0beb 91       		.byte	0x91
 2364 0bec 4C       		.sleb128 -52
 2365 0bed 27       		.uleb128 0x27
 2366 0bee 68020000 		.4byte	.LASF168
 2367 0bf2 02       		.byte	0x2
 2368 0bf3 1601     		.2byte	0x116
 2369 0bf5 D8070000 		.4byte	0x7d8
 2370 0bf9 02       		.uleb128 0x2
 2371 0bfa 91       		.byte	0x91
 2372 0bfb 60       		.sleb128 -32
 2373 0bfc 24       		.uleb128 0x24
 2374 0bfd 696E7600 		.ascii	"inv\000"
 2375 0c01 02       		.byte	0x2
 2376 0c02 1701     		.2byte	0x117
 2377 0c04 600C0000 		.4byte	0xc60
 2378 0c08 02       		.uleb128 0x2
 2379 0c09 91       		.byte	0x91
 2380 0c0a 5C       		.sleb128 -36
 2381 0c0b 24       		.uleb128 0x24
 2382 0c0c 727000   		.ascii	"rp\000"
 2383 0c0f 02       		.byte	0x2
ARM GAS  C:\Users\Luis\AppData\Local\Temp\cctuEKFp.s 			page 43


 2384 0c10 1801     		.2byte	0x118
 2385 0c12 850B0000 		.4byte	0xb85
 2386 0c16 02       		.uleb128 0x2
 2387 0c17 91       		.byte	0x91
 2388 0c18 74       		.sleb128 -12
 2389 0c19 24       		.uleb128 0x24
 2390 0c1a 617000   		.ascii	"ap\000"
 2391 0c1d 02       		.byte	0x2
 2392 0c1e 1901     		.2byte	0x119
 2393 0c20 700C0000 		.4byte	0xc70
 2394 0c24 02       		.uleb128 0x2
 2395 0c25 91       		.byte	0x91
 2396 0c26 70       		.sleb128 -16
 2397 0c27 24       		.uleb128 0x24
 2398 0c28 72656D00 		.ascii	"rem\000"
 2399 0c2c 02       		.byte	0x2
 2400 0c2d 1A01     		.2byte	0x11a
 2401 0c2f B7070000 		.4byte	0x7b7
 2402 0c33 02       		.uleb128 0x2
 2403 0c34 91       		.byte	0x91
 2404 0c35 67       		.sleb128 -25
 2405 0c36 24       		.uleb128 0x24
 2406 0c37 6E00     		.ascii	"n\000"
 2407 0c39 02       		.byte	0x2
 2408 0c3a 1B01     		.2byte	0x11b
 2409 0c3c B7070000 		.4byte	0x7b7
 2410 0c40 02       		.uleb128 0x2
 2411 0c41 91       		.byte	0x91
 2412 0c42 6F       		.sleb128 -17
 2413 0c43 24       		.uleb128 0x24
 2414 0c44 6900     		.ascii	"i\000"
 2415 0c46 02       		.byte	0x2
 2416 0c47 1C01     		.2byte	0x11c
 2417 0c49 B7070000 		.4byte	0x7b7
 2418 0c4d 02       		.uleb128 0x2
 2419 0c4e 91       		.byte	0x91
 2420 0c4f 6E       		.sleb128 -18
 2421 0c50 24       		.uleb128 0x24
 2422 0c51 6C656E00 		.ascii	"len\000"
 2423 0c55 02       		.byte	0x2
 2424 0c56 1D01     		.2byte	0x11d
 2425 0c58 25000000 		.4byte	0x25
 2426 0c5c 02       		.uleb128 0x2
 2427 0c5d 91       		.byte	0x91
 2428 0c5e 68       		.sleb128 -24
 2429 0c5f 00       		.byte	0
 2430 0c60 15       		.uleb128 0x15
 2431 0c61 77070000 		.4byte	0x777
 2432 0c65 700C0000 		.4byte	0xc70
 2433 0c69 16       		.uleb128 0x16
 2434 0c6a AB040000 		.4byte	0x4ab
 2435 0c6e 02       		.byte	0x2
 2436 0c6f 00       		.byte	0
 2437 0c70 0A       		.uleb128 0xa
 2438 0c71 04       		.byte	0x4
 2439 0c72 B7070000 		.4byte	0x7b7
 2440 0c76 28       		.uleb128 0x28
ARM GAS  C:\Users\Luis\AppData\Local\Temp\cctuEKFp.s 			page 44


 2441 0c77 E9000000 		.4byte	.LASF169
 2442 0c7b 14       		.byte	0x14
 2443 0c7c A706     		.2byte	0x6a7
 2444 0c7e B8000000 		.4byte	0xb8
 2445 0c82 29       		.uleb128 0x29
 2446 0c83 636800   		.ascii	"ch\000"
 2447 0c86 07       		.byte	0x7
 2448 0c87 0902     		.2byte	0x209
 2449 0c89 33040000 		.4byte	0x433
 2450 0c8d 2A       		.uleb128 0x2a
 2451 0c8e 36030000 		.4byte	.LASF170
 2452 0c92 02       		.byte	0x2
 2453 0c93 2C       		.byte	0x2c
 2454 0c94 910B0000 		.4byte	0xb91
 2455 0c98 05       		.uleb128 0x5
 2456 0c99 03       		.byte	0x3
 2457 0c9a 00000000 		.4byte	ip_addr_any
 2458 0c9e 2A       		.uleb128 0x2a
 2459 0c9f 10040000 		.4byte	.LASF171
 2460 0ca3 02       		.byte	0x2
 2461 0ca4 2D       		.byte	0x2d
 2462 0ca5 910B0000 		.4byte	0xb91
 2463 0ca9 05       		.uleb128 0x5
 2464 0caa 03       		.byte	0x3
 2465 0cab 00000000 		.4byte	ip_addr_broadcast
 2466 0caf 00       		.byte	0
 2467              		.section	.debug_abbrev,"",%progbits
 2468              	.Ldebug_abbrev0:
 2469 0000 01       		.uleb128 0x1
 2470 0001 11       		.uleb128 0x11
 2471 0002 01       		.byte	0x1
 2472 0003 25       		.uleb128 0x25
 2473 0004 0E       		.uleb128 0xe
 2474 0005 13       		.uleb128 0x13
 2475 0006 0B       		.uleb128 0xb
 2476 0007 03       		.uleb128 0x3
 2477 0008 0E       		.uleb128 0xe
 2478 0009 1B       		.uleb128 0x1b
 2479 000a 0E       		.uleb128 0xe
 2480 000b 55       		.uleb128 0x55
 2481 000c 17       		.uleb128 0x17
 2482 000d 11       		.uleb128 0x11
 2483 000e 01       		.uleb128 0x1
 2484 000f 10       		.uleb128 0x10
 2485 0010 17       		.uleb128 0x17
 2486 0011 00       		.byte	0
 2487 0012 00       		.byte	0
 2488 0013 02       		.uleb128 0x2
 2489 0014 24       		.uleb128 0x24
 2490 0015 00       		.byte	0
 2491 0016 0B       		.uleb128 0xb
 2492 0017 0B       		.uleb128 0xb
 2493 0018 3E       		.uleb128 0x3e
 2494 0019 0B       		.uleb128 0xb
 2495 001a 03       		.uleb128 0x3
 2496 001b 08       		.uleb128 0x8
 2497 001c 00       		.byte	0
ARM GAS  C:\Users\Luis\AppData\Local\Temp\cctuEKFp.s 			page 45


 2498 001d 00       		.byte	0
 2499 001e 03       		.uleb128 0x3
 2500 001f 16       		.uleb128 0x16
 2501 0020 00       		.byte	0
 2502 0021 03       		.uleb128 0x3
 2503 0022 0E       		.uleb128 0xe
 2504 0023 3A       		.uleb128 0x3a
 2505 0024 0B       		.uleb128 0xb
 2506 0025 3B       		.uleb128 0x3b
 2507 0026 0B       		.uleb128 0xb
 2508 0027 49       		.uleb128 0x49
 2509 0028 13       		.uleb128 0x13
 2510 0029 00       		.byte	0
 2511 002a 00       		.byte	0
 2512 002b 04       		.uleb128 0x4
 2513 002c 24       		.uleb128 0x24
 2514 002d 00       		.byte	0
 2515 002e 0B       		.uleb128 0xb
 2516 002f 0B       		.uleb128 0xb
 2517 0030 3E       		.uleb128 0x3e
 2518 0031 0B       		.uleb128 0xb
 2519 0032 03       		.uleb128 0x3
 2520 0033 0E       		.uleb128 0xe
 2521 0034 00       		.byte	0
 2522 0035 00       		.byte	0
 2523 0036 05       		.uleb128 0x5
 2524 0037 35       		.uleb128 0x35
 2525 0038 00       		.byte	0
 2526 0039 49       		.uleb128 0x49
 2527 003a 13       		.uleb128 0x13
 2528 003b 00       		.byte	0
 2529 003c 00       		.byte	0
 2530 003d 06       		.uleb128 0x6
 2531 003e 13       		.uleb128 0x13
 2532 003f 01       		.byte	0x1
 2533 0040 03       		.uleb128 0x3
 2534 0041 0E       		.uleb128 0xe
 2535 0042 0B       		.uleb128 0xb
 2536 0043 0B       		.uleb128 0xb
 2537 0044 3A       		.uleb128 0x3a
 2538 0045 0B       		.uleb128 0xb
 2539 0046 3B       		.uleb128 0x3b
 2540 0047 0B       		.uleb128 0xb
 2541 0048 01       		.uleb128 0x1
 2542 0049 13       		.uleb128 0x13
 2543 004a 00       		.byte	0
 2544 004b 00       		.byte	0
 2545 004c 07       		.uleb128 0x7
 2546 004d 0D       		.uleb128 0xd
 2547 004e 00       		.byte	0
 2548 004f 03       		.uleb128 0x3
 2549 0050 0E       		.uleb128 0xe
 2550 0051 3A       		.uleb128 0x3a
 2551 0052 0B       		.uleb128 0xb
 2552 0053 3B       		.uleb128 0x3b
 2553 0054 0B       		.uleb128 0xb
 2554 0055 49       		.uleb128 0x49
ARM GAS  C:\Users\Luis\AppData\Local\Temp\cctuEKFp.s 			page 46


 2555 0056 13       		.uleb128 0x13
 2556 0057 38       		.uleb128 0x38
 2557 0058 0B       		.uleb128 0xb
 2558 0059 00       		.byte	0
 2559 005a 00       		.byte	0
 2560 005b 08       		.uleb128 0x8
 2561 005c 0D       		.uleb128 0xd
 2562 005d 00       		.byte	0
 2563 005e 03       		.uleb128 0x3
 2564 005f 08       		.uleb128 0x8
 2565 0060 3A       		.uleb128 0x3a
 2566 0061 0B       		.uleb128 0xb
 2567 0062 3B       		.uleb128 0x3b
 2568 0063 05       		.uleb128 0x5
 2569 0064 49       		.uleb128 0x49
 2570 0065 13       		.uleb128 0x13
 2571 0066 38       		.uleb128 0x38
 2572 0067 0B       		.uleb128 0xb
 2573 0068 00       		.byte	0
 2574 0069 00       		.byte	0
 2575 006a 09       		.uleb128 0x9
 2576 006b 0D       		.uleb128 0xd
 2577 006c 00       		.byte	0
 2578 006d 03       		.uleb128 0x3
 2579 006e 0E       		.uleb128 0xe
 2580 006f 3A       		.uleb128 0x3a
 2581 0070 0B       		.uleb128 0xb
 2582 0071 3B       		.uleb128 0x3b
 2583 0072 05       		.uleb128 0x5
 2584 0073 49       		.uleb128 0x49
 2585 0074 13       		.uleb128 0x13
 2586 0075 38       		.uleb128 0x38
 2587 0076 0B       		.uleb128 0xb
 2588 0077 00       		.byte	0
 2589 0078 00       		.byte	0
 2590 0079 0A       		.uleb128 0xa
 2591 007a 0F       		.uleb128 0xf
 2592 007b 00       		.byte	0
 2593 007c 0B       		.uleb128 0xb
 2594 007d 0B       		.uleb128 0xb
 2595 007e 49       		.uleb128 0x49
 2596 007f 13       		.uleb128 0x13
 2597 0080 00       		.byte	0
 2598 0081 00       		.byte	0
 2599 0082 0B       		.uleb128 0xb
 2600 0083 13       		.uleb128 0x13
 2601 0084 01       		.byte	0x1
 2602 0085 03       		.uleb128 0x3
 2603 0086 0E       		.uleb128 0xe
 2604 0087 0B       		.uleb128 0xb
 2605 0088 0B       		.uleb128 0xb
 2606 0089 3A       		.uleb128 0x3a
 2607 008a 0B       		.uleb128 0xb
 2608 008b 3B       		.uleb128 0x3b
 2609 008c 05       		.uleb128 0x5
 2610 008d 01       		.uleb128 0x1
 2611 008e 13       		.uleb128 0x13
ARM GAS  C:\Users\Luis\AppData\Local\Temp\cctuEKFp.s 			page 47


 2612 008f 00       		.byte	0
 2613 0090 00       		.byte	0
 2614 0091 0C       		.uleb128 0xc
 2615 0092 15       		.uleb128 0x15
 2616 0093 01       		.byte	0x1
 2617 0094 27       		.uleb128 0x27
 2618 0095 19       		.uleb128 0x19
 2619 0096 01       		.uleb128 0x1
 2620 0097 13       		.uleb128 0x13
 2621 0098 00       		.byte	0
 2622 0099 00       		.byte	0
 2623 009a 0D       		.uleb128 0xd
 2624 009b 05       		.uleb128 0x5
 2625 009c 00       		.byte	0
 2626 009d 49       		.uleb128 0x49
 2627 009e 13       		.uleb128 0x13
 2628 009f 00       		.byte	0
 2629 00a0 00       		.byte	0
 2630 00a1 0E       		.uleb128 0xe
 2631 00a2 0F       		.uleb128 0xf
 2632 00a3 00       		.byte	0
 2633 00a4 0B       		.uleb128 0xb
 2634 00a5 0B       		.uleb128 0xb
 2635 00a6 00       		.byte	0
 2636 00a7 00       		.byte	0
 2637 00a8 0F       		.uleb128 0xf
 2638 00a9 13       		.uleb128 0x13
 2639 00aa 01       		.byte	0x1
 2640 00ab 03       		.uleb128 0x3
 2641 00ac 0E       		.uleb128 0xe
 2642 00ad 0B       		.uleb128 0xb
 2643 00ae 05       		.uleb128 0x5
 2644 00af 3A       		.uleb128 0x3a
 2645 00b0 0B       		.uleb128 0xb
 2646 00b1 3B       		.uleb128 0x3b
 2647 00b2 05       		.uleb128 0x5
 2648 00b3 01       		.uleb128 0x1
 2649 00b4 13       		.uleb128 0x13
 2650 00b5 00       		.byte	0
 2651 00b6 00       		.byte	0
 2652 00b7 10       		.uleb128 0x10
 2653 00b8 0D       		.uleb128 0xd
 2654 00b9 00       		.byte	0
 2655 00ba 03       		.uleb128 0x3
 2656 00bb 0E       		.uleb128 0xe
 2657 00bc 3A       		.uleb128 0x3a
 2658 00bd 0B       		.uleb128 0xb
 2659 00be 3B       		.uleb128 0x3b
 2660 00bf 05       		.uleb128 0x5
 2661 00c0 49       		.uleb128 0x49
 2662 00c1 13       		.uleb128 0x13
 2663 00c2 38       		.uleb128 0x38
 2664 00c3 05       		.uleb128 0x5
 2665 00c4 00       		.byte	0
 2666 00c5 00       		.byte	0
 2667 00c6 11       		.uleb128 0x11
 2668 00c7 0D       		.uleb128 0xd
ARM GAS  C:\Users\Luis\AppData\Local\Temp\cctuEKFp.s 			page 48


 2669 00c8 00       		.byte	0
 2670 00c9 03       		.uleb128 0x3
 2671 00ca 08       		.uleb128 0x8
 2672 00cb 3A       		.uleb128 0x3a
 2673 00cc 0B       		.uleb128 0xb
 2674 00cd 3B       		.uleb128 0x3b
 2675 00ce 05       		.uleb128 0x5
 2676 00cf 49       		.uleb128 0x49
 2677 00d0 13       		.uleb128 0x13
 2678 00d1 38       		.uleb128 0x38
 2679 00d2 05       		.uleb128 0x5
 2680 00d3 00       		.byte	0
 2681 00d4 00       		.byte	0
 2682 00d5 12       		.uleb128 0x12
 2683 00d6 0D       		.uleb128 0xd
 2684 00d7 00       		.byte	0
 2685 00d8 03       		.uleb128 0x3
 2686 00d9 08       		.uleb128 0x8
 2687 00da 3A       		.uleb128 0x3a
 2688 00db 0B       		.uleb128 0xb
 2689 00dc 3B       		.uleb128 0x3b
 2690 00dd 0B       		.uleb128 0xb
 2691 00de 49       		.uleb128 0x49
 2692 00df 13       		.uleb128 0x13
 2693 00e0 38       		.uleb128 0x38
 2694 00e1 0B       		.uleb128 0xb
 2695 00e2 00       		.byte	0
 2696 00e3 00       		.byte	0
 2697 00e4 13       		.uleb128 0x13
 2698 00e5 13       		.uleb128 0x13
 2699 00e6 01       		.byte	0x1
 2700 00e7 0B       		.uleb128 0xb
 2701 00e8 0B       		.uleb128 0xb
 2702 00e9 3A       		.uleb128 0x3a
 2703 00ea 0B       		.uleb128 0xb
 2704 00eb 3B       		.uleb128 0x3b
 2705 00ec 0B       		.uleb128 0xb
 2706 00ed 01       		.uleb128 0x1
 2707 00ee 13       		.uleb128 0x13
 2708 00ef 00       		.byte	0
 2709 00f0 00       		.byte	0
 2710 00f1 14       		.uleb128 0x14
 2711 00f2 13       		.uleb128 0x13
 2712 00f3 01       		.byte	0x1
 2713 00f4 0B       		.uleb128 0xb
 2714 00f5 05       		.uleb128 0x5
 2715 00f6 3A       		.uleb128 0x3a
 2716 00f7 0B       		.uleb128 0xb
 2717 00f8 3B       		.uleb128 0x3b
 2718 00f9 0B       		.uleb128 0xb
 2719 00fa 01       		.uleb128 0x1
 2720 00fb 13       		.uleb128 0x13
 2721 00fc 00       		.byte	0
 2722 00fd 00       		.byte	0
 2723 00fe 15       		.uleb128 0x15
 2724 00ff 01       		.uleb128 0x1
 2725 0100 01       		.byte	0x1
ARM GAS  C:\Users\Luis\AppData\Local\Temp\cctuEKFp.s 			page 49


 2726 0101 49       		.uleb128 0x49
 2727 0102 13       		.uleb128 0x13
 2728 0103 01       		.uleb128 0x1
 2729 0104 13       		.uleb128 0x13
 2730 0105 00       		.byte	0
 2731 0106 00       		.byte	0
 2732 0107 16       		.uleb128 0x16
 2733 0108 21       		.uleb128 0x21
 2734 0109 00       		.byte	0
 2735 010a 49       		.uleb128 0x49
 2736 010b 13       		.uleb128 0x13
 2737 010c 2F       		.uleb128 0x2f
 2738 010d 0B       		.uleb128 0xb
 2739 010e 00       		.byte	0
 2740 010f 00       		.byte	0
 2741 0110 17       		.uleb128 0x17
 2742 0111 17       		.uleb128 0x17
 2743 0112 01       		.byte	0x1
 2744 0113 0B       		.uleb128 0xb
 2745 0114 0B       		.uleb128 0xb
 2746 0115 3A       		.uleb128 0x3a
 2747 0116 0B       		.uleb128 0xb
 2748 0117 3B       		.uleb128 0x3b
 2749 0118 0B       		.uleb128 0xb
 2750 0119 01       		.uleb128 0x1
 2751 011a 13       		.uleb128 0x13
 2752 011b 00       		.byte	0
 2753 011c 00       		.byte	0
 2754 011d 18       		.uleb128 0x18
 2755 011e 0D       		.uleb128 0xd
 2756 011f 00       		.byte	0
 2757 0120 03       		.uleb128 0x3
 2758 0121 0E       		.uleb128 0xe
 2759 0122 3A       		.uleb128 0x3a
 2760 0123 0B       		.uleb128 0xb
 2761 0124 3B       		.uleb128 0x3b
 2762 0125 05       		.uleb128 0x5
 2763 0126 49       		.uleb128 0x49
 2764 0127 13       		.uleb128 0x13
 2765 0128 00       		.byte	0
 2766 0129 00       		.byte	0
 2767 012a 19       		.uleb128 0x19
 2768 012b 26       		.uleb128 0x26
 2769 012c 00       		.byte	0
 2770 012d 49       		.uleb128 0x49
 2771 012e 13       		.uleb128 0x13
 2772 012f 00       		.byte	0
 2773 0130 00       		.byte	0
 2774 0131 1A       		.uleb128 0x1a
 2775 0132 15       		.uleb128 0x15
 2776 0133 01       		.byte	0x1
 2777 0134 27       		.uleb128 0x27
 2778 0135 19       		.uleb128 0x19
 2779 0136 49       		.uleb128 0x49
 2780 0137 13       		.uleb128 0x13
 2781 0138 01       		.uleb128 0x1
 2782 0139 13       		.uleb128 0x13
ARM GAS  C:\Users\Luis\AppData\Local\Temp\cctuEKFp.s 			page 50


 2783 013a 00       		.byte	0
 2784 013b 00       		.byte	0
 2785 013c 1B       		.uleb128 0x1b
 2786 013d 2E       		.uleb128 0x2e
 2787 013e 01       		.byte	0x1
 2788 013f 03       		.uleb128 0x3
 2789 0140 0E       		.uleb128 0xe
 2790 0141 3A       		.uleb128 0x3a
 2791 0142 0B       		.uleb128 0xb
 2792 0143 3B       		.uleb128 0x3b
 2793 0144 05       		.uleb128 0x5
 2794 0145 27       		.uleb128 0x27
 2795 0146 19       		.uleb128 0x19
 2796 0147 11       		.uleb128 0x11
 2797 0148 01       		.uleb128 0x1
 2798 0149 12       		.uleb128 0x12
 2799 014a 06       		.uleb128 0x6
 2800 014b 40       		.uleb128 0x40
 2801 014c 18       		.uleb128 0x18
 2802 014d 9642     		.uleb128 0x2116
 2803 014f 19       		.uleb128 0x19
 2804 0150 01       		.uleb128 0x1
 2805 0151 13       		.uleb128 0x13
 2806 0152 00       		.byte	0
 2807 0153 00       		.byte	0
 2808 0154 1C       		.uleb128 0x1c
 2809 0155 05       		.uleb128 0x5
 2810 0156 00       		.byte	0
 2811 0157 03       		.uleb128 0x3
 2812 0158 0E       		.uleb128 0xe
 2813 0159 3A       		.uleb128 0x3a
 2814 015a 0B       		.uleb128 0xb
 2815 015b 3B       		.uleb128 0x3b
 2816 015c 05       		.uleb128 0x5
 2817 015d 49       		.uleb128 0x49
 2818 015e 13       		.uleb128 0x13
 2819 015f 02       		.uleb128 0x2
 2820 0160 18       		.uleb128 0x18
 2821 0161 00       		.byte	0
 2822 0162 00       		.byte	0
 2823 0163 1D       		.uleb128 0x1d
 2824 0164 2E       		.uleb128 0x2e
 2825 0165 01       		.byte	0x1
 2826 0166 3F       		.uleb128 0x3f
 2827 0167 19       		.uleb128 0x19
 2828 0168 03       		.uleb128 0x3
 2829 0169 0E       		.uleb128 0xe
 2830 016a 3A       		.uleb128 0x3a
 2831 016b 0B       		.uleb128 0xb
 2832 016c 3B       		.uleb128 0x3b
 2833 016d 0B       		.uleb128 0xb
 2834 016e 27       		.uleb128 0x27
 2835 016f 19       		.uleb128 0x19
 2836 0170 49       		.uleb128 0x49
 2837 0171 13       		.uleb128 0x13
 2838 0172 11       		.uleb128 0x11
 2839 0173 01       		.uleb128 0x1
ARM GAS  C:\Users\Luis\AppData\Local\Temp\cctuEKFp.s 			page 51


 2840 0174 12       		.uleb128 0x12
 2841 0175 06       		.uleb128 0x6
 2842 0176 40       		.uleb128 0x40
 2843 0177 18       		.uleb128 0x18
 2844 0178 9742     		.uleb128 0x2117
 2845 017a 19       		.uleb128 0x19
 2846 017b 01       		.uleb128 0x1
 2847 017c 13       		.uleb128 0x13
 2848 017d 00       		.byte	0
 2849 017e 00       		.byte	0
 2850 017f 1E       		.uleb128 0x1e
 2851 0180 05       		.uleb128 0x5
 2852 0181 00       		.byte	0
 2853 0182 03       		.uleb128 0x3
 2854 0183 0E       		.uleb128 0xe
 2855 0184 3A       		.uleb128 0x3a
 2856 0185 0B       		.uleb128 0xb
 2857 0186 3B       		.uleb128 0x3b
 2858 0187 0B       		.uleb128 0xb
 2859 0188 49       		.uleb128 0x49
 2860 0189 13       		.uleb128 0x13
 2861 018a 02       		.uleb128 0x2
 2862 018b 18       		.uleb128 0x18
 2863 018c 00       		.byte	0
 2864 018d 00       		.byte	0
 2865 018e 1F       		.uleb128 0x1f
 2866 018f 34       		.uleb128 0x34
 2867 0190 00       		.byte	0
 2868 0191 03       		.uleb128 0x3
 2869 0192 0E       		.uleb128 0xe
 2870 0193 3A       		.uleb128 0x3a
 2871 0194 0B       		.uleb128 0xb
 2872 0195 3B       		.uleb128 0x3b
 2873 0196 0B       		.uleb128 0xb
 2874 0197 49       		.uleb128 0x49
 2875 0198 13       		.uleb128 0x13
 2876 0199 02       		.uleb128 0x2
 2877 019a 18       		.uleb128 0x18
 2878 019b 00       		.byte	0
 2879 019c 00       		.byte	0
 2880 019d 20       		.uleb128 0x20
 2881 019e 2E       		.uleb128 0x2e
 2882 019f 01       		.byte	0x1
 2883 01a0 3F       		.uleb128 0x3f
 2884 01a1 19       		.uleb128 0x19
 2885 01a2 03       		.uleb128 0x3
 2886 01a3 0E       		.uleb128 0xe
 2887 01a4 3A       		.uleb128 0x3a
 2888 01a5 0B       		.uleb128 0xb
 2889 01a6 3B       		.uleb128 0x3b
 2890 01a7 0B       		.uleb128 0xb
 2891 01a8 27       		.uleb128 0x27
 2892 01a9 19       		.uleb128 0x19
 2893 01aa 49       		.uleb128 0x49
 2894 01ab 13       		.uleb128 0x13
 2895 01ac 11       		.uleb128 0x11
 2896 01ad 01       		.uleb128 0x1
ARM GAS  C:\Users\Luis\AppData\Local\Temp\cctuEKFp.s 			page 52


 2897 01ae 12       		.uleb128 0x12
 2898 01af 06       		.uleb128 0x6
 2899 01b0 40       		.uleb128 0x40
 2900 01b1 18       		.uleb128 0x18
 2901 01b2 9642     		.uleb128 0x2116
 2902 01b4 19       		.uleb128 0x19
 2903 01b5 01       		.uleb128 0x1
 2904 01b6 13       		.uleb128 0x13
 2905 01b7 00       		.byte	0
 2906 01b8 00       		.byte	0
 2907 01b9 21       		.uleb128 0x21
 2908 01ba 05       		.uleb128 0x5
 2909 01bb 00       		.byte	0
 2910 01bc 03       		.uleb128 0x3
 2911 01bd 08       		.uleb128 0x8
 2912 01be 3A       		.uleb128 0x3a
 2913 01bf 0B       		.uleb128 0xb
 2914 01c0 3B       		.uleb128 0x3b
 2915 01c1 0B       		.uleb128 0xb
 2916 01c2 49       		.uleb128 0x49
 2917 01c3 13       		.uleb128 0x13
 2918 01c4 02       		.uleb128 0x2
 2919 01c5 18       		.uleb128 0x18
 2920 01c6 00       		.byte	0
 2921 01c7 00       		.byte	0
 2922 01c8 22       		.uleb128 0x22
 2923 01c9 34       		.uleb128 0x34
 2924 01ca 00       		.byte	0
 2925 01cb 03       		.uleb128 0x3
 2926 01cc 08       		.uleb128 0x8
 2927 01cd 3A       		.uleb128 0x3a
 2928 01ce 0B       		.uleb128 0xb
 2929 01cf 3B       		.uleb128 0x3b
 2930 01d0 0B       		.uleb128 0xb
 2931 01d1 49       		.uleb128 0x49
 2932 01d2 13       		.uleb128 0x13
 2933 01d3 02       		.uleb128 0x2
 2934 01d4 18       		.uleb128 0x18
 2935 01d5 00       		.byte	0
 2936 01d6 00       		.byte	0
 2937 01d7 23       		.uleb128 0x23
 2938 01d8 2E       		.uleb128 0x2e
 2939 01d9 01       		.byte	0x1
 2940 01da 3F       		.uleb128 0x3f
 2941 01db 19       		.uleb128 0x19
 2942 01dc 03       		.uleb128 0x3
 2943 01dd 0E       		.uleb128 0xe
 2944 01de 3A       		.uleb128 0x3a
 2945 01df 0B       		.uleb128 0xb
 2946 01e0 3B       		.uleb128 0x3b
 2947 01e1 05       		.uleb128 0x5
 2948 01e2 27       		.uleb128 0x27
 2949 01e3 19       		.uleb128 0x19
 2950 01e4 49       		.uleb128 0x49
 2951 01e5 13       		.uleb128 0x13
 2952 01e6 11       		.uleb128 0x11
 2953 01e7 01       		.uleb128 0x1
ARM GAS  C:\Users\Luis\AppData\Local\Temp\cctuEKFp.s 			page 53


 2954 01e8 12       		.uleb128 0x12
 2955 01e9 06       		.uleb128 0x6
 2956 01ea 40       		.uleb128 0x40
 2957 01eb 18       		.uleb128 0x18
 2958 01ec 9642     		.uleb128 0x2116
 2959 01ee 19       		.uleb128 0x19
 2960 01ef 01       		.uleb128 0x1
 2961 01f0 13       		.uleb128 0x13
 2962 01f1 00       		.byte	0
 2963 01f2 00       		.byte	0
 2964 01f3 24       		.uleb128 0x24
 2965 01f4 34       		.uleb128 0x34
 2966 01f5 00       		.byte	0
 2967 01f6 03       		.uleb128 0x3
 2968 01f7 08       		.uleb128 0x8
 2969 01f8 3A       		.uleb128 0x3a
 2970 01f9 0B       		.uleb128 0xb
 2971 01fa 3B       		.uleb128 0x3b
 2972 01fb 05       		.uleb128 0x5
 2973 01fc 49       		.uleb128 0x49
 2974 01fd 13       		.uleb128 0x13
 2975 01fe 02       		.uleb128 0x2
 2976 01ff 18       		.uleb128 0x18
 2977 0200 00       		.byte	0
 2978 0201 00       		.byte	0
 2979 0202 25       		.uleb128 0x25
 2980 0203 2E       		.uleb128 0x2e
 2981 0204 01       		.byte	0x1
 2982 0205 3F       		.uleb128 0x3f
 2983 0206 19       		.uleb128 0x19
 2984 0207 03       		.uleb128 0x3
 2985 0208 0E       		.uleb128 0xe
 2986 0209 3A       		.uleb128 0x3a
 2987 020a 0B       		.uleb128 0xb
 2988 020b 3B       		.uleb128 0x3b
 2989 020c 05       		.uleb128 0x5
 2990 020d 27       		.uleb128 0x27
 2991 020e 19       		.uleb128 0x19
 2992 020f 49       		.uleb128 0x49
 2993 0210 13       		.uleb128 0x13
 2994 0211 11       		.uleb128 0x11
 2995 0212 01       		.uleb128 0x1
 2996 0213 12       		.uleb128 0x12
 2997 0214 06       		.uleb128 0x6
 2998 0215 40       		.uleb128 0x40
 2999 0216 18       		.uleb128 0x18
 3000 0217 9742     		.uleb128 0x2117
 3001 0219 19       		.uleb128 0x19
 3002 021a 01       		.uleb128 0x1
 3003 021b 13       		.uleb128 0x13
 3004 021c 00       		.byte	0
 3005 021d 00       		.byte	0
 3006 021e 26       		.uleb128 0x26
 3007 021f 05       		.uleb128 0x5
 3008 0220 00       		.byte	0
 3009 0221 03       		.uleb128 0x3
 3010 0222 08       		.uleb128 0x8
ARM GAS  C:\Users\Luis\AppData\Local\Temp\cctuEKFp.s 			page 54


 3011 0223 3A       		.uleb128 0x3a
 3012 0224 0B       		.uleb128 0xb
 3013 0225 3B       		.uleb128 0x3b
 3014 0226 05       		.uleb128 0x5
 3015 0227 49       		.uleb128 0x49
 3016 0228 13       		.uleb128 0x13
 3017 0229 02       		.uleb128 0x2
 3018 022a 18       		.uleb128 0x18
 3019 022b 00       		.byte	0
 3020 022c 00       		.byte	0
 3021 022d 27       		.uleb128 0x27
 3022 022e 34       		.uleb128 0x34
 3023 022f 00       		.byte	0
 3024 0230 03       		.uleb128 0x3
 3025 0231 0E       		.uleb128 0xe
 3026 0232 3A       		.uleb128 0x3a
 3027 0233 0B       		.uleb128 0xb
 3028 0234 3B       		.uleb128 0x3b
 3029 0235 05       		.uleb128 0x5
 3030 0236 49       		.uleb128 0x49
 3031 0237 13       		.uleb128 0x13
 3032 0238 02       		.uleb128 0x2
 3033 0239 18       		.uleb128 0x18
 3034 023a 00       		.byte	0
 3035 023b 00       		.byte	0
 3036 023c 28       		.uleb128 0x28
 3037 023d 34       		.uleb128 0x34
 3038 023e 00       		.byte	0
 3039 023f 03       		.uleb128 0x3
 3040 0240 0E       		.uleb128 0xe
 3041 0241 3A       		.uleb128 0x3a
 3042 0242 0B       		.uleb128 0xb
 3043 0243 3B       		.uleb128 0x3b
 3044 0244 05       		.uleb128 0x5
 3045 0245 49       		.uleb128 0x49
 3046 0246 13       		.uleb128 0x13
 3047 0247 3F       		.uleb128 0x3f
 3048 0248 19       		.uleb128 0x19
 3049 0249 3C       		.uleb128 0x3c
 3050 024a 19       		.uleb128 0x19
 3051 024b 00       		.byte	0
 3052 024c 00       		.byte	0
 3053 024d 29       		.uleb128 0x29
 3054 024e 34       		.uleb128 0x34
 3055 024f 00       		.byte	0
 3056 0250 03       		.uleb128 0x3
 3057 0251 08       		.uleb128 0x8
 3058 0252 3A       		.uleb128 0x3a
 3059 0253 0B       		.uleb128 0xb
 3060 0254 3B       		.uleb128 0x3b
 3061 0255 05       		.uleb128 0x5
 3062 0256 49       		.uleb128 0x49
 3063 0257 13       		.uleb128 0x13
 3064 0258 3F       		.uleb128 0x3f
 3065 0259 19       		.uleb128 0x19
 3066 025a 3C       		.uleb128 0x3c
 3067 025b 19       		.uleb128 0x19
ARM GAS  C:\Users\Luis\AppData\Local\Temp\cctuEKFp.s 			page 55


 3068 025c 00       		.byte	0
 3069 025d 00       		.byte	0
 3070 025e 2A       		.uleb128 0x2a
 3071 025f 34       		.uleb128 0x34
 3072 0260 00       		.byte	0
 3073 0261 03       		.uleb128 0x3
 3074 0262 0E       		.uleb128 0xe
 3075 0263 3A       		.uleb128 0x3a
 3076 0264 0B       		.uleb128 0xb
 3077 0265 3B       		.uleb128 0x3b
 3078 0266 0B       		.uleb128 0xb
 3079 0267 49       		.uleb128 0x49
 3080 0268 13       		.uleb128 0x13
 3081 0269 3F       		.uleb128 0x3f
 3082 026a 19       		.uleb128 0x19
 3083 026b 02       		.uleb128 0x2
 3084 026c 18       		.uleb128 0x18
 3085 026d 00       		.byte	0
 3086 026e 00       		.byte	0
 3087 026f 00       		.byte	0
 3088              		.section	.debug_aranges,"",%progbits
 3089 0000 4C000000 		.4byte	0x4c
 3090 0004 0200     		.2byte	0x2
 3091 0006 00000000 		.4byte	.Ldebug_info0
 3092 000a 04       		.byte	0x4
 3093 000b 00       		.byte	0
 3094 000c 0000     		.2byte	0
 3095 000e 0000     		.2byte	0
 3096 0010 00000000 		.4byte	.LFB230
 3097 0014 14000000 		.4byte	.LFE230-.LFB230
 3098 0018 00000000 		.4byte	.LFB260
 3099 001c 78000000 		.4byte	.LFE260-.LFB260
 3100 0020 00000000 		.4byte	.LFB261
 3101 0024 56000000 		.4byte	.LFE261-.LFB261
 3102 0028 00000000 		.4byte	.LFB262
 3103 002c 2A000000 		.4byte	.LFE262-.LFB262
 3104 0030 00000000 		.4byte	.LFB263
 3105 0034 40020000 		.4byte	.LFE263-.LFB263
 3106 0038 00000000 		.4byte	.LFB264
 3107 003c 20000000 		.4byte	.LFE264-.LFB264
 3108 0040 00000000 		.4byte	.LFB265
 3109 0044 00010000 		.4byte	.LFE265-.LFB265
 3110 0048 00000000 		.4byte	0
 3111 004c 00000000 		.4byte	0
 3112              		.section	.debug_ranges,"",%progbits
 3113              	.Ldebug_ranges0:
 3114 0000 00000000 		.4byte	.LFB230
 3115 0004 14000000 		.4byte	.LFE230
 3116 0008 00000000 		.4byte	.LFB260
 3117 000c 78000000 		.4byte	.LFE260
 3118 0010 00000000 		.4byte	.LFB261
 3119 0014 56000000 		.4byte	.LFE261
 3120 0018 00000000 		.4byte	.LFB262
 3121 001c 2A000000 		.4byte	.LFE262
 3122 0020 00000000 		.4byte	.LFB263
 3123 0024 40020000 		.4byte	.LFE263
 3124 0028 00000000 		.4byte	.LFB264
ARM GAS  C:\Users\Luis\AppData\Local\Temp\cctuEKFp.s 			page 56


 3125 002c 20000000 		.4byte	.LFE264
 3126 0030 00000000 		.4byte	.LFB265
 3127 0034 00010000 		.4byte	.LFE265
 3128 0038 00000000 		.4byte	0
 3129 003c 00000000 		.4byte	0
 3130              		.section	.debug_line,"",%progbits
 3131              	.Ldebug_line0:
 3132 0000 27040000 		.section	.debug_str,"MS",%progbits,1
 3132      0200B202 
 3132      00000201 
 3132      FB0E0D00 
 3132      01010101 
 3133              	.LASF97:
 3134 0000 74625F70 		.ascii	"tb_ptr\000"
 3134      747200
 3135              	.LASF137:
 3136 0007 70627566 		.ascii	"pbuf\000"
 3136      00
 3137              	.LASF91:
 3138 000c 73655F74 		.ascii	"se_time\000"
 3138      696D6500 
 3139              	.LASF1:
 3140 0014 73697A65 		.ascii	"size_t\000"
 3140      5F7400
 3141              	.LASF14:
 3142 001b 75696E74 		.ascii	"uint64_t\000"
 3142      36345F74 
 3142      00
 3143              	.LASF164:
 3144 0024 70617274 		.ascii	"parts\000"
 3144      7300
 3145              	.LASF165:
 3146 002a 69706164 		.ascii	"ipaddr_ntoa\000"
 3146      64725F6E 
 3146      746F6100 
 3147              	.LASF90:
 3148 0036 706F7274 		.ascii	"port_intctx\000"
 3148      5F696E74 
 3148      63747800 
 3149              	.LASF53:
 3150 0042 63685F74 		.ascii	"ch_threads_queue\000"
 3150      68726561 
 3150      64735F71 
 3150      75657565 
 3150      00
 3151              	.LASF73:
 3152 0053 73797374 		.ascii	"system_debug_t\000"
 3152      656D5F64 
 3152      65627567 
 3152      5F7400
 3153              	.LASF141:
 3154 0062 74797065 		.ascii	"type\000"
 3154      00
 3155              	.LASF103:
 3156 0067 776F7273 		.ascii	"worst\000"
 3156      7400
 3157              	.LASF106:
ARM GAS  C:\Users\Luis\AppData\Local\Temp\cctuEKFp.s 			page 57


 3158 006d 74696D65 		.ascii	"time_measurement_t\000"
 3158      5F6D6561 
 3158      73757265 
 3158      6D656E74 
 3158      5F7400
 3159              	.LASF15:
 3160 0080 6C6F6E67 		.ascii	"long long unsigned int\000"
 3160      206C6F6E 
 3160      6720756E 
 3160      7369676E 
 3160      65642069 
 3161              	.LASF99:
 3162 0097 63685F74 		.ascii	"ch_trace_buffer_t\000"
 3162      72616365 
 3162      5F627566 
 3162      6665725F 
 3162      7400
 3163              	.LASF94:
 3164 00a9 73655F73 		.ascii	"se_state\000"
 3164      74617465 
 3164      00
 3165              	.LASF120:
 3166 00b2 735F7175 		.ascii	"s_queue\000"
 3166      65756500 
 3167              	.LASF113:
 3168 00ba 65786974 		.ascii	"exitcode\000"
 3168      636F6465 
 3168      00
 3169              	.LASF83:
 3170 00c3 6D61696E 		.ascii	"mainthread\000"
 3170      74687265 
 3170      616400
 3171              	.LASF130:
 3172 00ce 73385F74 		.ascii	"s8_t\000"
 3172      00
 3173              	.LASF70:
 3174 00d3 76697274 		.ascii	"virtual_timers_list_t\000"
 3174      75616C5F 
 3174      74696D65 
 3174      72735F6C 
 3174      6973745F 
 3175              	.LASF169:
 3176 00e9 49544D5F 		.ascii	"ITM_RxBuffer\000"
 3176      52784275 
 3176      66666572 
 3176      00
 3177              	.LASF138:
 3178 00f6 6E657874 		.ascii	"next\000"
 3178      00
 3179              	.LASF17:
 3180 00fb 72747469 		.ascii	"rttime_t\000"
 3180      6D655F74 
 3180      00
 3181              	.LASF30:
 3182 0104 705F7072 		.ascii	"p_prio\000"
 3182      696F00
 3183              	.LASF13:
ARM GAS  C:\Users\Luis\AppData\Local\Temp\cctuEKFp.s 			page 58


 3184 010b 6C6F6E67 		.ascii	"long long int\000"
 3184      206C6F6E 
 3184      6720696E 
 3184      7400
 3185              	.LASF3:
 3186 0119 7369676E 		.ascii	"signed char\000"
 3186      65642063 
 3186      68617200 
 3187              	.LASF129:
 3188 0125 75385F74 		.ascii	"u8_t\000"
 3188      00
 3189              	.LASF45:
 3190 012a 705F6D70 		.ascii	"p_mpool\000"
 3190      6F6F6C00 
 3191              	.LASF123:
 3192 0132 6D5F7175 		.ascii	"m_queue\000"
 3192      65756500 
 3193              	.LASF150:
 3194 013a 68776164 		.ascii	"hwaddr\000"
 3194      647200
 3195              	.LASF156:
 3196 0141 6970345F 		.ascii	"ip4_addr_isbroadcast\000"
 3196      61646472 
 3196      5F697362 
 3196      726F6164 
 3196      63617374 
 3197              	.LASF82:
 3198 0156 76746C69 		.ascii	"vtlist\000"
 3198      737400
 3199              	.LASF140:
 3200 015d 746F745F 		.ascii	"tot_len\000"
 3200      6C656E00 
 3201              	.LASF148:
 3202 0165 73746174 		.ascii	"state\000"
 3202      6500
 3203              	.LASF80:
 3204 016b 63685F73 		.ascii	"ch_system\000"
 3204      79737465 
 3204      6D00
 3205              	.LASF10:
 3206 0175 6C6F6E67 		.ascii	"long int\000"
 3206      20696E74 
 3206      00
 3207              	.LASF19:
 3208 017e 74737461 		.ascii	"tstate_t\000"
 3208      74655F74 
 3208      00
 3209              	.LASF92:
 3210 0187 73655F74 		.ascii	"se_tp\000"
 3210      7000
 3211              	.LASF7:
 3212 018d 75696E74 		.ascii	"uint16_t\000"
 3212      31365F74 
 3212      00
 3213              	.LASF149:
 3214 0196 68776164 		.ascii	"hwaddr_len\000"
 3214      64725F6C 
ARM GAS  C:\Users\Luis\AppData\Local\Temp\cctuEKFp.s 			page 59


 3214      656E00
 3215              	.LASF32:
 3216 01a1 705F6E65 		.ascii	"p_newer\000"
 3216      77657200 
 3217              	.LASF144:
 3218 01a9 6E65746D 		.ascii	"netmask\000"
 3218      61736B00 
 3219              	.LASF96:
 3220 01b1 74625F73 		.ascii	"tb_size\000"
 3220      697A6500 
 3221              	.LASF59:
 3222 01b9 725F6E65 		.ascii	"r_newer\000"
 3222      77657200 
 3223              	.LASF159:
 3224 01c1 6D61736B 		.ascii	"mask\000"
 3224      00
 3225              	.LASF87:
 3226 01c6 72656761 		.ascii	"regarm_t\000"
 3226      726D5F74 
 3226      00
 3227              	.LASF66:
 3228 01cf 76745F70 		.ascii	"vt_prev\000"
 3228      72657600 
 3229              	.LASF174:
 3230 01d7 433A5C55 		.ascii	"C:\\Users\\Luis\\git\\DSP-Library-Lanin\\examples\\"
 3230      73657273 
 3230      5C4C7569 
 3230      735C6769 
 3230      745C4453 
 3231 0204 53544D33 		.ascii	"STM32F407_EMTECH-LWIP\000"
 3231      32463430 
 3231      375F454D 
 3231      54454348 
 3231      2D4C5749 
 3232              	.LASF74:
 3233 021a 63685F73 		.ascii	"ch_system_debug\000"
 3233      79737465 
 3233      6D5F6465 
 3233      62756700 
 3234              	.LASF127:
 3235 022a 6D757465 		.ascii	"mutex_t\000"
 3235      785F7400 
 3236              	.LASF77:
 3237 0232 6C6F636B 		.ascii	"lock_cnt\000"
 3237      5F636E74 
 3237      00
 3238              	.LASF85:
 3239 023b 69646C65 		.ascii	"idle_thread_wa\000"
 3239      5F746872 
 3239      6561645F 
 3239      776100
 3240              	.LASF24:
 3241 024a 636E745F 		.ascii	"cnt_t\000"
 3241      7400
 3242              	.LASF35:
 3243 0250 705F7374 		.ascii	"p_stklimit\000"
 3243      6B6C696D 
ARM GAS  C:\Users\Luis\AppData\Local\Temp\cctuEKFp.s 			page 60


 3243      697400
 3244              	.LASF0:
 3245 025b 756E7369 		.ascii	"unsigned int\000"
 3245      676E6564 
 3245      20696E74 
 3245      00
 3246              	.LASF168:
 3247 0268 735F6164 		.ascii	"s_addr\000"
 3247      647200
 3248              	.LASF65:
 3249 026f 76745F6E 		.ascii	"vt_next\000"
 3249      65787400 
 3250              	.LASF116:
 3251 0277 77747365 		.ascii	"wtsemp\000"
 3251      6D7000
 3252              	.LASF40:
 3253 027e 705F6D73 		.ascii	"p_msgqueue\000"
 3253      67717565 
 3253      756500
 3254              	.LASF132:
 3255 0289 7533325F 		.ascii	"u32_t\000"
 3255      7400
 3256              	.LASF47:
 3257 028f 746C7350 		.ascii	"tlsPtr\000"
 3257      747200
 3258              	.LASF107:
 3259 0296 6E5F6972 		.ascii	"n_irq\000"
 3259      7100
 3260              	.LASF121:
 3261 029c 735F636E 		.ascii	"s_cnt\000"
 3261      7400
 3262              	.LASF151:
 3263 02a2 6E616D65 		.ascii	"name\000"
 3263      00
 3264              	.LASF8:
 3265 02a7 73686F72 		.ascii	"short unsigned int\000"
 3265      7420756E 
 3265      7369676E 
 3265      65642069 
 3265      6E7400
 3266              	.LASF111:
 3267 02ba 6B65726E 		.ascii	"kernel_stats_t\000"
 3267      656C5F73 
 3267      74617473 
 3267      5F7400
 3268              	.LASF50:
 3269 02c9 63685F74 		.ascii	"ch_thread\000"
 3269      68726561 
 3269      6400
 3270              	.LASF160:
 3271 02d3 6E6D5F68 		.ascii	"nm_hostorder\000"
 3271      6F73746F 
 3271      72646572 
 3271      00
 3272              	.LASF22:
 3273 02e0 6D73675F 		.ascii	"msg_t\000"
 3273      7400
ARM GAS  C:\Users\Luis\AppData\Local\Temp\cctuEKFp.s 			page 61


 3274              	.LASF104:
 3275 02e6 6C617374 		.ascii	"last\000"
 3275      00
 3276              	.LASF25:
 3277 02eb 75636E74 		.ascii	"ucnt_t\000"
 3277      5F7400
 3278              	.LASF79:
 3279 02f2 63685F73 		.ascii	"ch_system_t\000"
 3279      79737465 
 3279      6D5F7400 
 3280              	.LASF18:
 3281 02fe 746D6F64 		.ascii	"tmode_t\000"
 3281      655F7400 
 3282              	.LASF110:
 3283 0306 6D5F6372 		.ascii	"m_crit_isr\000"
 3283      69745F69 
 3283      737200
 3284              	.LASF55:
 3285 0311 63685F72 		.ascii	"ch_ready_list\000"
 3285      65616479 
 3285      5F6C6973 
 3285      7400
 3286              	.LASF23:
 3287 031f 6576656E 		.ascii	"eventmask_t\000"
 3287      746D6173 
 3287      6B5F7400 
 3288              	.LASF88:
 3289 032b 73746B61 		.ascii	"stkalign_t\000"
 3289      6C69676E 
 3289      5F7400
 3290              	.LASF170:
 3291 0336 69705F61 		.ascii	"ip_addr_any\000"
 3291      6464725F 
 3291      616E7900 
 3292              	.LASF166:
 3293 0342 69706164 		.ascii	"ipaddr_ntoa_r\000"
 3293      64725F6E 
 3293      746F615F 
 3293      7200
 3294              	.LASF175:
 3295 0350 6F73616C 		.ascii	"osalSysHalt\000"
 3295      53797348 
 3295      616C7400 
 3296              	.LASF163:
 3297 035c 62617365 		.ascii	"base\000"
 3297      00
 3298              	.LASF146:
 3299 0361 6F757470 		.ascii	"output\000"
 3299      757400
 3300              	.LASF135:
 3301 0368 69705F61 		.ascii	"ip_addr_t\000"
 3301      6464725F 
 3301      7400
 3302              	.LASF39:
 3303 0372 705F7761 		.ascii	"p_waiting\000"
 3303      6974696E 
 3303      6700
ARM GAS  C:\Users\Luis\AppData\Local\Temp\cctuEKFp.s 			page 62


 3304              	.LASF136:
 3305 037c 6572725F 		.ascii	"err_t\000"
 3305      7400
 3306              	.LASF86:
 3307 0382 73697A65 		.ascii	"sizetype\000"
 3307      74797065 
 3307      00
 3308              	.LASF154:
 3309 038b 6E657469 		.ascii	"netif_linkoutput_fn\000"
 3309      665F6C69 
 3309      6E6B6F75 
 3309      74707574 
 3309      5F666E00 
 3310              	.LASF162:
 3311 039f 69706164 		.ascii	"ipaddr_aton\000"
 3311      64725F61 
 3311      746F6E00 
 3312              	.LASF71:
 3313 03ab 63685F76 		.ascii	"ch_virtual_timers_list\000"
 3313      69727475 
 3313      616C5F74 
 3313      696D6572 
 3313      735F6C69 
 3314              	.LASF115:
 3315 03c2 77747472 		.ascii	"wttrp\000"
 3315      7000
 3316              	.LASF143:
 3317 03c8 6E657469 		.ascii	"netif\000"
 3317      6600
 3318              	.LASF139:
 3319 03ce 7061796C 		.ascii	"payload\000"
 3319      6F616400 
 3320              	.LASF95:
 3321 03d6 63685F73 		.ascii	"ch_swc_event_t\000"
 3321      77635F65 
 3321      76656E74 
 3321      5F7400
 3322              	.LASF72:
 3323 03e5 76745F6C 		.ascii	"vt_lasttime\000"
 3323      61737474 
 3323      696D6500 
 3324              	.LASF133:
 3325 03f1 69705F61 		.ascii	"ip_addr\000"
 3325      64647200 
 3326              	.LASF58:
 3327 03f9 725F6374 		.ascii	"r_ctx\000"
 3327      7800
 3328              	.LASF101:
 3329 03ff 746D5F63 		.ascii	"tm_calibration_t\000"
 3329      616C6962 
 3329      72617469 
 3329      6F6E5F74 
 3329      00
 3330              	.LASF171:
 3331 0410 69705F61 		.ascii	"ip_addr_broadcast\000"
 3331      6464725F 
 3331      62726F61 
ARM GAS  C:\Users\Luis\AppData\Local\Temp\cctuEKFp.s 			page 63


 3331      64636173 
 3331      7400
 3332              	.LASF61:
 3333 0422 725F6375 		.ascii	"r_current\000"
 3333      7272656E 
 3333      7400
 3334              	.LASF60:
 3335 042c 725F6F6C 		.ascii	"r_older\000"
 3335      64657200 
 3336              	.LASF105:
 3337 0434 63756D75 		.ascii	"cumulative\000"
 3337      6C617469 
 3337      766500
 3338              	.LASF84:
 3339 043f 6B65726E 		.ascii	"kernel_stats\000"
 3339      656C5F73 
 3339      74617473 
 3339      00
 3340              	.LASF20:
 3341 044c 74726566 		.ascii	"trefs_t\000"
 3341      735F7400 
 3342              	.LASF98:
 3343 0454 74625F62 		.ascii	"tb_buffer\000"
 3343      75666665 
 3343      7200
 3344              	.LASF63:
 3345 045e 76697274 		.ascii	"virtual_timer_t\000"
 3345      75616C5F 
 3345      74696D65 
 3345      725F7400 
 3346              	.LASF29:
 3347 046e 705F7072 		.ascii	"p_prev\000"
 3347      657600
 3348              	.LASF21:
 3349 0475 74707269 		.ascii	"tprio_t\000"
 3349      6F5F7400 
 3350              	.LASF134:
 3351 047d 61646472 		.ascii	"addr\000"
 3351      00
 3352              	.LASF108:
 3353 0482 6E5F6374 		.ascii	"n_ctxswc\000"
 3353      78737763 
 3353      00
 3354              	.LASF128:
 3355 048b 5F426F6F 		.ascii	"_Bool\000"
 3355      6C00
 3356              	.LASF9:
 3357 0491 696E7433 		.ascii	"int32_t\000"
 3357      325F7400 
 3358              	.LASF5:
 3359 0499 756E7369 		.ascii	"unsigned char\000"
 3359      676E6564 
 3359      20636861 
 3359      7200
 3360              	.LASF43:
 3361 04a7 705F6D74 		.ascii	"p_mtxlist\000"
 3361      786C6973 
ARM GAS  C:\Users\Luis\AppData\Local\Temp\cctuEKFp.s 			page 64


 3361      7400
 3362              	.LASF6:
 3363 04b1 73686F72 		.ascii	"short int\000"
 3363      7420696E 
 3363      7400
 3364              	.LASF36:
 3365 04bb 705F7374 		.ascii	"p_state\000"
 3365      61746500 
 3366              	.LASF153:
 3367 04c3 6E657469 		.ascii	"netif_output_fn\000"
 3367      665F6F75 
 3367      74707574 
 3367      5F666E00 
 3368              	.LASF33:
 3369 04d3 705F6F6C 		.ascii	"p_older\000"
 3369      64657200 
 3370              	.LASF57:
 3371 04db 725F7072 		.ascii	"r_prio\000"
 3371      696F00
 3372              	.LASF118:
 3373 04e2 65776D61 		.ascii	"ewmask\000"
 3373      736B00
 3374              	.LASF28:
 3375 04e9 705F6E65 		.ascii	"p_next\000"
 3375      787400
 3376              	.LASF37:
 3377 04f0 705F666C 		.ascii	"p_flags\000"
 3377      61677300 
 3378              	.LASF46:
 3379 04f8 705F7374 		.ascii	"p_stats\000"
 3379      61747300 
 3380              	.LASF167:
 3381 0500 6275666C 		.ascii	"buflen\000"
 3381      656E00
 3382              	.LASF155:
 3383 0507 72656173 		.ascii	"reason\000"
 3383      6F6E00
 3384              	.LASF112:
 3385 050e 7264796D 		.ascii	"rdymsg\000"
 3385      736700
 3386              	.LASF145:
 3387 0515 696E7075 		.ascii	"input\000"
 3387      7400
 3388              	.LASF64:
 3389 051b 63685F76 		.ascii	"ch_virtual_timer\000"
 3389      69727475 
 3389      616C5F74 
 3389      696D6572 
 3389      00
 3390              	.LASF119:
 3391 052c 63685F73 		.ascii	"ch_semaphore\000"
 3391      656D6170 
 3391      686F7265 
 3391      00
 3392              	.LASF42:
 3393 0539 705F6570 		.ascii	"p_epending\000"
 3393      656E6469 
ARM GAS  C:\Users\Luis\AppData\Local\Temp\cctuEKFp.s 			page 65


 3393      6E6700
 3394              	.LASF11:
 3395 0544 75696E74 		.ascii	"uint32_t\000"
 3395      33325F74 
 3395      00
 3396              	.LASF117:
 3397 054d 77746D74 		.ascii	"wtmtxp\000"
 3397      787000
 3398              	.LASF56:
 3399 0554 725F7175 		.ascii	"r_queue\000"
 3399      65756500 
 3400              	.LASF67:
 3401 055c 76745F64 		.ascii	"vt_delta\000"
 3401      656C7461 
 3401      00
 3402              	.LASF51:
 3403 0565 63685F74 		.ascii	"ch_threads_list\000"
 3403      68726561 
 3403      64735F6C 
 3403      69737400 
 3404              	.LASF12:
 3405 0575 6C6F6E67 		.ascii	"long unsigned int\000"
 3405      20756E73 
 3405      69676E65 
 3405      6420696E 
 3405      7400
 3406              	.LASF126:
 3407 0587 63686172 		.ascii	"char\000"
 3407      00
 3408              	.LASF172:
 3409 058c 474E5520 		.ascii	"GNU C 4.8.3 20131129 (release) [ARM/embedded-4_8-br"
 3409      4320342E 
 3409      382E3320 
 3409      32303133 
 3409      31313239 
 3410 05bf 616E6368 		.ascii	"anch revision 205641] -mcpu=cortex-m4 -mapcs-frame "
 3410      20726576 
 3410      6973696F 
 3410      6E203230 
 3410      35363431 
 3411 05f2 2D6D6E6F 		.ascii	"-mno-thumb-interwork -mthumb -ggdb -O0 -falign-func"
 3411      2D746875 
 3411      6D622D69 
 3411      6E746572 
 3411      776F726B 
 3412 0625 74696F6E 		.ascii	"tions=16 -ffunction-sections -fdata-sections -fno-c"
 3412      733D3136 
 3412      202D6666 
 3412      756E6374 
 3412      696F6E2D 
 3413 0658 6F6D6D6F 		.ascii	"ommon\000"
 3413      6E00
 3414              	.LASF102:
 3415 065e 62657374 		.ascii	"best\000"
 3415      00
 3416              	.LASF125:
 3417 0663 6D5F6E65 		.ascii	"m_next\000"
ARM GAS  C:\Users\Luis\AppData\Local\Temp\cctuEKFp.s 			page 66


 3417      787400
 3418              	.LASF26:
 3419 066a 73797374 		.ascii	"systime_t\000"
 3419      696D655F 
 3419      7400
 3420              	.LASF44:
 3421 0674 705F7265 		.ascii	"p_realprio\000"
 3421      616C7072 
 3421      696F00
 3422              	.LASF62:
 3423 067f 76746675 		.ascii	"vtfunc_t\000"
 3423      6E635F74 
 3423      00
 3424              	.LASF75:
 3425 0688 70616E69 		.ascii	"panic_msg\000"
 3425      635F6D73 
 3425      6700
 3426              	.LASF100:
 3427 0692 6F666673 		.ascii	"offset\000"
 3427      657400
 3428              	.LASF152:
 3429 0699 6E657469 		.ascii	"netif_input_fn\000"
 3429      665F696E 
 3429      7075745F 
 3429      666E00
 3430              	.LASF89:
 3431 06a8 636F6E74 		.ascii	"context\000"
 3431      65787400 
 3432              	.LASF16:
 3433 06b0 7274636E 		.ascii	"rtcnt_t\000"
 3433      745F7400 
 3434              	.LASF2:
 3435 06b8 696E7438 		.ascii	"int8_t\000"
 3435      5F7400
 3436              	.LASF69:
 3437 06bf 76745F70 		.ascii	"vt_par\000"
 3437      617200
 3438              	.LASF131:
 3439 06c6 7531365F 		.ascii	"u16_t\000"
 3439      7400
 3440              	.LASF54:
 3441 06cc 72656164 		.ascii	"ready_list_t\000"
 3441      795F6C69 
 3441      73745F74 
 3441      00
 3442              	.LASF52:
 3443 06d9 74687265 		.ascii	"threads_queue_t\000"
 3443      6164735F 
 3443      71756575 
 3443      655F7400 
 3444              	.LASF122:
 3445 06e9 63685F6D 		.ascii	"ch_mutex\000"
 3445      75746578 
 3445      00
 3446              	.LASF38:
 3447 06f2 705F7265 		.ascii	"p_refs\000"
 3447      667300
ARM GAS  C:\Users\Luis\AppData\Local\Temp\cctuEKFp.s 			page 67


 3448              	.LASF76:
 3449 06f9 6973725F 		.ascii	"isr_cnt\000"
 3449      636E7400 
 3450              	.LASF27:
 3451 0701 74687265 		.ascii	"thread_t\000"
 3451      61645F74 
 3451      00
 3452              	.LASF158:
 3453 070a 69706164 		.ascii	"ipaddr\000"
 3453      647200
 3454              	.LASF81:
 3455 0711 726C6973 		.ascii	"rlist\000"
 3455      7400
 3456              	.LASF4:
 3457 0717 75696E74 		.ascii	"uint8_t\000"
 3457      385F7400 
 3458              	.LASF142:
 3459 071f 666C6167 		.ascii	"flags\000"
 3459      7300
 3460              	.LASF48:
 3461 0725 74687265 		.ascii	"thread_reference_t\000"
 3461      61645F72 
 3461      65666572 
 3461      656E6365 
 3461      5F7400
 3462              	.LASF173:
 3463 0738 2E2E2F2E 		.ascii	"../../ChibiOS/ext/lwip/src/core/ipv4/ip_addr.c\000"
 3463      2E2F4368 
 3463      6962694F 
 3463      532F6578 
 3463      742F6C77 
 3464              	.LASF114:
 3465 0767 77746F62 		.ascii	"wtobjp\000"
 3465      6A7000
 3466              	.LASF34:
 3467 076e 705F6E61 		.ascii	"p_name\000"
 3467      6D6500
 3468              	.LASF49:
 3469 0775 74687265 		.ascii	"threads_list_t\000"
 3469      6164735F 
 3469      6C697374 
 3469      5F7400
 3470              	.LASF78:
 3471 0784 74726163 		.ascii	"trace_buffer\000"
 3471      655F6275 
 3471      66666572 
 3471      00
 3472              	.LASF41:
 3473 0791 705F6D73 		.ascii	"p_msg\000"
 3473      6700
 3474              	.LASF147:
 3475 0797 6C696E6B 		.ascii	"linkoutput\000"
 3475      6F757470 
 3475      757400
 3476              	.LASF161:
 3477 07a2 69706164 		.ascii	"ipaddr_addr\000"
 3477      64725F61 
ARM GAS  C:\Users\Luis\AppData\Local\Temp\cctuEKFp.s 			page 68


 3477      64647200 
 3478              	.LASF109:
 3479 07ae 6D5F6372 		.ascii	"m_crit_thd\000"
 3479      69745F74 
 3479      686400
 3480              	.LASF124:
 3481 07b9 6D5F6F77 		.ascii	"m_owner\000"
 3481      6E657200 
 3482              	.LASF93:
 3483 07c1 73655F77 		.ascii	"se_wtobjp\000"
 3483      746F626A 
 3483      7000
 3484              	.LASF31:
 3485 07cb 705F6374 		.ascii	"p_ctx\000"
 3485      7800
 3486              	.LASF68:
 3487 07d1 76745F66 		.ascii	"vt_func\000"
 3487      756E6300 
 3488              	.LASF157:
 3489 07d9 6970345F 		.ascii	"ip4_addr_netmask_valid\000"
 3489      61646472 
 3489      5F6E6574 
 3489      6D61736B 
 3489      5F76616C 
 3490              		.ident	"GCC: (GNU Tools for ARM Embedded Processors) 4.8.3 20131129 (release) [ARM/embedded-4_8-br
ARM GAS  C:\Users\Luis\AppData\Local\Temp\cctuEKFp.s 			page 69


DEFINED SYMBOLS
                            *ABS*:00000000 ip_addr.c
C:\Users\Luis\AppData\Local\Temp\cctuEKFp.s:19     .text.osalSysHalt:00000000 $t
C:\Users\Luis\AppData\Local\Temp\cctuEKFp.s:24     .text.osalSysHalt:00000000 osalSysHalt
C:\Users\Luis\AppData\Local\Temp\cctuEKFp.s:56     .rodata.ip_addr_any:00000000 ip_addr_any
C:\Users\Luis\AppData\Local\Temp\cctuEKFp.s:53     .rodata.ip_addr_any:00000000 $d
C:\Users\Luis\AppData\Local\Temp\cctuEKFp.s:63     .rodata.ip_addr_broadcast:00000000 ip_addr_broadcast
C:\Users\Luis\AppData\Local\Temp\cctuEKFp.s:60     .rodata.ip_addr_broadcast:00000000 $d
C:\Users\Luis\AppData\Local\Temp\cctuEKFp.s:66     .text.ip4_addr_isbroadcast:00000000 $t
C:\Users\Luis\AppData\Local\Temp\cctuEKFp.s:72     .text.ip4_addr_isbroadcast:00000000 ip4_addr_isbroadcast
C:\Users\Luis\AppData\Local\Temp\cctuEKFp.s:166    .text.ip4_addr_netmask_valid:00000000 $t
C:\Users\Luis\AppData\Local\Temp\cctuEKFp.s:172    .text.ip4_addr_netmask_valid:00000000 ip4_addr_netmask_valid
C:\Users\Luis\AppData\Local\Temp\cctuEKFp.s:250    .text.ipaddr_addr:00000000 $t
C:\Users\Luis\AppData\Local\Temp\cctuEKFp.s:256    .text.ipaddr_addr:00000000 ipaddr_addr
C:\Users\Luis\AppData\Local\Temp\cctuEKFp.s:306    .text.ipaddr_aton:00000000 ipaddr_aton
C:\Users\Luis\AppData\Local\Temp\cctuEKFp.s:296    .rodata:00000000 $d
C:\Users\Luis\AppData\Local\Temp\cctuEKFp.s:300    .text.ipaddr_aton:00000000 $t
C:\Users\Luis\AppData\Local\Temp\cctuEKFp.s:544    .text.ipaddr_aton:000001a4 $d
C:\Users\Luis\AppData\Local\Temp\cctuEKFp.s:551    .text.ipaddr_aton:000001b8 $t
C:\Users\Luis\AppData\Local\Temp\cctuEKFp.s:646    .text.ipaddr_aton:0000023c $d
C:\Users\Luis\AppData\Local\Temp\cctuEKFp.s:651    .text.ipaddr_ntoa:00000000 $t
C:\Users\Luis\AppData\Local\Temp\cctuEKFp.s:657    .text.ipaddr_ntoa:00000000 ipaddr_ntoa
C:\Users\Luis\AppData\Local\Temp\cctuEKFp.s:698    .text.ipaddr_ntoa_r:00000000 ipaddr_ntoa_r
C:\Users\Luis\AppData\Local\Temp\cctuEKFp.s:687    .text.ipaddr_ntoa:0000001c $d
C:\Users\Luis\AppData\Local\Temp\cctuEKFp.s:861    .bss.str.8151:00000000 str.8151
C:\Users\Luis\AppData\Local\Temp\cctuEKFp.s:692    .text.ipaddr_ntoa_r:00000000 $t
C:\Users\Luis\AppData\Local\Temp\cctuEKFp.s:853    .text.ipaddr_ntoa_r:000000fc $d
C:\Users\Luis\AppData\Local\Temp\cctuEKFp.s:858    .bss.str.8151:00000000 $d
                     .debug_frame:00000010 $d

UNDEFINED SYMBOLS
chSysHalt
lwip_htonl
