ARM GAS  C:\Users\Luis\AppData\Local\Temp\cctuEKFp.s 			page 1


   1              		.syntax unified
   2              		.cpu cortex-m4
   3              		.fpu softvfp
   4              		.eabi_attribute 20, 1
   5              		.eabi_attribute 21, 1
   6              		.eabi_attribute 23, 3
   7              		.eabi_attribute 24, 1
   8              		.eabi_attribute 25, 1
   9              		.eabi_attribute 26, 1
  10              		.eabi_attribute 30, 6
  11              		.eabi_attribute 34, 1
  12              		.eabi_attribute 18, 4
  13              		.thumb
  14              		.file	"ip_addr.c"
  15              		.text
  16              	.Ltext0:
  17              		.cfi_sections	.debug_frame
  18              		.section	.text.osalSysHalt,"ax",%progbits
  19              		.align	2
  20              		.p2align 4,,15
  21              		.thumb
  22              		.thumb_func
  23              		.type	osalSysHalt, %function
  24              	osalSysHalt:
  25              	.LFB230:
  26              		.file 1 "../../ChibiOS/os/hal/osal/rt/osal.h"
  27              		.loc 1 460 0
  28              		.cfi_startproc
  29              		@ args = 0, pretend = 0, frame = 8
  30              		@ frame_needed = 1, uses_anonymous_args = 0
  31 0000 80B5     		push	{r7, lr}
  32              		.cfi_def_cfa_offset 8
  33              		.cfi_offset 7, -8
  34              		.cfi_offset 14, -4
  35 0002 82B0     		sub	sp, sp, #8
  36              		.cfi_def_cfa_offset 16
  37 0004 00AF     		add	r7, sp, #0
  38              		.cfi_def_cfa_register 7
  39 0006 7860     		str	r0, [r7, #4]
  40              		.loc 1 462 0
  41 0008 7868     		ldr	r0, [r7, #4]
  42 000a FFF7FEFF 		bl	chSysHalt
  43              		.loc 1 463 0
  44 000e 0837     		adds	r7, r7, #8
  45 0010 BD46     		mov	sp, r7
  46              		@ sp needed
  47 0012 80BD     		pop	{r7, pc}
  48              		.cfi_endproc
  49              	.LFE230:
  50              		.size	osalSysHalt, .-osalSysHalt
  51              		.global	ip_addr_any
  52 0014 AFF30080 		.section	.rodata.ip_addr_any,"a",%progbits
  52      AFF30080 
  52      AFF30080 
  53              		.align	2
  54              		.type	ip_addr_any, %object
  55              		.size	ip_addr_any, 4
ARM GAS  C:\Users\Luis\AppData\Local\Temp\cctuEKFp.s 			page 2


  56              	ip_addr_any:
  57 0000 00000000 		.space	4
  58              		.global	ip_addr_broadcast
  59              		.section	.rodata.ip_addr_broadcast,"a",%progbits
  60              		.align	2
  61              		.type	ip_addr_broadcast, %object
  62              		.size	ip_addr_broadcast, 4
  63              	ip_addr_broadcast:
  64 0000 FFFFFFFF 		.word	-1
  65              		.section	.text.ip4_addr_isbroadcast,"ax",%progbits
  66              		.align	2
  67              		.p2align 4,,15
  68              		.global	ip4_addr_isbroadcast
  69              		.thumb
  70              		.thumb_func
  71              		.type	ip4_addr_isbroadcast, %function
  72              	ip4_addr_isbroadcast:
  73              	.LFB260:
  74              		.file 2 "../../ChibiOS/ext/lwip/src/core/ipv4/ip_addr.c"
  75              		.loc 2 56 0
  76              		.cfi_startproc
  77              		@ args = 0, pretend = 0, frame = 16
  78              		@ frame_needed = 1, uses_anonymous_args = 0
  79              		@ link register save eliminated.
  80 0000 80B4     		push	{r7}
  81              		.cfi_def_cfa_offset 4
  82              		.cfi_offset 7, -4
  83 0002 85B0     		sub	sp, sp, #20
  84              		.cfi_def_cfa_offset 24
  85 0004 00AF     		add	r7, sp, #0
  86              		.cfi_def_cfa_register 7
  87 0006 7860     		str	r0, [r7, #4]
  88 0008 3960     		str	r1, [r7]
  89              		.loc 2 58 0
  90 000a 7B68     		ldr	r3, [r7, #4]
  91 000c FB60     		str	r3, [r7, #12]
  92              		.loc 2 61 0
  93 000e 7B68     		ldr	r3, [r7, #4]
  94 0010 B3F1FF3F 		cmp	r3, #-1
  95 0014 02D0     		beq	.L3
  96              		.loc 2 61 0 is_stmt 0 discriminator 1
  97 0016 7B68     		ldr	r3, [r7, #4]
  98 0018 002B     		cmp	r3, #0
  99 001a 01D1     		bne	.L4
 100              	.L3:
 101              		.loc 2 63 0 is_stmt 1
 102 001c 0123     		movs	r3, #1
 103 001e 25E0     		b	.L9
 104              	.L4:
 105              		.loc 2 65 0
 106 0020 3B68     		ldr	r3, [r7]
 107 0022 93F82930 		ldrb	r3, [r3, #41]	@ zero_extendqisi2
 108 0026 03F00203 		and	r3, r3, #2
 109 002a 002B     		cmp	r3, #0
 110 002c 01D1     		bne	.L6
 111              		.loc 2 68 0
 112 002e 0023     		movs	r3, #0
ARM GAS  C:\Users\Luis\AppData\Local\Temp\cctuEKFp.s 			page 3


 113 0030 1CE0     		b	.L9
 114              	.L6:
 115              		.loc 2 70 0
 116 0032 3B68     		ldr	r3, [r7]
 117 0034 5A68     		ldr	r2, [r3, #4]
 118 0036 7B68     		ldr	r3, [r7, #4]
 119 0038 9A42     		cmp	r2, r3
 120 003a 01D1     		bne	.L7
 121              		.loc 2 71 0
 122 003c 0023     		movs	r3, #0
 123 003e 15E0     		b	.L9
 124              	.L7:
 125              		.loc 2 73 0
 126 0040 FA68     		ldr	r2, [r7, #12]
 127 0042 3B68     		ldr	r3, [r7]
 128 0044 5B68     		ldr	r3, [r3, #4]
 129 0046 5A40     		eors	r2, r2, r3
 130 0048 3B68     		ldr	r3, [r7]
 131 004a 9B68     		ldr	r3, [r3, #8]
 132 004c 1340     		ands	r3, r3, r2
 133 004e 002B     		cmp	r3, #0
 134 0050 0BD1     		bne	.L8
 135              		.loc 2 75 0
 136 0052 3B68     		ldr	r3, [r7]
 137 0054 9B68     		ldr	r3, [r3, #8]
 138 0056 DA43     		mvns	r2, r3
 139 0058 7B68     		ldr	r3, [r7, #4]
 140 005a 1A40     		ands	r2, r2, r3
 141              		.loc 2 76 0
 142 005c 3B68     		ldr	r3, [r7]
 143 005e 9B68     		ldr	r3, [r3, #8]
 144 0060 DB43     		mvns	r3, r3
 145              		.loc 2 75 0
 146 0062 9A42     		cmp	r2, r3
 147 0064 01D1     		bne	.L8
 148              		.loc 2 78 0
 149 0066 0123     		movs	r3, #1
 150 0068 00E0     		b	.L9
 151              	.L8:
 152              		.loc 2 80 0
 153 006a 0023     		movs	r3, #0
 154              	.L9:
 155              		.loc 2 82 0
 156 006c 1846     		mov	r0, r3
 157 006e 1437     		adds	r7, r7, #20
 158 0070 BD46     		mov	sp, r7
 159              		@ sp needed
 160 0072 5DF8047B 		ldr	r7, [sp], #4
 161 0076 7047     		bx	lr
 162              		.cfi_endproc
 163              	.LFE260:
 164              		.size	ip4_addr_isbroadcast, .-ip4_addr_isbroadcast
 165 0078 AFF30080 		.section	.text.ip4_addr_netmask_valid,"ax",%progbits
 165      AFF30080 
 166              		.align	2
 167              		.p2align 4,,15
 168              		.global	ip4_addr_netmask_valid
ARM GAS  C:\Users\Luis\AppData\Local\Temp\cctuEKFp.s 			page 4


 169              		.thumb
 170              		.thumb_func
 171              		.type	ip4_addr_netmask_valid, %function
 172              	ip4_addr_netmask_valid:
 173              	.LFB261:
 174              		.loc 2 91 0
 175              		.cfi_startproc
 176              		@ args = 0, pretend = 0, frame = 16
 177              		@ frame_needed = 1, uses_anonymous_args = 0
 178 0000 80B5     		push	{r7, lr}
 179              		.cfi_def_cfa_offset 8
 180              		.cfi_offset 7, -8
 181              		.cfi_offset 14, -4
 182 0002 84B0     		sub	sp, sp, #16
 183              		.cfi_def_cfa_offset 24
 184 0004 00AF     		add	r7, sp, #0
 185              		.cfi_def_cfa_register 7
 186 0006 7860     		str	r0, [r7, #4]
 187              		.loc 2 93 0
 188 0008 7868     		ldr	r0, [r7, #4]
 189 000a FFF7FEFF 		bl	lwip_htonl
 190 000e B860     		str	r0, [r7, #8]
 191              		.loc 2 96 0
 192 0010 4FF00043 		mov	r3, #-2147483648
 193 0014 FB60     		str	r3, [r7, #12]
 194 0016 08E0     		b	.L11
 195              	.L14:
 196              		.loc 2 97 0
 197 0018 BA68     		ldr	r2, [r7, #8]
 198 001a FB68     		ldr	r3, [r7, #12]
 199 001c 1340     		ands	r3, r3, r2
 200 001e 002B     		cmp	r3, #0
 201 0020 00D1     		bne	.L12
 202              		.loc 2 98 0
 203 0022 05E0     		b	.L13
 204              	.L12:
 205              		.loc 2 96 0
 206 0024 FB68     		ldr	r3, [r7, #12]
 207 0026 5B08     		lsrs	r3, r3, #1
 208 0028 FB60     		str	r3, [r7, #12]
 209              	.L11:
 210              		.loc 2 96 0 is_stmt 0 discriminator 1
 211 002a FB68     		ldr	r3, [r7, #12]
 212 002c 002B     		cmp	r3, #0
 213 002e F3D1     		bne	.L14
 214              	.L13:
 215              		.loc 2 102 0 is_stmt 1
 216 0030 09E0     		b	.L15
 217              	.L18:
 218              		.loc 2 103 0
 219 0032 BA68     		ldr	r2, [r7, #8]
 220 0034 FB68     		ldr	r3, [r7, #12]
 221 0036 1340     		ands	r3, r3, r2
 222 0038 002B     		cmp	r3, #0
 223 003a 01D0     		beq	.L16
 224              		.loc 2 105 0
 225 003c 0023     		movs	r3, #0
ARM GAS  C:\Users\Luis\AppData\Local\Temp\cctuEKFp.s 			page 5


 226 003e 06E0     		b	.L17
 227              	.L16:
 228              		.loc 2 102 0
 229 0040 FB68     		ldr	r3, [r7, #12]
 230 0042 5B08     		lsrs	r3, r3, #1
 231 0044 FB60     		str	r3, [r7, #12]
 232              	.L15:
 233              		.loc 2 102 0 is_stmt 0 discriminator 1
 234 0046 FB68     		ldr	r3, [r7, #12]
 235 0048 002B     		cmp	r3, #0
 236 004a F2D1     		bne	.L18
 237              		.loc 2 109 0 is_stmt 1
 238 004c 0123     		movs	r3, #1
 239              	.L17:
 240              		.loc 2 110 0
 241 004e 1846     		mov	r0, r3
 242 0050 1037     		adds	r7, r7, #16
 243 0052 BD46     		mov	sp, r7
 244              		@ sp needed
 245 0054 80BD     		pop	{r7, pc}
 246              		.cfi_endproc
 247              	.LFE261:
 248              		.size	ip4_addr_netmask_valid, .-ip4_addr_netmask_valid
 249 0056 00BFAFF3 		.section	.text.ipaddr_addr,"ax",%progbits
 249      0080AFF3 
 249      0080
 250              		.align	2
 251              		.p2align 4,,15
 252              		.global	ipaddr_addr
 253              		.thumb
 254              		.thumb_func
 255              		.type	ipaddr_addr, %function
 256              	ipaddr_addr:
 257              	.LFB262:
 258              		.loc 2 131 0
 259              		.cfi_startproc
 260              		@ args = 0, pretend = 0, frame = 16
 261              		@ frame_needed = 1, uses_anonymous_args = 0
 262 0000 80B5     		push	{r7, lr}
 263              		.cfi_def_cfa_offset 8
 264              		.cfi_offset 7, -8
 265              		.cfi_offset 14, -4
 266 0002 84B0     		sub	sp, sp, #16
 267              		.cfi_def_cfa_offset 24
 268 0004 00AF     		add	r7, sp, #0
 269              		.cfi_def_cfa_register 7
 270 0006 7860     		str	r0, [r7, #4]
 271              		.loc 2 134 0
 272 0008 07F10C03 		add	r3, r7, #12
 273 000c 7868     		ldr	r0, [r7, #4]
 274 000e 1946     		mov	r1, r3
 275 0010 FFF7FEFF 		bl	ipaddr_aton
 276 0014 0346     		mov	r3, r0
 277 0016 002B     		cmp	r3, #0
 278 0018 01D0     		beq	.L20
 279              		.loc 2 135 0
 280 001a FB68     		ldr	r3, [r7, #12]
ARM GAS  C:\Users\Luis\AppData\Local\Temp\cctuEKFp.s 			page 6


 281 001c 01E0     		b	.L22
 282              	.L20:
 283              		.loc 2 137 0
 284 001e 4FF0FF33 		mov	r3, #-1
 285              	.L22:
 286              		.loc 2 138 0
 287 0022 1846     		mov	r0, r3
 288 0024 1037     		adds	r7, r7, #16
 289 0026 BD46     		mov	sp, r7
 290              		@ sp needed
 291 0028 80BD     		pop	{r7, pc}
 292              		.cfi_endproc
 293              	.LFE262:
 294              		.size	ipaddr_addr, .-ipaddr_addr
 295 002a 00BFAFF3 		.section	.rodata
 295      0080
 296              		.align	2
 297              	.LC0:
 298 0000 756E6861 		.ascii	"unhandled\000"
 298      6E646C65 
 298      6400
 299 000a 0000     		.section	.text.ipaddr_aton,"ax",%progbits
 300              		.align	2
 301              		.p2align 4,,15
 302              		.global	ipaddr_aton
 303              		.thumb
 304              		.thumb_func
 305              		.type	ipaddr_aton, %function
 306              	ipaddr_aton:
 307              	.LFB263:
 308              		.loc 2 153 0
 309              		.cfi_startproc
 310              		@ args = 0, pretend = 0, frame = 40
 311              		@ frame_needed = 1, uses_anonymous_args = 0
 312 0000 80B5     		push	{r7, lr}
 313              		.cfi_def_cfa_offset 8
 314              		.cfi_offset 7, -8
 315              		.cfi_offset 14, -4
 316 0002 8AB0     		sub	sp, sp, #40
 317              		.cfi_def_cfa_offset 48
 318 0004 00AF     		add	r7, sp, #0
 319              		.cfi_def_cfa_register 7
 320 0006 7860     		str	r0, [r7, #4]
 321 0008 3960     		str	r1, [r7]
 322              		.loc 2 158 0
 323 000a 07F10C03 		add	r3, r7, #12
 324 000e FB61     		str	r3, [r7, #28]
 325              		.loc 2 160 0
 326 0010 7B68     		ldr	r3, [r7, #4]
 327 0012 1B78     		ldrb	r3, [r3]
 328 0014 87F82230 		strb	r3, [r7, #34]
 329              	.L42:
 330              		.loc 2 167 0
 331 0018 97F82230 		ldrb	r3, [r7, #34]	@ zero_extendqisi2
 332 001c 2F2B     		cmp	r3, #47
 333 001e 03D9     		bls	.L24
 334              		.loc 2 167 0 is_stmt 0 discriminator 1
ARM GAS  C:\Users\Luis\AppData\Local\Temp\cctuEKFp.s 			page 7


 335 0020 97F82230 		ldrb	r3, [r7, #34]	@ zero_extendqisi2
 336 0024 392B     		cmp	r3, #57
 337 0026 01D9     		bls	.L25
 338              	.L24:
 339              		.loc 2 168 0 is_stmt 1
 340 0028 0023     		movs	r3, #0
 341 002a 02E1     		b	.L56
 342              	.L25:
 343              		.loc 2 169 0
 344 002c 0023     		movs	r3, #0
 345 002e 7B62     		str	r3, [r7, #36]
 346              		.loc 2 170 0
 347 0030 0A23     		movs	r3, #10
 348 0032 87F82330 		strb	r3, [r7, #35]
 349              		.loc 2 171 0
 350 0036 97F82230 		ldrb	r3, [r7, #34]	@ zero_extendqisi2
 351 003a 302B     		cmp	r3, #48
 352 003c 1CD1     		bne	.L27
 353              		.loc 2 172 0
 354 003e 7B68     		ldr	r3, [r7, #4]
 355 0040 0133     		adds	r3, r3, #1
 356 0042 7B60     		str	r3, [r7, #4]
 357 0044 7B68     		ldr	r3, [r7, #4]
 358 0046 1B78     		ldrb	r3, [r3]
 359 0048 87F82230 		strb	r3, [r7, #34]
 360              		.loc 2 173 0
 361 004c 97F82230 		ldrb	r3, [r7, #34]	@ zero_extendqisi2
 362 0050 782B     		cmp	r3, #120
 363 0052 03D0     		beq	.L28
 364              		.loc 2 173 0 is_stmt 0 discriminator 1
 365 0054 97F82230 		ldrb	r3, [r7, #34]	@ zero_extendqisi2
 366 0058 582B     		cmp	r3, #88
 367 005a 0AD1     		bne	.L29
 368              	.L28:
 369              		.loc 2 174 0 is_stmt 1
 370 005c 1023     		movs	r3, #16
 371 005e 87F82330 		strb	r3, [r7, #35]
 372              		.loc 2 175 0
 373 0062 7B68     		ldr	r3, [r7, #4]
 374 0064 0133     		adds	r3, r3, #1
 375 0066 7B60     		str	r3, [r7, #4]
 376 0068 7B68     		ldr	r3, [r7, #4]
 377 006a 1B78     		ldrb	r3, [r3]
 378 006c 87F82230 		strb	r3, [r7, #34]
 379 0070 02E0     		b	.L27
 380              	.L29:
 381              		.loc 2 177 0
 382 0072 0823     		movs	r3, #8
 383 0074 87F82330 		strb	r3, [r7, #35]
 384              	.L27:
 385              		.loc 2 180 0
 386 0078 97F82230 		ldrb	r3, [r7, #34]	@ zero_extendqisi2
 387 007c 2F2B     		cmp	r3, #47
 388 007e 15D9     		bls	.L30
 389              		.loc 2 180 0 is_stmt 0 discriminator 1
 390 0080 97F82230 		ldrb	r3, [r7, #34]	@ zero_extendqisi2
 391 0084 392B     		cmp	r3, #57
ARM GAS  C:\Users\Luis\AppData\Local\Temp\cctuEKFp.s 			page 8


 392 0086 11D8     		bhi	.L30
 393              		.loc 2 181 0 is_stmt 1
 394 0088 97F82330 		ldrb	r3, [r7, #35]	@ zero_extendqisi2
 395 008c 7A6A     		ldr	r2, [r7, #36]
 396 008e 02FB03F2 		mul	r2, r2, r3
 397 0092 97F82230 		ldrb	r3, [r7, #34]	@ zero_extendqisi2
 398 0096 1344     		add	r3, r3, r2
 399 0098 303B     		subs	r3, r3, #48
 400 009a 7B62     		str	r3, [r7, #36]
 401              		.loc 2 182 0
 402 009c 7B68     		ldr	r3, [r7, #4]
 403 009e 0133     		adds	r3, r3, #1
 404 00a0 7B60     		str	r3, [r7, #4]
 405 00a2 7B68     		ldr	r3, [r7, #4]
 406 00a4 1B78     		ldrb	r3, [r3]
 407 00a6 87F82230 		strb	r3, [r7, #34]
 408              		.loc 2 188 0
 409 00aa E5E7     		b	.L27
 410              	.L30:
 411              		.loc 2 183 0
 412 00ac 97F82330 		ldrb	r3, [r7, #35]	@ zero_extendqisi2
 413 00b0 102B     		cmp	r3, #16
 414 00b2 33D1     		bne	.L32
 415              		.loc 2 183 0 is_stmt 0 discriminator 1
 416 00b4 97F82230 		ldrb	r3, [r7, #34]	@ zero_extendqisi2
 417 00b8 2F2B     		cmp	r3, #47
 418 00ba 03D9     		bls	.L33
 419 00bc 97F82230 		ldrb	r3, [r7, #34]	@ zero_extendqisi2
 420 00c0 392B     		cmp	r3, #57
 421 00c2 0FD9     		bls	.L34
 422              	.L33:
 423              		.loc 2 183 0 discriminator 2
 424 00c4 97F82230 		ldrb	r3, [r7, #34]	@ zero_extendqisi2
 425 00c8 602B     		cmp	r3, #96
 426 00ca 03D9     		bls	.L35
 427              		.loc 2 183 0 discriminator 1
 428 00cc 97F82230 		ldrb	r3, [r7, #34]	@ zero_extendqisi2
 429 00d0 662B     		cmp	r3, #102
 430 00d2 07D9     		bls	.L34
 431              	.L35:
 432              		.loc 2 183 0 discriminator 2
 433 00d4 97F82230 		ldrb	r3, [r7, #34]	@ zero_extendqisi2
 434 00d8 402B     		cmp	r3, #64
 435 00da 1FD9     		bls	.L32
 436              		.loc 2 183 0 discriminator 1
 437 00dc 97F82230 		ldrb	r3, [r7, #34]	@ zero_extendqisi2
 438 00e0 462B     		cmp	r3, #70
 439 00e2 1BD8     		bhi	.L32
 440              	.L34:
 441              		.loc 2 184 0 is_stmt 1
 442 00e4 7B6A     		ldr	r3, [r7, #36]
 443 00e6 1A01     		lsls	r2, r3, #4
 444 00e8 97F82230 		ldrb	r3, [r7, #34]	@ zero_extendqisi2
 445 00ec 03F10A01 		add	r1, r3, #10
 446 00f0 97F82230 		ldrb	r3, [r7, #34]	@ zero_extendqisi2
 447 00f4 602B     		cmp	r3, #96
 448 00f6 05D9     		bls	.L36
ARM GAS  C:\Users\Luis\AppData\Local\Temp\cctuEKFp.s 			page 9


 449              		.loc 2 184 0 is_stmt 0 discriminator 1
 450 00f8 97F82230 		ldrb	r3, [r7, #34]	@ zero_extendqisi2
 451 00fc 7A2B     		cmp	r3, #122
 452 00fe 01D8     		bhi	.L36
 453 0100 6123     		movs	r3, #97
 454 0102 00E0     		b	.L37
 455              	.L36:
 456              		.loc 2 184 0 discriminator 2
 457 0104 4123     		movs	r3, #65
 458              	.L37:
 459              		.loc 2 184 0 discriminator 3
 460 0106 CB1A     		subs	r3, r1, r3
 461 0108 1343     		orrs	r3, r3, r2
 462 010a 7B62     		str	r3, [r7, #36]
 463              		.loc 2 185 0 is_stmt 1 discriminator 3
 464 010c 7B68     		ldr	r3, [r7, #4]
 465 010e 0133     		adds	r3, r3, #1
 466 0110 7B60     		str	r3, [r7, #4]
 467 0112 7B68     		ldr	r3, [r7, #4]
 468 0114 1B78     		ldrb	r3, [r3]
 469 0116 87F82230 		strb	r3, [r7, #34]
 470              		.loc 2 188 0 discriminator 3
 471 011a ADE7     		b	.L27
 472              	.L32:
 473              		.loc 2 189 0
 474 011c 97F82230 		ldrb	r3, [r7, #34]	@ zero_extendqisi2
 475 0120 2E2B     		cmp	r3, #46
 476 0122 14D1     		bne	.L38
 477              		.loc 2 196 0
 478 0124 07F10C03 		add	r3, r7, #12
 479 0128 0C33     		adds	r3, r3, #12
 480 012a FA69     		ldr	r2, [r7, #28]
 481 012c 9A42     		cmp	r2, r3
 482 012e 01D3     		bcc	.L39
 483              		.loc 2 197 0
 484 0130 0023     		movs	r3, #0
 485 0132 7EE0     		b	.L56
 486              	.L39:
 487              		.loc 2 199 0
 488 0134 FB69     		ldr	r3, [r7, #28]
 489 0136 1A1D     		adds	r2, r3, #4
 490 0138 FA61     		str	r2, [r7, #28]
 491 013a 7A6A     		ldr	r2, [r7, #36]
 492 013c 1A60     		str	r2, [r3]
 493              		.loc 2 200 0
 494 013e 7B68     		ldr	r3, [r7, #4]
 495 0140 0133     		adds	r3, r3, #1
 496 0142 7B60     		str	r3, [r7, #4]
 497 0144 7B68     		ldr	r3, [r7, #4]
 498 0146 1B78     		ldrb	r3, [r3]
 499 0148 87F82230 		strb	r3, [r7, #34]
 500              		.loc 2 203 0
 501 014c 64E7     		b	.L42
 502              	.L38:
 503              		.loc 2 202 0
 504 014e 00BF     		nop
 505              		.loc 2 207 0
ARM GAS  C:\Users\Luis\AppData\Local\Temp\cctuEKFp.s 			page 10


 506 0150 97F82230 		ldrb	r3, [r7, #34]	@ zero_extendqisi2
 507 0154 002B     		cmp	r3, #0
 508 0156 19D0     		beq	.L43
 509              		.loc 2 207 0 is_stmt 0 discriminator 1
 510 0158 97F82230 		ldrb	r3, [r7, #34]	@ zero_extendqisi2
 511 015c 202B     		cmp	r3, #32
 512 015e 15D0     		beq	.L43
 513 0160 97F82230 		ldrb	r3, [r7, #34]	@ zero_extendqisi2
 514 0164 0C2B     		cmp	r3, #12
 515 0166 11D0     		beq	.L43
 516 0168 97F82230 		ldrb	r3, [r7, #34]	@ zero_extendqisi2
 517 016c 0A2B     		cmp	r3, #10
 518 016e 0DD0     		beq	.L43
 519 0170 97F82230 		ldrb	r3, [r7, #34]	@ zero_extendqisi2
 520 0174 0D2B     		cmp	r3, #13
 521 0176 09D0     		beq	.L43
 522 0178 97F82230 		ldrb	r3, [r7, #34]	@ zero_extendqisi2
 523 017c 092B     		cmp	r3, #9
 524 017e 05D0     		beq	.L43
 525 0180 97F82230 		ldrb	r3, [r7, #34]	@ zero_extendqisi2
 526 0184 0B2B     		cmp	r3, #11
 527 0186 01D0     		beq	.L43
 528              		.loc 2 208 0 is_stmt 1
 529 0188 0023     		movs	r3, #0
 530 018a 52E0     		b	.L56
 531              	.L43:
 532              		.loc 2 214 0
 533 018c FA69     		ldr	r2, [r7, #28]
 534 018e 07F10C03 		add	r3, r7, #12
 535 0192 D31A     		subs	r3, r2, r3
 536 0194 9B10     		asrs	r3, r3, #2
 537 0196 0133     		adds	r3, r3, #1
 538 0198 042B     		cmp	r3, #4
 539 019a 3BD8     		bhi	.L44
 540 019c 01A2     		adr	r2, .L46
 541 019e 52F823F0 		ldr	pc, [r2, r3, lsl #2]
 542 01a2 00BF     		.p2align 2
 543              	.L46:
 544 01a4 B9010000 		.word	.L45+1
 545 01a8 1D020000 		.word	.L57+1
 546 01ac BD010000 		.word	.L48+1
 547 01b0 D5010000 		.word	.L49+1
 548 01b4 F3010000 		.word	.L50+1
 549              	.L45:
 550              		.loc 2 217 0
 551 01b8 0023     		movs	r3, #0
 552 01ba 3AE0     		b	.L56
 553              	.L48:
 554              		.loc 2 223 0
 555 01bc 7B6A     		ldr	r3, [r7, #36]
 556 01be B3F1807F 		cmp	r3, #16777216
 557 01c2 01D3     		bcc	.L52
 558              		.loc 2 224 0
 559 01c4 0023     		movs	r3, #0
 560 01c6 34E0     		b	.L56
 561              	.L52:
 562              		.loc 2 226 0
ARM GAS  C:\Users\Luis\AppData\Local\Temp\cctuEKFp.s 			page 11


 563 01c8 FB68     		ldr	r3, [r7, #12]
 564 01ca 1B06     		lsls	r3, r3, #24
 565 01cc 7A6A     		ldr	r2, [r7, #36]
 566 01ce 1343     		orrs	r3, r3, r2
 567 01d0 7B62     		str	r3, [r7, #36]
 568              		.loc 2 227 0
 569 01d2 24E0     		b	.L51
 570              	.L49:
 571              		.loc 2 230 0
 572 01d4 7B6A     		ldr	r3, [r7, #36]
 573 01d6 B3F5803F 		cmp	r3, #65536
 574 01da 01D3     		bcc	.L53
 575              		.loc 2 231 0
 576 01dc 0023     		movs	r3, #0
 577 01de 28E0     		b	.L56
 578              	.L53:
 579              		.loc 2 233 0
 580 01e0 FB68     		ldr	r3, [r7, #12]
 581 01e2 1A06     		lsls	r2, r3, #24
 582 01e4 3B69     		ldr	r3, [r7, #16]
 583 01e6 1B04     		lsls	r3, r3, #16
 584 01e8 1343     		orrs	r3, r3, r2
 585 01ea 7A6A     		ldr	r2, [r7, #36]
 586 01ec 1343     		orrs	r3, r3, r2
 587 01ee 7B62     		str	r3, [r7, #36]
 588              		.loc 2 234 0
 589 01f0 15E0     		b	.L51
 590              	.L50:
 591              		.loc 2 237 0
 592 01f2 7B6A     		ldr	r3, [r7, #36]
 593 01f4 FF2B     		cmp	r3, #255
 594 01f6 01D9     		bls	.L54
 595              		.loc 2 238 0
 596 01f8 0023     		movs	r3, #0
 597 01fa 1AE0     		b	.L56
 598              	.L54:
 599              		.loc 2 240 0
 600 01fc FB68     		ldr	r3, [r7, #12]
 601 01fe 1A06     		lsls	r2, r3, #24
 602 0200 3B69     		ldr	r3, [r7, #16]
 603 0202 1B04     		lsls	r3, r3, #16
 604 0204 1A43     		orrs	r2, r2, r3
 605 0206 7B69     		ldr	r3, [r7, #20]
 606 0208 1B02     		lsls	r3, r3, #8
 607 020a 1343     		orrs	r3, r3, r2
 608 020c 7A6A     		ldr	r2, [r7, #36]
 609 020e 1343     		orrs	r3, r3, r2
 610 0210 7B62     		str	r3, [r7, #36]
 611              		.loc 2 241 0
 612 0212 04E0     		b	.L51
 613              	.L44:
 614              		.loc 2 243 0
 615 0214 0948     		ldr	r0, .L58
 616 0216 FFF7FEFF 		bl	osalSysHalt
 617              		.loc 2 244 0
 618 021a 00E0     		b	.L51
 619              	.L57:
ARM GAS  C:\Users\Luis\AppData\Local\Temp\cctuEKFp.s 			page 12


 620              		.loc 2 220 0
 621 021c 00BF     		nop
 622              	.L51:
 623              		.loc 2 246 0
 624 021e 3B68     		ldr	r3, [r7]
 625 0220 002B     		cmp	r3, #0
 626 0222 05D0     		beq	.L55
 627              		.loc 2 247 0
 628 0224 786A     		ldr	r0, [r7, #36]
 629 0226 FFF7FEFF 		bl	lwip_htonl
 630 022a 0246     		mov	r2, r0
 631 022c 3B68     		ldr	r3, [r7]
 632 022e 1A60     		str	r2, [r3]
 633              	.L55:
 634              		.loc 2 249 0
 635 0230 0123     		movs	r3, #1
 636              	.L56:
 637              		.loc 2 250 0
 638 0232 1846     		mov	r0, r3
 639 0234 2837     		adds	r7, r7, #40
 640 0236 BD46     		mov	sp, r7
 641              		@ sp needed
 642 0238 80BD     		pop	{r7, pc}
 643              	.L59:
 644 023a 00BF     		.align	2
 645              	.L58:
 646 023c 00000000 		.word	.LC0
 647              		.cfi_endproc
 648              	.LFE263:
 649              		.size	ipaddr_aton, .-ipaddr_aton
 650              		.section	.text.ipaddr_ntoa,"ax",%progbits
 651              		.align	2
 652              		.p2align 4,,15
 653              		.global	ipaddr_ntoa
 654              		.thumb
 655              		.thumb_func
 656              		.type	ipaddr_ntoa, %function
 657              	ipaddr_ntoa:
 658              	.LFB264:
 659              		.loc 2 262 0
 660              		.cfi_startproc
 661              		@ args = 0, pretend = 0, frame = 8
 662              		@ frame_needed = 1, uses_anonymous_args = 0
 663 0000 80B5     		push	{r7, lr}
 664              		.cfi_def_cfa_offset 8
 665              		.cfi_offset 7, -8
 666              		.cfi_offset 14, -4
 667 0002 82B0     		sub	sp, sp, #8
 668              		.cfi_def_cfa_offset 16
 669 0004 00AF     		add	r7, sp, #0
 670              		.cfi_def_cfa_register 7
 671 0006 7860     		str	r0, [r7, #4]
 672              		.loc 2 264 0
 673 0008 7868     		ldr	r0, [r7, #4]
 674 000a 0449     		ldr	r1, .L62
 675 000c 1022     		movs	r2, #16
 676 000e FFF7FEFF 		bl	ipaddr_ntoa_r
ARM GAS  C:\Users\Luis\AppData\Local\Temp\cctuEKFp.s 			page 13


 677 0012 0346     		mov	r3, r0
 678              		.loc 2 265 0
 679 0014 1846     		mov	r0, r3
 680 0016 0837     		adds	r7, r7, #8
 681 0018 BD46     		mov	sp, r7
 682              		@ sp needed
 683 001a 80BD     		pop	{r7, pc}
 684              	.L63:
 685              		.align	2
 686              	.L62:
 687 001c 00000000 		.word	str.8151
 688              		.cfi_endproc
 689              	.LFE264:
 690              		.size	ipaddr_ntoa, .-ipaddr_ntoa
 691              		.section	.text.ipaddr_ntoa_r,"ax",%progbits
 692              		.align	2
 693              		.p2align 4,,15
 694              		.global	ipaddr_ntoa_r
 695              		.thumb
 696              		.thumb_func
 697              		.type	ipaddr_ntoa_r, %function
 698              	ipaddr_ntoa_r:
 699              	.LFB265:
 700              		.loc 2 277 0
 701              		.cfi_startproc
 702              		@ args = 0, pretend = 0, frame = 48
 703              		@ frame_needed = 1, uses_anonymous_args = 0
 704              		@ link register save eliminated.
 705 0000 80B4     		push	{r7}
 706              		.cfi_def_cfa_offset 4
 707              		.cfi_offset 7, -4
 708 0002 8DB0     		sub	sp, sp, #52
 709              		.cfi_def_cfa_offset 56
 710 0004 00AF     		add	r7, sp, #0
 711              		.cfi_def_cfa_register 7
 712 0006 F860     		str	r0, [r7, #12]
 713 0008 B960     		str	r1, [r7, #8]
 714 000a 7A60     		str	r2, [r7, #4]
 715              		.loc 2 285 0
 716 000c 0023     		movs	r3, #0
 717 000e 3B62     		str	r3, [r7, #32]
 718              		.loc 2 287 0
 719 0010 FB68     		ldr	r3, [r7, #12]
 720 0012 1B68     		ldr	r3, [r3]
 721 0014 BB61     		str	r3, [r7, #24]
 722              		.loc 2 289 0
 723 0016 BB68     		ldr	r3, [r7, #8]
 724 0018 FB62     		str	r3, [r7, #44]
 725              		.loc 2 290 0
 726 001a 07F11803 		add	r3, r7, #24
 727 001e BB62     		str	r3, [r7, #40]
 728              		.loc 2 291 0
 729 0020 0023     		movs	r3, #0
 730 0022 87F82730 		strb	r3, [r7, #39]
 731 0026 58E0     		b	.L65
 732              	.L72:
 733              		.loc 2 292 0
ARM GAS  C:\Users\Luis\AppData\Local\Temp\cctuEKFp.s 			page 14


 734 0028 0023     		movs	r3, #0
 735 002a 87F82630 		strb	r3, [r7, #38]
 736              	.L66:
 737              		.loc 2 294 0 discriminator 1
 738 002e BB6A     		ldr	r3, [r7, #40]
 739 0030 1A78     		ldrb	r2, [r3]	@ zero_extendqisi2
 740 0032 324B     		ldr	r3, .L74
 741 0034 A3FB0213 		umull	r1, r3, r3, r2
 742 0038 D908     		lsrs	r1, r3, #3
 743 003a 0B46     		mov	r3, r1
 744 003c 9B00     		lsls	r3, r3, #2
 745 003e 0B44     		add	r3, r3, r1
 746 0040 5B00     		lsls	r3, r3, #1
 747 0042 D31A     		subs	r3, r2, r3
 748 0044 FB77     		strb	r3, [r7, #31]
 749              		.loc 2 295 0 discriminator 1
 750 0046 BB6A     		ldr	r3, [r7, #40]
 751 0048 1A78     		ldrb	r2, [r3]	@ zero_extendqisi2
 752 004a 2C4B     		ldr	r3, .L74
 753 004c A3FB0213 		umull	r1, r3, r3, r2
 754 0050 DB08     		lsrs	r3, r3, #3
 755 0052 DAB2     		uxtb	r2, r3
 756 0054 BB6A     		ldr	r3, [r7, #40]
 757 0056 1A70     		strb	r2, [r3]
 758              		.loc 2 296 0 discriminator 1
 759 0058 97F82630 		ldrb	r3, [r7, #38]	@ zero_extendqisi2
 760 005c 5A1C     		adds	r2, r3, #1
 761 005e 87F82620 		strb	r2, [r7, #38]
 762 0062 FA7F     		ldrb	r2, [r7, #31]
 763 0064 3032     		adds	r2, r2, #48
 764 0066 D2B2     		uxtb	r2, r2
 765 0068 07F13001 		add	r1, r7, #48
 766 006c 0B44     		add	r3, r3, r1
 767 006e 03F81C2C 		strb	r2, [r3, #-28]
 768              		.loc 2 297 0 discriminator 1
 769 0072 BB6A     		ldr	r3, [r7, #40]
 770 0074 1B78     		ldrb	r3, [r3]	@ zero_extendqisi2
 771 0076 002B     		cmp	r3, #0
 772 0078 D9D1     		bne	.L66
 773              		.loc 2 298 0
 774 007a 12E0     		b	.L67
 775              	.L70:
 776              		.loc 2 299 0
 777 007c 3B6A     		ldr	r3, [r7, #32]
 778 007e 5A1C     		adds	r2, r3, #1
 779 0080 3A62     		str	r2, [r7, #32]
 780 0082 7A68     		ldr	r2, [r7, #4]
 781 0084 9342     		cmp	r3, r2
 782 0086 01DB     		blt	.L68
 783              		.loc 2 300 0
 784 0088 0023     		movs	r3, #0
 785 008a 31E0     		b	.L73
 786              	.L68:
 787              		.loc 2 302 0
 788 008c FB6A     		ldr	r3, [r7, #44]
 789 008e 5A1C     		adds	r2, r3, #1
 790 0090 FA62     		str	r2, [r7, #44]
ARM GAS  C:\Users\Luis\AppData\Local\Temp\cctuEKFp.s 			page 15


 791 0092 97F82620 		ldrb	r2, [r7, #38]	@ zero_extendqisi2
 792 0096 07F13001 		add	r1, r7, #48
 793 009a 0A44     		add	r2, r2, r1
 794 009c 12F81C2C 		ldrb	r2, [r2, #-28]	@ zero_extendqisi2
 795 00a0 1A70     		strb	r2, [r3]
 796              	.L67:
 797              		.loc 2 298 0 discriminator 1
 798 00a2 97F82630 		ldrb	r3, [r7, #38]	@ zero_extendqisi2
 799 00a6 5A1E     		subs	r2, r3, #1
 800 00a8 87F82620 		strb	r2, [r7, #38]
 801 00ac 002B     		cmp	r3, #0
 802 00ae E5D1     		bne	.L70
 803              		.loc 2 304 0
 804 00b0 3B6A     		ldr	r3, [r7, #32]
 805 00b2 5A1C     		adds	r2, r3, #1
 806 00b4 3A62     		str	r2, [r7, #32]
 807 00b6 7A68     		ldr	r2, [r7, #4]
 808 00b8 9342     		cmp	r3, r2
 809 00ba 01DB     		blt	.L71
 810              		.loc 2 305 0
 811 00bc 0023     		movs	r3, #0
 812 00be 17E0     		b	.L73
 813              	.L71:
 814              		.loc 2 307 0
 815 00c0 FB6A     		ldr	r3, [r7, #44]
 816 00c2 5A1C     		adds	r2, r3, #1
 817 00c4 FA62     		str	r2, [r7, #44]
 818 00c6 2E22     		movs	r2, #46
 819 00c8 1A70     		strb	r2, [r3]
 820              		.loc 2 308 0
 821 00ca BB6A     		ldr	r3, [r7, #40]
 822 00cc 0133     		adds	r3, r3, #1
 823 00ce BB62     		str	r3, [r7, #40]
 824              		.loc 2 291 0
 825 00d0 97F82730 		ldrb	r3, [r7, #39]	@ zero_extendqisi2
 826 00d4 0133     		adds	r3, r3, #1
 827 00d6 87F82730 		strb	r3, [r7, #39]
 828              	.L65:
 829              		.loc 2 291 0 is_stmt 0 discriminator 1
 830 00da 97F82730 		ldrb	r3, [r7, #39]	@ zero_extendqisi2
 831 00de 032B     		cmp	r3, #3
 832 00e0 A2D9     		bls	.L72
 833              		.loc 2 310 0 is_stmt 1
 834 00e2 FB6A     		ldr	r3, [r7, #44]
 835 00e4 013B     		subs	r3, r3, #1
 836 00e6 FB62     		str	r3, [r7, #44]
 837 00e8 FB6A     		ldr	r3, [r7, #44]
 838 00ea 0022     		movs	r2, #0
 839 00ec 1A70     		strb	r2, [r3]
 840              		.loc 2 311 0
 841 00ee BB68     		ldr	r3, [r7, #8]
 842              	.L73:
 843              		.loc 2 312 0
 844 00f0 1846     		mov	r0, r3
 845 00f2 3437     		adds	r7, r7, #52
 846 00f4 BD46     		mov	sp, r7
 847              		@ sp needed
ARM GAS  C:\Users\Luis\AppData\Local\Temp\cctuEKFp.s 			page 16


 848 00f6 5DF8047B 		ldr	r7, [sp], #4
 849 00fa 7047     		bx	lr
 850              	.L75:
 851              		.align	2
 852              	.L74:
 853 00fc CDCCCCCC 		.word	-858993459
 854              		.cfi_endproc
 855              	.LFE265:
 856              		.size	ipaddr_ntoa_r, .-ipaddr_ntoa_r
 857              		.section	.bss.str.8151,"aw",%nobits
 858              		.align	2
 859              		.type	str.8151, %object
 860              		.size	str.8151, 16
 861              	str.8151:
 862 0000 00000000 		.space	16
 862      00000000 
 862      00000000 
 862      00000000 
 863              		.text
 864              	.Letext0:
 865              		.file 3 "c:\\emtechesdk\\gcc\\lib\\gcc\\arm-none-eabi\\4.8.3\\include\\stddef.h"
 866              		.file 4 "c:\\emtechesdk\\gcc\\arm-none-eabi\\include\\stdint.h"
 867              		.file 5 "../../ChibiOS/os/rt/ports/ARMCMx/compilers/GCC/chtypes.h"
 868              		.file 6 "../../ChibiOS/os/rt/include/chsystypes.h"
 869              		.file 7 "../../ChibiOS/os/rt/include/chschd.h"
 870              		.file 8 "../../ChibiOS/os/rt/ports/ARMCMx/chcore.h"
 871              		.file 9 "../../ChibiOS/os/rt/ports/ARMCMx/chcore_v7m.h"
 872              		.file 10 "../../ChibiOS/os/rt/include/chdebug.h"
 873              		.file 11 "../../ChibiOS/os/rt/include/chtm.h"
 874              		.file 12 "../../ChibiOS/os/rt/include/chstats.h"
 875              		.file 13 "../../ChibiOS/os/rt/include/chsem.h"
 876              		.file 14 "../../ChibiOS/os/rt/include/chmtx.h"
 877              		.file 15 "../../ChibiOS/os/various/lwip_bindings/arch/cc.h"
 878              		.file 16 "../../ChibiOS/ext/lwip/src/include/ipv4/lwip/ip_addr.h"
 879              		.file 17 "../../ChibiOS/ext/lwip/src/include/lwip/err.h"
 880              		.file 18 "../../ChibiOS/ext/lwip/src/include/lwip/pbuf.h"
 881              		.file 19 "../../ChibiOS/ext/lwip/src/include/lwip/netif.h"
 882              		.file 20 "../../ChibiOS/os/ext/CMSIS/include/core_cm4.h"