ARM GAS  C:\Users\Luis\AppData\Local\Temp\ccVuDqaU.s 			page 1


   1              		.syntax unified
   2              		.cpu cortex-m4
   3              		.fpu softvfp
   4              		.eabi_attribute 20, 1
   5              		.eabi_attribute 21, 1
   6              		.eabi_attribute 23, 3
   7              		.eabi_attribute 24, 1
   8              		.eabi_attribute 25, 1
   9              		.eabi_attribute 26, 1
  10              		.eabi_attribute 30, 6
  11              		.eabi_attribute 34, 1
  12              		.eabi_attribute 18, 4
  13              		.thumb
  14              		.file	"ip_frag.c"
  15              		.text
  16              	.Ltext0:
  17              		.cfi_sections	.debug_frame
  18              		.section	.text.osalSysHalt,"ax",%progbits
  19              		.align	2
  20              		.p2align 4,,15
  21              		.thumb
  22              		.thumb_func
  23              		.type	osalSysHalt, %function
  24              	osalSysHalt:
  25              	.LFB230:
  26              		.file 1 "../../ChibiOS/os/hal/osal/rt/osal.h"
  27              		.loc 1 460 0
  28              		.cfi_startproc
  29              		@ args = 0, pretend = 0, frame = 8
  30              		@ frame_needed = 1, uses_anonymous_args = 0
  31 0000 80B5     		push	{r7, lr}
  32              		.cfi_def_cfa_offset 8
  33              		.cfi_offset 7, -8
  34              		.cfi_offset 14, -4
  35 0002 82B0     		sub	sp, sp, #8
  36              		.cfi_def_cfa_offset 16
  37 0004 00AF     		add	r7, sp, #0
  38              		.cfi_def_cfa_register 7
  39 0006 7860     		str	r0, [r7, #4]
  40              		.loc 1 462 0
  41 0008 7868     		ldr	r0, [r7, #4]
  42 000a FFF7FEFF 		bl	chSysHalt
  43              		.loc 1 463 0
  44 000e 0837     		adds	r7, r7, #8
  45 0010 BD46     		mov	sp, r7
  46              		@ sp needed
  47 0012 80BD     		pop	{r7, pc}
  48              		.cfi_endproc
  49              	.LFE230:
  50              		.size	osalSysHalt, .-osalSysHalt
  51 0014 AFF30080 		.section	.bss.reassdatagrams,"aw",%nobits
  51      AFF30080 
  51      AFF30080 
  52              		.align	2
  53              		.type	reassdatagrams, %object
  54              		.size	reassdatagrams, 4
  55              	reassdatagrams:
ARM GAS  C:\Users\Luis\AppData\Local\Temp\ccVuDqaU.s 			page 2


  56 0000 00000000 		.space	4
  57              		.section	.bss.ip_reass_pbufcount,"aw",%nobits
  58              		.align	1
  59              		.type	ip_reass_pbufcount, %object
  60              		.size	ip_reass_pbufcount, 2
  61              	ip_reass_pbufcount:
  62 0000 0000     		.space	2
  63              		.section	.text.ip_reass_tmr,"ax",%progbits
  64              		.align	2
  65              		.p2align 4,,15
  66              		.global	ip_reass_tmr
  67              		.thumb
  68              		.thumb_func
  69              		.type	ip_reass_tmr, %function
  70              	ip_reass_tmr:
  71              	.LFB260:
  72              		.file 2 "../../ChibiOS/ext/lwip/src/core/ipv4/ip_frag.c"
  73              		.loc 2 123 0
  74              		.cfi_startproc
  75              		@ args = 0, pretend = 0, frame = 16
  76              		@ frame_needed = 1, uses_anonymous_args = 0
  77 0000 80B5     		push	{r7, lr}
  78              		.cfi_def_cfa_offset 8
  79              		.cfi_offset 7, -8
  80              		.cfi_offset 14, -4
  81 0002 84B0     		sub	sp, sp, #16
  82              		.cfi_def_cfa_offset 24
  83 0004 00AF     		add	r7, sp, #0
  84              		.cfi_def_cfa_register 7
  85              		.loc 2 124 0
  86 0006 0023     		movs	r3, #0
  87 0008 BB60     		str	r3, [r7, #8]
  88              		.loc 2 126 0
  89 000a 114B     		ldr	r3, .L6
  90 000c 1B68     		ldr	r3, [r3]
  91 000e FB60     		str	r3, [r7, #12]
  92              		.loc 2 127 0
  93 0010 18E0     		b	.L3
  94              	.L5:
  95              		.loc 2 130 0
  96 0012 FB68     		ldr	r3, [r7, #12]
  97 0014 DB7F     		ldrb	r3, [r3, #31]	@ zero_extendqisi2
  98 0016 002B     		cmp	r3, #0
  99 0018 0BD0     		beq	.L4
 100              		.loc 2 131 0
 101 001a FB68     		ldr	r3, [r7, #12]
 102 001c DB7F     		ldrb	r3, [r3, #31]	@ zero_extendqisi2
 103 001e 013B     		subs	r3, r3, #1
 104 0020 DAB2     		uxtb	r2, r3
 105 0022 FB68     		ldr	r3, [r7, #12]
 106 0024 DA77     		strb	r2, [r3, #31]
 107              		.loc 2 133 0
 108 0026 FB68     		ldr	r3, [r7, #12]
 109 0028 BB60     		str	r3, [r7, #8]
 110              		.loc 2 134 0
 111 002a FB68     		ldr	r3, [r7, #12]
 112 002c 1B68     		ldr	r3, [r3]
ARM GAS  C:\Users\Luis\AppData\Local\Temp\ccVuDqaU.s 			page 3


 113 002e FB60     		str	r3, [r7, #12]
 114 0030 08E0     		b	.L3
 115              	.L4:
 116              	.LBB2:
 117              		.loc 2 139 0
 118 0032 FB68     		ldr	r3, [r7, #12]
 119 0034 7B60     		str	r3, [r7, #4]
 120              		.loc 2 141 0
 121 0036 FB68     		ldr	r3, [r7, #12]
 122 0038 1B68     		ldr	r3, [r3]
 123 003a FB60     		str	r3, [r7, #12]
 124              		.loc 2 143 0
 125 003c 7868     		ldr	r0, [r7, #4]
 126 003e B968     		ldr	r1, [r7, #8]
 127 0040 FFF7FEFF 		bl	ip_reass_free_complete_datagram
 128              	.L3:
 129              	.LBE2:
 130              		.loc 2 127 0 discriminator 1
 131 0044 FB68     		ldr	r3, [r7, #12]
 132 0046 002B     		cmp	r3, #0
 133 0048 E3D1     		bne	.L5
 134              		.loc 2 146 0
 135 004a 1037     		adds	r7, r7, #16
 136 004c BD46     		mov	sp, r7
 137              		@ sp needed
 138 004e 80BD     		pop	{r7, pc}
 139              	.L7:
 140              		.align	2
 141              	.L6:
 142 0050 00000000 		.word	reassdatagrams
 143              		.cfi_endproc
 144              	.LFE260:
 145              		.size	ip_reass_tmr, .-ip_reass_tmr
 146 0054 AFF30080 		.section	.rodata
 146      AFF30080 
 146      AFF30080 
 147              		.align	2
 148              	.LC0:
 149 0000 70726576 		.ascii	"prev != ipr\000"
 149      20213D20 
 149      69707200 
 150              		.align	2
 151              	.LC1:
 152 000c 70726576 		.ascii	"prev->next == ipr\000"
 152      2D3E6E65 
 152      7874203D 
 152      3D206970 
 152      7200
 153 001e 0000     		.align	2
 154              	.LC2:
 155 0020 70627566 		.ascii	"pbufs_freed + clen <= 0xffff\000"
 155      735F6672 
 155      65656420 
 155      2B20636C 
 155      656E203C 
 156 003d 000000   		.align	2
 157              	.LC3:
ARM GAS  C:\Users\Luis\AppData\Local\Temp\ccVuDqaU.s 			page 4


 158 0040 69705F72 		.ascii	"ip_reass_pbufcount >= clen\000"
 158      65617373 
 158      5F706275 
 158      66636F75 
 158      6E74203E 
 159              		.section	.text.ip_reass_free_complete_datagram,"ax",%progbits
 160              		.align	2
 161              		.p2align 4,,15
 162              		.thumb
 163              		.thumb_func
 164              		.type	ip_reass_free_complete_datagram, %function
 165              	ip_reass_free_complete_datagram:
 166              	.LFB261:
 167              		.loc 2 159 0
 168              		.cfi_startproc
 169              		@ args = 0, pretend = 0, frame = 32
 170              		@ frame_needed = 1, uses_anonymous_args = 0
 171 0000 80B5     		push	{r7, lr}
 172              		.cfi_def_cfa_offset 8
 173              		.cfi_offset 7, -8
 174              		.cfi_offset 14, -4
 175 0002 88B0     		sub	sp, sp, #32
 176              		.cfi_def_cfa_offset 40
 177 0004 00AF     		add	r7, sp, #0
 178              		.cfi_def_cfa_register 7
 179 0006 7860     		str	r0, [r7, #4]
 180 0008 3960     		str	r1, [r7]
 181              		.loc 2 160 0
 182 000a 0023     		movs	r3, #0
 183 000c FB83     		strh	r3, [r7, #30]	@ movhi
 184              		.loc 2 165 0
 185 000e 3A68     		ldr	r2, [r7]
 186 0010 7B68     		ldr	r3, [r7, #4]
 187 0012 9A42     		cmp	r2, r3
 188 0014 02D1     		bne	.L9
 189              		.loc 2 165 0 is_stmt 0 discriminator 1
 190 0016 3F48     		ldr	r0, .L18
 191 0018 FFF7FEFF 		bl	osalSysHalt
 192              	.L9:
 193              		.loc 2 166 0 is_stmt 1
 194 001c 3B68     		ldr	r3, [r7]
 195 001e 002B     		cmp	r3, #0
 196 0020 07D0     		beq	.L10
 197              		.loc 2 167 0
 198 0022 3B68     		ldr	r3, [r7]
 199 0024 1A68     		ldr	r2, [r3]
 200 0026 7B68     		ldr	r3, [r7, #4]
 201 0028 9A42     		cmp	r2, r3
 202 002a 02D0     		beq	.L10
 203              		.loc 2 167 0 is_stmt 0 discriminator 1
 204 002c 3A48     		ldr	r0, .L18+4
 205 002e FFF7FEFF 		bl	osalSysHalt
 206              	.L10:
 207              		.loc 2 172 0 is_stmt 1
 208 0032 7B68     		ldr	r3, [r7, #4]
 209 0034 5B68     		ldr	r3, [r3, #4]
 210 0036 5B68     		ldr	r3, [r3, #4]
ARM GAS  C:\Users\Luis\AppData\Local\Temp\ccVuDqaU.s 			page 5


 211 0038 7B61     		str	r3, [r7, #20]
 212              		.loc 2 173 0
 213 003a 7B69     		ldr	r3, [r7, #20]
 214 003c 9B88     		ldrh	r3, [r3, #4]	@ unaligned
 215 003e 9BB2     		uxth	r3, r3
 216 0040 002B     		cmp	r3, #0
 217 0042 29D1     		bne	.L11
 218              		.loc 2 176 0
 219 0044 7B68     		ldr	r3, [r7, #4]
 220 0046 5B68     		ldr	r3, [r3, #4]
 221 0048 BB61     		str	r3, [r7, #24]
 222              		.loc 2 177 0
 223 004a 7B69     		ldr	r3, [r7, #20]
 224 004c 1A68     		ldr	r2, [r3]	@ unaligned
 225 004e 7B68     		ldr	r3, [r7, #4]
 226 0050 5A60     		str	r2, [r3, #4]
 227              		.loc 2 179 0
 228 0052 BB69     		ldr	r3, [r7, #24]
 229 0054 5A68     		ldr	r2, [r3, #4]
 230 0056 7B68     		ldr	r3, [r7, #4]
 231 0058 0833     		adds	r3, r3, #8
 232 005a 1046     		mov	r0, r2
 233 005c 1946     		mov	r1, r3
 234 005e 1422     		movs	r2, #20
 235 0060 FFF7FEFF 		bl	memcpy
 236              		.loc 2 180 0
 237 0064 B869     		ldr	r0, [r7, #24]
 238 0066 0121     		movs	r1, #1
 239 0068 FFF7FEFF 		bl	icmp_time_exceeded
 240              		.loc 2 181 0
 241 006c B869     		ldr	r0, [r7, #24]
 242 006e FFF7FEFF 		bl	pbuf_clen
 243 0072 0346     		mov	r3, r0
 244 0074 FB74     		strb	r3, [r7, #19]
 245              		.loc 2 182 0
 246 0076 FA8B     		ldrh	r2, [r7, #30]
 247 0078 FB7C     		ldrb	r3, [r7, #19]	@ zero_extendqisi2
 248 007a 1344     		add	r3, r3, r2
 249 007c B3F5803F 		cmp	r3, #65536
 250 0080 02DB     		blt	.L12
 251              		.loc 2 182 0 is_stmt 0 discriminator 1
 252 0082 2648     		ldr	r0, .L18+8
 253 0084 FFF7FEFF 		bl	osalSysHalt
 254              	.L12:
 255              		.loc 2 183 0 is_stmt 1
 256 0088 FB7C     		ldrb	r3, [r7, #19]	@ zero_extendqisi2
 257 008a 9AB2     		uxth	r2, r3
 258 008c FB8B     		ldrh	r3, [r7, #30]	@ movhi
 259 008e 1344     		add	r3, r3, r2
 260 0090 FB83     		strh	r3, [r7, #30]	@ movhi
 261              		.loc 2 184 0
 262 0092 B869     		ldr	r0, [r7, #24]
 263 0094 FFF7FEFF 		bl	pbuf_free
 264              	.L11:
 265              		.loc 2 190 0
 266 0098 7B68     		ldr	r3, [r7, #4]
 267 009a 5B68     		ldr	r3, [r3, #4]
ARM GAS  C:\Users\Luis\AppData\Local\Temp\ccVuDqaU.s 			page 6


 268 009c BB61     		str	r3, [r7, #24]
 269              		.loc 2 191 0
 270 009e 1DE0     		b	.L13
 271              	.L15:
 272              	.LBB3:
 273              		.loc 2 193 0
 274 00a0 BB69     		ldr	r3, [r7, #24]
 275 00a2 5B68     		ldr	r3, [r3, #4]
 276 00a4 7B61     		str	r3, [r7, #20]
 277              		.loc 2 194 0
 278 00a6 BB69     		ldr	r3, [r7, #24]
 279 00a8 FB60     		str	r3, [r7, #12]
 280              		.loc 2 196 0
 281 00aa 7B69     		ldr	r3, [r7, #20]
 282 00ac 1B68     		ldr	r3, [r3]	@ unaligned
 283 00ae BB61     		str	r3, [r7, #24]
 284              		.loc 2 197 0
 285 00b0 F868     		ldr	r0, [r7, #12]
 286 00b2 FFF7FEFF 		bl	pbuf_clen
 287 00b6 0346     		mov	r3, r0
 288 00b8 FB74     		strb	r3, [r7, #19]
 289              		.loc 2 198 0
 290 00ba FA8B     		ldrh	r2, [r7, #30]
 291 00bc FB7C     		ldrb	r3, [r7, #19]	@ zero_extendqisi2
 292 00be 1344     		add	r3, r3, r2
 293 00c0 B3F5803F 		cmp	r3, #65536
 294 00c4 02DB     		blt	.L14
 295              		.loc 2 198 0 is_stmt 0 discriminator 1
 296 00c6 1548     		ldr	r0, .L18+8
 297 00c8 FFF7FEFF 		bl	osalSysHalt
 298              	.L14:
 299              		.loc 2 199 0 is_stmt 1
 300 00cc FB7C     		ldrb	r3, [r7, #19]	@ zero_extendqisi2
 301 00ce 9AB2     		uxth	r2, r3
 302 00d0 FB8B     		ldrh	r3, [r7, #30]	@ movhi
 303 00d2 1344     		add	r3, r3, r2
 304 00d4 FB83     		strh	r3, [r7, #30]	@ movhi
 305              		.loc 2 200 0
 306 00d6 F868     		ldr	r0, [r7, #12]
 307 00d8 FFF7FEFF 		bl	pbuf_free
 308              	.L13:
 309              	.LBE3:
 310              		.loc 2 191 0 discriminator 1
 311 00dc BB69     		ldr	r3, [r7, #24]
 312 00de 002B     		cmp	r3, #0
 313 00e0 DED1     		bne	.L15
 314              		.loc 2 203 0
 315 00e2 7868     		ldr	r0, [r7, #4]
 316 00e4 3968     		ldr	r1, [r7]
 317 00e6 FFF7FEFF 		bl	ip_reass_dequeue_datagram
 318              		.loc 2 204 0
 319 00ea 0D4B     		ldr	r3, .L18+12
 320 00ec 1B88     		ldrh	r3, [r3]
 321 00ee FA8B     		ldrh	r2, [r7, #30]
 322 00f0 9A42     		cmp	r2, r3
 323 00f2 02D9     		bls	.L16
 324              		.loc 2 204 0 is_stmt 0 discriminator 1
ARM GAS  C:\Users\Luis\AppData\Local\Temp\ccVuDqaU.s 			page 7


 325 00f4 0B48     		ldr	r0, .L18+16
 326 00f6 FFF7FEFF 		bl	osalSysHalt
 327              	.L16:
 328              		.loc 2 205 0 is_stmt 1
 329 00fa 094B     		ldr	r3, .L18+12
 330 00fc 1A88     		ldrh	r2, [r3]
 331 00fe FB8B     		ldrh	r3, [r7, #30]	@ movhi
 332 0100 D31A     		subs	r3, r2, r3
 333 0102 9AB2     		uxth	r2, r3
 334 0104 064B     		ldr	r3, .L18+12
 335 0106 1A80     		strh	r2, [r3]	@ movhi
 336              		.loc 2 207 0
 337 0108 FB8B     		ldrh	r3, [r7, #30]
 338              		.loc 2 208 0
 339 010a 1846     		mov	r0, r3
 340 010c 2037     		adds	r7, r7, #32
 341 010e BD46     		mov	sp, r7
 342              		@ sp needed
 343 0110 80BD     		pop	{r7, pc}
 344              	.L19:
 345 0112 00BF     		.align	2
 346              	.L18:
 347 0114 00000000 		.word	.LC0
 348 0118 0C000000 		.word	.LC1
 349 011c 20000000 		.word	.LC2
 350 0120 00000000 		.word	ip_reass_pbufcount
 351 0124 40000000 		.word	.LC3
 352              		.cfi_endproc
 353              	.LFE261:
 354              		.size	ip_reass_free_complete_datagram, .-ip_reass_free_complete_datagram
 355 0128 AFF30080 		.section	.text.ip_reass_remove_oldest_datagram,"ax",%progbits
 355      AFF30080 
 356              		.align	2
 357              		.p2align 4,,15
 358              		.thumb
 359              		.thumb_func
 360              		.type	ip_reass_remove_oldest_datagram, %function
 361              	ip_reass_remove_oldest_datagram:
 362              	.LFB262:
 363              		.loc 2 222 0
 364              		.cfi_startproc
 365              		@ args = 0, pretend = 0, frame = 32
 366              		@ frame_needed = 1, uses_anonymous_args = 0
 367 0000 80B5     		push	{r7, lr}
 368              		.cfi_def_cfa_offset 8
 369              		.cfi_offset 7, -8
 370              		.cfi_offset 14, -4
 371 0002 88B0     		sub	sp, sp, #32
 372              		.cfi_def_cfa_offset 40
 373 0004 00AF     		add	r7, sp, #0
 374              		.cfi_def_cfa_register 7
 375 0006 7860     		str	r0, [r7, #4]
 376 0008 3960     		str	r1, [r7]
 377              		.loc 2 227 0
 378 000a 0023     		movs	r3, #0
 379 000c 3B61     		str	r3, [r7, #16]
 380              	.L29:
ARM GAS  C:\Users\Luis\AppData\Local\Temp\ccVuDqaU.s 			page 8


 381              		.loc 2 233 0
 382 000e 0023     		movs	r3, #0
 383 0010 BB61     		str	r3, [r7, #24]
 384              		.loc 2 234 0
 385 0012 0023     		movs	r3, #0
 386 0014 7B61     		str	r3, [r7, #20]
 387              		.loc 2 235 0
 388 0016 0023     		movs	r3, #0
 389 0018 FB60     		str	r3, [r7, #12]
 390              		.loc 2 236 0
 391 001a 264B     		ldr	r3, .L31
 392 001c 1B68     		ldr	r3, [r3]
 393 001e FB61     		str	r3, [r7, #28]
 394              		.loc 2 237 0
 395 0020 2CE0     		b	.L21
 396              	.L26:
 397              		.loc 2 238 0
 398 0022 FB69     		ldr	r3, [r7, #28]
 399 0024 5A69     		ldr	r2, [r3, #20]
 400 0026 7B68     		ldr	r3, [r7, #4]
 401 0028 DB68     		ldr	r3, [r3, #12]	@ unaligned
 402 002a 9A42     		cmp	r2, r3
 403 002c 0CD1     		bne	.L22
 404              		.loc 2 238 0 is_stmt 0 discriminator 1
 405 002e FB69     		ldr	r3, [r7, #28]
 406 0030 9A69     		ldr	r2, [r3, #24]
 407 0032 7B68     		ldr	r3, [r7, #4]
 408 0034 1B69     		ldr	r3, [r3, #16]	@ unaligned
 409 0036 9A42     		cmp	r2, r3
 410 0038 06D1     		bne	.L22
 411 003a FB69     		ldr	r3, [r7, #28]
 412 003c 9A89     		ldrh	r2, [r3, #12]
 413 003e 7B68     		ldr	r3, [r7, #4]
 414 0040 9B88     		ldrh	r3, [r3, #4]	@ unaligned
 415 0042 9BB2     		uxth	r3, r3
 416 0044 9A42     		cmp	r2, r3
 417 0046 10D0     		beq	.L23
 418              	.L22:
 419              		.loc 2 240 0 is_stmt 1
 420 0048 FB68     		ldr	r3, [r7, #12]
 421 004a 0133     		adds	r3, r3, #1
 422 004c FB60     		str	r3, [r7, #12]
 423              		.loc 2 241 0
 424 004e BB69     		ldr	r3, [r7, #24]
 425 0050 002B     		cmp	r3, #0
 426 0052 02D1     		bne	.L24
 427              		.loc 2 242 0
 428 0054 FB69     		ldr	r3, [r7, #28]
 429 0056 BB61     		str	r3, [r7, #24]
 430 0058 07E0     		b	.L23
 431              	.L24:
 432              		.loc 2 243 0
 433 005a FB69     		ldr	r3, [r7, #28]
 434 005c DA7F     		ldrb	r2, [r3, #31]	@ zero_extendqisi2
 435 005e BB69     		ldr	r3, [r7, #24]
 436 0060 DB7F     		ldrb	r3, [r3, #31]	@ zero_extendqisi2
 437 0062 9A42     		cmp	r2, r3
ARM GAS  C:\Users\Luis\AppData\Local\Temp\ccVuDqaU.s 			page 9


 438 0064 01D8     		bhi	.L23
 439              		.loc 2 245 0
 440 0066 FB69     		ldr	r3, [r7, #28]
 441 0068 BB61     		str	r3, [r7, #24]
 442              	.L23:
 443              		.loc 2 248 0
 444 006a FB69     		ldr	r3, [r7, #28]
 445 006c 1B68     		ldr	r3, [r3]
 446 006e 002B     		cmp	r3, #0
 447 0070 01D0     		beq	.L25
 448              		.loc 2 249 0
 449 0072 FB69     		ldr	r3, [r7, #28]
 450 0074 7B61     		str	r3, [r7, #20]
 451              	.L25:
 452              		.loc 2 251 0
 453 0076 FB69     		ldr	r3, [r7, #28]
 454 0078 1B68     		ldr	r3, [r3]
 455 007a FB61     		str	r3, [r7, #28]
 456              	.L21:
 457              		.loc 2 237 0 discriminator 1
 458 007c FB69     		ldr	r3, [r7, #28]
 459 007e 002B     		cmp	r3, #0
 460 0080 CFD1     		bne	.L26
 461              		.loc 2 253 0
 462 0082 BB69     		ldr	r3, [r7, #24]
 463 0084 002B     		cmp	r3, #0
 464 0086 08D0     		beq	.L27
 465              		.loc 2 254 0
 466 0088 B869     		ldr	r0, [r7, #24]
 467 008a 7969     		ldr	r1, [r7, #20]
 468 008c FFF7FEFF 		bl	ip_reass_free_complete_datagram
 469 0090 B860     		str	r0, [r7, #8]
 470              		.loc 2 255 0
 471 0092 3A69     		ldr	r2, [r7, #16]
 472 0094 BB68     		ldr	r3, [r7, #8]
 473 0096 1344     		add	r3, r3, r2
 474 0098 3B61     		str	r3, [r7, #16]
 475              	.L27:
 476              		.loc 2 257 0
 477 009a 3A69     		ldr	r2, [r7, #16]
 478 009c 3B68     		ldr	r3, [r7]
 479 009e 9A42     		cmp	r2, r3
 480 00a0 02DA     		bge	.L28
 481              		.loc 2 257 0 is_stmt 0 discriminator 1
 482 00a2 FB68     		ldr	r3, [r7, #12]
 483 00a4 012B     		cmp	r3, #1
 484 00a6 B2DC     		bgt	.L29
 485              	.L28:
 486              		.loc 2 258 0 is_stmt 1
 487 00a8 3B69     		ldr	r3, [r7, #16]
 488              		.loc 2 259 0
 489 00aa 1846     		mov	r0, r3
 490 00ac 2037     		adds	r7, r7, #32
 491 00ae BD46     		mov	sp, r7
 492              		@ sp needed
 493 00b0 80BD     		pop	{r7, pc}
 494              	.L32:
ARM GAS  C:\Users\Luis\AppData\Local\Temp\ccVuDqaU.s 			page 10


 495 00b2 00BF     		.align	2
 496              	.L31:
 497 00b4 00000000 		.word	reassdatagrams
 498              		.cfi_endproc
 499              	.LFE262:
 500              		.size	ip_reass_remove_oldest_datagram, .-ip_reass_remove_oldest_datagram
 501 00b8 AFF30080 		.section	.text.ip_reass_enqueue_new_datagram,"ax",%progbits
 501      AFF30080 
 502              		.align	2
 503              		.p2align 4,,15
 504              		.thumb
 505              		.thumb_func
 506              		.type	ip_reass_enqueue_new_datagram, %function
 507              	ip_reass_enqueue_new_datagram:
 508              	.LFB263:
 509              		.loc 2 270 0
 510              		.cfi_startproc
 511              		@ args = 0, pretend = 0, frame = 16
 512              		@ frame_needed = 1, uses_anonymous_args = 0
 513 0000 80B5     		push	{r7, lr}
 514              		.cfi_def_cfa_offset 8
 515              		.cfi_offset 7, -8
 516              		.cfi_offset 14, -4
 517 0002 84B0     		sub	sp, sp, #16
 518              		.cfi_def_cfa_offset 24
 519 0004 00AF     		add	r7, sp, #0
 520              		.cfi_def_cfa_register 7
 521 0006 7860     		str	r0, [r7, #4]
 522 0008 3960     		str	r1, [r7]
 523              		.loc 2 273 0
 524 000a 0520     		movs	r0, #5
 525 000c FFF7FEFF 		bl	memp_malloc
 526 0010 F860     		str	r0, [r7, #12]
 527              		.loc 2 274 0
 528 0012 FB68     		ldr	r3, [r7, #12]
 529 0014 002B     		cmp	r3, #0
 530 0016 16D1     		bne	.L34
 531              		.loc 2 276 0
 532 0018 7868     		ldr	r0, [r7, #4]
 533 001a 3968     		ldr	r1, [r7]
 534 001c FFF7FEFF 		bl	ip_reass_remove_oldest_datagram
 535 0020 0246     		mov	r2, r0
 536 0022 3B68     		ldr	r3, [r7]
 537 0024 9A42     		cmp	r2, r3
 538 0026 03DB     		blt	.L35
 539              		.loc 2 277 0
 540 0028 0520     		movs	r0, #5
 541 002a FFF7FEFF 		bl	memp_malloc
 542 002e F860     		str	r0, [r7, #12]
 543              	.L35:
 544              		.loc 2 279 0
 545 0030 FB68     		ldr	r3, [r7, #12]
 546 0032 002B     		cmp	r3, #0
 547 0034 07D1     		bne	.L34
 548              		.loc 2 282 0
 549 0036 114B     		ldr	r3, .L37
 550 0038 9B8F     		ldrh	r3, [r3, #60]
ARM GAS  C:\Users\Luis\AppData\Local\Temp\ccVuDqaU.s 			page 11


 551 003a 0133     		adds	r3, r3, #1
 552 003c 9AB2     		uxth	r2, r3
 553 003e 0F4B     		ldr	r3, .L37
 554 0040 9A87     		strh	r2, [r3, #60]	@ movhi
 555              		.loc 2 284 0
 556 0042 0023     		movs	r3, #0
 557 0044 16E0     		b	.L36
 558              	.L34:
 559              		.loc 2 287 0
 560 0046 F868     		ldr	r0, [r7, #12]
 561 0048 0021     		movs	r1, #0
 562 004a 2022     		movs	r2, #32
 563 004c FFF7FEFF 		bl	memset
 564              		.loc 2 288 0
 565 0050 FB68     		ldr	r3, [r7, #12]
 566 0052 0322     		movs	r2, #3
 567 0054 DA77     		strb	r2, [r3, #31]
 568              		.loc 2 291 0
 569 0056 0A4B     		ldr	r3, .L37+4
 570 0058 1A68     		ldr	r2, [r3]
 571 005a FB68     		ldr	r3, [r7, #12]
 572 005c 1A60     		str	r2, [r3]
 573              		.loc 2 292 0
 574 005e 084B     		ldr	r3, .L37+4
 575 0060 FA68     		ldr	r2, [r7, #12]
 576 0062 1A60     		str	r2, [r3]
 577              		.loc 2 295 0
 578 0064 FB68     		ldr	r3, [r7, #12]
 579 0066 0833     		adds	r3, r3, #8
 580 0068 1846     		mov	r0, r3
 581 006a 7968     		ldr	r1, [r7, #4]
 582 006c 1422     		movs	r2, #20
 583 006e FFF7FEFF 		bl	memcpy
 584              		.loc 2 296 0
 585 0072 FB68     		ldr	r3, [r7, #12]
 586              	.L36:
 587              		.loc 2 297 0
 588 0074 1846     		mov	r0, r3
 589 0076 1037     		adds	r7, r7, #16
 590 0078 BD46     		mov	sp, r7
 591              		@ sp needed
 592 007a 80BD     		pop	{r7, pc}
 593              	.L38:
 594              		.align	2
 595              	.L37:
 596 007c 00000000 		.word	lwip_stats
 597 0080 00000000 		.word	reassdatagrams
 598              		.cfi_endproc
 599              	.LFE263:
 600              		.size	ip_reass_enqueue_new_datagram, .-ip_reass_enqueue_new_datagram
 601 0084 AFF30080 		.section	.rodata
 601      AFF30080 
 601      AFF30080 
 602 005b 00       		.align	2
 603              	.LC4:
 604 005c 73616E69 		.ascii	"sanity check linked list\000"
 604      74792063 
ARM GAS  C:\Users\Luis\AppData\Local\Temp\ccVuDqaU.s 			page 12


 604      6865636B 
 604      206C696E 
 604      6B656420 
 605              		.section	.text.ip_reass_dequeue_datagram,"ax",%progbits
 606              		.align	2
 607              		.p2align 4,,15
 608              		.thumb
 609              		.thumb_func
 610              		.type	ip_reass_dequeue_datagram, %function
 611              	ip_reass_dequeue_datagram:
 612              	.LFB264:
 613              		.loc 2 305 0
 614              		.cfi_startproc
 615              		@ args = 0, pretend = 0, frame = 8
 616              		@ frame_needed = 1, uses_anonymous_args = 0
 617 0000 80B5     		push	{r7, lr}
 618              		.cfi_def_cfa_offset 8
 619              		.cfi_offset 7, -8
 620              		.cfi_offset 14, -4
 621 0002 82B0     		sub	sp, sp, #8
 622              		.cfi_def_cfa_offset 16
 623 0004 00AF     		add	r7, sp, #0
 624              		.cfi_def_cfa_register 7
 625 0006 7860     		str	r0, [r7, #4]
 626 0008 3960     		str	r1, [r7]
 627              		.loc 2 308 0
 628 000a 0D4B     		ldr	r3, .L43
 629 000c 1A68     		ldr	r2, [r3]
 630 000e 7B68     		ldr	r3, [r7, #4]
 631 0010 9A42     		cmp	r2, r3
 632 0012 04D1     		bne	.L40
 633              		.loc 2 310 0
 634 0014 7B68     		ldr	r3, [r7, #4]
 635 0016 1A68     		ldr	r2, [r3]
 636 0018 094B     		ldr	r3, .L43
 637 001a 1A60     		str	r2, [r3]
 638 001c 09E0     		b	.L41
 639              	.L40:
 640              		.loc 2 313 0
 641 001e 3B68     		ldr	r3, [r7]
 642 0020 002B     		cmp	r3, #0
 643 0022 02D1     		bne	.L42
 644              		.loc 2 313 0 is_stmt 0 discriminator 1
 645 0024 0748     		ldr	r0, .L43+4
 646 0026 FFF7FEFF 		bl	osalSysHalt
 647              	.L42:
 648              		.loc 2 314 0 is_stmt 1
 649 002a 7B68     		ldr	r3, [r7, #4]
 650 002c 1A68     		ldr	r2, [r3]
 651 002e 3B68     		ldr	r3, [r7]
 652 0030 1A60     		str	r2, [r3]
 653              	.L41:
 654              		.loc 2 318 0
 655 0032 0520     		movs	r0, #5
 656 0034 7968     		ldr	r1, [r7, #4]
 657 0036 FFF7FEFF 		bl	memp_free
 658              		.loc 2 319 0
ARM GAS  C:\Users\Luis\AppData\Local\Temp\ccVuDqaU.s 			page 13


 659 003a 0837     		adds	r7, r7, #8
 660 003c BD46     		mov	sp, r7
 661              		@ sp needed
 662 003e 80BD     		pop	{r7, pc}
 663              	.L44:
 664              		.align	2
 665              	.L43:
 666 0040 00000000 		.word	reassdatagrams
 667 0044 5C000000 		.word	.LC4
 668              		.cfi_endproc
 669              	.LFE264:
 670              		.size	ip_reass_dequeue_datagram, .-ip_reass_dequeue_datagram
 671 0048 AFF30080 		.section	.rodata
 671      AFF30080 
 672 0075 000000   		.align	2
 673              	.LC5:
 674 0078 63686563 		.ascii	"check fragments don't overlap\000"
 674      6B206672 
 674      61676D65 
 674      6E747320 
 674      646F6E27 
 675 0096 0000     		.align	2
 676              	.LC6:
 677 0098 6E6F2070 		.ascii	"no previous fragment, this must be the first fragme"
 677      72657669 
 677      6F757320 
 677      66726167 
 677      6D656E74 
 678 00cb 6E742100 		.ascii	"nt!\000"
 679 00cf 00       		.align	2
 680              	.LC7:
 681 00d0 73616E69 		.ascii	"sanity check\000"
 681      74792063 
 681      6865636B 
 681      00
 682 00dd 000000   		.align	2
 683              	.LC8:
 684 00e0 76616C69 		.ascii	"validate_datagram:next_pbuf!=NULL\000"
 684      64617465 
 684      5F646174 
 684      61677261 
 684      6D3A6E65 
 685 0102 0000     		.align	2
 686              	.LC9:
 687 0104 76616C69 		.ascii	"validate_datagram:datagram end!=datagram len\000"
 687      64617465 
 687      5F646174 
 687      61677261 
 687      6D3A6461 
 688              		.section	.text.ip_reass_chain_frag_into_datagram_and_validate,"ax",%progbits
 689              		.align	2
 690              		.p2align 4,,15
 691              		.thumb
 692              		.thumb_func
 693              		.type	ip_reass_chain_frag_into_datagram_and_validate, %function
 694              	ip_reass_chain_frag_into_datagram_and_validate:
 695              	.LFB265:
ARM GAS  C:\Users\Luis\AppData\Local\Temp\ccVuDqaU.s 			page 14


 696              		.loc 2 332 0
 697              		.cfi_startproc
 698              		@ args = 0, pretend = 0, frame = 40
 699              		@ frame_needed = 1, uses_anonymous_args = 0
 700 0000 90B5     		push	{r4, r7, lr}
 701              		.cfi_def_cfa_offset 12
 702              		.cfi_offset 4, -12
 703              		.cfi_offset 7, -8
 704              		.cfi_offset 14, -4
 705 0002 8BB0     		sub	sp, sp, #44
 706              		.cfi_def_cfa_offset 56
 707 0004 00AF     		add	r7, sp, #0
 708              		.cfi_def_cfa_register 7
 709 0006 7860     		str	r0, [r7, #4]
 710 0008 3960     		str	r1, [r7]
 711              		.loc 2 333 0
 712 000a 0023     		movs	r3, #0
 713 000c 3B62     		str	r3, [r7, #32]
 714              		.loc 2 337 0
 715 000e 0123     		movs	r3, #1
 716 0010 BB61     		str	r3, [r7, #24]
 717              		.loc 2 340 0
 718 0012 3B68     		ldr	r3, [r7]
 719 0014 5B68     		ldr	r3, [r3, #4]
 720 0016 7B61     		str	r3, [r7, #20]
 721              		.loc 2 341 0
 722 0018 7B69     		ldr	r3, [r7, #20]
 723 001a 5B88     		ldrh	r3, [r3, #2]	@ unaligned
 724 001c 9BB2     		uxth	r3, r3
 725 001e 1846     		mov	r0, r3
 726 0020 FFF7FEFF 		bl	lwip_ntohs
 727 0024 0346     		mov	r3, r0
 728 0026 1A46     		mov	r2, r3
 729 0028 7B69     		ldr	r3, [r7, #20]
 730 002a 1B78     		ldrb	r3, [r3]	@ zero_extendqisi2
 731 002c 03F00F03 		and	r3, r3, #15
 732 0030 9BB2     		uxth	r3, r3
 733 0032 1946     		mov	r1, r3	@ movhi
 734 0034 8903     		lsls	r1, r1, #14
 735 0036 CB1A     		subs	r3, r1, r3
 736 0038 9B00     		lsls	r3, r3, #2
 737 003a 9BB2     		uxth	r3, r3
 738 003c 1344     		add	r3, r3, r2
 739 003e 7B82     		strh	r3, [r7, #18]	@ movhi
 740              		.loc 2 342 0
 741 0040 7B69     		ldr	r3, [r7, #20]
 742 0042 DB88     		ldrh	r3, [r3, #6]	@ unaligned
 743 0044 9BB2     		uxth	r3, r3
 744 0046 1846     		mov	r0, r3
 745 0048 FFF7FEFF 		bl	lwip_ntohs
 746 004c 0346     		mov	r3, r0
 747 004e C3F30C03 		ubfx	r3, r3, #0, #13
 748 0052 9BB2     		uxth	r3, r3
 749 0054 DB00     		lsls	r3, r3, #3
 750 0056 3B82     		strh	r3, [r7, #16]	@ movhi
 751              		.loc 2 349 0
 752 0058 3B68     		ldr	r3, [r7]
ARM GAS  C:\Users\Luis\AppData\Local\Temp\ccVuDqaU.s 			page 15


 753 005a 5B68     		ldr	r3, [r3, #4]
 754 005c 7B62     		str	r3, [r7, #36]
 755              		.loc 2 350 0
 756 005e 7B6A     		ldr	r3, [r7, #36]
 757 0060 0022     		movs	r2, #0
 758 0062 1A70     		strb	r2, [r3]
 759 0064 0022     		movs	r2, #0
 760 0066 5A70     		strb	r2, [r3, #1]
 761 0068 0022     		movs	r2, #0
 762 006a 9A70     		strb	r2, [r3, #2]
 763 006c 0022     		movs	r2, #0
 764 006e DA70     		strb	r2, [r3, #3]
 765              		.loc 2 351 0
 766 0070 7B6A     		ldr	r3, [r7, #36]
 767 0072 3A8A     		ldrh	r2, [r7, #16]	@ movhi
 768 0074 9A80     		strh	r2, [r3, #4]	@ unaligned
 769              		.loc 2 352 0
 770 0076 3A8A     		ldrh	r2, [r7, #16]	@ movhi
 771 0078 7B8A     		ldrh	r3, [r7, #18]	@ movhi
 772 007a 1344     		add	r3, r3, r2
 773 007c 9AB2     		uxth	r2, r3
 774 007e 7B6A     		ldr	r3, [r7, #36]
 775 0080 DA80     		strh	r2, [r3, #6]	@ unaligned
 776              		.loc 2 356 0
 777 0082 7B68     		ldr	r3, [r7, #4]
 778 0084 5B68     		ldr	r3, [r3, #4]
 779 0086 FB61     		str	r3, [r7, #28]
 780 0088 4EE0     		b	.L46
 781              	.L55:
 782              		.loc 2 357 0
 783 008a FB69     		ldr	r3, [r7, #28]
 784 008c 5B68     		ldr	r3, [r3, #4]
 785 008e FB60     		str	r3, [r7, #12]
 786              		.loc 2 358 0
 787 0090 7B6A     		ldr	r3, [r7, #36]
 788 0092 9B88     		ldrh	r3, [r3, #4]	@ unaligned
 789 0094 9AB2     		uxth	r2, r3
 790 0096 FB68     		ldr	r3, [r7, #12]
 791 0098 9B88     		ldrh	r3, [r3, #4]	@ unaligned
 792 009a 9BB2     		uxth	r3, r3
 793 009c 9A42     		cmp	r2, r3
 794 009e 1FD2     		bcs	.L47
 795              		.loc 2 360 0
 796 00a0 7B6A     		ldr	r3, [r7, #36]
 797 00a2 FA69     		ldr	r2, [r7, #28]
 798 00a4 1A60     		str	r2, [r3]	@ unaligned
 799              		.loc 2 361 0
 800 00a6 3B6A     		ldr	r3, [r7, #32]
 801 00a8 002B     		cmp	r3, #0
 802 00aa 15D0     		beq	.L48
 803              		.loc 2 364 0
 804 00ac 7B6A     		ldr	r3, [r7, #36]
 805 00ae 9B88     		ldrh	r3, [r3, #4]	@ unaligned
 806 00b0 9AB2     		uxth	r2, r3
 807 00b2 3B6A     		ldr	r3, [r7, #32]
 808 00b4 DB88     		ldrh	r3, [r3, #6]	@ unaligned
 809 00b6 9BB2     		uxth	r3, r3
ARM GAS  C:\Users\Luis\AppData\Local\Temp\ccVuDqaU.s 			page 16


 810 00b8 9A42     		cmp	r2, r3
 811 00ba C0F0B880 		bcc	.L49
 812              		.loc 2 364 0 is_stmt 0 discriminator 1
 813 00be 7B6A     		ldr	r3, [r7, #36]
 814 00c0 DB88     		ldrh	r3, [r3, #6]	@ unaligned
 815 00c2 9AB2     		uxth	r2, r3
 816 00c4 FB68     		ldr	r3, [r7, #12]
 817 00c6 9B88     		ldrh	r3, [r3, #4]	@ unaligned
 818 00c8 9BB2     		uxth	r3, r3
 819 00ca 9A42     		cmp	r2, r3
 820 00cc 00F2AF80 		bhi	.L49
 821              		.loc 2 369 0 is_stmt 1
 822 00d0 3B6A     		ldr	r3, [r7, #32]
 823 00d2 3A68     		ldr	r2, [r7]
 824 00d4 1A60     		str	r2, [r3]	@ unaligned
 825              		.loc 2 374 0
 826 00d6 2AE0     		b	.L51
 827              	.L48:
 828              		.loc 2 372 0
 829 00d8 7B68     		ldr	r3, [r7, #4]
 830 00da 3A68     		ldr	r2, [r7]
 831 00dc 5A60     		str	r2, [r3, #4]
 832              		.loc 2 374 0
 833 00de 26E0     		b	.L51
 834              	.L47:
 835              		.loc 2 375 0
 836 00e0 7B6A     		ldr	r3, [r7, #36]
 837 00e2 9B88     		ldrh	r3, [r3, #4]	@ unaligned
 838 00e4 9AB2     		uxth	r2, r3
 839 00e6 FB68     		ldr	r3, [r7, #12]
 840 00e8 9B88     		ldrh	r3, [r3, #4]	@ unaligned
 841 00ea 9BB2     		uxth	r3, r3
 842 00ec 9A42     		cmp	r2, r3
 843 00ee 00D1     		bne	.L52
 844              		.loc 2 377 0
 845 00f0 9DE0     		b	.L49
 846              	.L52:
 847              		.loc 2 379 0
 848 00f2 7B6A     		ldr	r3, [r7, #36]
 849 00f4 9B88     		ldrh	r3, [r3, #4]	@ unaligned
 850 00f6 9AB2     		uxth	r2, r3
 851 00f8 FB68     		ldr	r3, [r7, #12]
 852 00fa DB88     		ldrh	r3, [r3, #6]	@ unaligned
 853 00fc 9BB2     		uxth	r3, r3
 854 00fe 9A42     		cmp	r2, r3
 855 0100 00D2     		bcs	.L53
 856              		.loc 2 381 0
 857 0102 94E0     		b	.L49
 858              	.L53:
 859              		.loc 2 385 0
 860 0104 3B6A     		ldr	r3, [r7, #32]
 861 0106 002B     		cmp	r3, #0
 862 0108 09D0     		beq	.L54
 863              		.loc 2 386 0
 864 010a 3B6A     		ldr	r3, [r7, #32]
 865 010c DB88     		ldrh	r3, [r3, #6]	@ unaligned
 866 010e 9AB2     		uxth	r2, r3
ARM GAS  C:\Users\Luis\AppData\Local\Temp\ccVuDqaU.s 			page 17


 867 0110 FB68     		ldr	r3, [r7, #12]
 868 0112 9B88     		ldrh	r3, [r3, #4]	@ unaligned
 869 0114 9BB2     		uxth	r3, r3
 870 0116 9A42     		cmp	r2, r3
 871 0118 01D0     		beq	.L54
 872              		.loc 2 389 0
 873 011a 0023     		movs	r3, #0
 874 011c BB61     		str	r3, [r7, #24]
 875              	.L54:
 876              		.loc 2 393 0
 877 011e FB68     		ldr	r3, [r7, #12]
 878 0120 1B68     		ldr	r3, [r3]	@ unaligned
 879 0122 FB61     		str	r3, [r7, #28]
 880              		.loc 2 394 0
 881 0124 FB68     		ldr	r3, [r7, #12]
 882 0126 3B62     		str	r3, [r7, #32]
 883              	.L46:
 884              		.loc 2 356 0 discriminator 1
 885 0128 FB69     		ldr	r3, [r7, #28]
 886 012a 002B     		cmp	r3, #0
 887 012c ADD1     		bne	.L55
 888              	.L51:
 889              		.loc 2 398 0
 890 012e FB69     		ldr	r3, [r7, #28]
 891 0130 002B     		cmp	r3, #0
 892 0132 25D1     		bne	.L56
 893              		.loc 2 399 0
 894 0134 3B6A     		ldr	r3, [r7, #32]
 895 0136 002B     		cmp	r3, #0
 896 0138 18D0     		beq	.L57
 897              		.loc 2 403 0
 898 013a 3B6A     		ldr	r3, [r7, #32]
 899 013c DB88     		ldrh	r3, [r3, #6]	@ unaligned
 900 013e 9AB2     		uxth	r2, r3
 901 0140 7B6A     		ldr	r3, [r7, #36]
 902 0142 9B88     		ldrh	r3, [r3, #4]	@ unaligned
 903 0144 9BB2     		uxth	r3, r3
 904 0146 9A42     		cmp	r2, r3
 905 0148 02D9     		bls	.L58
 906              		.loc 2 403 0 is_stmt 0 discriminator 1
 907 014a 4248     		ldr	r0, .L72
 908 014c FFF7FEFF 		bl	osalSysHalt
 909              	.L58:
 910              		.loc 2 405 0 is_stmt 1
 911 0150 3B6A     		ldr	r3, [r7, #32]
 912 0152 3A68     		ldr	r2, [r7]
 913 0154 1A60     		str	r2, [r3]	@ unaligned
 914              		.loc 2 406 0
 915 0156 3B6A     		ldr	r3, [r7, #32]
 916 0158 DB88     		ldrh	r3, [r3, #6]	@ unaligned
 917 015a 9AB2     		uxth	r2, r3
 918 015c 7B6A     		ldr	r3, [r7, #36]
 919 015e 9B88     		ldrh	r3, [r3, #4]	@ unaligned
 920 0160 9BB2     		uxth	r3, r3
 921 0162 9A42     		cmp	r2, r3
 922 0164 0CD0     		beq	.L56
 923              		.loc 2 407 0
ARM GAS  C:\Users\Luis\AppData\Local\Temp\ccVuDqaU.s 			page 18


 924 0166 0023     		movs	r3, #0
 925 0168 BB61     		str	r3, [r7, #24]
 926 016a 09E0     		b	.L56
 927              	.L57:
 928              		.loc 2 411 0
 929 016c 7B68     		ldr	r3, [r7, #4]
 930 016e 5B68     		ldr	r3, [r3, #4]
 931 0170 002B     		cmp	r3, #0
 932 0172 02D0     		beq	.L60
 933              		.loc 2 411 0 is_stmt 0 discriminator 1
 934 0174 3848     		ldr	r0, .L72+4
 935 0176 FFF7FEFF 		bl	osalSysHalt
 936              	.L60:
 937              		.loc 2 415 0 is_stmt 1
 938 017a 7B68     		ldr	r3, [r7, #4]
 939 017c 3A68     		ldr	r2, [r7]
 940 017e 5A60     		str	r2, [r3, #4]
 941              	.L56:
 942              		.loc 2 421 0
 943 0180 7B68     		ldr	r3, [r7, #4]
 944 0182 9B7F     		ldrb	r3, [r3, #30]	@ zero_extendqisi2
 945 0184 03F00103 		and	r3, r3, #1
 946 0188 002B     		cmp	r3, #0
 947 018a 4ED0     		beq	.L61
 948              		.loc 2 423 0
 949 018c BB69     		ldr	r3, [r7, #24]
 950 018e 002B     		cmp	r3, #0
 951 0190 49D0     		beq	.L62
 952              		.loc 2 426 0
 953 0192 7B68     		ldr	r3, [r7, #4]
 954 0194 5B68     		ldr	r3, [r3, #4]
 955 0196 5B68     		ldr	r3, [r3, #4]
 956 0198 9B88     		ldrh	r3, [r3, #4]	@ unaligned
 957 019a 9BB2     		uxth	r3, r3
 958 019c 002B     		cmp	r3, #0
 959 019e 02D0     		beq	.L63
 960              		.loc 2 427 0
 961 01a0 0023     		movs	r3, #0
 962 01a2 BB61     		str	r3, [r7, #24]
 963 01a4 3FE0     		b	.L62
 964              	.L63:
 965              		.loc 2 430 0
 966 01a6 7B6A     		ldr	r3, [r7, #36]
 967 01a8 3B62     		str	r3, [r7, #32]
 968              		.loc 2 431 0
 969 01aa 7B6A     		ldr	r3, [r7, #36]
 970 01ac 1B68     		ldr	r3, [r3]	@ unaligned
 971 01ae FB61     		str	r3, [r7, #28]
 972              		.loc 2 432 0
 973 01b0 12E0     		b	.L64
 974              	.L67:
 975              		.loc 2 433 0
 976 01b2 FB69     		ldr	r3, [r7, #28]
 977 01b4 5B68     		ldr	r3, [r3, #4]
 978 01b6 7B62     		str	r3, [r7, #36]
 979              		.loc 2 434 0
 980 01b8 3B6A     		ldr	r3, [r7, #32]
ARM GAS  C:\Users\Luis\AppData\Local\Temp\ccVuDqaU.s 			page 19


 981 01ba DB88     		ldrh	r3, [r3, #6]	@ unaligned
 982 01bc 9AB2     		uxth	r2, r3
 983 01be 7B6A     		ldr	r3, [r7, #36]
 984 01c0 9B88     		ldrh	r3, [r3, #4]	@ unaligned
 985 01c2 9BB2     		uxth	r3, r3
 986 01c4 9A42     		cmp	r2, r3
 987 01c6 02D0     		beq	.L65
 988              		.loc 2 435 0
 989 01c8 0023     		movs	r3, #0
 990 01ca BB61     		str	r3, [r7, #24]
 991              		.loc 2 436 0
 992 01cc 07E0     		b	.L66
 993              	.L65:
 994              		.loc 2 438 0
 995 01ce 7B6A     		ldr	r3, [r7, #36]
 996 01d0 3B62     		str	r3, [r7, #32]
 997              		.loc 2 439 0
 998 01d2 7B6A     		ldr	r3, [r7, #36]
 999 01d4 1B68     		ldr	r3, [r3]	@ unaligned
 1000 01d6 FB61     		str	r3, [r7, #28]
 1001              	.L64:
 1002              		.loc 2 432 0 discriminator 1
 1003 01d8 FB69     		ldr	r3, [r7, #28]
 1004 01da 002B     		cmp	r3, #0
 1005 01dc E9D1     		bne	.L67
 1006              	.L66:
 1007              		.loc 2 443 0
 1008 01de BB69     		ldr	r3, [r7, #24]
 1009 01e0 002B     		cmp	r3, #0
 1010 01e2 20D0     		beq	.L62
 1011              		.loc 2 444 0
 1012 01e4 7B68     		ldr	r3, [r7, #4]
 1013 01e6 5B68     		ldr	r3, [r3, #4]
 1014 01e8 002B     		cmp	r3, #0
 1015 01ea 02D1     		bne	.L68
 1016              		.loc 2 444 0 is_stmt 0 discriminator 1
 1017 01ec 1B48     		ldr	r0, .L72+8
 1018 01ee FFF7FEFF 		bl	osalSysHalt
 1019              	.L68:
 1020              		.loc 2 445 0 is_stmt 1
 1021 01f2 7B68     		ldr	r3, [r7, #4]
 1022 01f4 5B68     		ldr	r3, [r3, #4]
 1023 01f6 5A68     		ldr	r2, [r3, #4]
 1024 01f8 7B6A     		ldr	r3, [r7, #36]
 1025 01fa 9A42     		cmp	r2, r3
 1026 01fc 02D1     		bne	.L69
 1027              		.loc 2 445 0 is_stmt 0 discriminator 1
 1028 01fe 1748     		ldr	r0, .L72+8
 1029 0200 FFF7FEFF 		bl	osalSysHalt
 1030              	.L69:
 1031              		.loc 2 447 0 is_stmt 1
 1032 0204 7B6A     		ldr	r3, [r7, #36]
 1033 0206 1B68     		ldr	r3, [r3]	@ unaligned
 1034 0208 002B     		cmp	r3, #0
 1035 020a 02D0     		beq	.L70
 1036              		.loc 2 447 0 is_stmt 0 discriminator 1
 1037 020c 1448     		ldr	r0, .L72+12
ARM GAS  C:\Users\Luis\AppData\Local\Temp\ccVuDqaU.s 			page 20


 1038 020e FFF7FEFF 		bl	osalSysHalt
 1039              	.L70:
 1040              		.loc 2 449 0 is_stmt 1
 1041 0212 7B6A     		ldr	r3, [r7, #36]
 1042 0214 DB88     		ldrh	r3, [r3, #6]	@ unaligned
 1043 0216 9AB2     		uxth	r2, r3
 1044 0218 7B68     		ldr	r3, [r7, #4]
 1045 021a 9B8B     		ldrh	r3, [r3, #28]
 1046 021c 9A42     		cmp	r2, r3
 1047 021e 02D0     		beq	.L62
 1048              		.loc 2 449 0 is_stmt 0 discriminator 1
 1049 0220 1048     		ldr	r0, .L72+16
 1050 0222 FFF7FEFF 		bl	osalSysHalt
 1051              	.L62:
 1052              		.loc 2 457 0 is_stmt 1
 1053 0226 BB69     		ldr	r3, [r7, #24]
 1054 0228 0FE0     		b	.L71
 1055              	.L61:
 1056              		.loc 2 460 0
 1057 022a 0023     		movs	r3, #0
 1058 022c 0DE0     		b	.L71
 1059              	.L49:
 1060              		.loc 2 463 0
 1061 022e 0E4B     		ldr	r3, .L72+20
 1062 0230 1C88     		ldrh	r4, [r3]
 1063 0232 3868     		ldr	r0, [r7]
 1064 0234 FFF7FEFF 		bl	pbuf_clen
 1065 0238 0346     		mov	r3, r0
 1066 023a E31A     		subs	r3, r4, r3
 1067 023c 9AB2     		uxth	r2, r3
 1068 023e 0A4B     		ldr	r3, .L72+20
 1069 0240 1A80     		strh	r2, [r3]	@ movhi
 1070              		.loc 2 464 0
 1071 0242 3868     		ldr	r0, [r7]
 1072 0244 FFF7FEFF 		bl	pbuf_free
 1073              		.loc 2 465 0
 1074 0248 0023     		movs	r3, #0
 1075              	.L71:
 1076              		.loc 2 467 0
 1077 024a 1846     		mov	r0, r3
 1078 024c 2C37     		adds	r7, r7, #44
 1079 024e BD46     		mov	sp, r7
 1080              		@ sp needed
 1081 0250 90BD     		pop	{r4, r7, pc}
 1082              	.L73:
 1083 0252 00BF     		.align	2
 1084              	.L72:
 1085 0254 78000000 		.word	.LC5
 1086 0258 98000000 		.word	.LC6
 1087 025c D0000000 		.word	.LC7
 1088 0260 E0000000 		.word	.LC8
 1089 0264 04010000 		.word	.LC9
 1090 0268 00000000 		.word	ip_reass_pbufcount
 1091              		.cfi_endproc
 1092              	.LFE265:
 1093              		.size	ip_reass_chain_frag_into_datagram_and_validate, .-ip_reass_chain_frag_into_datagram_and_vali
 1094 026c AFF30080 		.section	.text.ip_reass,"ax",%progbits
ARM GAS  C:\Users\Luis\AppData\Local\Temp\ccVuDqaU.s 			page 21


 1095              		.align	2
 1096              		.p2align 4,,15
 1097              		.global	ip_reass
 1098              		.thumb
 1099              		.thumb_func
 1100              		.type	ip_reass, %function
 1101              	ip_reass:
 1102              	.LFB266:
 1103              		.loc 2 477 0
 1104              		.cfi_startproc
 1105              		@ args = 0, pretend = 0, frame = 40
 1106              		@ frame_needed = 1, uses_anonymous_args = 0
 1107 0000 90B5     		push	{r4, r7, lr}
 1108              		.cfi_def_cfa_offset 12
 1109              		.cfi_offset 4, -12
 1110              		.cfi_offset 7, -8
 1111              		.cfi_offset 14, -4
 1112 0002 8BB0     		sub	sp, sp, #44
 1113              		.cfi_def_cfa_offset 56
 1114 0004 00AF     		add	r7, sp, #0
 1115              		.cfi_def_cfa_register 7
 1116 0006 7860     		str	r0, [r7, #4]
 1117              		.loc 2 484 0
 1118 0008 0023     		movs	r3, #0
 1119 000a FB61     		str	r3, [r7, #28]
 1120              		.loc 2 486 0
 1121 000c 9A4B     		ldr	r3, .L90
 1122 000e 5B8E     		ldrh	r3, [r3, #50]
 1123 0010 0133     		adds	r3, r3, #1
 1124 0012 9AB2     		uxth	r2, r3
 1125 0014 984B     		ldr	r3, .L90
 1126 0016 5A86     		strh	r2, [r3, #50]	@ movhi
 1127              		.loc 2 489 0
 1128 0018 7B68     		ldr	r3, [r7, #4]
 1129 001a 5B68     		ldr	r3, [r3, #4]
 1130 001c BB61     		str	r3, [r7, #24]
 1131              		.loc 2 491 0
 1132 001e BB69     		ldr	r3, [r7, #24]
 1133 0020 1B78     		ldrb	r3, [r3]	@ zero_extendqisi2
 1134 0022 03F00F03 		and	r3, r3, #15
 1135 0026 9B00     		lsls	r3, r3, #2
 1136 0028 142B     		cmp	r3, #20
 1137 002a 08D0     		beq	.L75
 1138              		.loc 2 493 0
 1139 002c 924B     		ldr	r3, .L90
 1140 002e B3F84430 		ldrh	r3, [r3, #68]
 1141 0032 0133     		adds	r3, r3, #1
 1142 0034 9AB2     		uxth	r2, r3
 1143 0036 904B     		ldr	r3, .L90
 1144 0038 A3F84420 		strh	r2, [r3, #68]	@ movhi
 1145              		.loc 2 494 0
 1146 003c 0EE1     		b	.L76
 1147              	.L75:
 1148              		.loc 2 497 0
 1149 003e BB69     		ldr	r3, [r7, #24]
 1150 0040 DB88     		ldrh	r3, [r3, #6]	@ unaligned
 1151 0042 9BB2     		uxth	r3, r3
ARM GAS  C:\Users\Luis\AppData\Local\Temp\ccVuDqaU.s 			page 22


 1152 0044 1846     		mov	r0, r3
 1153 0046 FFF7FEFF 		bl	lwip_ntohs
 1154 004a 0346     		mov	r3, r0
 1155 004c C3F30C03 		ubfx	r3, r3, #0, #13
 1156 0050 9BB2     		uxth	r3, r3
 1157 0052 DB00     		lsls	r3, r3, #3
 1158 0054 FB82     		strh	r3, [r7, #22]	@ movhi
 1159              		.loc 2 498 0
 1160 0056 BB69     		ldr	r3, [r7, #24]
 1161 0058 5B88     		ldrh	r3, [r3, #2]	@ unaligned
 1162 005a 9BB2     		uxth	r3, r3
 1163 005c 1846     		mov	r0, r3
 1164 005e FFF7FEFF 		bl	lwip_ntohs
 1165 0062 0346     		mov	r3, r0
 1166 0064 1A46     		mov	r2, r3
 1167 0066 BB69     		ldr	r3, [r7, #24]
 1168 0068 1B78     		ldrb	r3, [r3]	@ zero_extendqisi2
 1169 006a 03F00F03 		and	r3, r3, #15
 1170 006e 9BB2     		uxth	r3, r3
 1171 0070 1946     		mov	r1, r3	@ movhi
 1172 0072 8903     		lsls	r1, r1, #14
 1173 0074 CB1A     		subs	r3, r1, r3
 1174 0076 9B00     		lsls	r3, r3, #2
 1175 0078 9BB2     		uxth	r3, r3
 1176 007a 1344     		add	r3, r3, r2
 1177 007c BB82     		strh	r3, [r7, #20]	@ movhi
 1178              		.loc 2 501 0
 1179 007e 7868     		ldr	r0, [r7, #4]
 1180 0080 FFF7FEFF 		bl	pbuf_clen
 1181 0084 0346     		mov	r3, r0
 1182 0086 FB74     		strb	r3, [r7, #19]
 1183              		.loc 2 502 0
 1184 0088 7C4B     		ldr	r3, .L90+4
 1185 008a 1B88     		ldrh	r3, [r3]
 1186 008c 1A46     		mov	r2, r3
 1187 008e FB7C     		ldrb	r3, [r7, #19]	@ zero_extendqisi2
 1188 0090 1344     		add	r3, r3, r2
 1189 0092 0A2B     		cmp	r3, #10
 1190 0094 15DD     		ble	.L77
 1191              		.loc 2 504 0
 1192 0096 FB7C     		ldrb	r3, [r7, #19]	@ zero_extendqisi2
 1193 0098 B869     		ldr	r0, [r7, #24]
 1194 009a 1946     		mov	r1, r3
 1195 009c FFF7FEFF 		bl	ip_reass_remove_oldest_datagram
 1196 00a0 0346     		mov	r3, r0
 1197 00a2 002B     		cmp	r3, #0
 1198 00a4 06D0     		beq	.L78
 1199              		.loc 2 505 0 discriminator 1
 1200 00a6 754B     		ldr	r3, .L90+4
 1201 00a8 1B88     		ldrh	r3, [r3]
 1202 00aa 1A46     		mov	r2, r3
 1203 00ac FB7C     		ldrb	r3, [r7, #19]	@ zero_extendqisi2
 1204 00ae 1344     		add	r3, r3, r2
 1205              		.loc 2 504 0 discriminator 1
 1206 00b0 0A2B     		cmp	r3, #10
 1207 00b2 06DD     		ble	.L77
 1208              	.L78:
ARM GAS  C:\Users\Luis\AppData\Local\Temp\ccVuDqaU.s 			page 23


 1209              		.loc 2 511 0
 1210 00b4 704B     		ldr	r3, .L90
 1211 00b6 9B8F     		ldrh	r3, [r3, #60]
 1212 00b8 0133     		adds	r3, r3, #1
 1213 00ba 9AB2     		uxth	r2, r3
 1214 00bc 6E4B     		ldr	r3, .L90
 1215 00be 9A87     		strh	r2, [r3, #60]	@ movhi
 1216              		.loc 2 514 0
 1217 00c0 CCE0     		b	.L76
 1218              	.L77:
 1219              		.loc 2 520 0
 1220 00c2 6F4B     		ldr	r3, .L90+8
 1221 00c4 1B68     		ldr	r3, [r3]
 1222 00c6 3B62     		str	r3, [r7, #32]
 1223 00c8 20E0     		b	.L79
 1224              	.L82:
 1225              		.loc 2 524 0
 1226 00ca 3B6A     		ldr	r3, [r7, #32]
 1227 00cc 5A69     		ldr	r2, [r3, #20]
 1228 00ce BB69     		ldr	r3, [r7, #24]
 1229 00d0 DB68     		ldr	r3, [r3, #12]	@ unaligned
 1230 00d2 9A42     		cmp	r2, r3
 1231 00d4 15D1     		bne	.L80
 1232              		.loc 2 524 0 is_stmt 0 discriminator 1
 1233 00d6 3B6A     		ldr	r3, [r7, #32]
 1234 00d8 9A69     		ldr	r2, [r3, #24]
 1235 00da BB69     		ldr	r3, [r7, #24]
 1236 00dc 1B69     		ldr	r3, [r3, #16]	@ unaligned
 1237 00de 9A42     		cmp	r2, r3
 1238 00e0 0FD1     		bne	.L80
 1239 00e2 3B6A     		ldr	r3, [r7, #32]
 1240 00e4 9A89     		ldrh	r2, [r3, #12]
 1241 00e6 BB69     		ldr	r3, [r7, #24]
 1242 00e8 9B88     		ldrh	r3, [r3, #4]	@ unaligned
 1243 00ea 9BB2     		uxth	r3, r3
 1244 00ec 9A42     		cmp	r2, r3
 1245 00ee 08D1     		bne	.L80
 1246              		.loc 2 527 0 is_stmt 1
 1247 00f0 614B     		ldr	r3, .L90
 1248 00f2 B3F84630 		ldrh	r3, [r3, #70]
 1249 00f6 0133     		adds	r3, r3, #1
 1250 00f8 9AB2     		uxth	r2, r3
 1251 00fa 5F4B     		ldr	r3, .L90
 1252 00fc A3F84620 		strh	r2, [r3, #70]	@ movhi
 1253              		.loc 2 528 0
 1254 0100 07E0     		b	.L81
 1255              	.L80:
 1256              		.loc 2 530 0
 1257 0102 3B6A     		ldr	r3, [r7, #32]
 1258 0104 FB61     		str	r3, [r7, #28]
 1259              		.loc 2 520 0
 1260 0106 3B6A     		ldr	r3, [r7, #32]
 1261 0108 1B68     		ldr	r3, [r3]
 1262 010a 3B62     		str	r3, [r7, #32]
 1263              	.L79:
 1264              		.loc 2 520 0 is_stmt 0 discriminator 1
 1265 010c 3B6A     		ldr	r3, [r7, #32]
ARM GAS  C:\Users\Luis\AppData\Local\Temp\ccVuDqaU.s 			page 24


 1266 010e 002B     		cmp	r3, #0
 1267 0110 DBD1     		bne	.L82
 1268              	.L81:
 1269              		.loc 2 533 0 is_stmt 1
 1270 0112 3B6A     		ldr	r3, [r7, #32]
 1271 0114 002B     		cmp	r3, #0
 1272 0116 09D1     		bne	.L83
 1273              		.loc 2 535 0
 1274 0118 FB7C     		ldrb	r3, [r7, #19]	@ zero_extendqisi2
 1275 011a B869     		ldr	r0, [r7, #24]
 1276 011c 1946     		mov	r1, r3
 1277 011e FFF7FEFF 		bl	ip_reass_enqueue_new_datagram
 1278 0122 3862     		str	r0, [r7, #32]
 1279              		.loc 2 537 0
 1280 0124 3B6A     		ldr	r3, [r7, #32]
 1281 0126 002B     		cmp	r3, #0
 1282 0128 1CD1     		bne	.L84
 1283              		.loc 2 538 0
 1284 012a 97E0     		b	.L76
 1285              	.L83:
 1286              		.loc 2 541 0
 1287 012c BB69     		ldr	r3, [r7, #24]
 1288 012e DB88     		ldrh	r3, [r3, #6]	@ unaligned
 1289 0130 9BB2     		uxth	r3, r3
 1290 0132 1846     		mov	r0, r3
 1291 0134 FFF7FEFF 		bl	lwip_ntohs
 1292 0138 0346     		mov	r3, r0
 1293 013a C3F30C03 		ubfx	r3, r3, #0, #13
 1294 013e 002B     		cmp	r3, #0
 1295 0140 10D1     		bne	.L84
 1296              		.loc 2 542 0 discriminator 1
 1297 0142 3B6A     		ldr	r3, [r7, #32]
 1298 0144 DB89     		ldrh	r3, [r3, #14]
 1299 0146 1846     		mov	r0, r3
 1300 0148 FFF7FEFF 		bl	lwip_ntohs
 1301 014c 0346     		mov	r3, r0
 1302 014e C3F30C03 		ubfx	r3, r3, #0, #13
 1303              		.loc 2 541 0 discriminator 1
 1304 0152 002B     		cmp	r3, #0
 1305 0154 06D0     		beq	.L84
 1306              		.loc 2 547 0
 1307 0156 3B6A     		ldr	r3, [r7, #32]
 1308 0158 0833     		adds	r3, r3, #8
 1309 015a 1846     		mov	r0, r3
 1310 015c B969     		ldr	r1, [r7, #24]
 1311 015e 1422     		movs	r2, #20
 1312 0160 FFF7FEFF 		bl	memcpy
 1313              	.L84:
 1314              		.loc 2 552 0
 1315 0164 FB7C     		ldrb	r3, [r7, #19]	@ zero_extendqisi2
 1316 0166 9AB2     		uxth	r2, r3
 1317 0168 444B     		ldr	r3, .L90+4
 1318 016a 1B88     		ldrh	r3, [r3]
 1319 016c 1344     		add	r3, r3, r2
 1320 016e 9AB2     		uxth	r2, r3
 1321 0170 424B     		ldr	r3, .L90+4
 1322 0172 1A80     		strh	r2, [r3]	@ movhi
ARM GAS  C:\Users\Luis\AppData\Local\Temp\ccVuDqaU.s 			page 25


 1323              		.loc 2 558 0
 1324 0174 BB69     		ldr	r3, [r7, #24]
 1325 0176 DB88     		ldrh	r3, [r3, #6]	@ unaligned
 1326 0178 9BB2     		uxth	r3, r3
 1327 017a 03F02003 		and	r3, r3, #32
 1328 017e 002B     		cmp	r3, #0
 1329 0180 0CD1     		bne	.L85
 1330              		.loc 2 559 0
 1331 0182 3B6A     		ldr	r3, [r7, #32]
 1332 0184 9B7F     		ldrb	r3, [r3, #30]	@ zero_extendqisi2
 1333 0186 43F00103 		orr	r3, r3, #1
 1334 018a DAB2     		uxtb	r2, r3
 1335 018c 3B6A     		ldr	r3, [r7, #32]
 1336 018e 9A77     		strb	r2, [r3, #30]
 1337              		.loc 2 560 0
 1338 0190 FA8A     		ldrh	r2, [r7, #22]	@ movhi
 1339 0192 BB8A     		ldrh	r3, [r7, #20]	@ movhi
 1340 0194 1344     		add	r3, r3, r2
 1341 0196 9AB2     		uxth	r2, r3
 1342 0198 3B6A     		ldr	r3, [r7, #32]
 1343 019a 9A83     		strh	r2, [r3, #28]	@ movhi
 1344              	.L85:
 1345              		.loc 2 567 0
 1346 019c 386A     		ldr	r0, [r7, #32]
 1347 019e 7968     		ldr	r1, [r7, #4]
 1348 01a0 FFF7FEFF 		bl	ip_reass_chain_frag_into_datagram_and_validate
 1349 01a4 0346     		mov	r3, r0
 1350 01a6 002B     		cmp	r3, #0
 1351 01a8 56D0     		beq	.L86
 1352              		.loc 2 570 0
 1353 01aa 3B6A     		ldr	r3, [r7, #32]
 1354 01ac 9B8B     		ldrh	r3, [r3, #28]
 1355 01ae 1433     		adds	r3, r3, #20
 1356 01b0 9AB2     		uxth	r2, r3
 1357 01b2 3B6A     		ldr	r3, [r7, #32]
 1358 01b4 9A83     		strh	r2, [r3, #28]	@ movhi
 1359              		.loc 2 573 0
 1360 01b6 3B6A     		ldr	r3, [r7, #32]
 1361 01b8 5B68     		ldr	r3, [r3, #4]
 1362 01ba 5B68     		ldr	r3, [r3, #4]
 1363 01bc 1B68     		ldr	r3, [r3]	@ unaligned
 1364 01be 7B62     		str	r3, [r7, #36]
 1365              		.loc 2 576 0
 1366 01c0 3B6A     		ldr	r3, [r7, #32]
 1367 01c2 5B68     		ldr	r3, [r3, #4]
 1368 01c4 5B68     		ldr	r3, [r3, #4]
 1369 01c6 BB61     		str	r3, [r7, #24]
 1370              		.loc 2 577 0
 1371 01c8 3B6A     		ldr	r3, [r7, #32]
 1372 01ca 0833     		adds	r3, r3, #8
 1373 01cc B869     		ldr	r0, [r7, #24]
 1374 01ce 1946     		mov	r1, r3
 1375 01d0 1422     		movs	r2, #20
 1376 01d2 FFF7FEFF 		bl	memcpy
 1377              		.loc 2 578 0
 1378 01d6 3B6A     		ldr	r3, [r7, #32]
 1379 01d8 9B8B     		ldrh	r3, [r3, #28]
ARM GAS  C:\Users\Luis\AppData\Local\Temp\ccVuDqaU.s 			page 26


 1380 01da 1846     		mov	r0, r3
 1381 01dc FFF7FEFF 		bl	lwip_htons
 1382 01e0 0346     		mov	r3, r0
 1383 01e2 1A46     		mov	r2, r3
 1384 01e4 BB69     		ldr	r3, [r7, #24]
 1385 01e6 5A80     		strh	r2, [r3, #2]	@ unaligned
 1386              		.loc 2 579 0
 1387 01e8 BB69     		ldr	r3, [r7, #24]
 1388 01ea 0022     		movs	r2, #0
 1389 01ec 9A71     		strb	r2, [r3, #6]
 1390 01ee 0022     		movs	r2, #0
 1391 01f0 DA71     		strb	r2, [r3, #7]
 1392              		.loc 2 580 0
 1393 01f2 BB69     		ldr	r3, [r7, #24]
 1394 01f4 0022     		movs	r2, #0
 1395 01f6 9A72     		strb	r2, [r3, #10]
 1396 01f8 0022     		movs	r2, #0
 1397 01fa DA72     		strb	r2, [r3, #11]
 1398              		.loc 2 582 0
 1399 01fc B869     		ldr	r0, [r7, #24]
 1400 01fe 1421     		movs	r1, #20
 1401 0200 FFF7FEFF 		bl	inet_chksum
 1402 0204 0346     		mov	r3, r0
 1403 0206 1A46     		mov	r2, r3
 1404 0208 BB69     		ldr	r3, [r7, #24]
 1405 020a 5A81     		strh	r2, [r3, #10]	@ unaligned
 1406              		.loc 2 584 0
 1407 020c 3B6A     		ldr	r3, [r7, #32]
 1408 020e 5B68     		ldr	r3, [r3, #4]
 1409 0210 7B60     		str	r3, [r7, #4]
 1410              		.loc 2 587 0
 1411 0212 0EE0     		b	.L87
 1412              	.L88:
 1413              		.loc 2 588 0
 1414 0214 7B6A     		ldr	r3, [r7, #36]
 1415 0216 5B68     		ldr	r3, [r3, #4]
 1416 0218 FB60     		str	r3, [r7, #12]
 1417              		.loc 2 591 0
 1418 021a 786A     		ldr	r0, [r7, #36]
 1419 021c 6FF01301 		mvn	r1, #19
 1420 0220 FFF7FEFF 		bl	pbuf_header
 1421              		.loc 2 592 0
 1422 0224 7868     		ldr	r0, [r7, #4]
 1423 0226 796A     		ldr	r1, [r7, #36]
 1424 0228 FFF7FEFF 		bl	pbuf_cat
 1425              		.loc 2 593 0
 1426 022c FB68     		ldr	r3, [r7, #12]
 1427 022e 1B68     		ldr	r3, [r3]	@ unaligned
 1428 0230 7B62     		str	r3, [r7, #36]
 1429              	.L87:
 1430              		.loc 2 587 0 discriminator 1
 1431 0232 7B6A     		ldr	r3, [r7, #36]
 1432 0234 002B     		cmp	r3, #0
 1433 0236 EDD1     		bne	.L88
 1434              		.loc 2 596 0
 1435 0238 386A     		ldr	r0, [r7, #32]
 1436 023a F969     		ldr	r1, [r7, #28]
ARM GAS  C:\Users\Luis\AppData\Local\Temp\ccVuDqaU.s 			page 27


 1437 023c FFF7FEFF 		bl	ip_reass_dequeue_datagram
 1438              		.loc 2 599 0
 1439 0240 0E4B     		ldr	r3, .L90+4
 1440 0242 1C88     		ldrh	r4, [r3]
 1441 0244 7868     		ldr	r0, [r7, #4]
 1442 0246 FFF7FEFF 		bl	pbuf_clen
 1443 024a 0346     		mov	r3, r0
 1444 024c E31A     		subs	r3, r4, r3
 1445 024e 9AB2     		uxth	r2, r3
 1446 0250 0A4B     		ldr	r3, .L90+4
 1447 0252 1A80     		strh	r2, [r3]	@ movhi
 1448              		.loc 2 602 0
 1449 0254 7B68     		ldr	r3, [r7, #4]
 1450 0256 0BE0     		b	.L89
 1451              	.L86:
 1452              		.loc 2 606 0
 1453 0258 0023     		movs	r3, #0
 1454 025a 09E0     		b	.L89
 1455              	.L76:
 1456              		.loc 2 610 0
 1457 025c 064B     		ldr	r3, .L90
 1458 025e DB8E     		ldrh	r3, [r3, #54]
 1459 0260 0133     		adds	r3, r3, #1
 1460 0262 9AB2     		uxth	r2, r3
 1461 0264 044B     		ldr	r3, .L90
 1462 0266 DA86     		strh	r2, [r3, #54]	@ movhi
 1463              		.loc 2 611 0
 1464 0268 7868     		ldr	r0, [r7, #4]
 1465 026a FFF7FEFF 		bl	pbuf_free
 1466              		.loc 2 612 0
 1467 026e 0023     		movs	r3, #0
 1468              	.L89:
 1469              		.loc 2 613 0
 1470 0270 1846     		mov	r0, r3
 1471 0272 2C37     		adds	r7, r7, #44
 1472 0274 BD46     		mov	sp, r7
 1473              		@ sp needed
 1474 0276 90BD     		pop	{r4, r7, pc}
 1475              	.L91:
 1476              		.align	2
 1477              	.L90:
 1478 0278 00000000 		.word	lwip_stats
 1479 027c 00000000 		.word	ip_reass_pbufcount
 1480 0280 00000000 		.word	reassdatagrams
 1481              		.cfi_endproc
 1482              	.LFE266:
 1483              		.size	ip_reass, .-ip_reass
 1484 0284 AFF30080 		.section	.text.ip_frag_alloc_pbuf_custom_ref,"ax",%progbits
 1484      AFF30080 
 1484      AFF30080 
 1485              		.align	2
 1486              		.p2align 4,,15
 1487              		.thumb
 1488              		.thumb_func
 1489              		.type	ip_frag_alloc_pbuf_custom_ref, %function
 1490              	ip_frag_alloc_pbuf_custom_ref:
 1491              	.LFB267:
ARM GAS  C:\Users\Luis\AppData\Local\Temp\ccVuDqaU.s 			page 28


 1492              		.loc 2 625 0
 1493              		.cfi_startproc
 1494              		@ args = 0, pretend = 0, frame = 0
 1495              		@ frame_needed = 1, uses_anonymous_args = 0
 1496 0000 80B5     		push	{r7, lr}
 1497              		.cfi_def_cfa_offset 8
 1498              		.cfi_offset 7, -8
 1499              		.cfi_offset 14, -4
 1500 0002 00AF     		add	r7, sp, #0
 1501              		.cfi_def_cfa_register 7
 1502              		.loc 2 626 0
 1503 0004 0620     		movs	r0, #6
 1504 0006 FFF7FEFF 		bl	memp_malloc
 1505 000a 0346     		mov	r3, r0
 1506              		.loc 2 627 0
 1507 000c 1846     		mov	r0, r3
 1508 000e 80BD     		pop	{r7, pc}
 1509              		.cfi_endproc
 1510              	.LFE267:
 1511              		.size	ip_frag_alloc_pbuf_custom_ref, .-ip_frag_alloc_pbuf_custom_ref
 1512              		.section	.rodata
 1513 0131 000000   		.align	2
 1514              	.LC10:
 1515 0134 7020213D 		.ascii	"p != NULL\000"
 1515      204E554C 
 1515      4C00
 1516              		.section	.text.ip_frag_free_pbuf_custom_ref,"ax",%progbits
 1517              		.align	2
 1518              		.p2align 4,,15
 1519              		.thumb
 1520              		.thumb_func
 1521              		.type	ip_frag_free_pbuf_custom_ref, %function
 1522              	ip_frag_free_pbuf_custom_ref:
 1523              	.LFB268:
 1524              		.loc 2 632 0
 1525              		.cfi_startproc
 1526              		@ args = 0, pretend = 0, frame = 8
 1527              		@ frame_needed = 1, uses_anonymous_args = 0
 1528 0000 80B5     		push	{r7, lr}
 1529              		.cfi_def_cfa_offset 8
 1530              		.cfi_offset 7, -8
 1531              		.cfi_offset 14, -4
 1532 0002 82B0     		sub	sp, sp, #8
 1533              		.cfi_def_cfa_offset 16
 1534 0004 00AF     		add	r7, sp, #0
 1535              		.cfi_def_cfa_register 7
 1536 0006 7860     		str	r0, [r7, #4]
 1537              		.loc 2 633 0
 1538 0008 7B68     		ldr	r3, [r7, #4]
 1539 000a 002B     		cmp	r3, #0
 1540 000c 02D1     		bne	.L95
 1541              		.loc 2 633 0 is_stmt 0 discriminator 1
 1542 000e 0548     		ldr	r0, .L96
 1543 0010 FFF7FEFF 		bl	osalSysHalt
 1544              	.L95:
 1545              		.loc 2 634 0 is_stmt 1
 1546 0014 0620     		movs	r0, #6
ARM GAS  C:\Users\Luis\AppData\Local\Temp\ccVuDqaU.s 			page 29


 1547 0016 7968     		ldr	r1, [r7, #4]
 1548 0018 FFF7FEFF 		bl	memp_free
 1549              		.loc 2 635 0
 1550 001c 0837     		adds	r7, r7, #8
 1551 001e BD46     		mov	sp, r7
 1552              		@ sp needed
 1553 0020 80BD     		pop	{r7, pc}
 1554              	.L97:
 1555 0022 00BF     		.align	2
 1556              	.L96:
 1557 0024 34010000 		.word	.LC10
 1558              		.cfi_endproc
 1559              	.LFE268:
 1560              		.size	ip_frag_free_pbuf_custom_ref, .-ip_frag_free_pbuf_custom_ref
 1561 0028 AFF30080 		.section	.rodata
 1561      AFF30080 
 1562 013e 0000     		.align	2
 1563              	.LC11:
 1564 0140 70637220 		.ascii	"pcr != NULL\000"
 1564      213D204E 
 1564      554C4C00 
 1565              		.align	2
 1566              	.LC12:
 1567 014c 70637220 		.ascii	"pcr == p\000"
 1567      3D3D2070 
 1567      00
 1568              		.section	.text.ipfrag_free_pbuf_custom,"ax",%progbits
 1569              		.align	2
 1570              		.p2align 4,,15
 1571              		.thumb
 1572              		.thumb_func
 1573              		.type	ipfrag_free_pbuf_custom, %function
 1574              	ipfrag_free_pbuf_custom:
 1575              	.LFB269:
 1576              		.loc 2 641 0
 1577              		.cfi_startproc
 1578              		@ args = 0, pretend = 0, frame = 16
 1579              		@ frame_needed = 1, uses_anonymous_args = 0
 1580 0000 80B5     		push	{r7, lr}
 1581              		.cfi_def_cfa_offset 8
 1582              		.cfi_offset 7, -8
 1583              		.cfi_offset 14, -4
 1584 0002 84B0     		sub	sp, sp, #16
 1585              		.cfi_def_cfa_offset 24
 1586 0004 00AF     		add	r7, sp, #0
 1587              		.cfi_def_cfa_register 7
 1588 0006 7860     		str	r0, [r7, #4]
 1589              		.loc 2 642 0
 1590 0008 7B68     		ldr	r3, [r7, #4]
 1591 000a FB60     		str	r3, [r7, #12]
 1592              		.loc 2 643 0
 1593 000c FB68     		ldr	r3, [r7, #12]
 1594 000e 002B     		cmp	r3, #0
 1595 0010 02D1     		bne	.L99
 1596              		.loc 2 643 0 is_stmt 0 discriminator 1
 1597 0012 0C48     		ldr	r0, .L102
 1598 0014 FFF7FEFF 		bl	osalSysHalt
ARM GAS  C:\Users\Luis\AppData\Local\Temp\ccVuDqaU.s 			page 30


 1599              	.L99:
 1600              		.loc 2 644 0 is_stmt 1
 1601 0018 FA68     		ldr	r2, [r7, #12]
 1602 001a 7B68     		ldr	r3, [r7, #4]
 1603 001c 9A42     		cmp	r2, r3
 1604 001e 02D0     		beq	.L100
 1605              		.loc 2 644 0 is_stmt 0 discriminator 1
 1606 0020 0948     		ldr	r0, .L102+4
 1607 0022 FFF7FEFF 		bl	osalSysHalt
 1608              	.L100:
 1609              		.loc 2 645 0 is_stmt 1
 1610 0026 FB68     		ldr	r3, [r7, #12]
 1611 0028 5B69     		ldr	r3, [r3, #20]
 1612 002a 002B     		cmp	r3, #0
 1613 002c 04D0     		beq	.L101
 1614              		.loc 2 646 0
 1615 002e FB68     		ldr	r3, [r7, #12]
 1616 0030 5B69     		ldr	r3, [r3, #20]
 1617 0032 1846     		mov	r0, r3
 1618 0034 FFF7FEFF 		bl	pbuf_free
 1619              	.L101:
 1620              		.loc 2 648 0
 1621 0038 F868     		ldr	r0, [r7, #12]
 1622 003a FFF7FEFF 		bl	ip_frag_free_pbuf_custom_ref
 1623              		.loc 2 649 0
 1624 003e 1037     		adds	r7, r7, #16
 1625 0040 BD46     		mov	sp, r7
 1626              		@ sp needed
 1627 0042 80BD     		pop	{r7, pc}
 1628              	.L103:
 1629              		.align	2
 1630              	.L102:
 1631 0044 40010000 		.word	.LC11
 1632 0048 4C010000 		.word	.LC12
 1633              		.cfi_endproc
 1634              	.LFE269:
 1635              		.size	ipfrag_free_pbuf_custom, .-ipfrag_free_pbuf_custom
 1636 004c AFF30080 		.section	.rodata
 1637 0155 000000   		.align	2
 1638              	.LC13:
 1639 0158 74686973 		.ascii	"this needs a pbuf in one piece!\000"
 1639      206E6565 
 1639      64732061 
 1639      20706275 
 1639      6620696E 
 1640              		.section	.text.ip_frag,"ax",%progbits
 1641              		.align	2
 1642              		.p2align 4,,15
 1643              		.global	ip_frag
 1644              		.thumb
 1645              		.thumb_func
 1646              		.type	ip_frag, %function
 1647              	ip_frag:
 1648              	.LFB270:
 1649              		.loc 2 668 0
 1650              		.cfi_startproc
 1651              		@ args = 0, pretend = 0, frame = 64
ARM GAS  C:\Users\Luis\AppData\Local\Temp\ccVuDqaU.s 			page 31


 1652              		@ frame_needed = 1, uses_anonymous_args = 0
 1653 0000 80B5     		push	{r7, lr}
 1654              		.cfi_def_cfa_offset 8
 1655              		.cfi_offset 7, -8
 1656              		.cfi_offset 14, -4
 1657 0002 92B0     		sub	sp, sp, #72
 1658              		.cfi_def_cfa_offset 80
 1659 0004 02AF     		add	r7, sp, #8
 1660              		.cfi_def_cfa 7, 72
 1661 0006 F860     		str	r0, [r7, #12]
 1662 0008 B960     		str	r1, [r7, #8]
 1663 000a 7A60     		str	r2, [r7, #4]
 1664              		.loc 2 681 0
 1665 000c BB68     		ldr	r3, [r7, #8]
 1666 000e 1B8C     		ldrh	r3, [r3, #32]	@ movhi
 1667 0010 7B86     		strh	r3, [r7, #50]	@ movhi
 1668              		.loc 2 684 0
 1669 0012 1423     		movs	r3, #20
 1670 0014 7B87     		strh	r3, [r7, #58]	@ movhi
 1671              		.loc 2 687 0
 1672 0016 0023     		movs	r3, #0
 1673 0018 FB86     		strh	r3, [r7, #54]	@ movhi
 1674              		.loc 2 709 0
 1675 001a FB68     		ldr	r3, [r7, #12]
 1676 001c 5B68     		ldr	r3, [r3, #4]
 1677 001e FB62     		str	r3, [r7, #44]
 1678              		.loc 2 710 0
 1679 0020 FB6A     		ldr	r3, [r7, #44]
 1680 0022 BB62     		str	r3, [r7, #40]
 1681              		.loc 2 714 0
 1682 0024 BB6A     		ldr	r3, [r7, #40]
 1683 0026 DB88     		ldrh	r3, [r3, #6]	@ unaligned
 1684 0028 9BB2     		uxth	r3, r3
 1685 002a 1846     		mov	r0, r3
 1686 002c FFF7FEFF 		bl	lwip_ntohs
 1687 0030 0346     		mov	r3, r0
 1688 0032 3B87     		strh	r3, [r7, #56]	@ movhi
 1689              		.loc 2 715 0
 1690 0034 3B8F     		ldrh	r3, [r7, #56]	@ movhi
 1691 0036 C3F30C03 		ubfx	r3, r3, #0, #13
 1692 003a BB87     		strh	r3, [r7, #60]	@ movhi
 1693              		.loc 2 716 0
 1694 003c 3B8F     		ldrh	r3, [r7, #56]	@ movhi
 1695 003e 03F40053 		and	r3, r3, #8192
 1696 0042 FB84     		strh	r3, [r7, #38]	@ movhi
 1697              		.loc 2 718 0
 1698 0044 FB68     		ldr	r3, [r7, #12]
 1699 0046 1B89     		ldrh	r3, [r3, #8]
 1700 0048 143B     		subs	r3, r3, #20
 1701 004a FB87     		strh	r3, [r7, #62]	@ movhi
 1702              		.loc 2 720 0
 1703 004c 7B8E     		ldrh	r3, [r7, #50]
 1704 004e 143B     		subs	r3, r3, #20
 1705 0050 002B     		cmp	r3, #0
 1706 0052 00DA     		bge	.L105
 1707 0054 0733     		adds	r3, r3, #7
 1708              	.L105:
ARM GAS  C:\Users\Luis\AppData\Local\Temp\ccVuDqaU.s 			page 32


 1709 0056 DB10     		asrs	r3, r3, #3
 1710 0058 BB84     		strh	r3, [r7, #36]	@ movhi
 1711              		.loc 2 722 0
 1712 005a CEE0     		b	.L106
 1713              	.L118:
 1714              		.loc 2 723 0
 1715 005c FA8F     		ldrh	r2, [r7, #62]
 1716 005e 7B8E     		ldrh	r3, [r7, #50]
 1717 0060 143B     		subs	r3, r3, #20
 1718 0062 9A42     		cmp	r2, r3
 1719 0064 CCBF     		ite	gt
 1720 0066 0023     		movgt	r3, #0
 1721 0068 0123     		movle	r3, #1
 1722 006a DBB2     		uxtb	r3, r3
 1723 006c 7B84     		strh	r3, [r7, #34]	@ movhi
 1724              		.loc 2 726 0
 1725 006e BB8F     		ldrh	r3, [r7, #60]	@ movhi
 1726 0070 C3F30C03 		ubfx	r3, r3, #0, #13
 1727 0074 9AB2     		uxth	r2, r3
 1728 0076 FB8C     		ldrh	r3, [r7, #38]	@ movhi
 1729 0078 1343     		orrs	r3, r3, r2
 1730 007a 3B87     		strh	r3, [r7, #56]	@ movhi
 1731              		.loc 2 727 0
 1732 007c 7B8C     		ldrh	r3, [r7, #34]
 1733 007e 002B     		cmp	r3, #0
 1734 0080 03D1     		bne	.L107
 1735              		.loc 2 728 0
 1736 0082 3B8F     		ldrh	r3, [r7, #56]	@ movhi
 1737 0084 43F40053 		orr	r3, r3, #8192
 1738 0088 3B87     		strh	r3, [r7, #56]	@ movhi
 1739              	.L107:
 1740              		.loc 2 732 0
 1741 008a 7B8C     		ldrh	r3, [r7, #34]
 1742 008c 002B     		cmp	r3, #0
 1743 008e 03D1     		bne	.L108
 1744              		.loc 2 732 0 is_stmt 0 discriminator 1
 1745 0090 BB8C     		ldrh	r3, [r7, #36]	@ movhi
 1746 0092 DB00     		lsls	r3, r3, #3
 1747 0094 9BB2     		uxth	r3, r3
 1748 0096 00E0     		b	.L109
 1749              	.L108:
 1750              		.loc 2 732 0 discriminator 2
 1751 0098 FB8F     		ldrh	r3, [r7, #62]
 1752              	.L109:
 1753              		.loc 2 732 0 discriminator 3
 1754 009a 3B84     		strh	r3, [r7, #32]	@ movhi
 1755              		.loc 2 759 0 is_stmt 1 discriminator 3
 1756 009c 0220     		movs	r0, #2
 1757 009e 1421     		movs	r1, #20
 1758 00a0 0022     		movs	r2, #0
 1759 00a2 FFF7FEFF 		bl	pbuf_alloc
 1760 00a6 F861     		str	r0, [r7, #28]
 1761              		.loc 2 760 0 discriminator 3
 1762 00a8 FB69     		ldr	r3, [r7, #28]
 1763 00aa 002B     		cmp	r3, #0
 1764 00ac 01D1     		bne	.L110
 1765              		.loc 2 761 0
ARM GAS  C:\Users\Luis\AppData\Local\Temp\ccVuDqaU.s 			page 33


 1766 00ae FF23     		movs	r3, #255
 1767 00b0 A8E0     		b	.L111
 1768              	.L110:
 1769              		.loc 2 763 0
 1770 00b2 FB68     		ldr	r3, [r7, #12]
 1771 00b4 5B89     		ldrh	r3, [r3, #10]
 1772 00b6 132B     		cmp	r3, #19
 1773 00b8 02D8     		bhi	.L112
 1774              		.loc 2 763 0 is_stmt 0 discriminator 1
 1775 00ba 5548     		ldr	r0, .L119
 1776 00bc FFF7FEFF 		bl	osalSysHalt
 1777              	.L112:
 1778              		.loc 2 765 0 is_stmt 1
 1779 00c0 FB69     		ldr	r3, [r7, #28]
 1780 00c2 5B68     		ldr	r3, [r3, #4]
 1781 00c4 1846     		mov	r0, r3
 1782 00c6 F96A     		ldr	r1, [r7, #44]
 1783 00c8 1422     		movs	r2, #20
 1784 00ca FFF7FEFF 		bl	memcpy
 1785              		.loc 2 766 0
 1786 00ce FB69     		ldr	r3, [r7, #28]
 1787 00d0 5B68     		ldr	r3, [r3, #4]
 1788 00d2 BB62     		str	r3, [r7, #40]
 1789              		.loc 2 769 0
 1790 00d4 FB68     		ldr	r3, [r7, #12]
 1791 00d6 5A68     		ldr	r2, [r3, #4]
 1792 00d8 7B8F     		ldrh	r3, [r7, #58]
 1793 00da 1A44     		add	r2, r2, r3
 1794 00dc FB68     		ldr	r3, [r7, #12]
 1795 00de 5A60     		str	r2, [r3, #4]
 1796              		.loc 2 770 0
 1797 00e0 FB68     		ldr	r3, [r7, #12]
 1798 00e2 5A89     		ldrh	r2, [r3, #10]
 1799 00e4 7B8F     		ldrh	r3, [r7, #58]	@ movhi
 1800 00e6 D31A     		subs	r3, r2, r3
 1801 00e8 9AB2     		uxth	r2, r3
 1802 00ea FB68     		ldr	r3, [r7, #12]
 1803 00ec 5A81     		strh	r2, [r3, #10]	@ movhi
 1804              		.loc 2 772 0
 1805 00ee 3B8C     		ldrh	r3, [r7, #32]	@ movhi
 1806 00f0 BB86     		strh	r3, [r7, #52]	@ movhi
 1807              		.loc 2 773 0
 1808 00f2 47E0     		b	.L113
 1809              	.L117:
 1810              	.LBB4:
 1811              		.loc 2 775 0
 1812 00f4 FB68     		ldr	r3, [r7, #12]
 1813 00f6 5A89     		ldrh	r2, [r3, #10]
 1814 00f8 BB8E     		ldrh	r3, [r7, #52]
 1815 00fa 9A42     		cmp	r2, r3
 1816 00fc 38BF     		it	cc
 1817 00fe 1346     		movcc	r3, r2
 1818 0100 FB86     		strh	r3, [r7, #54]	@ movhi
 1819              		.loc 2 777 0
 1820 0102 FB8E     		ldrh	r3, [r7, #54]
 1821 0104 002B     		cmp	r3, #0
 1822 0106 03D1     		bne	.L114
ARM GAS  C:\Users\Luis\AppData\Local\Temp\ccVuDqaU.s 			page 34


 1823              		.loc 2 778 0
 1824 0108 FB68     		ldr	r3, [r7, #12]
 1825 010a 1B68     		ldr	r3, [r3]
 1826 010c FB60     		str	r3, [r7, #12]
 1827              		.loc 2 779 0
 1828 010e 39E0     		b	.L113
 1829              	.L114:
 1830              		.loc 2 781 0
 1831 0110 FFF7FEFF 		bl	ip_frag_alloc_pbuf_custom_ref
 1832 0114 B861     		str	r0, [r7, #24]
 1833              		.loc 2 782 0
 1834 0116 BB69     		ldr	r3, [r7, #24]
 1835 0118 002B     		cmp	r3, #0
 1836 011a 04D1     		bne	.L115
 1837              		.loc 2 783 0
 1838 011c F869     		ldr	r0, [r7, #28]
 1839 011e FFF7FEFF 		bl	pbuf_free
 1840              		.loc 2 784 0
 1841 0122 FF23     		movs	r3, #255
 1842 0124 6EE0     		b	.L111
 1843              	.L115:
 1844              		.loc 2 787 0
 1845 0126 BB69     		ldr	r3, [r7, #24]
 1846 0128 FA68     		ldr	r2, [r7, #12]
 1847 012a 5168     		ldr	r1, [r2, #4]
 1848 012c FA8E     		ldrh	r2, [r7, #54]
 1849 012e 0091     		str	r1, [sp]
 1850 0130 F98E     		ldrh	r1, [r7, #54]
 1851 0132 0191     		str	r1, [sp, #4]
 1852 0134 0320     		movs	r0, #3
 1853 0136 1146     		mov	r1, r2
 1854 0138 0222     		movs	r2, #2
 1855 013a FFF7FEFF 		bl	pbuf_alloced_custom
 1856 013e 7861     		str	r0, [r7, #20]
 1857              		.loc 2 788 0
 1858 0140 7B69     		ldr	r3, [r7, #20]
 1859 0142 002B     		cmp	r3, #0
 1860 0144 07D1     		bne	.L116
 1861              		.loc 2 789 0
 1862 0146 B869     		ldr	r0, [r7, #24]
 1863 0148 FFF7FEFF 		bl	ip_frag_free_pbuf_custom_ref
 1864              		.loc 2 790 0
 1865 014c F869     		ldr	r0, [r7, #28]
 1866 014e FFF7FEFF 		bl	pbuf_free
 1867              		.loc 2 791 0
 1868 0152 FF23     		movs	r3, #255
 1869 0154 56E0     		b	.L111
 1870              	.L116:
 1871              		.loc 2 793 0
 1872 0156 F868     		ldr	r0, [r7, #12]
 1873 0158 FFF7FEFF 		bl	pbuf_ref
 1874              		.loc 2 794 0
 1875 015c BB69     		ldr	r3, [r7, #24]
 1876 015e FA68     		ldr	r2, [r7, #12]
 1877 0160 5A61     		str	r2, [r3, #20]
 1878              		.loc 2 795 0
 1879 0162 BB69     		ldr	r3, [r7, #24]
ARM GAS  C:\Users\Luis\AppData\Local\Temp\ccVuDqaU.s 			page 35


 1880 0164 2B4A     		ldr	r2, .L119+4
 1881 0166 1A61     		str	r2, [r3, #16]
 1882              		.loc 2 800 0
 1883 0168 F869     		ldr	r0, [r7, #28]
 1884 016a 7969     		ldr	r1, [r7, #20]
 1885 016c FFF7FEFF 		bl	pbuf_cat
 1886              		.loc 2 801 0
 1887 0170 BA8E     		ldrh	r2, [r7, #52]	@ movhi
 1888 0172 FB8E     		ldrh	r3, [r7, #54]	@ movhi
 1889 0174 D31A     		subs	r3, r2, r3
 1890 0176 BB86     		strh	r3, [r7, #52]	@ movhi
 1891              		.loc 2 802 0
 1892 0178 BB8E     		ldrh	r3, [r7, #52]
 1893 017a 002B     		cmp	r3, #0
 1894 017c 02D0     		beq	.L113
 1895              		.loc 2 803 0
 1896 017e FB68     		ldr	r3, [r7, #12]
 1897 0180 1B68     		ldr	r3, [r3]
 1898 0182 FB60     		str	r3, [r7, #12]
 1899              	.L113:
 1900              	.LBE4:
 1901              		.loc 2 773 0 discriminator 1
 1902 0184 BB8E     		ldrh	r3, [r7, #52]
 1903 0186 002B     		cmp	r3, #0
 1904 0188 B4D1     		bne	.L117
 1905              		.loc 2 806 0
 1906 018a FB8E     		ldrh	r3, [r7, #54]	@ movhi
 1907 018c 7B87     		strh	r3, [r7, #58]	@ movhi
 1908              		.loc 2 811 0
 1909 018e 3B8F     		ldrh	r3, [r7, #56]
 1910 0190 1846     		mov	r0, r3
 1911 0192 FFF7FEFF 		bl	lwip_htons
 1912 0196 0346     		mov	r3, r0
 1913 0198 1A46     		mov	r2, r3
 1914 019a BB6A     		ldr	r3, [r7, #40]
 1915 019c DA80     		strh	r2, [r3, #6]	@ unaligned
 1916              		.loc 2 812 0
 1917 019e 3B8C     		ldrh	r3, [r7, #32]	@ movhi
 1918 01a0 1433     		adds	r3, r3, #20
 1919 01a2 9BB2     		uxth	r3, r3
 1920 01a4 1846     		mov	r0, r3
 1921 01a6 FFF7FEFF 		bl	lwip_htons
 1922 01aa 0346     		mov	r3, r0
 1923 01ac 1A46     		mov	r2, r3
 1924 01ae BB6A     		ldr	r3, [r7, #40]
 1925 01b0 5A80     		strh	r2, [r3, #2]	@ unaligned
 1926              		.loc 2 813 0
 1927 01b2 BB6A     		ldr	r3, [r7, #40]
 1928 01b4 0022     		movs	r2, #0
 1929 01b6 9A72     		strb	r2, [r3, #10]
 1930 01b8 0022     		movs	r2, #0
 1931 01ba DA72     		strb	r2, [r3, #11]
 1932              		.loc 2 814 0
 1933 01bc B86A     		ldr	r0, [r7, #40]
 1934 01be 1421     		movs	r1, #20
 1935 01c0 FFF7FEFF 		bl	inet_chksum
 1936 01c4 0346     		mov	r3, r0
ARM GAS  C:\Users\Luis\AppData\Local\Temp\ccVuDqaU.s 			page 36


 1937 01c6 1A46     		mov	r2, r3
 1938 01c8 BB6A     		ldr	r3, [r7, #40]
 1939 01ca 5A81     		strh	r2, [r3, #10]	@ unaligned
 1940              		.loc 2 842 0
 1941 01cc BB68     		ldr	r3, [r7, #8]
 1942 01ce 5B69     		ldr	r3, [r3, #20]
 1943 01d0 B868     		ldr	r0, [r7, #8]
 1944 01d2 F969     		ldr	r1, [r7, #28]
 1945 01d4 7A68     		ldr	r2, [r7, #4]
 1946 01d6 9847     		blx	r3
 1947              		.loc 2 843 0
 1948 01d8 0F4B     		ldr	r3, .L119+8
 1949 01da 1B8E     		ldrh	r3, [r3, #48]
 1950 01dc 0133     		adds	r3, r3, #1
 1951 01de 9AB2     		uxth	r2, r3
 1952 01e0 0D4B     		ldr	r3, .L119+8
 1953 01e2 1A86     		strh	r2, [r3, #48]	@ movhi
 1954              		.loc 2 852 0
 1955 01e4 F869     		ldr	r0, [r7, #28]
 1956 01e6 FFF7FEFF 		bl	pbuf_free
 1957              		.loc 2 854 0
 1958 01ea FA8F     		ldrh	r2, [r7, #62]	@ movhi
 1959 01ec 3B8C     		ldrh	r3, [r7, #32]	@ movhi
 1960 01ee D31A     		subs	r3, r2, r3
 1961 01f0 FB87     		strh	r3, [r7, #62]	@ movhi
 1962              		.loc 2 855 0
 1963 01f2 BA8F     		ldrh	r2, [r7, #60]	@ movhi
 1964 01f4 BB8C     		ldrh	r3, [r7, #36]	@ movhi
 1965 01f6 1344     		add	r3, r3, r2
 1966 01f8 BB87     		strh	r3, [r7, #60]	@ movhi
 1967              	.L106:
 1968              		.loc 2 722 0 discriminator 1
 1969 01fa FB8F     		ldrh	r3, [r7, #62]
 1970 01fc 002B     		cmp	r3, #0
 1971 01fe 7FF42DAF 		bne	.L118
 1972              		.loc 2 861 0
 1973 0202 0023     		movs	r3, #0
 1974              	.L111:
 1975 0204 5BB2     		sxtb	r3, r3
 1976              		.loc 2 862 0
 1977 0206 1846     		mov	r0, r3
 1978 0208 4037     		adds	r7, r7, #64
 1979 020a BD46     		mov	sp, r7
 1980              		@ sp needed
 1981 020c 80BD     		pop	{r7, pc}
 1982              	.L120:
 1983 020e 00BF     		.align	2
 1984              	.L119:
 1985 0210 58010000 		.word	.LC13
 1986 0214 00000000 		.word	ipfrag_free_pbuf_custom
 1987 0218 00000000 		.word	lwip_stats
 1988              		.cfi_endproc
 1989              	.LFE270:
 1990              		.size	ip_frag, .-ip_frag
 1991 021c AFF30080 		.text
 1992              	.Letext0:
 1993              		.file 3 "c:\\emtechesdk\\gcc\\lib\\gcc\\arm-none-eabi\\4.8.3\\include\\stddef.h"
ARM GAS  C:\Users\Luis\AppData\Local\Temp\ccVuDqaU.s 			page 37


 1994              		.file 4 "c:\\emtechesdk\\gcc\\arm-none-eabi\\include\\stdint.h"
 1995              		.file 5 "../../ChibiOS/os/rt/ports/ARMCMx/compilers/GCC/chtypes.h"
 1996              		.file 6 "../../ChibiOS/os/rt/include/chsystypes.h"
 1997              		.file 7 "../../ChibiOS/os/rt/include/chschd.h"
 1998              		.file 8 "../../ChibiOS/os/rt/ports/ARMCMx/chcore.h"
 1999              		.file 9 "../../ChibiOS/os/rt/ports/ARMCMx/chcore_v7m.h"
 2000              		.file 10 "../../ChibiOS/os/rt/include/chdebug.h"
 2001              		.file 11 "../../ChibiOS/os/rt/include/chtm.h"
 2002              		.file 12 "../../ChibiOS/os/rt/include/chstats.h"
 2003              		.file 13 "../../ChibiOS/os/rt/include/chsem.h"
 2004              		.file 14 "../../ChibiOS/os/rt/include/chmtx.h"
 2005              		.file 15 "../../ChibiOS/os/various/lwip_bindings/arch/cc.h"
 2006              		.file 16 "../../ChibiOS/ext/lwip/src/include/lwip/err.h"
 2007              		.file 17 "../../ChibiOS/ext/lwip/src/include/lwip/pbuf.h"
 2008              		.file 18 "../../ChibiOS/ext/lwip/src/include/ipv4/lwip/ip_addr.h"
 2009              		.file 19 "../../ChibiOS/ext/lwip/src/include/lwip/netif.h"
 2010              		.file 20 "../../ChibiOS/ext/lwip/src/include/ipv4/lwip/ip.h"
 2011              		.file 21 "../../ChibiOS/ext/lwip/src/include/ipv4/lwip/ip_frag.h"
 2012              		.file 22 "../../ChibiOS/ext/lwip/src/include/lwip/mem.h"
 2013              		.file 23 "../../ChibiOS/ext/lwip/src/include/lwip/memp.h"
 2014              		.file 24 "../../ChibiOS/ext/lwip/src/include/lwip/stats.h"
 2015              		.file 25 "../../ChibiOS/os/ext/CMSIS/include/core_cm4.h"
 2016              		.file 26 "../../ChibiOS/ext/lwip/src/include/ipv4/lwip/icmp.h"
 2017              		.section	.debug_info,"",%progbits
 2018              	.Ldebug_info0:
 2019 0000 68130000 		.4byte	0x1368
 2020 0004 0400     		.2byte	0x4
 2021 0006 00000000 		.4byte	.Ldebug_abbrev0
 2022 000a 04       		.byte	0x4
 2023 000b 01       		.uleb128 0x1
 2024 000c 37010000 		.4byte	.LASF267
 2025 0010 01       		.byte	0x1
 2026 0011 EE040000 		.4byte	.LASF268
 2027 0015 F0070000 		.4byte	.LASF269
 2028 0019 00000000 		.4byte	.Ldebug_ranges0+0
 2029 001d 00000000 		.4byte	0
 2030 0021 00000000 		.4byte	.Ldebug_line0
 2031 0025 02       		.uleb128 0x2
 2032 0026 04       		.byte	0x4
 2033 0027 05       		.byte	0x5
 2034 0028 696E7400 		.ascii	"int\000"
 2035 002c 03       		.uleb128 0x3
 2036 002d BA070000 		.4byte	.LASF1
 2037 0031 03       		.byte	0x3
 2038 0032 D4       		.byte	0xd4
 2039 0033 37000000 		.4byte	0x37
 2040 0037 04       		.uleb128 0x4
 2041 0038 04       		.byte	0x4
 2042 0039 07       		.byte	0x7
 2043 003a C0000000 		.4byte	.LASF0
 2044 003e 03       		.uleb128 0x3
 2045 003f E7040000 		.4byte	.LASF2
 2046 0043 04       		.byte	0x4
 2047 0044 29       		.byte	0x29
 2048 0045 49000000 		.4byte	0x49
 2049 0049 04       		.uleb128 0x4
 2050 004a 01       		.byte	0x1
ARM GAS  C:\Users\Luis\AppData\Local\Temp\ccVuDqaU.s 			page 38


 2051 004b 06       		.byte	0x6
 2052 004c AE0B0000 		.4byte	.LASF3
 2053 0050 03       		.uleb128 0x3
 2054 0051 F4050000 		.4byte	.LASF4
 2055 0055 04       		.byte	0x4
 2056 0056 2A       		.byte	0x2a
 2057 0057 5B000000 		.4byte	0x5b
 2058 005b 04       		.uleb128 0x4
 2059 005c 01       		.byte	0x1
 2060 005d 08       		.byte	0x8
 2061 005e A00A0000 		.4byte	.LASF5
 2062 0062 04       		.uleb128 0x4
 2063 0063 02       		.byte	0x2
 2064 0064 05       		.byte	0x5
 2065 0065 64080000 		.4byte	.LASF6
 2066 0069 03       		.uleb128 0x3
 2067 006a 9E070000 		.4byte	.LASF7
 2068 006e 04       		.byte	0x4
 2069 006f 36       		.byte	0x36
 2070 0070 74000000 		.4byte	0x74
 2071 0074 04       		.uleb128 0x4
 2072 0075 02       		.byte	0x2
 2073 0076 07       		.byte	0x7
 2074 0077 BA0B0000 		.4byte	.LASF8
 2075 007b 03       		.uleb128 0x3
 2076 007c 450A0000 		.4byte	.LASF9
 2077 0080 04       		.byte	0x4
 2078 0081 4F       		.byte	0x4f
 2079 0082 86000000 		.4byte	0x86
 2080 0086 04       		.uleb128 0x4
 2081 0087 04       		.byte	0x4
 2082 0088 05       		.byte	0x5
 2083 0089 90080000 		.4byte	.LASF10
 2084 008d 03       		.uleb128 0x3
 2085 008e 180C0000 		.4byte	.LASF11
 2086 0092 04       		.byte	0x4
 2087 0093 50       		.byte	0x50
 2088 0094 98000000 		.4byte	0x98
 2089 0098 04       		.uleb128 0x4
 2090 0099 04       		.byte	0x4
 2091 009a 07       		.byte	0x7
 2092 009b 260A0000 		.4byte	.LASF12
 2093 009f 04       		.uleb128 0x4
 2094 00a0 08       		.byte	0x8
 2095 00a1 05       		.byte	0x5
 2096 00a2 C4050000 		.4byte	.LASF13
 2097 00a6 03       		.uleb128 0x3
 2098 00a7 5E0B0000 		.4byte	.LASF14
 2099 00ab 04       		.byte	0x4
 2100 00ac 78       		.byte	0x78
 2101 00ad B1000000 		.4byte	0xb1
 2102 00b1 04       		.uleb128 0x4
 2103 00b2 08       		.byte	0x8
 2104 00b3 07       		.byte	0x7
 2105 00b4 8E030000 		.4byte	.LASF15
 2106 00b8 05       		.uleb128 0x5
 2107 00b9 7B000000 		.4byte	0x7b
ARM GAS  C:\Users\Luis\AppData\Local\Temp\ccVuDqaU.s 			page 39


 2108 00bd 03       		.uleb128 0x3
 2109 00be C1070000 		.4byte	.LASF16
 2110 00c2 05       		.byte	0x5
 2111 00c3 45       		.byte	0x45
 2112 00c4 8D000000 		.4byte	0x8d
 2113 00c8 03       		.uleb128 0x3
 2114 00c9 61050000 		.4byte	.LASF17
 2115 00cd 05       		.byte	0x5
 2116 00ce 46       		.byte	0x46
 2117 00cf A6000000 		.4byte	0xa6
 2118 00d3 03       		.uleb128 0x3
 2119 00d4 C2020000 		.4byte	.LASF18
 2120 00d8 05       		.byte	0x5
 2121 00d9 48       		.byte	0x48
 2122 00da 50000000 		.4byte	0x50
 2123 00de 03       		.uleb128 0x3
 2124 00df AB050000 		.4byte	.LASF19
 2125 00e3 05       		.byte	0x5
 2126 00e4 49       		.byte	0x49
 2127 00e5 50000000 		.4byte	0x50
 2128 00e9 03       		.uleb128 0x3
 2129 00ea 1E0A0000 		.4byte	.LASF20
 2130 00ee 05       		.byte	0x5
 2131 00ef 4A       		.byte	0x4a
 2132 00f0 50000000 		.4byte	0x50
 2133 00f4 03       		.uleb128 0x3
 2134 00f5 67030000 		.4byte	.LASF21
 2135 00f9 05       		.byte	0x5
 2136 00fa 4C       		.byte	0x4c
 2137 00fb 8D000000 		.4byte	0x8d
 2138 00ff 03       		.uleb128 0x3
 2139 0100 A0060000 		.4byte	.LASF22
 2140 0104 05       		.byte	0x5
 2141 0105 4D       		.byte	0x4d
 2142 0106 7B000000 		.4byte	0x7b
 2143 010a 03       		.uleb128 0x3
 2144 010b 02030000 		.4byte	.LASF23
 2145 010f 05       		.byte	0x5
 2146 0110 4F       		.byte	0x4f
 2147 0111 8D000000 		.4byte	0x8d
 2148 0115 03       		.uleb128 0x3
 2149 0116 9A060000 		.4byte	.LASF24
 2150 011a 05       		.byte	0x5
 2151 011b 51       		.byte	0x51
 2152 011c 7B000000 		.4byte	0x7b
 2153 0120 03       		.uleb128 0x3
 2154 0121 8C070000 		.4byte	.LASF25
 2155 0125 05       		.byte	0x5
 2156 0126 52       		.byte	0x52
 2157 0127 8D000000 		.4byte	0x8d
 2158 012b 03       		.uleb128 0x3
 2159 012c 7B000000 		.4byte	.LASF26
 2160 0130 06       		.byte	0x6
 2161 0131 33       		.byte	0x33
 2162 0132 8D000000 		.4byte	0x8d
 2163 0136 03       		.uleb128 0x3
 2164 0137 55040000 		.4byte	.LASF27
ARM GAS  C:\Users\Luis\AppData\Local\Temp\ccVuDqaU.s 			page 40


 2165 013b 06       		.byte	0x6
 2166 013c 3F       		.byte	0x3f
 2167 013d 41010000 		.4byte	0x141
 2168 0141 06       		.uleb128 0x6
 2169 0142 20060000 		.4byte	.LASF50
 2170 0146 68       		.byte	0x68
 2171 0147 07       		.byte	0x7
 2172 0148 C2       		.byte	0xc2
 2173 0149 54020000 		.4byte	0x254
 2174 014d 07       		.uleb128 0x7
 2175 014e 09090000 		.4byte	.LASF28
 2176 0152 07       		.byte	0x7
 2177 0153 C3       		.byte	0xc3
 2178 0154 5F020000 		.4byte	0x25f
 2179 0158 00       		.byte	0
 2180 0159 07       		.uleb128 0x7
 2181 015a 090A0000 		.4byte	.LASF29
 2182 015e 07       		.byte	0x7
 2183 015f C5       		.byte	0xc5
 2184 0160 5F020000 		.4byte	0x25f
 2185 0164 04       		.byte	0x4
 2186 0165 07       		.uleb128 0x7
 2187 0166 5C000000 		.4byte	.LASF30
 2188 016a 07       		.byte	0x7
 2189 016b C7       		.byte	0xc7
 2190 016c F4000000 		.4byte	0xf4
 2191 0170 08       		.byte	0x8
 2192 0171 07       		.uleb128 0x7
 2193 0172 1D090000 		.4byte	.LASF31
 2194 0176 07       		.byte	0x7
 2195 0177 C8       		.byte	0xc8
 2196 0178 C8040000 		.4byte	0x4c8
 2197 017c 0C       		.byte	0xc
 2198 017d 07       		.uleb128 0x7
 2199 017e 08040000 		.4byte	.LASF32
 2200 0182 07       		.byte	0x7
 2201 0183 CA       		.byte	0xca
 2202 0184 5F020000 		.4byte	0x25f
 2203 0188 10       		.byte	0x10
 2204 0189 07       		.uleb128 0x7
 2205 018a D2050000 		.4byte	.LASF33
 2206 018e 07       		.byte	0x7
 2207 018f CB       		.byte	0xcb
 2208 0190 5F020000 		.4byte	0x25f
 2209 0194 14       		.byte	0x14
 2210 0195 07       		.uleb128 0x7
 2211 0196 2D050000 		.4byte	.LASF34
 2212 019a 07       		.byte	0x7
 2213 019b D2       		.byte	0xd2
 2214 019c 6C070000 		.4byte	0x76c
 2215 01a0 18       		.byte	0x18
 2216 01a1 07       		.uleb128 0x7
 2217 01a2 E9050000 		.4byte	.LASF35
 2218 01a6 07       		.byte	0x7
 2219 01a7 D8       		.byte	0xd8
 2220 01a8 7E070000 		.4byte	0x77e
 2221 01ac 1C       		.byte	0x1c
ARM GAS  C:\Users\Luis\AppData\Local\Temp\ccVuDqaU.s 			page 41


 2222 01ad 07       		.uleb128 0x7
 2223 01ae 18060000 		.4byte	.LASF36
 2224 01b2 07       		.byte	0x7
 2225 01b3 DD       		.byte	0xdd
 2226 01b4 DE000000 		.4byte	0xde
 2227 01b8 20       		.byte	0x20
 2228 01b9 07       		.uleb128 0x7
 2229 01ba B8060000 		.4byte	.LASF37
 2230 01be 07       		.byte	0x7
 2231 01bf E1       		.byte	0xe1
 2232 01c0 D3000000 		.4byte	0xd3
 2233 01c4 21       		.byte	0x21
 2234 01c5 07       		.uleb128 0x7
 2235 01c6 C40A0000 		.4byte	.LASF38
 2236 01ca 07       		.byte	0x7
 2237 01cb E6       		.byte	0xe6
 2238 01cc E9000000 		.4byte	0xe9
 2239 01d0 22       		.byte	0x22
 2240 01d1 08       		.uleb128 0x8
 2241 01d2 705F7500 		.ascii	"p_u\000"
 2242 01d6 07       		.byte	0x7
 2243 01d7 3101     		.2byte	0x131
 2244 01d9 A7060000 		.4byte	0x6a7
 2245 01dd 24       		.byte	0x24
 2246 01de 09       		.uleb128 0x9
 2247 01df 08010000 		.4byte	.LASF39
 2248 01e3 07       		.byte	0x7
 2249 01e4 3601     		.2byte	0x136
 2250 01e6 65020000 		.4byte	0x265
 2251 01ea 28       		.byte	0x28
 2252 01eb 09       		.uleb128 0x9
 2253 01ec 95000000 		.4byte	.LASF40
 2254 01f0 07       		.byte	0x7
 2255 01f1 3C01     		.2byte	0x13c
 2256 01f3 89020000 		.4byte	0x289
 2257 01f7 2C       		.byte	0x2c
 2258 01f8 09       		.uleb128 0x9
 2259 01f9 63070000 		.4byte	.LASF41
 2260 01fd 07       		.byte	0x7
 2261 01fe 4001     		.2byte	0x140
 2262 0200 FF000000 		.4byte	0xff
 2263 0204 34       		.byte	0x34
 2264 0205 09       		.uleb128 0x9
 2265 0206 7D080000 		.4byte	.LASF42
 2266 020a 07       		.byte	0x7
 2267 020b 4601     		.2byte	0x146
 2268 020d 0A010000 		.4byte	0x10a
 2269 0211 38       		.byte	0x38
 2270 0212 09       		.uleb128 0x9
 2271 0213 BA050000 		.4byte	.LASF43
 2272 0217 07       		.byte	0x7
 2273 0218 4D01     		.2byte	0x14d
 2274 021a 66070000 		.4byte	0x766
 2275 021e 3C       		.byte	0x3c
 2276 021f 09       		.uleb128 0x9
 2277 0220 46080000 		.4byte	.LASF44
 2278 0224 07       		.byte	0x7
ARM GAS  C:\Users\Luis\AppData\Local\Temp\ccVuDqaU.s 			page 42


 2279 0225 5101     		.2byte	0x151
 2280 0227 F4000000 		.4byte	0xf4
 2281 022b 40       		.byte	0x40
 2282 022c 09       		.uleb128 0x9
 2283 022d 09060000 		.4byte	.LASF45
 2284 0231 07       		.byte	0x7
 2285 0232 5801     		.2byte	0x158
 2286 0234 3C030000 		.4byte	0x33c
 2287 0238 44       		.byte	0x44
 2288 0239 09       		.uleb128 0x9
 2289 023a 01060000 		.4byte	.LASF46
 2290 023e 07       		.byte	0x7
 2291 023f 5E01     		.2byte	0x15e
 2292 0241 58060000 		.4byte	0x658
 2293 0245 48       		.byte	0x48
 2294 0246 09       		.uleb128 0x9
 2295 0247 D30B0000 		.4byte	.LASF47
 2296 024b 07       		.byte	0x7
 2297 024c 6201     		.2byte	0x162
 2298 024e 3C030000 		.4byte	0x33c
 2299 0252 60       		.byte	0x60
 2300 0253 00       		.byte	0
 2301 0254 03       		.uleb128 0x3
 2302 0255 A7070000 		.4byte	.LASF48
 2303 0259 06       		.byte	0x6
 2304 025a 44       		.byte	0x44
 2305 025b 5F020000 		.4byte	0x25f
 2306 025f 0A       		.uleb128 0xa
 2307 0260 04       		.byte	0x4
 2308 0261 36010000 		.4byte	0x136
 2309 0265 03       		.uleb128 0x3
 2310 0266 E8000000 		.4byte	.LASF49
 2311 026a 06       		.byte	0x6
 2312 026b 49       		.byte	0x49
 2313 026c 70020000 		.4byte	0x270
 2314 0270 06       		.uleb128 0x6
 2315 0271 3E050000 		.4byte	.LASF51
 2316 0275 04       		.byte	0x4
 2317 0276 07       		.byte	0x7
 2318 0277 B0       		.byte	0xb0
 2319 0278 89020000 		.4byte	0x289
 2320 027c 07       		.uleb128 0x7
 2321 027d 09090000 		.4byte	.LASF28
 2322 0281 07       		.byte	0x7
 2323 0282 B1       		.byte	0xb1
 2324 0283 5F020000 		.4byte	0x25f
 2325 0287 00       		.byte	0
 2326 0288 00       		.byte	0
 2327 0289 03       		.uleb128 0x3
 2328 028a 05000000 		.4byte	.LASF52
 2329 028e 06       		.byte	0x6
 2330 028f 50       		.byte	0x50
 2331 0290 94020000 		.4byte	0x294
 2332 0294 06       		.uleb128 0x6
 2333 0295 6A060000 		.4byte	.LASF53
 2334 0299 08       		.byte	0x8
 2335 029a 07       		.byte	0x7
ARM GAS  C:\Users\Luis\AppData\Local\Temp\ccVuDqaU.s 			page 43


 2336 029b B7       		.byte	0xb7
 2337 029c B9020000 		.4byte	0x2b9
 2338 02a0 07       		.uleb128 0x7
 2339 02a1 09090000 		.4byte	.LASF28
 2340 02a5 07       		.byte	0x7
 2341 02a6 B8       		.byte	0xb8
 2342 02a7 5F020000 		.4byte	0x25f
 2343 02ab 00       		.byte	0
 2344 02ac 07       		.uleb128 0x7
 2345 02ad 090A0000 		.4byte	.LASF29
 2346 02b1 07       		.byte	0x7
 2347 02b2 B9       		.byte	0xb9
 2348 02b3 5F020000 		.4byte	0x25f
 2349 02b7 04       		.byte	0x4
 2350 02b8 00       		.byte	0
 2351 02b9 03       		.uleb128 0x3
 2352 02ba 380A0000 		.4byte	.LASF54
 2353 02be 06       		.byte	0x6
 2354 02bf 57       		.byte	0x57
 2355 02c0 C4020000 		.4byte	0x2c4
 2356 02c4 0B       		.uleb128 0xb
 2357 02c5 15020000 		.4byte	.LASF55
 2358 02c9 1C       		.byte	0x1c
 2359 02ca 07       		.byte	0x7
 2360 02cb 9001     		.2byte	0x190
 2361 02cd 20030000 		.4byte	0x320
 2362 02d1 09       		.uleb128 0x9
 2363 02d2 84060000 		.4byte	.LASF56
 2364 02d6 07       		.byte	0x7
 2365 02d7 9101     		.2byte	0x191
 2366 02d9 89020000 		.4byte	0x289
 2367 02dd 00       		.byte	0
 2368 02de 09       		.uleb128 0x9
 2369 02df 0E030000 		.4byte	.LASF57
 2370 02e3 07       		.byte	0x7
 2371 02e4 9201     		.2byte	0x192
 2372 02e6 F4000000 		.4byte	0xf4
 2373 02ea 08       		.byte	0x8
 2374 02eb 09       		.uleb128 0x9
 2375 02ec CD0B0000 		.4byte	.LASF58
 2376 02f0 07       		.byte	0x7
 2377 02f1 9401     		.2byte	0x194
 2378 02f3 C8040000 		.4byte	0x4c8
 2379 02f7 0C       		.byte	0xc
 2380 02f8 09       		.uleb128 0x9
 2381 02f9 92060000 		.4byte	.LASF59
 2382 02fd 07       		.byte	0x7
 2383 02fe 9701     		.2byte	0x197
 2384 0300 5F020000 		.4byte	0x25f
 2385 0304 10       		.byte	0x10
 2386 0305 09       		.uleb128 0x9
 2387 0306 1D070000 		.4byte	.LASF60
 2388 030a 07       		.byte	0x7
 2389 030b 9801     		.2byte	0x198
 2390 030d 5F020000 		.4byte	0x25f
 2391 0311 14       		.byte	0x14
 2392 0312 09       		.uleb128 0x9
ARM GAS  C:\Users\Luis\AppData\Local\Temp\ccVuDqaU.s 			page 44


 2393 0313 73080000 		.4byte	.LASF61
 2394 0317 07       		.byte	0x7
 2395 0318 9B01     		.2byte	0x19b
 2396 031a 5F020000 		.4byte	0x25f
 2397 031e 18       		.byte	0x18
 2398 031f 00       		.byte	0
 2399 0320 03       		.uleb128 0x3
 2400 0321 72020000 		.4byte	.LASF62
 2401 0325 06       		.byte	0x6
 2402 0326 5C       		.byte	0x5c
 2403 0327 2B030000 		.4byte	0x32b
 2404 032b 0A       		.uleb128 0xa
 2405 032c 04       		.byte	0x4
 2406 032d 31030000 		.4byte	0x331
 2407 0331 0C       		.uleb128 0xc
 2408 0332 3C030000 		.4byte	0x33c
 2409 0336 0D       		.uleb128 0xd
 2410 0337 3C030000 		.4byte	0x33c
 2411 033b 00       		.byte	0
 2412 033c 0E       		.uleb128 0xe
 2413 033d 04       		.byte	0x4
 2414 033e 03       		.uleb128 0x3
 2415 033f E4060000 		.4byte	.LASF63
 2416 0343 06       		.byte	0x6
 2417 0344 61       		.byte	0x61
 2418 0345 49030000 		.4byte	0x349
 2419 0349 0B       		.uleb128 0xb
 2420 034a 6F030000 		.4byte	.LASF64
 2421 034e 14       		.byte	0x14
 2422 034f 07       		.byte	0x7
 2423 0350 6B01     		.2byte	0x16b
 2424 0352 98030000 		.4byte	0x398
 2425 0356 09       		.uleb128 0x9
 2426 0357 390B0000 		.4byte	.LASF65
 2427 035b 07       		.byte	0x7
 2428 035c 6C01     		.2byte	0x16c
 2429 035e 84070000 		.4byte	0x784
 2430 0362 00       		.byte	0
 2431 0363 09       		.uleb128 0x9
 2432 0364 EF0B0000 		.4byte	.LASF66
 2433 0368 07       		.byte	0x7
 2434 0369 6D01     		.2byte	0x16d
 2435 036b 84070000 		.4byte	0x784
 2436 036f 04       		.byte	0x4
 2437 0370 09       		.uleb128 0x9
 2438 0371 27040000 		.4byte	.LASF67
 2439 0375 07       		.byte	0x7
 2440 0376 6E01     		.2byte	0x16e
 2441 0378 2B010000 		.4byte	0x12b
 2442 037c 08       		.byte	0x8
 2443 037d 09       		.uleb128 0x9
 2444 037e E70B0000 		.4byte	.LASF68
 2445 0382 07       		.byte	0x7
 2446 0383 6F01     		.2byte	0x16f
 2447 0385 20030000 		.4byte	0x320
 2448 0389 0C       		.byte	0xc
 2449 038a 09       		.uleb128 0x9
ARM GAS  C:\Users\Luis\AppData\Local\Temp\ccVuDqaU.s 			page 45


 2450 038b 8A0A0000 		.4byte	.LASF69
 2451 038f 07       		.byte	0x7
 2452 0390 7101     		.2byte	0x171
 2453 0392 3C030000 		.4byte	0x33c
 2454 0396 10       		.byte	0x10
 2455 0397 00       		.byte	0
 2456 0398 03       		.uleb128 0x3
 2457 0399 AE0A0000 		.4byte	.LASF70
 2458 039d 06       		.byte	0x6
 2459 039e 66       		.byte	0x66
 2460 039f A3030000 		.4byte	0x3a3
 2461 03a3 0B       		.uleb128 0xb
 2462 03a4 10040000 		.4byte	.LASF71
 2463 03a8 10       		.byte	0x10
 2464 03a9 07       		.byte	0x7
 2465 03aa 7B01     		.2byte	0x17b
 2466 03ac E5030000 		.4byte	0x3e5
 2467 03b0 09       		.uleb128 0x9
 2468 03b1 390B0000 		.4byte	.LASF65
 2469 03b5 07       		.byte	0x7
 2470 03b6 7C01     		.2byte	0x17c
 2471 03b8 84070000 		.4byte	0x784
 2472 03bc 00       		.byte	0
 2473 03bd 09       		.uleb128 0x9
 2474 03be EF0B0000 		.4byte	.LASF66
 2475 03c2 07       		.byte	0x7
 2476 03c3 7E01     		.2byte	0x17e
 2477 03c5 84070000 		.4byte	0x784
 2478 03c9 04       		.byte	0x4
 2479 03ca 09       		.uleb128 0x9
 2480 03cb 27040000 		.4byte	.LASF67
 2481 03cf 07       		.byte	0x7
 2482 03d0 8001     		.2byte	0x180
 2483 03d2 2B010000 		.4byte	0x12b
 2484 03d6 08       		.byte	0x8
 2485 03d7 09       		.uleb128 0x9
 2486 03d8 6A050000 		.4byte	.LASF72
 2487 03dc 07       		.byte	0x7
 2488 03dd 8801     		.2byte	0x188
 2489 03df 2B010000 		.4byte	0x12b
 2490 03e3 0C       		.byte	0xc
 2491 03e4 00       		.byte	0
 2492 03e5 03       		.uleb128 0x3
 2493 03e6 47060000 		.4byte	.LASF73
 2494 03ea 06       		.byte	0x6
 2495 03eb 6B       		.byte	0x6b
 2496 03ec F0030000 		.4byte	0x3f0
 2497 03f0 0F       		.uleb128 0xf
 2498 03f1 82020000 		.4byte	.LASF74
 2499 03f5 1404     		.2byte	0x414
 2500 03f7 07       		.byte	0x7
 2501 03f8 A201     		.2byte	0x1a2
 2502 03fa 33040000 		.4byte	0x433
 2503 03fe 09       		.uleb128 0x9
 2504 03ff D80A0000 		.4byte	.LASF75
 2505 0403 07       		.byte	0x7
 2506 0404 AA01     		.2byte	0x1aa
ARM GAS  C:\Users\Luis\AppData\Local\Temp\ccVuDqaU.s 			page 46


 2507 0406 8A070000 		.4byte	0x78a
 2508 040a 00       		.byte	0
 2509 040b 09       		.uleb128 0x9
 2510 040c FA030000 		.4byte	.LASF76
 2511 0410 07       		.byte	0x7
 2512 0411 AF01     		.2byte	0x1af
 2513 0413 15010000 		.4byte	0x115
 2514 0417 04       		.byte	0x4
 2515 0418 09       		.uleb128 0x9
 2516 0419 E7070000 		.4byte	.LASF77
 2517 041d 07       		.byte	0x7
 2518 041e B301     		.2byte	0x1b3
 2519 0420 15010000 		.4byte	0x115
 2520 0424 08       		.byte	0x8
 2521 0425 09       		.uleb128 0x9
 2522 0426 4D0A0000 		.4byte	.LASF78
 2523 042a 07       		.byte	0x7
 2524 042b B901     		.2byte	0x1b9
 2525 042d EA050000 		.4byte	0x5ea
 2526 0431 0C       		.byte	0xc
 2527 0432 00       		.byte	0
 2528 0433 03       		.uleb128 0x3
 2529 0434 6D0B0000 		.4byte	.LASF79
 2530 0438 06       		.byte	0x6
 2531 0439 70       		.byte	0x70
 2532 043a 3E040000 		.4byte	0x43e
 2533 043e 0F       		.uleb128 0xf
 2534 043f EB080000 		.4byte	.LASF80
 2535 0443 E805     		.2byte	0x5e8
 2536 0445 07       		.byte	0x7
 2537 0446 C201     		.2byte	0x1c2
 2538 0448 AB040000 		.4byte	0x4ab
 2539 044c 09       		.uleb128 0x9
 2540 044d 5A090000 		.4byte	.LASF81
 2541 0451 07       		.byte	0x7
 2542 0452 C601     		.2byte	0x1c6
 2543 0454 B9020000 		.4byte	0x2b9
 2544 0458 00       		.byte	0
 2545 0459 09       		.uleb128 0x9
 2546 045a 0E020000 		.4byte	.LASF82
 2547 045e 07       		.byte	0x7
 2548 045f CA01     		.2byte	0x1ca
 2549 0461 98030000 		.4byte	0x398
 2550 0465 1C       		.byte	0x1c
 2551 0466 08       		.uleb128 0x8
 2552 0467 64626700 		.ascii	"dbg\000"
 2553 046b 07       		.byte	0x7
 2554 046c CE01     		.2byte	0x1ce
 2555 046e E5030000 		.4byte	0x3e5
 2556 0472 2C       		.byte	0x2c
 2557 0473 10       		.uleb128 0x10
 2558 0474 93070000 		.4byte	.LASF83
 2559 0478 07       		.byte	0x7
 2560 0479 D201     		.2byte	0x1d2
 2561 047b 36010000 		.4byte	0x136
 2562 047f 4004     		.2byte	0x440
 2563 0481 11       		.uleb128 0x11
ARM GAS  C:\Users\Luis\AppData\Local\Temp\ccVuDqaU.s 			page 47


 2564 0482 746D00   		.ascii	"tm\000"
 2565 0485 07       		.byte	0x7
 2566 0486 D701     		.2byte	0x1d7
 2567 0488 0A060000 		.4byte	0x60a
 2568 048c A804     		.2byte	0x4a8
 2569 048e 10       		.uleb128 0x10
 2570 048f 15030000 		.4byte	.LASF84
 2571 0493 07       		.byte	0x7
 2572 0494 DD01     		.2byte	0x1dd
 2573 0496 9C060000 		.4byte	0x69c
 2574 049a B004     		.2byte	0x4b0
 2575 049c 10       		.uleb128 0x10
 2576 049d 23020000 		.4byte	.LASF85
 2577 04a1 07       		.byte	0x7
 2578 04a2 E301     		.2byte	0x1e3
 2579 04a4 8F070000 		.4byte	0x78f
 2580 04a8 E804     		.2byte	0x4e8
 2581 04aa 00       		.byte	0
 2582 04ab 04       		.uleb128 0x4
 2583 04ac 04       		.byte	0x4
 2584 04ad 07       		.byte	0x7
 2585 04ae 150A0000 		.4byte	.LASF86
 2586 04b2 03       		.uleb128 0x3
 2587 04b3 3E060000 		.4byte	.LASF87
 2588 04b7 08       		.byte	0x8
 2589 04b8 65       		.byte	0x65
 2590 04b9 3C030000 		.4byte	0x33c
 2591 04bd 03       		.uleb128 0x3
 2592 04be 120B0000 		.4byte	.LASF88
 2593 04c2 08       		.byte	0x8
 2594 04c3 6D       		.byte	0x6d
 2595 04c4 A6000000 		.4byte	0xa6
 2596 04c8 06       		.uleb128 0x6
 2597 04c9 5B070000 		.4byte	.LASF89
 2598 04cd 04       		.byte	0x4
 2599 04ce 08       		.byte	0x8
 2600 04cf 89       		.byte	0x89
 2601 04d0 E1040000 		.4byte	0x4e1
 2602 04d4 12       		.uleb128 0x12
 2603 04d5 72313300 		.ascii	"r13\000"
 2604 04d9 08       		.byte	0x8
 2605 04da 8A       		.byte	0x8a
 2606 04db 5C050000 		.4byte	0x55c
 2607 04df 00       		.byte	0
 2608 04e0 00       		.byte	0
 2609 04e1 06       		.uleb128 0x6
 2610 04e2 99080000 		.4byte	.LASF90
 2611 04e6 24       		.byte	0x24
 2612 04e7 09       		.byte	0x9
 2613 04e8 F4       		.byte	0xf4
 2614 04e9 5C050000 		.4byte	0x55c
 2615 04ed 08       		.uleb128 0x8
 2616 04ee 723400   		.ascii	"r4\000"
 2617 04f1 09       		.byte	0x9
 2618 04f2 0701     		.2byte	0x107
 2619 04f4 B2040000 		.4byte	0x4b2
 2620 04f8 00       		.byte	0
ARM GAS  C:\Users\Luis\AppData\Local\Temp\ccVuDqaU.s 			page 48


 2621 04f9 08       		.uleb128 0x8
 2622 04fa 723500   		.ascii	"r5\000"
 2623 04fd 09       		.byte	0x9
 2624 04fe 0801     		.2byte	0x108
 2625 0500 B2040000 		.4byte	0x4b2
 2626 0504 04       		.byte	0x4
 2627 0505 08       		.uleb128 0x8
 2628 0506 723600   		.ascii	"r6\000"
 2629 0509 09       		.byte	0x9
 2630 050a 0901     		.2byte	0x109
 2631 050c B2040000 		.4byte	0x4b2
 2632 0510 08       		.byte	0x8
 2633 0511 08       		.uleb128 0x8
 2634 0512 723700   		.ascii	"r7\000"
 2635 0515 09       		.byte	0x9
 2636 0516 0A01     		.2byte	0x10a
 2637 0518 B2040000 		.4byte	0x4b2
 2638 051c 0C       		.byte	0xc
 2639 051d 08       		.uleb128 0x8
 2640 051e 723800   		.ascii	"r8\000"
 2641 0521 09       		.byte	0x9
 2642 0522 0B01     		.2byte	0x10b
 2643 0524 B2040000 		.4byte	0x4b2
 2644 0528 10       		.byte	0x10
 2645 0529 08       		.uleb128 0x8
 2646 052a 723900   		.ascii	"r9\000"
 2647 052d 09       		.byte	0x9
 2648 052e 0C01     		.2byte	0x10c
 2649 0530 B2040000 		.4byte	0x4b2
 2650 0534 14       		.byte	0x14
 2651 0535 08       		.uleb128 0x8
 2652 0536 72313000 		.ascii	"r10\000"
 2653 053a 09       		.byte	0x9
 2654 053b 0D01     		.2byte	0x10d
 2655 053d B2040000 		.4byte	0x4b2
 2656 0541 18       		.byte	0x18
 2657 0542 08       		.uleb128 0x8
 2658 0543 72313100 		.ascii	"r11\000"
 2659 0547 09       		.byte	0x9
 2660 0548 0E01     		.2byte	0x10e
 2661 054a B2040000 		.4byte	0x4b2
 2662 054e 1C       		.byte	0x1c
 2663 054f 08       		.uleb128 0x8
 2664 0550 6C7200   		.ascii	"lr\000"
 2665 0553 09       		.byte	0x9
 2666 0554 0F01     		.2byte	0x10f
 2667 0556 B2040000 		.4byte	0x4b2
 2668 055a 20       		.byte	0x20
 2669 055b 00       		.byte	0
 2670 055c 0A       		.uleb128 0xa
 2671 055d 04       		.byte	0x4
 2672 055e E1040000 		.4byte	0x4e1
 2673 0562 13       		.uleb128 0x13
 2674 0563 10       		.byte	0x10
 2675 0564 0A       		.byte	0xa
 2676 0565 51       		.byte	0x51
 2677 0566 9B050000 		.4byte	0x59b
ARM GAS  C:\Users\Luis\AppData\Local\Temp\ccVuDqaU.s 			page 49


 2678 056a 07       		.uleb128 0x7
 2679 056b E1050000 		.4byte	.LASF91
 2680 056f 0A       		.byte	0xa
 2681 0570 55       		.byte	0x55
 2682 0571 2B010000 		.4byte	0x12b
 2683 0575 00       		.byte	0
 2684 0576 07       		.uleb128 0x7
 2685 0577 B4050000 		.4byte	.LASF92
 2686 057b 0A       		.byte	0xa
 2687 057c 59       		.byte	0x59
 2688 057d 5F020000 		.4byte	0x25f
 2689 0581 04       		.byte	0x4
 2690 0582 07       		.uleb128 0x7
 2691 0583 A5030000 		.4byte	.LASF93
 2692 0587 0A       		.byte	0xa
 2693 0588 5D       		.byte	0x5d
 2694 0589 3C030000 		.4byte	0x33c
 2695 058d 08       		.byte	0x8
 2696 058e 07       		.uleb128 0x7
 2697 058f 12010000 		.4byte	.LASF94
 2698 0593 0A       		.byte	0xa
 2699 0594 61       		.byte	0x61
 2700 0595 50000000 		.4byte	0x50
 2701 0599 0C       		.byte	0xc
 2702 059a 00       		.byte	0
 2703 059b 03       		.uleb128 0x3
 2704 059c 730A0000 		.4byte	.LASF95
 2705 05a0 0A       		.byte	0xa
 2706 05a1 62       		.byte	0x62
 2707 05a2 62050000 		.4byte	0x562
 2708 05a6 14       		.uleb128 0x14
 2709 05a7 0804     		.2byte	0x408
 2710 05a9 0A       		.byte	0xa
 2711 05aa 67       		.byte	0x67
 2712 05ab D4050000 		.4byte	0x5d4
 2713 05af 07       		.uleb128 0x7
 2714 05b0 7A070000 		.4byte	.LASF96
 2715 05b4 0A       		.byte	0xa
 2716 05b5 6B       		.byte	0x6b
 2717 05b6 37000000 		.4byte	0x37
 2718 05ba 00       		.byte	0
 2719 05bb 07       		.uleb128 0x7
 2720 05bc 0F070000 		.4byte	.LASF97
 2721 05c0 0A       		.byte	0xa
 2722 05c1 6F       		.byte	0x6f
 2723 05c2 D4050000 		.4byte	0x5d4
 2724 05c6 04       		.byte	0x4
 2725 05c7 07       		.uleb128 0x7
 2726 05c8 00070000 		.4byte	.LASF98
 2727 05cc 0A       		.byte	0xa
 2728 05cd 73       		.byte	0x73
 2729 05ce DA050000 		.4byte	0x5da
 2730 05d2 08       		.byte	0x8
 2731 05d3 00       		.byte	0
 2732 05d4 0A       		.uleb128 0xa
 2733 05d5 04       		.byte	0x4
 2734 05d6 9B050000 		.4byte	0x59b
ARM GAS  C:\Users\Luis\AppData\Local\Temp\ccVuDqaU.s 			page 50


 2735 05da 15       		.uleb128 0x15
 2736 05db 9B050000 		.4byte	0x59b
 2737 05df EA050000 		.4byte	0x5ea
 2738 05e3 16       		.uleb128 0x16
 2739 05e4 AB040000 		.4byte	0x4ab
 2740 05e8 3F       		.byte	0x3f
 2741 05e9 00       		.byte	0
 2742 05ea 03       		.uleb128 0x3
 2743 05eb 950B0000 		.4byte	.LASF99
 2744 05ef 0A       		.byte	0xa
 2745 05f0 74       		.byte	0x74
 2746 05f1 A6050000 		.4byte	0x5a6
 2747 05f5 13       		.uleb128 0x13
 2748 05f6 04       		.byte	0x4
 2749 05f7 0B       		.byte	0xb
 2750 05f8 38       		.byte	0x38
 2751 05f9 0A060000 		.4byte	0x60a
 2752 05fd 07       		.uleb128 0x7
 2753 05fe BF030000 		.4byte	.LASF100
 2754 0602 0B       		.byte	0xb
 2755 0603 3C       		.byte	0x3c
 2756 0604 BD000000 		.4byte	0xbd
 2757 0608 00       		.byte	0
 2758 0609 00       		.byte	0
 2759 060a 03       		.uleb128 0x3
 2760 060b 69070000 		.4byte	.LASF101
 2761 060f 0B       		.byte	0xb
 2762 0610 3D       		.byte	0x3d
 2763 0611 F5050000 		.4byte	0x5f5
 2764 0615 13       		.uleb128 0x13
 2765 0616 18       		.byte	0x18
 2766 0617 0B       		.byte	0xb
 2767 0618 48       		.byte	0x48
 2768 0619 58060000 		.4byte	0x658
 2769 061d 07       		.uleb128 0x7
 2770 061e 910A0000 		.4byte	.LASF102
 2771 0622 0B       		.byte	0xb
 2772 0623 49       		.byte	0x49
 2773 0624 BD000000 		.4byte	0xbd
 2774 0628 00       		.byte	0
 2775 0629 07       		.uleb128 0x7
 2776 062a 02040000 		.4byte	.LASF103
 2777 062e 0B       		.byte	0xb
 2778 062f 4A       		.byte	0x4a
 2779 0630 BD000000 		.4byte	0xbd
 2780 0634 04       		.byte	0x4
 2781 0635 07       		.uleb128 0x7
 2782 0636 CF040000 		.4byte	.LASF104
 2783 063a 0B       		.byte	0xb
 2784 063b 4B       		.byte	0x4b
 2785 063c BD000000 		.4byte	0xbd
 2786 0640 08       		.byte	0x8
 2787 0641 12       		.uleb128 0x12
 2788 0642 6E00     		.ascii	"n\000"
 2789 0644 0B       		.byte	0xb
 2790 0645 4C       		.byte	0x4c
 2791 0646 20010000 		.4byte	0x120
ARM GAS  C:\Users\Luis\AppData\Local\Temp\ccVuDqaU.s 			page 51


 2792 064a 0C       		.byte	0xc
 2793 064b 07       		.uleb128 0x7
 2794 064c FD000000 		.4byte	.LASF105
 2795 0650 0B       		.byte	0xb
 2796 0651 4D       		.byte	0x4d
 2797 0652 C8000000 		.4byte	0xc8
 2798 0656 10       		.byte	0x10
 2799 0657 00       		.byte	0
 2800 0658 03       		.uleb128 0x3
 2801 0659 D4040000 		.4byte	.LASF106
 2802 065d 0B       		.byte	0xb
 2803 065e 4E       		.byte	0x4e
 2804 065f 15060000 		.4byte	0x615
 2805 0663 13       		.uleb128 0x13
 2806 0664 38       		.byte	0x38
 2807 0665 0C       		.byte	0xc
 2808 0666 38       		.byte	0x38
 2809 0667 9C060000 		.4byte	0x69c
 2810 066b 07       		.uleb128 0x7
 2811 066c 33080000 		.4byte	.LASF107
 2812 0670 0C       		.byte	0xc
 2813 0671 39       		.byte	0x39
 2814 0672 20010000 		.4byte	0x120
 2815 0676 00       		.byte	0
 2816 0677 07       		.uleb128 0x7
 2817 0678 34070000 		.4byte	.LASF108
 2818 067c 0C       		.byte	0xc
 2819 067d 3A       		.byte	0x3a
 2820 067e 20010000 		.4byte	0x120
 2821 0682 04       		.byte	0x4
 2822 0683 07       		.uleb128 0x7
 2823 0684 F5080000 		.4byte	.LASF109
 2824 0688 0C       		.byte	0xc
 2825 0689 3B       		.byte	0x3b
 2826 068a 58060000 		.4byte	0x658
 2827 068e 08       		.byte	0x8
 2828 068f 07       		.uleb128 0x7
 2829 0690 DD000000 		.4byte	.LASF110
 2830 0694 0C       		.byte	0xc
 2831 0695 3D       		.byte	0x3d
 2832 0696 58060000 		.4byte	0x658
 2833 069a 20       		.byte	0x20
 2834 069b 00       		.byte	0
 2835 069c 03       		.uleb128 0x3
 2836 069d F3020000 		.4byte	.LASF111
 2837 06a1 0C       		.byte	0xc
 2838 06a2 3F       		.byte	0x3f
 2839 06a3 63060000 		.4byte	0x663
 2840 06a7 17       		.uleb128 0x17
 2841 06a8 04       		.byte	0x4
 2842 06a9 07       		.byte	0x7
 2843 06aa FA       		.byte	0xfa
 2844 06ab 04070000 		.4byte	0x704
 2845 06af 18       		.uleb128 0x18
 2846 06b0 6F040000 		.4byte	.LASF112
 2847 06b4 07       		.byte	0x7
 2848 06b5 0101     		.2byte	0x101
ARM GAS  C:\Users\Luis\AppData\Local\Temp\ccVuDqaU.s 			page 52


 2849 06b7 FF000000 		.4byte	0xff
 2850 06bb 18       		.uleb128 0x18
 2851 06bc 310C0000 		.4byte	.LASF113
 2852 06c0 07       		.byte	0x7
 2853 06c1 0801     		.2byte	0x108
 2854 06c3 FF000000 		.4byte	0xff
 2855 06c7 18       		.uleb128 0x18
 2856 06c8 7B020000 		.4byte	.LASF114
 2857 06cc 07       		.byte	0x7
 2858 06cd 0F01     		.2byte	0x10f
 2859 06cf 3C030000 		.4byte	0x33c
 2860 06d3 18       		.uleb128 0x18
 2861 06d4 840B0000 		.4byte	.LASF115
 2862 06d8 07       		.byte	0x7
 2863 06d9 1601     		.2byte	0x116
 2864 06db 04070000 		.4byte	0x704
 2865 06df 18       		.uleb128 0x18
 2866 06e0 620A0000 		.4byte	.LASF116
 2867 06e4 07       		.byte	0x7
 2868 06e5 1E01     		.2byte	0x11e
 2869 06e7 2F070000 		.4byte	0x72f
 2870 06eb 18       		.uleb128 0x18
 2871 06ec 26000000 		.4byte	.LASF117
 2872 06f0 07       		.byte	0x7
 2873 06f1 2701     		.2byte	0x127
 2874 06f3 66070000 		.4byte	0x766
 2875 06f7 18       		.uleb128 0x18
 2876 06f8 3C020000 		.4byte	.LASF118
 2877 06fc 07       		.byte	0x7
 2878 06fd 2F01     		.2byte	0x12f
 2879 06ff 0A010000 		.4byte	0x10a
 2880 0703 00       		.byte	0
 2881 0704 0A       		.uleb128 0xa
 2882 0705 04       		.byte	0x4
 2883 0706 54020000 		.4byte	0x254
 2884 070a 06       		.uleb128 0x6
 2885 070b 5A030000 		.4byte	.LASF119
 2886 070f 0C       		.byte	0xc
 2887 0710 0D       		.byte	0xd
 2888 0711 34       		.byte	0x34
 2889 0712 2F070000 		.4byte	0x72f
 2890 0716 07       		.uleb128 0x7
 2891 0717 8D000000 		.4byte	.LASF120
 2892 071b 0D       		.byte	0xd
 2893 071c 35       		.byte	0x35
 2894 071d 89020000 		.4byte	0x289
 2895 0721 00       		.byte	0
 2896 0722 07       		.uleb128 0x7
 2897 0723 92020000 		.4byte	.LASF121
 2898 0727 0D       		.byte	0xd
 2899 0728 37       		.byte	0x37
 2900 0729 15010000 		.4byte	0x115
 2901 072d 08       		.byte	0x8
 2902 072e 00       		.byte	0
 2903 072f 0A       		.uleb128 0xa
 2904 0730 04       		.byte	0x4
 2905 0731 0A070000 		.4byte	0x70a
ARM GAS  C:\Users\Luis\AppData\Local\Temp\ccVuDqaU.s 			page 53


 2906 0735 06       		.uleb128 0x6
 2907 0736 A5040000 		.4byte	.LASF122
 2908 073a 10       		.byte	0x10
 2909 073b 0E       		.byte	0xe
 2910 073c 39       		.byte	0x39
 2911 073d 66070000 		.4byte	0x766
 2912 0741 07       		.uleb128 0x7
 2913 0742 88080000 		.4byte	.LASF123
 2914 0746 0E       		.byte	0xe
 2915 0747 3A       		.byte	0x3a
 2916 0748 89020000 		.4byte	0x289
 2917 074c 00       		.byte	0
 2918 074d 07       		.uleb128 0x7
 2919 074e 85000000 		.4byte	.LASF124
 2920 0752 0E       		.byte	0xe
 2921 0753 3C       		.byte	0x3c
 2922 0754 5F020000 		.4byte	0x25f
 2923 0758 08       		.byte	0x8
 2924 0759 07       		.uleb128 0x7
 2925 075a A70B0000 		.4byte	.LASF125
 2926 075e 0E       		.byte	0xe
 2927 075f 3E       		.byte	0x3e
 2928 0760 AA070000 		.4byte	0x7aa
 2929 0764 0C       		.byte	0xc
 2930 0765 00       		.byte	0
 2931 0766 0A       		.uleb128 0xa
 2932 0767 04       		.byte	0x4
 2933 0768 35070000 		.4byte	0x735
 2934 076c 0A       		.uleb128 0xa
 2935 076d 04       		.byte	0x4
 2936 076e 72070000 		.4byte	0x772
 2937 0772 19       		.uleb128 0x19
 2938 0773 77070000 		.4byte	0x777
 2939 0777 04       		.uleb128 0x4
 2940 0778 01       		.byte	0x1
 2941 0779 08       		.byte	0x8
 2942 077a 50000000 		.4byte	.LASF126
 2943 077e 0A       		.uleb128 0xa
 2944 077f 04       		.byte	0x4
 2945 0780 BD040000 		.4byte	0x4bd
 2946 0784 0A       		.uleb128 0xa
 2947 0785 04       		.byte	0x4
 2948 0786 3E030000 		.4byte	0x33e
 2949 078a 05       		.uleb128 0x5
 2950 078b 6C070000 		.4byte	0x76c
 2951 078f 15       		.uleb128 0x15
 2952 0790 BD040000 		.4byte	0x4bd
 2953 0794 9F070000 		.4byte	0x79f
 2954 0798 16       		.uleb128 0x16
 2955 0799 AB040000 		.4byte	0x4ab
 2956 079d 1F       		.byte	0x1f
 2957 079e 00       		.byte	0
 2958 079f 03       		.uleb128 0x3
 2959 07a0 820A0000 		.4byte	.LASF127
 2960 07a4 0E       		.byte	0xe
 2961 07a5 34       		.byte	0x34
 2962 07a6 35070000 		.4byte	0x735
ARM GAS  C:\Users\Luis\AppData\Local\Temp\ccVuDqaU.s 			page 54


 2963 07aa 0A       		.uleb128 0xa
 2964 07ab 04       		.byte	0x4
 2965 07ac 9F070000 		.4byte	0x79f
 2966 07b0 04       		.uleb128 0x4
 2967 07b1 01       		.byte	0x1
 2968 07b2 02       		.byte	0x2
 2969 07b3 86040000 		.4byte	.LASF128
 2970 07b7 03       		.uleb128 0x3
 2971 07b8 B3060000 		.4byte	.LASF129
 2972 07bc 0F       		.byte	0xf
 2973 07bd 38       		.byte	0x38
 2974 07be 50000000 		.4byte	0x50
 2975 07c2 03       		.uleb128 0x3
 2976 07c3 B7040000 		.4byte	.LASF130
 2977 07c7 0F       		.byte	0xf
 2978 07c8 39       		.byte	0x39
 2979 07c9 3E000000 		.4byte	0x3e
 2980 07cd 03       		.uleb128 0x3
 2981 07ce 20010000 		.4byte	.LASF131
 2982 07d2 0F       		.byte	0xf
 2983 07d3 3A       		.byte	0x3a
 2984 07d4 69000000 		.4byte	0x69
 2985 07d8 03       		.uleb128 0x3
 2986 07d9 5E080000 		.4byte	.LASF132
 2987 07dd 0F       		.byte	0xf
 2988 07de 3C       		.byte	0x3c
 2989 07df 8D000000 		.4byte	0x8d
 2990 07e3 03       		.uleb128 0x3
 2991 07e4 F7000000 		.4byte	.LASF133
 2992 07e8 10       		.byte	0x10
 2993 07e9 2F       		.byte	0x2f
 2994 07ea C2070000 		.4byte	0x7c2
 2995 07ee 1A       		.uleb128 0x1a
 2996 07ef 01       		.byte	0x1
 2997 07f0 11       		.byte	0x11
 2998 07f1 32       		.byte	0x32
 2999 07f2 0F080000 		.4byte	0x80f
 3000 07f6 1B       		.uleb128 0x1b
 3001 07f7 98020000 		.4byte	.LASF134
 3002 07fb 00       		.sleb128 0
 3003 07fc 1B       		.uleb128 0x1b
 3004 07fd 7E040000 		.4byte	.LASF135
 3005 0801 01       		.sleb128 1
 3006 0802 1B       		.uleb128 0x1b
 3007 0803 51070000 		.4byte	.LASF136
 3008 0807 02       		.sleb128 2
 3009 0808 1B       		.uleb128 0x1b
 3010 0809 6C000000 		.4byte	.LASF137
 3011 080d 03       		.sleb128 3
 3012 080e 00       		.byte	0
 3013 080f 1A       		.uleb128 0x1a
 3014 0810 01       		.byte	0x1
 3015 0811 11       		.byte	0x11
 3016 0812 39       		.byte	0x39
 3017 0813 30080000 		.4byte	0x830
 3018 0817 1B       		.uleb128 0x1b
 3019 0818 63000000 		.4byte	.LASF138
ARM GAS  C:\Users\Luis\AppData\Local\Temp\ccVuDqaU.s 			page 55


 3020 081c 00       		.sleb128 0
 3021 081d 1B       		.uleb128 0x1b
 3022 081e 090C0000 		.4byte	.LASF139
 3023 0822 01       		.sleb128 1
 3024 0823 1B       		.uleb128 0x1b
 3025 0824 45040000 		.4byte	.LASF140
 3026 0828 02       		.sleb128 2
 3027 0829 1B       		.uleb128 0x1b
 3028 082a 9B040000 		.4byte	.LASF141
 3029 082e 03       		.sleb128 3
 3030 082f 00       		.byte	0
 3031 0830 06       		.uleb128 0x6
 3032 0831 E20A0000 		.4byte	.LASF142
 3033 0835 10       		.byte	0x10
 3034 0836 11       		.byte	0x11
 3035 0837 4F       		.byte	0x4f
 3036 0838 91080000 		.4byte	0x891
 3037 083c 07       		.uleb128 0x7
 3038 083d CD000000 		.4byte	.LASF143
 3039 0841 11       		.byte	0x11
 3040 0842 51       		.byte	0x51
 3041 0843 91080000 		.4byte	0x891
 3042 0847 00       		.byte	0
 3043 0848 07       		.uleb128 0x7
 3044 0849 76040000 		.4byte	.LASF144
 3045 084d 11       		.byte	0x11
 3046 084e 54       		.byte	0x54
 3047 084f 3C030000 		.4byte	0x33c
 3048 0853 04       		.byte	0x4
 3049 0854 07       		.uleb128 0x7
 3050 0855 5E040000 		.4byte	.LASF145
 3051 0859 11       		.byte	0x11
 3052 085a 5D       		.byte	0x5d
 3053 085b CD070000 		.4byte	0x7cd
 3054 085f 08       		.byte	0x8
 3055 0860 12       		.uleb128 0x12
 3056 0861 6C656E00 		.ascii	"len\000"
 3057 0865 11       		.byte	0x11
 3058 0866 60       		.byte	0x60
 3059 0867 CD070000 		.4byte	0x7cd
 3060 086b 0A       		.byte	0xa
 3061 086c 07       		.uleb128 0x7
 3062 086d FC050000 		.4byte	.LASF146
 3063 0871 11       		.byte	0x11
 3064 0872 63       		.byte	0x63
 3065 0873 B7070000 		.4byte	0x7b7
 3066 0877 0C       		.byte	0xc
 3067 0878 07       		.uleb128 0x7
 3068 0879 75000000 		.4byte	.LASF147
 3069 087d 11       		.byte	0x11
 3070 087e 66       		.byte	0x66
 3071 087f B7070000 		.4byte	0x7b7
 3072 0883 0D       		.byte	0xd
 3073 0884 12       		.uleb128 0x12
 3074 0885 72656600 		.ascii	"ref\000"
 3075 0889 11       		.byte	0x11
 3076 088a 6D       		.byte	0x6d
ARM GAS  C:\Users\Luis\AppData\Local\Temp\ccVuDqaU.s 			page 56


 3077 088b CD070000 		.4byte	0x7cd
 3078 088f 0E       		.byte	0xe
 3079 0890 00       		.byte	0
 3080 0891 0A       		.uleb128 0xa
 3081 0892 04       		.byte	0x4
 3082 0893 30080000 		.4byte	0x830
 3083 0897 03       		.uleb128 0x3
 3084 0898 A5080000 		.4byte	.LASF148
 3085 089c 11       		.byte	0x11
 3086 089d 72       		.byte	0x72
 3087 089e A2080000 		.4byte	0x8a2
 3088 08a2 0A       		.uleb128 0xa
 3089 08a3 04       		.byte	0x4
 3090 08a4 A8080000 		.4byte	0x8a8
 3091 08a8 0C       		.uleb128 0xc
 3092 08a9 B3080000 		.4byte	0x8b3
 3093 08ad 0D       		.uleb128 0xd
 3094 08ae 91080000 		.4byte	0x891
 3095 08b2 00       		.byte	0
 3096 08b3 06       		.uleb128 0x6
 3097 08b4 2B010000 		.4byte	.LASF149
 3098 08b8 14       		.byte	0x14
 3099 08b9 11       		.byte	0x11
 3100 08ba 75       		.byte	0x75
 3101 08bb D8080000 		.4byte	0x8d8
 3102 08bf 07       		.uleb128 0x7
 3103 08c0 E20A0000 		.4byte	.LASF142
 3104 08c4 11       		.byte	0x11
 3105 08c5 77       		.byte	0x77
 3106 08c6 30080000 		.4byte	0x830
 3107 08ca 00       		.byte	0
 3108 08cb 07       		.uleb128 0x7
 3109 08cc C9070000 		.4byte	.LASF150
 3110 08d0 11       		.byte	0x11
 3111 08d1 79       		.byte	0x79
 3112 08d2 97080000 		.4byte	0x897
 3113 08d6 10       		.byte	0x10
 3114 08d7 00       		.byte	0
 3115 08d8 06       		.uleb128 0x6
 3116 08d9 470C0000 		.4byte	.LASF151
 3117 08dd 04       		.byte	0x4
 3118 08de 12       		.byte	0x12
 3119 08df 2C       		.byte	0x2c
 3120 08e0 F1080000 		.4byte	0x8f1
 3121 08e4 07       		.uleb128 0x7
 3122 08e5 1D0B0000 		.4byte	.LASF152
 3123 08e9 12       		.byte	0x12
 3124 08ea 2D       		.byte	0x2d
 3125 08eb D8070000 		.4byte	0x7d8
 3126 08ef 00       		.byte	0
 3127 08f0 00       		.byte	0
 3128 08f1 06       		.uleb128 0x6
 3129 08f2 76050000 		.4byte	.LASF153
 3130 08f6 04       		.byte	0x4
 3131 08f7 12       		.byte	0x12
 3132 08f8 36       		.byte	0x36
 3133 08f9 0A090000 		.4byte	0x90a
ARM GAS  C:\Users\Luis\AppData\Local\Temp\ccVuDqaU.s 			page 57


 3134 08fd 07       		.uleb128 0x7
 3135 08fe 1D0B0000 		.4byte	.LASF152
 3136 0902 12       		.byte	0x12
 3137 0903 37       		.byte	0x37
 3138 0904 D8070000 		.4byte	0x7d8
 3139 0908 00       		.byte	0
 3140 0909 00       		.byte	0
 3141 090a 03       		.uleb128 0x3
 3142 090b 690A0000 		.4byte	.LASF154
 3143 090f 12       		.byte	0x12
 3144 0910 40       		.byte	0x40
 3145 0911 D8080000 		.4byte	0x8d8
 3146 0915 03       		.uleb128 0x3
 3147 0916 E70A0000 		.4byte	.LASF155
 3148 091a 12       		.byte	0x12
 3149 091b 41       		.byte	0x41
 3150 091c F1080000 		.4byte	0x8f1
 3151 0920 0A       		.uleb128 0xa
 3152 0921 04       		.byte	0x4
 3153 0922 26090000 		.4byte	0x926
 3154 0926 06       		.uleb128 0x6
 3155 0927 670B0000 		.4byte	.LASF156
 3156 092b 30       		.byte	0x30
 3157 092c 13       		.byte	0x13
 3158 092d 88       		.byte	0x88
 3159 092e DA090000 		.4byte	0x9da
 3160 0932 07       		.uleb128 0x7
 3161 0933 CD000000 		.4byte	.LASF143
 3162 0937 13       		.byte	0x13
 3163 0938 8A       		.byte	0x8a
 3164 0939 20090000 		.4byte	0x920
 3165 093d 00       		.byte	0
 3166 093e 07       		.uleb128 0x7
 3167 093f 470C0000 		.4byte	.LASF151
 3168 0943 13       		.byte	0x13
 3169 0944 8D       		.byte	0x8d
 3170 0945 0A090000 		.4byte	0x90a
 3171 0949 04       		.byte	0x4
 3172 094a 07       		.uleb128 0x7
 3173 094b 62060000 		.4byte	.LASF157
 3174 094f 13       		.byte	0x13
 3175 0950 8E       		.byte	0x8e
 3176 0951 0A090000 		.4byte	0x90a
 3177 0955 08       		.byte	0x8
 3178 0956 12       		.uleb128 0x12
 3179 0957 677700   		.ascii	"gw\000"
 3180 095a 13       		.byte	0x13
 3181 095b 8F       		.byte	0x8f
 3182 095c 0A090000 		.4byte	0x90a
 3183 0960 0C       		.byte	0xc
 3184 0961 07       		.uleb128 0x7
 3185 0962 44070000 		.4byte	.LASF158
 3186 0966 13       		.byte	0x13
 3187 0967 93       		.byte	0x93
 3188 0968 DA090000 		.4byte	0x9da
 3189 096c 10       		.byte	0x10
 3190 096d 07       		.uleb128 0x7
ARM GAS  C:\Users\Luis\AppData\Local\Temp\ccVuDqaU.s 			page 58


 3191 096e 55000000 		.4byte	.LASF159
 3192 0972 13       		.byte	0x13
 3193 0973 97       		.byte	0x97
 3194 0974 FF090000 		.4byte	0x9ff
 3195 0978 14       		.byte	0x14
 3196 0979 07       		.uleb128 0x7
 3197 097a 210C0000 		.4byte	.LASF160
 3198 097e 13       		.byte	0x13
 3199 097f 9B       		.byte	0x9b
 3200 0980 2F0A0000 		.4byte	0xa2f
 3201 0984 18       		.byte	0x18
 3202 0985 07       		.uleb128 0x7
 3203 0986 270B0000 		.4byte	.LASF161
 3204 098a 13       		.byte	0x13
 3205 098b AC       		.byte	0xac
 3206 098c 3C030000 		.4byte	0x33c
 3207 0990 1C       		.byte	0x1c
 3208 0991 12       		.uleb128 0x12
 3209 0992 6D747500 		.ascii	"mtu\000"
 3210 0996 13       		.byte	0x13
 3211 0997 BA       		.byte	0xba
 3212 0998 CD070000 		.4byte	0x7cd
 3213 099c 20       		.byte	0x20
 3214 099d 07       		.uleb128 0x7
 3215 099e E7030000 		.4byte	.LASF162
 3216 09a2 13       		.byte	0x13
 3217 09a3 BC       		.byte	0xbc
 3218 09a4 B7070000 		.4byte	0x7b7
 3219 09a8 22       		.byte	0x22
 3220 09a9 07       		.uleb128 0x7
 3221 09aa 80030000 		.4byte	.LASF163
 3222 09ae 13       		.byte	0x13
 3223 09af BE       		.byte	0xbe
 3224 09b0 540A0000 		.4byte	0xa54
 3225 09b4 23       		.byte	0x23
 3226 09b5 07       		.uleb128 0x7
 3227 09b6 75000000 		.4byte	.LASF147
 3228 09ba 13       		.byte	0x13
 3229 09bb C0       		.byte	0xc0
 3230 09bc B7070000 		.4byte	0x7b7
 3231 09c0 29       		.byte	0x29
 3232 09c1 07       		.uleb128 0x7
 3233 09c2 78090000 		.4byte	.LASF164
 3234 09c6 13       		.byte	0x13
 3235 09c7 C2       		.byte	0xc2
 3236 09c8 640A0000 		.4byte	0xa64
 3237 09cc 2A       		.byte	0x2a
 3238 09cd 12       		.uleb128 0x12
 3239 09ce 6E756D00 		.ascii	"num\000"
 3240 09d2 13       		.byte	0x13
 3241 09d3 C4       		.byte	0xc4
 3242 09d4 B7070000 		.4byte	0x7b7
 3243 09d8 2C       		.byte	0x2c
 3244 09d9 00       		.byte	0
 3245 09da 03       		.uleb128 0x3
 3246 09db CA020000 		.4byte	.LASF165
 3247 09df 13       		.byte	0x13
ARM GAS  C:\Users\Luis\AppData\Local\Temp\ccVuDqaU.s 			page 59


 3248 09e0 6D       		.byte	0x6d
 3249 09e1 E5090000 		.4byte	0x9e5
 3250 09e5 0A       		.uleb128 0xa
 3251 09e6 04       		.byte	0x4
 3252 09e7 EB090000 		.4byte	0x9eb
 3253 09eb 1C       		.uleb128 0x1c
 3254 09ec E3070000 		.4byte	0x7e3
 3255 09f0 FF090000 		.4byte	0x9ff
 3256 09f4 0D       		.uleb128 0xd
 3257 09f5 91080000 		.4byte	0x891
 3258 09f9 0D       		.uleb128 0xd
 3259 09fa 20090000 		.4byte	0x920
 3260 09fe 00       		.byte	0
 3261 09ff 03       		.uleb128 0x3
 3262 0a00 43020000 		.4byte	.LASF166
 3263 0a04 13       		.byte	0x13
 3264 0a05 76       		.byte	0x76
 3265 0a06 0A0A0000 		.4byte	0xa0a
 3266 0a0a 0A       		.uleb128 0xa
 3267 0a0b 04       		.byte	0x4
 3268 0a0c 100A0000 		.4byte	0xa10
 3269 0a10 1C       		.uleb128 0x1c
 3270 0a11 E3070000 		.4byte	0x7e3
 3271 0a15 290A0000 		.4byte	0xa29
 3272 0a19 0D       		.uleb128 0xd
 3273 0a1a 20090000 		.4byte	0x920
 3274 0a1e 0D       		.uleb128 0xd
 3275 0a1f 91080000 		.4byte	0x891
 3276 0a23 0D       		.uleb128 0xd
 3277 0a24 290A0000 		.4byte	0xa29
 3278 0a28 00       		.byte	0
 3279 0a29 0A       		.uleb128 0xa
 3280 0a2a 04       		.byte	0x4
 3281 0a2b 0A090000 		.4byte	0x90a
 3282 0a2f 03       		.uleb128 0x3
 3283 0a30 B2090000 		.4byte	.LASF167
 3284 0a34 13       		.byte	0x13
 3285 0a35 7E       		.byte	0x7e
 3286 0a36 3A0A0000 		.4byte	0xa3a
 3287 0a3a 0A       		.uleb128 0xa
 3288 0a3b 04       		.byte	0x4
 3289 0a3c 400A0000 		.4byte	0xa40
 3290 0a40 1C       		.uleb128 0x1c
 3291 0a41 E3070000 		.4byte	0x7e3
 3292 0a45 540A0000 		.4byte	0xa54
 3293 0a49 0D       		.uleb128 0xd
 3294 0a4a 20090000 		.4byte	0x920
 3295 0a4e 0D       		.uleb128 0xd
 3296 0a4f 91080000 		.4byte	0x891
 3297 0a53 00       		.byte	0
 3298 0a54 15       		.uleb128 0x15
 3299 0a55 B7070000 		.4byte	0x7b7
 3300 0a59 640A0000 		.4byte	0xa64
 3301 0a5d 16       		.uleb128 0x16
 3302 0a5e AB040000 		.4byte	0x4ab
 3303 0a62 05       		.byte	0x5
 3304 0a63 00       		.byte	0
ARM GAS  C:\Users\Luis\AppData\Local\Temp\ccVuDqaU.s 			page 60


 3305 0a64 15       		.uleb128 0x15
 3306 0a65 77070000 		.4byte	0x777
 3307 0a69 740A0000 		.4byte	0xa74
 3308 0a6d 16       		.uleb128 0x16
 3309 0a6e AB040000 		.4byte	0x4ab
 3310 0a72 01       		.byte	0x1
 3311 0a73 00       		.byte	0
 3312 0a74 06       		.uleb128 0x6
 3313 0a75 65090000 		.4byte	.LASF168
 3314 0a79 14       		.byte	0x14
 3315 0a7a 14       		.byte	0x14
 3316 0a7b 74       		.byte	0x74
 3317 0a7c F90A0000 		.4byte	0xaf9
 3318 0a80 07       		.uleb128 0x7
 3319 0a81 DE060000 		.4byte	.LASF169
 3320 0a85 14       		.byte	0x14
 3321 0a86 76       		.byte	0x76
 3322 0a87 B7070000 		.4byte	0x7b7
 3323 0a8b 00       		.byte	0
 3324 0a8c 07       		.uleb128 0x7
 3325 0a8d 100A0000 		.4byte	.LASF170
 3326 0a91 14       		.byte	0x14
 3327 0a92 78       		.byte	0x78
 3328 0a93 B7070000 		.4byte	0x7b7
 3329 0a97 01       		.byte	0x1
 3330 0a98 07       		.uleb128 0x7
 3331 0a99 F70B0000 		.4byte	.LASF171
 3332 0a9d 14       		.byte	0x14
 3333 0a9e 7A       		.byte	0x7a
 3334 0a9f CD070000 		.4byte	0x7cd
 3335 0aa3 02       		.byte	0x2
 3336 0aa4 12       		.uleb128 0x12
 3337 0aa5 5F696400 		.ascii	"_id\000"
 3338 0aa9 14       		.byte	0x14
 3339 0aaa 7C       		.byte	0x7c
 3340 0aab CD070000 		.4byte	0x7cd
 3341 0aaf 04       		.byte	0x4
 3342 0ab0 07       		.uleb128 0x7
 3343 0ab1 F2030000 		.4byte	.LASF172
 3344 0ab5 14       		.byte	0x14
 3345 0ab6 7E       		.byte	0x7e
 3346 0ab7 CD070000 		.4byte	0x7cd
 3347 0abb 06       		.byte	0x6
 3348 0abc 07       		.uleb128 0x7
 3349 0abd 26010000 		.4byte	.LASF173
 3350 0ac1 14       		.byte	0x14
 3351 0ac2 84       		.byte	0x84
 3352 0ac3 B7070000 		.4byte	0x7b7
 3353 0ac7 08       		.byte	0x8
 3354 0ac8 07       		.uleb128 0x7
 3355 0ac9 11060000 		.4byte	.LASF174
 3356 0acd 14       		.byte	0x14
 3357 0ace 86       		.byte	0x86
 3358 0acf B7070000 		.4byte	0x7b7
 3359 0ad3 09       		.byte	0x9
 3360 0ad4 07       		.uleb128 0x7
 3361 0ad5 DF030000 		.4byte	.LASF175
ARM GAS  C:\Users\Luis\AppData\Local\Temp\ccVuDqaU.s 			page 61


 3362 0ad9 14       		.byte	0x14
 3363 0ada 88       		.byte	0x88
 3364 0adb CD070000 		.4byte	0x7cd
 3365 0adf 0A       		.byte	0xa
 3366 0ae0 12       		.uleb128 0x12
 3367 0ae1 73726300 		.ascii	"src\000"
 3368 0ae5 14       		.byte	0x14
 3369 0ae6 8A       		.byte	0x8a
 3370 0ae7 15090000 		.4byte	0x915
 3371 0aeb 0C       		.byte	0xc
 3372 0aec 07       		.uleb128 0x7
 3373 0aed 2C0C0000 		.4byte	.LASF176
 3374 0af1 14       		.byte	0x14
 3375 0af2 8B       		.byte	0x8b
 3376 0af3 15090000 		.4byte	0x915
 3377 0af7 10       		.byte	0x10
 3378 0af8 00       		.byte	0
 3379 0af9 06       		.uleb128 0x6
 3380 0afa 3A0C0000 		.4byte	.LASF177
 3381 0afe 20       		.byte	0x20
 3382 0aff 15       		.byte	0x15
 3383 0b00 36       		.byte	0x36
 3384 0b01 4C0B0000 		.4byte	0xb4c
 3385 0b05 07       		.uleb128 0x7
 3386 0b06 CD000000 		.4byte	.LASF143
 3387 0b0a 15       		.byte	0x15
 3388 0b0b 37       		.byte	0x37
 3389 0b0c 4C0B0000 		.4byte	0xb4c
 3390 0b10 00       		.byte	0
 3391 0b11 12       		.uleb128 0x12
 3392 0b12 7000     		.ascii	"p\000"
 3393 0b14 15       		.byte	0x15
 3394 0b15 38       		.byte	0x38
 3395 0b16 91080000 		.4byte	0x891
 3396 0b1a 04       		.byte	0x4
 3397 0b1b 07       		.uleb128 0x7
 3398 0b1c 8A0B0000 		.4byte	.LASF178
 3399 0b20 15       		.byte	0x15
 3400 0b21 39       		.byte	0x39
 3401 0b22 740A0000 		.4byte	0xa74
 3402 0b26 08       		.byte	0x8
 3403 0b27 07       		.uleb128 0x7
 3404 0b28 FC0A0000 		.4byte	.LASF179
 3405 0b2c 15       		.byte	0x15
 3406 0b2d 3A       		.byte	0x3a
 3407 0b2e CD070000 		.4byte	0x7cd
 3408 0b32 1C       		.byte	0x1c
 3409 0b33 07       		.uleb128 0x7
 3410 0b34 75000000 		.4byte	.LASF147
 3411 0b38 15       		.byte	0x15
 3412 0b39 3B       		.byte	0x3b
 3413 0b3a B7070000 		.4byte	0x7b7
 3414 0b3e 1E       		.byte	0x1e
 3415 0b3f 07       		.uleb128 0x7
 3416 0b40 120C0000 		.4byte	.LASF180
 3417 0b44 15       		.byte	0x15
 3418 0b45 3C       		.byte	0x3c
ARM GAS  C:\Users\Luis\AppData\Local\Temp\ccVuDqaU.s 			page 62


 3419 0b46 B7070000 		.4byte	0x7b7
 3420 0b4a 1F       		.byte	0x1f
 3421 0b4b 00       		.byte	0
 3422 0b4c 0A       		.uleb128 0xa
 3423 0b4d 04       		.byte	0x4
 3424 0b4e F90A0000 		.4byte	0xaf9
 3425 0b52 06       		.uleb128 0x6
 3426 0b53 AF030000 		.4byte	.LASF181
 3427 0b57 18       		.byte	0x18
 3428 0b58 15       		.byte	0x15
 3429 0b59 49       		.byte	0x49
 3430 0b5a 760B0000 		.4byte	0xb76
 3431 0b5e 12       		.uleb128 0x12
 3432 0b5f 706300   		.ascii	"pc\000"
 3433 0b62 15       		.byte	0x15
 3434 0b63 4B       		.byte	0x4b
 3435 0b64 B3080000 		.4byte	0x8b3
 3436 0b68 00       		.byte	0
 3437 0b69 07       		.uleb128 0x7
 3438 0b6a DE070000 		.4byte	.LASF182
 3439 0b6e 15       		.byte	0x15
 3440 0b6f 4D       		.byte	0x4d
 3441 0b70 91080000 		.4byte	0x891
 3442 0b74 14       		.byte	0x14
 3443 0b75 00       		.byte	0
 3444 0b76 03       		.uleb128 0x3
 3445 0b77 56050000 		.4byte	.LASF183
 3446 0b7b 16       		.byte	0x16
 3447 0b7c 4C       		.byte	0x4c
 3448 0b7d CD070000 		.4byte	0x7cd
 3449 0b81 1A       		.uleb128 0x1a
 3450 0b82 01       		.byte	0x1
 3451 0b83 17       		.byte	0x17
 3452 0b84 2B       		.byte	0x2b
 3453 0b85 E40B0000 		.4byte	0xbe4
 3454 0b89 1B       		.uleb128 0x1b
 3455 0b8a 39080000 		.4byte	.LASF184
 3456 0b8e 00       		.sleb128 0
 3457 0b8f 1B       		.uleb128 0x1b
 3458 0b90 10090000 		.4byte	.LASF185
 3459 0b94 01       		.sleb128 1
 3460 0b95 1B       		.uleb128 0x1b
 3461 0b96 A6060000 		.4byte	.LASF186
 3462 0b9a 02       		.sleb128 2
 3463 0b9b 1B       		.uleb128 0x1b
 3464 0b9c 3C000000 		.4byte	.LASF187
 3465 0ba0 03       		.sleb128 3
 3466 0ba1 1B       		.uleb128 0x1b
 3467 0ba2 CB0A0000 		.4byte	.LASF188
 3468 0ba6 04       		.sleb128 4
 3469 0ba7 1B       		.uleb128 0x1b
 3470 0ba8 25070000 		.4byte	.LASF189
 3471 0bac 05       		.sleb128 5
 3472 0bad 1B       		.uleb128 0x1b
 3473 0bae C6090000 		.4byte	.LASF190
 3474 0bb2 06       		.sleb128 6
 3475 0bb3 1B       		.uleb128 0x1b
ARM GAS  C:\Users\Luis\AppData\Local\Temp\ccVuDqaU.s 			page 63


 3476 0bb4 56060000 		.4byte	.LASF191
 3477 0bb8 07       		.sleb128 7
 3478 0bb9 1B       		.uleb128 0x1b
 3479 0bba E6020000 		.4byte	.LASF192
 3480 0bbe 08       		.sleb128 8
 3481 0bbf 1B       		.uleb128 0x1b
 3482 0bc0 22030000 		.4byte	.LASF193
 3483 0bc4 09       		.sleb128 9
 3484 0bc5 1B       		.uleb128 0x1b
 3485 0bc6 30040000 		.4byte	.LASF194
 3486 0bca 0A       		.sleb128 10
 3487 0bcb 1B       		.uleb128 0x1b
 3488 0bcc D2080000 		.4byte	.LASF195
 3489 0bd0 0B       		.sleb128 11
 3490 0bd1 1B       		.uleb128 0x1b
 3491 0bd2 34050000 		.4byte	.LASF196
 3492 0bd6 0C       		.sleb128 12
 3493 0bd7 1B       		.uleb128 0x1b
 3494 0bd8 53020000 		.4byte	.LASF197
 3495 0bdc 0D       		.sleb128 13
 3496 0bdd 1B       		.uleb128 0x1b
 3497 0bde AE040000 		.4byte	.LASF198
 3498 0be2 0E       		.sleb128 14
 3499 0be3 00       		.byte	0
 3500 0be4 06       		.uleb128 0x6
 3501 0be5 1A000000 		.4byte	.LASF199
 3502 0be9 18       		.byte	0x18
 3503 0bea 18       		.byte	0x18
 3504 0beb 3A       		.byte	0x3a
 3505 0bec 800C0000 		.4byte	0xc80
 3506 0bf0 07       		.uleb128 0x7
 3507 0bf1 E20B0000 		.4byte	.LASF200
 3508 0bf5 18       		.byte	0x18
 3509 0bf6 3B       		.byte	0x3b
 3510 0bf7 CD070000 		.4byte	0x7cd
 3511 0bfb 00       		.byte	0
 3512 0bfc 07       		.uleb128 0x7
 3513 0bfd 900B0000 		.4byte	.LASF201
 3514 0c01 18       		.byte	0x18
 3515 0c02 3C       		.byte	0x3c
 3516 0c03 CD070000 		.4byte	0x7cd
 3517 0c07 02       		.byte	0x2
 3518 0c08 12       		.uleb128 0x12
 3519 0c09 667700   		.ascii	"fw\000"
 3520 0c0c 18       		.byte	0x18
 3521 0c0d 3D       		.byte	0x3d
 3522 0c0e CD070000 		.4byte	0x7cd
 3523 0c12 04       		.byte	0x4
 3524 0c13 07       		.uleb128 0x7
 3525 0c14 220B0000 		.4byte	.LASF202
 3526 0c18 18       		.byte	0x18
 3527 0c19 3E       		.byte	0x3e
 3528 0c1a CD070000 		.4byte	0x7cd
 3529 0c1e 06       		.byte	0x6
 3530 0c1f 07       		.uleb128 0x7
 3531 0c20 16070000 		.4byte	.LASF203
 3532 0c24 18       		.byte	0x18
ARM GAS  C:\Users\Luis\AppData\Local\Temp\ccVuDqaU.s 			page 64


 3533 0c25 3F       		.byte	0x3f
 3534 0c26 CD070000 		.4byte	0x7cd
 3535 0c2a 08       		.byte	0x8
 3536 0c2b 07       		.uleb128 0x7
 3537 0c2c 020A0000 		.4byte	.LASF204
 3538 0c30 18       		.byte	0x18
 3539 0c31 40       		.byte	0x40
 3540 0c32 CD070000 		.4byte	0x7cd
 3541 0c36 0A       		.byte	0xa
 3542 0c37 07       		.uleb128 0x7
 3543 0c38 4A070000 		.4byte	.LASF205
 3544 0c3c 18       		.byte	0x18
 3545 0c3d 41       		.byte	0x41
 3546 0c3e CD070000 		.4byte	0x7cd
 3547 0c42 0C       		.byte	0xc
 3548 0c43 07       		.uleb128 0x7
 3549 0c44 B9080000 		.4byte	.LASF206
 3550 0c48 18       		.byte	0x18
 3551 0c49 42       		.byte	0x42
 3552 0c4a CD070000 		.4byte	0x7cd
 3553 0c4e 0E       		.byte	0xe
 3554 0c4f 07       		.uleb128 0x7
 3555 0c50 5A0A0000 		.4byte	.LASF207
 3556 0c54 18       		.byte	0x18
 3557 0c55 43       		.byte	0x43
 3558 0c56 CD070000 		.4byte	0x7cd
 3559 0c5a 10       		.byte	0x10
 3560 0c5b 07       		.uleb128 0x7
 3561 0c5c 35030000 		.4byte	.LASF208
 3562 0c60 18       		.byte	0x18
 3563 0c61 44       		.byte	0x44
 3564 0c62 CD070000 		.4byte	0x7cd
 3565 0c66 12       		.byte	0x12
 3566 0c67 12       		.uleb128 0x12
 3567 0c68 65727200 		.ascii	"err\000"
 3568 0c6c 18       		.byte	0x18
 3569 0c6d 45       		.byte	0x45
 3570 0c6e CD070000 		.4byte	0x7cd
 3571 0c72 14       		.byte	0x14
 3572 0c73 07       		.uleb128 0x7
 3573 0c74 00090000 		.4byte	.LASF209
 3574 0c78 18       		.byte	0x18
 3575 0c79 46       		.byte	0x46
 3576 0c7a CD070000 		.4byte	0x7cd
 3577 0c7e 16       		.byte	0x16
 3578 0c7f 00       		.byte	0
 3579 0c80 06       		.uleb128 0x6
 3580 0c81 32020000 		.4byte	.LASF210
 3581 0c85 0A       		.byte	0xa
 3582 0c86 18       		.byte	0x18
 3583 0c87 5A       		.byte	0x5a
 3584 0c88 C90C0000 		.4byte	0xcc9
 3585 0c8c 07       		.uleb128 0x7
 3586 0c8d CC080000 		.4byte	.LASF211
 3587 0c91 18       		.byte	0x18
 3588 0c92 5E       		.byte	0x5e
 3589 0c93 760B0000 		.4byte	0xb76
ARM GAS  C:\Users\Luis\AppData\Local\Temp\ccVuDqaU.s 			page 65


 3590 0c97 00       		.byte	0
 3591 0c98 07       		.uleb128 0x7
 3592 0c99 0A070000 		.4byte	.LASF212
 3593 0c9d 18       		.byte	0x18
 3594 0c9e 5F       		.byte	0x5f
 3595 0c9f 760B0000 		.4byte	0xb76
 3596 0ca3 02       		.byte	0x2
 3597 0ca4 12       		.uleb128 0x12
 3598 0ca5 6D617800 		.ascii	"max\000"
 3599 0ca9 18       		.byte	0x18
 3600 0caa 60       		.byte	0x60
 3601 0cab 760B0000 		.4byte	0xb76
 3602 0caf 04       		.byte	0x4
 3603 0cb0 12       		.uleb128 0x12
 3604 0cb1 65727200 		.ascii	"err\000"
 3605 0cb5 18       		.byte	0x18
 3606 0cb6 61       		.byte	0x61
 3607 0cb7 CD070000 		.4byte	0x7cd
 3608 0cbb 06       		.byte	0x6
 3609 0cbc 07       		.uleb128 0x7
 3610 0cbd 4E050000 		.4byte	.LASF213
 3611 0cc1 18       		.byte	0x18
 3612 0cc2 62       		.byte	0x62
 3613 0cc3 CD070000 		.4byte	0x7cd
 3614 0cc7 08       		.byte	0x8
 3615 0cc8 00       		.byte	0
 3616 0cc9 06       		.uleb128 0x6
 3617 0cca A7020000 		.4byte	.LASF214
 3618 0cce 06       		.byte	0x6
 3619 0ccf 18       		.byte	0x18
 3620 0cd0 65       		.byte	0x65
 3621 0cd1 FA0C0000 		.4byte	0xcfa
 3622 0cd5 07       		.uleb128 0x7
 3623 0cd6 0A070000 		.4byte	.LASF212
 3624 0cda 18       		.byte	0x18
 3625 0cdb 66       		.byte	0x66
 3626 0cdc CD070000 		.4byte	0x7cd
 3627 0ce0 00       		.byte	0
 3628 0ce1 12       		.uleb128 0x12
 3629 0ce2 6D617800 		.ascii	"max\000"
 3630 0ce6 18       		.byte	0x18
 3631 0ce7 67       		.byte	0x67
 3632 0ce8 CD070000 		.4byte	0x7cd
 3633 0cec 02       		.byte	0x2
 3634 0ced 12       		.uleb128 0x12
 3635 0cee 65727200 		.ascii	"err\000"
 3636 0cf2 18       		.byte	0x18
 3637 0cf3 68       		.byte	0x68
 3638 0cf4 CD070000 		.4byte	0x7cd
 3639 0cf8 04       		.byte	0x4
 3640 0cf9 00       		.byte	0
 3641 0cfa 06       		.uleb128 0x6
 3642 0cfb 960A0000 		.4byte	.LASF215
 3643 0cff 12       		.byte	0x12
 3644 0d00 18       		.byte	0x18
 3645 0d01 6B       		.byte	0x6b
 3646 0d02 2B0D0000 		.4byte	0xd2b
ARM GAS  C:\Users\Luis\AppData\Local\Temp\ccVuDqaU.s 			page 66


 3647 0d06 12       		.uleb128 0x12
 3648 0d07 73656D00 		.ascii	"sem\000"
 3649 0d0b 18       		.byte	0x18
 3650 0d0c 6C       		.byte	0x6c
 3651 0d0d C90C0000 		.4byte	0xcc9
 3652 0d11 00       		.byte	0
 3653 0d12 07       		.uleb128 0x7
 3654 0d13 3C030000 		.4byte	.LASF216
 3655 0d17 18       		.byte	0x18
 3656 0d18 6D       		.byte	0x6d
 3657 0d19 C90C0000 		.4byte	0xcc9
 3658 0d1d 06       		.byte	0x6
 3659 0d1e 07       		.uleb128 0x7
 3660 0d1f 3B090000 		.4byte	.LASF217
 3661 0d23 18       		.byte	0x18
 3662 0d24 6E       		.byte	0x6e
 3663 0d25 C90C0000 		.4byte	0xcc9
 3664 0d29 0C       		.byte	0xc
 3665 0d2a 00       		.byte	0
 3666 0d2b 1D       		.uleb128 0x1d
 3667 0d2c 4E040000 		.4byte	.LASF218
 3668 0d30 5001     		.2byte	0x150
 3669 0d32 18       		.byte	0x18
 3670 0d33 71       		.byte	0x71
 3671 0d34 B10D0000 		.4byte	0xdb1
 3672 0d38 07       		.uleb128 0x7
 3673 0d39 09020000 		.4byte	.LASF219
 3674 0d3d 18       		.byte	0x18
 3675 0d3e 73       		.byte	0x73
 3676 0d3f E40B0000 		.4byte	0xbe4
 3677 0d43 00       		.byte	0
 3678 0d44 07       		.uleb128 0x7
 3679 0d45 87030000 		.4byte	.LASF220
 3680 0d49 18       		.byte	0x18
 3681 0d4a 76       		.byte	0x76
 3682 0d4b E40B0000 		.4byte	0xbe4
 3683 0d4f 18       		.byte	0x18
 3684 0d50 07       		.uleb128 0x7
 3685 0d51 52030000 		.4byte	.LASF221
 3686 0d55 18       		.byte	0x18
 3687 0d56 79       		.byte	0x79
 3688 0d57 E40B0000 		.4byte	0xbe4
 3689 0d5b 30       		.byte	0x30
 3690 0d5c 12       		.uleb128 0x12
 3691 0d5d 697000   		.ascii	"ip\000"
 3692 0d60 18       		.byte	0x18
 3693 0d61 7C       		.byte	0x7c
 3694 0d62 E40B0000 		.4byte	0xbe4
 3695 0d66 48       		.byte	0x48
 3696 0d67 07       		.uleb128 0x7
 3697 0d68 6E080000 		.4byte	.LASF222
 3698 0d6c 18       		.byte	0x18
 3699 0d6d 7F       		.byte	0x7f
 3700 0d6e E40B0000 		.4byte	0xbe4
 3701 0d72 60       		.byte	0x60
 3702 0d73 12       		.uleb128 0x12
 3703 0d74 75647000 		.ascii	"udp\000"
ARM GAS  C:\Users\Luis\AppData\Local\Temp\ccVuDqaU.s 			page 67


 3704 0d78 18       		.byte	0x18
 3705 0d79 85       		.byte	0x85
 3706 0d7a E40B0000 		.4byte	0xbe4
 3707 0d7e 78       		.byte	0x78
 3708 0d7f 12       		.uleb128 0x12
 3709 0d80 74637000 		.ascii	"tcp\000"
 3710 0d84 18       		.byte	0x18
 3711 0d85 88       		.byte	0x88
 3712 0d86 E40B0000 		.4byte	0xbe4
 3713 0d8a 90       		.byte	0x90
 3714 0d8b 12       		.uleb128 0x12
 3715 0d8c 6D656D00 		.ascii	"mem\000"
 3716 0d90 18       		.byte	0x18
 3717 0d91 8B       		.byte	0x8b
 3718 0d92 800C0000 		.4byte	0xc80
 3719 0d96 A8       		.byte	0xa8
 3720 0d97 07       		.uleb128 0x7
 3721 0d98 F3090000 		.4byte	.LASF223
 3722 0d9c 18       		.byte	0x18
 3723 0d9d 8E       		.byte	0x8e
 3724 0d9e B10D0000 		.4byte	0xdb1
 3725 0da2 B2       		.byte	0xb2
 3726 0da3 1E       		.uleb128 0x1e
 3727 0da4 73797300 		.ascii	"sys\000"
 3728 0da8 18       		.byte	0x18
 3729 0da9 91       		.byte	0x91
 3730 0daa FA0C0000 		.4byte	0xcfa
 3731 0dae 3E01     		.2byte	0x13e
 3732 0db0 00       		.byte	0
 3733 0db1 15       		.uleb128 0x15
 3734 0db2 800C0000 		.4byte	0xc80
 3735 0db6 C10D0000 		.4byte	0xdc1
 3736 0dba 16       		.uleb128 0x16
 3737 0dbb AB040000 		.4byte	0x4ab
 3738 0dbf 0D       		.byte	0xd
 3739 0dc0 00       		.byte	0
 3740 0dc1 1F       		.uleb128 0x1f
 3741 0dc2 B5020000 		.4byte	.LASF270
 3742 0dc6 01       		.byte	0x1
 3743 0dc7 1A       		.byte	0x1a
 3744 0dc8 41       		.byte	0x41
 3745 0dc9 DA0D0000 		.4byte	0xdda
 3746 0dcd 1B       		.uleb128 0x1b
 3747 0dce 6C090000 		.4byte	.LASF224
 3748 0dd2 00       		.sleb128 0
 3749 0dd3 1B       		.uleb128 0x1b
 3750 0dd4 51080000 		.4byte	.LASF225
 3751 0dd8 01       		.sleb128 1
 3752 0dd9 00       		.byte	0
 3753 0dda 06       		.uleb128 0x6
 3754 0ddb 42030000 		.4byte	.LASF226
 3755 0ddf 08       		.byte	0x8
 3756 0de0 02       		.byte	0x2
 3757 0de1 5C       		.byte	0x5c
 3758 0de2 0B0E0000 		.4byte	0xe0b
 3759 0de6 07       		.uleb128 0x7
 3760 0de7 82070000 		.4byte	.LASF227
ARM GAS  C:\Users\Luis\AppData\Local\Temp\ccVuDqaU.s 			page 68


 3761 0deb 02       		.byte	0x2
 3762 0dec 5D       		.byte	0x5d
 3763 0ded 91080000 		.4byte	0x891
 3764 0df1 00       		.byte	0
 3765 0df2 07       		.uleb128 0x7
 3766 0df3 7D090000 		.4byte	.LASF228
 3767 0df7 02       		.byte	0x2
 3768 0df8 5E       		.byte	0x5e
 3769 0df9 CD070000 		.4byte	0x7cd
 3770 0dfd 04       		.byte	0x4
 3771 0dfe 12       		.uleb128 0x12
 3772 0dff 656E6400 		.ascii	"end\000"
 3773 0e03 02       		.byte	0x2
 3774 0e04 5F       		.byte	0x5f
 3775 0e05 CD070000 		.4byte	0x7cd
 3776 0e09 06       		.byte	0x6
 3777 0e0a 00       		.byte	0
 3778 0e0b 20       		.uleb128 0x20
 3779 0e0c F4060000 		.4byte	.LASF243
 3780 0e10 01       		.byte	0x1
 3781 0e11 CC01     		.2byte	0x1cc
 3782 0e13 00000000 		.4byte	.LFB230
 3783 0e17 14000000 		.4byte	.LFE230-.LFB230
 3784 0e1b 01       		.uleb128 0x1
 3785 0e1c 9C       		.byte	0x9c
 3786 0e1d 310E0000 		.4byte	0xe31
 3787 0e21 21       		.uleb128 0x21
 3788 0e22 C6030000 		.4byte	.LASF230
 3789 0e26 01       		.byte	0x1
 3790 0e27 CC01     		.2byte	0x1cc
 3791 0e29 6C070000 		.4byte	0x76c
 3792 0e2d 02       		.uleb128 0x2
 3793 0e2e 91       		.byte	0x91
 3794 0e2f 74       		.sleb128 -12
 3795 0e30 00       		.byte	0
 3796 0e31 22       		.uleb128 0x22
 3797 0e32 D9020000 		.4byte	.LASF271
 3798 0e36 02       		.byte	0x2
 3799 0e37 7A       		.byte	0x7a
 3800 0e38 00000000 		.4byte	.LFB260
 3801 0e3c 54000000 		.4byte	.LFE260-.LFB260
 3802 0e40 01       		.uleb128 0x1
 3803 0e41 9C       		.byte	0x9c
 3804 0e42 790E0000 		.4byte	0xe79
 3805 0e46 23       		.uleb128 0x23
 3806 0e47 7200     		.ascii	"r\000"
 3807 0e49 02       		.byte	0x2
 3808 0e4a 7C       		.byte	0x7c
 3809 0e4b 4C0B0000 		.4byte	0xb4c
 3810 0e4f 02       		.uleb128 0x2
 3811 0e50 91       		.byte	0x91
 3812 0e51 74       		.sleb128 -12
 3813 0e52 24       		.uleb128 0x24
 3814 0e53 1B010000 		.4byte	.LASF229
 3815 0e57 02       		.byte	0x2
 3816 0e58 7C       		.byte	0x7c
 3817 0e59 4C0B0000 		.4byte	0xb4c
ARM GAS  C:\Users\Luis\AppData\Local\Temp\ccVuDqaU.s 			page 69


 3818 0e5d 02       		.uleb128 0x2
 3819 0e5e 91       		.byte	0x91
 3820 0e5f 70       		.sleb128 -16
 3821 0e60 25       		.uleb128 0x25
 3822 0e61 32000000 		.4byte	.LBB2
 3823 0e65 12000000 		.4byte	.LBE2-.LBB2
 3824 0e69 23       		.uleb128 0x23
 3825 0e6a 746D7000 		.ascii	"tmp\000"
 3826 0e6e 02       		.byte	0x2
 3827 0e6f 89       		.byte	0x89
 3828 0e70 4C0B0000 		.4byte	0xb4c
 3829 0e74 02       		.uleb128 0x2
 3830 0e75 91       		.byte	0x91
 3831 0e76 6C       		.sleb128 -20
 3832 0e77 00       		.byte	0
 3833 0e78 00       		.byte	0
 3834 0e79 26       		.uleb128 0x26
 3835 0e7a 8B050000 		.4byte	.LASF235
 3836 0e7e 02       		.byte	0x2
 3837 0e7f 9E       		.byte	0x9e
 3838 0e80 25000000 		.4byte	0x25
 3839 0e84 00000000 		.4byte	.LFB261
 3840 0e88 28010000 		.4byte	.LFE261-.LFB261
 3841 0e8c 01       		.uleb128 0x1
 3842 0e8d 9C       		.byte	0x9c
 3843 0e8e FD0E0000 		.4byte	0xefd
 3844 0e92 27       		.uleb128 0x27
 3845 0e93 69707200 		.ascii	"ipr\000"
 3846 0e97 02       		.byte	0x2
 3847 0e98 9E       		.byte	0x9e
 3848 0e99 4C0B0000 		.4byte	0xb4c
 3849 0e9d 02       		.uleb128 0x2
 3850 0e9e 91       		.byte	0x91
 3851 0e9f 5C       		.sleb128 -36
 3852 0ea0 28       		.uleb128 0x28
 3853 0ea1 1B010000 		.4byte	.LASF229
 3854 0ea5 02       		.byte	0x2
 3855 0ea6 9E       		.byte	0x9e
 3856 0ea7 4C0B0000 		.4byte	0xb4c
 3857 0eab 02       		.uleb128 0x2
 3858 0eac 91       		.byte	0x91
 3859 0ead 58       		.sleb128 -40
 3860 0eae 24       		.uleb128 0x24
 3861 0eaf 2D0B0000 		.4byte	.LASF231
 3862 0eb3 02       		.byte	0x2
 3863 0eb4 A0       		.byte	0xa0
 3864 0eb5 CD070000 		.4byte	0x7cd
 3865 0eb9 02       		.uleb128 0x2
 3866 0eba 91       		.byte	0x91
 3867 0ebb 76       		.sleb128 -10
 3868 0ebc 24       		.uleb128 0x24
 3869 0ebd CD030000 		.4byte	.LASF232
 3870 0ec1 02       		.byte	0x2
 3871 0ec2 A1       		.byte	0xa1
 3872 0ec3 B7070000 		.4byte	0x7b7
 3873 0ec7 02       		.uleb128 0x2
 3874 0ec8 91       		.byte	0x91
ARM GAS  C:\Users\Luis\AppData\Local\Temp\ccVuDqaU.s 			page 70


 3875 0ec9 6B       		.sleb128 -21
 3876 0eca 23       		.uleb128 0x23
 3877 0ecb 7000     		.ascii	"p\000"
 3878 0ecd 02       		.byte	0x2
 3879 0ece A2       		.byte	0xa2
 3880 0ecf 91080000 		.4byte	0x891
 3881 0ed3 02       		.uleb128 0x2
 3882 0ed4 91       		.byte	0x91
 3883 0ed5 70       		.sleb128 -16
 3884 0ed6 24       		.uleb128 0x24
 3885 0ed7 62020000 		.4byte	.LASF233
 3886 0edb 02       		.byte	0x2
 3887 0edc A3       		.byte	0xa3
 3888 0edd FD0E0000 		.4byte	0xefd
 3889 0ee1 02       		.uleb128 0x2
 3890 0ee2 91       		.byte	0x91
 3891 0ee3 6C       		.sleb128 -20
 3892 0ee4 25       		.uleb128 0x25
 3893 0ee5 A0000000 		.4byte	.LBB3
 3894 0ee9 3C000000 		.4byte	.LBE3-.LBB3
 3895 0eed 24       		.uleb128 0x24
 3896 0eee 15000000 		.4byte	.LASF234
 3897 0ef2 02       		.byte	0x2
 3898 0ef3 C0       		.byte	0xc0
 3899 0ef4 91080000 		.4byte	0x891
 3900 0ef8 02       		.uleb128 0x2
 3901 0ef9 91       		.byte	0x91
 3902 0efa 64       		.sleb128 -28
 3903 0efb 00       		.byte	0
 3904 0efc 00       		.byte	0
 3905 0efd 0A       		.uleb128 0xa
 3906 0efe 04       		.byte	0x4
 3907 0eff DA0D0000 		.4byte	0xdda
 3908 0f03 26       		.uleb128 0x26
 3909 0f04 A0000000 		.4byte	.LASF236
 3910 0f08 02       		.byte	0x2
 3911 0f09 DD       		.byte	0xdd
 3912 0f0a 25000000 		.4byte	0x25
 3913 0f0e 00000000 		.4byte	.LFB262
 3914 0f12 B8000000 		.4byte	.LFE262-.LFB262
 3915 0f16 01       		.uleb128 0x1
 3916 0f17 9C       		.byte	0x9c
 3917 0f18 8B0F0000 		.4byte	0xf8b
 3918 0f1c 28       		.uleb128 0x28
 3919 0f1d DA0B0000 		.4byte	.LASF237
 3920 0f21 02       		.byte	0x2
 3921 0f22 DD       		.byte	0xdd
 3922 0f23 8B0F0000 		.4byte	0xf8b
 3923 0f27 02       		.uleb128 0x2
 3924 0f28 91       		.byte	0x91
 3925 0f29 5C       		.sleb128 -36
 3926 0f2a 28       		.uleb128 0x28
 3927 0f2b D2030000 		.4byte	.LASF238
 3928 0f2f 02       		.byte	0x2
 3929 0f30 DD       		.byte	0xdd
 3930 0f31 25000000 		.4byte	0x25
 3931 0f35 02       		.uleb128 0x2
ARM GAS  C:\Users\Luis\AppData\Local\Temp\ccVuDqaU.s 			page 71


 3932 0f36 91       		.byte	0x91
 3933 0f37 58       		.sleb128 -40
 3934 0f38 23       		.uleb128 0x23
 3935 0f39 7200     		.ascii	"r\000"
 3936 0f3b 02       		.byte	0x2
 3937 0f3c E2       		.byte	0xe2
 3938 0f3d 4C0B0000 		.4byte	0xb4c
 3939 0f41 02       		.uleb128 0x2
 3940 0f42 91       		.byte	0x91
 3941 0f43 74       		.sleb128 -12
 3942 0f44 24       		.uleb128 0x24
 3943 0f45 DA050000 		.4byte	.LASF239
 3944 0f49 02       		.byte	0x2
 3945 0f4a E2       		.byte	0xe2
 3946 0f4b 4C0B0000 		.4byte	0xb4c
 3947 0f4f 02       		.uleb128 0x2
 3948 0f50 91       		.byte	0x91
 3949 0f51 70       		.sleb128 -16
 3950 0f52 24       		.uleb128 0x24
 3951 0f53 1B010000 		.4byte	.LASF229
 3952 0f57 02       		.byte	0x2
 3953 0f58 E2       		.byte	0xe2
 3954 0f59 4C0B0000 		.4byte	0xb4c
 3955 0f5d 02       		.uleb128 0x2
 3956 0f5e 91       		.byte	0x91
 3957 0f5f 6C       		.sleb128 -20
 3958 0f60 24       		.uleb128 0x24
 3959 0f61 2D0B0000 		.4byte	.LASF231
 3960 0f65 02       		.byte	0x2
 3961 0f66 E3       		.byte	0xe3
 3962 0f67 25000000 		.4byte	0x25
 3963 0f6b 02       		.uleb128 0x2
 3964 0f6c 91       		.byte	0x91
 3965 0f6d 68       		.sleb128 -24
 3966 0f6e 24       		.uleb128 0x24
 3967 0f6f 2A060000 		.4byte	.LASF240
 3968 0f73 02       		.byte	0x2
 3969 0f74 E3       		.byte	0xe3
 3970 0f75 25000000 		.4byte	0x25
 3971 0f79 02       		.uleb128 0x2
 3972 0f7a 91       		.byte	0x91
 3973 0f7b 60       		.sleb128 -32
 3974 0f7c 24       		.uleb128 0x24
 3975 0f7d 1D050000 		.4byte	.LASF241
 3976 0f81 02       		.byte	0x2
 3977 0f82 E4       		.byte	0xe4
 3978 0f83 25000000 		.4byte	0x25
 3979 0f87 02       		.uleb128 0x2
 3980 0f88 91       		.byte	0x91
 3981 0f89 64       		.sleb128 -28
 3982 0f8a 00       		.byte	0
 3983 0f8b 0A       		.uleb128 0xa
 3984 0f8c 04       		.byte	0x4
 3985 0f8d 740A0000 		.4byte	0xa74
 3986 0f91 29       		.uleb128 0x29
 3987 0f92 C0060000 		.4byte	.LASF242
 3988 0f96 02       		.byte	0x2
ARM GAS  C:\Users\Luis\AppData\Local\Temp\ccVuDqaU.s 			page 72


 3989 0f97 0D01     		.2byte	0x10d
 3990 0f99 4C0B0000 		.4byte	0xb4c
 3991 0f9d 00000000 		.4byte	.LFB263
 3992 0fa1 84000000 		.4byte	.LFE263-.LFB263
 3993 0fa5 01       		.uleb128 0x1
 3994 0fa6 9C       		.byte	0x9c
 3995 0fa7 D90F0000 		.4byte	0xfd9
 3996 0fab 21       		.uleb128 0x21
 3997 0fac DA0B0000 		.4byte	.LASF237
 3998 0fb0 02       		.byte	0x2
 3999 0fb1 0D01     		.2byte	0x10d
 4000 0fb3 8B0F0000 		.4byte	0xf8b
 4001 0fb7 02       		.uleb128 0x2
 4002 0fb8 91       		.byte	0x91
 4003 0fb9 6C       		.sleb128 -20
 4004 0fba 21       		.uleb128 0x21
 4005 0fbb CD030000 		.4byte	.LASF232
 4006 0fbf 02       		.byte	0x2
 4007 0fc0 0D01     		.2byte	0x10d
 4008 0fc2 25000000 		.4byte	0x25
 4009 0fc6 02       		.uleb128 0x2
 4010 0fc7 91       		.byte	0x91
 4011 0fc8 68       		.sleb128 -24
 4012 0fc9 2A       		.uleb128 0x2a
 4013 0fca 69707200 		.ascii	"ipr\000"
 4014 0fce 02       		.byte	0x2
 4015 0fcf 0F01     		.2byte	0x10f
 4016 0fd1 4C0B0000 		.4byte	0xb4c
 4017 0fd5 02       		.uleb128 0x2
 4018 0fd6 91       		.byte	0x91
 4019 0fd7 74       		.sleb128 -12
 4020 0fd8 00       		.byte	0
 4021 0fd9 20       		.uleb128 0x20
 4022 0fda 40090000 		.4byte	.LASF244
 4023 0fde 02       		.byte	0x2
 4024 0fdf 3001     		.2byte	0x130
 4025 0fe1 00000000 		.4byte	.LFB264
 4026 0fe5 48000000 		.4byte	.LFE264-.LFB264
 4027 0fe9 01       		.uleb128 0x1
 4028 0fea 9C       		.byte	0x9c
 4029 0feb 0E100000 		.4byte	0x100e
 4030 0fef 2B       		.uleb128 0x2b
 4031 0ff0 69707200 		.ascii	"ipr\000"
 4032 0ff4 02       		.byte	0x2
 4033 0ff5 3001     		.2byte	0x130
 4034 0ff7 4C0B0000 		.4byte	0xb4c
 4035 0ffb 02       		.uleb128 0x2
 4036 0ffc 91       		.byte	0x91
 4037 0ffd 74       		.sleb128 -12
 4038 0ffe 21       		.uleb128 0x21
 4039 0fff 1B010000 		.4byte	.LASF229
 4040 1003 02       		.byte	0x2
 4041 1004 3001     		.2byte	0x130
 4042 1006 4C0B0000 		.4byte	0xb4c
 4043 100a 02       		.uleb128 0x2
 4044 100b 91       		.byte	0x91
 4045 100c 70       		.sleb128 -16
ARM GAS  C:\Users\Luis\AppData\Local\Temp\ccVuDqaU.s 			page 73


 4046 100d 00       		.byte	0
 4047 100e 29       		.uleb128 0x29
 4048 100f 83090000 		.4byte	.LASF245
 4049 1013 02       		.byte	0x2
 4050 1014 4B01     		.2byte	0x14b
 4051 1016 25000000 		.4byte	0x25
 4052 101a 00000000 		.4byte	.LFB265
 4053 101e 6C020000 		.4byte	.LFE265-.LFB265
 4054 1022 01       		.uleb128 0x1
 4055 1023 9C       		.byte	0x9c
 4056 1024 C9100000 		.4byte	0x10c9
 4057 1028 2B       		.uleb128 0x2b
 4058 1029 69707200 		.ascii	"ipr\000"
 4059 102d 02       		.byte	0x2
 4060 102e 4B01     		.2byte	0x14b
 4061 1030 4C0B0000 		.4byte	0xb4c
 4062 1034 02       		.uleb128 0x2
 4063 1035 91       		.byte	0x91
 4064 1036 4C       		.sleb128 -52
 4065 1037 21       		.uleb128 0x21
 4066 1038 85050000 		.4byte	.LASF246
 4067 103c 02       		.byte	0x2
 4068 103d 4B01     		.2byte	0x14b
 4069 103f 91080000 		.4byte	0x891
 4070 1043 02       		.uleb128 0x2
 4071 1044 91       		.byte	0x91
 4072 1045 48       		.sleb128 -56
 4073 1046 2C       		.uleb128 0x2c
 4074 1047 62020000 		.4byte	.LASF233
 4075 104b 02       		.byte	0x2
 4076 104c 4D01     		.2byte	0x14d
 4077 104e FD0E0000 		.4byte	0xefd
 4078 1052 02       		.uleb128 0x2
 4079 1053 91       		.byte	0x91
 4080 1054 6C       		.sleb128 -20
 4081 1055 2C       		.uleb128 0x2c
 4082 1056 090B0000 		.4byte	.LASF247
 4083 105a 02       		.byte	0x2
 4084 105b 4D01     		.2byte	0x14d
 4085 105d FD0E0000 		.4byte	0xefd
 4086 1061 02       		.uleb128 0x2
 4087 1062 91       		.byte	0x91
 4088 1063 54       		.sleb128 -44
 4089 1064 2C       		.uleb128 0x2c
 4090 1065 F8090000 		.4byte	.LASF248
 4091 1069 02       		.byte	0x2
 4092 106a 4D01     		.2byte	0x14d
 4093 106c FD0E0000 		.4byte	0xefd
 4094 1070 02       		.uleb128 0x2
 4095 1071 91       		.byte	0x91
 4096 1072 68       		.sleb128 -24
 4097 1073 2A       		.uleb128 0x2a
 4098 1074 7100     		.ascii	"q\000"
 4099 1076 02       		.byte	0x2
 4100 1077 4E01     		.2byte	0x14e
 4101 1079 91080000 		.4byte	0x891
 4102 107d 02       		.uleb128 0x2
ARM GAS  C:\Users\Luis\AppData\Local\Temp\ccVuDqaU.s 			page 74


 4103 107e 91       		.byte	0x91
 4104 107f 64       		.sleb128 -28
 4105 1080 2C       		.uleb128 0x2c
 4106 1081 BF030000 		.4byte	.LASF100
 4107 1085 02       		.byte	0x2
 4108 1086 4F01     		.2byte	0x14f
 4109 1088 CD070000 		.4byte	0x7cd
 4110 108c 02       		.uleb128 0x2
 4111 108d 91       		.byte	0x91
 4112 108e 58       		.sleb128 -40
 4113 108f 2A       		.uleb128 0x2a
 4114 1090 6C656E00 		.ascii	"len\000"
 4115 1094 02       		.byte	0x2
 4116 1095 4F01     		.2byte	0x14f
 4117 1097 CD070000 		.4byte	0x7cd
 4118 109b 02       		.uleb128 0x2
 4119 109c 91       		.byte	0x91
 4120 109d 5A       		.sleb128 -38
 4121 109e 2C       		.uleb128 0x2c
 4122 109f DA0B0000 		.4byte	.LASF237
 4123 10a3 02       		.byte	0x2
 4124 10a4 5001     		.2byte	0x150
 4125 10a6 8B0F0000 		.4byte	0xf8b
 4126 10aa 02       		.uleb128 0x2
 4127 10ab 91       		.byte	0x91
 4128 10ac 5C       		.sleb128 -36
 4129 10ad 2C       		.uleb128 0x2c
 4130 10ae 8C060000 		.4byte	.LASF249
 4131 10b2 02       		.byte	0x2
 4132 10b3 5101     		.2byte	0x151
 4133 10b5 25000000 		.4byte	0x25
 4134 10b9 02       		.uleb128 0x2
 4135 10ba 91       		.byte	0x91
 4136 10bb 60       		.sleb128 -32
 4137 10bc 2D       		.uleb128 0x2d
 4138 10bd 66040000 		.4byte	.LASF251
 4139 10c1 02       		.byte	0x2
 4140 10c2 CE01     		.2byte	0x1ce
 4141 10c4 2E020000 		.4byte	.L49
 4142 10c8 00       		.byte	0
 4143 10c9 2E       		.uleb128 0x2e
 4144 10ca 7B060000 		.4byte	.LASF255
 4145 10ce 02       		.byte	0x2
 4146 10cf DC01     		.2byte	0x1dc
 4147 10d1 91080000 		.4byte	0x891
 4148 10d5 00000000 		.4byte	.LFB266
 4149 10d9 84020000 		.4byte	.LFE266-.LFB266
 4150 10dd 01       		.uleb128 0x1
 4151 10de 9C       		.byte	0x9c
 4152 10df 73110000 		.4byte	0x1173
 4153 10e3 2B       		.uleb128 0x2b
 4154 10e4 7000     		.ascii	"p\000"
 4155 10e6 02       		.byte	0x2
 4156 10e7 DC01     		.2byte	0x1dc
 4157 10e9 91080000 		.4byte	0x891
 4158 10ed 02       		.uleb128 0x2
 4159 10ee 91       		.byte	0x91
ARM GAS  C:\Users\Luis\AppData\Local\Temp\ccVuDqaU.s 			page 75


 4160 10ef 4C       		.sleb128 -52
 4161 10f0 2A       		.uleb128 0x2a
 4162 10f1 7200     		.ascii	"r\000"
 4163 10f3 02       		.byte	0x2
 4164 10f4 DE01     		.2byte	0x1de
 4165 10f6 91080000 		.4byte	0x891
 4166 10fa 02       		.uleb128 0x2
 4167 10fb 91       		.byte	0x91
 4168 10fc 6C       		.sleb128 -20
 4169 10fd 2C       		.uleb128 0x2c
 4170 10fe DA0B0000 		.4byte	.LASF237
 4171 1102 02       		.byte	0x2
 4172 1103 DF01     		.2byte	0x1df
 4173 1105 8B0F0000 		.4byte	0xf8b
 4174 1109 02       		.uleb128 0x2
 4175 110a 91       		.byte	0x91
 4176 110b 60       		.sleb128 -32
 4177 110c 2A       		.uleb128 0x2a
 4178 110d 69707200 		.ascii	"ipr\000"
 4179 1111 02       		.byte	0x2
 4180 1112 E001     		.2byte	0x1e0
 4181 1114 4C0B0000 		.4byte	0xb4c
 4182 1118 02       		.uleb128 0x2
 4183 1119 91       		.byte	0x91
 4184 111a 68       		.sleb128 -24
 4185 111b 2C       		.uleb128 0x2c
 4186 111c 62020000 		.4byte	.LASF233
 4187 1120 02       		.byte	0x2
 4188 1121 E101     		.2byte	0x1e1
 4189 1123 FD0E0000 		.4byte	0xefd
 4190 1127 02       		.uleb128 0x2
 4191 1128 91       		.byte	0x91
 4192 1129 54       		.sleb128 -44
 4193 112a 2C       		.uleb128 0x2c
 4194 112b BF030000 		.4byte	.LASF100
 4195 112f 02       		.byte	0x2
 4196 1130 E201     		.2byte	0x1e2
 4197 1132 CD070000 		.4byte	0x7cd
 4198 1136 02       		.uleb128 0x2
 4199 1137 91       		.byte	0x91
 4200 1138 5E       		.sleb128 -34
 4201 1139 2A       		.uleb128 0x2a
 4202 113a 6C656E00 		.ascii	"len\000"
 4203 113e 02       		.byte	0x2
 4204 113f E201     		.2byte	0x1e2
 4205 1141 CD070000 		.4byte	0x7cd
 4206 1145 02       		.uleb128 0x2
 4207 1146 91       		.byte	0x91
 4208 1147 5C       		.sleb128 -36
 4209 1148 2C       		.uleb128 0x2c
 4210 1149 CD030000 		.4byte	.LASF232
 4211 114d 02       		.byte	0x2
 4212 114e E301     		.2byte	0x1e3
 4213 1150 B7070000 		.4byte	0x7b7
 4214 1154 02       		.uleb128 0x2
 4215 1155 91       		.byte	0x91
 4216 1156 5B       		.sleb128 -37
ARM GAS  C:\Users\Luis\AppData\Local\Temp\ccVuDqaU.s 			page 76


 4217 1157 2C       		.uleb128 0x2c
 4218 1158 F30A0000 		.4byte	.LASF250
 4219 115c 02       		.byte	0x2
 4220 115d E401     		.2byte	0x1e4
 4221 115f 4C0B0000 		.4byte	0xb4c
 4222 1163 02       		.uleb128 0x2
 4223 1164 91       		.byte	0x91
 4224 1165 64       		.sleb128 -28
 4225 1166 2D       		.uleb128 0x2d
 4226 1167 D2000000 		.4byte	.LASF252
 4227 116b 02       		.byte	0x2
 4228 116c 6002     		.2byte	0x260
 4229 116e 5C020000 		.4byte	.L76
 4230 1172 00       		.byte	0
 4231 1173 2F       		.uleb128 0x2f
 4232 1174 D5090000 		.4byte	.LASF272
 4233 1178 02       		.byte	0x2
 4234 1179 7002     		.2byte	0x270
 4235 117b 89110000 		.4byte	0x1189
 4236 117f 00000000 		.4byte	.LFB267
 4237 1183 10000000 		.4byte	.LFE267-.LFB267
 4238 1187 01       		.uleb128 0x1
 4239 1188 9C       		.byte	0x9c
 4240 1189 0A       		.uleb128 0xa
 4241 118a 04       		.byte	0x4
 4242 118b 520B0000 		.4byte	0xb52
 4243 118f 20       		.uleb128 0x20
 4244 1190 410B0000 		.4byte	.LASF253
 4245 1194 02       		.byte	0x2
 4246 1195 7702     		.2byte	0x277
 4247 1197 00000000 		.4byte	.LFB268
 4248 119b 28000000 		.4byte	.LFE268-.LFB268
 4249 119f 01       		.uleb128 0x1
 4250 11a0 9C       		.byte	0x9c
 4251 11a1 B3110000 		.4byte	0x11b3
 4252 11a5 2B       		.uleb128 0x2b
 4253 11a6 7000     		.ascii	"p\000"
 4254 11a8 02       		.byte	0x2
 4255 11a9 7702     		.2byte	0x277
 4256 11ab 89110000 		.4byte	0x1189
 4257 11af 02       		.uleb128 0x2
 4258 11b0 91       		.byte	0x91
 4259 11b1 74       		.sleb128 -12
 4260 11b2 00       		.byte	0
 4261 11b3 20       		.uleb128 0x20
 4262 11b4 23090000 		.4byte	.LASF254
 4263 11b8 02       		.byte	0x2
 4264 11b9 8002     		.2byte	0x280
 4265 11bb 00000000 		.4byte	.LFB269
 4266 11bf 4C000000 		.4byte	.LFE269-.LFB269
 4267 11c3 01       		.uleb128 0x1
 4268 11c4 9C       		.byte	0x9c
 4269 11c5 E6110000 		.4byte	0x11e6
 4270 11c9 2B       		.uleb128 0x2b
 4271 11ca 7000     		.ascii	"p\000"
 4272 11cc 02       		.byte	0x2
 4273 11cd 8002     		.2byte	0x280
ARM GAS  C:\Users\Luis\AppData\Local\Temp\ccVuDqaU.s 			page 77


 4274 11cf 91080000 		.4byte	0x891
 4275 11d3 02       		.uleb128 0x2
 4276 11d4 91       		.byte	0x91
 4277 11d5 6C       		.sleb128 -20
 4278 11d6 2A       		.uleb128 0x2a
 4279 11d7 70637200 		.ascii	"pcr\000"
 4280 11db 02       		.byte	0x2
 4281 11dc 8202     		.2byte	0x282
 4282 11de 89110000 		.4byte	0x1189
 4283 11e2 02       		.uleb128 0x2
 4284 11e3 91       		.byte	0x91
 4285 11e4 74       		.sleb128 -12
 4286 11e5 00       		.byte	0
 4287 11e6 2E       		.uleb128 0x2e
 4288 11e7 52030000 		.4byte	.LASF221
 4289 11eb 02       		.byte	0x2
 4290 11ec 9B02     		.2byte	0x29b
 4291 11ee E3070000 		.4byte	0x7e3
 4292 11f2 00000000 		.4byte	.LFB270
 4293 11f6 1C020000 		.4byte	.LFE270-.LFB270
 4294 11fa 01       		.uleb128 0x1
 4295 11fb 9C       		.byte	0x9c
 4296 11fc 27130000 		.4byte	0x1327
 4297 1200 2B       		.uleb128 0x2b
 4298 1201 7000     		.ascii	"p\000"
 4299 1203 02       		.byte	0x2
 4300 1204 9B02     		.2byte	0x29b
 4301 1206 91080000 		.4byte	0x891
 4302 120a 02       		.uleb128 0x2
 4303 120b 91       		.byte	0x91
 4304 120c 44       		.sleb128 -60
 4305 120d 21       		.uleb128 0x21
 4306 120e 670B0000 		.4byte	.LASF156
 4307 1212 02       		.byte	0x2
 4308 1213 9B02     		.2byte	0x29b
 4309 1215 20090000 		.4byte	0x920
 4310 1219 02       		.uleb128 0x2
 4311 121a 91       		.byte	0x91
 4312 121b 40       		.sleb128 -64
 4313 121c 21       		.uleb128 0x21
 4314 121d 2C0C0000 		.4byte	.LASF176
 4315 1221 02       		.byte	0x2
 4316 1222 9B02     		.2byte	0x29b
 4317 1224 290A0000 		.4byte	0xa29
 4318 1228 03       		.uleb128 0x3
 4319 1229 91       		.byte	0x91
 4320 122a BC7F     		.sleb128 -68
 4321 122c 2C       		.uleb128 0x2c
 4322 122d 3D070000 		.4byte	.LASF256
 4323 1231 02       		.byte	0x2
 4324 1232 9D02     		.2byte	0x29d
 4325 1234 91080000 		.4byte	0x891
 4326 1238 02       		.uleb128 0x2
 4327 1239 91       		.byte	0x91
 4328 123a 54       		.sleb128 -44
 4329 123b 2C       		.uleb128 0x2c
 4330 123c E3080000 		.4byte	.LASF257
ARM GAS  C:\Users\Luis\AppData\Local\Temp\ccVuDqaU.s 			page 78


 4331 1240 02       		.byte	0x2
 4332 1241 A202     		.2byte	0x2a2
 4333 1243 91080000 		.4byte	0x891
 4334 1247 02       		.uleb128 0x2
 4335 1248 91       		.byte	0x91
 4336 1249 4C       		.sleb128 -52
 4337 124a 2C       		.uleb128 0x2c
 4338 124b 2D000000 		.4byte	.LASF258
 4339 124f 02       		.byte	0x2
 4340 1250 A402     		.2byte	0x2a4
 4341 1252 8B0F0000 		.4byte	0xf8b
 4342 1256 02       		.uleb128 0x2
 4343 1257 91       		.byte	0x91
 4344 1258 64       		.sleb128 -28
 4345 1259 2C       		.uleb128 0x2c
 4346 125a 8A0B0000 		.4byte	.LASF178
 4347 125e 02       		.byte	0x2
 4348 125f A602     		.2byte	0x2a6
 4349 1261 8B0F0000 		.4byte	0xf8b
 4350 1265 02       		.uleb128 0x2
 4351 1266 91       		.byte	0x91
 4352 1267 60       		.sleb128 -32
 4353 1268 2A       		.uleb128 0x2a
 4354 1269 6E666200 		.ascii	"nfb\000"
 4355 126d 02       		.byte	0x2
 4356 126e A702     		.2byte	0x2a7
 4357 1270 CD070000 		.4byte	0x7cd
 4358 1274 02       		.uleb128 0x2
 4359 1275 91       		.byte	0x91
 4360 1276 5C       		.sleb128 -36
 4361 1277 2C       		.uleb128 0x2c
 4362 1278 60090000 		.4byte	.LASF259
 4363 127c 02       		.byte	0x2
 4364 127d A802     		.2byte	0x2a8
 4365 127f CD070000 		.4byte	0x7cd
 4366 1283 02       		.uleb128 0x2
 4367 1284 91       		.byte	0x91
 4368 1285 76       		.sleb128 -10
 4369 1286 2A       		.uleb128 0x2a
 4370 1287 636F7000 		.ascii	"cop\000"
 4371 128b 02       		.byte	0x2
 4372 128c A802     		.2byte	0x2a8
 4373 128e CD070000 		.4byte	0x7cd
 4374 1292 02       		.uleb128 0x2
 4375 1293 91       		.byte	0x91
 4376 1294 58       		.sleb128 -40
 4377 1295 2A       		.uleb128 0x2a
 4378 1296 6D747500 		.ascii	"mtu\000"
 4379 129a 02       		.byte	0x2
 4380 129b A902     		.2byte	0x2a9
 4381 129d CD070000 		.4byte	0x7cd
 4382 12a1 02       		.uleb128 0x2
 4383 12a2 91       		.byte	0x91
 4384 12a3 6A       		.sleb128 -22
 4385 12a4 2A       		.uleb128 0x2a
 4386 12a5 6F666F00 		.ascii	"ofo\000"
 4387 12a9 02       		.byte	0x2
ARM GAS  C:\Users\Luis\AppData\Local\Temp\ccVuDqaU.s 			page 79


 4388 12aa AA02     		.2byte	0x2aa
 4389 12ac CD070000 		.4byte	0x7cd
 4390 12b0 02       		.uleb128 0x2
 4391 12b1 91       		.byte	0x91
 4392 12b2 74       		.sleb128 -12
 4393 12b3 2A       		.uleb128 0x2a
 4394 12b4 6F6D6600 		.ascii	"omf\000"
 4395 12b8 02       		.byte	0x2
 4396 12b9 AA02     		.2byte	0x2aa
 4397 12bb CD070000 		.4byte	0x7cd
 4398 12bf 02       		.uleb128 0x2
 4399 12c0 91       		.byte	0x91
 4400 12c1 5E       		.sleb128 -34
 4401 12c2 2C       		.uleb128 0x2c
 4402 12c3 CF040000 		.4byte	.LASF104
 4403 12c7 02       		.byte	0x2
 4404 12c8 AB02     		.2byte	0x2ab
 4405 12ca CD070000 		.4byte	0x7cd
 4406 12ce 02       		.uleb128 0x2
 4407 12cf 91       		.byte	0x91
 4408 12d0 5A       		.sleb128 -38
 4409 12d1 2C       		.uleb128 0x2c
 4410 12d2 00000000 		.4byte	.LASF260
 4411 12d6 02       		.byte	0x2
 4412 12d7 AC02     		.2byte	0x2ac
 4413 12d9 CD070000 		.4byte	0x7cd
 4414 12dd 02       		.uleb128 0x2
 4415 12de 91       		.byte	0x91
 4416 12df 72       		.sleb128 -14
 4417 12e0 2A       		.uleb128 0x2a
 4418 12e1 746D7000 		.ascii	"tmp\000"
 4419 12e5 02       		.byte	0x2
 4420 12e6 AD02     		.2byte	0x2ad
 4421 12e8 CD070000 		.4byte	0x7cd
 4422 12ec 02       		.uleb128 0x2
 4423 12ed 91       		.byte	0x91
 4424 12ee 70       		.sleb128 -16
 4425 12ef 2C       		.uleb128 0x2c
 4426 12f0 790B0000 		.4byte	.LASF261
 4427 12f4 02       		.byte	0x2
 4428 12f5 AF02     		.2byte	0x2af
 4429 12f7 CD070000 		.4byte	0x7cd
 4430 12fb 02       		.uleb128 0x2
 4431 12fc 91       		.byte	0x91
 4432 12fd 6E       		.sleb128 -18
 4433 12fe 2C       		.uleb128 0x2c
 4434 12ff FC0B0000 		.4byte	.LASF262
 4435 1303 02       		.byte	0x2
 4436 1304 B002     		.2byte	0x2b0
 4437 1306 CD070000 		.4byte	0x7cd
 4438 130a 02       		.uleb128 0x2
 4439 130b 91       		.byte	0x91
 4440 130c 6C       		.sleb128 -20
 4441 130d 25       		.uleb128 0x25
 4442 130e F4000000 		.4byte	.LBB4
 4443 1312 90000000 		.4byte	.LBE4-.LBB4
 4444 1316 2A       		.uleb128 0x2a
ARM GAS  C:\Users\Luis\AppData\Local\Temp\ccVuDqaU.s 			page 80


 4445 1317 70637200 		.ascii	"pcr\000"
 4446 131b 02       		.byte	0x2
 4447 131c 0603     		.2byte	0x306
 4448 131e 89110000 		.4byte	0x1189
 4449 1322 02       		.uleb128 0x2
 4450 1323 91       		.byte	0x91
 4451 1324 50       		.sleb128 -48
 4452 1325 00       		.byte	0
 4453 1326 00       		.byte	0
 4454 1327 24       		.uleb128 0x24
 4455 1328 8C040000 		.4byte	.LASF263
 4456 132c 02       		.byte	0x2
 4457 132d 6C       		.byte	0x6c
 4458 132e 4C0B0000 		.4byte	0xb4c
 4459 1332 05       		.uleb128 0x5
 4460 1333 03       		.byte	0x3
 4461 1334 00000000 		.4byte	reassdatagrams
 4462 1338 24       		.uleb128 0x24
 4463 1339 BC040000 		.4byte	.LASF264
 4464 133d 02       		.byte	0x2
 4465 133e 6D       		.byte	0x6d
 4466 133f CD070000 		.4byte	0x7cd
 4467 1343 05       		.uleb128 0x5
 4468 1344 03       		.byte	0x3
 4469 1345 00000000 		.4byte	ip_reass_pbufcount
 4470 1349 30       		.uleb128 0x30
 4471 134a BF080000 		.4byte	.LASF265
 4472 134e 19       		.byte	0x19
 4473 134f A706     		.2byte	0x6a7
 4474 1351 B8000000 		.4byte	0xb8
 4475 1355 31       		.uleb128 0x31
 4476 1356 636800   		.ascii	"ch\000"
 4477 1359 07       		.byte	0x7
 4478 135a 0902     		.2byte	0x209
 4479 135c 33040000 		.4byte	0x433
 4480 1360 32       		.uleb128 0x32
 4481 1361 67020000 		.4byte	.LASF266
 4482 1365 18       		.byte	0x18
 4483 1366 95       		.byte	0x95
 4484 1367 2B0D0000 		.4byte	0xd2b
 4485 136b 00       		.byte	0
 4486              		.section	.debug_abbrev,"",%progbits
 4487              	.Ldebug_abbrev0:
 4488 0000 01       		.uleb128 0x1
 4489 0001 11       		.uleb128 0x11
 4490 0002 01       		.byte	0x1
 4491 0003 25       		.uleb128 0x25
 4492 0004 0E       		.uleb128 0xe
 4493 0005 13       		.uleb128 0x13
 4494 0006 0B       		.uleb128 0xb
 4495 0007 03       		.uleb128 0x3
 4496 0008 0E       		.uleb128 0xe
 4497 0009 1B       		.uleb128 0x1b
 4498 000a 0E       		.uleb128 0xe
 4499 000b 55       		.uleb128 0x55
 4500 000c 17       		.uleb128 0x17
 4501 000d 11       		.uleb128 0x11
ARM GAS  C:\Users\Luis\AppData\Local\Temp\ccVuDqaU.s 			page 81


 4502 000e 01       		.uleb128 0x1
 4503 000f 10       		.uleb128 0x10
 4504 0010 17       		.uleb128 0x17
 4505 0011 00       		.byte	0
 4506 0012 00       		.byte	0
 4507 0013 02       		.uleb128 0x2
 4508 0014 24       		.uleb128 0x24
 4509 0015 00       		.byte	0
 4510 0016 0B       		.uleb128 0xb
 4511 0017 0B       		.uleb128 0xb
 4512 0018 3E       		.uleb128 0x3e
 4513 0019 0B       		.uleb128 0xb
 4514 001a 03       		.uleb128 0x3
 4515 001b 08       		.uleb128 0x8
 4516 001c 00       		.byte	0
 4517 001d 00       		.byte	0
 4518 001e 03       		.uleb128 0x3
 4519 001f 16       		.uleb128 0x16
 4520 0020 00       		.byte	0
 4521 0021 03       		.uleb128 0x3
 4522 0022 0E       		.uleb128 0xe
 4523 0023 3A       		.uleb128 0x3a
 4524 0024 0B       		.uleb128 0xb
 4525 0025 3B       		.uleb128 0x3b
 4526 0026 0B       		.uleb128 0xb
 4527 0027 49       		.uleb128 0x49
 4528 0028 13       		.uleb128 0x13
 4529 0029 00       		.byte	0
 4530 002a 00       		.byte	0
 4531 002b 04       		.uleb128 0x4
 4532 002c 24       		.uleb128 0x24
 4533 002d 00       		.byte	0
 4534 002e 0B       		.uleb128 0xb
 4535 002f 0B       		.uleb128 0xb
 4536 0030 3E       		.uleb128 0x3e
 4537 0031 0B       		.uleb128 0xb
 4538 0032 03       		.uleb128 0x3
 4539 0033 0E       		.uleb128 0xe
 4540 0034 00       		.byte	0
 4541 0035 00       		.byte	0
 4542 0036 05       		.uleb128 0x5
 4543 0037 35       		.uleb128 0x35
 4544 0038 00       		.byte	0
 4545 0039 49       		.uleb128 0x49
 4546 003a 13       		.uleb128 0x13
 4547 003b 00       		.byte	0
 4548 003c 00       		.byte	0
 4549 003d 06       		.uleb128 0x6
 4550 003e 13       		.uleb128 0x13
 4551 003f 01       		.byte	0x1
 4552 0040 03       		.uleb128 0x3
 4553 0041 0E       		.uleb128 0xe
 4554 0042 0B       		.uleb128 0xb
 4555 0043 0B       		.uleb128 0xb
 4556 0044 3A       		.uleb128 0x3a
 4557 0045 0B       		.uleb128 0xb
 4558 0046 3B       		.uleb128 0x3b
ARM GAS  C:\Users\Luis\AppData\Local\Temp\ccVuDqaU.s 			page 82


 4559 0047 0B       		.uleb128 0xb
 4560 0048 01       		.uleb128 0x1
 4561 0049 13       		.uleb128 0x13
 4562 004a 00       		.byte	0
 4563 004b 00       		.byte	0
 4564 004c 07       		.uleb128 0x7
 4565 004d 0D       		.uleb128 0xd
 4566 004e 00       		.byte	0
 4567 004f 03       		.uleb128 0x3
 4568 0050 0E       		.uleb128 0xe
 4569 0051 3A       		.uleb128 0x3a
 4570 0052 0B       		.uleb128 0xb
 4571 0053 3B       		.uleb128 0x3b
 4572 0054 0B       		.uleb128 0xb
 4573 0055 49       		.uleb128 0x49
 4574 0056 13       		.uleb128 0x13
 4575 0057 38       		.uleb128 0x38
 4576 0058 0B       		.uleb128 0xb
 4577 0059 00       		.byte	0
 4578 005a 00       		.byte	0
 4579 005b 08       		.uleb128 0x8
 4580 005c 0D       		.uleb128 0xd
 4581 005d 00       		.byte	0
 4582 005e 03       		.uleb128 0x3
 4583 005f 08       		.uleb128 0x8
 4584 0060 3A       		.uleb128 0x3a
 4585 0061 0B       		.uleb128 0xb
 4586 0062 3B       		.uleb128 0x3b
 4587 0063 05       		.uleb128 0x5
 4588 0064 49       		.uleb128 0x49
 4589 0065 13       		.uleb128 0x13
 4590 0066 38       		.uleb128 0x38
 4591 0067 0B       		.uleb128 0xb
 4592 0068 00       		.byte	0
 4593 0069 00       		.byte	0
 4594 006a 09       		.uleb128 0x9
 4595 006b 0D       		.uleb128 0xd
 4596 006c 00       		.byte	0
 4597 006d 03       		.uleb128 0x3
 4598 006e 0E       		.uleb128 0xe
 4599 006f 3A       		.uleb128 0x3a
 4600 0070 0B       		.uleb128 0xb
 4601 0071 3B       		.uleb128 0x3b
 4602 0072 05       		.uleb128 0x5
 4603 0073 49       		.uleb128 0x49
 4604 0074 13       		.uleb128 0x13
 4605 0075 38       		.uleb128 0x38
 4606 0076 0B       		.uleb128 0xb
 4607 0077 00       		.byte	0
 4608 0078 00       		.byte	0
 4609 0079 0A       		.uleb128 0xa
 4610 007a 0F       		.uleb128 0xf
 4611 007b 00       		.byte	0
 4612 007c 0B       		.uleb128 0xb
 4613 007d 0B       		.uleb128 0xb
 4614 007e 49       		.uleb128 0x49
 4615 007f 13       		.uleb128 0x13
ARM GAS  C:\Users\Luis\AppData\Local\Temp\ccVuDqaU.s 			page 83


 4616 0080 00       		.byte	0
 4617 0081 00       		.byte	0
 4618 0082 0B       		.uleb128 0xb
 4619 0083 13       		.uleb128 0x13
 4620 0084 01       		.byte	0x1
 4621 0085 03       		.uleb128 0x3
 4622 0086 0E       		.uleb128 0xe
 4623 0087 0B       		.uleb128 0xb
 4624 0088 0B       		.uleb128 0xb
 4625 0089 3A       		.uleb128 0x3a
 4626 008a 0B       		.uleb128 0xb
 4627 008b 3B       		.uleb128 0x3b
 4628 008c 05       		.uleb128 0x5
 4629 008d 01       		.uleb128 0x1
 4630 008e 13       		.uleb128 0x13
 4631 008f 00       		.byte	0
 4632 0090 00       		.byte	0
 4633 0091 0C       		.uleb128 0xc
 4634 0092 15       		.uleb128 0x15
 4635 0093 01       		.byte	0x1
 4636 0094 27       		.uleb128 0x27
 4637 0095 19       		.uleb128 0x19
 4638 0096 01       		.uleb128 0x1
 4639 0097 13       		.uleb128 0x13
 4640 0098 00       		.byte	0
 4641 0099 00       		.byte	0
 4642 009a 0D       		.uleb128 0xd
 4643 009b 05       		.uleb128 0x5
 4644 009c 00       		.byte	0
 4645 009d 49       		.uleb128 0x49
 4646 009e 13       		.uleb128 0x13
 4647 009f 00       		.byte	0
 4648 00a0 00       		.byte	0
 4649 00a1 0E       		.uleb128 0xe
 4650 00a2 0F       		.uleb128 0xf
 4651 00a3 00       		.byte	0
 4652 00a4 0B       		.uleb128 0xb
 4653 00a5 0B       		.uleb128 0xb
 4654 00a6 00       		.byte	0
 4655 00a7 00       		.byte	0
 4656 00a8 0F       		.uleb128 0xf
 4657 00a9 13       		.uleb128 0x13
 4658 00aa 01       		.byte	0x1
 4659 00ab 03       		.uleb128 0x3
 4660 00ac 0E       		.uleb128 0xe
 4661 00ad 0B       		.uleb128 0xb
 4662 00ae 05       		.uleb128 0x5
 4663 00af 3A       		.uleb128 0x3a
 4664 00b0 0B       		.uleb128 0xb
 4665 00b1 3B       		.uleb128 0x3b
 4666 00b2 05       		.uleb128 0x5
 4667 00b3 01       		.uleb128 0x1
 4668 00b4 13       		.uleb128 0x13
 4669 00b5 00       		.byte	0
 4670 00b6 00       		.byte	0
 4671 00b7 10       		.uleb128 0x10
 4672 00b8 0D       		.uleb128 0xd
ARM GAS  C:\Users\Luis\AppData\Local\Temp\ccVuDqaU.s 			page 84


 4673 00b9 00       		.byte	0
 4674 00ba 03       		.uleb128 0x3
 4675 00bb 0E       		.uleb128 0xe
 4676 00bc 3A       		.uleb128 0x3a
 4677 00bd 0B       		.uleb128 0xb
 4678 00be 3B       		.uleb128 0x3b
 4679 00bf 05       		.uleb128 0x5
 4680 00c0 49       		.uleb128 0x49
 4681 00c1 13       		.uleb128 0x13
 4682 00c2 38       		.uleb128 0x38
 4683 00c3 05       		.uleb128 0x5
 4684 00c4 00       		.byte	0
 4685 00c5 00       		.byte	0
 4686 00c6 11       		.uleb128 0x11
 4687 00c7 0D       		.uleb128 0xd
 4688 00c8 00       		.byte	0
 4689 00c9 03       		.uleb128 0x3
 4690 00ca 08       		.uleb128 0x8
 4691 00cb 3A       		.uleb128 0x3a
 4692 00cc 0B       		.uleb128 0xb
 4693 00cd 3B       		.uleb128 0x3b
 4694 00ce 05       		.uleb128 0x5
 4695 00cf 49       		.uleb128 0x49
 4696 00d0 13       		.uleb128 0x13
 4697 00d1 38       		.uleb128 0x38
 4698 00d2 05       		.uleb128 0x5
 4699 00d3 00       		.byte	0
 4700 00d4 00       		.byte	0
 4701 00d5 12       		.uleb128 0x12
 4702 00d6 0D       		.uleb128 0xd
 4703 00d7 00       		.byte	0
 4704 00d8 03       		.uleb128 0x3
 4705 00d9 08       		.uleb128 0x8
 4706 00da 3A       		.uleb128 0x3a
 4707 00db 0B       		.uleb128 0xb
 4708 00dc 3B       		.uleb128 0x3b
 4709 00dd 0B       		.uleb128 0xb
 4710 00de 49       		.uleb128 0x49
 4711 00df 13       		.uleb128 0x13
 4712 00e0 38       		.uleb128 0x38
 4713 00e1 0B       		.uleb128 0xb
 4714 00e2 00       		.byte	0
 4715 00e3 00       		.byte	0
 4716 00e4 13       		.uleb128 0x13
 4717 00e5 13       		.uleb128 0x13
 4718 00e6 01       		.byte	0x1
 4719 00e7 0B       		.uleb128 0xb
 4720 00e8 0B       		.uleb128 0xb
 4721 00e9 3A       		.uleb128 0x3a
 4722 00ea 0B       		.uleb128 0xb
 4723 00eb 3B       		.uleb128 0x3b
 4724 00ec 0B       		.uleb128 0xb
 4725 00ed 01       		.uleb128 0x1
 4726 00ee 13       		.uleb128 0x13
 4727 00ef 00       		.byte	0
 4728 00f0 00       		.byte	0
 4729 00f1 14       		.uleb128 0x14
ARM GAS  C:\Users\Luis\AppData\Local\Temp\ccVuDqaU.s 			page 85


 4730 00f2 13       		.uleb128 0x13
 4731 00f3 01       		.byte	0x1
 4732 00f4 0B       		.uleb128 0xb
 4733 00f5 05       		.uleb128 0x5
 4734 00f6 3A       		.uleb128 0x3a
 4735 00f7 0B       		.uleb128 0xb
 4736 00f8 3B       		.uleb128 0x3b
 4737 00f9 0B       		.uleb128 0xb
 4738 00fa 01       		.uleb128 0x1
 4739 00fb 13       		.uleb128 0x13
 4740 00fc 00       		.byte	0
 4741 00fd 00       		.byte	0
 4742 00fe 15       		.uleb128 0x15
 4743 00ff 01       		.uleb128 0x1
 4744 0100 01       		.byte	0x1
 4745 0101 49       		.uleb128 0x49
 4746 0102 13       		.uleb128 0x13
 4747 0103 01       		.uleb128 0x1
 4748 0104 13       		.uleb128 0x13
 4749 0105 00       		.byte	0
 4750 0106 00       		.byte	0
 4751 0107 16       		.uleb128 0x16
 4752 0108 21       		.uleb128 0x21
 4753 0109 00       		.byte	0
 4754 010a 49       		.uleb128 0x49
 4755 010b 13       		.uleb128 0x13
 4756 010c 2F       		.uleb128 0x2f
 4757 010d 0B       		.uleb128 0xb
 4758 010e 00       		.byte	0
 4759 010f 00       		.byte	0
 4760 0110 17       		.uleb128 0x17
 4761 0111 17       		.uleb128 0x17
 4762 0112 01       		.byte	0x1
 4763 0113 0B       		.uleb128 0xb
 4764 0114 0B       		.uleb128 0xb
 4765 0115 3A       		.uleb128 0x3a
 4766 0116 0B       		.uleb128 0xb
 4767 0117 3B       		.uleb128 0x3b
 4768 0118 0B       		.uleb128 0xb
 4769 0119 01       		.uleb128 0x1
 4770 011a 13       		.uleb128 0x13
 4771 011b 00       		.byte	0
 4772 011c 00       		.byte	0
 4773 011d 18       		.uleb128 0x18
 4774 011e 0D       		.uleb128 0xd
 4775 011f 00       		.byte	0
 4776 0120 03       		.uleb128 0x3
 4777 0121 0E       		.uleb128 0xe
 4778 0122 3A       		.uleb128 0x3a
 4779 0123 0B       		.uleb128 0xb
 4780 0124 3B       		.uleb128 0x3b
 4781 0125 05       		.uleb128 0x5
 4782 0126 49       		.uleb128 0x49
 4783 0127 13       		.uleb128 0x13
 4784 0128 00       		.byte	0
 4785 0129 00       		.byte	0
 4786 012a 19       		.uleb128 0x19
ARM GAS  C:\Users\Luis\AppData\Local\Temp\ccVuDqaU.s 			page 86


 4787 012b 26       		.uleb128 0x26
 4788 012c 00       		.byte	0
 4789 012d 49       		.uleb128 0x49
 4790 012e 13       		.uleb128 0x13
 4791 012f 00       		.byte	0
 4792 0130 00       		.byte	0
 4793 0131 1A       		.uleb128 0x1a
 4794 0132 04       		.uleb128 0x4
 4795 0133 01       		.byte	0x1
 4796 0134 0B       		.uleb128 0xb
 4797 0135 0B       		.uleb128 0xb
 4798 0136 3A       		.uleb128 0x3a
 4799 0137 0B       		.uleb128 0xb
 4800 0138 3B       		.uleb128 0x3b
 4801 0139 0B       		.uleb128 0xb
 4802 013a 01       		.uleb128 0x1
 4803 013b 13       		.uleb128 0x13
 4804 013c 00       		.byte	0
 4805 013d 00       		.byte	0
 4806 013e 1B       		.uleb128 0x1b
 4807 013f 28       		.uleb128 0x28
 4808 0140 00       		.byte	0
 4809 0141 03       		.uleb128 0x3
 4810 0142 0E       		.uleb128 0xe
 4811 0143 1C       		.uleb128 0x1c
 4812 0144 0D       		.uleb128 0xd
 4813 0145 00       		.byte	0
 4814 0146 00       		.byte	0
 4815 0147 1C       		.uleb128 0x1c
 4816 0148 15       		.uleb128 0x15
 4817 0149 01       		.byte	0x1
 4818 014a 27       		.uleb128 0x27
 4819 014b 19       		.uleb128 0x19
 4820 014c 49       		.uleb128 0x49
 4821 014d 13       		.uleb128 0x13
 4822 014e 01       		.uleb128 0x1
 4823 014f 13       		.uleb128 0x13
 4824 0150 00       		.byte	0
 4825 0151 00       		.byte	0
 4826 0152 1D       		.uleb128 0x1d
 4827 0153 13       		.uleb128 0x13
 4828 0154 01       		.byte	0x1
 4829 0155 03       		.uleb128 0x3
 4830 0156 0E       		.uleb128 0xe
 4831 0157 0B       		.uleb128 0xb
 4832 0158 05       		.uleb128 0x5
 4833 0159 3A       		.uleb128 0x3a
 4834 015a 0B       		.uleb128 0xb
 4835 015b 3B       		.uleb128 0x3b
 4836 015c 0B       		.uleb128 0xb
 4837 015d 01       		.uleb128 0x1
 4838 015e 13       		.uleb128 0x13
 4839 015f 00       		.byte	0
 4840 0160 00       		.byte	0
 4841 0161 1E       		.uleb128 0x1e
 4842 0162 0D       		.uleb128 0xd
 4843 0163 00       		.byte	0
ARM GAS  C:\Users\Luis\AppData\Local\Temp\ccVuDqaU.s 			page 87


 4844 0164 03       		.uleb128 0x3
 4845 0165 08       		.uleb128 0x8
 4846 0166 3A       		.uleb128 0x3a
 4847 0167 0B       		.uleb128 0xb
 4848 0168 3B       		.uleb128 0x3b
 4849 0169 0B       		.uleb128 0xb
 4850 016a 49       		.uleb128 0x49
 4851 016b 13       		.uleb128 0x13
 4852 016c 38       		.uleb128 0x38
 4853 016d 05       		.uleb128 0x5
 4854 016e 00       		.byte	0
 4855 016f 00       		.byte	0
 4856 0170 1F       		.uleb128 0x1f
 4857 0171 04       		.uleb128 0x4
 4858 0172 01       		.byte	0x1
 4859 0173 03       		.uleb128 0x3
 4860 0174 0E       		.uleb128 0xe
 4861 0175 0B       		.uleb128 0xb
 4862 0176 0B       		.uleb128 0xb
 4863 0177 3A       		.uleb128 0x3a
 4864 0178 0B       		.uleb128 0xb
 4865 0179 3B       		.uleb128 0x3b
 4866 017a 0B       		.uleb128 0xb
 4867 017b 01       		.uleb128 0x1
 4868 017c 13       		.uleb128 0x13
 4869 017d 00       		.byte	0
 4870 017e 00       		.byte	0
 4871 017f 20       		.uleb128 0x20
 4872 0180 2E       		.uleb128 0x2e
 4873 0181 01       		.byte	0x1
 4874 0182 03       		.uleb128 0x3
 4875 0183 0E       		.uleb128 0xe
 4876 0184 3A       		.uleb128 0x3a
 4877 0185 0B       		.uleb128 0xb
 4878 0186 3B       		.uleb128 0x3b
 4879 0187 05       		.uleb128 0x5
 4880 0188 27       		.uleb128 0x27
 4881 0189 19       		.uleb128 0x19
 4882 018a 11       		.uleb128 0x11
 4883 018b 01       		.uleb128 0x1
 4884 018c 12       		.uleb128 0x12
 4885 018d 06       		.uleb128 0x6
 4886 018e 40       		.uleb128 0x40
 4887 018f 18       		.uleb128 0x18
 4888 0190 9642     		.uleb128 0x2116
 4889 0192 19       		.uleb128 0x19
 4890 0193 01       		.uleb128 0x1
 4891 0194 13       		.uleb128 0x13
 4892 0195 00       		.byte	0
 4893 0196 00       		.byte	0
 4894 0197 21       		.uleb128 0x21
 4895 0198 05       		.uleb128 0x5
 4896 0199 00       		.byte	0
 4897 019a 03       		.uleb128 0x3
 4898 019b 0E       		.uleb128 0xe
 4899 019c 3A       		.uleb128 0x3a
 4900 019d 0B       		.uleb128 0xb
ARM GAS  C:\Users\Luis\AppData\Local\Temp\ccVuDqaU.s 			page 88


 4901 019e 3B       		.uleb128 0x3b
 4902 019f 05       		.uleb128 0x5
 4903 01a0 49       		.uleb128 0x49
 4904 01a1 13       		.uleb128 0x13
 4905 01a2 02       		.uleb128 0x2
 4906 01a3 18       		.uleb128 0x18
 4907 01a4 00       		.byte	0
 4908 01a5 00       		.byte	0
 4909 01a6 22       		.uleb128 0x22
 4910 01a7 2E       		.uleb128 0x2e
 4911 01a8 01       		.byte	0x1
 4912 01a9 3F       		.uleb128 0x3f
 4913 01aa 19       		.uleb128 0x19
 4914 01ab 03       		.uleb128 0x3
 4915 01ac 0E       		.uleb128 0xe
 4916 01ad 3A       		.uleb128 0x3a
 4917 01ae 0B       		.uleb128 0xb
 4918 01af 3B       		.uleb128 0x3b
 4919 01b0 0B       		.uleb128 0xb
 4920 01b1 27       		.uleb128 0x27
 4921 01b2 19       		.uleb128 0x19
 4922 01b3 11       		.uleb128 0x11
 4923 01b4 01       		.uleb128 0x1
 4924 01b5 12       		.uleb128 0x12
 4925 01b6 06       		.uleb128 0x6
 4926 01b7 40       		.uleb128 0x40
 4927 01b8 18       		.uleb128 0x18
 4928 01b9 9642     		.uleb128 0x2116
 4929 01bb 19       		.uleb128 0x19
 4930 01bc 01       		.uleb128 0x1
 4931 01bd 13       		.uleb128 0x13
 4932 01be 00       		.byte	0
 4933 01bf 00       		.byte	0
 4934 01c0 23       		.uleb128 0x23
 4935 01c1 34       		.uleb128 0x34
 4936 01c2 00       		.byte	0
 4937 01c3 03       		.uleb128 0x3
 4938 01c4 08       		.uleb128 0x8
 4939 01c5 3A       		.uleb128 0x3a
 4940 01c6 0B       		.uleb128 0xb
 4941 01c7 3B       		.uleb128 0x3b
 4942 01c8 0B       		.uleb128 0xb
 4943 01c9 49       		.uleb128 0x49
 4944 01ca 13       		.uleb128 0x13
 4945 01cb 02       		.uleb128 0x2
 4946 01cc 18       		.uleb128 0x18
 4947 01cd 00       		.byte	0
 4948 01ce 00       		.byte	0
 4949 01cf 24       		.uleb128 0x24
 4950 01d0 34       		.uleb128 0x34
 4951 01d1 00       		.byte	0
 4952 01d2 03       		.uleb128 0x3
 4953 01d3 0E       		.uleb128 0xe
 4954 01d4 3A       		.uleb128 0x3a
 4955 01d5 0B       		.uleb128 0xb
 4956 01d6 3B       		.uleb128 0x3b
 4957 01d7 0B       		.uleb128 0xb
ARM GAS  C:\Users\Luis\AppData\Local\Temp\ccVuDqaU.s 			page 89


 4958 01d8 49       		.uleb128 0x49
 4959 01d9 13       		.uleb128 0x13
 4960 01da 02       		.uleb128 0x2
 4961 01db 18       		.uleb128 0x18
 4962 01dc 00       		.byte	0
 4963 01dd 00       		.byte	0
 4964 01de 25       		.uleb128 0x25
 4965 01df 0B       		.uleb128 0xb
 4966 01e0 01       		.byte	0x1
 4967 01e1 11       		.uleb128 0x11
 4968 01e2 01       		.uleb128 0x1
 4969 01e3 12       		.uleb128 0x12
 4970 01e4 06       		.uleb128 0x6
 4971 01e5 00       		.byte	0
 4972 01e6 00       		.byte	0
 4973 01e7 26       		.uleb128 0x26
 4974 01e8 2E       		.uleb128 0x2e
 4975 01e9 01       		.byte	0x1
 4976 01ea 03       		.uleb128 0x3
 4977 01eb 0E       		.uleb128 0xe
 4978 01ec 3A       		.uleb128 0x3a
 4979 01ed 0B       		.uleb128 0xb
 4980 01ee 3B       		.uleb128 0x3b
 4981 01ef 0B       		.uleb128 0xb
 4982 01f0 27       		.uleb128 0x27
 4983 01f1 19       		.uleb128 0x19
 4984 01f2 49       		.uleb128 0x49
 4985 01f3 13       		.uleb128 0x13
 4986 01f4 11       		.uleb128 0x11
 4987 01f5 01       		.uleb128 0x1
 4988 01f6 12       		.uleb128 0x12
 4989 01f7 06       		.uleb128 0x6
 4990 01f8 40       		.uleb128 0x40
 4991 01f9 18       		.uleb128 0x18
 4992 01fa 9642     		.uleb128 0x2116
 4993 01fc 19       		.uleb128 0x19
 4994 01fd 01       		.uleb128 0x1
 4995 01fe 13       		.uleb128 0x13
 4996 01ff 00       		.byte	0
 4997 0200 00       		.byte	0
 4998 0201 27       		.uleb128 0x27
 4999 0202 05       		.uleb128 0x5
 5000 0203 00       		.byte	0
 5001 0204 03       		.uleb128 0x3
 5002 0205 08       		.uleb128 0x8
 5003 0206 3A       		.uleb128 0x3a
 5004 0207 0B       		.uleb128 0xb
 5005 0208 3B       		.uleb128 0x3b
 5006 0209 0B       		.uleb128 0xb
 5007 020a 49       		.uleb128 0x49
 5008 020b 13       		.uleb128 0x13
 5009 020c 02       		.uleb128 0x2
 5010 020d 18       		.uleb128 0x18
 5011 020e 00       		.byte	0
 5012 020f 00       		.byte	0
 5013 0210 28       		.uleb128 0x28
 5014 0211 05       		.uleb128 0x5
ARM GAS  C:\Users\Luis\AppData\Local\Temp\ccVuDqaU.s 			page 90


 5015 0212 00       		.byte	0
 5016 0213 03       		.uleb128 0x3
 5017 0214 0E       		.uleb128 0xe
 5018 0215 3A       		.uleb128 0x3a
 5019 0216 0B       		.uleb128 0xb
 5020 0217 3B       		.uleb128 0x3b
 5021 0218 0B       		.uleb128 0xb
 5022 0219 49       		.uleb128 0x49
 5023 021a 13       		.uleb128 0x13
 5024 021b 02       		.uleb128 0x2
 5025 021c 18       		.uleb128 0x18
 5026 021d 00       		.byte	0
 5027 021e 00       		.byte	0
 5028 021f 29       		.uleb128 0x29
 5029 0220 2E       		.uleb128 0x2e
 5030 0221 01       		.byte	0x1
 5031 0222 03       		.uleb128 0x3
 5032 0223 0E       		.uleb128 0xe
 5033 0224 3A       		.uleb128 0x3a
 5034 0225 0B       		.uleb128 0xb
 5035 0226 3B       		.uleb128 0x3b
 5036 0227 05       		.uleb128 0x5
 5037 0228 27       		.uleb128 0x27
 5038 0229 19       		.uleb128 0x19
 5039 022a 49       		.uleb128 0x49
 5040 022b 13       		.uleb128 0x13
 5041 022c 11       		.uleb128 0x11
 5042 022d 01       		.uleb128 0x1
 5043 022e 12       		.uleb128 0x12
 5044 022f 06       		.uleb128 0x6
 5045 0230 40       		.uleb128 0x40
 5046 0231 18       		.uleb128 0x18
 5047 0232 9642     		.uleb128 0x2116
 5048 0234 19       		.uleb128 0x19
 5049 0235 01       		.uleb128 0x1
 5050 0236 13       		.uleb128 0x13
 5051 0237 00       		.byte	0
 5052 0238 00       		.byte	0
 5053 0239 2A       		.uleb128 0x2a
 5054 023a 34       		.uleb128 0x34
 5055 023b 00       		.byte	0
 5056 023c 03       		.uleb128 0x3
 5057 023d 08       		.uleb128 0x8
 5058 023e 3A       		.uleb128 0x3a
 5059 023f 0B       		.uleb128 0xb
 5060 0240 3B       		.uleb128 0x3b
 5061 0241 05       		.uleb128 0x5
 5062 0242 49       		.uleb128 0x49
 5063 0243 13       		.uleb128 0x13
 5064 0244 02       		.uleb128 0x2
 5065 0245 18       		.uleb128 0x18
 5066 0246 00       		.byte	0
 5067 0247 00       		.byte	0
 5068 0248 2B       		.uleb128 0x2b
 5069 0249 05       		.uleb128 0x5
 5070 024a 00       		.byte	0
 5071 024b 03       		.uleb128 0x3
ARM GAS  C:\Users\Luis\AppData\Local\Temp\ccVuDqaU.s 			page 91


 5072 024c 08       		.uleb128 0x8
 5073 024d 3A       		.uleb128 0x3a
 5074 024e 0B       		.uleb128 0xb
 5075 024f 3B       		.uleb128 0x3b
 5076 0250 05       		.uleb128 0x5
 5077 0251 49       		.uleb128 0x49
 5078 0252 13       		.uleb128 0x13
 5079 0253 02       		.uleb128 0x2
 5080 0254 18       		.uleb128 0x18
 5081 0255 00       		.byte	0
 5082 0256 00       		.byte	0
 5083 0257 2C       		.uleb128 0x2c
 5084 0258 34       		.uleb128 0x34
 5085 0259 00       		.byte	0
 5086 025a 03       		.uleb128 0x3
 5087 025b 0E       		.uleb128 0xe
 5088 025c 3A       		.uleb128 0x3a
 5089 025d 0B       		.uleb128 0xb
 5090 025e 3B       		.uleb128 0x3b
 5091 025f 05       		.uleb128 0x5
 5092 0260 49       		.uleb128 0x49
 5093 0261 13       		.uleb128 0x13
 5094 0262 02       		.uleb128 0x2
 5095 0263 18       		.uleb128 0x18
 5096 0264 00       		.byte	0
 5097 0265 00       		.byte	0
 5098 0266 2D       		.uleb128 0x2d
 5099 0267 0A       		.uleb128 0xa
 5100 0268 00       		.byte	0
 5101 0269 03       		.uleb128 0x3
 5102 026a 0E       		.uleb128 0xe
 5103 026b 3A       		.uleb128 0x3a
 5104 026c 0B       		.uleb128 0xb
 5105 026d 3B       		.uleb128 0x3b
 5106 026e 05       		.uleb128 0x5
 5107 026f 11       		.uleb128 0x11
 5108 0270 01       		.uleb128 0x1
 5109 0271 00       		.byte	0
 5110 0272 00       		.byte	0
 5111 0273 2E       		.uleb128 0x2e
 5112 0274 2E       		.uleb128 0x2e
 5113 0275 01       		.byte	0x1
 5114 0276 3F       		.uleb128 0x3f
 5115 0277 19       		.uleb128 0x19
 5116 0278 03       		.uleb128 0x3
 5117 0279 0E       		.uleb128 0xe
 5118 027a 3A       		.uleb128 0x3a
 5119 027b 0B       		.uleb128 0xb
 5120 027c 3B       		.uleb128 0x3b
 5121 027d 05       		.uleb128 0x5
 5122 027e 27       		.uleb128 0x27
 5123 027f 19       		.uleb128 0x19
 5124 0280 49       		.uleb128 0x49
 5125 0281 13       		.uleb128 0x13
 5126 0282 11       		.uleb128 0x11
 5127 0283 01       		.uleb128 0x1
 5128 0284 12       		.uleb128 0x12
ARM GAS  C:\Users\Luis\AppData\Local\Temp\ccVuDqaU.s 			page 92


 5129 0285 06       		.uleb128 0x6
 5130 0286 40       		.uleb128 0x40
 5131 0287 18       		.uleb128 0x18
 5132 0288 9642     		.uleb128 0x2116
 5133 028a 19       		.uleb128 0x19
 5134 028b 01       		.uleb128 0x1
 5135 028c 13       		.uleb128 0x13
 5136 028d 00       		.byte	0
 5137 028e 00       		.byte	0
 5138 028f 2F       		.uleb128 0x2f
 5139 0290 2E       		.uleb128 0x2e
 5140 0291 00       		.byte	0
 5141 0292 03       		.uleb128 0x3
 5142 0293 0E       		.uleb128 0xe
 5143 0294 3A       		.uleb128 0x3a
 5144 0295 0B       		.uleb128 0xb
 5145 0296 3B       		.uleb128 0x3b
 5146 0297 05       		.uleb128 0x5
 5147 0298 27       		.uleb128 0x27
 5148 0299 19       		.uleb128 0x19
 5149 029a 49       		.uleb128 0x49
 5150 029b 13       		.uleb128 0x13
 5151 029c 11       		.uleb128 0x11
 5152 029d 01       		.uleb128 0x1
 5153 029e 12       		.uleb128 0x12
 5154 029f 06       		.uleb128 0x6
 5155 02a0 40       		.uleb128 0x40
 5156 02a1 18       		.uleb128 0x18
 5157 02a2 9642     		.uleb128 0x2116
 5158 02a4 19       		.uleb128 0x19
 5159 02a5 00       		.byte	0
 5160 02a6 00       		.byte	0
 5161 02a7 30       		.uleb128 0x30
 5162 02a8 34       		.uleb128 0x34
 5163 02a9 00       		.byte	0
 5164 02aa 03       		.uleb128 0x3
 5165 02ab 0E       		.uleb128 0xe
 5166 02ac 3A       		.uleb128 0x3a
 5167 02ad 0B       		.uleb128 0xb
 5168 02ae 3B       		.uleb128 0x3b
 5169 02af 05       		.uleb128 0x5
 5170 02b0 49       		.uleb128 0x49
 5171 02b1 13       		.uleb128 0x13
 5172 02b2 3F       		.uleb128 0x3f
 5173 02b3 19       		.uleb128 0x19
 5174 02b4 3C       		.uleb128 0x3c
 5175 02b5 19       		.uleb128 0x19
 5176 02b6 00       		.byte	0
 5177 02b7 00       		.byte	0
 5178 02b8 31       		.uleb128 0x31
 5179 02b9 34       		.uleb128 0x34
 5180 02ba 00       		.byte	0
 5181 02bb 03       		.uleb128 0x3
 5182 02bc 08       		.uleb128 0x8
 5183 02bd 3A       		.uleb128 0x3a
 5184 02be 0B       		.uleb128 0xb
 5185 02bf 3B       		.uleb128 0x3b
ARM GAS  C:\Users\Luis\AppData\Local\Temp\ccVuDqaU.s 			page 93


 5186 02c0 05       		.uleb128 0x5
 5187 02c1 49       		.uleb128 0x49
 5188 02c2 13       		.uleb128 0x13
 5189 02c3 3F       		.uleb128 0x3f
 5190 02c4 19       		.uleb128 0x19
 5191 02c5 3C       		.uleb128 0x3c
 5192 02c6 19       		.uleb128 0x19
 5193 02c7 00       		.byte	0
 5194 02c8 00       		.byte	0
 5195 02c9 32       		.uleb128 0x32
 5196 02ca 34       		.uleb128 0x34
 5197 02cb 00       		.byte	0
 5198 02cc 03       		.uleb128 0x3
 5199 02cd 0E       		.uleb128 0xe
 5200 02ce 3A       		.uleb128 0x3a
 5201 02cf 0B       		.uleb128 0xb
 5202 02d0 3B       		.uleb128 0x3b
 5203 02d1 0B       		.uleb128 0xb
 5204 02d2 49       		.uleb128 0x49
 5205 02d3 13       		.uleb128 0x13
 5206 02d4 3F       		.uleb128 0x3f
 5207 02d5 19       		.uleb128 0x19
 5208 02d6 3C       		.uleb128 0x3c
 5209 02d7 19       		.uleb128 0x19
 5210 02d8 00       		.byte	0
 5211 02d9 00       		.byte	0
 5212 02da 00       		.byte	0
 5213              		.section	.debug_aranges,"",%progbits
 5214 0000 74000000 		.4byte	0x74
 5215 0004 0200     		.2byte	0x2
 5216 0006 00000000 		.4byte	.Ldebug_info0
 5217 000a 04       		.byte	0x4
 5218 000b 00       		.byte	0
 5219 000c 0000     		.2byte	0
 5220 000e 0000     		.2byte	0
 5221 0010 00000000 		.4byte	.LFB230
 5222 0014 14000000 		.4byte	.LFE230-.LFB230
 5223 0018 00000000 		.4byte	.LFB260
 5224 001c 54000000 		.4byte	.LFE260-.LFB260
 5225 0020 00000000 		.4byte	.LFB261
 5226 0024 28010000 		.4byte	.LFE261-.LFB261
 5227 0028 00000000 		.4byte	.LFB262
 5228 002c B8000000 		.4byte	.LFE262-.LFB262
 5229 0030 00000000 		.4byte	.LFB263
 5230 0034 84000000 		.4byte	.LFE263-.LFB263
 5231 0038 00000000 		.4byte	.LFB264
 5232 003c 48000000 		.4byte	.LFE264-.LFB264
 5233 0040 00000000 		.4byte	.LFB265
 5234 0044 6C020000 		.4byte	.LFE265-.LFB265
 5235 0048 00000000 		.4byte	.LFB266
 5236 004c 84020000 		.4byte	.LFE266-.LFB266
 5237 0050 00000000 		.4byte	.LFB267
 5238 0054 10000000 		.4byte	.LFE267-.LFB267
 5239 0058 00000000 		.4byte	.LFB268
 5240 005c 28000000 		.4byte	.LFE268-.LFB268
 5241 0060 00000000 		.4byte	.LFB269
 5242 0064 4C000000 		.4byte	.LFE269-.LFB269
ARM GAS  C:\Users\Luis\AppData\Local\Temp\ccVuDqaU.s 			page 94


 5243 0068 00000000 		.4byte	.LFB270
 5244 006c 1C020000 		.4byte	.LFE270-.LFB270
 5245 0070 00000000 		.4byte	0
 5246 0074 00000000 		.4byte	0
 5247              		.section	.debug_ranges,"",%progbits
 5248              	.Ldebug_ranges0:
 5249 0000 00000000 		.4byte	.LFB230
 5250 0004 14000000 		.4byte	.LFE230
 5251 0008 00000000 		.4byte	.LFB260
 5252 000c 54000000 		.4byte	.LFE260
 5253 0010 00000000 		.4byte	.LFB261
 5254 0014 28010000 		.4byte	.LFE261
 5255 0018 00000000 		.4byte	.LFB262
 5256 001c B8000000 		.4byte	.LFE262
 5257 0020 00000000 		.4byte	.LFB263
 5258 0024 84000000 		.4byte	.LFE263
 5259 0028 00000000 		.4byte	.LFB264
 5260 002c 48000000 		.4byte	.LFE264
 5261 0030 00000000 		.4byte	.LFB265
 5262 0034 6C020000 		.4byte	.LFE265
 5263 0038 00000000 		.4byte	.LFB266
 5264 003c 84020000 		.4byte	.LFE266
 5265 0040 00000000 		.4byte	.LFB267
 5266 0044 10000000 		.4byte	.LFE267
 5267 0048 00000000 		.4byte	.LFB268
 5268 004c 28000000 		.4byte	.LFE268
 5269 0050 00000000 		.4byte	.LFB269
 5270 0054 4C000000 		.4byte	.LFE269
 5271 0058 00000000 		.4byte	.LFB270
 5272 005c 1C020000 		.4byte	.LFE270
 5273 0060 00000000 		.4byte	0
 5274 0064 00000000 		.4byte	0
 5275              		.section	.debug_line,"",%progbits
 5276              	.Ldebug_line0:
 5277 0000 EC050000 		.section	.debug_str,"MS",%progbits,1
 5277      0200EF02 
 5277      00000201 
 5277      FB0E0D00 
 5277      01010101 
 5278              	.LASF260:
 5279 0000 706F6666 		.ascii	"poff\000"
 5279      00
 5280              	.LASF52:
 5281 0005 74687265 		.ascii	"threads_queue_t\000"
 5281      6164735F 
 5281      71756575 
 5281      655F7400 
 5282              	.LASF234:
 5283 0015 70637572 		.ascii	"pcur\000"
 5283      00
 5284              	.LASF199:
 5285 001a 73746174 		.ascii	"stats_proto\000"
 5285      735F7072 
 5285      6F746F00 
 5286              	.LASF117:
 5287 0026 77746D74 		.ascii	"wtmtxp\000"
 5287      787000
ARM GAS  C:\Users\Luis\AppData\Local\Temp\ccVuDqaU.s 			page 95


 5288              	.LASF258:
 5289 002d 6F726967 		.ascii	"original_iphdr\000"
 5289      696E616C 
 5289      5F697068 
 5289      647200
 5290              	.LASF187:
 5291 003c 4D454D50 		.ascii	"MEMP_TCP_PCB_LISTEN\000"
 5291      5F544350 
 5291      5F504342 
 5291      5F4C4953 
 5291      54454E00 
 5292              	.LASF126:
 5293 0050 63686172 		.ascii	"char\000"
 5293      00
 5294              	.LASF159:
 5295 0055 6F757470 		.ascii	"output\000"
 5295      757400
 5296              	.LASF30:
 5297 005c 705F7072 		.ascii	"p_prio\000"
 5297      696F00
 5298              	.LASF138:
 5299 0063 50425546 		.ascii	"PBUF_RAM\000"
 5299      5F52414D 
 5299      00
 5300              	.LASF137:
 5301 006c 50425546 		.ascii	"PBUF_RAW\000"
 5301      5F524157 
 5301      00
 5302              	.LASF147:
 5303 0075 666C6167 		.ascii	"flags\000"
 5303      7300
 5304              	.LASF26:
 5305 007b 73797374 		.ascii	"systime_t\000"
 5305      696D655F 
 5305      7400
 5306              	.LASF124:
 5307 0085 6D5F6F77 		.ascii	"m_owner\000"
 5307      6E657200 
 5308              	.LASF120:
 5309 008d 735F7175 		.ascii	"s_queue\000"
 5309      65756500 
 5310              	.LASF40:
 5311 0095 705F6D73 		.ascii	"p_msgqueue\000"
 5311      67717565 
 5311      756500
 5312              	.LASF236:
 5313 00a0 69705F72 		.ascii	"ip_reass_remove_oldest_datagram\000"
 5313      65617373 
 5313      5F72656D 
 5313      6F76655F 
 5313      6F6C6465 
 5314              	.LASF0:
 5315 00c0 756E7369 		.ascii	"unsigned int\000"
 5315      676E6564 
 5315      20696E74 
 5315      00
 5316              	.LASF143:
ARM GAS  C:\Users\Luis\AppData\Local\Temp\ccVuDqaU.s 			page 96


 5317 00cd 6E657874 		.ascii	"next\000"
 5317      00
 5318              	.LASF252:
 5319 00d2 6E756C6C 		.ascii	"nullreturn\000"
 5319      72657475 
 5319      726E00
 5320              	.LASF110:
 5321 00dd 6D5F6372 		.ascii	"m_crit_isr\000"
 5321      69745F69 
 5321      737200
 5322              	.LASF49:
 5323 00e8 74687265 		.ascii	"threads_list_t\000"
 5323      6164735F 
 5323      6C697374 
 5323      5F7400
 5324              	.LASF133:
 5325 00f7 6572725F 		.ascii	"err_t\000"
 5325      7400
 5326              	.LASF105:
 5327 00fd 63756D75 		.ascii	"cumulative\000"
 5327      6C617469 
 5327      766500
 5328              	.LASF39:
 5329 0108 705F7761 		.ascii	"p_waiting\000"
 5329      6974696E 
 5329      6700
 5330              	.LASF94:
 5331 0112 73655F73 		.ascii	"se_state\000"
 5331      74617465 
 5331      00
 5332              	.LASF229:
 5333 011b 70726576 		.ascii	"prev\000"
 5333      00
 5334              	.LASF131:
 5335 0120 7531365F 		.ascii	"u16_t\000"
 5335      7400
 5336              	.LASF173:
 5337 0126 5F74746C 		.ascii	"_ttl\000"
 5337      00
 5338              	.LASF149:
 5339 012b 70627566 		.ascii	"pbuf_custom\000"
 5339      5F637573 
 5339      746F6D00 
 5340              	.LASF267:
 5341 0137 474E5520 		.ascii	"GNU C 4.8.3 20131129 (release) [ARM/embedded-4_8-br"
 5341      4320342E 
 5341      382E3320 
 5341      32303133 
 5341      31313239 
 5342 016a 616E6368 		.ascii	"anch revision 205641] -mcpu=cortex-m4 -mapcs-frame "
 5342      20726576 
 5342      6973696F 
 5342      6E203230 
 5342      35363431 
 5343 019d 2D6D6E6F 		.ascii	"-mno-thumb-interwork -mthumb -ggdb -O0 -falign-func"
 5343      2D746875 
 5343      6D622D69 
ARM GAS  C:\Users\Luis\AppData\Local\Temp\ccVuDqaU.s 			page 97


 5343      6E746572 
 5343      776F726B 
 5344 01d0 74696F6E 		.ascii	"tions=16 -ffunction-sections -fdata-sections -fno-c"
 5344      733D3136 
 5344      202D6666 
 5344      756E6374 
 5344      696F6E2D 
 5345 0203 6F6D6D6F 		.ascii	"ommon\000"
 5345      6E00
 5346              	.LASF219:
 5347 0209 6C696E6B 		.ascii	"link\000"
 5347      00
 5348              	.LASF82:
 5349 020e 76746C69 		.ascii	"vtlist\000"
 5349      737400
 5350              	.LASF55:
 5351 0215 63685F72 		.ascii	"ch_ready_list\000"
 5351      65616479 
 5351      5F6C6973 
 5351      7400
 5352              	.LASF85:
 5353 0223 69646C65 		.ascii	"idle_thread_wa\000"
 5353      5F746872 
 5353      6561645F 
 5353      776100
 5354              	.LASF210:
 5355 0232 73746174 		.ascii	"stats_mem\000"
 5355      735F6D65 
 5355      6D00
 5356              	.LASF118:
 5357 023c 65776D61 		.ascii	"ewmask\000"
 5357      736B00
 5358              	.LASF166:
 5359 0243 6E657469 		.ascii	"netif_output_fn\000"
 5359      665F6F75 
 5359      74707574 
 5359      5F666E00 
 5360              	.LASF197:
 5361 0253 4D454D50 		.ascii	"MEMP_PBUF_POOL\000"
 5361      5F504255 
 5361      465F504F 
 5361      4F4C00
 5362              	.LASF233:
 5363 0262 69707268 		.ascii	"iprh\000"
 5363      00
 5364              	.LASF266:
 5365 0267 6C776970 		.ascii	"lwip_stats\000"
 5365      5F737461 
 5365      747300
 5366              	.LASF62:
 5367 0272 76746675 		.ascii	"vtfunc_t\000"
 5367      6E635F74 
 5367      00
 5368              	.LASF114:
 5369 027b 77746F62 		.ascii	"wtobjp\000"
 5369      6A7000
 5370              	.LASF74:
ARM GAS  C:\Users\Luis\AppData\Local\Temp\ccVuDqaU.s 			page 98


 5371 0282 63685F73 		.ascii	"ch_system_debug\000"
 5371      79737465 
 5371      6D5F6465 
 5371      62756700 
 5372              	.LASF121:
 5373 0292 735F636E 		.ascii	"s_cnt\000"
 5373      7400
 5374              	.LASF134:
 5375 0298 50425546 		.ascii	"PBUF_TRANSPORT\000"
 5375      5F545241 
 5375      4E53504F 
 5375      525400
 5376              	.LASF214:
 5377 02a7 73746174 		.ascii	"stats_syselem\000"
 5377      735F7379 
 5377      73656C65 
 5377      6D00
 5378              	.LASF270:
 5379 02b5 69636D70 		.ascii	"icmp_te_type\000"
 5379      5F74655F 
 5379      74797065 
 5379      00
 5380              	.LASF18:
 5381 02c2 746D6F64 		.ascii	"tmode_t\000"
 5381      655F7400 
 5382              	.LASF165:
 5383 02ca 6E657469 		.ascii	"netif_input_fn\000"
 5383      665F696E 
 5383      7075745F 
 5383      666E00
 5384              	.LASF271:
 5385 02d9 69705F72 		.ascii	"ip_reass_tmr\000"
 5385      65617373 
 5385      5F746D72 
 5385      00
 5386              	.LASF192:
 5387 02e6 4D454D50 		.ascii	"MEMP_NETCONN\000"
 5387      5F4E4554 
 5387      434F4E4E 
 5387      00
 5388              	.LASF111:
 5389 02f3 6B65726E 		.ascii	"kernel_stats_t\000"
 5389      656C5F73 
 5389      74617473 
 5389      5F7400
 5390              	.LASF23:
 5391 0302 6576656E 		.ascii	"eventmask_t\000"
 5391      746D6173 
 5391      6B5F7400 
 5392              	.LASF57:
 5393 030e 725F7072 		.ascii	"r_prio\000"
 5393      696F00
 5394              	.LASF84:
 5395 0315 6B65726E 		.ascii	"kernel_stats\000"
 5395      656C5F73 
 5395      74617473 
 5395      00
ARM GAS  C:\Users\Luis\AppData\Local\Temp\ccVuDqaU.s 			page 99


 5396              	.LASF193:
 5397 0322 4D454D50 		.ascii	"MEMP_TCPIP_MSG_API\000"
 5397      5F544350 
 5397      49505F4D 
 5397      53475F41 
 5397      504900
 5398              	.LASF208:
 5399 0335 6F707465 		.ascii	"opterr\000"
 5399      727200
 5400              	.LASF216:
 5401 033c 6D757465 		.ascii	"mutex\000"
 5401      7800
 5402              	.LASF226:
 5403 0342 69705F72 		.ascii	"ip_reass_helper\000"
 5403      65617373 
 5403      5F68656C 
 5403      70657200 
 5404              	.LASF221:
 5405 0352 69705F66 		.ascii	"ip_frag\000"
 5405      72616700 
 5406              	.LASF119:
 5407 035a 63685F73 		.ascii	"ch_semaphore\000"
 5407      656D6170 
 5407      686F7265 
 5407      00
 5408              	.LASF21:
 5409 0367 74707269 		.ascii	"tprio_t\000"
 5409      6F5F7400 
 5410              	.LASF64:
 5411 036f 63685F76 		.ascii	"ch_virtual_timer\000"
 5411      69727475 
 5411      616C5F74 
 5411      696D6572 
 5411      00
 5412              	.LASF163:
 5413 0380 68776164 		.ascii	"hwaddr\000"
 5413      647200
 5414              	.LASF220:
 5415 0387 65746861 		.ascii	"etharp\000"
 5415      727000
 5416              	.LASF15:
 5417 038e 6C6F6E67 		.ascii	"long long unsigned int\000"
 5417      206C6F6E 
 5417      6720756E 
 5417      7369676E 
 5417      65642069 
 5418              	.LASF93:
 5419 03a5 73655F77 		.ascii	"se_wtobjp\000"
 5419      746F626A 
 5419      7000
 5420              	.LASF181:
 5421 03af 70627566 		.ascii	"pbuf_custom_ref\000"
 5421      5F637573 
 5421      746F6D5F 
 5421      72656600 
 5422              	.LASF100:
 5423 03bf 6F666673 		.ascii	"offset\000"
ARM GAS  C:\Users\Luis\AppData\Local\Temp\ccVuDqaU.s 			page 100


 5423      657400
 5424              	.LASF230:
 5425 03c6 72656173 		.ascii	"reason\000"
 5425      6F6E00
 5426              	.LASF232:
 5427 03cd 636C656E 		.ascii	"clen\000"
 5427      00
 5428              	.LASF238:
 5429 03d2 70627566 		.ascii	"pbufs_needed\000"
 5429      735F6E65 
 5429      65646564 
 5429      00
 5430              	.LASF175:
 5431 03df 5F63686B 		.ascii	"_chksum\000"
 5431      73756D00 
 5432              	.LASF162:
 5433 03e7 68776164 		.ascii	"hwaddr_len\000"
 5433      64725F6C 
 5433      656E00
 5434              	.LASF172:
 5435 03f2 5F6F6666 		.ascii	"_offset\000"
 5435      73657400 
 5436              	.LASF76:
 5437 03fa 6973725F 		.ascii	"isr_cnt\000"
 5437      636E7400 
 5438              	.LASF103:
 5439 0402 776F7273 		.ascii	"worst\000"
 5439      7400
 5440              	.LASF32:
 5441 0408 705F6E65 		.ascii	"p_newer\000"
 5441      77657200 
 5442              	.LASF71:
 5443 0410 63685F76 		.ascii	"ch_virtual_timers_list\000"
 5443      69727475 
 5443      616C5F74 
 5443      696D6572 
 5443      735F6C69 
 5444              	.LASF67:
 5445 0427 76745F64 		.ascii	"vt_delta\000"
 5445      656C7461 
 5445      00
 5446              	.LASF194:
 5447 0430 4D454D50 		.ascii	"MEMP_TCPIP_MSG_INPKT\000"
 5447      5F544350 
 5447      49505F4D 
 5447      53475F49 
 5447      4E504B54 
 5448              	.LASF140:
 5449 0445 50425546 		.ascii	"PBUF_REF\000"
 5449      5F524546 
 5449      00
 5450              	.LASF218:
 5451 044e 73746174 		.ascii	"stats_\000"
 5451      735F00
 5452              	.LASF27:
 5453 0455 74687265 		.ascii	"thread_t\000"
 5453      61645F74 
ARM GAS  C:\Users\Luis\AppData\Local\Temp\ccVuDqaU.s 			page 101


 5453      00
 5454              	.LASF145:
 5455 045e 746F745F 		.ascii	"tot_len\000"
 5455      6C656E00 
 5456              	.LASF251:
 5457 0466 66726565 		.ascii	"freepbuf\000"
 5457      70627566 
 5457      00
 5458              	.LASF112:
 5459 046f 7264796D 		.ascii	"rdymsg\000"
 5459      736700
 5460              	.LASF144:
 5461 0476 7061796C 		.ascii	"payload\000"
 5461      6F616400 
 5462              	.LASF135:
 5463 047e 50425546 		.ascii	"PBUF_IP\000"
 5463      5F495000 
 5464              	.LASF128:
 5465 0486 5F426F6F 		.ascii	"_Bool\000"
 5465      6C00
 5466              	.LASF263:
 5467 048c 72656173 		.ascii	"reassdatagrams\000"
 5467      73646174 
 5467      61677261 
 5467      6D7300
 5468              	.LASF141:
 5469 049b 50425546 		.ascii	"PBUF_POOL\000"
 5469      5F504F4F 
 5469      4C00
 5470              	.LASF122:
 5471 04a5 63685F6D 		.ascii	"ch_mutex\000"
 5471      75746578 
 5471      00
 5472              	.LASF198:
 5473 04ae 4D454D50 		.ascii	"MEMP_MAX\000"
 5473      5F4D4158 
 5473      00
 5474              	.LASF130:
 5475 04b7 73385F74 		.ascii	"s8_t\000"
 5475      00
 5476              	.LASF264:
 5477 04bc 69705F72 		.ascii	"ip_reass_pbufcount\000"
 5477      65617373 
 5477      5F706275 
 5477      66636F75 
 5477      6E7400
 5478              	.LASF104:
 5479 04cf 6C617374 		.ascii	"last\000"
 5479      00
 5480              	.LASF106:
 5481 04d4 74696D65 		.ascii	"time_measurement_t\000"
 5481      5F6D6561 
 5481      73757265 
 5481      6D656E74 
 5481      5F7400
 5482              	.LASF2:
 5483 04e7 696E7438 		.ascii	"int8_t\000"
ARM GAS  C:\Users\Luis\AppData\Local\Temp\ccVuDqaU.s 			page 102


 5483      5F7400
 5484              	.LASF268:
 5485 04ee 2E2E2F2E 		.ascii	"../../ChibiOS/ext/lwip/src/core/ipv4/ip_frag.c\000"
 5485      2E2F4368 
 5485      6962694F 
 5485      532F6578 
 5485      742F6C77 
 5486              	.LASF241:
 5487 051d 6F746865 		.ascii	"other_datagrams\000"
 5487      725F6461 
 5487      74616772 
 5487      616D7300 
 5488              	.LASF34:
 5489 052d 705F6E61 		.ascii	"p_name\000"
 5489      6D6500
 5490              	.LASF196:
 5491 0534 4D454D50 		.ascii	"MEMP_PBUF\000"
 5491      5F504255 
 5491      4600
 5492              	.LASF51:
 5493 053e 63685F74 		.ascii	"ch_threads_list\000"
 5493      68726561 
 5493      64735F6C 
 5493      69737400 
 5494              	.LASF213:
 5495 054e 696C6C65 		.ascii	"illegal\000"
 5495      67616C00 
 5496              	.LASF183:
 5497 0556 6D656D5F 		.ascii	"mem_size_t\000"
 5497      73697A65 
 5497      5F7400
 5498              	.LASF17:
 5499 0561 72747469 		.ascii	"rttime_t\000"
 5499      6D655F74 
 5499      00
 5500              	.LASF72:
 5501 056a 76745F6C 		.ascii	"vt_lasttime\000"
 5501      61737474 
 5501      696D6500 
 5502              	.LASF153:
 5503 0576 69705F61 		.ascii	"ip_addr_packed\000"
 5503      6464725F 
 5503      7061636B 
 5503      656400
 5504              	.LASF246:
 5505 0585 6E65775F 		.ascii	"new_p\000"
 5505      7000
 5506              	.LASF235:
 5507 058b 69705F72 		.ascii	"ip_reass_free_complete_datagram\000"
 5507      65617373 
 5507      5F667265 
 5507      655F636F 
 5507      6D706C65 
 5508              	.LASF19:
 5509 05ab 74737461 		.ascii	"tstate_t\000"
 5509      74655F74 
 5509      00
ARM GAS  C:\Users\Luis\AppData\Local\Temp\ccVuDqaU.s 			page 103


 5510              	.LASF92:
 5511 05b4 73655F74 		.ascii	"se_tp\000"
 5511      7000
 5512              	.LASF43:
 5513 05ba 705F6D74 		.ascii	"p_mtxlist\000"
 5513      786C6973 
 5513      7400
 5514              	.LASF13:
 5515 05c4 6C6F6E67 		.ascii	"long long int\000"
 5515      206C6F6E 
 5515      6720696E 
 5515      7400
 5516              	.LASF33:
 5517 05d2 705F6F6C 		.ascii	"p_older\000"
 5517      64657200 
 5518              	.LASF239:
 5519 05da 6F6C6465 		.ascii	"oldest\000"
 5519      737400
 5520              	.LASF91:
 5521 05e1 73655F74 		.ascii	"se_time\000"
 5521      696D6500 
 5522              	.LASF35:
 5523 05e9 705F7374 		.ascii	"p_stklimit\000"
 5523      6B6C696D 
 5523      697400
 5524              	.LASF4:
 5525 05f4 75696E74 		.ascii	"uint8_t\000"
 5525      385F7400 
 5526              	.LASF146:
 5527 05fc 74797065 		.ascii	"type\000"
 5527      00
 5528              	.LASF46:
 5529 0601 705F7374 		.ascii	"p_stats\000"
 5529      61747300 
 5530              	.LASF45:
 5531 0609 705F6D70 		.ascii	"p_mpool\000"
 5531      6F6F6C00 
 5532              	.LASF174:
 5533 0611 5F70726F 		.ascii	"_proto\000"
 5533      746F00
 5534              	.LASF36:
 5535 0618 705F7374 		.ascii	"p_state\000"
 5535      61746500 
 5536              	.LASF50:
 5537 0620 63685F74 		.ascii	"ch_thread\000"
 5537      68726561 
 5537      6400
 5538              	.LASF240:
 5539 062a 70627566 		.ascii	"pbufs_freed_current\000"
 5539      735F6672 
 5539      6565645F 
 5539      63757272 
 5539      656E7400 
 5540              	.LASF87:
 5541 063e 72656761 		.ascii	"regarm_t\000"
 5541      726D5F74 
 5541      00
ARM GAS  C:\Users\Luis\AppData\Local\Temp\ccVuDqaU.s 			page 104


 5542              	.LASF73:
 5543 0647 73797374 		.ascii	"system_debug_t\000"
 5543      656D5F64 
 5543      65627567 
 5543      5F7400
 5544              	.LASF191:
 5545 0656 4D454D50 		.ascii	"MEMP_NETBUF\000"
 5545      5F4E4554 
 5545      42554600 
 5546              	.LASF157:
 5547 0662 6E65746D 		.ascii	"netmask\000"
 5547      61736B00 
 5548              	.LASF53:
 5549 066a 63685F74 		.ascii	"ch_threads_queue\000"
 5549      68726561 
 5549      64735F71 
 5549      75657565 
 5549      00
 5550              	.LASF255:
 5551 067b 69705F72 		.ascii	"ip_reass\000"
 5551      65617373 
 5551      00
 5552              	.LASF56:
 5553 0684 725F7175 		.ascii	"r_queue\000"
 5553      65756500 
 5554              	.LASF249:
 5555 068c 76616C69 		.ascii	"valid\000"
 5555      6400
 5556              	.LASF59:
 5557 0692 725F6E65 		.ascii	"r_newer\000"
 5557      77657200 
 5558              	.LASF24:
 5559 069a 636E745F 		.ascii	"cnt_t\000"
 5559      7400
 5560              	.LASF22:
 5561 06a0 6D73675F 		.ascii	"msg_t\000"
 5561      7400
 5562              	.LASF186:
 5563 06a6 4D454D50 		.ascii	"MEMP_TCP_PCB\000"
 5563      5F544350 
 5563      5F504342 
 5563      00
 5564              	.LASF129:
 5565 06b3 75385F74 		.ascii	"u8_t\000"
 5565      00
 5566              	.LASF37:
 5567 06b8 705F666C 		.ascii	"p_flags\000"
 5567      61677300 
 5568              	.LASF242:
 5569 06c0 69705F72 		.ascii	"ip_reass_enqueue_new_datagram\000"
 5569      65617373 
 5569      5F656E71 
 5569      75657565 
 5569      5F6E6577 
 5570              	.LASF169:
 5571 06de 5F765F68 		.ascii	"_v_hl\000"
 5571      6C00
ARM GAS  C:\Users\Luis\AppData\Local\Temp\ccVuDqaU.s 			page 105


 5572              	.LASF63:
 5573 06e4 76697274 		.ascii	"virtual_timer_t\000"
 5573      75616C5F 
 5573      74696D65 
 5573      725F7400 
 5574              	.LASF243:
 5575 06f4 6F73616C 		.ascii	"osalSysHalt\000"
 5575      53797348 
 5575      616C7400 
 5576              	.LASF98:
 5577 0700 74625F62 		.ascii	"tb_buffer\000"
 5577      75666665 
 5577      7200
 5578              	.LASF212:
 5579 070a 75736564 		.ascii	"used\000"
 5579      00
 5580              	.LASF97:
 5581 070f 74625F70 		.ascii	"tb_ptr\000"
 5581      747200
 5582              	.LASF203:
 5583 0716 63686B65 		.ascii	"chkerr\000"
 5583      727200
 5584              	.LASF60:
 5585 071d 725F6F6C 		.ascii	"r_older\000"
 5585      64657200 
 5586              	.LASF189:
 5587 0725 4D454D50 		.ascii	"MEMP_REASSDATA\000"
 5587      5F524541 
 5587      53534441 
 5587      544100
 5588              	.LASF108:
 5589 0734 6E5F6374 		.ascii	"n_ctxswc\000"
 5589      78737763 
 5589      00
 5590              	.LASF256:
 5591 073d 72616D62 		.ascii	"rambuf\000"
 5591      756600
 5592              	.LASF158:
 5593 0744 696E7075 		.ascii	"input\000"
 5593      7400
 5594              	.LASF205:
 5595 074a 6D656D65 		.ascii	"memerr\000"
 5595      727200
 5596              	.LASF136:
 5597 0751 50425546 		.ascii	"PBUF_LINK\000"
 5597      5F4C494E 
 5597      4B00
 5598              	.LASF89:
 5599 075b 636F6E74 		.ascii	"context\000"
 5599      65787400 
 5600              	.LASF41:
 5601 0763 705F6D73 		.ascii	"p_msg\000"
 5601      6700
 5602              	.LASF101:
 5603 0769 746D5F63 		.ascii	"tm_calibration_t\000"
 5603      616C6962 
 5603      72617469 
ARM GAS  C:\Users\Luis\AppData\Local\Temp\ccVuDqaU.s 			page 106


 5603      6F6E5F74 
 5603      00
 5604              	.LASF96:
 5605 077a 74625F73 		.ascii	"tb_size\000"
 5605      697A6500 
 5606              	.LASF227:
 5607 0782 6E657874 		.ascii	"next_pbuf\000"
 5607      5F706275 
 5607      6600
 5608              	.LASF25:
 5609 078c 75636E74 		.ascii	"ucnt_t\000"
 5609      5F7400
 5610              	.LASF83:
 5611 0793 6D61696E 		.ascii	"mainthread\000"
 5611      74687265 
 5611      616400
 5612              	.LASF7:
 5613 079e 75696E74 		.ascii	"uint16_t\000"
 5613      31365F74 
 5613      00
 5614              	.LASF48:
 5615 07a7 74687265 		.ascii	"thread_reference_t\000"
 5615      61645F72 
 5615      65666572 
 5615      656E6365 
 5615      5F7400
 5616              	.LASF1:
 5617 07ba 73697A65 		.ascii	"size_t\000"
 5617      5F7400
 5618              	.LASF16:
 5619 07c1 7274636E 		.ascii	"rtcnt_t\000"
 5619      745F7400 
 5620              	.LASF150:
 5621 07c9 63757374 		.ascii	"custom_free_function\000"
 5621      6F6D5F66 
 5621      7265655F 
 5621      66756E63 
 5621      74696F6E 
 5622              	.LASF182:
 5623 07de 6F726967 		.ascii	"original\000"
 5623      696E616C 
 5623      00
 5624              	.LASF77:
 5625 07e7 6C6F636B 		.ascii	"lock_cnt\000"
 5625      5F636E74 
 5625      00
 5626              	.LASF269:
 5627 07f0 433A5C55 		.ascii	"C:\\Users\\Luis\\git\\DSP-Library-Lanin\\examples\\"
 5627      73657273 
 5627      5C4C7569 
 5627      735C6769 
 5627      745C4453 
 5628 081d 53544D33 		.ascii	"STM32F407_EMTECH-LWIP\000"
 5628      32463430 
 5628      375F454D 
 5628      54454348 
 5628      2D4C5749 
ARM GAS  C:\Users\Luis\AppData\Local\Temp\ccVuDqaU.s 			page 107


 5629              	.LASF107:
 5630 0833 6E5F6972 		.ascii	"n_irq\000"
 5630      7100
 5631              	.LASF184:
 5632 0839 4D454D50 		.ascii	"MEMP_RAW_PCB\000"
 5632      5F524157 
 5632      5F504342 
 5632      00
 5633              	.LASF44:
 5634 0846 705F7265 		.ascii	"p_realprio\000"
 5634      616C7072 
 5634      696F00
 5635              	.LASF225:
 5636 0851 49434D50 		.ascii	"ICMP_TE_FRAG\000"
 5636      5F54455F 
 5636      46524147 
 5636      00
 5637              	.LASF132:
 5638 085e 7533325F 		.ascii	"u32_t\000"
 5638      7400
 5639              	.LASF6:
 5640 0864 73686F72 		.ascii	"short int\000"
 5640      7420696E 
 5640      7400
 5641              	.LASF222:
 5642 086e 69636D70 		.ascii	"icmp\000"
 5642      00
 5643              	.LASF61:
 5644 0873 725F6375 		.ascii	"r_current\000"
 5644      7272656E 
 5644      7400
 5645              	.LASF42:
 5646 087d 705F6570 		.ascii	"p_epending\000"
 5646      656E6469 
 5646      6E6700
 5647              	.LASF123:
 5648 0888 6D5F7175 		.ascii	"m_queue\000"
 5648      65756500 
 5649              	.LASF10:
 5650 0890 6C6F6E67 		.ascii	"long int\000"
 5650      20696E74 
 5650      00
 5651              	.LASF90:
 5652 0899 706F7274 		.ascii	"port_intctx\000"
 5652      5F696E74 
 5652      63747800 
 5653              	.LASF148:
 5654 08a5 70627566 		.ascii	"pbuf_free_custom_fn\000"
 5654      5F667265 
 5654      655F6375 
 5654      73746F6D 
 5654      5F666E00 
 5655              	.LASF206:
 5656 08b9 72746572 		.ascii	"rterr\000"
 5656      7200
 5657              	.LASF265:
 5658 08bf 49544D5F 		.ascii	"ITM_RxBuffer\000"
ARM GAS  C:\Users\Luis\AppData\Local\Temp\ccVuDqaU.s 			page 108


 5658      52784275 
 5658      66666572 
 5658      00
 5659              	.LASF211:
 5660 08cc 61766169 		.ascii	"avail\000"
 5660      6C00
 5661              	.LASF195:
 5662 08d2 4D454D50 		.ascii	"MEMP_SYS_TIMEOUT\000"
 5662      5F535953 
 5662      5F54494D 
 5662      454F5554 
 5662      00
 5663              	.LASF257:
 5664 08e3 6E657770 		.ascii	"newpbuf\000"
 5664      62756600 
 5665              	.LASF80:
 5666 08eb 63685F73 		.ascii	"ch_system\000"
 5666      79737465 
 5666      6D00
 5667              	.LASF109:
 5668 08f5 6D5F6372 		.ascii	"m_crit_thd\000"
 5668      69745F74 
 5668      686400
 5669              	.LASF209:
 5670 0900 63616368 		.ascii	"cachehit\000"
 5670      65686974 
 5670      00
 5671              	.LASF28:
 5672 0909 705F6E65 		.ascii	"p_next\000"
 5672      787400
 5673              	.LASF185:
 5674 0910 4D454D50 		.ascii	"MEMP_UDP_PCB\000"
 5674      5F554450 
 5674      5F504342 
 5674      00
 5675              	.LASF31:
 5676 091d 705F6374 		.ascii	"p_ctx\000"
 5676      7800
 5677              	.LASF254:
 5678 0923 69706672 		.ascii	"ipfrag_free_pbuf_custom\000"
 5678      61675F66 
 5678      7265655F 
 5678      70627566 
 5678      5F637573 
 5679              	.LASF217:
 5680 093b 6D626F78 		.ascii	"mbox\000"
 5680      00
 5681              	.LASF244:
 5682 0940 69705F72 		.ascii	"ip_reass_dequeue_datagram\000"
 5682      65617373 
 5682      5F646571 
 5682      75657565 
 5682      5F646174 
 5683              	.LASF81:
 5684 095a 726C6973 		.ascii	"rlist\000"
 5684      7400
 5685              	.LASF259:
ARM GAS  C:\Users\Luis\AppData\Local\Temp\ccVuDqaU.s 			page 109


 5686 0960 6C656674 		.ascii	"left\000"
 5686      00
 5687              	.LASF168:
 5688 0965 69705F68 		.ascii	"ip_hdr\000"
 5688      647200
 5689              	.LASF224:
 5690 096c 49434D50 		.ascii	"ICMP_TE_TTL\000"
 5690      5F54455F 
 5690      54544C00 
 5691              	.LASF164:
 5692 0978 6E616D65 		.ascii	"name\000"
 5692      00
 5693              	.LASF228:
 5694 097d 73746172 		.ascii	"start\000"
 5694      7400
 5695              	.LASF245:
 5696 0983 69705F72 		.ascii	"ip_reass_chain_frag_into_datagram_and_validate\000"
 5696      65617373 
 5696      5F636861 
 5696      696E5F66 
 5696      7261675F 
 5697              	.LASF167:
 5698 09b2 6E657469 		.ascii	"netif_linkoutput_fn\000"
 5698      665F6C69 
 5698      6E6B6F75 
 5698      74707574 
 5698      5F666E00 
 5699              	.LASF190:
 5700 09c6 4D454D50 		.ascii	"MEMP_FRAG_PBUF\000"
 5700      5F465241 
 5700      475F5042 
 5700      554600
 5701              	.LASF272:
 5702 09d5 69705F66 		.ascii	"ip_frag_alloc_pbuf_custom_ref\000"
 5702      7261675F 
 5702      616C6C6F 
 5702      635F7062 
 5702      75665F63 
 5703              	.LASF223:
 5704 09f3 6D656D70 		.ascii	"memp\000"
 5704      00
 5705              	.LASF248:
 5706 09f8 69707268 		.ascii	"iprh_prev\000"
 5706      5F707265 
 5706      7600
 5707              	.LASF204:
 5708 0a02 6C656E65 		.ascii	"lenerr\000"
 5708      727200
 5709              	.LASF29:
 5710 0a09 705F7072 		.ascii	"p_prev\000"
 5710      657600
 5711              	.LASF170:
 5712 0a10 5F746F73 		.ascii	"_tos\000"
 5712      00
 5713              	.LASF86:
 5714 0a15 73697A65 		.ascii	"sizetype\000"
 5714      74797065 
ARM GAS  C:\Users\Luis\AppData\Local\Temp\ccVuDqaU.s 			page 110


 5714      00
 5715              	.LASF20:
 5716 0a1e 74726566 		.ascii	"trefs_t\000"
 5716      735F7400 
 5717              	.LASF12:
 5718 0a26 6C6F6E67 		.ascii	"long unsigned int\000"
 5718      20756E73 
 5718      69676E65 
 5718      6420696E 
 5718      7400
 5719              	.LASF54:
 5720 0a38 72656164 		.ascii	"ready_list_t\000"
 5720      795F6C69 
 5720      73745F74 
 5720      00
 5721              	.LASF9:
 5722 0a45 696E7433 		.ascii	"int32_t\000"
 5722      325F7400 
 5723              	.LASF78:
 5724 0a4d 74726163 		.ascii	"trace_buffer\000"
 5724      655F6275 
 5724      66666572 
 5724      00
 5725              	.LASF207:
 5726 0a5a 70726F74 		.ascii	"proterr\000"
 5726      65727200 
 5727              	.LASF116:
 5728 0a62 77747365 		.ascii	"wtsemp\000"
 5728      6D7000
 5729              	.LASF154:
 5730 0a69 69705F61 		.ascii	"ip_addr_t\000"
 5730      6464725F 
 5730      7400
 5731              	.LASF95:
 5732 0a73 63685F73 		.ascii	"ch_swc_event_t\000"
 5732      77635F65 
 5732      76656E74 
 5732      5F7400
 5733              	.LASF127:
 5734 0a82 6D757465 		.ascii	"mutex_t\000"
 5734      785F7400 
 5735              	.LASF69:
 5736 0a8a 76745F70 		.ascii	"vt_par\000"
 5736      617200
 5737              	.LASF102:
 5738 0a91 62657374 		.ascii	"best\000"
 5738      00
 5739              	.LASF215:
 5740 0a96 73746174 		.ascii	"stats_sys\000"
 5740      735F7379 
 5740      7300
 5741              	.LASF5:
 5742 0aa0 756E7369 		.ascii	"unsigned char\000"
 5742      676E6564 
 5742      20636861 
 5742      7200
 5743              	.LASF70:
ARM GAS  C:\Users\Luis\AppData\Local\Temp\ccVuDqaU.s 			page 111


 5744 0aae 76697274 		.ascii	"virtual_timers_list_t\000"
 5744      75616C5F 
 5744      74696D65 
 5744      72735F6C 
 5744      6973745F 
 5745              	.LASF38:
 5746 0ac4 705F7265 		.ascii	"p_refs\000"
 5746      667300
 5747              	.LASF188:
 5748 0acb 4D454D50 		.ascii	"MEMP_TCP_SEG\000"
 5748      5F544350 
 5748      5F534547 
 5748      00
 5749              	.LASF75:
 5750 0ad8 70616E69 		.ascii	"panic_msg\000"
 5750      635F6D73 
 5750      6700
 5751              	.LASF142:
 5752 0ae2 70627566 		.ascii	"pbuf\000"
 5752      00
 5753              	.LASF155:
 5754 0ae7 69705F61 		.ascii	"ip_addr_p_t\000"
 5754      6464725F 
 5754      705F7400 
 5755              	.LASF250:
 5756 0af3 6970725F 		.ascii	"ipr_prev\000"
 5756      70726576 
 5756      00
 5757              	.LASF179:
 5758 0afc 64617461 		.ascii	"datagram_len\000"
 5758      6772616D 
 5758      5F6C656E 
 5758      00
 5759              	.LASF247:
 5760 0b09 69707268 		.ascii	"iprh_tmp\000"
 5760      5F746D70 
 5760      00
 5761              	.LASF88:
 5762 0b12 73746B61 		.ascii	"stkalign_t\000"
 5762      6C69676E 
 5762      5F7400
 5763              	.LASF152:
 5764 0b1d 61646472 		.ascii	"addr\000"
 5764      00
 5765              	.LASF202:
 5766 0b22 64726F70 		.ascii	"drop\000"
 5766      00
 5767              	.LASF161:
 5768 0b27 73746174 		.ascii	"state\000"
 5768      6500
 5769              	.LASF231:
 5770 0b2d 70627566 		.ascii	"pbufs_freed\000"
 5770      735F6672 
 5770      65656400 
 5771              	.LASF65:
 5772 0b39 76745F6E 		.ascii	"vt_next\000"
 5772      65787400 
ARM GAS  C:\Users\Luis\AppData\Local\Temp\ccVuDqaU.s 			page 112


 5773              	.LASF253:
 5774 0b41 69705F66 		.ascii	"ip_frag_free_pbuf_custom_ref\000"
 5774      7261675F 
 5774      66726565 
 5774      5F706275 
 5774      665F6375 
 5775              	.LASF14:
 5776 0b5e 75696E74 		.ascii	"uint64_t\000"
 5776      36345F74 
 5776      00
 5777              	.LASF156:
 5778 0b67 6E657469 		.ascii	"netif\000"
 5778      6600
 5779              	.LASF79:
 5780 0b6d 63685F73 		.ascii	"ch_system_t\000"
 5780      79737465 
 5780      6D5F7400 
 5781              	.LASF261:
 5782 0b79 6E657770 		.ascii	"newpbuflen\000"
 5782      6275666C 
 5782      656E00
 5783              	.LASF115:
 5784 0b84 77747472 		.ascii	"wttrp\000"
 5784      7000
 5785              	.LASF178:
 5786 0b8a 69706864 		.ascii	"iphdr\000"
 5786      7200
 5787              	.LASF201:
 5788 0b90 72656376 		.ascii	"recv\000"
 5788      00
 5789              	.LASF99:
 5790 0b95 63685F74 		.ascii	"ch_trace_buffer_t\000"
 5790      72616365 
 5790      5F627566 
 5790      6665725F 
 5790      7400
 5791              	.LASF125:
 5792 0ba7 6D5F6E65 		.ascii	"m_next\000"
 5792      787400
 5793              	.LASF3:
 5794 0bae 7369676E 		.ascii	"signed char\000"
 5794      65642063 
 5794      68617200 
 5795              	.LASF8:
 5796 0bba 73686F72 		.ascii	"short unsigned int\000"
 5796      7420756E 
 5796      7369676E 
 5796      65642069 
 5796      6E7400
 5797              	.LASF58:
 5798 0bcd 725F6374 		.ascii	"r_ctx\000"
 5798      7800
 5799              	.LASF47:
 5800 0bd3 746C7350 		.ascii	"tlsPtr\000"
 5800      747200
 5801              	.LASF237:
 5802 0bda 66726167 		.ascii	"fraghdr\000"
ARM GAS  C:\Users\Luis\AppData\Local\Temp\ccVuDqaU.s 			page 113


 5802      68647200 
 5803              	.LASF200:
 5804 0be2 786D6974 		.ascii	"xmit\000"
 5804      00
 5805              	.LASF68:
 5806 0be7 76745F66 		.ascii	"vt_func\000"
 5806      756E6300 
 5807              	.LASF66:
 5808 0bef 76745F70 		.ascii	"vt_prev\000"
 5808      72657600 
 5809              	.LASF171:
 5810 0bf7 5F6C656E 		.ascii	"_len\000"
 5810      00
 5811              	.LASF262:
 5812 0bfc 6C656674 		.ascii	"left_to_copy\000"
 5812      5F746F5F 
 5812      636F7079 
 5812      00
 5813              	.LASF139:
 5814 0c09 50425546 		.ascii	"PBUF_ROM\000"
 5814      5F524F4D 
 5814      00
 5815              	.LASF180:
 5816 0c12 74696D65 		.ascii	"timer\000"
 5816      7200
 5817              	.LASF11:
 5818 0c18 75696E74 		.ascii	"uint32_t\000"
 5818      33325F74 
 5818      00
 5819              	.LASF160:
 5820 0c21 6C696E6B 		.ascii	"linkoutput\000"
 5820      6F757470 
 5820      757400
 5821              	.LASF176:
 5822 0c2c 64657374 		.ascii	"dest\000"
 5822      00
 5823              	.LASF113:
 5824 0c31 65786974 		.ascii	"exitcode\000"
 5824      636F6465 
 5824      00
 5825              	.LASF177:
 5826 0c3a 69705F72 		.ascii	"ip_reassdata\000"
 5826      65617373 
 5826      64617461 
 5826      00
 5827              	.LASF151:
 5828 0c47 69705F61 		.ascii	"ip_addr\000"
 5828      64647200 
 5829              		.ident	"GCC: (GNU Tools for ARM Embedded Processors) 4.8.3 20131129 (release) [ARM/embedded-4_8-br
ARM GAS  C:\Users\Luis\AppData\Local\Temp\ccVuDqaU.s 			page 114


DEFINED SYMBOLS
                            *ABS*:00000000 ip_frag.c
C:\Users\Luis\AppData\Local\Temp\ccVuDqaU.s:19     .text.osalSysHalt:00000000 $t
C:\Users\Luis\AppData\Local\Temp\ccVuDqaU.s:24     .text.osalSysHalt:00000000 osalSysHalt
C:\Users\Luis\AppData\Local\Temp\ccVuDqaU.s:52     .bss.reassdatagrams:00000000 $d
C:\Users\Luis\AppData\Local\Temp\ccVuDqaU.s:55     .bss.reassdatagrams:00000000 reassdatagrams
C:\Users\Luis\AppData\Local\Temp\ccVuDqaU.s:58     .bss.ip_reass_pbufcount:00000000 $d
C:\Users\Luis\AppData\Local\Temp\ccVuDqaU.s:61     .bss.ip_reass_pbufcount:00000000 ip_reass_pbufcount
C:\Users\Luis\AppData\Local\Temp\ccVuDqaU.s:64     .text.ip_reass_tmr:00000000 $t
C:\Users\Luis\AppData\Local\Temp\ccVuDqaU.s:70     .text.ip_reass_tmr:00000000 ip_reass_tmr
C:\Users\Luis\AppData\Local\Temp\ccVuDqaU.s:165    .text.ip_reass_free_complete_datagram:00000000 ip_reass_free_complete_datagram
C:\Users\Luis\AppData\Local\Temp\ccVuDqaU.s:142    .text.ip_reass_tmr:00000050 $d
C:\Users\Luis\AppData\Local\Temp\ccVuDqaU.s:147    .rodata:00000000 $d
C:\Users\Luis\AppData\Local\Temp\ccVuDqaU.s:160    .text.ip_reass_free_complete_datagram:00000000 $t
C:\Users\Luis\AppData\Local\Temp\ccVuDqaU.s:611    .text.ip_reass_dequeue_datagram:00000000 ip_reass_dequeue_datagram
C:\Users\Luis\AppData\Local\Temp\ccVuDqaU.s:347    .text.ip_reass_free_complete_datagram:00000114 $d
C:\Users\Luis\AppData\Local\Temp\ccVuDqaU.s:356    .text.ip_reass_remove_oldest_datagram:00000000 $t
C:\Users\Luis\AppData\Local\Temp\ccVuDqaU.s:361    .text.ip_reass_remove_oldest_datagram:00000000 ip_reass_remove_oldest_datagram
C:\Users\Luis\AppData\Local\Temp\ccVuDqaU.s:497    .text.ip_reass_remove_oldest_datagram:000000b4 $d
C:\Users\Luis\AppData\Local\Temp\ccVuDqaU.s:502    .text.ip_reass_enqueue_new_datagram:00000000 $t
C:\Users\Luis\AppData\Local\Temp\ccVuDqaU.s:507    .text.ip_reass_enqueue_new_datagram:00000000 ip_reass_enqueue_new_datagram
C:\Users\Luis\AppData\Local\Temp\ccVuDqaU.s:596    .text.ip_reass_enqueue_new_datagram:0000007c $d
C:\Users\Luis\AppData\Local\Temp\ccVuDqaU.s:606    .text.ip_reass_dequeue_datagram:00000000 $t
C:\Users\Luis\AppData\Local\Temp\ccVuDqaU.s:666    .text.ip_reass_dequeue_datagram:00000040 $d
C:\Users\Luis\AppData\Local\Temp\ccVuDqaU.s:689    .text.ip_reass_chain_frag_into_datagram_and_validate:00000000 $t
C:\Users\Luis\AppData\Local\Temp\ccVuDqaU.s:694    .text.ip_reass_chain_frag_into_datagram_and_validate:00000000 ip_reass_chain_frag_into_datagram_and_validate
C:\Users\Luis\AppData\Local\Temp\ccVuDqaU.s:1085   .text.ip_reass_chain_frag_into_datagram_and_validate:00000254 $d
C:\Users\Luis\AppData\Local\Temp\ccVuDqaU.s:1095   .text.ip_reass:00000000 $t
C:\Users\Luis\AppData\Local\Temp\ccVuDqaU.s:1101   .text.ip_reass:00000000 ip_reass
C:\Users\Luis\AppData\Local\Temp\ccVuDqaU.s:1478   .text.ip_reass:00000278 $d
C:\Users\Luis\AppData\Local\Temp\ccVuDqaU.s:1485   .text.ip_frag_alloc_pbuf_custom_ref:00000000 $t
C:\Users\Luis\AppData\Local\Temp\ccVuDqaU.s:1490   .text.ip_frag_alloc_pbuf_custom_ref:00000000 ip_frag_alloc_pbuf_custom_ref
C:\Users\Luis\AppData\Local\Temp\ccVuDqaU.s:1517   .text.ip_frag_free_pbuf_custom_ref:00000000 $t
C:\Users\Luis\AppData\Local\Temp\ccVuDqaU.s:1522   .text.ip_frag_free_pbuf_custom_ref:00000000 ip_frag_free_pbuf_custom_ref
C:\Users\Luis\AppData\Local\Temp\ccVuDqaU.s:1557   .text.ip_frag_free_pbuf_custom_ref:00000024 $d
C:\Users\Luis\AppData\Local\Temp\ccVuDqaU.s:1569   .text.ipfrag_free_pbuf_custom:00000000 $t
C:\Users\Luis\AppData\Local\Temp\ccVuDqaU.s:1574   .text.ipfrag_free_pbuf_custom:00000000 ipfrag_free_pbuf_custom
C:\Users\Luis\AppData\Local\Temp\ccVuDqaU.s:1631   .text.ipfrag_free_pbuf_custom:00000044 $d
C:\Users\Luis\AppData\Local\Temp\ccVuDqaU.s:1641   .text.ip_frag:00000000 $t
C:\Users\Luis\AppData\Local\Temp\ccVuDqaU.s:1647   .text.ip_frag:00000000 ip_frag
C:\Users\Luis\AppData\Local\Temp\ccVuDqaU.s:1985   .text.ip_frag:00000210 $d
                     .debug_frame:00000010 $d
C:\Users\Luis\AppData\Local\Temp\ccVuDqaU.s:146    .text.ip_reass_tmr:00000054 $t
C:\Users\Luis\AppData\Local\Temp\ccVuDqaU.s:355    .text.ip_reass_free_complete_datagram:00000128 $t
C:\Users\Luis\AppData\Local\Temp\ccVuDqaU.s:501    .text.ip_reass_remove_oldest_datagram:000000b8 $t
C:\Users\Luis\AppData\Local\Temp\ccVuDqaU.s:601    .text.ip_reass_enqueue_new_datagram:00000084 $t
C:\Users\Luis\AppData\Local\Temp\ccVuDqaU.s:671    .text.ip_reass_dequeue_datagram:00000048 $t
C:\Users\Luis\AppData\Local\Temp\ccVuDqaU.s:1094   .text.ip_reass_chain_frag_into_datagram_and_validate:0000026c $t
C:\Users\Luis\AppData\Local\Temp\ccVuDqaU.s:1484   .text.ip_reass:00000284 $t
C:\Users\Luis\AppData\Local\Temp\ccVuDqaU.s:1561   .text.ip_frag_free_pbuf_custom_ref:00000028 $t
C:\Users\Luis\AppData\Local\Temp\ccVuDqaU.s:1636   .text.ipfrag_free_pbuf_custom:0000004c $t
C:\Users\Luis\AppData\Local\Temp\ccVuDqaU.s:1991   .text.ip_frag:0000021c $t

UNDEFINED SYMBOLS
chSysHalt
memcpy
icmp_time_exceeded
ARM GAS  C:\Users\Luis\AppData\Local\Temp\ccVuDqaU.s 			page 115


pbuf_clen
pbuf_free
memp_malloc
memset
lwip_stats
memp_free
lwip_ntohs
lwip_htons
inet_chksum
pbuf_header
pbuf_cat
pbuf_alloc
pbuf_alloced_custom
pbuf_ref
