ARM GAS  C:\Users\Luis\AppData\Local\Temp\ccVuDqaU.s 			page 1


   1              		.syntax unified
   2              		.cpu cortex-m4
   3              		.fpu softvfp
   4              		.eabi_attribute 20, 1
   5              		.eabi_attribute 21, 1
   6              		.eabi_attribute 23, 3
   7              		.eabi_attribute 24, 1
   8              		.eabi_attribute 25, 1
   9              		.eabi_attribute 26, 1
  10              		.eabi_attribute 30, 6
  11              		.eabi_attribute 34, 1
  12              		.eabi_attribute 18, 4
  13              		.thumb
  14              		.file	"ip_frag.c"
  15              		.text
  16              	.Ltext0:
  17              		.cfi_sections	.debug_frame
  18              		.section	.text.osalSysHalt,"ax",%progbits
  19              		.align	2
  20              		.p2align 4,,15
  21              		.thumb
  22              		.thumb_func
  23              		.type	osalSysHalt, %function
  24              	osalSysHalt:
  25              	.LFB230:
  26              		.file 1 "../../ChibiOS/os/hal/osal/rt/osal.h"
  27              		.loc 1 460 0
  28              		.cfi_startproc
  29              		@ args = 0, pretend = 0, frame = 8
  30              		@ frame_needed = 1, uses_anonymous_args = 0
  31 0000 80B5     		push	{r7, lr}
  32              		.cfi_def_cfa_offset 8
  33              		.cfi_offset 7, -8
  34              		.cfi_offset 14, -4
  35 0002 82B0     		sub	sp, sp, #8
  36              		.cfi_def_cfa_offset 16
  37 0004 00AF     		add	r7, sp, #0
  38              		.cfi_def_cfa_register 7
  39 0006 7860     		str	r0, [r7, #4]
  40              		.loc 1 462 0
  41 0008 7868     		ldr	r0, [r7, #4]
  42 000a FFF7FEFF 		bl	chSysHalt
  43              		.loc 1 463 0
  44 000e 0837     		adds	r7, r7, #8
  45 0010 BD46     		mov	sp, r7
  46              		@ sp needed
  47 0012 80BD     		pop	{r7, pc}
  48              		.cfi_endproc
  49              	.LFE230:
  50              		.size	osalSysHalt, .-osalSysHalt
  51 0014 AFF30080 		.section	.bss.reassdatagrams,"aw",%nobits
  51      AFF30080 
  51      AFF30080 
  52              		.align	2
  53              		.type	reassdatagrams, %object
  54              		.size	reassdatagrams, 4
  55              	reassdatagrams:
ARM GAS  C:\Users\Luis\AppData\Local\Temp\ccVuDqaU.s 			page 2


  56 0000 00000000 		.space	4
  57              		.section	.bss.ip_reass_pbufcount,"aw",%nobits
  58              		.align	1
  59              		.type	ip_reass_pbufcount, %object
  60              		.size	ip_reass_pbufcount, 2
  61              	ip_reass_pbufcount:
  62 0000 0000     		.space	2
  63              		.section	.text.ip_reass_tmr,"ax",%progbits
  64              		.align	2
  65              		.p2align 4,,15
  66              		.global	ip_reass_tmr
  67              		.thumb
  68              		.thumb_func
  69              		.type	ip_reass_tmr, %function
  70              	ip_reass_tmr:
  71              	.LFB260:
  72              		.file 2 "../../ChibiOS/ext/lwip/src/core/ipv4/ip_frag.c"
  73              		.loc 2 123 0
  74              		.cfi_startproc
  75              		@ args = 0, pretend = 0, frame = 16
  76              		@ frame_needed = 1, uses_anonymous_args = 0
  77 0000 80B5     		push	{r7, lr}
  78              		.cfi_def_cfa_offset 8
  79              		.cfi_offset 7, -8
  80              		.cfi_offset 14, -4
  81 0002 84B0     		sub	sp, sp, #16
  82              		.cfi_def_cfa_offset 24
  83 0004 00AF     		add	r7, sp, #0
  84              		.cfi_def_cfa_register 7
  85              		.loc 2 124 0
  86 0006 0023     		movs	r3, #0
  87 0008 BB60     		str	r3, [r7, #8]
  88              		.loc 2 126 0
  89 000a 114B     		ldr	r3, .L6
  90 000c 1B68     		ldr	r3, [r3]
  91 000e FB60     		str	r3, [r7, #12]
  92              		.loc 2 127 0
  93 0010 18E0     		b	.L3
  94              	.L5:
  95              		.loc 2 130 0
  96 0012 FB68     		ldr	r3, [r7, #12]
  97 0014 DB7F     		ldrb	r3, [r3, #31]	@ zero_extendqisi2
  98 0016 002B     		cmp	r3, #0
  99 0018 0BD0     		beq	.L4
 100              		.loc 2 131 0
 101 001a FB68     		ldr	r3, [r7, #12]
 102 001c DB7F     		ldrb	r3, [r3, #31]	@ zero_extendqisi2
 103 001e 013B     		subs	r3, r3, #1
 104 0020 DAB2     		uxtb	r2, r3
 105 0022 FB68     		ldr	r3, [r7, #12]
 106 0024 DA77     		strb	r2, [r3, #31]
 107              		.loc 2 133 0
 108 0026 FB68     		ldr	r3, [r7, #12]
 109 0028 BB60     		str	r3, [r7, #8]
 110              		.loc 2 134 0
 111 002a FB68     		ldr	r3, [r7, #12]
 112 002c 1B68     		ldr	r3, [r3]
ARM GAS  C:\Users\Luis\AppData\Local\Temp\ccVuDqaU.s 			page 3


 113 002e FB60     		str	r3, [r7, #12]
 114 0030 08E0     		b	.L3
 115              	.L4:
 116              	.LBB2:
 117              		.loc 2 139 0
 118 0032 FB68     		ldr	r3, [r7, #12]
 119 0034 7B60     		str	r3, [r7, #4]
 120              		.loc 2 141 0
 121 0036 FB68     		ldr	r3, [r7, #12]
 122 0038 1B68     		ldr	r3, [r3]
 123 003a FB60     		str	r3, [r7, #12]
 124              		.loc 2 143 0
 125 003c 7868     		ldr	r0, [r7, #4]
 126 003e B968     		ldr	r1, [r7, #8]
 127 0040 FFF7FEFF 		bl	ip_reass_free_complete_datagram
 128              	.L3:
 129              	.LBE2:
 130              		.loc 2 127 0 discriminator 1
 131 0044 FB68     		ldr	r3, [r7, #12]
 132 0046 002B     		cmp	r3, #0
 133 0048 E3D1     		bne	.L5
 134              		.loc 2 146 0
 135 004a 1037     		adds	r7, r7, #16
 136 004c BD46     		mov	sp, r7
 137              		@ sp needed
 138 004e 80BD     		pop	{r7, pc}
 139              	.L7:
 140              		.align	2
 141              	.L6:
 142 0050 00000000 		.word	reassdatagrams
 143              		.cfi_endproc
 144              	.LFE260:
 145              		.size	ip_reass_tmr, .-ip_reass_tmr
 146 0054 AFF30080 		.section	.rodata
 146      AFF30080 
 146      AFF30080 
 147              		.align	2
 148              	.LC0:
 149 0000 70726576 		.ascii	"prev != ipr\000"
 149      20213D20 
 149      69707200 
 150              		.align	2
 151              	.LC1:
 152 000c 70726576 		.ascii	"prev->next == ipr\000"
 152      2D3E6E65 
 152      7874203D 
 152      3D206970 
 152      7200
 153 001e 0000     		.align	2
 154              	.LC2:
 155 0020 70627566 		.ascii	"pbufs_freed + clen <= 0xffff\000"
 155      735F6672 
 155      65656420 
 155      2B20636C 
 155      656E203C 
 156 003d 000000   		.align	2
 157              	.LC3:
ARM GAS  C:\Users\Luis\AppData\Local\Temp\ccVuDqaU.s 			page 4


 158 0040 69705F72 		.ascii	"ip_reass_pbufcount >= clen\000"
 158      65617373 
 158      5F706275 
 158      66636F75 
 158      6E74203E 
 159              		.section	.text.ip_reass_free_complete_datagram,"ax",%progbits
 160              		.align	2
 161              		.p2align 4,,15
 162              		.thumb
 163              		.thumb_func
 164              		.type	ip_reass_free_complete_datagram, %function
 165              	ip_reass_free_complete_datagram:
 166              	.LFB261:
 167              		.loc 2 159 0
 168              		.cfi_startproc
 169              		@ args = 0, pretend = 0, frame = 32
 170              		@ frame_needed = 1, uses_anonymous_args = 0
 171 0000 80B5     		push	{r7, lr}
 172              		.cfi_def_cfa_offset 8
 173              		.cfi_offset 7, -8
 174              		.cfi_offset 14, -4
 175 0002 88B0     		sub	sp, sp, #32
 176              		.cfi_def_cfa_offset 40
 177 0004 00AF     		add	r7, sp, #0
 178              		.cfi_def_cfa_register 7
 179 0006 7860     		str	r0, [r7, #4]
 180 0008 3960     		str	r1, [r7]
 181              		.loc 2 160 0
 182 000a 0023     		movs	r3, #0
 183 000c FB83     		strh	r3, [r7, #30]	@ movhi
 184              		.loc 2 165 0
 185 000e 3A68     		ldr	r2, [r7]
 186 0010 7B68     		ldr	r3, [r7, #4]
 187 0012 9A42     		cmp	r2, r3
 188 0014 02D1     		bne	.L9
 189              		.loc 2 165 0 is_stmt 0 discriminator 1
 190 0016 3F48     		ldr	r0, .L18
 191 0018 FFF7FEFF 		bl	osalSysHalt
 192              	.L9:
 193              		.loc 2 166 0 is_stmt 1
 194 001c 3B68     		ldr	r3, [r7]
 195 001e 002B     		cmp	r3, #0
 196 0020 07D0     		beq	.L10
 197              		.loc 2 167 0
 198 0022 3B68     		ldr	r3, [r7]
 199 0024 1A68     		ldr	r2, [r3]
 200 0026 7B68     		ldr	r3, [r7, #4]
 201 0028 9A42     		cmp	r2, r3
 202 002a 02D0     		beq	.L10
 203              		.loc 2 167 0 is_stmt 0 discriminator 1
 204 002c 3A48     		ldr	r0, .L18+4
 205 002e FFF7FEFF 		bl	osalSysHalt
 206              	.L10:
 207              		.loc 2 172 0 is_stmt 1
 208 0032 7B68     		ldr	r3, [r7, #4]
 209 0034 5B68     		ldr	r3, [r3, #4]
 210 0036 5B68     		ldr	r3, [r3, #4]
ARM GAS  C:\Users\Luis\AppData\Local\Temp\ccVuDqaU.s 			page 5


 211 0038 7B61     		str	r3, [r7, #20]
 212              		.loc 2 173 0
 213 003a 7B69     		ldr	r3, [r7, #20]
 214 003c 9B88     		ldrh	r3, [r3, #4]	@ unaligned
 215 003e 9BB2     		uxth	r3, r3
 216 0040 002B     		cmp	r3, #0
 217 0042 29D1     		bne	.L11
 218              		.loc 2 176 0
 219 0044 7B68     		ldr	r3, [r7, #4]
 220 0046 5B68     		ldr	r3, [r3, #4]
 221 0048 BB61     		str	r3, [r7, #24]
 222              		.loc 2 177 0
 223 004a 7B69     		ldr	r3, [r7, #20]
 224 004c 1A68     		ldr	r2, [r3]	@ unaligned
 225 004e 7B68     		ldr	r3, [r7, #4]
 226 0050 5A60     		str	r2, [r3, #4]
 227              		.loc 2 179 0
 228 0052 BB69     		ldr	r3, [r7, #24]
 229 0054 5A68     		ldr	r2, [r3, #4]
 230 0056 7B68     		ldr	r3, [r7, #4]
 231 0058 0833     		adds	r3, r3, #8
 232 005a 1046     		mov	r0, r2
 233 005c 1946     		mov	r1, r3
 234 005e 1422     		movs	r2, #20
 235 0060 FFF7FEFF 		bl	memcpy
 236              		.loc 2 180 0
 237 0064 B869     		ldr	r0, [r7, #24]
 238 0066 0121     		movs	r1, #1
 239 0068 FFF7FEFF 		bl	icmp_time_exceeded
 240              		.loc 2 181 0
 241 006c B869     		ldr	r0, [r7, #24]
 242 006e FFF7FEFF 		bl	pbuf_clen
 243 0072 0346     		mov	r3, r0
 244 0074 FB74     		strb	r3, [r7, #19]
 245              		.loc 2 182 0
 246 0076 FA8B     		ldrh	r2, [r7, #30]
 247 0078 FB7C     		ldrb	r3, [r7, #19]	@ zero_extendqisi2
 248 007a 1344     		add	r3, r3, r2
 249 007c B3F5803F 		cmp	r3, #65536
 250 0080 02DB     		blt	.L12
 251              		.loc 2 182 0 is_stmt 0 discriminator 1
 252 0082 2648     		ldr	r0, .L18+8
 253 0084 FFF7FEFF 		bl	osalSysHalt
 254              	.L12:
 255              		.loc 2 183 0 is_stmt 1
 256 0088 FB7C     		ldrb	r3, [r7, #19]	@ zero_extendqisi2
 257 008a 9AB2     		uxth	r2, r3
 258 008c FB8B     		ldrh	r3, [r7, #30]	@ movhi
 259 008e 1344     		add	r3, r3, r2
 260 0090 FB83     		strh	r3, [r7, #30]	@ movhi
 261              		.loc 2 184 0
 262 0092 B869     		ldr	r0, [r7, #24]
 263 0094 FFF7FEFF 		bl	pbuf_free
 264              	.L11:
 265              		.loc 2 190 0
 266 0098 7B68     		ldr	r3, [r7, #4]
 267 009a 5B68     		ldr	r3, [r3, #4]
ARM GAS  C:\Users\Luis\AppData\Local\Temp\ccVuDqaU.s 			page 6


 268 009c BB61     		str	r3, [r7, #24]
 269              		.loc 2 191 0
 270 009e 1DE0     		b	.L13
 271              	.L15:
 272              	.LBB3:
 273              		.loc 2 193 0
 274 00a0 BB69     		ldr	r3, [r7, #24]
 275 00a2 5B68     		ldr	r3, [r3, #4]
 276 00a4 7B61     		str	r3, [r7, #20]
 277              		.loc 2 194 0
 278 00a6 BB69     		ldr	r3, [r7, #24]
 279 00a8 FB60     		str	r3, [r7, #12]
 280              		.loc 2 196 0
 281 00aa 7B69     		ldr	r3, [r7, #20]
 282 00ac 1B68     		ldr	r3, [r3]	@ unaligned
 283 00ae BB61     		str	r3, [r7, #24]
 284              		.loc 2 197 0
 285 00b0 F868     		ldr	r0, [r7, #12]
 286 00b2 FFF7FEFF 		bl	pbuf_clen
 287 00b6 0346     		mov	r3, r0
 288 00b8 FB74     		strb	r3, [r7, #19]
 289              		.loc 2 198 0
 290 00ba FA8B     		ldrh	r2, [r7, #30]
 291 00bc FB7C     		ldrb	r3, [r7, #19]	@ zero_extendqisi2
 292 00be 1344     		add	r3, r3, r2
 293 00c0 B3F5803F 		cmp	r3, #65536
 294 00c4 02DB     		blt	.L14
 295              		.loc 2 198 0 is_stmt 0 discriminator 1
 296 00c6 1548     		ldr	r0, .L18+8
 297 00c8 FFF7FEFF 		bl	osalSysHalt
 298              	.L14:
 299              		.loc 2 199 0 is_stmt 1
 300 00cc FB7C     		ldrb	r3, [r7, #19]	@ zero_extendqisi2
 301 00ce 9AB2     		uxth	r2, r3
 302 00d0 FB8B     		ldrh	r3, [r7, #30]	@ movhi
 303 00d2 1344     		add	r3, r3, r2
 304 00d4 FB83     		strh	r3, [r7, #30]	@ movhi
 305              		.loc 2 200 0
 306 00d6 F868     		ldr	r0, [r7, #12]
 307 00d8 FFF7FEFF 		bl	pbuf_free
 308              	.L13:
 309              	.LBE3:
 310              		.loc 2 191 0 discriminator 1
 311 00dc BB69     		ldr	r3, [r7, #24]
 312 00de 002B     		cmp	r3, #0
 313 00e0 DED1     		bne	.L15
 314              		.loc 2 203 0
 315 00e2 7868     		ldr	r0, [r7, #4]
 316 00e4 3968     		ldr	r1, [r7]
 317 00e6 FFF7FEFF 		bl	ip_reass_dequeue_datagram
 318              		.loc 2 204 0
 319 00ea 0D4B     		ldr	r3, .L18+12
 320 00ec 1B88     		ldrh	r3, [r3]
 321 00ee FA8B     		ldrh	r2, [r7, #30]
 322 00f0 9A42     		cmp	r2, r3
 323 00f2 02D9     		bls	.L16
 324              		.loc 2 204 0 is_stmt 0 discriminator 1
ARM GAS  C:\Users\Luis\AppData\Local\Temp\ccVuDqaU.s 			page 7


 325 00f4 0B48     		ldr	r0, .L18+16
 326 00f6 FFF7FEFF 		bl	osalSysHalt
 327              	.L16:
 328              		.loc 2 205 0 is_stmt 1
 329 00fa 094B     		ldr	r3, .L18+12
 330 00fc 1A88     		ldrh	r2, [r3]
 331 00fe FB8B     		ldrh	r3, [r7, #30]	@ movhi
 332 0100 D31A     		subs	r3, r2, r3
 333 0102 9AB2     		uxth	r2, r3
 334 0104 064B     		ldr	r3, .L18+12
 335 0106 1A80     		strh	r2, [r3]	@ movhi
 336              		.loc 2 207 0
 337 0108 FB8B     		ldrh	r3, [r7, #30]
 338              		.loc 2 208 0
 339 010a 1846     		mov	r0, r3
 340 010c 2037     		adds	r7, r7, #32
 341 010e BD46     		mov	sp, r7
 342              		@ sp needed
 343 0110 80BD     		pop	{r7, pc}
 344              	.L19:
 345 0112 00BF     		.align	2
 346              	.L18:
 347 0114 00000000 		.word	.LC0
 348 0118 0C000000 		.word	.LC1
 349 011c 20000000 		.word	.LC2
 350 0120 00000000 		.word	ip_reass_pbufcount
 351 0124 40000000 		.word	.LC3
 352              		.cfi_endproc
 353              	.LFE261:
 354              		.size	ip_reass_free_complete_datagram, .-ip_reass_free_complete_datagram
 355 0128 AFF30080 		.section	.text.ip_reass_remove_oldest_datagram,"ax",%progbits
 355      AFF30080 
 356              		.align	2
 357              		.p2align 4,,15
 358              		.thumb
 359              		.thumb_func
 360              		.type	ip_reass_remove_oldest_datagram, %function
 361              	ip_reass_remove_oldest_datagram:
 362              	.LFB262:
 363              		.loc 2 222 0
 364              		.cfi_startproc
 365              		@ args = 0, pretend = 0, frame = 32
 366              		@ frame_needed = 1, uses_anonymous_args = 0
 367 0000 80B5     		push	{r7, lr}
 368              		.cfi_def_cfa_offset 8
 369              		.cfi_offset 7, -8
 370              		.cfi_offset 14, -4
 371 0002 88B0     		sub	sp, sp, #32
 372              		.cfi_def_cfa_offset 40
 373 0004 00AF     		add	r7, sp, #0
 374              		.cfi_def_cfa_register 7
 375 0006 7860     		str	r0, [r7, #4]
 376 0008 3960     		str	r1, [r7]
 377              		.loc 2 227 0
 378 000a 0023     		movs	r3, #0
 379 000c 3B61     		str	r3, [r7, #16]
 380              	.L29:
ARM GAS  C:\Users\Luis\AppData\Local\Temp\ccVuDqaU.s 			page 8


 381              		.loc 2 233 0
 382 000e 0023     		movs	r3, #0
 383 0010 BB61     		str	r3, [r7, #24]
 384              		.loc 2 234 0
 385 0012 0023     		movs	r3, #0
 386 0014 7B61     		str	r3, [r7, #20]
 387              		.loc 2 235 0
 388 0016 0023     		movs	r3, #0
 389 0018 FB60     		str	r3, [r7, #12]
 390              		.loc 2 236 0
 391 001a 264B     		ldr	r3, .L31
 392 001c 1B68     		ldr	r3, [r3]
 393 001e FB61     		str	r3, [r7, #28]
 394              		.loc 2 237 0
 395 0020 2CE0     		b	.L21
 396              	.L26:
 397              		.loc 2 238 0
 398 0022 FB69     		ldr	r3, [r7, #28]
 399 0024 5A69     		ldr	r2, [r3, #20]
 400 0026 7B68     		ldr	r3, [r7, #4]
 401 0028 DB68     		ldr	r3, [r3, #12]	@ unaligned
 402 002a 9A42     		cmp	r2, r3
 403 002c 0CD1     		bne	.L22
 404              		.loc 2 238 0 is_stmt 0 discriminator 1
 405 002e FB69     		ldr	r3, [r7, #28]
 406 0030 9A69     		ldr	r2, [r3, #24]
 407 0032 7B68     		ldr	r3, [r7, #4]
 408 0034 1B69     		ldr	r3, [r3, #16]	@ unaligned
 409 0036 9A42     		cmp	r2, r3
 410 0038 06D1     		bne	.L22
 411 003a FB69     		ldr	r3, [r7, #28]
 412 003c 9A89     		ldrh	r2, [r3, #12]
 413 003e 7B68     		ldr	r3, [r7, #4]
 414 0040 9B88     		ldrh	r3, [r3, #4]	@ unaligned
 415 0042 9BB2     		uxth	r3, r3
 416 0044 9A42     		cmp	r2, r3
 417 0046 10D0     		beq	.L23
 418              	.L22:
 419              		.loc 2 240 0 is_stmt 1
 420 0048 FB68     		ldr	r3, [r7, #12]
 421 004a 0133     		adds	r3, r3, #1
 422 004c FB60     		str	r3, [r7, #12]
 423              		.loc 2 241 0
 424 004e BB69     		ldr	r3, [r7, #24]
 425 0050 002B     		cmp	r3, #0
 426 0052 02D1     		bne	.L24
 427              		.loc 2 242 0
 428 0054 FB69     		ldr	r3, [r7, #28]
 429 0056 BB61     		str	r3, [r7, #24]
 430 0058 07E0     		b	.L23
 431              	.L24:
 432              		.loc 2 243 0
 433 005a FB69     		ldr	r3, [r7, #28]
 434 005c DA7F     		ldrb	r2, [r3, #31]	@ zero_extendqisi2
 435 005e BB69     		ldr	r3, [r7, #24]
 436 0060 DB7F     		ldrb	r3, [r3, #31]	@ zero_extendqisi2
 437 0062 9A42     		cmp	r2, r3
ARM GAS  C:\Users\Luis\AppData\Local\Temp\ccVuDqaU.s 			page 9


 438 0064 01D8     		bhi	.L23
 439              		.loc 2 245 0
 440 0066 FB69     		ldr	r3, [r7, #28]
 441 0068 BB61     		str	r3, [r7, #24]
 442              	.L23:
 443              		.loc 2 248 0
 444 006a FB69     		ldr	r3, [r7, #28]
 445 006c 1B68     		ldr	r3, [r3]
 446 006e 002B     		cmp	r3, #0
 447 0070 01D0     		beq	.L25
 448              		.loc 2 249 0
 449 0072 FB69     		ldr	r3, [r7, #28]
 450 0074 7B61     		str	r3, [r7, #20]
 451              	.L25:
 452              		.loc 2 251 0
 453 0076 FB69     		ldr	r3, [r7, #28]
 454 0078 1B68     		ldr	r3, [r3]
 455 007a FB61     		str	r3, [r7, #28]
 456              	.L21:
 457              		.loc 2 237 0 discriminator 1
 458 007c FB69     		ldr	r3, [r7, #28]
 459 007e 002B     		cmp	r3, #0
 460 0080 CFD1     		bne	.L26
 461              		.loc 2 253 0
 462 0082 BB69     		ldr	r3, [r7, #24]
 463 0084 002B     		cmp	r3, #0
 464 0086 08D0     		beq	.L27
 465              		.loc 2 254 0
 466 0088 B869     		ldr	r0, [r7, #24]
 467 008a 7969     		ldr	r1, [r7, #20]
 468 008c FFF7FEFF 		bl	ip_reass_free_complete_datagram
 469 0090 B860     		str	r0, [r7, #8]
 470              		.loc 2 255 0
 471 0092 3A69     		ldr	r2, [r7, #16]
 472 0094 BB68     		ldr	r3, [r7, #8]
 473 0096 1344     		add	r3, r3, r2
 474 0098 3B61     		str	r3, [r7, #16]
 475              	.L27:
 476              		.loc 2 257 0
 477 009a 3A69     		ldr	r2, [r7, #16]
 478 009c 3B68     		ldr	r3, [r7]
 479 009e 9A42     		cmp	r2, r3
 480 00a0 02DA     		bge	.L28
 481              		.loc 2 257 0 is_stmt 0 discriminator 1
 482 00a2 FB68     		ldr	r3, [r7, #12]
 483 00a4 012B     		cmp	r3, #1
 484 00a6 B2DC     		bgt	.L29
 485              	.L28:
 486              		.loc 2 258 0 is_stmt 1
 487 00a8 3B69     		ldr	r3, [r7, #16]
 488              		.loc 2 259 0
 489 00aa 1846     		mov	r0, r3
 490 00ac 2037     		adds	r7, r7, #32
 491 00ae BD46     		mov	sp, r7
 492              		@ sp needed
 493 00b0 80BD     		pop	{r7, pc}
 494              	.L32:
ARM GAS  C:\Users\Luis\AppData\Local\Temp\ccVuDqaU.s 			page 10


 495 00b2 00BF     		.align	2
 496              	.L31:
 497 00b4 00000000 		.word	reassdatagrams
 498              		.cfi_endproc
 499              	.LFE262:
 500              		.size	ip_reass_remove_oldest_datagram, .-ip_reass_remove_oldest_datagram
 501 00b8 AFF30080 		.section	.text.ip_reass_enqueue_new_datagram,"ax",%progbits
 501      AFF30080 
 502              		.align	2
 503              		.p2align 4,,15
 504              		.thumb
 505              		.thumb_func
 506              		.type	ip_reass_enqueue_new_datagram, %function
 507              	ip_reass_enqueue_new_datagram:
 508              	.LFB263:
 509              		.loc 2 270 0
 510              		.cfi_startproc
 511              		@ args = 0, pretend = 0, frame = 16
 512              		@ frame_needed = 1, uses_anonymous_args = 0
 513 0000 80B5     		push	{r7, lr}
 514              		.cfi_def_cfa_offset 8
 515              		.cfi_offset 7, -8
 516              		.cfi_offset 14, -4
 517 0002 84B0     		sub	sp, sp, #16
 518              		.cfi_def_cfa_offset 24
 519 0004 00AF     		add	r7, sp, #0
 520              		.cfi_def_cfa_register 7
 521 0006 7860     		str	r0, [r7, #4]
 522 0008 3960     		str	r1, [r7]
 523              		.loc 2 273 0
 524 000a 0520     		movs	r0, #5
 525 000c FFF7FEFF 		bl	memp_malloc
 526 0010 F860     		str	r0, [r7, #12]
 527              		.loc 2 274 0
 528 0012 FB68     		ldr	r3, [r7, #12]
 529 0014 002B     		cmp	r3, #0
 530 0016 16D1     		bne	.L34
 531              		.loc 2 276 0
 532 0018 7868     		ldr	r0, [r7, #4]
 533 001a 3968     		ldr	r1, [r7]
 534 001c FFF7FEFF 		bl	ip_reass_remove_oldest_datagram
 535 0020 0246     		mov	r2, r0
 536 0022 3B68     		ldr	r3, [r7]
 537 0024 9A42     		cmp	r2, r3
 538 0026 03DB     		blt	.L35
 539              		.loc 2 277 0
 540 0028 0520     		movs	r0, #5
 541 002a FFF7FEFF 		bl	memp_malloc
 542 002e F860     		str	r0, [r7, #12]
 543              	.L35:
 544              		.loc 2 279 0
 545 0030 FB68     		ldr	r3, [r7, #12]
 546 0032 002B     		cmp	r3, #0
 547 0034 07D1     		bne	.L34
 548              		.loc 2 282 0
 549 0036 114B     		ldr	r3, .L37
 550 0038 9B8F     		ldrh	r3, [r3, #60]
ARM GAS  C:\Users\Luis\AppData\Local\Temp\ccVuDqaU.s 			page 11


 551 003a 0133     		adds	r3, r3, #1
 552 003c 9AB2     		uxth	r2, r3
 553 003e 0F4B     		ldr	r3, .L37
 554 0040 9A87     		strh	r2, [r3, #60]	@ movhi
 555              		.loc 2 284 0
 556 0042 0023     		movs	r3, #0
 557 0044 16E0     		b	.L36
 558              	.L34:
 559              		.loc 2 287 0
 560 0046 F868     		ldr	r0, [r7, #12]
 561 0048 0021     		movs	r1, #0
 562 004a 2022     		movs	r2, #32
 563 004c FFF7FEFF 		bl	memset
 564              		.loc 2 288 0
 565 0050 FB68     		ldr	r3, [r7, #12]
 566 0052 0322     		movs	r2, #3
 567 0054 DA77     		strb	r2, [r3, #31]
 568              		.loc 2 291 0
 569 0056 0A4B     		ldr	r3, .L37+4
 570 0058 1A68     		ldr	r2, [r3]
 571 005a FB68     		ldr	r3, [r7, #12]
 572 005c 1A60     		str	r2, [r3]
 573              		.loc 2 292 0
 574 005e 084B     		ldr	r3, .L37+4
 575 0060 FA68     		ldr	r2, [r7, #12]
 576 0062 1A60     		str	r2, [r3]
 577              		.loc 2 295 0
 578 0064 FB68     		ldr	r3, [r7, #12]
 579 0066 0833     		adds	r3, r3, #8
 580 0068 1846     		mov	r0, r3
 581 006a 7968     		ldr	r1, [r7, #4]
 582 006c 1422     		movs	r2, #20
 583 006e FFF7FEFF 		bl	memcpy
 584              		.loc 2 296 0
 585 0072 FB68     		ldr	r3, [r7, #12]
 586              	.L36:
 587              		.loc 2 297 0
 588 0074 1846     		mov	r0, r3
 589 0076 1037     		adds	r7, r7, #16
 590 0078 BD46     		mov	sp, r7
 591              		@ sp needed
 592 007a 80BD     		pop	{r7, pc}
 593              	.L38:
 594              		.align	2
 595              	.L37:
 596 007c 00000000 		.word	lwip_stats
 597 0080 00000000 		.word	reassdatagrams
 598              		.cfi_endproc
 599              	.LFE263:
 600              		.size	ip_reass_enqueue_new_datagram, .-ip_reass_enqueue_new_datagram
 601 0084 AFF30080 		.section	.rodata
 601      AFF30080 
 601      AFF30080 
 602 005b 00       		.align	2
 603              	.LC4:
 604 005c 73616E69 		.ascii	"sanity check linked list\000"
 604      74792063 
ARM GAS  C:\Users\Luis\AppData\Local\Temp\ccVuDqaU.s 			page 12


 604      6865636B 
 604      206C696E 
 604      6B656420 
 605              		.section	.text.ip_reass_dequeue_datagram,"ax",%progbits
 606              		.align	2
 607              		.p2align 4,,15
 608              		.thumb
 609              		.thumb_func
 610              		.type	ip_reass_dequeue_datagram, %function
 611              	ip_reass_dequeue_datagram:
 612              	.LFB264:
 613              		.loc 2 305 0
 614              		.cfi_startproc
 615              		@ args = 0, pretend = 0, frame = 8
 616              		@ frame_needed = 1, uses_anonymous_args = 0
 617 0000 80B5     		push	{r7, lr}
 618              		.cfi_def_cfa_offset 8
 619              		.cfi_offset 7, -8
 620              		.cfi_offset 14, -4
 621 0002 82B0     		sub	sp, sp, #8
 622              		.cfi_def_cfa_offset 16
 623 0004 00AF     		add	r7, sp, #0
 624              		.cfi_def_cfa_register 7
 625 0006 7860     		str	r0, [r7, #4]
 626 0008 3960     		str	r1, [r7]
 627              		.loc 2 308 0
 628 000a 0D4B     		ldr	r3, .L43
 629 000c 1A68     		ldr	r2, [r3]
 630 000e 7B68     		ldr	r3, [r7, #4]
 631 0010 9A42     		cmp	r2, r3
 632 0012 04D1     		bne	.L40
 633              		.loc 2 310 0
 634 0014 7B68     		ldr	r3, [r7, #4]
 635 0016 1A68     		ldr	r2, [r3]
 636 0018 094B     		ldr	r3, .L43
 637 001a 1A60     		str	r2, [r3]
 638 001c 09E0     		b	.L41
 639              	.L40:
 640              		.loc 2 313 0
 641 001e 3B68     		ldr	r3, [r7]
 642 0020 002B     		cmp	r3, #0
 643 0022 02D1     		bne	.L42
 644              		.loc 2 313 0 is_stmt 0 discriminator 1
 645 0024 0748     		ldr	r0, .L43+4
 646 0026 FFF7FEFF 		bl	osalSysHalt
 647              	.L42:
 648              		.loc 2 314 0 is_stmt 1
 649 002a 7B68     		ldr	r3, [r7, #4]
 650 002c 1A68     		ldr	r2, [r3]
 651 002e 3B68     		ldr	r3, [r7]
 652 0030 1A60     		str	r2, [r3]
 653              	.L41:
 654              		.loc 2 318 0
 655 0032 0520     		movs	r0, #5
 656 0034 7968     		ldr	r1, [r7, #4]
 657 0036 FFF7FEFF 		bl	memp_free
 658              		.loc 2 319 0
ARM GAS  C:\Users\Luis\AppData\Local\Temp\ccVuDqaU.s 			page 13


 659 003a 0837     		adds	r7, r7, #8
 660 003c BD46     		mov	sp, r7
 661              		@ sp needed
 662 003e 80BD     		pop	{r7, pc}
 663              	.L44:
 664              		.align	2
 665              	.L43:
 666 0040 00000000 		.word	reassdatagrams
 667 0044 5C000000 		.word	.LC4
 668              		.cfi_endproc
 669              	.LFE264:
 670              		.size	ip_reass_dequeue_datagram, .-ip_reass_dequeue_datagram
 671 0048 AFF30080 		.section	.rodata
 671      AFF30080 
 672 0075 000000   		.align	2
 673              	.LC5:
 674 0078 63686563 		.ascii	"check fragments don't overlap\000"
 674      6B206672 
 674      61676D65 
 674      6E747320 
 674      646F6E27 
 675 0096 0000     		.align	2
 676              	.LC6:
 677 0098 6E6F2070 		.ascii	"no previous fragment, this must be the first fragme"
 677      72657669 
 677      6F757320 
 677      66726167 
 677      6D656E74 
 678 00cb 6E742100 		.ascii	"nt!\000"
 679 00cf 00       		.align	2
 680              	.LC7:
 681 00d0 73616E69 		.ascii	"sanity check\000"
 681      74792063 
 681      6865636B 
 681      00
 682 00dd 000000   		.align	2
 683              	.LC8:
 684 00e0 76616C69 		.ascii	"validate_datagram:next_pbuf!=NULL\000"
 684      64617465 
 684      5F646174 
 684      61677261 
 684      6D3A6E65 
 685 0102 0000     		.align	2
 686              	.LC9:
 687 0104 76616C69 		.ascii	"validate_datagram:datagram end!=datagram len\000"
 687      64617465 
 687      5F646174 
 687      61677261 
 687      6D3A6461 
 688              		.section	.text.ip_reass_chain_frag_into_datagram_and_validate,"ax",%progbits
 689              		.align	2
 690              		.p2align 4,,15
 691              		.thumb
 692              		.thumb_func
 693              		.type	ip_reass_chain_frag_into_datagram_and_validate, %function
 694              	ip_reass_chain_frag_into_datagram_and_validate:
 695              	.LFB265:
ARM GAS  C:\Users\Luis\AppData\Local\Temp\ccVuDqaU.s 			page 14


 696              		.loc 2 332 0
 697              		.cfi_startproc
 698              		@ args = 0, pretend = 0, frame = 40
 699              		@ frame_needed = 1, uses_anonymous_args = 0
 700 0000 90B5     		push	{r4, r7, lr}
 701              		.cfi_def_cfa_offset 12
 702              		.cfi_offset 4, -12
 703              		.cfi_offset 7, -8
 704              		.cfi_offset 14, -4
 705 0002 8BB0     		sub	sp, sp, #44
 706              		.cfi_def_cfa_offset 56
 707 0004 00AF     		add	r7, sp, #0
 708              		.cfi_def_cfa_register 7
 709 0006 7860     		str	r0, [r7, #4]
 710 0008 3960     		str	r1, [r7]
 711              		.loc 2 333 0
 712 000a 0023     		movs	r3, #0
 713 000c 3B62     		str	r3, [r7, #32]
 714              		.loc 2 337 0
 715 000e 0123     		movs	r3, #1
 716 0010 BB61     		str	r3, [r7, #24]
 717              		.loc 2 340 0
 718 0012 3B68     		ldr	r3, [r7]
 719 0014 5B68     		ldr	r3, [r3, #4]
 720 0016 7B61     		str	r3, [r7, #20]
 721              		.loc 2 341 0
 722 0018 7B69     		ldr	r3, [r7, #20]
 723 001a 5B88     		ldrh	r3, [r3, #2]	@ unaligned
 724 001c 9BB2     		uxth	r3, r3
 725 001e 1846     		mov	r0, r3
 726 0020 FFF7FEFF 		bl	lwip_ntohs
 727 0024 0346     		mov	r3, r0
 728 0026 1A46     		mov	r2, r3
 729 0028 7B69     		ldr	r3, [r7, #20]
 730 002a 1B78     		ldrb	r3, [r3]	@ zero_extendqisi2
 731 002c 03F00F03 		and	r3, r3, #15
 732 0030 9BB2     		uxth	r3, r3
 733 0032 1946     		mov	r1, r3	@ movhi
 734 0034 8903     		lsls	r1, r1, #14
 735 0036 CB1A     		subs	r3, r1, r3
 736 0038 9B00     		lsls	r3, r3, #2
 737 003a 9BB2     		uxth	r3, r3
 738 003c 1344     		add	r3, r3, r2
 739 003e 7B82     		strh	r3, [r7, #18]	@ movhi
 740              		.loc 2 342 0
 741 0040 7B69     		ldr	r3, [r7, #20]
 742 0042 DB88     		ldrh	r3, [r3, #6]	@ unaligned
 743 0044 9BB2     		uxth	r3, r3
 744 0046 1846     		mov	r0, r3
 745 0048 FFF7FEFF 		bl	lwip_ntohs
 746 004c 0346     		mov	r3, r0
 747 004e C3F30C03 		ubfx	r3, r3, #0, #13
 748 0052 9BB2     		uxth	r3, r3
 749 0054 DB00     		lsls	r3, r3, #3
 750 0056 3B82     		strh	r3, [r7, #16]	@ movhi
 751              		.loc 2 349 0
 752 0058 3B68     		ldr	r3, [r7]
ARM GAS  C:\Users\Luis\AppData\Local\Temp\ccVuDqaU.s 			page 15


 753 005a 5B68     		ldr	r3, [r3, #4]
 754 005c 7B62     		str	r3, [r7, #36]
 755              		.loc 2 350 0
 756 005e 7B6A     		ldr	r3, [r7, #36]
 757 0060 0022     		movs	r2, #0
 758 0062 1A70     		strb	r2, [r3]
 759 0064 0022     		movs	r2, #0
 760 0066 5A70     		strb	r2, [r3, #1]
 761 0068 0022     		movs	r2, #0
 762 006a 9A70     		strb	r2, [r3, #2]
 763 006c 0022     		movs	r2, #0
 764 006e DA70     		strb	r2, [r3, #3]
 765              		.loc 2 351 0
 766 0070 7B6A     		ldr	r3, [r7, #36]
 767 0072 3A8A     		ldrh	r2, [r7, #16]	@ movhi
 768 0074 9A80     		strh	r2, [r3, #4]	@ unaligned
 769              		.loc 2 352 0
 770 0076 3A8A     		ldrh	r2, [r7, #16]	@ movhi
 771 0078 7B8A     		ldrh	r3, [r7, #18]	@ movhi
 772 007a 1344     		add	r3, r3, r2
 773 007c 9AB2     		uxth	r2, r3
 774 007e 7B6A     		ldr	r3, [r7, #36]
 775 0080 DA80     		strh	r2, [r3, #6]	@ unaligned
 776              		.loc 2 356 0
 777 0082 7B68     		ldr	r3, [r7, #4]
 778 0084 5B68     		ldr	r3, [r3, #4]
 779 0086 FB61     		str	r3, [r7, #28]
 780 0088 4EE0     		b	.L46
 781              	.L55:
 782              		.loc 2 357 0
 783 008a FB69     		ldr	r3, [r7, #28]
 784 008c 5B68     		ldr	r3, [r3, #4]
 785 008e FB60     		str	r3, [r7, #12]
 786              		.loc 2 358 0
 787 0090 7B6A     		ldr	r3, [r7, #36]
 788 0092 9B88     		ldrh	r3, [r3, #4]	@ unaligned
 789 0094 9AB2     		uxth	r2, r3
 790 0096 FB68     		ldr	r3, [r7, #12]
 791 0098 9B88     		ldrh	r3, [r3, #4]	@ unaligned
 792 009a 9BB2     		uxth	r3, r3
 793 009c 9A42     		cmp	r2, r3
 794 009e 1FD2     		bcs	.L47
 795              		.loc 2 360 0
 796 00a0 7B6A     		ldr	r3, [r7, #36]
 797 00a2 FA69     		ldr	r2, [r7, #28]
 798 00a4 1A60     		str	r2, [r3]	@ unaligned
 799              		.loc 2 361 0
 800 00a6 3B6A     		ldr	r3, [r7, #32]
 801 00a8 002B     		cmp	r3, #0
 802 00aa 15D0     		beq	.L48
 803              		.loc 2 364 0
 804 00ac 7B6A     		ldr	r3, [r7, #36]
 805 00ae 9B88     		ldrh	r3, [r3, #4]	@ unaligned
 806 00b0 9AB2     		uxth	r2, r3
 807 00b2 3B6A     		ldr	r3, [r7, #32]
 808 00b4 DB88     		ldrh	r3, [r3, #6]	@ unaligned
 809 00b6 9BB2     		uxth	r3, r3
ARM GAS  C:\Users\Luis\AppData\Local\Temp\ccVuDqaU.s 			page 16


 810 00b8 9A42     		cmp	r2, r3
 811 00ba C0F0B880 		bcc	.L49
 812              		.loc 2 364 0 is_stmt 0 discriminator 1
 813 00be 7B6A     		ldr	r3, [r7, #36]
 814 00c0 DB88     		ldrh	r3, [r3, #6]	@ unaligned
 815 00c2 9AB2     		uxth	r2, r3
 816 00c4 FB68     		ldr	r3, [r7, #12]
 817 00c6 9B88     		ldrh	r3, [r3, #4]	@ unaligned
 818 00c8 9BB2     		uxth	r3, r3
 819 00ca 9A42     		cmp	r2, r3
 820 00cc 00F2AF80 		bhi	.L49
 821              		.loc 2 369 0 is_stmt 1
 822 00d0 3B6A     		ldr	r3, [r7, #32]
 823 00d2 3A68     		ldr	r2, [r7]
 824 00d4 1A60     		str	r2, [r3]	@ unaligned
 825              		.loc 2 374 0
 826 00d6 2AE0     		b	.L51
 827              	.L48:
 828              		.loc 2 372 0
 829 00d8 7B68     		ldr	r3, [r7, #4]
 830 00da 3A68     		ldr	r2, [r7]
 831 00dc 5A60     		str	r2, [r3, #4]
 832              		.loc 2 374 0
 833 00de 26E0     		b	.L51
 834              	.L47:
 835              		.loc 2 375 0
 836 00e0 7B6A     		ldr	r3, [r7, #36]
 837 00e2 9B88     		ldrh	r3, [r3, #4]	@ unaligned
 838 00e4 9AB2     		uxth	r2, r3
 839 00e6 FB68     		ldr	r3, [r7, #12]
 840 00e8 9B88     		ldrh	r3, [r3, #4]	@ unaligned
 841 00ea 9BB2     		uxth	r3, r3
 842 00ec 9A42     		cmp	r2, r3
 843 00ee 00D1     		bne	.L52
 844              		.loc 2 377 0
 845 00f0 9DE0     		b	.L49
 846              	.L52:
 847              		.loc 2 379 0
 848 00f2 7B6A     		ldr	r3, [r7, #36]
 849 00f4 9B88     		ldrh	r3, [r3, #4]	@ unaligned
 850 00f6 9AB2     		uxth	r2, r3
 851 00f8 FB68     		ldr	r3, [r7, #12]
 852 00fa DB88     		ldrh	r3, [r3, #6]	@ unaligned
 853 00fc 9BB2     		uxth	r3, r3
 854 00fe 9A42     		cmp	r2, r3
 855 0100 00D2     		bcs	.L53
 856              		.loc 2 381 0
 857 0102 94E0     		b	.L49
 858              	.L53:
 859              		.loc 2 385 0
 860 0104 3B6A     		ldr	r3, [r7, #32]
 861 0106 002B     		cmp	r3, #0
 862 0108 09D0     		beq	.L54
 863              		.loc 2 386 0
 864 010a 3B6A     		ldr	r3, [r7, #32]
 865 010c DB88     		ldrh	r3, [r3, #6]	@ unaligned
 866 010e 9AB2     		uxth	r2, r3
ARM GAS  C:\Users\Luis\AppData\Local\Temp\ccVuDqaU.s 			page 17


 867 0110 FB68     		ldr	r3, [r7, #12]
 868 0112 9B88     		ldrh	r3, [r3, #4]	@ unaligned
 869 0114 9BB2     		uxth	r3, r3
 870 0116 9A42     		cmp	r2, r3
 871 0118 01D0     		beq	.L54
 872              		.loc 2 389 0
 873 011a 0023     		movs	r3, #0
 874 011c BB61     		str	r3, [r7, #24]
 875              	.L54:
 876              		.loc 2 393 0
 877 011e FB68     		ldr	r3, [r7, #12]
 878 0120 1B68     		ldr	r3, [r3]	@ unaligned
 879 0122 FB61     		str	r3, [r7, #28]
 880              		.loc 2 394 0
 881 0124 FB68     		ldr	r3, [r7, #12]
 882 0126 3B62     		str	r3, [r7, #32]
 883              	.L46:
 884              		.loc 2 356 0 discriminator 1
 885 0128 FB69     		ldr	r3, [r7, #28]
 886 012a 002B     		cmp	r3, #0
 887 012c ADD1     		bne	.L55
 888              	.L51:
 889              		.loc 2 398 0
 890 012e FB69     		ldr	r3, [r7, #28]
 891 0130 002B     		cmp	r3, #0
 892 0132 25D1     		bne	.L56
 893              		.loc 2 399 0
 894 0134 3B6A     		ldr	r3, [r7, #32]
 895 0136 002B     		cmp	r3, #0
 896 0138 18D0     		beq	.L57
 897              		.loc 2 403 0
 898 013a 3B6A     		ldr	r3, [r7, #32]
 899 013c DB88     		ldrh	r3, [r3, #6]	@ unaligned
 900 013e 9AB2     		uxth	r2, r3
 901 0140 7B6A     		ldr	r3, [r7, #36]
 902 0142 9B88     		ldrh	r3, [r3, #4]	@ unaligned
 903 0144 9BB2     		uxth	r3, r3
 904 0146 9A42     		cmp	r2, r3
 905 0148 02D9     		bls	.L58
 906              		.loc 2 403 0 is_stmt 0 discriminator 1
 907 014a 4248     		ldr	r0, .L72
 908 014c FFF7FEFF 		bl	osalSysHalt
 909              	.L58:
 910              		.loc 2 405 0 is_stmt 1
 911 0150 3B6A     		ldr	r3, [r7, #32]
 912 0152 3A68     		ldr	r2, [r7]
 913 0154 1A60     		str	r2, [r3]	@ unaligned
 914              		.loc 2 406 0
 915 0156 3B6A     		ldr	r3, [r7, #32]
 916 0158 DB88     		ldrh	r3, [r3, #6]	@ unaligned
 917 015a 9AB2     		uxth	r2, r3
 918 015c 7B6A     		ldr	r3, [r7, #36]
 919 015e 9B88     		ldrh	r3, [r3, #4]	@ unaligned
 920 0160 9BB2     		uxth	r3, r3
 921 0162 9A42     		cmp	r2, r3
 922 0164 0CD0     		beq	.L56
 923              		.loc 2 407 0
ARM GAS  C:\Users\Luis\AppData\Local\Temp\ccVuDqaU.s 			page 18


 924 0166 0023     		movs	r3, #0
 925 0168 BB61     		str	r3, [r7, #24]
 926 016a 09E0     		b	.L56
 927              	.L57:
 928              		.loc 2 411 0
 929 016c 7B68     		ldr	r3, [r7, #4]
 930 016e 5B68     		ldr	r3, [r3, #4]
 931 0170 002B     		cmp	r3, #0
 932 0172 02D0     		beq	.L60
 933              		.loc 2 411 0 is_stmt 0 discriminator 1
 934 0174 3848     		ldr	r0, .L72+4
 935 0176 FFF7FEFF 		bl	osalSysHalt
 936              	.L60:
 937              		.loc 2 415 0 is_stmt 1
 938 017a 7B68     		ldr	r3, [r7, #4]
 939 017c 3A68     		ldr	r2, [r7]
 940 017e 5A60     		str	r2, [r3, #4]
 941              	.L56:
 942              		.loc 2 421 0
 943 0180 7B68     		ldr	r3, [r7, #4]
 944 0182 9B7F     		ldrb	r3, [r3, #30]	@ zero_extendqisi2
 945 0184 03F00103 		and	r3, r3, #1
 946 0188 002B     		cmp	r3, #0
 947 018a 4ED0     		beq	.L61
 948              		.loc 2 423 0
 949 018c BB69     		ldr	r3, [r7, #24]
 950 018e 002B     		cmp	r3, #0
 951 0190 49D0     		beq	.L62
 952              		.loc 2 426 0
 953 0192 7B68     		ldr	r3, [r7, #4]
 954 0194 5B68     		ldr	r3, [r3, #4]
 955 0196 5B68     		ldr	r3, [r3, #4]
 956 0198 9B88     		ldrh	r3, [r3, #4]	@ unaligned
 957 019a 9BB2     		uxth	r3, r3
 958 019c 002B     		cmp	r3, #0
 959 019e 02D0     		beq	.L63
 960              		.loc 2 427 0
 961 01a0 0023     		movs	r3, #0
 962 01a2 BB61     		str	r3, [r7, #24]
 963 01a4 3FE0     		b	.L62
 964              	.L63:
 965              		.loc 2 430 0
 966 01a6 7B6A     		ldr	r3, [r7, #36]
 967 01a8 3B62     		str	r3, [r7, #32]
 968              		.loc 2 431 0
 969 01aa 7B6A     		ldr	r3, [r7, #36]
 970 01ac 1B68     		ldr	r3, [r3]	@ unaligned
 971 01ae FB61     		str	r3, [r7, #28]
 972              		.loc 2 432 0
 973 01b0 12E0     		b	.L64
 974              	.L67:
 975              		.loc 2 433 0
 976 01b2 FB69     		ldr	r3, [r7, #28]
 977 01b4 5B68     		ldr	r3, [r3, #4]
 978 01b6 7B62     		str	r3, [r7, #36]
 979              		.loc 2 434 0
 980 01b8 3B6A     		ldr	r3, [r7, #32]
ARM GAS  C:\Users\Luis\AppData\Local\Temp\ccVuDqaU.s 			page 19


 981 01ba DB88     		ldrh	r3, [r3, #6]	@ unaligned
 982 01bc 9AB2     		uxth	r2, r3
 983 01be 7B6A     		ldr	r3, [r7, #36]
 984 01c0 9B88     		ldrh	r3, [r3, #4]	@ unaligned
 985 01c2 9BB2     		uxth	r3, r3
 986 01c4 9A42     		cmp	r2, r3
 987 01c6 02D0     		beq	.L65
 988              		.loc 2 435 0
 989 01c8 0023     		movs	r3, #0
 990 01ca BB61     		str	r3, [r7, #24]
 991              		.loc 2 436 0
 992 01cc 07E0     		b	.L66
 993              	.L65:
 994              		.loc 2 438 0
 995 01ce 7B6A     		ldr	r3, [r7, #36]
 996 01d0 3B62     		str	r3, [r7, #32]
 997              		.loc 2 439 0
 998 01d2 7B6A     		ldr	r3, [r7, #36]
 999 01d4 1B68     		ldr	r3, [r3]	@ unaligned
 1000 01d6 FB61     		str	r3, [r7, #28]
 1001              	.L64:
 1002              		.loc 2 432 0 discriminator 1
 1003 01d8 FB69     		ldr	r3, [r7, #28]
 1004 01da 002B     		cmp	r3, #0
 1005 01dc E9D1     		bne	.L67
 1006              	.L66:
 1007              		.loc 2 443 0
 1008 01de BB69     		ldr	r3, [r7, #24]
 1009 01e0 002B     		cmp	r3, #0
 1010 01e2 20D0     		beq	.L62
 1011              		.loc 2 444 0
 1012 01e4 7B68     		ldr	r3, [r7, #4]
 1013 01e6 5B68     		ldr	r3, [r3, #4]
 1014 01e8 002B     		cmp	r3, #0
 1015 01ea 02D1     		bne	.L68
 1016              		.loc 2 444 0 is_stmt 0 discriminator 1
 1017 01ec 1B48     		ldr	r0, .L72+8
 1018 01ee FFF7FEFF 		bl	osalSysHalt
 1019              	.L68:
 1020              		.loc 2 445 0 is_stmt 1
 1021 01f2 7B68     		ldr	r3, [r7, #4]
 1022 01f4 5B68     		ldr	r3, [r3, #4]
 1023 01f6 5A68     		ldr	r2, [r3, #4]
 1024 01f8 7B6A     		ldr	r3, [r7, #36]
 1025 01fa 9A42     		cmp	r2, r3
 1026 01fc 02D1     		bne	.L69
 1027              		.loc 2 445 0 is_stmt 0 discriminator 1
 1028 01fe 1748     		ldr	r0, .L72+8
 1029 0200 FFF7FEFF 		bl	osalSysHalt
 1030              	.L69:
 1031              		.loc 2 447 0 is_stmt 1
 1032 0204 7B6A     		ldr	r3, [r7, #36]
 1033 0206 1B68     		ldr	r3, [r3]	@ unaligned
 1034 0208 002B     		cmp	r3, #0
 1035 020a 02D0     		beq	.L70
 1036              		.loc 2 447 0 is_stmt 0 discriminator 1
 1037 020c 1448     		ldr	r0, .L72+12
ARM GAS  C:\Users\Luis\AppData\Local\Temp\ccVuDqaU.s 			page 20


 1038 020e FFF7FEFF 		bl	osalSysHalt
 1039              	.L70:
 1040              		.loc 2 449 0 is_stmt 1
 1041 0212 7B6A     		ldr	r3, [r7, #36]
 1042 0214 DB88     		ldrh	r3, [r3, #6]	@ unaligned
 1043 0216 9AB2     		uxth	r2, r3
 1044 0218 7B68     		ldr	r3, [r7, #4]
 1045 021a 9B8B     		ldrh	r3, [r3, #28]
 1046 021c 9A42     		cmp	r2, r3
 1047 021e 02D0     		beq	.L62
 1048              		.loc 2 449 0 is_stmt 0 discriminator 1
 1049 0220 1048     		ldr	r0, .L72+16
 1050 0222 FFF7FEFF 		bl	osalSysHalt
 1051              	.L62:
 1052              		.loc 2 457 0 is_stmt 1
 1053 0226 BB69     		ldr	r3, [r7, #24]
 1054 0228 0FE0     		b	.L71
 1055              	.L61:
 1056              		.loc 2 460 0
 1057 022a 0023     		movs	r3, #0
 1058 022c 0DE0     		b	.L71
 1059              	.L49:
 1060              		.loc 2 463 0
 1061 022e 0E4B     		ldr	r3, .L72+20
 1062 0230 1C88     		ldrh	r4, [r3]
 1063 0232 3868     		ldr	r0, [r7]
 1064 0234 FFF7FEFF 		bl	pbuf_clen
 1065 0238 0346     		mov	r3, r0
 1066 023a E31A     		subs	r3, r4, r3
 1067 023c 9AB2     		uxth	r2, r3
 1068 023e 0A4B     		ldr	r3, .L72+20
 1069 0240 1A80     		strh	r2, [r3]	@ movhi
 1070              		.loc 2 464 0
 1071 0242 3868     		ldr	r0, [r7]
 1072 0244 FFF7FEFF 		bl	pbuf_free
 1073              		.loc 2 465 0
 1074 0248 0023     		movs	r3, #0
 1075              	.L71:
 1076              		.loc 2 467 0
 1077 024a 1846     		mov	r0, r3
 1078 024c 2C37     		adds	r7, r7, #44
 1079 024e BD46     		mov	sp, r7
 1080              		@ sp needed
 1081 0250 90BD     		pop	{r4, r7, pc}
 1082              	.L73:
 1083 0252 00BF     		.align	2
 1084              	.L72:
 1085 0254 78000000 		.word	.LC5
 1086 0258 98000000 		.word	.LC6
 1087 025c D0000000 		.word	.LC7
 1088 0260 E0000000 		.word	.LC8
 1089 0264 04010000 		.word	.LC9
 1090 0268 00000000 		.word	ip_reass_pbufcount
 1091              		.cfi_endproc
 1092              	.LFE265:
 1093              		.size	ip_reass_chain_frag_into_datagram_and_validate, .-ip_reass_chain_frag_into_datagram_and_vali
 1094 026c AFF30080 		.section	.text.ip_reass,"ax",%progbits
ARM GAS  C:\Users\Luis\AppData\Local\Temp\ccVuDqaU.s 			page 21


 1095              		.align	2
 1096              		.p2align 4,,15
 1097              		.global	ip_reass
 1098              		.thumb
 1099              		.thumb_func
 1100              		.type	ip_reass, %function
 1101              	ip_reass:
 1102              	.LFB266:
 1103              		.loc 2 477 0
 1104              		.cfi_startproc
 1105              		@ args = 0, pretend = 0, frame = 40
 1106              		@ frame_needed = 1, uses_anonymous_args = 0
 1107 0000 90B5     		push	{r4, r7, lr}
 1108              		.cfi_def_cfa_offset 12
 1109              		.cfi_offset 4, -12
 1110              		.cfi_offset 7, -8
 1111              		.cfi_offset 14, -4
 1112 0002 8BB0     		sub	sp, sp, #44
 1113              		.cfi_def_cfa_offset 56
 1114 0004 00AF     		add	r7, sp, #0
 1115              		.cfi_def_cfa_register 7
 1116 0006 7860     		str	r0, [r7, #4]
 1117              		.loc 2 484 0
 1118 0008 0023     		movs	r3, #0
 1119 000a FB61     		str	r3, [r7, #28]
 1120              		.loc 2 486 0
 1121 000c 9A4B     		ldr	r3, .L90
 1122 000e 5B8E     		ldrh	r3, [r3, #50]
 1123 0010 0133     		adds	r3, r3, #1
 1124 0012 9AB2     		uxth	r2, r3
 1125 0014 984B     		ldr	r3, .L90
 1126 0016 5A86     		strh	r2, [r3, #50]	@ movhi
 1127              		.loc 2 489 0
 1128 0018 7B68     		ldr	r3, [r7, #4]
 1129 001a 5B68     		ldr	r3, [r3, #4]
 1130 001c BB61     		str	r3, [r7, #24]
 1131              		.loc 2 491 0
 1132 001e BB69     		ldr	r3, [r7, #24]
 1133 0020 1B78     		ldrb	r3, [r3]	@ zero_extendqisi2
 1134 0022 03F00F03 		and	r3, r3, #15
 1135 0026 9B00     		lsls	r3, r3, #2
 1136 0028 142B     		cmp	r3, #20
 1137 002a 08D0     		beq	.L75
 1138              		.loc 2 493 0
 1139 002c 924B     		ldr	r3, .L90
 1140 002e B3F84430 		ldrh	r3, [r3, #68]
 1141 0032 0133     		adds	r3, r3, #1
 1142 0034 9AB2     		uxth	r2, r3
 1143 0036 904B     		ldr	r3, .L90
 1144 0038 A3F84420 		strh	r2, [r3, #68]	@ movhi
 1145              		.loc 2 494 0
 1146 003c 0EE1     		b	.L76
 1147              	.L75:
 1148              		.loc 2 497 0
 1149 003e BB69     		ldr	r3, [r7, #24]
 1150 0040 DB88     		ldrh	r3, [r3, #6]	@ unaligned
 1151 0042 9BB2     		uxth	r3, r3
ARM GAS  C:\Users\Luis\AppData\Local\Temp\ccVuDqaU.s 			page 22


 1152 0044 1846     		mov	r0, r3
 1153 0046 FFF7FEFF 		bl	lwip_ntohs
 1154 004a 0346     		mov	r3, r0
 1155 004c C3F30C03 		ubfx	r3, r3, #0, #13
 1156 0050 9BB2     		uxth	r3, r3
 1157 0052 DB00     		lsls	r3, r3, #3
 1158 0054 FB82     		strh	r3, [r7, #22]	@ movhi
 1159              		.loc 2 498 0
 1160 0056 BB69     		ldr	r3, [r7, #24]
 1161 0058 5B88     		ldrh	r3, [r3, #2]	@ unaligned
 1162 005a 9BB2     		uxth	r3, r3
 1163 005c 1846     		mov	r0, r3
 1164 005e FFF7FEFF 		bl	lwip_ntohs
 1165 0062 0346     		mov	r3, r0
 1166 0064 1A46     		mov	r2, r3
 1167 0066 BB69     		ldr	r3, [r7, #24]
 1168 0068 1B78     		ldrb	r3, [r3]	@ zero_extendqisi2
 1169 006a 03F00F03 		and	r3, r3, #15
 1170 006e 9BB2     		uxth	r3, r3
 1171 0070 1946     		mov	r1, r3	@ movhi
 1172 0072 8903     		lsls	r1, r1, #14
 1173 0074 CB1A     		subs	r3, r1, r3
 1174 0076 9B00     		lsls	r3, r3, #2
 1175 0078 9BB2     		uxth	r3, r3
 1176 007a 1344     		add	r3, r3, r2
 1177 007c BB82     		strh	r3, [r7, #20]	@ movhi
 1178              		.loc 2 501 0
 1179 007e 7868     		ldr	r0, [r7, #4]
 1180 0080 FFF7FEFF 		bl	pbuf_clen
 1181 0084 0346     		mov	r3, r0
 1182 0086 FB74     		strb	r3, [r7, #19]
 1183              		.loc 2 502 0
 1184 0088 7C4B     		ldr	r3, .L90+4
 1185 008a 1B88     		ldrh	r3, [r3]
 1186 008c 1A46     		mov	r2, r3
 1187 008e FB7C     		ldrb	r3, [r7, #19]	@ zero_extendqisi2
 1188 0090 1344     		add	r3, r3, r2
 1189 0092 0A2B     		cmp	r3, #10
 1190 0094 15DD     		ble	.L77
 1191              		.loc 2 504 0
 1192 0096 FB7C     		ldrb	r3, [r7, #19]	@ zero_extendqisi2
 1193 0098 B869     		ldr	r0, [r7, #24]
 1194 009a 1946     		mov	r1, r3
 1195 009c FFF7FEFF 		bl	ip_reass_remove_oldest_datagram
 1196 00a0 0346     		mov	r3, r0
 1197 00a2 002B     		cmp	r3, #0
 1198 00a4 06D0     		beq	.L78
 1199              		.loc 2 505 0 discriminator 1
 1200 00a6 754B     		ldr	r3, .L90+4
 1201 00a8 1B88     		ldrh	r3, [r3]
 1202 00aa 1A46     		mov	r2, r3
 1203 00ac FB7C     		ldrb	r3, [r7, #19]	@ zero_extendqisi2
 1204 00ae 1344     		add	r3, r3, r2
 1205              		.loc 2 504 0 discriminator 1
 1206 00b0 0A2B     		cmp	r3, #10
 1207 00b2 06DD     		ble	.L77
 1208              	.L78:
ARM GAS  C:\Users\Luis\AppData\Local\Temp\ccVuDqaU.s 			page 23


 1209              		.loc 2 511 0
 1210 00b4 704B     		ldr	r3, .L90
 1211 00b6 9B8F     		ldrh	r3, [r3, #60]
 1212 00b8 0133     		adds	r3, r3, #1
 1213 00ba 9AB2     		uxth	r2, r3
 1214 00bc 6E4B     		ldr	r3, .L90
 1215 00be 9A87     		strh	r2, [r3, #60]	@ movhi
 1216              		.loc 2 514 0
 1217 00c0 CCE0     		b	.L76
 1218              	.L77:
 1219              		.loc 2 520 0
 1220 00c2 6F4B     		ldr	r3, .L90+8
 1221 00c4 1B68     		ldr	r3, [r3]
 1222 00c6 3B62     		str	r3, [r7, #32]
 1223 00c8 20E0     		b	.L79
 1224              	.L82:
 1225              		.loc 2 524 0
 1226 00ca 3B6A     		ldr	r3, [r7, #32]
 1227 00cc 5A69     		ldr	r2, [r3, #20]
 1228 00ce BB69     		ldr	r3, [r7, #24]
 1229 00d0 DB68     		ldr	r3, [r3, #12]	@ unaligned
 1230 00d2 9A42     		cmp	r2, r3
 1231 00d4 15D1     		bne	.L80
 1232              		.loc 2 524 0 is_stmt 0 discriminator 1
 1233 00d6 3B6A     		ldr	r3, [r7, #32]
 1234 00d8 9A69     		ldr	r2, [r3, #24]
 1235 00da BB69     		ldr	r3, [r7, #24]
 1236 00dc 1B69     		ldr	r3, [r3, #16]	@ unaligned
 1237 00de 9A42     		cmp	r2, r3
 1238 00e0 0FD1     		bne	.L80
 1239 00e2 3B6A     		ldr	r3, [r7, #32]
 1240 00e4 9A89     		ldrh	r2, [r3, #12]
 1241 00e6 BB69     		ldr	r3, [r7, #24]
 1242 00e8 9B88     		ldrh	r3, [r3, #4]	@ unaligned
 1243 00ea 9BB2     		uxth	r3, r3
 1244 00ec 9A42     		cmp	r2, r3
 1245 00ee 08D1     		bne	.L80
 1246              		.loc 2 527 0 is_stmt 1
 1247 00f0 614B     		ldr	r3, .L90
 1248 00f2 B3F84630 		ldrh	r3, [r3, #70]
 1249 00f6 0133     		adds	r3, r3, #1
 1250 00f8 9AB2     		uxth	r2, r3
 1251 00fa 5F4B     		ldr	r3, .L90
 1252 00fc A3F84620 		strh	r2, [r3, #70]	@ movhi
 1253              		.loc 2 528 0
 1254 0100 07E0     		b	.L81
 1255              	.L80:
 1256              		.loc 2 530 0
 1257 0102 3B6A     		ldr	r3, [r7, #32]
 1258 0104 FB61     		str	r3, [r7, #28]
 1259              		.loc 2 520 0
 1260 0106 3B6A     		ldr	r3, [r7, #32]
 1261 0108 1B68     		ldr	r3, [r3]
 1262 010a 3B62     		str	r3, [r7, #32]
 1263              	.L79:
 1264              		.loc 2 520 0 is_stmt 0 discriminator 1
 1265 010c 3B6A     		ldr	r3, [r7, #32]
ARM GAS  C:\Users\Luis\AppData\Local\Temp\ccVuDqaU.s 			page 24


 1266 010e 002B     		cmp	r3, #0
 1267 0110 DBD1     		bne	.L82
 1268              	.L81:
 1269              		.loc 2 533 0 is_stmt 1
 1270 0112 3B6A     		ldr	r3, [r7, #32]
 1271 0114 002B     		cmp	r3, #0
 1272 0116 09D1     		bne	.L83
 1273              		.loc 2 535 0
 1274 0118 FB7C     		ldrb	r3, [r7, #19]	@ zero_extendqisi2
 1275 011a B869     		ldr	r0, [r7, #24]
 1276 011c 1946     		mov	r1, r3
 1277 011e FFF7FEFF 		bl	ip_reass_enqueue_new_datagram
 1278 0122 3862     		str	r0, [r7, #32]
 1279              		.loc 2 537 0
 1280 0124 3B6A     		ldr	r3, [r7, #32]
 1281 0126 002B     		cmp	r3, #0
 1282 0128 1CD1     		bne	.L84
 1283              		.loc 2 538 0
 1284 012a 97E0     		b	.L76
 1285              	.L83:
 1286              		.loc 2 541 0
 1287 012c BB69     		ldr	r3, [r7, #24]
 1288 012e DB88     		ldrh	r3, [r3, #6]	@ unaligned
 1289 0130 9BB2     		uxth	r3, r3
 1290 0132 1846     		mov	r0, r3
 1291 0134 FFF7FEFF 		bl	lwip_ntohs
 1292 0138 0346     		mov	r3, r0
 1293 013a C3F30C03 		ubfx	r3, r3, #0, #13
 1294 013e 002B     		cmp	r3, #0
 1295 0140 10D1     		bne	.L84
 1296              		.loc 2 542 0 discriminator 1
 1297 0142 3B6A     		ldr	r3, [r7, #32]
 1298 0144 DB89     		ldrh	r3, [r3, #14]
 1299 0146 1846     		mov	r0, r3
 1300 0148 FFF7FEFF 		bl	lwip_ntohs
 1301 014c 0346     		mov	r3, r0
 1302 014e C3F30C03 		ubfx	r3, r3, #0, #13
 1303              		.loc 2 541 0 discriminator 1
 1304 0152 002B     		cmp	r3, #0
 1305 0154 06D0     		beq	.L84
 1306              		.loc 2 547 0
 1307 0156 3B6A     		ldr	r3, [r7, #32]
 1308 0158 0833     		adds	r3, r3, #8
 1309 015a 1846     		mov	r0, r3
 1310 015c B969     		ldr	r1, [r7, #24]
 1311 015e 1422     		movs	r2, #20
 1312 0160 FFF7FEFF 		bl	memcpy
 1313              	.L84:
 1314              		.loc 2 552 0
 1315 0164 FB7C     		ldrb	r3, [r7, #19]	@ zero_extendqisi2
 1316 0166 9AB2     		uxth	r2, r3
 1317 0168 444B     		ldr	r3, .L90+4
 1318 016a 1B88     		ldrh	r3, [r3]
 1319 016c 1344     		add	r3, r3, r2
 1320 016e 9AB2     		uxth	r2, r3
 1321 0170 424B     		ldr	r3, .L90+4
 1322 0172 1A80     		strh	r2, [r3]	@ movhi
ARM GAS  C:\Users\Luis\AppData\Local\Temp\ccVuDqaU.s 			page 25


 1323              		.loc 2 558 0
 1324 0174 BB69     		ldr	r3, [r7, #24]
 1325 0176 DB88     		ldrh	r3, [r3, #6]	@ unaligned
 1326 0178 9BB2     		uxth	r3, r3
 1327 017a 03F02003 		and	r3, r3, #32
 1328 017e 002B     		cmp	r3, #0
 1329 0180 0CD1     		bne	.L85
 1330              		.loc 2 559 0
 1331 0182 3B6A     		ldr	r3, [r7, #32]
 1332 0184 9B7F     		ldrb	r3, [r3, #30]	@ zero_extendqisi2
 1333 0186 43F00103 		orr	r3, r3, #1
 1334 018a DAB2     		uxtb	r2, r3
 1335 018c 3B6A     		ldr	r3, [r7, #32]
 1336 018e 9A77     		strb	r2, [r3, #30]
 1337              		.loc 2 560 0
 1338 0190 FA8A     		ldrh	r2, [r7, #22]	@ movhi
 1339 0192 BB8A     		ldrh	r3, [r7, #20]	@ movhi
 1340 0194 1344     		add	r3, r3, r2
 1341 0196 9AB2     		uxth	r2, r3
 1342 0198 3B6A     		ldr	r3, [r7, #32]
 1343 019a 9A83     		strh	r2, [r3, #28]	@ movhi
 1344              	.L85:
 1345              		.loc 2 567 0
 1346 019c 386A     		ldr	r0, [r7, #32]
 1347 019e 7968     		ldr	r1, [r7, #4]
 1348 01a0 FFF7FEFF 		bl	ip_reass_chain_frag_into_datagram_and_validate
 1349 01a4 0346     		mov	r3, r0
 1350 01a6 002B     		cmp	r3, #0
 1351 01a8 56D0     		beq	.L86
 1352              		.loc 2 570 0
 1353 01aa 3B6A     		ldr	r3, [r7, #32]
 1354 01ac 9B8B     		ldrh	r3, [r3, #28]
 1355 01ae 1433     		adds	r3, r3, #20
 1356 01b0 9AB2     		uxth	r2, r3
 1357 01b2 3B6A     		ldr	r3, [r7, #32]
 1358 01b4 9A83     		strh	r2, [r3, #28]	@ movhi
 1359              		.loc 2 573 0
 1360 01b6 3B6A     		ldr	r3, [r7, #32]
 1361 01b8 5B68     		ldr	r3, [r3, #4]
 1362 01ba 5B68     		ldr	r3, [r3, #4]
 1363 01bc 1B68     		ldr	r3, [r3]	@ unaligned
 1364 01be 7B62     		str	r3, [r7, #36]
 1365              		.loc 2 576 0
 1366 01c0 3B6A     		ldr	r3, [r7, #32]
 1367 01c2 5B68     		ldr	r3, [r3, #4]
 1368 01c4 5B68     		ldr	r3, [r3, #4]
 1369 01c6 BB61     		str	r3, [r7, #24]
 1370              		.loc 2 577 0
 1371 01c8 3B6A     		ldr	r3, [r7, #32]
 1372 01ca 0833     		adds	r3, r3, #8
 1373 01cc B869     		ldr	r0, [r7, #24]
 1374 01ce 1946     		mov	r1, r3
 1375 01d0 1422     		movs	r2, #20
 1376 01d2 FFF7FEFF 		bl	memcpy
 1377              		.loc 2 578 0
 1378 01d6 3B6A     		ldr	r3, [r7, #32]
 1379 01d8 9B8B     		ldrh	r3, [r3, #28]
ARM GAS  C:\Users\Luis\AppData\Local\Temp\ccVuDqaU.s 			page 26


 1380 01da 1846     		mov	r0, r3
 1381 01dc FFF7FEFF 		bl	lwip_htons
 1382 01e0 0346     		mov	r3, r0
 1383 01e2 1A46     		mov	r2, r3
 1384 01e4 BB69     		ldr	r3, [r7, #24]
 1385 01e6 5A80     		strh	r2, [r3, #2]	@ unaligned
 1386              		.loc 2 579 0
 1387 01e8 BB69     		ldr	r3, [r7, #24]
 1388 01ea 0022     		movs	r2, #0
 1389 01ec 9A71     		strb	r2, [r3, #6]
 1390 01ee 0022     		movs	r2, #0
 1391 01f0 DA71     		strb	r2, [r3, #7]
 1392              		.loc 2 580 0
 1393 01f2 BB69     		ldr	r3, [r7, #24]
 1394 01f4 0022     		movs	r2, #0
 1395 01f6 9A72     		strb	r2, [r3, #10]
 1396 01f8 0022     		movs	r2, #0
 1397 01fa DA72     		strb	r2, [r3, #11]
 1398              		.loc 2 582 0
 1399 01fc B869     		ldr	r0, [r7, #24]
 1400 01fe 1421     		movs	r1, #20
 1401 0200 FFF7FEFF 		bl	inet_chksum
 1402 0204 0346     		mov	r3, r0
 1403 0206 1A46     		mov	r2, r3
 1404 0208 BB69     		ldr	r3, [r7, #24]
 1405 020a 5A81     		strh	r2, [r3, #10]	@ unaligned
 1406              		.loc 2 584 0
 1407 020c 3B6A     		ldr	r3, [r7, #32]
 1408 020e 5B68     		ldr	r3, [r3, #4]
 1409 0210 7B60     		str	r3, [r7, #4]
 1410              		.loc 2 587 0
 1411 0212 0EE0     		b	.L87
 1412              	.L88:
 1413              		.loc 2 588 0
 1414 0214 7B6A     		ldr	r3, [r7, #36]
 1415 0216 5B68     		ldr	r3, [r3, #4]
 1416 0218 FB60     		str	r3, [r7, #12]
 1417              		.loc 2 591 0
 1418 021a 786A     		ldr	r0, [r7, #36]
 1419 021c 6FF01301 		mvn	r1, #19
 1420 0220 FFF7FEFF 		bl	pbuf_header
 1421              		.loc 2 592 0
 1422 0224 7868     		ldr	r0, [r7, #4]
 1423 0226 796A     		ldr	r1, [r7, #36]
 1424 0228 FFF7FEFF 		bl	pbuf_cat
 1425              		.loc 2 593 0
 1426 022c FB68     		ldr	r3, [r7, #12]
 1427 022e 1B68     		ldr	r3, [r3]	@ unaligned
 1428 0230 7B62     		str	r3, [r7, #36]
 1429              	.L87:
 1430              		.loc 2 587 0 discriminator 1
 1431 0232 7B6A     		ldr	r3, [r7, #36]
 1432 0234 002B     		cmp	r3, #0
 1433 0236 EDD1     		bne	.L88
 1434              		.loc 2 596 0
 1435 0238 386A     		ldr	r0, [r7, #32]
 1436 023a F969     		ldr	r1, [r7, #28]
ARM GAS  C:\Users\Luis\AppData\Local\Temp\ccVuDqaU.s 			page 27


 1437 023c FFF7FEFF 		bl	ip_reass_dequeue_datagram
 1438              		.loc 2 599 0
 1439 0240 0E4B     		ldr	r3, .L90+4
 1440 0242 1C88     		ldrh	r4, [r3]
 1441 0244 7868     		ldr	r0, [r7, #4]
 1442 0246 FFF7FEFF 		bl	pbuf_clen
 1443 024a 0346     		mov	r3, r0
 1444 024c E31A     		subs	r3, r4, r3
 1445 024e 9AB2     		uxth	r2, r3
 1446 0250 0A4B     		ldr	r3, .L90+4
 1447 0252 1A80     		strh	r2, [r3]	@ movhi
 1448              		.loc 2 602 0
 1449 0254 7B68     		ldr	r3, [r7, #4]
 1450 0256 0BE0     		b	.L89
 1451              	.L86:
 1452              		.loc 2 606 0
 1453 0258 0023     		movs	r3, #0
 1454 025a 09E0     		b	.L89
 1455              	.L76:
 1456              		.loc 2 610 0
 1457 025c 064B     		ldr	r3, .L90
 1458 025e DB8E     		ldrh	r3, [r3, #54]
 1459 0260 0133     		adds	r3, r3, #1
 1460 0262 9AB2     		uxth	r2, r3
 1461 0264 044B     		ldr	r3, .L90
 1462 0266 DA86     		strh	r2, [r3, #54]	@ movhi
 1463              		.loc 2 611 0
 1464 0268 7868     		ldr	r0, [r7, #4]
 1465 026a FFF7FEFF 		bl	pbuf_free
 1466              		.loc 2 612 0
 1467 026e 0023     		movs	r3, #0
 1468              	.L89:
 1469              		.loc 2 613 0
 1470 0270 1846     		mov	r0, r3
 1471 0272 2C37     		adds	r7, r7, #44
 1472 0274 BD46     		mov	sp, r7
 1473              		@ sp needed
 1474 0276 90BD     		pop	{r4, r7, pc}
 1475              	.L91:
 1476              		.align	2
 1477              	.L90:
 1478 0278 00000000 		.word	lwip_stats
 1479 027c 00000000 		.word	ip_reass_pbufcount
 1480 0280 00000000 		.word	reassdatagrams
 1481              		.cfi_endproc
 1482              	.LFE266:
 1483              		.size	ip_reass, .-ip_reass
 1484 0284 AFF30080 		.section	.text.ip_frag_alloc_pbuf_custom_ref,"ax",%progbits
 1484      AFF30080 
 1484      AFF30080 
 1485              		.align	2
 1486              		.p2align 4,,15
 1487              		.thumb
 1488              		.thumb_func
 1489              		.type	ip_frag_alloc_pbuf_custom_ref, %function
 1490              	ip_frag_alloc_pbuf_custom_ref:
 1491              	.LFB267:
ARM GAS  C:\Users\Luis\AppData\Local\Temp\ccVuDqaU.s 			page 28


 1492              		.loc 2 625 0
 1493              		.cfi_startproc
 1494              		@ args = 0, pretend = 0, frame = 0
 1495              		@ frame_needed = 1, uses_anonymous_args = 0
 1496 0000 80B5     		push	{r7, lr}
 1497              		.cfi_def_cfa_offset 8
 1498              		.cfi_offset 7, -8
 1499              		.cfi_offset 14, -4
 1500 0002 00AF     		add	r7, sp, #0
 1501              		.cfi_def_cfa_register 7
 1502              		.loc 2 626 0
 1503 0004 0620     		movs	r0, #6
 1504 0006 FFF7FEFF 		bl	memp_malloc
 1505 000a 0346     		mov	r3, r0
 1506              		.loc 2 627 0
 1507 000c 1846     		mov	r0, r3
 1508 000e 80BD     		pop	{r7, pc}
 1509              		.cfi_endproc
 1510              	.LFE267:
 1511              		.size	ip_frag_alloc_pbuf_custom_ref, .-ip_frag_alloc_pbuf_custom_ref
 1512              		.section	.rodata
 1513 0131 000000   		.align	2
 1514              	.LC10:
 1515 0134 7020213D 		.ascii	"p != NULL\000"
 1515      204E554C 
 1515      4C00
 1516              		.section	.text.ip_frag_free_pbuf_custom_ref,"ax",%progbits
 1517              		.align	2
 1518              		.p2align 4,,15
 1519              		.thumb
 1520              		.thumb_func
 1521              		.type	ip_frag_free_pbuf_custom_ref, %function
 1522              	ip_frag_free_pbuf_custom_ref:
 1523              	.LFB268:
 1524              		.loc 2 632 0
 1525              		.cfi_startproc
 1526              		@ args = 0, pretend = 0, frame = 8
 1527              		@ frame_needed = 1, uses_anonymous_args = 0
 1528 0000 80B5     		push	{r7, lr}
 1529              		.cfi_def_cfa_offset 8
 1530              		.cfi_offset 7, -8
 1531              		.cfi_offset 14, -4
 1532 0002 82B0     		sub	sp, sp, #8
 1533              		.cfi_def_cfa_offset 16
 1534 0004 00AF     		add	r7, sp, #0
 1535              		.cfi_def_cfa_register 7
 1536 0006 7860     		str	r0, [r7, #4]
 1537              		.loc 2 633 0
 1538 0008 7B68     		ldr	r3, [r7, #4]
 1539 000a 002B     		cmp	r3, #0
 1540 000c 02D1     		bne	.L95
 1541              		.loc 2 633 0 is_stmt 0 discriminator 1
 1542 000e 0548     		ldr	r0, .L96
 1543 0010 FFF7FEFF 		bl	osalSysHalt
 1544              	.L95:
 1545              		.loc 2 634 0 is_stmt 1
 1546 0014 0620     		movs	r0, #6
ARM GAS  C:\Users\Luis\AppData\Local\Temp\ccVuDqaU.s 			page 29


 1547 0016 7968     		ldr	r1, [r7, #4]
 1548 0018 FFF7FEFF 		bl	memp_free
 1549              		.loc 2 635 0
 1550 001c 0837     		adds	r7, r7, #8
 1551 001e BD46     		mov	sp, r7
 1552              		@ sp needed
 1553 0020 80BD     		pop	{r7, pc}
 1554              	.L97:
 1555 0022 00BF     		.align	2
 1556              	.L96:
 1557 0024 34010000 		.word	.LC10
 1558              		.cfi_endproc
 1559              	.LFE268:
 1560              		.size	ip_frag_free_pbuf_custom_ref, .-ip_frag_free_pbuf_custom_ref
 1561 0028 AFF30080 		.section	.rodata
 1561      AFF30080 
 1562 013e 0000     		.align	2
 1563              	.LC11:
 1564 0140 70637220 		.ascii	"pcr != NULL\000"
 1564      213D204E 
 1564      554C4C00 
 1565              		.align	2
 1566              	.LC12:
 1567 014c 70637220 		.ascii	"pcr == p\000"
 1567      3D3D2070 
 1567      00
 1568              		.section	.text.ipfrag_free_pbuf_custom,"ax",%progbits
 1569              		.align	2
 1570              		.p2align 4,,15
 1571              		.thumb
 1572              		.thumb_func
 1573              		.type	ipfrag_free_pbuf_custom, %function
 1574              	ipfrag_free_pbuf_custom:
 1575              	.LFB269:
 1576              		.loc 2 641 0
 1577              		.cfi_startproc
 1578              		@ args = 0, pretend = 0, frame = 16
 1579              		@ frame_needed = 1, uses_anonymous_args = 0
 1580 0000 80B5     		push	{r7, lr}
 1581              		.cfi_def_cfa_offset 8
 1582              		.cfi_offset 7, -8
 1583              		.cfi_offset 14, -4
 1584 0002 84B0     		sub	sp, sp, #16
 1585              		.cfi_def_cfa_offset 24
 1586 0004 00AF     		add	r7, sp, #0
 1587              		.cfi_def_cfa_register 7
 1588 0006 7860     		str	r0, [r7, #4]
 1589              		.loc 2 642 0
 1590 0008 7B68     		ldr	r3, [r7, #4]
 1591 000a FB60     		str	r3, [r7, #12]
 1592              		.loc 2 643 0
 1593 000c FB68     		ldr	r3, [r7, #12]
 1594 000e 002B     		cmp	r3, #0
 1595 0010 02D1     		bne	.L99
 1596              		.loc 2 643 0 is_stmt 0 discriminator 1
 1597 0012 0C48     		ldr	r0, .L102
 1598 0014 FFF7FEFF 		bl	osalSysHalt
ARM GAS  C:\Users\Luis\AppData\Local\Temp\ccVuDqaU.s 			page 30


 1599              	.L99:
 1600              		.loc 2 644 0 is_stmt 1
 1601 0018 FA68     		ldr	r2, [r7, #12]
 1602 001a 7B68     		ldr	r3, [r7, #4]
 1603 001c 9A42     		cmp	r2, r3
 1604 001e 02D0     		beq	.L100
 1605              		.loc 2 644 0 is_stmt 0 discriminator 1
 1606 0020 0948     		ldr	r0, .L102+4
 1607 0022 FFF7FEFF 		bl	osalSysHalt
 1608              	.L100:
 1609              		.loc 2 645 0 is_stmt 1
 1610 0026 FB68     		ldr	r3, [r7, #12]
 1611 0028 5B69     		ldr	r3, [r3, #20]
 1612 002a 002B     		cmp	r3, #0
 1613 002c 04D0     		beq	.L101
 1614              		.loc 2 646 0
 1615 002e FB68     		ldr	r3, [r7, #12]
 1616 0030 5B69     		ldr	r3, [r3, #20]
 1617 0032 1846     		mov	r0, r3
 1618 0034 FFF7FEFF 		bl	pbuf_free
 1619              	.L101:
 1620              		.loc 2 648 0
 1621 0038 F868     		ldr	r0, [r7, #12]
 1622 003a FFF7FEFF 		bl	ip_frag_free_pbuf_custom_ref
 1623              		.loc 2 649 0
 1624 003e 1037     		adds	r7, r7, #16
 1625 0040 BD46     		mov	sp, r7
 1626              		@ sp needed
 1627 0042 80BD     		pop	{r7, pc}
 1628              	.L103:
 1629              		.align	2
 1630              	.L102:
 1631 0044 40010000 		.word	.LC11
 1632 0048 4C010000 		.word	.LC12
 1633              		.cfi_endproc
 1634              	.LFE269:
 1635              		.size	ipfrag_free_pbuf_custom, .-ipfrag_free_pbuf_custom
 1636 004c AFF30080 		.section	.rodata
 1637 0155 000000   		.align	2
 1638              	.LC13:
 1639 0158 74686973 		.ascii	"this needs a pbuf in one piece!\000"
 1639      206E6565 
 1639      64732061 
 1639      20706275 
 1639      6620696E 
 1640              		.section	.text.ip_frag,"ax",%progbits
 1641              		.align	2
 1642              		.p2align 4,,15
 1643              		.global	ip_frag
 1644              		.thumb
 1645              		.thumb_func
 1646              		.type	ip_frag, %function
 1647              	ip_frag:
 1648              	.LFB270:
 1649              		.loc 2 668 0
 1650              		.cfi_startproc
 1651              		@ args = 0, pretend = 0, frame = 64
ARM GAS  C:\Users\Luis\AppData\Local\Temp\ccVuDqaU.s 			page 31


 1652              		@ frame_needed = 1, uses_anonymous_args = 0
 1653 0000 80B5     		push	{r7, lr}
 1654              		.cfi_def_cfa_offset 8
 1655              		.cfi_offset 7, -8
 1656              		.cfi_offset 14, -4
 1657 0002 92B0     		sub	sp, sp, #72
 1658              		.cfi_def_cfa_offset 80
 1659 0004 02AF     		add	r7, sp, #8
 1660              		.cfi_def_cfa 7, 72
 1661 0006 F860     		str	r0, [r7, #12]
 1662 0008 B960     		str	r1, [r7, #8]
 1663 000a 7A60     		str	r2, [r7, #4]
 1664              		.loc 2 681 0
 1665 000c BB68     		ldr	r3, [r7, #8]
 1666 000e 1B8C     		ldrh	r3, [r3, #32]	@ movhi
 1667 0010 7B86     		strh	r3, [r7, #50]	@ movhi
 1668              		.loc 2 684 0
 1669 0012 1423     		movs	r3, #20
 1670 0014 7B87     		strh	r3, [r7, #58]	@ movhi
 1671              		.loc 2 687 0
 1672 0016 0023     		movs	r3, #0
 1673 0018 FB86     		strh	r3, [r7, #54]	@ movhi
 1674              		.loc 2 709 0
 1675 001a FB68     		ldr	r3, [r7, #12]
 1676 001c 5B68     		ldr	r3, [r3, #4]
 1677 001e FB62     		str	r3, [r7, #44]
 1678              		.loc 2 710 0
 1679 0020 FB6A     		ldr	r3, [r7, #44]
 1680 0022 BB62     		str	r3, [r7, #40]
 1681              		.loc 2 714 0
 1682 0024 BB6A     		ldr	r3, [r7, #40]
 1683 0026 DB88     		ldrh	r3, [r3, #6]	@ unaligned
 1684 0028 9BB2     		uxth	r3, r3
 1685 002a 1846     		mov	r0, r3
 1686 002c FFF7FEFF 		bl	lwip_ntohs
 1687 0030 0346     		mov	r3, r0
 1688 0032 3B87     		strh	r3, [r7, #56]	@ movhi
 1689              		.loc 2 715 0
 1690 0034 3B8F     		ldrh	r3, [r7, #56]	@ movhi
 1691 0036 C3F30C03 		ubfx	r3, r3, #0, #13
 1692 003a BB87     		strh	r3, [r7, #60]	@ movhi
 1693              		.loc 2 716 0
 1694 003c 3B8F     		ldrh	r3, [r7, #56]	@ movhi
 1695 003e 03F40053 		and	r3, r3, #8192
 1696 0042 FB84     		strh	r3, [r7, #38]	@ movhi
 1697              		.loc 2 718 0
 1698 0044 FB68     		ldr	r3, [r7, #12]
 1699 0046 1B89     		ldrh	r3, [r3, #8]
 1700 0048 143B     		subs	r3, r3, #20
 1701 004a FB87     		strh	r3, [r7, #62]	@ movhi
 1702              		.loc 2 720 0
 1703 004c 7B8E     		ldrh	r3, [r7, #50]
 1704 004e 143B     		subs	r3, r3, #20
 1705 0050 002B     		cmp	r3, #0
 1706 0052 00DA     		bge	.L105
 1707 0054 0733     		adds	r3, r3, #7
 1708              	.L105:
ARM GAS  C:\Users\Luis\AppData\Local\Temp\ccVuDqaU.s 			page 32


 1709 0056 DB10     		asrs	r3, r3, #3
 1710 0058 BB84     		strh	r3, [r7, #36]	@ movhi
 1711              		.loc 2 722 0
 1712 005a CEE0     		b	.L106
 1713              	.L118:
 1714              		.loc 2 723 0
 1715 005c FA8F     		ldrh	r2, [r7, #62]
 1716 005e 7B8E     		ldrh	r3, [r7, #50]
 1717 0060 143B     		subs	r3, r3, #20
 1718 0062 9A42     		cmp	r2, r3
 1719 0064 CCBF     		ite	gt
 1720 0066 0023     		movgt	r3, #0
 1721 0068 0123     		movle	r3, #1
 1722 006a DBB2     		uxtb	r3, r3
 1723 006c 7B84     		strh	r3, [r7, #34]	@ movhi
 1724              		.loc 2 726 0
 1725 006e BB8F     		ldrh	r3, [r7, #60]	@ movhi
 1726 0070 C3F30C03 		ubfx	r3, r3, #0, #13
 1727 0074 9AB2     		uxth	r2, r3
 1728 0076 FB8C     		ldrh	r3, [r7, #38]	@ movhi
 1729 0078 1343     		orrs	r3, r3, r2
 1730 007a 3B87     		strh	r3, [r7, #56]	@ movhi
 1731              		.loc 2 727 0
 1732 007c 7B8C     		ldrh	r3, [r7, #34]
 1733 007e 002B     		cmp	r3, #0
 1734 0080 03D1     		bne	.L107
 1735              		.loc 2 728 0
 1736 0082 3B8F     		ldrh	r3, [r7, #56]	@ movhi
 1737 0084 43F40053 		orr	r3, r3, #8192
 1738 0088 3B87     		strh	r3, [r7, #56]	@ movhi
 1739              	.L107:
 1740              		.loc 2 732 0
 1741 008a 7B8C     		ldrh	r3, [r7, #34]
 1742 008c 002B     		cmp	r3, #0
 1743 008e 03D1     		bne	.L108
 1744              		.loc 2 732 0 is_stmt 0 discriminator 1
 1745 0090 BB8C     		ldrh	r3, [r7, #36]	@ movhi
 1746 0092 DB00     		lsls	r3, r3, #3
 1747 0094 9BB2     		uxth	r3, r3
 1748 0096 00E0     		b	.L109
 1749              	.L108:
 1750              		.loc 2 732 0 discriminator 2
 1751 0098 FB8F     		ldrh	r3, [r7, #62]
 1752              	.L109:
 1753              		.loc 2 732 0 discriminator 3
 1754 009a 3B84     		strh	r3, [r7, #32]	@ movhi
 1755              		.loc 2 759 0 is_stmt 1 discriminator 3
 1756 009c 0220     		movs	r0, #2
 1757 009e 1421     		movs	r1, #20
 1758 00a0 0022     		movs	r2, #0
 1759 00a2 FFF7FEFF 		bl	pbuf_alloc
 1760 00a6 F861     		str	r0, [r7, #28]
 1761              		.loc 2 760 0 discriminator 3
 1762 00a8 FB69     		ldr	r3, [r7, #28]
 1763 00aa 002B     		cmp	r3, #0
 1764 00ac 01D1     		bne	.L110
 1765              		.loc 2 761 0
ARM GAS  C:\Users\Luis\AppData\Local\Temp\ccVuDqaU.s 			page 33


 1766 00ae FF23     		movs	r3, #255
 1767 00b0 A8E0     		b	.L111
 1768              	.L110:
 1769              		.loc 2 763 0
 1770 00b2 FB68     		ldr	r3, [r7, #12]
 1771 00b4 5B89     		ldrh	r3, [r3, #10]
 1772 00b6 132B     		cmp	r3, #19
 1773 00b8 02D8     		bhi	.L112
 1774              		.loc 2 763 0 is_stmt 0 discriminator 1
 1775 00ba 5548     		ldr	r0, .L119
 1776 00bc FFF7FEFF 		bl	osalSysHalt
 1777              	.L112:
 1778              		.loc 2 765 0 is_stmt 1
 1779 00c0 FB69     		ldr	r3, [r7, #28]
 1780 00c2 5B68     		ldr	r3, [r3, #4]
 1781 00c4 1846     		mov	r0, r3
 1782 00c6 F96A     		ldr	r1, [r7, #44]
 1783 00c8 1422     		movs	r2, #20
 1784 00ca FFF7FEFF 		bl	memcpy
 1785              		.loc 2 766 0
 1786 00ce FB69     		ldr	r3, [r7, #28]
 1787 00d0 5B68     		ldr	r3, [r3, #4]
 1788 00d2 BB62     		str	r3, [r7, #40]
 1789              		.loc 2 769 0
 1790 00d4 FB68     		ldr	r3, [r7, #12]
 1791 00d6 5A68     		ldr	r2, [r3, #4]
 1792 00d8 7B8F     		ldrh	r3, [r7, #58]
 1793 00da 1A44     		add	r2, r2, r3
 1794 00dc FB68     		ldr	r3, [r7, #12]
 1795 00de 5A60     		str	r2, [r3, #4]
 1796              		.loc 2 770 0
 1797 00e0 FB68     		ldr	r3, [r7, #12]
 1798 00e2 5A89     		ldrh	r2, [r3, #10]
 1799 00e4 7B8F     		ldrh	r3, [r7, #58]	@ movhi
 1800 00e6 D31A     		subs	r3, r2, r3
 1801 00e8 9AB2     		uxth	r2, r3
 1802 00ea FB68     		ldr	r3, [r7, #12]
 1803 00ec 5A81     		strh	r2, [r3, #10]	@ movhi
 1804              		.loc 2 772 0
 1805 00ee 3B8C     		ldrh	r3, [r7, #32]	@ movhi
 1806 00f0 BB86     		strh	r3, [r7, #52]	@ movhi
 1807              		.loc 2 773 0
 1808 00f2 47E0     		b	.L113
 1809              	.L117:
 1810              	.LBB4:
 1811              		.loc 2 775 0
 1812 00f4 FB68     		ldr	r3, [r7, #12]
 1813 00f6 5A89     		ldrh	r2, [r3, #10]
 1814 00f8 BB8E     		ldrh	r3, [r7, #52]
 1815 00fa 9A42     		cmp	r2, r3
 1816 00fc 38BF     		it	cc
 1817 00fe 1346     		movcc	r3, r2
 1818 0100 FB86     		strh	r3, [r7, #54]	@ movhi
 1819              		.loc 2 777 0
 1820 0102 FB8E     		ldrh	r3, [r7, #54]
 1821 0104 002B     		cmp	r3, #0
 1822 0106 03D1     		bne	.L114
ARM GAS  C:\Users\Luis\AppData\Local\Temp\ccVuDqaU.s 			page 34


 1823              		.loc 2 778 0
 1824 0108 FB68     		ldr	r3, [r7, #12]
 1825 010a 1B68     		ldr	r3, [r3]
 1826 010c FB60     		str	r3, [r7, #12]
 1827              		.loc 2 779 0
 1828 010e 39E0     		b	.L113
 1829              	.L114:
 1830              		.loc 2 781 0
 1831 0110 FFF7FEFF 		bl	ip_frag_alloc_pbuf_custom_ref
 1832 0114 B861     		str	r0, [r7, #24]
 1833              		.loc 2 782 0
 1834 0116 BB69     		ldr	r3, [r7, #24]
 1835 0118 002B     		cmp	r3, #0
 1836 011a 04D1     		bne	.L115
 1837              		.loc 2 783 0
 1838 011c F869     		ldr	r0, [r7, #28]
 1839 011e FFF7FEFF 		bl	pbuf_free
 1840              		.loc 2 784 0
 1841 0122 FF23     		movs	r3, #255
 1842 0124 6EE0     		b	.L111
 1843              	.L115:
 1844              		.loc 2 787 0
 1845 0126 BB69     		ldr	r3, [r7, #24]
 1846 0128 FA68     		ldr	r2, [r7, #12]
 1847 012a 5168     		ldr	r1, [r2, #4]
 1848 012c FA8E     		ldrh	r2, [r7, #54]
 1849 012e 0091     		str	r1, [sp]
 1850 0130 F98E     		ldrh	r1, [r7, #54]
 1851 0132 0191     		str	r1, [sp, #4]
 1852 0134 0320     		movs	r0, #3
 1853 0136 1146     		mov	r1, r2
 1854 0138 0222     		movs	r2, #2
 1855 013a FFF7FEFF 		bl	pbuf_alloced_custom
 1856 013e 7861     		str	r0, [r7, #20]
 1857              		.loc 2 788 0
 1858 0140 7B69     		ldr	r3, [r7, #20]
 1859 0142 002B     		cmp	r3, #0
 1860 0144 07D1     		bne	.L116
 1861              		.loc 2 789 0
 1862 0146 B869     		ldr	r0, [r7, #24]
 1863 0148 FFF7FEFF 		bl	ip_frag_free_pbuf_custom_ref
 1864              		.loc 2 790 0
 1865 014c F869     		ldr	r0, [r7, #28]
 1866 014e FFF7FEFF 		bl	pbuf_free
 1867              		.loc 2 791 0
 1868 0152 FF23     		movs	r3, #255
 1869 0154 56E0     		b	.L111
 1870              	.L116:
 1871              		.loc 2 793 0
 1872 0156 F868     		ldr	r0, [r7, #12]
 1873 0158 FFF7FEFF 		bl	pbuf_ref
 1874              		.loc 2 794 0
 1875 015c BB69     		ldr	r3, [r7, #24]
 1876 015e FA68     		ldr	r2, [r7, #12]
 1877 0160 5A61     		str	r2, [r3, #20]
 1878              		.loc 2 795 0
 1879 0162 BB69     		ldr	r3, [r7, #24]
ARM GAS  C:\Users\Luis\AppData\Local\Temp\ccVuDqaU.s 			page 35


 1880 0164 2B4A     		ldr	r2, .L119+4
 1881 0166 1A61     		str	r2, [r3, #16]
 1882              		.loc 2 800 0
 1883 0168 F869     		ldr	r0, [r7, #28]
 1884 016a 7969     		ldr	r1, [r7, #20]
 1885 016c FFF7FEFF 		bl	pbuf_cat
 1886              		.loc 2 801 0
 1887 0170 BA8E     		ldrh	r2, [r7, #52]	@ movhi
 1888 0172 FB8E     		ldrh	r3, [r7, #54]	@ movhi
 1889 0174 D31A     		subs	r3, r2, r3
 1890 0176 BB86     		strh	r3, [r7, #52]	@ movhi
 1891              		.loc 2 802 0
 1892 0178 BB8E     		ldrh	r3, [r7, #52]
 1893 017a 002B     		cmp	r3, #0
 1894 017c 02D0     		beq	.L113
 1895              		.loc 2 803 0
 1896 017e FB68     		ldr	r3, [r7, #12]
 1897 0180 1B68     		ldr	r3, [r3]
 1898 0182 FB60     		str	r3, [r7, #12]
 1899              	.L113:
 1900              	.LBE4:
 1901              		.loc 2 773 0 discriminator 1
 1902 0184 BB8E     		ldrh	r3, [r7, #52]
 1903 0186 002B     		cmp	r3, #0
 1904 0188 B4D1     		bne	.L117
 1905              		.loc 2 806 0
 1906 018a FB8E     		ldrh	r3, [r7, #54]	@ movhi
 1907 018c 7B87     		strh	r3, [r7, #58]	@ movhi
 1908              		.loc 2 811 0
 1909 018e 3B8F     		ldrh	r3, [r7, #56]
 1910 0190 1846     		mov	r0, r3
 1911 0192 FFF7FEFF 		bl	lwip_htons
 1912 0196 0346     		mov	r3, r0
 1913 0198 1A46     		mov	r2, r3
 1914 019a BB6A     		ldr	r3, [r7, #40]
 1915 019c DA80     		strh	r2, [r3, #6]	@ unaligned
 1916              		.loc 2 812 0
 1917 019e 3B8C     		ldrh	r3, [r7, #32]	@ movhi
 1918 01a0 1433     		adds	r3, r3, #20
 1919 01a2 9BB2     		uxth	r3, r3
 1920 01a4 1846     		mov	r0, r3
 1921 01a6 FFF7FEFF 		bl	lwip_htons
 1922 01aa 0346     		mov	r3, r0
 1923 01ac 1A46     		mov	r2, r3
 1924 01ae BB6A     		ldr	r3, [r7, #40]
 1925 01b0 5A80     		strh	r2, [r3, #2]	@ unaligned
 1926              		.loc 2 813 0
 1927 01b2 BB6A     		ldr	r3, [r7, #40]
 1928 01b4 0022     		movs	r2, #0
 1929 01b6 9A72     		strb	r2, [r3, #10]
 1930 01b8 0022     		movs	r2, #0
 1931 01ba DA72     		strb	r2, [r3, #11]
 1932              		.loc 2 814 0
 1933 01bc B86A     		ldr	r0, [r7, #40]
 1934 01be 1421     		movs	r1, #20
 1935 01c0 FFF7FEFF 		bl	inet_chksum
 1936 01c4 0346     		mov	r3, r0
ARM GAS  C:\Users\Luis\AppData\Local\Temp\ccVuDqaU.s 			page 36


 1937 01c6 1A46     		mov	r2, r3
 1938 01c8 BB6A     		ldr	r3, [r7, #40]
 1939 01ca 5A81     		strh	r2, [r3, #10]	@ unaligned
 1940              		.loc 2 842 0
 1941 01cc BB68     		ldr	r3, [r7, #8]
 1942 01ce 5B69     		ldr	r3, [r3, #20]
 1943 01d0 B868     		ldr	r0, [r7, #8]
 1944 01d2 F969     		ldr	r1, [r7, #28]
 1945 01d4 7A68     		ldr	r2, [r7, #4]
 1946 01d6 9847     		blx	r3
 1947              		.loc 2 843 0
 1948 01d8 0F4B     		ldr	r3, .L119+8
 1949 01da 1B8E     		ldrh	r3, [r3, #48]
 1950 01dc 0133     		adds	r3, r3, #1
 1951 01de 9AB2     		uxth	r2, r3
 1952 01e0 0D4B     		ldr	r3, .L119+8
 1953 01e2 1A86     		strh	r2, [r3, #48]	@ movhi
 1954              		.loc 2 852 0
 1955 01e4 F869     		ldr	r0, [r7, #28]
 1956 01e6 FFF7FEFF 		bl	pbuf_free
 1957              		.loc 2 854 0
 1958 01ea FA8F     		ldrh	r2, [r7, #62]	@ movhi
 1959 01ec 3B8C     		ldrh	r3, [r7, #32]	@ movhi
 1960 01ee D31A     		subs	r3, r2, r3
 1961 01f0 FB87     		strh	r3, [r7, #62]	@ movhi
 1962              		.loc 2 855 0
 1963 01f2 BA8F     		ldrh	r2, [r7, #60]	@ movhi
 1964 01f4 BB8C     		ldrh	r3, [r7, #36]	@ movhi
 1965 01f6 1344     		add	r3, r3, r2
 1966 01f8 BB87     		strh	r3, [r7, #60]	@ movhi
 1967              	.L106:
 1968              		.loc 2 722 0 discriminator 1
 1969 01fa FB8F     		ldrh	r3, [r7, #62]
 1970 01fc 002B     		cmp	r3, #0
 1971 01fe 7FF42DAF 		bne	.L118
 1972              		.loc 2 861 0
 1973 0202 0023     		movs	r3, #0
 1974              	.L111:
 1975 0204 5BB2     		sxtb	r3, r3
 1976              		.loc 2 862 0
 1977 0206 1846     		mov	r0, r3
 1978 0208 4037     		adds	r7, r7, #64
 1979 020a BD46     		mov	sp, r7
 1980              		@ sp needed
 1981 020c 80BD     		pop	{r7, pc}
 1982              	.L120:
 1983 020e 00BF     		.align	2
 1984              	.L119:
 1985 0210 58010000 		.word	.LC13
 1986 0214 00000000 		.word	ipfrag_free_pbuf_custom
 1987 0218 00000000 		.word	lwip_stats
 1988              		.cfi_endproc
 1989              	.LFE270:
 1990              		.size	ip_frag, .-ip_frag
 1991 021c AFF30080 		.text
 1992              	.Letext0:
 1993              		.file 3 "c:\\emtechesdk\\gcc\\lib\\gcc\\arm-none-eabi\\4.8.3\\include\\stddef.h"
ARM GAS  C:\Users\Luis\AppData\Local\Temp\ccVuDqaU.s 			page 37


 1994              		.file 4 "c:\\emtechesdk\\gcc\\arm-none-eabi\\include\\stdint.h"
 1995              		.file 5 "../../ChibiOS/os/rt/ports/ARMCMx/compilers/GCC/chtypes.h"
 1996              		.file 6 "../../ChibiOS/os/rt/include/chsystypes.h"
 1997              		.file 7 "../../ChibiOS/os/rt/include/chschd.h"
 1998              		.file 8 "../../ChibiOS/os/rt/ports/ARMCMx/chcore.h"
 1999              		.file 9 "../../ChibiOS/os/rt/ports/ARMCMx/chcore_v7m.h"
 2000              		.file 10 "../../ChibiOS/os/rt/include/chdebug.h"
 2001              		.file 11 "../../ChibiOS/os/rt/include/chtm.h"
 2002              		.file 12 "../../ChibiOS/os/rt/include/chstats.h"
 2003              		.file 13 "../../ChibiOS/os/rt/include/chsem.h"
 2004              		.file 14 "../../ChibiOS/os/rt/include/chmtx.h"
 2005              		.file 15 "../../ChibiOS/os/various/lwip_bindings/arch/cc.h"
 2006              		.file 16 "../../ChibiOS/ext/lwip/src/include/lwip/err.h"
 2007              		.file 17 "../../ChibiOS/ext/lwip/src/include/lwip/pbuf.h"
 2008              		.file 18 "../../ChibiOS/ext/lwip/src/include/ipv4/lwip/ip_addr.h"
 2009              		.file 19 "../../ChibiOS/ext/lwip/src/include/lwip/netif.h"
 2010              		.file 20 "../../ChibiOS/ext/lwip/src/include/ipv4/lwip/ip.h"
 2011              		.file 21 "../../ChibiOS/ext/lwip/src/include/ipv4/lwip/ip_frag.h"
 2012              		.file 22 "../../ChibiOS/ext/lwip/src/include/lwip/mem.h"
 2013              		.file 23 "../../ChibiOS/ext/lwip/src/include/lwip/memp.h"
 2014              		.file 24 "../../ChibiOS/ext/lwip/src/include/lwip/stats.h"
 2015              		.file 25 "../../ChibiOS/os/ext/CMSIS/include/core_cm4.h"
 2016              		.file 26 "../../ChibiOS/ext/lwip/src/include/ipv4/lwip/icmp.h"