ARM GAS  C:\Users\Luis\AppData\Local\Temp\ccllzFQu.s 			page 1


   1              		.syntax unified
   2              		.cpu cortex-m4
   3              		.fpu softvfp
   4              		.eabi_attribute 20, 1
   5              		.eabi_attribute 21, 1
   6              		.eabi_attribute 23, 3
   7              		.eabi_attribute 24, 1
   8              		.eabi_attribute 25, 1
   9              		.eabi_attribute 26, 1
  10              		.eabi_attribute 30, 6
  11              		.eabi_attribute 34, 1
  12              		.eabi_attribute 18, 4
  13              		.thumb
  14              		.file	"lwipthread.c"
  15              		.text
  16              	.Ltext0:
  17              		.cfi_sections	.debug_frame
  18              		.section	.text.port_lock,"ax",%progbits
  19              		.align	2
  20              		.p2align 4,,15
  21              		.thumb
  22              		.thumb_func
  23              		.type	port_lock, %function
  24              	port_lock:
  25              	.LFB116:
  26              		.file 1 "../../ChibiOS/os/rt/ports/ARMCMx/chcore_v7m.h"
  27              		.loc 1 444 0
  28              		.cfi_startproc
  29              		@ args = 0, pretend = 0, frame = 8
  30              		@ frame_needed = 1, uses_anonymous_args = 0
  31              		@ link register save eliminated.
  32 0000 80B4     		push	{r7}
  33              		.cfi_def_cfa_offset 4
  34              		.cfi_offset 7, -4
  35 0002 83B0     		sub	sp, sp, #12
  36              		.cfi_def_cfa_offset 16
  37 0004 00AF     		add	r7, sp, #0
  38              		.cfi_def_cfa_register 7
  39 0006 2023     		movs	r3, #32
  40 0008 7B60     		str	r3, [r7, #4]
  41              	.LBB6:
  42              	.LBB7:
  43              		.file 2 "../../ChibiOS/os/ext/CMSIS/include/core_cmFunc.h"
  44              		.loc 2 546 0
  45 000a 7B68     		ldr	r3, [r7, #4]
  46              	@ 546 "../../ChibiOS/os/ext/CMSIS/include/core_cmFunc.h" 1
  47 000c 83F31188 		MSR basepri, r3
  48              	@ 0 "" 2
  49              		.thumb
  50              	.LBE7:
  51              	.LBE6:
  52              		.loc 1 451 0
  53 0010 0C37     		adds	r7, r7, #12
  54 0012 BD46     		mov	sp, r7
  55              		@ sp needed
  56 0014 5DF8047B 		ldr	r7, [sp], #4
  57 0018 7047     		bx	lr
ARM GAS  C:\Users\Luis\AppData\Local\Temp\ccllzFQu.s 			page 2


  58              		.cfi_endproc
  59              	.LFE116:
  60              		.size	port_lock, .-port_lock
  61 001a 00BFAFF3 		.section	.text.port_unlock,"ax",%progbits
  61      0080
  62              		.align	2
  63              		.p2align 4,,15
  64              		.thumb
  65              		.thumb_func
  66              		.type	port_unlock, %function
  67              	port_unlock:
  68              	.LFB117:
  69              		.loc 1 458 0
  70              		.cfi_startproc
  71              		@ args = 0, pretend = 0, frame = 8
  72              		@ frame_needed = 1, uses_anonymous_args = 0
  73              		@ link register save eliminated.
  74 0000 80B4     		push	{r7}
  75              		.cfi_def_cfa_offset 4
  76              		.cfi_offset 7, -4
  77 0002 83B0     		sub	sp, sp, #12
  78              		.cfi_def_cfa_offset 16
  79 0004 00AF     		add	r7, sp, #0
  80              		.cfi_def_cfa_register 7
  81 0006 0023     		movs	r3, #0
  82 0008 7B60     		str	r3, [r7, #4]
  83              	.LBB8:
  84              	.LBB9:
  85              		.loc 2 546 0
  86 000a 7B68     		ldr	r3, [r7, #4]
  87              	@ 546 "../../ChibiOS/os/ext/CMSIS/include/core_cmFunc.h" 1
  88 000c 83F31188 		MSR basepri, r3
  89              	@ 0 "" 2
  90              		.thumb
  91              	.LBE9:
  92              	.LBE8:
  93              		.loc 1 465 0
  94 0010 0C37     		adds	r7, r7, #12
  95 0012 BD46     		mov	sp, r7
  96              		@ sp needed
  97 0014 5DF8047B 		ldr	r7, [sp], #4
  98 0018 7047     		bx	lr
  99              		.cfi_endproc
 100              	.LFE117:
 101              		.size	port_unlock, .-port_unlock
 102 001a 00BFAFF3 		.section	.text.chSysLock,"ax",%progbits
 102      0080
 103              		.align	2
 104              		.p2align 4,,15
 105              		.thumb
 106              		.thumb_func
 107              		.type	chSysLock, %function
 108              	chSysLock:
 109              	.LFB156:
 110              		.file 3 "../../ChibiOS/os/rt/include/chsys.h"
 111              		.loc 3 346 0
 112              		.cfi_startproc
ARM GAS  C:\Users\Luis\AppData\Local\Temp\ccllzFQu.s 			page 3


 113              		@ args = 0, pretend = 0, frame = 0
 114              		@ frame_needed = 1, uses_anonymous_args = 0
 115 0000 80B5     		push	{r7, lr}
 116              		.cfi_def_cfa_offset 8
 117              		.cfi_offset 7, -8
 118              		.cfi_offset 14, -4
 119 0002 00AF     		add	r7, sp, #0
 120              		.cfi_def_cfa_register 7
 121              		.loc 3 348 0
 122 0004 FFF7FEFF 		bl	port_lock
 123              		.loc 3 349 0
 124 0008 FFF7FEFF 		bl	_stats_start_measure_crit_thd
 125              		.loc 3 350 0
 126 000c FFF7FEFF 		bl	_dbg_check_lock
 127              		.loc 3 351 0
 128 0010 80BD     		pop	{r7, pc}
 129              		.cfi_endproc
 130              	.LFE156:
 131              		.size	chSysLock, .-chSysLock
 132 0012 00BFAFF3 		.section	.text.chSysUnlock,"ax",%progbits
 132      0080AFF3 
 132      0080AFF3 
 132      0080
 133              		.align	2
 134              		.p2align 4,,15
 135              		.thumb
 136              		.thumb_func
 137              		.type	chSysUnlock, %function
 138              	chSysUnlock:
 139              	.LFB157:
 140              		.loc 3 358 0
 141              		.cfi_startproc
 142              		@ args = 0, pretend = 0, frame = 0
 143              		@ frame_needed = 1, uses_anonymous_args = 0
 144 0000 80B5     		push	{r7, lr}
 145              		.cfi_def_cfa_offset 8
 146              		.cfi_offset 7, -8
 147              		.cfi_offset 14, -4
 148 0002 00AF     		add	r7, sp, #0
 149              		.cfi_def_cfa_register 7
 150              		.loc 3 360 0
 151 0004 FFF7FEFF 		bl	_dbg_check_unlock
 152              		.loc 3 361 0
 153 0008 FFF7FEFF 		bl	_stats_stop_measure_crit_thd
 154              		.loc 3 367 0
 155 000c 094B     		ldr	r3, .L6
 156 000e 1A68     		ldr	r2, [r3]
 157 0010 084B     		ldr	r3, .L6
 158 0012 9A42     		cmp	r2, r3
 159 0014 0AD0     		beq	.L5
 160              		.loc 3 367 0 is_stmt 0 discriminator 1
 161 0016 074B     		ldr	r3, .L6
 162 0018 9B69     		ldr	r3, [r3, #24]
 163 001a 9A68     		ldr	r2, [r3, #8]
 164 001c 054B     		ldr	r3, .L6
 165 001e 1B68     		ldr	r3, [r3]
 166 0020 9B68     		ldr	r3, [r3, #8]
ARM GAS  C:\Users\Luis\AppData\Local\Temp\ccllzFQu.s 			page 4


 167 0022 9A42     		cmp	r2, r3
 168 0024 02D2     		bcs	.L5
 169 0026 0448     		ldr	r0, .L6+4
 170 0028 FFF7FEFF 		bl	chSysHalt
 171              	.L5:
 172              		.loc 3 371 0 is_stmt 1
 173 002c FFF7FEFF 		bl	port_unlock
 174              		.loc 3 372 0
 175 0030 80BD     		pop	{r7, pc}
 176              	.L7:
 177 0032 00BF     		.align	2
 178              	.L6:
 179 0034 00000000 		.word	ch
 180 0038 00000000 		.word	__func__.5842
 181              		.cfi_endproc
 182              	.LFE157:
 183              		.size	chSysUnlock, .-chSysUnlock
 184 003c AFF30080 		.section	.text.chThdGetSelfX,"ax",%progbits
 185              		.align	2
 186              		.p2align 4,,15
 187              		.thumb
 188              		.thumb_func
 189              		.type	chThdGetSelfX, %function
 190              	chThdGetSelfX:
 191              	.LFB177:
 192              		.file 4 "../../ChibiOS/os/rt/include/chthreads.h"
 193              		.loc 4 174 0
 194              		.cfi_startproc
 195              		@ args = 0, pretend = 0, frame = 0
 196              		@ frame_needed = 1, uses_anonymous_args = 0
 197              		@ link register save eliminated.
 198 0000 80B4     		push	{r7}
 199              		.cfi_def_cfa_offset 4
 200              		.cfi_offset 7, -4
 201 0002 00AF     		add	r7, sp, #0
 202              		.cfi_def_cfa_register 7
 203              		.loc 4 176 0
 204 0004 034B     		ldr	r3, .L10
 205 0006 9B69     		ldr	r3, [r3, #24]
 206              		.loc 4 177 0
 207 0008 1846     		mov	r0, r3
 208 000a BD46     		mov	sp, r7
 209              		@ sp needed
 210 000c 5DF8047B 		ldr	r7, [sp], #4
 211 0010 7047     		bx	lr
 212              	.L11:
 213 0012 00BF     		.align	2
 214              	.L10:
 215 0014 00000000 		.word	ch
 216              		.cfi_endproc
 217              	.LFE177:
 218              		.size	chThdGetSelfX, .-chThdGetSelfX
 219 0018 AFF30080 		.section	.text.chThdGetPriorityX,"ax",%progbits
 219      AFF30080 
 220              		.align	2
 221              		.p2align 4,,15
 222              		.thumb
ARM GAS  C:\Users\Luis\AppData\Local\Temp\ccllzFQu.s 			page 5


 223              		.thumb_func
 224              		.type	chThdGetPriorityX, %function
 225              	chThdGetPriorityX:
 226              	.LFB178:
 227              		.loc 4 187 0
 228              		.cfi_startproc
 229              		@ args = 0, pretend = 0, frame = 0
 230              		@ frame_needed = 1, uses_anonymous_args = 0
 231 0000 80B5     		push	{r7, lr}
 232              		.cfi_def_cfa_offset 8
 233              		.cfi_offset 7, -8
 234              		.cfi_offset 14, -4
 235 0002 00AF     		add	r7, sp, #0
 236              		.cfi_def_cfa_register 7
 237              		.loc 4 189 0
 238 0004 FFF7FEFF 		bl	chThdGetSelfX
 239 0008 0346     		mov	r3, r0
 240 000a 9B68     		ldr	r3, [r3, #8]
 241              		.loc 4 190 0
 242 000c 1846     		mov	r0, r3
 243 000e 80BD     		pop	{r7, pc}
 244              		.cfi_endproc
 245              	.LFE178:
 246              		.size	chThdGetPriorityX, .-chThdGetPriorityX
 247              		.section	.text.chRegSetThreadName,"ax",%progbits
 248              		.align	2
 249              		.p2align 4,,15
 250              		.thumb
 251              		.thumb_func
 252              		.type	chRegSetThreadName, %function
 253              	chRegSetThreadName:
 254              	.LFB186:
 255              		.file 5 "../../ChibiOS/os/rt/include/chregistry.h"
 256              		.loc 5 132 0
 257              		.cfi_startproc
 258              		@ args = 0, pretend = 0, frame = 8
 259              		@ frame_needed = 1, uses_anonymous_args = 0
 260              		@ link register save eliminated.
 261 0000 80B4     		push	{r7}
 262              		.cfi_def_cfa_offset 4
 263              		.cfi_offset 7, -4
 264 0002 83B0     		sub	sp, sp, #12
 265              		.cfi_def_cfa_offset 16
 266 0004 00AF     		add	r7, sp, #0
 267              		.cfi_def_cfa_register 7
 268 0006 7860     		str	r0, [r7, #4]
 269              		.loc 5 135 0
 270 0008 044B     		ldr	r3, .L15
 271 000a 9B69     		ldr	r3, [r3, #24]
 272 000c 7A68     		ldr	r2, [r7, #4]
 273 000e 9A61     		str	r2, [r3, #24]
 274              		.loc 5 139 0
 275 0010 0C37     		adds	r7, r7, #12
 276 0012 BD46     		mov	sp, r7
 277              		@ sp needed
 278 0014 5DF8047B 		ldr	r7, [sp], #4
 279 0018 7047     		bx	lr
ARM GAS  C:\Users\Luis\AppData\Local\Temp\ccllzFQu.s 			page 6


 280              	.L16:
 281 001a 00BF     		.align	2
 282              	.L15:
 283 001c 00000000 		.word	ch
 284              		.cfi_endproc
 285              	.LFE186:
 286              		.size	chRegSetThreadName, .-chRegSetThreadName
 287              		.section	.text.chEvtRegisterMask,"ax",%progbits
 288              		.align	2
 289              		.p2align 4,,15
 290              		.thumb
 291              		.thumb_func
 292              		.type	chEvtRegisterMask, %function
 293              	chEvtRegisterMask:
 294              	.LFB205:
 295              		.file 6 "../../ChibiOS/os/rt/include/chevents.h"
 296              		.loc 6 191 0
 297              		.cfi_startproc
 298              		@ args = 0, pretend = 0, frame = 16
 299              		@ frame_needed = 1, uses_anonymous_args = 0
 300 0000 80B5     		push	{r7, lr}
 301              		.cfi_def_cfa_offset 8
 302              		.cfi_offset 7, -8
 303              		.cfi_offset 14, -4
 304 0002 84B0     		sub	sp, sp, #16
 305              		.cfi_def_cfa_offset 24
 306 0004 00AF     		add	r7, sp, #0
 307              		.cfi_def_cfa_register 7
 308 0006 F860     		str	r0, [r7, #12]
 309 0008 B960     		str	r1, [r7, #8]
 310 000a 7A60     		str	r2, [r7, #4]
 311              		.loc 6 193 0
 312 000c F868     		ldr	r0, [r7, #12]
 313 000e B968     		ldr	r1, [r7, #8]
 314 0010 7A68     		ldr	r2, [r7, #4]
 315 0012 4FF0FF33 		mov	r3, #-1
 316 0016 FFF7FEFF 		bl	chEvtRegisterMaskWithFlags
 317              		.loc 6 194 0
 318 001a 1037     		adds	r7, r7, #16
 319 001c BD46     		mov	sp, r7
 320              		@ sp needed
 321 001e 80BD     		pop	{r7, pc}
 322              		.cfi_endproc
 323              	.LFE205:
 324              		.size	chEvtRegisterMask, .-chEvtRegisterMask
 325              		.global	lwip_trp
 326              		.section	.bss.lwip_trp,"aw",%nobits
 327              		.align	2
 328              		.type	lwip_trp, %object
 329              		.size	lwip_trp, 4
 330              	lwip_trp:
 331 0000 00000000 		.space	4
 332              		.section	.bss.wa_lwip_thread,"aw",%nobits
 333              		.align	3
 334              		.type	wa_lwip_thread, %object
 335              		.size	wa_lwip_thread, 816
 336              	wa_lwip_thread:
ARM GAS  C:\Users\Luis\AppData\Local\Temp\ccllzFQu.s 			page 7


 337 0000 00000000 		.space	816
 337      00000000 
 337      00000000 
 337      00000000 
 337      00000000 
 338              		.section	.text.low_level_init,"ax",%progbits
 339              		.align	2
 340              		.p2align 4,,15
 341              		.thumb
 342              		.thumb_func
 343              		.type	low_level_init, %function
 344              	low_level_init:
 345              	.LFB261:
 346              		.file 7 "../../ChibiOS/os/various/lwip_bindings/lwipthread.c"
 347              		.loc 7 95 0
 348              		.cfi_startproc
 349              		@ args = 0, pretend = 0, frame = 8
 350              		@ frame_needed = 1, uses_anonymous_args = 0
 351              		@ link register save eliminated.
 352 0000 80B4     		push	{r7}
 353              		.cfi_def_cfa_offset 4
 354              		.cfi_offset 7, -4
 355 0002 83B0     		sub	sp, sp, #12
 356              		.cfi_def_cfa_offset 16
 357 0004 00AF     		add	r7, sp, #0
 358              		.cfi_def_cfa_register 7
 359 0006 7860     		str	r0, [r7, #4]
 360              		.loc 7 97 0
 361 0008 7B68     		ldr	r3, [r7, #4]
 362 000a 0622     		movs	r2, #6
 363 000c 83F82220 		strb	r2, [r3, #34]
 364              		.loc 7 100 0
 365 0010 7B68     		ldr	r3, [r7, #4]
 366 0012 40F2DC52 		movw	r2, #1500
 367 0016 1A84     		strh	r2, [r3, #32]	@ movhi
 368              		.loc 7 104 0
 369 0018 7B68     		ldr	r3, [r7, #4]
 370 001a 3222     		movs	r2, #50
 371 001c 83F82920 		strb	r2, [r3, #41]
 372              		.loc 7 107 0
 373 0020 0C37     		adds	r7, r7, #12
 374 0022 BD46     		mov	sp, r7
 375              		@ sp needed
 376 0024 5DF8047B 		ldr	r7, [sp], #4
 377 0028 7047     		bx	lr
 378              		.cfi_endproc
 379              	.LFE261:
 380              		.size	low_level_init, .-low_level_init
 381 002a 00BFAFF3 		.section	.text.low_level_output,"ax",%progbits
 381      0080
 382              		.align	2
 383              		.p2align 4,,15
 384              		.thumb
 385              		.thumb_func
 386              		.type	low_level_output, %function
 387              	low_level_output:
 388              	.LFB262:
ARM GAS  C:\Users\Luis\AppData\Local\Temp\ccllzFQu.s 			page 8


 389              		.loc 7 112 0
 390              		.cfi_startproc
 391              		@ args = 0, pretend = 0, frame = 24
 392              		@ frame_needed = 1, uses_anonymous_args = 0
 393 0000 80B5     		push	{r7, lr}
 394              		.cfi_def_cfa_offset 8
 395              		.cfi_offset 7, -8
 396              		.cfi_offset 14, -4
 397 0002 86B0     		sub	sp, sp, #24
 398              		.cfi_def_cfa_offset 32
 399 0004 00AF     		add	r7, sp, #0
 400              		.cfi_def_cfa_register 7
 401 0006 7860     		str	r0, [r7, #4]
 402 0008 3960     		str	r1, [r7]
 403              		.loc 7 117 0
 404 000a 07F10803 		add	r3, r7, #8
 405 000e 1848     		ldr	r0, .L25
 406 0010 1946     		mov	r1, r3
 407 0012 4FF4FA72 		mov	r2, #500
 408 0016 FFF7FEFF 		bl	macWaitTransmitDescriptor
 409 001a 0346     		mov	r3, r0
 410 001c 002B     		cmp	r3, #0
 411 001e 01D0     		beq	.L20
 412              		.loc 7 118 0
 413 0020 FD23     		movs	r3, #253
 414 0022 1FE0     		b	.L24
 415              	.L20:
 416              		.loc 7 125 0
 417 0024 3B68     		ldr	r3, [r7]
 418 0026 7B61     		str	r3, [r7, #20]
 419 0028 0DE0     		b	.L22
 420              	.L23:
 421              		.loc 7 126 0 discriminator 2
 422 002a 7B69     		ldr	r3, [r7, #20]
 423 002c 5A68     		ldr	r2, [r3, #4]
 424 002e 7B69     		ldr	r3, [r7, #20]
 425 0030 5B89     		ldrh	r3, [r3, #10]
 426 0032 07F10801 		add	r1, r7, #8
 427 0036 0846     		mov	r0, r1
 428 0038 1146     		mov	r1, r2
 429 003a 1A46     		mov	r2, r3
 430 003c FFF7FEFF 		bl	mac_lld_write_transmit_descriptor
 431              		.loc 7 125 0 discriminator 2
 432 0040 7B69     		ldr	r3, [r7, #20]
 433 0042 1B68     		ldr	r3, [r3]
 434 0044 7B61     		str	r3, [r7, #20]
 435              	.L22:
 436              		.loc 7 125 0 is_stmt 0 discriminator 1
 437 0046 7B69     		ldr	r3, [r7, #20]
 438 0048 002B     		cmp	r3, #0
 439 004a EED1     		bne	.L23
 440              		.loc 7 127 0 is_stmt 1
 441 004c 07F10803 		add	r3, r7, #8
 442 0050 1846     		mov	r0, r3
 443 0052 FFF7FEFF 		bl	macReleaseTransmitDescriptor
 444              		.loc 7 133 0
 445 0056 074B     		ldr	r3, .L25+4
ARM GAS  C:\Users\Luis\AppData\Local\Temp\ccllzFQu.s 			page 9


 446 0058 1B88     		ldrh	r3, [r3]
 447 005a 0133     		adds	r3, r3, #1
 448 005c 9AB2     		uxth	r2, r3
 449 005e 054B     		ldr	r3, .L25+4
 450 0060 1A80     		strh	r2, [r3]	@ movhi
 451              		.loc 7 135 0
 452 0062 0023     		movs	r3, #0
 453              	.L24:
 454 0064 5BB2     		sxtb	r3, r3
 455              		.loc 7 136 0
 456 0066 1846     		mov	r0, r3
 457 0068 1837     		adds	r7, r7, #24
 458 006a BD46     		mov	sp, r7
 459              		@ sp needed
 460 006c 80BD     		pop	{r7, pc}
 461              	.L26:
 462 006e 00BF     		.align	2
 463              	.L25:
 464 0070 00000000 		.word	ETHD1
 465 0074 00000000 		.word	lwip_stats
 466              		.cfi_endproc
 467              	.LFE262:
 468              		.size	low_level_output, .-low_level_output
 469              		.section	.text.low_level_input,"ax",%progbits
 470              		.align	2
 471              		.p2align 4,,15
 472              		.thumb
 473              		.thumb_func
 474              		.type	low_level_input, %function
 475              	low_level_input:
 476              	.LFB263:
 477              		.loc 7 141 0
 478              		.cfi_startproc
 479              		@ args = 0, pretend = 0, frame = 32
 480              		@ frame_needed = 1, uses_anonymous_args = 0
 481 0000 80B5     		push	{r7, lr}
 482              		.cfi_def_cfa_offset 8
 483              		.cfi_offset 7, -8
 484              		.cfi_offset 14, -4
 485 0002 88B0     		sub	sp, sp, #32
 486              		.cfi_def_cfa_offset 40
 487 0004 00AF     		add	r7, sp, #0
 488              		.cfi_def_cfa_register 7
 489 0006 7860     		str	r0, [r7, #4]
 490              		.loc 7 147 0
 491 0008 07F10803 		add	r3, r7, #8
 492 000c 2548     		ldr	r0, .L35
 493 000e 1946     		mov	r1, r3
 494 0010 0022     		movs	r2, #0
 495 0012 FFF7FEFF 		bl	macWaitReceiveDescriptor
 496 0016 0346     		mov	r3, r0
 497 0018 002B     		cmp	r3, #0
 498 001a 3ED1     		bne	.L28
 499              		.loc 7 148 0
 500 001c FB68     		ldr	r3, [r7, #12]
 501 001e 7B83     		strh	r3, [r7, #26]	@ movhi
 502              		.loc 7 155 0
ARM GAS  C:\Users\Luis\AppData\Local\Temp\ccllzFQu.s 			page 10


 503 0020 7B8B     		ldrh	r3, [r7, #26]
 504 0022 0320     		movs	r0, #3
 505 0024 1946     		mov	r1, r3
 506 0026 0322     		movs	r2, #3
 507 0028 FFF7FEFF 		bl	pbuf_alloc
 508 002c 7861     		str	r0, [r7, #20]
 509              		.loc 7 157 0
 510 002e 7B69     		ldr	r3, [r7, #20]
 511 0030 002B     		cmp	r3, #0
 512 0032 1FD0     		beq	.L29
 513              		.loc 7 164 0
 514 0034 7B69     		ldr	r3, [r7, #20]
 515 0036 FB61     		str	r3, [r7, #28]
 516 0038 0DE0     		b	.L30
 517              	.L31:
 518              		.loc 7 165 0 discriminator 2
 519 003a FB69     		ldr	r3, [r7, #28]
 520 003c 5A68     		ldr	r2, [r3, #4]
 521 003e FB69     		ldr	r3, [r7, #28]
 522 0040 5B89     		ldrh	r3, [r3, #10]
 523 0042 07F10801 		add	r1, r7, #8
 524 0046 0846     		mov	r0, r1
 525 0048 1146     		mov	r1, r2
 526 004a 1A46     		mov	r2, r3
 527 004c FFF7FEFF 		bl	mac_lld_read_receive_descriptor
 528              		.loc 7 164 0 discriminator 2
 529 0050 FB69     		ldr	r3, [r7, #28]
 530 0052 1B68     		ldr	r3, [r3]
 531 0054 FB61     		str	r3, [r7, #28]
 532              	.L30:
 533              		.loc 7 164 0 is_stmt 0 discriminator 1
 534 0056 FB69     		ldr	r3, [r7, #28]
 535 0058 002B     		cmp	r3, #0
 536 005a EED1     		bne	.L31
 537              		.loc 7 166 0 is_stmt 1
 538 005c 07F10803 		add	r3, r7, #8
 539 0060 1846     		mov	r0, r3
 540 0062 FFF7FEFF 		bl	macReleaseReceiveDescriptor
 541              		.loc 7 172 0
 542 0066 104B     		ldr	r3, .L35+4
 543 0068 5B88     		ldrh	r3, [r3, #2]
 544 006a 0133     		adds	r3, r3, #1
 545 006c 9AB2     		uxth	r2, r3
 546 006e 0E4B     		ldr	r3, .L35+4
 547 0070 5A80     		strh	r2, [r3, #2]	@ movhi
 548 0072 10E0     		b	.L32
 549              	.L29:
 550              		.loc 7 175 0
 551 0074 07F10803 		add	r3, r7, #8
 552 0078 1846     		mov	r0, r3
 553 007a FFF7FEFF 		bl	macReleaseReceiveDescriptor
 554              		.loc 7 176 0
 555 007e 0A4B     		ldr	r3, .L35+4
 556 0080 9B89     		ldrh	r3, [r3, #12]
 557 0082 0133     		adds	r3, r3, #1
 558 0084 9AB2     		uxth	r2, r3
 559 0086 084B     		ldr	r3, .L35+4
ARM GAS  C:\Users\Luis\AppData\Local\Temp\ccllzFQu.s 			page 11


 560 0088 9A81     		strh	r2, [r3, #12]	@ movhi
 561              		.loc 7 177 0
 562 008a 074B     		ldr	r3, .L35+4
 563 008c DB88     		ldrh	r3, [r3, #6]
 564 008e 0133     		adds	r3, r3, #1
 565 0090 9AB2     		uxth	r2, r3
 566 0092 054B     		ldr	r3, .L35+4
 567 0094 DA80     		strh	r2, [r3, #6]	@ movhi
 568              	.L32:
 569              		.loc 7 179 0
 570 0096 7B69     		ldr	r3, [r7, #20]
 571 0098 00E0     		b	.L34
 572              	.L28:
 573              		.loc 7 181 0
 574 009a 0023     		movs	r3, #0
 575              	.L34:
 576              		.loc 7 182 0
 577 009c 1846     		mov	r0, r3
 578 009e 2037     		adds	r7, r7, #32
 579 00a0 BD46     		mov	sp, r7
 580              		@ sp needed
 581 00a2 80BD     		pop	{r7, pc}
 582              	.L36:
 583              		.align	2
 584              	.L35:
 585 00a4 00000000 		.word	ETHD1
 586 00a8 00000000 		.word	lwip_stats
 587              		.cfi_endproc
 588              	.LFE263:
 589              		.size	low_level_input, .-low_level_input
 590 00ac AFF30080 		.section	.text.ethernetif_init,"ax",%progbits
 591              		.align	2
 592              		.p2align 4,,15
 593              		.thumb
 594              		.thumb_func
 595              		.type	ethernetif_init, %function
 596              	ethernetif_init:
 597              	.LFB264:
 598              		.loc 7 187 0
 599              		.cfi_startproc
 600              		@ args = 0, pretend = 0, frame = 8
 601              		@ frame_needed = 1, uses_anonymous_args = 0
 602 0000 80B5     		push	{r7, lr}
 603              		.cfi_def_cfa_offset 8
 604              		.cfi_offset 7, -8
 605              		.cfi_offset 14, -4
 606 0002 82B0     		sub	sp, sp, #8
 607              		.cfi_def_cfa_offset 16
 608 0004 00AF     		add	r7, sp, #0
 609              		.cfi_def_cfa_register 7
 610 0006 7860     		str	r0, [r7, #4]
 611              		.loc 7 200 0
 612 0008 7B68     		ldr	r3, [r7, #4]
 613 000a 0022     		movs	r2, #0
 614 000c DA61     		str	r2, [r3, #28]
 615              		.loc 7 201 0
 616 000e 7B68     		ldr	r3, [r7, #4]
ARM GAS  C:\Users\Luis\AppData\Local\Temp\ccllzFQu.s 			page 12


 617 0010 6D22     		movs	r2, #109
 618 0012 83F82A20 		strb	r2, [r3, #42]
 619              		.loc 7 202 0
 620 0016 7B68     		ldr	r3, [r7, #4]
 621 0018 7322     		movs	r2, #115
 622 001a 83F82B20 		strb	r2, [r3, #43]
 623              		.loc 7 207 0
 624 001e 7B68     		ldr	r3, [r7, #4]
 625 0020 064A     		ldr	r2, .L39
 626 0022 5A61     		str	r2, [r3, #20]
 627              		.loc 7 208 0
 628 0024 7B68     		ldr	r3, [r7, #4]
 629 0026 064A     		ldr	r2, .L39+4
 630 0028 9A61     		str	r2, [r3, #24]
 631              		.loc 7 211 0
 632 002a 7868     		ldr	r0, [r7, #4]
 633 002c FFF7FEFF 		bl	low_level_init
 634              		.loc 7 213 0
 635 0030 0023     		movs	r3, #0
 636 0032 5BB2     		sxtb	r3, r3
 637              		.loc 7 214 0
 638 0034 1846     		mov	r0, r3
 639 0036 0837     		adds	r7, r7, #8
 640 0038 BD46     		mov	sp, r7
 641              		@ sp needed
 642 003a 80BD     		pop	{r7, pc}
 643              	.L40:
 644              		.align	2
 645              	.L39:
 646 003c 00000000 		.word	etharp_output
 647 0040 00000000 		.word	low_level_output
 648              		.cfi_endproc
 649              	.LFE264:
 650              		.size	ethernetif_init, .-ethernetif_init
 651 0044 AFF30080 		.section	.rodata
 651      AFF30080 
 651      AFF30080 
 652              		.align	2
 653              	.LC0:
 654 0000 6C776970 		.ascii	"lwipthread\000"
 654      74687265 
 654      616400
 655 000b 00       		.section	.text.lwip_thread,"ax",%progbits
 656              		.align	2
 657              		.p2align 4,,15
 658              		.thumb
 659              		.thumb_func
 660              		.type	lwip_thread, %function
 661              	lwip_thread:
 662              	.LFB265:
 663              		.loc 7 222 0
 664              		.cfi_startproc
 665              		@ args = 0, pretend = 0, frame = 112
 666              		@ frame_needed = 1, uses_anonymous_args = 0
 667 0000 80B5     		push	{r7, lr}
 668              		.cfi_def_cfa_offset 8
 669              		.cfi_offset 7, -8
ARM GAS  C:\Users\Luis\AppData\Local\Temp\ccllzFQu.s 			page 13


 670              		.cfi_offset 14, -4
 671 0002 A0B0     		sub	sp, sp, #128
 672              		.cfi_def_cfa_offset 136
 673 0004 04AF     		add	r7, sp, #16
 674              		.cfi_def_cfa 7, 120
 675 0006 7860     		str	r0, [r7, #4]
 676              		.loc 7 229 0
 677 0008 7048     		ldr	r0, .L54
 678 000a FFF7FEFF 		bl	chRegSetThreadName
 679              		.loc 7 232 0
 680 000e 0020     		movs	r0, #0
 681 0010 0021     		movs	r1, #0
 682 0012 FFF7FEFF 		bl	tcpip_init
 683              		.loc 7 235 0
 684 0016 7B68     		ldr	r3, [r7, #4]
 685 0018 002B     		cmp	r3, #0
 686 001a 1ED0     		beq	.L42
 687              	.LBB10:
 688              		.loc 7 236 0
 689 001c 7B68     		ldr	r3, [r7, #4]
 690 001e BB66     		str	r3, [r7, #104]
 691              		.loc 7 239 0
 692 0020 0023     		movs	r3, #0
 693 0022 FB66     		str	r3, [r7, #108]
 694 0024 0CE0     		b	.L43
 695              	.L44:
 696              		.loc 7 240 0 discriminator 2
 697 0026 BB6E     		ldr	r3, [r7, #104]
 698 0028 1A68     		ldr	r2, [r3]
 699 002a FB6E     		ldr	r3, [r7, #108]
 700 002c 1344     		add	r3, r3, r2
 701 002e 1A78     		ldrb	r2, [r3]	@ zero_extendqisi2
 702 0030 6749     		ldr	r1, .L54+4
 703 0032 FB6E     		ldr	r3, [r7, #108]
 704 0034 0B44     		add	r3, r3, r1
 705 0036 2033     		adds	r3, r3, #32
 706 0038 DA70     		strb	r2, [r3, #3]
 707              		.loc 7 239 0 discriminator 2
 708 003a FB6E     		ldr	r3, [r7, #108]
 709 003c 0133     		adds	r3, r3, #1
 710 003e FB66     		str	r3, [r7, #108]
 711              	.L43:
 712              		.loc 7 239 0 is_stmt 0 discriminator 1
 713 0040 FB6E     		ldr	r3, [r7, #108]
 714 0042 052B     		cmp	r3, #5
 715 0044 EFD9     		bls	.L44
 716              		.loc 7 241 0 is_stmt 1
 717 0046 BB6E     		ldr	r3, [r7, #104]
 718 0048 5B68     		ldr	r3, [r3, #4]
 719 004a 3B61     		str	r3, [r7, #16]
 720              		.loc 7 242 0
 721 004c BB6E     		ldr	r3, [r7, #104]
 722 004e DB68     		ldr	r3, [r3, #12]
 723 0050 FB60     		str	r3, [r7, #12]
 724              		.loc 7 243 0
 725 0052 BB6E     		ldr	r3, [r7, #104]
 726 0054 9B68     		ldr	r3, [r3, #8]
ARM GAS  C:\Users\Luis\AppData\Local\Temp\ccllzFQu.s 			page 14


 727 0056 BB60     		str	r3, [r7, #8]
 728              	.LBE10:
 729 0058 1EE0     		b	.L45
 730              	.L42:
 731              		.loc 7 246 0
 732 005a 5D4B     		ldr	r3, .L54+4
 733 005c C222     		movs	r2, #194
 734 005e 83F82320 		strb	r2, [r3, #35]
 735              		.loc 7 247 0
 736 0062 5B4B     		ldr	r3, .L54+4
 737 0064 AF22     		movs	r2, #175
 738 0066 83F82420 		strb	r2, [r3, #36]
 739              		.loc 7 248 0
 740 006a 594B     		ldr	r3, .L54+4
 741 006c 5122     		movs	r2, #81
 742 006e 83F82520 		strb	r2, [r3, #37]
 743              		.loc 7 249 0
 744 0072 574B     		ldr	r3, .L54+4
 745 0074 0322     		movs	r2, #3
 746 0076 83F82620 		strb	r2, [r3, #38]
 747              		.loc 7 250 0
 748 007a 554B     		ldr	r3, .L54+4
 749 007c CF22     		movs	r2, #207
 750 007e 83F82720 		strb	r2, [r3, #39]
 751              		.loc 7 251 0
 752 0082 534B     		ldr	r3, .L54+4
 753 0084 4622     		movs	r2, #70
 754 0086 83F82820 		strb	r2, [r3, #40]
 755              		.loc 7 252 0
 756 008a 524B     		ldr	r3, .L54+8
 757 008c 3B61     		str	r3, [r7, #16]
 758              		.loc 7 253 0
 759 008e 524B     		ldr	r3, .L54+12
 760 0090 FB60     		str	r3, [r7, #12]
 761              		.loc 7 254 0
 762 0092 6FF07F43 		mvn	r3, #-16777216
 763 0096 BB60     		str	r3, [r7, #8]
 764              	.L45:
 765              		.loc 7 256 0
 766 0098 5048     		ldr	r0, .L54+16
 767 009a 5149     		ldr	r1, .L54+20
 768 009c FFF7FEFF 		bl	macStart
 769              		.loc 7 257 0
 770 00a0 07F11001 		add	r1, r7, #16
 771 00a4 07F10802 		add	r2, r7, #8
 772 00a8 07F10C03 		add	r3, r7, #12
 773 00ac 0020     		movs	r0, #0
 774 00ae 0090     		str	r0, [sp]
 775 00b0 4C48     		ldr	r0, .L54+24
 776 00b2 0190     		str	r0, [sp, #4]
 777 00b4 4C48     		ldr	r0, .L54+28
 778 00b6 0290     		str	r0, [sp, #8]
 779 00b8 4548     		ldr	r0, .L54+4
 780 00ba FFF7FEFF 		bl	netif_add
 781              		.loc 7 259 0
 782 00be 4448     		ldr	r0, .L54+4
 783 00c0 FFF7FEFF 		bl	netif_set_default
ARM GAS  C:\Users\Luis\AppData\Local\Temp\ccllzFQu.s 			page 15


 784              		.loc 7 260 0
 785 00c4 4248     		ldr	r0, .L54+4
 786 00c6 FFF7FEFF 		bl	netif_set_up
 787              		.loc 7 263 0
 788 00ca 07F13C03 		add	r3, r7, #60
 789 00ce 1846     		mov	r0, r3
 790 00d0 4CF25031 		movw	r1, #50000
 791 00d4 FFF7FEFF 		bl	evtObjectInit
 792              		.loc 7 264 0
 793 00d8 07F13C03 		add	r3, r7, #60
 794 00dc 1846     		mov	r0, r3
 795 00de FFF7FEFF 		bl	evtStart
 796              		.loc 7 265 0
 797 00e2 07F13C03 		add	r3, r7, #60
 798 00e6 03F11402 		add	r2, r3, #20
 799 00ea 07F12803 		add	r3, r7, #40
 800 00ee 1046     		mov	r0, r2
 801 00f0 1946     		mov	r1, r3
 802 00f2 0122     		movs	r2, #1
 803 00f4 FFF7FEFF 		bl	chEvtRegisterMask
 804              		.loc 7 266 0
 805 00f8 07F11403 		add	r3, r7, #20
 806 00fc 3B48     		ldr	r0, .L54+32
 807 00fe 1946     		mov	r1, r3
 808 0100 0222     		movs	r2, #2
 809 0102 FFF7FEFF 		bl	chEvtRegisterMask
 810              		.loc 7 267 0
 811 0106 0320     		movs	r0, #3
 812 0108 FFF7FEFF 		bl	chEvtAddEvents
 813              		.loc 7 270 0
 814 010c 3848     		ldr	r0, .L54+36
 815 010e 0021     		movs	r1, #0
 816 0110 FFF7FEFF 		bl	chThdResume
 817              		.loc 7 271 0
 818 0114 0220     		movs	r0, #2
 819 0116 FFF7FEFF 		bl	chThdSetPriority
 820              	.L53:
 821              	.LBB11:
 822              		.loc 7 274 0
 823 011a 4FF0FF30 		mov	r0, #-1
 824 011e FFF7FEFF 		bl	chEvtWaitAny
 825 0122 7866     		str	r0, [r7, #100]
 826              		.loc 7 275 0
 827 0124 7B6E     		ldr	r3, [r7, #100]
 828 0126 03F00103 		and	r3, r3, #1
 829 012a 002B     		cmp	r3, #0
 830 012c 22D0     		beq	.L46
 831              	.LBB12:
 832              		.loc 7 276 0
 833 012e 2B48     		ldr	r0, .L54+16
 834 0130 FFF7FEFF 		bl	macPollLinkStatus
 835 0134 0346     		mov	r3, r0
 836 0136 87F86330 		strb	r3, [r7, #99]
 837              		.loc 7 277 0
 838 013a 97F86320 		ldrb	r2, [r7, #99]	@ zero_extendqisi2
 839 013e 244B     		ldr	r3, .L54+4
 840 0140 93F82930 		ldrb	r3, [r3, #41]	@ zero_extendqisi2
ARM GAS  C:\Users\Luis\AppData\Local\Temp\ccllzFQu.s 			page 16


 841 0144 03F01003 		and	r3, r3, #16
 842 0148 002B     		cmp	r3, #0
 843 014a 0CBF     		ite	eq
 844 014c 0023     		moveq	r3, #0
 845 014e 0123     		movne	r3, #1
 846 0150 DBB2     		uxtb	r3, r3
 847 0152 9A42     		cmp	r2, r3
 848 0154 0ED0     		beq	.L46
 849              		.loc 7 278 0
 850 0156 97F86330 		ldrb	r3, [r7, #99]	@ zero_extendqisi2
 851 015a 002B     		cmp	r3, #0
 852 015c 05D0     		beq	.L47
 853              		.loc 7 279 0
 854 015e 2548     		ldr	r0, .L54+40
 855 0160 1B49     		ldr	r1, .L54+4
 856 0162 0022     		movs	r2, #0
 857 0164 FFF7FEFF 		bl	tcpip_callback_with_block
 858 0168 04E0     		b	.L46
 859              	.L47:
 860              		.loc 7 286 0
 861 016a 2348     		ldr	r0, .L54+44
 862 016c 1849     		ldr	r1, .L54+4
 863 016e 0022     		movs	r2, #0
 864 0170 FFF7FEFF 		bl	tcpip_callback_with_block
 865              	.L46:
 866              	.LBE12:
 867              		.loc 7 294 0
 868 0174 7B6E     		ldr	r3, [r7, #100]
 869 0176 03F00203 		and	r3, r3, #2
 870 017a 002B     		cmp	r3, #0
 871 017c 24D0     		beq	.L48
 872              	.LBB13:
 873              		.loc 7 296 0
 874 017e 1CE0     		b	.L49
 875              	.L52:
 876              	.LBB14:
 877              		.loc 7 297 0
 878 0180 FB6D     		ldr	r3, [r7, #92]
 879 0182 5B68     		ldr	r3, [r3, #4]
 880 0184 BB65     		str	r3, [r7, #88]
 881              		.loc 7 298 0
 882 0186 BB6D     		ldr	r3, [r7, #88]
 883 0188 9B89     		ldrh	r3, [r3, #12]	@ unaligned
 884 018a 9BB2     		uxth	r3, r3
 885 018c 1846     		mov	r0, r3
 886 018e FFF7FEFF 		bl	lwip_htons
 887 0192 0346     		mov	r3, r0
 888 0194 B3F5006F 		cmp	r3, #2048
 889 0198 03D0     		beq	.L51
 890 019a 40F60602 		movw	r2, #2054
 891 019e 9342     		cmp	r3, r2
 892 01a0 08D1     		bne	.L50
 893              	.L51:
 894              		.loc 7 308 0
 895 01a2 0B4B     		ldr	r3, .L54+4
 896 01a4 1B69     		ldr	r3, [r3, #16]
 897 01a6 F86D     		ldr	r0, [r7, #92]
ARM GAS  C:\Users\Luis\AppData\Local\Temp\ccllzFQu.s 			page 17


 898 01a8 0949     		ldr	r1, .L54+4
 899 01aa 9847     		blx	r3
 900 01ac 0346     		mov	r3, r0
 901 01ae 002B     		cmp	r3, #0
 902 01b0 00D1     		bne	.L50
 903              		.loc 7 309 0
 904 01b2 02E0     		b	.L49
 905              	.L50:
 906              		.loc 7 312 0
 907 01b4 F86D     		ldr	r0, [r7, #92]
 908 01b6 FFF7FEFF 		bl	pbuf_free
 909              	.L49:
 910              	.LBE14:
 911              		.loc 7 296 0 discriminator 1
 912 01ba 0548     		ldr	r0, .L54+4
 913 01bc FFF7FEFF 		bl	low_level_input
 914 01c0 F865     		str	r0, [r7, #92]
 915 01c2 FB6D     		ldr	r3, [r7, #92]
 916 01c4 002B     		cmp	r3, #0
 917 01c6 DBD1     		bne	.L52
 918              	.L48:
 919              	.LBE13:
 920              	.LBE11:
 921              		.loc 7 316 0
 922 01c8 A7E7     		b	.L53
 923              	.L55:
 924 01ca 00BF     		.align	2
 925              	.L54:
 926 01cc 00000000 		.word	.LC0
 927 01d0 00000000 		.word	thisif.8700
 928 01d4 0A01001E 		.word	503316746
 929 01d8 0A010001 		.word	16777482
 930 01dc 00000000 		.word	ETHD1
 931 01e0 00000000 		.word	mac_config.8701
 932 01e4 00000000 		.word	ethernetif_init
 933 01e8 00000000 		.word	tcpip_input
 934 01ec 18000000 		.word	ETHD1+24
 935 01f0 00000000 		.word	lwip_trp
 936 01f4 00000000 		.word	netif_set_link_up
 937 01f8 00000000 		.word	netif_set_link_down
 938              		.cfi_endproc
 939              	.LFE265:
 940              		.size	lwip_thread, .-lwip_thread
 941 01fc AFF30080 		.section	.text.lwipInit,"ax",%progbits
 942              		.align	2
 943              		.p2align 4,,15
 944              		.global	lwipInit
 945              		.thumb
 946              		.thumb_func
 947              		.type	lwipInit, %function
 948              	lwipInit:
 949              	.LFB266:
 950              		.loc 7 326 0
 951              		.cfi_startproc
 952              		@ args = 0, pretend = 0, frame = 8
 953              		@ frame_needed = 1, uses_anonymous_args = 0
 954 0000 80B5     		push	{r7, lr}
ARM GAS  C:\Users\Luis\AppData\Local\Temp\ccllzFQu.s 			page 18


 955              		.cfi_def_cfa_offset 8
 956              		.cfi_offset 7, -8
 957              		.cfi_offset 14, -4
 958 0002 84B0     		sub	sp, sp, #16
 959              		.cfi_def_cfa_offset 24
 960 0004 02AF     		add	r7, sp, #8
 961              		.cfi_def_cfa 7, 16
 962 0006 7860     		str	r0, [r7, #4]
 963              		.loc 7 330 0
 964 0008 FFF7FEFF 		bl	chThdGetPriorityX
 965 000c 0346     		mov	r3, r0
 966              		.loc 7 329 0
 967 000e 013B     		subs	r3, r3, #1
 968 0010 7A68     		ldr	r2, [r7, #4]
 969 0012 0092     		str	r2, [sp]
 970 0014 0848     		ldr	r0, .L57
 971 0016 4FF44C71 		mov	r1, #816
 972 001a 1A46     		mov	r2, r3
 973 001c 074B     		ldr	r3, .L57+4
 974 001e FFF7FEFF 		bl	chThdCreateStatic
 975              		.loc 7 335 0
 976 0022 FFF7FEFF 		bl	chSysLock
 977              		.loc 7 336 0
 978 0026 0648     		ldr	r0, .L57+8
 979 0028 FFF7FEFF 		bl	chThdSuspendS
 980              		.loc 7 337 0
 981 002c FFF7FEFF 		bl	chSysUnlock
 982              		.loc 7 338 0
 983 0030 0837     		adds	r7, r7, #8
 984 0032 BD46     		mov	sp, r7
 985              		@ sp needed
 986 0034 80BD     		pop	{r7, pc}
 987              	.L58:
 988 0036 00BF     		.align	2
 989              	.L57:
 990 0038 00000000 		.word	wa_lwip_thread
 991 003c 00000000 		.word	lwip_thread
 992 0040 00000000 		.word	lwip_trp
 993              		.cfi_endproc
 994              	.LFE266:
 995              		.size	lwipInit, .-lwipInit
 996 0044 AFF30080 		.section	.bss.thisif.8700,"aw",%nobits
 996      AFF30080 
 996      AFF30080 
 997              		.align	2
 998              		.type	thisif.8700, %object
 999              		.size	thisif.8700, 48
 1000              	thisif.8700:
 1001 0000 00000000 		.space	48
 1001      00000000 
 1001      00000000 
 1001      00000000 
 1001      00000000 
 1002              		.section	.rodata.mac_config.8701,"a",%progbits
 1003              		.align	2
 1004              		.type	mac_config.8701, %object
 1005              		.size	mac_config.8701, 4
ARM GAS  C:\Users\Luis\AppData\Local\Temp\ccllzFQu.s 			page 19


 1006              	mac_config.8701:
 1007 0000 23000000 		.word	thisif.8700+35
 1008              		.section	.rodata.__func__.5842,"a",%progbits
 1009              		.align	2
 1010              		.type	__func__.5842, %object
 1011              		.size	__func__.5842, 12
 1012              	__func__.5842:
 1013 0000 63685379 		.ascii	"chSysUnlock\000"
 1013      73556E6C 
 1013      6F636B00 
 1014              		.text
 1015              	.Letext0:
 1016              		.file 8 "c:\\emtechesdk\\gcc\\lib\\gcc\\arm-none-eabi\\4.8.3\\include\\stddef.h"
 1017              		.file 9 "c:\\emtechesdk\\gcc\\arm-none-eabi\\include\\stdint.h"
 1018              		.file 10 "../../ChibiOS/os/rt/ports/ARMCMx/compilers/GCC/chtypes.h"
 1019              		.file 11 "../../ChibiOS/os/rt/include/chsystypes.h"
 1020              		.file 12 "../../ChibiOS/os/rt/include/chschd.h"
 1021              		.file 13 "../../ChibiOS/os/rt/ports/ARMCMx/chcore.h"
 1022              		.file 14 "../../ChibiOS/os/rt/include/chdebug.h"
 1023              		.file 15 "../../ChibiOS/os/rt/include/chtm.h"
 1024              		.file 16 "../../ChibiOS/os/rt/include/chstats.h"
 1025              		.file 17 "../../ChibiOS/os/rt/include/chsem.h"
 1026              		.file 18 "../../ChibiOS/os/rt/include/chmtx.h"
 1027              		.file 19 "../../ChibiOS/os/hal/include/mac.h"
 1028              		.file 20 "../../ChibiOS/os/hal/ports/STM32/LLD/mac_lld.h"
 1029              		.file 21 "../../ChibiOS/os/various/evtimer.h"
 1030              		.file 22 "../../ChibiOS/os/various/lwip_bindings/arch/cc.h"
 1031              		.file 23 "../../ChibiOS/os/various/lwip_bindings/lwipthread.h"
 1032              		.file 24 "../../ChibiOS/ext/lwip/src/include/lwip/mem.h"
 1033              		.file 25 "../../ChibiOS/ext/lwip/src/include/lwip/err.h"
 1034              		.file 26 "../../ChibiOS/ext/lwip/src/include/lwip/pbuf.h"
 1035              		.file 27 "../../ChibiOS/ext/lwip/src/include/lwip/memp.h"
 1036              		.file 28 "../../ChibiOS/ext/lwip/src/include/lwip/stats.h"
 1037              		.file 29 "../../ChibiOS/ext/lwip/src/include/ipv4/lwip/ip_addr.h"
 1038              		.file 30 "../../ChibiOS/ext/lwip/src/include/lwip/netif.h"
 1039              		.file 31 "../../ChibiOS/ext/lwip/src/include/lwip/tcpip.h"
 1040              		.file 32 "../../ChibiOS/ext/lwip/src/include/netif/etharp.h"
 1041              		.file 33 "../../ChibiOS/os/ext/CMSIS/include/core_cm4.h"
 1042              		.section	.debug_info,"",%progbits
 1043              	.Ldebug_info0:
 1044 0000 BF130000 		.4byte	0x13bf
 1045 0004 0400     		.2byte	0x4
 1046 0006 00000000 		.4byte	.Ldebug_abbrev0
 1047 000a 04       		.byte	0x4
 1048 000b 01       		.uleb128 0x1
 1049 000c 60010000 		.4byte	.LASF281
 1050 0010 01       		.byte	0x1
 1051 0011 10000000 		.4byte	.LASF282
 1052 0015 20050000 		.4byte	.LASF283
 1053 0019 00000000 		.4byte	.Ldebug_ranges0+0
 1054 001d 00000000 		.4byte	0
 1055 0021 00000000 		.4byte	.Ldebug_line0
 1056 0025 02       		.uleb128 0x2
 1057 0026 04       		.byte	0x4
 1058 0027 05       		.byte	0x5
 1059 0028 696E7400 		.ascii	"int\000"
 1060 002c 03       		.uleb128 0x3
ARM GAS  C:\Users\Luis\AppData\Local\Temp\ccllzFQu.s 			page 20


 1061 002d 76080000 		.4byte	.LASF1
 1062 0031 08       		.byte	0x8
 1063 0032 D4       		.byte	0xd4
 1064 0033 37000000 		.4byte	0x37
 1065 0037 04       		.uleb128 0x4
 1066 0038 04       		.byte	0x4
 1067 0039 07       		.byte	0x7
 1068 003a F5000000 		.4byte	.LASF0
 1069 003e 03       		.uleb128 0x3
 1070 003f B8050000 		.4byte	.LASF2
 1071 0043 09       		.byte	0x9
 1072 0044 29       		.byte	0x29
 1073 0045 49000000 		.4byte	0x49
 1074 0049 04       		.uleb128 0x4
 1075 004a 01       		.byte	0x1
 1076 004b 06       		.byte	0x6
 1077 004c CF0B0000 		.4byte	.LASF3
 1078 0050 03       		.uleb128 0x3
 1079 0051 56060000 		.4byte	.LASF4
 1080 0055 09       		.byte	0x9
 1081 0056 2A       		.byte	0x2a
 1082 0057 5B000000 		.4byte	0x5b
 1083 005b 04       		.uleb128 0x4
 1084 005c 01       		.byte	0x1
 1085 005d 08       		.byte	0x8
 1086 005e 0A0B0000 		.4byte	.LASF5
 1087 0062 04       		.uleb128 0x4
 1088 0063 02       		.byte	0x2
 1089 0064 05       		.byte	0x5
 1090 0065 FF080000 		.4byte	.LASF6
 1091 0069 03       		.uleb128 0x3
 1092 006a 53080000 		.4byte	.LASF7
 1093 006e 09       		.byte	0x9
 1094 006f 36       		.byte	0x36
 1095 0070 74000000 		.4byte	0x74
 1096 0074 04       		.uleb128 0x4
 1097 0075 02       		.byte	0x2
 1098 0076 07       		.byte	0x7
 1099 0077 DB0B0000 		.4byte	.LASF8
 1100 007b 03       		.uleb128 0x3
 1101 007c B90A0000 		.4byte	.LASF9
 1102 0080 09       		.byte	0x9
 1103 0081 4F       		.byte	0x4f
 1104 0082 86000000 		.4byte	0x86
 1105 0086 04       		.uleb128 0x4
 1106 0087 04       		.byte	0x4
 1107 0088 05       		.byte	0x5
 1108 0089 3A090000 		.4byte	.LASF10
 1109 008d 03       		.uleb128 0x3
 1110 008e 4A030000 		.4byte	.LASF11
 1111 0092 09       		.byte	0x9
 1112 0093 50       		.byte	0x50
 1113 0094 98000000 		.4byte	0x98
 1114 0098 04       		.uleb128 0x4
 1115 0099 04       		.byte	0x4
 1116 009a 07       		.byte	0x7
 1117 009b C1070000 		.4byte	.LASF12
ARM GAS  C:\Users\Luis\AppData\Local\Temp\ccllzFQu.s 			page 21


 1118 009f 04       		.uleb128 0x4
 1119 00a0 08       		.byte	0x8
 1120 00a1 05       		.byte	0x5
 1121 00a2 2D060000 		.4byte	.LASF13
 1122 00a6 03       		.uleb128 0x3
 1123 00a7 880B0000 		.4byte	.LASF14
 1124 00ab 09       		.byte	0x9
 1125 00ac 78       		.byte	0x78
 1126 00ad B1000000 		.4byte	0xb1
 1127 00b1 04       		.uleb128 0x4
 1128 00b2 08       		.byte	0x8
 1129 00b3 07       		.byte	0x7
 1130 00b4 08040000 		.4byte	.LASF15
 1131 00b8 05       		.uleb128 0x5
 1132 00b9 7B000000 		.4byte	0x7b
 1133 00bd 05       		.uleb128 0x5
 1134 00be 8D000000 		.4byte	0x8d
 1135 00c2 03       		.uleb128 0x3
 1136 00c3 A8080000 		.4byte	.LASF16
 1137 00c7 0A       		.byte	0xa
 1138 00c8 45       		.byte	0x45
 1139 00c9 8D000000 		.4byte	0x8d
 1140 00cd 03       		.uleb128 0x3
 1141 00ce F3050000 		.4byte	.LASF17
 1142 00d2 0A       		.byte	0xa
 1143 00d3 46       		.byte	0x46
 1144 00d4 A6000000 		.4byte	0xa6
 1145 00d8 03       		.uleb128 0x3
 1146 00d9 26080000 		.4byte	.LASF18
 1147 00dd 0A       		.byte	0xa
 1148 00de 48       		.byte	0x48
 1149 00df 50000000 		.4byte	0x50
 1150 00e3 03       		.uleb128 0x3
 1151 00e4 0F060000 		.4byte	.LASF19
 1152 00e8 0A       		.byte	0xa
 1153 00e9 49       		.byte	0x49
 1154 00ea 50000000 		.4byte	0x50
 1155 00ee 03       		.uleb128 0x3
 1156 00ef 7B0A0000 		.4byte	.LASF20
 1157 00f3 0A       		.byte	0xa
 1158 00f4 4A       		.byte	0x4a
 1159 00f5 50000000 		.4byte	0x50
 1160 00f9 03       		.uleb128 0x3
 1161 00fa C4030000 		.4byte	.LASF21
 1162 00fe 0A       		.byte	0xa
 1163 00ff 4C       		.byte	0x4c
 1164 0100 8D000000 		.4byte	0x8d
 1165 0104 03       		.uleb128 0x3
 1166 0105 29070000 		.4byte	.LASF22
 1167 0109 0A       		.byte	0xa
 1168 010a 4D       		.byte	0x4d
 1169 010b 7B000000 		.4byte	0x7b
 1170 010f 03       		.uleb128 0x3
 1171 0110 6F030000 		.4byte	.LASF23
 1172 0114 0A       		.byte	0xa
 1173 0115 4F       		.byte	0x4f
 1174 0116 8D000000 		.4byte	0x8d
ARM GAS  C:\Users\Luis\AppData\Local\Temp\ccllzFQu.s 			page 22


 1175 011a 03       		.uleb128 0x3
 1176 011b E8070000 		.4byte	.LASF24
 1177 011f 0A       		.byte	0xa
 1178 0120 50       		.byte	0x50
 1179 0121 8D000000 		.4byte	0x8d
 1180 0125 03       		.uleb128 0x3
 1181 0126 46040000 		.4byte	.LASF25
 1182 012a 0A       		.byte	0xa
 1183 012b 51       		.byte	0x51
 1184 012c 7B000000 		.4byte	0x7b
 1185 0130 03       		.uleb128 0x3
 1186 0131 2E080000 		.4byte	.LASF26
 1187 0135 0A       		.byte	0xa
 1188 0136 52       		.byte	0x52
 1189 0137 8D000000 		.4byte	0x8d
 1190 013b 03       		.uleb128 0x3
 1191 013c C1000000 		.4byte	.LASF27
 1192 0140 0B       		.byte	0xb
 1193 0141 33       		.byte	0x33
 1194 0142 8D000000 		.4byte	0x8d
 1195 0146 03       		.uleb128 0x3
 1196 0147 D8040000 		.4byte	.LASF28
 1197 014b 0B       		.byte	0xb
 1198 014c 3F       		.byte	0x3f
 1199 014d 51010000 		.4byte	0x151
 1200 0151 06       		.uleb128 0x6
 1201 0152 93060000 		.4byte	.LASF51
 1202 0156 68       		.byte	0x68
 1203 0157 0C       		.byte	0xc
 1204 0158 C2       		.byte	0xc2
 1205 0159 64020000 		.4byte	0x264
 1206 015d 07       		.uleb128 0x7
 1207 015e D0090000 		.4byte	.LASF29
 1208 0162 0C       		.byte	0xc
 1209 0163 C3       		.byte	0xc3
 1210 0164 6F020000 		.4byte	0x26f
 1211 0168 00       		.byte	0
 1212 0169 07       		.uleb128 0x7
 1213 016a 6B0A0000 		.4byte	.LASF30
 1214 016e 0C       		.byte	0xc
 1215 016f C5       		.byte	0xc5
 1216 0170 6F020000 		.4byte	0x26f
 1217 0174 04       		.byte	0x4
 1218 0175 07       		.uleb128 0x7
 1219 0176 95000000 		.4byte	.LASF31
 1220 017a 0C       		.byte	0xc
 1221 017b C7       		.byte	0xc7
 1222 017c F9000000 		.4byte	0xf9
 1223 0180 08       		.byte	0x8
 1224 0181 07       		.uleb128 0x7
 1225 0182 E4090000 		.4byte	.LASF32
 1226 0186 0C       		.byte	0xc
 1227 0187 C8       		.byte	0xc8
 1228 0188 D8040000 		.4byte	0x4d8
 1229 018c 0C       		.byte	0xc
 1230 018d 07       		.uleb128 0x7
 1231 018e 7A040000 		.4byte	.LASF33
ARM GAS  C:\Users\Luis\AppData\Local\Temp\ccllzFQu.s 			page 23


 1232 0192 0C       		.byte	0xc
 1233 0193 CA       		.byte	0xca
 1234 0194 6F020000 		.4byte	0x26f
 1235 0198 10       		.byte	0x10
 1236 0199 07       		.uleb128 0x7
 1237 019a 3B060000 		.4byte	.LASF34
 1238 019e 0C       		.byte	0xc
 1239 019f CB       		.byte	0xcb
 1240 01a0 6F020000 		.4byte	0x26f
 1241 01a4 14       		.byte	0x14
 1242 01a5 07       		.uleb128 0x7
 1243 01a6 BF050000 		.4byte	.LASF35
 1244 01aa 0C       		.byte	0xc
 1245 01ab D2       		.byte	0xd2
 1246 01ac 7C070000 		.4byte	0x77c
 1247 01b0 18       		.byte	0x18
 1248 01b1 07       		.uleb128 0x7
 1249 01b2 4B060000 		.4byte	.LASF36
 1250 01b6 0C       		.byte	0xc
 1251 01b7 D8       		.byte	0xd8
 1252 01b8 8E070000 		.4byte	0x78e
 1253 01bc 1C       		.byte	0x1c
 1254 01bd 07       		.uleb128 0x7
 1255 01be 8B060000 		.4byte	.LASF37
 1256 01c2 0C       		.byte	0xc
 1257 01c3 DD       		.byte	0xdd
 1258 01c4 E3000000 		.4byte	0xe3
 1259 01c8 20       		.byte	0x20
 1260 01c9 07       		.uleb128 0x7
 1261 01ca 41070000 		.4byte	.LASF38
 1262 01ce 0C       		.byte	0xc
 1263 01cf E1       		.byte	0xe1
 1264 01d0 D8000000 		.4byte	0xd8
 1265 01d4 21       		.byte	0x21
 1266 01d5 07       		.uleb128 0x7
 1267 01d6 6E0B0000 		.4byte	.LASF39
 1268 01da 0C       		.byte	0xc
 1269 01db E6       		.byte	0xe6
 1270 01dc EE000000 		.4byte	0xee
 1271 01e0 22       		.byte	0x22
 1272 01e1 08       		.uleb128 0x8
 1273 01e2 705F7500 		.ascii	"p_u\000"
 1274 01e6 0C       		.byte	0xc
 1275 01e7 3101     		.2byte	0x131
 1276 01e9 B7060000 		.4byte	0x6b7
 1277 01ed 24       		.byte	0x24
 1278 01ee 09       		.uleb128 0x9
 1279 01ef 32010000 		.4byte	.LASF40
 1280 01f3 0C       		.byte	0xc
 1281 01f4 3601     		.2byte	0x136
 1282 01f6 75020000 		.4byte	0x275
 1283 01fa 28       		.byte	0x28
 1284 01fb 09       		.uleb128 0x9
 1285 01fc EA000000 		.4byte	.LASF41
 1286 0200 0C       		.byte	0xc
 1287 0201 3C01     		.2byte	0x13c
 1288 0203 99020000 		.4byte	0x299
ARM GAS  C:\Users\Luis\AppData\Local\Temp\ccllzFQu.s 			page 24


 1289 0207 2C       		.byte	0x2c
 1290 0208 09       		.uleb128 0x9
 1291 0209 0F080000 		.4byte	.LASF42
 1292 020d 0C       		.byte	0xc
 1293 020e 4001     		.2byte	0x140
 1294 0210 04010000 		.4byte	0x104
 1295 0214 34       		.byte	0x34
 1296 0215 09       		.uleb128 0x9
 1297 0216 27090000 		.4byte	.LASF43
 1298 021a 0C       		.byte	0xc
 1299 021b 4601     		.2byte	0x146
 1300 021d 0F010000 		.4byte	0x10f
 1301 0221 38       		.byte	0x38
 1302 0222 09       		.uleb128 0x9
 1303 0223 9C0A0000 		.4byte	.LASF44
 1304 0227 0C       		.byte	0xc
 1305 0228 4D01     		.2byte	0x14d
 1306 022a 76070000 		.4byte	0x776
 1307 022e 3C       		.byte	0x3c
 1308 022f 09       		.uleb128 0x9
 1309 0230 EE080000 		.4byte	.LASF45
 1310 0234 0C       		.byte	0xc
 1311 0235 5101     		.2byte	0x151
 1312 0237 F9000000 		.4byte	0xf9
 1313 023b 40       		.byte	0x40
 1314 023c 09       		.uleb128 0x9
 1315 023d 7B060000 		.4byte	.LASF46
 1316 0241 0C       		.byte	0xc
 1317 0242 5801     		.2byte	0x158
 1318 0244 4C030000 		.4byte	0x34c
 1319 0248 44       		.byte	0x44
 1320 0249 09       		.uleb128 0x9
 1321 024a E8060000 		.4byte	.LASF47
 1322 024e 0C       		.byte	0xc
 1323 024f 5E01     		.2byte	0x15e
 1324 0251 68060000 		.4byte	0x668
 1325 0255 48       		.byte	0x48
 1326 0256 09       		.uleb128 0x9
 1327 0257 F40B0000 		.4byte	.LASF48
 1328 025b 0C       		.byte	0xc
 1329 025c 6201     		.2byte	0x162
 1330 025e 4C030000 		.4byte	0x34c
 1331 0262 60       		.byte	0x60
 1332 0263 00       		.byte	0
 1333 0264 03       		.uleb128 0x3
 1334 0265 76000000 		.4byte	.LASF49
 1335 0269 0B       		.byte	0xb
 1336 026a 44       		.byte	0x44
 1337 026b 6F020000 		.4byte	0x26f
 1338 026f 0A       		.uleb128 0xa
 1339 0270 04       		.byte	0x4
 1340 0271 46010000 		.4byte	0x146
 1341 0275 03       		.uleb128 0x3
 1342 0276 12010000 		.4byte	.LASF50
 1343 027a 0B       		.byte	0xb
 1344 027b 49       		.byte	0x49
 1345 027c 80020000 		.4byte	0x280
ARM GAS  C:\Users\Luis\AppData\Local\Temp\ccllzFQu.s 			page 25


 1346 0280 06       		.uleb128 0x6
 1347 0281 D0050000 		.4byte	.LASF52
 1348 0285 04       		.byte	0x4
 1349 0286 0C       		.byte	0xc
 1350 0287 B0       		.byte	0xb0
 1351 0288 99020000 		.4byte	0x299
 1352 028c 07       		.uleb128 0x7
 1353 028d D0090000 		.4byte	.LASF29
 1354 0291 0C       		.byte	0xc
 1355 0292 B1       		.byte	0xb1
 1356 0293 6F020000 		.4byte	0x26f
 1357 0297 00       		.byte	0
 1358 0298 00       		.byte	0
 1359 0299 03       		.uleb128 0x3
 1360 029a 00000000 		.4byte	.LASF53
 1361 029e 0B       		.byte	0xb
 1362 029f 50       		.byte	0x50
 1363 02a0 A4020000 		.4byte	0x2a4
 1364 02a4 06       		.uleb128 0x6
 1365 02a5 D7060000 		.4byte	.LASF54
 1366 02a9 08       		.byte	0x8
 1367 02aa 0C       		.byte	0xc
 1368 02ab B7       		.byte	0xb7
 1369 02ac C9020000 		.4byte	0x2c9
 1370 02b0 07       		.uleb128 0x7
 1371 02b1 D0090000 		.4byte	.LASF29
 1372 02b5 0C       		.byte	0xc
 1373 02b6 B8       		.byte	0xb8
 1374 02b7 6F020000 		.4byte	0x26f
 1375 02bb 00       		.byte	0
 1376 02bc 07       		.uleb128 0x7
 1377 02bd 6B0A0000 		.4byte	.LASF30
 1378 02c1 0C       		.byte	0xc
 1379 02c2 B9       		.byte	0xb9
 1380 02c3 6F020000 		.4byte	0x26f
 1381 02c7 04       		.byte	0x4
 1382 02c8 00       		.byte	0
 1383 02c9 03       		.uleb128 0x3
 1384 02ca A60A0000 		.4byte	.LASF55
 1385 02ce 0B       		.byte	0xb
 1386 02cf 57       		.byte	0x57
 1387 02d0 D4020000 		.4byte	0x2d4
 1388 02d4 0B       		.uleb128 0xb
 1389 02d5 54020000 		.4byte	.LASF56
 1390 02d9 1C       		.byte	0x1c
 1391 02da 0C       		.byte	0xc
 1392 02db 9001     		.2byte	0x190
 1393 02dd 30030000 		.4byte	0x330
 1394 02e1 09       		.uleb128 0x9
 1395 02e2 FF060000 		.4byte	.LASF57
 1396 02e6 0C       		.byte	0xc
 1397 02e7 9101     		.2byte	0x191
 1398 02e9 99020000 		.4byte	0x299
 1399 02ed 00       		.byte	0
 1400 02ee 09       		.uleb128 0x9
 1401 02ef 7B030000 		.4byte	.LASF58
 1402 02f3 0C       		.byte	0xc
ARM GAS  C:\Users\Luis\AppData\Local\Temp\ccllzFQu.s 			page 26


 1403 02f4 9201     		.2byte	0x192
 1404 02f6 F9000000 		.4byte	0xf9
 1405 02fa 08       		.byte	0x8
 1406 02fb 09       		.uleb128 0x9
 1407 02fc EE0B0000 		.4byte	.LASF59
 1408 0300 0C       		.byte	0xc
 1409 0301 9401     		.2byte	0x194
 1410 0303 D8040000 		.4byte	0x4d8
 1411 0307 0C       		.byte	0xc
 1412 0308 09       		.uleb128 0x9
 1413 0309 21070000 		.4byte	.LASF60
 1414 030d 0C       		.byte	0xc
 1415 030e 9701     		.2byte	0x197
 1416 0310 6F020000 		.4byte	0x26f
 1417 0314 10       		.byte	0x10
 1418 0315 09       		.uleb128 0x9
 1419 0316 9C070000 		.4byte	.LASF61
 1420 031a 0C       		.byte	0xc
 1421 031b 9801     		.2byte	0x198
 1422 031d 6F020000 		.4byte	0x26f
 1423 0321 14       		.byte	0x14
 1424 0322 09       		.uleb128 0x9
 1425 0323 13090000 		.4byte	.LASF62
 1426 0327 0C       		.byte	0xc
 1427 0328 9B01     		.2byte	0x19b
 1428 032a 6F020000 		.4byte	0x26f
 1429 032e 18       		.byte	0x18
 1430 032f 00       		.byte	0
 1431 0330 03       		.uleb128 0x3
 1432 0331 E6020000 		.4byte	.LASF63
 1433 0335 0B       		.byte	0xb
 1434 0336 5C       		.byte	0x5c
 1435 0337 3B030000 		.4byte	0x33b
 1436 033b 0A       		.uleb128 0xa
 1437 033c 04       		.byte	0x4
 1438 033d 41030000 		.4byte	0x341
 1439 0341 0C       		.uleb128 0xc
 1440 0342 4C030000 		.4byte	0x34c
 1441 0346 0D       		.uleb128 0xd
 1442 0347 4C030000 		.4byte	0x34c
 1443 034b 00       		.byte	0
 1444 034c 0E       		.uleb128 0xe
 1445 034d 04       		.byte	0x4
 1446 034e 03       		.uleb128 0x3
 1447 034f 49070000 		.4byte	.LASF64
 1448 0353 0B       		.byte	0xb
 1449 0354 61       		.byte	0x61
 1450 0355 59030000 		.4byte	0x359
 1451 0359 0B       		.uleb128 0xb
 1452 035a CC030000 		.4byte	.LASF65
 1453 035e 14       		.byte	0x14
 1454 035f 0C       		.byte	0xc
 1455 0360 6B01     		.2byte	0x16b
 1456 0362 A8030000 		.4byte	0x3a8
 1457 0366 09       		.uleb128 0x9
 1458 0367 800B0000 		.4byte	.LASF66
 1459 036b 0C       		.byte	0xc
ARM GAS  C:\Users\Luis\AppData\Local\Temp\ccllzFQu.s 			page 27


 1460 036c 6C01     		.2byte	0x16c
 1461 036e 94070000 		.4byte	0x794
 1462 0372 00       		.byte	0
 1463 0373 09       		.uleb128 0x9
 1464 0374 1B0C0000 		.4byte	.LASF67
 1465 0378 0C       		.byte	0xc
 1466 0379 6D01     		.2byte	0x16d
 1467 037b 94070000 		.4byte	0x794
 1468 037f 04       		.byte	0x4
 1469 0380 09       		.uleb128 0x9
 1470 0381 AA040000 		.4byte	.LASF68
 1471 0385 0C       		.byte	0xc
 1472 0386 6E01     		.2byte	0x16e
 1473 0388 3B010000 		.4byte	0x13b
 1474 038c 08       		.byte	0x8
 1475 038d 09       		.uleb128 0x9
 1476 038e AA020000 		.4byte	.LASF69
 1477 0392 0C       		.byte	0xc
 1478 0393 6F01     		.2byte	0x16f
 1479 0395 30030000 		.4byte	0x330
 1480 0399 0C       		.byte	0xc
 1481 039a 09       		.uleb128 0x9
 1482 039b F40A0000 		.4byte	.LASF70
 1483 039f 0C       		.byte	0xc
 1484 03a0 7101     		.2byte	0x171
 1485 03a2 4C030000 		.4byte	0x34c
 1486 03a6 10       		.byte	0x10
 1487 03a7 00       		.byte	0
 1488 03a8 03       		.uleb128 0x3
 1489 03a9 220B0000 		.4byte	.LASF71
 1490 03ad 0B       		.byte	0xb
 1491 03ae 66       		.byte	0x66
 1492 03af B3030000 		.4byte	0x3b3
 1493 03b3 0B       		.uleb128 0xb
 1494 03b4 93040000 		.4byte	.LASF72
 1495 03b8 10       		.byte	0x10
 1496 03b9 0C       		.byte	0xc
 1497 03ba 7B01     		.2byte	0x17b
 1498 03bc F5030000 		.4byte	0x3f5
 1499 03c0 09       		.uleb128 0x9
 1500 03c1 800B0000 		.4byte	.LASF66
 1501 03c5 0C       		.byte	0xc
 1502 03c6 7C01     		.2byte	0x17c
 1503 03c8 94070000 		.4byte	0x794
 1504 03cc 00       		.byte	0
 1505 03cd 09       		.uleb128 0x9
 1506 03ce 1B0C0000 		.4byte	.LASF67
 1507 03d2 0C       		.byte	0xc
 1508 03d3 7E01     		.2byte	0x17e
 1509 03d5 94070000 		.4byte	0x794
 1510 03d9 04       		.byte	0x4
 1511 03da 09       		.uleb128 0x9
 1512 03db AA040000 		.4byte	.LASF68
 1513 03df 0C       		.byte	0xc
 1514 03e0 8001     		.2byte	0x180
 1515 03e2 3B010000 		.4byte	0x13b
 1516 03e6 08       		.byte	0x8
ARM GAS  C:\Users\Luis\AppData\Local\Temp\ccllzFQu.s 			page 28


 1517 03e7 09       		.uleb128 0x9
 1518 03e8 FC050000 		.4byte	.LASF73
 1519 03ec 0C       		.byte	0xc
 1520 03ed 8801     		.2byte	0x188
 1521 03ef 3B010000 		.4byte	0x13b
 1522 03f3 0C       		.byte	0xc
 1523 03f4 00       		.byte	0
 1524 03f5 03       		.uleb128 0x3
 1525 03f6 AE060000 		.4byte	.LASF74
 1526 03fa 0B       		.byte	0xb
 1527 03fb 6B       		.byte	0x6b
 1528 03fc 00040000 		.4byte	0x400
 1529 0400 0F       		.uleb128 0xf
 1530 0401 F6020000 		.4byte	.LASF75
 1531 0405 1404     		.2byte	0x414
 1532 0407 0C       		.byte	0xc
 1533 0408 A201     		.2byte	0x1a2
 1534 040a 43040000 		.4byte	0x443
 1535 040e 09       		.uleb128 0x9
 1536 040f 4F0B0000 		.4byte	.LASF76
 1537 0413 0C       		.byte	0xc
 1538 0414 AA01     		.2byte	0x1aa
 1539 0416 9A070000 		.4byte	0x79a
 1540 041a 00       		.byte	0
 1541 041b 09       		.uleb128 0x9
 1542 041c 6C040000 		.4byte	.LASF77
 1543 0420 0C       		.byte	0xc
 1544 0421 AF01     		.2byte	0x1af
 1545 0423 25010000 		.4byte	0x125
 1546 0427 04       		.byte	0x4
 1547 0428 09       		.uleb128 0x9
 1548 0429 CB080000 		.4byte	.LASF78
 1549 042d 0C       		.byte	0xc
 1550 042e B301     		.2byte	0x1b3
 1551 0430 25010000 		.4byte	0x125
 1552 0434 08       		.byte	0x8
 1553 0435 09       		.uleb128 0x9
 1554 0436 C10A0000 		.4byte	.LASF79
 1555 043a 0C       		.byte	0xc
 1556 043b B901     		.2byte	0x1b9
 1557 043d FA050000 		.4byte	0x5fa
 1558 0441 0C       		.byte	0xc
 1559 0442 00       		.byte	0
 1560 0443 03       		.uleb128 0x3
 1561 0444 970B0000 		.4byte	.LASF80
 1562 0448 0B       		.byte	0xb
 1563 0449 70       		.byte	0x70
 1564 044a 4E040000 		.4byte	0x44e
 1565 044e 0F       		.uleb128 0xf
 1566 044f A4090000 		.4byte	.LASF81
 1567 0453 E805     		.2byte	0x5e8
 1568 0455 0C       		.byte	0xc
 1569 0456 C201     		.2byte	0x1c2
 1570 0458 BB040000 		.4byte	0x4bb
 1571 045c 09       		.uleb128 0x9
 1572 045d EF090000 		.4byte	.LASF82
 1573 0461 0C       		.byte	0xc
ARM GAS  C:\Users\Luis\AppData\Local\Temp\ccllzFQu.s 			page 29


 1574 0462 C601     		.2byte	0x1c6
 1575 0464 C9020000 		.4byte	0x2c9
 1576 0468 00       		.byte	0
 1577 0469 09       		.uleb128 0x9
 1578 046a 41020000 		.4byte	.LASF83
 1579 046e 0C       		.byte	0xc
 1580 046f CA01     		.2byte	0x1ca
 1581 0471 A8030000 		.4byte	0x3a8
 1582 0475 1C       		.byte	0x1c
 1583 0476 08       		.uleb128 0x8
 1584 0477 64626700 		.ascii	"dbg\000"
 1585 047b 0C       		.byte	0xc
 1586 047c CE01     		.2byte	0x1ce
 1587 047e F5030000 		.4byte	0x3f5
 1588 0482 2C       		.byte	0x2c
 1589 0483 10       		.uleb128 0x10
 1590 0484 3D080000 		.4byte	.LASF84
 1591 0488 0C       		.byte	0xc
 1592 0489 D201     		.2byte	0x1d2
 1593 048b 46010000 		.4byte	0x146
 1594 048f 4004     		.2byte	0x440
 1595 0491 11       		.uleb128 0x11
 1596 0492 746D00   		.ascii	"tm\000"
 1597 0495 0C       		.byte	0xc
 1598 0496 D701     		.2byte	0x1d7
 1599 0498 1A060000 		.4byte	0x61a
 1600 049c A804     		.2byte	0x4a8
 1601 049e 10       		.uleb128 0x10
 1602 049f 82030000 		.4byte	.LASF85
 1603 04a3 0C       		.byte	0xc
 1604 04a4 DD01     		.2byte	0x1dd
 1605 04a6 AC060000 		.4byte	0x6ac
 1606 04aa B004     		.2byte	0x4b0
 1607 04ac 10       		.uleb128 0x10
 1608 04ad 62020000 		.4byte	.LASF86
 1609 04b1 0C       		.byte	0xc
 1610 04b2 E301     		.2byte	0x1e3
 1611 04b4 9F070000 		.4byte	0x79f
 1612 04b8 E804     		.2byte	0x4e8
 1613 04ba 00       		.byte	0
 1614 04bb 04       		.uleb128 0x4
 1615 04bc 04       		.byte	0x4
 1616 04bd 07       		.byte	0x7
 1617 04be 720A0000 		.4byte	.LASF87
 1618 04c2 03       		.uleb128 0x3
 1619 04c3 A5060000 		.4byte	.LASF88
 1620 04c7 0D       		.byte	0xd
 1621 04c8 65       		.byte	0x65
 1622 04c9 4C030000 		.4byte	0x34c
 1623 04cd 03       		.uleb128 0x3
 1624 04ce 5E0B0000 		.4byte	.LASF89
 1625 04d2 0D       		.byte	0xd
 1626 04d3 6D       		.byte	0x6d
 1627 04d4 A6000000 		.4byte	0xa6
 1628 04d8 06       		.uleb128 0x6
 1629 04d9 FF070000 		.4byte	.LASF90
 1630 04dd 04       		.byte	0x4
ARM GAS  C:\Users\Luis\AppData\Local\Temp\ccllzFQu.s 			page 30


 1631 04de 0D       		.byte	0xd
 1632 04df 89       		.byte	0x89
 1633 04e0 F1040000 		.4byte	0x4f1
 1634 04e4 12       		.uleb128 0x12
 1635 04e5 72313300 		.ascii	"r13\000"
 1636 04e9 0D       		.byte	0xd
 1637 04ea 8A       		.byte	0x8a
 1638 04eb 6C050000 		.4byte	0x56c
 1639 04ef 00       		.byte	0
 1640 04f0 00       		.byte	0
 1641 04f1 06       		.uleb128 0x6
 1642 04f2 43090000 		.4byte	.LASF91
 1643 04f6 24       		.byte	0x24
 1644 04f7 01       		.byte	0x1
 1645 04f8 F4       		.byte	0xf4
 1646 04f9 6C050000 		.4byte	0x56c
 1647 04fd 08       		.uleb128 0x8
 1648 04fe 723400   		.ascii	"r4\000"
 1649 0501 01       		.byte	0x1
 1650 0502 0701     		.2byte	0x107
 1651 0504 C2040000 		.4byte	0x4c2
 1652 0508 00       		.byte	0
 1653 0509 08       		.uleb128 0x8
 1654 050a 723500   		.ascii	"r5\000"
 1655 050d 01       		.byte	0x1
 1656 050e 0801     		.2byte	0x108
 1657 0510 C2040000 		.4byte	0x4c2
 1658 0514 04       		.byte	0x4
 1659 0515 08       		.uleb128 0x8
 1660 0516 723600   		.ascii	"r6\000"
 1661 0519 01       		.byte	0x1
 1662 051a 0901     		.2byte	0x109
 1663 051c C2040000 		.4byte	0x4c2
 1664 0520 08       		.byte	0x8
 1665 0521 08       		.uleb128 0x8
 1666 0522 723700   		.ascii	"r7\000"
 1667 0525 01       		.byte	0x1
 1668 0526 0A01     		.2byte	0x10a
 1669 0528 C2040000 		.4byte	0x4c2
 1670 052c 0C       		.byte	0xc
 1671 052d 08       		.uleb128 0x8
 1672 052e 723800   		.ascii	"r8\000"
 1673 0531 01       		.byte	0x1
 1674 0532 0B01     		.2byte	0x10b
 1675 0534 C2040000 		.4byte	0x4c2
 1676 0538 10       		.byte	0x10
 1677 0539 08       		.uleb128 0x8
 1678 053a 723900   		.ascii	"r9\000"
 1679 053d 01       		.byte	0x1
 1680 053e 0C01     		.2byte	0x10c
 1681 0540 C2040000 		.4byte	0x4c2
 1682 0544 14       		.byte	0x14
 1683 0545 08       		.uleb128 0x8
 1684 0546 72313000 		.ascii	"r10\000"
 1685 054a 01       		.byte	0x1
 1686 054b 0D01     		.2byte	0x10d
 1687 054d C2040000 		.4byte	0x4c2
ARM GAS  C:\Users\Luis\AppData\Local\Temp\ccllzFQu.s 			page 31


 1688 0551 18       		.byte	0x18
 1689 0552 08       		.uleb128 0x8
 1690 0553 72313100 		.ascii	"r11\000"
 1691 0557 01       		.byte	0x1
 1692 0558 0E01     		.2byte	0x10e
 1693 055a C2040000 		.4byte	0x4c2
 1694 055e 1C       		.byte	0x1c
 1695 055f 08       		.uleb128 0x8
 1696 0560 6C7200   		.ascii	"lr\000"
 1697 0563 01       		.byte	0x1
 1698 0564 0F01     		.2byte	0x10f
 1699 0566 C2040000 		.4byte	0x4c2
 1700 056a 20       		.byte	0x20
 1701 056b 00       		.byte	0
 1702 056c 0A       		.uleb128 0xa
 1703 056d 04       		.byte	0x4
 1704 056e F1040000 		.4byte	0x4f1
 1705 0572 13       		.uleb128 0x13
 1706 0573 10       		.byte	0x10
 1707 0574 0E       		.byte	0xe
 1708 0575 51       		.byte	0x51
 1709 0576 AB050000 		.4byte	0x5ab
 1710 057a 07       		.uleb128 0x7
 1711 057b 43060000 		.4byte	.LASF92
 1712 057f 0E       		.byte	0xe
 1713 0580 55       		.byte	0x55
 1714 0581 3B010000 		.4byte	0x13b
 1715 0585 00       		.byte	0
 1716 0586 07       		.uleb128 0x7
 1717 0587 18060000 		.4byte	.LASF93
 1718 058b 0E       		.byte	0xe
 1719 058c 59       		.byte	0x59
 1720 058d 6F020000 		.4byte	0x26f
 1721 0591 04       		.byte	0x4
 1722 0592 07       		.uleb128 0x7
 1723 0593 F5090000 		.4byte	.LASF94
 1724 0597 0E       		.byte	0xe
 1725 0598 5D       		.byte	0x5d
 1726 0599 4C030000 		.4byte	0x34c
 1727 059d 08       		.byte	0x8
 1728 059e 07       		.uleb128 0x7
 1729 059f 4A010000 		.4byte	.LASF95
 1730 05a3 0E       		.byte	0xe
 1731 05a4 61       		.byte	0x61
 1732 05a5 50000000 		.4byte	0x50
 1733 05a9 0C       		.byte	0xc
 1734 05aa 00       		.byte	0
 1735 05ab 03       		.uleb128 0x3
 1736 05ac DD0A0000 		.4byte	.LASF96
 1737 05b0 0E       		.byte	0xe
 1738 05b1 62       		.byte	0x62
 1739 05b2 72050000 		.4byte	0x572
 1740 05b6 14       		.uleb128 0x14
 1741 05b7 0804     		.2byte	0x408
 1742 05b9 0E       		.byte	0xe
 1743 05ba 67       		.byte	0x67
 1744 05bb E4050000 		.4byte	0x5e4
ARM GAS  C:\Users\Luis\AppData\Local\Temp\ccllzFQu.s 			page 32


 1745 05bf 07       		.uleb128 0x7
 1746 05c0 9D060000 		.4byte	.LASF97
 1747 05c4 0E       		.byte	0xe
 1748 05c5 6B       		.byte	0x6b
 1749 05c6 37000000 		.4byte	0x37
 1750 05ca 00       		.byte	0
 1751 05cb 07       		.uleb128 0x7
 1752 05cc 85070000 		.4byte	.LASF98
 1753 05d0 0E       		.byte	0xe
 1754 05d1 6F       		.byte	0x6f
 1755 05d2 E4050000 		.4byte	0x5e4
 1756 05d6 04       		.byte	0x4
 1757 05d7 07       		.uleb128 0x7
 1758 05d8 5F070000 		.4byte	.LASF99
 1759 05dc 0E       		.byte	0xe
 1760 05dd 73       		.byte	0x73
 1761 05de EA050000 		.4byte	0x5ea
 1762 05e2 08       		.byte	0x8
 1763 05e3 00       		.byte	0
 1764 05e4 0A       		.uleb128 0xa
 1765 05e5 04       		.byte	0x4
 1766 05e6 AB050000 		.4byte	0x5ab
 1767 05ea 15       		.uleb128 0x15
 1768 05eb AB050000 		.4byte	0x5ab
 1769 05ef FA050000 		.4byte	0x5fa
 1770 05f3 16       		.uleb128 0x16
 1771 05f4 BB040000 		.4byte	0x4bb
 1772 05f8 3F       		.byte	0x3f
 1773 05f9 00       		.byte	0
 1774 05fa 03       		.uleb128 0x3
 1775 05fb AE0B0000 		.4byte	.LASF100
 1776 05ff 0E       		.byte	0xe
 1777 0600 74       		.byte	0x74
 1778 0601 B6050000 		.4byte	0x5b6
 1779 0605 13       		.uleb128 0x13
 1780 0606 04       		.byte	0x4
 1781 0607 0F       		.byte	0xf
 1782 0608 38       		.byte	0x38
 1783 0609 1A060000 		.4byte	0x61a
 1784 060d 07       		.uleb128 0x7
 1785 060e 30040000 		.4byte	.LASF101
 1786 0612 0F       		.byte	0xf
 1787 0613 3C       		.byte	0x3c
 1788 0614 C2000000 		.4byte	0xc2
 1789 0618 00       		.byte	0
 1790 0619 00       		.byte	0
 1791 061a 03       		.uleb128 0x3
 1792 061b 15080000 		.4byte	.LASF102
 1793 061f 0F       		.byte	0xf
 1794 0620 3D       		.byte	0x3d
 1795 0621 05060000 		.4byte	0x605
 1796 0625 13       		.uleb128 0x13
 1797 0626 18       		.byte	0x18
 1798 0627 0F       		.byte	0xf
 1799 0628 48       		.byte	0x48
 1800 0629 68060000 		.4byte	0x668
 1801 062d 07       		.uleb128 0x7
ARM GAS  C:\Users\Luis\AppData\Local\Temp\ccllzFQu.s 			page 33


 1802 062e FB0A0000 		.4byte	.LASF103
 1803 0632 0F       		.byte	0xf
 1804 0633 49       		.byte	0x49
 1805 0634 C2000000 		.4byte	0xc2
 1806 0638 00       		.byte	0
 1807 0639 07       		.uleb128 0x7
 1808 063a 74040000 		.4byte	.LASF104
 1809 063e 0F       		.byte	0xf
 1810 063f 4A       		.byte	0x4a
 1811 0640 C2000000 		.4byte	0xc2
 1812 0644 04       		.byte	0x4
 1813 0645 07       		.uleb128 0x7
 1814 0646 96050000 		.4byte	.LASF105
 1815 064a 0F       		.byte	0xf
 1816 064b 4B       		.byte	0x4b
 1817 064c C2000000 		.4byte	0xc2
 1818 0650 08       		.byte	0x8
 1819 0651 12       		.uleb128 0x12
 1820 0652 6E00     		.ascii	"n\000"
 1821 0654 0F       		.byte	0xf
 1822 0655 4C       		.byte	0x4c
 1823 0656 30010000 		.4byte	0x130
 1824 065a 0C       		.byte	0xc
 1825 065b 07       		.uleb128 0x7
 1826 065c 27010000 		.4byte	.LASF106
 1827 0660 0F       		.byte	0xf
 1828 0661 4D       		.byte	0x4d
 1829 0662 CD000000 		.4byte	0xcd
 1830 0666 10       		.byte	0x10
 1831 0667 00       		.byte	0
 1832 0668 03       		.uleb128 0x3
 1833 0669 A5050000 		.4byte	.LASF107
 1834 066d 0F       		.byte	0xf
 1835 066e 4E       		.byte	0x4e
 1836 066f 25060000 		.4byte	0x625
 1837 0673 13       		.uleb128 0x13
 1838 0674 38       		.byte	0x38
 1839 0675 10       		.byte	0x10
 1840 0676 38       		.byte	0x38
 1841 0677 AC060000 		.4byte	0x6ac
 1842 067b 07       		.uleb128 0x7
 1843 067c DB080000 		.4byte	.LASF108
 1844 0680 10       		.byte	0x10
 1845 0681 39       		.byte	0x39
 1846 0682 30010000 		.4byte	0x130
 1847 0686 00       		.byte	0
 1848 0687 07       		.uleb128 0x7
 1849 0688 B8070000 		.4byte	.LASF109
 1850 068c 10       		.byte	0x10
 1851 068d 3A       		.byte	0x3a
 1852 068e 30010000 		.4byte	0x130
 1853 0692 04       		.byte	0x4
 1854 0693 07       		.uleb128 0x7
 1855 0694 AE090000 		.4byte	.LASF110
 1856 0698 10       		.byte	0x10
 1857 0699 3B       		.byte	0x3b
 1858 069a 68060000 		.4byte	0x668
ARM GAS  C:\Users\Luis\AppData\Local\Temp\ccllzFQu.s 			page 34


 1859 069e 08       		.byte	0x8
 1860 069f 07       		.uleb128 0x7
 1861 06a0 07010000 		.4byte	.LASF111
 1862 06a4 10       		.byte	0x10
 1863 06a5 3D       		.byte	0x3d
 1864 06a6 68060000 		.4byte	0x668
 1865 06aa 20       		.byte	0x20
 1866 06ab 00       		.byte	0
 1867 06ac 03       		.uleb128 0x3
 1868 06ad 60030000 		.4byte	.LASF112
 1869 06b1 10       		.byte	0x10
 1870 06b2 3F       		.byte	0x3f
 1871 06b3 73060000 		.4byte	0x673
 1872 06b7 17       		.uleb128 0x17
 1873 06b8 04       		.byte	0x4
 1874 06b9 0C       		.byte	0xc
 1875 06ba FA       		.byte	0xfa
 1876 06bb 14070000 		.4byte	0x714
 1877 06bf 18       		.uleb128 0x18
 1878 06c0 F3040000 		.4byte	.LASF113
 1879 06c4 0C       		.byte	0xc
 1880 06c5 0101     		.2byte	0x101
 1881 06c7 04010000 		.4byte	0x104
 1882 06cb 18       		.uleb128 0x18
 1883 06cc 6D0C0000 		.4byte	.LASF114
 1884 06d0 0C       		.byte	0xc
 1885 06d1 0801     		.2byte	0x108
 1886 06d3 04010000 		.4byte	0x104
 1887 06d7 18       		.uleb128 0x18
 1888 06d8 EF020000 		.4byte	.LASF115
 1889 06dc 0C       		.byte	0xc
 1890 06dd 0F01     		.2byte	0x10f
 1891 06df 4C030000 		.4byte	0x34c
 1892 06e3 18       		.uleb128 0x18
 1893 06e4 A30B0000 		.4byte	.LASF116
 1894 06e8 0C       		.byte	0xc
 1895 06e9 1601     		.2byte	0x116
 1896 06eb 14070000 		.4byte	0x714
 1897 06ef 18       		.uleb128 0x18
 1898 06f0 D60A0000 		.4byte	.LASF117
 1899 06f4 0C       		.byte	0xc
 1900 06f5 1E01     		.2byte	0x11e
 1901 06f7 3F070000 		.4byte	0x73f
 1902 06fb 18       		.uleb128 0x18
 1903 06fc 5B000000 		.4byte	.LASF118
 1904 0700 0C       		.byte	0xc
 1905 0701 2701     		.2byte	0x127
 1906 0703 76070000 		.4byte	0x776
 1907 0707 18       		.uleb128 0x18
 1908 0708 8B020000 		.4byte	.LASF119
 1909 070c 0C       		.byte	0xc
 1910 070d 2F01     		.2byte	0x12f
 1911 070f 0F010000 		.4byte	0x10f
 1912 0713 00       		.byte	0
 1913 0714 0A       		.uleb128 0xa
 1914 0715 04       		.byte	0x4
 1915 0716 64020000 		.4byte	0x264
ARM GAS  C:\Users\Luis\AppData\Local\Temp\ccllzFQu.s 			page 35


 1916 071a 06       		.uleb128 0x6
 1917 071b B7030000 		.4byte	.LASF120
 1918 071f 0C       		.byte	0xc
 1919 0720 11       		.byte	0x11
 1920 0721 34       		.byte	0x34
 1921 0722 3F070000 		.4byte	0x73f
 1922 0726 07       		.uleb128 0x7
 1923 0727 E2000000 		.4byte	.LASF121
 1924 072b 11       		.byte	0x11
 1925 072c 35       		.byte	0x35
 1926 072d 99020000 		.4byte	0x299
 1927 0731 00       		.byte	0
 1928 0732 07       		.uleb128 0x7
 1929 0733 06030000 		.4byte	.LASF122
 1930 0737 11       		.byte	0x11
 1931 0738 37       		.byte	0x37
 1932 0739 25010000 		.4byte	0x125
 1933 073d 08       		.byte	0x8
 1934 073e 00       		.byte	0
 1935 073f 0A       		.uleb128 0xa
 1936 0740 04       		.byte	0x4
 1937 0741 1A070000 		.4byte	0x71a
 1938 0745 06       		.uleb128 0x6
 1939 0746 73050000 		.4byte	.LASF123
 1940 074a 10       		.byte	0x10
 1941 074b 12       		.byte	0x12
 1942 074c 39       		.byte	0x39
 1943 074d 76070000 		.4byte	0x776
 1944 0751 07       		.uleb128 0x7
 1945 0752 32090000 		.4byte	.LASF124
 1946 0756 12       		.byte	0x12
 1947 0757 3A       		.byte	0x3a
 1948 0758 99020000 		.4byte	0x299
 1949 075c 00       		.byte	0
 1950 075d 07       		.uleb128 0x7
 1951 075e DA000000 		.4byte	.LASF125
 1952 0762 12       		.byte	0x12
 1953 0763 3C       		.byte	0x3c
 1954 0764 6F020000 		.4byte	0x26f
 1955 0768 08       		.byte	0x8
 1956 0769 07       		.uleb128 0x7
 1957 076a C00B0000 		.4byte	.LASF126
 1958 076e 12       		.byte	0x12
 1959 076f 3E       		.byte	0x3e
 1960 0770 BA070000 		.4byte	0x7ba
 1961 0774 0C       		.byte	0xc
 1962 0775 00       		.byte	0
 1963 0776 0A       		.uleb128 0xa
 1964 0777 04       		.byte	0x4
 1965 0778 45070000 		.4byte	0x745
 1966 077c 0A       		.uleb128 0xa
 1967 077d 04       		.byte	0x4
 1968 077e 82070000 		.4byte	0x782
 1969 0782 19       		.uleb128 0x19
 1970 0783 87070000 		.4byte	0x787
 1971 0787 04       		.uleb128 0x4
 1972 0788 01       		.byte	0x1
ARM GAS  C:\Users\Luis\AppData\Local\Temp\ccllzFQu.s 			page 36


 1973 0789 08       		.byte	0x8
 1974 078a 89000000 		.4byte	.LASF127
 1975 078e 0A       		.uleb128 0xa
 1976 078f 04       		.byte	0x4
 1977 0790 CD040000 		.4byte	0x4cd
 1978 0794 0A       		.uleb128 0xa
 1979 0795 04       		.byte	0x4
 1980 0796 4E030000 		.4byte	0x34e
 1981 079a 05       		.uleb128 0x5
 1982 079b 7C070000 		.4byte	0x77c
 1983 079f 15       		.uleb128 0x15
 1984 07a0 CD040000 		.4byte	0x4cd
 1985 07a4 AF070000 		.4byte	0x7af
 1986 07a8 16       		.uleb128 0x16
 1987 07a9 BB040000 		.4byte	0x4bb
 1988 07ad 1F       		.byte	0x1f
 1989 07ae 00       		.byte	0
 1990 07af 03       		.uleb128 0x3
 1991 07b0 EC0A0000 		.4byte	.LASF128
 1992 07b4 12       		.byte	0x12
 1993 07b5 34       		.byte	0x34
 1994 07b6 45070000 		.4byte	0x745
 1995 07ba 0A       		.uleb128 0xa
 1996 07bb 04       		.byte	0x4
 1997 07bc AF070000 		.4byte	0x7af
 1998 07c0 03       		.uleb128 0x3
 1999 07c1 830A0000 		.4byte	.LASF129
 2000 07c5 06       		.byte	0x6
 2001 07c6 34       		.byte	0x34
 2002 07c7 CB070000 		.4byte	0x7cb
 2003 07cb 06       		.uleb128 0x6
 2004 07cc F0060000 		.4byte	.LASF130
 2005 07d0 14       		.byte	0x14
 2006 07d1 06       		.byte	0x6
 2007 07d2 39       		.byte	0x39
 2008 07d3 14080000 		.4byte	0x814
 2009 07d7 07       		.uleb128 0x7
 2010 07d8 07080000 		.4byte	.LASF131
 2011 07dc 06       		.byte	0x6
 2012 07dd 3A       		.byte	0x3a
 2013 07de 14080000 		.4byte	0x814
 2014 07e2 00       		.byte	0
 2015 07e3 07       		.uleb128 0x7
 2016 07e4 0D0A0000 		.4byte	.LASF132
 2017 07e8 06       		.byte	0x6
 2018 07e9 3D       		.byte	0x3d
 2019 07ea 6F020000 		.4byte	0x26f
 2020 07ee 04       		.byte	0x4
 2021 07ef 07       		.uleb128 0x7
 2022 07f0 380B0000 		.4byte	.LASF133
 2023 07f4 06       		.byte	0x6
 2024 07f5 3F       		.byte	0x3f
 2025 07f6 0F010000 		.4byte	0x10f
 2026 07fa 08       		.byte	0x8
 2027 07fb 07       		.uleb128 0x7
 2028 07fc 5F0C0000 		.4byte	.LASF134
 2029 0800 06       		.byte	0x6
ARM GAS  C:\Users\Luis\AppData\Local\Temp\ccllzFQu.s 			page 37


 2030 0801 41       		.byte	0x41
 2031 0802 1A010000 		.4byte	0x11a
 2032 0806 0C       		.byte	0xc
 2033 0807 07       		.uleb128 0x7
 2034 0808 E1040000 		.4byte	.LASF135
 2035 080c 06       		.byte	0x6
 2036 080d 43       		.byte	0x43
 2037 080e 1A010000 		.4byte	0x11a
 2038 0812 10       		.byte	0x10
 2039 0813 00       		.byte	0
 2040 0814 0A       		.uleb128 0xa
 2041 0815 04       		.byte	0x4
 2042 0816 C0070000 		.4byte	0x7c0
 2043 081a 06       		.uleb128 0x6
 2044 081b A5000000 		.4byte	.LASF136
 2045 081f 04       		.byte	0x4
 2046 0820 06       		.byte	0x6
 2047 0821 4A       		.byte	0x4a
 2048 0822 33080000 		.4byte	0x833
 2049 0826 07       		.uleb128 0x7
 2050 0827 DD030000 		.4byte	.LASF137
 2051 082b 06       		.byte	0x6
 2052 082c 4B       		.byte	0x4b
 2053 082d 14080000 		.4byte	0x814
 2054 0831 00       		.byte	0
 2055 0832 00       		.byte	0
 2056 0833 03       		.uleb128 0x3
 2057 0834 37040000 		.4byte	.LASF138
 2058 0838 06       		.byte	0x6
 2059 0839 4E       		.byte	0x4e
 2060 083a 1A080000 		.4byte	0x81a
 2061 083e 0A       		.uleb128 0xa
 2062 083f 04       		.byte	0x4
 2063 0840 50000000 		.4byte	0x50
 2064 0844 04       		.uleb128 0x4
 2065 0845 01       		.byte	0x1
 2066 0846 02       		.byte	0x2
 2067 0847 0A050000 		.4byte	.LASF139
 2068 084b 1A       		.uleb128 0x1a
 2069 084c 01       		.byte	0x1
 2070 084d 13       		.byte	0x13
 2071 084e 43       		.byte	0x43
 2072 084f 66080000 		.4byte	0x866
 2073 0853 1B       		.uleb128 0x1b
 2074 0854 88040000 		.4byte	.LASF140
 2075 0858 00       		.sleb128 0
 2076 0859 1B       		.uleb128 0x1b
 2077 085a 8C070000 		.4byte	.LASF141
 2078 085e 01       		.sleb128 1
 2079 085f 1B       		.uleb128 0x1b
 2080 0860 48080000 		.4byte	.LASF142
 2081 0864 02       		.sleb128 2
 2082 0865 00       		.byte	0
 2083 0866 03       		.uleb128 0x3
 2084 0867 540A0000 		.4byte	.LASF143
 2085 086b 13       		.byte	0x13
 2086 086c 47       		.byte	0x47
ARM GAS  C:\Users\Luis\AppData\Local\Temp\ccllzFQu.s 			page 38


 2087 086d 4B080000 		.4byte	0x84b
 2088 0871 03       		.uleb128 0x3
 2089 0872 9E080000 		.4byte	.LASF144
 2090 0876 13       		.byte	0x13
 2091 0877 4C       		.byte	0x4c
 2092 0878 7C080000 		.4byte	0x87c
 2093 087c 06       		.uleb128 0x6
 2094 087d 9E080000 		.4byte	.LASF144
 2095 0881 2C       		.byte	0x2c
 2096 0882 14       		.byte	0x14
 2097 0883 EB       		.byte	0xeb
 2098 0884 FA080000 		.4byte	0x8fa
 2099 0888 07       		.uleb128 0x7
 2100 0889 7A0B0000 		.4byte	.LASF145
 2101 088d 14       		.byte	0x14
 2102 088e EF       		.byte	0xef
 2103 088f 66080000 		.4byte	0x866
 2104 0893 00       		.byte	0
 2105 0894 07       		.uleb128 0x7
 2106 0895 D4080000 		.4byte	.LASF146
 2107 0899 14       		.byte	0x14
 2108 089a F3       		.byte	0xf3
 2109 089b A2090000 		.4byte	0x9a2
 2110 089f 04       		.byte	0x4
 2111 08a0 07       		.uleb128 0x7
 2112 08a1 35080000 		.4byte	.LASF147
 2113 08a5 14       		.byte	0x14
 2114 08a6 F7       		.byte	0xf7
 2115 08a7 99020000 		.4byte	0x299
 2116 08ab 08       		.byte	0x8
 2117 08ac 07       		.uleb128 0x7
 2118 08ad D9070000 		.4byte	.LASF148
 2119 08b1 14       		.byte	0x14
 2120 08b2 FB       		.byte	0xfb
 2121 08b3 99020000 		.4byte	0x299
 2122 08b7 10       		.byte	0x10
 2123 08b8 09       		.uleb128 0x9
 2124 08b9 C70B0000 		.4byte	.LASF149
 2125 08bd 14       		.byte	0x14
 2126 08be 0001     		.2byte	0x100
 2127 08c0 33080000 		.4byte	0x833
 2128 08c4 18       		.byte	0x18
 2129 08c5 09       		.uleb128 0x9
 2130 08c6 3C010000 		.4byte	.LASF150
 2131 08ca 14       		.byte	0x14
 2132 08cb 0601     		.2byte	0x106
 2133 08cd 44080000 		.4byte	0x844
 2134 08d1 1C       		.byte	0x1c
 2135 08d2 09       		.uleb128 0x9
 2136 08d3 4C0C0000 		.4byte	.LASF151
 2137 08d7 14       		.byte	0x14
 2138 08d8 0A01     		.2byte	0x10a
 2139 08da 8D000000 		.4byte	0x8d
 2140 08de 20       		.byte	0x20
 2141 08df 09       		.uleb128 0x9
 2142 08e0 BD060000 		.4byte	.LASF152
 2143 08e4 14       		.byte	0x14
ARM GAS  C:\Users\Luis\AppData\Local\Temp\ccllzFQu.s 			page 39


 2144 08e5 0E01     		.2byte	0x10e
 2145 08e7 AD090000 		.4byte	0x9ad
 2146 08eb 24       		.byte	0x24
 2147 08ec 09       		.uleb128 0x9
 2148 08ed B30A0000 		.4byte	.LASF153
 2149 08f1 14       		.byte	0x14
 2150 08f2 1201     		.2byte	0x112
 2151 08f4 B3090000 		.4byte	0x9b3
 2152 08f8 28       		.byte	0x28
 2153 08f9 00       		.byte	0
 2154 08fa 13       		.uleb128 0x13
 2155 08fb 10       		.byte	0x10
 2156 08fc 14       		.byte	0x14
 2157 08fd CC       		.byte	0xcc
 2158 08fe 33090000 		.4byte	0x933
 2159 0902 07       		.uleb128 0x7
 2160 0903 63060000 		.4byte	.LASF154
 2161 0907 14       		.byte	0x14
 2162 0908 CD       		.byte	0xcd
 2163 0909 BD000000 		.4byte	0xbd
 2164 090d 00       		.byte	0
 2165 090e 07       		.uleb128 0x7
 2166 090f 69060000 		.4byte	.LASF155
 2167 0913 14       		.byte	0x14
 2168 0914 CE       		.byte	0xce
 2169 0915 BD000000 		.4byte	0xbd
 2170 0919 04       		.byte	0x4
 2171 091a 07       		.uleb128 0x7
 2172 091b 6F060000 		.4byte	.LASF156
 2173 091f 14       		.byte	0x14
 2174 0920 CF       		.byte	0xcf
 2175 0921 BD000000 		.4byte	0xbd
 2176 0925 08       		.byte	0x8
 2177 0926 07       		.uleb128 0x7
 2178 0927 75060000 		.4byte	.LASF157
 2179 092b 14       		.byte	0x14
 2180 092c D0       		.byte	0xd0
 2181 092d BD000000 		.4byte	0xbd
 2182 0931 0C       		.byte	0xc
 2183 0932 00       		.byte	0
 2184 0933 03       		.uleb128 0x3
 2185 0934 5C080000 		.4byte	.LASF158
 2186 0938 14       		.byte	0x14
 2187 0939 D1       		.byte	0xd1
 2188 093a FA080000 		.4byte	0x8fa
 2189 093e 13       		.uleb128 0x13
 2190 093f 10       		.byte	0x10
 2191 0940 14       		.byte	0x14
 2192 0941 D6       		.byte	0xd6
 2193 0942 77090000 		.4byte	0x977
 2194 0946 07       		.uleb128 0x7
 2195 0947 2D0A0000 		.4byte	.LASF159
 2196 094b 14       		.byte	0x14
 2197 094c D7       		.byte	0xd7
 2198 094d BD000000 		.4byte	0xbd
 2199 0951 00       		.byte	0
 2200 0952 07       		.uleb128 0x7
ARM GAS  C:\Users\Luis\AppData\Local\Temp\ccllzFQu.s 			page 40


 2201 0953 330A0000 		.4byte	.LASF160
 2202 0957 14       		.byte	0x14
 2203 0958 D8       		.byte	0xd8
 2204 0959 BD000000 		.4byte	0xbd
 2205 095d 04       		.byte	0x4
 2206 095e 07       		.uleb128 0x7
 2207 095f 390A0000 		.4byte	.LASF161
 2208 0963 14       		.byte	0x14
 2209 0964 D9       		.byte	0xd9
 2210 0965 BD000000 		.4byte	0xbd
 2211 0969 08       		.byte	0x8
 2212 096a 07       		.uleb128 0x7
 2213 096b 3F0A0000 		.4byte	.LASF162
 2214 096f 14       		.byte	0x14
 2215 0970 DA       		.byte	0xda
 2216 0971 BD000000 		.4byte	0xbd
 2217 0975 0C       		.byte	0xc
 2218 0976 00       		.byte	0
 2219 0977 03       		.uleb128 0x3
 2220 0978 07070000 		.4byte	.LASF163
 2221 097c 14       		.byte	0x14
 2222 097d DB       		.byte	0xdb
 2223 097e 3E090000 		.4byte	0x93e
 2224 0982 13       		.uleb128 0x13
 2225 0983 04       		.byte	0x4
 2226 0984 14       		.byte	0x14
 2227 0985 E0       		.byte	0xe0
 2228 0986 97090000 		.4byte	0x997
 2229 098a 07       		.uleb128 0x7
 2230 098b CC020000 		.4byte	.LASF164
 2231 098f 14       		.byte	0x14
 2232 0990 E4       		.byte	0xe4
 2233 0991 3E080000 		.4byte	0x83e
 2234 0995 00       		.byte	0
 2235 0996 00       		.byte	0
 2236 0997 03       		.uleb128 0x3
 2237 0998 180B0000 		.4byte	.LASF165
 2238 099c 14       		.byte	0x14
 2239 099d E6       		.byte	0xe6
 2240 099e 82090000 		.4byte	0x982
 2241 09a2 0A       		.uleb128 0xa
 2242 09a3 04       		.byte	0x4
 2243 09a4 A8090000 		.4byte	0x9a8
 2244 09a8 19       		.uleb128 0x19
 2245 09a9 97090000 		.4byte	0x997
 2246 09ad 0A       		.uleb128 0xa
 2247 09ae 04       		.byte	0x4
 2248 09af 33090000 		.4byte	0x933
 2249 09b3 0A       		.uleb128 0xa
 2250 09b4 04       		.byte	0x4
 2251 09b5 77090000 		.4byte	0x977
 2252 09b9 1C       		.uleb128 0x1c
 2253 09ba 0C       		.byte	0xc
 2254 09bb 14       		.byte	0x14
 2255 09bc 1801     		.2byte	0x118
 2256 09be EA090000 		.4byte	0x9ea
 2257 09c2 09       		.uleb128 0x9
ARM GAS  C:\Users\Luis\AppData\Local\Temp\ccllzFQu.s 			page 41


 2258 09c3 30040000 		.4byte	.LASF101
 2259 09c7 14       		.byte	0x14
 2260 09c8 1C01     		.2byte	0x11c
 2261 09ca 2C000000 		.4byte	0x2c
 2262 09ce 00       		.byte	0
 2263 09cf 09       		.uleb128 0x9
 2264 09d0 6E070000 		.4byte	.LASF166
 2265 09d4 14       		.byte	0x14
 2266 09d5 2001     		.2byte	0x120
 2267 09d7 2C000000 		.4byte	0x2c
 2268 09db 04       		.byte	0x4
 2269 09dc 09       		.uleb128 0x9
 2270 09dd B9090000 		.4byte	.LASF167
 2271 09e1 14       		.byte	0x14
 2272 09e2 2501     		.2byte	0x125
 2273 09e4 B3090000 		.4byte	0x9b3
 2274 09e8 08       		.byte	0x8
 2275 09e9 00       		.byte	0
 2276 09ea 1D       		.uleb128 0x1d
 2277 09eb 760C0000 		.4byte	.LASF168
 2278 09ef 14       		.byte	0x14
 2279 09f0 2601     		.2byte	0x126
 2280 09f2 B9090000 		.4byte	0x9b9
 2281 09f6 1C       		.uleb128 0x1c
 2282 09f7 0C       		.byte	0xc
 2283 09f8 14       		.byte	0x14
 2284 09f9 2B01     		.2byte	0x12b
 2285 09fb 270A0000 		.4byte	0xa27
 2286 09ff 09       		.uleb128 0x9
 2287 0a00 30040000 		.4byte	.LASF101
 2288 0a04 14       		.byte	0x14
 2289 0a05 2F01     		.2byte	0x12f
 2290 0a07 2C000000 		.4byte	0x2c
 2291 0a0b 00       		.byte	0
 2292 0a0c 09       		.uleb128 0x9
 2293 0a0d 6E070000 		.4byte	.LASF166
 2294 0a11 14       		.byte	0x14
 2295 0a12 3301     		.2byte	0x133
 2296 0a14 2C000000 		.4byte	0x2c
 2297 0a18 04       		.byte	0x4
 2298 0a19 09       		.uleb128 0x9
 2299 0a1a B9090000 		.4byte	.LASF167
 2300 0a1e 14       		.byte	0x14
 2301 0a1f 3801     		.2byte	0x138
 2302 0a21 AD090000 		.4byte	0x9ad
 2303 0a25 08       		.byte	0x8
 2304 0a26 00       		.byte	0
 2305 0a27 1D       		.uleb128 0x1d
 2306 0a28 F3030000 		.4byte	.LASF169
 2307 0a2c 14       		.byte	0x14
 2308 0a2d 3901     		.2byte	0x139
 2309 0a2f F6090000 		.4byte	0x9f6
 2310 0a33 13       		.uleb128 0x13
 2311 0a34 1C       		.byte	0x1c
 2312 0a35 15       		.byte	0x15
 2313 0a36 36       		.byte	0x36
 2314 0a37 600A0000 		.4byte	0xa60
ARM GAS  C:\Users\Luis\AppData\Local\Temp\ccllzFQu.s 			page 42


 2315 0a3b 07       		.uleb128 0x7
 2316 0a3c 59070000 		.4byte	.LASF170
 2317 0a40 15       		.byte	0x15
 2318 0a41 37       		.byte	0x37
 2319 0a42 4E030000 		.4byte	0x34e
 2320 0a46 00       		.byte	0
 2321 0a47 07       		.uleb128 0x7
 2322 0a48 44010000 		.4byte	.LASF171
 2323 0a4c 15       		.byte	0x15
 2324 0a4d 38       		.byte	0x38
 2325 0a4e 33080000 		.4byte	0x833
 2326 0a52 14       		.byte	0x14
 2327 0a53 07       		.uleb128 0x7
 2328 0a54 BF080000 		.4byte	.LASF172
 2329 0a58 15       		.byte	0x15
 2330 0a59 39       		.byte	0x39
 2331 0a5a 3B010000 		.4byte	0x13b
 2332 0a5e 18       		.byte	0x18
 2333 0a5f 00       		.byte	0
 2334 0a60 03       		.uleb128 0x3
 2335 0a61 D8020000 		.4byte	.LASF173
 2336 0a65 15       		.byte	0x15
 2337 0a66 3A       		.byte	0x3a
 2338 0a67 330A0000 		.4byte	0xa33
 2339 0a6b 03       		.uleb128 0x3
 2340 0a6c 3C070000 		.4byte	.LASF174
 2341 0a70 16       		.byte	0x16
 2342 0a71 38       		.byte	0x38
 2343 0a72 50000000 		.4byte	0x50
 2344 0a76 03       		.uleb128 0x3
 2345 0a77 85050000 		.4byte	.LASF175
 2346 0a7b 16       		.byte	0x16
 2347 0a7c 39       		.byte	0x39
 2348 0a7d 3E000000 		.4byte	0x3e
 2349 0a81 03       		.uleb128 0x3
 2350 0a82 5A010000 		.4byte	.LASF176
 2351 0a86 16       		.byte	0x16
 2352 0a87 3A       		.byte	0x3a
 2353 0a88 69000000 		.4byte	0x69
 2354 0a8c 03       		.uleb128 0x3
 2355 0a8d F9080000 		.4byte	.LASF177
 2356 0a91 16       		.byte	0x16
 2357 0a92 3C       		.byte	0x3c
 2358 0a93 8D000000 		.4byte	0x8d
 2359 0a97 06       		.uleb128 0x6
 2360 0a98 63050000 		.4byte	.LASF178
 2361 0a9c 10       		.byte	0x10
 2362 0a9d 17       		.byte	0x17
 2363 0a9e 90       		.byte	0x90
 2364 0a9f D40A0000 		.4byte	0xad4
 2365 0aa3 07       		.uleb128 0x7
 2366 0aa4 44000000 		.4byte	.LASF179
 2367 0aa8 17       		.byte	0x17
 2368 0aa9 91       		.byte	0x91
 2369 0aaa 3E080000 		.4byte	0x83e
 2370 0aae 00       		.byte	0
 2371 0aaf 07       		.uleb128 0x7
ARM GAS  C:\Users\Luis\AppData\Local\Temp\ccllzFQu.s 			page 43


 2372 0ab0 940A0000 		.4byte	.LASF180
 2373 0ab4 17       		.byte	0x17
 2374 0ab5 92       		.byte	0x92
 2375 0ab6 8D000000 		.4byte	0x8d
 2376 0aba 04       		.byte	0x4
 2377 0abb 07       		.uleb128 0x7
 2378 0abc CF060000 		.4byte	.LASF181
 2379 0ac0 17       		.byte	0x17
 2380 0ac1 93       		.byte	0x93
 2381 0ac2 8D000000 		.4byte	0x8d
 2382 0ac6 08       		.byte	0x8
 2383 0ac7 07       		.uleb128 0x7
 2384 0ac8 A2020000 		.4byte	.LASF182
 2385 0acc 17       		.byte	0x17
 2386 0acd 94       		.byte	0x94
 2387 0ace 8D000000 		.4byte	0x8d
 2388 0ad2 0C       		.byte	0xc
 2389 0ad3 00       		.byte	0
 2390 0ad4 03       		.uleb128 0x3
 2391 0ad5 1B030000 		.4byte	.LASF183
 2392 0ad9 17       		.byte	0x17
 2393 0ada 95       		.byte	0x95
 2394 0adb 970A0000 		.4byte	0xa97
 2395 0adf 03       		.uleb128 0x3
 2396 0ae0 E8050000 		.4byte	.LASF184
 2397 0ae4 18       		.byte	0x18
 2398 0ae5 4C       		.byte	0x4c
 2399 0ae6 810A0000 		.4byte	0xa81
 2400 0aea 03       		.uleb128 0x3
 2401 0aeb 21010000 		.4byte	.LASF185
 2402 0aef 19       		.byte	0x19
 2403 0af0 2F       		.byte	0x2f
 2404 0af1 760A0000 		.4byte	0xa76
 2405 0af5 1A       		.uleb128 0x1a
 2406 0af6 01       		.byte	0x1
 2407 0af7 1A       		.byte	0x1a
 2408 0af8 32       		.byte	0x32
 2409 0af9 160B0000 		.4byte	0xb16
 2410 0afd 1B       		.uleb128 0x1b
 2411 0afe 0C030000 		.4byte	.LASF186
 2412 0b02 00       		.sleb128 0
 2413 0b03 1B       		.uleb128 0x1b
 2414 0b04 02050000 		.4byte	.LASF187
 2415 0b08 01       		.sleb128 1
 2416 0b09 1B       		.uleb128 0x1b
 2417 0b0a F5070000 		.4byte	.LASF188
 2418 0b0e 02       		.sleb128 2
 2419 0b0f 1B       		.uleb128 0x1b
 2420 0b10 B2000000 		.4byte	.LASF189
 2421 0b14 03       		.sleb128 3
 2422 0b15 00       		.byte	0
 2423 0b16 1A       		.uleb128 0x1a
 2424 0b17 01       		.byte	0x1
 2425 0b18 1A       		.byte	0x1a
 2426 0b19 39       		.byte	0x39
 2427 0b1a 370B0000 		.4byte	0xb37
 2428 0b1e 1B       		.uleb128 0x1b
ARM GAS  C:\Users\Luis\AppData\Local\Temp\ccllzFQu.s 			page 44


 2429 0b1f 9C000000 		.4byte	.LASF190
 2430 0b23 00       		.sleb128 0
 2431 0b24 1B       		.uleb128 0x1b
 2432 0b25 000C0000 		.4byte	.LASF191
 2433 0b29 01       		.sleb128 1
 2434 0b2a 1B       		.uleb128 0x1b
 2435 0b2b C8040000 		.4byte	.LASF192
 2436 0b2f 02       		.sleb128 2
 2437 0b30 1B       		.uleb128 0x1b
 2438 0b31 1D090000 		.4byte	.LASF193
 2439 0b35 03       		.sleb128 3
 2440 0b36 00       		.byte	0
 2441 0b37 06       		.uleb128 0x6
 2442 0b38 590B0000 		.4byte	.LASF194
 2443 0b3c 10       		.byte	0x10
 2444 0b3d 1A       		.byte	0x1a
 2445 0b3e 4F       		.byte	0x4f
 2446 0b3f 980B0000 		.4byte	0xb98
 2447 0b43 07       		.uleb128 0x7
 2448 0b44 02010000 		.4byte	.LASF195
 2449 0b48 1A       		.byte	0x1a
 2450 0b49 51       		.byte	0x51
 2451 0b4a 980B0000 		.4byte	0xb98
 2452 0b4e 00       		.byte	0
 2453 0b4f 07       		.uleb128 0x7
 2454 0b50 FA040000 		.4byte	.LASF196
 2455 0b54 1A       		.byte	0x1a
 2456 0b55 54       		.byte	0x54
 2457 0b56 4C030000 		.4byte	0x34c
 2458 0b5a 04       		.byte	0x4
 2459 0b5b 07       		.uleb128 0x7
 2460 0b5c EB040000 		.4byte	.LASF197
 2461 0b60 1A       		.byte	0x1a
 2462 0b61 5D       		.byte	0x5d
 2463 0b62 810A0000 		.4byte	0xa81
 2464 0b66 08       		.byte	0x8
 2465 0b67 12       		.uleb128 0x12
 2466 0b68 6C656E00 		.ascii	"len\000"
 2467 0b6c 1A       		.byte	0x1a
 2468 0b6d 60       		.byte	0x60
 2469 0b6e 810A0000 		.4byte	0xa81
 2470 0b72 0A       		.byte	0xa
 2471 0b73 07       		.uleb128 0x7
 2472 0b74 5E060000 		.4byte	.LASF198
 2473 0b78 1A       		.byte	0x1a
 2474 0b79 63       		.byte	0x63
 2475 0b7a 6B0A0000 		.4byte	0xa6b
 2476 0b7e 0C       		.byte	0xc
 2477 0b7f 07       		.uleb128 0x7
 2478 0b80 BB000000 		.4byte	.LASF199
 2479 0b84 1A       		.byte	0x1a
 2480 0b85 66       		.byte	0x66
 2481 0b86 6B0A0000 		.4byte	0xa6b
 2482 0b8a 0D       		.byte	0xd
 2483 0b8b 12       		.uleb128 0x12
 2484 0b8c 72656600 		.ascii	"ref\000"
 2485 0b90 1A       		.byte	0x1a
ARM GAS  C:\Users\Luis\AppData\Local\Temp\ccllzFQu.s 			page 45


 2486 0b91 6D       		.byte	0x6d
 2487 0b92 810A0000 		.4byte	0xa81
 2488 0b96 0E       		.byte	0xe
 2489 0b97 00       		.byte	0
 2490 0b98 0A       		.uleb128 0xa
 2491 0b99 04       		.byte	0x4
 2492 0b9a 370B0000 		.4byte	0xb37
 2493 0b9e 1A       		.uleb128 0x1a
 2494 0b9f 01       		.byte	0x1
 2495 0ba0 1B       		.byte	0x1b
 2496 0ba1 2B       		.byte	0x2b
 2497 0ba2 010C0000 		.4byte	0xc01
 2498 0ba6 1B       		.uleb128 0x1b
 2499 0ba7 E1080000 		.4byte	.LASF200
 2500 0bab 00       		.sleb128 0
 2501 0bac 1B       		.uleb128 0x1b
 2502 0bad D7090000 		.4byte	.LASF201
 2503 0bb1 01       		.sleb128 1
 2504 0bb2 1B       		.uleb128 0x1b
 2505 0bb3 2F070000 		.4byte	.LASF202
 2506 0bb7 02       		.sleb128 2
 2507 0bb8 1B       		.uleb128 0x1b
 2508 0bb9 62000000 		.4byte	.LASF203
 2509 0bbd 03       		.sleb128 3
 2510 0bbe 1B       		.uleb128 0x1b
 2511 0bbf 420B0000 		.4byte	.LASF204
 2512 0bc3 04       		.sleb128 4
 2513 0bc4 1B       		.uleb128 0x1b
 2514 0bc5 A4070000 		.4byte	.LASF205
 2515 0bc9 05       		.sleb128 5
 2516 0bca 1B       		.uleb128 0x1b
 2517 0bcb B0080000 		.4byte	.LASF206
 2518 0bcf 06       		.sleb128 6
 2519 0bd0 1B       		.uleb128 0x1b
 2520 0bd1 C3060000 		.4byte	.LASF207
 2521 0bd5 07       		.sleb128 7
 2522 0bd6 1B       		.uleb128 0x1b
 2523 0bd7 53030000 		.4byte	.LASF208
 2524 0bdb 08       		.sleb128 8
 2525 0bdc 1B       		.uleb128 0x1b
 2526 0bdd 8F030000 		.4byte	.LASF209
 2527 0be1 09       		.sleb128 9
 2528 0be2 1B       		.uleb128 0x1b
 2529 0be3 B3040000 		.4byte	.LASF210
 2530 0be7 0A       		.sleb128 10
 2531 0be8 1B       		.uleb128 0x1b
 2532 0be9 68090000 		.4byte	.LASF211
 2533 0bed 0B       		.sleb128 11
 2534 0bee 1B       		.uleb128 0x1b
 2535 0bef C6050000 		.4byte	.LASF212
 2536 0bf3 0C       		.sleb128 12
 2537 0bf4 1B       		.uleb128 0x1b
 2538 0bf5 B2020000 		.4byte	.LASF213
 2539 0bf9 0D       		.sleb128 13
 2540 0bfa 1B       		.uleb128 0x1b
 2541 0bfb 7C050000 		.4byte	.LASF214
 2542 0bff 0E       		.sleb128 14
ARM GAS  C:\Users\Luis\AppData\Local\Temp\ccllzFQu.s 			page 46


 2543 0c00 00       		.byte	0
 2544 0c01 06       		.uleb128 0x6
 2545 0c02 4F000000 		.4byte	.LASF215
 2546 0c06 18       		.byte	0x18
 2547 0c07 1C       		.byte	0x1c
 2548 0c08 3A       		.byte	0x3a
 2549 0c09 9D0C0000 		.4byte	0xc9d
 2550 0c0d 07       		.uleb128 0x7
 2551 0c0e FB0B0000 		.4byte	.LASF216
 2552 0c12 1C       		.byte	0x1c
 2553 0c13 3B       		.byte	0x3b
 2554 0c14 810A0000 		.4byte	0xa81
 2555 0c18 00       		.byte	0
 2556 0c19 07       		.uleb128 0x7
 2557 0c1a A90B0000 		.4byte	.LASF217
 2558 0c1e 1C       		.byte	0x1c
 2559 0c1f 3C       		.byte	0x3c
 2560 0c20 810A0000 		.4byte	0xa81
 2561 0c24 02       		.byte	0x2
 2562 0c25 12       		.uleb128 0x12
 2563 0c26 667700   		.ascii	"fw\000"
 2564 0c29 1C       		.byte	0x1c
 2565 0c2a 3D       		.byte	0x3d
 2566 0c2b 810A0000 		.4byte	0xa81
 2567 0c2f 04       		.byte	0x4
 2568 0c30 07       		.uleb128 0x7
 2569 0c31 750B0000 		.4byte	.LASF218
 2570 0c35 1C       		.byte	0x1c
 2571 0c36 3E       		.byte	0x3e
 2572 0c37 810A0000 		.4byte	0xa81
 2573 0c3b 06       		.byte	0x6
 2574 0c3c 07       		.uleb128 0x7
 2575 0c3d 95070000 		.4byte	.LASF219
 2576 0c41 1C       		.byte	0x1c
 2577 0c42 3F       		.byte	0x3f
 2578 0c43 810A0000 		.4byte	0xa81
 2579 0c47 08       		.byte	0x8
 2580 0c48 07       		.uleb128 0x7
 2581 0c49 640A0000 		.4byte	.LASF220
 2582 0c4d 1C       		.byte	0x1c
 2583 0c4e 40       		.byte	0x40
 2584 0c4f 810A0000 		.4byte	0xa81
 2585 0c53 0A       		.byte	0xa
 2586 0c54 07       		.uleb128 0x7
 2587 0c55 E1070000 		.4byte	.LASF221
 2588 0c59 1C       		.byte	0x1c
 2589 0c5a 41       		.byte	0x41
 2590 0c5b 810A0000 		.4byte	0xa81
 2591 0c5f 0C       		.byte	0xc
 2592 0c60 07       		.uleb128 0x7
 2593 0c61 4F090000 		.4byte	.LASF222
 2594 0c65 1C       		.byte	0x1c
 2595 0c66 42       		.byte	0x42
 2596 0c67 810A0000 		.4byte	0xa81
 2597 0c6b 0E       		.byte	0xe
 2598 0c6c 07       		.uleb128 0x7
 2599 0c6d CE0A0000 		.4byte	.LASF223
ARM GAS  C:\Users\Luis\AppData\Local\Temp\ccllzFQu.s 			page 47


 2600 0c71 1C       		.byte	0x1c
 2601 0c72 43       		.byte	0x43
 2602 0c73 810A0000 		.4byte	0xa81
 2603 0c77 10       		.byte	0x10
 2604 0c78 07       		.uleb128 0x7
 2605 0c79 A2030000 		.4byte	.LASF224
 2606 0c7d 1C       		.byte	0x1c
 2607 0c7e 44       		.byte	0x44
 2608 0c7f 810A0000 		.4byte	0xa81
 2609 0c83 12       		.byte	0x12
 2610 0c84 12       		.uleb128 0x12
 2611 0c85 65727200 		.ascii	"err\000"
 2612 0c89 1C       		.byte	0x1c
 2613 0c8a 45       		.byte	0x45
 2614 0c8b 810A0000 		.4byte	0xa81
 2615 0c8f 14       		.byte	0x14
 2616 0c90 07       		.uleb128 0x7
 2617 0c91 FF090000 		.4byte	.LASF225
 2618 0c95 1C       		.byte	0x1c
 2619 0c96 46       		.byte	0x46
 2620 0c97 810A0000 		.4byte	0xa81
 2621 0c9b 16       		.byte	0x16
 2622 0c9c 00       		.byte	0
 2623 0c9d 06       		.uleb128 0x6
 2624 0c9e 71020000 		.4byte	.LASF226
 2625 0ca2 0A       		.byte	0xa
 2626 0ca3 1C       		.byte	0x1c
 2627 0ca4 5A       		.byte	0x5a
 2628 0ca5 E60C0000 		.4byte	0xce6
 2629 0ca9 07       		.uleb128 0x7
 2630 0caa 62090000 		.4byte	.LASF227
 2631 0cae 1C       		.byte	0x1c
 2632 0caf 5E       		.byte	0x5e
 2633 0cb0 DF0A0000 		.4byte	0xadf
 2634 0cb4 00       		.byte	0
 2635 0cb5 07       		.uleb128 0x7
 2636 0cb6 69070000 		.4byte	.LASF228
 2637 0cba 1C       		.byte	0x1c
 2638 0cbb 5F       		.byte	0x5f
 2639 0cbc DF0A0000 		.4byte	0xadf
 2640 0cc0 02       		.byte	0x2
 2641 0cc1 12       		.uleb128 0x12
 2642 0cc2 6D617800 		.ascii	"max\000"
 2643 0cc6 1C       		.byte	0x1c
 2644 0cc7 60       		.byte	0x60
 2645 0cc8 DF0A0000 		.4byte	0xadf
 2646 0ccc 04       		.byte	0x4
 2647 0ccd 12       		.uleb128 0x12
 2648 0cce 65727200 		.ascii	"err\000"
 2649 0cd2 1C       		.byte	0x1c
 2650 0cd3 61       		.byte	0x61
 2651 0cd4 810A0000 		.4byte	0xa81
 2652 0cd8 06       		.byte	0x6
 2653 0cd9 07       		.uleb128 0x7
 2654 0cda E0050000 		.4byte	.LASF229
 2655 0cde 1C       		.byte	0x1c
 2656 0cdf 62       		.byte	0x62
ARM GAS  C:\Users\Luis\AppData\Local\Temp\ccllzFQu.s 			page 48


 2657 0ce0 810A0000 		.4byte	0xa81
 2658 0ce4 08       		.byte	0x8
 2659 0ce5 00       		.byte	0
 2660 0ce6 06       		.uleb128 0x6
 2661 0ce7 2D030000 		.4byte	.LASF230
 2662 0ceb 06       		.byte	0x6
 2663 0cec 1C       		.byte	0x1c
 2664 0ced 65       		.byte	0x65
 2665 0cee 170D0000 		.4byte	0xd17
 2666 0cf2 07       		.uleb128 0x7
 2667 0cf3 69070000 		.4byte	.LASF228
 2668 0cf7 1C       		.byte	0x1c
 2669 0cf8 66       		.byte	0x66
 2670 0cf9 810A0000 		.4byte	0xa81
 2671 0cfd 00       		.byte	0
 2672 0cfe 12       		.uleb128 0x12
 2673 0cff 6D617800 		.ascii	"max\000"
 2674 0d03 1C       		.byte	0x1c
 2675 0d04 67       		.byte	0x67
 2676 0d05 810A0000 		.4byte	0xa81
 2677 0d09 02       		.byte	0x2
 2678 0d0a 12       		.uleb128 0x12
 2679 0d0b 65727200 		.ascii	"err\000"
 2680 0d0f 1C       		.byte	0x1c
 2681 0d10 68       		.byte	0x68
 2682 0d11 810A0000 		.4byte	0xa81
 2683 0d15 04       		.byte	0x4
 2684 0d16 00       		.byte	0
 2685 0d17 06       		.uleb128 0x6
 2686 0d18 000B0000 		.4byte	.LASF231
 2687 0d1c 12       		.byte	0x12
 2688 0d1d 1C       		.byte	0x1c
 2689 0d1e 6B       		.byte	0x6b
 2690 0d1f 480D0000 		.4byte	0xd48
 2691 0d23 12       		.uleb128 0x12
 2692 0d24 73656D00 		.ascii	"sem\000"
 2693 0d28 1C       		.byte	0x1c
 2694 0d29 6C       		.byte	0x6c
 2695 0d2a E60C0000 		.4byte	0xce6
 2696 0d2e 00       		.byte	0
 2697 0d2f 07       		.uleb128 0x7
 2698 0d30 A9030000 		.4byte	.LASF232
 2699 0d34 1C       		.byte	0x1c
 2700 0d35 6D       		.byte	0x6d
 2701 0d36 E60C0000 		.4byte	0xce6
 2702 0d3a 06       		.byte	0x6
 2703 0d3b 07       		.uleb128 0x7
 2704 0d3c EA090000 		.4byte	.LASF233
 2705 0d40 1C       		.byte	0x1c
 2706 0d41 6E       		.byte	0x6e
 2707 0d42 E60C0000 		.4byte	0xce6
 2708 0d46 0C       		.byte	0xc
 2709 0d47 00       		.byte	0
 2710 0d48 1E       		.uleb128 0x1e
 2711 0d49 D1040000 		.4byte	.LASF234
 2712 0d4d 5001     		.2byte	0x150
 2713 0d4f 1C       		.byte	0x1c
ARM GAS  C:\Users\Luis\AppData\Local\Temp\ccllzFQu.s 			page 49


 2714 0d50 71       		.byte	0x71
 2715 0d51 CE0D0000 		.4byte	0xdce
 2716 0d55 07       		.uleb128 0x7
 2717 0d56 32020000 		.4byte	.LASF235
 2718 0d5a 1C       		.byte	0x1c
 2719 0d5b 73       		.byte	0x73
 2720 0d5c 010C0000 		.4byte	0xc01
 2721 0d60 00       		.byte	0
 2722 0d61 07       		.uleb128 0x7
 2723 0d62 EC030000 		.4byte	.LASF236
 2724 0d66 1C       		.byte	0x1c
 2725 0d67 76       		.byte	0x76
 2726 0d68 010C0000 		.4byte	0xc01
 2727 0d6c 18       		.byte	0x18
 2728 0d6d 07       		.uleb128 0x7
 2729 0d6e AF030000 		.4byte	.LASF237
 2730 0d72 1C       		.byte	0x1c
 2731 0d73 79       		.byte	0x79
 2732 0d74 010C0000 		.4byte	0xc01
 2733 0d78 30       		.byte	0x30
 2734 0d79 12       		.uleb128 0x12
 2735 0d7a 697000   		.ascii	"ip\000"
 2736 0d7d 1C       		.byte	0x1c
 2737 0d7e 7C       		.byte	0x7c
 2738 0d7f 010C0000 		.4byte	0xc01
 2739 0d83 48       		.byte	0x48
 2740 0d84 07       		.uleb128 0x7
 2741 0d85 09090000 		.4byte	.LASF238
 2742 0d89 1C       		.byte	0x1c
 2743 0d8a 7F       		.byte	0x7f
 2744 0d8b 010C0000 		.4byte	0xc01
 2745 0d8f 60       		.byte	0x60
 2746 0d90 12       		.uleb128 0x12
 2747 0d91 75647000 		.ascii	"udp\000"
 2748 0d95 1C       		.byte	0x1c
 2749 0d96 85       		.byte	0x85
 2750 0d97 010C0000 		.4byte	0xc01
 2751 0d9b 78       		.byte	0x78
 2752 0d9c 12       		.uleb128 0x12
 2753 0d9d 74637000 		.ascii	"tcp\000"
 2754 0da1 1C       		.byte	0x1c
 2755 0da2 88       		.byte	0x88
 2756 0da3 010C0000 		.4byte	0xc01
 2757 0da7 90       		.byte	0x90
 2758 0da8 12       		.uleb128 0x12
 2759 0da9 6D656D00 		.ascii	"mem\000"
 2760 0dad 1C       		.byte	0x1c
 2761 0dae 8B       		.byte	0x8b
 2762 0daf 9D0C0000 		.4byte	0xc9d
 2763 0db3 A8       		.byte	0xa8
 2764 0db4 07       		.uleb128 0x7
 2765 0db5 5F0A0000 		.4byte	.LASF239
 2766 0db9 1C       		.byte	0x1c
 2767 0dba 8E       		.byte	0x8e
 2768 0dbb CE0D0000 		.4byte	0xdce
 2769 0dbf B2       		.byte	0xb2
 2770 0dc0 1F       		.uleb128 0x1f
ARM GAS  C:\Users\Luis\AppData\Local\Temp\ccllzFQu.s 			page 50


 2771 0dc1 73797300 		.ascii	"sys\000"
 2772 0dc5 1C       		.byte	0x1c
 2773 0dc6 91       		.byte	0x91
 2774 0dc7 170D0000 		.4byte	0xd17
 2775 0dcb 3E01     		.2byte	0x13e
 2776 0dcd 00       		.byte	0
 2777 0dce 15       		.uleb128 0x15
 2778 0dcf 9D0C0000 		.4byte	0xc9d
 2779 0dd3 DE0D0000 		.4byte	0xdde
 2780 0dd7 16       		.uleb128 0x16
 2781 0dd8 BB040000 		.4byte	0x4bb
 2782 0ddc 0D       		.byte	0xd
 2783 0ddd 00       		.byte	0
 2784 0dde 06       		.uleb128 0x6
 2785 0ddf 8C0C0000 		.4byte	.LASF240
 2786 0de3 04       		.byte	0x4
 2787 0de4 1D       		.byte	0x1d
 2788 0de5 2C       		.byte	0x2c
 2789 0de6 F70D0000 		.4byte	0xdf7
 2790 0dea 07       		.uleb128 0x7
 2791 0deb 690B0000 		.4byte	.LASF241
 2792 0def 1D       		.byte	0x1d
 2793 0df0 2D       		.byte	0x2d
 2794 0df1 8C0A0000 		.4byte	0xa8c
 2795 0df5 00       		.byte	0
 2796 0df6 00       		.byte	0
 2797 0df7 03       		.uleb128 0x3
 2798 0df8 230C0000 		.4byte	.LASF242
 2799 0dfc 1D       		.byte	0x1d
 2800 0dfd 40       		.byte	0x40
 2801 0dfe DE0D0000 		.4byte	0xdde
 2802 0e02 0A       		.uleb128 0xa
 2803 0e03 04       		.byte	0x4
 2804 0e04 080E0000 		.4byte	0xe08
 2805 0e08 06       		.uleb128 0x6
 2806 0e09 910B0000 		.4byte	.LASF243
 2807 0e0d 30       		.byte	0x30
 2808 0e0e 1E       		.byte	0x1e
 2809 0e0f 88       		.byte	0x88
 2810 0e10 BC0E0000 		.4byte	0xebc
 2811 0e14 07       		.uleb128 0x7
 2812 0e15 02010000 		.4byte	.LASF195
 2813 0e19 1E       		.byte	0x1e
 2814 0e1a 8A       		.byte	0x8a
 2815 0e1b 020E0000 		.4byte	0xe02
 2816 0e1f 00       		.byte	0
 2817 0e20 07       		.uleb128 0x7
 2818 0e21 8C0C0000 		.4byte	.LASF240
 2819 0e25 1E       		.byte	0x1e
 2820 0e26 8D       		.byte	0x8d
 2821 0e27 F70D0000 		.4byte	0xdf7
 2822 0e2b 04       		.byte	0x4
 2823 0e2c 07       		.uleb128 0x7
 2824 0e2d CF060000 		.4byte	.LASF181
 2825 0e31 1E       		.byte	0x1e
 2826 0e32 8E       		.byte	0x8e
 2827 0e33 F70D0000 		.4byte	0xdf7
ARM GAS  C:\Users\Luis\AppData\Local\Temp\ccllzFQu.s 			page 51


 2828 0e37 08       		.byte	0x8
 2829 0e38 12       		.uleb128 0x12
 2830 0e39 677700   		.ascii	"gw\000"
 2831 0e3c 1E       		.byte	0x1e
 2832 0e3d 8F       		.byte	0x8f
 2833 0e3e F70D0000 		.4byte	0xdf7
 2834 0e42 0C       		.byte	0xc
 2835 0e43 07       		.uleb128 0x7
 2836 0e44 D3070000 		.4byte	.LASF244
 2837 0e48 1E       		.byte	0x1e
 2838 0e49 93       		.byte	0x93
 2839 0e4a BC0E0000 		.4byte	0xebc
 2840 0e4e 10       		.byte	0x10
 2841 0e4f 07       		.uleb128 0x7
 2842 0e50 8E000000 		.4byte	.LASF245
 2843 0e54 1E       		.byte	0x1e
 2844 0e55 97       		.byte	0x97
 2845 0e56 E10E0000 		.4byte	0xee1
 2846 0e5a 14       		.byte	0x14
 2847 0e5b 07       		.uleb128 0x7
 2848 0e5c 540C0000 		.4byte	.LASF246
 2849 0e60 1E       		.byte	0x1e
 2850 0e61 9B       		.byte	0x9b
 2851 0e62 110F0000 		.4byte	0xf11
 2852 0e66 18       		.byte	0x18
 2853 0e67 07       		.uleb128 0x7
 2854 0e68 7A0B0000 		.4byte	.LASF145
 2855 0e6c 1E       		.byte	0x1e
 2856 0e6d AC       		.byte	0xac
 2857 0e6e 4C030000 		.4byte	0x34c
 2858 0e72 1C       		.byte	0x1c
 2859 0e73 12       		.uleb128 0x12
 2860 0e74 6D747500 		.ascii	"mtu\000"
 2861 0e78 1E       		.byte	0x1e
 2862 0e79 BA       		.byte	0xba
 2863 0e7a 810A0000 		.4byte	0xa81
 2864 0e7e 20       		.byte	0x20
 2865 0e7f 07       		.uleb128 0x7
 2866 0e80 4C040000 		.4byte	.LASF247
 2867 0e84 1E       		.byte	0x1e
 2868 0e85 BC       		.byte	0xbc
 2869 0e86 6B0A0000 		.4byte	0xa6b
 2870 0e8a 22       		.byte	0x22
 2871 0e8b 07       		.uleb128 0x7
 2872 0e8c E5030000 		.4byte	.LASF248
 2873 0e90 1E       		.byte	0x1e
 2874 0e91 BE       		.byte	0xbe
 2875 0e92 360F0000 		.4byte	0xf36
 2876 0e96 23       		.byte	0x23
 2877 0e97 07       		.uleb128 0x7
 2878 0e98 BB000000 		.4byte	.LASF199
 2879 0e9c 1E       		.byte	0x1e
 2880 0e9d C0       		.byte	0xc0
 2881 0e9e 6B0A0000 		.4byte	0xa6b
 2882 0ea2 29       		.byte	0x29
 2883 0ea3 07       		.uleb128 0x7
 2884 0ea4 080A0000 		.4byte	.LASF249
ARM GAS  C:\Users\Luis\AppData\Local\Temp\ccllzFQu.s 			page 52


 2885 0ea8 1E       		.byte	0x1e
 2886 0ea9 C2       		.byte	0xc2
 2887 0eaa 460F0000 		.4byte	0xf46
 2888 0eae 2A       		.byte	0x2a
 2889 0eaf 12       		.uleb128 0x12
 2890 0eb0 6E756D00 		.ascii	"num\000"
 2891 0eb4 1E       		.byte	0x1e
 2892 0eb5 C4       		.byte	0xc4
 2893 0eb6 6B0A0000 		.4byte	0xa6b
 2894 0eba 2C       		.byte	0x2c
 2895 0ebb 00       		.byte	0
 2896 0ebc 03       		.uleb128 0x3
 2897 0ebd 3B030000 		.4byte	.LASF250
 2898 0ec1 1E       		.byte	0x1e
 2899 0ec2 6D       		.byte	0x6d
 2900 0ec3 C70E0000 		.4byte	0xec7
 2901 0ec7 0A       		.uleb128 0xa
 2902 0ec8 04       		.byte	0x4
 2903 0ec9 CD0E0000 		.4byte	0xecd
 2904 0ecd 20       		.uleb128 0x20
 2905 0ece EA0A0000 		.4byte	0xaea
 2906 0ed2 E10E0000 		.4byte	0xee1
 2907 0ed6 0D       		.uleb128 0xd
 2908 0ed7 980B0000 		.4byte	0xb98
 2909 0edb 0D       		.uleb128 0xd
 2910 0edc 020E0000 		.4byte	0xe02
 2911 0ee0 00       		.byte	0
 2912 0ee1 03       		.uleb128 0x3
 2913 0ee2 92020000 		.4byte	.LASF251
 2914 0ee6 1E       		.byte	0x1e
 2915 0ee7 76       		.byte	0x76
 2916 0ee8 EC0E0000 		.4byte	0xeec
 2917 0eec 0A       		.uleb128 0xa
 2918 0eed 04       		.byte	0x4
 2919 0eee F20E0000 		.4byte	0xef2
 2920 0ef2 20       		.uleb128 0x20
 2921 0ef3 EA0A0000 		.4byte	0xaea
 2922 0ef7 0B0F0000 		.4byte	0xf0b
 2923 0efb 0D       		.uleb128 0xd
 2924 0efc 020E0000 		.4byte	0xe02
 2925 0f00 0D       		.uleb128 0xd
 2926 0f01 980B0000 		.4byte	0xb98
 2927 0f05 0D       		.uleb128 0xd
 2928 0f06 0B0F0000 		.4byte	0xf0b
 2929 0f0a 00       		.byte	0
 2930 0f0b 0A       		.uleb128 0xa
 2931 0f0c 04       		.byte	0x4
 2932 0f0d F70D0000 		.4byte	0xdf7
 2933 0f11 03       		.uleb128 0x3
 2934 0f12 190A0000 		.4byte	.LASF252
 2935 0f16 1E       		.byte	0x1e
 2936 0f17 7E       		.byte	0x7e
 2937 0f18 1C0F0000 		.4byte	0xf1c
 2938 0f1c 0A       		.uleb128 0xa
 2939 0f1d 04       		.byte	0x4
 2940 0f1e 220F0000 		.4byte	0xf22
 2941 0f22 20       		.uleb128 0x20
ARM GAS  C:\Users\Luis\AppData\Local\Temp\ccllzFQu.s 			page 53


 2942 0f23 EA0A0000 		.4byte	0xaea
 2943 0f27 360F0000 		.4byte	0xf36
 2944 0f2b 0D       		.uleb128 0xd
 2945 0f2c 020E0000 		.4byte	0xe02
 2946 0f30 0D       		.uleb128 0xd
 2947 0f31 980B0000 		.4byte	0xb98
 2948 0f35 00       		.byte	0
 2949 0f36 15       		.uleb128 0x15
 2950 0f37 6B0A0000 		.4byte	0xa6b
 2951 0f3b 460F0000 		.4byte	0xf46
 2952 0f3f 16       		.uleb128 0x16
 2953 0f40 BB040000 		.4byte	0x4bb
 2954 0f44 05       		.byte	0x5
 2955 0f45 00       		.byte	0
 2956 0f46 15       		.uleb128 0x15
 2957 0f47 87070000 		.4byte	0x787
 2958 0f4b 560F0000 		.4byte	0xf56
 2959 0f4f 16       		.uleb128 0x16
 2960 0f50 BB040000 		.4byte	0x4bb
 2961 0f54 01       		.byte	0x1
 2962 0f55 00       		.byte	0
 2963 0f56 03       		.uleb128 0x3
 2964 0f57 79090000 		.4byte	.LASF253
 2965 0f5b 1F       		.byte	0x1f
 2966 0f5c 4E       		.byte	0x4e
 2967 0f5d 3B030000 		.4byte	0x33b
 2968 0f61 06       		.uleb128 0x6
 2969 0f62 24060000 		.4byte	.LASF254
 2970 0f66 06       		.byte	0x6
 2971 0f67 20       		.byte	0x20
 2972 0f68 3B       		.byte	0x3b
 2973 0f69 7A0F0000 		.4byte	0xf7a
 2974 0f6d 07       		.uleb128 0x7
 2975 0f6e 690B0000 		.4byte	.LASF241
 2976 0f72 20       		.byte	0x20
 2977 0f73 3C       		.byte	0x3c
 2978 0f74 360F0000 		.4byte	0xf36
 2979 0f78 00       		.byte	0
 2980 0f79 00       		.byte	0
 2981 0f7a 06       		.uleb128 0x6
 2982 0f7b 83060000 		.4byte	.LASF255
 2983 0f7f 0E       		.byte	0xe
 2984 0f80 20       		.byte	0x20
 2985 0f81 48       		.byte	0x48
 2986 0f82 AB0F0000 		.4byte	0xfab
 2987 0f86 07       		.uleb128 0x7
 2988 0f87 680C0000 		.4byte	.LASF256
 2989 0f8b 20       		.byte	0x20
 2990 0f8c 4C       		.byte	0x4c
 2991 0f8d 610F0000 		.4byte	0xf61
 2992 0f91 00       		.byte	0
 2993 0f92 12       		.uleb128 0x12
 2994 0f93 73726300 		.ascii	"src\000"
 2995 0f97 20       		.byte	0x20
 2996 0f98 4D       		.byte	0x4d
 2997 0f99 610F0000 		.4byte	0xf61
 2998 0f9d 06       		.byte	0x6
ARM GAS  C:\Users\Luis\AppData\Local\Temp\ccllzFQu.s 			page 54


 2999 0f9e 07       		.uleb128 0x7
 3000 0f9f 5E060000 		.4byte	.LASF198
 3001 0fa3 20       		.byte	0x20
 3002 0fa4 4E       		.byte	0x4e
 3003 0fa5 810A0000 		.4byte	0xa81
 3004 0fa9 0C       		.byte	0xc
 3005 0faa 00       		.byte	0
 3006 0fab 21       		.uleb128 0x21
 3007 0fac C2090000 		.4byte	.LASF284
 3008 0fb0 02       		.byte	0x2
 3009 0fb1 2002     		.2byte	0x220
 3010 0fb3 03       		.byte	0x3
 3011 0fb4 C50F0000 		.4byte	0xfc5
 3012 0fb8 22       		.uleb128 0x22
 3013 0fb9 82040000 		.4byte	.LASF285
 3014 0fbd 02       		.byte	0x2
 3015 0fbe 2002     		.2byte	0x220
 3016 0fc0 8D000000 		.4byte	0x8d
 3017 0fc4 00       		.byte	0
 3018 0fc5 23       		.uleb128 0x23
 3019 0fc6 37020000 		.4byte	.LASF257
 3020 0fca 01       		.byte	0x1
 3021 0fcb BC01     		.2byte	0x1bc
 3022 0fcd 00000000 		.4byte	.LFB116
 3023 0fd1 1A000000 		.4byte	.LFE116-.LFB116
 3024 0fd5 01       		.uleb128 0x1
 3025 0fd6 9C       		.byte	0x9c
 3026 0fd7 F50F0000 		.4byte	0xff5
 3027 0fdb 24       		.uleb128 0x24
 3028 0fdc AB0F0000 		.4byte	0xfab
 3029 0fe0 0A000000 		.4byte	.LBB6
 3030 0fe4 06000000 		.4byte	.LBE6-.LBB6
 3031 0fe8 01       		.byte	0x1
 3032 0fe9 BF01     		.2byte	0x1bf
 3033 0feb 25       		.uleb128 0x25
 3034 0fec B80F0000 		.4byte	0xfb8
 3035 0ff0 02       		.uleb128 0x2
 3036 0ff1 91       		.byte	0x91
 3037 0ff2 74       		.sleb128 -12
 3038 0ff3 00       		.byte	0
 3039 0ff4 00       		.byte	0
 3040 0ff5 23       		.uleb128 0x23
 3041 0ff6 48020000 		.4byte	.LASF258
 3042 0ffa 01       		.byte	0x1
 3043 0ffb CA01     		.2byte	0x1ca
 3044 0ffd 00000000 		.4byte	.LFB117
 3045 1001 1A000000 		.4byte	.LFE117-.LFB117
 3046 1005 01       		.uleb128 0x1
 3047 1006 9C       		.byte	0x9c
 3048 1007 25100000 		.4byte	0x1025
 3049 100b 24       		.uleb128 0x24
 3050 100c AB0F0000 		.4byte	0xfab
 3051 1010 0A000000 		.4byte	.LBB8
 3052 1014 06000000 		.4byte	.LBE8-.LBB8
 3053 1018 01       		.byte	0x1
 3054 1019 CD01     		.2byte	0x1cd
 3055 101b 25       		.uleb128 0x25
ARM GAS  C:\Users\Luis\AppData\Local\Temp\ccllzFQu.s 			page 55


 3056 101c B80F0000 		.4byte	0xfb8
 3057 1020 02       		.uleb128 0x2
 3058 1021 91       		.byte	0x91
 3059 1022 74       		.sleb128 -12
 3060 1023 00       		.byte	0
 3061 1024 00       		.byte	0
 3062 1025 26       		.uleb128 0x26
 3063 1026 9B050000 		.4byte	.LASF286
 3064 102a 03       		.byte	0x3
 3065 102b 5A01     		.2byte	0x15a
 3066 102d 00000000 		.4byte	.LFB156
 3067 1031 12000000 		.4byte	.LFE156-.LFB156
 3068 1035 01       		.uleb128 0x1
 3069 1036 9C       		.byte	0x9c
 3070 1037 27       		.uleb128 0x27
 3071 1038 60040000 		.4byte	.LASF259
 3072 103c 03       		.byte	0x3
 3073 103d 6601     		.2byte	0x166
 3074 103f 00000000 		.4byte	.LFB157
 3075 1043 3C000000 		.4byte	.LFE157-.LFB157
 3076 1047 01       		.uleb128 0x1
 3077 1048 9C       		.byte	0x9c
 3078 1049 5D100000 		.4byte	0x105d
 3079 104d 28       		.uleb128 0x28
 3080 104e 090C0000 		.4byte	.LASF287
 3081 1052 6D100000 		.4byte	0x106d
 3082 1056 05       		.uleb128 0x5
 3083 1057 03       		.byte	0x3
 3084 1058 00000000 		.4byte	__func__.5842
 3085 105c 00       		.byte	0
 3086 105d 15       		.uleb128 0x15
 3087 105e 87070000 		.4byte	0x787
 3088 1062 6D100000 		.4byte	0x106d
 3089 1066 16       		.uleb128 0x16
 3090 1067 BB040000 		.4byte	0x4bb
 3091 106b 0B       		.byte	0xb
 3092 106c 00       		.byte	0
 3093 106d 19       		.uleb128 0x19
 3094 106e 5D100000 		.4byte	0x105d
 3095 1072 29       		.uleb128 0x29
 3096 1073 7D080000 		.4byte	.LASF260
 3097 1077 04       		.byte	0x4
 3098 1078 AE       		.byte	0xae
 3099 1079 6F020000 		.4byte	0x26f
 3100 107d 00000000 		.4byte	.LFB177
 3101 1081 18000000 		.4byte	.LFE177-.LFB177
 3102 1085 01       		.uleb128 0x1
 3103 1086 9C       		.byte	0x9c
 3104 1087 2A       		.uleb128 0x2a
 3105 1088 92090000 		.4byte	.LASF261
 3106 108c 04       		.byte	0x4
 3107 108d BB       		.byte	0xbb
 3108 108e F9000000 		.4byte	0xf9
 3109 1092 00000000 		.4byte	.LFB178
 3110 1096 10000000 		.4byte	.LFE178-.LFB178
 3111 109a 01       		.uleb128 0x1
 3112 109b 9C       		.byte	0x9c
ARM GAS  C:\Users\Luis\AppData\Local\Temp\ccllzFQu.s 			page 56


 3113 109c 2B       		.uleb128 0x2b
 3114 109d 8B080000 		.4byte	.LASF262
 3115 10a1 05       		.byte	0x5
 3116 10a2 84       		.byte	0x84
 3117 10a3 00000000 		.4byte	.LFB186
 3118 10a7 20000000 		.4byte	.LFE186-.LFB186
 3119 10ab 01       		.uleb128 0x1
 3120 10ac 9C       		.byte	0x9c
 3121 10ad C0100000 		.4byte	0x10c0
 3122 10b1 2C       		.uleb128 0x2c
 3123 10b2 080A0000 		.4byte	.LASF249
 3124 10b6 05       		.byte	0x5
 3125 10b7 84       		.byte	0x84
 3126 10b8 7C070000 		.4byte	0x77c
 3127 10bc 02       		.uleb128 0x2
 3128 10bd 91       		.byte	0x91
 3129 10be 74       		.sleb128 -12
 3130 10bf 00       		.byte	0
 3131 10c0 2D       		.uleb128 0x2d
 3132 10c1 73070000 		.4byte	.LASF263
 3133 10c5 06       		.byte	0x6
 3134 10c6 BD       		.byte	0xbd
 3135 10c7 00000000 		.4byte	.LFB205
 3136 10cb 20000000 		.4byte	.LFE205-.LFB205
 3137 10cf 01       		.uleb128 0x1
 3138 10d0 9C       		.byte	0x9c
 3139 10d1 00110000 		.4byte	0x1100
 3140 10d5 2E       		.uleb128 0x2e
 3141 10d6 65737000 		.ascii	"esp\000"
 3142 10da 06       		.byte	0x6
 3143 10db BD       		.byte	0xbd
 3144 10dc 00110000 		.4byte	0x1100
 3145 10e0 02       		.uleb128 0x2
 3146 10e1 91       		.byte	0x91
 3147 10e2 74       		.sleb128 -12
 3148 10e3 2E       		.uleb128 0x2e
 3149 10e4 656C7000 		.ascii	"elp\000"
 3150 10e8 06       		.byte	0x6
 3151 10e9 BE       		.byte	0xbe
 3152 10ea 14080000 		.4byte	0x814
 3153 10ee 02       		.uleb128 0x2
 3154 10ef 91       		.byte	0x91
 3155 10f0 70       		.sleb128 -16
 3156 10f1 2C       		.uleb128 0x2c
 3157 10f2 08060000 		.4byte	.LASF264
 3158 10f6 06       		.byte	0x6
 3159 10f7 BF       		.byte	0xbf
 3160 10f8 0F010000 		.4byte	0x10f
 3161 10fc 02       		.uleb128 0x2
 3162 10fd 91       		.byte	0x91
 3163 10fe 6C       		.sleb128 -20
 3164 10ff 00       		.byte	0
 3165 1100 0A       		.uleb128 0xa
 3166 1101 04       		.byte	0x4
 3167 1102 33080000 		.4byte	0x833
 3168 1106 2B       		.uleb128 0x2b
 3169 1107 450A0000 		.4byte	.LASF265
ARM GAS  C:\Users\Luis\AppData\Local\Temp\ccllzFQu.s 			page 57


 3170 110b 07       		.byte	0x7
 3171 110c 5F       		.byte	0x5f
 3172 110d 00000000 		.4byte	.LFB261
 3173 1111 2A000000 		.4byte	.LFE261-.LFB261
 3174 1115 01       		.uleb128 0x1
 3175 1116 9C       		.byte	0x9c
 3176 1117 2A110000 		.4byte	0x112a
 3177 111b 2C       		.uleb128 0x2c
 3178 111c 910B0000 		.4byte	.LASF243
 3179 1120 07       		.byte	0x7
 3180 1121 5F       		.byte	0x5f
 3181 1122 020E0000 		.4byte	0xe02
 3182 1126 02       		.uleb128 0x2
 3183 1127 91       		.byte	0x91
 3184 1128 74       		.sleb128 -12
 3185 1129 00       		.byte	0
 3186 112a 2F       		.uleb128 0x2f
 3187 112b 1F040000 		.4byte	.LASF266
 3188 112f 07       		.byte	0x7
 3189 1130 70       		.byte	0x70
 3190 1131 EA0A0000 		.4byte	0xaea
 3191 1135 00000000 		.4byte	.LFB262
 3192 1139 78000000 		.4byte	.LFE262-.LFB262
 3193 113d 01       		.uleb128 0x1
 3194 113e 9C       		.byte	0x9c
 3195 113f 77110000 		.4byte	0x1177
 3196 1143 2C       		.uleb128 0x2c
 3197 1144 910B0000 		.4byte	.LASF243
 3198 1148 07       		.byte	0x7
 3199 1149 70       		.byte	0x70
 3200 114a 020E0000 		.4byte	0xe02
 3201 114e 02       		.uleb128 0x2
 3202 114f 91       		.byte	0x91
 3203 1150 64       		.sleb128 -28
 3204 1151 2E       		.uleb128 0x2e
 3205 1152 7000     		.ascii	"p\000"
 3206 1154 07       		.byte	0x7
 3207 1155 70       		.byte	0x70
 3208 1156 980B0000 		.4byte	0xb98
 3209 115a 02       		.uleb128 0x2
 3210 115b 91       		.byte	0x91
 3211 115c 60       		.sleb128 -32
 3212 115d 30       		.uleb128 0x30
 3213 115e 7100     		.ascii	"q\000"
 3214 1160 07       		.byte	0x7
 3215 1161 71       		.byte	0x71
 3216 1162 980B0000 		.4byte	0xb98
 3217 1166 02       		.uleb128 0x2
 3218 1167 91       		.byte	0x91
 3219 1168 74       		.sleb128 -12
 3220 1169 30       		.uleb128 0x30
 3221 116a 746400   		.ascii	"td\000"
 3222 116d 07       		.byte	0x7
 3223 116e 72       		.byte	0x72
 3224 116f EA090000 		.4byte	0x9ea
 3225 1173 02       		.uleb128 0x2
 3226 1174 91       		.byte	0x91
ARM GAS  C:\Users\Luis\AppData\Local\Temp\ccllzFQu.s 			page 58


 3227 1175 68       		.sleb128 -24
 3228 1176 00       		.byte	0
 3229 1177 2F       		.uleb128 0x2f
 3230 1178 10050000 		.4byte	.LASF267
 3231 117c 07       		.byte	0x7
 3232 117d 8D       		.byte	0x8d
 3233 117e 980B0000 		.4byte	0xb98
 3234 1182 00000000 		.4byte	.LFB263
 3235 1186 AC000000 		.4byte	.LFE263-.LFB263
 3236 118a 01       		.uleb128 0x1
 3237 118b 9C       		.byte	0x9c
 3238 118c D2110000 		.4byte	0x11d2
 3239 1190 2C       		.uleb128 0x2c
 3240 1191 910B0000 		.4byte	.LASF243
 3241 1195 07       		.byte	0x7
 3242 1196 8D       		.byte	0x8d
 3243 1197 020E0000 		.4byte	0xe02
 3244 119b 02       		.uleb128 0x2
 3245 119c 91       		.byte	0x91
 3246 119d 5C       		.sleb128 -36
 3247 119e 30       		.uleb128 0x30
 3248 119f 726400   		.ascii	"rd\000"
 3249 11a2 07       		.byte	0x7
 3250 11a3 8E       		.byte	0x8e
 3251 11a4 270A0000 		.4byte	0xa27
 3252 11a8 02       		.uleb128 0x2
 3253 11a9 91       		.byte	0x91
 3254 11aa 60       		.sleb128 -32
 3255 11ab 30       		.uleb128 0x30
 3256 11ac 7000     		.ascii	"p\000"
 3257 11ae 07       		.byte	0x7
 3258 11af 8F       		.byte	0x8f
 3259 11b0 980B0000 		.4byte	0xb98
 3260 11b4 02       		.uleb128 0x2
 3261 11b5 91       		.byte	0x91
 3262 11b6 6C       		.sleb128 -20
 3263 11b7 30       		.uleb128 0x30
 3264 11b8 7100     		.ascii	"q\000"
 3265 11ba 07       		.byte	0x7
 3266 11bb 8F       		.byte	0x8f
 3267 11bc 980B0000 		.4byte	0xb98
 3268 11c0 02       		.uleb128 0x2
 3269 11c1 91       		.byte	0x91
 3270 11c2 74       		.sleb128 -12
 3271 11c3 30       		.uleb128 0x30
 3272 11c4 6C656E00 		.ascii	"len\000"
 3273 11c8 07       		.byte	0x7
 3274 11c9 90       		.byte	0x90
 3275 11ca 810A0000 		.4byte	0xa81
 3276 11ce 02       		.uleb128 0x2
 3277 11cf 91       		.byte	0x91
 3278 11d0 72       		.sleb128 -14
 3279 11d1 00       		.byte	0
 3280 11d2 2F       		.uleb128 0x2f
 3281 11d3 7B020000 		.4byte	.LASF268
 3282 11d7 07       		.byte	0x7
 3283 11d8 BB       		.byte	0xbb
ARM GAS  C:\Users\Luis\AppData\Local\Temp\ccllzFQu.s 			page 59


 3284 11d9 EA0A0000 		.4byte	0xaea
 3285 11dd 00000000 		.4byte	.LFB264
 3286 11e1 44000000 		.4byte	.LFE264-.LFB264
 3287 11e5 01       		.uleb128 0x1
 3288 11e6 9C       		.byte	0x9c
 3289 11e7 FA110000 		.4byte	0x11fa
 3290 11eb 2C       		.uleb128 0x2c
 3291 11ec 910B0000 		.4byte	.LASF243
 3292 11f0 07       		.byte	0x7
 3293 11f1 BB       		.byte	0xbb
 3294 11f2 020E0000 		.4byte	0xe02
 3295 11f6 02       		.uleb128 0x2
 3296 11f7 91       		.byte	0x91
 3297 11f8 74       		.sleb128 -12
 3298 11f9 00       		.byte	0
 3299 11fa 2D       		.uleb128 0x2d
 3300 11fb 8A050000 		.4byte	.LASF269
 3301 11ff 07       		.byte	0x7
 3302 1200 DE       		.byte	0xde
 3303 1201 00000000 		.4byte	.LFB265
 3304 1205 FC010000 		.4byte	.LFE265-.LFB265
 3305 1209 01       		.uleb128 0x1
 3306 120a 9C       		.byte	0x9c
 3307 120b 25130000 		.4byte	0x1325
 3308 120f 2E       		.uleb128 0x2e
 3309 1210 7000     		.ascii	"p\000"
 3310 1212 07       		.byte	0x7
 3311 1213 DE       		.byte	0xde
 3312 1214 4C030000 		.4byte	0x34c
 3313 1218 03       		.uleb128 0x3
 3314 1219 91       		.byte	0x91
 3315 121a 8C7F     		.sleb128 -116
 3316 121c 30       		.uleb128 0x30
 3317 121d 65767400 		.ascii	"evt\000"
 3318 1221 07       		.byte	0x7
 3319 1222 DF       		.byte	0xdf
 3320 1223 600A0000 		.4byte	0xa60
 3321 1227 02       		.uleb128 0x2
 3322 1228 91       		.byte	0x91
 3323 1229 44       		.sleb128 -60
 3324 122a 30       		.uleb128 0x30
 3325 122b 656C3000 		.ascii	"el0\000"
 3326 122f 07       		.byte	0x7
 3327 1230 E0       		.byte	0xe0
 3328 1231 C0070000 		.4byte	0x7c0
 3329 1235 03       		.uleb128 0x3
 3330 1236 91       		.byte	0x91
 3331 1237 B07F     		.sleb128 -80
 3332 1239 30       		.uleb128 0x30
 3333 123a 656C3100 		.ascii	"el1\000"
 3334 123e 07       		.byte	0x7
 3335 123f E0       		.byte	0xe0
 3336 1240 C0070000 		.4byte	0x7c0
 3337 1244 03       		.uleb128 0x3
 3338 1245 91       		.byte	0x91
 3339 1246 9C7F     		.sleb128 -100
 3340 1248 30       		.uleb128 0x30
ARM GAS  C:\Users\Luis\AppData\Local\Temp\ccllzFQu.s 			page 60


 3341 1249 697000   		.ascii	"ip\000"
 3342 124c 07       		.byte	0x7
 3343 124d E1       		.byte	0xe1
 3344 124e DE0D0000 		.4byte	0xdde
 3345 1252 03       		.uleb128 0x3
 3346 1253 91       		.byte	0x91
 3347 1254 987F     		.sleb128 -104
 3348 1256 31       		.uleb128 0x31
 3349 1257 A2020000 		.4byte	.LASF182
 3350 125b 07       		.byte	0x7
 3351 125c E1       		.byte	0xe1
 3352 125d DE0D0000 		.4byte	0xdde
 3353 1261 03       		.uleb128 0x3
 3354 1262 91       		.byte	0x91
 3355 1263 947F     		.sleb128 -108
 3356 1265 31       		.uleb128 0x31
 3357 1266 CF060000 		.4byte	.LASF181
 3358 126a 07       		.byte	0x7
 3359 126b E1       		.byte	0xe1
 3360 126c DE0D0000 		.4byte	0xdde
 3361 1270 03       		.uleb128 0x3
 3362 1271 91       		.byte	0x91
 3363 1272 907F     		.sleb128 -112
 3364 1274 31       		.uleb128 0x31
 3365 1275 8B090000 		.4byte	.LASF270
 3366 1279 07       		.byte	0x7
 3367 127a E2       		.byte	0xe2
 3368 127b 080E0000 		.4byte	0xe08
 3369 127f 05       		.uleb128 0x5
 3370 1280 03       		.byte	0x3
 3371 1281 00000000 		.4byte	thisif.8700
 3372 1285 31       		.uleb128 0x31
 3373 1286 2D0C0000 		.4byte	.LASF271
 3374 128a 07       		.byte	0x7
 3375 128b E3       		.byte	0xe3
 3376 128c A8090000 		.4byte	0x9a8
 3377 1290 05       		.uleb128 0x5
 3378 1291 03       		.byte	0x3
 3379 1292 00000000 		.4byte	mac_config.8701
 3380 1296 32       		.uleb128 0x32
 3381 1297 1C000000 		.4byte	.LBB10
 3382 129b 3C000000 		.4byte	.LBE10-.LBB10
 3383 129f BE120000 		.4byte	0x12be
 3384 12a3 31       		.uleb128 0x31
 3385 12a4 0E090000 		.4byte	.LASF272
 3386 12a8 07       		.byte	0x7
 3387 12a9 EC       		.byte	0xec
 3388 12aa 25130000 		.4byte	0x1325
 3389 12ae 02       		.uleb128 0x2
 3390 12af 91       		.byte	0x91
 3391 12b0 70       		.sleb128 -16
 3392 12b1 30       		.uleb128 0x30
 3393 12b2 6900     		.ascii	"i\000"
 3394 12b4 07       		.byte	0x7
 3395 12b5 ED       		.byte	0xed
 3396 12b6 37000000 		.4byte	0x37
 3397 12ba 02       		.uleb128 0x2
ARM GAS  C:\Users\Luis\AppData\Local\Temp\ccllzFQu.s 			page 61


 3398 12bb 91       		.byte	0x91
 3399 12bc 74       		.sleb128 -12
 3400 12bd 00       		.byte	0
 3401 12be 33       		.uleb128 0x33
 3402 12bf 1A010000 		.4byte	.LBB11
 3403 12c3 AE000000 		.4byte	.LBE11-.LBB11
 3404 12c7 34       		.uleb128 0x34
 3405 12c8 B3070000 		.4byte	.LASF273
 3406 12cc 07       		.byte	0x7
 3407 12cd 1201     		.2byte	0x112
 3408 12cf 0F010000 		.4byte	0x10f
 3409 12d3 02       		.uleb128 0x2
 3410 12d4 91       		.byte	0x91
 3411 12d5 6C       		.sleb128 -20
 3412 12d6 32       		.uleb128 0x32
 3413 12d7 2E010000 		.4byte	.LBB12
 3414 12db 46000000 		.4byte	.LBE12-.LBB12
 3415 12df F3120000 		.4byte	0x12f3
 3416 12e3 34       		.uleb128 0x34
 3417 12e4 380C0000 		.4byte	.LASF274
 3418 12e8 07       		.byte	0x7
 3419 12e9 1401     		.2byte	0x114
 3420 12eb 44080000 		.4byte	0x844
 3421 12ef 02       		.uleb128 0x2
 3422 12f0 91       		.byte	0x91
 3423 12f1 6B       		.sleb128 -21
 3424 12f2 00       		.byte	0
 3425 12f3 33       		.uleb128 0x33
 3426 12f4 7E010000 		.4byte	.LBB13
 3427 12f8 4A000000 		.4byte	.LBE13-.LBB13
 3428 12fc 35       		.uleb128 0x35
 3429 12fd 7000     		.ascii	"p\000"
 3430 12ff 07       		.byte	0x7
 3431 1300 2701     		.2byte	0x127
 3432 1302 980B0000 		.4byte	0xb98
 3433 1306 02       		.uleb128 0x2
 3434 1307 91       		.byte	0x91
 3435 1308 64       		.sleb128 -28
 3436 1309 33       		.uleb128 0x33
 3437 130a 80010000 		.4byte	.LBB14
 3438 130e 3A000000 		.4byte	.LBE14-.LBB14
 3439 1312 34       		.uleb128 0x34
 3440 1313 53010000 		.4byte	.LASF275
 3441 1317 07       		.byte	0x7
 3442 1318 2901     		.2byte	0x129
 3443 131a 2B130000 		.4byte	0x132b
 3444 131e 02       		.uleb128 0x2
 3445 131f 91       		.byte	0x91
 3446 1320 60       		.sleb128 -32
 3447 1321 00       		.byte	0
 3448 1322 00       		.byte	0
 3449 1323 00       		.byte	0
 3450 1324 00       		.byte	0
 3451 1325 0A       		.uleb128 0xa
 3452 1326 04       		.byte	0x4
 3453 1327 970A0000 		.4byte	0xa97
 3454 132b 0A       		.uleb128 0xa
ARM GAS  C:\Users\Luis\AppData\Local\Temp\ccllzFQu.s 			page 62


 3455 132c 04       		.byte	0x4
 3456 132d 7A0F0000 		.4byte	0xf7a
 3457 1331 36       		.uleb128 0x36
 3458 1332 57040000 		.4byte	.LASF288
 3459 1336 07       		.byte	0x7
 3460 1337 4601     		.2byte	0x146
 3461 1339 00000000 		.4byte	.LFB266
 3462 133d 44000000 		.4byte	.LFE266-.LFB266
 3463 1341 01       		.uleb128 0x1
 3464 1342 9C       		.byte	0x9c
 3465 1343 57130000 		.4byte	0x1357
 3466 1347 37       		.uleb128 0x37
 3467 1348 0E090000 		.4byte	.LASF272
 3468 134c 07       		.byte	0x7
 3469 134d 4601     		.2byte	0x146
 3470 134f 57130000 		.4byte	0x1357
 3471 1353 02       		.uleb128 0x2
 3472 1354 91       		.byte	0x91
 3473 1355 74       		.sleb128 -12
 3474 1356 00       		.byte	0
 3475 1357 0A       		.uleb128 0xa
 3476 1358 04       		.byte	0x4
 3477 1359 5D130000 		.4byte	0x135d
 3478 135d 19       		.uleb128 0x19
 3479 135e D40A0000 		.4byte	0xad4
 3480 1362 15       		.uleb128 0x15
 3481 1363 CD040000 		.4byte	0x4cd
 3482 1367 72130000 		.4byte	0x1372
 3483 136b 16       		.uleb128 0x16
 3484 136c BB040000 		.4byte	0x4bb
 3485 1370 65       		.byte	0x65
 3486 1371 00       		.byte	0
 3487 1372 31       		.uleb128 0x31
 3488 1373 CB000000 		.4byte	.LASF276
 3489 1377 07       		.byte	0x7
 3490 1378 5A       		.byte	0x5a
 3491 1379 62130000 		.4byte	0x1362
 3492 137d 05       		.uleb128 0x5
 3493 137e 03       		.byte	0x3
 3494 137f 00000000 		.4byte	wa_lwip_thread
 3495 1383 38       		.uleb128 0x38
 3496 1384 55090000 		.4byte	.LASF277
 3497 1388 21       		.byte	0x21
 3498 1389 A706     		.2byte	0x6a7
 3499 138b B8000000 		.4byte	0xb8
 3500 138f 39       		.uleb128 0x39
 3501 1390 636800   		.ascii	"ch\000"
 3502 1393 0C       		.byte	0xc
 3503 1394 0902     		.2byte	0x209
 3504 1396 43040000 		.4byte	0x443
 3505 139a 38       		.uleb128 0x38
 3506 139b 1E060000 		.4byte	.LASF278
 3507 139f 14       		.byte	0x14
 3508 13a0 4401     		.2byte	0x144
 3509 13a2 71080000 		.4byte	0x871
 3510 13a6 3A       		.uleb128 0x3a
 3511 13a7 C1020000 		.4byte	.LASF279
ARM GAS  C:\Users\Luis\AppData\Local\Temp\ccllzFQu.s 			page 63


 3512 13ab 1C       		.byte	0x1c
 3513 13ac 95       		.byte	0x95
 3514 13ad 480D0000 		.4byte	0xd48
 3515 13b1 3B       		.uleb128 0x3b
 3516 13b2 120C0000 		.4byte	.LASF280
 3517 13b6 07       		.byte	0x7
 3518 13b7 55       		.byte	0x55
 3519 13b8 64020000 		.4byte	0x264
 3520 13bc 05       		.uleb128 0x5
 3521 13bd 03       		.byte	0x3
 3522 13be 00000000 		.4byte	lwip_trp
 3523 13c2 00       		.byte	0
 3524              		.section	.debug_abbrev,"",%progbits
 3525              	.Ldebug_abbrev0:
 3526 0000 01       		.uleb128 0x1
 3527 0001 11       		.uleb128 0x11
 3528 0002 01       		.byte	0x1
 3529 0003 25       		.uleb128 0x25
 3530 0004 0E       		.uleb128 0xe
 3531 0005 13       		.uleb128 0x13
 3532 0006 0B       		.uleb128 0xb
 3533 0007 03       		.uleb128 0x3
 3534 0008 0E       		.uleb128 0xe
 3535 0009 1B       		.uleb128 0x1b
 3536 000a 0E       		.uleb128 0xe
 3537 000b 55       		.uleb128 0x55
 3538 000c 17       		.uleb128 0x17
 3539 000d 11       		.uleb128 0x11
 3540 000e 01       		.uleb128 0x1
 3541 000f 10       		.uleb128 0x10
 3542 0010 17       		.uleb128 0x17
 3543 0011 00       		.byte	0
 3544 0012 00       		.byte	0
 3545 0013 02       		.uleb128 0x2
 3546 0014 24       		.uleb128 0x24
 3547 0015 00       		.byte	0
 3548 0016 0B       		.uleb128 0xb
 3549 0017 0B       		.uleb128 0xb
 3550 0018 3E       		.uleb128 0x3e
 3551 0019 0B       		.uleb128 0xb
 3552 001a 03       		.uleb128 0x3
 3553 001b 08       		.uleb128 0x8
 3554 001c 00       		.byte	0
 3555 001d 00       		.byte	0
 3556 001e 03       		.uleb128 0x3
 3557 001f 16       		.uleb128 0x16
 3558 0020 00       		.byte	0
 3559 0021 03       		.uleb128 0x3
 3560 0022 0E       		.uleb128 0xe
 3561 0023 3A       		.uleb128 0x3a
 3562 0024 0B       		.uleb128 0xb
 3563 0025 3B       		.uleb128 0x3b
 3564 0026 0B       		.uleb128 0xb
 3565 0027 49       		.uleb128 0x49
 3566 0028 13       		.uleb128 0x13
 3567 0029 00       		.byte	0
 3568 002a 00       		.byte	0
ARM GAS  C:\Users\Luis\AppData\Local\Temp\ccllzFQu.s 			page 64


 3569 002b 04       		.uleb128 0x4
 3570 002c 24       		.uleb128 0x24
 3571 002d 00       		.byte	0
 3572 002e 0B       		.uleb128 0xb
 3573 002f 0B       		.uleb128 0xb
 3574 0030 3E       		.uleb128 0x3e
 3575 0031 0B       		.uleb128 0xb
 3576 0032 03       		.uleb128 0x3
 3577 0033 0E       		.uleb128 0xe
 3578 0034 00       		.byte	0
 3579 0035 00       		.byte	0
 3580 0036 05       		.uleb128 0x5
 3581 0037 35       		.uleb128 0x35
 3582 0038 00       		.byte	0
 3583 0039 49       		.uleb128 0x49
 3584 003a 13       		.uleb128 0x13
 3585 003b 00       		.byte	0
 3586 003c 00       		.byte	0
 3587 003d 06       		.uleb128 0x6
 3588 003e 13       		.uleb128 0x13
 3589 003f 01       		.byte	0x1
 3590 0040 03       		.uleb128 0x3
 3591 0041 0E       		.uleb128 0xe
 3592 0042 0B       		.uleb128 0xb
 3593 0043 0B       		.uleb128 0xb
 3594 0044 3A       		.uleb128 0x3a
 3595 0045 0B       		.uleb128 0xb
 3596 0046 3B       		.uleb128 0x3b
 3597 0047 0B       		.uleb128 0xb
 3598 0048 01       		.uleb128 0x1
 3599 0049 13       		.uleb128 0x13
 3600 004a 00       		.byte	0
 3601 004b 00       		.byte	0
 3602 004c 07       		.uleb128 0x7
 3603 004d 0D       		.uleb128 0xd
 3604 004e 00       		.byte	0
 3605 004f 03       		.uleb128 0x3
 3606 0050 0E       		.uleb128 0xe
 3607 0051 3A       		.uleb128 0x3a
 3608 0052 0B       		.uleb128 0xb
 3609 0053 3B       		.uleb128 0x3b
 3610 0054 0B       		.uleb128 0xb
 3611 0055 49       		.uleb128 0x49
 3612 0056 13       		.uleb128 0x13
 3613 0057 38       		.uleb128 0x38
 3614 0058 0B       		.uleb128 0xb
 3615 0059 00       		.byte	0
 3616 005a 00       		.byte	0
 3617 005b 08       		.uleb128 0x8
 3618 005c 0D       		.uleb128 0xd
 3619 005d 00       		.byte	0
 3620 005e 03       		.uleb128 0x3
 3621 005f 08       		.uleb128 0x8
 3622 0060 3A       		.uleb128 0x3a
 3623 0061 0B       		.uleb128 0xb
 3624 0062 3B       		.uleb128 0x3b
 3625 0063 05       		.uleb128 0x5
ARM GAS  C:\Users\Luis\AppData\Local\Temp\ccllzFQu.s 			page 65


 3626 0064 49       		.uleb128 0x49
 3627 0065 13       		.uleb128 0x13
 3628 0066 38       		.uleb128 0x38
 3629 0067 0B       		.uleb128 0xb
 3630 0068 00       		.byte	0
 3631 0069 00       		.byte	0
 3632 006a 09       		.uleb128 0x9
 3633 006b 0D       		.uleb128 0xd
 3634 006c 00       		.byte	0
 3635 006d 03       		.uleb128 0x3
 3636 006e 0E       		.uleb128 0xe
 3637 006f 3A       		.uleb128 0x3a
 3638 0070 0B       		.uleb128 0xb
 3639 0071 3B       		.uleb128 0x3b
 3640 0072 05       		.uleb128 0x5
 3641 0073 49       		.uleb128 0x49
 3642 0074 13       		.uleb128 0x13
 3643 0075 38       		.uleb128 0x38
 3644 0076 0B       		.uleb128 0xb
 3645 0077 00       		.byte	0
 3646 0078 00       		.byte	0
 3647 0079 0A       		.uleb128 0xa
 3648 007a 0F       		.uleb128 0xf
 3649 007b 00       		.byte	0
 3650 007c 0B       		.uleb128 0xb
 3651 007d 0B       		.uleb128 0xb
 3652 007e 49       		.uleb128 0x49
 3653 007f 13       		.uleb128 0x13
 3654 0080 00       		.byte	0
 3655 0081 00       		.byte	0
 3656 0082 0B       		.uleb128 0xb
 3657 0083 13       		.uleb128 0x13
 3658 0084 01       		.byte	0x1
 3659 0085 03       		.uleb128 0x3
 3660 0086 0E       		.uleb128 0xe
 3661 0087 0B       		.uleb128 0xb
 3662 0088 0B       		.uleb128 0xb
 3663 0089 3A       		.uleb128 0x3a
 3664 008a 0B       		.uleb128 0xb
 3665 008b 3B       		.uleb128 0x3b
 3666 008c 05       		.uleb128 0x5
 3667 008d 01       		.uleb128 0x1
 3668 008e 13       		.uleb128 0x13
 3669 008f 00       		.byte	0
 3670 0090 00       		.byte	0
 3671 0091 0C       		.uleb128 0xc
 3672 0092 15       		.uleb128 0x15
 3673 0093 01       		.byte	0x1
 3674 0094 27       		.uleb128 0x27
 3675 0095 19       		.uleb128 0x19
 3676 0096 01       		.uleb128 0x1
 3677 0097 13       		.uleb128 0x13
 3678 0098 00       		.byte	0
 3679 0099 00       		.byte	0
 3680 009a 0D       		.uleb128 0xd
 3681 009b 05       		.uleb128 0x5
 3682 009c 00       		.byte	0
ARM GAS  C:\Users\Luis\AppData\Local\Temp\ccllzFQu.s 			page 66


 3683 009d 49       		.uleb128 0x49
 3684 009e 13       		.uleb128 0x13
 3685 009f 00       		.byte	0
 3686 00a0 00       		.byte	0
 3687 00a1 0E       		.uleb128 0xe
 3688 00a2 0F       		.uleb128 0xf
 3689 00a3 00       		.byte	0
 3690 00a4 0B       		.uleb128 0xb
 3691 00a5 0B       		.uleb128 0xb
 3692 00a6 00       		.byte	0
 3693 00a7 00       		.byte	0
 3694 00a8 0F       		.uleb128 0xf
 3695 00a9 13       		.uleb128 0x13
 3696 00aa 01       		.byte	0x1
 3697 00ab 03       		.uleb128 0x3
 3698 00ac 0E       		.uleb128 0xe
 3699 00ad 0B       		.uleb128 0xb
 3700 00ae 05       		.uleb128 0x5
 3701 00af 3A       		.uleb128 0x3a
 3702 00b0 0B       		.uleb128 0xb
 3703 00b1 3B       		.uleb128 0x3b
 3704 00b2 05       		.uleb128 0x5
 3705 00b3 01       		.uleb128 0x1
 3706 00b4 13       		.uleb128 0x13
 3707 00b5 00       		.byte	0
 3708 00b6 00       		.byte	0
 3709 00b7 10       		.uleb128 0x10
 3710 00b8 0D       		.uleb128 0xd
 3711 00b9 00       		.byte	0
 3712 00ba 03       		.uleb128 0x3
 3713 00bb 0E       		.uleb128 0xe
 3714 00bc 3A       		.uleb128 0x3a
 3715 00bd 0B       		.uleb128 0xb
 3716 00be 3B       		.uleb128 0x3b
 3717 00bf 05       		.uleb128 0x5
 3718 00c0 49       		.uleb128 0x49
 3719 00c1 13       		.uleb128 0x13
 3720 00c2 38       		.uleb128 0x38
 3721 00c3 05       		.uleb128 0x5
 3722 00c4 00       		.byte	0
 3723 00c5 00       		.byte	0
 3724 00c6 11       		.uleb128 0x11
 3725 00c7 0D       		.uleb128 0xd
 3726 00c8 00       		.byte	0
 3727 00c9 03       		.uleb128 0x3
 3728 00ca 08       		.uleb128 0x8
 3729 00cb 3A       		.uleb128 0x3a
 3730 00cc 0B       		.uleb128 0xb
 3731 00cd 3B       		.uleb128 0x3b
 3732 00ce 05       		.uleb128 0x5
 3733 00cf 49       		.uleb128 0x49
 3734 00d0 13       		.uleb128 0x13
 3735 00d1 38       		.uleb128 0x38
 3736 00d2 05       		.uleb128 0x5
 3737 00d3 00       		.byte	0
 3738 00d4 00       		.byte	0
 3739 00d5 12       		.uleb128 0x12
ARM GAS  C:\Users\Luis\AppData\Local\Temp\ccllzFQu.s 			page 67


 3740 00d6 0D       		.uleb128 0xd
 3741 00d7 00       		.byte	0
 3742 00d8 03       		.uleb128 0x3
 3743 00d9 08       		.uleb128 0x8
 3744 00da 3A       		.uleb128 0x3a
 3745 00db 0B       		.uleb128 0xb
 3746 00dc 3B       		.uleb128 0x3b
 3747 00dd 0B       		.uleb128 0xb
 3748 00de 49       		.uleb128 0x49
 3749 00df 13       		.uleb128 0x13
 3750 00e0 38       		.uleb128 0x38
 3751 00e1 0B       		.uleb128 0xb
 3752 00e2 00       		.byte	0
 3753 00e3 00       		.byte	0
 3754 00e4 13       		.uleb128 0x13
 3755 00e5 13       		.uleb128 0x13
 3756 00e6 01       		.byte	0x1
 3757 00e7 0B       		.uleb128 0xb
 3758 00e8 0B       		.uleb128 0xb
 3759 00e9 3A       		.uleb128 0x3a
 3760 00ea 0B       		.uleb128 0xb
 3761 00eb 3B       		.uleb128 0x3b
 3762 00ec 0B       		.uleb128 0xb
 3763 00ed 01       		.uleb128 0x1
 3764 00ee 13       		.uleb128 0x13
 3765 00ef 00       		.byte	0
 3766 00f0 00       		.byte	0
 3767 00f1 14       		.uleb128 0x14
 3768 00f2 13       		.uleb128 0x13
 3769 00f3 01       		.byte	0x1
 3770 00f4 0B       		.uleb128 0xb
 3771 00f5 05       		.uleb128 0x5
 3772 00f6 3A       		.uleb128 0x3a
 3773 00f7 0B       		.uleb128 0xb
 3774 00f8 3B       		.uleb128 0x3b
 3775 00f9 0B       		.uleb128 0xb
 3776 00fa 01       		.uleb128 0x1
 3777 00fb 13       		.uleb128 0x13
 3778 00fc 00       		.byte	0
 3779 00fd 00       		.byte	0
 3780 00fe 15       		.uleb128 0x15
 3781 00ff 01       		.uleb128 0x1
 3782 0100 01       		.byte	0x1
 3783 0101 49       		.uleb128 0x49
 3784 0102 13       		.uleb128 0x13
 3785 0103 01       		.uleb128 0x1
 3786 0104 13       		.uleb128 0x13
 3787 0105 00       		.byte	0
 3788 0106 00       		.byte	0
 3789 0107 16       		.uleb128 0x16
 3790 0108 21       		.uleb128 0x21
 3791 0109 00       		.byte	0
 3792 010a 49       		.uleb128 0x49
 3793 010b 13       		.uleb128 0x13
 3794 010c 2F       		.uleb128 0x2f
 3795 010d 0B       		.uleb128 0xb
 3796 010e 00       		.byte	0
ARM GAS  C:\Users\Luis\AppData\Local\Temp\ccllzFQu.s 			page 68


 3797 010f 00       		.byte	0
 3798 0110 17       		.uleb128 0x17
 3799 0111 17       		.uleb128 0x17
 3800 0112 01       		.byte	0x1
 3801 0113 0B       		.uleb128 0xb
 3802 0114 0B       		.uleb128 0xb
 3803 0115 3A       		.uleb128 0x3a
 3804 0116 0B       		.uleb128 0xb
 3805 0117 3B       		.uleb128 0x3b
 3806 0118 0B       		.uleb128 0xb
 3807 0119 01       		.uleb128 0x1
 3808 011a 13       		.uleb128 0x13
 3809 011b 00       		.byte	0
 3810 011c 00       		.byte	0
 3811 011d 18       		.uleb128 0x18
 3812 011e 0D       		.uleb128 0xd
 3813 011f 00       		.byte	0
 3814 0120 03       		.uleb128 0x3
 3815 0121 0E       		.uleb128 0xe
 3816 0122 3A       		.uleb128 0x3a
 3817 0123 0B       		.uleb128 0xb
 3818 0124 3B       		.uleb128 0x3b
 3819 0125 05       		.uleb128 0x5
 3820 0126 49       		.uleb128 0x49
 3821 0127 13       		.uleb128 0x13
 3822 0128 00       		.byte	0
 3823 0129 00       		.byte	0
 3824 012a 19       		.uleb128 0x19
 3825 012b 26       		.uleb128 0x26
 3826 012c 00       		.byte	0
 3827 012d 49       		.uleb128 0x49
 3828 012e 13       		.uleb128 0x13
 3829 012f 00       		.byte	0
 3830 0130 00       		.byte	0
 3831 0131 1A       		.uleb128 0x1a
 3832 0132 04       		.uleb128 0x4
 3833 0133 01       		.byte	0x1
 3834 0134 0B       		.uleb128 0xb
 3835 0135 0B       		.uleb128 0xb
 3836 0136 3A       		.uleb128 0x3a
 3837 0137 0B       		.uleb128 0xb
 3838 0138 3B       		.uleb128 0x3b
 3839 0139 0B       		.uleb128 0xb
 3840 013a 01       		.uleb128 0x1
 3841 013b 13       		.uleb128 0x13
 3842 013c 00       		.byte	0
 3843 013d 00       		.byte	0
 3844 013e 1B       		.uleb128 0x1b
 3845 013f 28       		.uleb128 0x28
 3846 0140 00       		.byte	0
 3847 0141 03       		.uleb128 0x3
 3848 0142 0E       		.uleb128 0xe
 3849 0143 1C       		.uleb128 0x1c
 3850 0144 0D       		.uleb128 0xd
 3851 0145 00       		.byte	0
 3852 0146 00       		.byte	0
 3853 0147 1C       		.uleb128 0x1c
ARM GAS  C:\Users\Luis\AppData\Local\Temp\ccllzFQu.s 			page 69


 3854 0148 13       		.uleb128 0x13
 3855 0149 01       		.byte	0x1
 3856 014a 0B       		.uleb128 0xb
 3857 014b 0B       		.uleb128 0xb
 3858 014c 3A       		.uleb128 0x3a
 3859 014d 0B       		.uleb128 0xb
 3860 014e 3B       		.uleb128 0x3b
 3861 014f 05       		.uleb128 0x5
 3862 0150 01       		.uleb128 0x1
 3863 0151 13       		.uleb128 0x13
 3864 0152 00       		.byte	0
 3865 0153 00       		.byte	0
 3866 0154 1D       		.uleb128 0x1d
 3867 0155 16       		.uleb128 0x16
 3868 0156 00       		.byte	0
 3869 0157 03       		.uleb128 0x3
 3870 0158 0E       		.uleb128 0xe
 3871 0159 3A       		.uleb128 0x3a
 3872 015a 0B       		.uleb128 0xb
 3873 015b 3B       		.uleb128 0x3b
 3874 015c 05       		.uleb128 0x5
 3875 015d 49       		.uleb128 0x49
 3876 015e 13       		.uleb128 0x13
 3877 015f 00       		.byte	0
 3878 0160 00       		.byte	0
 3879 0161 1E       		.uleb128 0x1e
 3880 0162 13       		.uleb128 0x13
 3881 0163 01       		.byte	0x1
 3882 0164 03       		.uleb128 0x3
 3883 0165 0E       		.uleb128 0xe
 3884 0166 0B       		.uleb128 0xb
 3885 0167 05       		.uleb128 0x5
 3886 0168 3A       		.uleb128 0x3a
 3887 0169 0B       		.uleb128 0xb
 3888 016a 3B       		.uleb128 0x3b
 3889 016b 0B       		.uleb128 0xb
 3890 016c 01       		.uleb128 0x1
 3891 016d 13       		.uleb128 0x13
 3892 016e 00       		.byte	0
 3893 016f 00       		.byte	0
 3894 0170 1F       		.uleb128 0x1f
 3895 0171 0D       		.uleb128 0xd
 3896 0172 00       		.byte	0
 3897 0173 03       		.uleb128 0x3
 3898 0174 08       		.uleb128 0x8
 3899 0175 3A       		.uleb128 0x3a
 3900 0176 0B       		.uleb128 0xb
 3901 0177 3B       		.uleb128 0x3b
 3902 0178 0B       		.uleb128 0xb
 3903 0179 49       		.uleb128 0x49
 3904 017a 13       		.uleb128 0x13
 3905 017b 38       		.uleb128 0x38
 3906 017c 05       		.uleb128 0x5
 3907 017d 00       		.byte	0
 3908 017e 00       		.byte	0
 3909 017f 20       		.uleb128 0x20
 3910 0180 15       		.uleb128 0x15
ARM GAS  C:\Users\Luis\AppData\Local\Temp\ccllzFQu.s 			page 70


 3911 0181 01       		.byte	0x1
 3912 0182 27       		.uleb128 0x27
 3913 0183 19       		.uleb128 0x19
 3914 0184 49       		.uleb128 0x49
 3915 0185 13       		.uleb128 0x13
 3916 0186 01       		.uleb128 0x1
 3917 0187 13       		.uleb128 0x13
 3918 0188 00       		.byte	0
 3919 0189 00       		.byte	0
 3920 018a 21       		.uleb128 0x21
 3921 018b 2E       		.uleb128 0x2e
 3922 018c 01       		.byte	0x1
 3923 018d 03       		.uleb128 0x3
 3924 018e 0E       		.uleb128 0xe
 3925 018f 3A       		.uleb128 0x3a
 3926 0190 0B       		.uleb128 0xb
 3927 0191 3B       		.uleb128 0x3b
 3928 0192 05       		.uleb128 0x5
 3929 0193 27       		.uleb128 0x27
 3930 0194 19       		.uleb128 0x19
 3931 0195 20       		.uleb128 0x20
 3932 0196 0B       		.uleb128 0xb
 3933 0197 01       		.uleb128 0x1
 3934 0198 13       		.uleb128 0x13
 3935 0199 00       		.byte	0
 3936 019a 00       		.byte	0
 3937 019b 22       		.uleb128 0x22
 3938 019c 05       		.uleb128 0x5
 3939 019d 00       		.byte	0
 3940 019e 03       		.uleb128 0x3
 3941 019f 0E       		.uleb128 0xe
 3942 01a0 3A       		.uleb128 0x3a
 3943 01a1 0B       		.uleb128 0xb
 3944 01a2 3B       		.uleb128 0x3b
 3945 01a3 05       		.uleb128 0x5
 3946 01a4 49       		.uleb128 0x49
 3947 01a5 13       		.uleb128 0x13
 3948 01a6 00       		.byte	0
 3949 01a7 00       		.byte	0
 3950 01a8 23       		.uleb128 0x23
 3951 01a9 2E       		.uleb128 0x2e
 3952 01aa 01       		.byte	0x1
 3953 01ab 03       		.uleb128 0x3
 3954 01ac 0E       		.uleb128 0xe
 3955 01ad 3A       		.uleb128 0x3a
 3956 01ae 0B       		.uleb128 0xb
 3957 01af 3B       		.uleb128 0x3b
 3958 01b0 05       		.uleb128 0x5
 3959 01b1 27       		.uleb128 0x27
 3960 01b2 19       		.uleb128 0x19
 3961 01b3 11       		.uleb128 0x11
 3962 01b4 01       		.uleb128 0x1
 3963 01b5 12       		.uleb128 0x12
 3964 01b6 06       		.uleb128 0x6
 3965 01b7 40       		.uleb128 0x40
 3966 01b8 18       		.uleb128 0x18
 3967 01b9 9742     		.uleb128 0x2117
ARM GAS  C:\Users\Luis\AppData\Local\Temp\ccllzFQu.s 			page 71


 3968 01bb 19       		.uleb128 0x19
 3969 01bc 01       		.uleb128 0x1
 3970 01bd 13       		.uleb128 0x13
 3971 01be 00       		.byte	0
 3972 01bf 00       		.byte	0
 3973 01c0 24       		.uleb128 0x24
 3974 01c1 1D       		.uleb128 0x1d
 3975 01c2 01       		.byte	0x1
 3976 01c3 31       		.uleb128 0x31
 3977 01c4 13       		.uleb128 0x13
 3978 01c5 11       		.uleb128 0x11
 3979 01c6 01       		.uleb128 0x1
 3980 01c7 12       		.uleb128 0x12
 3981 01c8 06       		.uleb128 0x6
 3982 01c9 58       		.uleb128 0x58
 3983 01ca 0B       		.uleb128 0xb
 3984 01cb 59       		.uleb128 0x59
 3985 01cc 05       		.uleb128 0x5
 3986 01cd 00       		.byte	0
 3987 01ce 00       		.byte	0
 3988 01cf 25       		.uleb128 0x25
 3989 01d0 05       		.uleb128 0x5
 3990 01d1 00       		.byte	0
 3991 01d2 31       		.uleb128 0x31
 3992 01d3 13       		.uleb128 0x13
 3993 01d4 02       		.uleb128 0x2
 3994 01d5 18       		.uleb128 0x18
 3995 01d6 00       		.byte	0
 3996 01d7 00       		.byte	0
 3997 01d8 26       		.uleb128 0x26
 3998 01d9 2E       		.uleb128 0x2e
 3999 01da 00       		.byte	0
 4000 01db 03       		.uleb128 0x3
 4001 01dc 0E       		.uleb128 0xe
 4002 01dd 3A       		.uleb128 0x3a
 4003 01de 0B       		.uleb128 0xb
 4004 01df 3B       		.uleb128 0x3b
 4005 01e0 05       		.uleb128 0x5
 4006 01e1 27       		.uleb128 0x27
 4007 01e2 19       		.uleb128 0x19
 4008 01e3 11       		.uleb128 0x11
 4009 01e4 01       		.uleb128 0x1
 4010 01e5 12       		.uleb128 0x12
 4011 01e6 06       		.uleb128 0x6
 4012 01e7 40       		.uleb128 0x40
 4013 01e8 18       		.uleb128 0x18
 4014 01e9 9642     		.uleb128 0x2116
 4015 01eb 19       		.uleb128 0x19
 4016 01ec 00       		.byte	0
 4017 01ed 00       		.byte	0
 4018 01ee 27       		.uleb128 0x27
 4019 01ef 2E       		.uleb128 0x2e
 4020 01f0 01       		.byte	0x1
 4021 01f1 03       		.uleb128 0x3
 4022 01f2 0E       		.uleb128 0xe
 4023 01f3 3A       		.uleb128 0x3a
 4024 01f4 0B       		.uleb128 0xb
ARM GAS  C:\Users\Luis\AppData\Local\Temp\ccllzFQu.s 			page 72


 4025 01f5 3B       		.uleb128 0x3b
 4026 01f6 05       		.uleb128 0x5
 4027 01f7 27       		.uleb128 0x27
 4028 01f8 19       		.uleb128 0x19
 4029 01f9 11       		.uleb128 0x11
 4030 01fa 01       		.uleb128 0x1
 4031 01fb 12       		.uleb128 0x12
 4032 01fc 06       		.uleb128 0x6
 4033 01fd 40       		.uleb128 0x40
 4034 01fe 18       		.uleb128 0x18
 4035 01ff 9642     		.uleb128 0x2116
 4036 0201 19       		.uleb128 0x19
 4037 0202 01       		.uleb128 0x1
 4038 0203 13       		.uleb128 0x13
 4039 0204 00       		.byte	0
 4040 0205 00       		.byte	0
 4041 0206 28       		.uleb128 0x28
 4042 0207 34       		.uleb128 0x34
 4043 0208 00       		.byte	0
 4044 0209 03       		.uleb128 0x3
 4045 020a 0E       		.uleb128 0xe
 4046 020b 49       		.uleb128 0x49
 4047 020c 13       		.uleb128 0x13
 4048 020d 34       		.uleb128 0x34
 4049 020e 19       		.uleb128 0x19
 4050 020f 02       		.uleb128 0x2
 4051 0210 18       		.uleb128 0x18
 4052 0211 00       		.byte	0
 4053 0212 00       		.byte	0
 4054 0213 29       		.uleb128 0x29
 4055 0214 2E       		.uleb128 0x2e
 4056 0215 00       		.byte	0
 4057 0216 03       		.uleb128 0x3
 4058 0217 0E       		.uleb128 0xe
 4059 0218 3A       		.uleb128 0x3a
 4060 0219 0B       		.uleb128 0xb
 4061 021a 3B       		.uleb128 0x3b
 4062 021b 0B       		.uleb128 0xb
 4063 021c 27       		.uleb128 0x27
 4064 021d 19       		.uleb128 0x19
 4065 021e 49       		.uleb128 0x49
 4066 021f 13       		.uleb128 0x13
 4067 0220 11       		.uleb128 0x11
 4068 0221 01       		.uleb128 0x1
 4069 0222 12       		.uleb128 0x12
 4070 0223 06       		.uleb128 0x6
 4071 0224 40       		.uleb128 0x40
 4072 0225 18       		.uleb128 0x18
 4073 0226 9742     		.uleb128 0x2117
 4074 0228 19       		.uleb128 0x19
 4075 0229 00       		.byte	0
 4076 022a 00       		.byte	0
 4077 022b 2A       		.uleb128 0x2a
 4078 022c 2E       		.uleb128 0x2e
 4079 022d 00       		.byte	0
 4080 022e 03       		.uleb128 0x3
 4081 022f 0E       		.uleb128 0xe
ARM GAS  C:\Users\Luis\AppData\Local\Temp\ccllzFQu.s 			page 73


 4082 0230 3A       		.uleb128 0x3a
 4083 0231 0B       		.uleb128 0xb
 4084 0232 3B       		.uleb128 0x3b
 4085 0233 0B       		.uleb128 0xb
 4086 0234 27       		.uleb128 0x27
 4087 0235 19       		.uleb128 0x19
 4088 0236 49       		.uleb128 0x49
 4089 0237 13       		.uleb128 0x13
 4090 0238 11       		.uleb128 0x11
 4091 0239 01       		.uleb128 0x1
 4092 023a 12       		.uleb128 0x12
 4093 023b 06       		.uleb128 0x6
 4094 023c 40       		.uleb128 0x40
 4095 023d 18       		.uleb128 0x18
 4096 023e 9642     		.uleb128 0x2116
 4097 0240 19       		.uleb128 0x19
 4098 0241 00       		.byte	0
 4099 0242 00       		.byte	0
 4100 0243 2B       		.uleb128 0x2b
 4101 0244 2E       		.uleb128 0x2e
 4102 0245 01       		.byte	0x1
 4103 0246 03       		.uleb128 0x3
 4104 0247 0E       		.uleb128 0xe
 4105 0248 3A       		.uleb128 0x3a
 4106 0249 0B       		.uleb128 0xb
 4107 024a 3B       		.uleb128 0x3b
 4108 024b 0B       		.uleb128 0xb
 4109 024c 27       		.uleb128 0x27
 4110 024d 19       		.uleb128 0x19
 4111 024e 11       		.uleb128 0x11
 4112 024f 01       		.uleb128 0x1
 4113 0250 12       		.uleb128 0x12
 4114 0251 06       		.uleb128 0x6
 4115 0252 40       		.uleb128 0x40
 4116 0253 18       		.uleb128 0x18
 4117 0254 9742     		.uleb128 0x2117
 4118 0256 19       		.uleb128 0x19
 4119 0257 01       		.uleb128 0x1
 4120 0258 13       		.uleb128 0x13
 4121 0259 00       		.byte	0
 4122 025a 00       		.byte	0
 4123 025b 2C       		.uleb128 0x2c
 4124 025c 05       		.uleb128 0x5
 4125 025d 00       		.byte	0
 4126 025e 03       		.uleb128 0x3
 4127 025f 0E       		.uleb128 0xe
 4128 0260 3A       		.uleb128 0x3a
 4129 0261 0B       		.uleb128 0xb
 4130 0262 3B       		.uleb128 0x3b
 4131 0263 0B       		.uleb128 0xb
 4132 0264 49       		.uleb128 0x49
 4133 0265 13       		.uleb128 0x13
 4134 0266 02       		.uleb128 0x2
 4135 0267 18       		.uleb128 0x18
 4136 0268 00       		.byte	0
 4137 0269 00       		.byte	0
 4138 026a 2D       		.uleb128 0x2d
ARM GAS  C:\Users\Luis\AppData\Local\Temp\ccllzFQu.s 			page 74


 4139 026b 2E       		.uleb128 0x2e
 4140 026c 01       		.byte	0x1
 4141 026d 03       		.uleb128 0x3
 4142 026e 0E       		.uleb128 0xe
 4143 026f 3A       		.uleb128 0x3a
 4144 0270 0B       		.uleb128 0xb
 4145 0271 3B       		.uleb128 0x3b
 4146 0272 0B       		.uleb128 0xb
 4147 0273 27       		.uleb128 0x27
 4148 0274 19       		.uleb128 0x19
 4149 0275 11       		.uleb128 0x11
 4150 0276 01       		.uleb128 0x1
 4151 0277 12       		.uleb128 0x12
 4152 0278 06       		.uleb128 0x6
 4153 0279 40       		.uleb128 0x40
 4154 027a 18       		.uleb128 0x18
 4155 027b 9642     		.uleb128 0x2116
 4156 027d 19       		.uleb128 0x19
 4157 027e 01       		.uleb128 0x1
 4158 027f 13       		.uleb128 0x13
 4159 0280 00       		.byte	0
 4160 0281 00       		.byte	0
 4161 0282 2E       		.uleb128 0x2e
 4162 0283 05       		.uleb128 0x5
 4163 0284 00       		.byte	0
 4164 0285 03       		.uleb128 0x3
 4165 0286 08       		.uleb128 0x8
 4166 0287 3A       		.uleb128 0x3a
 4167 0288 0B       		.uleb128 0xb
 4168 0289 3B       		.uleb128 0x3b
 4169 028a 0B       		.uleb128 0xb
 4170 028b 49       		.uleb128 0x49
 4171 028c 13       		.uleb128 0x13
 4172 028d 02       		.uleb128 0x2
 4173 028e 18       		.uleb128 0x18
 4174 028f 00       		.byte	0
 4175 0290 00       		.byte	0
 4176 0291 2F       		.uleb128 0x2f
 4177 0292 2E       		.uleb128 0x2e
 4178 0293 01       		.byte	0x1
 4179 0294 03       		.uleb128 0x3
 4180 0295 0E       		.uleb128 0xe
 4181 0296 3A       		.uleb128 0x3a
 4182 0297 0B       		.uleb128 0xb
 4183 0298 3B       		.uleb128 0x3b
 4184 0299 0B       		.uleb128 0xb
 4185 029a 27       		.uleb128 0x27
 4186 029b 19       		.uleb128 0x19
 4187 029c 49       		.uleb128 0x49
 4188 029d 13       		.uleb128 0x13
 4189 029e 11       		.uleb128 0x11
 4190 029f 01       		.uleb128 0x1
 4191 02a0 12       		.uleb128 0x12
 4192 02a1 06       		.uleb128 0x6
 4193 02a2 40       		.uleb128 0x40
 4194 02a3 18       		.uleb128 0x18
 4195 02a4 9642     		.uleb128 0x2116
ARM GAS  C:\Users\Luis\AppData\Local\Temp\ccllzFQu.s 			page 75


 4196 02a6 19       		.uleb128 0x19
 4197 02a7 01       		.uleb128 0x1
 4198 02a8 13       		.uleb128 0x13
 4199 02a9 00       		.byte	0
 4200 02aa 00       		.byte	0
 4201 02ab 30       		.uleb128 0x30
 4202 02ac 34       		.uleb128 0x34
 4203 02ad 00       		.byte	0
 4204 02ae 03       		.uleb128 0x3
 4205 02af 08       		.uleb128 0x8
 4206 02b0 3A       		.uleb128 0x3a
 4207 02b1 0B       		.uleb128 0xb
 4208 02b2 3B       		.uleb128 0x3b
 4209 02b3 0B       		.uleb128 0xb
 4210 02b4 49       		.uleb128 0x49
 4211 02b5 13       		.uleb128 0x13
 4212 02b6 02       		.uleb128 0x2
 4213 02b7 18       		.uleb128 0x18
 4214 02b8 00       		.byte	0
 4215 02b9 00       		.byte	0
 4216 02ba 31       		.uleb128 0x31
 4217 02bb 34       		.uleb128 0x34
 4218 02bc 00       		.byte	0
 4219 02bd 03       		.uleb128 0x3
 4220 02be 0E       		.uleb128 0xe
 4221 02bf 3A       		.uleb128 0x3a
 4222 02c0 0B       		.uleb128 0xb
 4223 02c1 3B       		.uleb128 0x3b
 4224 02c2 0B       		.uleb128 0xb
 4225 02c3 49       		.uleb128 0x49
 4226 02c4 13       		.uleb128 0x13
 4227 02c5 02       		.uleb128 0x2
 4228 02c6 18       		.uleb128 0x18
 4229 02c7 00       		.byte	0
 4230 02c8 00       		.byte	0
 4231 02c9 32       		.uleb128 0x32
 4232 02ca 0B       		.uleb128 0xb
 4233 02cb 01       		.byte	0x1
 4234 02cc 11       		.uleb128 0x11
 4235 02cd 01       		.uleb128 0x1
 4236 02ce 12       		.uleb128 0x12
 4237 02cf 06       		.uleb128 0x6
 4238 02d0 01       		.uleb128 0x1
 4239 02d1 13       		.uleb128 0x13
 4240 02d2 00       		.byte	0
 4241 02d3 00       		.byte	0
 4242 02d4 33       		.uleb128 0x33
 4243 02d5 0B       		.uleb128 0xb
 4244 02d6 01       		.byte	0x1
 4245 02d7 11       		.uleb128 0x11
 4246 02d8 01       		.uleb128 0x1
 4247 02d9 12       		.uleb128 0x12
 4248 02da 06       		.uleb128 0x6
 4249 02db 00       		.byte	0
 4250 02dc 00       		.byte	0
 4251 02dd 34       		.uleb128 0x34
 4252 02de 34       		.uleb128 0x34
ARM GAS  C:\Users\Luis\AppData\Local\Temp\ccllzFQu.s 			page 76


 4253 02df 00       		.byte	0
 4254 02e0 03       		.uleb128 0x3
 4255 02e1 0E       		.uleb128 0xe
 4256 02e2 3A       		.uleb128 0x3a
 4257 02e3 0B       		.uleb128 0xb
 4258 02e4 3B       		.uleb128 0x3b
 4259 02e5 05       		.uleb128 0x5
 4260 02e6 49       		.uleb128 0x49
 4261 02e7 13       		.uleb128 0x13
 4262 02e8 02       		.uleb128 0x2
 4263 02e9 18       		.uleb128 0x18
 4264 02ea 00       		.byte	0
 4265 02eb 00       		.byte	0
 4266 02ec 35       		.uleb128 0x35
 4267 02ed 34       		.uleb128 0x34
 4268 02ee 00       		.byte	0
 4269 02ef 03       		.uleb128 0x3
 4270 02f0 08       		.uleb128 0x8
 4271 02f1 3A       		.uleb128 0x3a
 4272 02f2 0B       		.uleb128 0xb
 4273 02f3 3B       		.uleb128 0x3b
 4274 02f4 05       		.uleb128 0x5
 4275 02f5 49       		.uleb128 0x49
 4276 02f6 13       		.uleb128 0x13
 4277 02f7 02       		.uleb128 0x2
 4278 02f8 18       		.uleb128 0x18
 4279 02f9 00       		.byte	0
 4280 02fa 00       		.byte	0
 4281 02fb 36       		.uleb128 0x36
 4282 02fc 2E       		.uleb128 0x2e
 4283 02fd 01       		.byte	0x1
 4284 02fe 3F       		.uleb128 0x3f
 4285 02ff 19       		.uleb128 0x19
 4286 0300 03       		.uleb128 0x3
 4287 0301 0E       		.uleb128 0xe
 4288 0302 3A       		.uleb128 0x3a
 4289 0303 0B       		.uleb128 0xb
 4290 0304 3B       		.uleb128 0x3b
 4291 0305 05       		.uleb128 0x5
 4292 0306 27       		.uleb128 0x27
 4293 0307 19       		.uleb128 0x19
 4294 0308 11       		.uleb128 0x11
 4295 0309 01       		.uleb128 0x1
 4296 030a 12       		.uleb128 0x12
 4297 030b 06       		.uleb128 0x6
 4298 030c 40       		.uleb128 0x40
 4299 030d 18       		.uleb128 0x18
 4300 030e 9642     		.uleb128 0x2116
 4301 0310 19       		.uleb128 0x19
 4302 0311 01       		.uleb128 0x1
 4303 0312 13       		.uleb128 0x13
 4304 0313 00       		.byte	0
 4305 0314 00       		.byte	0
 4306 0315 37       		.uleb128 0x37
 4307 0316 05       		.uleb128 0x5
 4308 0317 00       		.byte	0
 4309 0318 03       		.uleb128 0x3
ARM GAS  C:\Users\Luis\AppData\Local\Temp\ccllzFQu.s 			page 77


 4310 0319 0E       		.uleb128 0xe
 4311 031a 3A       		.uleb128 0x3a
 4312 031b 0B       		.uleb128 0xb
 4313 031c 3B       		.uleb128 0x3b
 4314 031d 05       		.uleb128 0x5
 4315 031e 49       		.uleb128 0x49
 4316 031f 13       		.uleb128 0x13
 4317 0320 02       		.uleb128 0x2
 4318 0321 18       		.uleb128 0x18
 4319 0322 00       		.byte	0
 4320 0323 00       		.byte	0
 4321 0324 38       		.uleb128 0x38
 4322 0325 34       		.uleb128 0x34
 4323 0326 00       		.byte	0
 4324 0327 03       		.uleb128 0x3
 4325 0328 0E       		.uleb128 0xe
 4326 0329 3A       		.uleb128 0x3a
 4327 032a 0B       		.uleb128 0xb
 4328 032b 3B       		.uleb128 0x3b
 4329 032c 05       		.uleb128 0x5
 4330 032d 49       		.uleb128 0x49
 4331 032e 13       		.uleb128 0x13
 4332 032f 3F       		.uleb128 0x3f
 4333 0330 19       		.uleb128 0x19
 4334 0331 3C       		.uleb128 0x3c
 4335 0332 19       		.uleb128 0x19
 4336 0333 00       		.byte	0
 4337 0334 00       		.byte	0
 4338 0335 39       		.uleb128 0x39
 4339 0336 34       		.uleb128 0x34
 4340 0337 00       		.byte	0
 4341 0338 03       		.uleb128 0x3
 4342 0339 08       		.uleb128 0x8
 4343 033a 3A       		.uleb128 0x3a
 4344 033b 0B       		.uleb128 0xb
 4345 033c 3B       		.uleb128 0x3b
 4346 033d 05       		.uleb128 0x5
 4347 033e 49       		.uleb128 0x49
 4348 033f 13       		.uleb128 0x13
 4349 0340 3F       		.uleb128 0x3f
 4350 0341 19       		.uleb128 0x19
 4351 0342 3C       		.uleb128 0x3c
 4352 0343 19       		.uleb128 0x19
 4353 0344 00       		.byte	0
 4354 0345 00       		.byte	0
 4355 0346 3A       		.uleb128 0x3a
 4356 0347 34       		.uleb128 0x34
 4357 0348 00       		.byte	0
 4358 0349 03       		.uleb128 0x3
 4359 034a 0E       		.uleb128 0xe
 4360 034b 3A       		.uleb128 0x3a
 4361 034c 0B       		.uleb128 0xb
 4362 034d 3B       		.uleb128 0x3b
 4363 034e 0B       		.uleb128 0xb
 4364 034f 49       		.uleb128 0x49
 4365 0350 13       		.uleb128 0x13
 4366 0351 3F       		.uleb128 0x3f
ARM GAS  C:\Users\Luis\AppData\Local\Temp\ccllzFQu.s 			page 78


 4367 0352 19       		.uleb128 0x19
 4368 0353 3C       		.uleb128 0x3c
 4369 0354 19       		.uleb128 0x19
 4370 0355 00       		.byte	0
 4371 0356 00       		.byte	0
 4372 0357 3B       		.uleb128 0x3b
 4373 0358 34       		.uleb128 0x34
 4374 0359 00       		.byte	0
 4375 035a 03       		.uleb128 0x3
 4376 035b 0E       		.uleb128 0xe
 4377 035c 3A       		.uleb128 0x3a
 4378 035d 0B       		.uleb128 0xb
 4379 035e 3B       		.uleb128 0x3b
 4380 035f 0B       		.uleb128 0xb
 4381 0360 49       		.uleb128 0x49
 4382 0361 13       		.uleb128 0x13
 4383 0362 3F       		.uleb128 0x3f
 4384 0363 19       		.uleb128 0x19
 4385 0364 02       		.uleb128 0x2
 4386 0365 18       		.uleb128 0x18
 4387 0366 00       		.byte	0
 4388 0367 00       		.byte	0
 4389 0368 00       		.byte	0
 4390              		.section	.debug_aranges,"",%progbits
 4391 0000 84000000 		.4byte	0x84
 4392 0004 0200     		.2byte	0x2
 4393 0006 00000000 		.4byte	.Ldebug_info0
 4394 000a 04       		.byte	0x4
 4395 000b 00       		.byte	0
 4396 000c 0000     		.2byte	0
 4397 000e 0000     		.2byte	0
 4398 0010 00000000 		.4byte	.LFB116
 4399 0014 1A000000 		.4byte	.LFE116-.LFB116
 4400 0018 00000000 		.4byte	.LFB117
 4401 001c 1A000000 		.4byte	.LFE117-.LFB117
 4402 0020 00000000 		.4byte	.LFB156
 4403 0024 12000000 		.4byte	.LFE156-.LFB156
 4404 0028 00000000 		.4byte	.LFB157
 4405 002c 3C000000 		.4byte	.LFE157-.LFB157
 4406 0030 00000000 		.4byte	.LFB177
 4407 0034 18000000 		.4byte	.LFE177-.LFB177
 4408 0038 00000000 		.4byte	.LFB178
 4409 003c 10000000 		.4byte	.LFE178-.LFB178
 4410 0040 00000000 		.4byte	.LFB186
 4411 0044 20000000 		.4byte	.LFE186-.LFB186
 4412 0048 00000000 		.4byte	.LFB205
 4413 004c 20000000 		.4byte	.LFE205-.LFB205
 4414 0050 00000000 		.4byte	.LFB261
 4415 0054 2A000000 		.4byte	.LFE261-.LFB261
 4416 0058 00000000 		.4byte	.LFB262
 4417 005c 78000000 		.4byte	.LFE262-.LFB262
 4418 0060 00000000 		.4byte	.LFB263
 4419 0064 AC000000 		.4byte	.LFE263-.LFB263
 4420 0068 00000000 		.4byte	.LFB264
 4421 006c 44000000 		.4byte	.LFE264-.LFB264
 4422 0070 00000000 		.4byte	.LFB265
 4423 0074 FC010000 		.4byte	.LFE265-.LFB265
ARM GAS  C:\Users\Luis\AppData\Local\Temp\ccllzFQu.s 			page 79


 4424 0078 00000000 		.4byte	.LFB266
 4425 007c 44000000 		.4byte	.LFE266-.LFB266
 4426 0080 00000000 		.4byte	0
 4427 0084 00000000 		.4byte	0
 4428              		.section	.debug_ranges,"",%progbits
 4429              	.Ldebug_ranges0:
 4430 0000 00000000 		.4byte	.LFB116
 4431 0004 1A000000 		.4byte	.LFE116
 4432 0008 00000000 		.4byte	.LFB117
 4433 000c 1A000000 		.4byte	.LFE117
 4434 0010 00000000 		.4byte	.LFB156
 4435 0014 12000000 		.4byte	.LFE156
 4436 0018 00000000 		.4byte	.LFB157
 4437 001c 3C000000 		.4byte	.LFE157
 4438 0020 00000000 		.4byte	.LFB177
 4439 0024 18000000 		.4byte	.LFE177
 4440 0028 00000000 		.4byte	.LFB178
 4441 002c 10000000 		.4byte	.LFE178
 4442 0030 00000000 		.4byte	.LFB186
 4443 0034 20000000 		.4byte	.LFE186
 4444 0038 00000000 		.4byte	.LFB205
 4445 003c 20000000 		.4byte	.LFE205
 4446 0040 00000000 		.4byte	.LFB261
 4447 0044 2A000000 		.4byte	.LFE261
 4448 0048 00000000 		.4byte	.LFB262
 4449 004c 78000000 		.4byte	.LFE262
 4450 0050 00000000 		.4byte	.LFB263
 4451 0054 AC000000 		.4byte	.LFE263
 4452 0058 00000000 		.4byte	.LFB264
 4453 005c 44000000 		.4byte	.LFE264
 4454 0060 00000000 		.4byte	.LFB265
 4455 0064 FC010000 		.4byte	.LFE265
 4456 0068 00000000 		.4byte	.LFB266
 4457 006c 44000000 		.4byte	.LFE266
 4458 0070 00000000 		.4byte	0
 4459 0074 00000000 		.4byte	0
 4460              		.section	.debug_line,"",%progbits
 4461              	.Ldebug_line0:
 4462 0000 84050000 		.section	.debug_str,"MS",%progbits,1
 4462      0200C503 
 4462      00000201 
 4462      FB0E0D00 
 4462      01010101 
 4463              	.LASF53:
 4464 0000 74687265 		.ascii	"threads_queue_t\000"
 4464      6164735F 
 4464      71756575 
 4464      655F7400 
 4465              	.LASF282:
 4466 0010 2E2E2F2E 		.ascii	"../../ChibiOS/os/various/lwip_bindings/lwipthread.c"
 4466      2E2F4368 
 4466      6962694F 
 4466      532F6F73 
 4466      2F766172 
 4467 0043 00       		.ascii	"\000"
 4468              	.LASF179:
 4469 0044 6D616361 		.ascii	"macaddress\000"
ARM GAS  C:\Users\Luis\AppData\Local\Temp\ccllzFQu.s 			page 80


 4469      64647265 
 4469      737300
 4470              	.LASF215:
 4471 004f 73746174 		.ascii	"stats_proto\000"
 4471      735F7072 
 4471      6F746F00 
 4472              	.LASF118:
 4473 005b 77746D74 		.ascii	"wtmtxp\000"
 4473      787000
 4474              	.LASF203:
 4475 0062 4D454D50 		.ascii	"MEMP_TCP_PCB_LISTEN\000"
 4475      5F544350 
 4475      5F504342 
 4475      5F4C4953 
 4475      54454E00 
 4476              	.LASF49:
 4477 0076 74687265 		.ascii	"thread_reference_t\000"
 4477      61645F72 
 4477      65666572 
 4477      656E6365 
 4477      5F7400
 4478              	.LASF127:
 4479 0089 63686172 		.ascii	"char\000"
 4479      00
 4480              	.LASF245:
 4481 008e 6F757470 		.ascii	"output\000"
 4481      757400
 4482              	.LASF31:
 4483 0095 705F7072 		.ascii	"p_prio\000"
 4483      696F00
 4484              	.LASF190:
 4485 009c 50425546 		.ascii	"PBUF_RAM\000"
 4485      5F52414D 
 4485      00
 4486              	.LASF136:
 4487 00a5 6576656E 		.ascii	"event_source\000"
 4487      745F736F 
 4487      75726365 
 4487      00
 4488              	.LASF189:
 4489 00b2 50425546 		.ascii	"PBUF_RAW\000"
 4489      5F524157 
 4489      00
 4490              	.LASF199:
 4491 00bb 666C6167 		.ascii	"flags\000"
 4491      7300
 4492              	.LASF27:
 4493 00c1 73797374 		.ascii	"systime_t\000"
 4493      696D655F 
 4493      7400
 4494              	.LASF276:
 4495 00cb 77615F6C 		.ascii	"wa_lwip_thread\000"
 4495      7769705F 
 4495      74687265 
 4495      616400
 4496              	.LASF125:
 4497 00da 6D5F6F77 		.ascii	"m_owner\000"
ARM GAS  C:\Users\Luis\AppData\Local\Temp\ccllzFQu.s 			page 81


 4497      6E657200 
 4498              	.LASF121:
 4499 00e2 735F7175 		.ascii	"s_queue\000"
 4499      65756500 
 4500              	.LASF41:
 4501 00ea 705F6D73 		.ascii	"p_msgqueue\000"
 4501      67717565 
 4501      756500
 4502              	.LASF0:
 4503 00f5 756E7369 		.ascii	"unsigned int\000"
 4503      676E6564 
 4503      20696E74 
 4503      00
 4504              	.LASF195:
 4505 0102 6E657874 		.ascii	"next\000"
 4505      00
 4506              	.LASF111:
 4507 0107 6D5F6372 		.ascii	"m_crit_isr\000"
 4507      69745F69 
 4507      737200
 4508              	.LASF50:
 4509 0112 74687265 		.ascii	"threads_list_t\000"
 4509      6164735F 
 4509      6C697374 
 4509      5F7400
 4510              	.LASF185:
 4511 0121 6572725F 		.ascii	"err_t\000"
 4511      7400
 4512              	.LASF106:
 4513 0127 63756D75 		.ascii	"cumulative\000"
 4513      6C617469 
 4513      766500
 4514              	.LASF40:
 4515 0132 705F7761 		.ascii	"p_waiting\000"
 4515      6974696E 
 4515      6700
 4516              	.LASF150:
 4517 013c 6C696E6B 		.ascii	"link_up\000"
 4517      5F757000 
 4518              	.LASF171:
 4519 0144 65745F65 		.ascii	"et_es\000"
 4519      7300
 4520              	.LASF95:
 4521 014a 73655F73 		.ascii	"se_state\000"
 4521      74617465 
 4521      00
 4522              	.LASF275:
 4523 0153 65746868 		.ascii	"ethhdr\000"
 4523      647200
 4524              	.LASF176:
 4525 015a 7531365F 		.ascii	"u16_t\000"
 4525      7400
 4526              	.LASF281:
 4527 0160 474E5520 		.ascii	"GNU C 4.8.3 20131129 (release) [ARM/embedded-4_8-br"
 4527      4320342E 
 4527      382E3320 
 4527      32303133 
ARM GAS  C:\Users\Luis\AppData\Local\Temp\ccllzFQu.s 			page 82


 4527      31313239 
 4528 0193 616E6368 		.ascii	"anch revision 205641] -mcpu=cortex-m4 -mapcs-frame "
 4528      20726576 
 4528      6973696F 
 4528      6E203230 
 4528      35363431 
 4529 01c6 2D6D6E6F 		.ascii	"-mno-thumb-interwork -mthumb -ggdb -O0 -falign-func"
 4529      2D746875 
 4529      6D622D69 
 4529      6E746572 
 4529      776F726B 
 4530 01f9 74696F6E 		.ascii	"tions=16 -ffunction-sections -fdata-sections -fno-c"
 4530      733D3136 
 4530      202D6666 
 4530      756E6374 
 4530      696F6E2D 
 4531 022c 6F6D6D6F 		.ascii	"ommon\000"
 4531      6E00
 4532              	.LASF235:
 4533 0232 6C696E6B 		.ascii	"link\000"
 4533      00
 4534              	.LASF257:
 4535 0237 706F7274 		.ascii	"port_lock\000"
 4535      5F6C6F63 
 4535      6B00
 4536              	.LASF83:
 4537 0241 76746C69 		.ascii	"vtlist\000"
 4537      737400
 4538              	.LASF258:
 4539 0248 706F7274 		.ascii	"port_unlock\000"
 4539      5F756E6C 
 4539      6F636B00 
 4540              	.LASF56:
 4541 0254 63685F72 		.ascii	"ch_ready_list\000"
 4541      65616479 
 4541      5F6C6973 
 4541      7400
 4542              	.LASF86:
 4543 0262 69646C65 		.ascii	"idle_thread_wa\000"
 4543      5F746872 
 4543      6561645F 
 4543      776100
 4544              	.LASF226:
 4545 0271 73746174 		.ascii	"stats_mem\000"
 4545      735F6D65 
 4545      6D00
 4546              	.LASF268:
 4547 027b 65746865 		.ascii	"ethernetif_init\000"
 4547      726E6574 
 4547      69665F69 
 4547      6E697400 
 4548              	.LASF119:
 4549 028b 65776D61 		.ascii	"ewmask\000"
 4549      736B00
 4550              	.LASF251:
 4551 0292 6E657469 		.ascii	"netif_output_fn\000"
 4551      665F6F75 
ARM GAS  C:\Users\Luis\AppData\Local\Temp\ccllzFQu.s 			page 83


 4551      74707574 
 4551      5F666E00 
 4552              	.LASF182:
 4553 02a2 67617465 		.ascii	"gateway\000"
 4553      77617900 
 4554              	.LASF69:
 4555 02aa 76745F66 		.ascii	"vt_func\000"
 4555      756E6300 
 4556              	.LASF213:
 4557 02b2 4D454D50 		.ascii	"MEMP_PBUF_POOL\000"
 4557      5F504255 
 4557      465F504F 
 4557      4F4C00
 4558              	.LASF279:
 4559 02c1 6C776970 		.ascii	"lwip_stats\000"
 4559      5F737461 
 4559      747300
 4560              	.LASF164:
 4561 02cc 6D61635F 		.ascii	"mac_address\000"
 4561      61646472 
 4561      65737300 
 4562              	.LASF173:
 4563 02d8 6576656E 		.ascii	"event_timer_t\000"
 4563      745F7469 
 4563      6D65725F 
 4563      7400
 4564              	.LASF63:
 4565 02e6 76746675 		.ascii	"vtfunc_t\000"
 4565      6E635F74 
 4565      00
 4566              	.LASF115:
 4567 02ef 77746F62 		.ascii	"wtobjp\000"
 4567      6A7000
 4568              	.LASF75:
 4569 02f6 63685F73 		.ascii	"ch_system_debug\000"
 4569      79737465 
 4569      6D5F6465 
 4569      62756700 
 4570              	.LASF122:
 4571 0306 735F636E 		.ascii	"s_cnt\000"
 4571      7400
 4572              	.LASF186:
 4573 030c 50425546 		.ascii	"PBUF_TRANSPORT\000"
 4573      5F545241 
 4573      4E53504F 
 4573      525400
 4574              	.LASF183:
 4575 031b 6C776970 		.ascii	"lwipthread_opts_t\000"
 4575      74687265 
 4575      61645F6F 
 4575      7074735F 
 4575      7400
 4576              	.LASF230:
 4577 032d 73746174 		.ascii	"stats_syselem\000"
 4577      735F7379 
 4577      73656C65 
 4577      6D00
ARM GAS  C:\Users\Luis\AppData\Local\Temp\ccllzFQu.s 			page 84


 4578              	.LASF250:
 4579 033b 6E657469 		.ascii	"netif_input_fn\000"
 4579      665F696E 
 4579      7075745F 
 4579      666E00
 4580              	.LASF11:
 4581 034a 75696E74 		.ascii	"uint32_t\000"
 4581      33325F74 
 4581      00
 4582              	.LASF208:
 4583 0353 4D454D50 		.ascii	"MEMP_NETCONN\000"
 4583      5F4E4554 
 4583      434F4E4E 
 4583      00
 4584              	.LASF112:
 4585 0360 6B65726E 		.ascii	"kernel_stats_t\000"
 4585      656C5F73 
 4585      74617473 
 4585      5F7400
 4586              	.LASF23:
 4587 036f 6576656E 		.ascii	"eventmask_t\000"
 4587      746D6173 
 4587      6B5F7400 
 4588              	.LASF58:
 4589 037b 725F7072 		.ascii	"r_prio\000"
 4589      696F00
 4590              	.LASF85:
 4591 0382 6B65726E 		.ascii	"kernel_stats\000"
 4591      656C5F73 
 4591      74617473 
 4591      00
 4592              	.LASF209:
 4593 038f 4D454D50 		.ascii	"MEMP_TCPIP_MSG_API\000"
 4593      5F544350 
 4593      49505F4D 
 4593      53475F41 
 4593      504900
 4594              	.LASF224:
 4595 03a2 6F707465 		.ascii	"opterr\000"
 4595      727200
 4596              	.LASF232:
 4597 03a9 6D757465 		.ascii	"mutex\000"
 4597      7800
 4598              	.LASF237:
 4599 03af 69705F66 		.ascii	"ip_frag\000"
 4599      72616700 
 4600              	.LASF120:
 4601 03b7 63685F73 		.ascii	"ch_semaphore\000"
 4601      656D6170 
 4601      686F7265 
 4601      00
 4602              	.LASF21:
 4603 03c4 74707269 		.ascii	"tprio_t\000"
 4603      6F5F7400 
 4604              	.LASF65:
 4605 03cc 63685F76 		.ascii	"ch_virtual_timer\000"
 4605      69727475 
ARM GAS  C:\Users\Luis\AppData\Local\Temp\ccllzFQu.s 			page 85


 4605      616C5F74 
 4605      696D6572 
 4605      00
 4606              	.LASF137:
 4607 03dd 65735F6E 		.ascii	"es_next\000"
 4607      65787400 
 4608              	.LASF248:
 4609 03e5 68776164 		.ascii	"hwaddr\000"
 4609      647200
 4610              	.LASF236:
 4611 03ec 65746861 		.ascii	"etharp\000"
 4611      727000
 4612              	.LASF169:
 4613 03f3 4D414352 		.ascii	"MACReceiveDescriptor\000"
 4613      65636569 
 4613      76654465 
 4613      73637269 
 4613      70746F72 
 4614              	.LASF15:
 4615 0408 6C6F6E67 		.ascii	"long long unsigned int\000"
 4615      206C6F6E 
 4615      6720756E 
 4615      7369676E 
 4615      65642069 
 4616              	.LASF266:
 4617 041f 6C6F775F 		.ascii	"low_level_output\000"
 4617      6C657665 
 4617      6C5F6F75 
 4617      74707574 
 4617      00
 4618              	.LASF101:
 4619 0430 6F666673 		.ascii	"offset\000"
 4619      657400
 4620              	.LASF138:
 4621 0437 6576656E 		.ascii	"event_source_t\000"
 4621      745F736F 
 4621      75726365 
 4621      5F7400
 4622              	.LASF25:
 4623 0446 636E745F 		.ascii	"cnt_t\000"
 4623      7400
 4624              	.LASF247:
 4625 044c 68776164 		.ascii	"hwaddr_len\000"
 4625      64725F6C 
 4625      656E00
 4626              	.LASF288:
 4627 0457 6C776970 		.ascii	"lwipInit\000"
 4627      496E6974 
 4627      00
 4628              	.LASF259:
 4629 0460 63685379 		.ascii	"chSysUnlock\000"
 4629      73556E6C 
 4629      6F636B00 
 4630              	.LASF77:
 4631 046c 6973725F 		.ascii	"isr_cnt\000"
 4631      636E7400 
 4632              	.LASF104:
ARM GAS  C:\Users\Luis\AppData\Local\Temp\ccllzFQu.s 			page 86


 4633 0474 776F7273 		.ascii	"worst\000"
 4633      7400
 4634              	.LASF33:
 4635 047a 705F6E65 		.ascii	"p_newer\000"
 4635      77657200 
 4636              	.LASF285:
 4637 0482 76616C75 		.ascii	"value\000"
 4637      6500
 4638              	.LASF140:
 4639 0488 4D41435F 		.ascii	"MAC_UNINIT\000"
 4639      554E494E 
 4639      495400
 4640              	.LASF72:
 4641 0493 63685F76 		.ascii	"ch_virtual_timers_list\000"
 4641      69727475 
 4641      616C5F74 
 4641      696D6572 
 4641      735F6C69 
 4642              	.LASF68:
 4643 04aa 76745F64 		.ascii	"vt_delta\000"
 4643      656C7461 
 4643      00
 4644              	.LASF210:
 4645 04b3 4D454D50 		.ascii	"MEMP_TCPIP_MSG_INPKT\000"
 4645      5F544350 
 4645      49505F4D 
 4645      53475F49 
 4645      4E504B54 
 4646              	.LASF192:
 4647 04c8 50425546 		.ascii	"PBUF_REF\000"
 4647      5F524546 
 4647      00
 4648              	.LASF234:
 4649 04d1 73746174 		.ascii	"stats_\000"
 4649      735F00
 4650              	.LASF28:
 4651 04d8 74687265 		.ascii	"thread_t\000"
 4651      61645F74 
 4651      00
 4652              	.LASF135:
 4653 04e1 656C5F77 		.ascii	"el_wflags\000"
 4653      666C6167 
 4653      7300
 4654              	.LASF197:
 4655 04eb 746F745F 		.ascii	"tot_len\000"
 4655      6C656E00 
 4656              	.LASF113:
 4657 04f3 7264796D 		.ascii	"rdymsg\000"
 4657      736700
 4658              	.LASF196:
 4659 04fa 7061796C 		.ascii	"payload\000"
 4659      6F616400 
 4660              	.LASF187:
 4661 0502 50425546 		.ascii	"PBUF_IP\000"
 4661      5F495000 
 4662              	.LASF139:
 4663 050a 5F426F6F 		.ascii	"_Bool\000"
ARM GAS  C:\Users\Luis\AppData\Local\Temp\ccllzFQu.s 			page 87


 4663      6C00
 4664              	.LASF267:
 4665 0510 6C6F775F 		.ascii	"low_level_input\000"
 4665      6C657665 
 4665      6C5F696E 
 4665      70757400 
 4666              	.LASF283:
 4667 0520 433A5C55 		.ascii	"C:\\Users\\Luis\\git\\DSP-Library-Lanin\\examples\\"
 4667      73657273 
 4667      5C4C7569 
 4667      735C6769 
 4667      745C4453 
 4668 054d 53544D33 		.ascii	"STM32F407_EMTECH-LWIP\000"
 4668      32463430 
 4668      375F454D 
 4668      54454348 
 4668      2D4C5749 
 4669              	.LASF178:
 4670 0563 6C776970 		.ascii	"lwipthread_opts\000"
 4670      74687265 
 4670      61645F6F 
 4670      70747300 
 4671              	.LASF123:
 4672 0573 63685F6D 		.ascii	"ch_mutex\000"
 4672      75746578 
 4672      00
 4673              	.LASF214:
 4674 057c 4D454D50 		.ascii	"MEMP_MAX\000"
 4674      5F4D4158 
 4674      00
 4675              	.LASF175:
 4676 0585 73385F74 		.ascii	"s8_t\000"
 4676      00
 4677              	.LASF269:
 4678 058a 6C776970 		.ascii	"lwip_thread\000"
 4678      5F746872 
 4678      65616400 
 4679              	.LASF105:
 4680 0596 6C617374 		.ascii	"last\000"
 4680      00
 4681              	.LASF286:
 4682 059b 63685379 		.ascii	"chSysLock\000"
 4682      734C6F63 
 4682      6B00
 4683              	.LASF107:
 4684 05a5 74696D65 		.ascii	"time_measurement_t\000"
 4684      5F6D6561 
 4684      73757265 
 4684      6D656E74 
 4684      5F7400
 4685              	.LASF2:
 4686 05b8 696E7438 		.ascii	"int8_t\000"
 4686      5F7400
 4687              	.LASF35:
 4688 05bf 705F6E61 		.ascii	"p_name\000"
 4688      6D6500
 4689              	.LASF212:
ARM GAS  C:\Users\Luis\AppData\Local\Temp\ccllzFQu.s 			page 88


 4690 05c6 4D454D50 		.ascii	"MEMP_PBUF\000"
 4690      5F504255 
 4690      4600
 4691              	.LASF52:
 4692 05d0 63685F74 		.ascii	"ch_threads_list\000"
 4692      68726561 
 4692      64735F6C 
 4692      69737400 
 4693              	.LASF229:
 4694 05e0 696C6C65 		.ascii	"illegal\000"
 4694      67616C00 
 4695              	.LASF184:
 4696 05e8 6D656D5F 		.ascii	"mem_size_t\000"
 4696      73697A65 
 4696      5F7400
 4697              	.LASF17:
 4698 05f3 72747469 		.ascii	"rttime_t\000"
 4698      6D655F74 
 4698      00
 4699              	.LASF73:
 4700 05fc 76745F6C 		.ascii	"vt_lasttime\000"
 4700      61737474 
 4700      696D6500 
 4701              	.LASF264:
 4702 0608 6576656E 		.ascii	"events\000"
 4702      747300
 4703              	.LASF19:
 4704 060f 74737461 		.ascii	"tstate_t\000"
 4704      74655F74 
 4704      00
 4705              	.LASF93:
 4706 0618 73655F74 		.ascii	"se_tp\000"
 4706      7000
 4707              	.LASF278:
 4708 061e 45544844 		.ascii	"ETHD1\000"
 4708      3100
 4709              	.LASF254:
 4710 0624 6574685F 		.ascii	"eth_addr\000"
 4710      61646472 
 4710      00
 4711              	.LASF13:
 4712 062d 6C6F6E67 		.ascii	"long long int\000"
 4712      206C6F6E 
 4712      6720696E 
 4712      7400
 4713              	.LASF34:
 4714 063b 705F6F6C 		.ascii	"p_older\000"
 4714      64657200 
 4715              	.LASF92:
 4716 0643 73655F74 		.ascii	"se_time\000"
 4716      696D6500 
 4717              	.LASF36:
 4718 064b 705F7374 		.ascii	"p_stklimit\000"
 4718      6B6C696D 
 4718      697400
 4719              	.LASF4:
 4720 0656 75696E74 		.ascii	"uint8_t\000"
ARM GAS  C:\Users\Luis\AppData\Local\Temp\ccllzFQu.s 			page 89


 4720      385F7400 
 4721              	.LASF198:
 4722 065e 74797065 		.ascii	"type\000"
 4722      00
 4723              	.LASF154:
 4724 0663 72646573 		.ascii	"rdes0\000"
 4724      3000
 4725              	.LASF155:
 4726 0669 72646573 		.ascii	"rdes1\000"
 4726      3100
 4727              	.LASF156:
 4728 066f 72646573 		.ascii	"rdes2\000"
 4728      3200
 4729              	.LASF157:
 4730 0675 72646573 		.ascii	"rdes3\000"
 4730      3300
 4731              	.LASF46:
 4732 067b 705F6D70 		.ascii	"p_mpool\000"
 4732      6F6F6C00 
 4733              	.LASF255:
 4734 0683 6574685F 		.ascii	"eth_hdr\000"
 4734      68647200 
 4735              	.LASF37:
 4736 068b 705F7374 		.ascii	"p_state\000"
 4736      61746500 
 4737              	.LASF51:
 4738 0693 63685F74 		.ascii	"ch_thread\000"
 4738      68726561 
 4738      6400
 4739              	.LASF97:
 4740 069d 74625F73 		.ascii	"tb_size\000"
 4740      697A6500 
 4741              	.LASF88:
 4742 06a5 72656761 		.ascii	"regarm_t\000"
 4742      726D5F74 
 4742      00
 4743              	.LASF74:
 4744 06ae 73797374 		.ascii	"system_debug_t\000"
 4744      656D5F64 
 4744      65627567 
 4744      5F7400
 4745              	.LASF152:
 4746 06bd 72787074 		.ascii	"rxptr\000"
 4746      7200
 4747              	.LASF207:
 4748 06c3 4D454D50 		.ascii	"MEMP_NETBUF\000"
 4748      5F4E4554 
 4748      42554600 
 4749              	.LASF181:
 4750 06cf 6E65746D 		.ascii	"netmask\000"
 4750      61736B00 
 4751              	.LASF54:
 4752 06d7 63685F74 		.ascii	"ch_threads_queue\000"
 4752      68726561 
 4752      64735F71 
 4752      75657565 
 4752      00
ARM GAS  C:\Users\Luis\AppData\Local\Temp\ccllzFQu.s 			page 90


 4753              	.LASF47:
 4754 06e8 705F7374 		.ascii	"p_stats\000"
 4754      61747300 
 4755              	.LASF130:
 4756 06f0 6576656E 		.ascii	"event_listener\000"
 4756      745F6C69 
 4756      7374656E 
 4756      657200
 4757              	.LASF57:
 4758 06ff 725F7175 		.ascii	"r_queue\000"
 4758      65756500 
 4759              	.LASF163:
 4760 0707 73746D33 		.ascii	"stm32_eth_tx_descriptor_t\000"
 4760      325F6574 
 4760      685F7478 
 4760      5F646573 
 4760      63726970 
 4761              	.LASF60:
 4762 0721 725F6E65 		.ascii	"r_newer\000"
 4762      77657200 
 4763              	.LASF22:
 4764 0729 6D73675F 		.ascii	"msg_t\000"
 4764      7400
 4765              	.LASF202:
 4766 072f 4D454D50 		.ascii	"MEMP_TCP_PCB\000"
 4766      5F544350 
 4766      5F504342 
 4766      00
 4767              	.LASF174:
 4768 073c 75385F74 		.ascii	"u8_t\000"
 4768      00
 4769              	.LASF38:
 4770 0741 705F666C 		.ascii	"p_flags\000"
 4770      61677300 
 4771              	.LASF64:
 4772 0749 76697274 		.ascii	"virtual_timer_t\000"
 4772      75616C5F 
 4772      74696D65 
 4772      725F7400 
 4773              	.LASF170:
 4774 0759 65745F76 		.ascii	"et_vt\000"
 4774      7400
 4775              	.LASF99:
 4776 075f 74625F62 		.ascii	"tb_buffer\000"
 4776      75666665 
 4776      7200
 4777              	.LASF228:
 4778 0769 75736564 		.ascii	"used\000"
 4778      00
 4779              	.LASF166:
 4780 076e 73697A65 		.ascii	"size\000"
 4780      00
 4781              	.LASF263:
 4782 0773 63684576 		.ascii	"chEvtRegisterMask\000"
 4782      74526567 
 4782      69737465 
 4782      724D6173 
ARM GAS  C:\Users\Luis\AppData\Local\Temp\ccllzFQu.s 			page 91


 4782      6B00
 4783              	.LASF98:
 4784 0785 74625F70 		.ascii	"tb_ptr\000"
 4784      747200
 4785              	.LASF141:
 4786 078c 4D41435F 		.ascii	"MAC_STOP\000"
 4786      53544F50 
 4786      00
 4787              	.LASF219:
 4788 0795 63686B65 		.ascii	"chkerr\000"
 4788      727200
 4789              	.LASF61:
 4790 079c 725F6F6C 		.ascii	"r_older\000"
 4790      64657200 
 4791              	.LASF205:
 4792 07a4 4D454D50 		.ascii	"MEMP_REASSDATA\000"
 4792      5F524541 
 4792      53534441 
 4792      544100
 4793              	.LASF273:
 4794 07b3 6D61736B 		.ascii	"mask\000"
 4794      00
 4795              	.LASF109:
 4796 07b8 6E5F6374 		.ascii	"n_ctxswc\000"
 4796      78737763 
 4796      00
 4797              	.LASF12:
 4798 07c1 6C6F6E67 		.ascii	"long unsigned int\000"
 4798      20756E73 
 4798      69676E65 
 4798      6420696E 
 4798      7400
 4799              	.LASF244:
 4800 07d3 696E7075 		.ascii	"input\000"
 4800      7400
 4801              	.LASF148:
 4802 07d9 72647175 		.ascii	"rdqueue\000"
 4802      65756500 
 4803              	.LASF221:
 4804 07e1 6D656D65 		.ascii	"memerr\000"
 4804      727200
 4805              	.LASF24:
 4806 07e8 6576656E 		.ascii	"eventflags_t\000"
 4806      74666C61 
 4806      67735F74 
 4806      00
 4807              	.LASF188:
 4808 07f5 50425546 		.ascii	"PBUF_LINK\000"
 4808      5F4C494E 
 4808      4B00
 4809              	.LASF90:
 4810 07ff 636F6E74 		.ascii	"context\000"
 4810      65787400 
 4811              	.LASF131:
 4812 0807 656C5F6E 		.ascii	"el_next\000"
 4812      65787400 
 4813              	.LASF42:
ARM GAS  C:\Users\Luis\AppData\Local\Temp\ccllzFQu.s 			page 92


 4814 080f 705F6D73 		.ascii	"p_msg\000"
 4814      6700
 4815              	.LASF102:
 4816 0815 746D5F63 		.ascii	"tm_calibration_t\000"
 4816      616C6962 
 4816      72617469 
 4816      6F6E5F74 
 4816      00
 4817              	.LASF18:
 4818 0826 746D6F64 		.ascii	"tmode_t\000"
 4818      655F7400 
 4819              	.LASF26:
 4820 082e 75636E74 		.ascii	"ucnt_t\000"
 4820      5F7400
 4821              	.LASF147:
 4822 0835 74647175 		.ascii	"tdqueue\000"
 4822      65756500 
 4823              	.LASF84:
 4824 083d 6D61696E 		.ascii	"mainthread\000"
 4824      74687265 
 4824      616400
 4825              	.LASF142:
 4826 0848 4D41435F 		.ascii	"MAC_ACTIVE\000"
 4826      41435449 
 4826      564500
 4827              	.LASF7:
 4828 0853 75696E74 		.ascii	"uint16_t\000"
 4828      31365F74 
 4828      00
 4829              	.LASF158:
 4830 085c 73746D33 		.ascii	"stm32_eth_rx_descriptor_t\000"
 4830      325F6574 
 4830      685F7278 
 4830      5F646573 
 4830      63726970 
 4831              	.LASF1:
 4832 0876 73697A65 		.ascii	"size_t\000"
 4832      5F7400
 4833              	.LASF260:
 4834 087d 63685468 		.ascii	"chThdGetSelfX\000"
 4834      64476574 
 4834      53656C66 
 4834      5800
 4835              	.LASF262:
 4836 088b 63685265 		.ascii	"chRegSetThreadName\000"
 4836      67536574 
 4836      54687265 
 4836      61644E61 
 4836      6D6500
 4837              	.LASF144:
 4838 089e 4D414344 		.ascii	"MACDriver\000"
 4838      72697665 
 4838      7200
 4839              	.LASF16:
 4840 08a8 7274636E 		.ascii	"rtcnt_t\000"
 4840      745F7400 
 4841              	.LASF206:
ARM GAS  C:\Users\Luis\AppData\Local\Temp\ccllzFQu.s 			page 93


 4842 08b0 4D454D50 		.ascii	"MEMP_FRAG_PBUF\000"
 4842      5F465241 
 4842      475F5042 
 4842      554600
 4843              	.LASF172:
 4844 08bf 65745F69 		.ascii	"et_interval\000"
 4844      6E746572 
 4844      76616C00 
 4845              	.LASF78:
 4846 08cb 6C6F636B 		.ascii	"lock_cnt\000"
 4846      5F636E74 
 4846      00
 4847              	.LASF146:
 4848 08d4 636F6E66 		.ascii	"config\000"
 4848      696700
 4849              	.LASF108:
 4850 08db 6E5F6972 		.ascii	"n_irq\000"
 4850      7100
 4851              	.LASF200:
 4852 08e1 4D454D50 		.ascii	"MEMP_RAW_PCB\000"
 4852      5F524157 
 4852      5F504342 
 4852      00
 4853              	.LASF45:
 4854 08ee 705F7265 		.ascii	"p_realprio\000"
 4854      616C7072 
 4854      696F00
 4855              	.LASF177:
 4856 08f9 7533325F 		.ascii	"u32_t\000"
 4856      7400
 4857              	.LASF6:
 4858 08ff 73686F72 		.ascii	"short int\000"
 4858      7420696E 
 4858      7400
 4859              	.LASF238:
 4860 0909 69636D70 		.ascii	"icmp\000"
 4860      00
 4861              	.LASF272:
 4862 090e 6F707473 		.ascii	"opts\000"
 4862      00
 4863              	.LASF62:
 4864 0913 725F6375 		.ascii	"r_current\000"
 4864      7272656E 
 4864      7400
 4865              	.LASF193:
 4866 091d 50425546 		.ascii	"PBUF_POOL\000"
 4866      5F504F4F 
 4866      4C00
 4867              	.LASF43:
 4868 0927 705F6570 		.ascii	"p_epending\000"
 4868      656E6469 
 4868      6E6700
 4869              	.LASF124:
 4870 0932 6D5F7175 		.ascii	"m_queue\000"
 4870      65756500 
 4871              	.LASF10:
 4872 093a 6C6F6E67 		.ascii	"long int\000"
ARM GAS  C:\Users\Luis\AppData\Local\Temp\ccllzFQu.s 			page 94


 4872      20696E74 
 4872      00
 4873              	.LASF91:
 4874 0943 706F7274 		.ascii	"port_intctx\000"
 4874      5F696E74 
 4874      63747800 
 4875              	.LASF222:
 4876 094f 72746572 		.ascii	"rterr\000"
 4876      7200
 4877              	.LASF277:
 4878 0955 49544D5F 		.ascii	"ITM_RxBuffer\000"
 4878      52784275 
 4878      66666572 
 4878      00
 4879              	.LASF227:
 4880 0962 61766169 		.ascii	"avail\000"
 4880      6C00
 4881              	.LASF211:
 4882 0968 4D454D50 		.ascii	"MEMP_SYS_TIMEOUT\000"
 4882      5F535953 
 4882      5F54494D 
 4882      454F5554 
 4882      00
 4883              	.LASF253:
 4884 0979 74637069 		.ascii	"tcpip_callback_fn\000"
 4884      705F6361 
 4884      6C6C6261 
 4884      636B5F66 
 4884      6E00
 4885              	.LASF270:
 4886 098b 74686973 		.ascii	"thisif\000"
 4886      696600
 4887              	.LASF261:
 4888 0992 63685468 		.ascii	"chThdGetPriorityX\000"
 4888      64476574 
 4888      5072696F 
 4888      72697479 
 4888      5800
 4889              	.LASF81:
 4890 09a4 63685F73 		.ascii	"ch_system\000"
 4890      79737465 
 4890      6D00
 4891              	.LASF110:
 4892 09ae 6D5F6372 		.ascii	"m_crit_thd\000"
 4892      69745F74 
 4892      686400
 4893              	.LASF167:
 4894 09b9 70687973 		.ascii	"physdesc\000"
 4894      64657363 
 4894      00
 4895              	.LASF284:
 4896 09c2 5F5F7365 		.ascii	"__set_BASEPRI\000"
 4896      745F4241 
 4896      53455052 
 4896      4900
 4897              	.LASF29:
 4898 09d0 705F6E65 		.ascii	"p_next\000"
ARM GAS  C:\Users\Luis\AppData\Local\Temp\ccllzFQu.s 			page 95


 4898      787400
 4899              	.LASF201:
 4900 09d7 4D454D50 		.ascii	"MEMP_UDP_PCB\000"
 4900      5F554450 
 4900      5F504342 
 4900      00
 4901              	.LASF32:
 4902 09e4 705F6374 		.ascii	"p_ctx\000"
 4902      7800
 4903              	.LASF233:
 4904 09ea 6D626F78 		.ascii	"mbox\000"
 4904      00
 4905              	.LASF82:
 4906 09ef 726C6973 		.ascii	"rlist\000"
 4906      7400
 4907              	.LASF94:
 4908 09f5 73655F77 		.ascii	"se_wtobjp\000"
 4908      746F626A 
 4908      7000
 4909              	.LASF225:
 4910 09ff 63616368 		.ascii	"cachehit\000"
 4910      65686974 
 4910      00
 4911              	.LASF249:
 4912 0a08 6E616D65 		.ascii	"name\000"
 4912      00
 4913              	.LASF132:
 4914 0a0d 656C5F6C 		.ascii	"el_listener\000"
 4914      69737465 
 4914      6E657200 
 4915              	.LASF252:
 4916 0a19 6E657469 		.ascii	"netif_linkoutput_fn\000"
 4916      665F6C69 
 4916      6E6B6F75 
 4916      74707574 
 4916      5F666E00 
 4917              	.LASF159:
 4918 0a2d 74646573 		.ascii	"tdes0\000"
 4918      3000
 4919              	.LASF160:
 4920 0a33 74646573 		.ascii	"tdes1\000"
 4920      3100
 4921              	.LASF161:
 4922 0a39 74646573 		.ascii	"tdes2\000"
 4922      3200
 4923              	.LASF162:
 4924 0a3f 74646573 		.ascii	"tdes3\000"
 4924      3300
 4925              	.LASF265:
 4926 0a45 6C6F775F 		.ascii	"low_level_init\000"
 4926      6C657665 
 4926      6C5F696E 
 4926      697400
 4927              	.LASF143:
 4928 0a54 6D616373 		.ascii	"macstate_t\000"
 4928      74617465 
 4928      5F7400
ARM GAS  C:\Users\Luis\AppData\Local\Temp\ccllzFQu.s 			page 96


 4929              	.LASF239:
 4930 0a5f 6D656D70 		.ascii	"memp\000"
 4930      00
 4931              	.LASF220:
 4932 0a64 6C656E65 		.ascii	"lenerr\000"
 4932      727200
 4933              	.LASF30:
 4934 0a6b 705F7072 		.ascii	"p_prev\000"
 4934      657600
 4935              	.LASF87:
 4936 0a72 73697A65 		.ascii	"sizetype\000"
 4936      74797065 
 4936      00
 4937              	.LASF20:
 4938 0a7b 74726566 		.ascii	"trefs_t\000"
 4938      735F7400 
 4939              	.LASF129:
 4940 0a83 6576656E 		.ascii	"event_listener_t\000"
 4940      745F6C69 
 4940      7374656E 
 4940      65725F74 
 4940      00
 4941              	.LASF180:
 4942 0a94 61646472 		.ascii	"address\000"
 4942      65737300 
 4943              	.LASF44:
 4944 0a9c 705F6D74 		.ascii	"p_mtxlist\000"
 4944      786C6973 
 4944      7400
 4945              	.LASF55:
 4946 0aa6 72656164 		.ascii	"ready_list_t\000"
 4946      795F6C69 
 4946      73745F74 
 4946      00
 4947              	.LASF153:
 4948 0ab3 74787074 		.ascii	"txptr\000"
 4948      7200
 4949              	.LASF9:
 4950 0ab9 696E7433 		.ascii	"int32_t\000"
 4950      325F7400 
 4951              	.LASF79:
 4952 0ac1 74726163 		.ascii	"trace_buffer\000"
 4952      655F6275 
 4952      66666572 
 4952      00
 4953              	.LASF223:
 4954 0ace 70726F74 		.ascii	"proterr\000"
 4954      65727200 
 4955              	.LASF117:
 4956 0ad6 77747365 		.ascii	"wtsemp\000"
 4956      6D7000
 4957              	.LASF96:
 4958 0add 63685F73 		.ascii	"ch_swc_event_t\000"
 4958      77635F65 
 4958      76656E74 
 4958      5F7400
 4959              	.LASF128:
ARM GAS  C:\Users\Luis\AppData\Local\Temp\ccllzFQu.s 			page 97


 4960 0aec 6D757465 		.ascii	"mutex_t\000"
 4960      785F7400 
 4961              	.LASF70:
 4962 0af4 76745F70 		.ascii	"vt_par\000"
 4962      617200
 4963              	.LASF103:
 4964 0afb 62657374 		.ascii	"best\000"
 4964      00
 4965              	.LASF231:
 4966 0b00 73746174 		.ascii	"stats_sys\000"
 4966      735F7379 
 4966      7300
 4967              	.LASF5:
 4968 0b0a 756E7369 		.ascii	"unsigned char\000"
 4968      676E6564 
 4968      20636861 
 4968      7200
 4969              	.LASF165:
 4970 0b18 4D414343 		.ascii	"MACConfig\000"
 4970      6F6E6669 
 4970      6700
 4971              	.LASF71:
 4972 0b22 76697274 		.ascii	"virtual_timers_list_t\000"
 4972      75616C5F 
 4972      74696D65 
 4972      72735F6C 
 4972      6973745F 
 4973              	.LASF133:
 4974 0b38 656C5F65 		.ascii	"el_events\000"
 4974      76656E74 
 4974      7300
 4975              	.LASF204:
 4976 0b42 4D454D50 		.ascii	"MEMP_TCP_SEG\000"
 4976      5F544350 
 4976      5F534547 
 4976      00
 4977              	.LASF76:
 4978 0b4f 70616E69 		.ascii	"panic_msg\000"
 4978      635F6D73 
 4978      6700
 4979              	.LASF194:
 4980 0b59 70627566 		.ascii	"pbuf\000"
 4980      00
 4981              	.LASF89:
 4982 0b5e 73746B61 		.ascii	"stkalign_t\000"
 4982      6C69676E 
 4982      5F7400
 4983              	.LASF241:
 4984 0b69 61646472 		.ascii	"addr\000"
 4984      00
 4985              	.LASF39:
 4986 0b6e 705F7265 		.ascii	"p_refs\000"
 4986      667300
 4987              	.LASF218:
 4988 0b75 64726F70 		.ascii	"drop\000"
 4988      00
 4989              	.LASF145:
ARM GAS  C:\Users\Luis\AppData\Local\Temp\ccllzFQu.s 			page 98


 4990 0b7a 73746174 		.ascii	"state\000"
 4990      6500
 4991              	.LASF66:
 4992 0b80 76745F6E 		.ascii	"vt_next\000"
 4992      65787400 
 4993              	.LASF14:
 4994 0b88 75696E74 		.ascii	"uint64_t\000"
 4994      36345F74 
 4994      00
 4995              	.LASF243:
 4996 0b91 6E657469 		.ascii	"netif\000"
 4996      6600
 4997              	.LASF80:
 4998 0b97 63685F73 		.ascii	"ch_system_t\000"
 4998      79737465 
 4998      6D5F7400 
 4999              	.LASF116:
 5000 0ba3 77747472 		.ascii	"wttrp\000"
 5000      7000
 5001              	.LASF217:
 5002 0ba9 72656376 		.ascii	"recv\000"
 5002      00
 5003              	.LASF100:
 5004 0bae 63685F74 		.ascii	"ch_trace_buffer_t\000"
 5004      72616365 
 5004      5F627566 
 5004      6665725F 
 5004      7400
 5005              	.LASF126:
 5006 0bc0 6D5F6E65 		.ascii	"m_next\000"
 5006      787400
 5007              	.LASF149:
 5008 0bc7 72646576 		.ascii	"rdevent\000"
 5008      656E7400 
 5009              	.LASF3:
 5010 0bcf 7369676E 		.ascii	"signed char\000"
 5010      65642063 
 5010      68617200 
 5011              	.LASF8:
 5012 0bdb 73686F72 		.ascii	"short unsigned int\000"
 5012      7420756E 
 5012      7369676E 
 5012      65642069 
 5012      6E7400
 5013              	.LASF59:
 5014 0bee 725F6374 		.ascii	"r_ctx\000"
 5014      7800
 5015              	.LASF48:
 5016 0bf4 746C7350 		.ascii	"tlsPtr\000"
 5016      747200
 5017              	.LASF216:
 5018 0bfb 786D6974 		.ascii	"xmit\000"
 5018      00
 5019              	.LASF191:
 5020 0c00 50425546 		.ascii	"PBUF_ROM\000"
 5020      5F524F4D 
 5020      00
ARM GAS  C:\Users\Luis\AppData\Local\Temp\ccllzFQu.s 			page 99


 5021              	.LASF287:
 5022 0c09 5F5F6675 		.ascii	"__func__\000"
 5022      6E635F5F 
 5022      00
 5023              	.LASF280:
 5024 0c12 6C776970 		.ascii	"lwip_trp\000"
 5024      5F747270 
 5024      00
 5025              	.LASF67:
 5026 0c1b 76745F70 		.ascii	"vt_prev\000"
 5026      72657600 
 5027              	.LASF242:
 5028 0c23 69705F61 		.ascii	"ip_addr_t\000"
 5028      6464725F 
 5028      7400
 5029              	.LASF271:
 5030 0c2d 6D61635F 		.ascii	"mac_config\000"
 5030      636F6E66 
 5030      696700
 5031              	.LASF274:
 5032 0c38 63757272 		.ascii	"current_link_status\000"
 5032      656E745F 
 5032      6C696E6B 
 5032      5F737461 
 5032      74757300 
 5033              	.LASF151:
 5034 0c4c 70687961 		.ascii	"phyaddr\000"
 5034      64647200 
 5035              	.LASF246:
 5036 0c54 6C696E6B 		.ascii	"linkoutput\000"
 5036      6F757470 
 5036      757400
 5037              	.LASF134:
 5038 0c5f 656C5F66 		.ascii	"el_flags\000"
 5038      6C616773 
 5038      00
 5039              	.LASF256:
 5040 0c68 64657374 		.ascii	"dest\000"
 5040      00
 5041              	.LASF114:
 5042 0c6d 65786974 		.ascii	"exitcode\000"
 5042      636F6465 
 5042      00
 5043              	.LASF168:
 5044 0c76 4D414354 		.ascii	"MACTransmitDescriptor\000"
 5044      72616E73 
 5044      6D697444 
 5044      65736372 
 5044      6970746F 
 5045              	.LASF240:
 5046 0c8c 69705F61 		.ascii	"ip_addr\000"
 5046      64647200 
 5047              		.ident	"GCC: (GNU Tools for ARM Embedded Processors) 4.8.3 20131129 (release) [ARM/embedded-4_8-br
ARM GAS  C:\Users\Luis\AppData\Local\Temp\ccllzFQu.s 			page 100


DEFINED SYMBOLS
                            *ABS*:00000000 lwipthread.c
C:\Users\Luis\AppData\Local\Temp\ccllzFQu.s:19     .text.port_lock:00000000 $t
C:\Users\Luis\AppData\Local\Temp\ccllzFQu.s:24     .text.port_lock:00000000 port_lock
C:\Users\Luis\AppData\Local\Temp\ccllzFQu.s:62     .text.port_unlock:00000000 $t
C:\Users\Luis\AppData\Local\Temp\ccllzFQu.s:67     .text.port_unlock:00000000 port_unlock
C:\Users\Luis\AppData\Local\Temp\ccllzFQu.s:103    .text.chSysLock:00000000 $t
C:\Users\Luis\AppData\Local\Temp\ccllzFQu.s:108    .text.chSysLock:00000000 chSysLock
C:\Users\Luis\AppData\Local\Temp\ccllzFQu.s:133    .text.chSysUnlock:00000000 $t
C:\Users\Luis\AppData\Local\Temp\ccllzFQu.s:138    .text.chSysUnlock:00000000 chSysUnlock
C:\Users\Luis\AppData\Local\Temp\ccllzFQu.s:179    .text.chSysUnlock:00000034 $d
C:\Users\Luis\AppData\Local\Temp\ccllzFQu.s:1012   .rodata.__func__.5842:00000000 __func__.5842
C:\Users\Luis\AppData\Local\Temp\ccllzFQu.s:185    .text.chThdGetSelfX:00000000 $t
C:\Users\Luis\AppData\Local\Temp\ccllzFQu.s:190    .text.chThdGetSelfX:00000000 chThdGetSelfX
C:\Users\Luis\AppData\Local\Temp\ccllzFQu.s:215    .text.chThdGetSelfX:00000014 $d
C:\Users\Luis\AppData\Local\Temp\ccllzFQu.s:220    .text.chThdGetPriorityX:00000000 $t
C:\Users\Luis\AppData\Local\Temp\ccllzFQu.s:225    .text.chThdGetPriorityX:00000000 chThdGetPriorityX
C:\Users\Luis\AppData\Local\Temp\ccllzFQu.s:248    .text.chRegSetThreadName:00000000 $t
C:\Users\Luis\AppData\Local\Temp\ccllzFQu.s:253    .text.chRegSetThreadName:00000000 chRegSetThreadName
C:\Users\Luis\AppData\Local\Temp\ccllzFQu.s:283    .text.chRegSetThreadName:0000001c $d
C:\Users\Luis\AppData\Local\Temp\ccllzFQu.s:288    .text.chEvtRegisterMask:00000000 $t
C:\Users\Luis\AppData\Local\Temp\ccllzFQu.s:293    .text.chEvtRegisterMask:00000000 chEvtRegisterMask
C:\Users\Luis\AppData\Local\Temp\ccllzFQu.s:330    .bss.lwip_trp:00000000 lwip_trp
C:\Users\Luis\AppData\Local\Temp\ccllzFQu.s:327    .bss.lwip_trp:00000000 $d
C:\Users\Luis\AppData\Local\Temp\ccllzFQu.s:333    .bss.wa_lwip_thread:00000000 $d
C:\Users\Luis\AppData\Local\Temp\ccllzFQu.s:336    .bss.wa_lwip_thread:00000000 wa_lwip_thread
C:\Users\Luis\AppData\Local\Temp\ccllzFQu.s:339    .text.low_level_init:00000000 $t
C:\Users\Luis\AppData\Local\Temp\ccllzFQu.s:344    .text.low_level_init:00000000 low_level_init
C:\Users\Luis\AppData\Local\Temp\ccllzFQu.s:382    .text.low_level_output:00000000 $t
C:\Users\Luis\AppData\Local\Temp\ccllzFQu.s:387    .text.low_level_output:00000000 low_level_output
C:\Users\Luis\AppData\Local\Temp\ccllzFQu.s:464    .text.low_level_output:00000070 $d
C:\Users\Luis\AppData\Local\Temp\ccllzFQu.s:470    .text.low_level_input:00000000 $t
C:\Users\Luis\AppData\Local\Temp\ccllzFQu.s:475    .text.low_level_input:00000000 low_level_input
C:\Users\Luis\AppData\Local\Temp\ccllzFQu.s:585    .text.low_level_input:000000a4 $d
C:\Users\Luis\AppData\Local\Temp\ccllzFQu.s:591    .text.ethernetif_init:00000000 $t
C:\Users\Luis\AppData\Local\Temp\ccllzFQu.s:596    .text.ethernetif_init:00000000 ethernetif_init
C:\Users\Luis\AppData\Local\Temp\ccllzFQu.s:646    .text.ethernetif_init:0000003c $d
C:\Users\Luis\AppData\Local\Temp\ccllzFQu.s:652    .rodata:00000000 $d
C:\Users\Luis\AppData\Local\Temp\ccllzFQu.s:656    .text.lwip_thread:00000000 $t
C:\Users\Luis\AppData\Local\Temp\ccllzFQu.s:661    .text.lwip_thread:00000000 lwip_thread
C:\Users\Luis\AppData\Local\Temp\ccllzFQu.s:926    .text.lwip_thread:000001cc $d
C:\Users\Luis\AppData\Local\Temp\ccllzFQu.s:1000   .bss.thisif.8700:00000000 thisif.8700
C:\Users\Luis\AppData\Local\Temp\ccllzFQu.s:1006   .rodata.mac_config.8701:00000000 mac_config.8701
C:\Users\Luis\AppData\Local\Temp\ccllzFQu.s:942    .text.lwipInit:00000000 $t
C:\Users\Luis\AppData\Local\Temp\ccllzFQu.s:948    .text.lwipInit:00000000 lwipInit
C:\Users\Luis\AppData\Local\Temp\ccllzFQu.s:990    .text.lwipInit:00000038 $d
C:\Users\Luis\AppData\Local\Temp\ccllzFQu.s:997    .bss.thisif.8700:00000000 $d
C:\Users\Luis\AppData\Local\Temp\ccllzFQu.s:1003   .rodata.mac_config.8701:00000000 $d
C:\Users\Luis\AppData\Local\Temp\ccllzFQu.s:1009   .rodata.__func__.5842:00000000 $d
                     .debug_frame:00000010 $d
C:\Users\Luis\AppData\Local\Temp\ccllzFQu.s:184    .text.chSysUnlock:0000003c $t
C:\Users\Luis\AppData\Local\Temp\ccllzFQu.s:219    .text.chThdGetSelfX:00000018 $t
C:\Users\Luis\AppData\Local\Temp\ccllzFQu.s:5047   .text.low_level_output:00000078 $t
C:\Users\Luis\AppData\Local\Temp\ccllzFQu.s:590    .text.low_level_input:000000ac $t
C:\Users\Luis\AppData\Local\Temp\ccllzFQu.s:651    .text.ethernetif_init:00000044 $t
C:\Users\Luis\AppData\Local\Temp\ccllzFQu.s:941    .text.lwip_thread:000001fc $t
C:\Users\Luis\AppData\Local\Temp\ccllzFQu.s:996    .text.lwipInit:00000044 $t
ARM GAS  C:\Users\Luis\AppData\Local\Temp\ccllzFQu.s 			page 101



UNDEFINED SYMBOLS
_stats_start_measure_crit_thd
_dbg_check_lock
_dbg_check_unlock
_stats_stop_measure_crit_thd
chSysHalt
ch
chEvtRegisterMaskWithFlags
macWaitTransmitDescriptor
mac_lld_write_transmit_descriptor
macReleaseTransmitDescriptor
ETHD1
lwip_stats
macWaitReceiveDescriptor
pbuf_alloc
mac_lld_read_receive_descriptor
macReleaseReceiveDescriptor
etharp_output
tcpip_init
macStart
netif_add
netif_set_default
netif_set_up
evtObjectInit
evtStart
chEvtAddEvents
chThdResume
chThdSetPriority
chEvtWaitAny
macPollLinkStatus
tcpip_callback_with_block
lwip_htons
pbuf_free
tcpip_input
netif_set_link_up
netif_set_link_down
chThdCreateStatic
chThdSuspendS
