ARM GAS  C:\Users\Luis\AppData\Local\Temp\ccllzFQu.s 			page 1


   1              		.syntax unified
   2              		.cpu cortex-m4
   3              		.fpu softvfp
   4              		.eabi_attribute 20, 1
   5              		.eabi_attribute 21, 1
   6              		.eabi_attribute 23, 3
   7              		.eabi_attribute 24, 1
   8              		.eabi_attribute 25, 1
   9              		.eabi_attribute 26, 1
  10              		.eabi_attribute 30, 6
  11              		.eabi_attribute 34, 1
  12              		.eabi_attribute 18, 4
  13              		.thumb
  14              		.file	"lwipthread.c"
  15              		.text
  16              	.Ltext0:
  17              		.cfi_sections	.debug_frame
  18              		.section	.text.port_lock,"ax",%progbits
  19              		.align	2
  20              		.p2align 4,,15
  21              		.thumb
  22              		.thumb_func
  23              		.type	port_lock, %function
  24              	port_lock:
  25              	.LFB116:
  26              		.file 1 "../../ChibiOS/os/rt/ports/ARMCMx/chcore_v7m.h"
  27              		.loc 1 444 0
  28              		.cfi_startproc
  29              		@ args = 0, pretend = 0, frame = 8
  30              		@ frame_needed = 1, uses_anonymous_args = 0
  31              		@ link register save eliminated.
  32 0000 80B4     		push	{r7}
  33              		.cfi_def_cfa_offset 4
  34              		.cfi_offset 7, -4
  35 0002 83B0     		sub	sp, sp, #12
  36              		.cfi_def_cfa_offset 16
  37 0004 00AF     		add	r7, sp, #0
  38              		.cfi_def_cfa_register 7
  39 0006 2023     		movs	r3, #32
  40 0008 7B60     		str	r3, [r7, #4]
  41              	.LBB6:
  42              	.LBB7:
  43              		.file 2 "../../ChibiOS/os/ext/CMSIS/include/core_cmFunc.h"
  44              		.loc 2 546 0
  45 000a 7B68     		ldr	r3, [r7, #4]
  46              	@ 546 "../../ChibiOS/os/ext/CMSIS/include/core_cmFunc.h" 1
  47 000c 83F31188 		MSR basepri, r3
  48              	@ 0 "" 2
  49              		.thumb
  50              	.LBE7:
  51              	.LBE6:
  52              		.loc 1 451 0
  53 0010 0C37     		adds	r7, r7, #12
  54 0012 BD46     		mov	sp, r7
  55              		@ sp needed
  56 0014 5DF8047B 		ldr	r7, [sp], #4
  57 0018 7047     		bx	lr
ARM GAS  C:\Users\Luis\AppData\Local\Temp\ccllzFQu.s 			page 2


  58              		.cfi_endproc
  59              	.LFE116:
  60              		.size	port_lock, .-port_lock
  61 001a 00BFAFF3 		.section	.text.port_unlock,"ax",%progbits
  61      0080
  62              		.align	2
  63              		.p2align 4,,15
  64              		.thumb
  65              		.thumb_func
  66              		.type	port_unlock, %function
  67              	port_unlock:
  68              	.LFB117:
  69              		.loc 1 458 0
  70              		.cfi_startproc
  71              		@ args = 0, pretend = 0, frame = 8
  72              		@ frame_needed = 1, uses_anonymous_args = 0
  73              		@ link register save eliminated.
  74 0000 80B4     		push	{r7}
  75              		.cfi_def_cfa_offset 4
  76              		.cfi_offset 7, -4
  77 0002 83B0     		sub	sp, sp, #12
  78              		.cfi_def_cfa_offset 16
  79 0004 00AF     		add	r7, sp, #0
  80              		.cfi_def_cfa_register 7
  81 0006 0023     		movs	r3, #0
  82 0008 7B60     		str	r3, [r7, #4]
  83              	.LBB8:
  84              	.LBB9:
  85              		.loc 2 546 0
  86 000a 7B68     		ldr	r3, [r7, #4]
  87              	@ 546 "../../ChibiOS/os/ext/CMSIS/include/core_cmFunc.h" 1
  88 000c 83F31188 		MSR basepri, r3
  89              	@ 0 "" 2
  90              		.thumb
  91              	.LBE9:
  92              	.LBE8:
  93              		.loc 1 465 0
  94 0010 0C37     		adds	r7, r7, #12
  95 0012 BD46     		mov	sp, r7
  96              		@ sp needed
  97 0014 5DF8047B 		ldr	r7, [sp], #4
  98 0018 7047     		bx	lr
  99              		.cfi_endproc
 100              	.LFE117:
 101              		.size	port_unlock, .-port_unlock
 102 001a 00BFAFF3 		.section	.text.chSysLock,"ax",%progbits
 102      0080
 103              		.align	2
 104              		.p2align 4,,15
 105              		.thumb
 106              		.thumb_func
 107              		.type	chSysLock, %function
 108              	chSysLock:
 109              	.LFB156:
 110              		.file 3 "../../ChibiOS/os/rt/include/chsys.h"
 111              		.loc 3 346 0
 112              		.cfi_startproc
ARM GAS  C:\Users\Luis\AppData\Local\Temp\ccllzFQu.s 			page 3


 113              		@ args = 0, pretend = 0, frame = 0
 114              		@ frame_needed = 1, uses_anonymous_args = 0
 115 0000 80B5     		push	{r7, lr}
 116              		.cfi_def_cfa_offset 8
 117              		.cfi_offset 7, -8
 118              		.cfi_offset 14, -4
 119 0002 00AF     		add	r7, sp, #0
 120              		.cfi_def_cfa_register 7
 121              		.loc 3 348 0
 122 0004 FFF7FEFF 		bl	port_lock
 123              		.loc 3 349 0
 124 0008 FFF7FEFF 		bl	_stats_start_measure_crit_thd
 125              		.loc 3 350 0
 126 000c FFF7FEFF 		bl	_dbg_check_lock
 127              		.loc 3 351 0
 128 0010 80BD     		pop	{r7, pc}
 129              		.cfi_endproc
 130              	.LFE156:
 131              		.size	chSysLock, .-chSysLock
 132 0012 00BFAFF3 		.section	.text.chSysUnlock,"ax",%progbits
 132      0080AFF3 
 132      0080AFF3 
 132      0080
 133              		.align	2
 134              		.p2align 4,,15
 135              		.thumb
 136              		.thumb_func
 137              		.type	chSysUnlock, %function
 138              	chSysUnlock:
 139              	.LFB157:
 140              		.loc 3 358 0
 141              		.cfi_startproc
 142              		@ args = 0, pretend = 0, frame = 0
 143              		@ frame_needed = 1, uses_anonymous_args = 0
 144 0000 80B5     		push	{r7, lr}
 145              		.cfi_def_cfa_offset 8
 146              		.cfi_offset 7, -8
 147              		.cfi_offset 14, -4
 148 0002 00AF     		add	r7, sp, #0
 149              		.cfi_def_cfa_register 7
 150              		.loc 3 360 0
 151 0004 FFF7FEFF 		bl	_dbg_check_unlock
 152              		.loc 3 361 0
 153 0008 FFF7FEFF 		bl	_stats_stop_measure_crit_thd
 154              		.loc 3 367 0
 155 000c 094B     		ldr	r3, .L6
 156 000e 1A68     		ldr	r2, [r3]
 157 0010 084B     		ldr	r3, .L6
 158 0012 9A42     		cmp	r2, r3
 159 0014 0AD0     		beq	.L5
 160              		.loc 3 367 0 is_stmt 0 discriminator 1
 161 0016 074B     		ldr	r3, .L6
 162 0018 9B69     		ldr	r3, [r3, #24]
 163 001a 9A68     		ldr	r2, [r3, #8]
 164 001c 054B     		ldr	r3, .L6
 165 001e 1B68     		ldr	r3, [r3]
 166 0020 9B68     		ldr	r3, [r3, #8]
ARM GAS  C:\Users\Luis\AppData\Local\Temp\ccllzFQu.s 			page 4


 167 0022 9A42     		cmp	r2, r3
 168 0024 02D2     		bcs	.L5
 169 0026 0448     		ldr	r0, .L6+4
 170 0028 FFF7FEFF 		bl	chSysHalt
 171              	.L5:
 172              		.loc 3 371 0 is_stmt 1
 173 002c FFF7FEFF 		bl	port_unlock
 174              		.loc 3 372 0
 175 0030 80BD     		pop	{r7, pc}
 176              	.L7:
 177 0032 00BF     		.align	2
 178              	.L6:
 179 0034 00000000 		.word	ch
 180 0038 00000000 		.word	__func__.5842
 181              		.cfi_endproc
 182              	.LFE157:
 183              		.size	chSysUnlock, .-chSysUnlock
 184 003c AFF30080 		.section	.text.chThdGetSelfX,"ax",%progbits
 185              		.align	2
 186              		.p2align 4,,15
 187              		.thumb
 188              		.thumb_func
 189              		.type	chThdGetSelfX, %function
 190              	chThdGetSelfX:
 191              	.LFB177:
 192              		.file 4 "../../ChibiOS/os/rt/include/chthreads.h"
 193              		.loc 4 174 0
 194              		.cfi_startproc
 195              		@ args = 0, pretend = 0, frame = 0
 196              		@ frame_needed = 1, uses_anonymous_args = 0
 197              		@ link register save eliminated.
 198 0000 80B4     		push	{r7}
 199              		.cfi_def_cfa_offset 4
 200              		.cfi_offset 7, -4
 201 0002 00AF     		add	r7, sp, #0
 202              		.cfi_def_cfa_register 7
 203              		.loc 4 176 0
 204 0004 034B     		ldr	r3, .L10
 205 0006 9B69     		ldr	r3, [r3, #24]
 206              		.loc 4 177 0
 207 0008 1846     		mov	r0, r3
 208 000a BD46     		mov	sp, r7
 209              		@ sp needed
 210 000c 5DF8047B 		ldr	r7, [sp], #4
 211 0010 7047     		bx	lr
 212              	.L11:
 213 0012 00BF     		.align	2
 214              	.L10:
 215 0014 00000000 		.word	ch
 216              		.cfi_endproc
 217              	.LFE177:
 218              		.size	chThdGetSelfX, .-chThdGetSelfX
 219 0018 AFF30080 		.section	.text.chThdGetPriorityX,"ax",%progbits
 219      AFF30080 
 220              		.align	2
 221              		.p2align 4,,15
 222              		.thumb
ARM GAS  C:\Users\Luis\AppData\Local\Temp\ccllzFQu.s 			page 5


 223              		.thumb_func
 224              		.type	chThdGetPriorityX, %function
 225              	chThdGetPriorityX:
 226              	.LFB178:
 227              		.loc 4 187 0
 228              		.cfi_startproc
 229              		@ args = 0, pretend = 0, frame = 0
 230              		@ frame_needed = 1, uses_anonymous_args = 0
 231 0000 80B5     		push	{r7, lr}
 232              		.cfi_def_cfa_offset 8
 233              		.cfi_offset 7, -8
 234              		.cfi_offset 14, -4
 235 0002 00AF     		add	r7, sp, #0
 236              		.cfi_def_cfa_register 7
 237              		.loc 4 189 0
 238 0004 FFF7FEFF 		bl	chThdGetSelfX
 239 0008 0346     		mov	r3, r0
 240 000a 9B68     		ldr	r3, [r3, #8]
 241              		.loc 4 190 0
 242 000c 1846     		mov	r0, r3
 243 000e 80BD     		pop	{r7, pc}
 244              		.cfi_endproc
 245              	.LFE178:
 246              		.size	chThdGetPriorityX, .-chThdGetPriorityX
 247              		.section	.text.chRegSetThreadName,"ax",%progbits
 248              		.align	2
 249              		.p2align 4,,15
 250              		.thumb
 251              		.thumb_func
 252              		.type	chRegSetThreadName, %function
 253              	chRegSetThreadName:
 254              	.LFB186:
 255              		.file 5 "../../ChibiOS/os/rt/include/chregistry.h"
 256              		.loc 5 132 0
 257              		.cfi_startproc
 258              		@ args = 0, pretend = 0, frame = 8
 259              		@ frame_needed = 1, uses_anonymous_args = 0
 260              		@ link register save eliminated.
 261 0000 80B4     		push	{r7}
 262              		.cfi_def_cfa_offset 4
 263              		.cfi_offset 7, -4
 264 0002 83B0     		sub	sp, sp, #12
 265              		.cfi_def_cfa_offset 16
 266 0004 00AF     		add	r7, sp, #0
 267              		.cfi_def_cfa_register 7
 268 0006 7860     		str	r0, [r7, #4]
 269              		.loc 5 135 0
 270 0008 044B     		ldr	r3, .L15
 271 000a 9B69     		ldr	r3, [r3, #24]
 272 000c 7A68     		ldr	r2, [r7, #4]
 273 000e 9A61     		str	r2, [r3, #24]
 274              		.loc 5 139 0
 275 0010 0C37     		adds	r7, r7, #12
 276 0012 BD46     		mov	sp, r7
 277              		@ sp needed
 278 0014 5DF8047B 		ldr	r7, [sp], #4
 279 0018 7047     		bx	lr
ARM GAS  C:\Users\Luis\AppData\Local\Temp\ccllzFQu.s 			page 6


 280              	.L16:
 281 001a 00BF     		.align	2
 282              	.L15:
 283 001c 00000000 		.word	ch
 284              		.cfi_endproc
 285              	.LFE186:
 286              		.size	chRegSetThreadName, .-chRegSetThreadName
 287              		.section	.text.chEvtRegisterMask,"ax",%progbits
 288              		.align	2
 289              		.p2align 4,,15
 290              		.thumb
 291              		.thumb_func
 292              		.type	chEvtRegisterMask, %function
 293              	chEvtRegisterMask:
 294              	.LFB205:
 295              		.file 6 "../../ChibiOS/os/rt/include/chevents.h"
 296              		.loc 6 191 0
 297              		.cfi_startproc
 298              		@ args = 0, pretend = 0, frame = 16
 299              		@ frame_needed = 1, uses_anonymous_args = 0
 300 0000 80B5     		push	{r7, lr}
 301              		.cfi_def_cfa_offset 8
 302              		.cfi_offset 7, -8
 303              		.cfi_offset 14, -4
 304 0002 84B0     		sub	sp, sp, #16
 305              		.cfi_def_cfa_offset 24
 306 0004 00AF     		add	r7, sp, #0
 307              		.cfi_def_cfa_register 7
 308 0006 F860     		str	r0, [r7, #12]
 309 0008 B960     		str	r1, [r7, #8]
 310 000a 7A60     		str	r2, [r7, #4]
 311              		.loc 6 193 0
 312 000c F868     		ldr	r0, [r7, #12]
 313 000e B968     		ldr	r1, [r7, #8]
 314 0010 7A68     		ldr	r2, [r7, #4]
 315 0012 4FF0FF33 		mov	r3, #-1
 316 0016 FFF7FEFF 		bl	chEvtRegisterMaskWithFlags
 317              		.loc 6 194 0
 318 001a 1037     		adds	r7, r7, #16
 319 001c BD46     		mov	sp, r7
 320              		@ sp needed
 321 001e 80BD     		pop	{r7, pc}
 322              		.cfi_endproc
 323              	.LFE205:
 324              		.size	chEvtRegisterMask, .-chEvtRegisterMask
 325              		.global	lwip_trp
 326              		.section	.bss.lwip_trp,"aw",%nobits
 327              		.align	2
 328              		.type	lwip_trp, %object
 329              		.size	lwip_trp, 4
 330              	lwip_trp:
 331 0000 00000000 		.space	4
 332              		.section	.bss.wa_lwip_thread,"aw",%nobits
 333              		.align	3
 334              		.type	wa_lwip_thread, %object
 335              		.size	wa_lwip_thread, 816
 336              	wa_lwip_thread:
ARM GAS  C:\Users\Luis\AppData\Local\Temp\ccllzFQu.s 			page 7


 337 0000 00000000 		.space	816
 337      00000000 
 337      00000000 
 337      00000000 
 337      00000000 
 338              		.section	.text.low_level_init,"ax",%progbits
 339              		.align	2
 340              		.p2align 4,,15
 341              		.thumb
 342              		.thumb_func
 343              		.type	low_level_init, %function
 344              	low_level_init:
 345              	.LFB261:
 346              		.file 7 "../../ChibiOS/os/various/lwip_bindings/lwipthread.c"
 347              		.loc 7 95 0
 348              		.cfi_startproc
 349              		@ args = 0, pretend = 0, frame = 8
 350              		@ frame_needed = 1, uses_anonymous_args = 0
 351              		@ link register save eliminated.
 352 0000 80B4     		push	{r7}
 353              		.cfi_def_cfa_offset 4
 354              		.cfi_offset 7, -4
 355 0002 83B0     		sub	sp, sp, #12
 356              		.cfi_def_cfa_offset 16
 357 0004 00AF     		add	r7, sp, #0
 358              		.cfi_def_cfa_register 7
 359 0006 7860     		str	r0, [r7, #4]
 360              		.loc 7 97 0
 361 0008 7B68     		ldr	r3, [r7, #4]
 362 000a 0622     		movs	r2, #6
 363 000c 83F82220 		strb	r2, [r3, #34]
 364              		.loc 7 100 0
 365 0010 7B68     		ldr	r3, [r7, #4]
 366 0012 40F2DC52 		movw	r2, #1500
 367 0016 1A84     		strh	r2, [r3, #32]	@ movhi
 368              		.loc 7 104 0
 369 0018 7B68     		ldr	r3, [r7, #4]
 370 001a 3222     		movs	r2, #50
 371 001c 83F82920 		strb	r2, [r3, #41]
 372              		.loc 7 107 0
 373 0020 0C37     		adds	r7, r7, #12
 374 0022 BD46     		mov	sp, r7
 375              		@ sp needed
 376 0024 5DF8047B 		ldr	r7, [sp], #4
 377 0028 7047     		bx	lr
 378              		.cfi_endproc
 379              	.LFE261:
 380              		.size	low_level_init, .-low_level_init
 381 002a 00BFAFF3 		.section	.text.low_level_output,"ax",%progbits
 381      0080
 382              		.align	2
 383              		.p2align 4,,15
 384              		.thumb
 385              		.thumb_func
 386              		.type	low_level_output, %function
 387              	low_level_output:
 388              	.LFB262:
ARM GAS  C:\Users\Luis\AppData\Local\Temp\ccllzFQu.s 			page 8


 389              		.loc 7 112 0
 390              		.cfi_startproc
 391              		@ args = 0, pretend = 0, frame = 24
 392              		@ frame_needed = 1, uses_anonymous_args = 0
 393 0000 80B5     		push	{r7, lr}
 394              		.cfi_def_cfa_offset 8
 395              		.cfi_offset 7, -8
 396              		.cfi_offset 14, -4
 397 0002 86B0     		sub	sp, sp, #24
 398              		.cfi_def_cfa_offset 32
 399 0004 00AF     		add	r7, sp, #0
 400              		.cfi_def_cfa_register 7
 401 0006 7860     		str	r0, [r7, #4]
 402 0008 3960     		str	r1, [r7]
 403              		.loc 7 117 0
 404 000a 07F10803 		add	r3, r7, #8
 405 000e 1848     		ldr	r0, .L25
 406 0010 1946     		mov	r1, r3
 407 0012 4FF4FA72 		mov	r2, #500
 408 0016 FFF7FEFF 		bl	macWaitTransmitDescriptor
 409 001a 0346     		mov	r3, r0
 410 001c 002B     		cmp	r3, #0
 411 001e 01D0     		beq	.L20
 412              		.loc 7 118 0
 413 0020 FD23     		movs	r3, #253
 414 0022 1FE0     		b	.L24
 415              	.L20:
 416              		.loc 7 125 0
 417 0024 3B68     		ldr	r3, [r7]
 418 0026 7B61     		str	r3, [r7, #20]
 419 0028 0DE0     		b	.L22
 420              	.L23:
 421              		.loc 7 126 0 discriminator 2
 422 002a 7B69     		ldr	r3, [r7, #20]
 423 002c 5A68     		ldr	r2, [r3, #4]
 424 002e 7B69     		ldr	r3, [r7, #20]
 425 0030 5B89     		ldrh	r3, [r3, #10]
 426 0032 07F10801 		add	r1, r7, #8
 427 0036 0846     		mov	r0, r1
 428 0038 1146     		mov	r1, r2
 429 003a 1A46     		mov	r2, r3
 430 003c FFF7FEFF 		bl	mac_lld_write_transmit_descriptor
 431              		.loc 7 125 0 discriminator 2
 432 0040 7B69     		ldr	r3, [r7, #20]
 433 0042 1B68     		ldr	r3, [r3]
 434 0044 7B61     		str	r3, [r7, #20]
 435              	.L22:
 436              		.loc 7 125 0 is_stmt 0 discriminator 1
 437 0046 7B69     		ldr	r3, [r7, #20]
 438 0048 002B     		cmp	r3, #0
 439 004a EED1     		bne	.L23
 440              		.loc 7 127 0 is_stmt 1
 441 004c 07F10803 		add	r3, r7, #8
 442 0050 1846     		mov	r0, r3
 443 0052 FFF7FEFF 		bl	macReleaseTransmitDescriptor
 444              		.loc 7 133 0
 445 0056 074B     		ldr	r3, .L25+4
ARM GAS  C:\Users\Luis\AppData\Local\Temp\ccllzFQu.s 			page 9


 446 0058 1B88     		ldrh	r3, [r3]
 447 005a 0133     		adds	r3, r3, #1
 448 005c 9AB2     		uxth	r2, r3
 449 005e 054B     		ldr	r3, .L25+4
 450 0060 1A80     		strh	r2, [r3]	@ movhi
 451              		.loc 7 135 0
 452 0062 0023     		movs	r3, #0
 453              	.L24:
 454 0064 5BB2     		sxtb	r3, r3
 455              		.loc 7 136 0
 456 0066 1846     		mov	r0, r3
 457 0068 1837     		adds	r7, r7, #24
 458 006a BD46     		mov	sp, r7
 459              		@ sp needed
 460 006c 80BD     		pop	{r7, pc}
 461              	.L26:
 462 006e 00BF     		.align	2
 463              	.L25:
 464 0070 00000000 		.word	ETHD1
 465 0074 00000000 		.word	lwip_stats
 466              		.cfi_endproc
 467              	.LFE262:
 468              		.size	low_level_output, .-low_level_output
 469              		.section	.text.low_level_input,"ax",%progbits
 470              		.align	2
 471              		.p2align 4,,15
 472              		.thumb
 473              		.thumb_func
 474              		.type	low_level_input, %function
 475              	low_level_input:
 476              	.LFB263:
 477              		.loc 7 141 0
 478              		.cfi_startproc
 479              		@ args = 0, pretend = 0, frame = 32
 480              		@ frame_needed = 1, uses_anonymous_args = 0
 481 0000 80B5     		push	{r7, lr}
 482              		.cfi_def_cfa_offset 8
 483              		.cfi_offset 7, -8
 484              		.cfi_offset 14, -4
 485 0002 88B0     		sub	sp, sp, #32
 486              		.cfi_def_cfa_offset 40
 487 0004 00AF     		add	r7, sp, #0
 488              		.cfi_def_cfa_register 7
 489 0006 7860     		str	r0, [r7, #4]
 490              		.loc 7 147 0
 491 0008 07F10803 		add	r3, r7, #8
 492 000c 2548     		ldr	r0, .L35
 493 000e 1946     		mov	r1, r3
 494 0010 0022     		movs	r2, #0
 495 0012 FFF7FEFF 		bl	macWaitReceiveDescriptor
 496 0016 0346     		mov	r3, r0
 497 0018 002B     		cmp	r3, #0
 498 001a 3ED1     		bne	.L28
 499              		.loc 7 148 0
 500 001c FB68     		ldr	r3, [r7, #12]
 501 001e 7B83     		strh	r3, [r7, #26]	@ movhi
 502              		.loc 7 155 0
ARM GAS  C:\Users\Luis\AppData\Local\Temp\ccllzFQu.s 			page 10


 503 0020 7B8B     		ldrh	r3, [r7, #26]
 504 0022 0320     		movs	r0, #3
 505 0024 1946     		mov	r1, r3
 506 0026 0322     		movs	r2, #3
 507 0028 FFF7FEFF 		bl	pbuf_alloc
 508 002c 7861     		str	r0, [r7, #20]
 509              		.loc 7 157 0
 510 002e 7B69     		ldr	r3, [r7, #20]
 511 0030 002B     		cmp	r3, #0
 512 0032 1FD0     		beq	.L29
 513              		.loc 7 164 0
 514 0034 7B69     		ldr	r3, [r7, #20]
 515 0036 FB61     		str	r3, [r7, #28]
 516 0038 0DE0     		b	.L30
 517              	.L31:
 518              		.loc 7 165 0 discriminator 2
 519 003a FB69     		ldr	r3, [r7, #28]
 520 003c 5A68     		ldr	r2, [r3, #4]
 521 003e FB69     		ldr	r3, [r7, #28]
 522 0040 5B89     		ldrh	r3, [r3, #10]
 523 0042 07F10801 		add	r1, r7, #8
 524 0046 0846     		mov	r0, r1
 525 0048 1146     		mov	r1, r2
 526 004a 1A46     		mov	r2, r3
 527 004c FFF7FEFF 		bl	mac_lld_read_receive_descriptor
 528              		.loc 7 164 0 discriminator 2
 529 0050 FB69     		ldr	r3, [r7, #28]
 530 0052 1B68     		ldr	r3, [r3]
 531 0054 FB61     		str	r3, [r7, #28]
 532              	.L30:
 533              		.loc 7 164 0 is_stmt 0 discriminator 1
 534 0056 FB69     		ldr	r3, [r7, #28]
 535 0058 002B     		cmp	r3, #0
 536 005a EED1     		bne	.L31
 537              		.loc 7 166 0 is_stmt 1
 538 005c 07F10803 		add	r3, r7, #8
 539 0060 1846     		mov	r0, r3
 540 0062 FFF7FEFF 		bl	macReleaseReceiveDescriptor
 541              		.loc 7 172 0
 542 0066 104B     		ldr	r3, .L35+4
 543 0068 5B88     		ldrh	r3, [r3, #2]
 544 006a 0133     		adds	r3, r3, #1
 545 006c 9AB2     		uxth	r2, r3
 546 006e 0E4B     		ldr	r3, .L35+4
 547 0070 5A80     		strh	r2, [r3, #2]	@ movhi
 548 0072 10E0     		b	.L32
 549              	.L29:
 550              		.loc 7 175 0
 551 0074 07F10803 		add	r3, r7, #8
 552 0078 1846     		mov	r0, r3
 553 007a FFF7FEFF 		bl	macReleaseReceiveDescriptor
 554              		.loc 7 176 0
 555 007e 0A4B     		ldr	r3, .L35+4
 556 0080 9B89     		ldrh	r3, [r3, #12]
 557 0082 0133     		adds	r3, r3, #1
 558 0084 9AB2     		uxth	r2, r3
 559 0086 084B     		ldr	r3, .L35+4
ARM GAS  C:\Users\Luis\AppData\Local\Temp\ccllzFQu.s 			page 11


 560 0088 9A81     		strh	r2, [r3, #12]	@ movhi
 561              		.loc 7 177 0
 562 008a 074B     		ldr	r3, .L35+4
 563 008c DB88     		ldrh	r3, [r3, #6]
 564 008e 0133     		adds	r3, r3, #1
 565 0090 9AB2     		uxth	r2, r3
 566 0092 054B     		ldr	r3, .L35+4
 567 0094 DA80     		strh	r2, [r3, #6]	@ movhi
 568              	.L32:
 569              		.loc 7 179 0
 570 0096 7B69     		ldr	r3, [r7, #20]
 571 0098 00E0     		b	.L34
 572              	.L28:
 573              		.loc 7 181 0
 574 009a 0023     		movs	r3, #0
 575              	.L34:
 576              		.loc 7 182 0
 577 009c 1846     		mov	r0, r3
 578 009e 2037     		adds	r7, r7, #32
 579 00a0 BD46     		mov	sp, r7
 580              		@ sp needed
 581 00a2 80BD     		pop	{r7, pc}
 582              	.L36:
 583              		.align	2
 584              	.L35:
 585 00a4 00000000 		.word	ETHD1
 586 00a8 00000000 		.word	lwip_stats
 587              		.cfi_endproc
 588              	.LFE263:
 589              		.size	low_level_input, .-low_level_input
 590 00ac AFF30080 		.section	.text.ethernetif_init,"ax",%progbits
 591              		.align	2
 592              		.p2align 4,,15
 593              		.thumb
 594              		.thumb_func
 595              		.type	ethernetif_init, %function
 596              	ethernetif_init:
 597              	.LFB264:
 598              		.loc 7 187 0
 599              		.cfi_startproc
 600              		@ args = 0, pretend = 0, frame = 8
 601              		@ frame_needed = 1, uses_anonymous_args = 0
 602 0000 80B5     		push	{r7, lr}
 603              		.cfi_def_cfa_offset 8
 604              		.cfi_offset 7, -8
 605              		.cfi_offset 14, -4
 606 0002 82B0     		sub	sp, sp, #8
 607              		.cfi_def_cfa_offset 16
 608 0004 00AF     		add	r7, sp, #0
 609              		.cfi_def_cfa_register 7
 610 0006 7860     		str	r0, [r7, #4]
 611              		.loc 7 200 0
 612 0008 7B68     		ldr	r3, [r7, #4]
 613 000a 0022     		movs	r2, #0
 614 000c DA61     		str	r2, [r3, #28]
 615              		.loc 7 201 0
 616 000e 7B68     		ldr	r3, [r7, #4]
ARM GAS  C:\Users\Luis\AppData\Local\Temp\ccllzFQu.s 			page 12


 617 0010 6D22     		movs	r2, #109
 618 0012 83F82A20 		strb	r2, [r3, #42]
 619              		.loc 7 202 0
 620 0016 7B68     		ldr	r3, [r7, #4]
 621 0018 7322     		movs	r2, #115
 622 001a 83F82B20 		strb	r2, [r3, #43]
 623              		.loc 7 207 0
 624 001e 7B68     		ldr	r3, [r7, #4]
 625 0020 064A     		ldr	r2, .L39
 626 0022 5A61     		str	r2, [r3, #20]
 627              		.loc 7 208 0
 628 0024 7B68     		ldr	r3, [r7, #4]
 629 0026 064A     		ldr	r2, .L39+4
 630 0028 9A61     		str	r2, [r3, #24]
 631              		.loc 7 211 0
 632 002a 7868     		ldr	r0, [r7, #4]
 633 002c FFF7FEFF 		bl	low_level_init
 634              		.loc 7 213 0
 635 0030 0023     		movs	r3, #0
 636 0032 5BB2     		sxtb	r3, r3
 637              		.loc 7 214 0
 638 0034 1846     		mov	r0, r3
 639 0036 0837     		adds	r7, r7, #8
 640 0038 BD46     		mov	sp, r7
 641              		@ sp needed
 642 003a 80BD     		pop	{r7, pc}
 643              	.L40:
 644              		.align	2
 645              	.L39:
 646 003c 00000000 		.word	etharp_output
 647 0040 00000000 		.word	low_level_output
 648              		.cfi_endproc
 649              	.LFE264:
 650              		.size	ethernetif_init, .-ethernetif_init
 651 0044 AFF30080 		.section	.rodata
 651      AFF30080 
 651      AFF30080 
 652              		.align	2
 653              	.LC0:
 654 0000 6C776970 		.ascii	"lwipthread\000"
 654      74687265 
 654      616400
 655 000b 00       		.section	.text.lwip_thread,"ax",%progbits
 656              		.align	2
 657              		.p2align 4,,15
 658              		.thumb
 659              		.thumb_func
 660              		.type	lwip_thread, %function
 661              	lwip_thread:
 662              	.LFB265:
 663              		.loc 7 222 0
 664              		.cfi_startproc
 665              		@ args = 0, pretend = 0, frame = 112
 666              		@ frame_needed = 1, uses_anonymous_args = 0
 667 0000 80B5     		push	{r7, lr}
 668              		.cfi_def_cfa_offset 8
 669              		.cfi_offset 7, -8
ARM GAS  C:\Users\Luis\AppData\Local\Temp\ccllzFQu.s 			page 13


 670              		.cfi_offset 14, -4
 671 0002 A0B0     		sub	sp, sp, #128
 672              		.cfi_def_cfa_offset 136
 673 0004 04AF     		add	r7, sp, #16
 674              		.cfi_def_cfa 7, 120
 675 0006 7860     		str	r0, [r7, #4]
 676              		.loc 7 229 0
 677 0008 7048     		ldr	r0, .L54
 678 000a FFF7FEFF 		bl	chRegSetThreadName
 679              		.loc 7 232 0
 680 000e 0020     		movs	r0, #0
 681 0010 0021     		movs	r1, #0
 682 0012 FFF7FEFF 		bl	tcpip_init
 683              		.loc 7 235 0
 684 0016 7B68     		ldr	r3, [r7, #4]
 685 0018 002B     		cmp	r3, #0
 686 001a 1ED0     		beq	.L42
 687              	.LBB10:
 688              		.loc 7 236 0
 689 001c 7B68     		ldr	r3, [r7, #4]
 690 001e BB66     		str	r3, [r7, #104]
 691              		.loc 7 239 0
 692 0020 0023     		movs	r3, #0
 693 0022 FB66     		str	r3, [r7, #108]
 694 0024 0CE0     		b	.L43
 695              	.L44:
 696              		.loc 7 240 0 discriminator 2
 697 0026 BB6E     		ldr	r3, [r7, #104]
 698 0028 1A68     		ldr	r2, [r3]
 699 002a FB6E     		ldr	r3, [r7, #108]
 700 002c 1344     		add	r3, r3, r2
 701 002e 1A78     		ldrb	r2, [r3]	@ zero_extendqisi2
 702 0030 6749     		ldr	r1, .L54+4
 703 0032 FB6E     		ldr	r3, [r7, #108]
 704 0034 0B44     		add	r3, r3, r1
 705 0036 2033     		adds	r3, r3, #32
 706 0038 DA70     		strb	r2, [r3, #3]
 707              		.loc 7 239 0 discriminator 2
 708 003a FB6E     		ldr	r3, [r7, #108]
 709 003c 0133     		adds	r3, r3, #1
 710 003e FB66     		str	r3, [r7, #108]
 711              	.L43:
 712              		.loc 7 239 0 is_stmt 0 discriminator 1
 713 0040 FB6E     		ldr	r3, [r7, #108]
 714 0042 052B     		cmp	r3, #5
 715 0044 EFD9     		bls	.L44
 716              		.loc 7 241 0 is_stmt 1
 717 0046 BB6E     		ldr	r3, [r7, #104]
 718 0048 5B68     		ldr	r3, [r3, #4]
 719 004a 3B61     		str	r3, [r7, #16]
 720              		.loc 7 242 0
 721 004c BB6E     		ldr	r3, [r7, #104]
 722 004e DB68     		ldr	r3, [r3, #12]
 723 0050 FB60     		str	r3, [r7, #12]
 724              		.loc 7 243 0
 725 0052 BB6E     		ldr	r3, [r7, #104]
 726 0054 9B68     		ldr	r3, [r3, #8]
ARM GAS  C:\Users\Luis\AppData\Local\Temp\ccllzFQu.s 			page 14


 727 0056 BB60     		str	r3, [r7, #8]
 728              	.LBE10:
 729 0058 1EE0     		b	.L45
 730              	.L42:
 731              		.loc 7 246 0
 732 005a 5D4B     		ldr	r3, .L54+4
 733 005c C222     		movs	r2, #194
 734 005e 83F82320 		strb	r2, [r3, #35]
 735              		.loc 7 247 0
 736 0062 5B4B     		ldr	r3, .L54+4
 737 0064 AF22     		movs	r2, #175
 738 0066 83F82420 		strb	r2, [r3, #36]
 739              		.loc 7 248 0
 740 006a 594B     		ldr	r3, .L54+4
 741 006c 5122     		movs	r2, #81
 742 006e 83F82520 		strb	r2, [r3, #37]
 743              		.loc 7 249 0
 744 0072 574B     		ldr	r3, .L54+4
 745 0074 0322     		movs	r2, #3
 746 0076 83F82620 		strb	r2, [r3, #38]
 747              		.loc 7 250 0
 748 007a 554B     		ldr	r3, .L54+4
 749 007c CF22     		movs	r2, #207
 750 007e 83F82720 		strb	r2, [r3, #39]
 751              		.loc 7 251 0
 752 0082 534B     		ldr	r3, .L54+4
 753 0084 4622     		movs	r2, #70
 754 0086 83F82820 		strb	r2, [r3, #40]
 755              		.loc 7 252 0
 756 008a 524B     		ldr	r3, .L54+8
 757 008c 3B61     		str	r3, [r7, #16]
 758              		.loc 7 253 0
 759 008e 524B     		ldr	r3, .L54+12
 760 0090 FB60     		str	r3, [r7, #12]
 761              		.loc 7 254 0
 762 0092 6FF07F43 		mvn	r3, #-16777216
 763 0096 BB60     		str	r3, [r7, #8]
 764              	.L45:
 765              		.loc 7 256 0
 766 0098 5048     		ldr	r0, .L54+16
 767 009a 5149     		ldr	r1, .L54+20
 768 009c FFF7FEFF 		bl	macStart
 769              		.loc 7 257 0
 770 00a0 07F11001 		add	r1, r7, #16
 771 00a4 07F10802 		add	r2, r7, #8
 772 00a8 07F10C03 		add	r3, r7, #12
 773 00ac 0020     		movs	r0, #0
 774 00ae 0090     		str	r0, [sp]
 775 00b0 4C48     		ldr	r0, .L54+24
 776 00b2 0190     		str	r0, [sp, #4]
 777 00b4 4C48     		ldr	r0, .L54+28
 778 00b6 0290     		str	r0, [sp, #8]
 779 00b8 4548     		ldr	r0, .L54+4
 780 00ba FFF7FEFF 		bl	netif_add
 781              		.loc 7 259 0
 782 00be 4448     		ldr	r0, .L54+4
 783 00c0 FFF7FEFF 		bl	netif_set_default
ARM GAS  C:\Users\Luis\AppData\Local\Temp\ccllzFQu.s 			page 15


 784              		.loc 7 260 0
 785 00c4 4248     		ldr	r0, .L54+4
 786 00c6 FFF7FEFF 		bl	netif_set_up
 787              		.loc 7 263 0
 788 00ca 07F13C03 		add	r3, r7, #60
 789 00ce 1846     		mov	r0, r3
 790 00d0 4CF25031 		movw	r1, #50000
 791 00d4 FFF7FEFF 		bl	evtObjectInit
 792              		.loc 7 264 0
 793 00d8 07F13C03 		add	r3, r7, #60
 794 00dc 1846     		mov	r0, r3
 795 00de FFF7FEFF 		bl	evtStart
 796              		.loc 7 265 0
 797 00e2 07F13C03 		add	r3, r7, #60
 798 00e6 03F11402 		add	r2, r3, #20
 799 00ea 07F12803 		add	r3, r7, #40
 800 00ee 1046     		mov	r0, r2
 801 00f0 1946     		mov	r1, r3
 802 00f2 0122     		movs	r2, #1
 803 00f4 FFF7FEFF 		bl	chEvtRegisterMask
 804              		.loc 7 266 0
 805 00f8 07F11403 		add	r3, r7, #20
 806 00fc 3B48     		ldr	r0, .L54+32
 807 00fe 1946     		mov	r1, r3
 808 0100 0222     		movs	r2, #2
 809 0102 FFF7FEFF 		bl	chEvtRegisterMask
 810              		.loc 7 267 0
 811 0106 0320     		movs	r0, #3
 812 0108 FFF7FEFF 		bl	chEvtAddEvents
 813              		.loc 7 270 0
 814 010c 3848     		ldr	r0, .L54+36
 815 010e 0021     		movs	r1, #0
 816 0110 FFF7FEFF 		bl	chThdResume
 817              		.loc 7 271 0
 818 0114 0220     		movs	r0, #2
 819 0116 FFF7FEFF 		bl	chThdSetPriority
 820              	.L53:
 821              	.LBB11:
 822              		.loc 7 274 0
 823 011a 4FF0FF30 		mov	r0, #-1
 824 011e FFF7FEFF 		bl	chEvtWaitAny
 825 0122 7866     		str	r0, [r7, #100]
 826              		.loc 7 275 0
 827 0124 7B6E     		ldr	r3, [r7, #100]
 828 0126 03F00103 		and	r3, r3, #1
 829 012a 002B     		cmp	r3, #0
 830 012c 22D0     		beq	.L46
 831              	.LBB12:
 832              		.loc 7 276 0
 833 012e 2B48     		ldr	r0, .L54+16
 834 0130 FFF7FEFF 		bl	macPollLinkStatus
 835 0134 0346     		mov	r3, r0
 836 0136 87F86330 		strb	r3, [r7, #99]
 837              		.loc 7 277 0
 838 013a 97F86320 		ldrb	r2, [r7, #99]	@ zero_extendqisi2
 839 013e 244B     		ldr	r3, .L54+4
 840 0140 93F82930 		ldrb	r3, [r3, #41]	@ zero_extendqisi2
ARM GAS  C:\Users\Luis\AppData\Local\Temp\ccllzFQu.s 			page 16


 841 0144 03F01003 		and	r3, r3, #16
 842 0148 002B     		cmp	r3, #0
 843 014a 0CBF     		ite	eq
 844 014c 0023     		moveq	r3, #0
 845 014e 0123     		movne	r3, #1
 846 0150 DBB2     		uxtb	r3, r3
 847 0152 9A42     		cmp	r2, r3
 848 0154 0ED0     		beq	.L46
 849              		.loc 7 278 0
 850 0156 97F86330 		ldrb	r3, [r7, #99]	@ zero_extendqisi2
 851 015a 002B     		cmp	r3, #0
 852 015c 05D0     		beq	.L47
 853              		.loc 7 279 0
 854 015e 2548     		ldr	r0, .L54+40
 855 0160 1B49     		ldr	r1, .L54+4
 856 0162 0022     		movs	r2, #0
 857 0164 FFF7FEFF 		bl	tcpip_callback_with_block
 858 0168 04E0     		b	.L46
 859              	.L47:
 860              		.loc 7 286 0
 861 016a 2348     		ldr	r0, .L54+44
 862 016c 1849     		ldr	r1, .L54+4
 863 016e 0022     		movs	r2, #0
 864 0170 FFF7FEFF 		bl	tcpip_callback_with_block
 865              	.L46:
 866              	.LBE12:
 867              		.loc 7 294 0
 868 0174 7B6E     		ldr	r3, [r7, #100]
 869 0176 03F00203 		and	r3, r3, #2
 870 017a 002B     		cmp	r3, #0
 871 017c 24D0     		beq	.L48
 872              	.LBB13:
 873              		.loc 7 296 0
 874 017e 1CE0     		b	.L49
 875              	.L52:
 876              	.LBB14:
 877              		.loc 7 297 0
 878 0180 FB6D     		ldr	r3, [r7, #92]
 879 0182 5B68     		ldr	r3, [r3, #4]
 880 0184 BB65     		str	r3, [r7, #88]
 881              		.loc 7 298 0
 882 0186 BB6D     		ldr	r3, [r7, #88]
 883 0188 9B89     		ldrh	r3, [r3, #12]	@ unaligned
 884 018a 9BB2     		uxth	r3, r3
 885 018c 1846     		mov	r0, r3
 886 018e FFF7FEFF 		bl	lwip_htons
 887 0192 0346     		mov	r3, r0
 888 0194 B3F5006F 		cmp	r3, #2048
 889 0198 03D0     		beq	.L51
 890 019a 40F60602 		movw	r2, #2054
 891 019e 9342     		cmp	r3, r2
 892 01a0 08D1     		bne	.L50
 893              	.L51:
 894              		.loc 7 308 0
 895 01a2 0B4B     		ldr	r3, .L54+4
 896 01a4 1B69     		ldr	r3, [r3, #16]
 897 01a6 F86D     		ldr	r0, [r7, #92]
ARM GAS  C:\Users\Luis\AppData\Local\Temp\ccllzFQu.s 			page 17


 898 01a8 0949     		ldr	r1, .L54+4
 899 01aa 9847     		blx	r3
 900 01ac 0346     		mov	r3, r0
 901 01ae 002B     		cmp	r3, #0
 902 01b0 00D1     		bne	.L50
 903              		.loc 7 309 0
 904 01b2 02E0     		b	.L49
 905              	.L50:
 906              		.loc 7 312 0
 907 01b4 F86D     		ldr	r0, [r7, #92]
 908 01b6 FFF7FEFF 		bl	pbuf_free
 909              	.L49:
 910              	.LBE14:
 911              		.loc 7 296 0 discriminator 1
 912 01ba 0548     		ldr	r0, .L54+4
 913 01bc FFF7FEFF 		bl	low_level_input
 914 01c0 F865     		str	r0, [r7, #92]
 915 01c2 FB6D     		ldr	r3, [r7, #92]
 916 01c4 002B     		cmp	r3, #0
 917 01c6 DBD1     		bne	.L52
 918              	.L48:
 919              	.LBE13:
 920              	.LBE11:
 921              		.loc 7 316 0
 922 01c8 A7E7     		b	.L53
 923              	.L55:
 924 01ca 00BF     		.align	2
 925              	.L54:
 926 01cc 00000000 		.word	.LC0
 927 01d0 00000000 		.word	thisif.8700
 928 01d4 0A01001E 		.word	503316746
 929 01d8 0A010001 		.word	16777482
 930 01dc 00000000 		.word	ETHD1
 931 01e0 00000000 		.word	mac_config.8701
 932 01e4 00000000 		.word	ethernetif_init
 933 01e8 00000000 		.word	tcpip_input
 934 01ec 18000000 		.word	ETHD1+24
 935 01f0 00000000 		.word	lwip_trp
 936 01f4 00000000 		.word	netif_set_link_up
 937 01f8 00000000 		.word	netif_set_link_down
 938              		.cfi_endproc
 939              	.LFE265:
 940              		.size	lwip_thread, .-lwip_thread
 941 01fc AFF30080 		.section	.text.lwipInit,"ax",%progbits
 942              		.align	2
 943              		.p2align 4,,15
 944              		.global	lwipInit
 945              		.thumb
 946              		.thumb_func
 947              		.type	lwipInit, %function
 948              	lwipInit:
 949              	.LFB266:
 950              		.loc 7 326 0
 951              		.cfi_startproc
 952              		@ args = 0, pretend = 0, frame = 8
 953              		@ frame_needed = 1, uses_anonymous_args = 0
 954 0000 80B5     		push	{r7, lr}
ARM GAS  C:\Users\Luis\AppData\Local\Temp\ccllzFQu.s 			page 18


 955              		.cfi_def_cfa_offset 8
 956              		.cfi_offset 7, -8
 957              		.cfi_offset 14, -4
 958 0002 84B0     		sub	sp, sp, #16
 959              		.cfi_def_cfa_offset 24
 960 0004 02AF     		add	r7, sp, #8
 961              		.cfi_def_cfa 7, 16
 962 0006 7860     		str	r0, [r7, #4]
 963              		.loc 7 330 0
 964 0008 FFF7FEFF 		bl	chThdGetPriorityX
 965 000c 0346     		mov	r3, r0
 966              		.loc 7 329 0
 967 000e 013B     		subs	r3, r3, #1
 968 0010 7A68     		ldr	r2, [r7, #4]
 969 0012 0092     		str	r2, [sp]
 970 0014 0848     		ldr	r0, .L57
 971 0016 4FF44C71 		mov	r1, #816
 972 001a 1A46     		mov	r2, r3
 973 001c 074B     		ldr	r3, .L57+4
 974 001e FFF7FEFF 		bl	chThdCreateStatic
 975              		.loc 7 335 0
 976 0022 FFF7FEFF 		bl	chSysLock
 977              		.loc 7 336 0
 978 0026 0648     		ldr	r0, .L57+8
 979 0028 FFF7FEFF 		bl	chThdSuspendS
 980              		.loc 7 337 0
 981 002c FFF7FEFF 		bl	chSysUnlock
 982              		.loc 7 338 0
 983 0030 0837     		adds	r7, r7, #8
 984 0032 BD46     		mov	sp, r7
 985              		@ sp needed
 986 0034 80BD     		pop	{r7, pc}
 987              	.L58:
 988 0036 00BF     		.align	2
 989              	.L57:
 990 0038 00000000 		.word	wa_lwip_thread
 991 003c 00000000 		.word	lwip_thread
 992 0040 00000000 		.word	lwip_trp
 993              		.cfi_endproc
 994              	.LFE266:
 995              		.size	lwipInit, .-lwipInit
 996 0044 AFF30080 		.section	.bss.thisif.8700,"aw",%nobits
 996      AFF30080 
 996      AFF30080 
 997              		.align	2
 998              		.type	thisif.8700, %object
 999              		.size	thisif.8700, 48
 1000              	thisif.8700:
 1001 0000 00000000 		.space	48
 1001      00000000 
 1001      00000000 
 1001      00000000 
 1001      00000000 
 1002              		.section	.rodata.mac_config.8701,"a",%progbits
 1003              		.align	2
 1004              		.type	mac_config.8701, %object
 1005              		.size	mac_config.8701, 4
ARM GAS  C:\Users\Luis\AppData\Local\Temp\ccllzFQu.s 			page 19


 1006              	mac_config.8701:
 1007 0000 23000000 		.word	thisif.8700+35
 1008              		.section	.rodata.__func__.5842,"a",%progbits
 1009              		.align	2
 1010              		.type	__func__.5842, %object
 1011              		.size	__func__.5842, 12
 1012              	__func__.5842:
 1013 0000 63685379 		.ascii	"chSysUnlock\000"
 1013      73556E6C 
 1013      6F636B00 
 1014              		.text
 1015              	.Letext0:
 1016              		.file 8 "c:\\emtechesdk\\gcc\\lib\\gcc\\arm-none-eabi\\4.8.3\\include\\stddef.h"
 1017              		.file 9 "c:\\emtechesdk\\gcc\\arm-none-eabi\\include\\stdint.h"
 1018              		.file 10 "../../ChibiOS/os/rt/ports/ARMCMx/compilers/GCC/chtypes.h"
 1019              		.file 11 "../../ChibiOS/os/rt/include/chsystypes.h"
 1020              		.file 12 "../../ChibiOS/os/rt/include/chschd.h"
 1021              		.file 13 "../../ChibiOS/os/rt/ports/ARMCMx/chcore.h"
 1022              		.file 14 "../../ChibiOS/os/rt/include/chdebug.h"
 1023              		.file 15 "../../ChibiOS/os/rt/include/chtm.h"
 1024              		.file 16 "../../ChibiOS/os/rt/include/chstats.h"
 1025              		.file 17 "../../ChibiOS/os/rt/include/chsem.h"
 1026              		.file 18 "../../ChibiOS/os/rt/include/chmtx.h"
 1027              		.file 19 "../../ChibiOS/os/hal/include/mac.h"
 1028              		.file 20 "../../ChibiOS/os/hal/ports/STM32/LLD/mac_lld.h"
 1029              		.file 21 "../../ChibiOS/os/various/evtimer.h"
 1030              		.file 22 "../../ChibiOS/os/various/lwip_bindings/arch/cc.h"
 1031              		.file 23 "../../ChibiOS/os/various/lwip_bindings/lwipthread.h"
 1032              		.file 24 "../../ChibiOS/ext/lwip/src/include/lwip/mem.h"
 1033              		.file 25 "../../ChibiOS/ext/lwip/src/include/lwip/err.h"
 1034              		.file 26 "../../ChibiOS/ext/lwip/src/include/lwip/pbuf.h"
 1035              		.file 27 "../../ChibiOS/ext/lwip/src/include/lwip/memp.h"
 1036              		.file 28 "../../ChibiOS/ext/lwip/src/include/lwip/stats.h"
 1037              		.file 29 "../../ChibiOS/ext/lwip/src/include/ipv4/lwip/ip_addr.h"
 1038              		.file 30 "../../ChibiOS/ext/lwip/src/include/lwip/netif.h"
 1039              		.file 31 "../../ChibiOS/ext/lwip/src/include/lwip/tcpip.h"
 1040              		.file 32 "../../ChibiOS/ext/lwip/src/include/netif/etharp.h"
 1041              		.file 33 "../../ChibiOS/os/ext/CMSIS/include/core_cm4.h"