ARM GAS  C:\Users\Luis\AppData\Local\Temp\cceSVzfR.s 			page 1


   1              		.syntax unified
   2              		.cpu cortex-m4
   3              		.fpu softvfp
   4              		.eabi_attribute 20, 1
   5              		.eabi_attribute 21, 1
   6              		.eabi_attribute 23, 3
   7              		.eabi_attribute 24, 1
   8              		.eabi_attribute 25, 1
   9              		.eabi_attribute 26, 1
  10              		.eabi_attribute 30, 6
  11              		.eabi_attribute 34, 1
  12              		.eabi_attribute 18, 4
  13              		.thumb
  14              		.file	"main.c"
  15              		.text
  16              	.Ltext0:
  17              		.cfi_sections	.debug_frame
  18              		.section	.text.chRegSetThreadName,"ax",%progbits
  19              		.align	2
  20              		.p2align 4,,15
  21              		.thumb
  22              		.thumb_func
  23              		.type	chRegSetThreadName, %function
  24              	chRegSetThreadName:
  25              	.LFB186:
  26              		.file 1 "../../ChibiOS/os/rt/include/chregistry.h"
  27              		.loc 1 132 0
  28              		.cfi_startproc
  29              		@ args = 0, pretend = 0, frame = 8
  30              		@ frame_needed = 1, uses_anonymous_args = 0
  31              		@ link register save eliminated.
  32 0000 80B4     		push	{r7}
  33              		.cfi_def_cfa_offset 4
  34              		.cfi_offset 7, -4
  35 0002 83B0     		sub	sp, sp, #12
  36              		.cfi_def_cfa_offset 16
  37 0004 00AF     		add	r7, sp, #0
  38              		.cfi_def_cfa_register 7
  39 0006 7860     		str	r0, [r7, #4]
  40              		.loc 1 135 0
  41 0008 044B     		ldr	r3, .L2
  42 000a 9B69     		ldr	r3, [r3, #24]
  43 000c 7A68     		ldr	r2, [r7, #4]
  44 000e 9A61     		str	r2, [r3, #24]
  45              		.loc 1 139 0
  46 0010 0C37     		adds	r7, r7, #12
  47 0012 BD46     		mov	sp, r7
  48              		@ sp needed
  49 0014 5DF8047B 		ldr	r7, [sp], #4
  50 0018 7047     		bx	lr
  51              	.L3:
  52 001a 00BF     		.align	2
  53              	.L2:
  54 001c 00000000 		.word	ch
  55              		.cfi_endproc
  56              	.LFE186:
  57              		.size	chRegSetThreadName, .-chRegSetThreadName
ARM GAS  C:\Users\Luis\AppData\Local\Temp\cceSVzfR.s 			page 2


  58              		.section	.bss.waThread1,"aw",%nobits
  59              		.align	3
  60              		.type	waThread1, %object
  61              		.size	waThread1, 496
  62              	waThread1:
  63 0000 00000000 		.space	496
  63      00000000 
  63      00000000 
  63      00000000 
  63      00000000 
  64              		.section	.rodata
  65              		.align	2
  66              	.LC0:
  67 0000 626C696E 		.ascii	"blinker\000"
  67      6B657200 
  68              		.section	.text.Thread1,"ax",%progbits
  69              		.align	2
  70              		.p2align 4,,15
  71              		.thumb
  72              		.thumb_func
  73              		.type	Thread1, %function
  74              	Thread1:
  75              	.LFB260:
  76              		.file 2 "main.c"
  77              		.loc 2 8 0
  78              		.cfi_startproc
  79              		@ args = 0, pretend = 0, frame = 8
  80              		@ frame_needed = 1, uses_anonymous_args = 0
  81 0000 80B5     		push	{r7, lr}
  82              		.cfi_def_cfa_offset 8
  83              		.cfi_offset 7, -8
  84              		.cfi_offset 14, -4
  85 0002 82B0     		sub	sp, sp, #8
  86              		.cfi_def_cfa_offset 16
  87 0004 00AF     		add	r7, sp, #0
  88              		.cfi_def_cfa_register 7
  89 0006 7860     		str	r0, [r7, #4]
  90              		.loc 2 11 0
  91 0008 0648     		ldr	r0, .L6
  92 000a FFF7FEFF 		bl	chRegSetThreadName
  93              	.L5:
  94              		.loc 2 13 0 discriminator 1
  95 000e 064B     		ldr	r3, .L6+4
  96 0010 054A     		ldr	r2, .L6+4
  97 0012 5269     		ldr	r2, [r2, #20]
  98 0014 82F00402 		eor	r2, r2, #4
  99 0018 5A61     		str	r2, [r3, #20]
 100              		.loc 2 14 0 discriminator 1
 101 001a 41F28830 		movw	r0, #5000
 102 001e FFF7FEFF 		bl	chThdSleep
 103              		.loc 2 15 0 discriminator 1
 104 0022 F4E7     		b	.L5
 105              	.L7:
 106              		.align	2
 107              	.L6:
 108 0024 00000000 		.word	.LC0
 109 0028 00180240 		.word	1073879040
ARM GAS  C:\Users\Luis\AppData\Local\Temp\cceSVzfR.s 			page 3


 110              		.cfi_endproc
 111              	.LFE260:
 112              		.size	Thread1, .-Thread1
 113 002c AFF30080 		.section	.text.main,"ax",%progbits
 114              		.align	2
 115              		.p2align 4,,15
 116              		.global	main
 117              		.thumb
 118              		.thumb_func
 119              		.type	main, %function
 120              	main:
 121              	.LFB261:
 122              		.loc 2 18 0
 123              		.cfi_startproc
 124              		@ args = 0, pretend = 0, frame = 0
 125              		@ frame_needed = 1, uses_anonymous_args = 0
 126 0000 80B5     		push	{r7, lr}
 127              		.cfi_def_cfa_offset 8
 128              		.cfi_offset 7, -8
 129              		.cfi_offset 14, -4
 130 0002 82B0     		sub	sp, sp, #8
 131              		.cfi_def_cfa_offset 16
 132 0004 02AF     		add	r7, sp, #8
 133              		.cfi_def_cfa 7, 8
 134              		.loc 2 20 0
 135 0006 FFF7FEFF 		bl	halInit
 136              		.loc 2 21 0
 137 000a FFF7FEFF 		bl	chSysInit
 138              		.loc 2 22 0
 139 000e 0020     		movs	r0, #0
 140 0010 FFF7FEFF 		bl	lwipInit
 141              		.loc 2 24 0
 142 0014 0023     		movs	r3, #0
 143 0016 0093     		str	r3, [sp]
 144 0018 0A48     		ldr	r0, .L10
 145 001a 4FF4F871 		mov	r1, #496
 146 001e 4022     		movs	r2, #64
 147 0020 094B     		ldr	r3, .L10+4
 148 0022 FFF7FEFF 		bl	chThdCreateStatic
 149              		.loc 2 26 0
 150 0026 0023     		movs	r3, #0
 151 0028 0093     		str	r3, [sp]
 152 002a 0848     		ldr	r0, .L10+8
 153 002c 4FF49E61 		mov	r1, #1264
 154 0030 0422     		movs	r2, #4
 155 0032 074B     		ldr	r3, .L10+12
 156 0034 FFF7FEFF 		bl	chThdCreateStatic
 157              	.L9:
 158              		.loc 2 30 0 discriminator 1
 159 0038 41F28830 		movw	r0, #5000
 160 003c FFF7FEFF 		bl	chThdSleep
 161              		.loc 2 31 0 discriminator 1
 162 0040 FAE7     		b	.L9
 163              	.L11:
 164 0042 00BF     		.align	2
 165              	.L10:
 166 0044 00000000 		.word	waThread1
ARM GAS  C:\Users\Luis\AppData\Local\Temp\cceSVzfR.s 			page 4


 167 0048 00000000 		.word	Thread1
 168 004c 00000000 		.word	wa_http_server
 169 0050 00000000 		.word	http_server
 170              		.cfi_endproc
 171              	.LFE261:
 172              		.size	main, .-main
 173 0054 AFF30080 		.text
 173      AFF30080 
 173      AFF30080 
 174              	.Letext0:
 175              		.file 3 "c:\\emtechesdk\\gcc\\lib\\gcc\\arm-none-eabi\\4.8.3\\include\\stddef.h"
 176              		.file 4 "c:\\emtechesdk\\gcc\\arm-none-eabi\\include\\stdint.h"
 177              		.file 5 "../../ChibiOS/os/rt/ports/ARMCMx/compilers/GCC/chtypes.h"
 178              		.file 6 "../../ChibiOS/os/rt/include/chsystypes.h"
 179              		.file 7 "../../ChibiOS/os/rt/include/chschd.h"
 180              		.file 8 "../../ChibiOS/os/rt/ports/ARMCMx/chcore.h"
 181              		.file 9 "../../ChibiOS/os/rt/ports/ARMCMx/chcore_v7m.h"
 182              		.file 10 "../../ChibiOS/os/rt/include/chdebug.h"
 183              		.file 11 "../../ChibiOS/os/rt/include/chtm.h"
 184              		.file 12 "../../ChibiOS/os/rt/include/chstats.h"
 185              		.file 13 "../../ChibiOS/os/rt/include/chsem.h"
 186              		.file 14 "../../ChibiOS/os/rt/include/chmtx.h"
 187              		.file 15 "../../ChibiOS/os/hal/ports/STM32/LLD/GPIOv2/pal_lld.h"
 188              		.file 16 "../../ChibiOS/os/ext/CMSIS/include/core_cm4.h"
 189              		.file 17 "web/web.h"
 190              		.section	.debug_info,"",%progbits
 191              	.Ldebug_info0:
 192 0000 43090000 		.4byte	0x943
 193 0004 0400     		.2byte	0x4
 194 0006 00000000 		.4byte	.Ldebug_abbrev0
 195 000a 04       		.byte	0x4
 196 000b 01       		.uleb128 0x1
 197 000c DA040000 		.4byte	.LASF144
 198 0010 01       		.byte	0x1
 199 0011 DD020000 		.4byte	.LASF145
 200 0015 B5010000 		.4byte	.LASF146
 201 0019 00000000 		.4byte	.Ldebug_ranges0+0
 202 001d 00000000 		.4byte	0
 203 0021 00000000 		.4byte	.Ldebug_line0
 204 0025 02       		.uleb128 0x2
 205 0026 04       		.byte	0x4
 206 0027 05       		.byte	0x5
 207 0028 696E7400 		.ascii	"int\000"
 208 002c 03       		.uleb128 0x3
 209 002d 1C000000 		.4byte	.LASF2
 210 0031 03       		.byte	0x3
 211 0032 D4       		.byte	0xd4
 212 0033 37000000 		.4byte	0x37
 213 0037 04       		.uleb128 0x4
 214 0038 04       		.byte	0x4
 215 0039 07       		.byte	0x7
 216 003a 46020000 		.4byte	.LASF0
 217 003e 04       		.uleb128 0x4
 218 003f 01       		.byte	0x1
 219 0040 06       		.byte	0x6
 220 0041 2C010000 		.4byte	.LASF1
 221 0045 03       		.uleb128 0x3
ARM GAS  C:\Users\Luis\AppData\Local\Temp\cceSVzfR.s 			page 5


 222 0046 35060000 		.4byte	.LASF3
 223 004a 04       		.byte	0x4
 224 004b 2A       		.byte	0x2a
 225 004c 50000000 		.4byte	0x50
 226 0050 04       		.uleb128 0x4
 227 0051 01       		.byte	0x1
 228 0052 08       		.byte	0x8
 229 0053 1A040000 		.4byte	.LASF4
 230 0057 04       		.uleb128 0x4
 231 0058 02       		.byte	0x2
 232 0059 05       		.byte	0x5
 233 005a 32040000 		.4byte	.LASF5
 234 005e 03       		.uleb128 0x3
 235 005f 5B020000 		.4byte	.LASF6
 236 0063 04       		.byte	0x4
 237 0064 36       		.byte	0x36
 238 0065 69000000 		.4byte	0x69
 239 0069 04       		.uleb128 0x4
 240 006a 02       		.byte	0x2
 241 006b 07       		.byte	0x7
 242 006c 93020000 		.4byte	.LASF7
 243 0070 03       		.uleb128 0x3
 244 0071 12040000 		.4byte	.LASF8
 245 0075 04       		.byte	0x4
 246 0076 4F       		.byte	0x4f
 247 0077 7B000000 		.4byte	0x7b
 248 007b 04       		.uleb128 0x4
 249 007c 04       		.byte	0x4
 250 007d 05       		.byte	0x5
 251 007e 64010000 		.4byte	.LASF9
 252 0082 03       		.uleb128 0x3
 253 0083 92040000 		.4byte	.LASF10
 254 0087 04       		.byte	0x4
 255 0088 50       		.byte	0x50
 256 0089 8D000000 		.4byte	0x8d
 257 008d 04       		.uleb128 0x4
 258 008e 04       		.byte	0x4
 259 008f 07       		.byte	0x7
 260 0090 C3040000 		.4byte	.LASF11
 261 0094 04       		.uleb128 0x4
 262 0095 08       		.byte	0x8
 263 0096 05       		.byte	0x5
 264 0097 1E010000 		.4byte	.LASF12
 265 009b 03       		.uleb128 0x3
 266 009c 2A000000 		.4byte	.LASF13
 267 00a0 04       		.byte	0x4
 268 00a1 78       		.byte	0x78
 269 00a2 A6000000 		.4byte	0xa6
 270 00a6 04       		.uleb128 0x4
 271 00a7 08       		.byte	0x8
 272 00a8 07       		.byte	0x7
 273 00a9 9F000000 		.4byte	.LASF14
 274 00ad 05       		.uleb128 0x5
 275 00ae 70000000 		.4byte	0x70
 276 00b2 05       		.uleb128 0x5
 277 00b3 82000000 		.4byte	0x82
 278 00b7 03       		.uleb128 0x3
ARM GAS  C:\Users\Luis\AppData\Local\Temp\cceSVzfR.s 			page 6


 279 00b8 EF050000 		.4byte	.LASF15
 280 00bc 05       		.byte	0x5
 281 00bd 45       		.byte	0x45
 282 00be 82000000 		.4byte	0x82
 283 00c2 03       		.uleb128 0x3
 284 00c3 0E010000 		.4byte	.LASF16
 285 00c7 05       		.byte	0x5
 286 00c8 46       		.byte	0x46
 287 00c9 9B000000 		.4byte	0x9b
 288 00cd 03       		.uleb128 0x3
 289 00ce E4020000 		.4byte	.LASF17
 290 00d2 05       		.byte	0x5
 291 00d3 48       		.byte	0x48
 292 00d4 45000000 		.4byte	0x45
 293 00d8 03       		.uleb128 0x3
 294 00d9 6D010000 		.4byte	.LASF18
 295 00dd 05       		.byte	0x5
 296 00de 49       		.byte	0x49
 297 00df 45000000 		.4byte	0x45
 298 00e3 03       		.uleb128 0x3
 299 00e4 D2030000 		.4byte	.LASF19
 300 00e8 05       		.byte	0x5
 301 00e9 4A       		.byte	0x4a
 302 00ea 45000000 		.4byte	0x45
 303 00ee 03       		.uleb128 0x3
 304 00ef FB030000 		.4byte	.LASF20
 305 00f3 05       		.byte	0x5
 306 00f4 4C       		.byte	0x4c
 307 00f5 82000000 		.4byte	0x82
 308 00f9 03       		.uleb128 0x3
 309 00fa BF020000 		.4byte	.LASF21
 310 00fe 05       		.byte	0x5
 311 00ff 4D       		.byte	0x4d
 312 0100 70000000 		.4byte	0x70
 313 0104 03       		.uleb128 0x3
 314 0105 05030000 		.4byte	.LASF22
 315 0109 05       		.byte	0x5
 316 010a 4F       		.byte	0x4f
 317 010b 82000000 		.4byte	0x82
 318 010f 03       		.uleb128 0x3
 319 0110 35020000 		.4byte	.LASF23
 320 0114 05       		.byte	0x5
 321 0115 51       		.byte	0x51
 322 0116 70000000 		.4byte	0x70
 323 011a 03       		.uleb128 0x3
 324 011b CA020000 		.4byte	.LASF24
 325 011f 05       		.byte	0x5
 326 0120 52       		.byte	0x52
 327 0121 82000000 		.4byte	0x82
 328 0125 03       		.uleb128 0x3
 329 0126 B8050000 		.4byte	.LASF25
 330 012a 06       		.byte	0x6
 331 012b 33       		.byte	0x33
 332 012c 82000000 		.4byte	0x82
 333 0130 03       		.uleb128 0x3
 334 0131 26060000 		.4byte	.LASF26
 335 0135 06       		.byte	0x6
ARM GAS  C:\Users\Luis\AppData\Local\Temp\cceSVzfR.s 			page 7


 336 0136 3F       		.byte	0x3f
 337 0137 3B010000 		.4byte	0x13b
 338 013b 06       		.uleb128 0x6
 339 013c B5020000 		.4byte	.LASF49
 340 0140 68       		.byte	0x68
 341 0141 07       		.byte	0x7
 342 0142 C2       		.byte	0xc2
 343 0143 4E020000 		.4byte	0x24e
 344 0147 07       		.uleb128 0x7
 345 0148 52040000 		.4byte	.LASF27
 346 014c 07       		.byte	0x7
 347 014d C3       		.byte	0xc3
 348 014e 59020000 		.4byte	0x259
 349 0152 00       		.byte	0
 350 0153 07       		.uleb128 0x7
 351 0154 F4030000 		.4byte	.LASF28
 352 0158 07       		.byte	0x7
 353 0159 C5       		.byte	0xc5
 354 015a 59020000 		.4byte	0x259
 355 015e 04       		.byte	0x4
 356 015f 07       		.uleb128 0x7
 357 0160 17010000 		.4byte	.LASF29
 358 0164 07       		.byte	0x7
 359 0165 C7       		.byte	0xc7
 360 0166 EE000000 		.4byte	0xee
 361 016a 08       		.byte	0x8
 362 016b 07       		.uleb128 0x7
 363 016c A2060000 		.4byte	.LASF30
 364 0170 07       		.byte	0x7
 365 0171 C8       		.byte	0xc8
 366 0172 C2040000 		.4byte	0x4c2
 367 0176 0C       		.byte	0xc
 368 0177 07       		.uleb128 0x7
 369 0178 7C010000 		.4byte	.LASF31
 370 017c 07       		.byte	0x7
 371 017d CA       		.byte	0xca
 372 017e 59020000 		.4byte	0x259
 373 0182 10       		.byte	0x10
 374 0183 07       		.uleb128 0x7
 375 0184 82030000 		.4byte	.LASF32
 376 0188 07       		.byte	0x7
 377 0189 CB       		.byte	0xcb
 378 018a 59020000 		.4byte	0x259
 379 018e 14       		.byte	0x14
 380 018f 07       		.uleb128 0x7
 381 0190 44060000 		.4byte	.LASF33
 382 0194 07       		.byte	0x7
 383 0195 D2       		.byte	0xd2
 384 0196 66070000 		.4byte	0x766
 385 019a 18       		.byte	0x18
 386 019b 07       		.uleb128 0x7
 387 019c 3B020000 		.4byte	.LASF34
 388 01a0 07       		.byte	0x7
 389 01a1 D8       		.byte	0xd8
 390 01a2 78070000 		.4byte	0x778
 391 01a6 1C       		.byte	0x1c
 392 01a7 07       		.uleb128 0x7
ARM GAS  C:\Users\Luis\AppData\Local\Temp\cceSVzfR.s 			page 8


 393 01a8 3C040000 		.4byte	.LASF35
 394 01ac 07       		.byte	0x7
 395 01ad DD       		.byte	0xdd
 396 01ae D8000000 		.4byte	0xd8
 397 01b2 20       		.byte	0x20
 398 01b3 07       		.uleb128 0x7
 399 01b4 59040000 		.4byte	.LASF36
 400 01b8 07       		.byte	0x7
 401 01b9 E1       		.byte	0xe1
 402 01ba CD000000 		.4byte	0xcd
 403 01be 21       		.byte	0x21
 404 01bf 07       		.uleb128 0x7
 405 01c0 17060000 		.4byte	.LASF37
 406 01c4 07       		.byte	0x7
 407 01c5 E6       		.byte	0xe6
 408 01c6 E3000000 		.4byte	0xe3
 409 01ca 22       		.byte	0x22
 410 01cb 08       		.uleb128 0x8
 411 01cc 705F7500 		.ascii	"p_u\000"
 412 01d0 07       		.byte	0x7
 413 01d1 3101     		.2byte	0x131
 414 01d3 A1060000 		.4byte	0x6a1
 415 01d7 24       		.byte	0x24
 416 01d8 09       		.uleb128 0x9
 417 01d9 24030000 		.4byte	.LASF38
 418 01dd 07       		.byte	0x7
 419 01de 3601     		.2byte	0x136
 420 01e0 5F020000 		.4byte	0x25f
 421 01e4 28       		.byte	0x28
 422 01e5 09       		.uleb128 0x9
 423 01e6 6B020000 		.4byte	.LASF39
 424 01ea 07       		.byte	0x7
 425 01eb 3C01     		.2byte	0x13c
 426 01ed 83020000 		.4byte	0x283
 427 01f1 2C       		.byte	0x2c
 428 01f2 09       		.uleb128 0x9
 429 01f3 67060000 		.4byte	.LASF40
 430 01f7 07       		.byte	0x7
 431 01f8 4001     		.2byte	0x140
 432 01fa F9000000 		.4byte	0xf9
 433 01fe 34       		.byte	0x34
 434 01ff 09       		.uleb128 0x9
 435 0200 87040000 		.4byte	.LASF41
 436 0204 07       		.byte	0x7
 437 0205 4601     		.2byte	0x146
 438 0207 04010000 		.4byte	0x104
 439 020b 38       		.byte	0x38
 440 020c 09       		.uleb128 0x9
 441 020d 28040000 		.4byte	.LASF42
 442 0211 07       		.byte	0x7
 443 0212 4D01     		.2byte	0x14d
 444 0214 60070000 		.4byte	0x760
 445 0218 3C       		.byte	0x3c
 446 0219 09       		.uleb128 0x9
 447 021a C2050000 		.4byte	.LASF43
 448 021e 07       		.byte	0x7
 449 021f 5101     		.2byte	0x151
ARM GAS  C:\Users\Luis\AppData\Local\Temp\cceSVzfR.s 			page 9


 450 0221 EE000000 		.4byte	0xee
 451 0225 40       		.byte	0x40
 452 0226 09       		.uleb128 0x9
 453 0227 3D010000 		.4byte	.LASF44
 454 022b 07       		.byte	0x7
 455 022c 5801     		.2byte	0x158
 456 022e 36030000 		.4byte	0x336
 457 0232 44       		.byte	0x44
 458 0233 09       		.uleb128 0x9
 459 0234 61040000 		.4byte	.LASF45
 460 0238 07       		.byte	0x7
 461 0239 5E01     		.2byte	0x15e
 462 023b 52060000 		.4byte	0x652
 463 023f 48       		.byte	0x48
 464 0240 09       		.uleb128 0x9
 465 0241 76020000 		.4byte	.LASF46
 466 0245 07       		.byte	0x7
 467 0246 6201     		.2byte	0x162
 468 0248 36030000 		.4byte	0x336
 469 024c 60       		.byte	0x60
 470 024d 00       		.byte	0
 471 024e 03       		.uleb128 0x3
 472 024f 37030000 		.4byte	.LASF47
 473 0253 06       		.byte	0x6
 474 0254 44       		.byte	0x44
 475 0255 59020000 		.4byte	0x259
 476 0259 0A       		.uleb128 0xa
 477 025a 04       		.byte	0x4
 478 025b 30010000 		.4byte	0x130
 479 025f 03       		.uleb128 0x3
 480 0260 4B060000 		.4byte	.LASF48
 481 0264 06       		.byte	0x6
 482 0265 49       		.byte	0x49
 483 0266 6A020000 		.4byte	0x26a
 484 026a 06       		.uleb128 0x6
 485 026b B3040000 		.4byte	.LASF50
 486 026f 04       		.byte	0x4
 487 0270 07       		.byte	0x7
 488 0271 B0       		.byte	0xb0
 489 0272 83020000 		.4byte	0x283
 490 0276 07       		.uleb128 0x7
 491 0277 52040000 		.4byte	.LASF27
 492 027b 07       		.byte	0x7
 493 027c B1       		.byte	0xb1
 494 027d 59020000 		.4byte	0x259
 495 0281 00       		.byte	0
 496 0282 00       		.byte	0
 497 0283 03       		.uleb128 0x3
 498 0284 FE050000 		.4byte	.LASF51
 499 0288 06       		.byte	0x6
 500 0289 50       		.byte	0x50
 501 028a 8E020000 		.4byte	0x28e
 502 028e 06       		.uleb128 0x6
 503 028f 53000000 		.4byte	.LASF52
 504 0293 08       		.byte	0x8
 505 0294 07       		.byte	0x7
 506 0295 B7       		.byte	0xb7
ARM GAS  C:\Users\Luis\AppData\Local\Temp\cceSVzfR.s 			page 10


 507 0296 B3020000 		.4byte	0x2b3
 508 029a 07       		.uleb128 0x7
 509 029b 52040000 		.4byte	.LASF27
 510 029f 07       		.byte	0x7
 511 02a0 B8       		.byte	0xb8
 512 02a1 59020000 		.4byte	0x259
 513 02a5 00       		.byte	0
 514 02a6 07       		.uleb128 0x7
 515 02a7 F4030000 		.4byte	.LASF28
 516 02ab 07       		.byte	0x7
 517 02ac B9       		.byte	0xb9
 518 02ad 59020000 		.4byte	0x259
 519 02b1 04       		.byte	0x4
 520 02b2 00       		.byte	0
 521 02b3 03       		.uleb128 0x3
 522 02b4 07000000 		.4byte	.LASF53
 523 02b8 06       		.byte	0x6
 524 02b9 57       		.byte	0x57
 525 02ba BE020000 		.4byte	0x2be
 526 02be 0B       		.uleb128 0xb
 527 02bf F7020000 		.4byte	.LASF54
 528 02c3 1C       		.byte	0x1c
 529 02c4 07       		.byte	0x7
 530 02c5 9001     		.2byte	0x190
 531 02c7 1A030000 		.4byte	0x31a
 532 02cb 09       		.uleb128 0x9
 533 02cc A2040000 		.4byte	.LASF55
 534 02d0 07       		.byte	0x7
 535 02d1 9101     		.2byte	0x191
 536 02d3 83020000 		.4byte	0x283
 537 02d7 00       		.byte	0
 538 02d8 09       		.uleb128 0x9
 539 02d9 44040000 		.4byte	.LASF56
 540 02dd 07       		.byte	0x7
 541 02de 9201     		.2byte	0x192
 542 02e0 EE000000 		.4byte	0xee
 543 02e4 08       		.byte	0x8
 544 02e5 09       		.uleb128 0x9
 545 02e6 8A030000 		.4byte	.LASF57
 546 02ea 07       		.byte	0x7
 547 02eb 9401     		.2byte	0x194
 548 02ed C2040000 		.4byte	0x4c2
 549 02f1 0C       		.byte	0xc
 550 02f2 09       		.uleb128 0x9
 551 02f3 9C010000 		.4byte	.LASF58
 552 02f7 07       		.byte	0x7
 553 02f8 9701     		.2byte	0x197
 554 02fa 59020000 		.4byte	0x259
 555 02fe 10       		.byte	0x10
 556 02ff 09       		.uleb128 0x9
 557 0300 AB030000 		.4byte	.LASF59
 558 0304 07       		.byte	0x7
 559 0305 9801     		.2byte	0x198
 560 0307 59020000 		.4byte	0x259
 561 030b 14       		.byte	0x14
 562 030c 09       		.uleb128 0x9
 563 030d A1030000 		.4byte	.LASF60
ARM GAS  C:\Users\Luis\AppData\Local\Temp\cceSVzfR.s 			page 11


 564 0311 07       		.byte	0x7
 565 0312 9B01     		.2byte	0x19b
 566 0314 59020000 		.4byte	0x259
 567 0318 18       		.byte	0x18
 568 0319 00       		.byte	0
 569 031a 03       		.uleb128 0x3
 570 031b CD050000 		.4byte	.LASF61
 571 031f 06       		.byte	0x6
 572 0320 5C       		.byte	0x5c
 573 0321 25030000 		.4byte	0x325
 574 0325 0A       		.uleb128 0xa
 575 0326 04       		.byte	0x4
 576 0327 2B030000 		.4byte	0x32b
 577 032b 0C       		.uleb128 0xc
 578 032c 36030000 		.4byte	0x336
 579 0330 0D       		.uleb128 0xd
 580 0331 36030000 		.4byte	0x336
 581 0335 00       		.byte	0
 582 0336 0E       		.uleb128 0xe
 583 0337 04       		.byte	0x4
 584 0338 03       		.uleb128 0x3
 585 0339 E4030000 		.4byte	.LASF62
 586 033d 06       		.byte	0x6
 587 033e 61       		.byte	0x61
 588 033f 43030000 		.4byte	0x343
 589 0343 0B       		.uleb128 0xb
 590 0344 69040000 		.4byte	.LASF63
 591 0348 14       		.byte	0x14
 592 0349 07       		.byte	0x7
 593 034a 6B01     		.2byte	0x16b
 594 034c 92030000 		.4byte	0x392
 595 0350 09       		.uleb128 0x9
 596 0351 53020000 		.4byte	.LASF64
 597 0355 07       		.byte	0x7
 598 0356 6C01     		.2byte	0x16c
 599 0358 7E070000 		.4byte	0x77e
 600 035c 00       		.byte	0
 601 035d 09       		.uleb128 0x9
 602 035e AD010000 		.4byte	.LASF65
 603 0362 07       		.byte	0x7
 604 0363 6D01     		.2byte	0x16d
 605 0365 7E070000 		.4byte	0x77e
 606 0369 04       		.byte	0x4
 607 036a 09       		.uleb128 0x9
 608 036b AA040000 		.4byte	.LASF66
 609 036f 07       		.byte	0x7
 610 0370 6E01     		.2byte	0x16e
 611 0372 25010000 		.4byte	0x125
 612 0376 08       		.byte	0x8
 613 0377 09       		.uleb128 0x9
 614 0378 A8060000 		.4byte	.LASF67
 615 037c 07       		.byte	0x7
 616 037d 6F01     		.2byte	0x16f
 617 037f 1A030000 		.4byte	0x31a
 618 0383 0C       		.byte	0xc
 619 0384 09       		.uleb128 0x9
 620 0385 F7050000 		.4byte	.LASF68
ARM GAS  C:\Users\Luis\AppData\Local\Temp\cceSVzfR.s 			page 12


 621 0389 07       		.byte	0x7
 622 038a 7101     		.2byte	0x171
 623 038c 36030000 		.4byte	0x336
 624 0390 10       		.byte	0x10
 625 0391 00       		.byte	0
 626 0392 03       		.uleb128 0x3
 627 0393 EB000000 		.4byte	.LASF69
 628 0397 06       		.byte	0x6
 629 0398 66       		.byte	0x66
 630 0399 9D030000 		.4byte	0x39d
 631 039d 0B       		.uleb128 0xb
 632 039e 4A030000 		.4byte	.LASF70
 633 03a2 10       		.byte	0x10
 634 03a3 07       		.byte	0x7
 635 03a4 7B01     		.2byte	0x17b
 636 03a6 DF030000 		.4byte	0x3df
 637 03aa 09       		.uleb128 0x9
 638 03ab 53020000 		.4byte	.LASF64
 639 03af 07       		.byte	0x7
 640 03b0 7C01     		.2byte	0x17c
 641 03b2 7E070000 		.4byte	0x77e
 642 03b6 00       		.byte	0
 643 03b7 09       		.uleb128 0x9
 644 03b8 AD010000 		.4byte	.LASF65
 645 03bc 07       		.byte	0x7
 646 03bd 7E01     		.2byte	0x17e
 647 03bf 7E070000 		.4byte	0x77e
 648 03c3 04       		.byte	0x4
 649 03c4 09       		.uleb128 0x9
 650 03c5 AA040000 		.4byte	.LASF66
 651 03c9 07       		.byte	0x7
 652 03ca 8001     		.2byte	0x180
 653 03cc 25010000 		.4byte	0x125
 654 03d0 08       		.byte	0x8
 655 03d1 09       		.uleb128 0x9
 656 03d2 76030000 		.4byte	.LASF71
 657 03d6 07       		.byte	0x7
 658 03d7 8801     		.2byte	0x188
 659 03d9 25010000 		.4byte	0x125
 660 03dd 0C       		.byte	0xc
 661 03de 00       		.byte	0
 662 03df 03       		.uleb128 0x3
 663 03e0 64000000 		.4byte	.LASF72
 664 03e4 06       		.byte	0x6
 665 03e5 6B       		.byte	0x6b
 666 03e6 EA030000 		.4byte	0x3ea
 667 03ea 0F       		.uleb128 0xf
 668 03eb F8010000 		.4byte	.LASF73
 669 03ef 1404     		.2byte	0x414
 670 03f1 07       		.byte	0x7
 671 03f2 A201     		.2byte	0x1a2
 672 03f4 2D040000 		.4byte	0x42d
 673 03f8 09       		.uleb128 0x9
 674 03f9 D6050000 		.4byte	.LASF74
 675 03fd 07       		.byte	0x7
 676 03fe AA01     		.2byte	0x1aa
 677 0400 84070000 		.4byte	0x784
ARM GAS  C:\Users\Luis\AppData\Local\Temp\cceSVzfR.s 			page 13


 678 0404 00       		.byte	0
 679 0405 09       		.uleb128 0x9
 680 0406 1E060000 		.4byte	.LASF75
 681 040a 07       		.byte	0x7
 682 040b AF01     		.2byte	0x1af
 683 040d 0F010000 		.4byte	0x10f
 684 0411 04       		.byte	0x4
 685 0412 09       		.uleb128 0x9
 686 0413 1D020000 		.4byte	.LASF76
 687 0417 07       		.byte	0x7
 688 0418 B301     		.2byte	0x1b3
 689 041a 0F010000 		.4byte	0x10f
 690 041e 08       		.byte	0x8
 691 041f 09       		.uleb128 0x9
 692 0420 5A060000 		.4byte	.LASF77
 693 0424 07       		.byte	0x7
 694 0425 B901     		.2byte	0x1b9
 695 0427 E4050000 		.4byte	0x5e4
 696 042b 0C       		.byte	0xc
 697 042c 00       		.byte	0
 698 042d 03       		.uleb128 0x3
 699 042e D1020000 		.4byte	.LASF78
 700 0432 06       		.byte	0x6
 701 0433 70       		.byte	0x70
 702 0434 38040000 		.4byte	0x438
 703 0438 0F       		.uleb128 0xf
 704 0439 5A010000 		.4byte	.LASF79
 705 043d E805     		.2byte	0x5e8
 706 043f 07       		.byte	0x7
 707 0440 C201     		.2byte	0x1c2
 708 0442 A5040000 		.4byte	0x4a5
 709 0446 09       		.uleb128 0x9
 710 0447 2F060000 		.4byte	.LASF80
 711 044b 07       		.byte	0x7
 712 044c C601     		.2byte	0x1c6
 713 044e B3020000 		.4byte	0x2b3
 714 0452 00       		.byte	0
 715 0453 09       		.uleb128 0x9
 716 0454 4D010000 		.4byte	.LASF81
 717 0458 07       		.byte	0x7
 718 0459 CA01     		.2byte	0x1ca
 719 045b 92030000 		.4byte	0x392
 720 045f 1C       		.byte	0x1c
 721 0460 08       		.uleb128 0x8
 722 0461 64626700 		.ascii	"dbg\000"
 723 0465 07       		.byte	0x7
 724 0466 CE01     		.2byte	0x1ce
 725 0468 DF030000 		.4byte	0x3df
 726 046c 2C       		.byte	0x2c
 727 046d 10       		.uleb128 0x10
 728 046e E0000000 		.4byte	.LASF82
 729 0472 07       		.byte	0x7
 730 0473 D201     		.2byte	0x1d2
 731 0475 30010000 		.4byte	0x130
 732 0479 4004     		.2byte	0x440
 733 047b 11       		.uleb128 0x11
 734 047c 746D00   		.ascii	"tm\000"
ARM GAS  C:\Users\Luis\AppData\Local\Temp\cceSVzfR.s 			page 14


 735 047f 07       		.byte	0x7
 736 0480 D701     		.2byte	0x1d7
 737 0482 04060000 		.4byte	0x604
 738 0486 A804     		.2byte	0x4a8
 739 0488 10       		.uleb128 0x10
 740 0489 33000000 		.4byte	.LASF83
 741 048d 07       		.byte	0x7
 742 048e DD01     		.2byte	0x1dd
 743 0490 96060000 		.4byte	0x696
 744 0494 B004     		.2byte	0x4b0
 745 0496 10       		.uleb128 0x10
 746 0497 26020000 		.4byte	.LASF84
 747 049b 07       		.byte	0x7
 748 049c E301     		.2byte	0x1e3
 749 049e 89070000 		.4byte	0x789
 750 04a2 E804     		.2byte	0x4e8
 751 04a4 00       		.byte	0
 752 04a5 04       		.uleb128 0x4
 753 04a6 04       		.byte	0x4
 754 04a7 07       		.byte	0x7
 755 04a8 2E030000 		.4byte	.LASF85
 756 04ac 03       		.uleb128 0x3
 757 04ad A4010000 		.4byte	.LASF86
 758 04b1 08       		.byte	0x8
 759 04b2 65       		.byte	0x65
 760 04b3 36030000 		.4byte	0x336
 761 04b7 03       		.uleb128 0x3
 762 04b8 11030000 		.4byte	.LASF87
 763 04bc 08       		.byte	0x8
 764 04bd 6D       		.byte	0x6d
 765 04be 9B000000 		.4byte	0x9b
 766 04c2 06       		.uleb128 0x6
 767 04c3 E7050000 		.4byte	.LASF88
 768 04c7 04       		.byte	0x4
 769 04c8 08       		.byte	0x8
 770 04c9 89       		.byte	0x89
 771 04ca DB040000 		.4byte	0x4db
 772 04ce 12       		.uleb128 0x12
 773 04cf 72313300 		.ascii	"r13\000"
 774 04d3 08       		.byte	0x8
 775 04d4 8A       		.byte	0x8a
 776 04d5 56050000 		.4byte	0x556
 777 04d9 00       		.byte	0
 778 04da 00       		.byte	0
 779 04db 06       		.uleb128 0x6
 780 04dc 47000000 		.4byte	.LASF89
 781 04e0 24       		.byte	0x24
 782 04e1 09       		.byte	0x9
 783 04e2 F4       		.byte	0xf4
 784 04e3 56050000 		.4byte	0x556
 785 04e7 08       		.uleb128 0x8
 786 04e8 723400   		.ascii	"r4\000"
 787 04eb 09       		.byte	0x9
 788 04ec 0701     		.2byte	0x107
 789 04ee AC040000 		.4byte	0x4ac
 790 04f2 00       		.byte	0
 791 04f3 08       		.uleb128 0x8
ARM GAS  C:\Users\Luis\AppData\Local\Temp\cceSVzfR.s 			page 15


 792 04f4 723500   		.ascii	"r5\000"
 793 04f7 09       		.byte	0x9
 794 04f8 0801     		.2byte	0x108
 795 04fa AC040000 		.4byte	0x4ac
 796 04fe 04       		.byte	0x4
 797 04ff 08       		.uleb128 0x8
 798 0500 723600   		.ascii	"r6\000"
 799 0503 09       		.byte	0x9
 800 0504 0901     		.2byte	0x109
 801 0506 AC040000 		.4byte	0x4ac
 802 050a 08       		.byte	0x8
 803 050b 08       		.uleb128 0x8
 804 050c 723700   		.ascii	"r7\000"
 805 050f 09       		.byte	0x9
 806 0510 0A01     		.2byte	0x10a
 807 0512 AC040000 		.4byte	0x4ac
 808 0516 0C       		.byte	0xc
 809 0517 08       		.uleb128 0x8
 810 0518 723800   		.ascii	"r8\000"
 811 051b 09       		.byte	0x9
 812 051c 0B01     		.2byte	0x10b
 813 051e AC040000 		.4byte	0x4ac
 814 0522 10       		.byte	0x10
 815 0523 08       		.uleb128 0x8
 816 0524 723900   		.ascii	"r9\000"
 817 0527 09       		.byte	0x9
 818 0528 0C01     		.2byte	0x10c
 819 052a AC040000 		.4byte	0x4ac
 820 052e 14       		.byte	0x14
 821 052f 08       		.uleb128 0x8
 822 0530 72313000 		.ascii	"r10\000"
 823 0534 09       		.byte	0x9
 824 0535 0D01     		.2byte	0x10d
 825 0537 AC040000 		.4byte	0x4ac
 826 053b 18       		.byte	0x18
 827 053c 08       		.uleb128 0x8
 828 053d 72313100 		.ascii	"r11\000"
 829 0541 09       		.byte	0x9
 830 0542 0E01     		.2byte	0x10e
 831 0544 AC040000 		.4byte	0x4ac
 832 0548 1C       		.byte	0x1c
 833 0549 08       		.uleb128 0x8
 834 054a 6C7200   		.ascii	"lr\000"
 835 054d 09       		.byte	0x9
 836 054e 0F01     		.2byte	0x10f
 837 0550 AC040000 		.4byte	0x4ac
 838 0554 20       		.byte	0x20
 839 0555 00       		.byte	0
 840 0556 0A       		.uleb128 0xa
 841 0557 04       		.byte	0x4
 842 0558 DB040000 		.4byte	0x4db
 843 055c 13       		.uleb128 0x13
 844 055d 10       		.byte	0x10
 845 055e 0A       		.byte	0xa
 846 055f 51       		.byte	0x51
 847 0560 95050000 		.4byte	0x595
 848 0564 07       		.uleb128 0x7
ARM GAS  C:\Users\Luis\AppData\Local\Temp\cceSVzfR.s 			page 16


 849 0565 14000000 		.4byte	.LASF90
 850 0569 0A       		.byte	0xa
 851 056a 55       		.byte	0x55
 852 056b 25010000 		.4byte	0x125
 853 056f 00       		.byte	0
 854 0570 07       		.uleb128 0x7
 855 0571 76010000 		.4byte	.LASF91
 856 0575 0A       		.byte	0xa
 857 0576 59       		.byte	0x59
 858 0577 59020000 		.4byte	0x259
 859 057b 04       		.byte	0x4
 860 057c 07       		.uleb128 0x7
 861 057d 98060000 		.4byte	.LASF92
 862 0581 0A       		.byte	0xa
 863 0582 5D       		.byte	0x5d
 864 0583 36030000 		.4byte	0x336
 865 0587 08       		.byte	0x8
 866 0588 07       		.uleb128 0x7
 867 0589 C8000000 		.4byte	.LASF93
 868 058d 0A       		.byte	0xa
 869 058e 61       		.byte	0x61
 870 058f 45000000 		.4byte	0x45
 871 0593 0C       		.byte	0xc
 872 0594 00       		.byte	0
 873 0595 03       		.uleb128 0x3
 874 0596 67030000 		.4byte	.LASF94
 875 059a 0A       		.byte	0xa
 876 059b 62       		.byte	0x62
 877 059c 5C050000 		.4byte	0x55c
 878 05a0 14       		.uleb128 0x14
 879 05a1 0804     		.2byte	0x408
 880 05a3 0A       		.byte	0xa
 881 05a4 67       		.byte	0x67
 882 05a5 CE050000 		.4byte	0x5ce
 883 05a9 07       		.uleb128 0x7
 884 05aa 8C010000 		.4byte	.LASF95
 885 05ae 0A       		.byte	0xa
 886 05af 6B       		.byte	0x6b
 887 05b0 37000000 		.4byte	0x37
 888 05b4 00       		.byte	0
 889 05b5 07       		.uleb128 0x7
 890 05b6 00000000 		.4byte	.LASF96
 891 05ba 0A       		.byte	0xa
 892 05bb 6F       		.byte	0x6f
 893 05bc CE050000 		.4byte	0x5ce
 894 05c0 04       		.byte	0x4
 895 05c1 07       		.uleb128 0x7
 896 05c2 DA030000 		.4byte	.LASF97
 897 05c6 0A       		.byte	0xa
 898 05c7 73       		.byte	0x73
 899 05c8 D4050000 		.4byte	0x5d4
 900 05cc 08       		.byte	0x8
 901 05cd 00       		.byte	0
 902 05ce 0A       		.uleb128 0xa
 903 05cf 04       		.byte	0x4
 904 05d0 95050000 		.4byte	0x595
 905 05d4 15       		.uleb128 0x15
ARM GAS  C:\Users\Luis\AppData\Local\Temp\cceSVzfR.s 			page 17


 906 05d5 95050000 		.4byte	0x595
 907 05d9 E4050000 		.4byte	0x5e4
 908 05dd 16       		.uleb128 0x16
 909 05de A5040000 		.4byte	0x4a5
 910 05e2 3F       		.byte	0x3f
 911 05e3 00       		.byte	0
 912 05e4 03       		.uleb128 0x3
 913 05e5 B6000000 		.4byte	.LASF98
 914 05e9 0A       		.byte	0xa
 915 05ea 74       		.byte	0x74
 916 05eb A0050000 		.4byte	0x5a0
 917 05ef 13       		.uleb128 0x13
 918 05f0 04       		.byte	0x4
 919 05f1 0B       		.byte	0xb
 920 05f2 38       		.byte	0x38
 921 05f3 04060000 		.4byte	0x604
 922 05f7 07       		.uleb128 0x7
 923 05f8 E0050000 		.4byte	.LASF99
 924 05fc 0B       		.byte	0xb
 925 05fd 3C       		.byte	0x3c
 926 05fe B7000000 		.4byte	0xb7
 927 0602 00       		.byte	0
 928 0603 00       		.byte	0
 929 0604 03       		.uleb128 0x3
 930 0605 90030000 		.4byte	.LASF100
 931 0609 0B       		.byte	0xb
 932 060a 3D       		.byte	0x3d
 933 060b EF050000 		.4byte	0x5ef
 934 060f 13       		.uleb128 0x13
 935 0610 18       		.byte	0x18
 936 0611 0B       		.byte	0xb
 937 0612 48       		.byte	0x48
 938 0613 52060000 		.4byte	0x652
 939 0617 07       		.uleb128 0x7
 940 0618 AC050000 		.4byte	.LASF101
 941 061c 0B       		.byte	0xb
 942 061d 49       		.byte	0x49
 943 061e B7000000 		.4byte	0xb7
 944 0622 00       		.byte	0
 945 0623 07       		.uleb128 0x7
 946 0624 80000000 		.4byte	.LASF102
 947 0628 0B       		.byte	0xb
 948 0629 4A       		.byte	0x4a
 949 062a B7000000 		.4byte	0xb7
 950 062e 04       		.byte	0x4
 951 062f 07       		.uleb128 0x7
 952 0630 C5020000 		.4byte	.LASF103
 953 0634 0B       		.byte	0xb
 954 0635 4B       		.byte	0x4b
 955 0636 B7000000 		.4byte	0xb7
 956 063a 08       		.byte	0x8
 957 063b 12       		.uleb128 0x12
 958 063c 6E00     		.ascii	"n\000"
 959 063e 0B       		.byte	0xb
 960 063f 4C       		.byte	0x4c
 961 0640 1A010000 		.4byte	0x11a
 962 0644 0C       		.byte	0xc
ARM GAS  C:\Users\Luis\AppData\Local\Temp\cceSVzfR.s 			page 18


 963 0645 07       		.uleb128 0x7
 964 0646 B8030000 		.4byte	.LASF104
 965 064a 0B       		.byte	0xb
 966 064b 4D       		.byte	0x4d
 967 064c C2000000 		.4byte	0xc2
 968 0650 10       		.byte	0x10
 969 0651 00       		.byte	0
 970 0652 03       		.uleb128 0x3
 971 0653 86000000 		.4byte	.LASF105
 972 0657 0B       		.byte	0xb
 973 0658 4E       		.byte	0x4e
 974 0659 0F060000 		.4byte	0x60f
 975 065d 13       		.uleb128 0x13
 976 065e 38       		.byte	0x38
 977 065f 0C       		.byte	0xc
 978 0660 38       		.byte	0x38
 979 0661 96060000 		.4byte	0x696
 980 0665 07       		.uleb128 0x7
 981 0666 82020000 		.4byte	.LASF106
 982 066a 0C       		.byte	0xc
 983 066b 39       		.byte	0x39
 984 066c 1A010000 		.4byte	0x11a
 985 0670 00       		.byte	0
 986 0671 07       		.uleb128 0x7
 987 0672 03040000 		.4byte	.LASF107
 988 0676 0C       		.byte	0xc
 989 0677 3A       		.byte	0x3a
 990 0678 1A010000 		.4byte	0x11a
 991 067c 04       		.byte	0x4
 992 067d 07       		.uleb128 0x7
 993 067e 85060000 		.4byte	.LASF108
 994 0682 0C       		.byte	0xc
 995 0683 3B       		.byte	0x3b
 996 0684 52060000 		.4byte	0x652
 997 0688 08       		.byte	0x8
 998 0689 07       		.uleb128 0x7
 999 068a EC020000 		.4byte	.LASF109
 1000 068e 0C       		.byte	0xc
 1001 068f 3D       		.byte	0x3d
 1002 0690 52060000 		.4byte	0x652
 1003 0694 20       		.byte	0x20
 1004 0695 00       		.byte	0
 1005 0696 03       		.uleb128 0x3
 1006 0697 A6020000 		.4byte	.LASF110
 1007 069b 0C       		.byte	0xc
 1008 069c 3F       		.byte	0x3f
 1009 069d 5D060000 		.4byte	0x65d
 1010 06a1 17       		.uleb128 0x17
 1011 06a2 04       		.byte	0x4
 1012 06a3 07       		.byte	0x7
 1013 06a4 FA       		.byte	0xfa
 1014 06a5 FE060000 		.4byte	0x6fe
 1015 06a9 18       		.uleb128 0x18
 1016 06aa 23000000 		.4byte	.LASF111
 1017 06ae 07       		.byte	0x7
 1018 06af 0101     		.2byte	0x101
 1019 06b1 F9000000 		.4byte	0xf9
ARM GAS  C:\Users\Luis\AppData\Local\Temp\cceSVzfR.s 			page 19


 1020 06b5 18       		.uleb128 0x18
 1021 06b6 D7000000 		.4byte	.LASF112
 1022 06ba 07       		.byte	0x7
 1023 06bb 0801     		.2byte	0x108
 1024 06bd F9000000 		.4byte	0xf9
 1025 06c1 18       		.uleb128 0x18
 1026 06c2 3D060000 		.4byte	.LASF113
 1027 06c6 07       		.byte	0x7
 1028 06c7 0F01     		.2byte	0x10f
 1029 06c9 36030000 		.4byte	0x336
 1030 06cd 18       		.uleb128 0x18
 1031 06ce 54010000 		.4byte	.LASF114
 1032 06d2 07       		.byte	0x7
 1033 06d3 1601     		.2byte	0x116
 1034 06d5 FE060000 		.4byte	0x6fe
 1035 06d9 18       		.uleb128 0x18
 1036 06da 64020000 		.4byte	.LASF115
 1037 06de 07       		.byte	0x7
 1038 06df 1E01     		.2byte	0x11e
 1039 06e1 29070000 		.4byte	0x729
 1040 06e5 18       		.uleb128 0x18
 1041 06e6 9B040000 		.4byte	.LASF116
 1042 06ea 07       		.byte	0x7
 1043 06eb 2701     		.2byte	0x127
 1044 06ed 60070000 		.4byte	0x760
 1045 06f1 18       		.uleb128 0x18
 1046 06f2 4B040000 		.4byte	.LASF117
 1047 06f6 07       		.byte	0x7
 1048 06f7 2F01     		.2byte	0x12f
 1049 06f9 04010000 		.4byte	0x104
 1050 06fd 00       		.byte	0
 1051 06fe 0A       		.uleb128 0xa
 1052 06ff 04       		.byte	0x4
 1053 0700 4E020000 		.4byte	0x24e
 1054 0704 06       		.uleb128 0x6
 1055 0705 7A040000 		.4byte	.LASF118
 1056 0709 0C       		.byte	0xc
 1057 070a 0D       		.byte	0xd
 1058 070b 34       		.byte	0x34
 1059 070c 29070000 		.4byte	0x729
 1060 0710 07       		.uleb128 0x7
 1061 0711 84010000 		.4byte	.LASF119
 1062 0715 0D       		.byte	0xd
 1063 0716 35       		.byte	0x35
 1064 0717 83020000 		.4byte	0x283
 1065 071b 00       		.byte	0
 1066 071c 07       		.uleb128 0x7
 1067 071d 88020000 		.4byte	.LASF120
 1068 0721 0D       		.byte	0xd
 1069 0722 37       		.byte	0x37
 1070 0723 0F010000 		.4byte	0x10f
 1071 0727 08       		.byte	0x8
 1072 0728 00       		.byte	0
 1073 0729 0A       		.uleb128 0xa
 1074 072a 04       		.byte	0x4
 1075 072b 04070000 		.4byte	0x704
 1076 072f 06       		.uleb128 0x6
ARM GAS  C:\Users\Luis\AppData\Local\Temp\cceSVzfR.s 			page 20


 1077 0730 0E060000 		.4byte	.LASF121
 1078 0734 10       		.byte	0x10
 1079 0735 0E       		.byte	0xe
 1080 0736 39       		.byte	0x39
 1081 0737 60070000 		.4byte	0x760
 1082 073b 07       		.uleb128 0x7
 1083 073c 45010000 		.4byte	.LASF122
 1084 0740 0E       		.byte	0xe
 1085 0741 3A       		.byte	0x3a
 1086 0742 83020000 		.4byte	0x283
 1087 0746 00       		.byte	0
 1088 0747 07       		.uleb128 0x7
 1089 0748 90060000 		.4byte	.LASF123
 1090 074c 0E       		.byte	0xe
 1091 074d 3C       		.byte	0x3c
 1092 074e 59020000 		.4byte	0x259
 1093 0752 08       		.byte	0x8
 1094 0753 07       		.uleb128 0x7
 1095 0754 B1050000 		.4byte	.LASF124
 1096 0758 0E       		.byte	0xe
 1097 0759 3E       		.byte	0x3e
 1098 075a A4070000 		.4byte	0x7a4
 1099 075e 0C       		.byte	0xc
 1100 075f 00       		.byte	0
 1101 0760 0A       		.uleb128 0xa
 1102 0761 04       		.byte	0x4
 1103 0762 2F070000 		.4byte	0x72f
 1104 0766 0A       		.uleb128 0xa
 1105 0767 04       		.byte	0x4
 1106 0768 6C070000 		.4byte	0x76c
 1107 076c 19       		.uleb128 0x19
 1108 076d 71070000 		.4byte	0x771
 1109 0771 04       		.uleb128 0x4
 1110 0772 01       		.byte	0x1
 1111 0773 08       		.byte	0x8
 1112 0774 D5040000 		.4byte	.LASF125
 1113 0778 0A       		.uleb128 0xa
 1114 0779 04       		.byte	0x4
 1115 077a B7040000 		.4byte	0x4b7
 1116 077e 0A       		.uleb128 0xa
 1117 077f 04       		.byte	0x4
 1118 0780 38030000 		.4byte	0x338
 1119 0784 05       		.uleb128 0x5
 1120 0785 66070000 		.4byte	0x766
 1121 0789 15       		.uleb128 0x15
 1122 078a B7040000 		.4byte	0x4b7
 1123 078e 99070000 		.4byte	0x799
 1124 0792 16       		.uleb128 0x16
 1125 0793 A5040000 		.4byte	0x4a5
 1126 0797 1F       		.byte	0x1f
 1127 0798 00       		.byte	0
 1128 0799 03       		.uleb128 0x3
 1129 079a 15020000 		.4byte	.LASF126
 1130 079e 0E       		.byte	0xe
 1131 079f 34       		.byte	0x34
 1132 07a0 2F070000 		.4byte	0x72f
 1133 07a4 0A       		.uleb128 0xa
ARM GAS  C:\Users\Luis\AppData\Local\Temp\cceSVzfR.s 			page 21


 1134 07a5 04       		.byte	0x4
 1135 07a6 99070000 		.4byte	0x799
 1136 07aa 04       		.uleb128 0x4
 1137 07ab 01       		.byte	0x1
 1138 07ac 02       		.byte	0x2
 1139 07ad 0C040000 		.4byte	.LASF127
 1140 07b1 13       		.uleb128 0x13
 1141 07b2 04       		.byte	0x4
 1142 07b3 0F       		.byte	0xf
 1143 07b4 B3       		.byte	0xb3
 1144 07b5 D2070000 		.4byte	0x7d2
 1145 07b9 12       		.uleb128 0x12
 1146 07ba 73657400 		.ascii	"set\000"
 1147 07be 0F       		.byte	0xf
 1148 07bf B4       		.byte	0xb4
 1149 07c0 5E000000 		.4byte	0x5e
 1150 07c4 00       		.byte	0
 1151 07c5 07       		.uleb128 0x7
 1152 07c6 61030000 		.4byte	.LASF128
 1153 07ca 0F       		.byte	0xf
 1154 07cb B5       		.byte	0xb5
 1155 07cc 5E000000 		.4byte	0x5e
 1156 07d0 02       		.byte	0x2
 1157 07d1 00       		.byte	0
 1158 07d2 17       		.uleb128 0x17
 1159 07d3 04       		.byte	0x4
 1160 07d4 0F       		.byte	0xf
 1161 07d5 B1       		.byte	0xb1
 1162 07d6 ED070000 		.4byte	0x7ed
 1163 07da 1A       		.uleb128 0x1a
 1164 07db 5700     		.ascii	"W\000"
 1165 07dd 0F       		.byte	0xf
 1166 07de B2       		.byte	0xb2
 1167 07df 82000000 		.4byte	0x82
 1168 07e3 1A       		.uleb128 0x1a
 1169 07e4 4800     		.ascii	"H\000"
 1170 07e6 0F       		.byte	0xf
 1171 07e7 B6       		.byte	0xb6
 1172 07e8 B1070000 		.4byte	0x7b1
 1173 07ec 00       		.byte	0
 1174 07ed 13       		.uleb128 0x13
 1175 07ee 2C       		.byte	0x2c
 1176 07ef 0F       		.byte	0xf
 1177 07f0 A9       		.byte	0xa9
 1178 07f1 7A080000 		.4byte	0x87a
 1179 07f5 07       		.uleb128 0x7
 1180 07f6 99000000 		.4byte	.LASF129
 1181 07fa 0F       		.byte	0xf
 1182 07fb AB       		.byte	0xab
 1183 07fc B2000000 		.4byte	0xb2
 1184 0800 00       		.byte	0
 1185 0801 07       		.uleb128 0x7
 1186 0802 40000000 		.4byte	.LASF130
 1187 0806 0F       		.byte	0xf
 1188 0807 AC       		.byte	0xac
 1189 0808 B2000000 		.4byte	0xb2
 1190 080c 04       		.byte	0x4
ARM GAS  C:\Users\Luis\AppData\Local\Temp\cceSVzfR.s 			page 22


 1191 080d 07       		.uleb128 0x7
 1192 080e 94010000 		.4byte	.LASF131
 1193 0812 0F       		.byte	0xf
 1194 0813 AD       		.byte	0xad
 1195 0814 B2000000 		.4byte	0xb2
 1196 0818 08       		.byte	0x8
 1197 0819 07       		.uleb128 0x7
 1198 081a D1000000 		.4byte	.LASF132
 1199 081e 0F       		.byte	0xf
 1200 081f AE       		.byte	0xae
 1201 0820 B2000000 		.4byte	0xb2
 1202 0824 0C       		.byte	0xc
 1203 0825 12       		.uleb128 0x12
 1204 0826 49445200 		.ascii	"IDR\000"
 1205 082a 0F       		.byte	0xf
 1206 082b AF       		.byte	0xaf
 1207 082c B2000000 		.4byte	0xb2
 1208 0830 10       		.byte	0x10
 1209 0831 12       		.uleb128 0x12
 1210 0832 4F445200 		.ascii	"ODR\000"
 1211 0836 0F       		.byte	0xf
 1212 0837 B0       		.byte	0xb0
 1213 0838 B2000000 		.4byte	0xb2
 1214 083c 14       		.byte	0x14
 1215 083d 07       		.uleb128 0x7
 1216 083e 38010000 		.4byte	.LASF133
 1217 0842 0F       		.byte	0xf
 1218 0843 B7       		.byte	0xb7
 1219 0844 7A080000 		.4byte	0x87a
 1220 0848 18       		.byte	0x18
 1221 0849 07       		.uleb128 0x7
 1222 084a 7D020000 		.4byte	.LASF134
 1223 084e 0F       		.byte	0xf
 1224 084f B8       		.byte	0xb8
 1225 0850 B2000000 		.4byte	0xb2
 1226 0854 1C       		.byte	0x1c
 1227 0855 07       		.uleb128 0x7
 1228 0856 C3030000 		.4byte	.LASF135
 1229 085a 0F       		.byte	0xf
 1230 085b B9       		.byte	0xb9
 1231 085c B2000000 		.4byte	0xb2
 1232 0860 20       		.byte	0x20
 1233 0861 07       		.uleb128 0x7
 1234 0862 B3030000 		.4byte	.LASF136
 1235 0866 0F       		.byte	0xf
 1236 0867 BA       		.byte	0xba
 1237 0868 B2000000 		.4byte	0xb2
 1238 086c 24       		.byte	0x24
 1239 086d 12       		.uleb128 0x12
 1240 086e 42525200 		.ascii	"BRR\000"
 1241 0872 0F       		.byte	0xf
 1242 0873 BB       		.byte	0xbb
 1243 0874 B2000000 		.4byte	0xb2
 1244 0878 28       		.byte	0x28
 1245 0879 00       		.byte	0
 1246 087a 05       		.uleb128 0x5
 1247 087b D2070000 		.4byte	0x7d2
ARM GAS  C:\Users\Luis\AppData\Local\Temp\cceSVzfR.s 			page 23


 1248 087f 03       		.uleb128 0x3
 1249 0880 08020000 		.4byte	.LASF137
 1250 0884 0F       		.byte	0xf
 1251 0885 BC       		.byte	0xbc
 1252 0886 ED070000 		.4byte	0x7ed
 1253 088a 1B       		.uleb128 0x1b
 1254 088b 73000000 		.4byte	.LASF138
 1255 088f 0F       		.byte	0xf
 1256 0890 0E01     		.2byte	0x10e
 1257 0892 82000000 		.4byte	0x82
 1258 0896 1C       		.uleb128 0x1c
 1259 0897 72060000 		.4byte	.LASF139
 1260 089b 01       		.byte	0x1
 1261 089c 84       		.byte	0x84
 1262 089d 00000000 		.4byte	.LFB186
 1263 08a1 20000000 		.4byte	.LFE186-.LFB186
 1264 08a5 01       		.uleb128 0x1
 1265 08a6 9C       		.byte	0x9c
 1266 08a7 BA080000 		.4byte	0x8ba
 1267 08ab 1D       		.uleb128 0x1d
 1268 08ac 8E020000 		.4byte	.LASF141
 1269 08b0 01       		.byte	0x1
 1270 08b1 84       		.byte	0x84
 1271 08b2 66070000 		.4byte	0x766
 1272 08b6 02       		.uleb128 0x2
 1273 08b7 91       		.byte	0x91
 1274 08b8 74       		.sleb128 -12
 1275 08b9 00       		.byte	0
 1276 08ba 1E       		.uleb128 0x1e
 1277 08bb 1C030000 		.4byte	.LASF140
 1278 08bf 02       		.byte	0x2
 1279 08c0 08       		.byte	0x8
 1280 08c1 00000000 		.4byte	.LFB260
 1281 08c5 2C000000 		.4byte	.LFE260-.LFB260
 1282 08c9 01       		.uleb128 0x1
 1283 08ca 9C       		.byte	0x9c
 1284 08cb DE080000 		.4byte	0x8de
 1285 08cf 1F       		.uleb128 0x1f
 1286 08d0 61726700 		.ascii	"arg\000"
 1287 08d4 02       		.byte	0x2
 1288 08d5 08       		.byte	0x8
 1289 08d6 36030000 		.4byte	0x336
 1290 08da 02       		.uleb128 0x2
 1291 08db 91       		.byte	0x91
 1292 08dc 74       		.sleb128 -12
 1293 08dd 00       		.byte	0
 1294 08de 20       		.uleb128 0x20
 1295 08df 6D060000 		.4byte	.LASF147
 1296 08e3 02       		.byte	0x2
 1297 08e4 12       		.byte	0x12
 1298 08e5 25000000 		.4byte	0x25
 1299 08e9 00000000 		.4byte	.LFB261
 1300 08ed 54000000 		.4byte	.LFE261-.LFB261
 1301 08f1 01       		.uleb128 0x1
 1302 08f2 9C       		.byte	0x9c
 1303 08f3 15       		.uleb128 0x15
 1304 08f4 B7040000 		.4byte	0x4b7
ARM GAS  C:\Users\Luis\AppData\Local\Temp\cceSVzfR.s 			page 24


 1305 08f8 03090000 		.4byte	0x903
 1306 08fc 16       		.uleb128 0x16
 1307 08fd A5040000 		.4byte	0x4a5
 1308 0901 3D       		.byte	0x3d
 1309 0902 00       		.byte	0
 1310 0903 21       		.uleb128 0x21
 1311 0904 C8030000 		.4byte	.LASF148
 1312 0908 02       		.byte	0x2
 1313 0909 07       		.byte	0x7
 1314 090a F3080000 		.4byte	0x8f3
 1315 090e 05       		.uleb128 0x5
 1316 090f 03       		.byte	0x3
 1317 0910 00000000 		.4byte	waThread1
 1318 0914 22       		.uleb128 0x22
 1319 0915 01010000 		.4byte	.LASF142
 1320 0919 10       		.byte	0x10
 1321 091a A706     		.2byte	0x6a7
 1322 091c AD000000 		.4byte	0xad
 1323 0920 23       		.uleb128 0x23
 1324 0921 636800   		.ascii	"ch\000"
 1325 0924 07       		.byte	0x7
 1326 0925 0902     		.2byte	0x209
 1327 0927 2D040000 		.4byte	0x42d
 1328 092b 15       		.uleb128 0x15
 1329 092c B7040000 		.4byte	0x4b7
 1330 0930 3B090000 		.4byte	0x93b
 1331 0934 16       		.uleb128 0x16
 1332 0935 A5040000 		.4byte	0x4a5
 1333 0939 9D       		.byte	0x9d
 1334 093a 00       		.byte	0
 1335 093b 24       		.uleb128 0x24
 1336 093c B0060000 		.4byte	.LASF143
 1337 0940 11       		.byte	0x11
 1338 0941 27       		.byte	0x27
 1339 0942 2B090000 		.4byte	0x92b
 1340 0946 00       		.byte	0
 1341              		.section	.debug_abbrev,"",%progbits
 1342              	.Ldebug_abbrev0:
 1343 0000 01       		.uleb128 0x1
 1344 0001 11       		.uleb128 0x11
 1345 0002 01       		.byte	0x1
 1346 0003 25       		.uleb128 0x25
 1347 0004 0E       		.uleb128 0xe
 1348 0005 13       		.uleb128 0x13
 1349 0006 0B       		.uleb128 0xb
 1350 0007 03       		.uleb128 0x3
 1351 0008 0E       		.uleb128 0xe
 1352 0009 1B       		.uleb128 0x1b
 1353 000a 0E       		.uleb128 0xe
 1354 000b 55       		.uleb128 0x55
 1355 000c 17       		.uleb128 0x17
 1356 000d 11       		.uleb128 0x11
 1357 000e 01       		.uleb128 0x1
 1358 000f 10       		.uleb128 0x10
 1359 0010 17       		.uleb128 0x17
 1360 0011 00       		.byte	0
 1361 0012 00       		.byte	0
ARM GAS  C:\Users\Luis\AppData\Local\Temp\cceSVzfR.s 			page 25


 1362 0013 02       		.uleb128 0x2
 1363 0014 24       		.uleb128 0x24
 1364 0015 00       		.byte	0
 1365 0016 0B       		.uleb128 0xb
 1366 0017 0B       		.uleb128 0xb
 1367 0018 3E       		.uleb128 0x3e
 1368 0019 0B       		.uleb128 0xb
 1369 001a 03       		.uleb128 0x3
 1370 001b 08       		.uleb128 0x8
 1371 001c 00       		.byte	0
 1372 001d 00       		.byte	0
 1373 001e 03       		.uleb128 0x3
 1374 001f 16       		.uleb128 0x16
 1375 0020 00       		.byte	0
 1376 0021 03       		.uleb128 0x3
 1377 0022 0E       		.uleb128 0xe
 1378 0023 3A       		.uleb128 0x3a
 1379 0024 0B       		.uleb128 0xb
 1380 0025 3B       		.uleb128 0x3b
 1381 0026 0B       		.uleb128 0xb
 1382 0027 49       		.uleb128 0x49
 1383 0028 13       		.uleb128 0x13
 1384 0029 00       		.byte	0
 1385 002a 00       		.byte	0
 1386 002b 04       		.uleb128 0x4
 1387 002c 24       		.uleb128 0x24
 1388 002d 00       		.byte	0
 1389 002e 0B       		.uleb128 0xb
 1390 002f 0B       		.uleb128 0xb
 1391 0030 3E       		.uleb128 0x3e
 1392 0031 0B       		.uleb128 0xb
 1393 0032 03       		.uleb128 0x3
 1394 0033 0E       		.uleb128 0xe
 1395 0034 00       		.byte	0
 1396 0035 00       		.byte	0
 1397 0036 05       		.uleb128 0x5
 1398 0037 35       		.uleb128 0x35
 1399 0038 00       		.byte	0
 1400 0039 49       		.uleb128 0x49
 1401 003a 13       		.uleb128 0x13
 1402 003b 00       		.byte	0
 1403 003c 00       		.byte	0
 1404 003d 06       		.uleb128 0x6
 1405 003e 13       		.uleb128 0x13
 1406 003f 01       		.byte	0x1
 1407 0040 03       		.uleb128 0x3
 1408 0041 0E       		.uleb128 0xe
 1409 0042 0B       		.uleb128 0xb
 1410 0043 0B       		.uleb128 0xb
 1411 0044 3A       		.uleb128 0x3a
 1412 0045 0B       		.uleb128 0xb
 1413 0046 3B       		.uleb128 0x3b
 1414 0047 0B       		.uleb128 0xb
 1415 0048 01       		.uleb128 0x1
 1416 0049 13       		.uleb128 0x13
 1417 004a 00       		.byte	0
 1418 004b 00       		.byte	0
ARM GAS  C:\Users\Luis\AppData\Local\Temp\cceSVzfR.s 			page 26


 1419 004c 07       		.uleb128 0x7
 1420 004d 0D       		.uleb128 0xd
 1421 004e 00       		.byte	0
 1422 004f 03       		.uleb128 0x3
 1423 0050 0E       		.uleb128 0xe
 1424 0051 3A       		.uleb128 0x3a
 1425 0052 0B       		.uleb128 0xb
 1426 0053 3B       		.uleb128 0x3b
 1427 0054 0B       		.uleb128 0xb
 1428 0055 49       		.uleb128 0x49
 1429 0056 13       		.uleb128 0x13
 1430 0057 38       		.uleb128 0x38
 1431 0058 0B       		.uleb128 0xb
 1432 0059 00       		.byte	0
 1433 005a 00       		.byte	0
 1434 005b 08       		.uleb128 0x8
 1435 005c 0D       		.uleb128 0xd
 1436 005d 00       		.byte	0
 1437 005e 03       		.uleb128 0x3
 1438 005f 08       		.uleb128 0x8
 1439 0060 3A       		.uleb128 0x3a
 1440 0061 0B       		.uleb128 0xb
 1441 0062 3B       		.uleb128 0x3b
 1442 0063 05       		.uleb128 0x5
 1443 0064 49       		.uleb128 0x49
 1444 0065 13       		.uleb128 0x13
 1445 0066 38       		.uleb128 0x38
 1446 0067 0B       		.uleb128 0xb
 1447 0068 00       		.byte	0
 1448 0069 00       		.byte	0
 1449 006a 09       		.uleb128 0x9
 1450 006b 0D       		.uleb128 0xd
 1451 006c 00       		.byte	0
 1452 006d 03       		.uleb128 0x3
 1453 006e 0E       		.uleb128 0xe
 1454 006f 3A       		.uleb128 0x3a
 1455 0070 0B       		.uleb128 0xb
 1456 0071 3B       		.uleb128 0x3b
 1457 0072 05       		.uleb128 0x5
 1458 0073 49       		.uleb128 0x49
 1459 0074 13       		.uleb128 0x13
 1460 0075 38       		.uleb128 0x38
 1461 0076 0B       		.uleb128 0xb
 1462 0077 00       		.byte	0
 1463 0078 00       		.byte	0
 1464 0079 0A       		.uleb128 0xa
 1465 007a 0F       		.uleb128 0xf
 1466 007b 00       		.byte	0
 1467 007c 0B       		.uleb128 0xb
 1468 007d 0B       		.uleb128 0xb
 1469 007e 49       		.uleb128 0x49
 1470 007f 13       		.uleb128 0x13
 1471 0080 00       		.byte	0
 1472 0081 00       		.byte	0
 1473 0082 0B       		.uleb128 0xb
 1474 0083 13       		.uleb128 0x13
 1475 0084 01       		.byte	0x1
ARM GAS  C:\Users\Luis\AppData\Local\Temp\cceSVzfR.s 			page 27


 1476 0085 03       		.uleb128 0x3
 1477 0086 0E       		.uleb128 0xe
 1478 0087 0B       		.uleb128 0xb
 1479 0088 0B       		.uleb128 0xb
 1480 0089 3A       		.uleb128 0x3a
 1481 008a 0B       		.uleb128 0xb
 1482 008b 3B       		.uleb128 0x3b
 1483 008c 05       		.uleb128 0x5
 1484 008d 01       		.uleb128 0x1
 1485 008e 13       		.uleb128 0x13
 1486 008f 00       		.byte	0
 1487 0090 00       		.byte	0
 1488 0091 0C       		.uleb128 0xc
 1489 0092 15       		.uleb128 0x15
 1490 0093 01       		.byte	0x1
 1491 0094 27       		.uleb128 0x27
 1492 0095 19       		.uleb128 0x19
 1493 0096 01       		.uleb128 0x1
 1494 0097 13       		.uleb128 0x13
 1495 0098 00       		.byte	0
 1496 0099 00       		.byte	0
 1497 009a 0D       		.uleb128 0xd
 1498 009b 05       		.uleb128 0x5
 1499 009c 00       		.byte	0
 1500 009d 49       		.uleb128 0x49
 1501 009e 13       		.uleb128 0x13
 1502 009f 00       		.byte	0
 1503 00a0 00       		.byte	0
 1504 00a1 0E       		.uleb128 0xe
 1505 00a2 0F       		.uleb128 0xf
 1506 00a3 00       		.byte	0
 1507 00a4 0B       		.uleb128 0xb
 1508 00a5 0B       		.uleb128 0xb
 1509 00a6 00       		.byte	0
 1510 00a7 00       		.byte	0
 1511 00a8 0F       		.uleb128 0xf
 1512 00a9 13       		.uleb128 0x13
 1513 00aa 01       		.byte	0x1
 1514 00ab 03       		.uleb128 0x3
 1515 00ac 0E       		.uleb128 0xe
 1516 00ad 0B       		.uleb128 0xb
 1517 00ae 05       		.uleb128 0x5
 1518 00af 3A       		.uleb128 0x3a
 1519 00b0 0B       		.uleb128 0xb
 1520 00b1 3B       		.uleb128 0x3b
 1521 00b2 05       		.uleb128 0x5
 1522 00b3 01       		.uleb128 0x1
 1523 00b4 13       		.uleb128 0x13
 1524 00b5 00       		.byte	0
 1525 00b6 00       		.byte	0
 1526 00b7 10       		.uleb128 0x10
 1527 00b8 0D       		.uleb128 0xd
 1528 00b9 00       		.byte	0
 1529 00ba 03       		.uleb128 0x3
 1530 00bb 0E       		.uleb128 0xe
 1531 00bc 3A       		.uleb128 0x3a
 1532 00bd 0B       		.uleb128 0xb
ARM GAS  C:\Users\Luis\AppData\Local\Temp\cceSVzfR.s 			page 28


 1533 00be 3B       		.uleb128 0x3b
 1534 00bf 05       		.uleb128 0x5
 1535 00c0 49       		.uleb128 0x49
 1536 00c1 13       		.uleb128 0x13
 1537 00c2 38       		.uleb128 0x38
 1538 00c3 05       		.uleb128 0x5
 1539 00c4 00       		.byte	0
 1540 00c5 00       		.byte	0
 1541 00c6 11       		.uleb128 0x11
 1542 00c7 0D       		.uleb128 0xd
 1543 00c8 00       		.byte	0
 1544 00c9 03       		.uleb128 0x3
 1545 00ca 08       		.uleb128 0x8
 1546 00cb 3A       		.uleb128 0x3a
 1547 00cc 0B       		.uleb128 0xb
 1548 00cd 3B       		.uleb128 0x3b
 1549 00ce 05       		.uleb128 0x5
 1550 00cf 49       		.uleb128 0x49
 1551 00d0 13       		.uleb128 0x13
 1552 00d1 38       		.uleb128 0x38
 1553 00d2 05       		.uleb128 0x5
 1554 00d3 00       		.byte	0
 1555 00d4 00       		.byte	0
 1556 00d5 12       		.uleb128 0x12
 1557 00d6 0D       		.uleb128 0xd
 1558 00d7 00       		.byte	0
 1559 00d8 03       		.uleb128 0x3
 1560 00d9 08       		.uleb128 0x8
 1561 00da 3A       		.uleb128 0x3a
 1562 00db 0B       		.uleb128 0xb
 1563 00dc 3B       		.uleb128 0x3b
 1564 00dd 0B       		.uleb128 0xb
 1565 00de 49       		.uleb128 0x49
 1566 00df 13       		.uleb128 0x13
 1567 00e0 38       		.uleb128 0x38
 1568 00e1 0B       		.uleb128 0xb
 1569 00e2 00       		.byte	0
 1570 00e3 00       		.byte	0
 1571 00e4 13       		.uleb128 0x13
 1572 00e5 13       		.uleb128 0x13
 1573 00e6 01       		.byte	0x1
 1574 00e7 0B       		.uleb128 0xb
 1575 00e8 0B       		.uleb128 0xb
 1576 00e9 3A       		.uleb128 0x3a
 1577 00ea 0B       		.uleb128 0xb
 1578 00eb 3B       		.uleb128 0x3b
 1579 00ec 0B       		.uleb128 0xb
 1580 00ed 01       		.uleb128 0x1
 1581 00ee 13       		.uleb128 0x13
 1582 00ef 00       		.byte	0
 1583 00f0 00       		.byte	0
 1584 00f1 14       		.uleb128 0x14
 1585 00f2 13       		.uleb128 0x13
 1586 00f3 01       		.byte	0x1
 1587 00f4 0B       		.uleb128 0xb
 1588 00f5 05       		.uleb128 0x5
 1589 00f6 3A       		.uleb128 0x3a
ARM GAS  C:\Users\Luis\AppData\Local\Temp\cceSVzfR.s 			page 29


 1590 00f7 0B       		.uleb128 0xb
 1591 00f8 3B       		.uleb128 0x3b
 1592 00f9 0B       		.uleb128 0xb
 1593 00fa 01       		.uleb128 0x1
 1594 00fb 13       		.uleb128 0x13
 1595 00fc 00       		.byte	0
 1596 00fd 00       		.byte	0
 1597 00fe 15       		.uleb128 0x15
 1598 00ff 01       		.uleb128 0x1
 1599 0100 01       		.byte	0x1
 1600 0101 49       		.uleb128 0x49
 1601 0102 13       		.uleb128 0x13
 1602 0103 01       		.uleb128 0x1
 1603 0104 13       		.uleb128 0x13
 1604 0105 00       		.byte	0
 1605 0106 00       		.byte	0
 1606 0107 16       		.uleb128 0x16
 1607 0108 21       		.uleb128 0x21
 1608 0109 00       		.byte	0
 1609 010a 49       		.uleb128 0x49
 1610 010b 13       		.uleb128 0x13
 1611 010c 2F       		.uleb128 0x2f
 1612 010d 0B       		.uleb128 0xb
 1613 010e 00       		.byte	0
 1614 010f 00       		.byte	0
 1615 0110 17       		.uleb128 0x17
 1616 0111 17       		.uleb128 0x17
 1617 0112 01       		.byte	0x1
 1618 0113 0B       		.uleb128 0xb
 1619 0114 0B       		.uleb128 0xb
 1620 0115 3A       		.uleb128 0x3a
 1621 0116 0B       		.uleb128 0xb
 1622 0117 3B       		.uleb128 0x3b
 1623 0118 0B       		.uleb128 0xb
 1624 0119 01       		.uleb128 0x1
 1625 011a 13       		.uleb128 0x13
 1626 011b 00       		.byte	0
 1627 011c 00       		.byte	0
 1628 011d 18       		.uleb128 0x18
 1629 011e 0D       		.uleb128 0xd
 1630 011f 00       		.byte	0
 1631 0120 03       		.uleb128 0x3
 1632 0121 0E       		.uleb128 0xe
 1633 0122 3A       		.uleb128 0x3a
 1634 0123 0B       		.uleb128 0xb
 1635 0124 3B       		.uleb128 0x3b
 1636 0125 05       		.uleb128 0x5
 1637 0126 49       		.uleb128 0x49
 1638 0127 13       		.uleb128 0x13
 1639 0128 00       		.byte	0
 1640 0129 00       		.byte	0
 1641 012a 19       		.uleb128 0x19
 1642 012b 26       		.uleb128 0x26
 1643 012c 00       		.byte	0
 1644 012d 49       		.uleb128 0x49
 1645 012e 13       		.uleb128 0x13
 1646 012f 00       		.byte	0
ARM GAS  C:\Users\Luis\AppData\Local\Temp\cceSVzfR.s 			page 30


 1647 0130 00       		.byte	0
 1648 0131 1A       		.uleb128 0x1a
 1649 0132 0D       		.uleb128 0xd
 1650 0133 00       		.byte	0
 1651 0134 03       		.uleb128 0x3
 1652 0135 08       		.uleb128 0x8
 1653 0136 3A       		.uleb128 0x3a
 1654 0137 0B       		.uleb128 0xb
 1655 0138 3B       		.uleb128 0x3b
 1656 0139 0B       		.uleb128 0xb
 1657 013a 49       		.uleb128 0x49
 1658 013b 13       		.uleb128 0x13
 1659 013c 00       		.byte	0
 1660 013d 00       		.byte	0
 1661 013e 1B       		.uleb128 0x1b
 1662 013f 16       		.uleb128 0x16
 1663 0140 00       		.byte	0
 1664 0141 03       		.uleb128 0x3
 1665 0142 0E       		.uleb128 0xe
 1666 0143 3A       		.uleb128 0x3a
 1667 0144 0B       		.uleb128 0xb
 1668 0145 3B       		.uleb128 0x3b
 1669 0146 05       		.uleb128 0x5
 1670 0147 49       		.uleb128 0x49
 1671 0148 13       		.uleb128 0x13
 1672 0149 00       		.byte	0
 1673 014a 00       		.byte	0
 1674 014b 1C       		.uleb128 0x1c
 1675 014c 2E       		.uleb128 0x2e
 1676 014d 01       		.byte	0x1
 1677 014e 03       		.uleb128 0x3
 1678 014f 0E       		.uleb128 0xe
 1679 0150 3A       		.uleb128 0x3a
 1680 0151 0B       		.uleb128 0xb
 1681 0152 3B       		.uleb128 0x3b
 1682 0153 0B       		.uleb128 0xb
 1683 0154 27       		.uleb128 0x27
 1684 0155 19       		.uleb128 0x19
 1685 0156 11       		.uleb128 0x11
 1686 0157 01       		.uleb128 0x1
 1687 0158 12       		.uleb128 0x12
 1688 0159 06       		.uleb128 0x6
 1689 015a 40       		.uleb128 0x40
 1690 015b 18       		.uleb128 0x18
 1691 015c 9742     		.uleb128 0x2117
 1692 015e 19       		.uleb128 0x19
 1693 015f 01       		.uleb128 0x1
 1694 0160 13       		.uleb128 0x13
 1695 0161 00       		.byte	0
 1696 0162 00       		.byte	0
 1697 0163 1D       		.uleb128 0x1d
 1698 0164 05       		.uleb128 0x5
 1699 0165 00       		.byte	0
 1700 0166 03       		.uleb128 0x3
 1701 0167 0E       		.uleb128 0xe
 1702 0168 3A       		.uleb128 0x3a
 1703 0169 0B       		.uleb128 0xb
ARM GAS  C:\Users\Luis\AppData\Local\Temp\cceSVzfR.s 			page 31


 1704 016a 3B       		.uleb128 0x3b
 1705 016b 0B       		.uleb128 0xb
 1706 016c 49       		.uleb128 0x49
 1707 016d 13       		.uleb128 0x13
 1708 016e 02       		.uleb128 0x2
 1709 016f 18       		.uleb128 0x18
 1710 0170 00       		.byte	0
 1711 0171 00       		.byte	0
 1712 0172 1E       		.uleb128 0x1e
 1713 0173 2E       		.uleb128 0x2e
 1714 0174 01       		.byte	0x1
 1715 0175 03       		.uleb128 0x3
 1716 0176 0E       		.uleb128 0xe
 1717 0177 3A       		.uleb128 0x3a
 1718 0178 0B       		.uleb128 0xb
 1719 0179 3B       		.uleb128 0x3b
 1720 017a 0B       		.uleb128 0xb
 1721 017b 27       		.uleb128 0x27
 1722 017c 19       		.uleb128 0x19
 1723 017d 11       		.uleb128 0x11
 1724 017e 01       		.uleb128 0x1
 1725 017f 12       		.uleb128 0x12
 1726 0180 06       		.uleb128 0x6
 1727 0181 40       		.uleb128 0x40
 1728 0182 18       		.uleb128 0x18
 1729 0183 9642     		.uleb128 0x2116
 1730 0185 19       		.uleb128 0x19
 1731 0186 01       		.uleb128 0x1
 1732 0187 13       		.uleb128 0x13
 1733 0188 00       		.byte	0
 1734 0189 00       		.byte	0
 1735 018a 1F       		.uleb128 0x1f
 1736 018b 05       		.uleb128 0x5
 1737 018c 00       		.byte	0
 1738 018d 03       		.uleb128 0x3
 1739 018e 08       		.uleb128 0x8
 1740 018f 3A       		.uleb128 0x3a
 1741 0190 0B       		.uleb128 0xb
 1742 0191 3B       		.uleb128 0x3b
 1743 0192 0B       		.uleb128 0xb
 1744 0193 49       		.uleb128 0x49
 1745 0194 13       		.uleb128 0x13
 1746 0195 02       		.uleb128 0x2
 1747 0196 18       		.uleb128 0x18
 1748 0197 00       		.byte	0
 1749 0198 00       		.byte	0
 1750 0199 20       		.uleb128 0x20
 1751 019a 2E       		.uleb128 0x2e
 1752 019b 00       		.byte	0
 1753 019c 3F       		.uleb128 0x3f
 1754 019d 19       		.uleb128 0x19
 1755 019e 03       		.uleb128 0x3
 1756 019f 0E       		.uleb128 0xe
 1757 01a0 3A       		.uleb128 0x3a
 1758 01a1 0B       		.uleb128 0xb
 1759 01a2 3B       		.uleb128 0x3b
 1760 01a3 0B       		.uleb128 0xb
ARM GAS  C:\Users\Luis\AppData\Local\Temp\cceSVzfR.s 			page 32


 1761 01a4 27       		.uleb128 0x27
 1762 01a5 19       		.uleb128 0x19
 1763 01a6 49       		.uleb128 0x49
 1764 01a7 13       		.uleb128 0x13
 1765 01a8 11       		.uleb128 0x11
 1766 01a9 01       		.uleb128 0x1
 1767 01aa 12       		.uleb128 0x12
 1768 01ab 06       		.uleb128 0x6
 1769 01ac 40       		.uleb128 0x40
 1770 01ad 18       		.uleb128 0x18
 1771 01ae 9642     		.uleb128 0x2116
 1772 01b0 19       		.uleb128 0x19
 1773 01b1 00       		.byte	0
 1774 01b2 00       		.byte	0
 1775 01b3 21       		.uleb128 0x21
 1776 01b4 34       		.uleb128 0x34
 1777 01b5 00       		.byte	0
 1778 01b6 03       		.uleb128 0x3
 1779 01b7 0E       		.uleb128 0xe
 1780 01b8 3A       		.uleb128 0x3a
 1781 01b9 0B       		.uleb128 0xb
 1782 01ba 3B       		.uleb128 0x3b
 1783 01bb 0B       		.uleb128 0xb
 1784 01bc 49       		.uleb128 0x49
 1785 01bd 13       		.uleb128 0x13
 1786 01be 02       		.uleb128 0x2
 1787 01bf 18       		.uleb128 0x18
 1788 01c0 00       		.byte	0
 1789 01c1 00       		.byte	0
 1790 01c2 22       		.uleb128 0x22
 1791 01c3 34       		.uleb128 0x34
 1792 01c4 00       		.byte	0
 1793 01c5 03       		.uleb128 0x3
 1794 01c6 0E       		.uleb128 0xe
 1795 01c7 3A       		.uleb128 0x3a
 1796 01c8 0B       		.uleb128 0xb
 1797 01c9 3B       		.uleb128 0x3b
 1798 01ca 05       		.uleb128 0x5
 1799 01cb 49       		.uleb128 0x49
 1800 01cc 13       		.uleb128 0x13
 1801 01cd 3F       		.uleb128 0x3f
 1802 01ce 19       		.uleb128 0x19
 1803 01cf 3C       		.uleb128 0x3c
 1804 01d0 19       		.uleb128 0x19
 1805 01d1 00       		.byte	0
 1806 01d2 00       		.byte	0
 1807 01d3 23       		.uleb128 0x23
 1808 01d4 34       		.uleb128 0x34
 1809 01d5 00       		.byte	0
 1810 01d6 03       		.uleb128 0x3
 1811 01d7 08       		.uleb128 0x8
 1812 01d8 3A       		.uleb128 0x3a
 1813 01d9 0B       		.uleb128 0xb
 1814 01da 3B       		.uleb128 0x3b
 1815 01db 05       		.uleb128 0x5
 1816 01dc 49       		.uleb128 0x49
 1817 01dd 13       		.uleb128 0x13
ARM GAS  C:\Users\Luis\AppData\Local\Temp\cceSVzfR.s 			page 33


 1818 01de 3F       		.uleb128 0x3f
 1819 01df 19       		.uleb128 0x19
 1820 01e0 3C       		.uleb128 0x3c
 1821 01e1 19       		.uleb128 0x19
 1822 01e2 00       		.byte	0
 1823 01e3 00       		.byte	0
 1824 01e4 24       		.uleb128 0x24
 1825 01e5 34       		.uleb128 0x34
 1826 01e6 00       		.byte	0
 1827 01e7 03       		.uleb128 0x3
 1828 01e8 0E       		.uleb128 0xe
 1829 01e9 3A       		.uleb128 0x3a
 1830 01ea 0B       		.uleb128 0xb
 1831 01eb 3B       		.uleb128 0x3b
 1832 01ec 0B       		.uleb128 0xb
 1833 01ed 49       		.uleb128 0x49
 1834 01ee 13       		.uleb128 0x13
 1835 01ef 3F       		.uleb128 0x3f
 1836 01f0 19       		.uleb128 0x19
 1837 01f1 3C       		.uleb128 0x3c
 1838 01f2 19       		.uleb128 0x19
 1839 01f3 00       		.byte	0
 1840 01f4 00       		.byte	0
 1841 01f5 00       		.byte	0
 1842              		.section	.debug_aranges,"",%progbits
 1843 0000 2C000000 		.4byte	0x2c
 1844 0004 0200     		.2byte	0x2
 1845 0006 00000000 		.4byte	.Ldebug_info0
 1846 000a 04       		.byte	0x4
 1847 000b 00       		.byte	0
 1848 000c 0000     		.2byte	0
 1849 000e 0000     		.2byte	0
 1850 0010 00000000 		.4byte	.LFB186
 1851 0014 20000000 		.4byte	.LFE186-.LFB186
 1852 0018 00000000 		.4byte	.LFB260
 1853 001c 2C000000 		.4byte	.LFE260-.LFB260
 1854 0020 00000000 		.4byte	.LFB261
 1855 0024 54000000 		.4byte	.LFE261-.LFB261
 1856 0028 00000000 		.4byte	0
 1857 002c 00000000 		.4byte	0
 1858              		.section	.debug_ranges,"",%progbits
 1859              	.Ldebug_ranges0:
 1860 0000 00000000 		.4byte	.LFB186
 1861 0004 20000000 		.4byte	.LFE186
 1862 0008 00000000 		.4byte	.LFB260
 1863 000c 2C000000 		.4byte	.LFE260
 1864 0010 00000000 		.4byte	.LFB261
 1865 0014 54000000 		.4byte	.LFE261
 1866 0018 00000000 		.4byte	0
 1867 001c 00000000 		.4byte	0
 1868              		.section	.debug_line,"",%progbits
 1869              	.Ldebug_line0:
 1870 0000 5C020000 		.section	.debug_str,"MS",%progbits,1
 1870      02000502 
 1870      00000201 
 1870      FB0E0D00 
 1870      01010101 
ARM GAS  C:\Users\Luis\AppData\Local\Temp\cceSVzfR.s 			page 34


 1871              	.LASF96:
 1872 0000 74625F70 		.ascii	"tb_ptr\000"
 1872      747200
 1873              	.LASF53:
 1874 0007 72656164 		.ascii	"ready_list_t\000"
 1874      795F6C69 
 1874      73745F74 
 1874      00
 1875              	.LASF90:
 1876 0014 73655F74 		.ascii	"se_time\000"
 1876      696D6500 
 1877              	.LASF2:
 1878 001c 73697A65 		.ascii	"size_t\000"
 1878      5F7400
 1879              	.LASF111:
 1880 0023 7264796D 		.ascii	"rdymsg\000"
 1880      736700
 1881              	.LASF13:
 1882 002a 75696E74 		.ascii	"uint64_t\000"
 1882      36345F74 
 1882      00
 1883              	.LASF83:
 1884 0033 6B65726E 		.ascii	"kernel_stats\000"
 1884      656C5F73 
 1884      74617473 
 1884      00
 1885              	.LASF130:
 1886 0040 4F545950 		.ascii	"OTYPER\000"
 1886      455200
 1887              	.LASF89:
 1888 0047 706F7274 		.ascii	"port_intctx\000"
 1888      5F696E74 
 1888      63747800 
 1889              	.LASF52:
 1890 0053 63685F74 		.ascii	"ch_threads_queue\000"
 1890      68726561 
 1890      64735F71 
 1890      75657565 
 1890      00
 1891              	.LASF72:
 1892 0064 73797374 		.ascii	"system_debug_t\000"
 1892      656D5F64 
 1892      65627567 
 1892      5F7400
 1893              	.LASF138:
 1894 0073 696F706F 		.ascii	"ioportmask_t\000"
 1894      72746D61 
 1894      736B5F74 
 1894      00
 1895              	.LASF102:
 1896 0080 776F7273 		.ascii	"worst\000"
 1896      7400
 1897              	.LASF105:
 1898 0086 74696D65 		.ascii	"time_measurement_t\000"
 1898      5F6D6561 
 1898      73757265 
 1898      6D656E74 
ARM GAS  C:\Users\Luis\AppData\Local\Temp\cceSVzfR.s 			page 35


 1898      5F7400
 1899              	.LASF129:
 1900 0099 4D4F4445 		.ascii	"MODER\000"
 1900      5200
 1901              	.LASF14:
 1902 009f 6C6F6E67 		.ascii	"long long unsigned int\000"
 1902      206C6F6E 
 1902      6720756E 
 1902      7369676E 
 1902      65642069 
 1903              	.LASF98:
 1904 00b6 63685F74 		.ascii	"ch_trace_buffer_t\000"
 1904      72616365 
 1904      5F627566 
 1904      6665725F 
 1904      7400
 1905              	.LASF93:
 1906 00c8 73655F73 		.ascii	"se_state\000"
 1906      74617465 
 1906      00
 1907              	.LASF132:
 1908 00d1 50555044 		.ascii	"PUPDR\000"
 1908      5200
 1909              	.LASF112:
 1910 00d7 65786974 		.ascii	"exitcode\000"
 1910      636F6465 
 1910      00
 1911              	.LASF82:
 1912 00e0 6D61696E 		.ascii	"mainthread\000"
 1912      74687265 
 1912      616400
 1913              	.LASF69:
 1914 00eb 76697274 		.ascii	"virtual_timers_list_t\000"
 1914      75616C5F 
 1914      74696D65 
 1914      72735F6C 
 1914      6973745F 
 1915              	.LASF142:
 1916 0101 49544D5F 		.ascii	"ITM_RxBuffer\000"
 1916      52784275 
 1916      66666572 
 1916      00
 1917              	.LASF16:
 1918 010e 72747469 		.ascii	"rttime_t\000"
 1918      6D655F74 
 1918      00
 1919              	.LASF29:
 1920 0117 705F7072 		.ascii	"p_prio\000"
 1920      696F00
 1921              	.LASF12:
 1922 011e 6C6F6E67 		.ascii	"long long int\000"
 1922      206C6F6E 
 1922      6720696E 
 1922      7400
 1923              	.LASF1:
 1924 012c 7369676E 		.ascii	"signed char\000"
 1924      65642063 
ARM GAS  C:\Users\Luis\AppData\Local\Temp\cceSVzfR.s 			page 36


 1924      68617200 
 1925              	.LASF133:
 1926 0138 42535252 		.ascii	"BSRR\000"
 1926      00
 1927              	.LASF44:
 1928 013d 705F6D70 		.ascii	"p_mpool\000"
 1928      6F6F6C00 
 1929              	.LASF122:
 1930 0145 6D5F7175 		.ascii	"m_queue\000"
 1930      65756500 
 1931              	.LASF81:
 1932 014d 76746C69 		.ascii	"vtlist\000"
 1932      737400
 1933              	.LASF114:
 1934 0154 77747472 		.ascii	"wttrp\000"
 1934      7000
 1935              	.LASF79:
 1936 015a 63685F73 		.ascii	"ch_system\000"
 1936      79737465 
 1936      6D00
 1937              	.LASF9:
 1938 0164 6C6F6E67 		.ascii	"long int\000"
 1938      20696E74 
 1938      00
 1939              	.LASF18:
 1940 016d 74737461 		.ascii	"tstate_t\000"
 1940      74655F74 
 1940      00
 1941              	.LASF91:
 1942 0176 73655F74 		.ascii	"se_tp\000"
 1942      7000
 1943              	.LASF31:
 1944 017c 705F6E65 		.ascii	"p_newer\000"
 1944      77657200 
 1945              	.LASF119:
 1946 0184 735F7175 		.ascii	"s_queue\000"
 1946      65756500 
 1947              	.LASF95:
 1948 018c 74625F73 		.ascii	"tb_size\000"
 1948      697A6500 
 1949              	.LASF131:
 1950 0194 4F535045 		.ascii	"OSPEEDR\000"
 1950      45445200 
 1951              	.LASF58:
 1952 019c 725F6E65 		.ascii	"r_newer\000"
 1952      77657200 
 1953              	.LASF86:
 1954 01a4 72656761 		.ascii	"regarm_t\000"
 1954      726D5F74 
 1954      00
 1955              	.LASF65:
 1956 01ad 76745F70 		.ascii	"vt_prev\000"
 1956      72657600 
 1957              	.LASF146:
 1958 01b5 433A5C55 		.ascii	"C:\\Users\\Luis\\git\\DSP-Library-Lanin\\examples\\"
 1958      73657273 
 1958      5C4C7569 
ARM GAS  C:\Users\Luis\AppData\Local\Temp\cceSVzfR.s 			page 37


 1958      735C6769 
 1958      745C4453 
 1959 01e2 53544D33 		.ascii	"STM32F407_EMTECH-LWIP\000"
 1959      32463430 
 1959      375F454D 
 1959      54454348 
 1959      2D4C5749 
 1960              	.LASF73:
 1961 01f8 63685F73 		.ascii	"ch_system_debug\000"
 1961      79737465 
 1961      6D5F6465 
 1961      62756700 
 1962              	.LASF137:
 1963 0208 73746D33 		.ascii	"stm32_gpio_t\000"
 1963      325F6770 
 1963      696F5F74 
 1963      00
 1964              	.LASF126:
 1965 0215 6D757465 		.ascii	"mutex_t\000"
 1965      785F7400 
 1966              	.LASF76:
 1967 021d 6C6F636B 		.ascii	"lock_cnt\000"
 1967      5F636E74 
 1967      00
 1968              	.LASF84:
 1969 0226 69646C65 		.ascii	"idle_thread_wa\000"
 1969      5F746872 
 1969      6561645F 
 1969      776100
 1970              	.LASF23:
 1971 0235 636E745F 		.ascii	"cnt_t\000"
 1971      7400
 1972              	.LASF34:
 1973 023b 705F7374 		.ascii	"p_stklimit\000"
 1973      6B6C696D 
 1973      697400
 1974              	.LASF0:
 1975 0246 756E7369 		.ascii	"unsigned int\000"
 1975      676E6564 
 1975      20696E74 
 1975      00
 1976              	.LASF64:
 1977 0253 76745F6E 		.ascii	"vt_next\000"
 1977      65787400 
 1978              	.LASF6:
 1979 025b 75696E74 		.ascii	"uint16_t\000"
 1979      31365F74 
 1979      00
 1980              	.LASF115:
 1981 0264 77747365 		.ascii	"wtsemp\000"
 1981      6D7000
 1982              	.LASF39:
 1983 026b 705F6D73 		.ascii	"p_msgqueue\000"
 1983      67717565 
 1983      756500
 1984              	.LASF46:
 1985 0276 746C7350 		.ascii	"tlsPtr\000"
ARM GAS  C:\Users\Luis\AppData\Local\Temp\cceSVzfR.s 			page 38


 1985      747200
 1986              	.LASF134:
 1987 027d 4C434B52 		.ascii	"LCKR\000"
 1987      00
 1988              	.LASF106:
 1989 0282 6E5F6972 		.ascii	"n_irq\000"
 1989      7100
 1990              	.LASF120:
 1991 0288 735F636E 		.ascii	"s_cnt\000"
 1991      7400
 1992              	.LASF141:
 1993 028e 6E616D65 		.ascii	"name\000"
 1993      00
 1994              	.LASF7:
 1995 0293 73686F72 		.ascii	"short unsigned int\000"
 1995      7420756E 
 1995      7369676E 
 1995      65642069 
 1995      6E7400
 1996              	.LASF110:
 1997 02a6 6B65726E 		.ascii	"kernel_stats_t\000"
 1997      656C5F73 
 1997      74617473 
 1997      5F7400
 1998              	.LASF49:
 1999 02b5 63685F74 		.ascii	"ch_thread\000"
 1999      68726561 
 1999      6400
 2000              	.LASF21:
 2001 02bf 6D73675F 		.ascii	"msg_t\000"
 2001      7400
 2002              	.LASF103:
 2003 02c5 6C617374 		.ascii	"last\000"
 2003      00
 2004              	.LASF24:
 2005 02ca 75636E74 		.ascii	"ucnt_t\000"
 2005      5F7400
 2006              	.LASF78:
 2007 02d1 63685F73 		.ascii	"ch_system_t\000"
 2007      79737465 
 2007      6D5F7400 
 2008              	.LASF145:
 2009 02dd 6D61696E 		.ascii	"main.c\000"
 2009      2E6300
 2010              	.LASF17:
 2011 02e4 746D6F64 		.ascii	"tmode_t\000"
 2011      655F7400 
 2012              	.LASF109:
 2013 02ec 6D5F6372 		.ascii	"m_crit_isr\000"
 2013      69745F69 
 2013      737200
 2014              	.LASF54:
 2015 02f7 63685F72 		.ascii	"ch_ready_list\000"
 2015      65616479 
 2015      5F6C6973 
 2015      7400
 2016              	.LASF22:
ARM GAS  C:\Users\Luis\AppData\Local\Temp\cceSVzfR.s 			page 39


 2017 0305 6576656E 		.ascii	"eventmask_t\000"
 2017      746D6173 
 2017      6B5F7400 
 2018              	.LASF87:
 2019 0311 73746B61 		.ascii	"stkalign_t\000"
 2019      6C69676E 
 2019      5F7400
 2020              	.LASF140:
 2021 031c 54687265 		.ascii	"Thread1\000"
 2021      61643100 
 2022              	.LASF38:
 2023 0324 705F7761 		.ascii	"p_waiting\000"
 2023      6974696E 
 2023      6700
 2024              	.LASF85:
 2025 032e 73697A65 		.ascii	"sizetype\000"
 2025      74797065 
 2025      00
 2026              	.LASF47:
 2027 0337 74687265 		.ascii	"thread_reference_t\000"
 2027      61645F72 
 2027      65666572 
 2027      656E6365 
 2027      5F7400
 2028              	.LASF70:
 2029 034a 63685F76 		.ascii	"ch_virtual_timers_list\000"
 2029      69727475 
 2029      616C5F74 
 2029      696D6572 
 2029      735F6C69 
 2030              	.LASF128:
 2031 0361 636C6561 		.ascii	"clear\000"
 2031      7200
 2032              	.LASF94:
 2033 0367 63685F73 		.ascii	"ch_swc_event_t\000"
 2033      77635F65 
 2033      76656E74 
 2033      5F7400
 2034              	.LASF71:
 2035 0376 76745F6C 		.ascii	"vt_lasttime\000"
 2035      61737474 
 2035      696D6500 
 2036              	.LASF32:
 2037 0382 705F6F6C 		.ascii	"p_older\000"
 2037      64657200 
 2038              	.LASF57:
 2039 038a 725F6374 		.ascii	"r_ctx\000"
 2039      7800
 2040              	.LASF100:
 2041 0390 746D5F63 		.ascii	"tm_calibration_t\000"
 2041      616C6962 
 2041      72617469 
 2041      6F6E5F74 
 2041      00
 2042              	.LASF60:
 2043 03a1 725F6375 		.ascii	"r_current\000"
 2043      7272656E 
ARM GAS  C:\Users\Luis\AppData\Local\Temp\cceSVzfR.s 			page 40


 2043      7400
 2044              	.LASF59:
 2045 03ab 725F6F6C 		.ascii	"r_older\000"
 2045      64657200 
 2046              	.LASF136:
 2047 03b3 41465248 		.ascii	"AFRH\000"
 2047      00
 2048              	.LASF104:
 2049 03b8 63756D75 		.ascii	"cumulative\000"
 2049      6C617469 
 2049      766500
 2050              	.LASF135:
 2051 03c3 4146524C 		.ascii	"AFRL\000"
 2051      00
 2052              	.LASF148:
 2053 03c8 77615468 		.ascii	"waThread1\000"
 2053      72656164 
 2053      3100
 2054              	.LASF19:
 2055 03d2 74726566 		.ascii	"trefs_t\000"
 2055      735F7400 
 2056              	.LASF97:
 2057 03da 74625F62 		.ascii	"tb_buffer\000"
 2057      75666665 
 2057      7200
 2058              	.LASF62:
 2059 03e4 76697274 		.ascii	"virtual_timer_t\000"
 2059      75616C5F 
 2059      74696D65 
 2059      725F7400 
 2060              	.LASF28:
 2061 03f4 705F7072 		.ascii	"p_prev\000"
 2061      657600
 2062              	.LASF20:
 2063 03fb 74707269 		.ascii	"tprio_t\000"
 2063      6F5F7400 
 2064              	.LASF107:
 2065 0403 6E5F6374 		.ascii	"n_ctxswc\000"
 2065      78737763 
 2065      00
 2066              	.LASF127:
 2067 040c 5F426F6F 		.ascii	"_Bool\000"
 2067      6C00
 2068              	.LASF8:
 2069 0412 696E7433 		.ascii	"int32_t\000"
 2069      325F7400 
 2070              	.LASF4:
 2071 041a 756E7369 		.ascii	"unsigned char\000"
 2071      676E6564 
 2071      20636861 
 2071      7200
 2072              	.LASF42:
 2073 0428 705F6D74 		.ascii	"p_mtxlist\000"
 2073      786C6973 
 2073      7400
 2074              	.LASF5:
 2075 0432 73686F72 		.ascii	"short int\000"
ARM GAS  C:\Users\Luis\AppData\Local\Temp\cceSVzfR.s 			page 41


 2075      7420696E 
 2075      7400
 2076              	.LASF35:
 2077 043c 705F7374 		.ascii	"p_state\000"
 2077      61746500 
 2078              	.LASF56:
 2079 0444 725F7072 		.ascii	"r_prio\000"
 2079      696F00
 2080              	.LASF117:
 2081 044b 65776D61 		.ascii	"ewmask\000"
 2081      736B00
 2082              	.LASF27:
 2083 0452 705F6E65 		.ascii	"p_next\000"
 2083      787400
 2084              	.LASF36:
 2085 0459 705F666C 		.ascii	"p_flags\000"
 2085      61677300 
 2086              	.LASF45:
 2087 0461 705F7374 		.ascii	"p_stats\000"
 2087      61747300 
 2088              	.LASF63:
 2089 0469 63685F76 		.ascii	"ch_virtual_timer\000"
 2089      69727475 
 2089      616C5F74 
 2089      696D6572 
 2089      00
 2090              	.LASF118:
 2091 047a 63685F73 		.ascii	"ch_semaphore\000"
 2091      656D6170 
 2091      686F7265 
 2091      00
 2092              	.LASF41:
 2093 0487 705F6570 		.ascii	"p_epending\000"
 2093      656E6469 
 2093      6E6700
 2094              	.LASF10:
 2095 0492 75696E74 		.ascii	"uint32_t\000"
 2095      33325F74 
 2095      00
 2096              	.LASF116:
 2097 049b 77746D74 		.ascii	"wtmtxp\000"
 2097      787000
 2098              	.LASF55:
 2099 04a2 725F7175 		.ascii	"r_queue\000"
 2099      65756500 
 2100              	.LASF66:
 2101 04aa 76745F64 		.ascii	"vt_delta\000"
 2101      656C7461 
 2101      00
 2102              	.LASF50:
 2103 04b3 63685F74 		.ascii	"ch_threads_list\000"
 2103      68726561 
 2103      64735F6C 
 2103      69737400 
 2104              	.LASF11:
 2105 04c3 6C6F6E67 		.ascii	"long unsigned int\000"
 2105      20756E73 
ARM GAS  C:\Users\Luis\AppData\Local\Temp\cceSVzfR.s 			page 42


 2105      69676E65 
 2105      6420696E 
 2105      7400
 2106              	.LASF125:
 2107 04d5 63686172 		.ascii	"char\000"
 2107      00
 2108              	.LASF144:
 2109 04da 474E5520 		.ascii	"GNU C 4.8.3 20131129 (release) [ARM/embedded-4_8-br"
 2109      4320342E 
 2109      382E3320 
 2109      32303133 
 2109      31313239 
 2110 050d 616E6368 		.ascii	"anch revision 205641] -mcpu=cortex-m4 -mapcs-frame "
 2110      20726576 
 2110      6973696F 
 2110      6E203230 
 2110      35363431 
 2111 0540 2D6D6E6F 		.ascii	"-mno-thumb-interwork -mthumb -ggdb -O0 -falign-func"
 2111      2D746875 
 2111      6D622D69 
 2111      6E746572 
 2111      776F726B 
 2112 0573 74696F6E 		.ascii	"tions=16 -ffunction-sections -fdata-sections -fno-c"
 2112      733D3136 
 2112      202D6666 
 2112      756E6374 
 2112      696F6E2D 
 2113 05a6 6F6D6D6F 		.ascii	"ommon\000"
 2113      6E00
 2114              	.LASF101:
 2115 05ac 62657374 		.ascii	"best\000"
 2115      00
 2116              	.LASF124:
 2117 05b1 6D5F6E65 		.ascii	"m_next\000"
 2117      787400
 2118              	.LASF25:
 2119 05b8 73797374 		.ascii	"systime_t\000"
 2119      696D655F 
 2119      7400
 2120              	.LASF43:
 2121 05c2 705F7265 		.ascii	"p_realprio\000"
 2121      616C7072 
 2121      696F00
 2122              	.LASF61:
 2123 05cd 76746675 		.ascii	"vtfunc_t\000"
 2123      6E635F74 
 2123      00
 2124              	.LASF74:
 2125 05d6 70616E69 		.ascii	"panic_msg\000"
 2125      635F6D73 
 2125      6700
 2126              	.LASF99:
 2127 05e0 6F666673 		.ascii	"offset\000"
 2127      657400
 2128              	.LASF88:
 2129 05e7 636F6E74 		.ascii	"context\000"
 2129      65787400 
ARM GAS  C:\Users\Luis\AppData\Local\Temp\cceSVzfR.s 			page 43


 2130              	.LASF15:
 2131 05ef 7274636E 		.ascii	"rtcnt_t\000"
 2131      745F7400 
 2132              	.LASF68:
 2133 05f7 76745F70 		.ascii	"vt_par\000"
 2133      617200
 2134              	.LASF51:
 2135 05fe 74687265 		.ascii	"threads_queue_t\000"
 2135      6164735F 
 2135      71756575 
 2135      655F7400 
 2136              	.LASF121:
 2137 060e 63685F6D 		.ascii	"ch_mutex\000"
 2137      75746578 
 2137      00
 2138              	.LASF37:
 2139 0617 705F7265 		.ascii	"p_refs\000"
 2139      667300
 2140              	.LASF75:
 2141 061e 6973725F 		.ascii	"isr_cnt\000"
 2141      636E7400 
 2142              	.LASF26:
 2143 0626 74687265 		.ascii	"thread_t\000"
 2143      61645F74 
 2143      00
 2144              	.LASF80:
 2145 062f 726C6973 		.ascii	"rlist\000"
 2145      7400
 2146              	.LASF3:
 2147 0635 75696E74 		.ascii	"uint8_t\000"
 2147      385F7400 
 2148              	.LASF113:
 2149 063d 77746F62 		.ascii	"wtobjp\000"
 2149      6A7000
 2150              	.LASF33:
 2151 0644 705F6E61 		.ascii	"p_name\000"
 2151      6D6500
 2152              	.LASF48:
 2153 064b 74687265 		.ascii	"threads_list_t\000"
 2153      6164735F 
 2153      6C697374 
 2153      5F7400
 2154              	.LASF77:
 2155 065a 74726163 		.ascii	"trace_buffer\000"
 2155      655F6275 
 2155      66666572 
 2155      00
 2156              	.LASF40:
 2157 0667 705F6D73 		.ascii	"p_msg\000"
 2157      6700
 2158              	.LASF147:
 2159 066d 6D61696E 		.ascii	"main\000"
 2159      00
 2160              	.LASF139:
 2161 0672 63685265 		.ascii	"chRegSetThreadName\000"
 2161      67536574 
 2161      54687265 
ARM GAS  C:\Users\Luis\AppData\Local\Temp\cceSVzfR.s 			page 44


 2161      61644E61 
 2161      6D6500
 2162              	.LASF108:
 2163 0685 6D5F6372 		.ascii	"m_crit_thd\000"
 2163      69745F74 
 2163      686400
 2164              	.LASF123:
 2165 0690 6D5F6F77 		.ascii	"m_owner\000"
 2165      6E657200 
 2166              	.LASF92:
 2167 0698 73655F77 		.ascii	"se_wtobjp\000"
 2167      746F626A 
 2167      7000
 2168              	.LASF30:
 2169 06a2 705F6374 		.ascii	"p_ctx\000"
 2169      7800
 2170              	.LASF67:
 2171 06a8 76745F66 		.ascii	"vt_func\000"
 2171      756E6300 
 2172              	.LASF143:
 2173 06b0 77615F68 		.ascii	"wa_http_server\000"
 2173      7474705F 
 2173      73657276 
 2173      657200
 2174              		.ident	"GCC: (GNU Tools for ARM Embedded Processors) 4.8.3 20131129 (release) [ARM/embedded-4_8-br
ARM GAS  C:\Users\Luis\AppData\Local\Temp\cceSVzfR.s 			page 45


DEFINED SYMBOLS
                            *ABS*:00000000 main.c
C:\Users\Luis\AppData\Local\Temp\cceSVzfR.s:19     .text.chRegSetThreadName:00000000 $t
C:\Users\Luis\AppData\Local\Temp\cceSVzfR.s:24     .text.chRegSetThreadName:00000000 chRegSetThreadName
C:\Users\Luis\AppData\Local\Temp\cceSVzfR.s:54     .text.chRegSetThreadName:0000001c $d
C:\Users\Luis\AppData\Local\Temp\cceSVzfR.s:59     .bss.waThread1:00000000 $d
C:\Users\Luis\AppData\Local\Temp\cceSVzfR.s:62     .bss.waThread1:00000000 waThread1
C:\Users\Luis\AppData\Local\Temp\cceSVzfR.s:65     .rodata:00000000 $d
C:\Users\Luis\AppData\Local\Temp\cceSVzfR.s:69     .text.Thread1:00000000 $t
C:\Users\Luis\AppData\Local\Temp\cceSVzfR.s:74     .text.Thread1:00000000 Thread1
C:\Users\Luis\AppData\Local\Temp\cceSVzfR.s:108    .text.Thread1:00000024 $d
C:\Users\Luis\AppData\Local\Temp\cceSVzfR.s:114    .text.main:00000000 $t
C:\Users\Luis\AppData\Local\Temp\cceSVzfR.s:120    .text.main:00000000 main
C:\Users\Luis\AppData\Local\Temp\cceSVzfR.s:166    .text.main:00000044 $d
                     .debug_frame:00000010 $d
C:\Users\Luis\AppData\Local\Temp\cceSVzfR.s:113    .text.Thread1:0000002c $t
C:\Users\Luis\AppData\Local\Temp\cceSVzfR.s:173    .text.main:00000054 $t

UNDEFINED SYMBOLS
ch
chThdSleep
halInit
chSysInit
lwipInit
chThdCreateStatic
wa_http_server
http_server
