ARM GAS  C:\Users\Luis\AppData\Local\Temp\cceSVzfR.s 			page 1


   1              		.syntax unified
   2              		.cpu cortex-m4
   3              		.fpu softvfp
   4              		.eabi_attribute 20, 1
   5              		.eabi_attribute 21, 1
   6              		.eabi_attribute 23, 3
   7              		.eabi_attribute 24, 1
   8              		.eabi_attribute 25, 1
   9              		.eabi_attribute 26, 1
  10              		.eabi_attribute 30, 6
  11              		.eabi_attribute 34, 1
  12              		.eabi_attribute 18, 4
  13              		.thumb
  14              		.file	"main.c"
  15              		.text
  16              	.Ltext0:
  17              		.cfi_sections	.debug_frame
  18              		.section	.text.chRegSetThreadName,"ax",%progbits
  19              		.align	2
  20              		.p2align 4,,15
  21              		.thumb
  22              		.thumb_func
  23              		.type	chRegSetThreadName, %function
  24              	chRegSetThreadName:
  25              	.LFB186:
  26              		.file 1 "../../ChibiOS/os/rt/include/chregistry.h"
  27              		.loc 1 132 0
  28              		.cfi_startproc
  29              		@ args = 0, pretend = 0, frame = 8
  30              		@ frame_needed = 1, uses_anonymous_args = 0
  31              		@ link register save eliminated.
  32 0000 80B4     		push	{r7}
  33              		.cfi_def_cfa_offset 4
  34              		.cfi_offset 7, -4
  35 0002 83B0     		sub	sp, sp, #12
  36              		.cfi_def_cfa_offset 16
  37 0004 00AF     		add	r7, sp, #0
  38              		.cfi_def_cfa_register 7
  39 0006 7860     		str	r0, [r7, #4]
  40              		.loc 1 135 0
  41 0008 044B     		ldr	r3, .L2
  42 000a 9B69     		ldr	r3, [r3, #24]
  43 000c 7A68     		ldr	r2, [r7, #4]
  44 000e 9A61     		str	r2, [r3, #24]
  45              		.loc 1 139 0
  46 0010 0C37     		adds	r7, r7, #12
  47 0012 BD46     		mov	sp, r7
  48              		@ sp needed
  49 0014 5DF8047B 		ldr	r7, [sp], #4
  50 0018 7047     		bx	lr
  51              	.L3:
  52 001a 00BF     		.align	2
  53              	.L2:
  54 001c 00000000 		.word	ch
  55              		.cfi_endproc
  56              	.LFE186:
  57              		.size	chRegSetThreadName, .-chRegSetThreadName
ARM GAS  C:\Users\Luis\AppData\Local\Temp\cceSVzfR.s 			page 2


  58              		.section	.bss.waThread1,"aw",%nobits
  59              		.align	3
  60              		.type	waThread1, %object
  61              		.size	waThread1, 496
  62              	waThread1:
  63 0000 00000000 		.space	496
  63      00000000 
  63      00000000 
  63      00000000 
  63      00000000 
  64              		.section	.rodata
  65              		.align	2
  66              	.LC0:
  67 0000 626C696E 		.ascii	"blinker\000"
  67      6B657200 
  68              		.section	.text.Thread1,"ax",%progbits
  69              		.align	2
  70              		.p2align 4,,15
  71              		.thumb
  72              		.thumb_func
  73              		.type	Thread1, %function
  74              	Thread1:
  75              	.LFB260:
  76              		.file 2 "main.c"
  77              		.loc 2 8 0
  78              		.cfi_startproc
  79              		@ args = 0, pretend = 0, frame = 8
  80              		@ frame_needed = 1, uses_anonymous_args = 0
  81 0000 80B5     		push	{r7, lr}
  82              		.cfi_def_cfa_offset 8
  83              		.cfi_offset 7, -8
  84              		.cfi_offset 14, -4
  85 0002 82B0     		sub	sp, sp, #8
  86              		.cfi_def_cfa_offset 16
  87 0004 00AF     		add	r7, sp, #0
  88              		.cfi_def_cfa_register 7
  89 0006 7860     		str	r0, [r7, #4]
  90              		.loc 2 11 0
  91 0008 0648     		ldr	r0, .L6
  92 000a FFF7FEFF 		bl	chRegSetThreadName
  93              	.L5:
  94              		.loc 2 13 0 discriminator 1
  95 000e 064B     		ldr	r3, .L6+4
  96 0010 054A     		ldr	r2, .L6+4
  97 0012 5269     		ldr	r2, [r2, #20]
  98 0014 82F00402 		eor	r2, r2, #4
  99 0018 5A61     		str	r2, [r3, #20]
 100              		.loc 2 14 0 discriminator 1
 101 001a 41F28830 		movw	r0, #5000
 102 001e FFF7FEFF 		bl	chThdSleep
 103              		.loc 2 15 0 discriminator 1
 104 0022 F4E7     		b	.L5
 105              	.L7:
 106              		.align	2
 107              	.L6:
 108 0024 00000000 		.word	.LC0
 109 0028 00180240 		.word	1073879040
ARM GAS  C:\Users\Luis\AppData\Local\Temp\cceSVzfR.s 			page 3


 110              		.cfi_endproc
 111              	.LFE260:
 112              		.size	Thread1, .-Thread1
 113 002c AFF30080 		.section	.text.main,"ax",%progbits
 114              		.align	2
 115              		.p2align 4,,15
 116              		.global	main
 117              		.thumb
 118              		.thumb_func
 119              		.type	main, %function
 120              	main:
 121              	.LFB261:
 122              		.loc 2 18 0
 123              		.cfi_startproc
 124              		@ args = 0, pretend = 0, frame = 0
 125              		@ frame_needed = 1, uses_anonymous_args = 0
 126 0000 80B5     		push	{r7, lr}
 127              		.cfi_def_cfa_offset 8
 128              		.cfi_offset 7, -8
 129              		.cfi_offset 14, -4
 130 0002 82B0     		sub	sp, sp, #8
 131              		.cfi_def_cfa_offset 16
 132 0004 02AF     		add	r7, sp, #8
 133              		.cfi_def_cfa 7, 8
 134              		.loc 2 20 0
 135 0006 FFF7FEFF 		bl	halInit
 136              		.loc 2 21 0
 137 000a FFF7FEFF 		bl	chSysInit
 138              		.loc 2 22 0
 139 000e 0020     		movs	r0, #0
 140 0010 FFF7FEFF 		bl	lwipInit
 141              		.loc 2 24 0
 142 0014 0023     		movs	r3, #0
 143 0016 0093     		str	r3, [sp]
 144 0018 0A48     		ldr	r0, .L10
 145 001a 4FF4F871 		mov	r1, #496
 146 001e 4022     		movs	r2, #64
 147 0020 094B     		ldr	r3, .L10+4
 148 0022 FFF7FEFF 		bl	chThdCreateStatic
 149              		.loc 2 26 0
 150 0026 0023     		movs	r3, #0
 151 0028 0093     		str	r3, [sp]
 152 002a 0848     		ldr	r0, .L10+8
 153 002c 4FF49E61 		mov	r1, #1264
 154 0030 0422     		movs	r2, #4
 155 0032 074B     		ldr	r3, .L10+12
 156 0034 FFF7FEFF 		bl	chThdCreateStatic
 157              	.L9:
 158              		.loc 2 30 0 discriminator 1
 159 0038 41F28830 		movw	r0, #5000
 160 003c FFF7FEFF 		bl	chThdSleep
 161              		.loc 2 31 0 discriminator 1
 162 0040 FAE7     		b	.L9
 163              	.L11:
 164 0042 00BF     		.align	2
 165              	.L10:
 166 0044 00000000 		.word	waThread1
ARM GAS  C:\Users\Luis\AppData\Local\Temp\cceSVzfR.s 			page 4


 167 0048 00000000 		.word	Thread1
 168 004c 00000000 		.word	wa_http_server
 169 0050 00000000 		.word	http_server
 170              		.cfi_endproc
 171              	.LFE261:
 172              		.size	main, .-main
 173 0054 AFF30080 		.text
 173      AFF30080 
 173      AFF30080 
 174              	.Letext0:
 175              		.file 3 "c:\\emtechesdk\\gcc\\lib\\gcc\\arm-none-eabi\\4.8.3\\include\\stddef.h"
 176              		.file 4 "c:\\emtechesdk\\gcc\\arm-none-eabi\\include\\stdint.h"
 177              		.file 5 "../../ChibiOS/os/rt/ports/ARMCMx/compilers/GCC/chtypes.h"
 178              		.file 6 "../../ChibiOS/os/rt/include/chsystypes.h"
 179              		.file 7 "../../ChibiOS/os/rt/include/chschd.h"
 180              		.file 8 "../../ChibiOS/os/rt/ports/ARMCMx/chcore.h"
 181              		.file 9 "../../ChibiOS/os/rt/ports/ARMCMx/chcore_v7m.h"
 182              		.file 10 "../../ChibiOS/os/rt/include/chdebug.h"
 183              		.file 11 "../../ChibiOS/os/rt/include/chtm.h"
 184              		.file 12 "../../ChibiOS/os/rt/include/chstats.h"
 185              		.file 13 "../../ChibiOS/os/rt/include/chsem.h"
 186              		.file 14 "../../ChibiOS/os/rt/include/chmtx.h"
 187              		.file 15 "../../ChibiOS/os/hal/ports/STM32/LLD/GPIOv2/pal_lld.h"
 188              		.file 16 "../../ChibiOS/os/ext/CMSIS/include/core_cm4.h"
 189              		.file 17 "web/web.h"