ARM GAS  C:\Users\Luis\AppData\Local\Temp\ccucT7nB.s 			page 1


   1              		.syntax unified
   2              		.cpu cortex-m4
   3              		.fpu softvfp
   4              		.eabi_attribute 20, 1
   5              		.eabi_attribute 21, 1
   6              		.eabi_attribute 23, 3
   7              		.eabi_attribute 24, 1
   8              		.eabi_attribute 25, 1
   9              		.eabi_attribute 26, 1
  10              		.eabi_attribute 30, 6
  11              		.eabi_attribute 34, 1
  12              		.eabi_attribute 18, 4
  13              		.thumb
  14              		.file	"mem.c"
  15              		.text
  16              	.Ltext0:
  17              		.cfi_sections	.debug_frame
  18              		.section	.text.osalSysHalt,"ax",%progbits
  19              		.align	2
  20              		.p2align 4,,15
  21              		.thumb
  22              		.thumb_func
  23              		.type	osalSysHalt, %function
  24              	osalSysHalt:
  25              	.LFB230:
  26              		.file 1 "../../ChibiOS/os/hal/osal/rt/osal.h"
  27              		.loc 1 460 0
  28              		.cfi_startproc
  29              		@ args = 0, pretend = 0, frame = 8
  30              		@ frame_needed = 1, uses_anonymous_args = 0
  31 0000 80B5     		push	{r7, lr}
  32              		.cfi_def_cfa_offset 8
  33              		.cfi_offset 7, -8
  34              		.cfi_offset 14, -4
  35 0002 82B0     		sub	sp, sp, #8
  36              		.cfi_def_cfa_offset 16
  37 0004 00AF     		add	r7, sp, #0
  38              		.cfi_def_cfa_register 7
  39 0006 7860     		str	r0, [r7, #4]
  40              		.loc 1 462 0
  41 0008 7868     		ldr	r0, [r7, #4]
  42 000a FFF7FEFF 		bl	chSysHalt
  43              		.loc 1 463 0
  44 000e 0837     		adds	r7, r7, #8
  45 0010 BD46     		mov	sp, r7
  46              		@ sp needed
  47 0012 80BD     		pop	{r7, pc}
  48              		.cfi_endproc
  49              	.LFE230:
  50              		.size	osalSysHalt, .-osalSysHalt
  51              		.global	ram_heap
  52 0014 AFF30080 		.section	.bss.ram_heap,"aw",%nobits
  52      AFF30080 
  52      AFF30080 
  53              		.align	2
  54              		.type	ram_heap, %object
  55              		.size	ram_heap, 1620
ARM GAS  C:\Users\Luis\AppData\Local\Temp\ccucT7nB.s 			page 2


  56              	ram_heap:
  57 0000 00000000 		.space	1620
  57      00000000 
  57      00000000 
  57      00000000 
  57      00000000 
  58              		.section	.bss.ram,"aw",%nobits
  59              		.align	2
  60              		.type	ram, %object
  61              		.size	ram, 4
  62              	ram:
  63 0000 00000000 		.space	4
  64              		.section	.bss.ram_end,"aw",%nobits
  65              		.align	2
  66              		.type	ram_end, %object
  67              		.size	ram_end, 4
  68              	ram_end:
  69 0000 00000000 		.space	4
  70              		.section	.bss.lfree,"aw",%nobits
  71              		.align	2
  72              		.type	lfree, %object
  73              		.size	lfree, 4
  74              	lfree:
  75 0000 00000000 		.space	4
  76              		.section	.bss.mem_mutex,"aw",%nobits
  77              		.align	2
  78              		.type	mem_mutex, %object
  79              		.size	mem_mutex, 4
  80              	mem_mutex:
  81 0000 00000000 		.space	4
  82              		.section	.rodata
  83              		.align	2
  84              	.LC0:
  85 0000 706C7567 		.ascii	"plug_holes: mem >= ram\000"
  85      5F686F6C 
  85      65733A20 
  85      6D656D20 
  85      3E3D2072 
  86 0017 00       		.align	2
  87              	.LC1:
  88 0018 706C7567 		.ascii	"plug_holes: mem < ram_end\000"
  88      5F686F6C 
  88      65733A20 
  88      6D656D20 
  88      3C207261 
  89 0032 0000     		.align	2
  90              	.LC2:
  91 0034 706C7567 		.ascii	"plug_holes: mem->used == 0\000"
  91      5F686F6C 
  91      65733A20 
  91      6D656D2D 
  91      3E757365 
  92 004f 00       		.align	2
  93              	.LC3:
  94 0050 706C7567 		.ascii	"plug_holes: mem->next <= MEM_SIZE_ALIGNED\000"
  94      5F686F6C 
  94      65733A20 
ARM GAS  C:\Users\Luis\AppData\Local\Temp\ccucT7nB.s 			page 3


  94      6D656D2D 
  94      3E6E6578 
  95              		.section	.text.plug_holes,"ax",%progbits
  96              		.align	2
  97              		.p2align 4,,15
  98              		.thumb
  99              		.thumb_func
 100              		.type	plug_holes, %function
 101              	plug_holes:
 102              	.LFB260:
 103              		.file 2 "../../ChibiOS/ext/lwip/src/core/mem.c"
 104              		.loc 2 237 0
 105              		.cfi_startproc
 106              		@ args = 0, pretend = 0, frame = 16
 107              		@ frame_needed = 1, uses_anonymous_args = 0
 108 0000 80B5     		push	{r7, lr}
 109              		.cfi_def_cfa_offset 8
 110              		.cfi_offset 7, -8
 111              		.cfi_offset 14, -4
 112 0002 84B0     		sub	sp, sp, #16
 113              		.cfi_def_cfa_offset 24
 114 0004 00AF     		add	r7, sp, #0
 115              		.cfi_def_cfa_register 7
 116 0006 7860     		str	r0, [r7, #4]
 117              		.loc 2 241 0
 118 0008 384B     		ldr	r3, .L11
 119 000a 1B68     		ldr	r3, [r3]
 120 000c 7A68     		ldr	r2, [r7, #4]
 121 000e 9A42     		cmp	r2, r3
 122 0010 02D2     		bcs	.L3
 123              		.loc 2 241 0 is_stmt 0 discriminator 1
 124 0012 3748     		ldr	r0, .L11+4
 125 0014 FFF7FEFF 		bl	osalSysHalt
 126              	.L3:
 127              		.loc 2 242 0 is_stmt 1
 128 0018 364B     		ldr	r3, .L11+8
 129 001a 1B68     		ldr	r3, [r3]
 130 001c 7A68     		ldr	r2, [r7, #4]
 131 001e 9A42     		cmp	r2, r3
 132 0020 02D3     		bcc	.L4
 133              		.loc 2 242 0 is_stmt 0 discriminator 1
 134 0022 3548     		ldr	r0, .L11+12
 135 0024 FFF7FEFF 		bl	osalSysHalt
 136              	.L4:
 137              		.loc 2 243 0 is_stmt 1
 138 0028 7B68     		ldr	r3, [r7, #4]
 139 002a 1B79     		ldrb	r3, [r3, #4]	@ zero_extendqisi2
 140 002c 002B     		cmp	r3, #0
 141 002e 02D0     		beq	.L5
 142              		.loc 2 243 0 is_stmt 0 discriminator 1
 143 0030 3248     		ldr	r0, .L11+16
 144 0032 FFF7FEFF 		bl	osalSysHalt
 145              	.L5:
 146              		.loc 2 246 0 is_stmt 1
 147 0036 7B68     		ldr	r3, [r7, #4]
 148 0038 1B88     		ldrh	r3, [r3]
 149 003a B3F5C86F 		cmp	r3, #1600
ARM GAS  C:\Users\Luis\AppData\Local\Temp\ccucT7nB.s 			page 4


 150 003e 02D9     		bls	.L6
 151              		.loc 2 246 0 is_stmt 0 discriminator 1
 152 0040 2F48     		ldr	r0, .L11+20
 153 0042 FFF7FEFF 		bl	osalSysHalt
 154              	.L6:
 155              		.loc 2 248 0 is_stmt 1
 156 0046 294B     		ldr	r3, .L11
 157 0048 1A68     		ldr	r2, [r3]
 158 004a 7B68     		ldr	r3, [r7, #4]
 159 004c 1B88     		ldrh	r3, [r3]
 160 004e 1344     		add	r3, r3, r2
 161 0050 FB60     		str	r3, [r7, #12]
 162              		.loc 2 249 0
 163 0052 7A68     		ldr	r2, [r7, #4]
 164 0054 FB68     		ldr	r3, [r7, #12]
 165 0056 9A42     		cmp	r2, r3
 166 0058 1FD0     		beq	.L7
 167              		.loc 2 249 0 is_stmt 0 discriminator 1
 168 005a FB68     		ldr	r3, [r7, #12]
 169 005c 1B79     		ldrb	r3, [r3, #4]	@ zero_extendqisi2
 170 005e 002B     		cmp	r3, #0
 171 0060 1BD1     		bne	.L7
 172 0062 244B     		ldr	r3, .L11+8
 173 0064 1B68     		ldr	r3, [r3]
 174 0066 FA68     		ldr	r2, [r7, #12]
 175 0068 9A42     		cmp	r2, r3
 176 006a 16D0     		beq	.L7
 177              		.loc 2 251 0 is_stmt 1
 178 006c 254B     		ldr	r3, .L11+24
 179 006e 1A68     		ldr	r2, [r3]
 180 0070 FB68     		ldr	r3, [r7, #12]
 181 0072 9A42     		cmp	r2, r3
 182 0074 02D1     		bne	.L8
 183              		.loc 2 252 0
 184 0076 234B     		ldr	r3, .L11+24
 185 0078 7A68     		ldr	r2, [r7, #4]
 186 007a 1A60     		str	r2, [r3]
 187              	.L8:
 188              		.loc 2 254 0
 189 007c FB68     		ldr	r3, [r7, #12]
 190 007e 1A88     		ldrh	r2, [r3]
 191 0080 7B68     		ldr	r3, [r7, #4]
 192 0082 1A80     		strh	r2, [r3]	@ movhi
 193              		.loc 2 255 0
 194 0084 194B     		ldr	r3, .L11
 195 0086 1A68     		ldr	r2, [r3]
 196 0088 FB68     		ldr	r3, [r7, #12]
 197 008a 1B88     		ldrh	r3, [r3]
 198 008c 1344     		add	r3, r3, r2
 199 008e 7968     		ldr	r1, [r7, #4]
 200 0090 164A     		ldr	r2, .L11
 201 0092 1268     		ldr	r2, [r2]
 202 0094 8A1A     		subs	r2, r1, r2
 203 0096 92B2     		uxth	r2, r2
 204 0098 5A80     		strh	r2, [r3, #2]	@ movhi
 205              	.L7:
 206              		.loc 2 259 0
ARM GAS  C:\Users\Luis\AppData\Local\Temp\ccucT7nB.s 			page 5


 207 009a 144B     		ldr	r3, .L11
 208 009c 1A68     		ldr	r2, [r3]
 209 009e 7B68     		ldr	r3, [r7, #4]
 210 00a0 5B88     		ldrh	r3, [r3, #2]
 211 00a2 1344     		add	r3, r3, r2
 212 00a4 BB60     		str	r3, [r7, #8]
 213              		.loc 2 260 0
 214 00a6 BA68     		ldr	r2, [r7, #8]
 215 00a8 7B68     		ldr	r3, [r7, #4]
 216 00aa 9A42     		cmp	r2, r3
 217 00ac 1AD0     		beq	.L2
 218              		.loc 2 260 0 is_stmt 0 discriminator 1
 219 00ae BB68     		ldr	r3, [r7, #8]
 220 00b0 1B79     		ldrb	r3, [r3, #4]	@ zero_extendqisi2
 221 00b2 002B     		cmp	r3, #0
 222 00b4 16D1     		bne	.L2
 223              		.loc 2 262 0 is_stmt 1
 224 00b6 134B     		ldr	r3, .L11+24
 225 00b8 1A68     		ldr	r2, [r3]
 226 00ba 7B68     		ldr	r3, [r7, #4]
 227 00bc 9A42     		cmp	r2, r3
 228 00be 02D1     		bne	.L10
 229              		.loc 2 263 0
 230 00c0 104B     		ldr	r3, .L11+24
 231 00c2 BA68     		ldr	r2, [r7, #8]
 232 00c4 1A60     		str	r2, [r3]
 233              	.L10:
 234              		.loc 2 265 0
 235 00c6 7B68     		ldr	r3, [r7, #4]
 236 00c8 1A88     		ldrh	r2, [r3]
 237 00ca BB68     		ldr	r3, [r7, #8]
 238 00cc 1A80     		strh	r2, [r3]	@ movhi
 239              		.loc 2 266 0
 240 00ce 074B     		ldr	r3, .L11
 241 00d0 1A68     		ldr	r2, [r3]
 242 00d2 7B68     		ldr	r3, [r7, #4]
 243 00d4 1B88     		ldrh	r3, [r3]
 244 00d6 1344     		add	r3, r3, r2
 245 00d8 B968     		ldr	r1, [r7, #8]
 246 00da 044A     		ldr	r2, .L11
 247 00dc 1268     		ldr	r2, [r2]
 248 00de 8A1A     		subs	r2, r1, r2
 249 00e0 92B2     		uxth	r2, r2
 250 00e2 5A80     		strh	r2, [r3, #2]	@ movhi
 251              	.L2:
 252              		.loc 2 268 0
 253 00e4 1037     		adds	r7, r7, #16
 254 00e6 BD46     		mov	sp, r7
 255              		@ sp needed
 256 00e8 80BD     		pop	{r7, pc}
 257              	.L12:
 258 00ea 00BF     		.align	2
 259              	.L11:
 260 00ec 00000000 		.word	ram
 261 00f0 00000000 		.word	.LC0
 262 00f4 00000000 		.word	ram_end
 263 00f8 18000000 		.word	.LC1
ARM GAS  C:\Users\Luis\AppData\Local\Temp\ccucT7nB.s 			page 6


 264 00fc 34000000 		.word	.LC2
 265 0100 50000000 		.word	.LC3
 266 0104 00000000 		.word	lfree
 267              		.cfi_endproc
 268              	.LFE260:
 269              		.size	plug_holes, .-plug_holes
 270 0108 AFF30080 		.section	.rodata
 270      AFF30080 
 271 007a 0000     		.align	2
 272              	.LC4:
 273 007c 6661696C 		.ascii	"failed to create mem_mutex\000"
 273      65642074 
 273      6F206372 
 273      65617465 
 273      206D656D 
 274              		.section	.text.mem_init,"ax",%progbits
 275              		.align	2
 276              		.p2align 4,,15
 277              		.global	mem_init
 278              		.thumb
 279              		.thumb_func
 280              		.type	mem_init, %function
 281              	mem_init:
 282              	.LFB261:
 283              		.loc 2 275 0
 284              		.cfi_startproc
 285              		@ args = 0, pretend = 0, frame = 8
 286              		@ frame_needed = 1, uses_anonymous_args = 0
 287 0000 80B5     		push	{r7, lr}
 288              		.cfi_def_cfa_offset 8
 289              		.cfi_offset 7, -8
 290              		.cfi_offset 14, -4
 291 0002 82B0     		sub	sp, sp, #8
 292              		.cfi_def_cfa_offset 16
 293 0004 00AF     		add	r7, sp, #0
 294              		.cfi_def_cfa_register 7
 295              		.loc 2 282 0
 296 0006 1F4B     		ldr	r3, .L15
 297 0008 0333     		adds	r3, r3, #3
 298 000a 23F00303 		bic	r3, r3, #3
 299 000e 1A46     		mov	r2, r3
 300 0010 1D4B     		ldr	r3, .L15+4
 301 0012 1A60     		str	r2, [r3]
 302              		.loc 2 284 0
 303 0014 1C4B     		ldr	r3, .L15+4
 304 0016 1B68     		ldr	r3, [r3]
 305 0018 7B60     		str	r3, [r7, #4]
 306              		.loc 2 285 0
 307 001a 7B68     		ldr	r3, [r7, #4]
 308 001c 4FF4C862 		mov	r2, #1600
 309 0020 1A80     		strh	r2, [r3]	@ movhi
 310              		.loc 2 286 0
 311 0022 7B68     		ldr	r3, [r7, #4]
 312 0024 0022     		movs	r2, #0
 313 0026 5A80     		strh	r2, [r3, #2]	@ movhi
 314              		.loc 2 287 0
 315 0028 7B68     		ldr	r3, [r7, #4]
ARM GAS  C:\Users\Luis\AppData\Local\Temp\ccucT7nB.s 			page 7


 316 002a 0022     		movs	r2, #0
 317 002c 1A71     		strb	r2, [r3, #4]
 318              		.loc 2 289 0
 319 002e 164B     		ldr	r3, .L15+4
 320 0030 1B68     		ldr	r3, [r3]
 321 0032 03F5C862 		add	r2, r3, #1600
 322 0036 154B     		ldr	r3, .L15+8
 323 0038 1A60     		str	r2, [r3]
 324              		.loc 2 290 0
 325 003a 144B     		ldr	r3, .L15+8
 326 003c 1B68     		ldr	r3, [r3]
 327 003e 0122     		movs	r2, #1
 328 0040 1A71     		strb	r2, [r3, #4]
 329              		.loc 2 291 0
 330 0042 124B     		ldr	r3, .L15+8
 331 0044 1B68     		ldr	r3, [r3]
 332 0046 4FF4C862 		mov	r2, #1600
 333 004a 1A80     		strh	r2, [r3]	@ movhi
 334              		.loc 2 292 0
 335 004c 0F4B     		ldr	r3, .L15+8
 336 004e 1B68     		ldr	r3, [r3]
 337 0050 4FF4C862 		mov	r2, #1600
 338 0054 5A80     		strh	r2, [r3, #2]	@ movhi
 339              		.loc 2 295 0
 340 0056 0C4B     		ldr	r3, .L15+4
 341 0058 1A68     		ldr	r2, [r3]
 342 005a 0D4B     		ldr	r3, .L15+12
 343 005c 1A60     		str	r2, [r3]
 344              		.loc 2 297 0
 345 005e 0D4B     		ldr	r3, .L15+16
 346 0060 4FF4C862 		mov	r2, #1600
 347 0064 A3F8A820 		strh	r2, [r3, #168]	@ movhi
 348              		.loc 2 299 0
 349 0068 0B48     		ldr	r0, .L15+20
 350 006a 0121     		movs	r1, #1
 351 006c FFF7FEFF 		bl	sys_sem_new
 352 0070 0346     		mov	r3, r0
 353 0072 002B     		cmp	r3, #0
 354 0074 02D0     		beq	.L13
 355              		.loc 2 300 0 discriminator 1
 356 0076 0948     		ldr	r0, .L15+24
 357 0078 FFF7FEFF 		bl	osalSysHalt
 358              	.L13:
 359              		.loc 2 302 0
 360 007c 0837     		adds	r7, r7, #8
 361 007e BD46     		mov	sp, r7
 362              		@ sp needed
 363 0080 80BD     		pop	{r7, pc}
 364              	.L16:
 365 0082 00BF     		.align	2
 366              	.L15:
 367 0084 00000000 		.word	ram_heap
 368 0088 00000000 		.word	ram
 369 008c 00000000 		.word	ram_end
 370 0090 00000000 		.word	lfree
 371 0094 00000000 		.word	lwip_stats
 372 0098 00000000 		.word	mem_mutex
ARM GAS  C:\Users\Luis\AppData\Local\Temp\ccucT7nB.s 			page 8


 373 009c 7C000000 		.word	.LC4
 374              		.cfi_endproc
 375              	.LFE261:
 376              		.size	mem_init, .-mem_init
 377              		.section	.rodata
 378 0097 00       		.align	2
 379              	.LC5:
 380 0098 6D656D5F 		.ascii	"mem_free: sanity check alignment\000"
 380      66726565 
 380      3A207361 
 380      6E697479 
 380      20636865 
 381 00b9 000000   		.align	2
 382              	.LC6:
 383 00bc 6D656D5F 		.ascii	"mem_free: legal memory\000"
 383      66726565 
 383      3A206C65 
 383      67616C20 
 383      6D656D6F 
 384 00d3 00       		.align	2
 385              	.LC7:
 386 00d4 6D656D5F 		.ascii	"mem_free: mem->used\000"
 386      66726565 
 386      3A206D65 
 386      6D2D3E75 
 386      73656400 
 387              		.section	.text.mem_free,"ax",%progbits
 388              		.align	2
 389              		.p2align 4,,15
 390              		.global	mem_free
 391              		.thumb
 392              		.thumb_func
 393              		.type	mem_free, %function
 394              	mem_free:
 395              	.LFB262:
 396              		.loc 2 312 0
 397              		.cfi_startproc
 398              		@ args = 0, pretend = 0, frame = 16
 399              		@ frame_needed = 1, uses_anonymous_args = 0
 400 0000 80B5     		push	{r7, lr}
 401              		.cfi_def_cfa_offset 8
 402              		.cfi_offset 7, -8
 403              		.cfi_offset 14, -4
 404 0002 84B0     		sub	sp, sp, #16
 405              		.cfi_def_cfa_offset 24
 406 0004 00AF     		add	r7, sp, #0
 407              		.cfi_def_cfa_register 7
 408 0006 7860     		str	r0, [r7, #4]
 409              		.loc 2 316 0
 410 0008 7B68     		ldr	r3, [r7, #4]
 411 000a 002B     		cmp	r3, #0
 412 000c 00D1     		bne	.L18
 413              		.loc 2 318 0
 414 000e 57E0     		b	.L17
 415              	.L18:
 416              		.loc 2 320 0
 417 0010 7B68     		ldr	r3, [r7, #4]
ARM GAS  C:\Users\Luis\AppData\Local\Temp\ccucT7nB.s 			page 9


 418 0012 03F00303 		and	r3, r3, #3
 419 0016 002B     		cmp	r3, #0
 420 0018 02D0     		beq	.L20
 421              		.loc 2 320 0 is_stmt 0 discriminator 1
 422 001a 2B48     		ldr	r0, .L27
 423 001c FFF7FEFF 		bl	osalSysHalt
 424              	.L20:
 425              		.loc 2 322 0 is_stmt 1
 426 0020 2A4B     		ldr	r3, .L27+4
 427 0022 1B68     		ldr	r3, [r3]
 428 0024 7A68     		ldr	r2, [r7, #4]
 429 0026 9A42     		cmp	r2, r3
 430 0028 04D3     		bcc	.L21
 431              		.loc 2 322 0 is_stmt 0 discriminator 2
 432 002a 294B     		ldr	r3, .L27+8
 433 002c 1B68     		ldr	r3, [r3]
 434 002e 7A68     		ldr	r2, [r7, #4]
 435 0030 9A42     		cmp	r2, r3
 436 0032 02D3     		bcc	.L22
 437              	.L21:
 438              		.loc 2 322 0 discriminator 1
 439 0034 2748     		ldr	r0, .L27+12
 440 0036 FFF7FEFF 		bl	osalSysHalt
 441              	.L22:
 442              		.loc 2 325 0 is_stmt 1
 443 003a 244B     		ldr	r3, .L27+4
 444 003c 1B68     		ldr	r3, [r3]
 445 003e 7A68     		ldr	r2, [r7, #4]
 446 0040 9A42     		cmp	r2, r3
 447 0042 04D3     		bcc	.L23
 448              		.loc 2 325 0 is_stmt 0 discriminator 1
 449 0044 224B     		ldr	r3, .L27+8
 450 0046 1B68     		ldr	r3, [r3]
 451 0048 7A68     		ldr	r2, [r7, #4]
 452 004a 9A42     		cmp	r2, r3
 453 004c 08D3     		bcc	.L24
 454              	.L23:
 455              		.loc 2 330 0 is_stmt 1
 456 004e 224B     		ldr	r3, .L27+16
 457 0050 B3F8B030 		ldrh	r3, [r3, #176]
 458 0054 0133     		adds	r3, r3, #1
 459 0056 9AB2     		uxth	r2, r3
 460 0058 1F4B     		ldr	r3, .L27+16
 461 005a A3F8B020 		strh	r2, [r3, #176]	@ movhi
 462              		.loc 2 332 0
 463 005e 2FE0     		b	.L17
 464              	.L24:
 465              		.loc 2 335 0
 466 0060 1E48     		ldr	r0, .L27+20
 467 0062 0021     		movs	r1, #0
 468 0064 FFF7FEFF 		bl	sys_arch_sem_wait
 469              		.loc 2 337 0
 470 0068 7B68     		ldr	r3, [r7, #4]
 471 006a 083B     		subs	r3, r3, #8
 472 006c FB60     		str	r3, [r7, #12]
 473              		.loc 2 339 0
 474 006e FB68     		ldr	r3, [r7, #12]
ARM GAS  C:\Users\Luis\AppData\Local\Temp\ccucT7nB.s 			page 10


 475 0070 1B79     		ldrb	r3, [r3, #4]	@ zero_extendqisi2
 476 0072 002B     		cmp	r3, #0
 477 0074 02D1     		bne	.L25
 478              		.loc 2 339 0 is_stmt 0 discriminator 1
 479 0076 1A48     		ldr	r0, .L27+24
 480 0078 FFF7FEFF 		bl	osalSysHalt
 481              	.L25:
 482              		.loc 2 341 0 is_stmt 1
 483 007c FB68     		ldr	r3, [r7, #12]
 484 007e 0022     		movs	r2, #0
 485 0080 1A71     		strb	r2, [r3, #4]
 486              		.loc 2 343 0
 487 0082 184B     		ldr	r3, .L27+28
 488 0084 1B68     		ldr	r3, [r3]
 489 0086 FA68     		ldr	r2, [r7, #12]
 490 0088 9A42     		cmp	r2, r3
 491 008a 02D2     		bcs	.L26
 492              		.loc 2 345 0
 493 008c 154B     		ldr	r3, .L27+28
 494 008e FA68     		ldr	r2, [r7, #12]
 495 0090 1A60     		str	r2, [r3]
 496              	.L26:
 497              		.loc 2 348 0
 498 0092 114B     		ldr	r3, .L27+16
 499 0094 B3F8AA20 		ldrh	r2, [r3, #170]
 500 0098 F968     		ldr	r1, [r7, #12]
 501 009a 0C4B     		ldr	r3, .L27+4
 502 009c 1B68     		ldr	r3, [r3]
 503 009e CB1A     		subs	r3, r1, r3
 504 00a0 99B2     		uxth	r1, r3
 505 00a2 FB68     		ldr	r3, [r7, #12]
 506 00a4 1B88     		ldrh	r3, [r3]
 507 00a6 CB1A     		subs	r3, r1, r3
 508 00a8 9BB2     		uxth	r3, r3
 509 00aa 1344     		add	r3, r3, r2
 510 00ac 9AB2     		uxth	r2, r3
 511 00ae 0A4B     		ldr	r3, .L27+16
 512 00b0 A3F8AA20 		strh	r2, [r3, #170]	@ movhi
 513              		.loc 2 351 0
 514 00b4 F868     		ldr	r0, [r7, #12]
 515 00b6 FFF7FEFF 		bl	plug_holes
 516              		.loc 2 355 0
 517 00ba 0848     		ldr	r0, .L27+20
 518 00bc FFF7FEFF 		bl	sys_sem_signal
 519              	.L17:
 520              		.loc 2 356 0
 521 00c0 1037     		adds	r7, r7, #16
 522 00c2 BD46     		mov	sp, r7
 523              		@ sp needed
 524 00c4 80BD     		pop	{r7, pc}
 525              	.L28:
 526 00c6 00BF     		.align	2
 527              	.L27:
 528 00c8 98000000 		.word	.LC5
 529 00cc 00000000 		.word	ram
 530 00d0 00000000 		.word	ram_end
 531 00d4 BC000000 		.word	.LC6
ARM GAS  C:\Users\Luis\AppData\Local\Temp\ccucT7nB.s 			page 11


 532 00d8 00000000 		.word	lwip_stats
 533 00dc 00000000 		.word	mem_mutex
 534 00e0 D4000000 		.word	.LC7
 535 00e4 00000000 		.word	lfree
 536              		.cfi_endproc
 537              	.LFE262:
 538              		.size	mem_free, .-mem_free
 539 00e8 AFF30080 		.section	.rodata
 539      AFF30080 
 540              		.align	2
 541              	.LC8:
 542 00e8 6D656D5F 		.ascii	"mem_trim: legal memory\000"
 542      7472696D 
 542      3A206C65 
 542      67616C20 
 542      6D656D6F 
 543 00ff 00       		.align	2
 544              	.LC9:
 545 0100 6D656D5F 		.ascii	"mem_trim can only shrink memory\000"
 545      7472696D 
 545      2063616E 
 545      206F6E6C 
 545      79207368 
 546              		.section	.text.mem_trim,"ax",%progbits
 547              		.align	2
 548              		.p2align 4,,15
 549              		.global	mem_trim
 550              		.thumb
 551              		.thumb_func
 552              		.type	mem_trim, %function
 553              	mem_trim:
 554              	.LFB263:
 555              		.loc 2 370 0
 556              		.cfi_startproc
 557              		@ args = 0, pretend = 0, frame = 24
 558              		@ frame_needed = 1, uses_anonymous_args = 0
 559 0000 80B5     		push	{r7, lr}
 560              		.cfi_def_cfa_offset 8
 561              		.cfi_offset 7, -8
 562              		.cfi_offset 14, -4
 563 0002 86B0     		sub	sp, sp, #24
 564              		.cfi_def_cfa_offset 32
 565 0004 00AF     		add	r7, sp, #0
 566              		.cfi_def_cfa_register 7
 567 0006 7860     		str	r0, [r7, #4]
 568 0008 0B46     		mov	r3, r1
 569 000a 7B80     		strh	r3, [r7, #2]	@ movhi
 570              		.loc 2 379 0
 571 000c 7B88     		ldrh	r3, [r7, #2]	@ movhi
 572 000e 0333     		adds	r3, r3, #3
 573 0010 9BB2     		uxth	r3, r3
 574 0012 23F00303 		bic	r3, r3, #3
 575 0016 7B80     		strh	r3, [r7, #2]	@ movhi
 576              		.loc 2 381 0
 577 0018 7B88     		ldrh	r3, [r7, #2]
 578 001a 0B2B     		cmp	r3, #11
 579 001c 01D8     		bhi	.L30
ARM GAS  C:\Users\Luis\AppData\Local\Temp\ccucT7nB.s 			page 12


 580              		.loc 2 383 0
 581 001e 0C23     		movs	r3, #12
 582 0020 7B80     		strh	r3, [r7, #2]	@ movhi
 583              	.L30:
 584              		.loc 2 386 0
 585 0022 7B88     		ldrh	r3, [r7, #2]
 586 0024 B3F5C86F 		cmp	r3, #1600
 587 0028 01D9     		bls	.L31
 588              		.loc 2 387 0
 589 002a 0023     		movs	r3, #0
 590 002c D0E0     		b	.L32
 591              	.L31:
 592              		.loc 2 390 0
 593 002e 6A4B     		ldr	r3, .L46
 594 0030 1B68     		ldr	r3, [r3]
 595 0032 7A68     		ldr	r2, [r7, #4]
 596 0034 9A42     		cmp	r2, r3
 597 0036 04D3     		bcc	.L33
 598              		.loc 2 390 0 is_stmt 0 discriminator 2
 599 0038 684B     		ldr	r3, .L46+4
 600 003a 1B68     		ldr	r3, [r3]
 601 003c 7A68     		ldr	r2, [r7, #4]
 602 003e 9A42     		cmp	r2, r3
 603 0040 02D3     		bcc	.L34
 604              	.L33:
 605              		.loc 2 390 0 discriminator 1
 606 0042 6748     		ldr	r0, .L46+8
 607 0044 FFF7FEFF 		bl	osalSysHalt
 608              	.L34:
 609              		.loc 2 393 0 is_stmt 1
 610 0048 634B     		ldr	r3, .L46
 611 004a 1B68     		ldr	r3, [r3]
 612 004c 7A68     		ldr	r2, [r7, #4]
 613 004e 9A42     		cmp	r2, r3
 614 0050 04D3     		bcc	.L35
 615              		.loc 2 393 0 is_stmt 0 discriminator 1
 616 0052 624B     		ldr	r3, .L46+4
 617 0054 1B68     		ldr	r3, [r3]
 618 0056 7A68     		ldr	r2, [r7, #4]
 619 0058 9A42     		cmp	r2, r3
 620 005a 09D3     		bcc	.L36
 621              	.L35:
 622              		.loc 2 398 0 is_stmt 1
 623 005c 614B     		ldr	r3, .L46+12
 624 005e B3F8B030 		ldrh	r3, [r3, #176]
 625 0062 0133     		adds	r3, r3, #1
 626 0064 9AB2     		uxth	r2, r3
 627 0066 5F4B     		ldr	r3, .L46+12
 628 0068 A3F8B020 		strh	r2, [r3, #176]	@ movhi
 629              		.loc 2 400 0
 630 006c 7B68     		ldr	r3, [r7, #4]
 631 006e AFE0     		b	.L32
 632              	.L36:
 633              		.loc 2 403 0
 634 0070 7B68     		ldr	r3, [r7, #4]
 635 0072 083B     		subs	r3, r3, #8
 636 0074 7B61     		str	r3, [r7, #20]
ARM GAS  C:\Users\Luis\AppData\Local\Temp\ccucT7nB.s 			page 13


 637              		.loc 2 405 0
 638 0076 7A69     		ldr	r2, [r7, #20]
 639 0078 574B     		ldr	r3, .L46
 640 007a 1B68     		ldr	r3, [r3]
 641 007c D31A     		subs	r3, r2, r3
 642 007e 7B82     		strh	r3, [r7, #18]	@ movhi
 643              		.loc 2 407 0
 644 0080 7B69     		ldr	r3, [r7, #20]
 645 0082 1A88     		ldrh	r2, [r3]
 646 0084 7B8A     		ldrh	r3, [r7, #18]	@ movhi
 647 0086 D31A     		subs	r3, r2, r3
 648 0088 9BB2     		uxth	r3, r3
 649 008a 083B     		subs	r3, r3, #8
 650 008c 3B82     		strh	r3, [r7, #16]	@ movhi
 651              		.loc 2 408 0
 652 008e 7A88     		ldrh	r2, [r7, #2]
 653 0090 3B8A     		ldrh	r3, [r7, #16]
 654 0092 9A42     		cmp	r2, r3
 655 0094 02D9     		bls	.L37
 656              		.loc 2 408 0 is_stmt 0 discriminator 1
 657 0096 5448     		ldr	r0, .L46+16
 658 0098 FFF7FEFF 		bl	osalSysHalt
 659              	.L37:
 660              		.loc 2 409 0 is_stmt 1
 661 009c 7A88     		ldrh	r2, [r7, #2]
 662 009e 3B8A     		ldrh	r3, [r7, #16]
 663 00a0 9A42     		cmp	r2, r3
 664 00a2 01D9     		bls	.L38
 665              		.loc 2 411 0
 666 00a4 0023     		movs	r3, #0
 667 00a6 93E0     		b	.L32
 668              	.L38:
 669              		.loc 2 413 0
 670 00a8 7A88     		ldrh	r2, [r7, #2]
 671 00aa 3B8A     		ldrh	r3, [r7, #16]
 672 00ac 9A42     		cmp	r2, r3
 673 00ae 01D1     		bne	.L39
 674              		.loc 2 415 0
 675 00b0 7B68     		ldr	r3, [r7, #4]
 676 00b2 8DE0     		b	.L32
 677              	.L39:
 678              		.loc 2 419 0
 679 00b4 4D48     		ldr	r0, .L46+20
 680 00b6 0021     		movs	r1, #0
 681 00b8 FFF7FEFF 		bl	sys_arch_sem_wait
 682              		.loc 2 421 0
 683 00bc 464B     		ldr	r3, .L46
 684 00be 1A68     		ldr	r2, [r3]
 685 00c0 7B69     		ldr	r3, [r7, #20]
 686 00c2 1B88     		ldrh	r3, [r3]
 687 00c4 1344     		add	r3, r3, r2
 688 00c6 FB60     		str	r3, [r7, #12]
 689              		.loc 2 422 0
 690 00c8 FB68     		ldr	r3, [r7, #12]
 691 00ca 1B79     		ldrb	r3, [r3, #4]	@ zero_extendqisi2
 692 00cc 002B     		cmp	r3, #0
 693 00ce 3DD1     		bne	.L40
ARM GAS  C:\Users\Luis\AppData\Local\Temp\ccucT7nB.s 			page 14


 694              	.LBB2:
 695              		.loc 2 426 0
 696 00d0 FB68     		ldr	r3, [r7, #12]
 697 00d2 1B88     		ldrh	r3, [r3]	@ movhi
 698 00d4 7B81     		strh	r3, [r7, #10]	@ movhi
 699              		.loc 2 428 0
 700 00d6 7A8A     		ldrh	r2, [r7, #18]	@ movhi
 701 00d8 7B88     		ldrh	r3, [r7, #2]	@ movhi
 702 00da 1344     		add	r3, r3, r2
 703 00dc 9BB2     		uxth	r3, r3
 704 00de 0833     		adds	r3, r3, #8
 705 00e0 3B81     		strh	r3, [r7, #8]	@ movhi
 706              		.loc 2 429 0
 707 00e2 434B     		ldr	r3, .L46+24
 708 00e4 1A68     		ldr	r2, [r3]
 709 00e6 FB68     		ldr	r3, [r7, #12]
 710 00e8 9A42     		cmp	r2, r3
 711 00ea 05D1     		bne	.L41
 712              		.loc 2 430 0
 713 00ec 3A4B     		ldr	r3, .L46
 714 00ee 1A68     		ldr	r2, [r3]
 715 00f0 3B89     		ldrh	r3, [r7, #8]
 716 00f2 1A44     		add	r2, r2, r3
 717 00f4 3E4B     		ldr	r3, .L46+24
 718 00f6 1A60     		str	r2, [r3]
 719              	.L41:
 720              		.loc 2 432 0
 721 00f8 374B     		ldr	r3, .L46
 722 00fa 1A68     		ldr	r2, [r3]
 723 00fc 3B89     		ldrh	r3, [r7, #8]
 724 00fe 1344     		add	r3, r3, r2
 725 0100 FB60     		str	r3, [r7, #12]
 726              		.loc 2 433 0
 727 0102 FB68     		ldr	r3, [r7, #12]
 728 0104 0022     		movs	r2, #0
 729 0106 1A71     		strb	r2, [r3, #4]
 730              		.loc 2 435 0
 731 0108 FB68     		ldr	r3, [r7, #12]
 732 010a 7A89     		ldrh	r2, [r7, #10]	@ movhi
 733 010c 1A80     		strh	r2, [r3]	@ movhi
 734              		.loc 2 437 0
 735 010e FB68     		ldr	r3, [r7, #12]
 736 0110 7A8A     		ldrh	r2, [r7, #18]	@ movhi
 737 0112 5A80     		strh	r2, [r3, #2]	@ movhi
 738              		.loc 2 439 0
 739 0114 7B69     		ldr	r3, [r7, #20]
 740 0116 3A89     		ldrh	r2, [r7, #8]	@ movhi
 741 0118 1A80     		strh	r2, [r3]	@ movhi
 742              		.loc 2 443 0
 743 011a FB68     		ldr	r3, [r7, #12]
 744 011c 1B88     		ldrh	r3, [r3]
 745 011e B3F5C86F 		cmp	r3, #1600
 746 0122 06D0     		beq	.L42
 747              		.loc 2 444 0
 748 0124 2C4B     		ldr	r3, .L46
 749 0126 1A68     		ldr	r2, [r3]
 750 0128 FB68     		ldr	r3, [r7, #12]
ARM GAS  C:\Users\Luis\AppData\Local\Temp\ccucT7nB.s 			page 15


 751 012a 1B88     		ldrh	r3, [r3]
 752 012c 1344     		add	r3, r3, r2
 753 012e 3A89     		ldrh	r2, [r7, #8]	@ movhi
 754 0130 5A80     		strh	r2, [r3, #2]	@ movhi
 755              	.L42:
 756              		.loc 2 446 0
 757 0132 2C4B     		ldr	r3, .L46+12
 758 0134 B3F8AA20 		ldrh	r2, [r3, #170]
 759 0138 7988     		ldrh	r1, [r7, #2]	@ movhi
 760 013a 3B8A     		ldrh	r3, [r7, #16]	@ movhi
 761 013c CB1A     		subs	r3, r1, r3
 762 013e 9BB2     		uxth	r3, r3
 763 0140 1344     		add	r3, r3, r2
 764 0142 9AB2     		uxth	r2, r3
 765 0144 274B     		ldr	r3, .L46+12
 766 0146 A3F8AA20 		strh	r2, [r3, #170]	@ movhi
 767              	.LBE2:
 768 014a 3DE0     		b	.L43
 769              	.L40:
 770              		.loc 2 448 0
 771 014c 7B88     		ldrh	r3, [r7, #2]
 772 014e 03F11402 		add	r2, r3, #20
 773 0152 3B8A     		ldrh	r3, [r7, #16]
 774 0154 9A42     		cmp	r2, r3
 775 0156 37D8     		bhi	.L43
 776              		.loc 2 456 0
 777 0158 7A8A     		ldrh	r2, [r7, #18]	@ movhi
 778 015a 7B88     		ldrh	r3, [r7, #2]	@ movhi
 779 015c 1344     		add	r3, r3, r2
 780 015e 9BB2     		uxth	r3, r3
 781 0160 0833     		adds	r3, r3, #8
 782 0162 3B81     		strh	r3, [r7, #8]	@ movhi
 783              		.loc 2 457 0
 784 0164 1C4B     		ldr	r3, .L46
 785 0166 1A68     		ldr	r2, [r3]
 786 0168 3B89     		ldrh	r3, [r7, #8]
 787 016a 1344     		add	r3, r3, r2
 788 016c FB60     		str	r3, [r7, #12]
 789              		.loc 2 458 0
 790 016e 204B     		ldr	r3, .L46+24
 791 0170 1B68     		ldr	r3, [r3]
 792 0172 FA68     		ldr	r2, [r7, #12]
 793 0174 9A42     		cmp	r2, r3
 794 0176 02D2     		bcs	.L44
 795              		.loc 2 459 0
 796 0178 1D4B     		ldr	r3, .L46+24
 797 017a FA68     		ldr	r2, [r7, #12]
 798 017c 1A60     		str	r2, [r3]
 799              	.L44:
 800              		.loc 2 461 0
 801 017e FB68     		ldr	r3, [r7, #12]
 802 0180 0022     		movs	r2, #0
 803 0182 1A71     		strb	r2, [r3, #4]
 804              		.loc 2 462 0
 805 0184 7B69     		ldr	r3, [r7, #20]
 806 0186 1A88     		ldrh	r2, [r3]
 807 0188 FB68     		ldr	r3, [r7, #12]
ARM GAS  C:\Users\Luis\AppData\Local\Temp\ccucT7nB.s 			page 16


 808 018a 1A80     		strh	r2, [r3]	@ movhi
 809              		.loc 2 463 0
 810 018c FB68     		ldr	r3, [r7, #12]
 811 018e 7A8A     		ldrh	r2, [r7, #18]	@ movhi
 812 0190 5A80     		strh	r2, [r3, #2]	@ movhi
 813              		.loc 2 464 0
 814 0192 7B69     		ldr	r3, [r7, #20]
 815 0194 3A89     		ldrh	r2, [r7, #8]	@ movhi
 816 0196 1A80     		strh	r2, [r3]	@ movhi
 817              		.loc 2 465 0
 818 0198 FB68     		ldr	r3, [r7, #12]
 819 019a 1B88     		ldrh	r3, [r3]
 820 019c B3F5C86F 		cmp	r3, #1600
 821 01a0 06D0     		beq	.L45
 822              		.loc 2 466 0
 823 01a2 0D4B     		ldr	r3, .L46
 824 01a4 1A68     		ldr	r2, [r3]
 825 01a6 FB68     		ldr	r3, [r7, #12]
 826 01a8 1B88     		ldrh	r3, [r3]
 827 01aa 1344     		add	r3, r3, r2
 828 01ac 3A89     		ldrh	r2, [r7, #8]	@ movhi
 829 01ae 5A80     		strh	r2, [r3, #2]	@ movhi
 830              	.L45:
 831              		.loc 2 468 0
 832 01b0 0C4B     		ldr	r3, .L46+12
 833 01b2 B3F8AA20 		ldrh	r2, [r3, #170]
 834 01b6 7988     		ldrh	r1, [r7, #2]	@ movhi
 835 01b8 3B8A     		ldrh	r3, [r7, #16]	@ movhi
 836 01ba CB1A     		subs	r3, r1, r3
 837 01bc 9BB2     		uxth	r3, r3
 838 01be 1344     		add	r3, r3, r2
 839 01c0 9AB2     		uxth	r2, r3
 840 01c2 084B     		ldr	r3, .L46+12
 841 01c4 A3F8AA20 		strh	r2, [r3, #170]	@ movhi
 842              	.L43:
 843              		.loc 2 480 0
 844 01c8 0848     		ldr	r0, .L46+20
 845 01ca FFF7FEFF 		bl	sys_sem_signal
 846              		.loc 2 481 0
 847 01ce 7B68     		ldr	r3, [r7, #4]
 848              	.L32:
 849              		.loc 2 482 0
 850 01d0 1846     		mov	r0, r3
 851 01d2 1837     		adds	r7, r7, #24
 852 01d4 BD46     		mov	sp, r7
 853              		@ sp needed
 854 01d6 80BD     		pop	{r7, pc}
 855              	.L47:
 856              		.align	2
 857              	.L46:
 858 01d8 00000000 		.word	ram
 859 01dc 00000000 		.word	ram_end
 860 01e0 E8000000 		.word	.LC8
 861 01e4 00000000 		.word	lwip_stats
 862 01e8 00010000 		.word	.LC9
 863 01ec 00000000 		.word	mem_mutex
 864 01f0 00000000 		.word	lfree
ARM GAS  C:\Users\Luis\AppData\Local\Temp\ccucT7nB.s 			page 17


 865              		.cfi_endproc
 866              	.LFE263:
 867              		.size	mem_trim, .-mem_trim
 868 01f4 AFF30080 		.section	.rodata
 868      AFF30080 
 868      AFF30080 
 869              		.align	2
 870              	.LC10:
 871 0120 6D656D5F 		.ascii	"mem_malloc: !lfree->used\000"
 871      6D616C6C 
 871      6F633A20 
 871      216C6672 
 871      65652D3E 
 872 0139 000000   		.align	2
 873              	.LC11:
 874 013c 6D656D5F 		.ascii	"mem_malloc: allocated memory not above ram_end.\000"
 874      6D616C6C 
 874      6F633A20 
 874      616C6C6F 
 874      63617465 
 875              		.align	2
 876              	.LC12:
 877 016c 6D656D5F 		.ascii	"mem_malloc: allocated memory properly aligned.\000"
 877      6D616C6C 
 877      6F633A20 
 877      616C6C6F 
 877      63617465 
 878 019b 00       		.align	2
 879              	.LC13:
 880 019c 6D656D5F 		.ascii	"mem_malloc: sanity check alignment\000"
 880      6D616C6C 
 880      6F633A20 
 880      73616E69 
 880      74792063 
 881 01bf 00       		.section	.text.mem_malloc,"ax",%progbits
 882              		.align	2
 883              		.p2align 4,,15
 884              		.global	mem_malloc
 885              		.thumb
 886              		.thumb_func
 887              		.type	mem_malloc, %function
 888              	mem_malloc:
 889              	.LFB264:
 890              		.loc 2 495 0
 891              		.cfi_startproc
 892              		@ args = 0, pretend = 0, frame = 32
 893              		@ frame_needed = 1, uses_anonymous_args = 0
 894 0000 80B5     		push	{r7, lr}
 895              		.cfi_def_cfa_offset 8
 896              		.cfi_offset 7, -8
 897              		.cfi_offset 14, -4
 898 0002 88B0     		sub	sp, sp, #32
 899              		.cfi_def_cfa_offset 40
 900 0004 00AF     		add	r7, sp, #0
 901              		.cfi_def_cfa_register 7
 902 0006 0346     		mov	r3, r0
 903 0008 FB80     		strh	r3, [r7, #6]	@ movhi
ARM GAS  C:\Users\Luis\AppData\Local\Temp\ccucT7nB.s 			page 18


 904              		.loc 2 503 0
 905 000a FB88     		ldrh	r3, [r7, #6]
 906 000c 002B     		cmp	r3, #0
 907 000e 01D1     		bne	.L49
 908              		.loc 2 504 0
 909 0010 0023     		movs	r3, #0
 910 0012 03E1     		b	.L50
 911              	.L49:
 912              		.loc 2 509 0
 913 0014 FB88     		ldrh	r3, [r7, #6]	@ movhi
 914 0016 0333     		adds	r3, r3, #3
 915 0018 9BB2     		uxth	r3, r3
 916 001a 23F00303 		bic	r3, r3, #3
 917 001e FB80     		strh	r3, [r7, #6]	@ movhi
 918              		.loc 2 511 0
 919 0020 FB88     		ldrh	r3, [r7, #6]
 920 0022 0B2B     		cmp	r3, #11
 921 0024 01D8     		bhi	.L51
 922              		.loc 2 513 0
 923 0026 0C23     		movs	r3, #12
 924 0028 FB80     		strh	r3, [r7, #6]	@ movhi
 925              	.L51:
 926              		.loc 2 516 0
 927 002a FB88     		ldrh	r3, [r7, #6]
 928 002c B3F5C86F 		cmp	r3, #1600
 929 0030 01D9     		bls	.L52
 930              		.loc 2 517 0
 931 0032 0023     		movs	r3, #0
 932 0034 F2E0     		b	.L50
 933              	.L52:
 934              		.loc 2 521 0
 935 0036 7B48     		ldr	r0, .L67
 936 0038 0021     		movs	r1, #0
 937 003a FFF7FEFF 		bl	sys_arch_sem_wait
 938              		.loc 2 532 0
 939 003e 7A4B     		ldr	r3, .L67+4
 940 0040 1B68     		ldr	r3, [r3]
 941 0042 1A46     		mov	r2, r3
 942 0044 794B     		ldr	r3, .L67+8
 943 0046 1B68     		ldr	r3, [r3]
 944 0048 D31A     		subs	r3, r2, r3
 945 004a FB83     		strh	r3, [r7, #30]	@ movhi
 946 004c D3E0     		b	.L53
 947              	.L66:
 948              		.loc 2 534 0
 949 004e 774B     		ldr	r3, .L67+8
 950 0050 1A68     		ldr	r2, [r3]
 951 0052 FB8B     		ldrh	r3, [r7, #30]
 952 0054 1344     		add	r3, r3, r2
 953 0056 7B61     		str	r3, [r7, #20]
 954              		.loc 2 548 0
 955 0058 7B69     		ldr	r3, [r7, #20]
 956 005a 1B79     		ldrb	r3, [r3, #4]	@ zero_extendqisi2
 957 005c 002B     		cmp	r3, #0
 958 005e 40F0C480 		bne	.L54
 959              		.loc 2 549 0 discriminator 1
 960 0062 7B69     		ldr	r3, [r7, #20]
ARM GAS  C:\Users\Luis\AppData\Local\Temp\ccucT7nB.s 			page 19


 961 0064 1B88     		ldrh	r3, [r3]
 962 0066 1A46     		mov	r2, r3
 963 0068 FB8B     		ldrh	r3, [r7, #30]
 964 006a D31A     		subs	r3, r2, r3
 965 006c A3F10802 		sub	r2, r3, #8
 966 0070 FB88     		ldrh	r3, [r7, #6]
 967              		.loc 2 548 0 discriminator 1
 968 0072 9A42     		cmp	r2, r3
 969 0074 C0F0B980 		bcc	.L54
 970              		.loc 2 553 0
 971 0078 7B69     		ldr	r3, [r7, #20]
 972 007a 1B88     		ldrh	r3, [r3]
 973 007c 1A46     		mov	r2, r3
 974 007e FB8B     		ldrh	r3, [r7, #30]
 975 0080 D31A     		subs	r3, r2, r3
 976 0082 A3F10802 		sub	r2, r3, #8
 977 0086 FB88     		ldrh	r3, [r7, #6]
 978 0088 1433     		adds	r3, r3, #20
 979 008a 9A42     		cmp	r2, r3
 980 008c 40D3     		bcc	.L55
 981              		.loc 2 564 0
 982 008e FA8B     		ldrh	r2, [r7, #30]	@ movhi
 983 0090 FB88     		ldrh	r3, [r7, #6]	@ movhi
 984 0092 1344     		add	r3, r3, r2
 985 0094 9BB2     		uxth	r3, r3
 986 0096 0833     		adds	r3, r3, #8
 987 0098 7B82     		strh	r3, [r7, #18]	@ movhi
 988              		.loc 2 566 0
 989 009a 644B     		ldr	r3, .L67+8
 990 009c 1A68     		ldr	r2, [r3]
 991 009e 7B8A     		ldrh	r3, [r7, #18]
 992 00a0 1344     		add	r3, r3, r2
 993 00a2 FB60     		str	r3, [r7, #12]
 994              		.loc 2 567 0
 995 00a4 FB68     		ldr	r3, [r7, #12]
 996 00a6 0022     		movs	r2, #0
 997 00a8 1A71     		strb	r2, [r3, #4]
 998              		.loc 2 568 0
 999 00aa 7B69     		ldr	r3, [r7, #20]
 1000 00ac 1A88     		ldrh	r2, [r3]
 1001 00ae FB68     		ldr	r3, [r7, #12]
 1002 00b0 1A80     		strh	r2, [r3]	@ movhi
 1003              		.loc 2 569 0
 1004 00b2 FB68     		ldr	r3, [r7, #12]
 1005 00b4 FA8B     		ldrh	r2, [r7, #30]	@ movhi
 1006 00b6 5A80     		strh	r2, [r3, #2]	@ movhi
 1007              		.loc 2 571 0
 1008 00b8 7B69     		ldr	r3, [r7, #20]
 1009 00ba 7A8A     		ldrh	r2, [r7, #18]	@ movhi
 1010 00bc 1A80     		strh	r2, [r3]	@ movhi
 1011              		.loc 2 572 0
 1012 00be 7B69     		ldr	r3, [r7, #20]
 1013 00c0 0122     		movs	r2, #1
 1014 00c2 1A71     		strb	r2, [r3, #4]
 1015              		.loc 2 574 0
 1016 00c4 FB68     		ldr	r3, [r7, #12]
 1017 00c6 1B88     		ldrh	r3, [r3]
ARM GAS  C:\Users\Luis\AppData\Local\Temp\ccucT7nB.s 			page 20


 1018 00c8 B3F5C86F 		cmp	r3, #1600
 1019 00cc 06D0     		beq	.L56
 1020              		.loc 2 575 0
 1021 00ce 574B     		ldr	r3, .L67+8
 1022 00d0 1A68     		ldr	r2, [r3]
 1023 00d2 FB68     		ldr	r3, [r7, #12]
 1024 00d4 1B88     		ldrh	r3, [r3]
 1025 00d6 1344     		add	r3, r3, r2
 1026 00d8 7A8A     		ldrh	r2, [r7, #18]	@ movhi
 1027 00da 5A80     		strh	r2, [r3, #2]	@ movhi
 1028              	.L56:
 1029              		.loc 2 577 0
 1030 00dc 544B     		ldr	r3, .L67+12
 1031 00de B3F8AA20 		ldrh	r2, [r3, #170]
 1032 00e2 FB88     		ldrh	r3, [r7, #6]	@ movhi
 1033 00e4 1344     		add	r3, r3, r2
 1034 00e6 9BB2     		uxth	r3, r3
 1035 00e8 0833     		adds	r3, r3, #8
 1036 00ea 9AB2     		uxth	r2, r3
 1037 00ec 504B     		ldr	r3, .L67+12
 1038 00ee A3F8AA20 		strh	r2, [r3, #170]	@ movhi
 1039 00f2 4F4B     		ldr	r3, .L67+12
 1040 00f4 B3F8AC20 		ldrh	r2, [r3, #172]
 1041 00f8 4D4B     		ldr	r3, .L67+12
 1042 00fa B3F8AA30 		ldrh	r3, [r3, #170]
 1043 00fe 9A42     		cmp	r2, r3
 1044 0100 28D2     		bcs	.L58
 1045              		.loc 2 577 0 is_stmt 0 discriminator 1
 1046 0102 4B4B     		ldr	r3, .L67+12
 1047 0104 B3F8AA20 		ldrh	r2, [r3, #170]
 1048 0108 494B     		ldr	r3, .L67+12
 1049 010a A3F8AC20 		strh	r2, [r3, #172]	@ movhi
 1050 010e 21E0     		b	.L58
 1051              	.L55:
 1052              		.loc 2 586 0 is_stmt 1
 1053 0110 7B69     		ldr	r3, [r7, #20]
 1054 0112 0122     		movs	r2, #1
 1055 0114 1A71     		strb	r2, [r3, #4]
 1056              		.loc 2 587 0
 1057 0116 464B     		ldr	r3, .L67+12
 1058 0118 B3F8AA20 		ldrh	r2, [r3, #170]
 1059 011c 7B69     		ldr	r3, [r7, #20]
 1060 011e 1988     		ldrh	r1, [r3]
 1061 0120 7869     		ldr	r0, [r7, #20]
 1062 0122 424B     		ldr	r3, .L67+8
 1063 0124 1B68     		ldr	r3, [r3]
 1064 0126 C31A     		subs	r3, r0, r3
 1065 0128 9BB2     		uxth	r3, r3
 1066 012a CB1A     		subs	r3, r1, r3
 1067 012c 9BB2     		uxth	r3, r3
 1068 012e 1344     		add	r3, r3, r2
 1069 0130 9AB2     		uxth	r2, r3
 1070 0132 3F4B     		ldr	r3, .L67+12
 1071 0134 A3F8AA20 		strh	r2, [r3, #170]	@ movhi
 1072 0138 3D4B     		ldr	r3, .L67+12
 1073 013a B3F8AC20 		ldrh	r2, [r3, #172]
 1074 013e 3C4B     		ldr	r3, .L67+12
ARM GAS  C:\Users\Luis\AppData\Local\Temp\ccucT7nB.s 			page 21


 1075 0140 B3F8AA30 		ldrh	r3, [r3, #170]
 1076 0144 9A42     		cmp	r2, r3
 1077 0146 05D2     		bcs	.L58
 1078              		.loc 2 587 0 is_stmt 0 discriminator 1
 1079 0148 394B     		ldr	r3, .L67+12
 1080 014a B3F8AA20 		ldrh	r2, [r3, #170]
 1081 014e 384B     		ldr	r3, .L67+12
 1082 0150 A3F8AC20 		strh	r2, [r3, #172]	@ movhi
 1083              	.L58:
 1084              		.loc 2 592 0 is_stmt 1
 1085 0154 344B     		ldr	r3, .L67+4
 1086 0156 1B68     		ldr	r3, [r3]
 1087 0158 7A69     		ldr	r2, [r7, #20]
 1088 015a 9A42     		cmp	r2, r3
 1089 015c 23D1     		bne	.L59
 1090              	.LBB3:
 1091              		.loc 2 593 0
 1092 015e 324B     		ldr	r3, .L67+4
 1093 0160 1B68     		ldr	r3, [r3]
 1094 0162 BB61     		str	r3, [r7, #24]
 1095              		.loc 2 595 0
 1096 0164 05E0     		b	.L60
 1097              	.L62:
 1098              		.loc 2 607 0
 1099 0166 314B     		ldr	r3, .L67+8
 1100 0168 1A68     		ldr	r2, [r3]
 1101 016a BB69     		ldr	r3, [r7, #24]
 1102 016c 1B88     		ldrh	r3, [r3]
 1103 016e 1344     		add	r3, r3, r2
 1104 0170 BB61     		str	r3, [r7, #24]
 1105              	.L60:
 1106              		.loc 2 595 0 discriminator 1
 1107 0172 BB69     		ldr	r3, [r7, #24]
 1108 0174 1B79     		ldrb	r3, [r3, #4]	@ zero_extendqisi2
 1109 0176 002B     		cmp	r3, #0
 1110 0178 04D0     		beq	.L61
 1111              		.loc 2 595 0 is_stmt 0 discriminator 2
 1112 017a 2E4B     		ldr	r3, .L67+16
 1113 017c 1B68     		ldr	r3, [r3]
 1114 017e BA69     		ldr	r2, [r7, #24]
 1115 0180 9A42     		cmp	r2, r3
 1116 0182 F0D1     		bne	.L62
 1117              	.L61:
 1118              		.loc 2 609 0 is_stmt 1
 1119 0184 284B     		ldr	r3, .L67+4
 1120 0186 BA69     		ldr	r2, [r7, #24]
 1121 0188 1A60     		str	r2, [r3]
 1122              		.loc 2 610 0
 1123 018a 274B     		ldr	r3, .L67+4
 1124 018c 1A68     		ldr	r2, [r3]
 1125 018e 294B     		ldr	r3, .L67+16
 1126 0190 1B68     		ldr	r3, [r3]
 1127 0192 9A42     		cmp	r2, r3
 1128 0194 07D0     		beq	.L59
 1129              		.loc 2 610 0 is_stmt 0 discriminator 1
 1130 0196 244B     		ldr	r3, .L67+4
 1131 0198 1B68     		ldr	r3, [r3]
ARM GAS  C:\Users\Luis\AppData\Local\Temp\ccucT7nB.s 			page 22


 1132 019a 1B79     		ldrb	r3, [r3, #4]	@ zero_extendqisi2
 1133 019c 002B     		cmp	r3, #0
 1134 019e 02D0     		beq	.L59
 1135 01a0 2548     		ldr	r0, .L67+20
 1136 01a2 FFF7FEFF 		bl	osalSysHalt
 1137              	.L59:
 1138              	.LBE3:
 1139              		.loc 2 613 0 is_stmt 1
 1140 01a6 1F48     		ldr	r0, .L67
 1141 01a8 FFF7FEFF 		bl	sys_sem_signal
 1142              		.loc 2 614 0
 1143 01ac FA88     		ldrh	r2, [r7, #6]
 1144 01ae 7B69     		ldr	r3, [r7, #20]
 1145 01b0 1344     		add	r3, r3, r2
 1146 01b2 03F10802 		add	r2, r3, #8
 1147 01b6 1F4B     		ldr	r3, .L67+16
 1148 01b8 1B68     		ldr	r3, [r3]
 1149 01ba 9A42     		cmp	r2, r3
 1150 01bc 02D9     		bls	.L63
 1151              		.loc 2 614 0 is_stmt 0 discriminator 1
 1152 01be 1F48     		ldr	r0, .L67+24
 1153 01c0 FFF7FEFF 		bl	osalSysHalt
 1154              	.L63:
 1155              		.loc 2 616 0 is_stmt 1
 1156 01c4 7B69     		ldr	r3, [r7, #20]
 1157 01c6 03F00303 		and	r3, r3, #3
 1158 01ca 002B     		cmp	r3, #0
 1159 01cc 02D0     		beq	.L64
 1160              		.loc 2 616 0 is_stmt 0 discriminator 1
 1161 01ce 1C48     		ldr	r0, .L67+28
 1162 01d0 FFF7FEFF 		bl	osalSysHalt
 1163              	.L64:
 1164              		.loc 2 618 0 is_stmt 1
 1165 01d4 7B69     		ldr	r3, [r7, #20]
 1166 01d6 03F00303 		and	r3, r3, #3
 1167 01da 002B     		cmp	r3, #0
 1168 01dc 02D0     		beq	.L65
 1169              		.loc 2 618 0 is_stmt 0 discriminator 1
 1170 01de 1948     		ldr	r0, .L67+32
 1171 01e0 FFF7FEFF 		bl	osalSysHalt
 1172              	.L65:
 1173              		.loc 2 621 0 is_stmt 1
 1174 01e4 7B69     		ldr	r3, [r7, #20]
 1175 01e6 0833     		adds	r3, r3, #8
 1176 01e8 18E0     		b	.L50
 1177              	.L54:
 1178              		.loc 2 533 0
 1179 01ea 104B     		ldr	r3, .L67+8
 1180 01ec 1A68     		ldr	r2, [r3]
 1181 01ee FB8B     		ldrh	r3, [r7, #30]
 1182 01f0 1344     		add	r3, r3, r2
 1183 01f2 1B88     		ldrh	r3, [r3]	@ movhi
 1184 01f4 FB83     		strh	r3, [r7, #30]	@ movhi
 1185              	.L53:
 1186              		.loc 2 532 0 discriminator 1
 1187 01f6 FA8B     		ldrh	r2, [r7, #30]
 1188 01f8 FB88     		ldrh	r3, [r7, #6]
ARM GAS  C:\Users\Luis\AppData\Local\Temp\ccucT7nB.s 			page 23


 1189 01fa C3F5C863 		rsb	r3, r3, #1600
 1190 01fe 9A42     		cmp	r2, r3
 1191 0200 FFF625AF 		blt	.L66
 1192              		.loc 2 629 0
 1193 0204 0A4B     		ldr	r3, .L67+12
 1194 0206 B3F8AE30 		ldrh	r3, [r3, #174]
 1195 020a 0133     		adds	r3, r3, #1
 1196 020c 9AB2     		uxth	r2, r3
 1197 020e 084B     		ldr	r3, .L67+12
 1198 0210 A3F8AE20 		strh	r2, [r3, #174]	@ movhi
 1199              		.loc 2 631 0
 1200 0214 0348     		ldr	r0, .L67
 1201 0216 FFF7FEFF 		bl	sys_sem_signal
 1202              		.loc 2 632 0
 1203 021a 0023     		movs	r3, #0
 1204              	.L50:
 1205              		.loc 2 633 0
 1206 021c 1846     		mov	r0, r3
 1207 021e 2037     		adds	r7, r7, #32
 1208 0220 BD46     		mov	sp, r7
 1209              		@ sp needed
 1210 0222 80BD     		pop	{r7, pc}
 1211              	.L68:
 1212              		.align	2
 1213              	.L67:
 1214 0224 00000000 		.word	mem_mutex
 1215 0228 00000000 		.word	lfree
 1216 022c 00000000 		.word	ram
 1217 0230 00000000 		.word	lwip_stats
 1218 0234 00000000 		.word	ram_end
 1219 0238 20010000 		.word	.LC10
 1220 023c 3C010000 		.word	.LC11
 1221 0240 6C010000 		.word	.LC12
 1222 0244 9C010000 		.word	.LC13
 1223              		.cfi_endproc
 1224              	.LFE264:
 1225              		.size	mem_malloc, .-mem_malloc
 1226 0248 AFF30080 		.section	.text.mem_calloc,"ax",%progbits
 1226      AFF30080 
 1227              		.align	2
 1228              		.p2align 4,,15
 1229              		.global	mem_calloc
 1230              		.thumb
 1231              		.thumb_func
 1232              		.type	mem_calloc, %function
 1233              	mem_calloc:
 1234              	.LFB265:
 1235              		.loc 2 647 0
 1236              		.cfi_startproc
 1237              		@ args = 0, pretend = 0, frame = 16
 1238              		@ frame_needed = 1, uses_anonymous_args = 0
 1239 0000 80B5     		push	{r7, lr}
 1240              		.cfi_def_cfa_offset 8
 1241              		.cfi_offset 7, -8
 1242              		.cfi_offset 14, -4
 1243 0002 84B0     		sub	sp, sp, #16
 1244              		.cfi_def_cfa_offset 24
ARM GAS  C:\Users\Luis\AppData\Local\Temp\ccucT7nB.s 			page 24


 1245 0004 00AF     		add	r7, sp, #0
 1246              		.cfi_def_cfa_register 7
 1247 0006 0246     		mov	r2, r0
 1248 0008 0B46     		mov	r3, r1
 1249 000a FA80     		strh	r2, [r7, #6]	@ movhi
 1250 000c BB80     		strh	r3, [r7, #4]	@ movhi
 1251              		.loc 2 651 0
 1252 000e FB88     		ldrh	r3, [r7, #6]	@ movhi
 1253 0010 BA88     		ldrh	r2, [r7, #4]	@ movhi
 1254 0012 02FB03F3 		mul	r3, r2, r3
 1255 0016 9BB2     		uxth	r3, r3
 1256 0018 1846     		mov	r0, r3
 1257 001a FFF7FEFF 		bl	mem_malloc
 1258 001e F860     		str	r0, [r7, #12]
 1259              		.loc 2 652 0
 1260 0020 FB68     		ldr	r3, [r7, #12]
 1261 0022 002B     		cmp	r3, #0
 1262 0024 08D0     		beq	.L70
 1263              		.loc 2 654 0
 1264 0026 FB88     		ldrh	r3, [r7, #6]
 1265 0028 BA88     		ldrh	r2, [r7, #4]
 1266 002a 02FB03F3 		mul	r3, r2, r3
 1267 002e F868     		ldr	r0, [r7, #12]
 1268 0030 0021     		movs	r1, #0
 1269 0032 1A46     		mov	r2, r3
 1270 0034 FFF7FEFF 		bl	memset
 1271              	.L70:
 1272              		.loc 2 656 0
 1273 0038 FB68     		ldr	r3, [r7, #12]
 1274              		.loc 2 657 0
 1275 003a 1846     		mov	r0, r3
 1276 003c 1037     		adds	r7, r7, #16
 1277 003e BD46     		mov	sp, r7
 1278              		@ sp needed
 1279 0040 80BD     		pop	{r7, pc}
 1280              		.cfi_endproc
 1281              	.LFE265:
 1282              		.size	mem_calloc, .-mem_calloc
 1283 0042 00BFAFF3 		.text
 1283      0080AFF3 
 1283      0080AFF3 
 1283      0080
 1284              	.Letext0:
 1285              		.file 3 "c:\\emtechesdk\\gcc\\lib\\gcc\\arm-none-eabi\\4.8.3\\include\\stddef.h"
 1286              		.file 4 "c:\\emtechesdk\\gcc\\arm-none-eabi\\include\\stdint.h"
 1287              		.file 5 "../../ChibiOS/os/rt/ports/ARMCMx/compilers/GCC/chtypes.h"
 1288              		.file 6 "../../ChibiOS/os/rt/include/chsystypes.h"
 1289              		.file 7 "../../ChibiOS/os/rt/include/chschd.h"
 1290              		.file 8 "../../ChibiOS/os/rt/ports/ARMCMx/chcore.h"
 1291              		.file 9 "../../ChibiOS/os/rt/ports/ARMCMx/chcore_v7m.h"
 1292              		.file 10 "../../ChibiOS/os/rt/include/chdebug.h"
 1293              		.file 11 "../../ChibiOS/os/rt/include/chtm.h"
 1294              		.file 12 "../../ChibiOS/os/rt/include/chstats.h"
 1295              		.file 13 "../../ChibiOS/os/rt/include/chsem.h"
 1296              		.file 14 "../../ChibiOS/os/rt/include/chmtx.h"
 1297              		.file 15 "../../ChibiOS/os/various/lwip_bindings/arch/cc.h"
 1298              		.file 16 "../../ChibiOS/ext/lwip/src/include/lwip/mem.h"
ARM GAS  C:\Users\Luis\AppData\Local\Temp\ccucT7nB.s 			page 25


 1299              		.file 17 "../../ChibiOS/os/various/lwip_bindings/arch/sys_arch.h"
 1300              		.file 18 "../../ChibiOS/ext/lwip/src/include/lwip/stats.h"
 1301              		.file 19 "../../ChibiOS/os/ext/CMSIS/include/core_cm4.h"
 1302              		.file 20 "../../ChibiOS/ext/lwip/src/include/lwip/memp.h"