ARM GAS  C:\Users\Luis\AppData\Local\Temp\ccg5cNY0.s 			page 1


   1              		.syntax unified
   2              		.cpu cortex-m4
   3              		.fpu softvfp
   4              		.eabi_attribute 20, 1
   5              		.eabi_attribute 21, 1
   6              		.eabi_attribute 23, 3
   7              		.eabi_attribute 24, 1
   8              		.eabi_attribute 25, 1
   9              		.eabi_attribute 26, 1
  10              		.eabi_attribute 30, 6
  11              		.eabi_attribute 34, 1
  12              		.eabi_attribute 18, 4
  13              		.thumb
  14              		.file	"memp.c"
  15              		.text
  16              	.Ltext0:
  17              		.cfi_sections	.debug_frame
  18              		.section	.text.osalSysHalt,"ax",%progbits
  19              		.align	2
  20              		.p2align 4,,15
  21              		.thumb
  22              		.thumb_func
  23              		.type	osalSysHalt, %function
  24              	osalSysHalt:
  25              	.LFB230:
  26              		.file 1 "../../ChibiOS/os/hal/osal/rt/osal.h"
  27              		.loc 1 460 0
  28              		.cfi_startproc
  29              		@ args = 0, pretend = 0, frame = 8
  30              		@ frame_needed = 1, uses_anonymous_args = 0
  31 0000 80B5     		push	{r7, lr}
  32              		.cfi_def_cfa_offset 8
  33              		.cfi_offset 7, -8
  34              		.cfi_offset 14, -4
  35 0002 82B0     		sub	sp, sp, #8
  36              		.cfi_def_cfa_offset 16
  37 0004 00AF     		add	r7, sp, #0
  38              		.cfi_def_cfa_register 7
  39 0006 7860     		str	r0, [r7, #4]
  40              		.loc 1 462 0
  41 0008 7868     		ldr	r0, [r7, #4]
  42 000a FFF7FEFF 		bl	chSysHalt
  43              		.loc 1 463 0
  44 000e 0837     		adds	r7, r7, #8
  45 0010 BD46     		mov	sp, r7
  46              		@ sp needed
  47 0012 80BD     		pop	{r7, pc}
  48              		.cfi_endproc
  49              	.LFE230:
  50              		.size	osalSysHalt, .-osalSysHalt
  51 0014 AFF30080 		.section	.bss.memp_tab,"aw",%nobits
  51      AFF30080 
  51      AFF30080 
  52              		.align	2
  53              		.type	memp_tab, %object
  54              		.size	memp_tab, 56
  55              	memp_tab:
ARM GAS  C:\Users\Luis\AppData\Local\Temp\ccg5cNY0.s 			page 2


  56 0000 00000000 		.space	56
  56      00000000 
  56      00000000 
  56      00000000 
  56      00000000 
  57              		.section	.rodata.memp_sizes,"a",%progbits
  58              		.align	2
  59              		.type	memp_sizes, %object
  60              		.size	memp_sizes, 28
  61              	memp_sizes:
  62 0000 1C00     		.short	28
  63 0002 2000     		.short	32
  64 0004 9800     		.short	152
  65 0006 1C00     		.short	28
  66 0008 1000     		.short	16
  67 000a 2000     		.short	32
  68 000c 1800     		.short	24
  69 000e 1000     		.short	16
  70 0010 2C00     		.short	44
  71 0012 1400     		.short	20
  72 0014 1400     		.short	20
  73 0016 1000     		.short	16
  74 0018 1000     		.short	16
  75 001a 6002     		.short	608
  76              		.section	.rodata.memp_num,"a",%progbits
  77              		.align	2
  78              		.type	memp_num, %object
  79              		.size	memp_num, 28
  80              	memp_num:
  81 0000 0400     		.short	4
  82 0002 0400     		.short	4
  83 0004 0500     		.short	5
  84 0006 0800     		.short	8
  85 0008 1000     		.short	16
  86 000a 0500     		.short	5
  87 000c 0F00     		.short	15
  88 000e 0200     		.short	2
  89 0010 0400     		.short	4
  90 0012 0800     		.short	8
  91 0014 0800     		.short	8
  92 0016 0300     		.short	3
  93 0018 1000     		.short	16
  94 001a 1000     		.short	16
  95              		.section	.bss.memp_memory,"aw",%nobits
  96              		.align	2
  97              		.type	memp_memory, %object
  98              		.size	memp_memory, 12563
  99              	memp_memory:
 100 0000 00000000 		.space	12563
 100      00000000 
 100      00000000 
 100      00000000 
 100      00000000 
 101 3113 00       		.section	.text.memp_init,"ax",%progbits
 102              		.align	2
 103              		.p2align 4,,15
 104              		.global	memp_init
ARM GAS  C:\Users\Luis\AppData\Local\Temp\ccg5cNY0.s 			page 3


 105              		.thumb
 106              		.thumb_func
 107              		.type	memp_init, %function
 108              	memp_init:
 109              	.LFB260:
 110              		.file 2 "../../ChibiOS/ext/lwip/src/core/memp.c"
 111              		.loc 2 339 0
 112              		.cfi_startproc
 113              		@ args = 0, pretend = 0, frame = 8
 114              		@ frame_needed = 1, uses_anonymous_args = 0
 115              		@ link register save eliminated.
 116 0000 80B4     		push	{r7}
 117              		.cfi_def_cfa_offset 4
 118              		.cfi_offset 7, -4
 119 0002 83B0     		sub	sp, sp, #12
 120              		.cfi_def_cfa_offset 16
 121 0004 00AF     		add	r7, sp, #0
 122              		.cfi_def_cfa_register 7
 123              		.loc 2 343 0
 124 0006 0023     		movs	r3, #0
 125 0008 7B80     		strh	r3, [r7, #2]	@ movhi
 126 000a 2EE0     		b	.L3
 127              	.L4:
 128              		.loc 2 344 0 discriminator 2
 129 000c 7A88     		ldrh	r2, [r7, #2]
 130 000e 3449     		ldr	r1, .L9
 131 0010 1346     		mov	r3, r2
 132 0012 9B00     		lsls	r3, r3, #2
 133 0014 1344     		add	r3, r3, r2
 134 0016 5B00     		lsls	r3, r3, #1
 135 0018 0B44     		add	r3, r3, r1
 136 001a B433     		adds	r3, r3, #180
 137 001c 0022     		movs	r2, #0
 138 001e 1A80     		strh	r2, [r3]	@ movhi
 139              		.loc 2 345 0 discriminator 2
 140 0020 7A88     		ldrh	r2, [r7, #2]
 141 0022 2F49     		ldr	r1, .L9
 142 0024 1346     		mov	r3, r2
 143 0026 9B00     		lsls	r3, r3, #2
 144 0028 1344     		add	r3, r3, r2
 145 002a 5B00     		lsls	r3, r3, #1
 146 002c 0B44     		add	r3, r3, r1
 147 002e B633     		adds	r3, r3, #182
 148 0030 0022     		movs	r2, #0
 149 0032 1A80     		strh	r2, [r3]	@ movhi
 150              		.loc 2 346 0 discriminator 2
 151 0034 7A88     		ldrh	r2, [r7, #2]
 152 0036 2A49     		ldr	r1, .L9
 153 0038 1346     		mov	r3, r2
 154 003a 9B00     		lsls	r3, r3, #2
 155 003c 1344     		add	r3, r3, r2
 156 003e 5B00     		lsls	r3, r3, #1
 157 0040 0B44     		add	r3, r3, r1
 158 0042 B833     		adds	r3, r3, #184
 159 0044 0022     		movs	r2, #0
 160 0046 1A80     		strh	r2, [r3]	@ movhi
 161              		.loc 2 347 0 discriminator 2
ARM GAS  C:\Users\Luis\AppData\Local\Temp\ccg5cNY0.s 			page 4


 162 0048 7A88     		ldrh	r2, [r7, #2]
 163 004a 7988     		ldrh	r1, [r7, #2]
 164 004c 254B     		ldr	r3, .L9+4
 165 004e 33F81110 		ldrh	r1, [r3, r1, lsl #1]
 166 0052 2348     		ldr	r0, .L9
 167 0054 1346     		mov	r3, r2
 168 0056 9B00     		lsls	r3, r3, #2
 169 0058 1344     		add	r3, r3, r2
 170 005a 5B00     		lsls	r3, r3, #1
 171 005c 0344     		add	r3, r3, r0
 172 005e B233     		adds	r3, r3, #178
 173 0060 0A46     		mov	r2, r1	@ movhi
 174 0062 1A80     		strh	r2, [r3]	@ movhi
 175              		.loc 2 343 0 discriminator 2
 176 0064 7B88     		ldrh	r3, [r7, #2]	@ movhi
 177 0066 0133     		adds	r3, r3, #1
 178 0068 7B80     		strh	r3, [r7, #2]	@ movhi
 179              	.L3:
 180              		.loc 2 343 0 is_stmt 0 discriminator 1
 181 006a 7B88     		ldrh	r3, [r7, #2]
 182 006c 0D2B     		cmp	r3, #13
 183 006e CDD9     		bls	.L4
 184              		.loc 2 351 0 is_stmt 1
 185 0070 1D4B     		ldr	r3, .L9+8
 186 0072 0333     		adds	r3, r3, #3
 187 0074 23F00303 		bic	r3, r3, #3
 188 0078 7B60     		str	r3, [r7, #4]
 189              		.loc 2 354 0
 190 007a 0023     		movs	r3, #0
 191 007c 7B80     		strh	r3, [r7, #2]	@ movhi
 192 007e 26E0     		b	.L5
 193              	.L8:
 194              		.loc 2 355 0
 195 0080 7A88     		ldrh	r2, [r7, #2]
 196 0082 1A4B     		ldr	r3, .L9+12
 197 0084 0021     		movs	r1, #0
 198 0086 43F82210 		str	r1, [r3, r2, lsl #2]
 199              		.loc 2 360 0
 200 008a 0023     		movs	r3, #0
 201 008c 3B80     		strh	r3, [r7]	@ movhi
 202 008e 14E0     		b	.L6
 203              	.L7:
 204              		.loc 2 361 0 discriminator 2
 205 0090 7A88     		ldrh	r2, [r7, #2]
 206 0092 164B     		ldr	r3, .L9+12
 207 0094 53F82220 		ldr	r2, [r3, r2, lsl #2]
 208 0098 7B68     		ldr	r3, [r7, #4]
 209 009a 1A60     		str	r2, [r3]
 210              		.loc 2 362 0 discriminator 2
 211 009c 7A88     		ldrh	r2, [r7, #2]
 212 009e 134B     		ldr	r3, .L9+12
 213 00a0 7968     		ldr	r1, [r7, #4]
 214 00a2 43F82210 		str	r1, [r3, r2, lsl #2]
 215              		.loc 2 363 0 discriminator 2
 216 00a6 7A88     		ldrh	r2, [r7, #2]
 217 00a8 114B     		ldr	r3, .L9+16
 218 00aa 33F81230 		ldrh	r3, [r3, r2, lsl #1]
ARM GAS  C:\Users\Luis\AppData\Local\Temp\ccg5cNY0.s 			page 5


 219 00ae 7A68     		ldr	r2, [r7, #4]
 220 00b0 1344     		add	r3, r3, r2
 221 00b2 7B60     		str	r3, [r7, #4]
 222              		.loc 2 360 0 discriminator 2
 223 00b4 3B88     		ldrh	r3, [r7]	@ movhi
 224 00b6 0133     		adds	r3, r3, #1
 225 00b8 3B80     		strh	r3, [r7]	@ movhi
 226              	.L6:
 227              		.loc 2 360 0 is_stmt 0 discriminator 1
 228 00ba 7A88     		ldrh	r2, [r7, #2]
 229 00bc 094B     		ldr	r3, .L9+4
 230 00be 33F81230 		ldrh	r3, [r3, r2, lsl #1]
 231 00c2 3A88     		ldrh	r2, [r7]
 232 00c4 9A42     		cmp	r2, r3
 233 00c6 E3D3     		bcc	.L7
 234              		.loc 2 354 0 is_stmt 1
 235 00c8 7B88     		ldrh	r3, [r7, #2]	@ movhi
 236 00ca 0133     		adds	r3, r3, #1
 237 00cc 7B80     		strh	r3, [r7, #2]	@ movhi
 238              	.L5:
 239              		.loc 2 354 0 is_stmt 0 discriminator 1
 240 00ce 7B88     		ldrh	r3, [r7, #2]
 241 00d0 0D2B     		cmp	r3, #13
 242 00d2 D5D9     		bls	.L8
 243              		.loc 2 375 0 is_stmt 1
 244 00d4 0C37     		adds	r7, r7, #12
 245 00d6 BD46     		mov	sp, r7
 246              		@ sp needed
 247 00d8 5DF8047B 		ldr	r7, [sp], #4
 248 00dc 7047     		bx	lr
 249              	.L10:
 250 00de 00BF     		.align	2
 251              	.L9:
 252 00e0 00000000 		.word	lwip_stats
 253 00e4 00000000 		.word	memp_num
 254 00e8 00000000 		.word	memp_memory
 255 00ec 00000000 		.word	memp_tab
 256 00f0 00000000 		.word	memp_sizes
 257              		.cfi_endproc
 258              	.LFE260:
 259              		.size	memp_init, .-memp_init
 260 00f4 AFF30080 		.section	.rodata
 260      AFF30080 
 260      AFF30080 
 261              		.align	2
 262              	.LC0:
 263 0000 6D656D70 		.ascii	"memp_malloc: type < MEMP_MAX\000"
 263      5F6D616C 
 263      6C6F633A 
 263      20747970 
 263      65203C20 
 264 001d 000000   		.align	2
 265              	.LC1:
 266 0020 6D656D70 		.ascii	"memp_malloc: memp properly aligned\000"
 266      5F6D616C 
 266      6C6F633A 
 266      206D656D 
ARM GAS  C:\Users\Luis\AppData\Local\Temp\ccg5cNY0.s 			page 6


 266      70207072 
 267              		.section	.text.memp_malloc,"ax",%progbits
 268              		.align	2
 269              		.p2align 4,,15
 270              		.global	memp_malloc
 271              		.thumb
 272              		.thumb_func
 273              		.type	memp_malloc, %function
 274              	memp_malloc:
 275              	.LFB261:
 276              		.loc 2 394 0
 277              		.cfi_startproc
 278              		@ args = 0, pretend = 0, frame = 16
 279              		@ frame_needed = 1, uses_anonymous_args = 0
 280 0000 80B5     		push	{r7, lr}
 281              		.cfi_def_cfa_offset 8
 282              		.cfi_offset 7, -8
 283              		.cfi_offset 14, -4
 284 0002 84B0     		sub	sp, sp, #16
 285              		.cfi_def_cfa_offset 24
 286 0004 00AF     		add	r7, sp, #0
 287              		.cfi_def_cfa_register 7
 288 0006 0346     		mov	r3, r0
 289 0008 FB71     		strb	r3, [r7, #7]
 290              		.loc 2 398 0
 291 000a FB79     		ldrb	r3, [r7, #7]	@ zero_extendqisi2
 292 000c 0D2B     		cmp	r3, #13
 293 000e 04D9     		bls	.L12
 294              		.loc 2 398 0 is_stmt 0 discriminator 1
 295 0010 3848     		ldr	r0, .L18
 296 0012 FFF7FEFF 		bl	osalSysHalt
 297 0016 0023     		movs	r3, #0
 298 0018 67E0     		b	.L13
 299              	.L12:
 300              		.loc 2 405 0 is_stmt 1
 301 001a FA79     		ldrb	r2, [r7, #7]	@ zero_extendqisi2
 302 001c 364B     		ldr	r3, .L18+4
 303 001e 53F82230 		ldr	r3, [r3, r2, lsl #2]
 304 0022 FB60     		str	r3, [r7, #12]
 305              		.loc 2 407 0
 306 0024 FB68     		ldr	r3, [r7, #12]
 307 0026 002B     		cmp	r3, #0
 308 0028 4AD0     		beq	.L14
 309              		.loc 2 408 0
 310 002a FA79     		ldrb	r2, [r7, #7]	@ zero_extendqisi2
 311 002c FB68     		ldr	r3, [r7, #12]
 312 002e 1968     		ldr	r1, [r3]
 313 0030 314B     		ldr	r3, .L18+4
 314 0032 43F82210 		str	r1, [r3, r2, lsl #2]
 315              		.loc 2 414 0
 316 0036 FA79     		ldrb	r2, [r7, #7]	@ zero_extendqisi2
 317 0038 F979     		ldrb	r1, [r7, #7]	@ zero_extendqisi2
 318 003a 3048     		ldr	r0, .L18+8
 319 003c 0B46     		mov	r3, r1
 320 003e 9B00     		lsls	r3, r3, #2
 321 0040 0B44     		add	r3, r3, r1
 322 0042 5B00     		lsls	r3, r3, #1
ARM GAS  C:\Users\Luis\AppData\Local\Temp\ccg5cNY0.s 			page 7


 323 0044 0344     		add	r3, r3, r0
 324 0046 B433     		adds	r3, r3, #180
 325 0048 1B88     		ldrh	r3, [r3]
 326 004a 0133     		adds	r3, r3, #1
 327 004c 99B2     		uxth	r1, r3
 328 004e 2B48     		ldr	r0, .L18+8
 329 0050 1346     		mov	r3, r2
 330 0052 9B00     		lsls	r3, r3, #2
 331 0054 1344     		add	r3, r3, r2
 332 0056 5B00     		lsls	r3, r3, #1
 333 0058 0344     		add	r3, r3, r0
 334 005a B433     		adds	r3, r3, #180
 335 005c 0A46     		mov	r2, r1	@ movhi
 336 005e 1A80     		strh	r2, [r3]	@ movhi
 337 0060 FA79     		ldrb	r2, [r7, #7]	@ zero_extendqisi2
 338 0062 2649     		ldr	r1, .L18+8
 339 0064 1346     		mov	r3, r2
 340 0066 9B00     		lsls	r3, r3, #2
 341 0068 1344     		add	r3, r3, r2
 342 006a 5B00     		lsls	r3, r3, #1
 343 006c 0B44     		add	r3, r3, r1
 344 006e B633     		adds	r3, r3, #182
 345 0070 1988     		ldrh	r1, [r3]
 346 0072 FA79     		ldrb	r2, [r7, #7]	@ zero_extendqisi2
 347 0074 2148     		ldr	r0, .L18+8
 348 0076 1346     		mov	r3, r2
 349 0078 9B00     		lsls	r3, r3, #2
 350 007a 1344     		add	r3, r3, r2
 351 007c 5B00     		lsls	r3, r3, #1
 352 007e 0344     		add	r3, r3, r0
 353 0080 B433     		adds	r3, r3, #180
 354 0082 1B88     		ldrh	r3, [r3]
 355 0084 9942     		cmp	r1, r3
 356 0086 12D2     		bcs	.L15
 357              		.loc 2 414 0 is_stmt 0 discriminator 1
 358 0088 FA79     		ldrb	r2, [r7, #7]	@ zero_extendqisi2
 359 008a F979     		ldrb	r1, [r7, #7]	@ zero_extendqisi2
 360 008c 1B48     		ldr	r0, .L18+8
 361 008e 0B46     		mov	r3, r1
 362 0090 9B00     		lsls	r3, r3, #2
 363 0092 0B44     		add	r3, r3, r1
 364 0094 5B00     		lsls	r3, r3, #1
 365 0096 0344     		add	r3, r3, r0
 366 0098 B433     		adds	r3, r3, #180
 367 009a 1988     		ldrh	r1, [r3]
 368 009c 1748     		ldr	r0, .L18+8
 369 009e 1346     		mov	r3, r2
 370 00a0 9B00     		lsls	r3, r3, #2
 371 00a2 1344     		add	r3, r3, r2
 372 00a4 5B00     		lsls	r3, r3, #1
 373 00a6 0344     		add	r3, r3, r0
 374 00a8 B633     		adds	r3, r3, #182
 375 00aa 0A46     		mov	r2, r1	@ movhi
 376 00ac 1A80     		strh	r2, [r3]	@ movhi
 377              	.L15:
 378              		.loc 2 415 0 is_stmt 1
 379 00ae FB68     		ldr	r3, [r7, #12]
ARM GAS  C:\Users\Luis\AppData\Local\Temp\ccg5cNY0.s 			page 8


 380 00b0 03F00303 		and	r3, r3, #3
 381 00b4 002B     		cmp	r3, #0
 382 00b6 17D0     		beq	.L17
 383              		.loc 2 415 0 is_stmt 0 discriminator 1
 384 00b8 1148     		ldr	r0, .L18+12
 385 00ba FFF7FEFF 		bl	osalSysHalt
 386 00be 13E0     		b	.L17
 387              	.L14:
 388              		.loc 2 420 0 is_stmt 1
 389 00c0 FA79     		ldrb	r2, [r7, #7]	@ zero_extendqisi2
 390 00c2 0E49     		ldr	r1, .L18+8
 391 00c4 1346     		mov	r3, r2
 392 00c6 9B00     		lsls	r3, r3, #2
 393 00c8 1344     		add	r3, r3, r2
 394 00ca 5B00     		lsls	r3, r3, #1
 395 00cc 0B44     		add	r3, r3, r1
 396 00ce B833     		adds	r3, r3, #184
 397 00d0 1B88     		ldrh	r3, [r3]
 398 00d2 0133     		adds	r3, r3, #1
 399 00d4 99B2     		uxth	r1, r3
 400 00d6 0948     		ldr	r0, .L18+8
 401 00d8 1346     		mov	r3, r2
 402 00da 9B00     		lsls	r3, r3, #2
 403 00dc 1344     		add	r3, r3, r2
 404 00de 5B00     		lsls	r3, r3, #1
 405 00e0 0344     		add	r3, r3, r0
 406 00e2 B833     		adds	r3, r3, #184
 407 00e4 0A46     		mov	r2, r1	@ movhi
 408 00e6 1A80     		strh	r2, [r3]	@ movhi
 409              	.L17:
 410              		.loc 2 425 0
 411 00e8 FB68     		ldr	r3, [r7, #12]
 412              	.L13:
 413              		.loc 2 426 0
 414 00ea 1846     		mov	r0, r3
 415 00ec 1037     		adds	r7, r7, #16
 416 00ee BD46     		mov	sp, r7
 417              		@ sp needed
 418 00f0 80BD     		pop	{r7, pc}
 419              	.L19:
 420 00f2 00BF     		.align	2
 421              	.L18:
 422 00f4 00000000 		.word	.LC0
 423 00f8 00000000 		.word	memp_tab
 424 00fc 00000000 		.word	lwip_stats
 425 0100 20000000 		.word	.LC1
 426              		.cfi_endproc
 427              	.LFE261:
 428              		.size	memp_malloc, .-memp_malloc
 429 0104 AFF30080 		.section	.rodata
 429      AFF30080 
 429      AFF30080 
 430 0043 00       		.align	2
 431              	.LC2:
 432 0044 6D656D70 		.ascii	"memp_free: mem properly aligned\000"
 432      5F667265 
 432      653A206D 
ARM GAS  C:\Users\Luis\AppData\Local\Temp\ccg5cNY0.s 			page 9


 432      656D2070 
 432      726F7065 
 433              		.section	.text.memp_free,"ax",%progbits
 434              		.align	2
 435              		.p2align 4,,15
 436              		.global	memp_free
 437              		.thumb
 438              		.thumb_func
 439              		.type	memp_free, %function
 440              	memp_free:
 441              	.LFB262:
 442              		.loc 2 436 0
 443              		.cfi_startproc
 444              		@ args = 0, pretend = 0, frame = 16
 445              		@ frame_needed = 1, uses_anonymous_args = 0
 446 0000 80B5     		push	{r7, lr}
 447              		.cfi_def_cfa_offset 8
 448              		.cfi_offset 7, -8
 449              		.cfi_offset 14, -4
 450 0002 84B0     		sub	sp, sp, #16
 451              		.cfi_def_cfa_offset 24
 452 0004 00AF     		add	r7, sp, #0
 453              		.cfi_def_cfa_register 7
 454 0006 0346     		mov	r3, r0
 455 0008 3960     		str	r1, [r7]
 456 000a FB71     		strb	r3, [r7, #7]
 457              		.loc 2 440 0
 458 000c 3B68     		ldr	r3, [r7]
 459 000e 002B     		cmp	r3, #0
 460 0010 00D1     		bne	.L21
 461              		.loc 2 441 0
 462 0012 28E0     		b	.L20
 463              	.L21:
 464              		.loc 2 443 0
 465 0014 3B68     		ldr	r3, [r7]
 466 0016 03F00303 		and	r3, r3, #3
 467 001a 002B     		cmp	r3, #0
 468 001c 02D0     		beq	.L23
 469              		.loc 2 443 0 is_stmt 0 discriminator 1
 470 001e 1348     		ldr	r0, .L24
 471 0020 FFF7FEFF 		bl	osalSysHalt
 472              	.L23:
 473              		.loc 2 446 0 is_stmt 1
 474 0024 3B68     		ldr	r3, [r7]
 475 0026 FB60     		str	r3, [r7, #12]
 476              		.loc 2 458 0
 477 0028 FA79     		ldrb	r2, [r7, #7]	@ zero_extendqisi2
 478 002a 1149     		ldr	r1, .L24+4
 479 002c 1346     		mov	r3, r2
 480 002e 9B00     		lsls	r3, r3, #2
 481 0030 1344     		add	r3, r3, r2
 482 0032 5B00     		lsls	r3, r3, #1
 483 0034 0B44     		add	r3, r3, r1
 484 0036 B433     		adds	r3, r3, #180
 485 0038 1B88     		ldrh	r3, [r3]
 486 003a 013B     		subs	r3, r3, #1
 487 003c 99B2     		uxth	r1, r3
ARM GAS  C:\Users\Luis\AppData\Local\Temp\ccg5cNY0.s 			page 10


 488 003e 0C48     		ldr	r0, .L24+4
 489 0040 1346     		mov	r3, r2
 490 0042 9B00     		lsls	r3, r3, #2
 491 0044 1344     		add	r3, r3, r2
 492 0046 5B00     		lsls	r3, r3, #1
 493 0048 0344     		add	r3, r3, r0
 494 004a B433     		adds	r3, r3, #180
 495 004c 0A46     		mov	r2, r1	@ movhi
 496 004e 1A80     		strh	r2, [r3]	@ movhi
 497              		.loc 2 460 0
 498 0050 FA79     		ldrb	r2, [r7, #7]	@ zero_extendqisi2
 499 0052 084B     		ldr	r3, .L24+8
 500 0054 53F82220 		ldr	r2, [r3, r2, lsl #2]
 501 0058 FB68     		ldr	r3, [r7, #12]
 502 005a 1A60     		str	r2, [r3]
 503              		.loc 2 461 0
 504 005c FA79     		ldrb	r2, [r7, #7]	@ zero_extendqisi2
 505 005e 054B     		ldr	r3, .L24+8
 506 0060 F968     		ldr	r1, [r7, #12]
 507 0062 43F82210 		str	r1, [r3, r2, lsl #2]
 508              	.L20:
 509              		.loc 2 468 0
 510 0066 1037     		adds	r7, r7, #16
 511 0068 BD46     		mov	sp, r7
 512              		@ sp needed
 513 006a 80BD     		pop	{r7, pc}
 514              	.L25:
 515              		.align	2
 516              	.L24:
 517 006c 44000000 		.word	.LC2
 518 0070 00000000 		.word	lwip_stats
 519 0074 00000000 		.word	memp_tab
 520              		.cfi_endproc
 521              	.LFE262:
 522              		.size	memp_free, .-memp_free
 523 0078 AFF30080 		.text
 523      AFF30080 
 524              	.Letext0:
 525              		.file 3 "c:\\emtechesdk\\gcc\\lib\\gcc\\arm-none-eabi\\4.8.3\\include\\stddef.h"
 526              		.file 4 "c:\\emtechesdk\\gcc\\arm-none-eabi\\include\\stdint.h"
 527              		.file 5 "../../ChibiOS/os/rt/ports/ARMCMx/compilers/GCC/chtypes.h"
 528              		.file 6 "../../ChibiOS/os/rt/include/chsystypes.h"
 529              		.file 7 "../../ChibiOS/os/rt/include/chschd.h"
 530              		.file 8 "../../ChibiOS/os/rt/ports/ARMCMx/chcore.h"
 531              		.file 9 "../../ChibiOS/os/rt/ports/ARMCMx/chcore_v7m.h"
 532              		.file 10 "../../ChibiOS/os/rt/include/chdebug.h"
 533              		.file 11 "../../ChibiOS/os/rt/include/chtm.h"
 534              		.file 12 "../../ChibiOS/os/rt/include/chstats.h"
 535              		.file 13 "../../ChibiOS/os/rt/include/chsem.h"
 536              		.file 14 "../../ChibiOS/os/rt/include/chmtx.h"
 537              		.file 15 "../../ChibiOS/os/various/lwip_bindings/arch/cc.h"
 538              		.file 16 "../../ChibiOS/ext/lwip/src/include/lwip/memp.h"
 539              		.file 17 "../../ChibiOS/ext/lwip/src/include/lwip/mem.h"
 540              		.file 18 "../../ChibiOS/ext/lwip/src/include/lwip/stats.h"
 541              		.file 19 "../../ChibiOS/os/ext/CMSIS/include/core_cm4.h"