ARM GAS  C:\Users\Luis\AppData\Local\Temp\ccg5cNY0.s 			page 1


   1              		.syntax unified
   2              		.cpu cortex-m4
   3              		.fpu softvfp
   4              		.eabi_attribute 20, 1
   5              		.eabi_attribute 21, 1
   6              		.eabi_attribute 23, 3
   7              		.eabi_attribute 24, 1
   8              		.eabi_attribute 25, 1
   9              		.eabi_attribute 26, 1
  10              		.eabi_attribute 30, 6
  11              		.eabi_attribute 34, 1
  12              		.eabi_attribute 18, 4
  13              		.thumb
  14              		.file	"memp.c"
  15              		.text
  16              	.Ltext0:
  17              		.cfi_sections	.debug_frame
  18              		.section	.text.osalSysHalt,"ax",%progbits
  19              		.align	2
  20              		.p2align 4,,15
  21              		.thumb
  22              		.thumb_func
  23              		.type	osalSysHalt, %function
  24              	osalSysHalt:
  25              	.LFB230:
  26              		.file 1 "../../ChibiOS/os/hal/osal/rt/osal.h"
  27              		.loc 1 460 0
  28              		.cfi_startproc
  29              		@ args = 0, pretend = 0, frame = 8
  30              		@ frame_needed = 1, uses_anonymous_args = 0
  31 0000 80B5     		push	{r7, lr}
  32              		.cfi_def_cfa_offset 8
  33              		.cfi_offset 7, -8
  34              		.cfi_offset 14, -4
  35 0002 82B0     		sub	sp, sp, #8
  36              		.cfi_def_cfa_offset 16
  37 0004 00AF     		add	r7, sp, #0
  38              		.cfi_def_cfa_register 7
  39 0006 7860     		str	r0, [r7, #4]
  40              		.loc 1 462 0
  41 0008 7868     		ldr	r0, [r7, #4]
  42 000a FFF7FEFF 		bl	chSysHalt
  43              		.loc 1 463 0
  44 000e 0837     		adds	r7, r7, #8
  45 0010 BD46     		mov	sp, r7
  46              		@ sp needed
  47 0012 80BD     		pop	{r7, pc}
  48              		.cfi_endproc
  49              	.LFE230:
  50              		.size	osalSysHalt, .-osalSysHalt
  51 0014 AFF30080 		.section	.bss.memp_tab,"aw",%nobits
  51      AFF30080 
  51      AFF30080 
  52              		.align	2
  53              		.type	memp_tab, %object
  54              		.size	memp_tab, 56
  55              	memp_tab:
ARM GAS  C:\Users\Luis\AppData\Local\Temp\ccg5cNY0.s 			page 2


  56 0000 00000000 		.space	56
  56      00000000 
  56      00000000 
  56      00000000 
  56      00000000 
  57              		.section	.rodata.memp_sizes,"a",%progbits
  58              		.align	2
  59              		.type	memp_sizes, %object
  60              		.size	memp_sizes, 28
  61              	memp_sizes:
  62 0000 1C00     		.short	28
  63 0002 2000     		.short	32
  64 0004 9800     		.short	152
  65 0006 1C00     		.short	28
  66 0008 1000     		.short	16
  67 000a 2000     		.short	32
  68 000c 1800     		.short	24
  69 000e 1000     		.short	16
  70 0010 2C00     		.short	44
  71 0012 1400     		.short	20
  72 0014 1400     		.short	20
  73 0016 1000     		.short	16
  74 0018 1000     		.short	16
  75 001a 6002     		.short	608
  76              		.section	.rodata.memp_num,"a",%progbits
  77              		.align	2
  78              		.type	memp_num, %object
  79              		.size	memp_num, 28
  80              	memp_num:
  81 0000 0400     		.short	4
  82 0002 0400     		.short	4
  83 0004 0500     		.short	5
  84 0006 0800     		.short	8
  85 0008 1000     		.short	16
  86 000a 0500     		.short	5
  87 000c 0F00     		.short	15
  88 000e 0200     		.short	2
  89 0010 0400     		.short	4
  90 0012 0800     		.short	8
  91 0014 0800     		.short	8
  92 0016 0300     		.short	3
  93 0018 1000     		.short	16
  94 001a 1000     		.short	16
  95              		.section	.bss.memp_memory,"aw",%nobits
  96              		.align	2
  97              		.type	memp_memory, %object
  98              		.size	memp_memory, 12563
  99              	memp_memory:
 100 0000 00000000 		.space	12563
 100      00000000 
 100      00000000 
 100      00000000 
 100      00000000 
 101 3113 00       		.section	.text.memp_init,"ax",%progbits
 102              		.align	2
 103              		.p2align 4,,15
 104              		.global	memp_init
ARM GAS  C:\Users\Luis\AppData\Local\Temp\ccg5cNY0.s 			page 3


 105              		.thumb
 106              		.thumb_func
 107              		.type	memp_init, %function
 108              	memp_init:
 109              	.LFB260:
 110              		.file 2 "../../ChibiOS/ext/lwip/src/core/memp.c"
 111              		.loc 2 339 0
 112              		.cfi_startproc
 113              		@ args = 0, pretend = 0, frame = 8
 114              		@ frame_needed = 1, uses_anonymous_args = 0
 115              		@ link register save eliminated.
 116 0000 80B4     		push	{r7}
 117              		.cfi_def_cfa_offset 4
 118              		.cfi_offset 7, -4
 119 0002 83B0     		sub	sp, sp, #12
 120              		.cfi_def_cfa_offset 16
 121 0004 00AF     		add	r7, sp, #0
 122              		.cfi_def_cfa_register 7
 123              		.loc 2 343 0
 124 0006 0023     		movs	r3, #0
 125 0008 7B80     		strh	r3, [r7, #2]	@ movhi
 126 000a 2EE0     		b	.L3
 127              	.L4:
 128              		.loc 2 344 0 discriminator 2
 129 000c 7A88     		ldrh	r2, [r7, #2]
 130 000e 3449     		ldr	r1, .L9
 131 0010 1346     		mov	r3, r2
 132 0012 9B00     		lsls	r3, r3, #2
 133 0014 1344     		add	r3, r3, r2
 134 0016 5B00     		lsls	r3, r3, #1
 135 0018 0B44     		add	r3, r3, r1
 136 001a B433     		adds	r3, r3, #180
 137 001c 0022     		movs	r2, #0
 138 001e 1A80     		strh	r2, [r3]	@ movhi
 139              		.loc 2 345 0 discriminator 2
 140 0020 7A88     		ldrh	r2, [r7, #2]
 141 0022 2F49     		ldr	r1, .L9
 142 0024 1346     		mov	r3, r2
 143 0026 9B00     		lsls	r3, r3, #2
 144 0028 1344     		add	r3, r3, r2
 145 002a 5B00     		lsls	r3, r3, #1
 146 002c 0B44     		add	r3, r3, r1
 147 002e B633     		adds	r3, r3, #182
 148 0030 0022     		movs	r2, #0
 149 0032 1A80     		strh	r2, [r3]	@ movhi
 150              		.loc 2 346 0 discriminator 2
 151 0034 7A88     		ldrh	r2, [r7, #2]
 152 0036 2A49     		ldr	r1, .L9
 153 0038 1346     		mov	r3, r2
 154 003a 9B00     		lsls	r3, r3, #2
 155 003c 1344     		add	r3, r3, r2
 156 003e 5B00     		lsls	r3, r3, #1
 157 0040 0B44     		add	r3, r3, r1
 158 0042 B833     		adds	r3, r3, #184
 159 0044 0022     		movs	r2, #0
 160 0046 1A80     		strh	r2, [r3]	@ movhi
 161              		.loc 2 347 0 discriminator 2
ARM GAS  C:\Users\Luis\AppData\Local\Temp\ccg5cNY0.s 			page 4


 162 0048 7A88     		ldrh	r2, [r7, #2]
 163 004a 7988     		ldrh	r1, [r7, #2]
 164 004c 254B     		ldr	r3, .L9+4
 165 004e 33F81110 		ldrh	r1, [r3, r1, lsl #1]
 166 0052 2348     		ldr	r0, .L9
 167 0054 1346     		mov	r3, r2
 168 0056 9B00     		lsls	r3, r3, #2
 169 0058 1344     		add	r3, r3, r2
 170 005a 5B00     		lsls	r3, r3, #1
 171 005c 0344     		add	r3, r3, r0
 172 005e B233     		adds	r3, r3, #178
 173 0060 0A46     		mov	r2, r1	@ movhi
 174 0062 1A80     		strh	r2, [r3]	@ movhi
 175              		.loc 2 343 0 discriminator 2
 176 0064 7B88     		ldrh	r3, [r7, #2]	@ movhi
 177 0066 0133     		adds	r3, r3, #1
 178 0068 7B80     		strh	r3, [r7, #2]	@ movhi
 179              	.L3:
 180              		.loc 2 343 0 is_stmt 0 discriminator 1
 181 006a 7B88     		ldrh	r3, [r7, #2]
 182 006c 0D2B     		cmp	r3, #13
 183 006e CDD9     		bls	.L4
 184              		.loc 2 351 0 is_stmt 1
 185 0070 1D4B     		ldr	r3, .L9+8
 186 0072 0333     		adds	r3, r3, #3
 187 0074 23F00303 		bic	r3, r3, #3
 188 0078 7B60     		str	r3, [r7, #4]
 189              		.loc 2 354 0
 190 007a 0023     		movs	r3, #0
 191 007c 7B80     		strh	r3, [r7, #2]	@ movhi
 192 007e 26E0     		b	.L5
 193              	.L8:
 194              		.loc 2 355 0
 195 0080 7A88     		ldrh	r2, [r7, #2]
 196 0082 1A4B     		ldr	r3, .L9+12
 197 0084 0021     		movs	r1, #0
 198 0086 43F82210 		str	r1, [r3, r2, lsl #2]
 199              		.loc 2 360 0
 200 008a 0023     		movs	r3, #0
 201 008c 3B80     		strh	r3, [r7]	@ movhi
 202 008e 14E0     		b	.L6
 203              	.L7:
 204              		.loc 2 361 0 discriminator 2
 205 0090 7A88     		ldrh	r2, [r7, #2]
 206 0092 164B     		ldr	r3, .L9+12
 207 0094 53F82220 		ldr	r2, [r3, r2, lsl #2]
 208 0098 7B68     		ldr	r3, [r7, #4]
 209 009a 1A60     		str	r2, [r3]
 210              		.loc 2 362 0 discriminator 2
 211 009c 7A88     		ldrh	r2, [r7, #2]
 212 009e 134B     		ldr	r3, .L9+12
 213 00a0 7968     		ldr	r1, [r7, #4]
 214 00a2 43F82210 		str	r1, [r3, r2, lsl #2]
 215              		.loc 2 363 0 discriminator 2
 216 00a6 7A88     		ldrh	r2, [r7, #2]
 217 00a8 114B     		ldr	r3, .L9+16
 218 00aa 33F81230 		ldrh	r3, [r3, r2, lsl #1]
ARM GAS  C:\Users\Luis\AppData\Local\Temp\ccg5cNY0.s 			page 5


 219 00ae 7A68     		ldr	r2, [r7, #4]
 220 00b0 1344     		add	r3, r3, r2
 221 00b2 7B60     		str	r3, [r7, #4]
 222              		.loc 2 360 0 discriminator 2
 223 00b4 3B88     		ldrh	r3, [r7]	@ movhi
 224 00b6 0133     		adds	r3, r3, #1
 225 00b8 3B80     		strh	r3, [r7]	@ movhi
 226              	.L6:
 227              		.loc 2 360 0 is_stmt 0 discriminator 1
 228 00ba 7A88     		ldrh	r2, [r7, #2]
 229 00bc 094B     		ldr	r3, .L9+4
 230 00be 33F81230 		ldrh	r3, [r3, r2, lsl #1]
 231 00c2 3A88     		ldrh	r2, [r7]
 232 00c4 9A42     		cmp	r2, r3
 233 00c6 E3D3     		bcc	.L7
 234              		.loc 2 354 0 is_stmt 1
 235 00c8 7B88     		ldrh	r3, [r7, #2]	@ movhi
 236 00ca 0133     		adds	r3, r3, #1
 237 00cc 7B80     		strh	r3, [r7, #2]	@ movhi
 238              	.L5:
 239              		.loc 2 354 0 is_stmt 0 discriminator 1
 240 00ce 7B88     		ldrh	r3, [r7, #2]
 241 00d0 0D2B     		cmp	r3, #13
 242 00d2 D5D9     		bls	.L8
 243              		.loc 2 375 0 is_stmt 1
 244 00d4 0C37     		adds	r7, r7, #12
 245 00d6 BD46     		mov	sp, r7
 246              		@ sp needed
 247 00d8 5DF8047B 		ldr	r7, [sp], #4
 248 00dc 7047     		bx	lr
 249              	.L10:
 250 00de 00BF     		.align	2
 251              	.L9:
 252 00e0 00000000 		.word	lwip_stats
 253 00e4 00000000 		.word	memp_num
 254 00e8 00000000 		.word	memp_memory
 255 00ec 00000000 		.word	memp_tab
 256 00f0 00000000 		.word	memp_sizes
 257              		.cfi_endproc
 258              	.LFE260:
 259              		.size	memp_init, .-memp_init
 260 00f4 AFF30080 		.section	.rodata
 260      AFF30080 
 260      AFF30080 
 261              		.align	2
 262              	.LC0:
 263 0000 6D656D70 		.ascii	"memp_malloc: type < MEMP_MAX\000"
 263      5F6D616C 
 263      6C6F633A 
 263      20747970 
 263      65203C20 
 264 001d 000000   		.align	2
 265              	.LC1:
 266 0020 6D656D70 		.ascii	"memp_malloc: memp properly aligned\000"
 266      5F6D616C 
 266      6C6F633A 
 266      206D656D 
ARM GAS  C:\Users\Luis\AppData\Local\Temp\ccg5cNY0.s 			page 6


 266      70207072 
 267              		.section	.text.memp_malloc,"ax",%progbits
 268              		.align	2
 269              		.p2align 4,,15
 270              		.global	memp_malloc
 271              		.thumb
 272              		.thumb_func
 273              		.type	memp_malloc, %function
 274              	memp_malloc:
 275              	.LFB261:
 276              		.loc 2 394 0
 277              		.cfi_startproc
 278              		@ args = 0, pretend = 0, frame = 16
 279              		@ frame_needed = 1, uses_anonymous_args = 0
 280 0000 80B5     		push	{r7, lr}
 281              		.cfi_def_cfa_offset 8
 282              		.cfi_offset 7, -8
 283              		.cfi_offset 14, -4
 284 0002 84B0     		sub	sp, sp, #16
 285              		.cfi_def_cfa_offset 24
 286 0004 00AF     		add	r7, sp, #0
 287              		.cfi_def_cfa_register 7
 288 0006 0346     		mov	r3, r0
 289 0008 FB71     		strb	r3, [r7, #7]
 290              		.loc 2 398 0
 291 000a FB79     		ldrb	r3, [r7, #7]	@ zero_extendqisi2
 292 000c 0D2B     		cmp	r3, #13
 293 000e 04D9     		bls	.L12
 294              		.loc 2 398 0 is_stmt 0 discriminator 1
 295 0010 3848     		ldr	r0, .L18
 296 0012 FFF7FEFF 		bl	osalSysHalt
 297 0016 0023     		movs	r3, #0
 298 0018 67E0     		b	.L13
 299              	.L12:
 300              		.loc 2 405 0 is_stmt 1
 301 001a FA79     		ldrb	r2, [r7, #7]	@ zero_extendqisi2
 302 001c 364B     		ldr	r3, .L18+4
 303 001e 53F82230 		ldr	r3, [r3, r2, lsl #2]
 304 0022 FB60     		str	r3, [r7, #12]
 305              		.loc 2 407 0
 306 0024 FB68     		ldr	r3, [r7, #12]
 307 0026 002B     		cmp	r3, #0
 308 0028 4AD0     		beq	.L14
 309              		.loc 2 408 0
 310 002a FA79     		ldrb	r2, [r7, #7]	@ zero_extendqisi2
 311 002c FB68     		ldr	r3, [r7, #12]
 312 002e 1968     		ldr	r1, [r3]
 313 0030 314B     		ldr	r3, .L18+4
 314 0032 43F82210 		str	r1, [r3, r2, lsl #2]
 315              		.loc 2 414 0
 316 0036 FA79     		ldrb	r2, [r7, #7]	@ zero_extendqisi2
 317 0038 F979     		ldrb	r1, [r7, #7]	@ zero_extendqisi2
 318 003a 3048     		ldr	r0, .L18+8
 319 003c 0B46     		mov	r3, r1
 320 003e 9B00     		lsls	r3, r3, #2
 321 0040 0B44     		add	r3, r3, r1
 322 0042 5B00     		lsls	r3, r3, #1
ARM GAS  C:\Users\Luis\AppData\Local\Temp\ccg5cNY0.s 			page 7


 323 0044 0344     		add	r3, r3, r0
 324 0046 B433     		adds	r3, r3, #180
 325 0048 1B88     		ldrh	r3, [r3]
 326 004a 0133     		adds	r3, r3, #1
 327 004c 99B2     		uxth	r1, r3
 328 004e 2B48     		ldr	r0, .L18+8
 329 0050 1346     		mov	r3, r2
 330 0052 9B00     		lsls	r3, r3, #2
 331 0054 1344     		add	r3, r3, r2
 332 0056 5B00     		lsls	r3, r3, #1
 333 0058 0344     		add	r3, r3, r0
 334 005a B433     		adds	r3, r3, #180
 335 005c 0A46     		mov	r2, r1	@ movhi
 336 005e 1A80     		strh	r2, [r3]	@ movhi
 337 0060 FA79     		ldrb	r2, [r7, #7]	@ zero_extendqisi2
 338 0062 2649     		ldr	r1, .L18+8
 339 0064 1346     		mov	r3, r2
 340 0066 9B00     		lsls	r3, r3, #2
 341 0068 1344     		add	r3, r3, r2
 342 006a 5B00     		lsls	r3, r3, #1
 343 006c 0B44     		add	r3, r3, r1
 344 006e B633     		adds	r3, r3, #182
 345 0070 1988     		ldrh	r1, [r3]
 346 0072 FA79     		ldrb	r2, [r7, #7]	@ zero_extendqisi2
 347 0074 2148     		ldr	r0, .L18+8
 348 0076 1346     		mov	r3, r2
 349 0078 9B00     		lsls	r3, r3, #2
 350 007a 1344     		add	r3, r3, r2
 351 007c 5B00     		lsls	r3, r3, #1
 352 007e 0344     		add	r3, r3, r0
 353 0080 B433     		adds	r3, r3, #180
 354 0082 1B88     		ldrh	r3, [r3]
 355 0084 9942     		cmp	r1, r3
 356 0086 12D2     		bcs	.L15
 357              		.loc 2 414 0 is_stmt 0 discriminator 1
 358 0088 FA79     		ldrb	r2, [r7, #7]	@ zero_extendqisi2
 359 008a F979     		ldrb	r1, [r7, #7]	@ zero_extendqisi2
 360 008c 1B48     		ldr	r0, .L18+8
 361 008e 0B46     		mov	r3, r1
 362 0090 9B00     		lsls	r3, r3, #2
 363 0092 0B44     		add	r3, r3, r1
 364 0094 5B00     		lsls	r3, r3, #1
 365 0096 0344     		add	r3, r3, r0
 366 0098 B433     		adds	r3, r3, #180
 367 009a 1988     		ldrh	r1, [r3]
 368 009c 1748     		ldr	r0, .L18+8
 369 009e 1346     		mov	r3, r2
 370 00a0 9B00     		lsls	r3, r3, #2
 371 00a2 1344     		add	r3, r3, r2
 372 00a4 5B00     		lsls	r3, r3, #1
 373 00a6 0344     		add	r3, r3, r0
 374 00a8 B633     		adds	r3, r3, #182
 375 00aa 0A46     		mov	r2, r1	@ movhi
 376 00ac 1A80     		strh	r2, [r3]	@ movhi
 377              	.L15:
 378              		.loc 2 415 0 is_stmt 1
 379 00ae FB68     		ldr	r3, [r7, #12]
ARM GAS  C:\Users\Luis\AppData\Local\Temp\ccg5cNY0.s 			page 8


 380 00b0 03F00303 		and	r3, r3, #3
 381 00b4 002B     		cmp	r3, #0
 382 00b6 17D0     		beq	.L17
 383              		.loc 2 415 0 is_stmt 0 discriminator 1
 384 00b8 1148     		ldr	r0, .L18+12
 385 00ba FFF7FEFF 		bl	osalSysHalt
 386 00be 13E0     		b	.L17
 387              	.L14:
 388              		.loc 2 420 0 is_stmt 1
 389 00c0 FA79     		ldrb	r2, [r7, #7]	@ zero_extendqisi2
 390 00c2 0E49     		ldr	r1, .L18+8
 391 00c4 1346     		mov	r3, r2
 392 00c6 9B00     		lsls	r3, r3, #2
 393 00c8 1344     		add	r3, r3, r2
 394 00ca 5B00     		lsls	r3, r3, #1
 395 00cc 0B44     		add	r3, r3, r1
 396 00ce B833     		adds	r3, r3, #184
 397 00d0 1B88     		ldrh	r3, [r3]
 398 00d2 0133     		adds	r3, r3, #1
 399 00d4 99B2     		uxth	r1, r3
 400 00d6 0948     		ldr	r0, .L18+8
 401 00d8 1346     		mov	r3, r2
 402 00da 9B00     		lsls	r3, r3, #2
 403 00dc 1344     		add	r3, r3, r2
 404 00de 5B00     		lsls	r3, r3, #1
 405 00e0 0344     		add	r3, r3, r0
 406 00e2 B833     		adds	r3, r3, #184
 407 00e4 0A46     		mov	r2, r1	@ movhi
 408 00e6 1A80     		strh	r2, [r3]	@ movhi
 409              	.L17:
 410              		.loc 2 425 0
 411 00e8 FB68     		ldr	r3, [r7, #12]
 412              	.L13:
 413              		.loc 2 426 0
 414 00ea 1846     		mov	r0, r3
 415 00ec 1037     		adds	r7, r7, #16
 416 00ee BD46     		mov	sp, r7
 417              		@ sp needed
 418 00f0 80BD     		pop	{r7, pc}
 419              	.L19:
 420 00f2 00BF     		.align	2
 421              	.L18:
 422 00f4 00000000 		.word	.LC0
 423 00f8 00000000 		.word	memp_tab
 424 00fc 00000000 		.word	lwip_stats
 425 0100 20000000 		.word	.LC1
 426              		.cfi_endproc
 427              	.LFE261:
 428              		.size	memp_malloc, .-memp_malloc
 429 0104 AFF30080 		.section	.rodata
 429      AFF30080 
 429      AFF30080 
 430 0043 00       		.align	2
 431              	.LC2:
 432 0044 6D656D70 		.ascii	"memp_free: mem properly aligned\000"
 432      5F667265 
 432      653A206D 
ARM GAS  C:\Users\Luis\AppData\Local\Temp\ccg5cNY0.s 			page 9


 432      656D2070 
 432      726F7065 
 433              		.section	.text.memp_free,"ax",%progbits
 434              		.align	2
 435              		.p2align 4,,15
 436              		.global	memp_free
 437              		.thumb
 438              		.thumb_func
 439              		.type	memp_free, %function
 440              	memp_free:
 441              	.LFB262:
 442              		.loc 2 436 0
 443              		.cfi_startproc
 444              		@ args = 0, pretend = 0, frame = 16
 445              		@ frame_needed = 1, uses_anonymous_args = 0
 446 0000 80B5     		push	{r7, lr}
 447              		.cfi_def_cfa_offset 8
 448              		.cfi_offset 7, -8
 449              		.cfi_offset 14, -4
 450 0002 84B0     		sub	sp, sp, #16
 451              		.cfi_def_cfa_offset 24
 452 0004 00AF     		add	r7, sp, #0
 453              		.cfi_def_cfa_register 7
 454 0006 0346     		mov	r3, r0
 455 0008 3960     		str	r1, [r7]
 456 000a FB71     		strb	r3, [r7, #7]
 457              		.loc 2 440 0
 458 000c 3B68     		ldr	r3, [r7]
 459 000e 002B     		cmp	r3, #0
 460 0010 00D1     		bne	.L21
 461              		.loc 2 441 0
 462 0012 28E0     		b	.L20
 463              	.L21:
 464              		.loc 2 443 0
 465 0014 3B68     		ldr	r3, [r7]
 466 0016 03F00303 		and	r3, r3, #3
 467 001a 002B     		cmp	r3, #0
 468 001c 02D0     		beq	.L23
 469              		.loc 2 443 0 is_stmt 0 discriminator 1
 470 001e 1348     		ldr	r0, .L24
 471 0020 FFF7FEFF 		bl	osalSysHalt
 472              	.L23:
 473              		.loc 2 446 0 is_stmt 1
 474 0024 3B68     		ldr	r3, [r7]
 475 0026 FB60     		str	r3, [r7, #12]
 476              		.loc 2 458 0
 477 0028 FA79     		ldrb	r2, [r7, #7]	@ zero_extendqisi2
 478 002a 1149     		ldr	r1, .L24+4
 479 002c 1346     		mov	r3, r2
 480 002e 9B00     		lsls	r3, r3, #2
 481 0030 1344     		add	r3, r3, r2
 482 0032 5B00     		lsls	r3, r3, #1
 483 0034 0B44     		add	r3, r3, r1
 484 0036 B433     		adds	r3, r3, #180
 485 0038 1B88     		ldrh	r3, [r3]
 486 003a 013B     		subs	r3, r3, #1
 487 003c 99B2     		uxth	r1, r3
ARM GAS  C:\Users\Luis\AppData\Local\Temp\ccg5cNY0.s 			page 10


 488 003e 0C48     		ldr	r0, .L24+4
 489 0040 1346     		mov	r3, r2
 490 0042 9B00     		lsls	r3, r3, #2
 491 0044 1344     		add	r3, r3, r2
 492 0046 5B00     		lsls	r3, r3, #1
 493 0048 0344     		add	r3, r3, r0
 494 004a B433     		adds	r3, r3, #180
 495 004c 0A46     		mov	r2, r1	@ movhi
 496 004e 1A80     		strh	r2, [r3]	@ movhi
 497              		.loc 2 460 0
 498 0050 FA79     		ldrb	r2, [r7, #7]	@ zero_extendqisi2
 499 0052 084B     		ldr	r3, .L24+8
 500 0054 53F82220 		ldr	r2, [r3, r2, lsl #2]
 501 0058 FB68     		ldr	r3, [r7, #12]
 502 005a 1A60     		str	r2, [r3]
 503              		.loc 2 461 0
 504 005c FA79     		ldrb	r2, [r7, #7]	@ zero_extendqisi2
 505 005e 054B     		ldr	r3, .L24+8
 506 0060 F968     		ldr	r1, [r7, #12]
 507 0062 43F82210 		str	r1, [r3, r2, lsl #2]
 508              	.L20:
 509              		.loc 2 468 0
 510 0066 1037     		adds	r7, r7, #16
 511 0068 BD46     		mov	sp, r7
 512              		@ sp needed
 513 006a 80BD     		pop	{r7, pc}
 514              	.L25:
 515              		.align	2
 516              	.L24:
 517 006c 44000000 		.word	.LC2
 518 0070 00000000 		.word	lwip_stats
 519 0074 00000000 		.word	memp_tab
 520              		.cfi_endproc
 521              	.LFE262:
 522              		.size	memp_free, .-memp_free
 523 0078 AFF30080 		.text
 523      AFF30080 
 524              	.Letext0:
 525              		.file 3 "c:\\emtechesdk\\gcc\\lib\\gcc\\arm-none-eabi\\4.8.3\\include\\stddef.h"
 526              		.file 4 "c:\\emtechesdk\\gcc\\arm-none-eabi\\include\\stdint.h"
 527              		.file 5 "../../ChibiOS/os/rt/ports/ARMCMx/compilers/GCC/chtypes.h"
 528              		.file 6 "../../ChibiOS/os/rt/include/chsystypes.h"
 529              		.file 7 "../../ChibiOS/os/rt/include/chschd.h"
 530              		.file 8 "../../ChibiOS/os/rt/ports/ARMCMx/chcore.h"
 531              		.file 9 "../../ChibiOS/os/rt/ports/ARMCMx/chcore_v7m.h"
 532              		.file 10 "../../ChibiOS/os/rt/include/chdebug.h"
 533              		.file 11 "../../ChibiOS/os/rt/include/chtm.h"
 534              		.file 12 "../../ChibiOS/os/rt/include/chstats.h"
 535              		.file 13 "../../ChibiOS/os/rt/include/chsem.h"
 536              		.file 14 "../../ChibiOS/os/rt/include/chmtx.h"
 537              		.file 15 "../../ChibiOS/os/various/lwip_bindings/arch/cc.h"
 538              		.file 16 "../../ChibiOS/ext/lwip/src/include/lwip/memp.h"
 539              		.file 17 "../../ChibiOS/ext/lwip/src/include/lwip/mem.h"
 540              		.file 18 "../../ChibiOS/ext/lwip/src/include/lwip/stats.h"
 541              		.file 19 "../../ChibiOS/os/ext/CMSIS/include/core_cm4.h"
 542              		.section	.debug_info,"",%progbits
 543              	.Ldebug_info0:
ARM GAS  C:\Users\Luis\AppData\Local\Temp\ccg5cNY0.s 			page 11


 544 0000 C30B0000 		.4byte	0xbc3
 545 0004 0400     		.2byte	0x4
 546 0006 00000000 		.4byte	.Ldebug_abbrev0
 547 000a 04       		.byte	0x4
 548 000b 01       		.uleb128 0x1
 549 000c CF060000 		.4byte	.LASF184
 550 0010 01       		.byte	0x1
 551 0011 C0010000 		.4byte	.LASF185
 552 0015 4D020000 		.4byte	.LASF186
 553 0019 00000000 		.4byte	.Ldebug_ranges0+0
 554 001d 00000000 		.4byte	0
 555 0021 00000000 		.4byte	.Ldebug_line0
 556 0025 02       		.uleb128 0x2
 557 0026 04       		.byte	0x4
 558 0027 05       		.byte	0x5
 559 0028 696E7400 		.ascii	"int\000"
 560 002c 03       		.uleb128 0x3
 561 002d 25000000 		.4byte	.LASF2
 562 0031 03       		.byte	0x3
 563 0032 D4       		.byte	0xd4
 564 0033 37000000 		.4byte	0x37
 565 0037 04       		.uleb128 0x4
 566 0038 04       		.byte	0x4
 567 0039 07       		.byte	0x7
 568 003a DE020000 		.4byte	.LASF0
 569 003e 04       		.uleb128 0x4
 570 003f 01       		.byte	0x1
 571 0040 06       		.byte	0x6
 572 0041 46010000 		.4byte	.LASF1
 573 0045 03       		.uleb128 0x3
 574 0046 FB070000 		.4byte	.LASF3
 575 004a 04       		.byte	0x4
 576 004b 2A       		.byte	0x2a
 577 004c 50000000 		.4byte	0x50
 578 0050 04       		.uleb128 0x4
 579 0051 01       		.byte	0x1
 580 0052 08       		.byte	0x8
 581 0053 BA060000 		.4byte	.LASF4
 582 0057 04       		.uleb128 0x4
 583 0058 02       		.byte	0x2
 584 0059 05       		.byte	0x5
 585 005a BE030000 		.4byte	.LASF5
 586 005e 03       		.uleb128 0x3
 587 005f F9010000 		.4byte	.LASF6
 588 0063 04       		.byte	0x4
 589 0064 36       		.byte	0x36
 590 0065 69000000 		.4byte	0x69
 591 0069 04       		.uleb128 0x4
 592 006a 02       		.byte	0x2
 593 006b 07       		.byte	0x7
 594 006c 32030000 		.4byte	.LASF7
 595 0070 03       		.uleb128 0x3
 596 0071 12050000 		.4byte	.LASF8
 597 0075 04       		.byte	0x4
 598 0076 4F       		.byte	0x4f
 599 0077 7B000000 		.4byte	0x7b
 600 007b 04       		.uleb128 0x4
ARM GAS  C:\Users\Luis\AppData\Local\Temp\ccg5cNY0.s 			page 12


 601 007c 04       		.byte	0x4
 602 007d 05       		.byte	0x5
 603 007e A1010000 		.4byte	.LASF9
 604 0082 03       		.uleb128 0x3
 605 0083 DE050000 		.4byte	.LASF10
 606 0087 04       		.byte	0x4
 607 0088 50       		.byte	0x50
 608 0089 8D000000 		.4byte	0x8d
 609 008d 04       		.uleb128 0x4
 610 008e 04       		.byte	0x4
 611 008f 07       		.byte	0x7
 612 0090 59010000 		.4byte	.LASF11
 613 0094 04       		.uleb128 0x4
 614 0095 08       		.byte	0x8
 615 0096 05       		.byte	0x5
 616 0097 38010000 		.4byte	.LASF12
 617 009b 03       		.uleb128 0x3
 618 009c 33000000 		.4byte	.LASF13
 619 00a0 04       		.byte	0x4
 620 00a1 78       		.byte	0x78
 621 00a2 A6000000 		.4byte	0xa6
 622 00a6 04       		.uleb128 0x4
 623 00a7 08       		.byte	0x8
 624 00a8 07       		.byte	0x7
 625 00a9 A3000000 		.4byte	.LASF14
 626 00ad 05       		.uleb128 0x5
 627 00ae 70000000 		.4byte	0x70
 628 00b2 03       		.uleb128 0x3
 629 00b3 FE030000 		.4byte	.LASF15
 630 00b7 05       		.byte	0x5
 631 00b8 45       		.byte	0x45
 632 00b9 82000000 		.4byte	0x82
 633 00bd 03       		.uleb128 0x3
 634 00be 00000000 		.4byte	.LASF16
 635 00c2 05       		.byte	0x5
 636 00c3 46       		.byte	0x46
 637 00c4 9B000000 		.4byte	0x9b
 638 00c8 03       		.uleb128 0x3
 639 00c9 91030000 		.4byte	.LASF17
 640 00cd 05       		.byte	0x5
 641 00ce 48       		.byte	0x48
 642 00cf 45000000 		.4byte	0x45
 643 00d3 03       		.uleb128 0x3
 644 00d4 B7010000 		.4byte	.LASF18
 645 00d8 05       		.byte	0x5
 646 00d9 49       		.byte	0x49
 647 00da 45000000 		.4byte	0x45
 648 00de 03       		.uleb128 0x3
 649 00df B9040000 		.4byte	.LASF19
 650 00e3 05       		.byte	0x5
 651 00e4 4A       		.byte	0x4a
 652 00e5 45000000 		.4byte	0x45
 653 00e9 03       		.uleb128 0x3
 654 00ea F5040000 		.4byte	.LASF20
 655 00ee 05       		.byte	0x5
 656 00ef 4C       		.byte	0x4c
 657 00f0 82000000 		.4byte	0x82
ARM GAS  C:\Users\Luis\AppData\Local\Temp\ccg5cNY0.s 			page 13


 658 00f4 03       		.uleb128 0x3
 659 00f5 73030000 		.4byte	.LASF21
 660 00f9 05       		.byte	0x5
 661 00fa 4D       		.byte	0x4d
 662 00fb 70000000 		.4byte	0x70
 663 00ff 03       		.uleb128 0x3
 664 0100 B2030000 		.4byte	.LASF22
 665 0104 05       		.byte	0x5
 666 0105 4F       		.byte	0x4f
 667 0106 82000000 		.4byte	0x82
 668 010a 03       		.uleb128 0x3
 669 010b C5020000 		.4byte	.LASF23
 670 010f 05       		.byte	0x5
 671 0110 51       		.byte	0x51
 672 0111 70000000 		.4byte	0x70
 673 0115 03       		.uleb128 0x3
 674 0116 7E030000 		.4byte	.LASF24
 675 011a 05       		.byte	0x5
 676 011b 52       		.byte	0x52
 677 011c 82000000 		.4byte	0x82
 678 0120 03       		.uleb128 0x3
 679 0121 71060000 		.4byte	.LASF25
 680 0125 06       		.byte	0x6
 681 0126 33       		.byte	0x33
 682 0127 82000000 		.4byte	0x82
 683 012b 03       		.uleb128 0x3
 684 012c 5C060000 		.4byte	.LASF26
 685 0130 06       		.byte	0x6
 686 0131 3F       		.byte	0x3f
 687 0132 36010000 		.4byte	0x136
 688 0136 06       		.uleb128 0x6
 689 0137 54030000 		.4byte	.LASF49
 690 013b 68       		.byte	0x68
 691 013c 07       		.byte	0x7
 692 013d C2       		.byte	0xc2
 693 013e 49020000 		.4byte	0x249
 694 0142 07       		.uleb128 0x7
 695 0143 70050000 		.4byte	.LASF27
 696 0147 07       		.byte	0x7
 697 0148 C3       		.byte	0xc3
 698 0149 54020000 		.4byte	0x254
 699 014d 00       		.byte	0
 700 014e 07       		.uleb128 0x7
 701 014f E7040000 		.4byte	.LASF28
 702 0153 07       		.byte	0x7
 703 0154 C5       		.byte	0xc5
 704 0155 54020000 		.4byte	0x254
 705 0159 04       		.byte	0x4
 706 015a 07       		.uleb128 0x7
 707 015b 31010000 		.4byte	.LASF29
 708 015f 07       		.byte	0x7
 709 0160 C7       		.byte	0xc7
 710 0161 E9000000 		.4byte	0xe9
 711 0165 08       		.byte	0x8
 712 0166 07       		.uleb128 0x7
 713 0167 67080000 		.4byte	.LASF30
 714 016b 07       		.byte	0x7
ARM GAS  C:\Users\Luis\AppData\Local\Temp\ccg5cNY0.s 			page 14


 715 016c C8       		.byte	0xc8
 716 016d BD040000 		.4byte	0x4bd
 717 0171 0C       		.byte	0xc
 718 0172 07       		.uleb128 0x7
 719 0173 17020000 		.4byte	.LASF31
 720 0177 07       		.byte	0x7
 721 0178 CA       		.byte	0xca
 722 0179 54020000 		.4byte	0x254
 723 017d 10       		.byte	0x10
 724 017e 07       		.uleb128 0x7
 725 017f 53040000 		.4byte	.LASF32
 726 0183 07       		.byte	0x7
 727 0184 CB       		.byte	0xcb
 728 0185 54020000 		.4byte	0x254
 729 0189 14       		.byte	0x14
 730 018a 07       		.uleb128 0x7
 731 018b 17080000 		.4byte	.LASF33
 732 018f 07       		.byte	0x7
 733 0190 D2       		.byte	0xd2
 734 0191 61070000 		.4byte	0x761
 735 0195 18       		.byte	0x18
 736 0196 07       		.uleb128 0x7
 737 0197 D3020000 		.4byte	.LASF34
 738 019b 07       		.byte	0x7
 739 019c D8       		.byte	0xd8
 740 019d 73070000 		.4byte	0x773
 741 01a1 1C       		.byte	0x1c
 742 01a2 07       		.uleb128 0x7
 743 01a3 39050000 		.4byte	.LASF35
 744 01a7 07       		.byte	0x7
 745 01a8 DD       		.byte	0xdd
 746 01a9 D3000000 		.4byte	0xd3
 747 01ad 20       		.byte	0x20
 748 01ae 07       		.uleb128 0x7
 749 01af 3A080000 		.4byte	.LASF36
 750 01b3 07       		.byte	0x7
 751 01b4 E1       		.byte	0xe1
 752 01b5 C8000000 		.4byte	0xc8
 753 01b9 21       		.byte	0x21
 754 01ba 07       		.uleb128 0x7
 755 01bb E7010000 		.4byte	.LASF37
 756 01bf 07       		.byte	0x7
 757 01c0 E6       		.byte	0xe6
 758 01c1 DE000000 		.4byte	0xde
 759 01c5 22       		.byte	0x22
 760 01c6 08       		.uleb128 0x8
 761 01c7 705F7500 		.ascii	"p_u\000"
 762 01cb 07       		.byte	0x7
 763 01cc 3101     		.2byte	0x131
 764 01ce 9C060000 		.4byte	0x69c
 765 01d2 24       		.byte	0x24
 766 01d3 09       		.uleb128 0x9
 767 01d4 6D080000 		.4byte	.LASF38
 768 01d8 07       		.byte	0x7
 769 01d9 3601     		.2byte	0x136
 770 01db 5A020000 		.4byte	0x25a
 771 01df 28       		.byte	0x28
ARM GAS  C:\Users\Luis\AppData\Local\Temp\ccg5cNY0.s 			page 15


 772 01e0 09       		.uleb128 0x9
 773 01e1 A1070000 		.4byte	.LASF39
 774 01e5 07       		.byte	0x7
 775 01e6 3C01     		.2byte	0x13c
 776 01e8 7E020000 		.4byte	0x27e
 777 01ec 2C       		.byte	0x2c
 778 01ed 09       		.uleb128 0x9
 779 01ee 42080000 		.4byte	.LASF40
 780 01f2 07       		.byte	0x7
 781 01f3 4001     		.2byte	0x140
 782 01f5 F4000000 		.4byte	0xf4
 783 01f9 34       		.byte	0x34
 784 01fa 09       		.uleb128 0x9
 785 01fb C2050000 		.4byte	.LASF41
 786 01ff 07       		.byte	0x7
 787 0200 4601     		.2byte	0x146
 788 0202 FF000000 		.4byte	0xff
 789 0206 38       		.byte	0x38
 790 0207 09       		.uleb128 0x9
 791 0208 41050000 		.4byte	.LASF42
 792 020c 07       		.byte	0x7
 793 020d 4D01     		.2byte	0x14d
 794 020f 5B070000 		.4byte	0x75b
 795 0213 3C       		.byte	0x3c
 796 0214 09       		.uleb128 0x9
 797 0215 7B060000 		.4byte	.LASF43
 798 0219 07       		.byte	0x7
 799 021a 5101     		.2byte	0x151
 800 021c E9000000 		.4byte	0xe9
 801 0220 40       		.byte	0x40
 802 0221 09       		.uleb128 0x9
 803 0222 6B010000 		.4byte	.LASF44
 804 0226 07       		.byte	0x7
 805 0227 5801     		.2byte	0x158
 806 0229 31030000 		.4byte	0x331
 807 022d 44       		.byte	0x44
 808 022e 09       		.uleb128 0x9
 809 022f 0F060000 		.4byte	.LASF45
 810 0233 07       		.byte	0x7
 811 0234 5E01     		.2byte	0x15e
 812 0236 4D060000 		.4byte	0x64d
 813 023a 48       		.byte	0x48
 814 023b 09       		.uleb128 0x9
 815 023c 12030000 		.4byte	.LASF46
 816 0240 07       		.byte	0x7
 817 0241 6201     		.2byte	0x162
 818 0243 31030000 		.4byte	0x331
 819 0247 60       		.byte	0x60
 820 0248 00       		.byte	0
 821 0249 03       		.uleb128 0x3
 822 024a 06040000 		.4byte	.LASF47
 823 024e 06       		.byte	0x6
 824 024f 44       		.byte	0x44
 825 0250 54020000 		.4byte	0x254
 826 0254 0A       		.uleb128 0xa
 827 0255 04       		.byte	0x4
 828 0256 2B010000 		.4byte	0x12b
ARM GAS  C:\Users\Luis\AppData\Local\Temp\ccg5cNY0.s 			page 16


 829 025a 03       		.uleb128 0x3
 830 025b 1E080000 		.4byte	.LASF48
 831 025f 06       		.byte	0x6
 832 0260 49       		.byte	0x49
 833 0261 65020000 		.4byte	0x265
 834 0265 06       		.uleb128 0x6
 835 0266 FF050000 		.4byte	.LASF50
 836 026a 04       		.byte	0x4
 837 026b 07       		.byte	0x7
 838 026c B0       		.byte	0xb0
 839 026d 7E020000 		.4byte	0x27e
 840 0271 07       		.uleb128 0x7
 841 0272 70050000 		.4byte	.LASF27
 842 0276 07       		.byte	0x7
 843 0277 B1       		.byte	0xb1
 844 0278 54020000 		.4byte	0x254
 845 027c 00       		.byte	0
 846 027d 00       		.byte	0
 847 027e 03       		.uleb128 0x3
 848 027f CE070000 		.4byte	.LASF51
 849 0283 06       		.byte	0x6
 850 0284 50       		.byte	0x50
 851 0285 89020000 		.4byte	0x289
 852 0289 06       		.uleb128 0x6
 853 028a 20010000 		.4byte	.LASF52
 854 028e 08       		.byte	0x8
 855 028f 07       		.byte	0x7
 856 0290 B7       		.byte	0xb7
 857 0291 AE020000 		.4byte	0x2ae
 858 0295 07       		.uleb128 0x7
 859 0296 70050000 		.4byte	.LASF27
 860 029a 07       		.byte	0x7
 861 029b B8       		.byte	0xb8
 862 029c 54020000 		.4byte	0x254
 863 02a0 00       		.byte	0
 864 02a1 07       		.uleb128 0x7
 865 02a2 E7040000 		.4byte	.LASF28
 866 02a6 07       		.byte	0x7
 867 02a7 B9       		.byte	0xb9
 868 02a8 54020000 		.4byte	0x254
 869 02ac 04       		.byte	0x4
 870 02ad 00       		.byte	0
 871 02ae 03       		.uleb128 0x3
 872 02af 0E000000 		.4byte	.LASF53
 873 02b3 06       		.byte	0x6
 874 02b4 57       		.byte	0x57
 875 02b5 B9020000 		.4byte	0x2b9
 876 02b9 0B       		.uleb128 0xb
 877 02ba A4030000 		.4byte	.LASF54
 878 02be 1C       		.byte	0x1c
 879 02bf 07       		.byte	0x7
 880 02c0 9001     		.2byte	0x190
 881 02c2 15030000 		.4byte	0x315
 882 02c6 09       		.uleb128 0x9
 883 02c7 EE050000 		.4byte	.LASF55
 884 02cb 07       		.byte	0x7
 885 02cc 9101     		.2byte	0x191
ARM GAS  C:\Users\Luis\AppData\Local\Temp\ccg5cNY0.s 			page 17


 886 02ce 7E020000 		.4byte	0x27e
 887 02d2 00       		.byte	0
 888 02d3 09       		.uleb128 0x9
 889 02d4 64050000 		.4byte	.LASF56
 890 02d8 07       		.byte	0x7
 891 02d9 9201     		.2byte	0x192
 892 02db E9000000 		.4byte	0xe9
 893 02df 08       		.byte	0x8
 894 02e0 09       		.uleb128 0x9
 895 02e1 5B040000 		.4byte	.LASF57
 896 02e5 07       		.byte	0x7
 897 02e6 9401     		.2byte	0x194
 898 02e8 BD040000 		.4byte	0x4bd
 899 02ec 0C       		.byte	0xc
 900 02ed 09       		.uleb128 0x9
 901 02ee 2F020000 		.4byte	.LASF58
 902 02f2 07       		.byte	0x7
 903 02f3 9701     		.2byte	0x197
 904 02f5 54020000 		.4byte	0x254
 905 02f9 10       		.byte	0x10
 906 02fa 09       		.uleb128 0x9
 907 02fb 8A040000 		.4byte	.LASF59
 908 02ff 07       		.byte	0x7
 909 0300 9801     		.2byte	0x198
 910 0302 54020000 		.4byte	0x254
 911 0306 14       		.byte	0x14
 912 0307 09       		.uleb128 0x9
 913 0308 80040000 		.4byte	.LASF60
 914 030c 07       		.byte	0x7
 915 030d 9B01     		.2byte	0x19b
 916 030f 54020000 		.4byte	0x254
 917 0313 18       		.byte	0x18
 918 0314 00       		.byte	0
 919 0315 03       		.uleb128 0x3
 920 0316 86060000 		.4byte	.LASF61
 921 031a 06       		.byte	0x6
 922 031b 5C       		.byte	0x5c
 923 031c 20030000 		.4byte	0x320
 924 0320 0A       		.uleb128 0xa
 925 0321 04       		.byte	0x4
 926 0322 26030000 		.4byte	0x326
 927 0326 0C       		.uleb128 0xc
 928 0327 31030000 		.4byte	0x331
 929 032b 0D       		.uleb128 0xd
 930 032c 31030000 		.4byte	0x331
 931 0330 00       		.byte	0
 932 0331 0E       		.uleb128 0xe
 933 0332 04       		.byte	0x4
 934 0333 03       		.uleb128 0x3
 935 0334 D7040000 		.4byte	.LASF62
 936 0338 06       		.byte	0x6
 937 0339 61       		.byte	0x61
 938 033a 3E030000 		.4byte	0x33e
 939 033e 0B       		.uleb128 0xb
 940 033f 95050000 		.4byte	.LASF63
 941 0343 14       		.byte	0x14
 942 0344 07       		.byte	0x7
ARM GAS  C:\Users\Luis\AppData\Local\Temp\ccg5cNY0.s 			page 18


 943 0345 6B01     		.2byte	0x16b
 944 0347 8D030000 		.4byte	0x38d
 945 034b 09       		.uleb128 0x9
 946 034c 0A030000 		.4byte	.LASF64
 947 0350 07       		.byte	0x7
 948 0351 6C01     		.2byte	0x16c
 949 0353 79070000 		.4byte	0x779
 950 0357 00       		.byte	0
 951 0358 09       		.uleb128 0x9
 952 0359 40020000 		.4byte	.LASF65
 953 035d 07       		.byte	0x7
 954 035e 6D01     		.2byte	0x16d
 955 0360 79070000 		.4byte	0x779
 956 0364 04       		.byte	0x4
 957 0365 09       		.uleb128 0x9
 958 0366 F6050000 		.4byte	.LASF66
 959 036a 07       		.byte	0x7
 960 036b 6E01     		.2byte	0x16e
 961 036d 20010000 		.4byte	0x120
 962 0371 08       		.byte	0x8
 963 0372 09       		.uleb128 0x9
 964 0373 30040000 		.4byte	.LASF67
 965 0377 07       		.byte	0x7
 966 0378 6F01     		.2byte	0x16f
 967 037a 15030000 		.4byte	0x315
 968 037e 0C       		.byte	0xc
 969 037f 09       		.uleb128 0x9
 970 0380 AC070000 		.4byte	.LASF68
 971 0384 07       		.byte	0x7
 972 0385 7101     		.2byte	0x171
 973 0387 31030000 		.4byte	0x331
 974 038b 10       		.byte	0x10
 975 038c 00       		.byte	0
 976 038d 03       		.uleb128 0x3
 977 038e F3000000 		.4byte	.LASF69
 978 0392 06       		.byte	0x6
 979 0393 66       		.byte	0x66
 980 0394 98030000 		.4byte	0x398
 981 0398 0B       		.uleb128 0xb
 982 0399 19040000 		.4byte	.LASF70
 983 039d 10       		.byte	0x10
 984 039e 07       		.byte	0x7
 985 039f 7B01     		.2byte	0x17b
 986 03a1 DA030000 		.4byte	0x3da
 987 03a5 09       		.uleb128 0x9
 988 03a6 0A030000 		.4byte	.LASF64
 989 03aa 07       		.byte	0x7
 990 03ab 7C01     		.2byte	0x17c
 991 03ad 79070000 		.4byte	0x779
 992 03b1 00       		.byte	0
 993 03b2 09       		.uleb128 0x9
 994 03b3 40020000 		.4byte	.LASF65
 995 03b7 07       		.byte	0x7
 996 03b8 7E01     		.2byte	0x17e
 997 03ba 79070000 		.4byte	0x779
 998 03be 04       		.byte	0x4
 999 03bf 09       		.uleb128 0x9
ARM GAS  C:\Users\Luis\AppData\Local\Temp\ccg5cNY0.s 			page 19


 1000 03c0 F6050000 		.4byte	.LASF66
 1001 03c4 07       		.byte	0x7
 1002 03c5 8001     		.2byte	0x180
 1003 03c7 20010000 		.4byte	0x120
 1004 03cb 08       		.byte	0x8
 1005 03cc 09       		.uleb128 0x9
 1006 03cd 47040000 		.4byte	.LASF71
 1007 03d1 07       		.byte	0x7
 1008 03d2 8801     		.2byte	0x188
 1009 03d4 20010000 		.4byte	0x120
 1010 03d8 0C       		.byte	0xc
 1011 03d9 00       		.byte	0
 1012 03da 03       		.uleb128 0x3
 1013 03db FB020000 		.4byte	.LASF72
 1014 03df 06       		.byte	0x6
 1015 03e0 6B       		.byte	0x6b
 1016 03e1 E5030000 		.4byte	0x3e5
 1017 03e5 0F       		.uleb128 0xf
 1018 03e6 90020000 		.4byte	.LASF73
 1019 03ea 1404     		.2byte	0x414
 1020 03ec 07       		.byte	0x7
 1021 03ed A201     		.2byte	0x1a2
 1022 03ef 28040000 		.4byte	0x428
 1023 03f3 09       		.uleb128 0x9
 1024 03f4 96060000 		.4byte	.LASF74
 1025 03f8 07       		.byte	0x7
 1026 03f9 AA01     		.2byte	0x1aa
 1027 03fb 7F070000 		.4byte	0x77f
 1028 03ff 00       		.byte	0
 1029 0400 09       		.uleb128 0x9
 1030 0401 E5070000 		.4byte	.LASF75
 1031 0405 07       		.byte	0x7
 1032 0406 AF01     		.2byte	0x1af
 1033 0408 0A010000 		.4byte	0x10a
 1034 040c 04       		.byte	0x4
 1035 040d 09       		.uleb128 0x9
 1036 040e B4020000 		.4byte	.LASF76
 1037 0412 07       		.byte	0x7
 1038 0413 B301     		.2byte	0x1b3
 1039 0415 0A010000 		.4byte	0x10a
 1040 0419 08       		.byte	0x8
 1041 041a 09       		.uleb128 0x9
 1042 041b 2D080000 		.4byte	.LASF77
 1043 041f 07       		.byte	0x7
 1044 0420 B901     		.2byte	0x1b9
 1045 0422 DF050000 		.4byte	0x5df
 1046 0426 0C       		.byte	0xc
 1047 0427 00       		.byte	0
 1048 0428 03       		.uleb128 0x3
 1049 0429 85030000 		.4byte	.LASF78
 1050 042d 06       		.byte	0x6
 1051 042e 70       		.byte	0x70
 1052 042f 33040000 		.4byte	0x433
 1053 0433 0F       		.uleb128 0xf
 1054 0434 97010000 		.4byte	.LASF79
 1055 0438 E805     		.2byte	0x5e8
 1056 043a 07       		.byte	0x7
ARM GAS  C:\Users\Luis\AppData\Local\Temp\ccg5cNY0.s 			page 20


 1057 043b C201     		.2byte	0x1c2
 1058 043d A0040000 		.4byte	0x4a0
 1059 0441 09       		.uleb128 0x9
 1060 0442 ED070000 		.4byte	.LASF80
 1061 0446 07       		.byte	0x7
 1062 0447 C601     		.2byte	0x1c6
 1063 0449 AE020000 		.4byte	0x2ae
 1064 044d 00       		.byte	0
 1065 044e 09       		.uleb128 0x9
 1066 044f 68000000 		.4byte	.LASF81
 1067 0453 07       		.byte	0x7
 1068 0454 CA01     		.2byte	0x1ca
 1069 0456 8D030000 		.4byte	0x38d
 1070 045a 1C       		.byte	0x1c
 1071 045b 08       		.uleb128 0x8
 1072 045c 64626700 		.ascii	"dbg\000"
 1073 0460 07       		.byte	0x7
 1074 0461 CE01     		.2byte	0x1ce
 1075 0463 DA030000 		.4byte	0x3da
 1076 0467 2C       		.byte	0x2c
 1077 0468 10       		.uleb128 0x10
 1078 0469 DB000000 		.4byte	.LASF82
 1079 046d 07       		.byte	0x7
 1080 046e D201     		.2byte	0x1d2
 1081 0470 2B010000 		.4byte	0x12b
 1082 0474 4004     		.2byte	0x440
 1083 0476 11       		.uleb128 0x11
 1084 0477 746D00   		.ascii	"tm\000"
 1085 047a 07       		.byte	0x7
 1086 047b D701     		.2byte	0x1d7
 1087 047d FF050000 		.4byte	0x5ff
 1088 0481 A804     		.2byte	0x4a8
 1089 0483 10       		.uleb128 0x10
 1090 0484 3C000000 		.4byte	.LASF83
 1091 0488 07       		.byte	0x7
 1092 0489 DD01     		.2byte	0x1dd
 1093 048b 91060000 		.4byte	0x691
 1094 048f B004     		.2byte	0x4b0
 1095 0491 10       		.uleb128 0x10
 1096 0492 74000000 		.4byte	.LASF84
 1097 0496 07       		.byte	0x7
 1098 0497 E301     		.2byte	0x1e3
 1099 0499 84070000 		.4byte	0x784
 1100 049d E804     		.2byte	0x4e8
 1101 049f 00       		.byte	0
 1102 04a0 04       		.uleb128 0x4
 1103 04a1 04       		.byte	0x4
 1104 04a2 07       		.byte	0x7
 1105 04a3 EB020000 		.4byte	.LASF85
 1106 04a7 03       		.uleb128 0x3
 1107 04a8 37020000 		.4byte	.LASF86
 1108 04ac 08       		.byte	0x8
 1109 04ad 65       		.byte	0x65
 1110 04ae 31030000 		.4byte	0x331
 1111 04b2 03       		.uleb128 0x3
 1112 04b3 D2030000 		.4byte	.LASF87
 1113 04b7 08       		.byte	0x8
ARM GAS  C:\Users\Luis\AppData\Local\Temp\ccg5cNY0.s 			page 21


 1114 04b8 6D       		.byte	0x6d
 1115 04b9 9B000000 		.4byte	0x9b
 1116 04bd 06       		.uleb128 0x6
 1117 04be B2060000 		.4byte	.LASF88
 1118 04c2 04       		.byte	0x4
 1119 04c3 08       		.byte	0x8
 1120 04c4 89       		.byte	0x89
 1121 04c5 D6040000 		.4byte	0x4d6
 1122 04c9 12       		.uleb128 0x12
 1123 04ca 72313300 		.ascii	"r13\000"
 1124 04ce 08       		.byte	0x8
 1125 04cf 8A       		.byte	0x8a
 1126 04d0 51050000 		.4byte	0x551
 1127 04d4 00       		.byte	0
 1128 04d5 00       		.byte	0
 1129 04d6 06       		.uleb128 0x6
 1130 04d7 5C000000 		.4byte	.LASF89
 1131 04db 24       		.byte	0x24
 1132 04dc 09       		.byte	0x9
 1133 04dd F4       		.byte	0xf4
 1134 04de 51050000 		.4byte	0x551
 1135 04e2 08       		.uleb128 0x8
 1136 04e3 723400   		.ascii	"r4\000"
 1137 04e6 09       		.byte	0x9
 1138 04e7 0701     		.2byte	0x107
 1139 04e9 A7040000 		.4byte	0x4a7
 1140 04ed 00       		.byte	0
 1141 04ee 08       		.uleb128 0x8
 1142 04ef 723500   		.ascii	"r5\000"
 1143 04f2 09       		.byte	0x9
 1144 04f3 0801     		.2byte	0x108
 1145 04f5 A7040000 		.4byte	0x4a7
 1146 04f9 04       		.byte	0x4
 1147 04fa 08       		.uleb128 0x8
 1148 04fb 723600   		.ascii	"r6\000"
 1149 04fe 09       		.byte	0x9
 1150 04ff 0901     		.2byte	0x109
 1151 0501 A7040000 		.4byte	0x4a7
 1152 0505 08       		.byte	0x8
 1153 0506 08       		.uleb128 0x8
 1154 0507 723700   		.ascii	"r7\000"
 1155 050a 09       		.byte	0x9
 1156 050b 0A01     		.2byte	0x10a
 1157 050d A7040000 		.4byte	0x4a7
 1158 0511 0C       		.byte	0xc
 1159 0512 08       		.uleb128 0x8
 1160 0513 723800   		.ascii	"r8\000"
 1161 0516 09       		.byte	0x9
 1162 0517 0B01     		.2byte	0x10b
 1163 0519 A7040000 		.4byte	0x4a7
 1164 051d 10       		.byte	0x10
 1165 051e 08       		.uleb128 0x8
 1166 051f 723900   		.ascii	"r9\000"
 1167 0522 09       		.byte	0x9
 1168 0523 0C01     		.2byte	0x10c
 1169 0525 A7040000 		.4byte	0x4a7
 1170 0529 14       		.byte	0x14
ARM GAS  C:\Users\Luis\AppData\Local\Temp\ccg5cNY0.s 			page 22


 1171 052a 08       		.uleb128 0x8
 1172 052b 72313000 		.ascii	"r10\000"
 1173 052f 09       		.byte	0x9
 1174 0530 0D01     		.2byte	0x10d
 1175 0532 A7040000 		.4byte	0x4a7
 1176 0536 18       		.byte	0x18
 1177 0537 08       		.uleb128 0x8
 1178 0538 72313100 		.ascii	"r11\000"
 1179 053c 09       		.byte	0x9
 1180 053d 0E01     		.2byte	0x10e
 1181 053f A7040000 		.4byte	0x4a7
 1182 0543 1C       		.byte	0x1c
 1183 0544 08       		.uleb128 0x8
 1184 0545 6C7200   		.ascii	"lr\000"
 1185 0548 09       		.byte	0x9
 1186 0549 0F01     		.2byte	0x10f
 1187 054b A7040000 		.4byte	0x4a7
 1188 054f 20       		.byte	0x20
 1189 0550 00       		.byte	0
 1190 0551 0A       		.uleb128 0xa
 1191 0552 04       		.byte	0x4
 1192 0553 D6040000 		.4byte	0x4d6
 1193 0557 13       		.uleb128 0x13
 1194 0558 10       		.byte	0x10
 1195 0559 0A       		.byte	0xa
 1196 055a 51       		.byte	0x51
 1197 055b 90050000 		.4byte	0x590
 1198 055f 07       		.uleb128 0x7
 1199 0560 BD020000 		.4byte	.LASF90
 1200 0564 0A       		.byte	0xa
 1201 0565 55       		.byte	0x55
 1202 0566 20010000 		.4byte	0x120
 1203 056a 00       		.byte	0
 1204 056b 07       		.uleb128 0x7
 1205 056c EE010000 		.4byte	.LASF91
 1206 0570 0A       		.byte	0xa
 1207 0571 59       		.byte	0x59
 1208 0572 54020000 		.4byte	0x254
 1209 0576 04       		.byte	0x4
 1210 0577 07       		.uleb128 0x7
 1211 0578 5D080000 		.4byte	.LASF92
 1212 057c 0A       		.byte	0xa
 1213 057d 5D       		.byte	0x5d
 1214 057e 31030000 		.4byte	0x331
 1215 0582 08       		.byte	0x8
 1216 0583 07       		.uleb128 0x7
 1217 0584 BA000000 		.4byte	.LASF93
 1218 0588 0A       		.byte	0xa
 1219 0589 61       		.byte	0x61
 1220 058a 45000000 		.4byte	0x45
 1221 058e 0C       		.byte	0xc
 1222 058f 00       		.byte	0
 1223 0590 03       		.uleb128 0x3
 1224 0591 38040000 		.4byte	.LASF94
 1225 0595 0A       		.byte	0xa
 1226 0596 62       		.byte	0x62
 1227 0597 57050000 		.4byte	0x557
ARM GAS  C:\Users\Luis\AppData\Local\Temp\ccg5cNY0.s 			page 23


 1228 059b 14       		.uleb128 0x14
 1229 059c 0804     		.2byte	0x408
 1230 059e 0A       		.byte	0xa
 1231 059f 67       		.byte	0x67
 1232 05a0 C9050000 		.4byte	0x5c9
 1233 05a4 07       		.uleb128 0x7
 1234 05a5 27020000 		.4byte	.LASF95
 1235 05a9 0A       		.byte	0xa
 1236 05aa 6B       		.byte	0x6b
 1237 05ab 37000000 		.4byte	0x37
 1238 05af 00       		.byte	0
 1239 05b0 07       		.uleb128 0x7
 1240 05b1 F2030000 		.4byte	.LASF96
 1241 05b5 0A       		.byte	0xa
 1242 05b6 6F       		.byte	0x6f
 1243 05b7 C9050000 		.4byte	0x5c9
 1244 05bb 04       		.byte	0x4
 1245 05bc 07       		.uleb128 0x7
 1246 05bd C1040000 		.4byte	.LASF97
 1247 05c1 0A       		.byte	0xa
 1248 05c2 73       		.byte	0x73
 1249 05c3 CF050000 		.4byte	0x5cf
 1250 05c7 08       		.byte	0x8
 1251 05c8 00       		.byte	0
 1252 05c9 0A       		.uleb128 0xa
 1253 05ca 04       		.byte	0x4
 1254 05cb 90050000 		.4byte	0x590
 1255 05cf 15       		.uleb128 0x15
 1256 05d0 90050000 		.4byte	0x590
 1257 05d4 DF050000 		.4byte	0x5df
 1258 05d8 16       		.uleb128 0x16
 1259 05d9 A0040000 		.4byte	0x4a0
 1260 05dd 3F       		.byte	0x3f
 1261 05de 00       		.byte	0
 1262 05df 03       		.uleb128 0x3
 1263 05e0 1A050000 		.4byte	.LASF98
 1264 05e4 0A       		.byte	0xa
 1265 05e5 74       		.byte	0x74
 1266 05e6 9B050000 		.4byte	0x59b
 1267 05ea 13       		.uleb128 0x13
 1268 05eb 04       		.byte	0x4
 1269 05ec 0B       		.byte	0xb
 1270 05ed 38       		.byte	0x38
 1271 05ee FF050000 		.4byte	0x5ff
 1272 05f2 07       		.uleb128 0x7
 1273 05f3 A0060000 		.4byte	.LASF99
 1274 05f7 0B       		.byte	0xb
 1275 05f8 3C       		.byte	0x3c
 1276 05f9 B2000000 		.4byte	0xb2
 1277 05fd 00       		.byte	0
 1278 05fe 00       		.byte	0
 1279 05ff 03       		.uleb128 0x3
 1280 0600 61040000 		.4byte	.LASF100
 1281 0604 0B       		.byte	0xb
 1282 0605 3D       		.byte	0x3d
 1283 0606 EA050000 		.4byte	0x5ea
 1284 060a 13       		.uleb128 0x13
ARM GAS  C:\Users\Luis\AppData\Local\Temp\ccg5cNY0.s 			page 24


 1285 060b 18       		.byte	0x18
 1286 060c 0B       		.byte	0xb
 1287 060d 48       		.byte	0x48
 1288 060e 4D060000 		.4byte	0x64d
 1289 0612 07       		.uleb128 0x7
 1290 0613 65060000 		.4byte	.LASF101
 1291 0617 0B       		.byte	0xb
 1292 0618 49       		.byte	0x49
 1293 0619 B2000000 		.4byte	0xb2
 1294 061d 00       		.byte	0
 1295 061e 07       		.uleb128 0x7
 1296 061f 83000000 		.4byte	.LASF102
 1297 0623 0B       		.byte	0xb
 1298 0624 4A       		.byte	0x4a
 1299 0625 B2000000 		.4byte	0xb2
 1300 0629 04       		.byte	0x4
 1301 062a 07       		.uleb128 0x7
 1302 062b 79030000 		.4byte	.LASF103
 1303 062f 0B       		.byte	0xb
 1304 0630 4B       		.byte	0x4b
 1305 0631 B2000000 		.4byte	0xb2
 1306 0635 08       		.byte	0x8
 1307 0636 12       		.uleb128 0x12
 1308 0637 6E00     		.ascii	"n\000"
 1309 0639 0B       		.byte	0xb
 1310 063a 4C       		.byte	0x4c
 1311 063b 15010000 		.4byte	0x115
 1312 063f 0C       		.byte	0xc
 1313 0640 07       		.uleb128 0x7
 1314 0641 9E040000 		.4byte	.LASF104
 1315 0645 0B       		.byte	0xb
 1316 0646 4D       		.byte	0x4d
 1317 0647 BD000000 		.4byte	0xbd
 1318 064b 10       		.byte	0x10
 1319 064c 00       		.byte	0
 1320 064d 03       		.uleb128 0x3
 1321 064e 89000000 		.4byte	.LASF105
 1322 0652 0B       		.byte	0xb
 1323 0653 4E       		.byte	0x4e
 1324 0654 0A060000 		.4byte	0x60a
 1325 0658 13       		.uleb128 0x13
 1326 0659 38       		.byte	0x38
 1327 065a 0C       		.byte	0xc
 1328 065b 38       		.byte	0x38
 1329 065c 91060000 		.4byte	0x691
 1330 0660 07       		.uleb128 0x7
 1331 0661 19030000 		.4byte	.LASF106
 1332 0665 0C       		.byte	0xc
 1333 0666 39       		.byte	0x39
 1334 0667 15010000 		.4byte	0x115
 1335 066b 00       		.byte	0
 1336 066c 07       		.uleb128 0x7
 1337 066d 03050000 		.4byte	.LASF107
 1338 0671 0C       		.byte	0xc
 1339 0672 3A       		.byte	0x3a
 1340 0673 15010000 		.4byte	0x115
 1341 0677 04       		.byte	0x4
ARM GAS  C:\Users\Luis\AppData\Local\Temp\ccg5cNY0.s 			page 25


 1342 0678 07       		.uleb128 0x7
 1343 0679 48080000 		.4byte	.LASF108
 1344 067d 0C       		.byte	0xc
 1345 067e 3B       		.byte	0x3b
 1346 067f 4D060000 		.4byte	0x64d
 1347 0683 08       		.byte	0x8
 1348 0684 07       		.uleb128 0x7
 1349 0685 99030000 		.4byte	.LASF109
 1350 0689 0C       		.byte	0xc
 1351 068a 3D       		.byte	0x3d
 1352 068b 4D060000 		.4byte	0x64d
 1353 068f 20       		.byte	0x20
 1354 0690 00       		.byte	0
 1355 0691 03       		.uleb128 0x3
 1356 0692 45030000 		.4byte	.LASF110
 1357 0696 0C       		.byte	0xc
 1358 0697 3F       		.byte	0x3f
 1359 0698 58060000 		.4byte	0x658
 1360 069c 17       		.uleb128 0x17
 1361 069d 04       		.byte	0x4
 1362 069e 07       		.byte	0x7
 1363 069f FA       		.byte	0xfa
 1364 06a0 F9060000 		.4byte	0x6f9
 1365 06a4 18       		.uleb128 0x18
 1366 06a5 2C000000 		.4byte	.LASF111
 1367 06a9 07       		.byte	0x7
 1368 06aa 0101     		.2byte	0x101
 1369 06ac F4000000 		.4byte	0xf4
 1370 06b0 18       		.uleb128 0x18
 1371 06b1 C3000000 		.4byte	.LASF112
 1372 06b5 07       		.byte	0x7
 1373 06b6 0801     		.2byte	0x108
 1374 06b8 F4000000 		.4byte	0xf4
 1375 06bc 18       		.uleb128 0x18
 1376 06bd 7B010000 		.4byte	.LASF113
 1377 06c1 07       		.byte	0x7
 1378 06c2 0F01     		.2byte	0x10f
 1379 06c4 31030000 		.4byte	0x331
 1380 06c8 18       		.uleb128 0x18
 1381 06c9 91010000 		.4byte	.LASF114
 1382 06cd 07       		.byte	0x7
 1383 06ce 1601     		.2byte	0x116
 1384 06d0 F9060000 		.4byte	0x6f9
 1385 06d4 18       		.uleb128 0x18
 1386 06d5 F4020000 		.4byte	.LASF115
 1387 06d9 07       		.byte	0x7
 1388 06da 1E01     		.2byte	0x11e
 1389 06dc 24070000 		.4byte	0x724
 1390 06e0 18       		.uleb128 0x18
 1391 06e1 E7050000 		.4byte	.LASF116
 1392 06e5 07       		.byte	0x7
 1393 06e6 2701     		.2byte	0x127
 1394 06e8 5B070000 		.4byte	0x75b
 1395 06ec 18       		.uleb128 0x18
 1396 06ed 52010000 		.4byte	.LASF117
 1397 06f1 07       		.byte	0x7
 1398 06f2 2F01     		.2byte	0x12f
ARM GAS  C:\Users\Luis\AppData\Local\Temp\ccg5cNY0.s 			page 26


 1399 06f4 FF000000 		.4byte	0xff
 1400 06f8 00       		.byte	0
 1401 06f9 0A       		.uleb128 0xa
 1402 06fa 04       		.byte	0x4
 1403 06fb 49020000 		.4byte	0x249
 1404 06ff 06       		.uleb128 0x6
 1405 0700 B5050000 		.4byte	.LASF118
 1406 0704 0C       		.byte	0xc
 1407 0705 0D       		.byte	0xd
 1408 0706 34       		.byte	0x34
 1409 0707 24070000 		.4byte	0x724
 1410 070b 07       		.uleb128 0x7
 1411 070c 1F020000 		.4byte	.LASF119
 1412 0710 0D       		.byte	0xd
 1413 0711 35       		.byte	0x35
 1414 0712 7E020000 		.4byte	0x27e
 1415 0716 00       		.byte	0
 1416 0717 07       		.uleb128 0x7
 1417 0718 2C030000 		.4byte	.LASF120
 1418 071c 0D       		.byte	0xd
 1419 071d 37       		.byte	0x37
 1420 071e 0A010000 		.4byte	0x10a
 1421 0722 08       		.byte	0x8
 1422 0723 00       		.byte	0
 1423 0724 0A       		.uleb128 0xa
 1424 0725 04       		.byte	0x4
 1425 0726 FF060000 		.4byte	0x6ff
 1426 072a 06       		.uleb128 0x6
 1427 072b 0E080000 		.4byte	.LASF121
 1428 072f 10       		.byte	0x10
 1429 0730 0E       		.byte	0xe
 1430 0731 39       		.byte	0x39
 1431 0732 5B070000 		.4byte	0x75b
 1432 0736 07       		.uleb128 0x7
 1433 0737 73010000 		.4byte	.LASF122
 1434 073b 0E       		.byte	0xe
 1435 073c 3A       		.byte	0x3a
 1436 073d 7E020000 		.4byte	0x27e
 1437 0741 00       		.byte	0
 1438 0742 07       		.uleb128 0x7
 1439 0743 F3070000 		.4byte	.LASF123
 1440 0747 0E       		.byte	0xe
 1441 0748 3C       		.byte	0x3c
 1442 0749 54020000 		.4byte	0x254
 1443 074d 08       		.byte	0x8
 1444 074e 07       		.uleb128 0x7
 1445 074f 6A060000 		.4byte	.LASF124
 1446 0753 0E       		.byte	0xe
 1447 0754 3E       		.byte	0x3e
 1448 0755 9F070000 		.4byte	0x79f
 1449 0759 0C       		.byte	0xc
 1450 075a 00       		.byte	0
 1451 075b 0A       		.uleb128 0xa
 1452 075c 04       		.byte	0x4
 1453 075d 2A070000 		.4byte	0x72a
 1454 0761 0A       		.uleb128 0xa
 1455 0762 04       		.byte	0x4
ARM GAS  C:\Users\Luis\AppData\Local\Temp\ccg5cNY0.s 			page 27


 1456 0763 67070000 		.4byte	0x767
 1457 0767 19       		.uleb128 0x19
 1458 0768 6C070000 		.4byte	0x76c
 1459 076c 04       		.uleb128 0x4
 1460 076d 01       		.byte	0x1
 1461 076e 08       		.byte	0x8
 1462 076f 2A060000 		.4byte	.LASF125
 1463 0773 0A       		.uleb128 0xa
 1464 0774 04       		.byte	0x4
 1465 0775 B2040000 		.4byte	0x4b2
 1466 0779 0A       		.uleb128 0xa
 1467 077a 04       		.byte	0x4
 1468 077b 33030000 		.4byte	0x333
 1469 077f 05       		.uleb128 0x5
 1470 0780 61070000 		.4byte	0x761
 1471 0784 15       		.uleb128 0x15
 1472 0785 B2040000 		.4byte	0x4b2
 1473 0789 94070000 		.4byte	0x794
 1474 078d 16       		.uleb128 0x16
 1475 078e A0040000 		.4byte	0x4a0
 1476 0792 1F       		.byte	0x1f
 1477 0793 00       		.byte	0
 1478 0794 03       		.uleb128 0x3
 1479 0795 A0020000 		.4byte	.LASF126
 1480 0799 0E       		.byte	0xe
 1481 079a 34       		.byte	0x34
 1482 079b 2A070000 		.4byte	0x72a
 1483 079f 0A       		.uleb128 0xa
 1484 07a0 04       		.byte	0x4
 1485 07a1 94070000 		.4byte	0x794
 1486 07a5 04       		.uleb128 0x4
 1487 07a6 01       		.byte	0x1
 1488 07a7 02       		.byte	0x2
 1489 07a8 0C050000 		.4byte	.LASF127
 1490 07ac 03       		.uleb128 0x3
 1491 07ad F9030000 		.4byte	.LASF128
 1492 07b1 0F       		.byte	0xf
 1493 07b2 38       		.byte	0x38
 1494 07b3 45000000 		.4byte	0x45
 1495 07b7 03       		.uleb128 0x3
 1496 07b8 B3070000 		.4byte	.LASF129
 1497 07bc 0F       		.byte	0xf
 1498 07bd 3A       		.byte	0x3a
 1499 07be 5E000000 		.4byte	0x5e
 1500 07c2 03       		.uleb128 0x3
 1501 07c3 B9070000 		.4byte	.LASF130
 1502 07c7 0F       		.byte	0xf
 1503 07c8 3E       		.byte	0x3e
 1504 07c9 82000000 		.4byte	0x82
 1505 07cd 1A       		.uleb128 0x1a
 1506 07ce 01       		.byte	0x1
 1507 07cf 10       		.byte	0x10
 1508 07d0 2B       		.byte	0x2b
 1509 07d1 30080000 		.4byte	0x830
 1510 07d5 1B       		.uleb128 0x1b
 1511 07d6 AA010000 		.4byte	.LASF131
 1512 07da 00       		.sleb128 0
ARM GAS  C:\Users\Luis\AppData\Local\Temp\ccg5cNY0.s 			page 28


 1513 07db 1B       		.uleb128 0x1b
 1514 07dc 0A020000 		.4byte	.LASF132
 1515 07e0 01       		.sleb128 1
 1516 07e1 1B       		.uleb128 0x1b
 1517 07e2 1F030000 		.4byte	.LASF133
 1518 07e6 02       		.sleb128 2
 1519 07e7 1B       		.uleb128 0x1b
 1520 07e8 3B060000 		.4byte	.LASF134
 1521 07ec 03       		.sleb128 3
 1522 07ed 1B       		.uleb128 0x1b
 1523 07ee E6000000 		.4byte	.LASF135
 1524 07f2 04       		.sleb128 4
 1525 07f3 1B       		.uleb128 0x1b
 1526 07f4 82010000 		.4byte	.LASF136
 1527 07f8 05       		.sleb128 5
 1528 07f9 1B       		.uleb128 0x1b
 1529 07fa A6050000 		.4byte	.LASF137
 1530 07fe 06       		.sleb128 6
 1531 07ff 1B       		.uleb128 0x1b
 1532 0800 2F060000 		.4byte	.LASF138
 1533 0804 07       		.sleb128 7
 1534 0805 1B       		.uleb128 0x1b
 1535 0806 4F060000 		.4byte	.LASF139
 1536 080a 08       		.sleb128 8
 1537 080b 1B       		.uleb128 0x1b
 1538 080c 17060000 		.4byte	.LASF140
 1539 0810 09       		.sleb128 9
 1540 0811 1B       		.uleb128 0x1b
 1541 0812 5E030000 		.4byte	.LASF141
 1542 0816 0A       		.sleb128 10
 1543 0817 1B       		.uleb128 0x1b
 1544 0818 CD050000 		.4byte	.LASF142
 1545 081c 0B       		.sleb128 11
 1546 081d 1B       		.uleb128 0x1b
 1547 081e 53080000 		.4byte	.LASF143
 1548 0822 0C       		.sleb128 12
 1549 0823 1B       		.uleb128 0x1b
 1550 0824 CC000000 		.4byte	.LASF144
 1551 0828 0D       		.sleb128 13
 1552 0829 1B       		.uleb128 0x1b
 1553 082a E9030000 		.4byte	.LASF145
 1554 082e 0E       		.sleb128 14
 1555 082f 00       		.byte	0
 1556 0830 03       		.uleb128 0x3
 1557 0831 EE040000 		.4byte	.LASF146
 1558 0835 10       		.byte	0x10
 1559 0836 2F       		.byte	0x2f
 1560 0837 CD070000 		.4byte	0x7cd
 1561 083b 03       		.uleb128 0x3
 1562 083c C3070000 		.4byte	.LASF147
 1563 0840 11       		.byte	0x11
 1564 0841 4C       		.byte	0x4c
 1565 0842 B7070000 		.4byte	0x7b7
 1566 0846 06       		.uleb128 0x6
 1567 0847 82050000 		.4byte	.LASF148
 1568 084b 18       		.byte	0x18
 1569 084c 12       		.byte	0x12
ARM GAS  C:\Users\Luis\AppData\Local\Temp\ccg5cNY0.s 			page 29


 1570 084d 3A       		.byte	0x3a
 1571 084e E2080000 		.4byte	0x8e2
 1572 0852 07       		.uleb128 0x7
 1573 0853 03080000 		.4byte	.LASF149
 1574 0857 12       		.byte	0x12
 1575 0858 3B       		.byte	0x3b
 1576 0859 B7070000 		.4byte	0x7b7
 1577 085d 00       		.byte	0
 1578 085e 07       		.uleb128 0x7
 1579 085f F4010000 		.4byte	.LASF150
 1580 0863 12       		.byte	0x12
 1581 0864 3C       		.byte	0x3c
 1582 0865 B7070000 		.4byte	0x7b7
 1583 0869 02       		.byte	0x2
 1584 086a 12       		.uleb128 0x12
 1585 086b 667700   		.ascii	"fw\000"
 1586 086e 12       		.byte	0x12
 1587 086f 3D       		.byte	0x3d
 1588 0870 B7070000 		.4byte	0x7b7
 1589 0874 04       		.byte	0x4
 1590 0875 07       		.uleb128 0x7
 1591 0876 6B050000 		.4byte	.LASF151
 1592 087a 12       		.byte	0x12
 1593 087b 3E       		.byte	0x3e
 1594 087c B7070000 		.4byte	0x7b7
 1595 0880 06       		.byte	0x6
 1596 0881 07       		.uleb128 0x7
 1597 0882 9C000000 		.4byte	.LASF152
 1598 0886 12       		.byte	0x12
 1599 0887 3F       		.byte	0x3f
 1600 0888 B7070000 		.4byte	0x7b7
 1601 088c 08       		.byte	0x8
 1602 088d 07       		.uleb128 0x7
 1603 088e DE070000 		.4byte	.LASF153
 1604 0892 12       		.byte	0x12
 1605 0893 40       		.byte	0x40
 1606 0894 B7070000 		.4byte	0x7b7
 1607 0898 0A       		.byte	0xa
 1608 0899 07       		.uleb128 0x7
 1609 089a 4B050000 		.4byte	.LASF154
 1610 089e 12       		.byte	0x12
 1611 089f 41       		.byte	0x41
 1612 08a0 B7070000 		.4byte	0x7b7
 1613 08a4 0C       		.byte	0xc
 1614 08a5 07       		.uleb128 0x7
 1615 08a6 B3040000 		.4byte	.LASF155
 1616 08aa 12       		.byte	0x12
 1617 08ab 42       		.byte	0x42
 1618 08ac B7070000 		.4byte	0x7b7
 1619 08b0 0E       		.byte	0xe
 1620 08b1 07       		.uleb128 0x7
 1621 08b2 CB020000 		.4byte	.LASF156
 1622 08b6 12       		.byte	0x12
 1623 08b7 43       		.byte	0x43
 1624 08b8 B7070000 		.4byte	0x7b7
 1625 08bc 10       		.byte	0x10
 1626 08bd 07       		.uleb128 0x7
ARM GAS  C:\Users\Luis\AppData\Local\Temp\ccg5cNY0.s 			page 30


 1627 08be 8F060000 		.4byte	.LASF157
 1628 08c2 12       		.byte	0x12
 1629 08c3 44       		.byte	0x44
 1630 08c4 B7070000 		.4byte	0x7b7
 1631 08c8 12       		.byte	0x12
 1632 08c9 12       		.uleb128 0x12
 1633 08ca 65727200 		.ascii	"err\000"
 1634 08ce 12       		.byte	0x12
 1635 08cf 45       		.byte	0x45
 1636 08d0 B7070000 		.4byte	0x7b7
 1637 08d4 14       		.byte	0x14
 1638 08d5 07       		.uleb128 0x7
 1639 08d6 09010000 		.4byte	.LASF158
 1640 08da 12       		.byte	0x12
 1641 08db 46       		.byte	0x46
 1642 08dc B7070000 		.4byte	0x7b7
 1643 08e0 16       		.byte	0x16
 1644 08e1 00       		.byte	0
 1645 08e2 06       		.uleb128 0x6
 1646 08e3 1B000000 		.4byte	.LASF159
 1647 08e7 0A       		.byte	0xa
 1648 08e8 12       		.byte	0x12
 1649 08e9 5A       		.byte	0x5a
 1650 08ea 2B090000 		.4byte	0x92b
 1651 08ee 07       		.uleb128 0x7
 1652 08ef 08080000 		.4byte	.LASF160
 1653 08f3 12       		.byte	0x12
 1654 08f4 5E       		.byte	0x5e
 1655 08f5 3B080000 		.4byte	0x83b
 1656 08f9 00       		.byte	0
 1657 08fa 07       		.uleb128 0x7
 1658 08fb A9040000 		.4byte	.LASF161
 1659 08ff 12       		.byte	0x12
 1660 0900 5F       		.byte	0x5f
 1661 0901 3B080000 		.4byte	0x83b
 1662 0905 02       		.byte	0x2
 1663 0906 12       		.uleb128 0x12
 1664 0907 6D617800 		.ascii	"max\000"
 1665 090b 12       		.byte	0x12
 1666 090c 60       		.byte	0x60
 1667 090d 3B080000 		.4byte	0x83b
 1668 0911 04       		.byte	0x4
 1669 0912 12       		.uleb128 0x12
 1670 0913 65727200 		.ascii	"err\000"
 1671 0917 12       		.byte	0x12
 1672 0918 61       		.byte	0x61
 1673 0919 B7070000 		.4byte	0x7b7
 1674 091d 06       		.byte	0x6
 1675 091e 07       		.uleb128 0x7
 1676 091f 02020000 		.4byte	.LASF162
 1677 0923 12       		.byte	0x12
 1678 0924 62       		.byte	0x62
 1679 0925 B7070000 		.4byte	0x7b7
 1680 0929 08       		.byte	0x8
 1681 092a 00       		.byte	0
 1682 092b 06       		.uleb128 0x6
 1683 092c 72040000 		.4byte	.LASF163
ARM GAS  C:\Users\Luis\AppData\Local\Temp\ccg5cNY0.s 			page 31


 1684 0930 06       		.byte	0x6
 1685 0931 12       		.byte	0x12
 1686 0932 65       		.byte	0x65
 1687 0933 5C090000 		.4byte	0x95c
 1688 0937 07       		.uleb128 0x7
 1689 0938 A9040000 		.4byte	.LASF161
 1690 093c 12       		.byte	0x12
 1691 093d 66       		.byte	0x66
 1692 093e B7070000 		.4byte	0x7b7
 1693 0942 00       		.byte	0
 1694 0943 12       		.uleb128 0x12
 1695 0944 6D617800 		.ascii	"max\000"
 1696 0948 12       		.byte	0x12
 1697 0949 67       		.byte	0x67
 1698 094a B7070000 		.4byte	0x7b7
 1699 094e 02       		.byte	0x2
 1700 094f 12       		.uleb128 0x12
 1701 0950 65727200 		.ascii	"err\000"
 1702 0954 12       		.byte	0x12
 1703 0955 68       		.byte	0x68
 1704 0956 B7070000 		.4byte	0x7b7
 1705 095a 04       		.byte	0x4
 1706 095b 00       		.byte	0
 1707 095c 06       		.uleb128 0x6
 1708 095d C8030000 		.4byte	.LASF164
 1709 0961 12       		.byte	0x12
 1710 0962 12       		.byte	0x12
 1711 0963 6B       		.byte	0x6b
 1712 0964 8D090000 		.4byte	0x98d
 1713 0968 12       		.uleb128 0x12
 1714 0969 73656D00 		.ascii	"sem\000"
 1715 096d 12       		.byte	0x12
 1716 096e 6C       		.byte	0x6c
 1717 096f 2B090000 		.4byte	0x92b
 1718 0973 00       		.byte	0
 1719 0974 07       		.uleb128 0x7
 1720 0975 FD040000 		.4byte	.LASF165
 1721 0979 12       		.byte	0x12
 1722 097a 6D       		.byte	0x6d
 1723 097b 2B090000 		.4byte	0x92b
 1724 097f 06       		.byte	0x6
 1725 0980 07       		.uleb128 0x7
 1726 0981 AE040000 		.4byte	.LASF166
 1727 0985 12       		.byte	0x12
 1728 0986 6E       		.byte	0x6e
 1729 0987 2B090000 		.4byte	0x92b
 1730 098b 0C       		.byte	0xc
 1731 098c 00       		.byte	0
 1732 098d 1C       		.uleb128 0x1c
 1733 098e 92040000 		.4byte	.LASF167
 1734 0992 5001     		.2byte	0x150
 1735 0994 12       		.byte	0x12
 1736 0995 71       		.byte	0x71
 1737 0996 130A0000 		.4byte	0xa13
 1738 099a 07       		.uleb128 0x7
 1739 099b 48020000 		.4byte	.LASF168
 1740 099f 12       		.byte	0x12
ARM GAS  C:\Users\Luis\AppData\Local\Temp\ccg5cNY0.s 			page 32


 1741 09a0 73       		.byte	0x73
 1742 09a1 46080000 		.4byte	0x846
 1743 09a5 00       		.byte	0
 1744 09a6 07       		.uleb128 0x7
 1745 09a7 C8060000 		.4byte	.LASF169
 1746 09ab 12       		.byte	0x12
 1747 09ac 76       		.byte	0x76
 1748 09ad 46080000 		.4byte	0x846
 1749 09b1 18       		.byte	0x18
 1750 09b2 07       		.uleb128 0x7
 1751 09b3 52050000 		.4byte	.LASF170
 1752 09b7 12       		.byte	0x12
 1753 09b8 79       		.byte	0x79
 1754 09b9 46080000 		.4byte	0x846
 1755 09bd 30       		.byte	0x30
 1756 09be 12       		.uleb128 0x12
 1757 09bf 697000   		.ascii	"ip\000"
 1758 09c2 12       		.byte	0x12
 1759 09c3 7C       		.byte	0x7c
 1760 09c4 46080000 		.4byte	0x846
 1761 09c8 48       		.byte	0x48
 1762 09c9 07       		.uleb128 0x7
 1763 09ca 99040000 		.4byte	.LASF171
 1764 09ce 12       		.byte	0x12
 1765 09cf 7F       		.byte	0x7f
 1766 09d0 46080000 		.4byte	0x846
 1767 09d4 60       		.byte	0x60
 1768 09d5 12       		.uleb128 0x12
 1769 09d6 75647000 		.ascii	"udp\000"
 1770 09da 12       		.byte	0x12
 1771 09db 85       		.byte	0x85
 1772 09dc 46080000 		.4byte	0x846
 1773 09e0 78       		.byte	0x78
 1774 09e1 12       		.uleb128 0x12
 1775 09e2 74637000 		.ascii	"tcp\000"
 1776 09e6 12       		.byte	0x12
 1777 09e7 88       		.byte	0x88
 1778 09e8 46080000 		.4byte	0x846
 1779 09ec 90       		.byte	0x90
 1780 09ed 12       		.uleb128 0x12
 1781 09ee 6D656D00 		.ascii	"mem\000"
 1782 09f2 12       		.byte	0x12
 1783 09f3 8B       		.byte	0x8b
 1784 09f4 E2080000 		.4byte	0x8e2
 1785 09f8 A8       		.byte	0xa8
 1786 09f9 07       		.uleb128 0x7
 1787 09fa 09000000 		.4byte	.LASF172
 1788 09fe 12       		.byte	0x12
 1789 09ff 8E       		.byte	0x8e
 1790 0a00 130A0000 		.4byte	0xa13
 1791 0a04 B2       		.byte	0xb2
 1792 0a05 1D       		.uleb128 0x1d
 1793 0a06 73797300 		.ascii	"sys\000"
 1794 0a0a 12       		.byte	0x12
 1795 0a0b 91       		.byte	0x91
 1796 0a0c 5C090000 		.4byte	0x95c
 1797 0a10 3E01     		.2byte	0x13e
ARM GAS  C:\Users\Luis\AppData\Local\Temp\ccg5cNY0.s 			page 33


 1798 0a12 00       		.byte	0
 1799 0a13 15       		.uleb128 0x15
 1800 0a14 E2080000 		.4byte	0x8e2
 1801 0a18 230A0000 		.4byte	0xa23
 1802 0a1c 16       		.uleb128 0x16
 1803 0a1d A0040000 		.4byte	0x4a0
 1804 0a21 0D       		.byte	0xd
 1805 0a22 00       		.byte	0
 1806 0a23 06       		.uleb128 0x6
 1807 0a24 09000000 		.4byte	.LASF172
 1808 0a28 04       		.byte	0x4
 1809 0a29 02       		.byte	0x2
 1810 0a2a 42       		.byte	0x42
 1811 0a2b 3C0A0000 		.4byte	0xa3c
 1812 0a2f 07       		.uleb128 0x7
 1813 0a30 1B010000 		.4byte	.LASF173
 1814 0a34 02       		.byte	0x2
 1815 0a35 43       		.byte	0x43
 1816 0a36 3C0A0000 		.4byte	0xa3c
 1817 0a3a 00       		.byte	0
 1818 0a3b 00       		.byte	0
 1819 0a3c 0A       		.uleb128 0xa
 1820 0a3d 04       		.byte	0x4
 1821 0a3e 230A0000 		.4byte	0xa23
 1822 0a42 1E       		.uleb128 0x1e
 1823 0a43 DD030000 		.4byte	.LASF187
 1824 0a47 01       		.byte	0x1
 1825 0a48 CC01     		.2byte	0x1cc
 1826 0a4a 00000000 		.4byte	.LFB230
 1827 0a4e 14000000 		.4byte	.LFE230-.LFB230
 1828 0a52 01       		.uleb128 0x1
 1829 0a53 9C       		.byte	0x9c
 1830 0a54 680A0000 		.4byte	0xa68
 1831 0a58 1F       		.uleb128 0x1f
 1832 0a59 8E050000 		.4byte	.LASF174
 1833 0a5d 01       		.byte	0x1
 1834 0a5e CC01     		.2byte	0x1cc
 1835 0a60 61070000 		.4byte	0x761
 1836 0a64 02       		.uleb128 0x2
 1837 0a65 91       		.byte	0x91
 1838 0a66 74       		.sleb128 -12
 1839 0a67 00       		.byte	0
 1840 0a68 20       		.uleb128 0x20
 1841 0a69 5A050000 		.4byte	.LASF176
 1842 0a6d 02       		.byte	0x2
 1843 0a6e 5201     		.2byte	0x152
 1844 0a70 00000000 		.4byte	.LFB260
 1845 0a74 F4000000 		.4byte	.LFE260-.LFB260
 1846 0a78 01       		.uleb128 0x1
 1847 0a79 9C       		.byte	0x9c
 1848 0a7a A80A0000 		.4byte	0xaa8
 1849 0a7e 21       		.uleb128 0x21
 1850 0a7f 09000000 		.4byte	.LASF172
 1851 0a83 02       		.byte	0x2
 1852 0a84 5401     		.2byte	0x154
 1853 0a86 3C0A0000 		.4byte	0xa3c
 1854 0a8a 02       		.uleb128 0x2
ARM GAS  C:\Users\Luis\AppData\Local\Temp\ccg5cNY0.s 			page 34


 1855 0a8b 91       		.byte	0x91
 1856 0a8c 74       		.sleb128 -12
 1857 0a8d 22       		.uleb128 0x22
 1858 0a8e 6900     		.ascii	"i\000"
 1859 0a90 02       		.byte	0x2
 1860 0a91 5501     		.2byte	0x155
 1861 0a93 B7070000 		.4byte	0x7b7
 1862 0a97 02       		.uleb128 0x2
 1863 0a98 91       		.byte	0x91
 1864 0a99 72       		.sleb128 -14
 1865 0a9a 22       		.uleb128 0x22
 1866 0a9b 6A00     		.ascii	"j\000"
 1867 0a9d 02       		.byte	0x2
 1868 0a9e 5501     		.2byte	0x155
 1869 0aa0 B7070000 		.4byte	0x7b7
 1870 0aa4 02       		.uleb128 0x2
 1871 0aa5 91       		.byte	0x91
 1872 0aa6 70       		.sleb128 -16
 1873 0aa7 00       		.byte	0
 1874 0aa8 23       		.uleb128 0x23
 1875 0aa9 A8020000 		.4byte	.LASF188
 1876 0aad 02       		.byte	0x2
 1877 0aae 8601     		.2byte	0x186
 1878 0ab0 31030000 		.4byte	0x331
 1879 0ab4 00000000 		.4byte	.LFB261
 1880 0ab8 04010000 		.4byte	.LFE261-.LFB261
 1881 0abc 01       		.uleb128 0x1
 1882 0abd 9C       		.byte	0x9c
 1883 0abe E10A0000 		.4byte	0xae1
 1884 0ac2 1F       		.uleb128 0x1f
 1885 0ac3 6F000000 		.4byte	.LASF175
 1886 0ac7 02       		.byte	0x2
 1887 0ac8 8601     		.2byte	0x186
 1888 0aca 30080000 		.4byte	0x830
 1889 0ace 02       		.uleb128 0x2
 1890 0acf 91       		.byte	0x91
 1891 0ad0 6F       		.sleb128 -17
 1892 0ad1 21       		.uleb128 0x21
 1893 0ad2 09000000 		.4byte	.LASF172
 1894 0ad6 02       		.byte	0x2
 1895 0ad7 8B01     		.2byte	0x18b
 1896 0ad9 3C0A0000 		.4byte	0xa3c
 1897 0add 02       		.uleb128 0x2
 1898 0ade 91       		.byte	0x91
 1899 0adf 74       		.sleb128 -12
 1900 0ae0 00       		.byte	0
 1901 0ae1 24       		.uleb128 0x24
 1902 0ae2 52000000 		.4byte	.LASF177
 1903 0ae6 02       		.byte	0x2
 1904 0ae7 B301     		.2byte	0x1b3
 1905 0ae9 00000000 		.4byte	.LFB262
 1906 0aed 78000000 		.4byte	.LFE262-.LFB262
 1907 0af1 01       		.uleb128 0x1
 1908 0af2 9C       		.byte	0x9c
 1909 0af3 250B0000 		.4byte	0xb25
 1910 0af7 1F       		.uleb128 0x1f
 1911 0af8 6F000000 		.4byte	.LASF175
ARM GAS  C:\Users\Luis\AppData\Local\Temp\ccg5cNY0.s 			page 35


 1912 0afc 02       		.byte	0x2
 1913 0afd B301     		.2byte	0x1b3
 1914 0aff 30080000 		.4byte	0x830
 1915 0b03 02       		.uleb128 0x2
 1916 0b04 91       		.byte	0x91
 1917 0b05 6F       		.sleb128 -17
 1918 0b06 25       		.uleb128 0x25
 1919 0b07 6D656D00 		.ascii	"mem\000"
 1920 0b0b 02       		.byte	0x2
 1921 0b0c B301     		.2byte	0x1b3
 1922 0b0e 31030000 		.4byte	0x331
 1923 0b12 02       		.uleb128 0x2
 1924 0b13 91       		.byte	0x91
 1925 0b14 68       		.sleb128 -24
 1926 0b15 21       		.uleb128 0x21
 1927 0b16 09000000 		.4byte	.LASF172
 1928 0b1a 02       		.byte	0x2
 1929 0b1b B501     		.2byte	0x1b5
 1930 0b1d 3C0A0000 		.4byte	0xa3c
 1931 0b21 02       		.uleb128 0x2
 1932 0b22 91       		.byte	0x91
 1933 0b23 74       		.sleb128 -12
 1934 0b24 00       		.byte	0
 1935 0b25 15       		.uleb128 0x15
 1936 0b26 3C0A0000 		.4byte	0xa3c
 1937 0b2a 350B0000 		.4byte	0xb35
 1938 0b2e 16       		.uleb128 0x16
 1939 0b2f A0040000 		.4byte	0x4a0
 1940 0b33 0D       		.byte	0xd
 1941 0b34 00       		.byte	0
 1942 0b35 26       		.uleb128 0x26
 1943 0b36 12010000 		.4byte	.LASF178
 1944 0b3a 02       		.byte	0x2
 1945 0b3b 75       		.byte	0x75
 1946 0b3c 250B0000 		.4byte	0xb25
 1947 0b40 05       		.uleb128 0x5
 1948 0b41 03       		.byte	0x3
 1949 0b42 00000000 		.4byte	memp_tab
 1950 0b46 15       		.uleb128 0x15
 1951 0b47 B7070000 		.4byte	0x7b7
 1952 0b4b 560B0000 		.4byte	0xb56
 1953 0b4f 16       		.uleb128 0x16
 1954 0b50 A0040000 		.4byte	0x4a0
 1955 0b54 0D       		.byte	0xd
 1956 0b55 00       		.byte	0
 1957 0b56 26       		.uleb128 0x26
 1958 0b57 A7060000 		.4byte	.LASF179
 1959 0b5b 02       		.byte	0x2
 1960 0b5c 81       		.byte	0x81
 1961 0b5d 670B0000 		.4byte	0xb67
 1962 0b61 05       		.uleb128 0x5
 1963 0b62 03       		.byte	0x3
 1964 0b63 00000000 		.4byte	memp_sizes
 1965 0b67 19       		.uleb128 0x19
 1966 0b68 460B0000 		.4byte	0xb46
 1967 0b6c 26       		.uleb128 0x26
 1968 0b6d 49000000 		.4byte	.LASF180
ARM GAS  C:\Users\Luis\AppData\Local\Temp\ccg5cNY0.s 			page 36


 1969 0b71 02       		.byte	0x2
 1970 0b72 89       		.byte	0x89
 1971 0b73 7D0B0000 		.4byte	0xb7d
 1972 0b77 05       		.uleb128 0x5
 1973 0b78 03       		.byte	0x3
 1974 0b79 00000000 		.4byte	memp_num
 1975 0b7d 19       		.uleb128 0x19
 1976 0b7e 460B0000 		.4byte	0xb46
 1977 0b82 15       		.uleb128 0x15
 1978 0b83 AC070000 		.4byte	0x7ac
 1979 0b87 930B0000 		.4byte	0xb93
 1980 0b8b 27       		.uleb128 0x27
 1981 0b8c A0040000 		.4byte	0x4a0
 1982 0b90 1231     		.2byte	0x3112
 1983 0b92 00       		.byte	0
 1984 0b93 26       		.uleb128 0x26
 1985 0b94 CB040000 		.4byte	.LASF181
 1986 0b98 02       		.byte	0x2
 1987 0b99 AA       		.byte	0xaa
 1988 0b9a 820B0000 		.4byte	0xb82
 1989 0b9e 05       		.uleb128 0x5
 1990 0b9f 03       		.byte	0x3
 1991 0ba0 00000000 		.4byte	memp_memory
 1992 0ba4 28       		.uleb128 0x28
 1993 0ba5 2C050000 		.4byte	.LASF182
 1994 0ba9 13       		.byte	0x13
 1995 0baa A706     		.2byte	0x6a7
 1996 0bac AD000000 		.4byte	0xad
 1997 0bb0 29       		.uleb128 0x29
 1998 0bb1 636800   		.ascii	"ch\000"
 1999 0bb4 07       		.byte	0x7
 2000 0bb5 0902     		.2byte	0x209
 2001 0bb7 28040000 		.4byte	0x428
 2002 0bbb 2A       		.uleb128 0x2a
 2003 0bbc 77050000 		.4byte	.LASF183
 2004 0bc0 12       		.byte	0x12
 2005 0bc1 95       		.byte	0x95
 2006 0bc2 8D090000 		.4byte	0x98d
 2007 0bc6 00       		.byte	0
 2008              		.section	.debug_abbrev,"",%progbits
 2009              	.Ldebug_abbrev0:
 2010 0000 01       		.uleb128 0x1
 2011 0001 11       		.uleb128 0x11
 2012 0002 01       		.byte	0x1
 2013 0003 25       		.uleb128 0x25
 2014 0004 0E       		.uleb128 0xe
 2015 0005 13       		.uleb128 0x13
 2016 0006 0B       		.uleb128 0xb
 2017 0007 03       		.uleb128 0x3
 2018 0008 0E       		.uleb128 0xe
 2019 0009 1B       		.uleb128 0x1b
 2020 000a 0E       		.uleb128 0xe
 2021 000b 55       		.uleb128 0x55
 2022 000c 17       		.uleb128 0x17
 2023 000d 11       		.uleb128 0x11
 2024 000e 01       		.uleb128 0x1
 2025 000f 10       		.uleb128 0x10
ARM GAS  C:\Users\Luis\AppData\Local\Temp\ccg5cNY0.s 			page 37


 2026 0010 17       		.uleb128 0x17
 2027 0011 00       		.byte	0
 2028 0012 00       		.byte	0
 2029 0013 02       		.uleb128 0x2
 2030 0014 24       		.uleb128 0x24
 2031 0015 00       		.byte	0
 2032 0016 0B       		.uleb128 0xb
 2033 0017 0B       		.uleb128 0xb
 2034 0018 3E       		.uleb128 0x3e
 2035 0019 0B       		.uleb128 0xb
 2036 001a 03       		.uleb128 0x3
 2037 001b 08       		.uleb128 0x8
 2038 001c 00       		.byte	0
 2039 001d 00       		.byte	0
 2040 001e 03       		.uleb128 0x3
 2041 001f 16       		.uleb128 0x16
 2042 0020 00       		.byte	0
 2043 0021 03       		.uleb128 0x3
 2044 0022 0E       		.uleb128 0xe
 2045 0023 3A       		.uleb128 0x3a
 2046 0024 0B       		.uleb128 0xb
 2047 0025 3B       		.uleb128 0x3b
 2048 0026 0B       		.uleb128 0xb
 2049 0027 49       		.uleb128 0x49
 2050 0028 13       		.uleb128 0x13
 2051 0029 00       		.byte	0
 2052 002a 00       		.byte	0
 2053 002b 04       		.uleb128 0x4
 2054 002c 24       		.uleb128 0x24
 2055 002d 00       		.byte	0
 2056 002e 0B       		.uleb128 0xb
 2057 002f 0B       		.uleb128 0xb
 2058 0030 3E       		.uleb128 0x3e
 2059 0031 0B       		.uleb128 0xb
 2060 0032 03       		.uleb128 0x3
 2061 0033 0E       		.uleb128 0xe
 2062 0034 00       		.byte	0
 2063 0035 00       		.byte	0
 2064 0036 05       		.uleb128 0x5
 2065 0037 35       		.uleb128 0x35
 2066 0038 00       		.byte	0
 2067 0039 49       		.uleb128 0x49
 2068 003a 13       		.uleb128 0x13
 2069 003b 00       		.byte	0
 2070 003c 00       		.byte	0
 2071 003d 06       		.uleb128 0x6
 2072 003e 13       		.uleb128 0x13
 2073 003f 01       		.byte	0x1
 2074 0040 03       		.uleb128 0x3
 2075 0041 0E       		.uleb128 0xe
 2076 0042 0B       		.uleb128 0xb
 2077 0043 0B       		.uleb128 0xb
 2078 0044 3A       		.uleb128 0x3a
 2079 0045 0B       		.uleb128 0xb
 2080 0046 3B       		.uleb128 0x3b
 2081 0047 0B       		.uleb128 0xb
 2082 0048 01       		.uleb128 0x1
ARM GAS  C:\Users\Luis\AppData\Local\Temp\ccg5cNY0.s 			page 38


 2083 0049 13       		.uleb128 0x13
 2084 004a 00       		.byte	0
 2085 004b 00       		.byte	0
 2086 004c 07       		.uleb128 0x7
 2087 004d 0D       		.uleb128 0xd
 2088 004e 00       		.byte	0
 2089 004f 03       		.uleb128 0x3
 2090 0050 0E       		.uleb128 0xe
 2091 0051 3A       		.uleb128 0x3a
 2092 0052 0B       		.uleb128 0xb
 2093 0053 3B       		.uleb128 0x3b
 2094 0054 0B       		.uleb128 0xb
 2095 0055 49       		.uleb128 0x49
 2096 0056 13       		.uleb128 0x13
 2097 0057 38       		.uleb128 0x38
 2098 0058 0B       		.uleb128 0xb
 2099 0059 00       		.byte	0
 2100 005a 00       		.byte	0
 2101 005b 08       		.uleb128 0x8
 2102 005c 0D       		.uleb128 0xd
 2103 005d 00       		.byte	0
 2104 005e 03       		.uleb128 0x3
 2105 005f 08       		.uleb128 0x8
 2106 0060 3A       		.uleb128 0x3a
 2107 0061 0B       		.uleb128 0xb
 2108 0062 3B       		.uleb128 0x3b
 2109 0063 05       		.uleb128 0x5
 2110 0064 49       		.uleb128 0x49
 2111 0065 13       		.uleb128 0x13
 2112 0066 38       		.uleb128 0x38
 2113 0067 0B       		.uleb128 0xb
 2114 0068 00       		.byte	0
 2115 0069 00       		.byte	0
 2116 006a 09       		.uleb128 0x9
 2117 006b 0D       		.uleb128 0xd
 2118 006c 00       		.byte	0
 2119 006d 03       		.uleb128 0x3
 2120 006e 0E       		.uleb128 0xe
 2121 006f 3A       		.uleb128 0x3a
 2122 0070 0B       		.uleb128 0xb
 2123 0071 3B       		.uleb128 0x3b
 2124 0072 05       		.uleb128 0x5
 2125 0073 49       		.uleb128 0x49
 2126 0074 13       		.uleb128 0x13
 2127 0075 38       		.uleb128 0x38
 2128 0076 0B       		.uleb128 0xb
 2129 0077 00       		.byte	0
 2130 0078 00       		.byte	0
 2131 0079 0A       		.uleb128 0xa
 2132 007a 0F       		.uleb128 0xf
 2133 007b 00       		.byte	0
 2134 007c 0B       		.uleb128 0xb
 2135 007d 0B       		.uleb128 0xb
 2136 007e 49       		.uleb128 0x49
 2137 007f 13       		.uleb128 0x13
 2138 0080 00       		.byte	0
 2139 0081 00       		.byte	0
ARM GAS  C:\Users\Luis\AppData\Local\Temp\ccg5cNY0.s 			page 39


 2140 0082 0B       		.uleb128 0xb
 2141 0083 13       		.uleb128 0x13
 2142 0084 01       		.byte	0x1
 2143 0085 03       		.uleb128 0x3
 2144 0086 0E       		.uleb128 0xe
 2145 0087 0B       		.uleb128 0xb
 2146 0088 0B       		.uleb128 0xb
 2147 0089 3A       		.uleb128 0x3a
 2148 008a 0B       		.uleb128 0xb
 2149 008b 3B       		.uleb128 0x3b
 2150 008c 05       		.uleb128 0x5
 2151 008d 01       		.uleb128 0x1
 2152 008e 13       		.uleb128 0x13
 2153 008f 00       		.byte	0
 2154 0090 00       		.byte	0
 2155 0091 0C       		.uleb128 0xc
 2156 0092 15       		.uleb128 0x15
 2157 0093 01       		.byte	0x1
 2158 0094 27       		.uleb128 0x27
 2159 0095 19       		.uleb128 0x19
 2160 0096 01       		.uleb128 0x1
 2161 0097 13       		.uleb128 0x13
 2162 0098 00       		.byte	0
 2163 0099 00       		.byte	0
 2164 009a 0D       		.uleb128 0xd
 2165 009b 05       		.uleb128 0x5
 2166 009c 00       		.byte	0
 2167 009d 49       		.uleb128 0x49
 2168 009e 13       		.uleb128 0x13
 2169 009f 00       		.byte	0
 2170 00a0 00       		.byte	0
 2171 00a1 0E       		.uleb128 0xe
 2172 00a2 0F       		.uleb128 0xf
 2173 00a3 00       		.byte	0
 2174 00a4 0B       		.uleb128 0xb
 2175 00a5 0B       		.uleb128 0xb
 2176 00a6 00       		.byte	0
 2177 00a7 00       		.byte	0
 2178 00a8 0F       		.uleb128 0xf
 2179 00a9 13       		.uleb128 0x13
 2180 00aa 01       		.byte	0x1
 2181 00ab 03       		.uleb128 0x3
 2182 00ac 0E       		.uleb128 0xe
 2183 00ad 0B       		.uleb128 0xb
 2184 00ae 05       		.uleb128 0x5
 2185 00af 3A       		.uleb128 0x3a
 2186 00b0 0B       		.uleb128 0xb
 2187 00b1 3B       		.uleb128 0x3b
 2188 00b2 05       		.uleb128 0x5
 2189 00b3 01       		.uleb128 0x1
 2190 00b4 13       		.uleb128 0x13
 2191 00b5 00       		.byte	0
 2192 00b6 00       		.byte	0
 2193 00b7 10       		.uleb128 0x10
 2194 00b8 0D       		.uleb128 0xd
 2195 00b9 00       		.byte	0
 2196 00ba 03       		.uleb128 0x3
ARM GAS  C:\Users\Luis\AppData\Local\Temp\ccg5cNY0.s 			page 40


 2197 00bb 0E       		.uleb128 0xe
 2198 00bc 3A       		.uleb128 0x3a
 2199 00bd 0B       		.uleb128 0xb
 2200 00be 3B       		.uleb128 0x3b
 2201 00bf 05       		.uleb128 0x5
 2202 00c0 49       		.uleb128 0x49
 2203 00c1 13       		.uleb128 0x13
 2204 00c2 38       		.uleb128 0x38
 2205 00c3 05       		.uleb128 0x5
 2206 00c4 00       		.byte	0
 2207 00c5 00       		.byte	0
 2208 00c6 11       		.uleb128 0x11
 2209 00c7 0D       		.uleb128 0xd
 2210 00c8 00       		.byte	0
 2211 00c9 03       		.uleb128 0x3
 2212 00ca 08       		.uleb128 0x8
 2213 00cb 3A       		.uleb128 0x3a
 2214 00cc 0B       		.uleb128 0xb
 2215 00cd 3B       		.uleb128 0x3b
 2216 00ce 05       		.uleb128 0x5
 2217 00cf 49       		.uleb128 0x49
 2218 00d0 13       		.uleb128 0x13
 2219 00d1 38       		.uleb128 0x38
 2220 00d2 05       		.uleb128 0x5
 2221 00d3 00       		.byte	0
 2222 00d4 00       		.byte	0
 2223 00d5 12       		.uleb128 0x12
 2224 00d6 0D       		.uleb128 0xd
 2225 00d7 00       		.byte	0
 2226 00d8 03       		.uleb128 0x3
 2227 00d9 08       		.uleb128 0x8
 2228 00da 3A       		.uleb128 0x3a
 2229 00db 0B       		.uleb128 0xb
 2230 00dc 3B       		.uleb128 0x3b
 2231 00dd 0B       		.uleb128 0xb
 2232 00de 49       		.uleb128 0x49
 2233 00df 13       		.uleb128 0x13
 2234 00e0 38       		.uleb128 0x38
 2235 00e1 0B       		.uleb128 0xb
 2236 00e2 00       		.byte	0
 2237 00e3 00       		.byte	0
 2238 00e4 13       		.uleb128 0x13
 2239 00e5 13       		.uleb128 0x13
 2240 00e6 01       		.byte	0x1
 2241 00e7 0B       		.uleb128 0xb
 2242 00e8 0B       		.uleb128 0xb
 2243 00e9 3A       		.uleb128 0x3a
 2244 00ea 0B       		.uleb128 0xb
 2245 00eb 3B       		.uleb128 0x3b
 2246 00ec 0B       		.uleb128 0xb
 2247 00ed 01       		.uleb128 0x1
 2248 00ee 13       		.uleb128 0x13
 2249 00ef 00       		.byte	0
 2250 00f0 00       		.byte	0
 2251 00f1 14       		.uleb128 0x14
 2252 00f2 13       		.uleb128 0x13
 2253 00f3 01       		.byte	0x1
ARM GAS  C:\Users\Luis\AppData\Local\Temp\ccg5cNY0.s 			page 41


 2254 00f4 0B       		.uleb128 0xb
 2255 00f5 05       		.uleb128 0x5
 2256 00f6 3A       		.uleb128 0x3a
 2257 00f7 0B       		.uleb128 0xb
 2258 00f8 3B       		.uleb128 0x3b
 2259 00f9 0B       		.uleb128 0xb
 2260 00fa 01       		.uleb128 0x1
 2261 00fb 13       		.uleb128 0x13
 2262 00fc 00       		.byte	0
 2263 00fd 00       		.byte	0
 2264 00fe 15       		.uleb128 0x15
 2265 00ff 01       		.uleb128 0x1
 2266 0100 01       		.byte	0x1
 2267 0101 49       		.uleb128 0x49
 2268 0102 13       		.uleb128 0x13
 2269 0103 01       		.uleb128 0x1
 2270 0104 13       		.uleb128 0x13
 2271 0105 00       		.byte	0
 2272 0106 00       		.byte	0
 2273 0107 16       		.uleb128 0x16
 2274 0108 21       		.uleb128 0x21
 2275 0109 00       		.byte	0
 2276 010a 49       		.uleb128 0x49
 2277 010b 13       		.uleb128 0x13
 2278 010c 2F       		.uleb128 0x2f
 2279 010d 0B       		.uleb128 0xb
 2280 010e 00       		.byte	0
 2281 010f 00       		.byte	0
 2282 0110 17       		.uleb128 0x17
 2283 0111 17       		.uleb128 0x17
 2284 0112 01       		.byte	0x1
 2285 0113 0B       		.uleb128 0xb
 2286 0114 0B       		.uleb128 0xb
 2287 0115 3A       		.uleb128 0x3a
 2288 0116 0B       		.uleb128 0xb
 2289 0117 3B       		.uleb128 0x3b
 2290 0118 0B       		.uleb128 0xb
 2291 0119 01       		.uleb128 0x1
 2292 011a 13       		.uleb128 0x13
 2293 011b 00       		.byte	0
 2294 011c 00       		.byte	0
 2295 011d 18       		.uleb128 0x18
 2296 011e 0D       		.uleb128 0xd
 2297 011f 00       		.byte	0
 2298 0120 03       		.uleb128 0x3
 2299 0121 0E       		.uleb128 0xe
 2300 0122 3A       		.uleb128 0x3a
 2301 0123 0B       		.uleb128 0xb
 2302 0124 3B       		.uleb128 0x3b
 2303 0125 05       		.uleb128 0x5
 2304 0126 49       		.uleb128 0x49
 2305 0127 13       		.uleb128 0x13
 2306 0128 00       		.byte	0
 2307 0129 00       		.byte	0
 2308 012a 19       		.uleb128 0x19
 2309 012b 26       		.uleb128 0x26
 2310 012c 00       		.byte	0
ARM GAS  C:\Users\Luis\AppData\Local\Temp\ccg5cNY0.s 			page 42


 2311 012d 49       		.uleb128 0x49
 2312 012e 13       		.uleb128 0x13
 2313 012f 00       		.byte	0
 2314 0130 00       		.byte	0
 2315 0131 1A       		.uleb128 0x1a
 2316 0132 04       		.uleb128 0x4
 2317 0133 01       		.byte	0x1
 2318 0134 0B       		.uleb128 0xb
 2319 0135 0B       		.uleb128 0xb
 2320 0136 3A       		.uleb128 0x3a
 2321 0137 0B       		.uleb128 0xb
 2322 0138 3B       		.uleb128 0x3b
 2323 0139 0B       		.uleb128 0xb
 2324 013a 01       		.uleb128 0x1
 2325 013b 13       		.uleb128 0x13
 2326 013c 00       		.byte	0
 2327 013d 00       		.byte	0
 2328 013e 1B       		.uleb128 0x1b
 2329 013f 28       		.uleb128 0x28
 2330 0140 00       		.byte	0
 2331 0141 03       		.uleb128 0x3
 2332 0142 0E       		.uleb128 0xe
 2333 0143 1C       		.uleb128 0x1c
 2334 0144 0D       		.uleb128 0xd
 2335 0145 00       		.byte	0
 2336 0146 00       		.byte	0
 2337 0147 1C       		.uleb128 0x1c
 2338 0148 13       		.uleb128 0x13
 2339 0149 01       		.byte	0x1
 2340 014a 03       		.uleb128 0x3
 2341 014b 0E       		.uleb128 0xe
 2342 014c 0B       		.uleb128 0xb
 2343 014d 05       		.uleb128 0x5
 2344 014e 3A       		.uleb128 0x3a
 2345 014f 0B       		.uleb128 0xb
 2346 0150 3B       		.uleb128 0x3b
 2347 0151 0B       		.uleb128 0xb
 2348 0152 01       		.uleb128 0x1
 2349 0153 13       		.uleb128 0x13
 2350 0154 00       		.byte	0
 2351 0155 00       		.byte	0
 2352 0156 1D       		.uleb128 0x1d
 2353 0157 0D       		.uleb128 0xd
 2354 0158 00       		.byte	0
 2355 0159 03       		.uleb128 0x3
 2356 015a 08       		.uleb128 0x8
 2357 015b 3A       		.uleb128 0x3a
 2358 015c 0B       		.uleb128 0xb
 2359 015d 3B       		.uleb128 0x3b
 2360 015e 0B       		.uleb128 0xb
 2361 015f 49       		.uleb128 0x49
 2362 0160 13       		.uleb128 0x13
 2363 0161 38       		.uleb128 0x38
 2364 0162 05       		.uleb128 0x5
 2365 0163 00       		.byte	0
 2366 0164 00       		.byte	0
 2367 0165 1E       		.uleb128 0x1e
ARM GAS  C:\Users\Luis\AppData\Local\Temp\ccg5cNY0.s 			page 43


 2368 0166 2E       		.uleb128 0x2e
 2369 0167 01       		.byte	0x1
 2370 0168 03       		.uleb128 0x3
 2371 0169 0E       		.uleb128 0xe
 2372 016a 3A       		.uleb128 0x3a
 2373 016b 0B       		.uleb128 0xb
 2374 016c 3B       		.uleb128 0x3b
 2375 016d 05       		.uleb128 0x5
 2376 016e 27       		.uleb128 0x27
 2377 016f 19       		.uleb128 0x19
 2378 0170 11       		.uleb128 0x11
 2379 0171 01       		.uleb128 0x1
 2380 0172 12       		.uleb128 0x12
 2381 0173 06       		.uleb128 0x6
 2382 0174 40       		.uleb128 0x40
 2383 0175 18       		.uleb128 0x18
 2384 0176 9642     		.uleb128 0x2116
 2385 0178 19       		.uleb128 0x19
 2386 0179 01       		.uleb128 0x1
 2387 017a 13       		.uleb128 0x13
 2388 017b 00       		.byte	0
 2389 017c 00       		.byte	0
 2390 017d 1F       		.uleb128 0x1f
 2391 017e 05       		.uleb128 0x5
 2392 017f 00       		.byte	0
 2393 0180 03       		.uleb128 0x3
 2394 0181 0E       		.uleb128 0xe
 2395 0182 3A       		.uleb128 0x3a
 2396 0183 0B       		.uleb128 0xb
 2397 0184 3B       		.uleb128 0x3b
 2398 0185 05       		.uleb128 0x5
 2399 0186 49       		.uleb128 0x49
 2400 0187 13       		.uleb128 0x13
 2401 0188 02       		.uleb128 0x2
 2402 0189 18       		.uleb128 0x18
 2403 018a 00       		.byte	0
 2404 018b 00       		.byte	0
 2405 018c 20       		.uleb128 0x20
 2406 018d 2E       		.uleb128 0x2e
 2407 018e 01       		.byte	0x1
 2408 018f 3F       		.uleb128 0x3f
 2409 0190 19       		.uleb128 0x19
 2410 0191 03       		.uleb128 0x3
 2411 0192 0E       		.uleb128 0xe
 2412 0193 3A       		.uleb128 0x3a
 2413 0194 0B       		.uleb128 0xb
 2414 0195 3B       		.uleb128 0x3b
 2415 0196 05       		.uleb128 0x5
 2416 0197 27       		.uleb128 0x27
 2417 0198 19       		.uleb128 0x19
 2418 0199 11       		.uleb128 0x11
 2419 019a 01       		.uleb128 0x1
 2420 019b 12       		.uleb128 0x12
 2421 019c 06       		.uleb128 0x6
 2422 019d 40       		.uleb128 0x40
 2423 019e 18       		.uleb128 0x18
 2424 019f 9742     		.uleb128 0x2117
ARM GAS  C:\Users\Luis\AppData\Local\Temp\ccg5cNY0.s 			page 44


 2425 01a1 19       		.uleb128 0x19
 2426 01a2 01       		.uleb128 0x1
 2427 01a3 13       		.uleb128 0x13
 2428 01a4 00       		.byte	0
 2429 01a5 00       		.byte	0
 2430 01a6 21       		.uleb128 0x21
 2431 01a7 34       		.uleb128 0x34
 2432 01a8 00       		.byte	0
 2433 01a9 03       		.uleb128 0x3
 2434 01aa 0E       		.uleb128 0xe
 2435 01ab 3A       		.uleb128 0x3a
 2436 01ac 0B       		.uleb128 0xb
 2437 01ad 3B       		.uleb128 0x3b
 2438 01ae 05       		.uleb128 0x5
 2439 01af 49       		.uleb128 0x49
 2440 01b0 13       		.uleb128 0x13
 2441 01b1 02       		.uleb128 0x2
 2442 01b2 18       		.uleb128 0x18
 2443 01b3 00       		.byte	0
 2444 01b4 00       		.byte	0
 2445 01b5 22       		.uleb128 0x22
 2446 01b6 34       		.uleb128 0x34
 2447 01b7 00       		.byte	0
 2448 01b8 03       		.uleb128 0x3
 2449 01b9 08       		.uleb128 0x8
 2450 01ba 3A       		.uleb128 0x3a
 2451 01bb 0B       		.uleb128 0xb
 2452 01bc 3B       		.uleb128 0x3b
 2453 01bd 05       		.uleb128 0x5
 2454 01be 49       		.uleb128 0x49
 2455 01bf 13       		.uleb128 0x13
 2456 01c0 02       		.uleb128 0x2
 2457 01c1 18       		.uleb128 0x18
 2458 01c2 00       		.byte	0
 2459 01c3 00       		.byte	0
 2460 01c4 23       		.uleb128 0x23
 2461 01c5 2E       		.uleb128 0x2e
 2462 01c6 01       		.byte	0x1
 2463 01c7 3F       		.uleb128 0x3f
 2464 01c8 19       		.uleb128 0x19
 2465 01c9 03       		.uleb128 0x3
 2466 01ca 0E       		.uleb128 0xe
 2467 01cb 3A       		.uleb128 0x3a
 2468 01cc 0B       		.uleb128 0xb
 2469 01cd 3B       		.uleb128 0x3b
 2470 01ce 05       		.uleb128 0x5
 2471 01cf 27       		.uleb128 0x27
 2472 01d0 19       		.uleb128 0x19
 2473 01d1 49       		.uleb128 0x49
 2474 01d2 13       		.uleb128 0x13
 2475 01d3 11       		.uleb128 0x11
 2476 01d4 01       		.uleb128 0x1
 2477 01d5 12       		.uleb128 0x12
 2478 01d6 06       		.uleb128 0x6
 2479 01d7 40       		.uleb128 0x40
 2480 01d8 18       		.uleb128 0x18
 2481 01d9 9642     		.uleb128 0x2116
ARM GAS  C:\Users\Luis\AppData\Local\Temp\ccg5cNY0.s 			page 45


 2482 01db 19       		.uleb128 0x19
 2483 01dc 01       		.uleb128 0x1
 2484 01dd 13       		.uleb128 0x13
 2485 01de 00       		.byte	0
 2486 01df 00       		.byte	0
 2487 01e0 24       		.uleb128 0x24
 2488 01e1 2E       		.uleb128 0x2e
 2489 01e2 01       		.byte	0x1
 2490 01e3 3F       		.uleb128 0x3f
 2491 01e4 19       		.uleb128 0x19
 2492 01e5 03       		.uleb128 0x3
 2493 01e6 0E       		.uleb128 0xe
 2494 01e7 3A       		.uleb128 0x3a
 2495 01e8 0B       		.uleb128 0xb
 2496 01e9 3B       		.uleb128 0x3b
 2497 01ea 05       		.uleb128 0x5
 2498 01eb 27       		.uleb128 0x27
 2499 01ec 19       		.uleb128 0x19
 2500 01ed 11       		.uleb128 0x11
 2501 01ee 01       		.uleb128 0x1
 2502 01ef 12       		.uleb128 0x12
 2503 01f0 06       		.uleb128 0x6
 2504 01f1 40       		.uleb128 0x40
 2505 01f2 18       		.uleb128 0x18
 2506 01f3 9642     		.uleb128 0x2116
 2507 01f5 19       		.uleb128 0x19
 2508 01f6 01       		.uleb128 0x1
 2509 01f7 13       		.uleb128 0x13
 2510 01f8 00       		.byte	0
 2511 01f9 00       		.byte	0
 2512 01fa 25       		.uleb128 0x25
 2513 01fb 05       		.uleb128 0x5
 2514 01fc 00       		.byte	0
 2515 01fd 03       		.uleb128 0x3
 2516 01fe 08       		.uleb128 0x8
 2517 01ff 3A       		.uleb128 0x3a
 2518 0200 0B       		.uleb128 0xb
 2519 0201 3B       		.uleb128 0x3b
 2520 0202 05       		.uleb128 0x5
 2521 0203 49       		.uleb128 0x49
 2522 0204 13       		.uleb128 0x13
 2523 0205 02       		.uleb128 0x2
 2524 0206 18       		.uleb128 0x18
 2525 0207 00       		.byte	0
 2526 0208 00       		.byte	0
 2527 0209 26       		.uleb128 0x26
 2528 020a 34       		.uleb128 0x34
 2529 020b 00       		.byte	0
 2530 020c 03       		.uleb128 0x3
 2531 020d 0E       		.uleb128 0xe
 2532 020e 3A       		.uleb128 0x3a
 2533 020f 0B       		.uleb128 0xb
 2534 0210 3B       		.uleb128 0x3b
 2535 0211 0B       		.uleb128 0xb
 2536 0212 49       		.uleb128 0x49
 2537 0213 13       		.uleb128 0x13
 2538 0214 02       		.uleb128 0x2
ARM GAS  C:\Users\Luis\AppData\Local\Temp\ccg5cNY0.s 			page 46


 2539 0215 18       		.uleb128 0x18
 2540 0216 00       		.byte	0
 2541 0217 00       		.byte	0
 2542 0218 27       		.uleb128 0x27
 2543 0219 21       		.uleb128 0x21
 2544 021a 00       		.byte	0
 2545 021b 49       		.uleb128 0x49
 2546 021c 13       		.uleb128 0x13
 2547 021d 2F       		.uleb128 0x2f
 2548 021e 05       		.uleb128 0x5
 2549 021f 00       		.byte	0
 2550 0220 00       		.byte	0
 2551 0221 28       		.uleb128 0x28
 2552 0222 34       		.uleb128 0x34
 2553 0223 00       		.byte	0
 2554 0224 03       		.uleb128 0x3
 2555 0225 0E       		.uleb128 0xe
 2556 0226 3A       		.uleb128 0x3a
 2557 0227 0B       		.uleb128 0xb
 2558 0228 3B       		.uleb128 0x3b
 2559 0229 05       		.uleb128 0x5
 2560 022a 49       		.uleb128 0x49
 2561 022b 13       		.uleb128 0x13
 2562 022c 3F       		.uleb128 0x3f
 2563 022d 19       		.uleb128 0x19
 2564 022e 3C       		.uleb128 0x3c
 2565 022f 19       		.uleb128 0x19
 2566 0230 00       		.byte	0
 2567 0231 00       		.byte	0
 2568 0232 29       		.uleb128 0x29
 2569 0233 34       		.uleb128 0x34
 2570 0234 00       		.byte	0
 2571 0235 03       		.uleb128 0x3
 2572 0236 08       		.uleb128 0x8
 2573 0237 3A       		.uleb128 0x3a
 2574 0238 0B       		.uleb128 0xb
 2575 0239 3B       		.uleb128 0x3b
 2576 023a 05       		.uleb128 0x5
 2577 023b 49       		.uleb128 0x49
 2578 023c 13       		.uleb128 0x13
 2579 023d 3F       		.uleb128 0x3f
 2580 023e 19       		.uleb128 0x19
 2581 023f 3C       		.uleb128 0x3c
 2582 0240 19       		.uleb128 0x19
 2583 0241 00       		.byte	0
 2584 0242 00       		.byte	0
 2585 0243 2A       		.uleb128 0x2a
 2586 0244 34       		.uleb128 0x34
 2587 0245 00       		.byte	0
 2588 0246 03       		.uleb128 0x3
 2589 0247 0E       		.uleb128 0xe
 2590 0248 3A       		.uleb128 0x3a
 2591 0249 0B       		.uleb128 0xb
 2592 024a 3B       		.uleb128 0x3b
 2593 024b 0B       		.uleb128 0xb
 2594 024c 49       		.uleb128 0x49
 2595 024d 13       		.uleb128 0x13
ARM GAS  C:\Users\Luis\AppData\Local\Temp\ccg5cNY0.s 			page 47


 2596 024e 3F       		.uleb128 0x3f
 2597 024f 19       		.uleb128 0x19
 2598 0250 3C       		.uleb128 0x3c
 2599 0251 19       		.uleb128 0x19
 2600 0252 00       		.byte	0
 2601 0253 00       		.byte	0
 2602 0254 00       		.byte	0
 2603              		.section	.debug_aranges,"",%progbits
 2604 0000 34000000 		.4byte	0x34
 2605 0004 0200     		.2byte	0x2
 2606 0006 00000000 		.4byte	.Ldebug_info0
 2607 000a 04       		.byte	0x4
 2608 000b 00       		.byte	0
 2609 000c 0000     		.2byte	0
 2610 000e 0000     		.2byte	0
 2611 0010 00000000 		.4byte	.LFB230
 2612 0014 14000000 		.4byte	.LFE230-.LFB230
 2613 0018 00000000 		.4byte	.LFB260
 2614 001c F4000000 		.4byte	.LFE260-.LFB260
 2615 0020 00000000 		.4byte	.LFB261
 2616 0024 04010000 		.4byte	.LFE261-.LFB261
 2617 0028 00000000 		.4byte	.LFB262
 2618 002c 78000000 		.4byte	.LFE262-.LFB262
 2619 0030 00000000 		.4byte	0
 2620 0034 00000000 		.4byte	0
 2621              		.section	.debug_ranges,"",%progbits
 2622              	.Ldebug_ranges0:
 2623 0000 00000000 		.4byte	.LFB230
 2624 0004 14000000 		.4byte	.LFE230
 2625 0008 00000000 		.4byte	.LFB260
 2626 000c F4000000 		.4byte	.LFE260
 2627 0010 00000000 		.4byte	.LFB261
 2628 0014 04010000 		.4byte	.LFE261
 2629 0018 00000000 		.4byte	.LFB262
 2630 001c 78000000 		.4byte	.LFE262
 2631 0020 00000000 		.4byte	0
 2632 0024 00000000 		.4byte	0
 2633              		.section	.debug_line,"",%progbits
 2634              	.Ldebug_line0:
 2635 0000 3F030000 		.section	.debug_str,"MS",%progbits,1
 2635      02007002 
 2635      00000201 
 2635      FB0E0D00 
 2635      01010101 
 2636              	.LASF16:
 2637 0000 72747469 		.ascii	"rttime_t\000"
 2637      6D655F74 
 2637      00
 2638              	.LASF172:
 2639 0009 6D656D70 		.ascii	"memp\000"
 2639      00
 2640              	.LASF53:
 2641 000e 72656164 		.ascii	"ready_list_t\000"
 2641      795F6C69 
 2641      73745F74 
 2641      00
 2642              	.LASF159:
ARM GAS  C:\Users\Luis\AppData\Local\Temp\ccg5cNY0.s 			page 48


 2643 001b 73746174 		.ascii	"stats_mem\000"
 2643      735F6D65 
 2643      6D00
 2644              	.LASF2:
 2645 0025 73697A65 		.ascii	"size_t\000"
 2645      5F7400
 2646              	.LASF111:
 2647 002c 7264796D 		.ascii	"rdymsg\000"
 2647      736700
 2648              	.LASF13:
 2649 0033 75696E74 		.ascii	"uint64_t\000"
 2649      36345F74 
 2649      00
 2650              	.LASF83:
 2651 003c 6B65726E 		.ascii	"kernel_stats\000"
 2651      656C5F73 
 2651      74617473 
 2651      00
 2652              	.LASF180:
 2653 0049 6D656D70 		.ascii	"memp_num\000"
 2653      5F6E756D 
 2653      00
 2654              	.LASF177:
 2655 0052 6D656D70 		.ascii	"memp_free\000"
 2655      5F667265 
 2655      6500
 2656              	.LASF89:
 2657 005c 706F7274 		.ascii	"port_intctx\000"
 2657      5F696E74 
 2657      63747800 
 2658              	.LASF81:
 2659 0068 76746C69 		.ascii	"vtlist\000"
 2659      737400
 2660              	.LASF175:
 2661 006f 74797065 		.ascii	"type\000"
 2661      00
 2662              	.LASF84:
 2663 0074 69646C65 		.ascii	"idle_thread_wa\000"
 2663      5F746872 
 2663      6561645F 
 2663      776100
 2664              	.LASF102:
 2665 0083 776F7273 		.ascii	"worst\000"
 2665      7400
 2666              	.LASF105:
 2667 0089 74696D65 		.ascii	"time_measurement_t\000"
 2667      5F6D6561 
 2667      73757265 
 2667      6D656E74 
 2667      5F7400
 2668              	.LASF152:
 2669 009c 63686B65 		.ascii	"chkerr\000"
 2669      727200
 2670              	.LASF14:
 2671 00a3 6C6F6E67 		.ascii	"long long unsigned int\000"
 2671      206C6F6E 
 2671      6720756E 
ARM GAS  C:\Users\Luis\AppData\Local\Temp\ccg5cNY0.s 			page 49


 2671      7369676E 
 2671      65642069 
 2672              	.LASF93:
 2673 00ba 73655F73 		.ascii	"se_state\000"
 2673      74617465 
 2673      00
 2674              	.LASF112:
 2675 00c3 65786974 		.ascii	"exitcode\000"
 2675      636F6465 
 2675      00
 2676              	.LASF144:
 2677 00cc 4D454D50 		.ascii	"MEMP_PBUF_POOL\000"
 2677      5F504255 
 2677      465F504F 
 2677      4F4C00
 2678              	.LASF82:
 2679 00db 6D61696E 		.ascii	"mainthread\000"
 2679      74687265 
 2679      616400
 2680              	.LASF135:
 2681 00e6 4D454D50 		.ascii	"MEMP_TCP_SEG\000"
 2681      5F544350 
 2681      5F534547 
 2681      00
 2682              	.LASF69:
 2683 00f3 76697274 		.ascii	"virtual_timers_list_t\000"
 2683      75616C5F 
 2683      74696D65 
 2683      72735F6C 
 2683      6973745F 
 2684              	.LASF158:
 2685 0109 63616368 		.ascii	"cachehit\000"
 2685      65686974 
 2685      00
 2686              	.LASF178:
 2687 0112 6D656D70 		.ascii	"memp_tab\000"
 2687      5F746162 
 2687      00
 2688              	.LASF173:
 2689 011b 6E657874 		.ascii	"next\000"
 2689      00
 2690              	.LASF52:
 2691 0120 63685F74 		.ascii	"ch_threads_queue\000"
 2691      68726561 
 2691      64735F71 
 2691      75657565 
 2691      00
 2692              	.LASF29:
 2693 0131 705F7072 		.ascii	"p_prio\000"
 2693      696F00
 2694              	.LASF12:
 2695 0138 6C6F6E67 		.ascii	"long long int\000"
 2695      206C6F6E 
 2695      6720696E 
 2695      7400
 2696              	.LASF1:
 2697 0146 7369676E 		.ascii	"signed char\000"
ARM GAS  C:\Users\Luis\AppData\Local\Temp\ccg5cNY0.s 			page 50


 2697      65642063 
 2697      68617200 
 2698              	.LASF117:
 2699 0152 65776D61 		.ascii	"ewmask\000"
 2699      736B00
 2700              	.LASF11:
 2701 0159 6C6F6E67 		.ascii	"long unsigned int\000"
 2701      20756E73 
 2701      69676E65 
 2701      6420696E 
 2701      7400
 2702              	.LASF44:
 2703 016b 705F6D70 		.ascii	"p_mpool\000"
 2703      6F6F6C00 
 2704              	.LASF122:
 2705 0173 6D5F7175 		.ascii	"m_queue\000"
 2705      65756500 
 2706              	.LASF113:
 2707 017b 77746F62 		.ascii	"wtobjp\000"
 2707      6A7000
 2708              	.LASF136:
 2709 0182 4D454D50 		.ascii	"MEMP_REASSDATA\000"
 2709      5F524541 
 2709      53534441 
 2709      544100
 2710              	.LASF114:
 2711 0191 77747472 		.ascii	"wttrp\000"
 2711      7000
 2712              	.LASF79:
 2713 0197 63685F73 		.ascii	"ch_system\000"
 2713      79737465 
 2713      6D00
 2714              	.LASF9:
 2715 01a1 6C6F6E67 		.ascii	"long int\000"
 2715      20696E74 
 2715      00
 2716              	.LASF131:
 2717 01aa 4D454D50 		.ascii	"MEMP_RAW_PCB\000"
 2717      5F524157 
 2717      5F504342 
 2717      00
 2718              	.LASF18:
 2719 01b7 74737461 		.ascii	"tstate_t\000"
 2719      74655F74 
 2719      00
 2720              	.LASF185:
 2721 01c0 2E2E2F2E 		.ascii	"../../ChibiOS/ext/lwip/src/core/memp.c\000"
 2721      2E2F4368 
 2721      6962694F 
 2721      532F6578 
 2721      742F6C77 
 2722              	.LASF37:
 2723 01e7 705F7265 		.ascii	"p_refs\000"
 2723      667300
 2724              	.LASF91:
 2725 01ee 73655F74 		.ascii	"se_tp\000"
 2725      7000
ARM GAS  C:\Users\Luis\AppData\Local\Temp\ccg5cNY0.s 			page 51


 2726              	.LASF150:
 2727 01f4 72656376 		.ascii	"recv\000"
 2727      00
 2728              	.LASF6:
 2729 01f9 75696E74 		.ascii	"uint16_t\000"
 2729      31365F74 
 2729      00
 2730              	.LASF162:
 2731 0202 696C6C65 		.ascii	"illegal\000"
 2731      67616C00 
 2732              	.LASF132:
 2733 020a 4D454D50 		.ascii	"MEMP_UDP_PCB\000"
 2733      5F554450 
 2733      5F504342 
 2733      00
 2734              	.LASF31:
 2735 0217 705F6E65 		.ascii	"p_newer\000"
 2735      77657200 
 2736              	.LASF119:
 2737 021f 735F7175 		.ascii	"s_queue\000"
 2737      65756500 
 2738              	.LASF95:
 2739 0227 74625F73 		.ascii	"tb_size\000"
 2739      697A6500 
 2740              	.LASF58:
 2741 022f 725F6E65 		.ascii	"r_newer\000"
 2741      77657200 
 2742              	.LASF86:
 2743 0237 72656761 		.ascii	"regarm_t\000"
 2743      726D5F74 
 2743      00
 2744              	.LASF65:
 2745 0240 76745F70 		.ascii	"vt_prev\000"
 2745      72657600 
 2746              	.LASF168:
 2747 0248 6C696E6B 		.ascii	"link\000"
 2747      00
 2748              	.LASF186:
 2749 024d 433A5C55 		.ascii	"C:\\Users\\Luis\\git\\DSP-Library-Lanin\\examples\\"
 2749      73657273 
 2749      5C4C7569 
 2749      735C6769 
 2749      745C4453 
 2750 027a 53544D33 		.ascii	"STM32F407_EMTECH-LWIP\000"
 2750      32463430 
 2750      375F454D 
 2750      54454348 
 2750      2D4C5749 
 2751              	.LASF73:
 2752 0290 63685F73 		.ascii	"ch_system_debug\000"
 2752      79737465 
 2752      6D5F6465 
 2752      62756700 
 2753              	.LASF126:
 2754 02a0 6D757465 		.ascii	"mutex_t\000"
 2754      785F7400 
 2755              	.LASF188:
ARM GAS  C:\Users\Luis\AppData\Local\Temp\ccg5cNY0.s 			page 52


 2756 02a8 6D656D70 		.ascii	"memp_malloc\000"
 2756      5F6D616C 
 2756      6C6F6300 
 2757              	.LASF76:
 2758 02b4 6C6F636B 		.ascii	"lock_cnt\000"
 2758      5F636E74 
 2758      00
 2759              	.LASF90:
 2760 02bd 73655F74 		.ascii	"se_time\000"
 2760      696D6500 
 2761              	.LASF23:
 2762 02c5 636E745F 		.ascii	"cnt_t\000"
 2762      7400
 2763              	.LASF156:
 2764 02cb 70726F74 		.ascii	"proterr\000"
 2764      65727200 
 2765              	.LASF34:
 2766 02d3 705F7374 		.ascii	"p_stklimit\000"
 2766      6B6C696D 
 2766      697400
 2767              	.LASF0:
 2768 02de 756E7369 		.ascii	"unsigned int\000"
 2768      676E6564 
 2768      20696E74 
 2768      00
 2769              	.LASF85:
 2770 02eb 73697A65 		.ascii	"sizetype\000"
 2770      74797065 
 2770      00
 2771              	.LASF115:
 2772 02f4 77747365 		.ascii	"wtsemp\000"
 2772      6D7000
 2773              	.LASF72:
 2774 02fb 73797374 		.ascii	"system_debug_t\000"
 2774      656D5F64 
 2774      65627567 
 2774      5F7400
 2775              	.LASF64:
 2776 030a 76745F6E 		.ascii	"vt_next\000"
 2776      65787400 
 2777              	.LASF46:
 2778 0312 746C7350 		.ascii	"tlsPtr\000"
 2778      747200
 2779              	.LASF106:
 2780 0319 6E5F6972 		.ascii	"n_irq\000"
 2780      7100
 2781              	.LASF133:
 2782 031f 4D454D50 		.ascii	"MEMP_TCP_PCB\000"
 2782      5F544350 
 2782      5F504342 
 2782      00
 2783              	.LASF120:
 2784 032c 735F636E 		.ascii	"s_cnt\000"
 2784      7400
 2785              	.LASF7:
 2786 0332 73686F72 		.ascii	"short unsigned int\000"
 2786      7420756E 
ARM GAS  C:\Users\Luis\AppData\Local\Temp\ccg5cNY0.s 			page 53


 2786      7369676E 
 2786      65642069 
 2786      6E7400
 2787              	.LASF110:
 2788 0345 6B65726E 		.ascii	"kernel_stats_t\000"
 2788      656C5F73 
 2788      74617473 
 2788      5F7400
 2789              	.LASF49:
 2790 0354 63685F74 		.ascii	"ch_thread\000"
 2790      68726561 
 2790      6400
 2791              	.LASF141:
 2792 035e 4D454D50 		.ascii	"MEMP_TCPIP_MSG_INPKT\000"
 2792      5F544350 
 2792      49505F4D 
 2792      53475F49 
 2792      4E504B54 
 2793              	.LASF21:
 2794 0373 6D73675F 		.ascii	"msg_t\000"
 2794      7400
 2795              	.LASF103:
 2796 0379 6C617374 		.ascii	"last\000"
 2796      00
 2797              	.LASF24:
 2798 037e 75636E74 		.ascii	"ucnt_t\000"
 2798      5F7400
 2799              	.LASF78:
 2800 0385 63685F73 		.ascii	"ch_system_t\000"
 2800      79737465 
 2800      6D5F7400 
 2801              	.LASF17:
 2802 0391 746D6F64 		.ascii	"tmode_t\000"
 2802      655F7400 
 2803              	.LASF109:
 2804 0399 6D5F6372 		.ascii	"m_crit_isr\000"
 2804      69745F69 
 2804      737200
 2805              	.LASF54:
 2806 03a4 63685F72 		.ascii	"ch_ready_list\000"
 2806      65616479 
 2806      5F6C6973 
 2806      7400
 2807              	.LASF22:
 2808 03b2 6576656E 		.ascii	"eventmask_t\000"
 2808      746D6173 
 2808      6B5F7400 
 2809              	.LASF5:
 2810 03be 73686F72 		.ascii	"short int\000"
 2810      7420696E 
 2810      7400
 2811              	.LASF164:
 2812 03c8 73746174 		.ascii	"stats_sys\000"
 2812      735F7379 
 2812      7300
 2813              	.LASF87:
 2814 03d2 73746B61 		.ascii	"stkalign_t\000"
ARM GAS  C:\Users\Luis\AppData\Local\Temp\ccg5cNY0.s 			page 54


 2814      6C69676E 
 2814      5F7400
 2815              	.LASF187:
 2816 03dd 6F73616C 		.ascii	"osalSysHalt\000"
 2816      53797348 
 2816      616C7400 
 2817              	.LASF145:
 2818 03e9 4D454D50 		.ascii	"MEMP_MAX\000"
 2818      5F4D4158 
 2818      00
 2819              	.LASF96:
 2820 03f2 74625F70 		.ascii	"tb_ptr\000"
 2820      747200
 2821              	.LASF128:
 2822 03f9 75385F74 		.ascii	"u8_t\000"
 2822      00
 2823              	.LASF15:
 2824 03fe 7274636E 		.ascii	"rtcnt_t\000"
 2824      745F7400 
 2825              	.LASF47:
 2826 0406 74687265 		.ascii	"thread_reference_t\000"
 2826      61645F72 
 2826      65666572 
 2826      656E6365 
 2826      5F7400
 2827              	.LASF70:
 2828 0419 63685F76 		.ascii	"ch_virtual_timers_list\000"
 2828      69727475 
 2828      616C5F74 
 2828      696D6572 
 2828      735F6C69 
 2829              	.LASF67:
 2830 0430 76745F66 		.ascii	"vt_func\000"
 2830      756E6300 
 2831              	.LASF94:
 2832 0438 63685F73 		.ascii	"ch_swc_event_t\000"
 2832      77635F65 
 2832      76656E74 
 2832      5F7400
 2833              	.LASF71:
 2834 0447 76745F6C 		.ascii	"vt_lasttime\000"
 2834      61737474 
 2834      696D6500 
 2835              	.LASF32:
 2836 0453 705F6F6C 		.ascii	"p_older\000"
 2836      64657200 
 2837              	.LASF57:
 2838 045b 725F6374 		.ascii	"r_ctx\000"
 2838      7800
 2839              	.LASF100:
 2840 0461 746D5F63 		.ascii	"tm_calibration_t\000"
 2840      616C6962 
 2840      72617469 
 2840      6F6E5F74 
 2840      00
 2841              	.LASF163:
 2842 0472 73746174 		.ascii	"stats_syselem\000"
ARM GAS  C:\Users\Luis\AppData\Local\Temp\ccg5cNY0.s 			page 55


 2842      735F7379 
 2842      73656C65 
 2842      6D00
 2843              	.LASF60:
 2844 0480 725F6375 		.ascii	"r_current\000"
 2844      7272656E 
 2844      7400
 2845              	.LASF59:
 2846 048a 725F6F6C 		.ascii	"r_older\000"
 2846      64657200 
 2847              	.LASF167:
 2848 0492 73746174 		.ascii	"stats_\000"
 2848      735F00
 2849              	.LASF171:
 2850 0499 69636D70 		.ascii	"icmp\000"
 2850      00
 2851              	.LASF104:
 2852 049e 63756D75 		.ascii	"cumulative\000"
 2852      6C617469 
 2852      766500
 2853              	.LASF161:
 2854 04a9 75736564 		.ascii	"used\000"
 2854      00
 2855              	.LASF166:
 2856 04ae 6D626F78 		.ascii	"mbox\000"
 2856      00
 2857              	.LASF155:
 2858 04b3 72746572 		.ascii	"rterr\000"
 2858      7200
 2859              	.LASF19:
 2860 04b9 74726566 		.ascii	"trefs_t\000"
 2860      735F7400 
 2861              	.LASF97:
 2862 04c1 74625F62 		.ascii	"tb_buffer\000"
 2862      75666665 
 2862      7200
 2863              	.LASF181:
 2864 04cb 6D656D70 		.ascii	"memp_memory\000"
 2864      5F6D656D 
 2864      6F727900 
 2865              	.LASF62:
 2866 04d7 76697274 		.ascii	"virtual_timer_t\000"
 2866      75616C5F 
 2866      74696D65 
 2866      725F7400 
 2867              	.LASF28:
 2868 04e7 705F7072 		.ascii	"p_prev\000"
 2868      657600
 2869              	.LASF146:
 2870 04ee 6D656D70 		.ascii	"memp_t\000"
 2870      5F7400
 2871              	.LASF20:
 2872 04f5 74707269 		.ascii	"tprio_t\000"
 2872      6F5F7400 
 2873              	.LASF165:
 2874 04fd 6D757465 		.ascii	"mutex\000"
 2874      7800
ARM GAS  C:\Users\Luis\AppData\Local\Temp\ccg5cNY0.s 			page 56


 2875              	.LASF107:
 2876 0503 6E5F6374 		.ascii	"n_ctxswc\000"
 2876      78737763 
 2876      00
 2877              	.LASF127:
 2878 050c 5F426F6F 		.ascii	"_Bool\000"
 2878      6C00
 2879              	.LASF8:
 2880 0512 696E7433 		.ascii	"int32_t\000"
 2880      325F7400 
 2881              	.LASF98:
 2882 051a 63685F74 		.ascii	"ch_trace_buffer_t\000"
 2882      72616365 
 2882      5F627566 
 2882      6665725F 
 2882      7400
 2883              	.LASF182:
 2884 052c 49544D5F 		.ascii	"ITM_RxBuffer\000"
 2884      52784275 
 2884      66666572 
 2884      00
 2885              	.LASF35:
 2886 0539 705F7374 		.ascii	"p_state\000"
 2886      61746500 
 2887              	.LASF42:
 2888 0541 705F6D74 		.ascii	"p_mtxlist\000"
 2888      786C6973 
 2888      7400
 2889              	.LASF154:
 2890 054b 6D656D65 		.ascii	"memerr\000"
 2890      727200
 2891              	.LASF170:
 2892 0552 69705F66 		.ascii	"ip_frag\000"
 2892      72616700 
 2893              	.LASF176:
 2894 055a 6D656D70 		.ascii	"memp_init\000"
 2894      5F696E69 
 2894      7400
 2895              	.LASF56:
 2896 0564 725F7072 		.ascii	"r_prio\000"
 2896      696F00
 2897              	.LASF151:
 2898 056b 64726F70 		.ascii	"drop\000"
 2898      00
 2899              	.LASF27:
 2900 0570 705F6E65 		.ascii	"p_next\000"
 2900      787400
 2901              	.LASF183:
 2902 0577 6C776970 		.ascii	"lwip_stats\000"
 2902      5F737461 
 2902      747300
 2903              	.LASF148:
 2904 0582 73746174 		.ascii	"stats_proto\000"
 2904      735F7072 
 2904      6F746F00 
 2905              	.LASF174:
 2906 058e 72656173 		.ascii	"reason\000"
ARM GAS  C:\Users\Luis\AppData\Local\Temp\ccg5cNY0.s 			page 57


 2906      6F6E00
 2907              	.LASF63:
 2908 0595 63685F76 		.ascii	"ch_virtual_timer\000"
 2908      69727475 
 2908      616C5F74 
 2908      696D6572 
 2908      00
 2909              	.LASF137:
 2910 05a6 4D454D50 		.ascii	"MEMP_FRAG_PBUF\000"
 2910      5F465241 
 2910      475F5042 
 2910      554600
 2911              	.LASF118:
 2912 05b5 63685F73 		.ascii	"ch_semaphore\000"
 2912      656D6170 
 2912      686F7265 
 2912      00
 2913              	.LASF41:
 2914 05c2 705F6570 		.ascii	"p_epending\000"
 2914      656E6469 
 2914      6E6700
 2915              	.LASF142:
 2916 05cd 4D454D50 		.ascii	"MEMP_SYS_TIMEOUT\000"
 2916      5F535953 
 2916      5F54494D 
 2916      454F5554 
 2916      00
 2917              	.LASF10:
 2918 05de 75696E74 		.ascii	"uint32_t\000"
 2918      33325F74 
 2918      00
 2919              	.LASF116:
 2920 05e7 77746D74 		.ascii	"wtmtxp\000"
 2920      787000
 2921              	.LASF55:
 2922 05ee 725F7175 		.ascii	"r_queue\000"
 2922      65756500 
 2923              	.LASF66:
 2924 05f6 76745F64 		.ascii	"vt_delta\000"
 2924      656C7461 
 2924      00
 2925              	.LASF50:
 2926 05ff 63685F74 		.ascii	"ch_threads_list\000"
 2926      68726561 
 2926      64735F6C 
 2926      69737400 
 2927              	.LASF45:
 2928 060f 705F7374 		.ascii	"p_stats\000"
 2928      61747300 
 2929              	.LASF140:
 2930 0617 4D454D50 		.ascii	"MEMP_TCPIP_MSG_API\000"
 2930      5F544350 
 2930      49505F4D 
 2930      53475F41 
 2930      504900
 2931              	.LASF125:
 2932 062a 63686172 		.ascii	"char\000"
ARM GAS  C:\Users\Luis\AppData\Local\Temp\ccg5cNY0.s 			page 58


 2932      00
 2933              	.LASF138:
 2934 062f 4D454D50 		.ascii	"MEMP_NETBUF\000"
 2934      5F4E4554 
 2934      42554600 
 2935              	.LASF134:
 2936 063b 4D454D50 		.ascii	"MEMP_TCP_PCB_LISTEN\000"
 2936      5F544350 
 2936      5F504342 
 2936      5F4C4953 
 2936      54454E00 
 2937              	.LASF139:
 2938 064f 4D454D50 		.ascii	"MEMP_NETCONN\000"
 2938      5F4E4554 
 2938      434F4E4E 
 2938      00
 2939              	.LASF26:
 2940 065c 74687265 		.ascii	"thread_t\000"
 2940      61645F74 
 2940      00
 2941              	.LASF101:
 2942 0665 62657374 		.ascii	"best\000"
 2942      00
 2943              	.LASF124:
 2944 066a 6D5F6E65 		.ascii	"m_next\000"
 2944      787400
 2945              	.LASF25:
 2946 0671 73797374 		.ascii	"systime_t\000"
 2946      696D655F 
 2946      7400
 2947              	.LASF43:
 2948 067b 705F7265 		.ascii	"p_realprio\000"
 2948      616C7072 
 2948      696F00
 2949              	.LASF61:
 2950 0686 76746675 		.ascii	"vtfunc_t\000"
 2950      6E635F74 
 2950      00
 2951              	.LASF157:
 2952 068f 6F707465 		.ascii	"opterr\000"
 2952      727200
 2953              	.LASF74:
 2954 0696 70616E69 		.ascii	"panic_msg\000"
 2954      635F6D73 
 2954      6700
 2955              	.LASF99:
 2956 06a0 6F666673 		.ascii	"offset\000"
 2956      657400
 2957              	.LASF179:
 2958 06a7 6D656D70 		.ascii	"memp_sizes\000"
 2958      5F73697A 
 2958      657300
 2959              	.LASF88:
 2960 06b2 636F6E74 		.ascii	"context\000"
 2960      65787400 
 2961              	.LASF4:
 2962 06ba 756E7369 		.ascii	"unsigned char\000"
ARM GAS  C:\Users\Luis\AppData\Local\Temp\ccg5cNY0.s 			page 59


 2962      676E6564 
 2962      20636861 
 2962      7200
 2963              	.LASF169:
 2964 06c8 65746861 		.ascii	"etharp\000"
 2964      727000
 2965              	.LASF184:
 2966 06cf 474E5520 		.ascii	"GNU C 4.8.3 20131129 (release) [ARM/embedded-4_8-br"
 2966      4320342E 
 2966      382E3320 
 2966      32303133 
 2966      31313239 
 2967 0702 616E6368 		.ascii	"anch revision 205641] -mcpu=cortex-m4 -mapcs-frame "
 2967      20726576 
 2967      6973696F 
 2967      6E203230 
 2967      35363431 
 2968 0735 2D6D6E6F 		.ascii	"-mno-thumb-interwork -mthumb -ggdb -O0 -falign-func"
 2968      2D746875 
 2968      6D622D69 
 2968      6E746572 
 2968      776F726B 
 2969 0768 74696F6E 		.ascii	"tions=16 -ffunction-sections -fdata-sections -fno-c"
 2969      733D3136 
 2969      202D6666 
 2969      756E6374 
 2969      696F6E2D 
 2970 079b 6F6D6D6F 		.ascii	"ommon\000"
 2970      6E00
 2971              	.LASF39:
 2972 07a1 705F6D73 		.ascii	"p_msgqueue\000"
 2972      67717565 
 2972      756500
 2973              	.LASF68:
 2974 07ac 76745F70 		.ascii	"vt_par\000"
 2974      617200
 2975              	.LASF129:
 2976 07b3 7531365F 		.ascii	"u16_t\000"
 2976      7400
 2977              	.LASF130:
 2978 07b9 6D656D5F 		.ascii	"mem_ptr_t\000"
 2978      7074725F 
 2978      7400
 2979              	.LASF147:
 2980 07c3 6D656D5F 		.ascii	"mem_size_t\000"
 2980      73697A65 
 2980      5F7400
 2981              	.LASF51:
 2982 07ce 74687265 		.ascii	"threads_queue_t\000"
 2982      6164735F 
 2982      71756575 
 2982      655F7400 
 2983              	.LASF153:
 2984 07de 6C656E65 		.ascii	"lenerr\000"
 2984      727200
 2985              	.LASF75:
 2986 07e5 6973725F 		.ascii	"isr_cnt\000"
ARM GAS  C:\Users\Luis\AppData\Local\Temp\ccg5cNY0.s 			page 60


 2986      636E7400 
 2987              	.LASF80:
 2988 07ed 726C6973 		.ascii	"rlist\000"
 2988      7400
 2989              	.LASF123:
 2990 07f3 6D5F6F77 		.ascii	"m_owner\000"
 2990      6E657200 
 2991              	.LASF3:
 2992 07fb 75696E74 		.ascii	"uint8_t\000"
 2992      385F7400 
 2993              	.LASF149:
 2994 0803 786D6974 		.ascii	"xmit\000"
 2994      00
 2995              	.LASF160:
 2996 0808 61766169 		.ascii	"avail\000"
 2996      6C00
 2997              	.LASF121:
 2998 080e 63685F6D 		.ascii	"ch_mutex\000"
 2998      75746578 
 2998      00
 2999              	.LASF33:
 3000 0817 705F6E61 		.ascii	"p_name\000"
 3000      6D6500
 3001              	.LASF48:
 3002 081e 74687265 		.ascii	"threads_list_t\000"
 3002      6164735F 
 3002      6C697374 
 3002      5F7400
 3003              	.LASF77:
 3004 082d 74726163 		.ascii	"trace_buffer\000"
 3004      655F6275 
 3004      66666572 
 3004      00
 3005              	.LASF36:
 3006 083a 705F666C 		.ascii	"p_flags\000"
 3006      61677300 
 3007              	.LASF40:
 3008 0842 705F6D73 		.ascii	"p_msg\000"
 3008      6700
 3009              	.LASF108:
 3010 0848 6D5F6372 		.ascii	"m_crit_thd\000"
 3010      69745F74 
 3010      686400
 3011              	.LASF143:
 3012 0853 4D454D50 		.ascii	"MEMP_PBUF\000"
 3012      5F504255 
 3012      4600
 3013              	.LASF92:
 3014 085d 73655F77 		.ascii	"se_wtobjp\000"
 3014      746F626A 
 3014      7000
 3015              	.LASF30:
 3016 0867 705F6374 		.ascii	"p_ctx\000"
 3016      7800
 3017              	.LASF38:
 3018 086d 705F7761 		.ascii	"p_waiting\000"
 3018      6974696E 
ARM GAS  C:\Users\Luis\AppData\Local\Temp\ccg5cNY0.s 			page 61


 3018      6700
 3019              		.ident	"GCC: (GNU Tools for ARM Embedded Processors) 4.8.3 20131129 (release) [ARM/embedded-4_8-br
ARM GAS  C:\Users\Luis\AppData\Local\Temp\ccg5cNY0.s 			page 62


DEFINED SYMBOLS
                            *ABS*:00000000 memp.c
C:\Users\Luis\AppData\Local\Temp\ccg5cNY0.s:19     .text.osalSysHalt:00000000 $t
C:\Users\Luis\AppData\Local\Temp\ccg5cNY0.s:24     .text.osalSysHalt:00000000 osalSysHalt
C:\Users\Luis\AppData\Local\Temp\ccg5cNY0.s:52     .bss.memp_tab:00000000 $d
C:\Users\Luis\AppData\Local\Temp\ccg5cNY0.s:55     .bss.memp_tab:00000000 memp_tab
C:\Users\Luis\AppData\Local\Temp\ccg5cNY0.s:58     .rodata.memp_sizes:00000000 $d
C:\Users\Luis\AppData\Local\Temp\ccg5cNY0.s:61     .rodata.memp_sizes:00000000 memp_sizes
C:\Users\Luis\AppData\Local\Temp\ccg5cNY0.s:77     .rodata.memp_num:00000000 $d
C:\Users\Luis\AppData\Local\Temp\ccg5cNY0.s:80     .rodata.memp_num:00000000 memp_num
C:\Users\Luis\AppData\Local\Temp\ccg5cNY0.s:96     .bss.memp_memory:00000000 $d
C:\Users\Luis\AppData\Local\Temp\ccg5cNY0.s:99     .bss.memp_memory:00000000 memp_memory
C:\Users\Luis\AppData\Local\Temp\ccg5cNY0.s:102    .text.memp_init:00000000 $t
C:\Users\Luis\AppData\Local\Temp\ccg5cNY0.s:108    .text.memp_init:00000000 memp_init
C:\Users\Luis\AppData\Local\Temp\ccg5cNY0.s:252    .text.memp_init:000000e0 $d
C:\Users\Luis\AppData\Local\Temp\ccg5cNY0.s:261    .rodata:00000000 $d
C:\Users\Luis\AppData\Local\Temp\ccg5cNY0.s:268    .text.memp_malloc:00000000 $t
C:\Users\Luis\AppData\Local\Temp\ccg5cNY0.s:274    .text.memp_malloc:00000000 memp_malloc
C:\Users\Luis\AppData\Local\Temp\ccg5cNY0.s:422    .text.memp_malloc:000000f4 $d
C:\Users\Luis\AppData\Local\Temp\ccg5cNY0.s:434    .text.memp_free:00000000 $t
C:\Users\Luis\AppData\Local\Temp\ccg5cNY0.s:440    .text.memp_free:00000000 memp_free
C:\Users\Luis\AppData\Local\Temp\ccg5cNY0.s:517    .text.memp_free:0000006c $d
                     .debug_frame:00000010 $d
C:\Users\Luis\AppData\Local\Temp\ccg5cNY0.s:260    .text.memp_init:000000f4 $t
C:\Users\Luis\AppData\Local\Temp\ccg5cNY0.s:429    .text.memp_malloc:00000104 $t
C:\Users\Luis\AppData\Local\Temp\ccg5cNY0.s:523    .text.memp_free:00000078 $t

UNDEFINED SYMBOLS
chSysHalt
lwip_stats
