ARM GAS  C:\Users\Luis\AppData\Local\Temp\ccRnH3nf.s 			page 1


   1              		.syntax unified
   2              		.cpu cortex-m4
   3              		.fpu softvfp
   4              		.eabi_attribute 20, 1
   5              		.eabi_attribute 21, 1
   6              		.eabi_attribute 23, 3
   7              		.eabi_attribute 24, 1
   8              		.eabi_attribute 25, 1
   9              		.eabi_attribute 26, 1
  10              		.eabi_attribute 30, 6
  11              		.eabi_attribute 34, 1
  12              		.eabi_attribute 18, 4
  13              		.thumb
  14              		.file	"netif.c"
  15              		.text
  16              	.Ltext0:
  17              		.cfi_sections	.debug_frame
  18              		.section	.text.osalSysHalt,"ax",%progbits
  19              		.align	2
  20              		.p2align 4,,15
  21              		.thumb
  22              		.thumb_func
  23              		.type	osalSysHalt, %function
  24              	osalSysHalt:
  25              	.LFB230:
  26              		.file 1 "../../ChibiOS/os/hal/osal/rt/osal.h"
  27              		.loc 1 460 0
  28              		.cfi_startproc
  29              		@ args = 0, pretend = 0, frame = 8
  30              		@ frame_needed = 1, uses_anonymous_args = 0
  31 0000 80B5     		push	{r7, lr}
  32              		.cfi_def_cfa_offset 8
  33              		.cfi_offset 7, -8
  34              		.cfi_offset 14, -4
  35 0002 82B0     		sub	sp, sp, #8
  36              		.cfi_def_cfa_offset 16
  37 0004 00AF     		add	r7, sp, #0
  38              		.cfi_def_cfa_register 7
  39 0006 7860     		str	r0, [r7, #4]
  40              		.loc 1 462 0
  41 0008 7868     		ldr	r0, [r7, #4]
  42 000a FFF7FEFF 		bl	chSysHalt
  43              		.loc 1 463 0
  44 000e 0837     		adds	r7, r7, #8
  45 0010 BD46     		mov	sp, r7
  46              		@ sp needed
  47 0012 80BD     		pop	{r7, pc}
  48              		.cfi_endproc
  49              	.LFE230:
  50              		.size	osalSysHalt, .-osalSysHalt
  51              		.global	netif_list
  52 0014 AFF30080 		.section	.bss.netif_list,"aw",%nobits
  52      AFF30080 
  52      AFF30080 
  53              		.align	2
  54              		.type	netif_list, %object
  55              		.size	netif_list, 4
ARM GAS  C:\Users\Luis\AppData\Local\Temp\ccRnH3nf.s 			page 2


  56              	netif_list:
  57 0000 00000000 		.space	4
  58              		.global	netif_default
  59              		.section	.bss.netif_default,"aw",%nobits
  60              		.align	2
  61              		.type	netif_default, %object
  62              		.size	netif_default, 4
  63              	netif_default:
  64 0000 00000000 		.space	4
  65              		.section	.bss.netif_num,"aw",%nobits
  66              		.type	netif_num, %object
  67              		.size	netif_num, 1
  68              	netif_num:
  69 0000 00       		.space	1
  70              		.section	.text.netif_init,"ax",%progbits
  71              		.align	2
  72              		.p2align 4,,15
  73              		.global	netif_init
  74              		.thumb
  75              		.thumb_func
  76              		.type	netif_init, %function
  77              	netif_init:
  78              	.LFB260:
  79              		.file 2 "../../ChibiOS/ext/lwip/src/core/netif.c"
  80              		.loc 2 107 0
  81              		.cfi_startproc
  82              		@ args = 0, pretend = 0, frame = 0
  83              		@ frame_needed = 1, uses_anonymous_args = 0
  84              		@ link register save eliminated.
  85 0000 80B4     		push	{r7}
  86              		.cfi_def_cfa_offset 4
  87              		.cfi_offset 7, -4
  88 0002 00AF     		add	r7, sp, #0
  89              		.cfi_def_cfa_register 7
  90              		.loc 2 122 0
  91 0004 BD46     		mov	sp, r7
  92              		@ sp needed
  93 0006 5DF8047B 		ldr	r7, [sp], #4
  94 000a 7047     		bx	lr
  95              		.cfi_endproc
  96              	.LFE260:
  97              		.size	netif_init, .-netif_init
  98 000c AFF30080 		.section	.rodata
  99              		.align	2
 100              	.LC0:
 101 0000 4E6F2069 		.ascii	"No init function given\000"
 101      6E697420 
 101      66756E63 
 101      74696F6E 
 101      20676976 
 102 0017 00       		.section	.text.netif_add,"ax",%progbits
 103              		.align	2
 104              		.p2align 4,,15
 105              		.global	netif_add
 106              		.thumb
 107              		.thumb_func
 108              		.type	netif_add, %function
ARM GAS  C:\Users\Luis\AppData\Local\Temp\ccRnH3nf.s 			page 3


 109              	netif_add:
 110              	.LFB261:
 111              		.loc 2 141 0
 112              		.cfi_startproc
 113              		@ args = 12, pretend = 0, frame = 16
 114              		@ frame_needed = 1, uses_anonymous_args = 0
 115 0000 80B5     		push	{r7, lr}
 116              		.cfi_def_cfa_offset 8
 117              		.cfi_offset 7, -8
 118              		.cfi_offset 14, -4
 119 0002 84B0     		sub	sp, sp, #16
 120              		.cfi_def_cfa_offset 24
 121 0004 00AF     		add	r7, sp, #0
 122              		.cfi_def_cfa_register 7
 123 0006 F860     		str	r0, [r7, #12]
 124 0008 B960     		str	r1, [r7, #8]
 125 000a 7A60     		str	r2, [r7, #4]
 126 000c 3B60     		str	r3, [r7]
 127              		.loc 2 143 0
 128 000e FB69     		ldr	r3, [r7, #28]
 129 0010 002B     		cmp	r3, #0
 130 0012 02D1     		bne	.L4
 131              		.loc 2 143 0 is_stmt 0 discriminator 1
 132 0014 1C48     		ldr	r0, .L7
 133 0016 FFF7FEFF 		bl	osalSysHalt
 134              	.L4:
 135              		.loc 2 146 0 is_stmt 1
 136 001a FB68     		ldr	r3, [r7, #12]
 137 001c 0022     		movs	r2, #0
 138 001e 5A60     		str	r2, [r3, #4]
 139              		.loc 2 147 0
 140 0020 FB68     		ldr	r3, [r7, #12]
 141 0022 0022     		movs	r2, #0
 142 0024 9A60     		str	r2, [r3, #8]
 143              		.loc 2 148 0
 144 0026 FB68     		ldr	r3, [r7, #12]
 145 0028 0022     		movs	r2, #0
 146 002a DA60     		str	r2, [r3, #12]
 147              		.loc 2 149 0
 148 002c FB68     		ldr	r3, [r7, #12]
 149 002e 0022     		movs	r2, #0
 150 0030 83F82920 		strb	r2, [r3, #41]
 151              		.loc 2 173 0
 152 0034 FB68     		ldr	r3, [r7, #12]
 153 0036 BA69     		ldr	r2, [r7, #24]
 154 0038 DA61     		str	r2, [r3, #28]
 155              		.loc 2 174 0
 156 003a 144B     		ldr	r3, .L7+4
 157 003c 1B78     		ldrb	r3, [r3]	@ zero_extendqisi2
 158 003e 5A1C     		adds	r2, r3, #1
 159 0040 D1B2     		uxtb	r1, r2
 160 0042 124A     		ldr	r2, .L7+4
 161 0044 1170     		strb	r1, [r2]
 162 0046 FA68     		ldr	r2, [r7, #12]
 163 0048 82F82C30 		strb	r3, [r2, #44]
 164              		.loc 2 175 0
 165 004c FB68     		ldr	r3, [r7, #12]
ARM GAS  C:\Users\Luis\AppData\Local\Temp\ccRnH3nf.s 			page 4


 166 004e 3A6A     		ldr	r2, [r7, #32]
 167 0050 1A61     		str	r2, [r3, #16]
 168              		.loc 2 181 0
 169 0052 F868     		ldr	r0, [r7, #12]
 170 0054 B968     		ldr	r1, [r7, #8]
 171 0056 7A68     		ldr	r2, [r7, #4]
 172 0058 3B68     		ldr	r3, [r7]
 173 005a FFF7FEFF 		bl	netif_set_addr
 174              		.loc 2 184 0
 175 005e FB69     		ldr	r3, [r7, #28]
 176 0060 F868     		ldr	r0, [r7, #12]
 177 0062 9847     		blx	r3
 178 0064 0346     		mov	r3, r0
 179 0066 002B     		cmp	r3, #0
 180 0068 01D0     		beq	.L5
 181              		.loc 2 185 0
 182 006a 0023     		movs	r3, #0
 183 006c 07E0     		b	.L6
 184              	.L5:
 185              		.loc 2 189 0
 186 006e 084B     		ldr	r3, .L7+8
 187 0070 1A68     		ldr	r2, [r3]
 188 0072 FB68     		ldr	r3, [r7, #12]
 189 0074 1A60     		str	r2, [r3]
 190              		.loc 2 190 0
 191 0076 064B     		ldr	r3, .L7+8
 192 0078 FA68     		ldr	r2, [r7, #12]
 193 007a 1A60     		str	r2, [r3]
 194              		.loc 2 208 0
 195 007c FB68     		ldr	r3, [r7, #12]
 196              	.L6:
 197              		.loc 2 209 0
 198 007e 1846     		mov	r0, r3
 199 0080 1037     		adds	r7, r7, #16
 200 0082 BD46     		mov	sp, r7
 201              		@ sp needed
 202 0084 80BD     		pop	{r7, pc}
 203              	.L8:
 204 0086 00BF     		.align	2
 205              	.L7:
 206 0088 00000000 		.word	.LC0
 207 008c 00000000 		.word	netif_num
 208 0090 00000000 		.word	netif_list
 209              		.cfi_endproc
 210              	.LFE261:
 211              		.size	netif_add, .-netif_add
 212 0094 AFF30080 		.section	.text.netif_set_addr,"ax",%progbits
 212      AFF30080 
 212      AFF30080 
 213              		.align	2
 214              		.p2align 4,,15
 215              		.global	netif_set_addr
 216              		.thumb
 217              		.thumb_func
 218              		.type	netif_set_addr, %function
 219              	netif_set_addr:
 220              	.LFB262:
ARM GAS  C:\Users\Luis\AppData\Local\Temp\ccRnH3nf.s 			page 5


 221              		.loc 2 223 0
 222              		.cfi_startproc
 223              		@ args = 0, pretend = 0, frame = 16
 224              		@ frame_needed = 1, uses_anonymous_args = 0
 225 0000 80B5     		push	{r7, lr}
 226              		.cfi_def_cfa_offset 8
 227              		.cfi_offset 7, -8
 228              		.cfi_offset 14, -4
 229 0002 84B0     		sub	sp, sp, #16
 230              		.cfi_def_cfa_offset 24
 231 0004 00AF     		add	r7, sp, #0
 232              		.cfi_def_cfa_register 7
 233 0006 F860     		str	r0, [r7, #12]
 234 0008 B960     		str	r1, [r7, #8]
 235 000a 7A60     		str	r2, [r7, #4]
 236 000c 3B60     		str	r3, [r7]
 237              		.loc 2 224 0
 238 000e F868     		ldr	r0, [r7, #12]
 239 0010 B968     		ldr	r1, [r7, #8]
 240 0012 FFF7FEFF 		bl	netif_set_ipaddr
 241              		.loc 2 225 0
 242 0016 F868     		ldr	r0, [r7, #12]
 243 0018 7968     		ldr	r1, [r7, #4]
 244 001a FFF7FEFF 		bl	netif_set_netmask
 245              		.loc 2 226 0
 246 001e F868     		ldr	r0, [r7, #12]
 247 0020 3968     		ldr	r1, [r7]
 248 0022 FFF7FEFF 		bl	netif_set_gw
 249              		.loc 2 227 0
 250 0026 1037     		adds	r7, r7, #16
 251 0028 BD46     		mov	sp, r7
 252              		@ sp needed
 253 002a 80BD     		pop	{r7, pc}
 254              		.cfi_endproc
 255              	.LFE262:
 256              		.size	netif_set_addr, .-netif_set_addr
 257              		.section	.text.netif_remove,"ax",%progbits
 258              		.align	2
 259              		.p2align 4,,15
 260              		.global	netif_remove
 261              		.thumb
 262              		.thumb_func
 263              		.type	netif_remove, %function
 264              	netif_remove:
 265              	.LFB263:
 266              		.loc 2 236 0
 267              		.cfi_startproc
 268              		@ args = 0, pretend = 0, frame = 16
 269              		@ frame_needed = 1, uses_anonymous_args = 0
 270 0000 80B5     		push	{r7, lr}
 271              		.cfi_def_cfa_offset 8
 272              		.cfi_offset 7, -8
 273              		.cfi_offset 14, -4
 274 0002 84B0     		sub	sp, sp, #16
 275              		.cfi_def_cfa_offset 24
 276 0004 00AF     		add	r7, sp, #0
 277              		.cfi_def_cfa_register 7
ARM GAS  C:\Users\Luis\AppData\Local\Temp\ccRnH3nf.s 			page 6


 278 0006 7860     		str	r0, [r7, #4]
 279              		.loc 2 237 0
 280 0008 7B68     		ldr	r3, [r7, #4]
 281 000a 002B     		cmp	r3, #0
 282 000c 00D1     		bne	.L11
 283              		.loc 2 238 0
 284 000e 33E0     		b	.L10
 285              	.L11:
 286              		.loc 2 247 0
 287 0010 7B68     		ldr	r3, [r7, #4]
 288 0012 93F82930 		ldrb	r3, [r3, #41]	@ zero_extendqisi2
 289 0016 03F00103 		and	r3, r3, #1
 290 001a 002B     		cmp	r3, #0
 291 001c 02D0     		beq	.L13
 292              		.loc 2 249 0
 293 001e 7868     		ldr	r0, [r7, #4]
 294 0020 FFF7FEFF 		bl	netif_set_down
 295              	.L13:
 296              		.loc 2 255 0
 297 0024 164B     		ldr	r3, .L20
 298 0026 1A68     		ldr	r2, [r3]
 299 0028 7B68     		ldr	r3, [r7, #4]
 300 002a 9A42     		cmp	r2, r3
 301 002c 04D1     		bne	.L14
 302              		.loc 2 256 0
 303 002e 7B68     		ldr	r3, [r7, #4]
 304 0030 1A68     		ldr	r2, [r3]
 305 0032 134B     		ldr	r3, .L20
 306 0034 1A60     		str	r2, [r3]
 307 0036 17E0     		b	.L15
 308              	.L14:
 309              	.LBB2:
 310              		.loc 2 260 0
 311 0038 114B     		ldr	r3, .L20
 312 003a 1B68     		ldr	r3, [r3]
 313 003c FB60     		str	r3, [r7, #12]
 314 003e 0CE0     		b	.L16
 315              	.L19:
 316              		.loc 2 261 0
 317 0040 FB68     		ldr	r3, [r7, #12]
 318 0042 1A68     		ldr	r2, [r3]
 319 0044 7B68     		ldr	r3, [r7, #4]
 320 0046 9A42     		cmp	r2, r3
 321 0048 04D1     		bne	.L17
 322              		.loc 2 262 0
 323 004a 7B68     		ldr	r3, [r7, #4]
 324 004c 1A68     		ldr	r2, [r3]
 325 004e FB68     		ldr	r3, [r7, #12]
 326 0050 1A60     		str	r2, [r3]
 327              		.loc 2 263 0
 328 0052 05E0     		b	.L18
 329              	.L17:
 330              		.loc 2 260 0
 331 0054 FB68     		ldr	r3, [r7, #12]
 332 0056 1B68     		ldr	r3, [r3]
 333 0058 FB60     		str	r3, [r7, #12]
 334              	.L16:
ARM GAS  C:\Users\Luis\AppData\Local\Temp\ccRnH3nf.s 			page 7


 335              		.loc 2 260 0 is_stmt 0 discriminator 1
 336 005a FB68     		ldr	r3, [r7, #12]
 337 005c 002B     		cmp	r3, #0
 338 005e EFD1     		bne	.L19
 339              	.L18:
 340              		.loc 2 266 0 is_stmt 1
 341 0060 FB68     		ldr	r3, [r7, #12]
 342 0062 002B     		cmp	r3, #0
 343 0064 00D1     		bne	.L15
 344              		.loc 2 267 0
 345 0066 07E0     		b	.L10
 346              	.L15:
 347              	.LBE2:
 348              		.loc 2 271 0
 349 0068 064B     		ldr	r3, .L20+4
 350 006a 1A68     		ldr	r2, [r3]
 351 006c 7B68     		ldr	r3, [r7, #4]
 352 006e 9A42     		cmp	r2, r3
 353 0070 02D1     		bne	.L10
 354              		.loc 2 273 0
 355 0072 0020     		movs	r0, #0
 356 0074 FFF7FEFF 		bl	netif_set_default
 357              	.L10:
 358              		.loc 2 281 0
 359 0078 1037     		adds	r7, r7, #16
 360 007a BD46     		mov	sp, r7
 361              		@ sp needed
 362 007c 80BD     		pop	{r7, pc}
 363              	.L21:
 364 007e 00BF     		.align	2
 365              	.L20:
 366 0080 00000000 		.word	netif_list
 367 0084 00000000 		.word	netif_default
 368              		.cfi_endproc
 369              	.LFE263:
 370              		.size	netif_remove, .-netif_remove
 371 0088 AFF30080 		.section	.text.netif_find,"ax",%progbits
 371      AFF30080 
 372              		.align	2
 373              		.p2align 4,,15
 374              		.global	netif_find
 375              		.thumb
 376              		.thumb_func
 377              		.type	netif_find, %function
 378              	netif_find:
 379              	.LFB264:
 380              		.loc 2 291 0
 381              		.cfi_startproc
 382              		@ args = 0, pretend = 0, frame = 16
 383              		@ frame_needed = 1, uses_anonymous_args = 0
 384              		@ link register save eliminated.
 385 0000 80B4     		push	{r7}
 386              		.cfi_def_cfa_offset 4
 387              		.cfi_offset 7, -4
 388 0002 85B0     		sub	sp, sp, #20
 389              		.cfi_def_cfa_offset 24
 390 0004 00AF     		add	r7, sp, #0
ARM GAS  C:\Users\Luis\AppData\Local\Temp\ccRnH3nf.s 			page 8


 391              		.cfi_def_cfa_register 7
 392 0006 7860     		str	r0, [r7, #4]
 393              		.loc 2 295 0
 394 0008 7B68     		ldr	r3, [r7, #4]
 395 000a 002B     		cmp	r3, #0
 396 000c 01D1     		bne	.L23
 397              		.loc 2 296 0
 398 000e 0023     		movs	r3, #0
 399 0010 26E0     		b	.L24
 400              	.L23:
 401              		.loc 2 299 0
 402 0012 7B68     		ldr	r3, [r7, #4]
 403 0014 0233     		adds	r3, r3, #2
 404 0016 1B78     		ldrb	r3, [r3]	@ zero_extendqisi2
 405 0018 303B     		subs	r3, r3, #48
 406 001a FB72     		strb	r3, [r7, #11]
 407              		.loc 2 301 0
 408 001c 134B     		ldr	r3, .L28
 409 001e 1B68     		ldr	r3, [r3]
 410 0020 FB60     		str	r3, [r7, #12]
 411 0022 19E0     		b	.L25
 412              	.L27:
 413              		.loc 2 302 0
 414 0024 FB68     		ldr	r3, [r7, #12]
 415 0026 93F82C30 		ldrb	r3, [r3, #44]	@ zero_extendqisi2
 416 002a FA7A     		ldrb	r2, [r7, #11]	@ zero_extendqisi2
 417 002c 9A42     		cmp	r2, r3
 418 002e 10D1     		bne	.L26
 419              		.loc 2 303 0 discriminator 1
 420 0030 7B68     		ldr	r3, [r7, #4]
 421 0032 1A78     		ldrb	r2, [r3]	@ zero_extendqisi2
 422 0034 FB68     		ldr	r3, [r7, #12]
 423 0036 93F82A30 		ldrb	r3, [r3, #42]	@ zero_extendqisi2
 424              		.loc 2 302 0 discriminator 1
 425 003a 9A42     		cmp	r2, r3
 426 003c 09D1     		bne	.L26
 427              		.loc 2 304 0
 428 003e 7B68     		ldr	r3, [r7, #4]
 429 0040 0133     		adds	r3, r3, #1
 430 0042 1A78     		ldrb	r2, [r3]	@ zero_extendqisi2
 431 0044 FB68     		ldr	r3, [r7, #12]
 432 0046 93F82B30 		ldrb	r3, [r3, #43]	@ zero_extendqisi2
 433              		.loc 2 303 0
 434 004a 9A42     		cmp	r2, r3
 435 004c 01D1     		bne	.L26
 436              		.loc 2 306 0
 437 004e FB68     		ldr	r3, [r7, #12]
 438 0050 06E0     		b	.L24
 439              	.L26:
 440              		.loc 2 301 0
 441 0052 FB68     		ldr	r3, [r7, #12]
 442 0054 1B68     		ldr	r3, [r3]
 443 0056 FB60     		str	r3, [r7, #12]
 444              	.L25:
 445              		.loc 2 301 0 is_stmt 0 discriminator 1
 446 0058 FB68     		ldr	r3, [r7, #12]
 447 005a 002B     		cmp	r3, #0
ARM GAS  C:\Users\Luis\AppData\Local\Temp\ccRnH3nf.s 			page 9


 448 005c E2D1     		bne	.L27
 449              		.loc 2 310 0 is_stmt 1
 450 005e 0023     		movs	r3, #0
 451              	.L24:
 452              		.loc 2 311 0
 453 0060 1846     		mov	r0, r3
 454 0062 1437     		adds	r7, r7, #20
 455 0064 BD46     		mov	sp, r7
 456              		@ sp needed
 457 0066 5DF8047B 		ldr	r7, [sp], #4
 458 006a 7047     		bx	lr
 459              	.L29:
 460              		.align	2
 461              	.L28:
 462 006c 00000000 		.word	netif_list
 463              		.cfi_endproc
 464              	.LFE264:
 465              		.size	netif_find, .-netif_find
 466              		.section	.text.netif_set_ipaddr,"ax",%progbits
 467              		.align	2
 468              		.p2align 4,,15
 469              		.global	netif_set_ipaddr
 470              		.thumb
 471              		.thumb_func
 472              		.type	netif_set_ipaddr, %function
 473              	netif_set_ipaddr:
 474              	.LFB265:
 475              		.loc 2 324 0
 476              		.cfi_startproc
 477              		@ args = 0, pretend = 0, frame = 24
 478              		@ frame_needed = 1, uses_anonymous_args = 0
 479 0000 80B5     		push	{r7, lr}
 480              		.cfi_def_cfa_offset 8
 481              		.cfi_offset 7, -8
 482              		.cfi_offset 14, -4
 483 0002 86B0     		sub	sp, sp, #24
 484              		.cfi_def_cfa_offset 32
 485 0004 00AF     		add	r7, sp, #0
 486              		.cfi_def_cfa_register 7
 487 0006 7860     		str	r0, [r7, #4]
 488 0008 3960     		str	r1, [r7]
 489              		.loc 2 332 0
 490 000a 3B68     		ldr	r3, [r7]
 491 000c 002B     		cmp	r3, #0
 492 000e 3ED0     		beq	.L31
 493              		.loc 2 332 0 is_stmt 0 discriminator 1
 494 0010 3B68     		ldr	r3, [r7]
 495 0012 1A68     		ldr	r2, [r3]
 496 0014 7B68     		ldr	r3, [r7, #4]
 497 0016 5B68     		ldr	r3, [r3, #4]
 498 0018 9A42     		cmp	r2, r3
 499 001a 38D0     		beq	.L31
 500              		.loc 2 335 0 is_stmt 1
 501 001c 224B     		ldr	r3, .L42
 502 001e 1B68     		ldr	r3, [r3]
 503 0020 7B61     		str	r3, [r7, #20]
 504              		.loc 2 336 0
ARM GAS  C:\Users\Luis\AppData\Local\Temp\ccRnH3nf.s 			page 10


 505 0022 11E0     		b	.L32
 506              	.L34:
 507              		.loc 2 338 0
 508 0024 7B69     		ldr	r3, [r7, #20]
 509 0026 1A68     		ldr	r2, [r3]
 510 0028 7B68     		ldr	r3, [r7, #4]
 511 002a 5B68     		ldr	r3, [r3, #4]
 512 002c 9A42     		cmp	r2, r3
 513 002e 08D1     		bne	.L33
 514              	.LBB3:
 515              		.loc 2 345 0
 516 0030 7B69     		ldr	r3, [r7, #20]
 517 0032 DB68     		ldr	r3, [r3, #12]
 518 0034 FB60     		str	r3, [r7, #12]
 519              		.loc 2 347 0
 520 0036 7869     		ldr	r0, [r7, #20]
 521 0038 FFF7FEFF 		bl	tcp_abort
 522              		.loc 2 348 0
 523 003c FB68     		ldr	r3, [r7, #12]
 524 003e 7B61     		str	r3, [r7, #20]
 525              	.LBE3:
 526 0040 02E0     		b	.L32
 527              	.L33:
 528              		.loc 2 350 0
 529 0042 7B69     		ldr	r3, [r7, #20]
 530 0044 DB68     		ldr	r3, [r3, #12]
 531 0046 7B61     		str	r3, [r7, #20]
 532              	.L32:
 533              		.loc 2 336 0 discriminator 1
 534 0048 7B69     		ldr	r3, [r7, #20]
 535 004a 002B     		cmp	r3, #0
 536 004c EAD1     		bne	.L34
 537              		.loc 2 353 0
 538 004e 174B     		ldr	r3, .L42+4
 539 0050 1B68     		ldr	r3, [r3]
 540 0052 3B61     		str	r3, [r7, #16]
 541 0054 18E0     		b	.L35
 542              	.L39:
 543              		.loc 2 355 0
 544 0056 3B69     		ldr	r3, [r7, #16]
 545 0058 002B     		cmp	r3, #0
 546 005a 12D0     		beq	.L36
 547              		.loc 2 355 0 is_stmt 0 discriminator 1
 548 005c 3B69     		ldr	r3, [r7, #16]
 549 005e 1B68     		ldr	r3, [r3]
 550 0060 002B     		cmp	r3, #0
 551 0062 0ED0     		beq	.L36
 552              		.loc 2 356 0 is_stmt 1 discriminator 1
 553 0064 3B69     		ldr	r3, [r7, #16]
 554 0066 1A68     		ldr	r2, [r3]
 555 0068 7B68     		ldr	r3, [r7, #4]
 556 006a 5B68     		ldr	r3, [r3, #4]
 557              		.loc 2 355 0 discriminator 1
 558 006c 9A42     		cmp	r2, r3
 559 006e 08D1     		bne	.L36
 560              		.loc 2 359 0
 561 0070 3B68     		ldr	r3, [r7]
ARM GAS  C:\Users\Luis\AppData\Local\Temp\ccRnH3nf.s 			page 11


 562 0072 002B     		cmp	r3, #0
 563 0074 02D0     		beq	.L37
 564              		.loc 2 359 0 is_stmt 0 discriminator 1
 565 0076 3B68     		ldr	r3, [r7]
 566 0078 1B68     		ldr	r3, [r3]
 567 007a 00E0     		b	.L38
 568              	.L37:
 569              		.loc 2 359 0 discriminator 2
 570 007c 0023     		movs	r3, #0
 571              	.L38:
 572              		.loc 2 359 0 discriminator 3
 573 007e 3A69     		ldr	r2, [r7, #16]
 574 0080 1360     		str	r3, [r2]
 575              	.L36:
 576              		.loc 2 353 0 is_stmt 1
 577 0082 3B69     		ldr	r3, [r7, #16]
 578 0084 DB68     		ldr	r3, [r3, #12]
 579 0086 3B61     		str	r3, [r7, #16]
 580              	.L35:
 581              		.loc 2 353 0 is_stmt 0 discriminator 1
 582 0088 3B69     		ldr	r3, [r7, #16]
 583 008a 002B     		cmp	r3, #0
 584 008c E3D1     		bne	.L39
 585              	.L31:
 586              		.loc 2 367 0 is_stmt 1
 587 008e 3B68     		ldr	r3, [r7]
 588 0090 002B     		cmp	r3, #0
 589 0092 02D0     		beq	.L40
 590              		.loc 2 367 0 is_stmt 0 discriminator 1
 591 0094 3B68     		ldr	r3, [r7]
 592 0096 1B68     		ldr	r3, [r3]
 593 0098 00E0     		b	.L41
 594              	.L40:
 595              		.loc 2 367 0 discriminator 2
 596 009a 0023     		movs	r3, #0
 597              	.L41:
 598              		.loc 2 367 0 discriminator 3
 599 009c 7A68     		ldr	r2, [r7, #4]
 600 009e 5360     		str	r3, [r2, #4]
 601              		.loc 2 377 0 is_stmt 1 discriminator 3
 602 00a0 1837     		adds	r7, r7, #24
 603 00a2 BD46     		mov	sp, r7
 604              		@ sp needed
 605 00a4 80BD     		pop	{r7, pc}
 606              	.L43:
 607 00a6 00BF     		.align	2
 608              	.L42:
 609 00a8 00000000 		.word	tcp_active_pcbs
 610 00ac 00000000 		.word	tcp_listen_pcbs
 611              		.cfi_endproc
 612              	.LFE265:
 613              		.size	netif_set_ipaddr, .-netif_set_ipaddr
 614              		.section	.text.netif_set_gw,"ax",%progbits
 615              		.align	2
 616              		.p2align 4,,15
 617              		.global	netif_set_gw
 618              		.thumb
ARM GAS  C:\Users\Luis\AppData\Local\Temp\ccRnH3nf.s 			page 12


 619              		.thumb_func
 620              		.type	netif_set_gw, %function
 621              	netif_set_gw:
 622              	.LFB266:
 623              		.loc 2 389 0
 624              		.cfi_startproc
 625              		@ args = 0, pretend = 0, frame = 8
 626              		@ frame_needed = 1, uses_anonymous_args = 0
 627              		@ link register save eliminated.
 628 0000 80B4     		push	{r7}
 629              		.cfi_def_cfa_offset 4
 630              		.cfi_offset 7, -4
 631 0002 83B0     		sub	sp, sp, #12
 632              		.cfi_def_cfa_offset 16
 633 0004 00AF     		add	r7, sp, #0
 634              		.cfi_def_cfa_register 7
 635 0006 7860     		str	r0, [r7, #4]
 636 0008 3960     		str	r1, [r7]
 637              		.loc 2 390 0
 638 000a 3B68     		ldr	r3, [r7]
 639 000c 002B     		cmp	r3, #0
 640 000e 02D0     		beq	.L45
 641              		.loc 2 390 0 is_stmt 0 discriminator 1
 642 0010 3B68     		ldr	r3, [r7]
 643 0012 1B68     		ldr	r3, [r3]
 644 0014 00E0     		b	.L46
 645              	.L45:
 646              		.loc 2 390 0 discriminator 2
 647 0016 0023     		movs	r3, #0
 648              	.L46:
 649              		.loc 2 390 0 discriminator 3
 650 0018 7A68     		ldr	r2, [r7, #4]
 651 001a D360     		str	r3, [r2, #12]
 652              		.loc 2 397 0 is_stmt 1 discriminator 3
 653 001c 0C37     		adds	r7, r7, #12
 654 001e BD46     		mov	sp, r7
 655              		@ sp needed
 656 0020 5DF8047B 		ldr	r7, [sp], #4
 657 0024 7047     		bx	lr
 658              		.cfi_endproc
 659              	.LFE266:
 660              		.size	netif_set_gw, .-netif_set_gw
 661 0026 00BFAFF3 		.section	.text.netif_set_netmask,"ax",%progbits
 661      0080AFF3 
 661      0080
 662              		.align	2
 663              		.p2align 4,,15
 664              		.global	netif_set_netmask
 665              		.thumb
 666              		.thumb_func
 667              		.type	netif_set_netmask, %function
 668              	netif_set_netmask:
 669              	.LFB267:
 670              		.loc 2 410 0
 671              		.cfi_startproc
 672              		@ args = 0, pretend = 0, frame = 8
 673              		@ frame_needed = 1, uses_anonymous_args = 0
ARM GAS  C:\Users\Luis\AppData\Local\Temp\ccRnH3nf.s 			page 13


 674              		@ link register save eliminated.
 675 0000 80B4     		push	{r7}
 676              		.cfi_def_cfa_offset 4
 677              		.cfi_offset 7, -4
 678 0002 83B0     		sub	sp, sp, #12
 679              		.cfi_def_cfa_offset 16
 680 0004 00AF     		add	r7, sp, #0
 681              		.cfi_def_cfa_register 7
 682 0006 7860     		str	r0, [r7, #4]
 683 0008 3960     		str	r1, [r7]
 684              		.loc 2 413 0
 685 000a 3B68     		ldr	r3, [r7]
 686 000c 002B     		cmp	r3, #0
 687 000e 02D0     		beq	.L48
 688              		.loc 2 413 0 is_stmt 0 discriminator 1
 689 0010 3B68     		ldr	r3, [r7]
 690 0012 1B68     		ldr	r3, [r3]
 691 0014 00E0     		b	.L49
 692              	.L48:
 693              		.loc 2 413 0 discriminator 2
 694 0016 0023     		movs	r3, #0
 695              	.L49:
 696              		.loc 2 413 0 discriminator 3
 697 0018 7A68     		ldr	r2, [r7, #4]
 698 001a 9360     		str	r3, [r2, #8]
 699              		.loc 2 421 0 is_stmt 1 discriminator 3
 700 001c 0C37     		adds	r7, r7, #12
 701 001e BD46     		mov	sp, r7
 702              		@ sp needed
 703 0020 5DF8047B 		ldr	r7, [sp], #4
 704 0024 7047     		bx	lr
 705              		.cfi_endproc
 706              	.LFE267:
 707              		.size	netif_set_netmask, .-netif_set_netmask
 708 0026 00BFAFF3 		.section	.text.netif_set_default,"ax",%progbits
 708      0080AFF3 
 708      0080
 709              		.align	2
 710              		.p2align 4,,15
 711              		.global	netif_set_default
 712              		.thumb
 713              		.thumb_func
 714              		.type	netif_set_default, %function
 715              	netif_set_default:
 716              	.LFB268:
 717              		.loc 2 431 0
 718              		.cfi_startproc
 719              		@ args = 0, pretend = 0, frame = 8
 720              		@ frame_needed = 1, uses_anonymous_args = 0
 721              		@ link register save eliminated.
 722 0000 80B4     		push	{r7}
 723              		.cfi_def_cfa_offset 4
 724              		.cfi_offset 7, -4
 725 0002 83B0     		sub	sp, sp, #12
 726              		.cfi_def_cfa_offset 16
 727 0004 00AF     		add	r7, sp, #0
 728              		.cfi_def_cfa_register 7
ARM GAS  C:\Users\Luis\AppData\Local\Temp\ccRnH3nf.s 			page 14


 729 0006 7860     		str	r0, [r7, #4]
 730              		.loc 2 439 0
 731 0008 034B     		ldr	r3, .L51
 732 000a 7A68     		ldr	r2, [r7, #4]
 733 000c 1A60     		str	r2, [r3]
 734              		.loc 2 442 0
 735 000e 0C37     		adds	r7, r7, #12
 736 0010 BD46     		mov	sp, r7
 737              		@ sp needed
 738 0012 5DF8047B 		ldr	r7, [sp], #4
 739 0016 7047     		bx	lr
 740              	.L52:
 741              		.align	2
 742              	.L51:
 743 0018 00000000 		.word	netif_default
 744              		.cfi_endproc
 745              	.LFE268:
 746              		.size	netif_set_default, .-netif_set_default
 747 001c AFF30080 		.section	.text.netif_set_up,"ax",%progbits
 748              		.align	2
 749              		.p2align 4,,15
 750              		.global	netif_set_up
 751              		.thumb
 752              		.thumb_func
 753              		.type	netif_set_up, %function
 754              	netif_set_up:
 755              	.LFB269:
 756              		.loc 2 454 0
 757              		.cfi_startproc
 758              		@ args = 0, pretend = 0, frame = 8
 759              		@ frame_needed = 1, uses_anonymous_args = 0
 760 0000 80B5     		push	{r7, lr}
 761              		.cfi_def_cfa_offset 8
 762              		.cfi_offset 7, -8
 763              		.cfi_offset 14, -4
 764 0002 82B0     		sub	sp, sp, #8
 765              		.cfi_def_cfa_offset 16
 766 0004 00AF     		add	r7, sp, #0
 767              		.cfi_def_cfa_register 7
 768 0006 7860     		str	r0, [r7, #4]
 769              		.loc 2 455 0
 770 0008 7B68     		ldr	r3, [r7, #4]
 771 000a 93F82930 		ldrb	r3, [r3, #41]	@ zero_extendqisi2
 772 000e 03F00103 		and	r3, r3, #1
 773 0012 002B     		cmp	r3, #0
 774 0014 1CD1     		bne	.L53
 775              		.loc 2 456 0
 776 0016 7B68     		ldr	r3, [r7, #4]
 777 0018 93F82930 		ldrb	r3, [r3, #41]	@ zero_extendqisi2
 778 001c 43F00103 		orr	r3, r3, #1
 779 0020 DAB2     		uxtb	r2, r3
 780 0022 7B68     		ldr	r3, [r7, #4]
 781 0024 83F82920 		strb	r2, [r3, #41]
 782              		.loc 2 464 0
 783 0028 7B68     		ldr	r3, [r7, #4]
 784 002a 93F82930 		ldrb	r3, [r3, #41]	@ zero_extendqisi2
 785 002e 03F01003 		and	r3, r3, #16
ARM GAS  C:\Users\Luis\AppData\Local\Temp\ccRnH3nf.s 			page 15


 786 0032 002B     		cmp	r3, #0
 787 0034 0CD0     		beq	.L53
 788              		.loc 2 467 0
 789 0036 7B68     		ldr	r3, [r7, #4]
 790 0038 93F82930 		ldrb	r3, [r3, #41]	@ zero_extendqisi2
 791 003c 03F02003 		and	r3, r3, #32
 792 0040 002B     		cmp	r3, #0
 793 0042 05D0     		beq	.L53
 794              		.loc 2 468 0
 795 0044 7B68     		ldr	r3, [r7, #4]
 796 0046 0433     		adds	r3, r3, #4
 797 0048 7868     		ldr	r0, [r7, #4]
 798 004a 1946     		mov	r1, r3
 799 004c FFF7FEFF 		bl	etharp_request
 800              	.L53:
 801              		.loc 2 480 0
 802 0050 0837     		adds	r7, r7, #8
 803 0052 BD46     		mov	sp, r7
 804              		@ sp needed
 805 0054 80BD     		pop	{r7, pc}
 806              		.cfi_endproc
 807              	.LFE269:
 808              		.size	netif_set_up, .-netif_set_up
 809 0056 00BFAFF3 		.section	.text.netif_set_down,"ax",%progbits
 809      0080AFF3 
 809      0080
 810              		.align	2
 811              		.p2align 4,,15
 812              		.global	netif_set_down
 813              		.thumb
 814              		.thumb_func
 815              		.type	netif_set_down, %function
 816              	netif_set_down:
 817              	.LFB270:
 818              		.loc 2 491 0
 819              		.cfi_startproc
 820              		@ args = 0, pretend = 0, frame = 8
 821              		@ frame_needed = 1, uses_anonymous_args = 0
 822 0000 80B5     		push	{r7, lr}
 823              		.cfi_def_cfa_offset 8
 824              		.cfi_offset 7, -8
 825              		.cfi_offset 14, -4
 826 0002 82B0     		sub	sp, sp, #8
 827              		.cfi_def_cfa_offset 16
 828 0004 00AF     		add	r7, sp, #0
 829              		.cfi_def_cfa_register 7
 830 0006 7860     		str	r0, [r7, #4]
 831              		.loc 2 492 0
 832 0008 7B68     		ldr	r3, [r7, #4]
 833 000a 93F82930 		ldrb	r3, [r3, #41]	@ zero_extendqisi2
 834 000e 03F00103 		and	r3, r3, #1
 835 0012 002B     		cmp	r3, #0
 836 0014 12D0     		beq	.L55
 837              		.loc 2 493 0
 838 0016 7B68     		ldr	r3, [r7, #4]
 839 0018 93F82930 		ldrb	r3, [r3, #41]	@ zero_extendqisi2
 840 001c 23F00103 		bic	r3, r3, #1
ARM GAS  C:\Users\Luis\AppData\Local\Temp\ccRnH3nf.s 			page 16


 841 0020 DAB2     		uxtb	r2, r3
 842 0022 7B68     		ldr	r3, [r7, #4]
 843 0024 83F82920 		strb	r2, [r3, #41]
 844              		.loc 2 499 0
 845 0028 7B68     		ldr	r3, [r7, #4]
 846 002a 93F82930 		ldrb	r3, [r3, #41]	@ zero_extendqisi2
 847 002e 03F02003 		and	r3, r3, #32
 848 0032 002B     		cmp	r3, #0
 849 0034 02D0     		beq	.L55
 850              		.loc 2 500 0
 851 0036 7868     		ldr	r0, [r7, #4]
 852 0038 FFF7FEFF 		bl	etharp_cleanup_netif
 853              	.L55:
 854              		.loc 2 505 0
 855 003c 0837     		adds	r7, r7, #8
 856 003e BD46     		mov	sp, r7
 857              		@ sp needed
 858 0040 80BD     		pop	{r7, pc}
 859              		.cfi_endproc
 860              	.LFE270:
 861              		.size	netif_set_down, .-netif_set_down
 862 0042 00BFAFF3 		.section	.text.netif_set_link_up,"ax",%progbits
 862      0080AFF3 
 862      0080AFF3 
 862      0080
 863              		.align	2
 864              		.p2align 4,,15
 865              		.global	netif_set_link_up
 866              		.thumb
 867              		.thumb_func
 868              		.type	netif_set_link_up, %function
 869              	netif_set_link_up:
 870              	.LFB271:
 871              		.loc 2 536 0
 872              		.cfi_startproc
 873              		@ args = 0, pretend = 0, frame = 8
 874              		@ frame_needed = 1, uses_anonymous_args = 0
 875 0000 80B5     		push	{r7, lr}
 876              		.cfi_def_cfa_offset 8
 877              		.cfi_offset 7, -8
 878              		.cfi_offset 14, -4
 879 0002 82B0     		sub	sp, sp, #8
 880              		.cfi_def_cfa_offset 16
 881 0004 00AF     		add	r7, sp, #0
 882              		.cfi_def_cfa_register 7
 883 0006 7860     		str	r0, [r7, #4]
 884              		.loc 2 537 0
 885 0008 7B68     		ldr	r3, [r7, #4]
 886 000a 93F82930 		ldrb	r3, [r3, #41]	@ zero_extendqisi2
 887 000e 03F01003 		and	r3, r3, #16
 888 0012 002B     		cmp	r3, #0
 889 0014 1CD1     		bne	.L57
 890              		.loc 2 538 0
 891 0016 7B68     		ldr	r3, [r7, #4]
 892 0018 93F82930 		ldrb	r3, [r3, #41]	@ zero_extendqisi2
 893 001c 43F01003 		orr	r3, r3, #16
 894 0020 DAB2     		uxtb	r2, r3
ARM GAS  C:\Users\Luis\AppData\Local\Temp\ccRnH3nf.s 			page 17


 895 0022 7B68     		ldr	r3, [r7, #4]
 896 0024 83F82920 		strb	r2, [r3, #41]
 897              		.loc 2 552 0
 898 0028 7B68     		ldr	r3, [r7, #4]
 899 002a 93F82930 		ldrb	r3, [r3, #41]	@ zero_extendqisi2
 900 002e 03F00103 		and	r3, r3, #1
 901 0032 002B     		cmp	r3, #0
 902 0034 0CD0     		beq	.L57
 903              		.loc 2 555 0
 904 0036 7B68     		ldr	r3, [r7, #4]
 905 0038 93F82930 		ldrb	r3, [r3, #41]	@ zero_extendqisi2
 906 003c 03F02003 		and	r3, r3, #32
 907 0040 002B     		cmp	r3, #0
 908 0042 05D0     		beq	.L57
 909              		.loc 2 556 0
 910 0044 7B68     		ldr	r3, [r7, #4]
 911 0046 0433     		adds	r3, r3, #4
 912 0048 7868     		ldr	r0, [r7, #4]
 913 004a 1946     		mov	r1, r3
 914 004c FFF7FEFF 		bl	etharp_request
 915              	.L57:
 916              		.loc 2 569 0
 917 0050 0837     		adds	r7, r7, #8
 918 0052 BD46     		mov	sp, r7
 919              		@ sp needed
 920 0054 80BD     		pop	{r7, pc}
 921              		.cfi_endproc
 922              	.LFE271:
 923              		.size	netif_set_link_up, .-netif_set_link_up
 924 0056 00BFAFF3 		.section	.text.netif_set_link_down,"ax",%progbits
 924      0080AFF3 
 924      0080
 925              		.align	2
 926              		.p2align 4,,15
 927              		.global	netif_set_link_down
 928              		.thumb
 929              		.thumb_func
 930              		.type	netif_set_link_down, %function
 931              	netif_set_link_down:
 932              	.LFB272:
 933              		.loc 2 575 0
 934              		.cfi_startproc
 935              		@ args = 0, pretend = 0, frame = 8
 936              		@ frame_needed = 1, uses_anonymous_args = 0
 937              		@ link register save eliminated.
 938 0000 80B4     		push	{r7}
 939              		.cfi_def_cfa_offset 4
 940              		.cfi_offset 7, -4
 941 0002 83B0     		sub	sp, sp, #12
 942              		.cfi_def_cfa_offset 16
 943 0004 00AF     		add	r7, sp, #0
 944              		.cfi_def_cfa_register 7
 945 0006 7860     		str	r0, [r7, #4]
 946              		.loc 2 576 0
 947 0008 7B68     		ldr	r3, [r7, #4]
 948 000a 93F82930 		ldrb	r3, [r3, #41]	@ zero_extendqisi2
 949 000e 03F01003 		and	r3, r3, #16
ARM GAS  C:\Users\Luis\AppData\Local\Temp\ccRnH3nf.s 			page 18


 950 0012 002B     		cmp	r3, #0
 951 0014 08D0     		beq	.L59
 952              		.loc 2 577 0
 953 0016 7B68     		ldr	r3, [r7, #4]
 954 0018 93F82930 		ldrb	r3, [r3, #41]	@ zero_extendqisi2
 955 001c 23F01003 		bic	r3, r3, #16
 956 0020 DAB2     		uxtb	r2, r3
 957 0022 7B68     		ldr	r3, [r7, #4]
 958 0024 83F82920 		strb	r2, [r3, #41]
 959              	.L59:
 960              		.loc 2 580 0
 961 0028 0C37     		adds	r7, r7, #12
 962 002a BD46     		mov	sp, r7
 963              		@ sp needed
 964 002c 5DF8047B 		ldr	r7, [sp], #4
 965 0030 7047     		bx	lr
 966              		.cfi_endproc
 967              	.LFE272:
 968              		.size	netif_set_link_down, .-netif_set_link_down
 969 0032 00BFAFF3 		.text
 969      0080AFF3 
 969      0080AFF3 
 969      0080
 970              	.Letext0:
 971              		.file 3 "c:\\emtechesdk\\gcc\\lib\\gcc\\arm-none-eabi\\4.8.3\\include\\stddef.h"
 972              		.file 4 "c:\\emtechesdk\\gcc\\arm-none-eabi\\include\\stdint.h"
 973              		.file 5 "../../ChibiOS/os/rt/ports/ARMCMx/compilers/GCC/chtypes.h"
 974              		.file 6 "../../ChibiOS/os/rt/include/chsystypes.h"
 975              		.file 7 "../../ChibiOS/os/rt/include/chschd.h"
 976              		.file 8 "../../ChibiOS/os/rt/ports/ARMCMx/chcore.h"
 977              		.file 9 "../../ChibiOS/os/rt/ports/ARMCMx/chcore_v7m.h"
 978              		.file 10 "../../ChibiOS/os/rt/include/chdebug.h"
 979              		.file 11 "../../ChibiOS/os/rt/include/chtm.h"
 980              		.file 12 "../../ChibiOS/os/rt/include/chstats.h"
 981              		.file 13 "../../ChibiOS/os/rt/include/chsem.h"
 982              		.file 14 "../../ChibiOS/os/rt/include/chmtx.h"
 983              		.file 15 "../../ChibiOS/os/various/lwip_bindings/arch/cc.h"
 984              		.file 16 "../../ChibiOS/ext/lwip/src/include/ipv4/lwip/ip_addr.h"
 985              		.file 17 "../../ChibiOS/ext/lwip/src/include/lwip/err.h"
 986              		.file 18 "../../ChibiOS/ext/lwip/src/include/lwip/pbuf.h"
 987              		.file 19 "../../ChibiOS/ext/lwip/src/include/lwip/netif.h"
 988              		.file 20 "../../ChibiOS/ext/lwip/src/include/lwip/tcp.h"
 989              		.file 21 "../../ChibiOS/ext/lwip/src/include/lwip/tcp_impl.h"
 990              		.file 22 "../../ChibiOS/os/ext/CMSIS/include/core_cm4.h"
 991              		.file 23 "../../ChibiOS/ext/lwip/src/include/lwip/memp.h"