ARM GAS  C:\Users\Luis\AppData\Local\Temp\ccRnH3nf.s 			page 1


   1              		.syntax unified
   2              		.cpu cortex-m4
   3              		.fpu softvfp
   4              		.eabi_attribute 20, 1
   5              		.eabi_attribute 21, 1
   6              		.eabi_attribute 23, 3
   7              		.eabi_attribute 24, 1
   8              		.eabi_attribute 25, 1
   9              		.eabi_attribute 26, 1
  10              		.eabi_attribute 30, 6
  11              		.eabi_attribute 34, 1
  12              		.eabi_attribute 18, 4
  13              		.thumb
  14              		.file	"netif.c"
  15              		.text
  16              	.Ltext0:
  17              		.cfi_sections	.debug_frame
  18              		.section	.text.osalSysHalt,"ax",%progbits
  19              		.align	2
  20              		.p2align 4,,15
  21              		.thumb
  22              		.thumb_func
  23              		.type	osalSysHalt, %function
  24              	osalSysHalt:
  25              	.LFB230:
  26              		.file 1 "../../ChibiOS/os/hal/osal/rt/osal.h"
  27              		.loc 1 460 0
  28              		.cfi_startproc
  29              		@ args = 0, pretend = 0, frame = 8
  30              		@ frame_needed = 1, uses_anonymous_args = 0
  31 0000 80B5     		push	{r7, lr}
  32              		.cfi_def_cfa_offset 8
  33              		.cfi_offset 7, -8
  34              		.cfi_offset 14, -4
  35 0002 82B0     		sub	sp, sp, #8
  36              		.cfi_def_cfa_offset 16
  37 0004 00AF     		add	r7, sp, #0
  38              		.cfi_def_cfa_register 7
  39 0006 7860     		str	r0, [r7, #4]
  40              		.loc 1 462 0
  41 0008 7868     		ldr	r0, [r7, #4]
  42 000a FFF7FEFF 		bl	chSysHalt
  43              		.loc 1 463 0
  44 000e 0837     		adds	r7, r7, #8
  45 0010 BD46     		mov	sp, r7
  46              		@ sp needed
  47 0012 80BD     		pop	{r7, pc}
  48              		.cfi_endproc
  49              	.LFE230:
  50              		.size	osalSysHalt, .-osalSysHalt
  51              		.global	netif_list
  52 0014 AFF30080 		.section	.bss.netif_list,"aw",%nobits
  52      AFF30080 
  52      AFF30080 
  53              		.align	2
  54              		.type	netif_list, %object
  55              		.size	netif_list, 4
ARM GAS  C:\Users\Luis\AppData\Local\Temp\ccRnH3nf.s 			page 2


  56              	netif_list:
  57 0000 00000000 		.space	4
  58              		.global	netif_default
  59              		.section	.bss.netif_default,"aw",%nobits
  60              		.align	2
  61              		.type	netif_default, %object
  62              		.size	netif_default, 4
  63              	netif_default:
  64 0000 00000000 		.space	4
  65              		.section	.bss.netif_num,"aw",%nobits
  66              		.type	netif_num, %object
  67              		.size	netif_num, 1
  68              	netif_num:
  69 0000 00       		.space	1
  70              		.section	.text.netif_init,"ax",%progbits
  71              		.align	2
  72              		.p2align 4,,15
  73              		.global	netif_init
  74              		.thumb
  75              		.thumb_func
  76              		.type	netif_init, %function
  77              	netif_init:
  78              	.LFB260:
  79              		.file 2 "../../ChibiOS/ext/lwip/src/core/netif.c"
  80              		.loc 2 107 0
  81              		.cfi_startproc
  82              		@ args = 0, pretend = 0, frame = 0
  83              		@ frame_needed = 1, uses_anonymous_args = 0
  84              		@ link register save eliminated.
  85 0000 80B4     		push	{r7}
  86              		.cfi_def_cfa_offset 4
  87              		.cfi_offset 7, -4
  88 0002 00AF     		add	r7, sp, #0
  89              		.cfi_def_cfa_register 7
  90              		.loc 2 122 0
  91 0004 BD46     		mov	sp, r7
  92              		@ sp needed
  93 0006 5DF8047B 		ldr	r7, [sp], #4
  94 000a 7047     		bx	lr
  95              		.cfi_endproc
  96              	.LFE260:
  97              		.size	netif_init, .-netif_init
  98 000c AFF30080 		.section	.rodata
  99              		.align	2
 100              	.LC0:
 101 0000 4E6F2069 		.ascii	"No init function given\000"
 101      6E697420 
 101      66756E63 
 101      74696F6E 
 101      20676976 
 102 0017 00       		.section	.text.netif_add,"ax",%progbits
 103              		.align	2
 104              		.p2align 4,,15
 105              		.global	netif_add
 106              		.thumb
 107              		.thumb_func
 108              		.type	netif_add, %function
ARM GAS  C:\Users\Luis\AppData\Local\Temp\ccRnH3nf.s 			page 3


 109              	netif_add:
 110              	.LFB261:
 111              		.loc 2 141 0
 112              		.cfi_startproc
 113              		@ args = 12, pretend = 0, frame = 16
 114              		@ frame_needed = 1, uses_anonymous_args = 0
 115 0000 80B5     		push	{r7, lr}
 116              		.cfi_def_cfa_offset 8
 117              		.cfi_offset 7, -8
 118              		.cfi_offset 14, -4
 119 0002 84B0     		sub	sp, sp, #16
 120              		.cfi_def_cfa_offset 24
 121 0004 00AF     		add	r7, sp, #0
 122              		.cfi_def_cfa_register 7
 123 0006 F860     		str	r0, [r7, #12]
 124 0008 B960     		str	r1, [r7, #8]
 125 000a 7A60     		str	r2, [r7, #4]
 126 000c 3B60     		str	r3, [r7]
 127              		.loc 2 143 0
 128 000e FB69     		ldr	r3, [r7, #28]
 129 0010 002B     		cmp	r3, #0
 130 0012 02D1     		bne	.L4
 131              		.loc 2 143 0 is_stmt 0 discriminator 1
 132 0014 1C48     		ldr	r0, .L7
 133 0016 FFF7FEFF 		bl	osalSysHalt
 134              	.L4:
 135              		.loc 2 146 0 is_stmt 1
 136 001a FB68     		ldr	r3, [r7, #12]
 137 001c 0022     		movs	r2, #0
 138 001e 5A60     		str	r2, [r3, #4]
 139              		.loc 2 147 0
 140 0020 FB68     		ldr	r3, [r7, #12]
 141 0022 0022     		movs	r2, #0
 142 0024 9A60     		str	r2, [r3, #8]
 143              		.loc 2 148 0
 144 0026 FB68     		ldr	r3, [r7, #12]
 145 0028 0022     		movs	r2, #0
 146 002a DA60     		str	r2, [r3, #12]
 147              		.loc 2 149 0
 148 002c FB68     		ldr	r3, [r7, #12]
 149 002e 0022     		movs	r2, #0
 150 0030 83F82920 		strb	r2, [r3, #41]
 151              		.loc 2 173 0
 152 0034 FB68     		ldr	r3, [r7, #12]
 153 0036 BA69     		ldr	r2, [r7, #24]
 154 0038 DA61     		str	r2, [r3, #28]
 155              		.loc 2 174 0
 156 003a 144B     		ldr	r3, .L7+4
 157 003c 1B78     		ldrb	r3, [r3]	@ zero_extendqisi2
 158 003e 5A1C     		adds	r2, r3, #1
 159 0040 D1B2     		uxtb	r1, r2
 160 0042 124A     		ldr	r2, .L7+4
 161 0044 1170     		strb	r1, [r2]
 162 0046 FA68     		ldr	r2, [r7, #12]
 163 0048 82F82C30 		strb	r3, [r2, #44]
 164              		.loc 2 175 0
 165 004c FB68     		ldr	r3, [r7, #12]
ARM GAS  C:\Users\Luis\AppData\Local\Temp\ccRnH3nf.s 			page 4


 166 004e 3A6A     		ldr	r2, [r7, #32]
 167 0050 1A61     		str	r2, [r3, #16]
 168              		.loc 2 181 0
 169 0052 F868     		ldr	r0, [r7, #12]
 170 0054 B968     		ldr	r1, [r7, #8]
 171 0056 7A68     		ldr	r2, [r7, #4]
 172 0058 3B68     		ldr	r3, [r7]
 173 005a FFF7FEFF 		bl	netif_set_addr
 174              		.loc 2 184 0
 175 005e FB69     		ldr	r3, [r7, #28]
 176 0060 F868     		ldr	r0, [r7, #12]
 177 0062 9847     		blx	r3
 178 0064 0346     		mov	r3, r0
 179 0066 002B     		cmp	r3, #0
 180 0068 01D0     		beq	.L5
 181              		.loc 2 185 0
 182 006a 0023     		movs	r3, #0
 183 006c 07E0     		b	.L6
 184              	.L5:
 185              		.loc 2 189 0
 186 006e 084B     		ldr	r3, .L7+8
 187 0070 1A68     		ldr	r2, [r3]
 188 0072 FB68     		ldr	r3, [r7, #12]
 189 0074 1A60     		str	r2, [r3]
 190              		.loc 2 190 0
 191 0076 064B     		ldr	r3, .L7+8
 192 0078 FA68     		ldr	r2, [r7, #12]
 193 007a 1A60     		str	r2, [r3]
 194              		.loc 2 208 0
 195 007c FB68     		ldr	r3, [r7, #12]
 196              	.L6:
 197              		.loc 2 209 0
 198 007e 1846     		mov	r0, r3
 199 0080 1037     		adds	r7, r7, #16
 200 0082 BD46     		mov	sp, r7
 201              		@ sp needed
 202 0084 80BD     		pop	{r7, pc}
 203              	.L8:
 204 0086 00BF     		.align	2
 205              	.L7:
 206 0088 00000000 		.word	.LC0
 207 008c 00000000 		.word	netif_num
 208 0090 00000000 		.word	netif_list
 209              		.cfi_endproc
 210              	.LFE261:
 211              		.size	netif_add, .-netif_add
 212 0094 AFF30080 		.section	.text.netif_set_addr,"ax",%progbits
 212      AFF30080 
 212      AFF30080 
 213              		.align	2
 214              		.p2align 4,,15
 215              		.global	netif_set_addr
 216              		.thumb
 217              		.thumb_func
 218              		.type	netif_set_addr, %function
 219              	netif_set_addr:
 220              	.LFB262:
ARM GAS  C:\Users\Luis\AppData\Local\Temp\ccRnH3nf.s 			page 5


 221              		.loc 2 223 0
 222              		.cfi_startproc
 223              		@ args = 0, pretend = 0, frame = 16
 224              		@ frame_needed = 1, uses_anonymous_args = 0
 225 0000 80B5     		push	{r7, lr}
 226              		.cfi_def_cfa_offset 8
 227              		.cfi_offset 7, -8
 228              		.cfi_offset 14, -4
 229 0002 84B0     		sub	sp, sp, #16
 230              		.cfi_def_cfa_offset 24
 231 0004 00AF     		add	r7, sp, #0
 232              		.cfi_def_cfa_register 7
 233 0006 F860     		str	r0, [r7, #12]
 234 0008 B960     		str	r1, [r7, #8]
 235 000a 7A60     		str	r2, [r7, #4]
 236 000c 3B60     		str	r3, [r7]
 237              		.loc 2 224 0
 238 000e F868     		ldr	r0, [r7, #12]
 239 0010 B968     		ldr	r1, [r7, #8]
 240 0012 FFF7FEFF 		bl	netif_set_ipaddr
 241              		.loc 2 225 0
 242 0016 F868     		ldr	r0, [r7, #12]
 243 0018 7968     		ldr	r1, [r7, #4]
 244 001a FFF7FEFF 		bl	netif_set_netmask
 245              		.loc 2 226 0
 246 001e F868     		ldr	r0, [r7, #12]
 247 0020 3968     		ldr	r1, [r7]
 248 0022 FFF7FEFF 		bl	netif_set_gw
 249              		.loc 2 227 0
 250 0026 1037     		adds	r7, r7, #16
 251 0028 BD46     		mov	sp, r7
 252              		@ sp needed
 253 002a 80BD     		pop	{r7, pc}
 254              		.cfi_endproc
 255              	.LFE262:
 256              		.size	netif_set_addr, .-netif_set_addr
 257              		.section	.text.netif_remove,"ax",%progbits
 258              		.align	2
 259              		.p2align 4,,15
 260              		.global	netif_remove
 261              		.thumb
 262              		.thumb_func
 263              		.type	netif_remove, %function
 264              	netif_remove:
 265              	.LFB263:
 266              		.loc 2 236 0
 267              		.cfi_startproc
 268              		@ args = 0, pretend = 0, frame = 16
 269              		@ frame_needed = 1, uses_anonymous_args = 0
 270 0000 80B5     		push	{r7, lr}
 271              		.cfi_def_cfa_offset 8
 272              		.cfi_offset 7, -8
 273              		.cfi_offset 14, -4
 274 0002 84B0     		sub	sp, sp, #16
 275              		.cfi_def_cfa_offset 24
 276 0004 00AF     		add	r7, sp, #0
 277              		.cfi_def_cfa_register 7
ARM GAS  C:\Users\Luis\AppData\Local\Temp\ccRnH3nf.s 			page 6


 278 0006 7860     		str	r0, [r7, #4]
 279              		.loc 2 237 0
 280 0008 7B68     		ldr	r3, [r7, #4]
 281 000a 002B     		cmp	r3, #0
 282 000c 00D1     		bne	.L11
 283              		.loc 2 238 0
 284 000e 33E0     		b	.L10
 285              	.L11:
 286              		.loc 2 247 0
 287 0010 7B68     		ldr	r3, [r7, #4]
 288 0012 93F82930 		ldrb	r3, [r3, #41]	@ zero_extendqisi2
 289 0016 03F00103 		and	r3, r3, #1
 290 001a 002B     		cmp	r3, #0
 291 001c 02D0     		beq	.L13
 292              		.loc 2 249 0
 293 001e 7868     		ldr	r0, [r7, #4]
 294 0020 FFF7FEFF 		bl	netif_set_down
 295              	.L13:
 296              		.loc 2 255 0
 297 0024 164B     		ldr	r3, .L20
 298 0026 1A68     		ldr	r2, [r3]
 299 0028 7B68     		ldr	r3, [r7, #4]
 300 002a 9A42     		cmp	r2, r3
 301 002c 04D1     		bne	.L14
 302              		.loc 2 256 0
 303 002e 7B68     		ldr	r3, [r7, #4]
 304 0030 1A68     		ldr	r2, [r3]
 305 0032 134B     		ldr	r3, .L20
 306 0034 1A60     		str	r2, [r3]
 307 0036 17E0     		b	.L15
 308              	.L14:
 309              	.LBB2:
 310              		.loc 2 260 0
 311 0038 114B     		ldr	r3, .L20
 312 003a 1B68     		ldr	r3, [r3]
 313 003c FB60     		str	r3, [r7, #12]
 314 003e 0CE0     		b	.L16
 315              	.L19:
 316              		.loc 2 261 0
 317 0040 FB68     		ldr	r3, [r7, #12]
 318 0042 1A68     		ldr	r2, [r3]
 319 0044 7B68     		ldr	r3, [r7, #4]
 320 0046 9A42     		cmp	r2, r3
 321 0048 04D1     		bne	.L17
 322              		.loc 2 262 0
 323 004a 7B68     		ldr	r3, [r7, #4]
 324 004c 1A68     		ldr	r2, [r3]
 325 004e FB68     		ldr	r3, [r7, #12]
 326 0050 1A60     		str	r2, [r3]
 327              		.loc 2 263 0
 328 0052 05E0     		b	.L18
 329              	.L17:
 330              		.loc 2 260 0
 331 0054 FB68     		ldr	r3, [r7, #12]
 332 0056 1B68     		ldr	r3, [r3]
 333 0058 FB60     		str	r3, [r7, #12]
 334              	.L16:
ARM GAS  C:\Users\Luis\AppData\Local\Temp\ccRnH3nf.s 			page 7


 335              		.loc 2 260 0 is_stmt 0 discriminator 1
 336 005a FB68     		ldr	r3, [r7, #12]
 337 005c 002B     		cmp	r3, #0
 338 005e EFD1     		bne	.L19
 339              	.L18:
 340              		.loc 2 266 0 is_stmt 1
 341 0060 FB68     		ldr	r3, [r7, #12]
 342 0062 002B     		cmp	r3, #0
 343 0064 00D1     		bne	.L15
 344              		.loc 2 267 0
 345 0066 07E0     		b	.L10
 346              	.L15:
 347              	.LBE2:
 348              		.loc 2 271 0
 349 0068 064B     		ldr	r3, .L20+4
 350 006a 1A68     		ldr	r2, [r3]
 351 006c 7B68     		ldr	r3, [r7, #4]
 352 006e 9A42     		cmp	r2, r3
 353 0070 02D1     		bne	.L10
 354              		.loc 2 273 0
 355 0072 0020     		movs	r0, #0
 356 0074 FFF7FEFF 		bl	netif_set_default
 357              	.L10:
 358              		.loc 2 281 0
 359 0078 1037     		adds	r7, r7, #16
 360 007a BD46     		mov	sp, r7
 361              		@ sp needed
 362 007c 80BD     		pop	{r7, pc}
 363              	.L21:
 364 007e 00BF     		.align	2
 365              	.L20:
 366 0080 00000000 		.word	netif_list
 367 0084 00000000 		.word	netif_default
 368              		.cfi_endproc
 369              	.LFE263:
 370              		.size	netif_remove, .-netif_remove
 371 0088 AFF30080 		.section	.text.netif_find,"ax",%progbits
 371      AFF30080 
 372              		.align	2
 373              		.p2align 4,,15
 374              		.global	netif_find
 375              		.thumb
 376              		.thumb_func
 377              		.type	netif_find, %function
 378              	netif_find:
 379              	.LFB264:
 380              		.loc 2 291 0
 381              		.cfi_startproc
 382              		@ args = 0, pretend = 0, frame = 16
 383              		@ frame_needed = 1, uses_anonymous_args = 0
 384              		@ link register save eliminated.
 385 0000 80B4     		push	{r7}
 386              		.cfi_def_cfa_offset 4
 387              		.cfi_offset 7, -4
 388 0002 85B0     		sub	sp, sp, #20
 389              		.cfi_def_cfa_offset 24
 390 0004 00AF     		add	r7, sp, #0
ARM GAS  C:\Users\Luis\AppData\Local\Temp\ccRnH3nf.s 			page 8


 391              		.cfi_def_cfa_register 7
 392 0006 7860     		str	r0, [r7, #4]
 393              		.loc 2 295 0
 394 0008 7B68     		ldr	r3, [r7, #4]
 395 000a 002B     		cmp	r3, #0
 396 000c 01D1     		bne	.L23
 397              		.loc 2 296 0
 398 000e 0023     		movs	r3, #0
 399 0010 26E0     		b	.L24
 400              	.L23:
 401              		.loc 2 299 0
 402 0012 7B68     		ldr	r3, [r7, #4]
 403 0014 0233     		adds	r3, r3, #2
 404 0016 1B78     		ldrb	r3, [r3]	@ zero_extendqisi2
 405 0018 303B     		subs	r3, r3, #48
 406 001a FB72     		strb	r3, [r7, #11]
 407              		.loc 2 301 0
 408 001c 134B     		ldr	r3, .L28
 409 001e 1B68     		ldr	r3, [r3]
 410 0020 FB60     		str	r3, [r7, #12]
 411 0022 19E0     		b	.L25
 412              	.L27:
 413              		.loc 2 302 0
 414 0024 FB68     		ldr	r3, [r7, #12]
 415 0026 93F82C30 		ldrb	r3, [r3, #44]	@ zero_extendqisi2
 416 002a FA7A     		ldrb	r2, [r7, #11]	@ zero_extendqisi2
 417 002c 9A42     		cmp	r2, r3
 418 002e 10D1     		bne	.L26
 419              		.loc 2 303 0 discriminator 1
 420 0030 7B68     		ldr	r3, [r7, #4]
 421 0032 1A78     		ldrb	r2, [r3]	@ zero_extendqisi2
 422 0034 FB68     		ldr	r3, [r7, #12]
 423 0036 93F82A30 		ldrb	r3, [r3, #42]	@ zero_extendqisi2
 424              		.loc 2 302 0 discriminator 1
 425 003a 9A42     		cmp	r2, r3
 426 003c 09D1     		bne	.L26
 427              		.loc 2 304 0
 428 003e 7B68     		ldr	r3, [r7, #4]
 429 0040 0133     		adds	r3, r3, #1
 430 0042 1A78     		ldrb	r2, [r3]	@ zero_extendqisi2
 431 0044 FB68     		ldr	r3, [r7, #12]
 432 0046 93F82B30 		ldrb	r3, [r3, #43]	@ zero_extendqisi2
 433              		.loc 2 303 0
 434 004a 9A42     		cmp	r2, r3
 435 004c 01D1     		bne	.L26
 436              		.loc 2 306 0
 437 004e FB68     		ldr	r3, [r7, #12]
 438 0050 06E0     		b	.L24
 439              	.L26:
 440              		.loc 2 301 0
 441 0052 FB68     		ldr	r3, [r7, #12]
 442 0054 1B68     		ldr	r3, [r3]
 443 0056 FB60     		str	r3, [r7, #12]
 444              	.L25:
 445              		.loc 2 301 0 is_stmt 0 discriminator 1
 446 0058 FB68     		ldr	r3, [r7, #12]
 447 005a 002B     		cmp	r3, #0
ARM GAS  C:\Users\Luis\AppData\Local\Temp\ccRnH3nf.s 			page 9


 448 005c E2D1     		bne	.L27
 449              		.loc 2 310 0 is_stmt 1
 450 005e 0023     		movs	r3, #0
 451              	.L24:
 452              		.loc 2 311 0
 453 0060 1846     		mov	r0, r3
 454 0062 1437     		adds	r7, r7, #20
 455 0064 BD46     		mov	sp, r7
 456              		@ sp needed
 457 0066 5DF8047B 		ldr	r7, [sp], #4
 458 006a 7047     		bx	lr
 459              	.L29:
 460              		.align	2
 461              	.L28:
 462 006c 00000000 		.word	netif_list
 463              		.cfi_endproc
 464              	.LFE264:
 465              		.size	netif_find, .-netif_find
 466              		.section	.text.netif_set_ipaddr,"ax",%progbits
 467              		.align	2
 468              		.p2align 4,,15
 469              		.global	netif_set_ipaddr
 470              		.thumb
 471              		.thumb_func
 472              		.type	netif_set_ipaddr, %function
 473              	netif_set_ipaddr:
 474              	.LFB265:
 475              		.loc 2 324 0
 476              		.cfi_startproc
 477              		@ args = 0, pretend = 0, frame = 24
 478              		@ frame_needed = 1, uses_anonymous_args = 0
 479 0000 80B5     		push	{r7, lr}
 480              		.cfi_def_cfa_offset 8
 481              		.cfi_offset 7, -8
 482              		.cfi_offset 14, -4
 483 0002 86B0     		sub	sp, sp, #24
 484              		.cfi_def_cfa_offset 32
 485 0004 00AF     		add	r7, sp, #0
 486              		.cfi_def_cfa_register 7
 487 0006 7860     		str	r0, [r7, #4]
 488 0008 3960     		str	r1, [r7]
 489              		.loc 2 332 0
 490 000a 3B68     		ldr	r3, [r7]
 491 000c 002B     		cmp	r3, #0
 492 000e 3ED0     		beq	.L31
 493              		.loc 2 332 0 is_stmt 0 discriminator 1
 494 0010 3B68     		ldr	r3, [r7]
 495 0012 1A68     		ldr	r2, [r3]
 496 0014 7B68     		ldr	r3, [r7, #4]
 497 0016 5B68     		ldr	r3, [r3, #4]
 498 0018 9A42     		cmp	r2, r3
 499 001a 38D0     		beq	.L31
 500              		.loc 2 335 0 is_stmt 1
 501 001c 224B     		ldr	r3, .L42
 502 001e 1B68     		ldr	r3, [r3]
 503 0020 7B61     		str	r3, [r7, #20]
 504              		.loc 2 336 0
ARM GAS  C:\Users\Luis\AppData\Local\Temp\ccRnH3nf.s 			page 10


 505 0022 11E0     		b	.L32
 506              	.L34:
 507              		.loc 2 338 0
 508 0024 7B69     		ldr	r3, [r7, #20]
 509 0026 1A68     		ldr	r2, [r3]
 510 0028 7B68     		ldr	r3, [r7, #4]
 511 002a 5B68     		ldr	r3, [r3, #4]
 512 002c 9A42     		cmp	r2, r3
 513 002e 08D1     		bne	.L33
 514              	.LBB3:
 515              		.loc 2 345 0
 516 0030 7B69     		ldr	r3, [r7, #20]
 517 0032 DB68     		ldr	r3, [r3, #12]
 518 0034 FB60     		str	r3, [r7, #12]
 519              		.loc 2 347 0
 520 0036 7869     		ldr	r0, [r7, #20]
 521 0038 FFF7FEFF 		bl	tcp_abort
 522              		.loc 2 348 0
 523 003c FB68     		ldr	r3, [r7, #12]
 524 003e 7B61     		str	r3, [r7, #20]
 525              	.LBE3:
 526 0040 02E0     		b	.L32
 527              	.L33:
 528              		.loc 2 350 0
 529 0042 7B69     		ldr	r3, [r7, #20]
 530 0044 DB68     		ldr	r3, [r3, #12]
 531 0046 7B61     		str	r3, [r7, #20]
 532              	.L32:
 533              		.loc 2 336 0 discriminator 1
 534 0048 7B69     		ldr	r3, [r7, #20]
 535 004a 002B     		cmp	r3, #0
 536 004c EAD1     		bne	.L34
 537              		.loc 2 353 0
 538 004e 174B     		ldr	r3, .L42+4
 539 0050 1B68     		ldr	r3, [r3]
 540 0052 3B61     		str	r3, [r7, #16]
 541 0054 18E0     		b	.L35
 542              	.L39:
 543              		.loc 2 355 0
 544 0056 3B69     		ldr	r3, [r7, #16]
 545 0058 002B     		cmp	r3, #0
 546 005a 12D0     		beq	.L36
 547              		.loc 2 355 0 is_stmt 0 discriminator 1
 548 005c 3B69     		ldr	r3, [r7, #16]
 549 005e 1B68     		ldr	r3, [r3]
 550 0060 002B     		cmp	r3, #0
 551 0062 0ED0     		beq	.L36
 552              		.loc 2 356 0 is_stmt 1 discriminator 1
 553 0064 3B69     		ldr	r3, [r7, #16]
 554 0066 1A68     		ldr	r2, [r3]
 555 0068 7B68     		ldr	r3, [r7, #4]
 556 006a 5B68     		ldr	r3, [r3, #4]
 557              		.loc 2 355 0 discriminator 1
 558 006c 9A42     		cmp	r2, r3
 559 006e 08D1     		bne	.L36
 560              		.loc 2 359 0
 561 0070 3B68     		ldr	r3, [r7]
ARM GAS  C:\Users\Luis\AppData\Local\Temp\ccRnH3nf.s 			page 11


 562 0072 002B     		cmp	r3, #0
 563 0074 02D0     		beq	.L37
 564              		.loc 2 359 0 is_stmt 0 discriminator 1
 565 0076 3B68     		ldr	r3, [r7]
 566 0078 1B68     		ldr	r3, [r3]
 567 007a 00E0     		b	.L38
 568              	.L37:
 569              		.loc 2 359 0 discriminator 2
 570 007c 0023     		movs	r3, #0
 571              	.L38:
 572              		.loc 2 359 0 discriminator 3
 573 007e 3A69     		ldr	r2, [r7, #16]
 574 0080 1360     		str	r3, [r2]
 575              	.L36:
 576              		.loc 2 353 0 is_stmt 1
 577 0082 3B69     		ldr	r3, [r7, #16]
 578 0084 DB68     		ldr	r3, [r3, #12]
 579 0086 3B61     		str	r3, [r7, #16]
 580              	.L35:
 581              		.loc 2 353 0 is_stmt 0 discriminator 1
 582 0088 3B69     		ldr	r3, [r7, #16]
 583 008a 002B     		cmp	r3, #0
 584 008c E3D1     		bne	.L39
 585              	.L31:
 586              		.loc 2 367 0 is_stmt 1
 587 008e 3B68     		ldr	r3, [r7]
 588 0090 002B     		cmp	r3, #0
 589 0092 02D0     		beq	.L40
 590              		.loc 2 367 0 is_stmt 0 discriminator 1
 591 0094 3B68     		ldr	r3, [r7]
 592 0096 1B68     		ldr	r3, [r3]
 593 0098 00E0     		b	.L41
 594              	.L40:
 595              		.loc 2 367 0 discriminator 2
 596 009a 0023     		movs	r3, #0
 597              	.L41:
 598              		.loc 2 367 0 discriminator 3
 599 009c 7A68     		ldr	r2, [r7, #4]
 600 009e 5360     		str	r3, [r2, #4]
 601              		.loc 2 377 0 is_stmt 1 discriminator 3
 602 00a0 1837     		adds	r7, r7, #24
 603 00a2 BD46     		mov	sp, r7
 604              		@ sp needed
 605 00a4 80BD     		pop	{r7, pc}
 606              	.L43:
 607 00a6 00BF     		.align	2
 608              	.L42:
 609 00a8 00000000 		.word	tcp_active_pcbs
 610 00ac 00000000 		.word	tcp_listen_pcbs
 611              		.cfi_endproc
 612              	.LFE265:
 613              		.size	netif_set_ipaddr, .-netif_set_ipaddr
 614              		.section	.text.netif_set_gw,"ax",%progbits
 615              		.align	2
 616              		.p2align 4,,15
 617              		.global	netif_set_gw
 618              		.thumb
ARM GAS  C:\Users\Luis\AppData\Local\Temp\ccRnH3nf.s 			page 12


 619              		.thumb_func
 620              		.type	netif_set_gw, %function
 621              	netif_set_gw:
 622              	.LFB266:
 623              		.loc 2 389 0
 624              		.cfi_startproc
 625              		@ args = 0, pretend = 0, frame = 8
 626              		@ frame_needed = 1, uses_anonymous_args = 0
 627              		@ link register save eliminated.
 628 0000 80B4     		push	{r7}
 629              		.cfi_def_cfa_offset 4
 630              		.cfi_offset 7, -4
 631 0002 83B0     		sub	sp, sp, #12
 632              		.cfi_def_cfa_offset 16
 633 0004 00AF     		add	r7, sp, #0
 634              		.cfi_def_cfa_register 7
 635 0006 7860     		str	r0, [r7, #4]
 636 0008 3960     		str	r1, [r7]
 637              		.loc 2 390 0
 638 000a 3B68     		ldr	r3, [r7]
 639 000c 002B     		cmp	r3, #0
 640 000e 02D0     		beq	.L45
 641              		.loc 2 390 0 is_stmt 0 discriminator 1
 642 0010 3B68     		ldr	r3, [r7]
 643 0012 1B68     		ldr	r3, [r3]
 644 0014 00E0     		b	.L46
 645              	.L45:
 646              		.loc 2 390 0 discriminator 2
 647 0016 0023     		movs	r3, #0
 648              	.L46:
 649              		.loc 2 390 0 discriminator 3
 650 0018 7A68     		ldr	r2, [r7, #4]
 651 001a D360     		str	r3, [r2, #12]
 652              		.loc 2 397 0 is_stmt 1 discriminator 3
 653 001c 0C37     		adds	r7, r7, #12
 654 001e BD46     		mov	sp, r7
 655              		@ sp needed
 656 0020 5DF8047B 		ldr	r7, [sp], #4
 657 0024 7047     		bx	lr
 658              		.cfi_endproc
 659              	.LFE266:
 660              		.size	netif_set_gw, .-netif_set_gw
 661 0026 00BFAFF3 		.section	.text.netif_set_netmask,"ax",%progbits
 661      0080AFF3 
 661      0080
 662              		.align	2
 663              		.p2align 4,,15
 664              		.global	netif_set_netmask
 665              		.thumb
 666              		.thumb_func
 667              		.type	netif_set_netmask, %function
 668              	netif_set_netmask:
 669              	.LFB267:
 670              		.loc 2 410 0
 671              		.cfi_startproc
 672              		@ args = 0, pretend = 0, frame = 8
 673              		@ frame_needed = 1, uses_anonymous_args = 0
ARM GAS  C:\Users\Luis\AppData\Local\Temp\ccRnH3nf.s 			page 13


 674              		@ link register save eliminated.
 675 0000 80B4     		push	{r7}
 676              		.cfi_def_cfa_offset 4
 677              		.cfi_offset 7, -4
 678 0002 83B0     		sub	sp, sp, #12
 679              		.cfi_def_cfa_offset 16
 680 0004 00AF     		add	r7, sp, #0
 681              		.cfi_def_cfa_register 7
 682 0006 7860     		str	r0, [r7, #4]
 683 0008 3960     		str	r1, [r7]
 684              		.loc 2 413 0
 685 000a 3B68     		ldr	r3, [r7]
 686 000c 002B     		cmp	r3, #0
 687 000e 02D0     		beq	.L48
 688              		.loc 2 413 0 is_stmt 0 discriminator 1
 689 0010 3B68     		ldr	r3, [r7]
 690 0012 1B68     		ldr	r3, [r3]
 691 0014 00E0     		b	.L49
 692              	.L48:
 693              		.loc 2 413 0 discriminator 2
 694 0016 0023     		movs	r3, #0
 695              	.L49:
 696              		.loc 2 413 0 discriminator 3
 697 0018 7A68     		ldr	r2, [r7, #4]
 698 001a 9360     		str	r3, [r2, #8]
 699              		.loc 2 421 0 is_stmt 1 discriminator 3
 700 001c 0C37     		adds	r7, r7, #12
 701 001e BD46     		mov	sp, r7
 702              		@ sp needed
 703 0020 5DF8047B 		ldr	r7, [sp], #4
 704 0024 7047     		bx	lr
 705              		.cfi_endproc
 706              	.LFE267:
 707              		.size	netif_set_netmask, .-netif_set_netmask
 708 0026 00BFAFF3 		.section	.text.netif_set_default,"ax",%progbits
 708      0080AFF3 
 708      0080
 709              		.align	2
 710              		.p2align 4,,15
 711              		.global	netif_set_default
 712              		.thumb
 713              		.thumb_func
 714              		.type	netif_set_default, %function
 715              	netif_set_default:
 716              	.LFB268:
 717              		.loc 2 431 0
 718              		.cfi_startproc
 719              		@ args = 0, pretend = 0, frame = 8
 720              		@ frame_needed = 1, uses_anonymous_args = 0
 721              		@ link register save eliminated.
 722 0000 80B4     		push	{r7}
 723              		.cfi_def_cfa_offset 4
 724              		.cfi_offset 7, -4
 725 0002 83B0     		sub	sp, sp, #12
 726              		.cfi_def_cfa_offset 16
 727 0004 00AF     		add	r7, sp, #0
 728              		.cfi_def_cfa_register 7
ARM GAS  C:\Users\Luis\AppData\Local\Temp\ccRnH3nf.s 			page 14


 729 0006 7860     		str	r0, [r7, #4]
 730              		.loc 2 439 0
 731 0008 034B     		ldr	r3, .L51
 732 000a 7A68     		ldr	r2, [r7, #4]
 733 000c 1A60     		str	r2, [r3]
 734              		.loc 2 442 0
 735 000e 0C37     		adds	r7, r7, #12
 736 0010 BD46     		mov	sp, r7
 737              		@ sp needed
 738 0012 5DF8047B 		ldr	r7, [sp], #4
 739 0016 7047     		bx	lr
 740              	.L52:
 741              		.align	2
 742              	.L51:
 743 0018 00000000 		.word	netif_default
 744              		.cfi_endproc
 745              	.LFE268:
 746              		.size	netif_set_default, .-netif_set_default
 747 001c AFF30080 		.section	.text.netif_set_up,"ax",%progbits
 748              		.align	2
 749              		.p2align 4,,15
 750              		.global	netif_set_up
 751              		.thumb
 752              		.thumb_func
 753              		.type	netif_set_up, %function
 754              	netif_set_up:
 755              	.LFB269:
 756              		.loc 2 454 0
 757              		.cfi_startproc
 758              		@ args = 0, pretend = 0, frame = 8
 759              		@ frame_needed = 1, uses_anonymous_args = 0
 760 0000 80B5     		push	{r7, lr}
 761              		.cfi_def_cfa_offset 8
 762              		.cfi_offset 7, -8
 763              		.cfi_offset 14, -4
 764 0002 82B0     		sub	sp, sp, #8
 765              		.cfi_def_cfa_offset 16
 766 0004 00AF     		add	r7, sp, #0
 767              		.cfi_def_cfa_register 7
 768 0006 7860     		str	r0, [r7, #4]
 769              		.loc 2 455 0
 770 0008 7B68     		ldr	r3, [r7, #4]
 771 000a 93F82930 		ldrb	r3, [r3, #41]	@ zero_extendqisi2
 772 000e 03F00103 		and	r3, r3, #1
 773 0012 002B     		cmp	r3, #0
 774 0014 1CD1     		bne	.L53
 775              		.loc 2 456 0
 776 0016 7B68     		ldr	r3, [r7, #4]
 777 0018 93F82930 		ldrb	r3, [r3, #41]	@ zero_extendqisi2
 778 001c 43F00103 		orr	r3, r3, #1
 779 0020 DAB2     		uxtb	r2, r3
 780 0022 7B68     		ldr	r3, [r7, #4]
 781 0024 83F82920 		strb	r2, [r3, #41]
 782              		.loc 2 464 0
 783 0028 7B68     		ldr	r3, [r7, #4]
 784 002a 93F82930 		ldrb	r3, [r3, #41]	@ zero_extendqisi2
 785 002e 03F01003 		and	r3, r3, #16
ARM GAS  C:\Users\Luis\AppData\Local\Temp\ccRnH3nf.s 			page 15


 786 0032 002B     		cmp	r3, #0
 787 0034 0CD0     		beq	.L53
 788              		.loc 2 467 0
 789 0036 7B68     		ldr	r3, [r7, #4]
 790 0038 93F82930 		ldrb	r3, [r3, #41]	@ zero_extendqisi2
 791 003c 03F02003 		and	r3, r3, #32
 792 0040 002B     		cmp	r3, #0
 793 0042 05D0     		beq	.L53
 794              		.loc 2 468 0
 795 0044 7B68     		ldr	r3, [r7, #4]
 796 0046 0433     		adds	r3, r3, #4
 797 0048 7868     		ldr	r0, [r7, #4]
 798 004a 1946     		mov	r1, r3
 799 004c FFF7FEFF 		bl	etharp_request
 800              	.L53:
 801              		.loc 2 480 0
 802 0050 0837     		adds	r7, r7, #8
 803 0052 BD46     		mov	sp, r7
 804              		@ sp needed
 805 0054 80BD     		pop	{r7, pc}
 806              		.cfi_endproc
 807              	.LFE269:
 808              		.size	netif_set_up, .-netif_set_up
 809 0056 00BFAFF3 		.section	.text.netif_set_down,"ax",%progbits
 809      0080AFF3 
 809      0080
 810              		.align	2
 811              		.p2align 4,,15
 812              		.global	netif_set_down
 813              		.thumb
 814              		.thumb_func
 815              		.type	netif_set_down, %function
 816              	netif_set_down:
 817              	.LFB270:
 818              		.loc 2 491 0
 819              		.cfi_startproc
 820              		@ args = 0, pretend = 0, frame = 8
 821              		@ frame_needed = 1, uses_anonymous_args = 0
 822 0000 80B5     		push	{r7, lr}
 823              		.cfi_def_cfa_offset 8
 824              		.cfi_offset 7, -8
 825              		.cfi_offset 14, -4
 826 0002 82B0     		sub	sp, sp, #8
 827              		.cfi_def_cfa_offset 16
 828 0004 00AF     		add	r7, sp, #0
 829              		.cfi_def_cfa_register 7
 830 0006 7860     		str	r0, [r7, #4]
 831              		.loc 2 492 0
 832 0008 7B68     		ldr	r3, [r7, #4]
 833 000a 93F82930 		ldrb	r3, [r3, #41]	@ zero_extendqisi2
 834 000e 03F00103 		and	r3, r3, #1
 835 0012 002B     		cmp	r3, #0
 836 0014 12D0     		beq	.L55
 837              		.loc 2 493 0
 838 0016 7B68     		ldr	r3, [r7, #4]
 839 0018 93F82930 		ldrb	r3, [r3, #41]	@ zero_extendqisi2
 840 001c 23F00103 		bic	r3, r3, #1
ARM GAS  C:\Users\Luis\AppData\Local\Temp\ccRnH3nf.s 			page 16


 841 0020 DAB2     		uxtb	r2, r3
 842 0022 7B68     		ldr	r3, [r7, #4]
 843 0024 83F82920 		strb	r2, [r3, #41]
 844              		.loc 2 499 0
 845 0028 7B68     		ldr	r3, [r7, #4]
 846 002a 93F82930 		ldrb	r3, [r3, #41]	@ zero_extendqisi2
 847 002e 03F02003 		and	r3, r3, #32
 848 0032 002B     		cmp	r3, #0
 849 0034 02D0     		beq	.L55
 850              		.loc 2 500 0
 851 0036 7868     		ldr	r0, [r7, #4]
 852 0038 FFF7FEFF 		bl	etharp_cleanup_netif
 853              	.L55:
 854              		.loc 2 505 0
 855 003c 0837     		adds	r7, r7, #8
 856 003e BD46     		mov	sp, r7
 857              		@ sp needed
 858 0040 80BD     		pop	{r7, pc}
 859              		.cfi_endproc
 860              	.LFE270:
 861              		.size	netif_set_down, .-netif_set_down
 862 0042 00BFAFF3 		.section	.text.netif_set_link_up,"ax",%progbits
 862      0080AFF3 
 862      0080AFF3 
 862      0080
 863              		.align	2
 864              		.p2align 4,,15
 865              		.global	netif_set_link_up
 866              		.thumb
 867              		.thumb_func
 868              		.type	netif_set_link_up, %function
 869              	netif_set_link_up:
 870              	.LFB271:
 871              		.loc 2 536 0
 872              		.cfi_startproc
 873              		@ args = 0, pretend = 0, frame = 8
 874              		@ frame_needed = 1, uses_anonymous_args = 0
 875 0000 80B5     		push	{r7, lr}
 876              		.cfi_def_cfa_offset 8
 877              		.cfi_offset 7, -8
 878              		.cfi_offset 14, -4
 879 0002 82B0     		sub	sp, sp, #8
 880              		.cfi_def_cfa_offset 16
 881 0004 00AF     		add	r7, sp, #0
 882              		.cfi_def_cfa_register 7
 883 0006 7860     		str	r0, [r7, #4]
 884              		.loc 2 537 0
 885 0008 7B68     		ldr	r3, [r7, #4]
 886 000a 93F82930 		ldrb	r3, [r3, #41]	@ zero_extendqisi2
 887 000e 03F01003 		and	r3, r3, #16
 888 0012 002B     		cmp	r3, #0
 889 0014 1CD1     		bne	.L57
 890              		.loc 2 538 0
 891 0016 7B68     		ldr	r3, [r7, #4]
 892 0018 93F82930 		ldrb	r3, [r3, #41]	@ zero_extendqisi2
 893 001c 43F01003 		orr	r3, r3, #16
 894 0020 DAB2     		uxtb	r2, r3
ARM GAS  C:\Users\Luis\AppData\Local\Temp\ccRnH3nf.s 			page 17


 895 0022 7B68     		ldr	r3, [r7, #4]
 896 0024 83F82920 		strb	r2, [r3, #41]
 897              		.loc 2 552 0
 898 0028 7B68     		ldr	r3, [r7, #4]
 899 002a 93F82930 		ldrb	r3, [r3, #41]	@ zero_extendqisi2
 900 002e 03F00103 		and	r3, r3, #1
 901 0032 002B     		cmp	r3, #0
 902 0034 0CD0     		beq	.L57
 903              		.loc 2 555 0
 904 0036 7B68     		ldr	r3, [r7, #4]
 905 0038 93F82930 		ldrb	r3, [r3, #41]	@ zero_extendqisi2
 906 003c 03F02003 		and	r3, r3, #32
 907 0040 002B     		cmp	r3, #0
 908 0042 05D0     		beq	.L57
 909              		.loc 2 556 0
 910 0044 7B68     		ldr	r3, [r7, #4]
 911 0046 0433     		adds	r3, r3, #4
 912 0048 7868     		ldr	r0, [r7, #4]
 913 004a 1946     		mov	r1, r3
 914 004c FFF7FEFF 		bl	etharp_request
 915              	.L57:
 916              		.loc 2 569 0
 917 0050 0837     		adds	r7, r7, #8
 918 0052 BD46     		mov	sp, r7
 919              		@ sp needed
 920 0054 80BD     		pop	{r7, pc}
 921              		.cfi_endproc
 922              	.LFE271:
 923              		.size	netif_set_link_up, .-netif_set_link_up
 924 0056 00BFAFF3 		.section	.text.netif_set_link_down,"ax",%progbits
 924      0080AFF3 
 924      0080
 925              		.align	2
 926              		.p2align 4,,15
 927              		.global	netif_set_link_down
 928              		.thumb
 929              		.thumb_func
 930              		.type	netif_set_link_down, %function
 931              	netif_set_link_down:
 932              	.LFB272:
 933              		.loc 2 575 0
 934              		.cfi_startproc
 935              		@ args = 0, pretend = 0, frame = 8
 936              		@ frame_needed = 1, uses_anonymous_args = 0
 937              		@ link register save eliminated.
 938 0000 80B4     		push	{r7}
 939              		.cfi_def_cfa_offset 4
 940              		.cfi_offset 7, -4
 941 0002 83B0     		sub	sp, sp, #12
 942              		.cfi_def_cfa_offset 16
 943 0004 00AF     		add	r7, sp, #0
 944              		.cfi_def_cfa_register 7
 945 0006 7860     		str	r0, [r7, #4]
 946              		.loc 2 576 0
 947 0008 7B68     		ldr	r3, [r7, #4]
 948 000a 93F82930 		ldrb	r3, [r3, #41]	@ zero_extendqisi2
 949 000e 03F01003 		and	r3, r3, #16
ARM GAS  C:\Users\Luis\AppData\Local\Temp\ccRnH3nf.s 			page 18


 950 0012 002B     		cmp	r3, #0
 951 0014 08D0     		beq	.L59
 952              		.loc 2 577 0
 953 0016 7B68     		ldr	r3, [r7, #4]
 954 0018 93F82930 		ldrb	r3, [r3, #41]	@ zero_extendqisi2
 955 001c 23F01003 		bic	r3, r3, #16
 956 0020 DAB2     		uxtb	r2, r3
 957 0022 7B68     		ldr	r3, [r7, #4]
 958 0024 83F82920 		strb	r2, [r3, #41]
 959              	.L59:
 960              		.loc 2 580 0
 961 0028 0C37     		adds	r7, r7, #12
 962 002a BD46     		mov	sp, r7
 963              		@ sp needed
 964 002c 5DF8047B 		ldr	r7, [sp], #4
 965 0030 7047     		bx	lr
 966              		.cfi_endproc
 967              	.LFE272:
 968              		.size	netif_set_link_down, .-netif_set_link_down
 969 0032 00BFAFF3 		.text
 969      0080AFF3 
 969      0080AFF3 
 969      0080
 970              	.Letext0:
 971              		.file 3 "c:\\emtechesdk\\gcc\\lib\\gcc\\arm-none-eabi\\4.8.3\\include\\stddef.h"
 972              		.file 4 "c:\\emtechesdk\\gcc\\arm-none-eabi\\include\\stdint.h"
 973              		.file 5 "../../ChibiOS/os/rt/ports/ARMCMx/compilers/GCC/chtypes.h"
 974              		.file 6 "../../ChibiOS/os/rt/include/chsystypes.h"
 975              		.file 7 "../../ChibiOS/os/rt/include/chschd.h"
 976              		.file 8 "../../ChibiOS/os/rt/ports/ARMCMx/chcore.h"
 977              		.file 9 "../../ChibiOS/os/rt/ports/ARMCMx/chcore_v7m.h"
 978              		.file 10 "../../ChibiOS/os/rt/include/chdebug.h"
 979              		.file 11 "../../ChibiOS/os/rt/include/chtm.h"
 980              		.file 12 "../../ChibiOS/os/rt/include/chstats.h"
 981              		.file 13 "../../ChibiOS/os/rt/include/chsem.h"
 982              		.file 14 "../../ChibiOS/os/rt/include/chmtx.h"
 983              		.file 15 "../../ChibiOS/os/various/lwip_bindings/arch/cc.h"
 984              		.file 16 "../../ChibiOS/ext/lwip/src/include/ipv4/lwip/ip_addr.h"
 985              		.file 17 "../../ChibiOS/ext/lwip/src/include/lwip/err.h"
 986              		.file 18 "../../ChibiOS/ext/lwip/src/include/lwip/pbuf.h"
 987              		.file 19 "../../ChibiOS/ext/lwip/src/include/lwip/netif.h"
 988              		.file 20 "../../ChibiOS/ext/lwip/src/include/lwip/tcp.h"
 989              		.file 21 "../../ChibiOS/ext/lwip/src/include/lwip/tcp_impl.h"
 990              		.file 22 "../../ChibiOS/os/ext/CMSIS/include/core_cm4.h"
 991              		.file 23 "../../ChibiOS/ext/lwip/src/include/lwip/memp.h"
 992              		.section	.debug_info,"",%progbits
 993              	.Ldebug_info0:
 994 0000 4C130000 		.4byte	0x134c
 995 0004 0400     		.2byte	0x4
 996 0006 00000000 		.4byte	.Ldebug_abbrev0
 997 000a 04       		.byte	0x4
 998 000b 01       		.uleb128 0x1
 999 000c 4B010000 		.4byte	.LASF272
 1000 0010 01       		.byte	0x1
 1001 0011 19050000 		.4byte	.LASF273
 1002 0015 AA040000 		.4byte	.LASF274
 1003 0019 00000000 		.4byte	.Ldebug_ranges0+0
ARM GAS  C:\Users\Luis\AppData\Local\Temp\ccRnH3nf.s 			page 19


 1004 001d 00000000 		.4byte	0
 1005 0021 00000000 		.4byte	.Ldebug_line0
 1006 0025 02       		.uleb128 0x2
 1007 0026 04       		.byte	0x4
 1008 0027 05       		.byte	0x5
 1009 0028 696E7400 		.ascii	"int\000"
 1010 002c 03       		.uleb128 0x3
 1011 002d 69040000 		.4byte	.LASF1
 1012 0031 03       		.byte	0x3
 1013 0032 D4       		.byte	0xd4
 1014 0033 37000000 		.4byte	0x37
 1015 0037 04       		.uleb128 0x4
 1016 0038 04       		.byte	0x4
 1017 0039 07       		.byte	0x7
 1018 003a C3000000 		.4byte	.LASF0
 1019 003e 03       		.uleb128 0x3
 1020 003f 54050000 		.4byte	.LASF2
 1021 0043 04       		.byte	0x4
 1022 0044 29       		.byte	0x29
 1023 0045 49000000 		.4byte	0x49
 1024 0049 04       		.uleb128 0x4
 1025 004a 01       		.byte	0x1
 1026 004b 06       		.byte	0x6
 1027 004c 750B0000 		.4byte	.LASF3
 1028 0050 03       		.uleb128 0x3
 1029 0051 0A060000 		.4byte	.LASF4
 1030 0055 04       		.byte	0x4
 1031 0056 2A       		.byte	0x2a
 1032 0057 5B000000 		.4byte	0x5b
 1033 005b 04       		.uleb128 0x4
 1034 005c 01       		.byte	0x1
 1035 005d 08       		.byte	0x8
 1036 005e 630A0000 		.4byte	.LASF5
 1037 0062 03       		.uleb128 0x3
 1038 0063 7F030000 		.4byte	.LASF6
 1039 0067 04       		.byte	0x4
 1040 0068 35       		.byte	0x35
 1041 0069 6D000000 		.4byte	0x6d
 1042 006d 04       		.uleb128 0x4
 1043 006e 02       		.byte	0x2
 1044 006f 05       		.byte	0x5
 1045 0070 66080000 		.4byte	.LASF7
 1046 0074 03       		.uleb128 0x3
 1047 0075 03080000 		.4byte	.LASF8
 1048 0079 04       		.byte	0x4
 1049 007a 36       		.byte	0x36
 1050 007b 7F000000 		.4byte	0x7f
 1051 007f 04       		.uleb128 0x4
 1052 0080 02       		.byte	0x2
 1053 0081 07       		.byte	0x7
 1054 0082 890B0000 		.4byte	.LASF9
 1055 0086 03       		.uleb128 0x3
 1056 0087 0F0A0000 		.4byte	.LASF10
 1057 008b 04       		.byte	0x4
 1058 008c 4F       		.byte	0x4f
 1059 008d 91000000 		.4byte	0x91
 1060 0091 04       		.uleb128 0x4
ARM GAS  C:\Users\Luis\AppData\Local\Temp\ccRnH3nf.s 			page 20


 1061 0092 04       		.byte	0x4
 1062 0093 05       		.byte	0x5
 1063 0094 8D080000 		.4byte	.LASF11
 1064 0098 03       		.uleb128 0x3
 1065 0099 E3020000 		.4byte	.LASF12
 1066 009d 04       		.byte	0x4
 1067 009e 50       		.byte	0x50
 1068 009f A3000000 		.4byte	0xa3
 1069 00a3 04       		.uleb128 0x4
 1070 00a4 04       		.byte	0x4
 1071 00a5 07       		.byte	0x7
 1072 00a6 E3090000 		.4byte	.LASF13
 1073 00aa 04       		.uleb128 0x4
 1074 00ab 08       		.byte	0x8
 1075 00ac 05       		.byte	0x5
 1076 00ad DC050000 		.4byte	.LASF14
 1077 00b1 03       		.uleb128 0x3
 1078 00b2 100B0000 		.4byte	.LASF15
 1079 00b6 04       		.byte	0x4
 1080 00b7 78       		.byte	0x78
 1081 00b8 BC000000 		.4byte	0xbc
 1082 00bc 04       		.uleb128 0x4
 1083 00bd 08       		.byte	0x8
 1084 00be 07       		.byte	0x7
 1085 00bf A1030000 		.4byte	.LASF16
 1086 00c3 05       		.uleb128 0x5
 1087 00c4 86000000 		.4byte	0x86
 1088 00c8 03       		.uleb128 0x3
 1089 00c9 23080000 		.4byte	.LASF17
 1090 00cd 05       		.byte	0x5
 1091 00ce 45       		.byte	0x45
 1092 00cf 98000000 		.4byte	0x98
 1093 00d3 03       		.uleb128 0x3
 1094 00d4 9C050000 		.4byte	.LASF18
 1095 00d8 05       		.byte	0x5
 1096 00d9 46       		.byte	0x46
 1097 00da B1000000 		.4byte	0xb1
 1098 00de 03       		.uleb128 0x3
 1099 00df D2070000 		.4byte	.LASF19
 1100 00e3 05       		.byte	0x5
 1101 00e4 48       		.byte	0x48
 1102 00e5 50000000 		.4byte	0x50
 1103 00e9 03       		.uleb128 0x3
 1104 00ea CD050000 		.4byte	.LASF20
 1105 00ee 05       		.byte	0x5
 1106 00ef 49       		.byte	0x49
 1107 00f0 50000000 		.4byte	0x50
 1108 00f4 03       		.uleb128 0x3
 1109 00f5 DB090000 		.4byte	.LASF21
 1110 00f9 05       		.byte	0x5
 1111 00fa 4A       		.byte	0x4a
 1112 00fb 50000000 		.4byte	0x50
 1113 00ff 03       		.uleb128 0x3
 1114 0100 66030000 		.4byte	.LASF22
 1115 0104 05       		.byte	0x5
 1116 0105 4C       		.byte	0x4c
 1117 0106 98000000 		.4byte	0x98
ARM GAS  C:\Users\Luis\AppData\Local\Temp\ccRnH3nf.s 			page 21


 1118 010a 03       		.uleb128 0x3
 1119 010b EE060000 		.4byte	.LASF23
 1120 010f 05       		.byte	0x5
 1121 0110 4D       		.byte	0x4d
 1122 0111 86000000 		.4byte	0x86
 1123 0115 03       		.uleb128 0x3
 1124 0116 0D030000 		.4byte	.LASF24
 1125 011a 05       		.byte	0x5
 1126 011b 4F       		.byte	0x4f
 1127 011c 98000000 		.4byte	0x98
 1128 0120 03       		.uleb128 0x3
 1129 0121 CF030000 		.4byte	.LASF25
 1130 0125 05       		.byte	0x5
 1131 0126 51       		.byte	0x51
 1132 0127 86000000 		.4byte	0x86
 1133 012b 03       		.uleb128 0x3
 1134 012c DA070000 		.4byte	.LASF26
 1135 0130 05       		.byte	0x5
 1136 0131 52       		.byte	0x52
 1137 0132 98000000 		.4byte	0x98
 1138 0136 03       		.uleb128 0x3
 1139 0137 9F000000 		.4byte	.LASF27
 1140 013b 06       		.byte	0x6
 1141 013c 33       		.byte	0x33
 1142 013d 98000000 		.4byte	0x98
 1143 0141 03       		.uleb128 0x3
 1144 0142 42040000 		.4byte	.LASF28
 1145 0146 06       		.byte	0x6
 1146 0147 3F       		.byte	0x3f
 1147 0148 4C010000 		.4byte	0x14c
 1148 014c 06       		.uleb128 0x6
 1149 014d 4C060000 		.4byte	.LASF51
 1150 0151 68       		.byte	0x68
 1151 0152 07       		.byte	0x7
 1152 0153 C2       		.byte	0xc2
 1153 0154 5F020000 		.4byte	0x25f
 1154 0158 07       		.uleb128 0x7
 1155 0159 4B040000 		.4byte	.LASF29
 1156 015d 07       		.byte	0x7
 1157 015e C3       		.byte	0xc3
 1158 015f 6A020000 		.4byte	0x26a
 1159 0163 00       		.byte	0
 1160 0164 07       		.uleb128 0x7
 1161 0165 CB090000 		.4byte	.LASF30
 1162 0169 07       		.byte	0x7
 1163 016a C5       		.byte	0xc5
 1164 016b 6A020000 		.4byte	0x26a
 1165 016f 04       		.byte	0x4
 1166 0170 07       		.uleb128 0x7
 1167 0171 77000000 		.4byte	.LASF31
 1168 0175 07       		.byte	0x7
 1169 0176 C7       		.byte	0xc7
 1170 0177 FF000000 		.4byte	0xff
 1171 017b 08       		.byte	0x8
 1172 017c 07       		.uleb128 0x7
 1173 017d 0C090000 		.4byte	.LASF32
 1174 0181 07       		.byte	0x7
ARM GAS  C:\Users\Luis\AppData\Local\Temp\ccRnH3nf.s 			page 22


 1175 0182 C8       		.byte	0xc8
 1176 0183 D3040000 		.4byte	0x4d3
 1177 0187 0C       		.byte	0xc
 1178 0188 07       		.uleb128 0x7
 1179 0189 EC030000 		.4byte	.LASF33
 1180 018d 07       		.byte	0x7
 1181 018e CA       		.byte	0xca
 1182 018f 6A020000 		.4byte	0x26a
 1183 0193 10       		.byte	0x10
 1184 0194 07       		.uleb128 0x7
 1185 0195 EA050000 		.4byte	.LASF34
 1186 0199 07       		.byte	0x7
 1187 019a CB       		.byte	0xcb
 1188 019b 6A020000 		.4byte	0x26a
 1189 019f 14       		.byte	0x14
 1190 01a0 07       		.uleb128 0x7
 1191 01a1 5B050000 		.4byte	.LASF35
 1192 01a5 07       		.byte	0x7
 1193 01a6 D2       		.byte	0xd2
 1194 01a7 77070000 		.4byte	0x777
 1195 01ab 18       		.byte	0x18
 1196 01ac 07       		.uleb128 0x7
 1197 01ad FA050000 		.4byte	.LASF36
 1198 01b1 07       		.byte	0x7
 1199 01b2 D8       		.byte	0xd8
 1200 01b3 89070000 		.4byte	0x789
 1201 01b7 1C       		.byte	0x1c
 1202 01b8 07       		.uleb128 0x7
 1203 01b9 44060000 		.4byte	.LASF37
 1204 01bd 07       		.byte	0x7
 1205 01be DD       		.byte	0xdd
 1206 01bf E9000000 		.4byte	0xe9
 1207 01c3 20       		.byte	0x20
 1208 01c4 07       		.uleb128 0x7
 1209 01c5 06070000 		.4byte	.LASF38
 1210 01c9 07       		.byte	0x7
 1211 01ca E1       		.byte	0xe1
 1212 01cb DE000000 		.4byte	0xde
 1213 01cf 21       		.byte	0x21
 1214 01d0 07       		.uleb128 0x7
 1215 01d1 A60A0000 		.4byte	.LASF39
 1216 01d5 07       		.byte	0x7
 1217 01d6 E6       		.byte	0xe6
 1218 01d7 F4000000 		.4byte	0xf4
 1219 01db 22       		.byte	0x22
 1220 01dc 08       		.uleb128 0x8
 1221 01dd 705F7500 		.ascii	"p_u\000"
 1222 01e1 07       		.byte	0x7
 1223 01e2 3101     		.2byte	0x131
 1224 01e4 B2060000 		.4byte	0x6b2
 1225 01e8 24       		.byte	0x24
 1226 01e9 09       		.uleb128 0x9
 1227 01ea 11010000 		.4byte	.LASF40
 1228 01ee 07       		.byte	0x7
 1229 01ef 3601     		.2byte	0x136
 1230 01f1 70020000 		.4byte	0x270
 1231 01f5 28       		.byte	0x28
ARM GAS  C:\Users\Luis\AppData\Local\Temp\ccRnH3nf.s 			page 23


 1232 01f6 09       		.uleb128 0x9
 1233 01f7 A90B0000 		.4byte	.LASF41
 1234 01fb 07       		.byte	0x7
 1235 01fc 3C01     		.2byte	0x13c
 1236 01fe 94020000 		.4byte	0x294
 1237 0202 2C       		.byte	0x2c
 1238 0203 09       		.uleb128 0x9
 1239 0204 B5070000 		.4byte	.LASF42
 1240 0208 07       		.byte	0x7
 1241 0209 4001     		.2byte	0x140
 1242 020b 0A010000 		.4byte	0x10a
 1243 020f 34       		.byte	0x34
 1244 0210 09       		.uleb128 0x9
 1245 0211 7A080000 		.4byte	.LASF43
 1246 0215 07       		.byte	0x7
 1247 0216 4601     		.2byte	0x146
 1248 0218 15010000 		.4byte	0x115
 1249 021c 38       		.byte	0x38
 1250 021d 09       		.uleb128 0x9
 1251 021e 2F060000 		.4byte	.LASF44
 1252 0222 07       		.byte	0x7
 1253 0223 4D01     		.2byte	0x14d
 1254 0225 71070000 		.4byte	0x771
 1255 0229 3C       		.byte	0x3c
 1256 022a 09       		.uleb128 0x9
 1257 022b 4E080000 		.4byte	.LASF45
 1258 022f 07       		.byte	0x7
 1259 0230 5101     		.2byte	0x151
 1260 0232 FF000000 		.4byte	0xff
 1261 0236 40       		.byte	0x40
 1262 0237 09       		.uleb128 0x9
 1263 0238 27060000 		.4byte	.LASF46
 1264 023c 07       		.byte	0x7
 1265 023d 5801     		.2byte	0x158
 1266 023f 47030000 		.4byte	0x347
 1267 0243 44       		.byte	0x44
 1268 0244 09       		.uleb128 0x9
 1269 0245 1F060000 		.4byte	.LASF47
 1270 0249 07       		.byte	0x7
 1271 024a 5E01     		.2byte	0x15e
 1272 024c 63060000 		.4byte	0x663
 1273 0250 48       		.byte	0x48
 1274 0251 09       		.uleb128 0x9
 1275 0252 A20B0000 		.4byte	.LASF48
 1276 0256 07       		.byte	0x7
 1277 0257 6201     		.2byte	0x162
 1278 0259 47030000 		.4byte	0x347
 1279 025d 60       		.byte	0x60
 1280 025e 00       		.byte	0
 1281 025f 03       		.uleb128 0x3
 1282 0260 47000000 		.4byte	.LASF49
 1283 0264 06       		.byte	0x6
 1284 0265 44       		.byte	0x44
 1285 0266 6A020000 		.4byte	0x26a
 1286 026a 0A       		.uleb128 0xa
 1287 026b 04       		.byte	0x4
 1288 026c 41010000 		.4byte	0x141
ARM GAS  C:\Users\Luis\AppData\Local\Temp\ccRnH3nf.s 			page 24


 1289 0270 03       		.uleb128 0x3
 1290 0271 F1000000 		.4byte	.LASF50
 1291 0275 06       		.byte	0x6
 1292 0276 49       		.byte	0x49
 1293 0277 7B020000 		.4byte	0x27b
 1294 027b 06       		.uleb128 0x6
 1295 027c 00000000 		.4byte	.LASF52
 1296 0280 04       		.byte	0x4
 1297 0281 07       		.byte	0x7
 1298 0282 B0       		.byte	0xb0
 1299 0283 94020000 		.4byte	0x294
 1300 0287 07       		.uleb128 0x7
 1301 0288 4B040000 		.4byte	.LASF29
 1302 028c 07       		.byte	0x7
 1303 028d B1       		.byte	0xb1
 1304 028e 6A020000 		.4byte	0x26a
 1305 0292 00       		.byte	0
 1306 0293 00       		.byte	0
 1307 0294 03       		.uleb128 0x3
 1308 0295 10000000 		.4byte	.LASF53
 1309 0299 06       		.byte	0x6
 1310 029a 50       		.byte	0x50
 1311 029b 9F020000 		.4byte	0x29f
 1312 029f 06       		.uleb128 0x6
 1313 02a0 A8060000 		.4byte	.LASF54
 1314 02a4 08       		.byte	0x8
 1315 02a5 07       		.byte	0x7
 1316 02a6 B7       		.byte	0xb7
 1317 02a7 C4020000 		.4byte	0x2c4
 1318 02ab 07       		.uleb128 0x7
 1319 02ac 4B040000 		.4byte	.LASF29
 1320 02b0 07       		.byte	0x7
 1321 02b1 B8       		.byte	0xb8
 1322 02b2 6A020000 		.4byte	0x26a
 1323 02b6 00       		.byte	0
 1324 02b7 07       		.uleb128 0x7
 1325 02b8 CB090000 		.4byte	.LASF30
 1326 02bc 07       		.byte	0x7
 1327 02bd B9       		.byte	0xb9
 1328 02be 6A020000 		.4byte	0x26a
 1329 02c2 04       		.byte	0x4
 1330 02c3 00       		.byte	0
 1331 02c4 03       		.uleb128 0x3
 1332 02c5 F5090000 		.4byte	.LASF55
 1333 02c9 06       		.byte	0x6
 1334 02ca 57       		.byte	0x57
 1335 02cb CF020000 		.4byte	0x2cf
 1336 02cf 0B       		.uleb128 0xb
 1337 02d0 48020000 		.4byte	.LASF56
 1338 02d4 1C       		.byte	0x1c
 1339 02d5 07       		.byte	0x7
 1340 02d6 9001     		.2byte	0x190
 1341 02d8 2B030000 		.4byte	0x32b
 1342 02dc 09       		.uleb128 0x9
 1343 02dd CE060000 		.4byte	.LASF57
 1344 02e1 07       		.byte	0x7
 1345 02e2 9101     		.2byte	0x191
ARM GAS  C:\Users\Luis\AppData\Local\Temp\ccRnH3nf.s 			page 25


 1346 02e4 94020000 		.4byte	0x294
 1347 02e8 00       		.byte	0
 1348 02e9 09       		.uleb128 0x9
 1349 02ea 19030000 		.4byte	.LASF58
 1350 02ee 07       		.byte	0x7
 1351 02ef 9201     		.2byte	0x192
 1352 02f1 FF000000 		.4byte	0xff
 1353 02f5 08       		.byte	0x8
 1354 02f6 09       		.uleb128 0x9
 1355 02f7 9C0B0000 		.4byte	.LASF59
 1356 02fb 07       		.byte	0x7
 1357 02fc 9401     		.2byte	0x194
 1358 02fe D3040000 		.4byte	0x4d3
 1359 0302 0C       		.byte	0xc
 1360 0303 09       		.uleb128 0x9
 1361 0304 E6060000 		.4byte	.LASF60
 1362 0308 07       		.byte	0x7
 1363 0309 9701     		.2byte	0x197
 1364 030b 6A020000 		.4byte	0x26a
 1365 030f 10       		.byte	0x10
 1366 0310 09       		.uleb128 0x9
 1367 0311 63070000 		.4byte	.LASF61
 1368 0315 07       		.byte	0x7
 1369 0316 9801     		.2byte	0x198
 1370 0318 6A020000 		.4byte	0x26a
 1371 031c 14       		.byte	0x14
 1372 031d 09       		.uleb128 0x9
 1373 031e 70080000 		.4byte	.LASF62
 1374 0322 07       		.byte	0x7
 1375 0323 9B01     		.2byte	0x19b
 1376 0325 6A020000 		.4byte	0x26a
 1377 0329 18       		.byte	0x18
 1378 032a 00       		.byte	0
 1379 032b 03       		.uleb128 0x3
 1380 032c A5020000 		.4byte	.LASF63
 1381 0330 06       		.byte	0x6
 1382 0331 5C       		.byte	0x5c
 1383 0332 36030000 		.4byte	0x336
 1384 0336 0A       		.uleb128 0xa
 1385 0337 04       		.byte	0x4
 1386 0338 3C030000 		.4byte	0x33c
 1387 033c 0C       		.uleb128 0xc
 1388 033d 47030000 		.4byte	0x347
 1389 0341 0D       		.uleb128 0xd
 1390 0342 47030000 		.4byte	0x347
 1391 0346 00       		.byte	0
 1392 0347 0E       		.uleb128 0xe
 1393 0348 04       		.byte	0x4
 1394 0349 03       		.uleb128 0x3
 1395 034a 0E070000 		.4byte	.LASF64
 1396 034e 06       		.byte	0x6
 1397 034f 61       		.byte	0x61
 1398 0350 54030000 		.4byte	0x354
 1399 0354 0B       		.uleb128 0xb
 1400 0355 6E030000 		.4byte	.LASF65
 1401 0359 14       		.byte	0x14
 1402 035a 07       		.byte	0x7
ARM GAS  C:\Users\Luis\AppData\Local\Temp\ccRnH3nf.s 			page 26


 1403 035b 6B01     		.2byte	0x16b
 1404 035d A3030000 		.4byte	0x3a3
 1405 0361 09       		.uleb128 0x9
 1406 0362 080B0000 		.4byte	.LASF66
 1407 0366 07       		.byte	0x7
 1408 0367 6C01     		.2byte	0x16c
 1409 0369 8F070000 		.4byte	0x78f
 1410 036d 00       		.byte	0
 1411 036e 09       		.uleb128 0x9
 1412 036f D20B0000 		.4byte	.LASF67
 1413 0373 07       		.byte	0x7
 1414 0374 6D01     		.2byte	0x16d
 1415 0376 8F070000 		.4byte	0x78f
 1416 037a 04       		.byte	0x4
 1417 037b 09       		.uleb128 0x9
 1418 037c 8B050000 		.4byte	.LASF68
 1419 0380 07       		.byte	0x7
 1420 0381 6E01     		.2byte	0x16e
 1421 0383 36010000 		.4byte	0x136
 1422 0387 08       		.byte	0x8
 1423 0388 09       		.uleb128 0x9
 1424 0389 CA0B0000 		.4byte	.LASF69
 1425 038d 07       		.byte	0x7
 1426 038e 6F01     		.2byte	0x16f
 1427 0390 2B030000 		.4byte	0x32b
 1428 0394 0C       		.byte	0xc
 1429 0395 09       		.uleb128 0x9
 1430 0396 570A0000 		.4byte	.LASF70
 1431 039a 07       		.byte	0x7
 1432 039b 7101     		.2byte	0x171
 1433 039d 47030000 		.4byte	0x347
 1434 03a1 10       		.byte	0x10
 1435 03a2 00       		.byte	0
 1436 03a3 03       		.uleb128 0x3
 1437 03a4 900A0000 		.4byte	.LASF71
 1438 03a8 06       		.byte	0x6
 1439 03a9 66       		.byte	0x66
 1440 03aa AE030000 		.4byte	0x3ae
 1441 03ae 0B       		.uleb128 0xb
 1442 03af 06040000 		.4byte	.LASF72
 1443 03b3 10       		.byte	0x10
 1444 03b4 07       		.byte	0x7
 1445 03b5 7B01     		.2byte	0x17b
 1446 03b7 F0030000 		.4byte	0x3f0
 1447 03bb 09       		.uleb128 0x9
 1448 03bc 080B0000 		.4byte	.LASF66
 1449 03c0 07       		.byte	0x7
 1450 03c1 7C01     		.2byte	0x17c
 1451 03c3 8F070000 		.4byte	0x78f
 1452 03c7 00       		.byte	0
 1453 03c8 09       		.uleb128 0x9
 1454 03c9 D20B0000 		.4byte	.LASF67
 1455 03cd 07       		.byte	0x7
 1456 03ce 7E01     		.2byte	0x17e
 1457 03d0 8F070000 		.4byte	0x78f
 1458 03d4 04       		.byte	0x4
 1459 03d5 09       		.uleb128 0x9
ARM GAS  C:\Users\Luis\AppData\Local\Temp\ccRnH3nf.s 			page 27


 1460 03d6 8B050000 		.4byte	.LASF68
 1461 03da 07       		.byte	0x7
 1462 03db 8001     		.2byte	0x180
 1463 03dd 36010000 		.4byte	0x136
 1464 03e1 08       		.byte	0x8
 1465 03e2 09       		.uleb128 0x9
 1466 03e3 A5050000 		.4byte	.LASF73
 1467 03e7 07       		.byte	0x7
 1468 03e8 8801     		.2byte	0x188
 1469 03ea 36010000 		.4byte	0x136
 1470 03ee 0C       		.byte	0xc
 1471 03ef 00       		.byte	0
 1472 03f0 03       		.uleb128 0x3
 1473 03f1 85060000 		.4byte	.LASF74
 1474 03f5 06       		.byte	0x6
 1475 03f6 6B       		.byte	0x6b
 1476 03f7 FB030000 		.4byte	0x3fb
 1477 03fb 0F       		.uleb128 0xf
 1478 03fc BE020000 		.4byte	.LASF75
 1479 0400 1404     		.2byte	0x414
 1480 0402 07       		.byte	0x7
 1481 0403 A201     		.2byte	0x1a2
 1482 0405 3E040000 		.4byte	0x43e
 1483 0409 09       		.uleb128 0x9
 1484 040a 95070000 		.4byte	.LASF76
 1485 040e 07       		.byte	0x7
 1486 040f AA01     		.2byte	0x1aa
 1487 0411 95070000 		.4byte	0x795
 1488 0415 00       		.byte	0
 1489 0416 09       		.uleb128 0x9
 1490 0417 DE030000 		.4byte	.LASF77
 1491 041b 07       		.byte	0x7
 1492 041c AF01     		.2byte	0x1af
 1493 041e 20010000 		.4byte	0x120
 1494 0422 04       		.byte	0x4
 1495 0423 09       		.uleb128 0x9
 1496 0424 39080000 		.4byte	.LASF78
 1497 0428 07       		.byte	0x7
 1498 0429 B301     		.2byte	0x1b3
 1499 042b 20010000 		.4byte	0x120
 1500 042f 08       		.byte	0x8
 1501 0430 09       		.uleb128 0x9
 1502 0431 240A0000 		.4byte	.LASF79
 1503 0435 07       		.byte	0x7
 1504 0436 B901     		.2byte	0x1b9
 1505 0438 F5050000 		.4byte	0x5f5
 1506 043c 0C       		.byte	0xc
 1507 043d 00       		.byte	0
 1508 043e 03       		.uleb128 0x3
 1509 043f 2E0B0000 		.4byte	.LASF80
 1510 0443 06       		.byte	0x6
 1511 0444 70       		.byte	0x70
 1512 0445 49040000 		.4byte	0x449
 1513 0449 0F       		.uleb128 0xf
 1514 044a C5080000 		.4byte	.LASF81
 1515 044e E805     		.2byte	0x5e8
 1516 0450 07       		.byte	0x7
ARM GAS  C:\Users\Luis\AppData\Local\Temp\ccRnH3nf.s 			page 28


 1517 0451 C201     		.2byte	0x1c2
 1518 0453 B6040000 		.4byte	0x4b6
 1519 0457 09       		.uleb128 0x9
 1520 0458 12090000 		.4byte	.LASF82
 1521 045c 07       		.byte	0x7
 1522 045d C601     		.2byte	0x1c6
 1523 045f C4020000 		.4byte	0x2c4
 1524 0463 00       		.byte	0
 1525 0464 09       		.uleb128 0x9
 1526 0465 1D020000 		.4byte	.LASF83
 1527 0469 07       		.byte	0x7
 1528 046a CA01     		.2byte	0x1ca
 1529 046c A3030000 		.4byte	0x3a3
 1530 0470 1C       		.byte	0x1c
 1531 0471 08       		.uleb128 0x8
 1532 0472 64626700 		.ascii	"dbg\000"
 1533 0476 07       		.byte	0x7
 1534 0477 CE01     		.2byte	0x1ce
 1535 0479 F0030000 		.4byte	0x3f0
 1536 047d 2C       		.byte	0x2c
 1537 047e 10       		.uleb128 0x10
 1538 047f E1070000 		.4byte	.LASF84
 1539 0483 07       		.byte	0x7
 1540 0484 D201     		.2byte	0x1d2
 1541 0486 41010000 		.4byte	0x141
 1542 048a 4004     		.2byte	0x440
 1543 048c 11       		.uleb128 0x11
 1544 048d 746D00   		.ascii	"tm\000"
 1545 0490 07       		.byte	0x7
 1546 0491 D701     		.2byte	0x1d7
 1547 0493 15060000 		.4byte	0x615
 1548 0497 A804     		.2byte	0x4a8
 1549 0499 10       		.uleb128 0x10
 1550 049a 27030000 		.4byte	.LASF85
 1551 049e 07       		.byte	0x7
 1552 049f DD01     		.2byte	0x1dd
 1553 04a1 A7060000 		.4byte	0x6a7
 1554 04a5 B004     		.2byte	0x4b0
 1555 04a7 10       		.uleb128 0x10
 1556 04a8 56020000 		.4byte	.LASF86
 1557 04ac 07       		.byte	0x7
 1558 04ad E301     		.2byte	0x1e3
 1559 04af 9A070000 		.4byte	0x79a
 1560 04b3 E804     		.2byte	0x4e8
 1561 04b5 00       		.byte	0
 1562 04b6 04       		.uleb128 0x4
 1563 04b7 04       		.byte	0x4
 1564 04b8 07       		.byte	0x7
 1565 04b9 D2090000 		.4byte	.LASF87
 1566 04bd 03       		.uleb128 0x3
 1567 04be 710A0000 		.4byte	.LASF88
 1568 04c2 08       		.byte	0x8
 1569 04c3 65       		.byte	0x65
 1570 04c4 47030000 		.4byte	0x347
 1571 04c8 03       		.uleb128 0x3
 1572 04c9 EA0A0000 		.4byte	.LASF89
 1573 04cd 08       		.byte	0x8
ARM GAS  C:\Users\Luis\AppData\Local\Temp\ccRnH3nf.s 			page 29


 1574 04ce 6D       		.byte	0x6d
 1575 04cf B1000000 		.4byte	0xb1
 1576 04d3 06       		.uleb128 0x6
 1577 04d4 9F070000 		.4byte	.LASF90
 1578 04d8 04       		.byte	0x4
 1579 04d9 08       		.byte	0x8
 1580 04da 89       		.byte	0x89
 1581 04db EC040000 		.4byte	0x4ec
 1582 04df 12       		.uleb128 0x12
 1583 04e0 72313300 		.ascii	"r13\000"
 1584 04e4 08       		.byte	0x8
 1585 04e5 8A       		.byte	0x8a
 1586 04e6 67050000 		.4byte	0x567
 1587 04ea 00       		.byte	0
 1588 04eb 00       		.byte	0
 1589 04ec 06       		.uleb128 0x6
 1590 04ed 96080000 		.4byte	.LASF91
 1591 04f1 24       		.byte	0x24
 1592 04f2 09       		.byte	0x9
 1593 04f3 F4       		.byte	0xf4
 1594 04f4 67050000 		.4byte	0x567
 1595 04f8 08       		.uleb128 0x8
 1596 04f9 723400   		.ascii	"r4\000"
 1597 04fc 09       		.byte	0x9
 1598 04fd 0701     		.2byte	0x107
 1599 04ff BD040000 		.4byte	0x4bd
 1600 0503 00       		.byte	0
 1601 0504 08       		.uleb128 0x8
 1602 0505 723500   		.ascii	"r5\000"
 1603 0508 09       		.byte	0x9
 1604 0509 0801     		.2byte	0x108
 1605 050b BD040000 		.4byte	0x4bd
 1606 050f 04       		.byte	0x4
 1607 0510 08       		.uleb128 0x8
 1608 0511 723600   		.ascii	"r6\000"
 1609 0514 09       		.byte	0x9
 1610 0515 0901     		.2byte	0x109
 1611 0517 BD040000 		.4byte	0x4bd
 1612 051b 08       		.byte	0x8
 1613 051c 08       		.uleb128 0x8
 1614 051d 723700   		.ascii	"r7\000"
 1615 0520 09       		.byte	0x9
 1616 0521 0A01     		.2byte	0x10a
 1617 0523 BD040000 		.4byte	0x4bd
 1618 0527 0C       		.byte	0xc
 1619 0528 08       		.uleb128 0x8
 1620 0529 723800   		.ascii	"r8\000"
 1621 052c 09       		.byte	0x9
 1622 052d 0B01     		.2byte	0x10b
 1623 052f BD040000 		.4byte	0x4bd
 1624 0533 10       		.byte	0x10
 1625 0534 08       		.uleb128 0x8
 1626 0535 723900   		.ascii	"r9\000"
 1627 0538 09       		.byte	0x9
 1628 0539 0C01     		.2byte	0x10c
 1629 053b BD040000 		.4byte	0x4bd
 1630 053f 14       		.byte	0x14
ARM GAS  C:\Users\Luis\AppData\Local\Temp\ccRnH3nf.s 			page 30


 1631 0540 08       		.uleb128 0x8
 1632 0541 72313000 		.ascii	"r10\000"
 1633 0545 09       		.byte	0x9
 1634 0546 0D01     		.2byte	0x10d
 1635 0548 BD040000 		.4byte	0x4bd
 1636 054c 18       		.byte	0x18
 1637 054d 08       		.uleb128 0x8
 1638 054e 72313100 		.ascii	"r11\000"
 1639 0552 09       		.byte	0x9
 1640 0553 0E01     		.2byte	0x10e
 1641 0555 BD040000 		.4byte	0x4bd
 1642 0559 1C       		.byte	0x1c
 1643 055a 08       		.uleb128 0x8
 1644 055b 6C7200   		.ascii	"lr\000"
 1645 055e 09       		.byte	0x9
 1646 055f 0F01     		.2byte	0x10f
 1647 0561 BD040000 		.4byte	0x4bd
 1648 0565 20       		.byte	0x20
 1649 0566 00       		.byte	0
 1650 0567 0A       		.uleb128 0xa
 1651 0568 04       		.byte	0x4
 1652 0569 EC040000 		.4byte	0x4ec
 1653 056d 13       		.uleb128 0x13
 1654 056e 10       		.byte	0x10
 1655 056f 0A       		.byte	0xa
 1656 0570 51       		.byte	0x51
 1657 0571 A6050000 		.4byte	0x5a6
 1658 0575 07       		.uleb128 0x7
 1659 0576 F2050000 		.4byte	.LASF92
 1660 057a 0A       		.byte	0xa
 1661 057b 55       		.byte	0x55
 1662 057c 36010000 		.4byte	0x136
 1663 0580 00       		.byte	0
 1664 0581 07       		.uleb128 0x7
 1665 0582 D6050000 		.4byte	.LASF93
 1666 0586 0A       		.byte	0xa
 1667 0587 59       		.byte	0x59
 1668 0588 6A020000 		.4byte	0x26a
 1669 058c 04       		.byte	0x4
 1670 058d 07       		.uleb128 0x7
 1671 058e B8030000 		.4byte	.LASF94
 1672 0592 0A       		.byte	0xa
 1673 0593 5D       		.byte	0x5d
 1674 0594 47030000 		.4byte	0x347
 1675 0598 08       		.byte	0x8
 1676 0599 07       		.uleb128 0x7
 1677 059a 2D010000 		.4byte	.LASF95
 1678 059e 0A       		.byte	0xa
 1679 059f 61       		.byte	0x61
 1680 05a0 50000000 		.4byte	0x50
 1681 05a4 0C       		.byte	0xc
 1682 05a5 00       		.byte	0
 1683 05a6 03       		.uleb128 0x3
 1684 05a7 380A0000 		.4byte	.LASF96
 1685 05ab 0A       		.byte	0xa
 1686 05ac 62       		.byte	0x62
 1687 05ad 6D050000 		.4byte	0x56d
ARM GAS  C:\Users\Luis\AppData\Local\Temp\ccRnH3nf.s 			page 31


 1688 05b1 14       		.uleb128 0x14
 1689 05b2 0804     		.2byte	0x408
 1690 05b4 0A       		.byte	0xa
 1691 05b5 67       		.byte	0x67
 1692 05b6 DF050000 		.4byte	0x5df
 1693 05ba 07       		.uleb128 0x7
 1694 05bb 68060000 		.4byte	.LASF97
 1695 05bf 0A       		.byte	0xa
 1696 05c0 6B       		.byte	0x6b
 1697 05c1 37000000 		.4byte	0x37
 1698 05c5 00       		.byte	0
 1699 05c6 07       		.uleb128 0x7
 1700 05c7 40070000 		.4byte	.LASF98
 1701 05cb 0A       		.byte	0xa
 1702 05cc 6F       		.byte	0x6f
 1703 05cd DF050000 		.4byte	0x5df
 1704 05d1 04       		.byte	0x4
 1705 05d2 07       		.uleb128 0x7
 1706 05d3 36070000 		.4byte	.LASF99
 1707 05d7 0A       		.byte	0xa
 1708 05d8 73       		.byte	0x73
 1709 05d9 E5050000 		.4byte	0x5e5
 1710 05dd 08       		.byte	0x8
 1711 05de 00       		.byte	0
 1712 05df 0A       		.uleb128 0xa
 1713 05e0 04       		.byte	0x4
 1714 05e1 A6050000 		.4byte	0x5a6
 1715 05e5 15       		.uleb128 0x15
 1716 05e6 A6050000 		.4byte	0x5a6
 1717 05ea F5050000 		.4byte	0x5f5
 1718 05ee 16       		.uleb128 0x16
 1719 05ef B6040000 		.4byte	0x4b6
 1720 05f3 3F       		.byte	0x3f
 1721 05f4 00       		.byte	0
 1722 05f5 03       		.uleb128 0x3
 1723 05f6 5C0B0000 		.4byte	.LASF100
 1724 05fa 0A       		.byte	0xa
 1725 05fb 74       		.byte	0x74
 1726 05fc B1050000 		.4byte	0x5b1
 1727 0600 13       		.uleb128 0x13
 1728 0601 04       		.byte	0x4
 1729 0602 0B       		.byte	0xb
 1730 0603 38       		.byte	0x38
 1731 0604 15060000 		.4byte	0x615
 1732 0608 07       		.uleb128 0x7
 1733 0609 7F040000 		.4byte	.LASF101
 1734 060d 0B       		.byte	0xb
 1735 060e 3C       		.byte	0x3c
 1736 060f C8000000 		.4byte	0xc8
 1737 0613 00       		.byte	0
 1738 0614 00       		.byte	0
 1739 0615 03       		.uleb128 0x3
 1740 0616 BB070000 		.4byte	.LASF102
 1741 061a 0B       		.byte	0xb
 1742 061b 3D       		.byte	0x3d
 1743 061c 00060000 		.4byte	0x600
 1744 0620 13       		.uleb128 0x13
ARM GAS  C:\Users\Luis\AppData\Local\Temp\ccRnH3nf.s 			page 32


 1745 0621 18       		.byte	0x18
 1746 0622 0B       		.byte	0xb
 1747 0623 48       		.byte	0x48
 1748 0624 63060000 		.4byte	0x663
 1749 0628 07       		.uleb128 0x7
 1750 0629 5E0A0000 		.4byte	.LASF103
 1751 062d 0B       		.byte	0xb
 1752 062e 49       		.byte	0x49
 1753 062f C8000000 		.4byte	0xc8
 1754 0633 00       		.byte	0
 1755 0634 07       		.uleb128 0x7
 1756 0635 E6030000 		.4byte	.LASF104
 1757 0639 0B       		.byte	0xb
 1758 063a 4A       		.byte	0x4a
 1759 063b C8000000 		.4byte	0xc8
 1760 063f 04       		.byte	0x4
 1761 0640 07       		.uleb128 0x7
 1762 0641 14050000 		.4byte	.LASF105
 1763 0645 0B       		.byte	0xb
 1764 0646 4B       		.byte	0x4b
 1765 0647 C8000000 		.4byte	0xc8
 1766 064b 08       		.byte	0x8
 1767 064c 12       		.uleb128 0x12
 1768 064d 6E00     		.ascii	"n\000"
 1769 064f 0B       		.byte	0xb
 1770 0650 4C       		.byte	0x4c
 1771 0651 2B010000 		.4byte	0x12b
 1772 0655 0C       		.byte	0xc
 1773 0656 07       		.uleb128 0x7
 1774 0657 06010000 		.4byte	.LASF106
 1775 065b 0B       		.byte	0xb
 1776 065c 4D       		.byte	0x4d
 1777 065d D3000000 		.4byte	0xd3
 1778 0661 10       		.byte	0x10
 1779 0662 00       		.byte	0
 1780 0663 03       		.uleb128 0x3
 1781 0664 41050000 		.4byte	.LASF107
 1782 0668 0B       		.byte	0xb
 1783 0669 4E       		.byte	0x4e
 1784 066a 20060000 		.4byte	0x620
 1785 066e 13       		.uleb128 0x13
 1786 066f 38       		.byte	0x38
 1787 0670 0C       		.byte	0xc
 1788 0671 38       		.byte	0x38
 1789 0672 A7060000 		.4byte	0x6a7
 1790 0676 07       		.uleb128 0x7
 1791 0677 48080000 		.4byte	.LASF108
 1792 067b 0C       		.byte	0xc
 1793 067c 39       		.byte	0x39
 1794 067d 2B010000 		.4byte	0x12b
 1795 0681 00       		.byte	0
 1796 0682 07       		.uleb128 0x7
 1797 0683 7A070000 		.4byte	.LASF109
 1798 0687 0C       		.byte	0xc
 1799 0688 3A       		.byte	0x3a
 1800 0689 2B010000 		.4byte	0x12b
 1801 068d 04       		.byte	0x4
ARM GAS  C:\Users\Luis\AppData\Local\Temp\ccRnH3nf.s 			page 33


 1802 068e 07       		.uleb128 0x7
 1803 068f CF080000 		.4byte	.LASF110
 1804 0693 0C       		.byte	0xc
 1805 0694 3B       		.byte	0x3b
 1806 0695 63060000 		.4byte	0x663
 1807 0699 08       		.byte	0x8
 1808 069a 07       		.uleb128 0x7
 1809 069b E6000000 		.4byte	.LASF111
 1810 069f 0C       		.byte	0xc
 1811 06a0 3D       		.byte	0x3d
 1812 06a1 63060000 		.4byte	0x663
 1813 06a5 20       		.byte	0x20
 1814 06a6 00       		.byte	0
 1815 06a7 03       		.uleb128 0x3
 1816 06a8 FE020000 		.4byte	.LASF112
 1817 06ac 0C       		.byte	0xc
 1818 06ad 3F       		.byte	0x3f
 1819 06ae 6E060000 		.4byte	0x66e
 1820 06b2 17       		.uleb128 0x17
 1821 06b3 04       		.byte	0x4
 1822 06b4 07       		.byte	0x7
 1823 06b5 FA       		.byte	0xfa
 1824 06b6 0F070000 		.4byte	0x70f
 1825 06ba 18       		.uleb128 0x18
 1826 06bb 70040000 		.4byte	.LASF113
 1827 06bf 07       		.byte	0x7
 1828 06c0 0101     		.2byte	0x101
 1829 06c2 0A010000 		.4byte	0x10a
 1830 06c6 18       		.uleb128 0x18
 1831 06c7 160C0000 		.4byte	.LASF114
 1832 06cb 07       		.byte	0x7
 1833 06cc 0801     		.2byte	0x108
 1834 06ce 0A010000 		.4byte	0x10a
 1835 06d2 18       		.uleb128 0x18
 1836 06d3 47030000 		.4byte	.LASF115
 1837 06d7 07       		.byte	0x7
 1838 06d8 0F01     		.2byte	0x10f
 1839 06da 47030000 		.4byte	0x347
 1840 06de 18       		.uleb128 0x18
 1841 06df 3F0B0000 		.4byte	.LASF116
 1842 06e3 07       		.byte	0x7
 1843 06e4 1601     		.2byte	0x116
 1844 06e6 0F070000 		.4byte	0x70f
 1845 06ea 18       		.uleb128 0x18
 1846 06eb 310A0000 		.4byte	.LASF117
 1847 06ef 07       		.byte	0x7
 1848 06f0 1E01     		.2byte	0x11e
 1849 06f2 3A070000 		.4byte	0x73a
 1850 06f6 18       		.uleb128 0x18
 1851 06f7 2C000000 		.4byte	.LASF118
 1852 06fb 07       		.byte	0x7
 1853 06fc 2701     		.2byte	0x127
 1854 06fe 71070000 		.4byte	0x771
 1855 0702 18       		.uleb128 0x18
 1856 0703 65020000 		.4byte	.LASF119
 1857 0707 07       		.byte	0x7
 1858 0708 2F01     		.2byte	0x12f
ARM GAS  C:\Users\Luis\AppData\Local\Temp\ccRnH3nf.s 			page 34


 1859 070a 15010000 		.4byte	0x115
 1860 070e 00       		.byte	0
 1861 070f 0A       		.uleb128 0xa
 1862 0710 04       		.byte	0x4
 1863 0711 5F020000 		.4byte	0x25f
 1864 0715 06       		.uleb128 0x6
 1865 0716 59030000 		.4byte	.LASF120
 1866 071a 0C       		.byte	0xc
 1867 071b 0D       		.byte	0xd
 1868 071c 34       		.byte	0x34
 1869 071d 3A070000 		.4byte	0x73a
 1870 0721 07       		.uleb128 0x7
 1871 0722 B1000000 		.4byte	.LASF121
 1872 0726 0D       		.byte	0xd
 1873 0727 35       		.byte	0x35
 1874 0728 94020000 		.4byte	0x294
 1875 072c 00       		.byte	0
 1876 072d 07       		.uleb128 0x7
 1877 072e B8020000 		.4byte	.LASF122
 1878 0732 0D       		.byte	0xd
 1879 0733 37       		.byte	0x37
 1880 0734 20010000 		.4byte	0x120
 1881 0738 08       		.byte	0x8
 1882 0739 00       		.byte	0
 1883 073a 0A       		.uleb128 0xa
 1884 073b 04       		.byte	0x4
 1885 073c 15070000 		.4byte	0x715
 1886 0740 06       		.uleb128 0x6
 1887 0741 F5040000 		.4byte	.LASF123
 1888 0745 10       		.byte	0x10
 1889 0746 0E       		.byte	0xe
 1890 0747 39       		.byte	0x39
 1891 0748 71070000 		.4byte	0x771
 1892 074c 07       		.uleb128 0x7
 1893 074d 85080000 		.4byte	.LASF124
 1894 0751 0E       		.byte	0xe
 1895 0752 3A       		.byte	0x3a
 1896 0753 94020000 		.4byte	0x294
 1897 0757 00       		.byte	0
 1898 0758 07       		.uleb128 0x7
 1899 0759 A9000000 		.4byte	.LASF125
 1900 075d 0E       		.byte	0xe
 1901 075e 3C       		.byte	0x3c
 1902 075f 6A020000 		.4byte	0x26a
 1903 0763 08       		.byte	0x8
 1904 0764 07       		.uleb128 0x7
 1905 0765 6E0B0000 		.4byte	.LASF126
 1906 0769 0E       		.byte	0xe
 1907 076a 3E       		.byte	0x3e
 1908 076b B5070000 		.4byte	0x7b5
 1909 076f 0C       		.byte	0xc
 1910 0770 00       		.byte	0
 1911 0771 0A       		.uleb128 0xa
 1912 0772 04       		.byte	0x4
 1913 0773 40070000 		.4byte	0x740
 1914 0777 0A       		.uleb128 0xa
 1915 0778 04       		.byte	0x4
ARM GAS  C:\Users\Luis\AppData\Local\Temp\ccRnH3nf.s 			page 35


 1916 0779 7D070000 		.4byte	0x77d
 1917 077d 19       		.uleb128 0x19
 1918 077e 82070000 		.4byte	0x782
 1919 0782 04       		.uleb128 0x4
 1920 0783 01       		.byte	0x1
 1921 0784 08       		.byte	0x8
 1922 0785 6B000000 		.4byte	.LASF127
 1923 0789 0A       		.uleb128 0xa
 1924 078a 04       		.byte	0x4
 1925 078b C8040000 		.4byte	0x4c8
 1926 078f 0A       		.uleb128 0xa
 1927 0790 04       		.byte	0x4
 1928 0791 49030000 		.4byte	0x349
 1929 0795 05       		.uleb128 0x5
 1930 0796 77070000 		.4byte	0x777
 1931 079a 15       		.uleb128 0x15
 1932 079b C8040000 		.4byte	0x4c8
 1933 079f AA070000 		.4byte	0x7aa
 1934 07a3 16       		.uleb128 0x16
 1935 07a4 B6040000 		.4byte	0x4b6
 1936 07a8 1F       		.byte	0x1f
 1937 07a9 00       		.byte	0
 1938 07aa 03       		.uleb128 0x3
 1939 07ab 470A0000 		.4byte	.LASF128
 1940 07af 0E       		.byte	0xe
 1941 07b0 34       		.byte	0x34
 1942 07b1 40070000 		.4byte	0x740
 1943 07b5 0A       		.uleb128 0xa
 1944 07b6 04       		.byte	0x4
 1945 07b7 AA070000 		.4byte	0x7aa
 1946 07bb 04       		.uleb128 0x4
 1947 07bc 01       		.byte	0x1
 1948 07bd 02       		.byte	0x2
 1949 07be A4040000 		.4byte	.LASF129
 1950 07c2 03       		.uleb128 0x3
 1951 07c3 01070000 		.4byte	.LASF130
 1952 07c7 0F       		.byte	0xf
 1953 07c8 38       		.byte	0x38
 1954 07c9 50000000 		.4byte	0x50
 1955 07cd 03       		.uleb128 0x3
 1956 07ce 0F050000 		.4byte	.LASF131
 1957 07d2 0F       		.byte	0xf
 1958 07d3 39       		.byte	0x39
 1959 07d4 3E000000 		.4byte	0x3e
 1960 07d8 03       		.uleb128 0x3
 1961 07d9 36010000 		.4byte	.LASF132
 1962 07dd 0F       		.byte	0xf
 1963 07de 3A       		.byte	0x3a
 1964 07df 74000000 		.4byte	0x74
 1965 07e3 03       		.uleb128 0x3
 1966 07e4 090A0000 		.4byte	.LASF133
 1967 07e8 0F       		.byte	0xf
 1968 07e9 3B       		.byte	0x3b
 1969 07ea 62000000 		.4byte	0x62
 1970 07ee 03       		.uleb128 0x3
 1971 07ef 60080000 		.4byte	.LASF134
 1972 07f3 0F       		.byte	0xf
ARM GAS  C:\Users\Luis\AppData\Local\Temp\ccRnH3nf.s 			page 36


 1973 07f4 3C       		.byte	0x3c
 1974 07f5 98000000 		.4byte	0x98
 1975 07f9 06       		.uleb128 0x6
 1976 07fa 280C0000 		.4byte	.LASF135
 1977 07fe 04       		.byte	0x4
 1978 07ff 10       		.byte	0x10
 1979 0800 2C       		.byte	0x2c
 1980 0801 12080000 		.4byte	0x812
 1981 0805 07       		.uleb128 0x7
 1982 0806 F50A0000 		.4byte	.LASF136
 1983 080a 10       		.byte	0x10
 1984 080b 2D       		.byte	0x2d
 1985 080c EE070000 		.4byte	0x7ee
 1986 0810 00       		.byte	0
 1987 0811 00       		.byte	0
 1988 0812 03       		.uleb128 0x3
 1989 0813 DA0B0000 		.4byte	.LASF137
 1990 0817 10       		.byte	0x10
 1991 0818 40       		.byte	0x40
 1992 0819 F9070000 		.4byte	0x7f9
 1993 081d 03       		.uleb128 0x3
 1994 081e 00010000 		.4byte	.LASF138
 1995 0822 11       		.byte	0x11
 1996 0823 2F       		.byte	0x2f
 1997 0824 CD070000 		.4byte	0x7cd
 1998 0828 06       		.uleb128 0x6
 1999 0829 C70A0000 		.4byte	.LASF139
 2000 082d 10       		.byte	0x10
 2001 082e 12       		.byte	0x12
 2002 082f 4F       		.byte	0x4f
 2003 0830 89080000 		.4byte	0x889
 2004 0834 07       		.uleb128 0x7
 2005 0835 E1000000 		.4byte	.LASF140
 2006 0839 12       		.byte	0x12
 2007 083a 51       		.byte	0x51
 2008 083b 89080000 		.4byte	0x889
 2009 083f 00       		.byte	0
 2010 0840 07       		.uleb128 0x7
 2011 0841 77040000 		.4byte	.LASF141
 2012 0845 12       		.byte	0x12
 2013 0846 54       		.byte	0x54
 2014 0847 47030000 		.4byte	0x347
 2015 084b 04       		.byte	0x4
 2016 084c 07       		.uleb128 0x7
 2017 084d 000B0000 		.4byte	.LASF142
 2018 0851 12       		.byte	0x12
 2019 0852 5D       		.byte	0x5d
 2020 0853 D8070000 		.4byte	0x7d8
 2021 0857 08       		.byte	0x8
 2022 0858 12       		.uleb128 0x12
 2023 0859 6C656E00 		.ascii	"len\000"
 2024 085d 12       		.byte	0x12
 2025 085e 60       		.byte	0x60
 2026 085f D8070000 		.4byte	0x7d8
 2027 0863 0A       		.byte	0xa
 2028 0864 07       		.uleb128 0x7
 2029 0865 12060000 		.4byte	.LASF143
ARM GAS  C:\Users\Luis\AppData\Local\Temp\ccRnH3nf.s 			page 37


 2030 0869 12       		.byte	0x12
 2031 086a 63       		.byte	0x63
 2032 086b C2070000 		.4byte	0x7c2
 2033 086f 0C       		.byte	0xc
 2034 0870 07       		.uleb128 0x7
 2035 0871 99000000 		.4byte	.LASF144
 2036 0875 12       		.byte	0x12
 2037 0876 66       		.byte	0x66
 2038 0877 C2070000 		.4byte	0x7c2
 2039 087b 0D       		.byte	0xd
 2040 087c 12       		.uleb128 0x12
 2041 087d 72656600 		.ascii	"ref\000"
 2042 0881 12       		.byte	0x12
 2043 0882 6D       		.byte	0x6d
 2044 0883 D8070000 		.4byte	0x7d8
 2045 0887 0E       		.byte	0xe
 2046 0888 00       		.byte	0
 2047 0889 0A       		.uleb128 0xa
 2048 088a 04       		.byte	0x4
 2049 088b 28080000 		.4byte	0x828
 2050 088f 03       		.uleb128 0x3
 2051 0890 2B080000 		.4byte	.LASF145
 2052 0894 13       		.byte	0x13
 2053 0895 66       		.byte	0x66
 2054 0896 9A080000 		.4byte	0x89a
 2055 089a 0A       		.uleb128 0xa
 2056 089b 04       		.byte	0x4
 2057 089c A0080000 		.4byte	0x8a0
 2058 08a0 1A       		.uleb128 0x1a
 2059 08a1 1D080000 		.4byte	0x81d
 2060 08a5 AF080000 		.4byte	0x8af
 2061 08a9 0D       		.uleb128 0xd
 2062 08aa AF080000 		.4byte	0x8af
 2063 08ae 00       		.byte	0
 2064 08af 0A       		.uleb128 0xa
 2065 08b0 04       		.byte	0x4
 2066 08b1 B5080000 		.4byte	0x8b5
 2067 08b5 06       		.uleb128 0x6
 2068 08b6 5A000000 		.4byte	.LASF146
 2069 08ba 30       		.byte	0x30
 2070 08bb 13       		.byte	0x13
 2071 08bc 88       		.byte	0x88
 2072 08bd 69090000 		.4byte	0x969
 2073 08c1 07       		.uleb128 0x7
 2074 08c2 E1000000 		.4byte	.LASF140
 2075 08c6 13       		.byte	0x13
 2076 08c7 8A       		.byte	0x8a
 2077 08c8 AF080000 		.4byte	0x8af
 2078 08cc 00       		.byte	0
 2079 08cd 07       		.uleb128 0x7
 2080 08ce 280C0000 		.4byte	.LASF135
 2081 08d2 13       		.byte	0x13
 2082 08d3 8D       		.byte	0x8d
 2083 08d4 12080000 		.4byte	0x812
 2084 08d8 04       		.byte	0x4
 2085 08d9 07       		.uleb128 0x7
 2086 08da A0060000 		.4byte	.LASF147
ARM GAS  C:\Users\Luis\AppData\Local\Temp\ccRnH3nf.s 			page 38


 2087 08de 13       		.byte	0x13
 2088 08df 8E       		.byte	0x8e
 2089 08e0 12080000 		.4byte	0x812
 2090 08e4 08       		.byte	0x8
 2091 08e5 12       		.uleb128 0x12
 2092 08e6 677700   		.ascii	"gw\000"
 2093 08e9 13       		.byte	0x13
 2094 08ea 8F       		.byte	0x8f
 2095 08eb 12080000 		.4byte	0x812
 2096 08ef 0C       		.byte	0xc
 2097 08f0 07       		.uleb128 0x7
 2098 08f1 8F070000 		.4byte	.LASF148
 2099 08f5 13       		.byte	0x13
 2100 08f6 93       		.byte	0x93
 2101 08f7 69090000 		.4byte	0x969
 2102 08fb 10       		.byte	0x10
 2103 08fc 07       		.uleb128 0x7
 2104 08fd 70000000 		.4byte	.LASF149
 2105 0901 13       		.byte	0x13
 2106 0902 97       		.byte	0x97
 2107 0903 8E090000 		.4byte	0x98e
 2108 0907 14       		.byte	0x14
 2109 0908 07       		.uleb128 0x7
 2110 0909 060C0000 		.4byte	.LASF150
 2111 090d 13       		.byte	0x13
 2112 090e 9B       		.byte	0x9b
 2113 090f BE090000 		.4byte	0x9be
 2114 0913 18       		.byte	0x18
 2115 0914 07       		.uleb128 0x7
 2116 0915 FA0A0000 		.4byte	.LASF151
 2117 0919 13       		.byte	0x13
 2118 091a AC       		.byte	0xac
 2119 091b 47030000 		.4byte	0x347
 2120 091f 1C       		.byte	0x1c
 2121 0920 12       		.uleb128 0x12
 2122 0921 6D747500 		.ascii	"mtu\000"
 2123 0925 13       		.byte	0x13
 2124 0926 BA       		.byte	0xba
 2125 0927 D8070000 		.4byte	0x7d8
 2126 092b 20       		.byte	0x20
 2127 092c 07       		.uleb128 0x7
 2128 092d F8070000 		.4byte	.LASF152
 2129 0931 13       		.byte	0x13
 2130 0932 BC       		.byte	0xbc
 2131 0933 C2070000 		.4byte	0x7c2
 2132 0937 22       		.byte	0x22
 2133 0938 07       		.uleb128 0x7
 2134 0939 92030000 		.4byte	.LASF153
 2135 093d 13       		.byte	0x13
 2136 093e BE       		.byte	0xbe
 2137 093f E3090000 		.4byte	0x9e3
 2138 0943 23       		.byte	0x23
 2139 0944 07       		.uleb128 0x7
 2140 0945 99000000 		.4byte	.LASF144
 2141 0949 13       		.byte	0x13
 2142 094a C0       		.byte	0xc0
 2143 094b C2070000 		.4byte	0x7c2
ARM GAS  C:\Users\Luis\AppData\Local\Temp\ccRnH3nf.s 			page 39


 2144 094f 29       		.byte	0x29
 2145 0950 07       		.uleb128 0x7
 2146 0951 51090000 		.4byte	.LASF154
 2147 0955 13       		.byte	0x13
 2148 0956 C2       		.byte	0xc2
 2149 0957 F3090000 		.4byte	0x9f3
 2150 095b 2A       		.byte	0x2a
 2151 095c 12       		.uleb128 0x12
 2152 095d 6E756D00 		.ascii	"num\000"
 2153 0961 13       		.byte	0x13
 2154 0962 C4       		.byte	0xc4
 2155 0963 C2070000 		.4byte	0x7c2
 2156 0967 2C       		.byte	0x2c
 2157 0968 00       		.byte	0
 2158 0969 03       		.uleb128 0x3
 2159 096a D4020000 		.4byte	.LASF155
 2160 096e 13       		.byte	0x13
 2161 096f 6D       		.byte	0x6d
 2162 0970 74090000 		.4byte	0x974
 2163 0974 0A       		.uleb128 0xa
 2164 0975 04       		.byte	0x4
 2165 0976 7A090000 		.4byte	0x97a
 2166 097a 1A       		.uleb128 0x1a
 2167 097b 1D080000 		.4byte	0x81d
 2168 097f 8E090000 		.4byte	0x98e
 2169 0983 0D       		.uleb128 0xd
 2170 0984 89080000 		.4byte	0x889
 2171 0988 0D       		.uleb128 0xd
 2172 0989 AF080000 		.4byte	0x8af
 2173 098d 00       		.byte	0
 2174 098e 03       		.uleb128 0x3
 2175 098f 6C020000 		.4byte	.LASF156
 2176 0993 13       		.byte	0x13
 2177 0994 76       		.byte	0x76
 2178 0995 99090000 		.4byte	0x999
 2179 0999 0A       		.uleb128 0xa
 2180 099a 04       		.byte	0x4
 2181 099b 9F090000 		.4byte	0x99f
 2182 099f 1A       		.uleb128 0x1a
 2183 09a0 1D080000 		.4byte	0x81d
 2184 09a4 B8090000 		.4byte	0x9b8
 2185 09a8 0D       		.uleb128 0xd
 2186 09a9 AF080000 		.4byte	0x8af
 2187 09ad 0D       		.uleb128 0xd
 2188 09ae 89080000 		.4byte	0x889
 2189 09b2 0D       		.uleb128 0xd
 2190 09b3 B8090000 		.4byte	0x9b8
 2191 09b7 00       		.byte	0
 2192 09b8 0A       		.uleb128 0xa
 2193 09b9 04       		.byte	0x4
 2194 09ba 12080000 		.4byte	0x812
 2195 09be 03       		.uleb128 0x3
 2196 09bf 63090000 		.4byte	.LASF157
 2197 09c3 13       		.byte	0x13
 2198 09c4 7E       		.byte	0x7e
 2199 09c5 C9090000 		.4byte	0x9c9
 2200 09c9 0A       		.uleb128 0xa
ARM GAS  C:\Users\Luis\AppData\Local\Temp\ccRnH3nf.s 			page 40


 2201 09ca 04       		.byte	0x4
 2202 09cb CF090000 		.4byte	0x9cf
 2203 09cf 1A       		.uleb128 0x1a
 2204 09d0 1D080000 		.4byte	0x81d
 2205 09d4 E3090000 		.4byte	0x9e3
 2206 09d8 0D       		.uleb128 0xd
 2207 09d9 AF080000 		.4byte	0x8af
 2208 09dd 0D       		.uleb128 0xd
 2209 09de 89080000 		.4byte	0x889
 2210 09e2 00       		.byte	0
 2211 09e3 15       		.uleb128 0x15
 2212 09e4 C2070000 		.4byte	0x7c2
 2213 09e8 F3090000 		.4byte	0x9f3
 2214 09ec 16       		.uleb128 0x16
 2215 09ed B6040000 		.4byte	0x4b6
 2216 09f1 05       		.byte	0x5
 2217 09f2 00       		.byte	0
 2218 09f3 15       		.uleb128 0x15
 2219 09f4 82070000 		.4byte	0x782
 2220 09f8 030A0000 		.4byte	0xa03
 2221 09fc 16       		.uleb128 0x16
 2222 09fd B6040000 		.4byte	0x4b6
 2223 0a01 01       		.byte	0x1
 2224 0a02 00       		.byte	0
 2225 0a03 03       		.uleb128 0x3
 2226 0a04 8B000000 		.4byte	.LASF158
 2227 0a08 14       		.byte	0x14
 2228 0a09 3C       		.byte	0x3c
 2229 0a0a 0E0A0000 		.4byte	0xa0e
 2230 0a0e 0A       		.uleb128 0xa
 2231 0a0f 04       		.byte	0x4
 2232 0a10 140A0000 		.4byte	0xa14
 2233 0a14 1A       		.uleb128 0x1a
 2234 0a15 1D080000 		.4byte	0x81d
 2235 0a19 2D0A0000 		.4byte	0xa2d
 2236 0a1d 0D       		.uleb128 0xd
 2237 0a1e 47030000 		.4byte	0x347
 2238 0a22 0D       		.uleb128 0xd
 2239 0a23 2D0A0000 		.4byte	0xa2d
 2240 0a27 0D       		.uleb128 0xd
 2241 0a28 1D080000 		.4byte	0x81d
 2242 0a2c 00       		.byte	0
 2243 0a2d 0A       		.uleb128 0xa
 2244 0a2e 04       		.byte	0x4
 2245 0a2f 330A0000 		.4byte	0xa33
 2246 0a33 06       		.uleb128 0x6
 2247 0a34 810B0000 		.4byte	.LASF159
 2248 0a38 98       		.byte	0x98
 2249 0a39 14       		.byte	0x14
 2250 0a3a A8       		.byte	0xa8
 2251 0a3b E50C0000 		.4byte	0xce5
 2252 0a3f 07       		.uleb128 0x7
 2253 0a40 03090000 		.4byte	.LASF160
 2254 0a44 14       		.byte	0x14
 2255 0a45 AA       		.byte	0xaa
 2256 0a46 12080000 		.4byte	0x812
 2257 0a4a 00       		.byte	0
ARM GAS  C:\Users\Luis\AppData\Local\Temp\ccRnH3nf.s 			page 41


 2258 0a4b 07       		.uleb128 0x7
 2259 0a4c C00B0000 		.4byte	.LASF161
 2260 0a50 14       		.byte	0x14
 2261 0a51 AA       		.byte	0xaa
 2262 0a52 12080000 		.4byte	0x812
 2263 0a56 04       		.byte	0x4
 2264 0a57 07       		.uleb128 0x7
 2265 0a58 60000000 		.4byte	.LASF162
 2266 0a5c 14       		.byte	0x14
 2267 0a5d AA       		.byte	0xaa
 2268 0a5e C2070000 		.4byte	0x7c2
 2269 0a62 08       		.byte	0x8
 2270 0a63 12       		.uleb128 0x12
 2271 0a64 746F7300 		.ascii	"tos\000"
 2272 0a68 14       		.byte	0x14
 2273 0a69 AA       		.byte	0xaa
 2274 0a6a C2070000 		.4byte	0x7c2
 2275 0a6e 09       		.byte	0x9
 2276 0a6f 12       		.uleb128 0x12
 2277 0a70 74746C00 		.ascii	"ttl\000"
 2278 0a74 14       		.byte	0x14
 2279 0a75 AA       		.byte	0xaa
 2280 0a76 C2070000 		.4byte	0x7c2
 2281 0a7a 0A       		.byte	0xa
 2282 0a7b 07       		.uleb128 0x7
 2283 0a7c E1000000 		.4byte	.LASF140
 2284 0a80 14       		.byte	0x14
 2285 0a81 AC       		.byte	0xac
 2286 0a82 2D0A0000 		.4byte	0xa2d
 2287 0a86 0C       		.byte	0xc
 2288 0a87 07       		.uleb128 0x7
 2289 0a88 D60A0000 		.4byte	.LASF163
 2290 0a8c 14       		.byte	0x14
 2291 0a8d AC       		.byte	0xac
 2292 0a8e 47030000 		.4byte	0x347
 2293 0a92 10       		.byte	0x10
 2294 0a93 07       		.uleb128 0x7
 2295 0a94 20030000 		.4byte	.LASF164
 2296 0a98 14       		.byte	0x14
 2297 0a99 AC       		.byte	0xac
 2298 0a9a 030A0000 		.4byte	0xa03
 2299 0a9e 14       		.byte	0x14
 2300 0a9f 07       		.uleb128 0x7
 2301 0aa0 FA0A0000 		.4byte	.LASF151
 2302 0aa4 14       		.byte	0x14
 2303 0aa5 AC       		.byte	0xac
 2304 0aa6 8F0D0000 		.4byte	0xd8f
 2305 0aaa 18       		.byte	0x18
 2306 0aab 07       		.uleb128 0x7
 2307 0aac 6A050000 		.4byte	.LASF165
 2308 0ab0 14       		.byte	0x14
 2309 0ab1 AC       		.byte	0xac
 2310 0ab2 C2070000 		.4byte	0x7c2
 2311 0ab6 19       		.byte	0x19
 2312 0ab7 07       		.uleb128 0x7
 2313 0ab8 4E030000 		.4byte	.LASF166
 2314 0abc 14       		.byte	0x14
ARM GAS  C:\Users\Luis\AppData\Local\Temp\ccRnH3nf.s 			page 42


 2315 0abd AC       		.byte	0xac
 2316 0abe D8070000 		.4byte	0x7d8
 2317 0ac2 1A       		.byte	0x1a
 2318 0ac3 07       		.uleb128 0x7
 2319 0ac4 2A070000 		.4byte	.LASF167
 2320 0ac8 14       		.byte	0x14
 2321 0ac9 AF       		.byte	0xaf
 2322 0aca D8070000 		.4byte	0x7d8
 2323 0ace 1C       		.byte	0x1c
 2324 0acf 07       		.uleb128 0x7
 2325 0ad0 99000000 		.4byte	.LASF144
 2326 0ad4 14       		.byte	0x14
 2327 0ad5 B1       		.byte	0xb1
 2328 0ad6 C2070000 		.4byte	0x7c2
 2329 0ada 1E       		.byte	0x1e
 2330 0adb 07       		.uleb128 0x7
 2331 0adc 83000000 		.4byte	.LASF168
 2332 0ae0 14       		.byte	0x14
 2333 0ae1 BF       		.byte	0xbf
 2334 0ae2 C2070000 		.4byte	0x7c2
 2335 0ae6 1F       		.byte	0x1f
 2336 0ae7 07       		.uleb128 0x7
 2337 0ae8 6F050000 		.4byte	.LASF169
 2338 0aec 14       		.byte	0x14
 2339 0aed BF       		.byte	0xbf
 2340 0aee C2070000 		.4byte	0x7c2
 2341 0af2 20       		.byte	0x20
 2342 0af3 07       		.uleb128 0x7
 2343 0af4 EB080000 		.4byte	.LASF170
 2344 0af8 14       		.byte	0x14
 2345 0af9 C0       		.byte	0xc0
 2346 0afa C2070000 		.4byte	0x7c2
 2347 0afe 21       		.byte	0x21
 2348 0aff 12       		.uleb128 0x12
 2349 0b00 746D7200 		.ascii	"tmr\000"
 2350 0b04 14       		.byte	0x14
 2351 0b05 C1       		.byte	0xc1
 2352 0b06 EE070000 		.4byte	0x7ee
 2353 0b0a 24       		.byte	0x24
 2354 0b0b 07       		.uleb128 0x7
 2355 0b0c 1D040000 		.4byte	.LASF171
 2356 0b10 14       		.byte	0x14
 2357 0b11 C4       		.byte	0xc4
 2358 0b12 EE070000 		.4byte	0x7ee
 2359 0b16 28       		.byte	0x28
 2360 0b17 07       		.uleb128 0x7
 2361 0b18 B6080000 		.4byte	.LASF172
 2362 0b1c 14       		.byte	0x14
 2363 0b1d C5       		.byte	0xc5
 2364 0b1e D8070000 		.4byte	0x7d8
 2365 0b22 2C       		.byte	0x2c
 2366 0b23 07       		.uleb128 0x7
 2367 0b24 57070000 		.4byte	.LASF173
 2368 0b28 14       		.byte	0x14
 2369 0b29 C6       		.byte	0xc6
 2370 0b2a D8070000 		.4byte	0x7d8
 2371 0b2e 2E       		.byte	0x2e
ARM GAS  C:\Users\Luis\AppData\Local\Temp\ccRnH3nf.s 			page 43


 2372 0b2f 07       		.uleb128 0x7
 2373 0b30 24020000 		.4byte	.LASF174
 2374 0b34 14       		.byte	0x14
 2375 0b35 C7       		.byte	0xc7
 2376 0b36 EE070000 		.4byte	0x7ee
 2377 0b3a 30       		.byte	0x30
 2378 0b3b 07       		.uleb128 0x7
 2379 0b3c CC070000 		.4byte	.LASF175
 2380 0b40 14       		.byte	0x14
 2381 0b41 CA       		.byte	0xca
 2382 0b42 E3070000 		.4byte	0x7e3
 2383 0b46 34       		.byte	0x34
 2384 0b47 12       		.uleb128 0x12
 2385 0b48 6D737300 		.ascii	"mss\000"
 2386 0b4c 14       		.byte	0x14
 2387 0b4d CC       		.byte	0xcc
 2388 0b4e D8070000 		.4byte	0x7d8
 2389 0b52 36       		.byte	0x36
 2390 0b53 07       		.uleb128 0x7
 2391 0b54 BE080000 		.4byte	.LASF176
 2392 0b58 14       		.byte	0x14
 2393 0b59 CF       		.byte	0xcf
 2394 0b5a EE070000 		.4byte	0x7ee
 2395 0b5e 38       		.byte	0x38
 2396 0b5f 07       		.uleb128 0x7
 2397 0b60 C9030000 		.4byte	.LASF177
 2398 0b64 14       		.byte	0x14
 2399 0b65 D0       		.byte	0xd0
 2400 0b66 EE070000 		.4byte	0x7ee
 2401 0b6a 3C       		.byte	0x3c
 2402 0b6b 12       		.uleb128 0x12
 2403 0b6c 736100   		.ascii	"sa\000"
 2404 0b6f 14       		.byte	0x14
 2405 0b70 D1       		.byte	0xd1
 2406 0b71 E3070000 		.4byte	0x7e3
 2407 0b75 40       		.byte	0x40
 2408 0b76 12       		.uleb128 0x12
 2409 0b77 737600   		.ascii	"sv\000"
 2410 0b7a 14       		.byte	0x14
 2411 0b7b D1       		.byte	0xd1
 2412 0b7c E3070000 		.4byte	0x7e3
 2413 0b80 42       		.byte	0x42
 2414 0b81 12       		.uleb128 0x12
 2415 0b82 72746F00 		.ascii	"rto\000"
 2416 0b86 14       		.byte	0x14
 2417 0b87 D3       		.byte	0xd3
 2418 0b88 E3070000 		.4byte	0x7e3
 2419 0b8c 44       		.byte	0x44
 2420 0b8d 07       		.uleb128 0x7
 2421 0b8e F40B0000 		.4byte	.LASF178
 2422 0b92 14       		.byte	0x14
 2423 0b93 D4       		.byte	0xd4
 2424 0b94 C2070000 		.4byte	0x7c2
 2425 0b98 46       		.byte	0x46
 2426 0b99 07       		.uleb128 0x7
 2427 0b9a 62050000 		.4byte	.LASF179
 2428 0b9e 14       		.byte	0x14
ARM GAS  C:\Users\Luis\AppData\Local\Temp\ccRnH3nf.s 			page 44


 2429 0b9f D7       		.byte	0xd7
 2430 0ba0 C2070000 		.4byte	0x7c2
 2431 0ba4 47       		.byte	0x47
 2432 0ba5 07       		.uleb128 0x7
 2433 0ba6 FE040000 		.4byte	.LASF180
 2434 0baa 14       		.byte	0x14
 2435 0bab D8       		.byte	0xd8
 2436 0bac EE070000 		.4byte	0x7ee
 2437 0bb0 48       		.byte	0x48
 2438 0bb1 07       		.uleb128 0x7
 2439 0bb2 F9020000 		.4byte	.LASF181
 2440 0bb6 14       		.byte	0x14
 2441 0bb7 DB       		.byte	0xdb
 2442 0bb8 D8070000 		.4byte	0x7d8
 2443 0bbc 4C       		.byte	0x4c
 2444 0bbd 07       		.uleb128 0x7
 2445 0bbe 86090000 		.4byte	.LASF182
 2446 0bc2 14       		.byte	0x14
 2447 0bc3 DC       		.byte	0xdc
 2448 0bc4 D8070000 		.4byte	0x7d8
 2449 0bc8 4E       		.byte	0x4e
 2450 0bc9 07       		.uleb128 0x7
 2451 0bca 31090000 		.4byte	.LASF183
 2452 0bce 14       		.byte	0x14
 2453 0bcf DF       		.byte	0xdf
 2454 0bd0 EE070000 		.4byte	0x7ee
 2455 0bd4 50       		.byte	0x50
 2456 0bd5 07       		.uleb128 0x7
 2457 0bd6 94050000 		.4byte	.LASF184
 2458 0bda 14       		.byte	0x14
 2459 0bdb E0       		.byte	0xe0
 2460 0bdc EE070000 		.4byte	0x7ee
 2461 0be0 54       		.byte	0x54
 2462 0be1 07       		.uleb128 0x7
 2463 0be2 17060000 		.4byte	.LASF185
 2464 0be6 14       		.byte	0x14
 2465 0be7 E0       		.byte	0xe0
 2466 0be8 EE070000 		.4byte	0x7ee
 2467 0bec 58       		.byte	0x58
 2468 0bed 07       		.uleb128 0x7
 2469 0bee 7D060000 		.4byte	.LASF186
 2470 0bf2 14       		.byte	0x14
 2471 0bf3 E2       		.byte	0xe2
 2472 0bf4 EE070000 		.4byte	0x7ee
 2473 0bf8 5C       		.byte	0x5c
 2474 0bf9 07       		.uleb128 0x7
 2475 0bfa 11080000 		.4byte	.LASF187
 2476 0bfe 14       		.byte	0x14
 2477 0bff E3       		.byte	0xe3
 2478 0c00 D8070000 		.4byte	0x7d8
 2479 0c04 60       		.byte	0x60
 2480 0c05 07       		.uleb128 0x7
 2481 0c06 45090000 		.4byte	.LASF188
 2482 0c0a 14       		.byte	0x14
 2483 0c0b E4       		.byte	0xe4
 2484 0c0c D8070000 		.4byte	0x7d8
 2485 0c10 62       		.byte	0x62
ARM GAS  C:\Users\Luis\AppData\Local\Temp\ccRnH3nf.s 			page 45


 2486 0c11 07       		.uleb128 0x7
 2487 0c12 B1050000 		.4byte	.LASF189
 2488 0c16 14       		.byte	0x14
 2489 0c17 E6       		.byte	0xe6
 2490 0c18 D8070000 		.4byte	0x7d8
 2491 0c1c 64       		.byte	0x64
 2492 0c1d 07       		.uleb128 0x7
 2493 0c1e 8F090000 		.4byte	.LASF190
 2494 0c22 14       		.byte	0x14
 2495 0c23 E8       		.byte	0xe8
 2496 0c24 D8070000 		.4byte	0x7d8
 2497 0c28 66       		.byte	0x66
 2498 0c29 07       		.uleb128 0x7
 2499 0c2a F90B0000 		.4byte	.LASF191
 2500 0c2e 14       		.byte	0x14
 2501 0c2f EA       		.byte	0xea
 2502 0c30 D8070000 		.4byte	0x7d8
 2503 0c34 68       		.byte	0x68
 2504 0c35 07       		.uleb128 0x7
 2505 0c36 18090000 		.4byte	.LASF192
 2506 0c3a 14       		.byte	0x14
 2507 0c3b EE       		.byte	0xee
 2508 0c3c D8070000 		.4byte	0x7d8
 2509 0c40 6A       		.byte	0x6a
 2510 0c41 07       		.uleb128 0x7
 2511 0c42 AF080000 		.4byte	.LASF193
 2512 0c46 14       		.byte	0x14
 2513 0c47 F2       		.byte	0xf2
 2514 0c48 2B0E0000 		.4byte	0xe2b
 2515 0c4c 6C       		.byte	0x6c
 2516 0c4d 07       		.uleb128 0x7
 2517 0c4e 3A040000 		.4byte	.LASF194
 2518 0c52 14       		.byte	0x14
 2519 0c53 F3       		.byte	0xf3
 2520 0c54 2B0E0000 		.4byte	0xe2b
 2521 0c58 70       		.byte	0x70
 2522 0c59 07       		.uleb128 0x7
 2523 0c5a 42080000 		.4byte	.LASF195
 2524 0c5e 14       		.byte	0x14
 2525 0c5f F5       		.byte	0xf5
 2526 0c60 2B0E0000 		.4byte	0xe2b
 2527 0c64 74       		.byte	0x74
 2528 0c65 07       		.uleb128 0x7
 2529 0c66 170A0000 		.4byte	.LASF196
 2530 0c6a 14       		.byte	0x14
 2531 0c6b F8       		.byte	0xf8
 2532 0c6c 89080000 		.4byte	0x889
 2533 0c70 78       		.byte	0x78
 2534 0c71 07       		.uleb128 0x7
 2535 0c72 05060000 		.4byte	.LASF197
 2536 0c76 14       		.byte	0x14
 2537 0c77 FC       		.byte	0xfc
 2538 0c78 140D0000 		.4byte	0xd14
 2539 0c7c 7C       		.byte	0x7c
 2540 0c7d 07       		.uleb128 0x7
 2541 0c7e 570B0000 		.4byte	.LASF198
 2542 0c82 14       		.byte	0x14
ARM GAS  C:\Users\Luis\AppData\Local\Temp\ccRnH3nf.s 			page 46


 2543 0c83 FE       		.byte	0xfe
 2544 0c84 E50C0000 		.4byte	0xce5
 2545 0c88 80       		.byte	0x80
 2546 0c89 09       		.uleb128 0x9
 2547 0c8a 9A040000 		.4byte	.LASF199
 2548 0c8e 14       		.byte	0x14
 2549 0c8f 0001     		.2byte	0x100
 2550 0c91 840D0000 		.4byte	0xd84
 2551 0c95 84       		.byte	0x84
 2552 0c96 09       		.uleb128 0x9
 2553 0c97 86050000 		.4byte	.LASF200
 2554 0c9b 14       		.byte	0x14
 2555 0c9c 0201     		.2byte	0x102
 2556 0c9e 3E0D0000 		.4byte	0xd3e
 2557 0ca2 88       		.byte	0x88
 2558 0ca3 09       		.uleb128 0x9
 2559 0ca4 0C080000 		.4byte	.LASF201
 2560 0ca8 14       		.byte	0x14
 2561 0ca9 0401     		.2byte	0x104
 2562 0cab 630D0000 		.4byte	0xd63
 2563 0caf 8C       		.byte	0x8c
 2564 0cb0 09       		.uleb128 0x9
 2565 0cb1 CC0A0000 		.4byte	.LASF202
 2566 0cb5 14       		.byte	0x14
 2567 0cb6 0D01     		.2byte	0x10d
 2568 0cb8 EE070000 		.4byte	0x7ee
 2569 0cbc 90       		.byte	0x90
 2570 0cbd 09       		.uleb128 0x9
 2571 0cbe B40B0000 		.4byte	.LASF203
 2572 0cc2 14       		.byte	0x14
 2573 0cc3 1401     		.2byte	0x114
 2574 0cc5 C2070000 		.4byte	0x7c2
 2575 0cc9 94       		.byte	0x94
 2576 0cca 09       		.uleb128 0x9
 2577 0ccb D6060000 		.4byte	.LASF204
 2578 0ccf 14       		.byte	0x14
 2579 0cd0 1601     		.2byte	0x116
 2580 0cd2 C2070000 		.4byte	0x7c2
 2581 0cd6 95       		.byte	0x95
 2582 0cd7 09       		.uleb128 0x9
 2583 0cd8 7C020000 		.4byte	.LASF205
 2584 0cdc 14       		.byte	0x14
 2585 0cdd 1901     		.2byte	0x119
 2586 0cdf C2070000 		.4byte	0x7c2
 2587 0ce3 96       		.byte	0x96
 2588 0ce4 00       		.byte	0
 2589 0ce5 03       		.uleb128 0x3
 2590 0ce6 83070000 		.4byte	.LASF206
 2591 0cea 14       		.byte	0x14
 2592 0ceb 48       		.byte	0x48
 2593 0cec F00C0000 		.4byte	0xcf0
 2594 0cf0 0A       		.uleb128 0xa
 2595 0cf1 04       		.byte	0x4
 2596 0cf2 F60C0000 		.4byte	0xcf6
 2597 0cf6 1A       		.uleb128 0x1a
 2598 0cf7 1D080000 		.4byte	0x81d
 2599 0cfb 140D0000 		.4byte	0xd14
ARM GAS  C:\Users\Luis\AppData\Local\Temp\ccRnH3nf.s 			page 47


 2600 0cff 0D       		.uleb128 0xd
 2601 0d00 47030000 		.4byte	0x347
 2602 0d04 0D       		.uleb128 0xd
 2603 0d05 2D0A0000 		.4byte	0xa2d
 2604 0d09 0D       		.uleb128 0xd
 2605 0d0a 89080000 		.4byte	0x889
 2606 0d0e 0D       		.uleb128 0xd
 2607 0d0f 1D080000 		.4byte	0x81d
 2608 0d13 00       		.byte	0
 2609 0d14 03       		.uleb128 0x3
 2610 0d15 99020000 		.4byte	.LASF207
 2611 0d19 14       		.byte	0x14
 2612 0d1a 56       		.byte	0x56
 2613 0d1b 1F0D0000 		.4byte	0xd1f
 2614 0d1f 0A       		.uleb128 0xa
 2615 0d20 04       		.byte	0x4
 2616 0d21 250D0000 		.4byte	0xd25
 2617 0d25 1A       		.uleb128 0x1a
 2618 0d26 1D080000 		.4byte	0x81d
 2619 0d2a 3E0D0000 		.4byte	0xd3e
 2620 0d2e 0D       		.uleb128 0xd
 2621 0d2f 47030000 		.4byte	0x347
 2622 0d33 0D       		.uleb128 0xd
 2623 0d34 2D0A0000 		.4byte	0xa2d
 2624 0d38 0D       		.uleb128 0xd
 2625 0d39 D8070000 		.4byte	0x7d8
 2626 0d3d 00       		.byte	0
 2627 0d3e 03       		.uleb128 0x3
 2628 0d3f EC070000 		.4byte	.LASF208
 2629 0d43 14       		.byte	0x14
 2630 0d44 62       		.byte	0x62
 2631 0d45 490D0000 		.4byte	0xd49
 2632 0d49 0A       		.uleb128 0xa
 2633 0d4a 04       		.byte	0x4
 2634 0d4b 4F0D0000 		.4byte	0xd4f
 2635 0d4f 1A       		.uleb128 0x1a
 2636 0d50 1D080000 		.4byte	0x81d
 2637 0d54 630D0000 		.4byte	0xd63
 2638 0d58 0D       		.uleb128 0xd
 2639 0d59 47030000 		.4byte	0x347
 2640 0d5d 0D       		.uleb128 0xd
 2641 0d5e 2D0A0000 		.4byte	0xa2d
 2642 0d62 00       		.byte	0
 2643 0d63 03       		.uleb128 0x3
 2644 0d64 39060000 		.4byte	.LASF209
 2645 0d68 14       		.byte	0x14
 2646 0d69 6E       		.byte	0x6e
 2647 0d6a 6E0D0000 		.4byte	0xd6e
 2648 0d6e 0A       		.uleb128 0xa
 2649 0d6f 04       		.byte	0x4
 2650 0d70 740D0000 		.4byte	0xd74
 2651 0d74 0C       		.uleb128 0xc
 2652 0d75 840D0000 		.4byte	0xd84
 2653 0d79 0D       		.uleb128 0xd
 2654 0d7a 47030000 		.4byte	0x347
 2655 0d7e 0D       		.uleb128 0xd
 2656 0d7f 1D080000 		.4byte	0x81d
ARM GAS  C:\Users\Luis\AppData\Local\Temp\ccRnH3nf.s 			page 48


 2657 0d83 00       		.byte	0
 2658 0d84 03       		.uleb128 0x3
 2659 0d85 D0000000 		.4byte	.LASF210
 2660 0d89 14       		.byte	0x14
 2661 0d8a 7C       		.byte	0x7c
 2662 0d8b 0E0A0000 		.4byte	0xa0e
 2663 0d8f 1B       		.uleb128 0x1b
 2664 0d90 19080000 		.4byte	.LASF275
 2665 0d94 01       		.byte	0x1
 2666 0d95 14       		.byte	0x14
 2667 0d96 7E       		.byte	0x7e
 2668 0d97 DE0D0000 		.4byte	0xdde
 2669 0d9b 1C       		.uleb128 0x1c
 2670 0d9c 59080000 		.4byte	.LASF211
 2671 0da0 00       		.sleb128 0
 2672 0da1 1C       		.uleb128 0x1c
 2673 0da2 E30A0000 		.4byte	.LASF212
 2674 0da6 01       		.sleb128 1
 2675 0da7 1C       		.uleb128 0x1c
 2676 0da8 28090000 		.4byte	.LASF213
 2677 0dac 02       		.sleb128 2
 2678 0dad 1C       		.uleb128 0x1c
 2679 0dae 1F0C0000 		.4byte	.LASF214
 2680 0db2 03       		.sleb128 3
 2681 0db3 1C       		.uleb128 0x1c
 2682 0db4 39090000 		.4byte	.LASF215
 2683 0db8 04       		.sleb128 4
 2684 0db9 1C       		.uleb128 0x1c
 2685 0dba 7A0A0000 		.4byte	.LASF216
 2686 0dbe 05       		.sleb128 5
 2687 0dbf 1C       		.uleb128 0x1c
 2688 0dc0 850A0000 		.4byte	.LASF217
 2689 0dc4 06       		.sleb128 6
 2690 0dc5 1C       		.uleb128 0x1c
 2691 0dc6 B7050000 		.4byte	.LASF218
 2692 0dca 07       		.sleb128 7
 2693 0dcb 1C       		.uleb128 0x1c
 2694 0dcc ED040000 		.4byte	.LASF219
 2695 0dd0 08       		.sleb128 8
 2696 0dd1 1C       		.uleb128 0x1c
 2697 0dd2 52040000 		.4byte	.LASF220
 2698 0dd6 09       		.sleb128 9
 2699 0dd7 1C       		.uleb128 0x1c
 2700 0dd8 B9000000 		.4byte	.LASF221
 2701 0ddc 0A       		.sleb128 10
 2702 0ddd 00       		.byte	0
 2703 0dde 0B       		.uleb128 0xb
 2704 0ddf 99030000 		.4byte	.LASF222
 2705 0de3 10       		.byte	0x10
 2706 0de4 15       		.byte	0x15
 2707 0de5 1501     		.2byte	0x115
 2708 0de7 2B0E0000 		.4byte	0xe2b
 2709 0deb 09       		.uleb128 0x9
 2710 0dec E1000000 		.4byte	.LASF140
 2711 0df0 15       		.byte	0x15
 2712 0df1 1601     		.2byte	0x116
 2713 0df3 2B0E0000 		.4byte	0xe2b
ARM GAS  C:\Users\Luis\AppData\Local\Temp\ccRnH3nf.s 			page 49


 2714 0df7 00       		.byte	0
 2715 0df8 08       		.uleb128 0x8
 2716 0df9 7000     		.ascii	"p\000"
 2717 0dfb 15       		.byte	0x15
 2718 0dfc 1701     		.2byte	0x117
 2719 0dfe 89080000 		.4byte	0x889
 2720 0e02 04       		.byte	0x4
 2721 0e03 08       		.uleb128 0x8
 2722 0e04 6C656E00 		.ascii	"len\000"
 2723 0e08 15       		.byte	0x15
 2724 0e09 1801     		.2byte	0x118
 2725 0e0b D8070000 		.4byte	0x7d8
 2726 0e0f 08       		.byte	0x8
 2727 0e10 09       		.uleb128 0x9
 2728 0e11 99000000 		.4byte	.LASF144
 2729 0e15 15       		.byte	0x15
 2730 0e16 2201     		.2byte	0x122
 2731 0e18 C2070000 		.4byte	0x7c2
 2732 0e1c 0A       		.byte	0xa
 2733 0e1d 09       		.uleb128 0x9
 2734 0e1e 020A0000 		.4byte	.LASF223
 2735 0e22 15       		.byte	0x15
 2736 0e23 2701     		.2byte	0x127
 2737 0e25 410F0000 		.4byte	0xf41
 2738 0e29 0C       		.byte	0xc
 2739 0e2a 00       		.byte	0
 2740 0e2b 0A       		.uleb128 0xa
 2741 0e2c 04       		.byte	0x4
 2742 0e2d DE0D0000 		.4byte	0xdde
 2743 0e31 0B       		.uleb128 0xb
 2744 0e32 B9060000 		.4byte	.LASF224
 2745 0e36 1C       		.byte	0x1c
 2746 0e37 14       		.byte	0x14
 2747 0e38 1C01     		.2byte	0x11c
 2748 0e3a CE0E0000 		.4byte	0xece
 2749 0e3e 09       		.uleb128 0x9
 2750 0e3f 03090000 		.4byte	.LASF160
 2751 0e43 14       		.byte	0x14
 2752 0e44 1E01     		.2byte	0x11e
 2753 0e46 12080000 		.4byte	0x812
 2754 0e4a 00       		.byte	0
 2755 0e4b 09       		.uleb128 0x9
 2756 0e4c C00B0000 		.4byte	.LASF161
 2757 0e50 14       		.byte	0x14
 2758 0e51 1E01     		.2byte	0x11e
 2759 0e53 12080000 		.4byte	0x812
 2760 0e57 04       		.byte	0x4
 2761 0e58 09       		.uleb128 0x9
 2762 0e59 60000000 		.4byte	.LASF162
 2763 0e5d 14       		.byte	0x14
 2764 0e5e 1E01     		.2byte	0x11e
 2765 0e60 C2070000 		.4byte	0x7c2
 2766 0e64 08       		.byte	0x8
 2767 0e65 08       		.uleb128 0x8
 2768 0e66 746F7300 		.ascii	"tos\000"
 2769 0e6a 14       		.byte	0x14
 2770 0e6b 1E01     		.2byte	0x11e
ARM GAS  C:\Users\Luis\AppData\Local\Temp\ccRnH3nf.s 			page 50


 2771 0e6d C2070000 		.4byte	0x7c2
 2772 0e71 09       		.byte	0x9
 2773 0e72 08       		.uleb128 0x8
 2774 0e73 74746C00 		.ascii	"ttl\000"
 2775 0e77 14       		.byte	0x14
 2776 0e78 1E01     		.2byte	0x11e
 2777 0e7a C2070000 		.4byte	0x7c2
 2778 0e7e 0A       		.byte	0xa
 2779 0e7f 09       		.uleb128 0x9
 2780 0e80 E1000000 		.4byte	.LASF140
 2781 0e84 14       		.byte	0x14
 2782 0e85 2001     		.2byte	0x120
 2783 0e87 CE0E0000 		.4byte	0xece
 2784 0e8b 0C       		.byte	0xc
 2785 0e8c 09       		.uleb128 0x9
 2786 0e8d D60A0000 		.4byte	.LASF163
 2787 0e91 14       		.byte	0x14
 2788 0e92 2001     		.2byte	0x120
 2789 0e94 47030000 		.4byte	0x347
 2790 0e98 10       		.byte	0x10
 2791 0e99 09       		.uleb128 0x9
 2792 0e9a 20030000 		.4byte	.LASF164
 2793 0e9e 14       		.byte	0x14
 2794 0e9f 2001     		.2byte	0x120
 2795 0ea1 030A0000 		.4byte	0xa03
 2796 0ea5 14       		.byte	0x14
 2797 0ea6 09       		.uleb128 0x9
 2798 0ea7 FA0A0000 		.4byte	.LASF151
 2799 0eab 14       		.byte	0x14
 2800 0eac 2001     		.2byte	0x120
 2801 0eae 8F0D0000 		.4byte	0xd8f
 2802 0eb2 18       		.byte	0x18
 2803 0eb3 09       		.uleb128 0x9
 2804 0eb4 6A050000 		.4byte	.LASF165
 2805 0eb8 14       		.byte	0x14
 2806 0eb9 2001     		.2byte	0x120
 2807 0ebb C2070000 		.4byte	0x7c2
 2808 0ebf 19       		.byte	0x19
 2809 0ec0 09       		.uleb128 0x9
 2810 0ec1 4E030000 		.4byte	.LASF166
 2811 0ec5 14       		.byte	0x14
 2812 0ec6 2001     		.2byte	0x120
 2813 0ec8 D8070000 		.4byte	0x7d8
 2814 0ecc 1A       		.byte	0x1a
 2815 0ecd 00       		.byte	0
 2816 0ece 0A       		.uleb128 0xa
 2817 0ecf 04       		.byte	0x4
 2818 0ed0 310E0000 		.4byte	0xe31
 2819 0ed4 06       		.uleb128 0x6
 2820 0ed5 4F0A0000 		.4byte	.LASF225
 2821 0ed9 14       		.byte	0x14
 2822 0eda 15       		.byte	0x15
 2823 0edb 9F       		.byte	0x9f
 2824 0edc 410F0000 		.4byte	0xf41
 2825 0ee0 12       		.uleb128 0x12
 2826 0ee1 73726300 		.ascii	"src\000"
 2827 0ee5 15       		.byte	0x15
ARM GAS  C:\Users\Luis\AppData\Local\Temp\ccRnH3nf.s 			page 51


 2828 0ee6 A0       		.byte	0xa0
 2829 0ee7 D8070000 		.4byte	0x7d8
 2830 0eeb 00       		.byte	0
 2831 0eec 07       		.uleb128 0x7
 2832 0eed 110C0000 		.4byte	.LASF226
 2833 0ef1 15       		.byte	0x15
 2834 0ef2 A1       		.byte	0xa1
 2835 0ef3 D8070000 		.4byte	0x7d8
 2836 0ef7 02       		.byte	0x2
 2837 0ef8 07       		.uleb128 0x7
 2838 0ef9 CE020000 		.4byte	.LASF227
 2839 0efd 15       		.byte	0x15
 2840 0efe A2       		.byte	0xa2
 2841 0eff EE070000 		.4byte	0x7ee
 2842 0f03 04       		.byte	0x4
 2843 0f04 07       		.uleb128 0x7
 2844 0f05 C8060000 		.4byte	.LASF228
 2845 0f09 15       		.byte	0x15
 2846 0f0a A3       		.byte	0xa3
 2847 0f0b EE070000 		.4byte	0x7ee
 2848 0f0f 08       		.byte	0x8
 2849 0f10 07       		.uleb128 0x7
 2850 0f11 B3090000 		.4byte	.LASF229
 2851 0f15 15       		.byte	0x15
 2852 0f16 A4       		.byte	0xa4
 2853 0f17 D8070000 		.4byte	0x7d8
 2854 0f1b 0C       		.byte	0xc
 2855 0f1c 12       		.uleb128 0x12
 2856 0f1d 776E6400 		.ascii	"wnd\000"
 2857 0f21 15       		.byte	0x15
 2858 0f22 A5       		.byte	0xa5
 2859 0f23 D8070000 		.4byte	0x7d8
 2860 0f27 0E       		.byte	0xe
 2861 0f28 07       		.uleb128 0x7
 2862 0f29 5B040000 		.4byte	.LASF230
 2863 0f2d 15       		.byte	0x15
 2864 0f2e A6       		.byte	0xa6
 2865 0f2f D8070000 		.4byte	0x7d8
 2866 0f33 10       		.byte	0x10
 2867 0f34 07       		.uleb128 0x7
 2868 0f35 7E000000 		.4byte	.LASF231
 2869 0f39 15       		.byte	0x15
 2870 0f3a A7       		.byte	0xa7
 2871 0f3b D8070000 		.4byte	0x7d8
 2872 0f3f 12       		.byte	0x12
 2873 0f40 00       		.byte	0
 2874 0f41 0A       		.uleb128 0xa
 2875 0f42 04       		.byte	0x4
 2876 0f43 D40E0000 		.4byte	0xed4
 2877 0f47 1D       		.uleb128 0x1d
 2878 0f48 56060000 		.4byte	.LASF276
 2879 0f4c 04       		.byte	0x4
 2880 0f4d 15       		.byte	0x15
 2881 0f4e 3701     		.2byte	0x137
 2882 0f50 6D0F0000 		.4byte	0xf6d
 2883 0f54 18       		.uleb128 0x18
 2884 0f55 20000000 		.4byte	.LASF232
ARM GAS  C:\Users\Luis\AppData\Local\Temp\ccRnH3nf.s 			page 52


 2885 0f59 15       		.byte	0x15
 2886 0f5a 3801     		.2byte	0x138
 2887 0f5c CE0E0000 		.4byte	0xece
 2888 0f60 18       		.uleb128 0x18
 2889 0f61 300C0000 		.4byte	.LASF233
 2890 0f65 15       		.byte	0x15
 2891 0f66 3901     		.2byte	0x139
 2892 0f68 2D0A0000 		.4byte	0xa2d
 2893 0f6c 00       		.byte	0
 2894 0f6d 1E       		.uleb128 0x1e
 2895 0f6e 01       		.byte	0x1
 2896 0f6f 17       		.byte	0x17
 2897 0f70 2B       		.byte	0x2b
 2898 0f71 D00F0000 		.4byte	0xfd0
 2899 0f75 1C       		.uleb128 0x1c
 2900 0f76 A6090000 		.4byte	.LASF234
 2901 0f7a 00       		.sleb128 0
 2902 0f7b 1C       		.uleb128 0x1c
 2903 0f7c F6080000 		.4byte	.LASF235
 2904 0f80 01       		.sleb128 1
 2905 0f81 1C       		.uleb128 0x1c
 2906 0f82 F4060000 		.4byte	.LASF236
 2907 0f86 02       		.sleb128 2
 2908 0f87 1C       		.uleb128 0x1c
 2909 0f88 33000000 		.4byte	.LASF237
 2910 0f8c 03       		.sleb128 3
 2911 0f8d 1C       		.uleb128 0x1c
 2912 0f8e AD0A0000 		.4byte	.LASF238
 2913 0f92 04       		.sleb128 4
 2914 0f93 1C       		.uleb128 0x1c
 2915 0f94 6B070000 		.4byte	.LASF239
 2916 0f98 05       		.sleb128 5
 2917 0f99 1C       		.uleb128 0x1c
 2918 0f9a 77090000 		.4byte	.LASF240
 2919 0f9e 06       		.sleb128 6
 2920 0f9f 1C       		.uleb128 0x1c
 2921 0fa0 94060000 		.4byte	.LASF241
 2922 0fa4 07       		.sleb128 7
 2923 0fa5 1C       		.uleb128 0x1c
 2924 0fa6 EC020000 		.4byte	.LASF242
 2925 0faa 08       		.sleb128 8
 2926 0fab 1C       		.uleb128 0x1c
 2927 0fac 34030000 		.4byte	.LASF243
 2928 0fb0 09       		.sleb128 9
 2929 0fb1 1C       		.uleb128 0x1c
 2930 0fb2 25040000 		.4byte	.LASF244
 2931 0fb6 0A       		.sleb128 10
 2932 0fb7 1C       		.uleb128 0x1c
 2933 0fb8 DA080000 		.4byte	.LASF245
 2934 0fbc 0B       		.sleb128 11
 2935 0fbd 1C       		.uleb128 0x1c
 2936 0fbe 7C050000 		.4byte	.LASF246
 2937 0fc2 0C       		.sleb128 12
 2938 0fc3 1C       		.uleb128 0x1c
 2939 0fc4 8A020000 		.4byte	.LASF247
 2940 0fc8 0D       		.sleb128 13
 2941 0fc9 1C       		.uleb128 0x1c
ARM GAS  C:\Users\Luis\AppData\Local\Temp\ccRnH3nf.s 			page 53


 2942 0fca 06050000 		.4byte	.LASF248
 2943 0fce 0E       		.sleb128 14
 2944 0fcf 00       		.byte	0
 2945 0fd0 1F       		.uleb128 0x1f
 2946 0fd1 1E070000 		.4byte	.LASF277
 2947 0fd5 01       		.byte	0x1
 2948 0fd6 CC01     		.2byte	0x1cc
 2949 0fd8 00000000 		.4byte	.LFB230
 2950 0fdc 14000000 		.4byte	.LFE230-.LFB230
 2951 0fe0 01       		.uleb128 0x1
 2952 0fe1 9C       		.byte	0x9c
 2953 0fe2 F60F0000 		.4byte	0xff6
 2954 0fe6 20       		.uleb128 0x20
 2955 0fe7 C2030000 		.4byte	.LASF249
 2956 0feb 01       		.byte	0x1
 2957 0fec CC01     		.2byte	0x1cc
 2958 0fee 77070000 		.4byte	0x777
 2959 0ff2 02       		.uleb128 0x2
 2960 0ff3 91       		.byte	0x91
 2961 0ff4 74       		.sleb128 -12
 2962 0ff5 00       		.byte	0
 2963 0ff6 21       		.uleb128 0x21
 2964 0ff7 230B0000 		.4byte	.LASF278
 2965 0ffb 02       		.byte	0x2
 2966 0ffc 6A       		.byte	0x6a
 2967 0ffd 00000000 		.4byte	.LFB260
 2968 1001 0C000000 		.4byte	.LFE260-.LFB260
 2969 1005 01       		.uleb128 0x1
 2970 1006 9C       		.byte	0x9c
 2971 1007 22       		.uleb128 0x22
 2972 1008 190B0000 		.4byte	.LASF254
 2973 100c 02       		.byte	0x2
 2974 100d 8B       		.byte	0x8b
 2975 100e AF080000 		.4byte	0x8af
 2976 1012 00000000 		.4byte	.LFB261
 2977 1016 94000000 		.4byte	.LFE261-.LFB261
 2978 101a 01       		.uleb128 0x1
 2979 101b 9C       		.byte	0x9c
 2980 101c 82100000 		.4byte	0x1082
 2981 1020 23       		.uleb128 0x23
 2982 1021 5A000000 		.4byte	.LASF146
 2983 1025 02       		.byte	0x2
 2984 1026 8B       		.byte	0x8b
 2985 1027 AF080000 		.4byte	0x8af
 2986 102b 02       		.uleb128 0x2
 2987 102c 91       		.byte	0x91
 2988 102d 74       		.sleb128 -12
 2989 102e 23       		.uleb128 0x23
 2990 102f 62040000 		.4byte	.LASF250
 2991 1033 02       		.byte	0x2
 2992 1034 8B       		.byte	0x8b
 2993 1035 B8090000 		.4byte	0x9b8
 2994 1039 02       		.uleb128 0x2
 2995 103a 91       		.byte	0x91
 2996 103b 70       		.sleb128 -16
 2997 103c 23       		.uleb128 0x23
 2998 103d A0060000 		.4byte	.LASF147
ARM GAS  C:\Users\Luis\AppData\Local\Temp\ccRnH3nf.s 			page 54


 2999 1041 02       		.byte	0x2
 3000 1042 8B       		.byte	0x8b
 3001 1043 B8090000 		.4byte	0x9b8
 3002 1047 02       		.uleb128 0x2
 3003 1048 91       		.byte	0x91
 3004 1049 6C       		.sleb128 -20
 3005 104a 24       		.uleb128 0x24
 3006 104b 677700   		.ascii	"gw\000"
 3007 104e 02       		.byte	0x2
 3008 104f 8C       		.byte	0x8c
 3009 1050 B8090000 		.4byte	0x9b8
 3010 1054 02       		.uleb128 0x2
 3011 1055 91       		.byte	0x91
 3012 1056 68       		.sleb128 -24
 3013 1057 23       		.uleb128 0x23
 3014 1058 FA0A0000 		.4byte	.LASF151
 3015 105c 02       		.byte	0x2
 3016 105d 8C       		.byte	0x8c
 3017 105e 47030000 		.4byte	0x347
 3018 1062 02       		.uleb128 0x2
 3019 1063 91       		.byte	0x91
 3020 1064 00       		.sleb128 0
 3021 1065 23       		.uleb128 0x23
 3022 1066 C6090000 		.4byte	.LASF251
 3023 106a 02       		.byte	0x2
 3024 106b 8C       		.byte	0x8c
 3025 106c 8F080000 		.4byte	0x88f
 3026 1070 02       		.uleb128 0x2
 3027 1071 91       		.byte	0x91
 3028 1072 04       		.sleb128 4
 3029 1073 23       		.uleb128 0x23
 3030 1074 8F070000 		.4byte	.LASF148
 3031 1078 02       		.byte	0x2
 3032 1079 8C       		.byte	0x8c
 3033 107a 69090000 		.4byte	0x969
 3034 107e 02       		.uleb128 0x2
 3035 107f 91       		.byte	0x91
 3036 1080 08       		.sleb128 8
 3037 1081 00       		.byte	0
 3038 1082 25       		.uleb128 0x25
 3039 1083 97090000 		.4byte	.LASF252
 3040 1087 02       		.byte	0x2
 3041 1088 DD       		.byte	0xdd
 3042 1089 00000000 		.4byte	.LFB262
 3043 108d 2C000000 		.4byte	.LFE262-.LFB262
 3044 1091 01       		.uleb128 0x1
 3045 1092 9C       		.byte	0x9c
 3046 1093 CF100000 		.4byte	0x10cf
 3047 1097 23       		.uleb128 0x23
 3048 1098 5A000000 		.4byte	.LASF146
 3049 109c 02       		.byte	0x2
 3050 109d DD       		.byte	0xdd
 3051 109e AF080000 		.4byte	0x8af
 3052 10a2 02       		.uleb128 0x2
 3053 10a3 91       		.byte	0x91
 3054 10a4 74       		.sleb128 -12
 3055 10a5 23       		.uleb128 0x23
ARM GAS  C:\Users\Luis\AppData\Local\Temp\ccRnH3nf.s 			page 55


 3056 10a6 62040000 		.4byte	.LASF250
 3057 10aa 02       		.byte	0x2
 3058 10ab DD       		.byte	0xdd
 3059 10ac B8090000 		.4byte	0x9b8
 3060 10b0 02       		.uleb128 0x2
 3061 10b1 91       		.byte	0x91
 3062 10b2 70       		.sleb128 -16
 3063 10b3 23       		.uleb128 0x23
 3064 10b4 A0060000 		.4byte	.LASF147
 3065 10b8 02       		.byte	0x2
 3066 10b9 DD       		.byte	0xdd
 3067 10ba B8090000 		.4byte	0x9b8
 3068 10be 02       		.uleb128 0x2
 3069 10bf 91       		.byte	0x91
 3070 10c0 6C       		.sleb128 -20
 3071 10c1 24       		.uleb128 0x24
 3072 10c2 677700   		.ascii	"gw\000"
 3073 10c5 02       		.byte	0x2
 3074 10c6 DE       		.byte	0xde
 3075 10c7 B8090000 		.4byte	0x9b8
 3076 10cb 02       		.uleb128 0x2
 3077 10cc 91       		.byte	0x91
 3078 10cd 68       		.sleb128 -24
 3079 10ce 00       		.byte	0
 3080 10cf 25       		.uleb128 0x25
 3081 10d0 70060000 		.4byte	.LASF253
 3082 10d4 02       		.byte	0x2
 3083 10d5 EB       		.byte	0xeb
 3084 10d6 00000000 		.4byte	.LFB263
 3085 10da 88000000 		.4byte	.LFE263-.LFB263
 3086 10de 01       		.uleb128 0x1
 3087 10df 9C       		.byte	0x9c
 3088 10e0 0C110000 		.4byte	0x110c
 3089 10e4 23       		.uleb128 0x23
 3090 10e5 5A000000 		.4byte	.LASF146
 3091 10e9 02       		.byte	0x2
 3092 10ea EB       		.byte	0xeb
 3093 10eb AF080000 		.4byte	0x8af
 3094 10ef 02       		.uleb128 0x2
 3095 10f0 91       		.byte	0x91
 3096 10f1 6C       		.sleb128 -20
 3097 10f2 26       		.uleb128 0x26
 3098 10f3 38000000 		.4byte	.LBB2
 3099 10f7 30000000 		.4byte	.LBE2-.LBB2
 3100 10fb 27       		.uleb128 0x27
 3101 10fc D5030000 		.4byte	.LASF256
 3102 1100 02       		.byte	0x2
 3103 1101 0301     		.2byte	0x103
 3104 1103 AF080000 		.4byte	0x8af
 3105 1107 02       		.uleb128 0x2
 3106 1108 91       		.byte	0x91
 3107 1109 74       		.sleb128 -12
 3108 110a 00       		.byte	0
 3109 110b 00       		.byte	0
 3110 110c 28       		.uleb128 0x28
 3111 110d C2050000 		.4byte	.LASF255
 3112 1111 02       		.byte	0x2
ARM GAS  C:\Users\Luis\AppData\Local\Temp\ccRnH3nf.s 			page 56


 3113 1112 2201     		.2byte	0x122
 3114 1114 AF080000 		.4byte	0x8af
 3115 1118 00000000 		.4byte	.LFB264
 3116 111c 70000000 		.4byte	.LFE264-.LFB264
 3117 1120 01       		.uleb128 0x1
 3118 1121 9C       		.byte	0x9c
 3119 1122 54110000 		.4byte	0x1154
 3120 1126 20       		.uleb128 0x20
 3121 1127 51090000 		.4byte	.LASF154
 3122 112b 02       		.byte	0x2
 3123 112c 2201     		.2byte	0x122
 3124 112e 54110000 		.4byte	0x1154
 3125 1132 02       		.uleb128 0x2
 3126 1133 91       		.byte	0x91
 3127 1134 6C       		.sleb128 -20
 3128 1135 27       		.uleb128 0x27
 3129 1136 5A000000 		.4byte	.LASF146
 3130 113a 02       		.byte	0x2
 3131 113b 2401     		.2byte	0x124
 3132 113d AF080000 		.4byte	0x8af
 3133 1141 02       		.uleb128 0x2
 3134 1142 91       		.byte	0x91
 3135 1143 74       		.sleb128 -12
 3136 1144 29       		.uleb128 0x29
 3137 1145 6E756D00 		.ascii	"num\000"
 3138 1149 02       		.byte	0x2
 3139 114a 2501     		.2byte	0x125
 3140 114c C2070000 		.4byte	0x7c2
 3141 1150 02       		.uleb128 0x2
 3142 1151 91       		.byte	0x91
 3143 1152 73       		.sleb128 -13
 3144 1153 00       		.byte	0
 3145 1154 0A       		.uleb128 0xa
 3146 1155 04       		.byte	0x4
 3147 1156 82070000 		.4byte	0x782
 3148 115a 2A       		.uleb128 0x2a
 3149 115b 37020000 		.4byte	.LASF257
 3150 115f 02       		.byte	0x2
 3151 1160 4301     		.2byte	0x143
 3152 1162 00000000 		.4byte	.LFB265
 3153 1166 B0000000 		.4byte	.LFE265-.LFB265
 3154 116a 01       		.uleb128 0x1
 3155 116b 9C       		.byte	0x9c
 3156 116c C6110000 		.4byte	0x11c6
 3157 1170 20       		.uleb128 0x20
 3158 1171 5A000000 		.4byte	.LASF146
 3159 1175 02       		.byte	0x2
 3160 1176 4301     		.2byte	0x143
 3161 1178 AF080000 		.4byte	0x8af
 3162 117c 02       		.uleb128 0x2
 3163 117d 91       		.byte	0x91
 3164 117e 64       		.sleb128 -28
 3165 117f 20       		.uleb128 0x20
 3166 1180 62040000 		.4byte	.LASF250
 3167 1184 02       		.byte	0x2
 3168 1185 4301     		.2byte	0x143
 3169 1187 B8090000 		.4byte	0x9b8
ARM GAS  C:\Users\Luis\AppData\Local\Temp\ccRnH3nf.s 			page 57


 3170 118b 02       		.uleb128 0x2
 3171 118c 91       		.byte	0x91
 3172 118d 60       		.sleb128 -32
 3173 118e 29       		.uleb128 0x29
 3174 118f 70636200 		.ascii	"pcb\000"
 3175 1193 02       		.byte	0x2
 3176 1194 4801     		.2byte	0x148
 3177 1196 2D0A0000 		.4byte	0xa2d
 3178 119a 02       		.uleb128 0x2
 3179 119b 91       		.byte	0x91
 3180 119c 74       		.sleb128 -12
 3181 119d 27       		.uleb128 0x27
 3182 119e 3A0B0000 		.4byte	.LASF258
 3183 11a2 02       		.byte	0x2
 3184 11a3 4901     		.2byte	0x149
 3185 11a5 CE0E0000 		.4byte	0xece
 3186 11a9 02       		.uleb128 0x2
 3187 11aa 91       		.byte	0x91
 3188 11ab 70       		.sleb128 -16
 3189 11ac 26       		.uleb128 0x26
 3190 11ad 30000000 		.4byte	.LBB3
 3191 11b1 10000000 		.4byte	.LBE3-.LBB3
 3192 11b5 27       		.uleb128 0x27
 3193 11b6 E1000000 		.4byte	.LASF140
 3194 11ba 02       		.byte	0x2
 3195 11bb 5901     		.2byte	0x159
 3196 11bd 2D0A0000 		.4byte	0xa2d
 3197 11c1 02       		.uleb128 0x2
 3198 11c2 91       		.byte	0x91
 3199 11c3 6C       		.sleb128 -20
 3200 11c4 00       		.byte	0
 3201 11c5 00       		.byte	0
 3202 11c6 2B       		.uleb128 0x2b
 3203 11c7 BA0A0000 		.4byte	.LASF259
 3204 11cb 02       		.byte	0x2
 3205 11cc 8401     		.2byte	0x184
 3206 11ce 00000000 		.4byte	.LFB266
 3207 11d2 26000000 		.4byte	.LFE266-.LFB266
 3208 11d6 01       		.uleb128 0x1
 3209 11d7 9C       		.byte	0x9c
 3210 11d8 FA110000 		.4byte	0x11fa
 3211 11dc 20       		.uleb128 0x20
 3212 11dd 5A000000 		.4byte	.LASF146
 3213 11e1 02       		.byte	0x2
 3214 11e2 8401     		.2byte	0x184
 3215 11e4 AF080000 		.4byte	0x8af
 3216 11e8 02       		.uleb128 0x2
 3217 11e9 91       		.byte	0x91
 3218 11ea 74       		.sleb128 -12
 3219 11eb 2C       		.uleb128 0x2c
 3220 11ec 677700   		.ascii	"gw\000"
 3221 11ef 02       		.byte	0x2
 3222 11f0 8401     		.2byte	0x184
 3223 11f2 B8090000 		.4byte	0x9b8
 3224 11f6 02       		.uleb128 0x2
 3225 11f7 91       		.byte	0x91
 3226 11f8 70       		.sleb128 -16
ARM GAS  C:\Users\Luis\AppData\Local\Temp\ccRnH3nf.s 			page 58


 3227 11f9 00       		.byte	0
 3228 11fa 2B       		.uleb128 0x2b
 3229 11fb F4030000 		.4byte	.LASF260
 3230 11ff 02       		.byte	0x2
 3231 1200 9901     		.2byte	0x199
 3232 1202 00000000 		.4byte	.LFB267
 3233 1206 26000000 		.4byte	.LFE267-.LFB267
 3234 120a 01       		.uleb128 0x1
 3235 120b 9C       		.byte	0x9c
 3236 120c 2F120000 		.4byte	0x122f
 3237 1210 20       		.uleb128 0x20
 3238 1211 5A000000 		.4byte	.LASF146
 3239 1215 02       		.byte	0x2
 3240 1216 9901     		.2byte	0x199
 3241 1218 AF080000 		.4byte	0x8af
 3242 121c 02       		.uleb128 0x2
 3243 121d 91       		.byte	0x91
 3244 121e 74       		.sleb128 -12
 3245 121f 20       		.uleb128 0x20
 3246 1220 A0060000 		.4byte	.LASF147
 3247 1224 02       		.byte	0x2
 3248 1225 9901     		.2byte	0x199
 3249 1227 B8090000 		.4byte	0x9b8
 3250 122b 02       		.uleb128 0x2
 3251 122c 91       		.byte	0x91
 3252 122d 70       		.sleb128 -16
 3253 122e 00       		.byte	0
 3254 122f 2B       		.uleb128 0x2b
 3255 1230 1B010000 		.4byte	.LASF261
 3256 1234 02       		.byte	0x2
 3257 1235 AE01     		.2byte	0x1ae
 3258 1237 00000000 		.4byte	.LFB268
 3259 123b 1C000000 		.4byte	.LFE268-.LFB268
 3260 123f 01       		.uleb128 0x1
 3261 1240 9C       		.byte	0x9c
 3262 1241 55120000 		.4byte	0x1255
 3263 1245 20       		.uleb128 0x20
 3264 1246 5A000000 		.4byte	.LASF146
 3265 124a 02       		.byte	0x2
 3266 124b AE01     		.2byte	0x1ae
 3267 124d AF080000 		.4byte	0x8af
 3268 1251 02       		.uleb128 0x2
 3269 1252 91       		.byte	0x91
 3270 1253 74       		.sleb128 -12
 3271 1254 00       		.byte	0
 3272 1255 2A       		.uleb128 0x2a
 3273 1256 56090000 		.4byte	.LASF262
 3274 125a 02       		.byte	0x2
 3275 125b C501     		.2byte	0x1c5
 3276 125d 00000000 		.4byte	.LFB269
 3277 1261 56000000 		.4byte	.LFE269-.LFB269
 3278 1265 01       		.uleb128 0x1
 3279 1266 9C       		.byte	0x9c
 3280 1267 7B120000 		.4byte	0x127b
 3281 126b 20       		.uleb128 0x20
 3282 126c 5A000000 		.4byte	.LASF146
 3283 1270 02       		.byte	0x2
ARM GAS  C:\Users\Luis\AppData\Local\Temp\ccRnH3nf.s 			page 59


 3284 1271 C501     		.2byte	0x1c5
 3285 1273 AF080000 		.4byte	0x8af
 3286 1277 02       		.uleb128 0x2
 3287 1278 91       		.byte	0x91
 3288 1279 74       		.sleb128 -12
 3289 127a 00       		.byte	0
 3290 127b 2A       		.uleb128 0x2a
 3291 127c 3C010000 		.4byte	.LASF263
 3292 1280 02       		.byte	0x2
 3293 1281 EA01     		.2byte	0x1ea
 3294 1283 00000000 		.4byte	.LFB270
 3295 1287 42000000 		.4byte	.LFE270-.LFB270
 3296 128b 01       		.uleb128 0x1
 3297 128c 9C       		.byte	0x9c
 3298 128d A1120000 		.4byte	0x12a1
 3299 1291 20       		.uleb128 0x20
 3300 1292 5A000000 		.4byte	.LASF146
 3301 1296 02       		.byte	0x2
 3302 1297 EA01     		.2byte	0x1ea
 3303 1299 AF080000 		.4byte	0x8af
 3304 129d 02       		.uleb128 0x2
 3305 129e 91       		.byte	0x91
 3306 129f 74       		.sleb128 -12
 3307 12a0 00       		.byte	0
 3308 12a1 2A       		.uleb128 0x2a
 3309 12a2 450B0000 		.4byte	.LASF264
 3310 12a6 02       		.byte	0x2
 3311 12a7 1702     		.2byte	0x217
 3312 12a9 00000000 		.4byte	.LFB271
 3313 12ad 56000000 		.4byte	.LFE271-.LFB271
 3314 12b1 01       		.uleb128 0x1
 3315 12b2 9C       		.byte	0x9c
 3316 12b3 C7120000 		.4byte	0x12c7
 3317 12b7 20       		.uleb128 0x20
 3318 12b8 5A000000 		.4byte	.LASF146
 3319 12bc 02       		.byte	0x2
 3320 12bd 1702     		.2byte	0x217
 3321 12bf AF080000 		.4byte	0x8af
 3322 12c3 02       		.uleb128 0x2
 3323 12c4 91       		.byte	0x91
 3324 12c5 74       		.sleb128 -12
 3325 12c6 00       		.byte	0
 3326 12c7 2B       		.uleb128 0x2b
 3327 12c8 86040000 		.4byte	.LASF265
 3328 12cc 02       		.byte	0x2
 3329 12cd 3E02     		.2byte	0x23e
 3330 12cf 00000000 		.4byte	.LFB272
 3331 12d3 32000000 		.4byte	.LFE272-.LFB272
 3332 12d7 01       		.uleb128 0x1
 3333 12d8 9C       		.byte	0x9c
 3334 12d9 ED120000 		.4byte	0x12ed
 3335 12dd 20       		.uleb128 0x20
 3336 12de 5A000000 		.4byte	.LASF146
 3337 12e2 02       		.byte	0x2
 3338 12e3 3E02     		.2byte	0x23e
 3339 12e5 AF080000 		.4byte	0x8af
 3340 12e9 02       		.uleb128 0x2
ARM GAS  C:\Users\Luis\AppData\Local\Temp\ccRnH3nf.s 			page 60


 3341 12ea 91       		.byte	0x91
 3342 12eb 74       		.sleb128 -12
 3343 12ec 00       		.byte	0
 3344 12ed 2D       		.uleb128 0x2d
 3345 12ee AE020000 		.4byte	.LASF266
 3346 12f2 02       		.byte	0x2
 3347 12f3 4E       		.byte	0x4e
 3348 12f4 C2070000 		.4byte	0x7c2
 3349 12f8 05       		.uleb128 0x5
 3350 12f9 03       		.byte	0x3
 3351 12fa 00000000 		.4byte	netif_num
 3352 12fe 2E       		.uleb128 0x2e
 3353 12ff A2080000 		.4byte	.LASF267
 3354 1303 16       		.byte	0x16
 3355 1304 A706     		.2byte	0x6a7
 3356 1306 C3000000 		.4byte	0xc3
 3357 130a 2F       		.uleb128 0x2f
 3358 130b 636800   		.ascii	"ch\000"
 3359 130e 07       		.byte	0x7
 3360 130f 0902     		.2byte	0x209
 3361 1311 3E040000 		.4byte	0x43e
 3362 1315 30       		.uleb128 0x30
 3363 1316 87030000 		.4byte	.LASF268
 3364 131a 02       		.byte	0x2
 3365 131b 4B       		.byte	0x4b
 3366 131c AF080000 		.4byte	0x8af
 3367 1320 05       		.uleb128 0x5
 3368 1321 03       		.byte	0x3
 3369 1322 00000000 		.4byte	netif_list
 3370 1326 30       		.uleb128 0x30
 3371 1327 A7070000 		.4byte	.LASF269
 3372 132b 02       		.byte	0x2
 3373 132c 4C       		.byte	0x4c
 3374 132d AF080000 		.4byte	0x8af
 3375 1331 05       		.uleb128 0x5
 3376 1332 03       		.byte	0x3
 3377 1333 00000000 		.4byte	netif_default
 3378 1337 2E       		.uleb128 0x2e
 3379 1338 47070000 		.4byte	.LASF270
 3380 133c 15       		.byte	0x15
 3381 133d 3C01     		.2byte	0x13c
 3382 133f 470F0000 		.4byte	0xf47
 3383 1343 2E       		.uleb128 0x2e
 3384 1344 E40B0000 		.4byte	.LASF271
 3385 1348 15       		.byte	0x15
 3386 1349 3D01     		.2byte	0x13d
 3387 134b 2D0A0000 		.4byte	0xa2d
 3388 134f 00       		.byte	0
 3389              		.section	.debug_abbrev,"",%progbits
 3390              	.Ldebug_abbrev0:
 3391 0000 01       		.uleb128 0x1
 3392 0001 11       		.uleb128 0x11
 3393 0002 01       		.byte	0x1
 3394 0003 25       		.uleb128 0x25
 3395 0004 0E       		.uleb128 0xe
 3396 0005 13       		.uleb128 0x13
 3397 0006 0B       		.uleb128 0xb
ARM GAS  C:\Users\Luis\AppData\Local\Temp\ccRnH3nf.s 			page 61


 3398 0007 03       		.uleb128 0x3
 3399 0008 0E       		.uleb128 0xe
 3400 0009 1B       		.uleb128 0x1b
 3401 000a 0E       		.uleb128 0xe
 3402 000b 55       		.uleb128 0x55
 3403 000c 17       		.uleb128 0x17
 3404 000d 11       		.uleb128 0x11
 3405 000e 01       		.uleb128 0x1
 3406 000f 10       		.uleb128 0x10
 3407 0010 17       		.uleb128 0x17
 3408 0011 00       		.byte	0
 3409 0012 00       		.byte	0
 3410 0013 02       		.uleb128 0x2
 3411 0014 24       		.uleb128 0x24
 3412 0015 00       		.byte	0
 3413 0016 0B       		.uleb128 0xb
 3414 0017 0B       		.uleb128 0xb
 3415 0018 3E       		.uleb128 0x3e
 3416 0019 0B       		.uleb128 0xb
 3417 001a 03       		.uleb128 0x3
 3418 001b 08       		.uleb128 0x8
 3419 001c 00       		.byte	0
 3420 001d 00       		.byte	0
 3421 001e 03       		.uleb128 0x3
 3422 001f 16       		.uleb128 0x16
 3423 0020 00       		.byte	0
 3424 0021 03       		.uleb128 0x3
 3425 0022 0E       		.uleb128 0xe
 3426 0023 3A       		.uleb128 0x3a
 3427 0024 0B       		.uleb128 0xb
 3428 0025 3B       		.uleb128 0x3b
 3429 0026 0B       		.uleb128 0xb
 3430 0027 49       		.uleb128 0x49
 3431 0028 13       		.uleb128 0x13
 3432 0029 00       		.byte	0
 3433 002a 00       		.byte	0
 3434 002b 04       		.uleb128 0x4
 3435 002c 24       		.uleb128 0x24
 3436 002d 00       		.byte	0
 3437 002e 0B       		.uleb128 0xb
 3438 002f 0B       		.uleb128 0xb
 3439 0030 3E       		.uleb128 0x3e
 3440 0031 0B       		.uleb128 0xb
 3441 0032 03       		.uleb128 0x3
 3442 0033 0E       		.uleb128 0xe
 3443 0034 00       		.byte	0
 3444 0035 00       		.byte	0
 3445 0036 05       		.uleb128 0x5
 3446 0037 35       		.uleb128 0x35
 3447 0038 00       		.byte	0
 3448 0039 49       		.uleb128 0x49
 3449 003a 13       		.uleb128 0x13
 3450 003b 00       		.byte	0
 3451 003c 00       		.byte	0
 3452 003d 06       		.uleb128 0x6
 3453 003e 13       		.uleb128 0x13
 3454 003f 01       		.byte	0x1
ARM GAS  C:\Users\Luis\AppData\Local\Temp\ccRnH3nf.s 			page 62


 3455 0040 03       		.uleb128 0x3
 3456 0041 0E       		.uleb128 0xe
 3457 0042 0B       		.uleb128 0xb
 3458 0043 0B       		.uleb128 0xb
 3459 0044 3A       		.uleb128 0x3a
 3460 0045 0B       		.uleb128 0xb
 3461 0046 3B       		.uleb128 0x3b
 3462 0047 0B       		.uleb128 0xb
 3463 0048 01       		.uleb128 0x1
 3464 0049 13       		.uleb128 0x13
 3465 004a 00       		.byte	0
 3466 004b 00       		.byte	0
 3467 004c 07       		.uleb128 0x7
 3468 004d 0D       		.uleb128 0xd
 3469 004e 00       		.byte	0
 3470 004f 03       		.uleb128 0x3
 3471 0050 0E       		.uleb128 0xe
 3472 0051 3A       		.uleb128 0x3a
 3473 0052 0B       		.uleb128 0xb
 3474 0053 3B       		.uleb128 0x3b
 3475 0054 0B       		.uleb128 0xb
 3476 0055 49       		.uleb128 0x49
 3477 0056 13       		.uleb128 0x13
 3478 0057 38       		.uleb128 0x38
 3479 0058 0B       		.uleb128 0xb
 3480 0059 00       		.byte	0
 3481 005a 00       		.byte	0
 3482 005b 08       		.uleb128 0x8
 3483 005c 0D       		.uleb128 0xd
 3484 005d 00       		.byte	0
 3485 005e 03       		.uleb128 0x3
 3486 005f 08       		.uleb128 0x8
 3487 0060 3A       		.uleb128 0x3a
 3488 0061 0B       		.uleb128 0xb
 3489 0062 3B       		.uleb128 0x3b
 3490 0063 05       		.uleb128 0x5
 3491 0064 49       		.uleb128 0x49
 3492 0065 13       		.uleb128 0x13
 3493 0066 38       		.uleb128 0x38
 3494 0067 0B       		.uleb128 0xb
 3495 0068 00       		.byte	0
 3496 0069 00       		.byte	0
 3497 006a 09       		.uleb128 0x9
 3498 006b 0D       		.uleb128 0xd
 3499 006c 00       		.byte	0
 3500 006d 03       		.uleb128 0x3
 3501 006e 0E       		.uleb128 0xe
 3502 006f 3A       		.uleb128 0x3a
 3503 0070 0B       		.uleb128 0xb
 3504 0071 3B       		.uleb128 0x3b
 3505 0072 05       		.uleb128 0x5
 3506 0073 49       		.uleb128 0x49
 3507 0074 13       		.uleb128 0x13
 3508 0075 38       		.uleb128 0x38
 3509 0076 0B       		.uleb128 0xb
 3510 0077 00       		.byte	0
 3511 0078 00       		.byte	0
ARM GAS  C:\Users\Luis\AppData\Local\Temp\ccRnH3nf.s 			page 63


 3512 0079 0A       		.uleb128 0xa
 3513 007a 0F       		.uleb128 0xf
 3514 007b 00       		.byte	0
 3515 007c 0B       		.uleb128 0xb
 3516 007d 0B       		.uleb128 0xb
 3517 007e 49       		.uleb128 0x49
 3518 007f 13       		.uleb128 0x13
 3519 0080 00       		.byte	0
 3520 0081 00       		.byte	0
 3521 0082 0B       		.uleb128 0xb
 3522 0083 13       		.uleb128 0x13
 3523 0084 01       		.byte	0x1
 3524 0085 03       		.uleb128 0x3
 3525 0086 0E       		.uleb128 0xe
 3526 0087 0B       		.uleb128 0xb
 3527 0088 0B       		.uleb128 0xb
 3528 0089 3A       		.uleb128 0x3a
 3529 008a 0B       		.uleb128 0xb
 3530 008b 3B       		.uleb128 0x3b
 3531 008c 05       		.uleb128 0x5
 3532 008d 01       		.uleb128 0x1
 3533 008e 13       		.uleb128 0x13
 3534 008f 00       		.byte	0
 3535 0090 00       		.byte	0
 3536 0091 0C       		.uleb128 0xc
 3537 0092 15       		.uleb128 0x15
 3538 0093 01       		.byte	0x1
 3539 0094 27       		.uleb128 0x27
 3540 0095 19       		.uleb128 0x19
 3541 0096 01       		.uleb128 0x1
 3542 0097 13       		.uleb128 0x13
 3543 0098 00       		.byte	0
 3544 0099 00       		.byte	0
 3545 009a 0D       		.uleb128 0xd
 3546 009b 05       		.uleb128 0x5
 3547 009c 00       		.byte	0
 3548 009d 49       		.uleb128 0x49
 3549 009e 13       		.uleb128 0x13
 3550 009f 00       		.byte	0
 3551 00a0 00       		.byte	0
 3552 00a1 0E       		.uleb128 0xe
 3553 00a2 0F       		.uleb128 0xf
 3554 00a3 00       		.byte	0
 3555 00a4 0B       		.uleb128 0xb
 3556 00a5 0B       		.uleb128 0xb
 3557 00a6 00       		.byte	0
 3558 00a7 00       		.byte	0
 3559 00a8 0F       		.uleb128 0xf
 3560 00a9 13       		.uleb128 0x13
 3561 00aa 01       		.byte	0x1
 3562 00ab 03       		.uleb128 0x3
 3563 00ac 0E       		.uleb128 0xe
 3564 00ad 0B       		.uleb128 0xb
 3565 00ae 05       		.uleb128 0x5
 3566 00af 3A       		.uleb128 0x3a
 3567 00b0 0B       		.uleb128 0xb
 3568 00b1 3B       		.uleb128 0x3b
ARM GAS  C:\Users\Luis\AppData\Local\Temp\ccRnH3nf.s 			page 64


 3569 00b2 05       		.uleb128 0x5
 3570 00b3 01       		.uleb128 0x1
 3571 00b4 13       		.uleb128 0x13
 3572 00b5 00       		.byte	0
 3573 00b6 00       		.byte	0
 3574 00b7 10       		.uleb128 0x10
 3575 00b8 0D       		.uleb128 0xd
 3576 00b9 00       		.byte	0
 3577 00ba 03       		.uleb128 0x3
 3578 00bb 0E       		.uleb128 0xe
 3579 00bc 3A       		.uleb128 0x3a
 3580 00bd 0B       		.uleb128 0xb
 3581 00be 3B       		.uleb128 0x3b
 3582 00bf 05       		.uleb128 0x5
 3583 00c0 49       		.uleb128 0x49
 3584 00c1 13       		.uleb128 0x13
 3585 00c2 38       		.uleb128 0x38
 3586 00c3 05       		.uleb128 0x5
 3587 00c4 00       		.byte	0
 3588 00c5 00       		.byte	0
 3589 00c6 11       		.uleb128 0x11
 3590 00c7 0D       		.uleb128 0xd
 3591 00c8 00       		.byte	0
 3592 00c9 03       		.uleb128 0x3
 3593 00ca 08       		.uleb128 0x8
 3594 00cb 3A       		.uleb128 0x3a
 3595 00cc 0B       		.uleb128 0xb
 3596 00cd 3B       		.uleb128 0x3b
 3597 00ce 05       		.uleb128 0x5
 3598 00cf 49       		.uleb128 0x49
 3599 00d0 13       		.uleb128 0x13
 3600 00d1 38       		.uleb128 0x38
 3601 00d2 05       		.uleb128 0x5
 3602 00d3 00       		.byte	0
 3603 00d4 00       		.byte	0
 3604 00d5 12       		.uleb128 0x12
 3605 00d6 0D       		.uleb128 0xd
 3606 00d7 00       		.byte	0
 3607 00d8 03       		.uleb128 0x3
 3608 00d9 08       		.uleb128 0x8
 3609 00da 3A       		.uleb128 0x3a
 3610 00db 0B       		.uleb128 0xb
 3611 00dc 3B       		.uleb128 0x3b
 3612 00dd 0B       		.uleb128 0xb
 3613 00de 49       		.uleb128 0x49
 3614 00df 13       		.uleb128 0x13
 3615 00e0 38       		.uleb128 0x38
 3616 00e1 0B       		.uleb128 0xb
 3617 00e2 00       		.byte	0
 3618 00e3 00       		.byte	0
 3619 00e4 13       		.uleb128 0x13
 3620 00e5 13       		.uleb128 0x13
 3621 00e6 01       		.byte	0x1
 3622 00e7 0B       		.uleb128 0xb
 3623 00e8 0B       		.uleb128 0xb
 3624 00e9 3A       		.uleb128 0x3a
 3625 00ea 0B       		.uleb128 0xb
ARM GAS  C:\Users\Luis\AppData\Local\Temp\ccRnH3nf.s 			page 65


 3626 00eb 3B       		.uleb128 0x3b
 3627 00ec 0B       		.uleb128 0xb
 3628 00ed 01       		.uleb128 0x1
 3629 00ee 13       		.uleb128 0x13
 3630 00ef 00       		.byte	0
 3631 00f0 00       		.byte	0
 3632 00f1 14       		.uleb128 0x14
 3633 00f2 13       		.uleb128 0x13
 3634 00f3 01       		.byte	0x1
 3635 00f4 0B       		.uleb128 0xb
 3636 00f5 05       		.uleb128 0x5
 3637 00f6 3A       		.uleb128 0x3a
 3638 00f7 0B       		.uleb128 0xb
 3639 00f8 3B       		.uleb128 0x3b
 3640 00f9 0B       		.uleb128 0xb
 3641 00fa 01       		.uleb128 0x1
 3642 00fb 13       		.uleb128 0x13
 3643 00fc 00       		.byte	0
 3644 00fd 00       		.byte	0
 3645 00fe 15       		.uleb128 0x15
 3646 00ff 01       		.uleb128 0x1
 3647 0100 01       		.byte	0x1
 3648 0101 49       		.uleb128 0x49
 3649 0102 13       		.uleb128 0x13
 3650 0103 01       		.uleb128 0x1
 3651 0104 13       		.uleb128 0x13
 3652 0105 00       		.byte	0
 3653 0106 00       		.byte	0
 3654 0107 16       		.uleb128 0x16
 3655 0108 21       		.uleb128 0x21
 3656 0109 00       		.byte	0
 3657 010a 49       		.uleb128 0x49
 3658 010b 13       		.uleb128 0x13
 3659 010c 2F       		.uleb128 0x2f
 3660 010d 0B       		.uleb128 0xb
 3661 010e 00       		.byte	0
 3662 010f 00       		.byte	0
 3663 0110 17       		.uleb128 0x17
 3664 0111 17       		.uleb128 0x17
 3665 0112 01       		.byte	0x1
 3666 0113 0B       		.uleb128 0xb
 3667 0114 0B       		.uleb128 0xb
 3668 0115 3A       		.uleb128 0x3a
 3669 0116 0B       		.uleb128 0xb
 3670 0117 3B       		.uleb128 0x3b
 3671 0118 0B       		.uleb128 0xb
 3672 0119 01       		.uleb128 0x1
 3673 011a 13       		.uleb128 0x13
 3674 011b 00       		.byte	0
 3675 011c 00       		.byte	0
 3676 011d 18       		.uleb128 0x18
 3677 011e 0D       		.uleb128 0xd
 3678 011f 00       		.byte	0
 3679 0120 03       		.uleb128 0x3
 3680 0121 0E       		.uleb128 0xe
 3681 0122 3A       		.uleb128 0x3a
 3682 0123 0B       		.uleb128 0xb
ARM GAS  C:\Users\Luis\AppData\Local\Temp\ccRnH3nf.s 			page 66


 3683 0124 3B       		.uleb128 0x3b
 3684 0125 05       		.uleb128 0x5
 3685 0126 49       		.uleb128 0x49
 3686 0127 13       		.uleb128 0x13
 3687 0128 00       		.byte	0
 3688 0129 00       		.byte	0
 3689 012a 19       		.uleb128 0x19
 3690 012b 26       		.uleb128 0x26
 3691 012c 00       		.byte	0
 3692 012d 49       		.uleb128 0x49
 3693 012e 13       		.uleb128 0x13
 3694 012f 00       		.byte	0
 3695 0130 00       		.byte	0
 3696 0131 1A       		.uleb128 0x1a
 3697 0132 15       		.uleb128 0x15
 3698 0133 01       		.byte	0x1
 3699 0134 27       		.uleb128 0x27
 3700 0135 19       		.uleb128 0x19
 3701 0136 49       		.uleb128 0x49
 3702 0137 13       		.uleb128 0x13
 3703 0138 01       		.uleb128 0x1
 3704 0139 13       		.uleb128 0x13
 3705 013a 00       		.byte	0
 3706 013b 00       		.byte	0
 3707 013c 1B       		.uleb128 0x1b
 3708 013d 04       		.uleb128 0x4
 3709 013e 01       		.byte	0x1
 3710 013f 03       		.uleb128 0x3
 3711 0140 0E       		.uleb128 0xe
 3712 0141 0B       		.uleb128 0xb
 3713 0142 0B       		.uleb128 0xb
 3714 0143 3A       		.uleb128 0x3a
 3715 0144 0B       		.uleb128 0xb
 3716 0145 3B       		.uleb128 0x3b
 3717 0146 0B       		.uleb128 0xb
 3718 0147 01       		.uleb128 0x1
 3719 0148 13       		.uleb128 0x13
 3720 0149 00       		.byte	0
 3721 014a 00       		.byte	0
 3722 014b 1C       		.uleb128 0x1c
 3723 014c 28       		.uleb128 0x28
 3724 014d 00       		.byte	0
 3725 014e 03       		.uleb128 0x3
 3726 014f 0E       		.uleb128 0xe
 3727 0150 1C       		.uleb128 0x1c
 3728 0151 0D       		.uleb128 0xd
 3729 0152 00       		.byte	0
 3730 0153 00       		.byte	0
 3731 0154 1D       		.uleb128 0x1d
 3732 0155 17       		.uleb128 0x17
 3733 0156 01       		.byte	0x1
 3734 0157 03       		.uleb128 0x3
 3735 0158 0E       		.uleb128 0xe
 3736 0159 0B       		.uleb128 0xb
 3737 015a 0B       		.uleb128 0xb
 3738 015b 3A       		.uleb128 0x3a
 3739 015c 0B       		.uleb128 0xb
ARM GAS  C:\Users\Luis\AppData\Local\Temp\ccRnH3nf.s 			page 67


 3740 015d 3B       		.uleb128 0x3b
 3741 015e 05       		.uleb128 0x5
 3742 015f 01       		.uleb128 0x1
 3743 0160 13       		.uleb128 0x13
 3744 0161 00       		.byte	0
 3745 0162 00       		.byte	0
 3746 0163 1E       		.uleb128 0x1e
 3747 0164 04       		.uleb128 0x4
 3748 0165 01       		.byte	0x1
 3749 0166 0B       		.uleb128 0xb
 3750 0167 0B       		.uleb128 0xb
 3751 0168 3A       		.uleb128 0x3a
 3752 0169 0B       		.uleb128 0xb
 3753 016a 3B       		.uleb128 0x3b
 3754 016b 0B       		.uleb128 0xb
 3755 016c 01       		.uleb128 0x1
 3756 016d 13       		.uleb128 0x13
 3757 016e 00       		.byte	0
 3758 016f 00       		.byte	0
 3759 0170 1F       		.uleb128 0x1f
 3760 0171 2E       		.uleb128 0x2e
 3761 0172 01       		.byte	0x1
 3762 0173 03       		.uleb128 0x3
 3763 0174 0E       		.uleb128 0xe
 3764 0175 3A       		.uleb128 0x3a
 3765 0176 0B       		.uleb128 0xb
 3766 0177 3B       		.uleb128 0x3b
 3767 0178 05       		.uleb128 0x5
 3768 0179 27       		.uleb128 0x27
 3769 017a 19       		.uleb128 0x19
 3770 017b 11       		.uleb128 0x11
 3771 017c 01       		.uleb128 0x1
 3772 017d 12       		.uleb128 0x12
 3773 017e 06       		.uleb128 0x6
 3774 017f 40       		.uleb128 0x40
 3775 0180 18       		.uleb128 0x18
 3776 0181 9642     		.uleb128 0x2116
 3777 0183 19       		.uleb128 0x19
 3778 0184 01       		.uleb128 0x1
 3779 0185 13       		.uleb128 0x13
 3780 0186 00       		.byte	0
 3781 0187 00       		.byte	0
 3782 0188 20       		.uleb128 0x20
 3783 0189 05       		.uleb128 0x5
 3784 018a 00       		.byte	0
 3785 018b 03       		.uleb128 0x3
 3786 018c 0E       		.uleb128 0xe
 3787 018d 3A       		.uleb128 0x3a
 3788 018e 0B       		.uleb128 0xb
 3789 018f 3B       		.uleb128 0x3b
 3790 0190 05       		.uleb128 0x5
 3791 0191 49       		.uleb128 0x49
 3792 0192 13       		.uleb128 0x13
 3793 0193 02       		.uleb128 0x2
 3794 0194 18       		.uleb128 0x18
 3795 0195 00       		.byte	0
 3796 0196 00       		.byte	0
ARM GAS  C:\Users\Luis\AppData\Local\Temp\ccRnH3nf.s 			page 68


 3797 0197 21       		.uleb128 0x21
 3798 0198 2E       		.uleb128 0x2e
 3799 0199 00       		.byte	0
 3800 019a 3F       		.uleb128 0x3f
 3801 019b 19       		.uleb128 0x19
 3802 019c 03       		.uleb128 0x3
 3803 019d 0E       		.uleb128 0xe
 3804 019e 3A       		.uleb128 0x3a
 3805 019f 0B       		.uleb128 0xb
 3806 01a0 3B       		.uleb128 0x3b
 3807 01a1 0B       		.uleb128 0xb
 3808 01a2 27       		.uleb128 0x27
 3809 01a3 19       		.uleb128 0x19
 3810 01a4 11       		.uleb128 0x11
 3811 01a5 01       		.uleb128 0x1
 3812 01a6 12       		.uleb128 0x12
 3813 01a7 06       		.uleb128 0x6
 3814 01a8 40       		.uleb128 0x40
 3815 01a9 18       		.uleb128 0x18
 3816 01aa 9742     		.uleb128 0x2117
 3817 01ac 19       		.uleb128 0x19
 3818 01ad 00       		.byte	0
 3819 01ae 00       		.byte	0
 3820 01af 22       		.uleb128 0x22
 3821 01b0 2E       		.uleb128 0x2e
 3822 01b1 01       		.byte	0x1
 3823 01b2 3F       		.uleb128 0x3f
 3824 01b3 19       		.uleb128 0x19
 3825 01b4 03       		.uleb128 0x3
 3826 01b5 0E       		.uleb128 0xe
 3827 01b6 3A       		.uleb128 0x3a
 3828 01b7 0B       		.uleb128 0xb
 3829 01b8 3B       		.uleb128 0x3b
 3830 01b9 0B       		.uleb128 0xb
 3831 01ba 27       		.uleb128 0x27
 3832 01bb 19       		.uleb128 0x19
 3833 01bc 49       		.uleb128 0x49
 3834 01bd 13       		.uleb128 0x13
 3835 01be 11       		.uleb128 0x11
 3836 01bf 01       		.uleb128 0x1
 3837 01c0 12       		.uleb128 0x12
 3838 01c1 06       		.uleb128 0x6
 3839 01c2 40       		.uleb128 0x40
 3840 01c3 18       		.uleb128 0x18
 3841 01c4 9642     		.uleb128 0x2116
 3842 01c6 19       		.uleb128 0x19
 3843 01c7 01       		.uleb128 0x1
 3844 01c8 13       		.uleb128 0x13
 3845 01c9 00       		.byte	0
 3846 01ca 00       		.byte	0
 3847 01cb 23       		.uleb128 0x23
 3848 01cc 05       		.uleb128 0x5
 3849 01cd 00       		.byte	0
 3850 01ce 03       		.uleb128 0x3
 3851 01cf 0E       		.uleb128 0xe
 3852 01d0 3A       		.uleb128 0x3a
 3853 01d1 0B       		.uleb128 0xb
ARM GAS  C:\Users\Luis\AppData\Local\Temp\ccRnH3nf.s 			page 69


 3854 01d2 3B       		.uleb128 0x3b
 3855 01d3 0B       		.uleb128 0xb
 3856 01d4 49       		.uleb128 0x49
 3857 01d5 13       		.uleb128 0x13
 3858 01d6 02       		.uleb128 0x2
 3859 01d7 18       		.uleb128 0x18
 3860 01d8 00       		.byte	0
 3861 01d9 00       		.byte	0
 3862 01da 24       		.uleb128 0x24
 3863 01db 05       		.uleb128 0x5
 3864 01dc 00       		.byte	0
 3865 01dd 03       		.uleb128 0x3
 3866 01de 08       		.uleb128 0x8
 3867 01df 3A       		.uleb128 0x3a
 3868 01e0 0B       		.uleb128 0xb
 3869 01e1 3B       		.uleb128 0x3b
 3870 01e2 0B       		.uleb128 0xb
 3871 01e3 49       		.uleb128 0x49
 3872 01e4 13       		.uleb128 0x13
 3873 01e5 02       		.uleb128 0x2
 3874 01e6 18       		.uleb128 0x18
 3875 01e7 00       		.byte	0
 3876 01e8 00       		.byte	0
 3877 01e9 25       		.uleb128 0x25
 3878 01ea 2E       		.uleb128 0x2e
 3879 01eb 01       		.byte	0x1
 3880 01ec 3F       		.uleb128 0x3f
 3881 01ed 19       		.uleb128 0x19
 3882 01ee 03       		.uleb128 0x3
 3883 01ef 0E       		.uleb128 0xe
 3884 01f0 3A       		.uleb128 0x3a
 3885 01f1 0B       		.uleb128 0xb
 3886 01f2 3B       		.uleb128 0x3b
 3887 01f3 0B       		.uleb128 0xb
 3888 01f4 27       		.uleb128 0x27
 3889 01f5 19       		.uleb128 0x19
 3890 01f6 11       		.uleb128 0x11
 3891 01f7 01       		.uleb128 0x1
 3892 01f8 12       		.uleb128 0x12
 3893 01f9 06       		.uleb128 0x6
 3894 01fa 40       		.uleb128 0x40
 3895 01fb 18       		.uleb128 0x18
 3896 01fc 9642     		.uleb128 0x2116
 3897 01fe 19       		.uleb128 0x19
 3898 01ff 01       		.uleb128 0x1
 3899 0200 13       		.uleb128 0x13
 3900 0201 00       		.byte	0
 3901 0202 00       		.byte	0
 3902 0203 26       		.uleb128 0x26
 3903 0204 0B       		.uleb128 0xb
 3904 0205 01       		.byte	0x1
 3905 0206 11       		.uleb128 0x11
 3906 0207 01       		.uleb128 0x1
 3907 0208 12       		.uleb128 0x12
 3908 0209 06       		.uleb128 0x6
 3909 020a 00       		.byte	0
 3910 020b 00       		.byte	0
ARM GAS  C:\Users\Luis\AppData\Local\Temp\ccRnH3nf.s 			page 70


 3911 020c 27       		.uleb128 0x27
 3912 020d 34       		.uleb128 0x34
 3913 020e 00       		.byte	0
 3914 020f 03       		.uleb128 0x3
 3915 0210 0E       		.uleb128 0xe
 3916 0211 3A       		.uleb128 0x3a
 3917 0212 0B       		.uleb128 0xb
 3918 0213 3B       		.uleb128 0x3b
 3919 0214 05       		.uleb128 0x5
 3920 0215 49       		.uleb128 0x49
 3921 0216 13       		.uleb128 0x13
 3922 0217 02       		.uleb128 0x2
 3923 0218 18       		.uleb128 0x18
 3924 0219 00       		.byte	0
 3925 021a 00       		.byte	0
 3926 021b 28       		.uleb128 0x28
 3927 021c 2E       		.uleb128 0x2e
 3928 021d 01       		.byte	0x1
 3929 021e 3F       		.uleb128 0x3f
 3930 021f 19       		.uleb128 0x19
 3931 0220 03       		.uleb128 0x3
 3932 0221 0E       		.uleb128 0xe
 3933 0222 3A       		.uleb128 0x3a
 3934 0223 0B       		.uleb128 0xb
 3935 0224 3B       		.uleb128 0x3b
 3936 0225 05       		.uleb128 0x5
 3937 0226 27       		.uleb128 0x27
 3938 0227 19       		.uleb128 0x19
 3939 0228 49       		.uleb128 0x49
 3940 0229 13       		.uleb128 0x13
 3941 022a 11       		.uleb128 0x11
 3942 022b 01       		.uleb128 0x1
 3943 022c 12       		.uleb128 0x12
 3944 022d 06       		.uleb128 0x6
 3945 022e 40       		.uleb128 0x40
 3946 022f 18       		.uleb128 0x18
 3947 0230 9742     		.uleb128 0x2117
 3948 0232 19       		.uleb128 0x19
 3949 0233 01       		.uleb128 0x1
 3950 0234 13       		.uleb128 0x13
 3951 0235 00       		.byte	0
 3952 0236 00       		.byte	0
 3953 0237 29       		.uleb128 0x29
 3954 0238 34       		.uleb128 0x34
 3955 0239 00       		.byte	0
 3956 023a 03       		.uleb128 0x3
 3957 023b 08       		.uleb128 0x8
 3958 023c 3A       		.uleb128 0x3a
 3959 023d 0B       		.uleb128 0xb
 3960 023e 3B       		.uleb128 0x3b
 3961 023f 05       		.uleb128 0x5
 3962 0240 49       		.uleb128 0x49
 3963 0241 13       		.uleb128 0x13
 3964 0242 02       		.uleb128 0x2
 3965 0243 18       		.uleb128 0x18
 3966 0244 00       		.byte	0
 3967 0245 00       		.byte	0
ARM GAS  C:\Users\Luis\AppData\Local\Temp\ccRnH3nf.s 			page 71


 3968 0246 2A       		.uleb128 0x2a
 3969 0247 2E       		.uleb128 0x2e
 3970 0248 01       		.byte	0x1
 3971 0249 3F       		.uleb128 0x3f
 3972 024a 19       		.uleb128 0x19
 3973 024b 03       		.uleb128 0x3
 3974 024c 0E       		.uleb128 0xe
 3975 024d 3A       		.uleb128 0x3a
 3976 024e 0B       		.uleb128 0xb
 3977 024f 3B       		.uleb128 0x3b
 3978 0250 05       		.uleb128 0x5
 3979 0251 27       		.uleb128 0x27
 3980 0252 19       		.uleb128 0x19
 3981 0253 11       		.uleb128 0x11
 3982 0254 01       		.uleb128 0x1
 3983 0255 12       		.uleb128 0x12
 3984 0256 06       		.uleb128 0x6
 3985 0257 40       		.uleb128 0x40
 3986 0258 18       		.uleb128 0x18
 3987 0259 9642     		.uleb128 0x2116
 3988 025b 19       		.uleb128 0x19
 3989 025c 01       		.uleb128 0x1
 3990 025d 13       		.uleb128 0x13
 3991 025e 00       		.byte	0
 3992 025f 00       		.byte	0
 3993 0260 2B       		.uleb128 0x2b
 3994 0261 2E       		.uleb128 0x2e
 3995 0262 01       		.byte	0x1
 3996 0263 3F       		.uleb128 0x3f
 3997 0264 19       		.uleb128 0x19
 3998 0265 03       		.uleb128 0x3
 3999 0266 0E       		.uleb128 0xe
 4000 0267 3A       		.uleb128 0x3a
 4001 0268 0B       		.uleb128 0xb
 4002 0269 3B       		.uleb128 0x3b
 4003 026a 05       		.uleb128 0x5
 4004 026b 27       		.uleb128 0x27
 4005 026c 19       		.uleb128 0x19
 4006 026d 11       		.uleb128 0x11
 4007 026e 01       		.uleb128 0x1
 4008 026f 12       		.uleb128 0x12
 4009 0270 06       		.uleb128 0x6
 4010 0271 40       		.uleb128 0x40
 4011 0272 18       		.uleb128 0x18
 4012 0273 9742     		.uleb128 0x2117
 4013 0275 19       		.uleb128 0x19
 4014 0276 01       		.uleb128 0x1
 4015 0277 13       		.uleb128 0x13
 4016 0278 00       		.byte	0
 4017 0279 00       		.byte	0
 4018 027a 2C       		.uleb128 0x2c
 4019 027b 05       		.uleb128 0x5
 4020 027c 00       		.byte	0
 4021 027d 03       		.uleb128 0x3
 4022 027e 08       		.uleb128 0x8
 4023 027f 3A       		.uleb128 0x3a
 4024 0280 0B       		.uleb128 0xb
ARM GAS  C:\Users\Luis\AppData\Local\Temp\ccRnH3nf.s 			page 72


 4025 0281 3B       		.uleb128 0x3b
 4026 0282 05       		.uleb128 0x5
 4027 0283 49       		.uleb128 0x49
 4028 0284 13       		.uleb128 0x13
 4029 0285 02       		.uleb128 0x2
 4030 0286 18       		.uleb128 0x18
 4031 0287 00       		.byte	0
 4032 0288 00       		.byte	0
 4033 0289 2D       		.uleb128 0x2d
 4034 028a 34       		.uleb128 0x34
 4035 028b 00       		.byte	0
 4036 028c 03       		.uleb128 0x3
 4037 028d 0E       		.uleb128 0xe
 4038 028e 3A       		.uleb128 0x3a
 4039 028f 0B       		.uleb128 0xb
 4040 0290 3B       		.uleb128 0x3b
 4041 0291 0B       		.uleb128 0xb
 4042 0292 49       		.uleb128 0x49
 4043 0293 13       		.uleb128 0x13
 4044 0294 02       		.uleb128 0x2
 4045 0295 18       		.uleb128 0x18
 4046 0296 00       		.byte	0
 4047 0297 00       		.byte	0
 4048 0298 2E       		.uleb128 0x2e
 4049 0299 34       		.uleb128 0x34
 4050 029a 00       		.byte	0
 4051 029b 03       		.uleb128 0x3
 4052 029c 0E       		.uleb128 0xe
 4053 029d 3A       		.uleb128 0x3a
 4054 029e 0B       		.uleb128 0xb
 4055 029f 3B       		.uleb128 0x3b
 4056 02a0 05       		.uleb128 0x5
 4057 02a1 49       		.uleb128 0x49
 4058 02a2 13       		.uleb128 0x13
 4059 02a3 3F       		.uleb128 0x3f
 4060 02a4 19       		.uleb128 0x19
 4061 02a5 3C       		.uleb128 0x3c
 4062 02a6 19       		.uleb128 0x19
 4063 02a7 00       		.byte	0
 4064 02a8 00       		.byte	0
 4065 02a9 2F       		.uleb128 0x2f
 4066 02aa 34       		.uleb128 0x34
 4067 02ab 00       		.byte	0
 4068 02ac 03       		.uleb128 0x3
 4069 02ad 08       		.uleb128 0x8
 4070 02ae 3A       		.uleb128 0x3a
 4071 02af 0B       		.uleb128 0xb
 4072 02b0 3B       		.uleb128 0x3b
 4073 02b1 05       		.uleb128 0x5
 4074 02b2 49       		.uleb128 0x49
 4075 02b3 13       		.uleb128 0x13
 4076 02b4 3F       		.uleb128 0x3f
 4077 02b5 19       		.uleb128 0x19
 4078 02b6 3C       		.uleb128 0x3c
 4079 02b7 19       		.uleb128 0x19
 4080 02b8 00       		.byte	0
 4081 02b9 00       		.byte	0
ARM GAS  C:\Users\Luis\AppData\Local\Temp\ccRnH3nf.s 			page 73


 4082 02ba 30       		.uleb128 0x30
 4083 02bb 34       		.uleb128 0x34
 4084 02bc 00       		.byte	0
 4085 02bd 03       		.uleb128 0x3
 4086 02be 0E       		.uleb128 0xe
 4087 02bf 3A       		.uleb128 0x3a
 4088 02c0 0B       		.uleb128 0xb
 4089 02c1 3B       		.uleb128 0x3b
 4090 02c2 0B       		.uleb128 0xb
 4091 02c3 49       		.uleb128 0x49
 4092 02c4 13       		.uleb128 0x13
 4093 02c5 3F       		.uleb128 0x3f
 4094 02c6 19       		.uleb128 0x19
 4095 02c7 02       		.uleb128 0x2
 4096 02c8 18       		.uleb128 0x18
 4097 02c9 00       		.byte	0
 4098 02ca 00       		.byte	0
 4099 02cb 00       		.byte	0
 4100              		.section	.debug_aranges,"",%progbits
 4101 0000 84000000 		.4byte	0x84
 4102 0004 0200     		.2byte	0x2
 4103 0006 00000000 		.4byte	.Ldebug_info0
 4104 000a 04       		.byte	0x4
 4105 000b 00       		.byte	0
 4106 000c 0000     		.2byte	0
 4107 000e 0000     		.2byte	0
 4108 0010 00000000 		.4byte	.LFB230
 4109 0014 14000000 		.4byte	.LFE230-.LFB230
 4110 0018 00000000 		.4byte	.LFB260
 4111 001c 0C000000 		.4byte	.LFE260-.LFB260
 4112 0020 00000000 		.4byte	.LFB261
 4113 0024 94000000 		.4byte	.LFE261-.LFB261
 4114 0028 00000000 		.4byte	.LFB262
 4115 002c 2C000000 		.4byte	.LFE262-.LFB262
 4116 0030 00000000 		.4byte	.LFB263
 4117 0034 88000000 		.4byte	.LFE263-.LFB263
 4118 0038 00000000 		.4byte	.LFB264
 4119 003c 70000000 		.4byte	.LFE264-.LFB264
 4120 0040 00000000 		.4byte	.LFB265
 4121 0044 B0000000 		.4byte	.LFE265-.LFB265
 4122 0048 00000000 		.4byte	.LFB266
 4123 004c 26000000 		.4byte	.LFE266-.LFB266
 4124 0050 00000000 		.4byte	.LFB267
 4125 0054 26000000 		.4byte	.LFE267-.LFB267
 4126 0058 00000000 		.4byte	.LFB268
 4127 005c 1C000000 		.4byte	.LFE268-.LFB268
 4128 0060 00000000 		.4byte	.LFB269
 4129 0064 56000000 		.4byte	.LFE269-.LFB269
 4130 0068 00000000 		.4byte	.LFB270
 4131 006c 42000000 		.4byte	.LFE270-.LFB270
 4132 0070 00000000 		.4byte	.LFB271
 4133 0074 56000000 		.4byte	.LFE271-.LFB271
 4134 0078 00000000 		.4byte	.LFB272
 4135 007c 32000000 		.4byte	.LFE272-.LFB272
 4136 0080 00000000 		.4byte	0
 4137 0084 00000000 		.4byte	0
 4138              		.section	.debug_ranges,"",%progbits
ARM GAS  C:\Users\Luis\AppData\Local\Temp\ccRnH3nf.s 			page 74


 4139              	.Ldebug_ranges0:
 4140 0000 00000000 		.4byte	.LFB230
 4141 0004 14000000 		.4byte	.LFE230
 4142 0008 00000000 		.4byte	.LFB260
 4143 000c 0C000000 		.4byte	.LFE260
 4144 0010 00000000 		.4byte	.LFB261
 4145 0014 94000000 		.4byte	.LFE261
 4146 0018 00000000 		.4byte	.LFB262
 4147 001c 2C000000 		.4byte	.LFE262
 4148 0020 00000000 		.4byte	.LFB263
 4149 0024 88000000 		.4byte	.LFE263
 4150 0028 00000000 		.4byte	.LFB264
 4151 002c 70000000 		.4byte	.LFE264
 4152 0030 00000000 		.4byte	.LFB265
 4153 0034 B0000000 		.4byte	.LFE265
 4154 0038 00000000 		.4byte	.LFB266
 4155 003c 26000000 		.4byte	.LFE266
 4156 0040 00000000 		.4byte	.LFB267
 4157 0044 26000000 		.4byte	.LFE267
 4158 0048 00000000 		.4byte	.LFB268
 4159 004c 1C000000 		.4byte	.LFE268
 4160 0050 00000000 		.4byte	.LFB269
 4161 0054 56000000 		.4byte	.LFE269
 4162 0058 00000000 		.4byte	.LFB270
 4163 005c 42000000 		.4byte	.LFE270
 4164 0060 00000000 		.4byte	.LFB271
 4165 0064 56000000 		.4byte	.LFE271
 4166 0068 00000000 		.4byte	.LFB272
 4167 006c 32000000 		.4byte	.LFE272
 4168 0070 00000000 		.4byte	0
 4169 0074 00000000 		.4byte	0
 4170              		.section	.debug_line,"",%progbits
 4171              	.Ldebug_line0:
 4172 0000 D2040000 		.section	.debug_str,"MS",%progbits,1
 4172      0200CC02 
 4172      00000201 
 4172      FB0E0D00 
 4172      01010101 
 4173              	.LASF52:
 4174 0000 63685F74 		.ascii	"ch_threads_list\000"
 4174      68726561 
 4174      64735F6C 
 4174      69737400 
 4175              	.LASF53:
 4176 0010 74687265 		.ascii	"threads_queue_t\000"
 4176      6164735F 
 4176      71756575 
 4176      655F7400 
 4177              	.LASF232:
 4178 0020 6C697374 		.ascii	"listen_pcbs\000"
 4178      656E5F70 
 4178      63627300 
 4179              	.LASF118:
 4180 002c 77746D74 		.ascii	"wtmtxp\000"
 4180      787000
 4181              	.LASF237:
 4182 0033 4D454D50 		.ascii	"MEMP_TCP_PCB_LISTEN\000"
ARM GAS  C:\Users\Luis\AppData\Local\Temp\ccRnH3nf.s 			page 75


 4182      5F544350 
 4182      5F504342 
 4182      5F4C4953 
 4182      54454E00 
 4183              	.LASF49:
 4184 0047 74687265 		.ascii	"thread_reference_t\000"
 4184      61645F72 
 4184      65666572 
 4184      656E6365 
 4184      5F7400
 4185              	.LASF146:
 4186 005a 6E657469 		.ascii	"netif\000"
 4186      6600
 4187              	.LASF162:
 4188 0060 736F5F6F 		.ascii	"so_options\000"
 4188      7074696F 
 4188      6E7300
 4189              	.LASF127:
 4190 006b 63686172 		.ascii	"char\000"
 4190      00
 4191              	.LASF149:
 4192 0070 6F757470 		.ascii	"output\000"
 4192      757400
 4193              	.LASF31:
 4194 0077 705F7072 		.ascii	"p_prio\000"
 4194      696F00
 4195              	.LASF231:
 4196 007e 75726770 		.ascii	"urgp\000"
 4196      00
 4197              	.LASF168:
 4198 0083 706F6C6C 		.ascii	"polltmr\000"
 4198      746D7200 
 4199              	.LASF158:
 4200 008b 7463705F 		.ascii	"tcp_accept_fn\000"
 4200      61636365 
 4200      70745F66 
 4200      6E00
 4201              	.LASF144:
 4202 0099 666C6167 		.ascii	"flags\000"
 4202      7300
 4203              	.LASF27:
 4204 009f 73797374 		.ascii	"systime_t\000"
 4204      696D655F 
 4204      7400
 4205              	.LASF125:
 4206 00a9 6D5F6F77 		.ascii	"m_owner\000"
 4206      6E657200 
 4207              	.LASF121:
 4208 00b1 735F7175 		.ascii	"s_queue\000"
 4208      65756500 
 4209              	.LASF221:
 4210 00b9 54494D45 		.ascii	"TIME_WAIT\000"
 4210      5F574149 
 4210      5400
 4211              	.LASF0:
 4212 00c3 756E7369 		.ascii	"unsigned int\000"
 4212      676E6564 
ARM GAS  C:\Users\Luis\AppData\Local\Temp\ccRnH3nf.s 			page 76


 4212      20696E74 
 4212      00
 4213              	.LASF210:
 4214 00d0 7463705F 		.ascii	"tcp_connected_fn\000"
 4214      636F6E6E 
 4214      65637465 
 4214      645F666E 
 4214      00
 4215              	.LASF140:
 4216 00e1 6E657874 		.ascii	"next\000"
 4216      00
 4217              	.LASF111:
 4218 00e6 6D5F6372 		.ascii	"m_crit_isr\000"
 4218      69745F69 
 4218      737200
 4219              	.LASF50:
 4220 00f1 74687265 		.ascii	"threads_list_t\000"
 4220      6164735F 
 4220      6C697374 
 4220      5F7400
 4221              	.LASF138:
 4222 0100 6572725F 		.ascii	"err_t\000"
 4222      7400
 4223              	.LASF106:
 4224 0106 63756D75 		.ascii	"cumulative\000"
 4224      6C617469 
 4224      766500
 4225              	.LASF40:
 4226 0111 705F7761 		.ascii	"p_waiting\000"
 4226      6974696E 
 4226      6700
 4227              	.LASF261:
 4228 011b 6E657469 		.ascii	"netif_set_default\000"
 4228      665F7365 
 4228      745F6465 
 4228      6661756C 
 4228      7400
 4229              	.LASF95:
 4230 012d 73655F73 		.ascii	"se_state\000"
 4230      74617465 
 4230      00
 4231              	.LASF132:
 4232 0136 7531365F 		.ascii	"u16_t\000"
 4232      7400
 4233              	.LASF263:
 4234 013c 6E657469 		.ascii	"netif_set_down\000"
 4234      665F7365 
 4234      745F646F 
 4234      776E00
 4235              	.LASF272:
 4236 014b 474E5520 		.ascii	"GNU C 4.8.3 20131129 (release) [ARM/embedded-4_8-br"
 4236      4320342E 
 4236      382E3320 
 4236      32303133 
 4236      31313239 
 4237 017e 616E6368 		.ascii	"anch revision 205641] -mcpu=cortex-m4 -mapcs-frame "
 4237      20726576 
ARM GAS  C:\Users\Luis\AppData\Local\Temp\ccRnH3nf.s 			page 77


 4237      6973696F 
 4237      6E203230 
 4237      35363431 
 4238 01b1 2D6D6E6F 		.ascii	"-mno-thumb-interwork -mthumb -ggdb -O0 -falign-func"
 4238      2D746875 
 4238      6D622D69 
 4238      6E746572 
 4238      776F726B 
 4239 01e4 74696F6E 		.ascii	"tions=16 -ffunction-sections -fdata-sections -fno-c"
 4239      733D3136 
 4239      202D6666 
 4239      756E6374 
 4239      696F6E2D 
 4240 0217 6F6D6D6F 		.ascii	"ommon\000"
 4240      6E00
 4241              	.LASF83:
 4242 021d 76746C69 		.ascii	"vtlist\000"
 4242      737400
 4243              	.LASF174:
 4244 0224 7263765F 		.ascii	"rcv_ann_right_edge\000"
 4244      616E6E5F 
 4244      72696768 
 4244      745F6564 
 4244      676500
 4245              	.LASF257:
 4246 0237 6E657469 		.ascii	"netif_set_ipaddr\000"
 4246      665F7365 
 4246      745F6970 
 4246      61646472 
 4246      00
 4247              	.LASF56:
 4248 0248 63685F72 		.ascii	"ch_ready_list\000"
 4248      65616479 
 4248      5F6C6973 
 4248      7400
 4249              	.LASF86:
 4250 0256 69646C65 		.ascii	"idle_thread_wa\000"
 4250      5F746872 
 4250      6561645F 
 4250      776100
 4251              	.LASF119:
 4252 0265 65776D61 		.ascii	"ewmask\000"
 4252      736B00
 4253              	.LASF156:
 4254 026c 6E657469 		.ascii	"netif_output_fn\000"
 4254      665F6F75 
 4254      74707574 
 4254      5F666E00 
 4255              	.LASF205:
 4256 027c 6B656570 		.ascii	"keep_cnt_sent\000"
 4256      5F636E74 
 4256      5F73656E 
 4256      7400
 4257              	.LASF247:
 4258 028a 4D454D50 		.ascii	"MEMP_PBUF_POOL\000"
 4258      5F504255 
 4258      465F504F 
ARM GAS  C:\Users\Luis\AppData\Local\Temp\ccRnH3nf.s 			page 78


 4258      4F4C00
 4259              	.LASF207:
 4260 0299 7463705F 		.ascii	"tcp_sent_fn\000"
 4260      73656E74 
 4260      5F666E00 
 4261              	.LASF63:
 4262 02a5 76746675 		.ascii	"vtfunc_t\000"
 4262      6E635F74 
 4262      00
 4263              	.LASF266:
 4264 02ae 6E657469 		.ascii	"netif_num\000"
 4264      665F6E75 
 4264      6D00
 4265              	.LASF122:
 4266 02b8 735F636E 		.ascii	"s_cnt\000"
 4266      7400
 4267              	.LASF75:
 4268 02be 63685F73 		.ascii	"ch_system_debug\000"
 4268      79737465 
 4268      6D5F6465 
 4268      62756700 
 4269              	.LASF227:
 4270 02ce 7365716E 		.ascii	"seqno\000"
 4270      6F00
 4271              	.LASF155:
 4272 02d4 6E657469 		.ascii	"netif_input_fn\000"
 4272      665F696E 
 4272      7075745F 
 4272      666E00
 4273              	.LASF12:
 4274 02e3 75696E74 		.ascii	"uint32_t\000"
 4274      33325F74 
 4274      00
 4275              	.LASF242:
 4276 02ec 4D454D50 		.ascii	"MEMP_NETCONN\000"
 4276      5F4E4554 
 4276      434F4E4E 
 4276      00
 4277              	.LASF181:
 4278 02f9 63776E64 		.ascii	"cwnd\000"
 4278      00
 4279              	.LASF112:
 4280 02fe 6B65726E 		.ascii	"kernel_stats_t\000"
 4280      656C5F73 
 4280      74617473 
 4280      5F7400
 4281              	.LASF24:
 4282 030d 6576656E 		.ascii	"eventmask_t\000"
 4282      746D6173 
 4282      6B5F7400 
 4283              	.LASF58:
 4284 0319 725F7072 		.ascii	"r_prio\000"
 4284      696F00
 4285              	.LASF164:
 4286 0320 61636365 		.ascii	"accept\000"
 4286      707400
 4287              	.LASF85:
ARM GAS  C:\Users\Luis\AppData\Local\Temp\ccRnH3nf.s 			page 79


 4288 0327 6B65726E 		.ascii	"kernel_stats\000"
 4288      656C5F73 
 4288      74617473 
 4288      00
 4289              	.LASF243:
 4290 0334 4D454D50 		.ascii	"MEMP_TCPIP_MSG_API\000"
 4290      5F544350 
 4290      49505F4D 
 4290      53475F41 
 4290      504900
 4291              	.LASF115:
 4292 0347 77746F62 		.ascii	"wtobjp\000"
 4292      6A7000
 4293              	.LASF166:
 4294 034e 6C6F6361 		.ascii	"local_port\000"
 4294      6C5F706F 
 4294      727400
 4295              	.LASF120:
 4296 0359 63685F73 		.ascii	"ch_semaphore\000"
 4296      656D6170 
 4296      686F7265 
 4296      00
 4297              	.LASF22:
 4298 0366 74707269 		.ascii	"tprio_t\000"
 4298      6F5F7400 
 4299              	.LASF65:
 4300 036e 63685F76 		.ascii	"ch_virtual_timer\000"
 4300      69727475 
 4300      616C5F74 
 4300      696D6572 
 4300      00
 4301              	.LASF6:
 4302 037f 696E7431 		.ascii	"int16_t\000"
 4302      365F7400 
 4303              	.LASF268:
 4304 0387 6E657469 		.ascii	"netif_list\000"
 4304      665F6C69 
 4304      737400
 4305              	.LASF153:
 4306 0392 68776164 		.ascii	"hwaddr\000"
 4306      647200
 4307              	.LASF222:
 4308 0399 7463705F 		.ascii	"tcp_seg\000"
 4308      73656700 
 4309              	.LASF16:
 4310 03a1 6C6F6E67 		.ascii	"long long unsigned int\000"
 4310      206C6F6E 
 4310      6720756E 
 4310      7369676E 
 4310      65642069 
 4311              	.LASF94:
 4312 03b8 73655F77 		.ascii	"se_wtobjp\000"
 4312      746F626A 
 4312      7000
 4313              	.LASF249:
 4314 03c2 72656173 		.ascii	"reason\000"
 4314      6F6E00
ARM GAS  C:\Users\Luis\AppData\Local\Temp\ccRnH3nf.s 			page 80


 4315              	.LASF177:
 4316 03c9 72747365 		.ascii	"rtseq\000"
 4316      7100
 4317              	.LASF25:
 4318 03cf 636E745F 		.ascii	"cnt_t\000"
 4318      7400
 4319              	.LASF256:
 4320 03d5 746D704E 		.ascii	"tmpNetif\000"
 4320      65746966 
 4320      00
 4321              	.LASF77:
 4322 03de 6973725F 		.ascii	"isr_cnt\000"
 4322      636E7400 
 4323              	.LASF104:
 4324 03e6 776F7273 		.ascii	"worst\000"
 4324      7400
 4325              	.LASF33:
 4326 03ec 705F6E65 		.ascii	"p_newer\000"
 4326      77657200 
 4327              	.LASF260:
 4328 03f4 6E657469 		.ascii	"netif_set_netmask\000"
 4328      665F7365 
 4328      745F6E65 
 4328      746D6173 
 4328      6B00
 4329              	.LASF72:
 4330 0406 63685F76 		.ascii	"ch_virtual_timers_list\000"
 4330      69727475 
 4330      616C5F74 
 4330      696D6572 
 4330      735F6C69 
 4331              	.LASF171:
 4332 041d 7263765F 		.ascii	"rcv_nxt\000"
 4332      6E787400 
 4333              	.LASF244:
 4334 0425 4D454D50 		.ascii	"MEMP_TCPIP_MSG_INPKT\000"
 4334      5F544350 
 4334      49505F4D 
 4334      53475F49 
 4334      4E504B54 
 4335              	.LASF194:
 4336 043a 756E6163 		.ascii	"unacked\000"
 4336      6B656400 
 4337              	.LASF28:
 4338 0442 74687265 		.ascii	"thread_t\000"
 4338      61645F74 
 4338      00
 4339              	.LASF29:
 4340 044b 705F6E65 		.ascii	"p_next\000"
 4340      787400
 4341              	.LASF220:
 4342 0452 4C415354 		.ascii	"LAST_ACK\000"
 4342      5F41434B 
 4342      00
 4343              	.LASF230:
 4344 045b 63686B73 		.ascii	"chksum\000"
 4344      756D00
ARM GAS  C:\Users\Luis\AppData\Local\Temp\ccRnH3nf.s 			page 81


 4345              	.LASF250:
 4346 0462 69706164 		.ascii	"ipaddr\000"
 4346      647200
 4347              	.LASF1:
 4348 0469 73697A65 		.ascii	"size_t\000"
 4348      5F7400
 4349              	.LASF113:
 4350 0470 7264796D 		.ascii	"rdymsg\000"
 4350      736700
 4351              	.LASF141:
 4352 0477 7061796C 		.ascii	"payload\000"
 4352      6F616400 
 4353              	.LASF101:
 4354 047f 6F666673 		.ascii	"offset\000"
 4354      657400
 4355              	.LASF265:
 4356 0486 6E657469 		.ascii	"netif_set_link_down\000"
 4356      665F7365 
 4356      745F6C69 
 4356      6E6B5F64 
 4356      6F776E00 
 4357              	.LASF199:
 4358 049a 636F6E6E 		.ascii	"connected\000"
 4358      65637465 
 4358      6400
 4359              	.LASF129:
 4360 04a4 5F426F6F 		.ascii	"_Bool\000"
 4360      6C00
 4361              	.LASF274:
 4362 04aa 433A5C55 		.ascii	"C:\\Users\\Luis\\git\\DSP-Library-Lanin\\examples\\"
 4362      73657273 
 4362      5C4C7569 
 4362      735C6769 
 4362      745C4453 
 4363 04d7 53544D33 		.ascii	"STM32F407_EMTECH-LWIP\000"
 4363      32463430 
 4363      375F454D 
 4363      54454348 
 4363      2D4C5749 
 4364              	.LASF219:
 4365 04ed 434C4F53 		.ascii	"CLOSING\000"
 4365      494E4700 
 4366              	.LASF123:
 4367 04f5 63685F6D 		.ascii	"ch_mutex\000"
 4367      75746578 
 4367      00
 4368              	.LASF180:
 4369 04fe 6C617374 		.ascii	"lastack\000"
 4369      61636B00 
 4370              	.LASF248:
 4371 0506 4D454D50 		.ascii	"MEMP_MAX\000"
 4371      5F4D4158 
 4371      00
 4372              	.LASF131:
 4373 050f 73385F74 		.ascii	"s8_t\000"
 4373      00
 4374              	.LASF105:
ARM GAS  C:\Users\Luis\AppData\Local\Temp\ccRnH3nf.s 			page 82


 4375 0514 6C617374 		.ascii	"last\000"
 4375      00
 4376              	.LASF273:
 4377 0519 2E2E2F2E 		.ascii	"../../ChibiOS/ext/lwip/src/core/netif.c\000"
 4377      2E2F4368 
 4377      6962694F 
 4377      532F6578 
 4377      742F6C77 
 4378              	.LASF107:
 4379 0541 74696D65 		.ascii	"time_measurement_t\000"
 4379      5F6D6561 
 4379      73757265 
 4379      6D656E74 
 4379      5F7400
 4380              	.LASF2:
 4381 0554 696E7438 		.ascii	"int8_t\000"
 4381      5F7400
 4382              	.LASF35:
 4383 055b 705F6E61 		.ascii	"p_name\000"
 4383      6D6500
 4384              	.LASF179:
 4385 0562 64757061 		.ascii	"dupacks\000"
 4385      636B7300 
 4386              	.LASF165:
 4387 056a 7072696F 		.ascii	"prio\000"
 4387      00
 4388              	.LASF169:
 4389 056f 706F6C6C 		.ascii	"pollinterval\000"
 4389      696E7465 
 4389      7276616C 
 4389      00
 4390              	.LASF246:
 4391 057c 4D454D50 		.ascii	"MEMP_PBUF\000"
 4391      5F504255 
 4391      4600
 4392              	.LASF200:
 4393 0586 706F6C6C 		.ascii	"poll\000"
 4393      00
 4394              	.LASF68:
 4395 058b 76745F64 		.ascii	"vt_delta\000"
 4395      656C7461 
 4395      00
 4396              	.LASF184:
 4397 0594 736E645F 		.ascii	"snd_wl1\000"
 4397      776C3100 
 4398              	.LASF18:
 4399 059c 72747469 		.ascii	"rttime_t\000"
 4399      6D655F74 
 4399      00
 4400              	.LASF73:
 4401 05a5 76745F6C 		.ascii	"vt_lasttime\000"
 4401      61737474 
 4401      696D6500 
 4402              	.LASF189:
 4403 05b1 61636B65 		.ascii	"acked\000"
 4403      6400
 4404              	.LASF218:
ARM GAS  C:\Users\Luis\AppData\Local\Temp\ccRnH3nf.s 			page 83


 4405 05b7 434C4F53 		.ascii	"CLOSE_WAIT\000"
 4405      455F5741 
 4405      495400
 4406              	.LASF255:
 4407 05c2 6E657469 		.ascii	"netif_find\000"
 4407      665F6669 
 4407      6E6400
 4408              	.LASF20:
 4409 05cd 74737461 		.ascii	"tstate_t\000"
 4409      74655F74 
 4409      00
 4410              	.LASF93:
 4411 05d6 73655F74 		.ascii	"se_tp\000"
 4411      7000
 4412              	.LASF14:
 4413 05dc 6C6F6E67 		.ascii	"long long int\000"
 4413      206C6F6E 
 4413      6720696E 
 4413      7400
 4414              	.LASF34:
 4415 05ea 705F6F6C 		.ascii	"p_older\000"
 4415      64657200 
 4416              	.LASF92:
 4417 05f2 73655F74 		.ascii	"se_time\000"
 4417      696D6500 
 4418              	.LASF36:
 4419 05fa 705F7374 		.ascii	"p_stklimit\000"
 4419      6B6C696D 
 4419      697400
 4420              	.LASF197:
 4421 0605 73656E74 		.ascii	"sent\000"
 4421      00
 4422              	.LASF4:
 4423 060a 75696E74 		.ascii	"uint8_t\000"
 4423      385F7400 
 4424              	.LASF143:
 4425 0612 74797065 		.ascii	"type\000"
 4425      00
 4426              	.LASF185:
 4427 0617 736E645F 		.ascii	"snd_wl2\000"
 4427      776C3200 
 4428              	.LASF47:
 4429 061f 705F7374 		.ascii	"p_stats\000"
 4429      61747300 
 4430              	.LASF46:
 4431 0627 705F6D70 		.ascii	"p_mpool\000"
 4431      6F6F6C00 
 4432              	.LASF44:
 4433 062f 705F6D74 		.ascii	"p_mtxlist\000"
 4433      786C6973 
 4433      7400
 4434              	.LASF209:
 4435 0639 7463705F 		.ascii	"tcp_err_fn\000"
 4435      6572725F 
 4435      666E00
 4436              	.LASF37:
 4437 0644 705F7374 		.ascii	"p_state\000"
ARM GAS  C:\Users\Luis\AppData\Local\Temp\ccRnH3nf.s 			page 84


 4437      61746500 
 4438              	.LASF51:
 4439 064c 63685F74 		.ascii	"ch_thread\000"
 4439      68726561 
 4439      6400
 4440              	.LASF276:
 4441 0656 7463705F 		.ascii	"tcp_listen_pcbs_t\000"
 4441      6C697374 
 4441      656E5F70 
 4441      6362735F 
 4441      7400
 4442              	.LASF97:
 4443 0668 74625F73 		.ascii	"tb_size\000"
 4443      697A6500 
 4444              	.LASF253:
 4445 0670 6E657469 		.ascii	"netif_remove\000"
 4445      665F7265 
 4445      6D6F7665 
 4445      00
 4446              	.LASF186:
 4447 067d 736E645F 		.ascii	"snd_lbb\000"
 4447      6C626200 
 4448              	.LASF74:
 4449 0685 73797374 		.ascii	"system_debug_t\000"
 4449      656D5F64 
 4449      65627567 
 4449      5F7400
 4450              	.LASF241:
 4451 0694 4D454D50 		.ascii	"MEMP_NETBUF\000"
 4451      5F4E4554 
 4451      42554600 
 4452              	.LASF147:
 4453 06a0 6E65746D 		.ascii	"netmask\000"
 4453      61736B00 
 4454              	.LASF54:
 4455 06a8 63685F74 		.ascii	"ch_threads_queue\000"
 4455      68726561 
 4455      64735F71 
 4455      75657565 
 4455      00
 4456              	.LASF224:
 4457 06b9 7463705F 		.ascii	"tcp_pcb_listen\000"
 4457      7063625F 
 4457      6C697374 
 4457      656E00
 4458              	.LASF228:
 4459 06c8 61636B6E 		.ascii	"ackno\000"
 4459      6F00
 4460              	.LASF57:
 4461 06ce 725F7175 		.ascii	"r_queue\000"
 4461      65756500 
 4462              	.LASF204:
 4463 06d6 70657273 		.ascii	"persist_backoff\000"
 4463      6973745F 
 4463      6261636B 
 4463      6F666600 
 4464              	.LASF60:
ARM GAS  C:\Users\Luis\AppData\Local\Temp\ccRnH3nf.s 			page 85


 4465 06e6 725F6E65 		.ascii	"r_newer\000"
 4465      77657200 
 4466              	.LASF23:
 4467 06ee 6D73675F 		.ascii	"msg_t\000"
 4467      7400
 4468              	.LASF236:
 4469 06f4 4D454D50 		.ascii	"MEMP_TCP_PCB\000"
 4469      5F544350 
 4469      5F504342 
 4469      00
 4470              	.LASF130:
 4471 0701 75385F74 		.ascii	"u8_t\000"
 4471      00
 4472              	.LASF38:
 4473 0706 705F666C 		.ascii	"p_flags\000"
 4473      61677300 
 4474              	.LASF64:
 4475 070e 76697274 		.ascii	"virtual_timer_t\000"
 4475      75616C5F 
 4475      74696D65 
 4475      725F7400 
 4476              	.LASF277:
 4477 071e 6F73616C 		.ascii	"osalSysHalt\000"
 4477      53797348 
 4477      616C7400 
 4478              	.LASF167:
 4479 072a 72656D6F 		.ascii	"remote_port\000"
 4479      74655F70 
 4479      6F727400 
 4480              	.LASF99:
 4481 0736 74625F62 		.ascii	"tb_buffer\000"
 4481      75666665 
 4481      7200
 4482              	.LASF98:
 4483 0740 74625F70 		.ascii	"tb_ptr\000"
 4483      747200
 4484              	.LASF270:
 4485 0747 7463705F 		.ascii	"tcp_listen_pcbs\000"
 4485      6C697374 
 4485      656E5F70 
 4485      63627300 
 4486              	.LASF173:
 4487 0757 7263765F 		.ascii	"rcv_ann_wnd\000"
 4487      616E6E5F 
 4487      776E6400 
 4488              	.LASF61:
 4489 0763 725F6F6C 		.ascii	"r_older\000"
 4489      64657200 
 4490              	.LASF239:
 4491 076b 4D454D50 		.ascii	"MEMP_REASSDATA\000"
 4491      5F524541 
 4491      53534441 
 4491      544100
 4492              	.LASF109:
 4493 077a 6E5F6374 		.ascii	"n_ctxswc\000"
 4493      78737763 
 4493      00
ARM GAS  C:\Users\Luis\AppData\Local\Temp\ccRnH3nf.s 			page 86


 4494              	.LASF206:
 4495 0783 7463705F 		.ascii	"tcp_recv_fn\000"
 4495      72656376 
 4495      5F666E00 
 4496              	.LASF148:
 4497 078f 696E7075 		.ascii	"input\000"
 4497      7400
 4498              	.LASF76:
 4499 0795 70616E69 		.ascii	"panic_msg\000"
 4499      635F6D73 
 4499      6700
 4500              	.LASF90:
 4501 079f 636F6E74 		.ascii	"context\000"
 4501      65787400 
 4502              	.LASF269:
 4503 07a7 6E657469 		.ascii	"netif_default\000"
 4503      665F6465 
 4503      6661756C 
 4503      7400
 4504              	.LASF42:
 4505 07b5 705F6D73 		.ascii	"p_msg\000"
 4505      6700
 4506              	.LASF102:
 4507 07bb 746D5F63 		.ascii	"tm_calibration_t\000"
 4507      616C6962 
 4507      72617469 
 4507      6F6E5F74 
 4507      00
 4508              	.LASF175:
 4509 07cc 7274696D 		.ascii	"rtime\000"
 4509      6500
 4510              	.LASF19:
 4511 07d2 746D6F64 		.ascii	"tmode_t\000"
 4511      655F7400 
 4512              	.LASF26:
 4513 07da 75636E74 		.ascii	"ucnt_t\000"
 4513      5F7400
 4514              	.LASF84:
 4515 07e1 6D61696E 		.ascii	"mainthread\000"
 4515      74687265 
 4515      616400
 4516              	.LASF208:
 4517 07ec 7463705F 		.ascii	"tcp_poll_fn\000"
 4517      706F6C6C 
 4517      5F666E00 
 4518              	.LASF152:
 4519 07f8 68776164 		.ascii	"hwaddr_len\000"
 4519      64725F6C 
 4519      656E00
 4520              	.LASF8:
 4521 0803 75696E74 		.ascii	"uint16_t\000"
 4521      31365F74 
 4521      00
 4522              	.LASF201:
 4523 080c 65727266 		.ascii	"errf\000"
 4523      00
 4524              	.LASF187:
ARM GAS  C:\Users\Luis\AppData\Local\Temp\ccRnH3nf.s 			page 87


 4525 0811 736E645F 		.ascii	"snd_wnd\000"
 4525      776E6400 
 4526              	.LASF275:
 4527 0819 7463705F 		.ascii	"tcp_state\000"
 4527      73746174 
 4527      6500
 4528              	.LASF17:
 4529 0823 7274636E 		.ascii	"rtcnt_t\000"
 4529      745F7400 
 4530              	.LASF145:
 4531 082b 6E657469 		.ascii	"netif_init_fn\000"
 4531      665F696E 
 4531      69745F66 
 4531      6E00
 4532              	.LASF78:
 4533 0839 6C6F636B 		.ascii	"lock_cnt\000"
 4533      5F636E74 
 4533      00
 4534              	.LASF195:
 4535 0842 6F6F7365 		.ascii	"ooseq\000"
 4535      7100
 4536              	.LASF108:
 4537 0848 6E5F6972 		.ascii	"n_irq\000"
 4537      7100
 4538              	.LASF45:
 4539 084e 705F7265 		.ascii	"p_realprio\000"
 4539      616C7072 
 4539      696F00
 4540              	.LASF211:
 4541 0859 434C4F53 		.ascii	"CLOSED\000"
 4541      454400
 4542              	.LASF134:
 4543 0860 7533325F 		.ascii	"u32_t\000"
 4543      7400
 4544              	.LASF7:
 4545 0866 73686F72 		.ascii	"short int\000"
 4545      7420696E 
 4545      7400
 4546              	.LASF62:
 4547 0870 725F6375 		.ascii	"r_current\000"
 4547      7272656E 
 4547      7400
 4548              	.LASF43:
 4549 087a 705F6570 		.ascii	"p_epending\000"
 4549      656E6469 
 4549      6E6700
 4550              	.LASF124:
 4551 0885 6D5F7175 		.ascii	"m_queue\000"
 4551      65756500 
 4552              	.LASF11:
 4553 088d 6C6F6E67 		.ascii	"long int\000"
 4553      20696E74 
 4553      00
 4554              	.LASF91:
 4555 0896 706F7274 		.ascii	"port_intctx\000"
 4555      5F696E74 
 4555      63747800 
ARM GAS  C:\Users\Luis\AppData\Local\Temp\ccRnH3nf.s 			page 88


 4556              	.LASF267:
 4557 08a2 49544D5F 		.ascii	"ITM_RxBuffer\000"
 4557      52784275 
 4557      66666572 
 4557      00
 4558              	.LASF193:
 4559 08af 756E7365 		.ascii	"unsent\000"
 4559      6E7400
 4560              	.LASF172:
 4561 08b6 7263765F 		.ascii	"rcv_wnd\000"
 4561      776E6400 
 4562              	.LASF176:
 4563 08be 72747465 		.ascii	"rttest\000"
 4563      737400
 4564              	.LASF81:
 4565 08c5 63685F73 		.ascii	"ch_system\000"
 4565      79737465 
 4565      6D00
 4566              	.LASF110:
 4567 08cf 6D5F6372 		.ascii	"m_crit_thd\000"
 4567      69745F74 
 4567      686400
 4568              	.LASF245:
 4569 08da 4D454D50 		.ascii	"MEMP_SYS_TIMEOUT\000"
 4569      5F535953 
 4569      5F54494D 
 4569      454F5554 
 4569      00
 4570              	.LASF170:
 4571 08eb 6C617374 		.ascii	"last_timer\000"
 4571      5F74696D 
 4571      657200
 4572              	.LASF235:
 4573 08f6 4D454D50 		.ascii	"MEMP_UDP_PCB\000"
 4573      5F554450 
 4573      5F504342 
 4573      00
 4574              	.LASF160:
 4575 0903 6C6F6361 		.ascii	"local_ip\000"
 4575      6C5F6970 
 4575      00
 4576              	.LASF32:
 4577 090c 705F6374 		.ascii	"p_ctx\000"
 4577      7800
 4578              	.LASF82:
 4579 0912 726C6973 		.ascii	"rlist\000"
 4579      7400
 4580              	.LASF192:
 4581 0918 756E7365 		.ascii	"unsent_oversize\000"
 4581      6E745F6F 
 4581      76657273 
 4581      697A6500 
 4582              	.LASF213:
 4583 0928 53594E5F 		.ascii	"SYN_SENT\000"
 4583      53454E54 
 4583      00
 4584              	.LASF183:
ARM GAS  C:\Users\Luis\AppData\Local\Temp\ccRnH3nf.s 			page 89


 4585 0931 736E645F 		.ascii	"snd_nxt\000"
 4585      6E787400 
 4586              	.LASF215:
 4587 0939 45535441 		.ascii	"ESTABLISHED\000"
 4587      424C4953 
 4587      48454400 
 4588              	.LASF188:
 4589 0945 736E645F 		.ascii	"snd_wnd_max\000"
 4589      776E645F 
 4589      6D617800 
 4590              	.LASF154:
 4591 0951 6E616D65 		.ascii	"name\000"
 4591      00
 4592              	.LASF262:
 4593 0956 6E657469 		.ascii	"netif_set_up\000"
 4593      665F7365 
 4593      745F7570 
 4593      00
 4594              	.LASF157:
 4595 0963 6E657469 		.ascii	"netif_linkoutput_fn\000"
 4595      665F6C69 
 4595      6E6B6F75 
 4595      74707574 
 4595      5F666E00 
 4596              	.LASF240:
 4597 0977 4D454D50 		.ascii	"MEMP_FRAG_PBUF\000"
 4597      5F465241 
 4597      475F5042 
 4597      554600
 4598              	.LASF182:
 4599 0986 73737468 		.ascii	"ssthresh\000"
 4599      72657368 
 4599      00
 4600              	.LASF190:
 4601 098f 736E645F 		.ascii	"snd_buf\000"
 4601      62756600 
 4602              	.LASF252:
 4603 0997 6E657469 		.ascii	"netif_set_addr\000"
 4603      665F7365 
 4603      745F6164 
 4603      647200
 4604              	.LASF234:
 4605 09a6 4D454D50 		.ascii	"MEMP_RAW_PCB\000"
 4605      5F524157 
 4605      5F504342 
 4605      00
 4606              	.LASF229:
 4607 09b3 5F686472 		.ascii	"_hdrlen_rsvd_flags\000"
 4607      6C656E5F 
 4607      72737664 
 4607      5F666C61 
 4607      677300
 4608              	.LASF251:
 4609 09c6 696E6974 		.ascii	"init\000"
 4609      00
 4610              	.LASF30:
 4611 09cb 705F7072 		.ascii	"p_prev\000"
ARM GAS  C:\Users\Luis\AppData\Local\Temp\ccRnH3nf.s 			page 90


 4611      657600
 4612              	.LASF87:
 4613 09d2 73697A65 		.ascii	"sizetype\000"
 4613      74797065 
 4613      00
 4614              	.LASF21:
 4615 09db 74726566 		.ascii	"trefs_t\000"
 4615      735F7400 
 4616              	.LASF13:
 4617 09e3 6C6F6E67 		.ascii	"long unsigned int\000"
 4617      20756E73 
 4617      69676E65 
 4617      6420696E 
 4617      7400
 4618              	.LASF55:
 4619 09f5 72656164 		.ascii	"ready_list_t\000"
 4619      795F6C69 
 4619      73745F74 
 4619      00
 4620              	.LASF223:
 4621 0a02 74637068 		.ascii	"tcphdr\000"
 4621      647200
 4622              	.LASF133:
 4623 0a09 7331365F 		.ascii	"s16_t\000"
 4623      7400
 4624              	.LASF10:
 4625 0a0f 696E7433 		.ascii	"int32_t\000"
 4625      325F7400 
 4626              	.LASF196:
 4627 0a17 72656675 		.ascii	"refused_data\000"
 4627      7365645F 
 4627      64617461 
 4627      00
 4628              	.LASF79:
 4629 0a24 74726163 		.ascii	"trace_buffer\000"
 4629      655F6275 
 4629      66666572 
 4629      00
 4630              	.LASF117:
 4631 0a31 77747365 		.ascii	"wtsemp\000"
 4631      6D7000
 4632              	.LASF96:
 4633 0a38 63685F73 		.ascii	"ch_swc_event_t\000"
 4633      77635F65 
 4633      76656E74 
 4633      5F7400
 4634              	.LASF128:
 4635 0a47 6D757465 		.ascii	"mutex_t\000"
 4635      785F7400 
 4636              	.LASF225:
 4637 0a4f 7463705F 		.ascii	"tcp_hdr\000"
 4637      68647200 
 4638              	.LASF70:
 4639 0a57 76745F70 		.ascii	"vt_par\000"
 4639      617200
 4640              	.LASF103:
 4641 0a5e 62657374 		.ascii	"best\000"
ARM GAS  C:\Users\Luis\AppData\Local\Temp\ccRnH3nf.s 			page 91


 4641      00
 4642              	.LASF5:
 4643 0a63 756E7369 		.ascii	"unsigned char\000"
 4643      676E6564 
 4643      20636861 
 4643      7200
 4644              	.LASF88:
 4645 0a71 72656761 		.ascii	"regarm_t\000"
 4645      726D5F74 
 4645      00
 4646              	.LASF216:
 4647 0a7a 46494E5F 		.ascii	"FIN_WAIT_1\000"
 4647      57414954 
 4647      5F3100
 4648              	.LASF217:
 4649 0a85 46494E5F 		.ascii	"FIN_WAIT_2\000"
 4649      57414954 
 4649      5F3200
 4650              	.LASF71:
 4651 0a90 76697274 		.ascii	"virtual_timers_list_t\000"
 4651      75616C5F 
 4651      74696D65 
 4651      72735F6C 
 4651      6973745F 
 4652              	.LASF39:
 4653 0aa6 705F7265 		.ascii	"p_refs\000"
 4653      667300
 4654              	.LASF238:
 4655 0aad 4D454D50 		.ascii	"MEMP_TCP_SEG\000"
 4655      5F544350 
 4655      5F534547 
 4655      00
 4656              	.LASF259:
 4657 0aba 6E657469 		.ascii	"netif_set_gw\000"
 4657      665F7365 
 4657      745F6777 
 4657      00
 4658              	.LASF139:
 4659 0ac7 70627566 		.ascii	"pbuf\000"
 4659      00
 4660              	.LASF202:
 4661 0acc 6B656570 		.ascii	"keep_idle\000"
 4661      5F69646C 
 4661      6500
 4662              	.LASF163:
 4663 0ad6 63616C6C 		.ascii	"callback_arg\000"
 4663      6261636B 
 4663      5F617267 
 4663      00
 4664              	.LASF212:
 4665 0ae3 4C495354 		.ascii	"LISTEN\000"
 4665      454E00
 4666              	.LASF89:
 4667 0aea 73746B61 		.ascii	"stkalign_t\000"
 4667      6C69676E 
 4667      5F7400
 4668              	.LASF136:
ARM GAS  C:\Users\Luis\AppData\Local\Temp\ccRnH3nf.s 			page 92


 4669 0af5 61646472 		.ascii	"addr\000"
 4669      00
 4670              	.LASF151:
 4671 0afa 73746174 		.ascii	"state\000"
 4671      6500
 4672              	.LASF142:
 4673 0b00 746F745F 		.ascii	"tot_len\000"
 4673      6C656E00 
 4674              	.LASF66:
 4675 0b08 76745F6E 		.ascii	"vt_next\000"
 4675      65787400 
 4676              	.LASF15:
 4677 0b10 75696E74 		.ascii	"uint64_t\000"
 4677      36345F74 
 4677      00
 4678              	.LASF254:
 4679 0b19 6E657469 		.ascii	"netif_add\000"
 4679      665F6164 
 4679      6400
 4680              	.LASF278:
 4681 0b23 6E657469 		.ascii	"netif_init\000"
 4681      665F696E 
 4681      697400
 4682              	.LASF80:
 4683 0b2e 63685F73 		.ascii	"ch_system_t\000"
 4683      79737465 
 4683      6D5F7400 
 4684              	.LASF258:
 4685 0b3a 6C706362 		.ascii	"lpcb\000"
 4685      00
 4686              	.LASF116:
 4687 0b3f 77747472 		.ascii	"wttrp\000"
 4687      7000
 4688              	.LASF264:
 4689 0b45 6E657469 		.ascii	"netif_set_link_up\000"
 4689      665F7365 
 4689      745F6C69 
 4689      6E6B5F75 
 4689      7000
 4690              	.LASF198:
 4691 0b57 72656376 		.ascii	"recv\000"
 4691      00
 4692              	.LASF100:
 4693 0b5c 63685F74 		.ascii	"ch_trace_buffer_t\000"
 4693      72616365 
 4693      5F627566 
 4693      6665725F 
 4693      7400
 4694              	.LASF126:
 4695 0b6e 6D5F6E65 		.ascii	"m_next\000"
 4695      787400
 4696              	.LASF3:
 4697 0b75 7369676E 		.ascii	"signed char\000"
 4697      65642063 
 4697      68617200 
 4698              	.LASF159:
 4699 0b81 7463705F 		.ascii	"tcp_pcb\000"
ARM GAS  C:\Users\Luis\AppData\Local\Temp\ccRnH3nf.s 			page 93


 4699      70636200 
 4700              	.LASF9:
 4701 0b89 73686F72 		.ascii	"short unsigned int\000"
 4701      7420756E 
 4701      7369676E 
 4701      65642069 
 4701      6E7400
 4702              	.LASF59:
 4703 0b9c 725F6374 		.ascii	"r_ctx\000"
 4703      7800
 4704              	.LASF48:
 4705 0ba2 746C7350 		.ascii	"tlsPtr\000"
 4705      747200
 4706              	.LASF41:
 4707 0ba9 705F6D73 		.ascii	"p_msgqueue\000"
 4707      67717565 
 4707      756500
 4708              	.LASF203:
 4709 0bb4 70657273 		.ascii	"persist_cnt\000"
 4709      6973745F 
 4709      636E7400 
 4710              	.LASF161:
 4711 0bc0 72656D6F 		.ascii	"remote_ip\000"
 4711      74655F69 
 4711      7000
 4712              	.LASF69:
 4713 0bca 76745F66 		.ascii	"vt_func\000"
 4713      756E6300 
 4714              	.LASF67:
 4715 0bd2 76745F70 		.ascii	"vt_prev\000"
 4715      72657600 
 4716              	.LASF137:
 4717 0bda 69705F61 		.ascii	"ip_addr_t\000"
 4717      6464725F 
 4717      7400
 4718              	.LASF271:
 4719 0be4 7463705F 		.ascii	"tcp_active_pcbs\000"
 4719      61637469 
 4719      76655F70 
 4719      63627300 
 4720              	.LASF178:
 4721 0bf4 6E727478 		.ascii	"nrtx\000"
 4721      00
 4722              	.LASF191:
 4723 0bf9 736E645F 		.ascii	"snd_queuelen\000"
 4723      71756575 
 4723      656C656E 
 4723      00
 4724              	.LASF150:
 4725 0c06 6C696E6B 		.ascii	"linkoutput\000"
 4725      6F757470 
 4725      757400
 4726              	.LASF226:
 4727 0c11 64657374 		.ascii	"dest\000"
 4727      00
 4728              	.LASF114:
 4729 0c16 65786974 		.ascii	"exitcode\000"
ARM GAS  C:\Users\Luis\AppData\Local\Temp\ccRnH3nf.s 			page 94


 4729      636F6465 
 4729      00
 4730              	.LASF214:
 4731 0c1f 53594E5F 		.ascii	"SYN_RCVD\000"
 4731      52435644 
 4731      00
 4732              	.LASF135:
 4733 0c28 69705F61 		.ascii	"ip_addr\000"
 4733      64647200 
 4734              	.LASF233:
 4735 0c30 70636273 		.ascii	"pcbs\000"
 4735      00
 4736              		.ident	"GCC: (GNU Tools for ARM Embedded Processors) 4.8.3 20131129 (release) [ARM/embedded-4_8-br
ARM GAS  C:\Users\Luis\AppData\Local\Temp\ccRnH3nf.s 			page 95


DEFINED SYMBOLS
                            *ABS*:00000000 netif.c
C:\Users\Luis\AppData\Local\Temp\ccRnH3nf.s:19     .text.osalSysHalt:00000000 $t
C:\Users\Luis\AppData\Local\Temp\ccRnH3nf.s:24     .text.osalSysHalt:00000000 osalSysHalt
C:\Users\Luis\AppData\Local\Temp\ccRnH3nf.s:56     .bss.netif_list:00000000 netif_list
C:\Users\Luis\AppData\Local\Temp\ccRnH3nf.s:53     .bss.netif_list:00000000 $d
C:\Users\Luis\AppData\Local\Temp\ccRnH3nf.s:63     .bss.netif_default:00000000 netif_default
C:\Users\Luis\AppData\Local\Temp\ccRnH3nf.s:60     .bss.netif_default:00000000 $d
C:\Users\Luis\AppData\Local\Temp\ccRnH3nf.s:68     .bss.netif_num:00000000 netif_num
C:\Users\Luis\AppData\Local\Temp\ccRnH3nf.s:69     .bss.netif_num:00000000 $d
C:\Users\Luis\AppData\Local\Temp\ccRnH3nf.s:71     .text.netif_init:00000000 $t
C:\Users\Luis\AppData\Local\Temp\ccRnH3nf.s:77     .text.netif_init:00000000 netif_init
C:\Users\Luis\AppData\Local\Temp\ccRnH3nf.s:99     .rodata:00000000 $d
C:\Users\Luis\AppData\Local\Temp\ccRnH3nf.s:103    .text.netif_add:00000000 $t
C:\Users\Luis\AppData\Local\Temp\ccRnH3nf.s:109    .text.netif_add:00000000 netif_add
C:\Users\Luis\AppData\Local\Temp\ccRnH3nf.s:219    .text.netif_set_addr:00000000 netif_set_addr
C:\Users\Luis\AppData\Local\Temp\ccRnH3nf.s:206    .text.netif_add:00000088 $d
C:\Users\Luis\AppData\Local\Temp\ccRnH3nf.s:213    .text.netif_set_addr:00000000 $t
C:\Users\Luis\AppData\Local\Temp\ccRnH3nf.s:473    .text.netif_set_ipaddr:00000000 netif_set_ipaddr
C:\Users\Luis\AppData\Local\Temp\ccRnH3nf.s:668    .text.netif_set_netmask:00000000 netif_set_netmask
C:\Users\Luis\AppData\Local\Temp\ccRnH3nf.s:621    .text.netif_set_gw:00000000 netif_set_gw
C:\Users\Luis\AppData\Local\Temp\ccRnH3nf.s:258    .text.netif_remove:00000000 $t
C:\Users\Luis\AppData\Local\Temp\ccRnH3nf.s:264    .text.netif_remove:00000000 netif_remove
C:\Users\Luis\AppData\Local\Temp\ccRnH3nf.s:816    .text.netif_set_down:00000000 netif_set_down
C:\Users\Luis\AppData\Local\Temp\ccRnH3nf.s:715    .text.netif_set_default:00000000 netif_set_default
C:\Users\Luis\AppData\Local\Temp\ccRnH3nf.s:366    .text.netif_remove:00000080 $d
C:\Users\Luis\AppData\Local\Temp\ccRnH3nf.s:372    .text.netif_find:00000000 $t
C:\Users\Luis\AppData\Local\Temp\ccRnH3nf.s:378    .text.netif_find:00000000 netif_find
C:\Users\Luis\AppData\Local\Temp\ccRnH3nf.s:462    .text.netif_find:0000006c $d
C:\Users\Luis\AppData\Local\Temp\ccRnH3nf.s:467    .text.netif_set_ipaddr:00000000 $t
C:\Users\Luis\AppData\Local\Temp\ccRnH3nf.s:609    .text.netif_set_ipaddr:000000a8 $d
C:\Users\Luis\AppData\Local\Temp\ccRnH3nf.s:615    .text.netif_set_gw:00000000 $t
C:\Users\Luis\AppData\Local\Temp\ccRnH3nf.s:662    .text.netif_set_netmask:00000000 $t
C:\Users\Luis\AppData\Local\Temp\ccRnH3nf.s:709    .text.netif_set_default:00000000 $t
C:\Users\Luis\AppData\Local\Temp\ccRnH3nf.s:743    .text.netif_set_default:00000018 $d
C:\Users\Luis\AppData\Local\Temp\ccRnH3nf.s:748    .text.netif_set_up:00000000 $t
C:\Users\Luis\AppData\Local\Temp\ccRnH3nf.s:754    .text.netif_set_up:00000000 netif_set_up
C:\Users\Luis\AppData\Local\Temp\ccRnH3nf.s:810    .text.netif_set_down:00000000 $t
C:\Users\Luis\AppData\Local\Temp\ccRnH3nf.s:863    .text.netif_set_link_up:00000000 $t
C:\Users\Luis\AppData\Local\Temp\ccRnH3nf.s:869    .text.netif_set_link_up:00000000 netif_set_link_up
C:\Users\Luis\AppData\Local\Temp\ccRnH3nf.s:925    .text.netif_set_link_down:00000000 $t
C:\Users\Luis\AppData\Local\Temp\ccRnH3nf.s:931    .text.netif_set_link_down:00000000 netif_set_link_down
                     .debug_frame:00000010 $d
C:\Users\Luis\AppData\Local\Temp\ccRnH3nf.s:212    .text.netif_add:00000094 $t
C:\Users\Luis\AppData\Local\Temp\ccRnH3nf.s:371    .text.netif_remove:00000088 $t
C:\Users\Luis\AppData\Local\Temp\ccRnH3nf.s:747    .text.netif_set_default:0000001c $t

UNDEFINED SYMBOLS
chSysHalt
tcp_abort
tcp_active_pcbs
tcp_listen_pcbs
etharp_request
etharp_cleanup_netif
