ARM GAS  C:\Users\Luis\AppData\Local\Temp\ccMDVwva.s 			page 1


   1              		.syntax unified
   2              		.cpu cortex-m4
   3              		.fpu softvfp
   4              		.eabi_attribute 20, 1
   5              		.eabi_attribute 21, 1
   6              		.eabi_attribute 23, 3
   7              		.eabi_attribute 24, 1
   8              		.eabi_attribute 25, 1
   9              		.eabi_attribute 26, 1
  10              		.eabi_attribute 30, 6
  11              		.eabi_attribute 34, 1
  12              		.eabi_attribute 18, 4
  13              		.thumb
  14              		.file	"pal.c"
  15              		.text
  16              	.Ltext0:
  17              		.cfi_sections	.debug_frame
  18              		.section	.text.palReadBus,"ax",%progbits
  19              		.align	2
  20              		.p2align 4,,15
  21              		.global	palReadBus
  22              		.thumb
  23              		.thumb_func
  24              		.type	palReadBus, %function
  25              	palReadBus:
  26              	.LFB260:
  27              		.file 1 "../../ChibiOS/os/hal/src/pal.c"
  28              		.loc 1 65 0
  29              		.cfi_startproc
  30              		@ args = 0, pretend = 0, frame = 8
  31              		@ frame_needed = 1, uses_anonymous_args = 0
  32 0000 80B5     		push	{r7, lr}
  33              		.cfi_def_cfa_offset 8
  34              		.cfi_offset 7, -8
  35              		.cfi_offset 14, -4
  36 0002 82B0     		sub	sp, sp, #8
  37              		.cfi_def_cfa_offset 16
  38 0004 00AF     		add	r7, sp, #0
  39              		.cfi_def_cfa_register 7
  40 0006 7860     		str	r0, [r7, #4]
  41              		.loc 1 67 0
  42 0008 7B68     		ldr	r3, [r7, #4]
  43 000a 002B     		cmp	r3, #0
  44 000c 03D0     		beq	.L2
  45              		.loc 1 67 0 is_stmt 0 discriminator 2
  46 000e 7B68     		ldr	r3, [r7, #4]
  47 0010 9B68     		ldr	r3, [r3, #8]
  48 0012 0F2B     		cmp	r3, #15
  49 0014 02D9     		bls	.L3
  50              	.L2:
  51              		.loc 1 67 0 discriminator 1
  52 0016 0848     		ldr	r0, .L5
  53 0018 FFF7FEFF 		bl	chSysHalt
  54              	.L3:
  55              		.loc 1 69 0 is_stmt 1
  56 001c 7B68     		ldr	r3, [r7, #4]
  57 001e 1B68     		ldr	r3, [r3]
ARM GAS  C:\Users\Luis\AppData\Local\Temp\ccMDVwva.s 			page 2


  58 0020 1A69     		ldr	r2, [r3, #16]
  59 0022 7B68     		ldr	r3, [r7, #4]
  60 0024 9B68     		ldr	r3, [r3, #8]
  61 0026 DA40     		lsrs	r2, r2, r3
  62 0028 7B68     		ldr	r3, [r7, #4]
  63 002a 5B68     		ldr	r3, [r3, #4]
  64 002c 1340     		ands	r3, r3, r2
  65              		.loc 1 70 0
  66 002e 1846     		mov	r0, r3
  67 0030 0837     		adds	r7, r7, #8
  68 0032 BD46     		mov	sp, r7
  69              		@ sp needed
  70 0034 80BD     		pop	{r7, pc}
  71              	.L6:
  72 0036 00BF     		.align	2
  73              	.L5:
  74 0038 00000000 		.word	__func__.7906
  75              		.cfi_endproc
  76              	.LFE260:
  77              		.size	palReadBus, .-palReadBus
  78 003c AFF30080 		.section	.text.palWriteBus,"ax",%progbits
  79              		.align	2
  80              		.p2align 4,,15
  81              		.global	palWriteBus
  82              		.thumb
  83              		.thumb_func
  84              		.type	palWriteBus, %function
  85              	palWriteBus:
  86              	.LFB261:
  87              		.loc 1 90 0
  88              		.cfi_startproc
  89              		@ args = 0, pretend = 0, frame = 8
  90              		@ frame_needed = 1, uses_anonymous_args = 0
  91 0000 80B5     		push	{r7, lr}
  92              		.cfi_def_cfa_offset 8
  93              		.cfi_offset 7, -8
  94              		.cfi_offset 14, -4
  95 0002 82B0     		sub	sp, sp, #8
  96              		.cfi_def_cfa_offset 16
  97 0004 00AF     		add	r7, sp, #0
  98              		.cfi_def_cfa_register 7
  99 0006 7860     		str	r0, [r7, #4]
 100 0008 3960     		str	r1, [r7]
 101              		.loc 1 92 0
 102 000a 7B68     		ldr	r3, [r7, #4]
 103 000c 002B     		cmp	r3, #0
 104 000e 03D0     		beq	.L8
 105              		.loc 1 92 0 is_stmt 0 discriminator 2
 106 0010 7B68     		ldr	r3, [r7, #4]
 107 0012 9B68     		ldr	r3, [r3, #8]
 108 0014 0F2B     		cmp	r3, #15
 109 0016 02D9     		bls	.L9
 110              	.L8:
 111              		.loc 1 92 0 discriminator 1
 112 0018 0D48     		ldr	r0, .L10
 113 001a FFF7FEFF 		bl	chSysHalt
 114              	.L9:
ARM GAS  C:\Users\Luis\AppData\Local\Temp\ccMDVwva.s 			page 3


 115              		.loc 1 94 0 is_stmt 1
 116 001e 7B68     		ldr	r3, [r7, #4]
 117 0020 1B68     		ldr	r3, [r3]
 118 0022 3A68     		ldr	r2, [r7]
 119 0024 D143     		mvns	r1, r2
 120 0026 7A68     		ldr	r2, [r7, #4]
 121 0028 5268     		ldr	r2, [r2, #4]
 122 002a 1140     		ands	r1, r1, r2
 123 002c 7A68     		ldr	r2, [r7, #4]
 124 002e 9268     		ldr	r2, [r2, #8]
 125 0030 1032     		adds	r2, r2, #16
 126 0032 9140     		lsls	r1, r1, r2
 127 0034 7A68     		ldr	r2, [r7, #4]
 128 0036 5068     		ldr	r0, [r2, #4]
 129 0038 3A68     		ldr	r2, [r7]
 130 003a 1040     		ands	r0, r0, r2
 131 003c 7A68     		ldr	r2, [r7, #4]
 132 003e 9268     		ldr	r2, [r2, #8]
 133 0040 00FA02F2 		lsl	r2, r0, r2
 134 0044 0A43     		orrs	r2, r2, r1
 135 0046 9A61     		str	r2, [r3, #24]
 136              		.loc 1 95 0
 137 0048 0837     		adds	r7, r7, #8
 138 004a BD46     		mov	sp, r7
 139              		@ sp needed
 140 004c 80BD     		pop	{r7, pc}
 141              	.L11:
 142 004e 00BF     		.align	2
 143              	.L10:
 144 0050 00000000 		.word	__func__.7911
 145              		.cfi_endproc
 146              	.LFE261:
 147              		.size	palWriteBus, .-palWriteBus
 148 0054 AFF30080 		.section	.text.palSetBusMode,"ax",%progbits
 148      AFF30080 
 148      AFF30080 
 149              		.align	2
 150              		.p2align 4,,15
 151              		.global	palSetBusMode
 152              		.thumb
 153              		.thumb_func
 154              		.type	palSetBusMode, %function
 155              	palSetBusMode:
 156              	.LFB262:
 157              		.loc 1 113 0
 158              		.cfi_startproc
 159              		@ args = 0, pretend = 0, frame = 8
 160              		@ frame_needed = 1, uses_anonymous_args = 0
 161 0000 80B5     		push	{r7, lr}
 162              		.cfi_def_cfa_offset 8
 163              		.cfi_offset 7, -8
 164              		.cfi_offset 14, -4
 165 0002 82B0     		sub	sp, sp, #8
 166              		.cfi_def_cfa_offset 16
 167 0004 00AF     		add	r7, sp, #0
 168              		.cfi_def_cfa_register 7
 169 0006 7860     		str	r0, [r7, #4]
ARM GAS  C:\Users\Luis\AppData\Local\Temp\ccMDVwva.s 			page 4


 170 0008 3960     		str	r1, [r7]
 171              		.loc 1 115 0
 172 000a 7B68     		ldr	r3, [r7, #4]
 173 000c 002B     		cmp	r3, #0
 174 000e 03D0     		beq	.L13
 175              		.loc 1 115 0 is_stmt 0 discriminator 2
 176 0010 7B68     		ldr	r3, [r7, #4]
 177 0012 9B68     		ldr	r3, [r3, #8]
 178 0014 0F2B     		cmp	r3, #15
 179 0016 02D9     		bls	.L14
 180              	.L13:
 181              		.loc 1 115 0 discriminator 1
 182 0018 0948     		ldr	r0, .L15
 183 001a FFF7FEFF 		bl	chSysHalt
 184              	.L14:
 185              		.loc 1 117 0 is_stmt 1
 186 001e 7B68     		ldr	r3, [r7, #4]
 187 0020 1A68     		ldr	r2, [r3]
 188 0022 7B68     		ldr	r3, [r7, #4]
 189 0024 5968     		ldr	r1, [r3, #4]
 190 0026 7B68     		ldr	r3, [r7, #4]
 191 0028 9B68     		ldr	r3, [r3, #8]
 192 002a 01FA03F3 		lsl	r3, r1, r3
 193 002e 1046     		mov	r0, r2
 194 0030 1946     		mov	r1, r3
 195 0032 3A68     		ldr	r2, [r7]
 196 0034 FFF7FEFF 		bl	_pal_lld_setgroupmode
 197              		.loc 1 118 0
 198 0038 0837     		adds	r7, r7, #8
 199 003a BD46     		mov	sp, r7
 200              		@ sp needed
 201 003c 80BD     		pop	{r7, pc}
 202              	.L16:
 203 003e 00BF     		.align	2
 204              	.L15:
 205 0040 00000000 		.word	__func__.7916
 206              		.cfi_endproc
 207              	.LFE262:
 208              		.size	palSetBusMode, .-palSetBusMode
 209 0044 AFF30080 		.section	.rodata.__func__.7906,"a",%progbits
 209      AFF30080 
 209      AFF30080 
 210              		.align	2
 211              		.type	__func__.7906, %object
 212              		.size	__func__.7906, 11
 213              	__func__.7906:
 214 0000 70616C52 		.ascii	"palReadBus\000"
 214      65616442 
 214      757300
 215 000b 00       		.section	.rodata.__func__.7911,"a",%progbits
 216              		.align	2
 217              		.type	__func__.7911, %object
 218              		.size	__func__.7911, 12
 219              	__func__.7911:
 220 0000 70616C57 		.ascii	"palWriteBus\000"
 220      72697465 
 220      42757300 
ARM GAS  C:\Users\Luis\AppData\Local\Temp\ccMDVwva.s 			page 5


 221              		.section	.rodata.__func__.7916,"a",%progbits
 222              		.align	2
 223              		.type	__func__.7916, %object
 224              		.size	__func__.7916, 14
 225              	__func__.7916:
 226 0000 70616C53 		.ascii	"palSetBusMode\000"
 226      65744275 
 226      734D6F64 
 226      6500
 227 000e 0000     		.text
 228              	.Letext0:
 229              		.file 2 "c:\\emtechesdk\\gcc\\arm-none-eabi\\include\\stdint.h"
 230              		.file 3 "../../ChibiOS/os/rt/ports/ARMCMx/compilers/GCC/chtypes.h"
 231              		.file 4 "../../ChibiOS/os/rt/include/chsystypes.h"
 232              		.file 5 "../../ChibiOS/os/rt/include/chschd.h"
 233              		.file 6 "../../ChibiOS/os/rt/ports/ARMCMx/chcore.h"
 234              		.file 7 "../../ChibiOS/os/rt/ports/ARMCMx/chcore_v7m.h"
 235              		.file 8 "../../ChibiOS/os/rt/include/chdebug.h"
 236              		.file 9 "../../ChibiOS/os/rt/include/chtm.h"
 237              		.file 10 "../../ChibiOS/os/rt/include/chstats.h"
 238              		.file 11 "../../ChibiOS/os/rt/include/chsem.h"
 239              		.file 12 "../../ChibiOS/os/rt/include/chmtx.h"
 240              		.file 13 "../../ChibiOS/os/hal/ports/STM32/LLD/GPIOv2/pal_lld.h"
 241              		.file 14 "../../ChibiOS/os/hal/include/pal.h"
 242              		.file 15 "../../ChibiOS/os/ext/CMSIS/include/core_cm4.h"
 243              		.section	.debug_info,"",%progbits
 244              	.Ldebug_info0:
 245 0000 FE090000 		.4byte	0x9fe
 246 0004 0400     		.2byte	0x4
 247 0006 00000000 		.4byte	.Ldebug_abbrev0
 248 000a 04       		.byte	0x4
 249 000b 01       		.uleb128 0x1
 250 000c 1F050000 		.4byte	.LASF150
 251 0010 01       		.byte	0x1
 252 0011 A6010000 		.4byte	.LASF151
 253 0015 CD010000 		.4byte	.LASF152
 254 0019 00000000 		.4byte	.Ldebug_ranges0+0
 255 001d 00000000 		.4byte	0
 256 0021 00000000 		.4byte	.Ldebug_line0
 257 0025 02       		.uleb128 0x2
 258 0026 04       		.byte	0x4
 259 0027 05       		.byte	0x5
 260 0028 696E7400 		.ascii	"int\000"
 261 002c 03       		.uleb128 0x3
 262 002d 04       		.byte	0x4
 263 002e 07       		.byte	0x7
 264 002f 55020000 		.4byte	.LASF0
 265 0033 03       		.uleb128 0x3
 266 0034 01       		.byte	0x1
 267 0035 06       		.byte	0x6
 268 0036 2B010000 		.4byte	.LASF1
 269 003a 04       		.uleb128 0x4
 270 003b 91060000 		.4byte	.LASF4
 271 003f 02       		.byte	0x2
 272 0040 2A       		.byte	0x2a
 273 0041 45000000 		.4byte	0x45
 274 0045 03       		.uleb128 0x3
ARM GAS  C:\Users\Luis\AppData\Local\Temp\ccMDVwva.s 			page 6


 275 0046 01       		.byte	0x1
 276 0047 08       		.byte	0x8
 277 0048 26040000 		.4byte	.LASF2
 278 004c 03       		.uleb128 0x3
 279 004d 02       		.byte	0x2
 280 004e 05       		.byte	0x5
 281 004f 3E040000 		.4byte	.LASF3
 282 0053 04       		.uleb128 0x4
 283 0054 70010000 		.4byte	.LASF5
 284 0058 02       		.byte	0x2
 285 0059 36       		.byte	0x36
 286 005a 5E000000 		.4byte	0x5e
 287 005e 03       		.uleb128 0x3
 288 005f 02       		.byte	0x2
 289 0060 07       		.byte	0x7
 290 0061 94020000 		.4byte	.LASF6
 291 0065 04       		.uleb128 0x4
 292 0066 1E040000 		.4byte	.LASF7
 293 006a 02       		.byte	0x2
 294 006b 4F       		.byte	0x4f
 295 006c 70000000 		.4byte	0x70
 296 0070 03       		.uleb128 0x3
 297 0071 04       		.byte	0x4
 298 0072 05       		.byte	0x5
 299 0073 58010000 		.4byte	.LASF8
 300 0077 04       		.uleb128 0x4
 301 0078 BE040000 		.4byte	.LASF9
 302 007c 02       		.byte	0x2
 303 007d 50       		.byte	0x50
 304 007e 82000000 		.4byte	0x82
 305 0082 03       		.uleb128 0x3
 306 0083 04       		.byte	0x4
 307 0084 07       		.byte	0x7
 308 0085 F1040000 		.4byte	.LASF10
 309 0089 03       		.uleb128 0x3
 310 008a 08       		.byte	0x8
 311 008b 05       		.byte	0x5
 312 008c 1D010000 		.4byte	.LASF11
 313 0090 04       		.uleb128 0x4
 314 0091 29000000 		.4byte	.LASF12
 315 0095 02       		.byte	0x2
 316 0096 78       		.byte	0x78
 317 0097 9B000000 		.4byte	0x9b
 318 009b 03       		.uleb128 0x3
 319 009c 08       		.byte	0x8
 320 009d 07       		.byte	0x7
 321 009e 9E000000 		.4byte	.LASF13
 322 00a2 04       		.uleb128 0x4
 323 00a3 65040000 		.4byte	.LASF14
 324 00a7 02       		.byte	0x2
 325 00a8 A0       		.byte	0xa0
 326 00a9 2C000000 		.4byte	0x2c
 327 00ad 05       		.uleb128 0x5
 328 00ae 65000000 		.4byte	0x65
 329 00b2 05       		.uleb128 0x5
 330 00b3 77000000 		.4byte	0x77
 331 00b7 04       		.uleb128 0x4
ARM GAS  C:\Users\Luis\AppData\Local\Temp\ccMDVwva.s 			page 7


 332 00b8 3F060000 		.4byte	.LASF15
 333 00bc 03       		.byte	0x3
 334 00bd 45       		.byte	0x45
 335 00be 77000000 		.4byte	0x77
 336 00c2 04       		.uleb128 0x4
 337 00c3 0D010000 		.4byte	.LASF16
 338 00c7 03       		.byte	0x3
 339 00c8 46       		.byte	0x46
 340 00c9 90000000 		.4byte	0x90
 341 00cd 04       		.uleb128 0x4
 342 00ce DE020000 		.4byte	.LASF17
 343 00d2 03       		.byte	0x3
 344 00d3 48       		.byte	0x48
 345 00d4 3A000000 		.4byte	0x3a
 346 00d8 04       		.uleb128 0x4
 347 00d9 61010000 		.4byte	.LASF18
 348 00dd 03       		.byte	0x3
 349 00de 49       		.byte	0x49
 350 00df 3A000000 		.4byte	0x3a
 351 00e3 04       		.uleb128 0x4
 352 00e4 DE030000 		.4byte	.LASF19
 353 00e8 03       		.byte	0x3
 354 00e9 4A       		.byte	0x4a
 355 00ea 3A000000 		.4byte	0x3a
 356 00ee 04       		.uleb128 0x4
 357 00ef 07040000 		.4byte	.LASF20
 358 00f3 03       		.byte	0x3
 359 00f4 4C       		.byte	0x4c
 360 00f5 77000000 		.4byte	0x77
 361 00f9 04       		.uleb128 0x4
 362 00fa C0020000 		.4byte	.LASF21
 363 00fe 03       		.byte	0x3
 364 00ff 4D       		.byte	0x4d
 365 0100 65000000 		.4byte	0x65
 366 0104 04       		.uleb128 0x4
 367 0105 FF020000 		.4byte	.LASF22
 368 0109 03       		.byte	0x3
 369 010a 4F       		.byte	0x4f
 370 010b 77000000 		.4byte	0x77
 371 010f 04       		.uleb128 0x4
 372 0110 44020000 		.4byte	.LASF23
 373 0114 03       		.byte	0x3
 374 0115 51       		.byte	0x51
 375 0116 65000000 		.4byte	0x65
 376 011a 04       		.uleb128 0x4
 377 011b CB020000 		.4byte	.LASF24
 378 011f 03       		.byte	0x3
 379 0120 52       		.byte	0x52
 380 0121 77000000 		.4byte	0x77
 381 0125 04       		.uleb128 0x4
 382 0126 FD050000 		.4byte	.LASF25
 383 012a 04       		.byte	0x4
 384 012b 33       		.byte	0x33
 385 012c 77000000 		.4byte	0x77
 386 0130 04       		.uleb128 0x4
 387 0131 82060000 		.4byte	.LASF26
 388 0135 04       		.byte	0x4
ARM GAS  C:\Users\Luis\AppData\Local\Temp\ccMDVwva.s 			page 8


 389 0136 3F       		.byte	0x3f
 390 0137 3B010000 		.4byte	0x13b
 391 013b 06       		.uleb128 0x6
 392 013c B6020000 		.4byte	.LASF49
 393 0140 68       		.byte	0x68
 394 0141 05       		.byte	0x5
 395 0142 C2       		.byte	0xc2
 396 0143 4E020000 		.4byte	0x24e
 397 0147 07       		.uleb128 0x7
 398 0148 5E040000 		.4byte	.LASF27
 399 014c 05       		.byte	0x5
 400 014d C3       		.byte	0xc3
 401 014e 59020000 		.4byte	0x259
 402 0152 00       		.byte	0
 403 0153 07       		.uleb128 0x7
 404 0154 00040000 		.4byte	.LASF28
 405 0158 05       		.byte	0x5
 406 0159 C5       		.byte	0xc5
 407 015a 59020000 		.4byte	0x259
 408 015e 04       		.byte	0x4
 409 015f 07       		.uleb128 0x7
 410 0160 16010000 		.4byte	.LASF29
 411 0164 05       		.byte	0x5
 412 0165 C7       		.byte	0xc7
 413 0166 EE000000 		.4byte	0xee
 414 016a 08       		.byte	0x8
 415 016b 07       		.uleb128 0x7
 416 016c EF060000 		.4byte	.LASF30
 417 0170 05       		.byte	0x5
 418 0171 C8       		.byte	0xc8
 419 0172 C2040000 		.4byte	0x4c2
 420 0176 0C       		.byte	0xc
 421 0177 07       		.uleb128 0x7
 422 0178 79010000 		.4byte	.LASF31
 423 017c 05       		.byte	0x5
 424 017d CA       		.byte	0xca
 425 017e 59020000 		.4byte	0x259
 426 0182 10       		.byte	0x10
 427 0183 07       		.uleb128 0x7
 428 0184 83030000 		.4byte	.LASF32
 429 0188 05       		.byte	0x5
 430 0189 CB       		.byte	0xcb
 431 018a 59020000 		.4byte	0x259
 432 018e 14       		.byte	0x14
 433 018f 07       		.uleb128 0x7
 434 0190 A0060000 		.4byte	.LASF33
 435 0194 05       		.byte	0x5
 436 0195 D2       		.byte	0xd2
 437 0196 66070000 		.4byte	0x766
 438 019a 18       		.byte	0x18
 439 019b 07       		.uleb128 0x7
 440 019c 4A020000 		.4byte	.LASF34
 441 01a0 05       		.byte	0x5
 442 01a1 D8       		.byte	0xd8
 443 01a2 78070000 		.4byte	0x778
 444 01a6 1C       		.byte	0x1c
 445 01a7 07       		.uleb128 0x7
ARM GAS  C:\Users\Luis\AppData\Local\Temp\ccMDVwva.s 			page 9


 446 01a8 48040000 		.4byte	.LASF35
 447 01ac 05       		.byte	0x5
 448 01ad DD       		.byte	0xdd
 449 01ae D8000000 		.4byte	0xd8
 450 01b2 20       		.byte	0x20
 451 01b3 07       		.uleb128 0x7
 452 01b4 72040000 		.4byte	.LASF36
 453 01b8 05       		.byte	0x5
 454 01b9 E1       		.byte	0xe1
 455 01ba CD000000 		.4byte	0xcd
 456 01be 21       		.byte	0x21
 457 01bf 07       		.uleb128 0x7
 458 01c0 73060000 		.4byte	.LASF37
 459 01c4 05       		.byte	0x5
 460 01c5 E6       		.byte	0xe6
 461 01c6 E3000000 		.4byte	0xe3
 462 01ca 22       		.byte	0x22
 463 01cb 08       		.uleb128 0x8
 464 01cc 705F7500 		.ascii	"p_u\000"
 465 01d0 05       		.byte	0x5
 466 01d1 3101     		.2byte	0x131
 467 01d3 A1060000 		.4byte	0x6a1
 468 01d7 24       		.byte	0x24
 469 01d8 09       		.uleb128 0x9
 470 01d9 25030000 		.4byte	.LASF38
 471 01dd 05       		.byte	0x5
 472 01de 3601     		.2byte	0x136
 473 01e0 5F020000 		.4byte	0x25f
 474 01e4 28       		.byte	0x28
 475 01e5 09       		.uleb128 0x9
 476 01e6 71020000 		.4byte	.LASF39
 477 01ea 05       		.byte	0x5
 478 01eb 3C01     		.2byte	0x13c
 479 01ed 83020000 		.4byte	0x283
 480 01f1 2C       		.byte	0x2c
 481 01f2 09       		.uleb128 0x9
 482 01f3 C3060000 		.4byte	.LASF40
 483 01f7 05       		.byte	0x5
 484 01f8 4001     		.2byte	0x140
 485 01fa F9000000 		.4byte	0xf9
 486 01fe 34       		.byte	0x34
 487 01ff 09       		.uleb128 0x9
 488 0200 B3040000 		.4byte	.LASF41
 489 0204 05       		.byte	0x5
 490 0205 4601     		.2byte	0x146
 491 0207 04010000 		.4byte	0x104
 492 020b 38       		.byte	0x38
 493 020c 09       		.uleb128 0x9
 494 020d 34040000 		.4byte	.LASF42
 495 0211 05       		.byte	0x5
 496 0212 4D01     		.2byte	0x14d
 497 0214 60070000 		.4byte	0x760
 498 0218 3C       		.byte	0x3c
 499 0219 09       		.uleb128 0x9
 500 021a 07060000 		.4byte	.LASF43
 501 021e 05       		.byte	0x5
 502 021f 5101     		.2byte	0x151
ARM GAS  C:\Users\Luis\AppData\Local\Temp\ccMDVwva.s 			page 10


 503 0221 EE000000 		.4byte	0xee
 504 0225 40       		.byte	0x40
 505 0226 09       		.uleb128 0x9
 506 0227 3C010000 		.4byte	.LASF44
 507 022b 05       		.byte	0x5
 508 022c 5801     		.2byte	0x158
 509 022e 36030000 		.4byte	0x336
 510 0232 44       		.byte	0x44
 511 0233 09       		.uleb128 0x9
 512 0234 83040000 		.4byte	.LASF45
 513 0238 05       		.byte	0x5
 514 0239 5E01     		.2byte	0x15e
 515 023b 52060000 		.4byte	0x652
 516 023f 48       		.byte	0x48
 517 0240 09       		.uleb128 0x9
 518 0241 7C020000 		.4byte	.LASF46
 519 0245 05       		.byte	0x5
 520 0246 6201     		.2byte	0x162
 521 0248 36030000 		.4byte	0x336
 522 024c 60       		.byte	0x60
 523 024d 00       		.byte	0
 524 024e 04       		.uleb128 0x4
 525 024f 38030000 		.4byte	.LASF47
 526 0253 04       		.byte	0x4
 527 0254 44       		.byte	0x44
 528 0255 59020000 		.4byte	0x259
 529 0259 0A       		.uleb128 0xa
 530 025a 04       		.byte	0x4
 531 025b 30010000 		.4byte	0x130
 532 025f 04       		.uleb128 0x4
 533 0260 A7060000 		.4byte	.LASF48
 534 0264 04       		.byte	0x4
 535 0265 49       		.byte	0x49
 536 0266 6A020000 		.4byte	0x26a
 537 026a 06       		.uleb128 0x6
 538 026b E1040000 		.4byte	.LASF50
 539 026f 04       		.byte	0x4
 540 0270 05       		.byte	0x5
 541 0271 B0       		.byte	0xb0
 542 0272 83020000 		.4byte	0x283
 543 0276 07       		.uleb128 0x7
 544 0277 5E040000 		.4byte	.LASF27
 545 027b 05       		.byte	0x5
 546 027c B1       		.byte	0xb1
 547 027d 59020000 		.4byte	0x259
 548 0281 00       		.byte	0
 549 0282 00       		.byte	0
 550 0283 04       		.uleb128 0x4
 551 0284 5A060000 		.4byte	.LASF51
 552 0288 04       		.byte	0x4
 553 0289 50       		.byte	0x50
 554 028a 8E020000 		.4byte	0x28e
 555 028e 06       		.uleb128 0x6
 556 028f 52000000 		.4byte	.LASF52
 557 0293 08       		.byte	0x8
 558 0294 05       		.byte	0x5
 559 0295 B7       		.byte	0xb7
ARM GAS  C:\Users\Luis\AppData\Local\Temp\ccMDVwva.s 			page 11


 560 0296 B3020000 		.4byte	0x2b3
 561 029a 07       		.uleb128 0x7
 562 029b 5E040000 		.4byte	.LASF27
 563 029f 05       		.byte	0x5
 564 02a0 B8       		.byte	0xb8
 565 02a1 59020000 		.4byte	0x259
 566 02a5 00       		.byte	0
 567 02a6 07       		.uleb128 0x7
 568 02a7 00040000 		.4byte	.LASF28
 569 02ab 05       		.byte	0x5
 570 02ac B9       		.byte	0xb9
 571 02ad 59020000 		.4byte	0x259
 572 02b1 04       		.byte	0x4
 573 02b2 00       		.byte	0
 574 02b3 04       		.uleb128 0x4
 575 02b4 07000000 		.4byte	.LASF53
 576 02b8 04       		.byte	0x4
 577 02b9 57       		.byte	0x57
 578 02ba BE020000 		.4byte	0x2be
 579 02be 0B       		.uleb128 0xb
 580 02bf F1020000 		.4byte	.LASF54
 581 02c3 1C       		.byte	0x1c
 582 02c4 05       		.byte	0x5
 583 02c5 9001     		.2byte	0x190
 584 02c7 1A030000 		.4byte	0x31a
 585 02cb 09       		.uleb128 0x9
 586 02cc D0040000 		.4byte	.LASF55
 587 02d0 05       		.byte	0x5
 588 02d1 9101     		.2byte	0x191
 589 02d3 83020000 		.4byte	0x283
 590 02d7 00       		.byte	0
 591 02d8 09       		.uleb128 0x9
 592 02d9 50040000 		.4byte	.LASF56
 593 02dd 05       		.byte	0x5
 594 02de 9201     		.2byte	0x192
 595 02e0 EE000000 		.4byte	0xee
 596 02e4 08       		.byte	0x8
 597 02e5 09       		.uleb128 0x9
 598 02e6 8B030000 		.4byte	.LASF57
 599 02ea 05       		.byte	0x5
 600 02eb 9401     		.2byte	0x194
 601 02ed C2040000 		.4byte	0x4c2
 602 02f1 0C       		.byte	0xc
 603 02f2 09       		.uleb128 0x9
 604 02f3 99010000 		.4byte	.LASF58
 605 02f7 05       		.byte	0x5
 606 02f8 9701     		.2byte	0x197
 607 02fa 59020000 		.4byte	0x259
 608 02fe 10       		.byte	0x10
 609 02ff 09       		.uleb128 0x9
 610 0300 AC030000 		.4byte	.LASF59
 611 0304 05       		.byte	0x5
 612 0305 9801     		.2byte	0x198
 613 0307 59020000 		.4byte	0x259
 614 030b 14       		.byte	0x14
 615 030c 09       		.uleb128 0x9
 616 030d A2030000 		.4byte	.LASF60
ARM GAS  C:\Users\Luis\AppData\Local\Temp\ccMDVwva.s 			page 12


 617 0311 05       		.byte	0x5
 618 0312 9B01     		.2byte	0x19b
 619 0314 59020000 		.4byte	0x259
 620 0318 18       		.byte	0x18
 621 0319 00       		.byte	0
 622 031a 04       		.uleb128 0x4
 623 031b 12060000 		.4byte	.LASF61
 624 031f 04       		.byte	0x4
 625 0320 5C       		.byte	0x5c
 626 0321 25030000 		.4byte	0x325
 627 0325 0A       		.uleb128 0xa
 628 0326 04       		.byte	0x4
 629 0327 2B030000 		.4byte	0x32b
 630 032b 0C       		.uleb128 0xc
 631 032c 36030000 		.4byte	0x336
 632 0330 0D       		.uleb128 0xd
 633 0331 36030000 		.4byte	0x336
 634 0335 00       		.byte	0
 635 0336 0E       		.uleb128 0xe
 636 0337 04       		.byte	0x4
 637 0338 04       		.uleb128 0x4
 638 0339 F0030000 		.4byte	.LASF62
 639 033d 04       		.byte	0x4
 640 033e 61       		.byte	0x61
 641 033f 43030000 		.4byte	0x343
 642 0343 0B       		.uleb128 0xb
 643 0344 95040000 		.4byte	.LASF63
 644 0348 14       		.byte	0x14
 645 0349 05       		.byte	0x5
 646 034a 6B01     		.2byte	0x16b
 647 034c 92030000 		.4byte	0x392
 648 0350 09       		.uleb128 0x9
 649 0351 62020000 		.4byte	.LASF64
 650 0355 05       		.byte	0x5
 651 0356 6C01     		.2byte	0x16c
 652 0358 7E070000 		.4byte	0x77e
 653 035c 00       		.byte	0
 654 035d 09       		.uleb128 0x9
 655 035e C5010000 		.4byte	.LASF65
 656 0362 05       		.byte	0x5
 657 0363 6D01     		.2byte	0x16d
 658 0365 7E070000 		.4byte	0x77e
 659 0369 04       		.byte	0x4
 660 036a 09       		.uleb128 0x9
 661 036b D8040000 		.4byte	.LASF66
 662 036f 05       		.byte	0x5
 663 0370 6E01     		.2byte	0x16e
 664 0372 25010000 		.4byte	0x125
 665 0376 08       		.byte	0x8
 666 0377 09       		.uleb128 0x9
 667 0378 F5060000 		.4byte	.LASF67
 668 037c 05       		.byte	0x5
 669 037d 6F01     		.2byte	0x16f
 670 037f 1A030000 		.4byte	0x31a
 671 0383 0C       		.byte	0xc
 672 0384 09       		.uleb128 0x9
 673 0385 47060000 		.4byte	.LASF68
ARM GAS  C:\Users\Luis\AppData\Local\Temp\ccMDVwva.s 			page 13


 674 0389 05       		.byte	0x5
 675 038a 7101     		.2byte	0x171
 676 038c 36030000 		.4byte	0x336
 677 0390 10       		.byte	0x10
 678 0391 00       		.byte	0
 679 0392 04       		.uleb128 0x4
 680 0393 EA000000 		.4byte	.LASF69
 681 0397 04       		.byte	0x4
 682 0398 66       		.byte	0x66
 683 0399 9D030000 		.4byte	0x39d
 684 039d 0B       		.uleb128 0xb
 685 039e 4B030000 		.4byte	.LASF70
 686 03a2 10       		.byte	0x10
 687 03a3 05       		.byte	0x5
 688 03a4 7B01     		.2byte	0x17b
 689 03a6 DF030000 		.4byte	0x3df
 690 03aa 09       		.uleb128 0x9
 691 03ab 62020000 		.4byte	.LASF64
 692 03af 05       		.byte	0x5
 693 03b0 7C01     		.2byte	0x17c
 694 03b2 7E070000 		.4byte	0x77e
 695 03b6 00       		.byte	0
 696 03b7 09       		.uleb128 0x9
 697 03b8 C5010000 		.4byte	.LASF65
 698 03bc 05       		.byte	0x5
 699 03bd 7E01     		.2byte	0x17e
 700 03bf 7E070000 		.4byte	0x77e
 701 03c3 04       		.byte	0x4
 702 03c4 09       		.uleb128 0x9
 703 03c5 D8040000 		.4byte	.LASF66
 704 03c9 05       		.byte	0x5
 705 03ca 8001     		.2byte	0x180
 706 03cc 25010000 		.4byte	0x125
 707 03d0 08       		.byte	0x8
 708 03d1 09       		.uleb128 0x9
 709 03d2 77030000 		.4byte	.LASF71
 710 03d6 05       		.byte	0x5
 711 03d7 8801     		.2byte	0x188
 712 03d9 25010000 		.4byte	0x125
 713 03dd 0C       		.byte	0xc
 714 03de 00       		.byte	0
 715 03df 04       		.uleb128 0x4
 716 03e0 63000000 		.4byte	.LASF72
 717 03e4 04       		.byte	0x4
 718 03e5 6B       		.byte	0x6b
 719 03e6 EA030000 		.4byte	0x3ea
 720 03ea 0F       		.uleb128 0xf
 721 03eb 10020000 		.4byte	.LASF73
 722 03ef 1404     		.2byte	0x414
 723 03f1 05       		.byte	0x5
 724 03f2 A201     		.2byte	0x1a2
 725 03f4 2D040000 		.4byte	0x42d
 726 03f8 09       		.uleb128 0x9
 727 03f9 1B060000 		.4byte	.LASF74
 728 03fd 05       		.byte	0x5
 729 03fe AA01     		.2byte	0x1aa
 730 0400 84070000 		.4byte	0x784
ARM GAS  C:\Users\Luis\AppData\Local\Temp\ccMDVwva.s 			page 14


 731 0404 00       		.byte	0
 732 0405 09       		.uleb128 0x9
 733 0406 7A060000 		.4byte	.LASF75
 734 040a 05       		.byte	0x5
 735 040b AF01     		.2byte	0x1af
 736 040d 0F010000 		.4byte	0x10f
 737 0411 04       		.byte	0x4
 738 0412 09       		.uleb128 0x9
 739 0413 35020000 		.4byte	.LASF76
 740 0417 05       		.byte	0x5
 741 0418 B301     		.2byte	0x1b3
 742 041a 0F010000 		.4byte	0x10f
 743 041e 08       		.byte	0x8
 744 041f 09       		.uleb128 0x9
 745 0420 B6060000 		.4byte	.LASF77
 746 0424 05       		.byte	0x5
 747 0425 B901     		.2byte	0x1b9
 748 0427 E4050000 		.4byte	0x5e4
 749 042b 0C       		.byte	0xc
 750 042c 00       		.byte	0
 751 042d 04       		.uleb128 0x4
 752 042e D2020000 		.4byte	.LASF78
 753 0432 04       		.byte	0x4
 754 0433 70       		.byte	0x70
 755 0434 38040000 		.4byte	0x438
 756 0438 0F       		.uleb128 0xf
 757 0439 8B040000 		.4byte	.LASF79
 758 043d E805     		.2byte	0x5e8
 759 043f 05       		.byte	0x5
 760 0440 C201     		.2byte	0x1c2
 761 0442 A5040000 		.4byte	0x4a5
 762 0446 09       		.uleb128 0x9
 763 0447 8B060000 		.4byte	.LASF80
 764 044b 05       		.byte	0x5
 765 044c C601     		.2byte	0x1c6
 766 044e B3020000 		.4byte	0x2b3
 767 0452 00       		.byte	0
 768 0453 09       		.uleb128 0x9
 769 0454 4C010000 		.4byte	.LASF81
 770 0458 05       		.byte	0x5
 771 0459 CA01     		.2byte	0x1ca
 772 045b 92030000 		.4byte	0x392
 773 045f 1C       		.byte	0x1c
 774 0460 08       		.uleb128 0x8
 775 0461 64626700 		.ascii	"dbg\000"
 776 0465 05       		.byte	0x5
 777 0466 CE01     		.2byte	0x1ce
 778 0468 DF030000 		.4byte	0x3df
 779 046c 2C       		.byte	0x2c
 780 046d 10       		.uleb128 0x10
 781 046e DF000000 		.4byte	.LASF82
 782 0472 05       		.byte	0x5
 783 0473 D201     		.2byte	0x1d2
 784 0475 30010000 		.4byte	0x130
 785 0479 4004     		.2byte	0x440
 786 047b 11       		.uleb128 0x11
 787 047c 746D00   		.ascii	"tm\000"
ARM GAS  C:\Users\Luis\AppData\Local\Temp\ccMDVwva.s 			page 15


 788 047f 05       		.byte	0x5
 789 0480 D701     		.2byte	0x1d7
 790 0482 04060000 		.4byte	0x604
 791 0486 A804     		.2byte	0x4a8
 792 0488 10       		.uleb128 0x10
 793 0489 32000000 		.4byte	.LASF83
 794 048d 05       		.byte	0x5
 795 048e DD01     		.2byte	0x1dd
 796 0490 96060000 		.4byte	0x696
 797 0494 B004     		.2byte	0x4b0
 798 0496 10       		.uleb128 0x10
 799 0497 0B030000 		.4byte	.LASF84
 800 049b 05       		.byte	0x5
 801 049c E301     		.2byte	0x1e3
 802 049e 89070000 		.4byte	0x789
 803 04a2 E804     		.2byte	0x4e8
 804 04a4 00       		.byte	0
 805 04a5 03       		.uleb128 0x3
 806 04a6 04       		.byte	0x4
 807 04a7 07       		.byte	0x7
 808 04a8 2F030000 		.4byte	.LASF85
 809 04ac 04       		.uleb128 0x4
 810 04ad C7040000 		.4byte	.LASF86
 811 04b1 06       		.byte	0x6
 812 04b2 65       		.byte	0x65
 813 04b3 36030000 		.4byte	0x336
 814 04b7 04       		.uleb128 0x4
 815 04b8 1A030000 		.4byte	.LASF87
 816 04bc 06       		.byte	0x6
 817 04bd 6D       		.byte	0x6d
 818 04be 90000000 		.4byte	0x90
 819 04c2 06       		.uleb128 0x6
 820 04c3 37060000 		.4byte	.LASF88
 821 04c7 04       		.byte	0x4
 822 04c8 06       		.byte	0x6
 823 04c9 89       		.byte	0x89
 824 04ca DB040000 		.4byte	0x4db
 825 04ce 12       		.uleb128 0x12
 826 04cf 72313300 		.ascii	"r13\000"
 827 04d3 06       		.byte	0x6
 828 04d4 8A       		.byte	0x8a
 829 04d5 56050000 		.4byte	0x556
 830 04d9 00       		.byte	0
 831 04da 00       		.byte	0
 832 04db 06       		.uleb128 0x6
 833 04dc 46000000 		.4byte	.LASF89
 834 04e0 24       		.byte	0x24
 835 04e1 07       		.byte	0x7
 836 04e2 F4       		.byte	0xf4
 837 04e3 56050000 		.4byte	0x556
 838 04e7 08       		.uleb128 0x8
 839 04e8 723400   		.ascii	"r4\000"
 840 04eb 07       		.byte	0x7
 841 04ec 0701     		.2byte	0x107
 842 04ee AC040000 		.4byte	0x4ac
 843 04f2 00       		.byte	0
 844 04f3 08       		.uleb128 0x8
ARM GAS  C:\Users\Luis\AppData\Local\Temp\ccMDVwva.s 			page 16


 845 04f4 723500   		.ascii	"r5\000"
 846 04f7 07       		.byte	0x7
 847 04f8 0801     		.2byte	0x108
 848 04fa AC040000 		.4byte	0x4ac
 849 04fe 04       		.byte	0x4
 850 04ff 08       		.uleb128 0x8
 851 0500 723600   		.ascii	"r6\000"
 852 0503 07       		.byte	0x7
 853 0504 0901     		.2byte	0x109
 854 0506 AC040000 		.4byte	0x4ac
 855 050a 08       		.byte	0x8
 856 050b 08       		.uleb128 0x8
 857 050c 723700   		.ascii	"r7\000"
 858 050f 07       		.byte	0x7
 859 0510 0A01     		.2byte	0x10a
 860 0512 AC040000 		.4byte	0x4ac
 861 0516 0C       		.byte	0xc
 862 0517 08       		.uleb128 0x8
 863 0518 723800   		.ascii	"r8\000"
 864 051b 07       		.byte	0x7
 865 051c 0B01     		.2byte	0x10b
 866 051e AC040000 		.4byte	0x4ac
 867 0522 10       		.byte	0x10
 868 0523 08       		.uleb128 0x8
 869 0524 723900   		.ascii	"r9\000"
 870 0527 07       		.byte	0x7
 871 0528 0C01     		.2byte	0x10c
 872 052a AC040000 		.4byte	0x4ac
 873 052e 14       		.byte	0x14
 874 052f 08       		.uleb128 0x8
 875 0530 72313000 		.ascii	"r10\000"
 876 0534 07       		.byte	0x7
 877 0535 0D01     		.2byte	0x10d
 878 0537 AC040000 		.4byte	0x4ac
 879 053b 18       		.byte	0x18
 880 053c 08       		.uleb128 0x8
 881 053d 72313100 		.ascii	"r11\000"
 882 0541 07       		.byte	0x7
 883 0542 0E01     		.2byte	0x10e
 884 0544 AC040000 		.4byte	0x4ac
 885 0548 1C       		.byte	0x1c
 886 0549 08       		.uleb128 0x8
 887 054a 6C7200   		.ascii	"lr\000"
 888 054d 07       		.byte	0x7
 889 054e 0F01     		.2byte	0x10f
 890 0550 AC040000 		.4byte	0x4ac
 891 0554 20       		.byte	0x20
 892 0555 00       		.byte	0
 893 0556 0A       		.uleb128 0xa
 894 0557 04       		.byte	0x4
 895 0558 DB040000 		.4byte	0x4db
 896 055c 13       		.uleb128 0x13
 897 055d 10       		.byte	0x10
 898 055e 08       		.byte	0x8
 899 055f 51       		.byte	0x51
 900 0560 95050000 		.4byte	0x595
 901 0564 07       		.uleb128 0x7
ARM GAS  C:\Users\Luis\AppData\Local\Temp\ccMDVwva.s 			page 17


 902 0565 14000000 		.4byte	.LASF90
 903 0569 08       		.byte	0x8
 904 056a 55       		.byte	0x55
 905 056b 25010000 		.4byte	0x125
 906 056f 00       		.byte	0
 907 0570 07       		.uleb128 0x7
 908 0571 6A010000 		.4byte	.LASF91
 909 0575 08       		.byte	0x8
 910 0576 59       		.byte	0x59
 911 0577 59020000 		.4byte	0x259
 912 057b 04       		.byte	0x4
 913 057c 07       		.uleb128 0x7
 914 057d E5060000 		.4byte	.LASF92
 915 0581 08       		.byte	0x8
 916 0582 5D       		.byte	0x5d
 917 0583 36030000 		.4byte	0x336
 918 0587 08       		.byte	0x8
 919 0588 07       		.uleb128 0x7
 920 0589 C7000000 		.4byte	.LASF93
 921 058d 08       		.byte	0x8
 922 058e 61       		.byte	0x61
 923 058f 3A000000 		.4byte	0x3a
 924 0593 0C       		.byte	0xc
 925 0594 00       		.byte	0
 926 0595 04       		.uleb128 0x4
 927 0596 68030000 		.4byte	.LASF94
 928 059a 08       		.byte	0x8
 929 059b 62       		.byte	0x62
 930 059c 5C050000 		.4byte	0x55c
 931 05a0 14       		.uleb128 0x14
 932 05a1 0804     		.2byte	0x408
 933 05a3 08       		.byte	0x8
 934 05a4 67       		.byte	0x67
 935 05a5 CE050000 		.4byte	0x5ce
 936 05a9 07       		.uleb128 0x7
 937 05aa 89010000 		.4byte	.LASF95
 938 05ae 08       		.byte	0x8
 939 05af 6B       		.byte	0x6b
 940 05b0 2C000000 		.4byte	0x2c
 941 05b4 00       		.byte	0
 942 05b5 07       		.uleb128 0x7
 943 05b6 00000000 		.4byte	.LASF96
 944 05ba 08       		.byte	0x8
 945 05bb 6F       		.byte	0x6f
 946 05bc CE050000 		.4byte	0x5ce
 947 05c0 04       		.byte	0x4
 948 05c1 07       		.uleb128 0x7
 949 05c2 E6030000 		.4byte	.LASF97
 950 05c6 08       		.byte	0x8
 951 05c7 73       		.byte	0x73
 952 05c8 D4050000 		.4byte	0x5d4
 953 05cc 08       		.byte	0x8
 954 05cd 00       		.byte	0
 955 05ce 0A       		.uleb128 0xa
 956 05cf 04       		.byte	0x4
 957 05d0 95050000 		.4byte	0x595
 958 05d4 15       		.uleb128 0x15
ARM GAS  C:\Users\Luis\AppData\Local\Temp\ccMDVwva.s 			page 18


 959 05d5 95050000 		.4byte	0x595
 960 05d9 E4050000 		.4byte	0x5e4
 961 05dd 16       		.uleb128 0x16
 962 05de A5040000 		.4byte	0x4a5
 963 05e2 3F       		.byte	0x3f
 964 05e3 00       		.byte	0
 965 05e4 04       		.uleb128 0x4
 966 05e5 B5000000 		.4byte	.LASF98
 967 05e9 08       		.byte	0x8
 968 05ea 74       		.byte	0x74
 969 05eb A0050000 		.4byte	0x5a0
 970 05ef 13       		.uleb128 0x13
 971 05f0 04       		.byte	0x4
 972 05f1 09       		.byte	0x9
 973 05f2 38       		.byte	0x38
 974 05f3 04060000 		.4byte	0x604
 975 05f7 07       		.uleb128 0x7
 976 05f8 25060000 		.4byte	.LASF99
 977 05fc 09       		.byte	0x9
 978 05fd 3C       		.byte	0x3c
 979 05fe B7000000 		.4byte	0xb7
 980 0602 00       		.byte	0
 981 0603 00       		.byte	0
 982 0604 04       		.uleb128 0x4
 983 0605 91030000 		.4byte	.LASF100
 984 0609 09       		.byte	0x9
 985 060a 3D       		.byte	0x3d
 986 060b EF050000 		.4byte	0x5ef
 987 060f 13       		.uleb128 0x13
 988 0610 18       		.byte	0x18
 989 0611 09       		.byte	0x9
 990 0612 48       		.byte	0x48
 991 0613 52060000 		.4byte	0x652
 992 0617 07       		.uleb128 0x7
 993 0618 F1050000 		.4byte	.LASF101
 994 061c 09       		.byte	0x9
 995 061d 49       		.byte	0x49
 996 061e B7000000 		.4byte	0xb7
 997 0622 00       		.byte	0
 998 0623 07       		.uleb128 0x7
 999 0624 7F000000 		.4byte	.LASF102
 1000 0628 09       		.byte	0x9
 1001 0629 4A       		.byte	0x4a
 1002 062a B7000000 		.4byte	0xb7
 1003 062e 04       		.byte	0x4
 1004 062f 07       		.uleb128 0x7
 1005 0630 C6020000 		.4byte	.LASF103
 1006 0634 09       		.byte	0x9
 1007 0635 4B       		.byte	0x4b
 1008 0636 B7000000 		.4byte	0xb7
 1009 063a 08       		.byte	0x8
 1010 063b 12       		.uleb128 0x12
 1011 063c 6E00     		.ascii	"n\000"
 1012 063e 09       		.byte	0x9
 1013 063f 4C       		.byte	0x4c
 1014 0640 1A010000 		.4byte	0x11a
 1015 0644 0C       		.byte	0xc
ARM GAS  C:\Users\Luis\AppData\Local\Temp\ccMDVwva.s 			page 19


 1016 0645 07       		.uleb128 0x7
 1017 0646 C0030000 		.4byte	.LASF104
 1018 064a 09       		.byte	0x9
 1019 064b 4D       		.byte	0x4d
 1020 064c C2000000 		.4byte	0xc2
 1021 0650 10       		.byte	0x10
 1022 0651 00       		.byte	0
 1023 0652 04       		.uleb128 0x4
 1024 0653 85000000 		.4byte	.LASF105
 1025 0657 09       		.byte	0x9
 1026 0658 4E       		.byte	0x4e
 1027 0659 0F060000 		.4byte	0x60f
 1028 065d 13       		.uleb128 0x13
 1029 065e 38       		.byte	0x38
 1030 065f 0A       		.byte	0xa
 1031 0660 38       		.byte	0x38
 1032 0661 96060000 		.4byte	0x696
 1033 0665 07       		.uleb128 0x7
 1034 0666 88020000 		.4byte	.LASF106
 1035 066a 0A       		.byte	0xa
 1036 066b 39       		.byte	0x39
 1037 066c 1A010000 		.4byte	0x11a
 1038 0670 00       		.byte	0
 1039 0671 07       		.uleb128 0x7
 1040 0672 0F040000 		.4byte	.LASF107
 1041 0676 0A       		.byte	0xa
 1042 0677 3A       		.byte	0x3a
 1043 0678 1A010000 		.4byte	0x11a
 1044 067c 04       		.byte	0x4
 1045 067d 07       		.uleb128 0x7
 1046 067e D2060000 		.4byte	.LASF108
 1047 0682 0A       		.byte	0xa
 1048 0683 3B       		.byte	0x3b
 1049 0684 52060000 		.4byte	0x652
 1050 0688 08       		.byte	0x8
 1051 0689 07       		.uleb128 0x7
 1052 068a E6020000 		.4byte	.LASF109
 1053 068e 0A       		.byte	0xa
 1054 068f 3D       		.byte	0x3d
 1055 0690 52060000 		.4byte	0x652
 1056 0694 20       		.byte	0x20
 1057 0695 00       		.byte	0
 1058 0696 04       		.uleb128 0x4
 1059 0697 A7020000 		.4byte	.LASF110
 1060 069b 0A       		.byte	0xa
 1061 069c 3F       		.byte	0x3f
 1062 069d 5D060000 		.4byte	0x65d
 1063 06a1 17       		.uleb128 0x17
 1064 06a2 04       		.byte	0x4
 1065 06a3 05       		.byte	0x5
 1066 06a4 FA       		.byte	0xfa
 1067 06a5 FE060000 		.4byte	0x6fe
 1068 06a9 18       		.uleb128 0x18
 1069 06aa 22000000 		.4byte	.LASF111
 1070 06ae 05       		.byte	0x5
 1071 06af 0101     		.2byte	0x101
 1072 06b1 F9000000 		.4byte	0xf9
ARM GAS  C:\Users\Luis\AppData\Local\Temp\ccMDVwva.s 			page 20


 1073 06b5 18       		.uleb128 0x18
 1074 06b6 D6000000 		.4byte	.LASF112
 1075 06ba 05       		.byte	0x5
 1076 06bb 0801     		.2byte	0x108
 1077 06bd F9000000 		.4byte	0xf9
 1078 06c1 18       		.uleb128 0x18
 1079 06c2 99060000 		.4byte	.LASF113
 1080 06c6 05       		.byte	0x5
 1081 06c7 0F01     		.2byte	0x10f
 1082 06c9 36030000 		.4byte	0x336
 1083 06cd 18       		.uleb128 0x18
 1084 06ce 1C000000 		.4byte	.LASF114
 1085 06d2 05       		.byte	0x5
 1086 06d3 1601     		.2byte	0x116
 1087 06d5 FE060000 		.4byte	0x6fe
 1088 06d9 18       		.uleb128 0x18
 1089 06da 6A020000 		.4byte	.LASF115
 1090 06de 05       		.byte	0x5
 1091 06df 1E01     		.2byte	0x11e
 1092 06e1 29070000 		.4byte	0x729
 1093 06e5 18       		.uleb128 0x18
 1094 06e6 18050000 		.4byte	.LASF116
 1095 06ea 05       		.byte	0x5
 1096 06eb 2701     		.2byte	0x127
 1097 06ed 60070000 		.4byte	0x760
 1098 06f1 18       		.uleb128 0x18
 1099 06f2 57040000 		.4byte	.LASF117
 1100 06f6 05       		.byte	0x5
 1101 06f7 2F01     		.2byte	0x12f
 1102 06f9 04010000 		.4byte	0x104
 1103 06fd 00       		.byte	0
 1104 06fe 0A       		.uleb128 0xa
 1105 06ff 04       		.byte	0x4
 1106 0700 4E020000 		.4byte	0x24e
 1107 0704 06       		.uleb128 0x6
 1108 0705 A6040000 		.4byte	.LASF118
 1109 0709 0C       		.byte	0xc
 1110 070a 0B       		.byte	0xb
 1111 070b 34       		.byte	0x34
 1112 070c 29070000 		.4byte	0x729
 1113 0710 07       		.uleb128 0x7
 1114 0711 81010000 		.4byte	.LASF119
 1115 0715 0B       		.byte	0xb
 1116 0716 35       		.byte	0x35
 1117 0717 83020000 		.4byte	0x283
 1118 071b 00       		.byte	0
 1119 071c 07       		.uleb128 0x7
 1120 071d 8E020000 		.4byte	.LASF120
 1121 0721 0B       		.byte	0xb
 1122 0722 37       		.byte	0x37
 1123 0723 0F010000 		.4byte	0x10f
 1124 0727 08       		.byte	0x8
 1125 0728 00       		.byte	0
 1126 0729 0A       		.uleb128 0xa
 1127 072a 04       		.byte	0x4
 1128 072b 04070000 		.4byte	0x704
 1129 072f 06       		.uleb128 0x6
ARM GAS  C:\Users\Luis\AppData\Local\Temp\ccMDVwva.s 			page 21


 1130 0730 6A060000 		.4byte	.LASF121
 1131 0734 10       		.byte	0x10
 1132 0735 0C       		.byte	0xc
 1133 0736 39       		.byte	0x39
 1134 0737 60070000 		.4byte	0x760
 1135 073b 07       		.uleb128 0x7
 1136 073c 44010000 		.4byte	.LASF122
 1137 0740 0C       		.byte	0xc
 1138 0741 3A       		.byte	0x3a
 1139 0742 83020000 		.4byte	0x283
 1140 0746 00       		.byte	0
 1141 0747 07       		.uleb128 0x7
 1142 0748 DD060000 		.4byte	.LASF123
 1143 074c 0C       		.byte	0xc
 1144 074d 3C       		.byte	0x3c
 1145 074e 59020000 		.4byte	0x259
 1146 0752 08       		.byte	0x8
 1147 0753 07       		.uleb128 0x7
 1148 0754 F6050000 		.4byte	.LASF124
 1149 0758 0C       		.byte	0xc
 1150 0759 3E       		.byte	0x3e
 1151 075a A4070000 		.4byte	0x7a4
 1152 075e 0C       		.byte	0xc
 1153 075f 00       		.byte	0
 1154 0760 0A       		.uleb128 0xa
 1155 0761 04       		.byte	0x4
 1156 0762 2F070000 		.4byte	0x72f
 1157 0766 0A       		.uleb128 0xa
 1158 0767 04       		.byte	0x4
 1159 0768 6C070000 		.4byte	0x76c
 1160 076c 19       		.uleb128 0x19
 1161 076d 71070000 		.4byte	0x771
 1162 0771 03       		.uleb128 0x3
 1163 0772 01       		.byte	0x1
 1164 0773 08       		.byte	0x8
 1165 0774 03050000 		.4byte	.LASF125
 1166 0778 0A       		.uleb128 0xa
 1167 0779 04       		.byte	0x4
 1168 077a B7040000 		.4byte	0x4b7
 1169 077e 0A       		.uleb128 0xa
 1170 077f 04       		.byte	0x4
 1171 0780 38030000 		.4byte	0x338
 1172 0784 05       		.uleb128 0x5
 1173 0785 66070000 		.4byte	0x766
 1174 0789 15       		.uleb128 0x15
 1175 078a B7040000 		.4byte	0x4b7
 1176 078e 99070000 		.4byte	0x799
 1177 0792 16       		.uleb128 0x16
 1178 0793 A5040000 		.4byte	0x4a5
 1179 0797 1F       		.byte	0x1f
 1180 0798 00       		.byte	0
 1181 0799 04       		.uleb128 0x4
 1182 079a 2D020000 		.4byte	.LASF126
 1183 079e 0C       		.byte	0xc
 1184 079f 34       		.byte	0x34
 1185 07a0 2F070000 		.4byte	0x72f
 1186 07a4 0A       		.uleb128 0xa
ARM GAS  C:\Users\Luis\AppData\Local\Temp\ccMDVwva.s 			page 22


 1187 07a5 04       		.byte	0x4
 1188 07a6 99070000 		.4byte	0x799
 1189 07aa 03       		.uleb128 0x3
 1190 07ab 01       		.byte	0x1
 1191 07ac 02       		.byte	0x2
 1192 07ad 18040000 		.4byte	.LASF127
 1193 07b1 13       		.uleb128 0x13
 1194 07b2 04       		.byte	0x4
 1195 07b3 0D       		.byte	0xd
 1196 07b4 B3       		.byte	0xb3
 1197 07b5 D2070000 		.4byte	0x7d2
 1198 07b9 12       		.uleb128 0x12
 1199 07ba 73657400 		.ascii	"set\000"
 1200 07be 0D       		.byte	0xd
 1201 07bf B4       		.byte	0xb4
 1202 07c0 53000000 		.4byte	0x53
 1203 07c4 00       		.byte	0
 1204 07c5 07       		.uleb128 0x7
 1205 07c6 62030000 		.4byte	.LASF128
 1206 07ca 0D       		.byte	0xd
 1207 07cb B5       		.byte	0xb5
 1208 07cc 53000000 		.4byte	0x53
 1209 07d0 02       		.byte	0x2
 1210 07d1 00       		.byte	0
 1211 07d2 17       		.uleb128 0x17
 1212 07d3 04       		.byte	0x4
 1213 07d4 0D       		.byte	0xd
 1214 07d5 B1       		.byte	0xb1
 1215 07d6 ED070000 		.4byte	0x7ed
 1216 07da 1A       		.uleb128 0x1a
 1217 07db 5700     		.ascii	"W\000"
 1218 07dd 0D       		.byte	0xd
 1219 07de B2       		.byte	0xb2
 1220 07df 77000000 		.4byte	0x77
 1221 07e3 1A       		.uleb128 0x1a
 1222 07e4 4800     		.ascii	"H\000"
 1223 07e6 0D       		.byte	0xd
 1224 07e7 B6       		.byte	0xb6
 1225 07e8 B1070000 		.4byte	0x7b1
 1226 07ec 00       		.byte	0
 1227 07ed 13       		.uleb128 0x13
 1228 07ee 2C       		.byte	0x2c
 1229 07ef 0D       		.byte	0xd
 1230 07f0 A9       		.byte	0xa9
 1231 07f1 7A080000 		.4byte	0x87a
 1232 07f5 07       		.uleb128 0x7
 1233 07f6 98000000 		.4byte	.LASF129
 1234 07fa 0D       		.byte	0xd
 1235 07fb AB       		.byte	0xab
 1236 07fc B2000000 		.4byte	0xb2
 1237 0800 00       		.byte	0
 1238 0801 07       		.uleb128 0x7
 1239 0802 3F000000 		.4byte	.LASF130
 1240 0806 0D       		.byte	0xd
 1241 0807 AC       		.byte	0xac
 1242 0808 B2000000 		.4byte	0xb2
 1243 080c 04       		.byte	0x4
ARM GAS  C:\Users\Luis\AppData\Local\Temp\ccMDVwva.s 			page 23


 1244 080d 07       		.uleb128 0x7
 1245 080e 91010000 		.4byte	.LASF131
 1246 0812 0D       		.byte	0xd
 1247 0813 AD       		.byte	0xad
 1248 0814 B2000000 		.4byte	0xb2
 1249 0818 08       		.byte	0x8
 1250 0819 07       		.uleb128 0x7
 1251 081a D0000000 		.4byte	.LASF132
 1252 081e 0D       		.byte	0xd
 1253 081f AE       		.byte	0xae
 1254 0820 B2000000 		.4byte	0xb2
 1255 0824 0C       		.byte	0xc
 1256 0825 12       		.uleb128 0x12
 1257 0826 49445200 		.ascii	"IDR\000"
 1258 082a 0D       		.byte	0xd
 1259 082b AF       		.byte	0xaf
 1260 082c B2000000 		.4byte	0xb2
 1261 0830 10       		.byte	0x10
 1262 0831 12       		.uleb128 0x12
 1263 0832 4F445200 		.ascii	"ODR\000"
 1264 0836 0D       		.byte	0xd
 1265 0837 B0       		.byte	0xb0
 1266 0838 B2000000 		.4byte	0xb2
 1267 083c 14       		.byte	0x14
 1268 083d 07       		.uleb128 0x7
 1269 083e 37010000 		.4byte	.LASF133
 1270 0842 0D       		.byte	0xd
 1271 0843 B7       		.byte	0xb7
 1272 0844 7A080000 		.4byte	0x87a
 1273 0848 18       		.byte	0x18
 1274 0849 07       		.uleb128 0x7
 1275 084a 83020000 		.4byte	.LASF134
 1276 084e 0D       		.byte	0xd
 1277 084f B8       		.byte	0xb8
 1278 0850 B2000000 		.4byte	0xb2
 1279 0854 1C       		.byte	0x1c
 1280 0855 07       		.uleb128 0x7
 1281 0856 D9030000 		.4byte	.LASF135
 1282 085a 0D       		.byte	0xd
 1283 085b B9       		.byte	0xb9
 1284 085c B2000000 		.4byte	0xb2
 1285 0860 20       		.byte	0x20
 1286 0861 07       		.uleb128 0x7
 1287 0862 BB030000 		.4byte	.LASF136
 1288 0866 0D       		.byte	0xd
 1289 0867 BA       		.byte	0xba
 1290 0868 B2000000 		.4byte	0xb2
 1291 086c 24       		.byte	0x24
 1292 086d 12       		.uleb128 0x12
 1293 086e 42525200 		.ascii	"BRR\000"
 1294 0872 0D       		.byte	0xd
 1295 0873 BB       		.byte	0xbb
 1296 0874 B2000000 		.4byte	0xb2
 1297 0878 28       		.byte	0x28
 1298 0879 00       		.byte	0
 1299 087a 05       		.uleb128 0x5
 1300 087b D2070000 		.4byte	0x7d2
ARM GAS  C:\Users\Luis\AppData\Local\Temp\ccMDVwva.s 			page 24


 1301 087f 04       		.uleb128 0x4
 1302 0880 20020000 		.4byte	.LASF137
 1303 0884 0D       		.byte	0xd
 1304 0885 BC       		.byte	0xbc
 1305 0886 ED070000 		.4byte	0x7ed
 1306 088a 1B       		.uleb128 0x1b
 1307 088b 72000000 		.4byte	.LASF138
 1308 088f 0D       		.byte	0xd
 1309 0890 0E01     		.2byte	0x10e
 1310 0892 77000000 		.4byte	0x77
 1311 0896 1B       		.uleb128 0x1b
 1312 0897 C9060000 		.4byte	.LASF139
 1313 089b 0D       		.byte	0xd
 1314 089c 1301     		.2byte	0x113
 1315 089e 77000000 		.4byte	0x77
 1316 08a2 1B       		.uleb128 0x1b
 1317 08a3 2C060000 		.4byte	.LASF140
 1318 08a7 0D       		.byte	0xd
 1319 08a8 1B01     		.2byte	0x11b
 1320 08aa AE080000 		.4byte	0x8ae
 1321 08ae 0A       		.uleb128 0xa
 1322 08af 04       		.byte	0x4
 1323 08b0 7F080000 		.4byte	0x87f
 1324 08b4 13       		.uleb128 0x13
 1325 08b5 0C       		.byte	0xc
 1326 08b6 0E       		.byte	0xe
 1327 08b7 7A       		.byte	0x7a
 1328 08b8 E1080000 		.4byte	0x8e1
 1329 08bc 07       		.uleb128 0x7
 1330 08bd B4030000 		.4byte	.LASF141
 1331 08c1 0E       		.byte	0xe
 1332 08c2 7E       		.byte	0x7e
 1333 08c3 A2080000 		.4byte	0x8a2
 1334 08c7 00       		.byte	0
 1335 08c8 07       		.uleb128 0x7
 1336 08c9 A1010000 		.4byte	.LASF142
 1337 08cd 0E       		.byte	0xe
 1338 08ce 84       		.byte	0x84
 1339 08cf 8A080000 		.4byte	0x88a
 1340 08d3 04       		.byte	0x4
 1341 08d4 07       		.uleb128 0x7
 1342 08d5 25060000 		.4byte	.LASF99
 1343 08d9 0E       		.byte	0xe
 1344 08da 88       		.byte	0x88
 1345 08db A2000000 		.4byte	0xa2
 1346 08df 08       		.byte	0x8
 1347 08e0 00       		.byte	0
 1348 08e1 04       		.uleb128 0x4
 1349 08e2 3E020000 		.4byte	.LASF143
 1350 08e6 0E       		.byte	0xe
 1351 08e7 89       		.byte	0x89
 1352 08e8 B4080000 		.4byte	0x8b4
 1353 08ec 1C       		.uleb128 0x1c
 1354 08ed 0D050000 		.4byte	.LASF153
 1355 08f1 01       		.byte	0x1
 1356 08f2 41       		.byte	0x41
 1357 08f3 8A080000 		.4byte	0x88a
ARM GAS  C:\Users\Luis\AppData\Local\Temp\ccMDVwva.s 			page 25


 1358 08f7 00000000 		.4byte	.LFB260
 1359 08fb 3C000000 		.4byte	.LFE260-.LFB260
 1360 08ff 01       		.uleb128 0x1
 1361 0900 9C       		.byte	0x9c
 1362 0901 23090000 		.4byte	0x923
 1363 0905 1D       		.uleb128 0x1d
 1364 0906 62757300 		.ascii	"bus\000"
 1365 090a 01       		.byte	0x1
 1366 090b 41       		.byte	0x41
 1367 090c 23090000 		.4byte	0x923
 1368 0910 02       		.uleb128 0x2
 1369 0911 91       		.byte	0x91
 1370 0912 74       		.sleb128 -12
 1371 0913 1E       		.uleb128 0x1e
 1372 0914 7A040000 		.4byte	.LASF145
 1373 0918 39090000 		.4byte	0x939
 1374 091c 05       		.uleb128 0x5
 1375 091d 03       		.byte	0x3
 1376 091e 00000000 		.4byte	__func__.7906
 1377 0922 00       		.byte	0
 1378 0923 0A       		.uleb128 0xa
 1379 0924 04       		.byte	0x4
 1380 0925 E1080000 		.4byte	0x8e1
 1381 0929 15       		.uleb128 0x15
 1382 092a 71070000 		.4byte	0x771
 1383 092e 39090000 		.4byte	0x939
 1384 0932 16       		.uleb128 0x16
 1385 0933 A5040000 		.4byte	0x4a5
 1386 0937 0A       		.byte	0xa
 1387 0938 00       		.byte	0
 1388 0939 19       		.uleb128 0x19
 1389 093a 29090000 		.4byte	0x929
 1390 093e 1F       		.uleb128 0x1f
 1391 093f 4E060000 		.4byte	.LASF146
 1392 0943 01       		.byte	0x1
 1393 0944 5A       		.byte	0x5a
 1394 0945 00000000 		.4byte	.LFB261
 1395 0949 54000000 		.4byte	.LFE261-.LFB261
 1396 094d 01       		.uleb128 0x1
 1397 094e 9C       		.byte	0x9c
 1398 094f 7F090000 		.4byte	0x97f
 1399 0953 1D       		.uleb128 0x1d
 1400 0954 62757300 		.ascii	"bus\000"
 1401 0958 01       		.byte	0x1
 1402 0959 5A       		.byte	0x5a
 1403 095a 23090000 		.4byte	0x923
 1404 095e 02       		.uleb128 0x2
 1405 095f 91       		.byte	0x91
 1406 0960 74       		.sleb128 -12
 1407 0961 20       		.uleb128 0x20
 1408 0962 53010000 		.4byte	.LASF144
 1409 0966 01       		.byte	0x1
 1410 0967 5A       		.byte	0x5a
 1411 0968 8A080000 		.4byte	0x88a
 1412 096c 02       		.uleb128 0x2
 1413 096d 91       		.byte	0x91
 1414 096e 70       		.sleb128 -16
ARM GAS  C:\Users\Luis\AppData\Local\Temp\ccMDVwva.s 			page 26


 1415 096f 1E       		.uleb128 0x1e
 1416 0970 7A040000 		.4byte	.LASF145
 1417 0974 8F090000 		.4byte	0x98f
 1418 0978 05       		.uleb128 0x5
 1419 0979 03       		.byte	0x3
 1420 097a 00000000 		.4byte	__func__.7911
 1421 097e 00       		.byte	0
 1422 097f 15       		.uleb128 0x15
 1423 0980 71070000 		.4byte	0x771
 1424 0984 8F090000 		.4byte	0x98f
 1425 0988 16       		.uleb128 0x16
 1426 0989 A5040000 		.4byte	0x4a5
 1427 098d 0B       		.byte	0xb
 1428 098e 00       		.byte	0
 1429 098f 19       		.uleb128 0x19
 1430 0990 7F090000 		.4byte	0x97f
 1431 0994 1F       		.uleb128 0x1f
 1432 0995 CB030000 		.4byte	.LASF147
 1433 0999 01       		.byte	0x1
 1434 099a 71       		.byte	0x71
 1435 099b 00000000 		.4byte	.LFB262
 1436 099f 44000000 		.4byte	.LFE262-.LFB262
 1437 09a3 01       		.uleb128 0x1
 1438 09a4 9C       		.byte	0x9c
 1439 09a5 D5090000 		.4byte	0x9d5
 1440 09a9 1D       		.uleb128 0x1d
 1441 09aa 62757300 		.ascii	"bus\000"
 1442 09ae 01       		.byte	0x1
 1443 09af 71       		.byte	0x71
 1444 09b0 23090000 		.4byte	0x923
 1445 09b4 02       		.uleb128 0x2
 1446 09b5 91       		.byte	0x91
 1447 09b6 74       		.sleb128 -12
 1448 09b7 20       		.uleb128 0x20
 1449 09b8 08050000 		.4byte	.LASF148
 1450 09bc 01       		.byte	0x1
 1451 09bd 71       		.byte	0x71
 1452 09be 96080000 		.4byte	0x896
 1453 09c2 02       		.uleb128 0x2
 1454 09c3 91       		.byte	0x91
 1455 09c4 70       		.sleb128 -16
 1456 09c5 1E       		.uleb128 0x1e
 1457 09c6 7A040000 		.4byte	.LASF145
 1458 09ca E5090000 		.4byte	0x9e5
 1459 09ce 05       		.uleb128 0x5
 1460 09cf 03       		.byte	0x3
 1461 09d0 00000000 		.4byte	__func__.7916
 1462 09d4 00       		.byte	0
 1463 09d5 15       		.uleb128 0x15
 1464 09d6 71070000 		.4byte	0x771
 1465 09da E5090000 		.4byte	0x9e5
 1466 09de 16       		.uleb128 0x16
 1467 09df A5040000 		.4byte	0x4a5
 1468 09e3 0D       		.byte	0xd
 1469 09e4 00       		.byte	0
 1470 09e5 19       		.uleb128 0x19
 1471 09e6 D5090000 		.4byte	0x9d5
ARM GAS  C:\Users\Luis\AppData\Local\Temp\ccMDVwva.s 			page 27


 1472 09ea 21       		.uleb128 0x21
 1473 09eb 00010000 		.4byte	.LASF149
 1474 09ef 0F       		.byte	0xf
 1475 09f0 A706     		.2byte	0x6a7
 1476 09f2 AD000000 		.4byte	0xad
 1477 09f6 22       		.uleb128 0x22
 1478 09f7 636800   		.ascii	"ch\000"
 1479 09fa 05       		.byte	0x5
 1480 09fb 0902     		.2byte	0x209
 1481 09fd 2D040000 		.4byte	0x42d
 1482 0a01 00       		.byte	0
 1483              		.section	.debug_abbrev,"",%progbits
 1484              	.Ldebug_abbrev0:
 1485 0000 01       		.uleb128 0x1
 1486 0001 11       		.uleb128 0x11
 1487 0002 01       		.byte	0x1
 1488 0003 25       		.uleb128 0x25
 1489 0004 0E       		.uleb128 0xe
 1490 0005 13       		.uleb128 0x13
 1491 0006 0B       		.uleb128 0xb
 1492 0007 03       		.uleb128 0x3
 1493 0008 0E       		.uleb128 0xe
 1494 0009 1B       		.uleb128 0x1b
 1495 000a 0E       		.uleb128 0xe
 1496 000b 55       		.uleb128 0x55
 1497 000c 17       		.uleb128 0x17
 1498 000d 11       		.uleb128 0x11
 1499 000e 01       		.uleb128 0x1
 1500 000f 10       		.uleb128 0x10
 1501 0010 17       		.uleb128 0x17
 1502 0011 00       		.byte	0
 1503 0012 00       		.byte	0
 1504 0013 02       		.uleb128 0x2
 1505 0014 24       		.uleb128 0x24
 1506 0015 00       		.byte	0
 1507 0016 0B       		.uleb128 0xb
 1508 0017 0B       		.uleb128 0xb
 1509 0018 3E       		.uleb128 0x3e
 1510 0019 0B       		.uleb128 0xb
 1511 001a 03       		.uleb128 0x3
 1512 001b 08       		.uleb128 0x8
 1513 001c 00       		.byte	0
 1514 001d 00       		.byte	0
 1515 001e 03       		.uleb128 0x3
 1516 001f 24       		.uleb128 0x24
 1517 0020 00       		.byte	0
 1518 0021 0B       		.uleb128 0xb
 1519 0022 0B       		.uleb128 0xb
 1520 0023 3E       		.uleb128 0x3e
 1521 0024 0B       		.uleb128 0xb
 1522 0025 03       		.uleb128 0x3
 1523 0026 0E       		.uleb128 0xe
 1524 0027 00       		.byte	0
 1525 0028 00       		.byte	0
 1526 0029 04       		.uleb128 0x4
 1527 002a 16       		.uleb128 0x16
 1528 002b 00       		.byte	0
ARM GAS  C:\Users\Luis\AppData\Local\Temp\ccMDVwva.s 			page 28


 1529 002c 03       		.uleb128 0x3
 1530 002d 0E       		.uleb128 0xe
 1531 002e 3A       		.uleb128 0x3a
 1532 002f 0B       		.uleb128 0xb
 1533 0030 3B       		.uleb128 0x3b
 1534 0031 0B       		.uleb128 0xb
 1535 0032 49       		.uleb128 0x49
 1536 0033 13       		.uleb128 0x13
 1537 0034 00       		.byte	0
 1538 0035 00       		.byte	0
 1539 0036 05       		.uleb128 0x5
 1540 0037 35       		.uleb128 0x35
 1541 0038 00       		.byte	0
 1542 0039 49       		.uleb128 0x49
 1543 003a 13       		.uleb128 0x13
 1544 003b 00       		.byte	0
 1545 003c 00       		.byte	0
 1546 003d 06       		.uleb128 0x6
 1547 003e 13       		.uleb128 0x13
 1548 003f 01       		.byte	0x1
 1549 0040 03       		.uleb128 0x3
 1550 0041 0E       		.uleb128 0xe
 1551 0042 0B       		.uleb128 0xb
 1552 0043 0B       		.uleb128 0xb
 1553 0044 3A       		.uleb128 0x3a
 1554 0045 0B       		.uleb128 0xb
 1555 0046 3B       		.uleb128 0x3b
 1556 0047 0B       		.uleb128 0xb
 1557 0048 01       		.uleb128 0x1
 1558 0049 13       		.uleb128 0x13
 1559 004a 00       		.byte	0
 1560 004b 00       		.byte	0
 1561 004c 07       		.uleb128 0x7
 1562 004d 0D       		.uleb128 0xd
 1563 004e 00       		.byte	0
 1564 004f 03       		.uleb128 0x3
 1565 0050 0E       		.uleb128 0xe
 1566 0051 3A       		.uleb128 0x3a
 1567 0052 0B       		.uleb128 0xb
 1568 0053 3B       		.uleb128 0x3b
 1569 0054 0B       		.uleb128 0xb
 1570 0055 49       		.uleb128 0x49
 1571 0056 13       		.uleb128 0x13
 1572 0057 38       		.uleb128 0x38
 1573 0058 0B       		.uleb128 0xb
 1574 0059 00       		.byte	0
 1575 005a 00       		.byte	0
 1576 005b 08       		.uleb128 0x8
 1577 005c 0D       		.uleb128 0xd
 1578 005d 00       		.byte	0
 1579 005e 03       		.uleb128 0x3
 1580 005f 08       		.uleb128 0x8
 1581 0060 3A       		.uleb128 0x3a
 1582 0061 0B       		.uleb128 0xb
 1583 0062 3B       		.uleb128 0x3b
 1584 0063 05       		.uleb128 0x5
 1585 0064 49       		.uleb128 0x49
ARM GAS  C:\Users\Luis\AppData\Local\Temp\ccMDVwva.s 			page 29


 1586 0065 13       		.uleb128 0x13
 1587 0066 38       		.uleb128 0x38
 1588 0067 0B       		.uleb128 0xb
 1589 0068 00       		.byte	0
 1590 0069 00       		.byte	0
 1591 006a 09       		.uleb128 0x9
 1592 006b 0D       		.uleb128 0xd
 1593 006c 00       		.byte	0
 1594 006d 03       		.uleb128 0x3
 1595 006e 0E       		.uleb128 0xe
 1596 006f 3A       		.uleb128 0x3a
 1597 0070 0B       		.uleb128 0xb
 1598 0071 3B       		.uleb128 0x3b
 1599 0072 05       		.uleb128 0x5
 1600 0073 49       		.uleb128 0x49
 1601 0074 13       		.uleb128 0x13
 1602 0075 38       		.uleb128 0x38
 1603 0076 0B       		.uleb128 0xb
 1604 0077 00       		.byte	0
 1605 0078 00       		.byte	0
 1606 0079 0A       		.uleb128 0xa
 1607 007a 0F       		.uleb128 0xf
 1608 007b 00       		.byte	0
 1609 007c 0B       		.uleb128 0xb
 1610 007d 0B       		.uleb128 0xb
 1611 007e 49       		.uleb128 0x49
 1612 007f 13       		.uleb128 0x13
 1613 0080 00       		.byte	0
 1614 0081 00       		.byte	0
 1615 0082 0B       		.uleb128 0xb
 1616 0083 13       		.uleb128 0x13
 1617 0084 01       		.byte	0x1
 1618 0085 03       		.uleb128 0x3
 1619 0086 0E       		.uleb128 0xe
 1620 0087 0B       		.uleb128 0xb
 1621 0088 0B       		.uleb128 0xb
 1622 0089 3A       		.uleb128 0x3a
 1623 008a 0B       		.uleb128 0xb
 1624 008b 3B       		.uleb128 0x3b
 1625 008c 05       		.uleb128 0x5
 1626 008d 01       		.uleb128 0x1
 1627 008e 13       		.uleb128 0x13
 1628 008f 00       		.byte	0
 1629 0090 00       		.byte	0
 1630 0091 0C       		.uleb128 0xc
 1631 0092 15       		.uleb128 0x15
 1632 0093 01       		.byte	0x1
 1633 0094 27       		.uleb128 0x27
 1634 0095 19       		.uleb128 0x19
 1635 0096 01       		.uleb128 0x1
 1636 0097 13       		.uleb128 0x13
 1637 0098 00       		.byte	0
 1638 0099 00       		.byte	0
 1639 009a 0D       		.uleb128 0xd
 1640 009b 05       		.uleb128 0x5
 1641 009c 00       		.byte	0
 1642 009d 49       		.uleb128 0x49
ARM GAS  C:\Users\Luis\AppData\Local\Temp\ccMDVwva.s 			page 30


 1643 009e 13       		.uleb128 0x13
 1644 009f 00       		.byte	0
 1645 00a0 00       		.byte	0
 1646 00a1 0E       		.uleb128 0xe
 1647 00a2 0F       		.uleb128 0xf
 1648 00a3 00       		.byte	0
 1649 00a4 0B       		.uleb128 0xb
 1650 00a5 0B       		.uleb128 0xb
 1651 00a6 00       		.byte	0
 1652 00a7 00       		.byte	0
 1653 00a8 0F       		.uleb128 0xf
 1654 00a9 13       		.uleb128 0x13
 1655 00aa 01       		.byte	0x1
 1656 00ab 03       		.uleb128 0x3
 1657 00ac 0E       		.uleb128 0xe
 1658 00ad 0B       		.uleb128 0xb
 1659 00ae 05       		.uleb128 0x5
 1660 00af 3A       		.uleb128 0x3a
 1661 00b0 0B       		.uleb128 0xb
 1662 00b1 3B       		.uleb128 0x3b
 1663 00b2 05       		.uleb128 0x5
 1664 00b3 01       		.uleb128 0x1
 1665 00b4 13       		.uleb128 0x13
 1666 00b5 00       		.byte	0
 1667 00b6 00       		.byte	0
 1668 00b7 10       		.uleb128 0x10
 1669 00b8 0D       		.uleb128 0xd
 1670 00b9 00       		.byte	0
 1671 00ba 03       		.uleb128 0x3
 1672 00bb 0E       		.uleb128 0xe
 1673 00bc 3A       		.uleb128 0x3a
 1674 00bd 0B       		.uleb128 0xb
 1675 00be 3B       		.uleb128 0x3b
 1676 00bf 05       		.uleb128 0x5
 1677 00c0 49       		.uleb128 0x49
 1678 00c1 13       		.uleb128 0x13
 1679 00c2 38       		.uleb128 0x38
 1680 00c3 05       		.uleb128 0x5
 1681 00c4 00       		.byte	0
 1682 00c5 00       		.byte	0
 1683 00c6 11       		.uleb128 0x11
 1684 00c7 0D       		.uleb128 0xd
 1685 00c8 00       		.byte	0
 1686 00c9 03       		.uleb128 0x3
 1687 00ca 08       		.uleb128 0x8
 1688 00cb 3A       		.uleb128 0x3a
 1689 00cc 0B       		.uleb128 0xb
 1690 00cd 3B       		.uleb128 0x3b
 1691 00ce 05       		.uleb128 0x5
 1692 00cf 49       		.uleb128 0x49
 1693 00d0 13       		.uleb128 0x13
 1694 00d1 38       		.uleb128 0x38
 1695 00d2 05       		.uleb128 0x5
 1696 00d3 00       		.byte	0
 1697 00d4 00       		.byte	0
 1698 00d5 12       		.uleb128 0x12
 1699 00d6 0D       		.uleb128 0xd
ARM GAS  C:\Users\Luis\AppData\Local\Temp\ccMDVwva.s 			page 31


 1700 00d7 00       		.byte	0
 1701 00d8 03       		.uleb128 0x3
 1702 00d9 08       		.uleb128 0x8
 1703 00da 3A       		.uleb128 0x3a
 1704 00db 0B       		.uleb128 0xb
 1705 00dc 3B       		.uleb128 0x3b
 1706 00dd 0B       		.uleb128 0xb
 1707 00de 49       		.uleb128 0x49
 1708 00df 13       		.uleb128 0x13
 1709 00e0 38       		.uleb128 0x38
 1710 00e1 0B       		.uleb128 0xb
 1711 00e2 00       		.byte	0
 1712 00e3 00       		.byte	0
 1713 00e4 13       		.uleb128 0x13
 1714 00e5 13       		.uleb128 0x13
 1715 00e6 01       		.byte	0x1
 1716 00e7 0B       		.uleb128 0xb
 1717 00e8 0B       		.uleb128 0xb
 1718 00e9 3A       		.uleb128 0x3a
 1719 00ea 0B       		.uleb128 0xb
 1720 00eb 3B       		.uleb128 0x3b
 1721 00ec 0B       		.uleb128 0xb
 1722 00ed 01       		.uleb128 0x1
 1723 00ee 13       		.uleb128 0x13
 1724 00ef 00       		.byte	0
 1725 00f0 00       		.byte	0
 1726 00f1 14       		.uleb128 0x14
 1727 00f2 13       		.uleb128 0x13
 1728 00f3 01       		.byte	0x1
 1729 00f4 0B       		.uleb128 0xb
 1730 00f5 05       		.uleb128 0x5
 1731 00f6 3A       		.uleb128 0x3a
 1732 00f7 0B       		.uleb128 0xb
 1733 00f8 3B       		.uleb128 0x3b
 1734 00f9 0B       		.uleb128 0xb
 1735 00fa 01       		.uleb128 0x1
 1736 00fb 13       		.uleb128 0x13
 1737 00fc 00       		.byte	0
 1738 00fd 00       		.byte	0
 1739 00fe 15       		.uleb128 0x15
 1740 00ff 01       		.uleb128 0x1
 1741 0100 01       		.byte	0x1
 1742 0101 49       		.uleb128 0x49
 1743 0102 13       		.uleb128 0x13
 1744 0103 01       		.uleb128 0x1
 1745 0104 13       		.uleb128 0x13
 1746 0105 00       		.byte	0
 1747 0106 00       		.byte	0
 1748 0107 16       		.uleb128 0x16
 1749 0108 21       		.uleb128 0x21
 1750 0109 00       		.byte	0
 1751 010a 49       		.uleb128 0x49
 1752 010b 13       		.uleb128 0x13
 1753 010c 2F       		.uleb128 0x2f
 1754 010d 0B       		.uleb128 0xb
 1755 010e 00       		.byte	0
 1756 010f 00       		.byte	0
ARM GAS  C:\Users\Luis\AppData\Local\Temp\ccMDVwva.s 			page 32


 1757 0110 17       		.uleb128 0x17
 1758 0111 17       		.uleb128 0x17
 1759 0112 01       		.byte	0x1
 1760 0113 0B       		.uleb128 0xb
 1761 0114 0B       		.uleb128 0xb
 1762 0115 3A       		.uleb128 0x3a
 1763 0116 0B       		.uleb128 0xb
 1764 0117 3B       		.uleb128 0x3b
 1765 0118 0B       		.uleb128 0xb
 1766 0119 01       		.uleb128 0x1
 1767 011a 13       		.uleb128 0x13
 1768 011b 00       		.byte	0
 1769 011c 00       		.byte	0
 1770 011d 18       		.uleb128 0x18
 1771 011e 0D       		.uleb128 0xd
 1772 011f 00       		.byte	0
 1773 0120 03       		.uleb128 0x3
 1774 0121 0E       		.uleb128 0xe
 1775 0122 3A       		.uleb128 0x3a
 1776 0123 0B       		.uleb128 0xb
 1777 0124 3B       		.uleb128 0x3b
 1778 0125 05       		.uleb128 0x5
 1779 0126 49       		.uleb128 0x49
 1780 0127 13       		.uleb128 0x13
 1781 0128 00       		.byte	0
 1782 0129 00       		.byte	0
 1783 012a 19       		.uleb128 0x19
 1784 012b 26       		.uleb128 0x26
 1785 012c 00       		.byte	0
 1786 012d 49       		.uleb128 0x49
 1787 012e 13       		.uleb128 0x13
 1788 012f 00       		.byte	0
 1789 0130 00       		.byte	0
 1790 0131 1A       		.uleb128 0x1a
 1791 0132 0D       		.uleb128 0xd
 1792 0133 00       		.byte	0
 1793 0134 03       		.uleb128 0x3
 1794 0135 08       		.uleb128 0x8
 1795 0136 3A       		.uleb128 0x3a
 1796 0137 0B       		.uleb128 0xb
 1797 0138 3B       		.uleb128 0x3b
 1798 0139 0B       		.uleb128 0xb
 1799 013a 49       		.uleb128 0x49
 1800 013b 13       		.uleb128 0x13
 1801 013c 00       		.byte	0
 1802 013d 00       		.byte	0
 1803 013e 1B       		.uleb128 0x1b
 1804 013f 16       		.uleb128 0x16
 1805 0140 00       		.byte	0
 1806 0141 03       		.uleb128 0x3
 1807 0142 0E       		.uleb128 0xe
 1808 0143 3A       		.uleb128 0x3a
 1809 0144 0B       		.uleb128 0xb
 1810 0145 3B       		.uleb128 0x3b
 1811 0146 05       		.uleb128 0x5
 1812 0147 49       		.uleb128 0x49
 1813 0148 13       		.uleb128 0x13
ARM GAS  C:\Users\Luis\AppData\Local\Temp\ccMDVwva.s 			page 33


 1814 0149 00       		.byte	0
 1815 014a 00       		.byte	0
 1816 014b 1C       		.uleb128 0x1c
 1817 014c 2E       		.uleb128 0x2e
 1818 014d 01       		.byte	0x1
 1819 014e 3F       		.uleb128 0x3f
 1820 014f 19       		.uleb128 0x19
 1821 0150 03       		.uleb128 0x3
 1822 0151 0E       		.uleb128 0xe
 1823 0152 3A       		.uleb128 0x3a
 1824 0153 0B       		.uleb128 0xb
 1825 0154 3B       		.uleb128 0x3b
 1826 0155 0B       		.uleb128 0xb
 1827 0156 27       		.uleb128 0x27
 1828 0157 19       		.uleb128 0x19
 1829 0158 49       		.uleb128 0x49
 1830 0159 13       		.uleb128 0x13
 1831 015a 11       		.uleb128 0x11
 1832 015b 01       		.uleb128 0x1
 1833 015c 12       		.uleb128 0x12
 1834 015d 06       		.uleb128 0x6
 1835 015e 40       		.uleb128 0x40
 1836 015f 18       		.uleb128 0x18
 1837 0160 9642     		.uleb128 0x2116
 1838 0162 19       		.uleb128 0x19
 1839 0163 01       		.uleb128 0x1
 1840 0164 13       		.uleb128 0x13
 1841 0165 00       		.byte	0
 1842 0166 00       		.byte	0
 1843 0167 1D       		.uleb128 0x1d
 1844 0168 05       		.uleb128 0x5
 1845 0169 00       		.byte	0
 1846 016a 03       		.uleb128 0x3
 1847 016b 08       		.uleb128 0x8
 1848 016c 3A       		.uleb128 0x3a
 1849 016d 0B       		.uleb128 0xb
 1850 016e 3B       		.uleb128 0x3b
 1851 016f 0B       		.uleb128 0xb
 1852 0170 49       		.uleb128 0x49
 1853 0171 13       		.uleb128 0x13
 1854 0172 02       		.uleb128 0x2
 1855 0173 18       		.uleb128 0x18
 1856 0174 00       		.byte	0
 1857 0175 00       		.byte	0
 1858 0176 1E       		.uleb128 0x1e
 1859 0177 34       		.uleb128 0x34
 1860 0178 00       		.byte	0
 1861 0179 03       		.uleb128 0x3
 1862 017a 0E       		.uleb128 0xe
 1863 017b 49       		.uleb128 0x49
 1864 017c 13       		.uleb128 0x13
 1865 017d 34       		.uleb128 0x34
 1866 017e 19       		.uleb128 0x19
 1867 017f 02       		.uleb128 0x2
 1868 0180 18       		.uleb128 0x18
 1869 0181 00       		.byte	0
 1870 0182 00       		.byte	0
ARM GAS  C:\Users\Luis\AppData\Local\Temp\ccMDVwva.s 			page 34


 1871 0183 1F       		.uleb128 0x1f
 1872 0184 2E       		.uleb128 0x2e
 1873 0185 01       		.byte	0x1
 1874 0186 3F       		.uleb128 0x3f
 1875 0187 19       		.uleb128 0x19
 1876 0188 03       		.uleb128 0x3
 1877 0189 0E       		.uleb128 0xe
 1878 018a 3A       		.uleb128 0x3a
 1879 018b 0B       		.uleb128 0xb
 1880 018c 3B       		.uleb128 0x3b
 1881 018d 0B       		.uleb128 0xb
 1882 018e 27       		.uleb128 0x27
 1883 018f 19       		.uleb128 0x19
 1884 0190 11       		.uleb128 0x11
 1885 0191 01       		.uleb128 0x1
 1886 0192 12       		.uleb128 0x12
 1887 0193 06       		.uleb128 0x6
 1888 0194 40       		.uleb128 0x40
 1889 0195 18       		.uleb128 0x18
 1890 0196 9642     		.uleb128 0x2116
 1891 0198 19       		.uleb128 0x19
 1892 0199 01       		.uleb128 0x1
 1893 019a 13       		.uleb128 0x13
 1894 019b 00       		.byte	0
 1895 019c 00       		.byte	0
 1896 019d 20       		.uleb128 0x20
 1897 019e 05       		.uleb128 0x5
 1898 019f 00       		.byte	0
 1899 01a0 03       		.uleb128 0x3
 1900 01a1 0E       		.uleb128 0xe
 1901 01a2 3A       		.uleb128 0x3a
 1902 01a3 0B       		.uleb128 0xb
 1903 01a4 3B       		.uleb128 0x3b
 1904 01a5 0B       		.uleb128 0xb
 1905 01a6 49       		.uleb128 0x49
 1906 01a7 13       		.uleb128 0x13
 1907 01a8 02       		.uleb128 0x2
 1908 01a9 18       		.uleb128 0x18
 1909 01aa 00       		.byte	0
 1910 01ab 00       		.byte	0
 1911 01ac 21       		.uleb128 0x21
 1912 01ad 34       		.uleb128 0x34
 1913 01ae 00       		.byte	0
 1914 01af 03       		.uleb128 0x3
 1915 01b0 0E       		.uleb128 0xe
 1916 01b1 3A       		.uleb128 0x3a
 1917 01b2 0B       		.uleb128 0xb
 1918 01b3 3B       		.uleb128 0x3b
 1919 01b4 05       		.uleb128 0x5
 1920 01b5 49       		.uleb128 0x49
 1921 01b6 13       		.uleb128 0x13
 1922 01b7 3F       		.uleb128 0x3f
 1923 01b8 19       		.uleb128 0x19
 1924 01b9 3C       		.uleb128 0x3c
 1925 01ba 19       		.uleb128 0x19
 1926 01bb 00       		.byte	0
 1927 01bc 00       		.byte	0
ARM GAS  C:\Users\Luis\AppData\Local\Temp\ccMDVwva.s 			page 35


 1928 01bd 22       		.uleb128 0x22
 1929 01be 34       		.uleb128 0x34
 1930 01bf 00       		.byte	0
 1931 01c0 03       		.uleb128 0x3
 1932 01c1 08       		.uleb128 0x8
 1933 01c2 3A       		.uleb128 0x3a
 1934 01c3 0B       		.uleb128 0xb
 1935 01c4 3B       		.uleb128 0x3b
 1936 01c5 05       		.uleb128 0x5
 1937 01c6 49       		.uleb128 0x49
 1938 01c7 13       		.uleb128 0x13
 1939 01c8 3F       		.uleb128 0x3f
 1940 01c9 19       		.uleb128 0x19
 1941 01ca 3C       		.uleb128 0x3c
 1942 01cb 19       		.uleb128 0x19
 1943 01cc 00       		.byte	0
 1944 01cd 00       		.byte	0
 1945 01ce 00       		.byte	0
 1946              		.section	.debug_aranges,"",%progbits
 1947 0000 2C000000 		.4byte	0x2c
 1948 0004 0200     		.2byte	0x2
 1949 0006 00000000 		.4byte	.Ldebug_info0
 1950 000a 04       		.byte	0x4
 1951 000b 00       		.byte	0
 1952 000c 0000     		.2byte	0
 1953 000e 0000     		.2byte	0
 1954 0010 00000000 		.4byte	.LFB260
 1955 0014 3C000000 		.4byte	.LFE260-.LFB260
 1956 0018 00000000 		.4byte	.LFB261
 1957 001c 54000000 		.4byte	.LFE261-.LFB261
 1958 0020 00000000 		.4byte	.LFB262
 1959 0024 44000000 		.4byte	.LFE262-.LFB262
 1960 0028 00000000 		.4byte	0
 1961 002c 00000000 		.4byte	0
 1962              		.section	.debug_ranges,"",%progbits
 1963              	.Ldebug_ranges0:
 1964 0000 00000000 		.4byte	.LFB260
 1965 0004 3C000000 		.4byte	.LFE260
 1966 0008 00000000 		.4byte	.LFB261
 1967 000c 54000000 		.4byte	.LFE261
 1968 0010 00000000 		.4byte	.LFB262
 1969 0014 44000000 		.4byte	.LFE262
 1970 0018 00000000 		.4byte	0
 1971 001c 00000000 		.4byte	0
 1972              		.section	.debug_line,"",%progbits
 1973              	.Ldebug_line0:
 1974 0000 48020000 		.section	.debug_str,"MS",%progbits,1
 1974      0200E401 
 1974      00000201 
 1974      FB0E0D00 
 1974      01010101 
 1975              	.LASF96:
 1976 0000 74625F70 		.ascii	"tb_ptr\000"
 1976      747200
 1977              	.LASF53:
 1978 0007 72656164 		.ascii	"ready_list_t\000"
 1978      795F6C69 
ARM GAS  C:\Users\Luis\AppData\Local\Temp\ccMDVwva.s 			page 36


 1978      73745F74 
 1978      00
 1979              	.LASF90:
 1980 0014 73655F74 		.ascii	"se_time\000"
 1980      696D6500 
 1981              	.LASF114:
 1982 001c 77747472 		.ascii	"wttrp\000"
 1982      7000
 1983              	.LASF111:
 1984 0022 7264796D 		.ascii	"rdymsg\000"
 1984      736700
 1985              	.LASF12:
 1986 0029 75696E74 		.ascii	"uint64_t\000"
 1986      36345F74 
 1986      00
 1987              	.LASF83:
 1988 0032 6B65726E 		.ascii	"kernel_stats\000"
 1988      656C5F73 
 1988      74617473 
 1988      00
 1989              	.LASF130:
 1990 003f 4F545950 		.ascii	"OTYPER\000"
 1990      455200
 1991              	.LASF89:
 1992 0046 706F7274 		.ascii	"port_intctx\000"
 1992      5F696E74 
 1992      63747800 
 1993              	.LASF52:
 1994 0052 63685F74 		.ascii	"ch_threads_queue\000"
 1994      68726561 
 1994      64735F71 
 1994      75657565 
 1994      00
 1995              	.LASF72:
 1996 0063 73797374 		.ascii	"system_debug_t\000"
 1996      656D5F64 
 1996      65627567 
 1996      5F7400
 1997              	.LASF138:
 1998 0072 696F706F 		.ascii	"ioportmask_t\000"
 1998      72746D61 
 1998      736B5F74 
 1998      00
 1999              	.LASF102:
 2000 007f 776F7273 		.ascii	"worst\000"
 2000      7400
 2001              	.LASF105:
 2002 0085 74696D65 		.ascii	"time_measurement_t\000"
 2002      5F6D6561 
 2002      73757265 
 2002      6D656E74 
 2002      5F7400
 2003              	.LASF129:
 2004 0098 4D4F4445 		.ascii	"MODER\000"
 2004      5200
 2005              	.LASF13:
 2006 009e 6C6F6E67 		.ascii	"long long unsigned int\000"
ARM GAS  C:\Users\Luis\AppData\Local\Temp\ccMDVwva.s 			page 37


 2006      206C6F6E 
 2006      6720756E 
 2006      7369676E 
 2006      65642069 
 2007              	.LASF98:
 2008 00b5 63685F74 		.ascii	"ch_trace_buffer_t\000"
 2008      72616365 
 2008      5F627566 
 2008      6665725F 
 2008      7400
 2009              	.LASF93:
 2010 00c7 73655F73 		.ascii	"se_state\000"
 2010      74617465 
 2010      00
 2011              	.LASF132:
 2012 00d0 50555044 		.ascii	"PUPDR\000"
 2012      5200
 2013              	.LASF112:
 2014 00d6 65786974 		.ascii	"exitcode\000"
 2014      636F6465 
 2014      00
 2015              	.LASF82:
 2016 00df 6D61696E 		.ascii	"mainthread\000"
 2016      74687265 
 2016      616400
 2017              	.LASF69:
 2018 00ea 76697274 		.ascii	"virtual_timers_list_t\000"
 2018      75616C5F 
 2018      74696D65 
 2018      72735F6C 
 2018      6973745F 
 2019              	.LASF149:
 2020 0100 49544D5F 		.ascii	"ITM_RxBuffer\000"
 2020      52784275 
 2020      66666572 
 2020      00
 2021              	.LASF16:
 2022 010d 72747469 		.ascii	"rttime_t\000"
 2022      6D655F74 
 2022      00
 2023              	.LASF29:
 2024 0116 705F7072 		.ascii	"p_prio\000"
 2024      696F00
 2025              	.LASF11:
 2026 011d 6C6F6E67 		.ascii	"long long int\000"
 2026      206C6F6E 
 2026      6720696E 
 2026      7400
 2027              	.LASF1:
 2028 012b 7369676E 		.ascii	"signed char\000"
 2028      65642063 
 2028      68617200 
 2029              	.LASF133:
 2030 0137 42535252 		.ascii	"BSRR\000"
 2030      00
 2031              	.LASF44:
 2032 013c 705F6D70 		.ascii	"p_mpool\000"
ARM GAS  C:\Users\Luis\AppData\Local\Temp\ccMDVwva.s 			page 38


 2032      6F6F6C00 
 2033              	.LASF122:
 2034 0144 6D5F7175 		.ascii	"m_queue\000"
 2034      65756500 
 2035              	.LASF81:
 2036 014c 76746C69 		.ascii	"vtlist\000"
 2036      737400
 2037              	.LASF144:
 2038 0153 62697473 		.ascii	"bits\000"
 2038      00
 2039              	.LASF8:
 2040 0158 6C6F6E67 		.ascii	"long int\000"
 2040      20696E74 
 2040      00
 2041              	.LASF18:
 2042 0161 74737461 		.ascii	"tstate_t\000"
 2042      74655F74 
 2042      00
 2043              	.LASF91:
 2044 016a 73655F74 		.ascii	"se_tp\000"
 2044      7000
 2045              	.LASF5:
 2046 0170 75696E74 		.ascii	"uint16_t\000"
 2046      31365F74 
 2046      00
 2047              	.LASF31:
 2048 0179 705F6E65 		.ascii	"p_newer\000"
 2048      77657200 
 2049              	.LASF119:
 2050 0181 735F7175 		.ascii	"s_queue\000"
 2050      65756500 
 2051              	.LASF95:
 2052 0189 74625F73 		.ascii	"tb_size\000"
 2052      697A6500 
 2053              	.LASF131:
 2054 0191 4F535045 		.ascii	"OSPEEDR\000"
 2054      45445200 
 2055              	.LASF58:
 2056 0199 725F6E65 		.ascii	"r_newer\000"
 2056      77657200 
 2057              	.LASF142:
 2058 01a1 6D61736B 		.ascii	"mask\000"
 2058      00
 2059              	.LASF151:
 2060 01a6 2E2E2F2E 		.ascii	"../../ChibiOS/os/hal/src/pal.c\000"
 2060      2E2F4368 
 2060      6962694F 
 2060      532F6F73 
 2060      2F68616C 
 2061              	.LASF65:
 2062 01c5 76745F70 		.ascii	"vt_prev\000"
 2062      72657600 
 2063              	.LASF152:
 2064 01cd 433A5C55 		.ascii	"C:\\Users\\Luis\\git\\DSP-Library-Lanin\\examples\\"
 2064      73657273 
 2064      5C4C7569 
 2064      735C6769 
ARM GAS  C:\Users\Luis\AppData\Local\Temp\ccMDVwva.s 			page 39


 2064      745C4453 
 2065 01fa 53544D33 		.ascii	"STM32F407_EMTECH-LWIP\000"
 2065      32463430 
 2065      375F454D 
 2065      54454348 
 2065      2D4C5749 
 2066              	.LASF73:
 2067 0210 63685F73 		.ascii	"ch_system_debug\000"
 2067      79737465 
 2067      6D5F6465 
 2067      62756700 
 2068              	.LASF137:
 2069 0220 73746D33 		.ascii	"stm32_gpio_t\000"
 2069      325F6770 
 2069      696F5F74 
 2069      00
 2070              	.LASF126:
 2071 022d 6D757465 		.ascii	"mutex_t\000"
 2071      785F7400 
 2072              	.LASF76:
 2073 0235 6C6F636B 		.ascii	"lock_cnt\000"
 2073      5F636E74 
 2073      00
 2074              	.LASF143:
 2075 023e 494F4275 		.ascii	"IOBus\000"
 2075      7300
 2076              	.LASF23:
 2077 0244 636E745F 		.ascii	"cnt_t\000"
 2077      7400
 2078              	.LASF34:
 2079 024a 705F7374 		.ascii	"p_stklimit\000"
 2079      6B6C696D 
 2079      697400
 2080              	.LASF0:
 2081 0255 756E7369 		.ascii	"unsigned int\000"
 2081      676E6564 
 2081      20696E74 
 2081      00
 2082              	.LASF64:
 2083 0262 76745F6E 		.ascii	"vt_next\000"
 2083      65787400 
 2084              	.LASF115:
 2085 026a 77747365 		.ascii	"wtsemp\000"
 2085      6D7000
 2086              	.LASF39:
 2087 0271 705F6D73 		.ascii	"p_msgqueue\000"
 2087      67717565 
 2087      756500
 2088              	.LASF46:
 2089 027c 746C7350 		.ascii	"tlsPtr\000"
 2089      747200
 2090              	.LASF134:
 2091 0283 4C434B52 		.ascii	"LCKR\000"
 2091      00
 2092              	.LASF106:
 2093 0288 6E5F6972 		.ascii	"n_irq\000"
 2093      7100
ARM GAS  C:\Users\Luis\AppData\Local\Temp\ccMDVwva.s 			page 40


 2094              	.LASF120:
 2095 028e 735F636E 		.ascii	"s_cnt\000"
 2095      7400
 2096              	.LASF6:
 2097 0294 73686F72 		.ascii	"short unsigned int\000"
 2097      7420756E 
 2097      7369676E 
 2097      65642069 
 2097      6E7400
 2098              	.LASF110:
 2099 02a7 6B65726E 		.ascii	"kernel_stats_t\000"
 2099      656C5F73 
 2099      74617473 
 2099      5F7400
 2100              	.LASF49:
 2101 02b6 63685F74 		.ascii	"ch_thread\000"
 2101      68726561 
 2101      6400
 2102              	.LASF21:
 2103 02c0 6D73675F 		.ascii	"msg_t\000"
 2103      7400
 2104              	.LASF103:
 2105 02c6 6C617374 		.ascii	"last\000"
 2105      00
 2106              	.LASF24:
 2107 02cb 75636E74 		.ascii	"ucnt_t\000"
 2107      5F7400
 2108              	.LASF78:
 2109 02d2 63685F73 		.ascii	"ch_system_t\000"
 2109      79737465 
 2109      6D5F7400 
 2110              	.LASF17:
 2111 02de 746D6F64 		.ascii	"tmode_t\000"
 2111      655F7400 
 2112              	.LASF109:
 2113 02e6 6D5F6372 		.ascii	"m_crit_isr\000"
 2113      69745F69 
 2113      737200
 2114              	.LASF54:
 2115 02f1 63685F72 		.ascii	"ch_ready_list\000"
 2115      65616479 
 2115      5F6C6973 
 2115      7400
 2116              	.LASF22:
 2117 02ff 6576656E 		.ascii	"eventmask_t\000"
 2117      746D6173 
 2117      6B5F7400 
 2118              	.LASF84:
 2119 030b 69646C65 		.ascii	"idle_thread_wa\000"
 2119      5F746872 
 2119      6561645F 
 2119      776100
 2120              	.LASF87:
 2121 031a 73746B61 		.ascii	"stkalign_t\000"
 2121      6C69676E 
 2121      5F7400
 2122              	.LASF38:
ARM GAS  C:\Users\Luis\AppData\Local\Temp\ccMDVwva.s 			page 41


 2123 0325 705F7761 		.ascii	"p_waiting\000"
 2123      6974696E 
 2123      6700
 2124              	.LASF85:
 2125 032f 73697A65 		.ascii	"sizetype\000"
 2125      74797065 
 2125      00
 2126              	.LASF47:
 2127 0338 74687265 		.ascii	"thread_reference_t\000"
 2127      61645F72 
 2127      65666572 
 2127      656E6365 
 2127      5F7400
 2128              	.LASF70:
 2129 034b 63685F76 		.ascii	"ch_virtual_timers_list\000"
 2129      69727475 
 2129      616C5F74 
 2129      696D6572 
 2129      735F6C69 
 2130              	.LASF128:
 2131 0362 636C6561 		.ascii	"clear\000"
 2131      7200
 2132              	.LASF94:
 2133 0368 63685F73 		.ascii	"ch_swc_event_t\000"
 2133      77635F65 
 2133      76656E74 
 2133      5F7400
 2134              	.LASF71:
 2135 0377 76745F6C 		.ascii	"vt_lasttime\000"
 2135      61737474 
 2135      696D6500 
 2136              	.LASF32:
 2137 0383 705F6F6C 		.ascii	"p_older\000"
 2137      64657200 
 2138              	.LASF57:
 2139 038b 725F6374 		.ascii	"r_ctx\000"
 2139      7800
 2140              	.LASF100:
 2141 0391 746D5F63 		.ascii	"tm_calibration_t\000"
 2141      616C6962 
 2141      72617469 
 2141      6F6E5F74 
 2141      00
 2142              	.LASF60:
 2143 03a2 725F6375 		.ascii	"r_current\000"
 2143      7272656E 
 2143      7400
 2144              	.LASF59:
 2145 03ac 725F6F6C 		.ascii	"r_older\000"
 2145      64657200 
 2146              	.LASF141:
 2147 03b4 706F7274 		.ascii	"portid\000"
 2147      696400
 2148              	.LASF136:
 2149 03bb 41465248 		.ascii	"AFRH\000"
 2149      00
 2150              	.LASF104:
ARM GAS  C:\Users\Luis\AppData\Local\Temp\ccMDVwva.s 			page 42


 2151 03c0 63756D75 		.ascii	"cumulative\000"
 2151      6C617469 
 2151      766500
 2152              	.LASF147:
 2153 03cb 70616C53 		.ascii	"palSetBusMode\000"
 2153      65744275 
 2153      734D6F64 
 2153      6500
 2154              	.LASF135:
 2155 03d9 4146524C 		.ascii	"AFRL\000"
 2155      00
 2156              	.LASF19:
 2157 03de 74726566 		.ascii	"trefs_t\000"
 2157      735F7400 
 2158              	.LASF97:
 2159 03e6 74625F62 		.ascii	"tb_buffer\000"
 2159      75666665 
 2159      7200
 2160              	.LASF62:
 2161 03f0 76697274 		.ascii	"virtual_timer_t\000"
 2161      75616C5F 
 2161      74696D65 
 2161      725F7400 
 2162              	.LASF28:
 2163 0400 705F7072 		.ascii	"p_prev\000"
 2163      657600
 2164              	.LASF20:
 2165 0407 74707269 		.ascii	"tprio_t\000"
 2165      6F5F7400 
 2166              	.LASF107:
 2167 040f 6E5F6374 		.ascii	"n_ctxswc\000"
 2167      78737763 
 2167      00
 2168              	.LASF127:
 2169 0418 5F426F6F 		.ascii	"_Bool\000"
 2169      6C00
 2170              	.LASF7:
 2171 041e 696E7433 		.ascii	"int32_t\000"
 2171      325F7400 
 2172              	.LASF2:
 2173 0426 756E7369 		.ascii	"unsigned char\000"
 2173      676E6564 
 2173      20636861 
 2173      7200
 2174              	.LASF42:
 2175 0434 705F6D74 		.ascii	"p_mtxlist\000"
 2175      786C6973 
 2175      7400
 2176              	.LASF3:
 2177 043e 73686F72 		.ascii	"short int\000"
 2177      7420696E 
 2177      7400
 2178              	.LASF35:
 2179 0448 705F7374 		.ascii	"p_state\000"
 2179      61746500 
 2180              	.LASF56:
 2181 0450 725F7072 		.ascii	"r_prio\000"
ARM GAS  C:\Users\Luis\AppData\Local\Temp\ccMDVwva.s 			page 43


 2181      696F00
 2182              	.LASF117:
 2183 0457 65776D61 		.ascii	"ewmask\000"
 2183      736B00
 2184              	.LASF27:
 2185 045e 705F6E65 		.ascii	"p_next\000"
 2185      787400
 2186              	.LASF14:
 2187 0465 75696E74 		.ascii	"uint_fast8_t\000"
 2187      5F666173 
 2187      74385F74 
 2187      00
 2188              	.LASF36:
 2189 0472 705F666C 		.ascii	"p_flags\000"
 2189      61677300 
 2190              	.LASF145:
 2191 047a 5F5F6675 		.ascii	"__func__\000"
 2191      6E635F5F 
 2191      00
 2192              	.LASF45:
 2193 0483 705F7374 		.ascii	"p_stats\000"
 2193      61747300 
 2194              	.LASF79:
 2195 048b 63685F73 		.ascii	"ch_system\000"
 2195      79737465 
 2195      6D00
 2196              	.LASF63:
 2197 0495 63685F76 		.ascii	"ch_virtual_timer\000"
 2197      69727475 
 2197      616C5F74 
 2197      696D6572 
 2197      00
 2198              	.LASF118:
 2199 04a6 63685F73 		.ascii	"ch_semaphore\000"
 2199      656D6170 
 2199      686F7265 
 2199      00
 2200              	.LASF41:
 2201 04b3 705F6570 		.ascii	"p_epending\000"
 2201      656E6469 
 2201      6E6700
 2202              	.LASF9:
 2203 04be 75696E74 		.ascii	"uint32_t\000"
 2203      33325F74 
 2203      00
 2204              	.LASF86:
 2205 04c7 72656761 		.ascii	"regarm_t\000"
 2205      726D5F74 
 2205      00
 2206              	.LASF55:
 2207 04d0 725F7175 		.ascii	"r_queue\000"
 2207      65756500 
 2208              	.LASF66:
 2209 04d8 76745F64 		.ascii	"vt_delta\000"
 2209      656C7461 
 2209      00
 2210              	.LASF50:
ARM GAS  C:\Users\Luis\AppData\Local\Temp\ccMDVwva.s 			page 44


 2211 04e1 63685F74 		.ascii	"ch_threads_list\000"
 2211      68726561 
 2211      64735F6C 
 2211      69737400 
 2212              	.LASF10:
 2213 04f1 6C6F6E67 		.ascii	"long unsigned int\000"
 2213      20756E73 
 2213      69676E65 
 2213      6420696E 
 2213      7400
 2214              	.LASF125:
 2215 0503 63686172 		.ascii	"char\000"
 2215      00
 2216              	.LASF148:
 2217 0508 6D6F6465 		.ascii	"mode\000"
 2217      00
 2218              	.LASF153:
 2219 050d 70616C52 		.ascii	"palReadBus\000"
 2219      65616442 
 2219      757300
 2220              	.LASF116:
 2221 0518 77746D74 		.ascii	"wtmtxp\000"
 2221      787000
 2222              	.LASF150:
 2223 051f 474E5520 		.ascii	"GNU C 4.8.3 20131129 (release) [ARM/embedded-4_8-br"
 2223      4320342E 
 2223      382E3320 
 2223      32303133 
 2223      31313239 
 2224 0552 616E6368 		.ascii	"anch revision 205641] -mcpu=cortex-m4 -mapcs-frame "
 2224      20726576 
 2224      6973696F 
 2224      6E203230 
 2224      35363431 
 2225 0585 2D6D6E6F 		.ascii	"-mno-thumb-interwork -mthumb -ggdb -O0 -falign-func"
 2225      2D746875 
 2225      6D622D69 
 2225      6E746572 
 2225      776F726B 
 2226 05b8 74696F6E 		.ascii	"tions=16 -ffunction-sections -fdata-sections -fno-c"
 2226      733D3136 
 2226      202D6666 
 2226      756E6374 
 2226      696F6E2D 
 2227 05eb 6F6D6D6F 		.ascii	"ommon\000"
 2227      6E00
 2228              	.LASF101:
 2229 05f1 62657374 		.ascii	"best\000"
 2229      00
 2230              	.LASF124:
 2231 05f6 6D5F6E65 		.ascii	"m_next\000"
 2231      787400
 2232              	.LASF25:
 2233 05fd 73797374 		.ascii	"systime_t\000"
 2233      696D655F 
 2233      7400
 2234              	.LASF43:
ARM GAS  C:\Users\Luis\AppData\Local\Temp\ccMDVwva.s 			page 45


 2235 0607 705F7265 		.ascii	"p_realprio\000"
 2235      616C7072 
 2235      696F00
 2236              	.LASF61:
 2237 0612 76746675 		.ascii	"vtfunc_t\000"
 2237      6E635F74 
 2237      00
 2238              	.LASF74:
 2239 061b 70616E69 		.ascii	"panic_msg\000"
 2239      635F6D73 
 2239      6700
 2240              	.LASF99:
 2241 0625 6F666673 		.ascii	"offset\000"
 2241      657400
 2242              	.LASF140:
 2243 062c 696F706F 		.ascii	"ioportid_t\000"
 2243      72746964 
 2243      5F7400
 2244              	.LASF88:
 2245 0637 636F6E74 		.ascii	"context\000"
 2245      65787400 
 2246              	.LASF15:
 2247 063f 7274636E 		.ascii	"rtcnt_t\000"
 2247      745F7400 
 2248              	.LASF68:
 2249 0647 76745F70 		.ascii	"vt_par\000"
 2249      617200
 2250              	.LASF146:
 2251 064e 70616C57 		.ascii	"palWriteBus\000"
 2251      72697465 
 2251      42757300 
 2252              	.LASF51:
 2253 065a 74687265 		.ascii	"threads_queue_t\000"
 2253      6164735F 
 2253      71756575 
 2253      655F7400 
 2254              	.LASF121:
 2255 066a 63685F6D 		.ascii	"ch_mutex\000"
 2255      75746578 
 2255      00
 2256              	.LASF37:
 2257 0673 705F7265 		.ascii	"p_refs\000"
 2257      667300
 2258              	.LASF75:
 2259 067a 6973725F 		.ascii	"isr_cnt\000"
 2259      636E7400 
 2260              	.LASF26:
 2261 0682 74687265 		.ascii	"thread_t\000"
 2261      61645F74 
 2261      00
 2262              	.LASF80:
 2263 068b 726C6973 		.ascii	"rlist\000"
 2263      7400
 2264              	.LASF4:
 2265 0691 75696E74 		.ascii	"uint8_t\000"
 2265      385F7400 
 2266              	.LASF113:
ARM GAS  C:\Users\Luis\AppData\Local\Temp\ccMDVwva.s 			page 46


 2267 0699 77746F62 		.ascii	"wtobjp\000"
 2267      6A7000
 2268              	.LASF33:
 2269 06a0 705F6E61 		.ascii	"p_name\000"
 2269      6D6500
 2270              	.LASF48:
 2271 06a7 74687265 		.ascii	"threads_list_t\000"
 2271      6164735F 
 2271      6C697374 
 2271      5F7400
 2272              	.LASF77:
 2273 06b6 74726163 		.ascii	"trace_buffer\000"
 2273      655F6275 
 2273      66666572 
 2273      00
 2274              	.LASF40:
 2275 06c3 705F6D73 		.ascii	"p_msg\000"
 2275      6700
 2276              	.LASF139:
 2277 06c9 696F6D6F 		.ascii	"iomode_t\000"
 2277      64655F74 
 2277      00
 2278              	.LASF108:
 2279 06d2 6D5F6372 		.ascii	"m_crit_thd\000"
 2279      69745F74 
 2279      686400
 2280              	.LASF123:
 2281 06dd 6D5F6F77 		.ascii	"m_owner\000"
 2281      6E657200 
 2282              	.LASF92:
 2283 06e5 73655F77 		.ascii	"se_wtobjp\000"
 2283      746F626A 
 2283      7000
 2284              	.LASF30:
 2285 06ef 705F6374 		.ascii	"p_ctx\000"
 2285      7800
 2286              	.LASF67:
 2287 06f5 76745F66 		.ascii	"vt_func\000"
 2287      756E6300 
 2288              		.ident	"GCC: (GNU Tools for ARM Embedded Processors) 4.8.3 20131129 (release) [ARM/embedded-4_8-br
ARM GAS  C:\Users\Luis\AppData\Local\Temp\ccMDVwva.s 			page 47


DEFINED SYMBOLS
                            *ABS*:00000000 pal.c
C:\Users\Luis\AppData\Local\Temp\ccMDVwva.s:19     .text.palReadBus:00000000 $t
C:\Users\Luis\AppData\Local\Temp\ccMDVwva.s:25     .text.palReadBus:00000000 palReadBus
C:\Users\Luis\AppData\Local\Temp\ccMDVwva.s:74     .text.palReadBus:00000038 $d
C:\Users\Luis\AppData\Local\Temp\ccMDVwva.s:213    .rodata.__func__.7906:00000000 __func__.7906
C:\Users\Luis\AppData\Local\Temp\ccMDVwva.s:79     .text.palWriteBus:00000000 $t
C:\Users\Luis\AppData\Local\Temp\ccMDVwva.s:85     .text.palWriteBus:00000000 palWriteBus
C:\Users\Luis\AppData\Local\Temp\ccMDVwva.s:144    .text.palWriteBus:00000050 $d
C:\Users\Luis\AppData\Local\Temp\ccMDVwva.s:219    .rodata.__func__.7911:00000000 __func__.7911
C:\Users\Luis\AppData\Local\Temp\ccMDVwva.s:149    .text.palSetBusMode:00000000 $t
C:\Users\Luis\AppData\Local\Temp\ccMDVwva.s:155    .text.palSetBusMode:00000000 palSetBusMode
C:\Users\Luis\AppData\Local\Temp\ccMDVwva.s:205    .text.palSetBusMode:00000040 $d
C:\Users\Luis\AppData\Local\Temp\ccMDVwva.s:225    .rodata.__func__.7916:00000000 __func__.7916
C:\Users\Luis\AppData\Local\Temp\ccMDVwva.s:210    .rodata.__func__.7906:00000000 $d
C:\Users\Luis\AppData\Local\Temp\ccMDVwva.s:216    .rodata.__func__.7911:00000000 $d
C:\Users\Luis\AppData\Local\Temp\ccMDVwva.s:222    .rodata.__func__.7916:00000000 $d
                     .debug_frame:00000010 $d
C:\Users\Luis\AppData\Local\Temp\ccMDVwva.s:78     .text.palReadBus:0000003c $t
C:\Users\Luis\AppData\Local\Temp\ccMDVwva.s:148    .text.palWriteBus:00000054 $t
C:\Users\Luis\AppData\Local\Temp\ccMDVwva.s:209    .text.palSetBusMode:00000044 $t

UNDEFINED SYMBOLS
chSysHalt
_pal_lld_setgroupmode
