ARM GAS  C:\Users\Luis\AppData\Local\Temp\ccMDVwva.s 			page 1


   1              		.syntax unified
   2              		.cpu cortex-m4
   3              		.fpu softvfp
   4              		.eabi_attribute 20, 1
   5              		.eabi_attribute 21, 1
   6              		.eabi_attribute 23, 3
   7              		.eabi_attribute 24, 1
   8              		.eabi_attribute 25, 1
   9              		.eabi_attribute 26, 1
  10              		.eabi_attribute 30, 6
  11              		.eabi_attribute 34, 1
  12              		.eabi_attribute 18, 4
  13              		.thumb
  14              		.file	"pal.c"
  15              		.text
  16              	.Ltext0:
  17              		.cfi_sections	.debug_frame
  18              		.section	.text.palReadBus,"ax",%progbits
  19              		.align	2
  20              		.p2align 4,,15
  21              		.global	palReadBus
  22              		.thumb
  23              		.thumb_func
  24              		.type	palReadBus, %function
  25              	palReadBus:
  26              	.LFB260:
  27              		.file 1 "../../ChibiOS/os/hal/src/pal.c"
  28              		.loc 1 65 0
  29              		.cfi_startproc
  30              		@ args = 0, pretend = 0, frame = 8
  31              		@ frame_needed = 1, uses_anonymous_args = 0
  32 0000 80B5     		push	{r7, lr}
  33              		.cfi_def_cfa_offset 8
  34              		.cfi_offset 7, -8
  35              		.cfi_offset 14, -4
  36 0002 82B0     		sub	sp, sp, #8
  37              		.cfi_def_cfa_offset 16
  38 0004 00AF     		add	r7, sp, #0
  39              		.cfi_def_cfa_register 7
  40 0006 7860     		str	r0, [r7, #4]
  41              		.loc 1 67 0
  42 0008 7B68     		ldr	r3, [r7, #4]
  43 000a 002B     		cmp	r3, #0
  44 000c 03D0     		beq	.L2
  45              		.loc 1 67 0 is_stmt 0 discriminator 2
  46 000e 7B68     		ldr	r3, [r7, #4]
  47 0010 9B68     		ldr	r3, [r3, #8]
  48 0012 0F2B     		cmp	r3, #15
  49 0014 02D9     		bls	.L3
  50              	.L2:
  51              		.loc 1 67 0 discriminator 1
  52 0016 0848     		ldr	r0, .L5
  53 0018 FFF7FEFF 		bl	chSysHalt
  54              	.L3:
  55              		.loc 1 69 0 is_stmt 1
  56 001c 7B68     		ldr	r3, [r7, #4]
  57 001e 1B68     		ldr	r3, [r3]
ARM GAS  C:\Users\Luis\AppData\Local\Temp\ccMDVwva.s 			page 2


  58 0020 1A69     		ldr	r2, [r3, #16]
  59 0022 7B68     		ldr	r3, [r7, #4]
  60 0024 9B68     		ldr	r3, [r3, #8]
  61 0026 DA40     		lsrs	r2, r2, r3
  62 0028 7B68     		ldr	r3, [r7, #4]
  63 002a 5B68     		ldr	r3, [r3, #4]
  64 002c 1340     		ands	r3, r3, r2
  65              		.loc 1 70 0
  66 002e 1846     		mov	r0, r3
  67 0030 0837     		adds	r7, r7, #8
  68 0032 BD46     		mov	sp, r7
  69              		@ sp needed
  70 0034 80BD     		pop	{r7, pc}
  71              	.L6:
  72 0036 00BF     		.align	2
  73              	.L5:
  74 0038 00000000 		.word	__func__.7906
  75              		.cfi_endproc
  76              	.LFE260:
  77              		.size	palReadBus, .-palReadBus
  78 003c AFF30080 		.section	.text.palWriteBus,"ax",%progbits
  79              		.align	2
  80              		.p2align 4,,15
  81              		.global	palWriteBus
  82              		.thumb
  83              		.thumb_func
  84              		.type	palWriteBus, %function
  85              	palWriteBus:
  86              	.LFB261:
  87              		.loc 1 90 0
  88              		.cfi_startproc
  89              		@ args = 0, pretend = 0, frame = 8
  90              		@ frame_needed = 1, uses_anonymous_args = 0
  91 0000 80B5     		push	{r7, lr}
  92              		.cfi_def_cfa_offset 8
  93              		.cfi_offset 7, -8
  94              		.cfi_offset 14, -4
  95 0002 82B0     		sub	sp, sp, #8
  96              		.cfi_def_cfa_offset 16
  97 0004 00AF     		add	r7, sp, #0
  98              		.cfi_def_cfa_register 7
  99 0006 7860     		str	r0, [r7, #4]
 100 0008 3960     		str	r1, [r7]
 101              		.loc 1 92 0
 102 000a 7B68     		ldr	r3, [r7, #4]
 103 000c 002B     		cmp	r3, #0
 104 000e 03D0     		beq	.L8
 105              		.loc 1 92 0 is_stmt 0 discriminator 2
 106 0010 7B68     		ldr	r3, [r7, #4]
 107 0012 9B68     		ldr	r3, [r3, #8]
 108 0014 0F2B     		cmp	r3, #15
 109 0016 02D9     		bls	.L9
 110              	.L8:
 111              		.loc 1 92 0 discriminator 1
 112 0018 0D48     		ldr	r0, .L10
 113 001a FFF7FEFF 		bl	chSysHalt
 114              	.L9:
ARM GAS  C:\Users\Luis\AppData\Local\Temp\ccMDVwva.s 			page 3


 115              		.loc 1 94 0 is_stmt 1
 116 001e 7B68     		ldr	r3, [r7, #4]
 117 0020 1B68     		ldr	r3, [r3]
 118 0022 3A68     		ldr	r2, [r7]
 119 0024 D143     		mvns	r1, r2
 120 0026 7A68     		ldr	r2, [r7, #4]
 121 0028 5268     		ldr	r2, [r2, #4]
 122 002a 1140     		ands	r1, r1, r2
 123 002c 7A68     		ldr	r2, [r7, #4]
 124 002e 9268     		ldr	r2, [r2, #8]
 125 0030 1032     		adds	r2, r2, #16
 126 0032 9140     		lsls	r1, r1, r2
 127 0034 7A68     		ldr	r2, [r7, #4]
 128 0036 5068     		ldr	r0, [r2, #4]
 129 0038 3A68     		ldr	r2, [r7]
 130 003a 1040     		ands	r0, r0, r2
 131 003c 7A68     		ldr	r2, [r7, #4]
 132 003e 9268     		ldr	r2, [r2, #8]
 133 0040 00FA02F2 		lsl	r2, r0, r2
 134 0044 0A43     		orrs	r2, r2, r1
 135 0046 9A61     		str	r2, [r3, #24]
 136              		.loc 1 95 0
 137 0048 0837     		adds	r7, r7, #8
 138 004a BD46     		mov	sp, r7
 139              		@ sp needed
 140 004c 80BD     		pop	{r7, pc}
 141              	.L11:
 142 004e 00BF     		.align	2
 143              	.L10:
 144 0050 00000000 		.word	__func__.7911
 145              		.cfi_endproc
 146              	.LFE261:
 147              		.size	palWriteBus, .-palWriteBus
 148 0054 AFF30080 		.section	.text.palSetBusMode,"ax",%progbits
 148      AFF30080 
 148      AFF30080 
 149              		.align	2
 150              		.p2align 4,,15
 151              		.global	palSetBusMode
 152              		.thumb
 153              		.thumb_func
 154              		.type	palSetBusMode, %function
 155              	palSetBusMode:
 156              	.LFB262:
 157              		.loc 1 113 0
 158              		.cfi_startproc
 159              		@ args = 0, pretend = 0, frame = 8
 160              		@ frame_needed = 1, uses_anonymous_args = 0
 161 0000 80B5     		push	{r7, lr}
 162              		.cfi_def_cfa_offset 8
 163              		.cfi_offset 7, -8
 164              		.cfi_offset 14, -4
 165 0002 82B0     		sub	sp, sp, #8
 166              		.cfi_def_cfa_offset 16
 167 0004 00AF     		add	r7, sp, #0
 168              		.cfi_def_cfa_register 7
 169 0006 7860     		str	r0, [r7, #4]
ARM GAS  C:\Users\Luis\AppData\Local\Temp\ccMDVwva.s 			page 4


 170 0008 3960     		str	r1, [r7]
 171              		.loc 1 115 0
 172 000a 7B68     		ldr	r3, [r7, #4]
 173 000c 002B     		cmp	r3, #0
 174 000e 03D0     		beq	.L13
 175              		.loc 1 115 0 is_stmt 0 discriminator 2
 176 0010 7B68     		ldr	r3, [r7, #4]
 177 0012 9B68     		ldr	r3, [r3, #8]
 178 0014 0F2B     		cmp	r3, #15
 179 0016 02D9     		bls	.L14
 180              	.L13:
 181              		.loc 1 115 0 discriminator 1
 182 0018 0948     		ldr	r0, .L15
 183 001a FFF7FEFF 		bl	chSysHalt
 184              	.L14:
 185              		.loc 1 117 0 is_stmt 1
 186 001e 7B68     		ldr	r3, [r7, #4]
 187 0020 1A68     		ldr	r2, [r3]
 188 0022 7B68     		ldr	r3, [r7, #4]
 189 0024 5968     		ldr	r1, [r3, #4]
 190 0026 7B68     		ldr	r3, [r7, #4]
 191 0028 9B68     		ldr	r3, [r3, #8]
 192 002a 01FA03F3 		lsl	r3, r1, r3
 193 002e 1046     		mov	r0, r2
 194 0030 1946     		mov	r1, r3
 195 0032 3A68     		ldr	r2, [r7]
 196 0034 FFF7FEFF 		bl	_pal_lld_setgroupmode
 197              		.loc 1 118 0
 198 0038 0837     		adds	r7, r7, #8
 199 003a BD46     		mov	sp, r7
 200              		@ sp needed
 201 003c 80BD     		pop	{r7, pc}
 202              	.L16:
 203 003e 00BF     		.align	2
 204              	.L15:
 205 0040 00000000 		.word	__func__.7916
 206              		.cfi_endproc
 207              	.LFE262:
 208              		.size	palSetBusMode, .-palSetBusMode
 209 0044 AFF30080 		.section	.rodata.__func__.7906,"a",%progbits
 209      AFF30080 
 209      AFF30080 
 210              		.align	2
 211              		.type	__func__.7906, %object
 212              		.size	__func__.7906, 11
 213              	__func__.7906:
 214 0000 70616C52 		.ascii	"palReadBus\000"
 214      65616442 
 214      757300
 215 000b 00       		.section	.rodata.__func__.7911,"a",%progbits
 216              		.align	2
 217              		.type	__func__.7911, %object
 218              		.size	__func__.7911, 12
 219              	__func__.7911:
 220 0000 70616C57 		.ascii	"palWriteBus\000"
 220      72697465 
 220      42757300 
ARM GAS  C:\Users\Luis\AppData\Local\Temp\ccMDVwva.s 			page 5


 221              		.section	.rodata.__func__.7916,"a",%progbits
 222              		.align	2
 223              		.type	__func__.7916, %object
 224              		.size	__func__.7916, 14
 225              	__func__.7916:
 226 0000 70616C53 		.ascii	"palSetBusMode\000"
 226      65744275 
 226      734D6F64 
 226      6500
 227 000e 0000     		.text
 228              	.Letext0:
 229              		.file 2 "c:\\emtechesdk\\gcc\\arm-none-eabi\\include\\stdint.h"
 230              		.file 3 "../../ChibiOS/os/rt/ports/ARMCMx/compilers/GCC/chtypes.h"
 231              		.file 4 "../../ChibiOS/os/rt/include/chsystypes.h"
 232              		.file 5 "../../ChibiOS/os/rt/include/chschd.h"
 233              		.file 6 "../../ChibiOS/os/rt/ports/ARMCMx/chcore.h"
 234              		.file 7 "../../ChibiOS/os/rt/ports/ARMCMx/chcore_v7m.h"
 235              		.file 8 "../../ChibiOS/os/rt/include/chdebug.h"
 236              		.file 9 "../../ChibiOS/os/rt/include/chtm.h"
 237              		.file 10 "../../ChibiOS/os/rt/include/chstats.h"
 238              		.file 11 "../../ChibiOS/os/rt/include/chsem.h"
 239              		.file 12 "../../ChibiOS/os/rt/include/chmtx.h"
 240              		.file 13 "../../ChibiOS/os/hal/ports/STM32/LLD/GPIOv2/pal_lld.h"
 241              		.file 14 "../../ChibiOS/os/hal/include/pal.h"
 242              		.file 15 "../../ChibiOS/os/ext/CMSIS/include/core_cm4.h"