ARM GAS  C:\Users\Luis\AppData\Local\Temp\cc1uv7VI.s 			page 1


   1              		.syntax unified
   2              		.cpu cortex-m4
   3              		.fpu softvfp
   4              		.eabi_attribute 20, 1
   5              		.eabi_attribute 21, 1
   6              		.eabi_attribute 23, 3
   7              		.eabi_attribute 24, 1
   8              		.eabi_attribute 25, 1
   9              		.eabi_attribute 26, 1
  10              		.eabi_attribute 30, 6
  11              		.eabi_attribute 34, 1
  12              		.eabi_attribute 18, 4
  13              		.thumb
  14              		.file	"pbuf.c"
  15              		.text
  16              	.Ltext0:
  17              		.cfi_sections	.debug_frame
  18              		.section	.text.osalSysHalt,"ax",%progbits
  19              		.align	2
  20              		.p2align 4,,15
  21              		.thumb
  22              		.thumb_func
  23              		.type	osalSysHalt, %function
  24              	osalSysHalt:
  25              	.LFB230:
  26              		.file 1 "../../ChibiOS/os/hal/osal/rt/osal.h"
  27              		.loc 1 460 0
  28              		.cfi_startproc
  29              		@ args = 0, pretend = 0, frame = 8
  30              		@ frame_needed = 1, uses_anonymous_args = 0
  31 0000 80B5     		push	{r7, lr}
  32              		.cfi_def_cfa_offset 8
  33              		.cfi_offset 7, -8
  34              		.cfi_offset 14, -4
  35 0002 82B0     		sub	sp, sp, #8
  36              		.cfi_def_cfa_offset 16
  37 0004 00AF     		add	r7, sp, #0
  38              		.cfi_def_cfa_register 7
  39 0006 7860     		str	r0, [r7, #4]
  40              		.loc 1 462 0
  41 0008 7868     		ldr	r0, [r7, #4]
  42 000a FFF7FEFF 		bl	chSysHalt
  43              		.loc 1 463 0
  44 000e 0837     		adds	r7, r7, #8
  45 0010 BD46     		mov	sp, r7
  46              		@ sp needed
  47 0012 80BD     		pop	{r7, pc}
  48              		.cfi_endproc
  49              	.LFE230:
  50              		.size	osalSysHalt, .-osalSysHalt
  51              		.global	pbuf_free_ooseq_pending
  52 0014 AFF30080 		.section	.bss.pbuf_free_ooseq_pending,"aw",%nobits
  52      AFF30080 
  52      AFF30080 
  53              		.type	pbuf_free_ooseq_pending, %object
  54              		.size	pbuf_free_ooseq_pending, 1
  55              	pbuf_free_ooseq_pending:
ARM GAS  C:\Users\Luis\AppData\Local\Temp\cc1uv7VI.s 			page 2


  56 0000 00       		.space	1
  57              		.section	.text.pbuf_free_ooseq,"ax",%progbits
  58              		.align	2
  59              		.p2align 4,,15
  60              		.thumb
  61              		.thumb_func
  62              		.type	pbuf_free_ooseq, %function
  63              	pbuf_free_ooseq:
  64              	.LFB260:
  65              		.file 2 "../../ChibiOS/ext/lwip/src/core/pbuf.c"
  66              		.loc 2 119 0
  67              		.cfi_startproc
  68              		@ args = 0, pretend = 0, frame = 8
  69              		@ frame_needed = 1, uses_anonymous_args = 0
  70 0000 80B5     		push	{r7, lr}
  71              		.cfi_def_cfa_offset 8
  72              		.cfi_offset 7, -8
  73              		.cfi_offset 14, -4
  74 0002 82B0     		sub	sp, sp, #8
  75              		.cfi_def_cfa_offset 16
  76 0004 00AF     		add	r7, sp, #0
  77              		.cfi_def_cfa_register 7
  78              		.loc 2 124 0
  79 0006 0E4B     		ldr	r3, .L7
  80 0008 0022     		movs	r2, #0
  81 000a 1A70     		strb	r2, [r3]
  82              		.loc 2 127 0
  83 000c 0D4B     		ldr	r3, .L7+4
  84 000e 1B68     		ldr	r3, [r3]
  85 0010 7B60     		str	r3, [r7, #4]
  86 0012 0FE0     		b	.L3
  87              	.L6:
  88              		.loc 2 128 0
  89 0014 7B68     		ldr	r3, [r7, #4]
  90 0016 5B6F     		ldr	r3, [r3, #116]
  91 0018 002B     		cmp	r3, #0
  92 001a 08D0     		beq	.L4
  93              		.loc 2 131 0
  94 001c 7B68     		ldr	r3, [r7, #4]
  95 001e 5B6F     		ldr	r3, [r3, #116]
  96 0020 1846     		mov	r0, r3
  97 0022 FFF7FEFF 		bl	tcp_segs_free
  98              		.loc 2 132 0
  99 0026 7B68     		ldr	r3, [r7, #4]
 100 0028 0022     		movs	r2, #0
 101 002a 5A67     		str	r2, [r3, #116]
 102              		.loc 2 133 0
 103 002c 05E0     		b	.L2
 104              	.L4:
 105              		.loc 2 127 0
 106 002e 7B68     		ldr	r3, [r7, #4]
 107 0030 DB68     		ldr	r3, [r3, #12]
 108 0032 7B60     		str	r3, [r7, #4]
 109              	.L3:
 110              		.loc 2 127 0 is_stmt 0 discriminator 1
 111 0034 7B68     		ldr	r3, [r7, #4]
 112 0036 002B     		cmp	r3, #0
ARM GAS  C:\Users\Luis\AppData\Local\Temp\cc1uv7VI.s 			page 3


 113 0038 ECD1     		bne	.L6
 114              	.L2:
 115              		.loc 2 136 0 is_stmt 1
 116 003a 0837     		adds	r7, r7, #8
 117 003c BD46     		mov	sp, r7
 118              		@ sp needed
 119 003e 80BD     		pop	{r7, pc}
 120              	.L8:
 121              		.align	2
 122              	.L7:
 123 0040 00000000 		.word	pbuf_free_ooseq_pending
 124 0044 00000000 		.word	tcp_active_pcbs
 125              		.cfi_endproc
 126              	.LFE260:
 127              		.size	pbuf_free_ooseq, .-pbuf_free_ooseq
 128 0048 AFF30080 		.section	.text.pbuf_free_ooseq_callback,"ax",%progbits
 128      AFF30080 
 129              		.align	2
 130              		.p2align 4,,15
 131              		.thumb
 132              		.thumb_func
 133              		.type	pbuf_free_ooseq_callback, %function
 134              	pbuf_free_ooseq_callback:
 135              	.LFB261:
 136              		.loc 2 144 0
 137              		.cfi_startproc
 138              		@ args = 0, pretend = 0, frame = 8
 139              		@ frame_needed = 1, uses_anonymous_args = 0
 140 0000 80B5     		push	{r7, lr}
 141              		.cfi_def_cfa_offset 8
 142              		.cfi_offset 7, -8
 143              		.cfi_offset 14, -4
 144 0002 82B0     		sub	sp, sp, #8
 145              		.cfi_def_cfa_offset 16
 146 0004 00AF     		add	r7, sp, #0
 147              		.cfi_def_cfa_register 7
 148 0006 7860     		str	r0, [r7, #4]
 149              		.loc 2 146 0
 150 0008 FFF7FEFF 		bl	pbuf_free_ooseq
 151              		.loc 2 147 0
 152 000c 0837     		adds	r7, r7, #8
 153 000e BD46     		mov	sp, r7
 154              		@ sp needed
 155 0010 80BD     		pop	{r7, pc}
 156              		.cfi_endproc
 157              	.LFE261:
 158              		.size	pbuf_free_ooseq_callback, .-pbuf_free_ooseq_callback
 159 0012 00BFAFF3 		.section	.text.pbuf_pool_is_empty,"ax",%progbits
 159      0080AFF3 
 159      0080AFF3 
 159      0080
 160              		.align	2
 161              		.p2align 4,,15
 162              		.thumb
 163              		.thumb_func
 164              		.type	pbuf_pool_is_empty, %function
 165              	pbuf_pool_is_empty:
ARM GAS  C:\Users\Luis\AppData\Local\Temp\cc1uv7VI.s 			page 4


 166              	.LFB262:
 167              		.loc 2 153 0
 168              		.cfi_startproc
 169              		@ args = 0, pretend = 0, frame = 8
 170              		@ frame_needed = 1, uses_anonymous_args = 0
 171 0000 80B5     		push	{r7, lr}
 172              		.cfi_def_cfa_offset 8
 173              		.cfi_offset 7, -8
 174              		.cfi_offset 14, -4
 175 0002 82B0     		sub	sp, sp, #8
 176              		.cfi_def_cfa_offset 16
 177 0004 00AF     		add	r7, sp, #0
 178              		.cfi_def_cfa_register 7
 179              		.loc 2 163 0
 180 0006 0B4B     		ldr	r3, .L12
 181 0008 1B78     		ldrb	r3, [r3]
 182 000a FB71     		strb	r3, [r7, #7]
 183              		.loc 2 164 0
 184 000c 094B     		ldr	r3, .L12
 185 000e 0122     		movs	r2, #1
 186 0010 1A70     		strb	r2, [r3]
 187              		.loc 2 167 0
 188 0012 FB79     		ldrb	r3, [r7, #7]	@ zero_extendqisi2
 189 0014 002B     		cmp	r3, #0
 190 0016 0AD1     		bne	.L10
 191              		.loc 2 169 0
 192 0018 0748     		ldr	r0, .L12+4
 193 001a 0021     		movs	r1, #0
 194 001c 0022     		movs	r2, #0
 195 001e FFF7FEFF 		bl	tcpip_callback_with_block
 196 0022 0346     		mov	r3, r0
 197 0024 002B     		cmp	r3, #0
 198 0026 02D0     		beq	.L10
 199              		.loc 2 169 0 is_stmt 0 discriminator 1
 200 0028 024B     		ldr	r3, .L12
 201 002a 0022     		movs	r2, #0
 202 002c 1A70     		strb	r2, [r3]
 203              	.L10:
 204              		.loc 2 172 0 is_stmt 1
 205 002e 0837     		adds	r7, r7, #8
 206 0030 BD46     		mov	sp, r7
 207              		@ sp needed
 208 0032 80BD     		pop	{r7, pc}
 209              	.L13:
 210              		.align	2
 211              	.L12:
 212 0034 00000000 		.word	pbuf_free_ooseq_pending
 213 0038 00000000 		.word	pbuf_free_ooseq_callback
 214              		.cfi_endproc
 215              	.LFE262:
 216              		.size	pbuf_pool_is_empty, .-pbuf_pool_is_empty
 217 003c AFF30080 		.section	.rodata
 218              		.align	2
 219              	.LC0:
 220 0000 70627566 		.ascii	"pbuf_alloc: bad pbuf layer\000"
 220      5F616C6C 
 220      6F633A20 
ARM GAS  C:\Users\Luis\AppData\Local\Temp\cc1uv7VI.s 			page 5


 220      62616420 
 220      70627566 
 221 001b 00       		.align	2
 222              	.LC1:
 223 001c 70627566 		.ascii	"pbuf_alloc: pbuf p->payload properly aligned\000"
 223      5F616C6C 
 223      6F633A20 
 223      70627566 
 223      20702D3E 
 224 0049 000000   		.align	2
 225              	.LC2:
 226 004c 63686563 		.ascii	"check p->payload + p->len does not overflow pbuf\000"
 226      6B20702D 
 226      3E706179 
 226      6C6F6164 
 226      202B2070 
 227 007d 000000   		.align	2
 228              	.LC3:
 229 0080 50425546 		.ascii	"PBUF_POOL_BUFSIZE must be bigger than MEM_ALIGNMENT"
 229      5F504F4F 
 229      4C5F4255 
 229      4653495A 
 229      45206D75 
 230 00b3 00       		.ascii	"\000"
 231              		.align	2
 232              	.LC4:
 233 00b4 72656D5F 		.ascii	"rem_len < max_u16_t\000"
 233      6C656E20 
 233      3C206D61 
 233      785F7531 
 233      365F7400 
 234              		.align	2
 235              	.LC5:
 236 00c8 70627566 		.ascii	"pbuf_alloc: pbuf q->payload properly aligned\000"
 236      5F616C6C 
 236      6F633A20 
 236      70627566 
 236      20712D3E 
 237 00f5 000000   		.align	2
 238              	.LC6:
 239 00f8 70627566 		.ascii	"pbuf_alloc: pbuf->payload properly aligned\000"
 239      5F616C6C 
 239      6F633A20 
 239      70627566 
 239      2D3E7061 
 240 0123 00       		.align	2
 241              	.LC7:
 242 0124 70627566 		.ascii	"pbuf_alloc: erroneous type\000"
 242      5F616C6C 
 242      6F633A20 
 242      6572726F 
 242      6E656F75 
 243              		.section	.text.pbuf_alloc,"ax",%progbits
 244              		.align	2
 245              		.p2align 4,,15
 246              		.global	pbuf_alloc
 247              		.thumb
ARM GAS  C:\Users\Luis\AppData\Local\Temp\cc1uv7VI.s 			page 6


 248              		.thumb_func
 249              		.type	pbuf_alloc, %function
 250              	pbuf_alloc:
 251              	.LFB263:
 252              		.loc 2 208 0
 253              		.cfi_startproc
 254              		@ args = 0, pretend = 0, frame = 32
 255              		@ frame_needed = 1, uses_anonymous_args = 0
 256 0000 80B5     		push	{r7, lr}
 257              		.cfi_def_cfa_offset 8
 258              		.cfi_offset 7, -8
 259              		.cfi_offset 14, -4
 260 0002 88B0     		sub	sp, sp, #32
 261              		.cfi_def_cfa_offset 40
 262 0004 00AF     		add	r7, sp, #0
 263              		.cfi_def_cfa_register 7
 264 0006 1346     		mov	r3, r2
 265 0008 0246     		mov	r2, r0
 266 000a FA71     		strb	r2, [r7, #7]
 267 000c 0A46     		mov	r2, r1	@ movhi
 268 000e BA80     		strh	r2, [r7, #4]	@ movhi
 269 0010 BB71     		strb	r3, [r7, #6]
 270              		.loc 2 215 0
 271 0012 FB79     		ldrb	r3, [r7, #7]	@ zero_extendqisi2
 272 0014 032B     		cmp	r3, #3
 273 0016 17D8     		bhi	.L15
 274 0018 01A2     		adr	r2, .L17
 275 001a 52F823F0 		ldr	pc, [r2, r3, lsl #2]
 276 001e 00BF     		.p2align 2
 277              	.L17:
 278 0020 31000000 		.word	.L16+1
 279 0024 37000000 		.word	.L18+1
 280 0028 3D000000 		.word	.L19+1
 281 002c 43000000 		.word	.L20+1
 282              	.L16:
 283              		.loc 2 218 0
 284 0030 3623     		movs	r3, #54
 285 0032 FB82     		strh	r3, [r7, #22]	@ movhi
 286              		.loc 2 219 0
 287 0034 0DE0     		b	.L21
 288              	.L18:
 289              		.loc 2 222 0
 290 0036 2223     		movs	r3, #34
 291 0038 FB82     		strh	r3, [r7, #22]	@ movhi
 292              		.loc 2 223 0
 293 003a 0AE0     		b	.L21
 294              	.L19:
 295              		.loc 2 226 0
 296 003c 0E23     		movs	r3, #14
 297 003e FB82     		strh	r3, [r7, #22]	@ movhi
 298              		.loc 2 227 0
 299 0040 07E0     		b	.L21
 300              	.L20:
 301              		.loc 2 229 0
 302 0042 0023     		movs	r3, #0
 303 0044 FB82     		strh	r3, [r7, #22]	@ movhi
 304              		.loc 2 230 0
ARM GAS  C:\Users\Luis\AppData\Local\Temp\cc1uv7VI.s 			page 7


 305 0046 04E0     		b	.L21
 306              	.L15:
 307              		.loc 2 232 0
 308 0048 9448     		ldr	r0, .L44
 309 004a FFF7FEFF 		bl	osalSysHalt
 310              		.loc 2 233 0
 311 004e 0023     		movs	r3, #0
 312 0050 1FE1     		b	.L22
 313              	.L21:
 314              		.loc 2 236 0
 315 0052 BB79     		ldrb	r3, [r7, #6]	@ zero_extendqisi2
 316 0054 032B     		cmp	r3, #3
 317 0056 00F21081 		bhi	.L23
 318 005a 01A2     		adr	r2, .L25
 319 005c 52F823F0 		ldr	pc, [r2, r3, lsl #2]
 320              		.p2align 2
 321              	.L25:
 322 0060 D5010000 		.word	.L24+1
 323 0064 47020000 		.word	.L26+1
 324 0068 47020000 		.word	.L26+1
 325 006c 71000000 		.word	.L27+1
 326              	.L27:
 327              		.loc 2 239 0
 328 0070 0D20     		movs	r0, #13
 329 0072 FFF7FEFF 		bl	memp_malloc
 330 0076 F861     		str	r0, [r7, #28]
 331              		.loc 2 241 0
 332 0078 FB69     		ldr	r3, [r7, #28]
 333 007a 002B     		cmp	r3, #0
 334 007c 03D1     		bne	.L28
 335              		.loc 2 242 0
 336 007e FFF7FEFF 		bl	pbuf_pool_is_empty
 337              		.loc 2 243 0
 338 0082 0023     		movs	r3, #0
 339 0084 05E1     		b	.L22
 340              	.L28:
 341              		.loc 2 245 0
 342 0086 FB69     		ldr	r3, [r7, #28]
 343 0088 BA79     		ldrb	r2, [r7, #6]
 344 008a 1A73     		strb	r2, [r3, #12]
 345              		.loc 2 246 0
 346 008c FB69     		ldr	r3, [r7, #28]
 347 008e 0022     		movs	r2, #0
 348 0090 1A60     		str	r2, [r3]
 349              		.loc 2 249 0
 350 0092 FB8A     		ldrh	r3, [r7, #22]
 351 0094 1033     		adds	r3, r3, #16
 352 0096 FA69     		ldr	r2, [r7, #28]
 353 0098 1344     		add	r3, r3, r2
 354 009a 0333     		adds	r3, r3, #3
 355 009c 23F00303 		bic	r3, r3, #3
 356 00a0 1A46     		mov	r2, r3
 357 00a2 FB69     		ldr	r3, [r7, #28]
 358 00a4 5A60     		str	r2, [r3, #4]
 359              		.loc 2 250 0
 360 00a6 FB69     		ldr	r3, [r7, #28]
 361 00a8 5B68     		ldr	r3, [r3, #4]
ARM GAS  C:\Users\Luis\AppData\Local\Temp\cc1uv7VI.s 			page 8


 362 00aa 03F00303 		and	r3, r3, #3
 363 00ae 002B     		cmp	r3, #0
 364 00b0 02D0     		beq	.L29
 365              		.loc 2 250 0 is_stmt 0 discriminator 1
 366 00b2 7B48     		ldr	r0, .L44+4
 367 00b4 FFF7FEFF 		bl	osalSysHalt
 368              	.L29:
 369              		.loc 2 253 0 is_stmt 1
 370 00b8 FB69     		ldr	r3, [r7, #28]
 371 00ba BA88     		ldrh	r2, [r7, #4]	@ movhi
 372 00bc 1A81     		strh	r2, [r3, #8]	@ movhi
 373              		.loc 2 255 0
 374 00be FB8A     		ldrh	r3, [r7, #22]
 375 00c0 0333     		adds	r3, r3, #3
 376 00c2 23F00303 		bic	r3, r3, #3
 377 00c6 C3F51472 		rsb	r2, r3, #592
 378 00ca BB88     		ldrh	r3, [r7, #4]
 379 00cc 9A42     		cmp	r2, r3
 380 00ce B8BF     		it	lt
 381 00d0 1346     		movlt	r3, r2
 382 00d2 9AB2     		uxth	r2, r3
 383 00d4 FB69     		ldr	r3, [r7, #28]
 384 00d6 5A81     		strh	r2, [r3, #10]	@ movhi
 385              		.loc 2 256 0
 386 00d8 FB69     		ldr	r3, [r7, #28]
 387 00da 5A68     		ldr	r2, [r3, #4]
 388 00dc FB69     		ldr	r3, [r7, #28]
 389 00de 5B89     		ldrh	r3, [r3, #10]
 390 00e0 1A44     		add	r2, r2, r3
 391 00e2 FB69     		ldr	r3, [r7, #28]
 392 00e4 03F51873 		add	r3, r3, #608
 393 00e8 9A42     		cmp	r2, r3
 394 00ea 02D9     		bls	.L30
 395              		.loc 2 256 0 is_stmt 0 discriminator 1
 396 00ec 6D48     		ldr	r0, .L44+8
 397 00ee FFF7FEFF 		bl	osalSysHalt
 398              	.L30:
 399              		.loc 2 259 0 is_stmt 1
 400 00f2 FB8A     		ldrh	r3, [r7, #22]
 401 00f4 0333     		adds	r3, r3, #3
 402 00f6 23F00303 		bic	r3, r3, #3
 403 00fa C3F51473 		rsb	r3, r3, #592
 404 00fe 002B     		cmp	r3, #0
 405 0100 02DC     		bgt	.L31
 406              		.loc 2 259 0 is_stmt 0 discriminator 1
 407 0102 6948     		ldr	r0, .L44+12
 408 0104 FFF7FEFF 		bl	osalSysHalt
 409              	.L31:
 410              		.loc 2 262 0 is_stmt 1
 411 0108 FB69     		ldr	r3, [r7, #28]
 412 010a 0122     		movs	r2, #1
 413 010c DA81     		strh	r2, [r3, #14]	@ movhi
 414              		.loc 2 267 0
 415 010e FB69     		ldr	r3, [r7, #28]
 416 0110 BB61     		str	r3, [r7, #24]
 417              		.loc 2 269 0
 418 0112 BA88     		ldrh	r2, [r7, #4]
ARM GAS  C:\Users\Luis\AppData\Local\Temp\cc1uv7VI.s 			page 9


 419 0114 FB69     		ldr	r3, [r7, #28]
 420 0116 5B89     		ldrh	r3, [r3, #10]
 421 0118 D31A     		subs	r3, r2, r3
 422 011a 3B61     		str	r3, [r7, #16]
 423              		.loc 2 271 0
 424 011c 56E0     		b	.L32
 425              	.L39:
 426              		.loc 2 272 0
 427 011e 0D20     		movs	r0, #13
 428 0120 FFF7FEFF 		bl	memp_malloc
 429 0124 F860     		str	r0, [r7, #12]
 430              		.loc 2 273 0
 431 0126 FB68     		ldr	r3, [r7, #12]
 432 0128 002B     		cmp	r3, #0
 433 012a 06D1     		bne	.L33
 434              		.loc 2 274 0
 435 012c FFF7FEFF 		bl	pbuf_pool_is_empty
 436              		.loc 2 276 0
 437 0130 F869     		ldr	r0, [r7, #28]
 438 0132 FFF7FEFF 		bl	pbuf_free
 439              		.loc 2 278 0
 440 0136 0023     		movs	r3, #0
 441 0138 ABE0     		b	.L22
 442              	.L33:
 443              		.loc 2 280 0
 444 013a FB68     		ldr	r3, [r7, #12]
 445 013c BA79     		ldrb	r2, [r7, #6]
 446 013e 1A73     		strb	r2, [r3, #12]
 447              		.loc 2 281 0
 448 0140 FB68     		ldr	r3, [r7, #12]
 449 0142 0022     		movs	r2, #0
 450 0144 5A73     		strb	r2, [r3, #13]
 451              		.loc 2 282 0
 452 0146 FB68     		ldr	r3, [r7, #12]
 453 0148 0022     		movs	r2, #0
 454 014a 1A60     		str	r2, [r3]
 455              		.loc 2 284 0
 456 014c BB69     		ldr	r3, [r7, #24]
 457 014e FA68     		ldr	r2, [r7, #12]
 458 0150 1A60     		str	r2, [r3]
 459              		.loc 2 286 0
 460 0152 3A69     		ldr	r2, [r7, #16]
 461 0154 4FF6FE73 		movw	r3, #65534
 462 0158 9A42     		cmp	r2, r3
 463 015a 02DD     		ble	.L34
 464              		.loc 2 286 0 is_stmt 0 discriminator 1
 465 015c 5348     		ldr	r0, .L44+16
 466 015e FFF7FEFF 		bl	osalSysHalt
 467              	.L34:
 468              		.loc 2 287 0 is_stmt 1
 469 0162 3B69     		ldr	r3, [r7, #16]
 470 0164 9AB2     		uxth	r2, r3
 471 0166 FB68     		ldr	r3, [r7, #12]
 472 0168 1A81     		strh	r2, [r3, #8]	@ movhi
 473              		.loc 2 289 0
 474 016a 3B69     		ldr	r3, [r7, #16]
 475 016c 9BB2     		uxth	r3, r3
ARM GAS  C:\Users\Luis\AppData\Local\Temp\cc1uv7VI.s 			page 10


 476 016e B3F5147F 		cmp	r3, #592
 477 0172 02D2     		bcs	.L35
 478              		.loc 2 289 0 is_stmt 0 discriminator 1
 479 0174 3B69     		ldr	r3, [r7, #16]
 480 0176 9BB2     		uxth	r3, r3
 481 0178 01E0     		b	.L36
 482              	.L35:
 483              		.loc 2 289 0 discriminator 2
 484 017a 4FF41473 		mov	r3, #592
 485              	.L36:
 486              		.loc 2 289 0 discriminator 3
 487 017e FA68     		ldr	r2, [r7, #12]
 488 0180 5381     		strh	r3, [r2, #10]	@ movhi
 489              		.loc 2 290 0 is_stmt 1 discriminator 3
 490 0182 FB68     		ldr	r3, [r7, #12]
 491 0184 03F11002 		add	r2, r3, #16
 492 0188 FB68     		ldr	r3, [r7, #12]
 493 018a 5A60     		str	r2, [r3, #4]
 494              		.loc 2 291 0 discriminator 3
 495 018c FB68     		ldr	r3, [r7, #12]
 496 018e 5B68     		ldr	r3, [r3, #4]
 497 0190 03F00303 		and	r3, r3, #3
 498 0194 002B     		cmp	r3, #0
 499 0196 02D0     		beq	.L37
 500              		.loc 2 291 0 is_stmt 0 discriminator 1
 501 0198 4548     		ldr	r0, .L44+20
 502 019a FFF7FEFF 		bl	osalSysHalt
 503              	.L37:
 504              		.loc 2 293 0 is_stmt 1
 505 019e FB69     		ldr	r3, [r7, #28]
 506 01a0 5A68     		ldr	r2, [r3, #4]
 507 01a2 FB69     		ldr	r3, [r7, #28]
 508 01a4 5B89     		ldrh	r3, [r3, #10]
 509 01a6 1A44     		add	r2, r2, r3
 510 01a8 FB69     		ldr	r3, [r7, #28]
 511 01aa 03F51873 		add	r3, r3, #608
 512 01ae 9A42     		cmp	r2, r3
 513 01b0 02D9     		bls	.L38
 514              		.loc 2 293 0 is_stmt 0 discriminator 1
 515 01b2 3C48     		ldr	r0, .L44+8
 516 01b4 FFF7FEFF 		bl	osalSysHalt
 517              	.L38:
 518              		.loc 2 296 0 is_stmt 1
 519 01b8 FB68     		ldr	r3, [r7, #12]
 520 01ba 0122     		movs	r2, #1
 521 01bc DA81     		strh	r2, [r3, #14]	@ movhi
 522              		.loc 2 298 0
 523 01be FB68     		ldr	r3, [r7, #12]
 524 01c0 5B89     		ldrh	r3, [r3, #10]
 525 01c2 3A69     		ldr	r2, [r7, #16]
 526 01c4 D31A     		subs	r3, r2, r3
 527 01c6 3B61     		str	r3, [r7, #16]
 528              		.loc 2 300 0
 529 01c8 FB68     		ldr	r3, [r7, #12]
 530 01ca BB61     		str	r3, [r7, #24]
 531              	.L32:
 532              		.loc 2 271 0 discriminator 1
ARM GAS  C:\Users\Luis\AppData\Local\Temp\cc1uv7VI.s 			page 11


 533 01cc 3B69     		ldr	r3, [r7, #16]
 534 01ce 002B     		cmp	r3, #0
 535 01d0 A5DC     		bgt	.L39
 536              		.loc 2 305 0
 537 01d2 57E0     		b	.L40
 538              	.L24:
 539              		.loc 2 308 0
 540 01d4 FB8A     		ldrh	r3, [r7, #22]	@ movhi
 541 01d6 1333     		adds	r3, r3, #19
 542 01d8 9BB2     		uxth	r3, r3
 543 01da 23F00303 		bic	r3, r3, #3
 544 01de 9AB2     		uxth	r2, r3
 545 01e0 BB88     		ldrh	r3, [r7, #4]	@ movhi
 546 01e2 0333     		adds	r3, r3, #3
 547 01e4 9BB2     		uxth	r3, r3
 548 01e6 23F00303 		bic	r3, r3, #3
 549 01ea 9BB2     		uxth	r3, r3
 550 01ec 1344     		add	r3, r3, r2
 551 01ee 9BB2     		uxth	r3, r3
 552 01f0 1846     		mov	r0, r3
 553 01f2 FFF7FEFF 		bl	mem_malloc
 554 01f6 F861     		str	r0, [r7, #28]
 555              		.loc 2 309 0
 556 01f8 FB69     		ldr	r3, [r7, #28]
 557 01fa 002B     		cmp	r3, #0
 558 01fc 01D1     		bne	.L41
 559              		.loc 2 310 0
 560 01fe 0023     		movs	r3, #0
 561 0200 47E0     		b	.L22
 562              	.L41:
 563              		.loc 2 313 0
 564 0202 FB8A     		ldrh	r3, [r7, #22]
 565 0204 1033     		adds	r3, r3, #16
 566 0206 FA69     		ldr	r2, [r7, #28]
 567 0208 1344     		add	r3, r3, r2
 568 020a 0333     		adds	r3, r3, #3
 569 020c 23F00303 		bic	r3, r3, #3
 570 0210 1A46     		mov	r2, r3
 571 0212 FB69     		ldr	r3, [r7, #28]
 572 0214 5A60     		str	r2, [r3, #4]
 573              		.loc 2 314 0
 574 0216 FB69     		ldr	r3, [r7, #28]
 575 0218 BA88     		ldrh	r2, [r7, #4]	@ movhi
 576 021a 1A81     		strh	r2, [r3, #8]	@ movhi
 577 021c FB69     		ldr	r3, [r7, #28]
 578 021e 1A89     		ldrh	r2, [r3, #8]
 579 0220 FB69     		ldr	r3, [r7, #28]
 580 0222 5A81     		strh	r2, [r3, #10]	@ movhi
 581              		.loc 2 315 0
 582 0224 FB69     		ldr	r3, [r7, #28]
 583 0226 0022     		movs	r2, #0
 584 0228 1A60     		str	r2, [r3]
 585              		.loc 2 316 0
 586 022a FB69     		ldr	r3, [r7, #28]
 587 022c BA79     		ldrb	r2, [r7, #6]
 588 022e 1A73     		strb	r2, [r3, #12]
 589              		.loc 2 318 0
ARM GAS  C:\Users\Luis\AppData\Local\Temp\cc1uv7VI.s 			page 12


 590 0230 FB69     		ldr	r3, [r7, #28]
 591 0232 5B68     		ldr	r3, [r3, #4]
 592 0234 03F00303 		and	r3, r3, #3
 593 0238 002B     		cmp	r3, #0
 594 023a 03D0     		beq	.L42
 595              		.loc 2 318 0 is_stmt 0 discriminator 1
 596 023c 1D48     		ldr	r0, .L44+24
 597 023e FFF7FEFF 		bl	osalSysHalt
 598              		.loc 2 320 0 is_stmt 1 discriminator 1
 599 0242 1FE0     		b	.L40
 600              	.L42:
 601              		.loc 2 320 0 is_stmt 0
 602 0244 1EE0     		b	.L40
 603              	.L26:
 604              		.loc 2 326 0 is_stmt 1
 605 0246 0C20     		movs	r0, #12
 606 0248 FFF7FEFF 		bl	memp_malloc
 607 024c F861     		str	r0, [r7, #28]
 608              		.loc 2 327 0
 609 024e FB69     		ldr	r3, [r7, #28]
 610 0250 002B     		cmp	r3, #0
 611 0252 01D1     		bne	.L43
 612              		.loc 2 331 0
 613 0254 0023     		movs	r3, #0
 614 0256 1CE0     		b	.L22
 615              	.L43:
 616              		.loc 2 334 0
 617 0258 FB69     		ldr	r3, [r7, #28]
 618 025a 0022     		movs	r2, #0
 619 025c 5A60     		str	r2, [r3, #4]
 620              		.loc 2 335 0
 621 025e FB69     		ldr	r3, [r7, #28]
 622 0260 BA88     		ldrh	r2, [r7, #4]	@ movhi
 623 0262 1A81     		strh	r2, [r3, #8]	@ movhi
 624 0264 FB69     		ldr	r3, [r7, #28]
 625 0266 1A89     		ldrh	r2, [r3, #8]
 626 0268 FB69     		ldr	r3, [r7, #28]
 627 026a 5A81     		strh	r2, [r3, #10]	@ movhi
 628              		.loc 2 336 0
 629 026c FB69     		ldr	r3, [r7, #28]
 630 026e 0022     		movs	r2, #0
 631 0270 1A60     		str	r2, [r3]
 632              		.loc 2 337 0
 633 0272 FB69     		ldr	r3, [r7, #28]
 634 0274 BA79     		ldrb	r2, [r7, #6]
 635 0276 1A73     		strb	r2, [r3, #12]
 636              		.loc 2 338 0
 637 0278 04E0     		b	.L40
 638              	.L23:
 639              		.loc 2 340 0
 640 027a 0F48     		ldr	r0, .L44+28
 641 027c FFF7FEFF 		bl	osalSysHalt
 642              		.loc 2 341 0
 643 0280 0023     		movs	r3, #0
 644 0282 06E0     		b	.L22
 645              	.L40:
 646              		.loc 2 344 0
ARM GAS  C:\Users\Luis\AppData\Local\Temp\cc1uv7VI.s 			page 13


 647 0284 FB69     		ldr	r3, [r7, #28]
 648 0286 0122     		movs	r2, #1
 649 0288 DA81     		strh	r2, [r3, #14]	@ movhi
 650              		.loc 2 346 0
 651 028a FB69     		ldr	r3, [r7, #28]
 652 028c 0022     		movs	r2, #0
 653 028e 5A73     		strb	r2, [r3, #13]
 654              		.loc 2 348 0
 655 0290 FB69     		ldr	r3, [r7, #28]
 656              	.L22:
 657              		.loc 2 349 0
 658 0292 1846     		mov	r0, r3
 659 0294 2037     		adds	r7, r7, #32
 660 0296 BD46     		mov	sp, r7
 661              		@ sp needed
 662 0298 80BD     		pop	{r7, pc}
 663              	.L45:
 664 029a 00BF     		.align	2
 665              	.L44:
 666 029c 00000000 		.word	.LC0
 667 02a0 1C000000 		.word	.LC1
 668 02a4 4C000000 		.word	.LC2
 669 02a8 80000000 		.word	.LC3
 670 02ac B4000000 		.word	.LC4
 671 02b0 C8000000 		.word	.LC5
 672 02b4 F8000000 		.word	.LC6
 673 02b8 24010000 		.word	.LC7
 674              		.cfi_endproc
 675              	.LFE263:
 676              		.size	pbuf_alloc, .-pbuf_alloc
 677 02bc AFF30080 		.section	.rodata
 678 013f 00       		.align	2
 679              	.LC8:
 680 0140 70627566 		.ascii	"pbuf_alloced_custom: bad pbuf layer\000"
 680      5F616C6C 
 680      6F636564 
 680      5F637573 
 680      746F6D3A 
 681              		.section	.text.pbuf_alloced_custom,"ax",%progbits
 682              		.align	2
 683              		.p2align 4,,15
 684              		.global	pbuf_alloced_custom
 685              		.thumb
 686              		.thumb_func
 687              		.type	pbuf_alloced_custom, %function
 688              	pbuf_alloced_custom:
 689              	.LFB264:
 690              		.loc 2 369 0
 691              		.cfi_startproc
 692              		@ args = 8, pretend = 0, frame = 16
 693              		@ frame_needed = 1, uses_anonymous_args = 0
 694 0000 80B5     		push	{r7, lr}
 695              		.cfi_def_cfa_offset 8
 696              		.cfi_offset 7, -8
 697              		.cfi_offset 14, -4
 698 0002 84B0     		sub	sp, sp, #16
 699              		.cfi_def_cfa_offset 24
ARM GAS  C:\Users\Luis\AppData\Local\Temp\cc1uv7VI.s 			page 14


 700 0004 00AF     		add	r7, sp, #0
 701              		.cfi_def_cfa_register 7
 702 0006 3B60     		str	r3, [r7]
 703 0008 0346     		mov	r3, r0
 704 000a FB71     		strb	r3, [r7, #7]
 705 000c 0B46     		mov	r3, r1	@ movhi
 706 000e BB80     		strh	r3, [r7, #4]	@ movhi
 707 0010 1346     		mov	r3, r2
 708 0012 BB71     		strb	r3, [r7, #6]
 709              		.loc 2 374 0
 710 0014 FB79     		ldrb	r3, [r7, #7]	@ zero_extendqisi2
 711 0016 032B     		cmp	r3, #3
 712 0018 16D8     		bhi	.L47
 713 001a 01A2     		adr	r2, .L49
 714 001c 52F823F0 		ldr	pc, [r2, r3, lsl #2]
 715              		.p2align 2
 716              	.L49:
 717 0020 31000000 		.word	.L48+1
 718 0024 37000000 		.word	.L50+1
 719 0028 3D000000 		.word	.L51+1
 720 002c 43000000 		.word	.L52+1
 721              	.L48:
 722              		.loc 2 377 0
 723 0030 3623     		movs	r3, #54
 724 0032 FB81     		strh	r3, [r7, #14]	@ movhi
 725              		.loc 2 378 0
 726 0034 0DE0     		b	.L53
 727              	.L50:
 728              		.loc 2 381 0
 729 0036 2223     		movs	r3, #34
 730 0038 FB81     		strh	r3, [r7, #14]	@ movhi
 731              		.loc 2 382 0
 732 003a 0AE0     		b	.L53
 733              	.L51:
 734              		.loc 2 385 0
 735 003c 0E23     		movs	r3, #14
 736 003e FB81     		strh	r3, [r7, #14]	@ movhi
 737              		.loc 2 386 0
 738 0040 07E0     		b	.L53
 739              	.L52:
 740              		.loc 2 388 0
 741 0042 0023     		movs	r3, #0
 742 0044 FB81     		strh	r3, [r7, #14]	@ movhi
 743              		.loc 2 389 0
 744 0046 04E0     		b	.L53
 745              	.L47:
 746              		.loc 2 391 0
 747 0048 1B48     		ldr	r0, .L58
 748 004a FFF7FEFF 		bl	osalSysHalt
 749              		.loc 2 392 0
 750 004e 0023     		movs	r3, #0
 751 0050 2DE0     		b	.L54
 752              	.L53:
 753              		.loc 2 395 0
 754 0052 FB89     		ldrh	r3, [r7, #14]
 755 0054 0333     		adds	r3, r3, #3
 756 0056 23F00302 		bic	r2, r3, #3
ARM GAS  C:\Users\Luis\AppData\Local\Temp\cc1uv7VI.s 			page 15


 757 005a BB88     		ldrh	r3, [r7, #4]
 758 005c 1A44     		add	r2, r2, r3
 759 005e BB8B     		ldrh	r3, [r7, #28]
 760 0060 9A42     		cmp	r2, r3
 761 0062 01DD     		ble	.L55
 762              		.loc 2 397 0
 763 0064 0023     		movs	r3, #0
 764 0066 22E0     		b	.L54
 765              	.L55:
 766              		.loc 2 400 0
 767 0068 3B68     		ldr	r3, [r7]
 768 006a 0022     		movs	r2, #0
 769 006c 1A60     		str	r2, [r3]
 770              		.loc 2 401 0
 771 006e BB69     		ldr	r3, [r7, #24]
 772 0070 002B     		cmp	r3, #0
 773 0072 08D0     		beq	.L56
 774              		.loc 2 402 0
 775 0074 FB89     		ldrh	r3, [r7, #14]
 776 0076 0333     		adds	r3, r3, #3
 777 0078 23F00303 		bic	r3, r3, #3
 778 007c BA69     		ldr	r2, [r7, #24]
 779 007e 1A44     		add	r2, r2, r3
 780 0080 3B68     		ldr	r3, [r7]
 781 0082 5A60     		str	r2, [r3, #4]
 782 0084 02E0     		b	.L57
 783              	.L56:
 784              		.loc 2 404 0
 785 0086 3B68     		ldr	r3, [r7]
 786 0088 0022     		movs	r2, #0
 787 008a 5A60     		str	r2, [r3, #4]
 788              	.L57:
 789              		.loc 2 406 0
 790 008c 3B68     		ldr	r3, [r7]
 791 008e 0222     		movs	r2, #2
 792 0090 5A73     		strb	r2, [r3, #13]
 793              		.loc 2 407 0
 794 0092 3B68     		ldr	r3, [r7]
 795 0094 BA88     		ldrh	r2, [r7, #4]	@ movhi
 796 0096 1A81     		strh	r2, [r3, #8]	@ movhi
 797 0098 3B68     		ldr	r3, [r7]
 798 009a 1A89     		ldrh	r2, [r3, #8]
 799 009c 3B68     		ldr	r3, [r7]
 800 009e 5A81     		strh	r2, [r3, #10]	@ movhi
 801              		.loc 2 408 0
 802 00a0 3B68     		ldr	r3, [r7]
 803 00a2 BA79     		ldrb	r2, [r7, #6]
 804 00a4 1A73     		strb	r2, [r3, #12]
 805              		.loc 2 409 0
 806 00a6 3B68     		ldr	r3, [r7]
 807 00a8 0122     		movs	r2, #1
 808 00aa DA81     		strh	r2, [r3, #14]	@ movhi
 809              		.loc 2 410 0
 810 00ac 3B68     		ldr	r3, [r7]
 811              	.L54:
 812              		.loc 2 411 0
 813 00ae 1846     		mov	r0, r3
ARM GAS  C:\Users\Luis\AppData\Local\Temp\cc1uv7VI.s 			page 16


 814 00b0 1037     		adds	r7, r7, #16
 815 00b2 BD46     		mov	sp, r7
 816              		@ sp needed
 817 00b4 80BD     		pop	{r7, pc}
 818              	.L59:
 819 00b6 00BF     		.align	2
 820              	.L58:
 821 00b8 40010000 		.word	.LC8
 822              		.cfi_endproc
 823              	.LFE264:
 824              		.size	pbuf_alloced_custom, .-pbuf_alloced_custom
 825 00bc AFF30080 		.section	.rodata
 826              		.align	2
 827              	.LC9:
 828 0164 70627566 		.ascii	"pbuf_realloc: p != NULL\000"
 828      5F726561 
 828      6C6C6F63 
 828      3A207020 
 828      213D204E 
 829              		.align	2
 830              	.LC10:
 831 017c 70627566 		.ascii	"pbuf_realloc: sane p->type\000"
 831      5F726561 
 831      6C6C6F63 
 831      3A207361 
 831      6E652070 
 832 0197 00       		.align	2
 833              	.LC11:
 834 0198 67726F77 		.ascii	"grow < max_u16_t\000"
 834      203C206D 
 834      61785F75 
 834      31365F74 
 834      00
 835 01a9 000000   		.align	2
 836              	.LC12:
 837 01ac 70627566 		.ascii	"pbuf_realloc: q != NULL\000"
 837      5F726561 
 837      6C6C6F63 
 837      3A207120 
 837      213D204E 
 838              		.align	2
 839              	.LC13:
 840 01c4 6D656D5F 		.ascii	"mem_trim returned q == NULL\000"
 840      7472696D 
 840      20726574 
 840      75726E65 
 840      64207120 
 841              		.section	.text.pbuf_realloc,"ax",%progbits
 842              		.align	2
 843              		.p2align 4,,15
 844              		.global	pbuf_realloc
 845              		.thumb
 846              		.thumb_func
 847              		.type	pbuf_realloc, %function
 848              	pbuf_realloc:
 849              	.LFB265:
 850              		.loc 2 431 0
ARM GAS  C:\Users\Luis\AppData\Local\Temp\cc1uv7VI.s 			page 17


 851              		.cfi_startproc
 852              		@ args = 0, pretend = 0, frame = 24
 853              		@ frame_needed = 1, uses_anonymous_args = 0
 854 0000 80B5     		push	{r7, lr}
 855              		.cfi_def_cfa_offset 8
 856              		.cfi_offset 7, -8
 857              		.cfi_offset 14, -4
 858 0002 86B0     		sub	sp, sp, #24
 859              		.cfi_def_cfa_offset 32
 860 0004 00AF     		add	r7, sp, #0
 861              		.cfi_def_cfa_register 7
 862 0006 7860     		str	r0, [r7, #4]
 863 0008 0B46     		mov	r3, r1
 864 000a 7B80     		strh	r3, [r7, #2]	@ movhi
 865              		.loc 2 436 0
 866 000c 7B68     		ldr	r3, [r7, #4]
 867 000e 002B     		cmp	r3, #0
 868 0010 02D1     		bne	.L61
 869              		.loc 2 436 0 is_stmt 0 discriminator 1
 870 0012 3E48     		ldr	r0, .L70
 871 0014 FFF7FEFF 		bl	osalSysHalt
 872              	.L61:
 873              		.loc 2 437 0 is_stmt 1
 874 0018 7B68     		ldr	r3, [r7, #4]
 875 001a 1B7B     		ldrb	r3, [r3, #12]	@ zero_extendqisi2
 876 001c 032B     		cmp	r3, #3
 877 001e 0ED0     		beq	.L62
 878              		.loc 2 437 0 is_stmt 0 discriminator 1
 879 0020 7B68     		ldr	r3, [r7, #4]
 880 0022 1B7B     		ldrb	r3, [r3, #12]	@ zero_extendqisi2
 881 0024 012B     		cmp	r3, #1
 882 0026 0AD0     		beq	.L62
 883 0028 7B68     		ldr	r3, [r7, #4]
 884 002a 1B7B     		ldrb	r3, [r3, #12]	@ zero_extendqisi2
 885 002c 002B     		cmp	r3, #0
 886 002e 06D0     		beq	.L62
 887 0030 7B68     		ldr	r3, [r7, #4]
 888 0032 1B7B     		ldrb	r3, [r3, #12]	@ zero_extendqisi2
 889 0034 022B     		cmp	r3, #2
 890 0036 02D0     		beq	.L62
 891 0038 3548     		ldr	r0, .L70+4
 892 003a FFF7FEFF 		bl	osalSysHalt
 893              	.L62:
 894              		.loc 2 443 0 is_stmt 1
 895 003e 7B68     		ldr	r3, [r7, #4]
 896 0040 1B89     		ldrh	r3, [r3, #8]
 897 0042 7A88     		ldrh	r2, [r7, #2]
 898 0044 9A42     		cmp	r2, r3
 899 0046 00D3     		bcc	.L63
 900              		.loc 2 445 0
 901 0048 5CE0     		b	.L60
 902              	.L63:
 903              		.loc 2 450 0
 904 004a 7A88     		ldrh	r2, [r7, #2]
 905 004c 7B68     		ldr	r3, [r7, #4]
 906 004e 1B89     		ldrh	r3, [r3, #8]
 907 0050 D31A     		subs	r3, r2, r3
ARM GAS  C:\Users\Luis\AppData\Local\Temp\cc1uv7VI.s 			page 18


 908 0052 FB60     		str	r3, [r7, #12]
 909              		.loc 2 453 0
 910 0054 7B88     		ldrh	r3, [r7, #2]	@ movhi
 911 0056 7B82     		strh	r3, [r7, #18]	@ movhi
 912              		.loc 2 454 0
 913 0058 7B68     		ldr	r3, [r7, #4]
 914 005a 7B61     		str	r3, [r7, #20]
 915              		.loc 2 456 0
 916 005c 1DE0     		b	.L65
 917              	.L67:
 918              		.loc 2 458 0
 919 005e 7B69     		ldr	r3, [r7, #20]
 920 0060 5B89     		ldrh	r3, [r3, #10]
 921 0062 7A8A     		ldrh	r2, [r7, #18]	@ movhi
 922 0064 D31A     		subs	r3, r2, r3
 923 0066 7B82     		strh	r3, [r7, #18]	@ movhi
 924              		.loc 2 460 0
 925 0068 FA68     		ldr	r2, [r7, #12]
 926 006a 4FF6FE73 		movw	r3, #65534
 927 006e 9A42     		cmp	r2, r3
 928 0070 02DD     		ble	.L66
 929              		.loc 2 460 0 is_stmt 0 discriminator 1
 930 0072 2848     		ldr	r0, .L70+8
 931 0074 FFF7FEFF 		bl	osalSysHalt
 932              	.L66:
 933              		.loc 2 461 0 is_stmt 1
 934 0078 7B69     		ldr	r3, [r7, #20]
 935 007a 1A89     		ldrh	r2, [r3, #8]
 936 007c FB68     		ldr	r3, [r7, #12]
 937 007e 9BB2     		uxth	r3, r3
 938 0080 1344     		add	r3, r3, r2
 939 0082 9AB2     		uxth	r2, r3
 940 0084 7B69     		ldr	r3, [r7, #20]
 941 0086 1A81     		strh	r2, [r3, #8]	@ movhi
 942              		.loc 2 463 0
 943 0088 7B69     		ldr	r3, [r7, #20]
 944 008a 1B68     		ldr	r3, [r3]
 945 008c 7B61     		str	r3, [r7, #20]
 946              		.loc 2 464 0
 947 008e 7B69     		ldr	r3, [r7, #20]
 948 0090 002B     		cmp	r3, #0
 949 0092 02D1     		bne	.L65
 950              		.loc 2 464 0 is_stmt 0 discriminator 1
 951 0094 2048     		ldr	r0, .L70+12
 952 0096 FFF7FEFF 		bl	osalSysHalt
 953              	.L65:
 954              		.loc 2 456 0 is_stmt 1 discriminator 1
 955 009a 7B69     		ldr	r3, [r7, #20]
 956 009c 5B89     		ldrh	r3, [r3, #10]
 957 009e 7A8A     		ldrh	r2, [r7, #18]
 958 00a0 9A42     		cmp	r2, r3
 959 00a2 DCD8     		bhi	.L67
 960              		.loc 2 471 0
 961 00a4 7B69     		ldr	r3, [r7, #20]
 962 00a6 1B7B     		ldrb	r3, [r3, #12]	@ zero_extendqisi2
 963 00a8 002B     		cmp	r3, #0
 964 00aa 18D1     		bne	.L68
ARM GAS  C:\Users\Luis\AppData\Local\Temp\cc1uv7VI.s 			page 19


 965              		.loc 2 471 0 is_stmt 0 discriminator 1
 966 00ac 7B69     		ldr	r3, [r7, #20]
 967 00ae 5B89     		ldrh	r3, [r3, #10]
 968 00b0 7A8A     		ldrh	r2, [r7, #18]
 969 00b2 9A42     		cmp	r2, r3
 970 00b4 13D0     		beq	.L68
 971              		.loc 2 473 0 is_stmt 1
 972 00b6 7B69     		ldr	r3, [r7, #20]
 973 00b8 5B68     		ldr	r3, [r3, #4]
 974 00ba 1A46     		mov	r2, r3
 975 00bc 7B69     		ldr	r3, [r7, #20]
 976 00be D31A     		subs	r3, r2, r3
 977 00c0 9AB2     		uxth	r2, r3
 978 00c2 7B8A     		ldrh	r3, [r7, #18]	@ movhi
 979 00c4 1344     		add	r3, r3, r2
 980 00c6 9BB2     		uxth	r3, r3
 981 00c8 7869     		ldr	r0, [r7, #20]
 982 00ca 1946     		mov	r1, r3
 983 00cc FFF7FEFF 		bl	mem_trim
 984 00d0 7861     		str	r0, [r7, #20]
 985              		.loc 2 474 0
 986 00d2 7B69     		ldr	r3, [r7, #20]
 987 00d4 002B     		cmp	r3, #0
 988 00d6 02D1     		bne	.L68
 989              		.loc 2 474 0 is_stmt 0 discriminator 1
 990 00d8 1048     		ldr	r0, .L70+16
 991 00da FFF7FEFF 		bl	osalSysHalt
 992              	.L68:
 993              		.loc 2 477 0 is_stmt 1
 994 00de 7B69     		ldr	r3, [r7, #20]
 995 00e0 7A8A     		ldrh	r2, [r7, #18]	@ movhi
 996 00e2 5A81     		strh	r2, [r3, #10]	@ movhi
 997              		.loc 2 478 0
 998 00e4 7B69     		ldr	r3, [r7, #20]
 999 00e6 5A89     		ldrh	r2, [r3, #10]
 1000 00e8 7B69     		ldr	r3, [r7, #20]
 1001 00ea 1A81     		strh	r2, [r3, #8]	@ movhi
 1002              		.loc 2 481 0
 1003 00ec 7B69     		ldr	r3, [r7, #20]
 1004 00ee 1B68     		ldr	r3, [r3]
 1005 00f0 002B     		cmp	r3, #0
 1006 00f2 04D0     		beq	.L69
 1007              		.loc 2 483 0
 1008 00f4 7B69     		ldr	r3, [r7, #20]
 1009 00f6 1B68     		ldr	r3, [r3]
 1010 00f8 1846     		mov	r0, r3
 1011 00fa FFF7FEFF 		bl	pbuf_free
 1012              	.L69:
 1013              		.loc 2 486 0
 1014 00fe 7B69     		ldr	r3, [r7, #20]
 1015 0100 0022     		movs	r2, #0
 1016 0102 1A60     		str	r2, [r3]
 1017              	.L60:
 1018              		.loc 2 488 0
 1019 0104 1837     		adds	r7, r7, #24
 1020 0106 BD46     		mov	sp, r7
 1021              		@ sp needed
ARM GAS  C:\Users\Luis\AppData\Local\Temp\cc1uv7VI.s 			page 20


 1022 0108 80BD     		pop	{r7, pc}
 1023              	.L71:
 1024 010a 00BF     		.align	2
 1025              	.L70:
 1026 010c 64010000 		.word	.LC9
 1027 0110 7C010000 		.word	.LC10
 1028 0114 98010000 		.word	.LC11
 1029 0118 AC010000 		.word	.LC12
 1030 011c C4010000 		.word	.LC13
 1031              		.cfi_endproc
 1032              	.LFE265:
 1033              		.size	pbuf_realloc, .-pbuf_realloc
 1034              		.section	.rodata
 1035              		.align	2
 1036              	.LC14:
 1037 01e0 7020213D 		.ascii	"p != NULL\000"
 1037      204E554C 
 1037      4C00
 1038 01ea 0000     		.align	2
 1039              	.LC15:
 1040 01ec 696E6372 		.ascii	"increment_magnitude <= p->len\000"
 1040      656D656E 
 1040      745F6D61 
 1040      676E6974 
 1040      75646520 
 1041 020a 0000     		.align	2
 1042              	.LC16:
 1043 020c 62616420 		.ascii	"bad pbuf type\000"
 1043      70627566 
 1043      20747970 
 1043      6500
 1044              		.section	.text.pbuf_header,"ax",%progbits
 1045              		.align	2
 1046              		.p2align 4,,15
 1047              		.global	pbuf_header
 1048              		.thumb
 1049              		.thumb_func
 1050              		.type	pbuf_header, %function
 1051              	pbuf_header:
 1052              	.LFB266:
 1053              		.loc 2 512 0
 1054              		.cfi_startproc
 1055              		@ args = 0, pretend = 0, frame = 16
 1056              		@ frame_needed = 1, uses_anonymous_args = 0
 1057 0000 80B5     		push	{r7, lr}
 1058              		.cfi_def_cfa_offset 8
 1059              		.cfi_offset 7, -8
 1060              		.cfi_offset 14, -4
 1061 0002 84B0     		sub	sp, sp, #16
 1062              		.cfi_def_cfa_offset 24
 1063 0004 00AF     		add	r7, sp, #0
 1064              		.cfi_def_cfa_register 7
 1065 0006 7860     		str	r0, [r7, #4]
 1066 0008 0B46     		mov	r3, r1
 1067 000a 7B80     		strh	r3, [r7, #2]	@ movhi
 1068              		.loc 2 517 0
 1069 000c 7B68     		ldr	r3, [r7, #4]
ARM GAS  C:\Users\Luis\AppData\Local\Temp\cc1uv7VI.s 			page 21


 1070 000e 002B     		cmp	r3, #0
 1071 0010 02D1     		bne	.L73
 1072              		.loc 2 517 0 is_stmt 0 discriminator 1
 1073 0012 3848     		ldr	r0, .L86
 1074 0014 FFF7FEFF 		bl	osalSysHalt
 1075              	.L73:
 1076              		.loc 2 518 0 is_stmt 1
 1077 0018 B7F90230 		ldrsh	r3, [r7, #2]
 1078 001c 002B     		cmp	r3, #0
 1079 001e 02D0     		beq	.L74
 1080              		.loc 2 518 0 is_stmt 0 discriminator 1
 1081 0020 7B68     		ldr	r3, [r7, #4]
 1082 0022 002B     		cmp	r3, #0
 1083 0024 01D1     		bne	.L75
 1084              	.L74:
 1085              		.loc 2 519 0 is_stmt 1
 1086 0026 0023     		movs	r3, #0
 1087 0028 60E0     		b	.L76
 1088              	.L75:
 1089              		.loc 2 522 0
 1090 002a B7F90230 		ldrsh	r3, [r7, #2]
 1091 002e 002B     		cmp	r3, #0
 1092 0030 0CDA     		bge	.L77
 1093              		.loc 2 523 0
 1094 0032 7B88     		ldrh	r3, [r7, #2]
 1095 0034 5B42     		negs	r3, r3
 1096 0036 FB81     		strh	r3, [r7, #14]	@ movhi
 1097              		.loc 2 525 0
 1098 0038 7B68     		ldr	r3, [r7, #4]
 1099 003a 5B89     		ldrh	r3, [r3, #10]
 1100 003c FA89     		ldrh	r2, [r7, #14]
 1101 003e 9A42     		cmp	r2, r3
 1102 0040 06D9     		bls	.L78
 1103              		.loc 2 525 0 is_stmt 0 discriminator 1
 1104 0042 2D48     		ldr	r0, .L86+4
 1105 0044 FFF7FEFF 		bl	osalSysHalt
 1106 0048 0123     		movs	r3, #1
 1107 004a 4FE0     		b	.L76
 1108              	.L77:
 1109              		.loc 2 527 0 is_stmt 1
 1110 004c 7B88     		ldrh	r3, [r7, #2]	@ movhi
 1111 004e FB81     		strh	r3, [r7, #14]	@ movhi
 1112              	.L78:
 1113              		.loc 2 540 0
 1114 0050 7B68     		ldr	r3, [r7, #4]
 1115 0052 1B7B     		ldrb	r3, [r3, #12]	@ zero_extendqisi2
 1116 0054 BB81     		strh	r3, [r7, #12]	@ movhi
 1117              		.loc 2 542 0
 1118 0056 7B68     		ldr	r3, [r7, #4]
 1119 0058 5B68     		ldr	r3, [r3, #4]
 1120 005a BB60     		str	r3, [r7, #8]
 1121              		.loc 2 545 0
 1122 005c BB89     		ldrh	r3, [r7, #12]
 1123 005e 002B     		cmp	r3, #0
 1124 0060 02D0     		beq	.L79
 1125              		.loc 2 545 0 is_stmt 0 discriminator 1
 1126 0062 BB89     		ldrh	r3, [r7, #12]
ARM GAS  C:\Users\Luis\AppData\Local\Temp\cc1uv7VI.s 			page 22


 1127 0064 032B     		cmp	r3, #3
 1128 0066 13D1     		bne	.L80
 1129              	.L79:
 1130              		.loc 2 547 0 is_stmt 1
 1131 0068 7B68     		ldr	r3, [r7, #4]
 1132 006a 5A68     		ldr	r2, [r3, #4]
 1133 006c B7F90230 		ldrsh	r3, [r7, #2]
 1134 0070 5B42     		negs	r3, r3
 1135 0072 1A44     		add	r2, r2, r3
 1136 0074 7B68     		ldr	r3, [r7, #4]
 1137 0076 5A60     		str	r2, [r3, #4]
 1138              		.loc 2 549 0
 1139 0078 7B68     		ldr	r3, [r7, #4]
 1140 007a 5A68     		ldr	r2, [r3, #4]
 1141 007c 7B68     		ldr	r3, [r7, #4]
 1142 007e 1033     		adds	r3, r3, #16
 1143 0080 9A42     		cmp	r2, r3
 1144 0082 04D2     		bcs	.L81
 1145              		.loc 2 554 0
 1146 0084 7B68     		ldr	r3, [r7, #4]
 1147 0086 BA68     		ldr	r2, [r7, #8]
 1148 0088 5A60     		str	r2, [r3, #4]
 1149              		.loc 2 556 0
 1150 008a 0123     		movs	r3, #1
 1151 008c 2EE0     		b	.L76
 1152              	.L81:
 1153              		.loc 2 549 0 discriminator 1
 1154 008e 1EE0     		b	.L82
 1155              	.L80:
 1156              		.loc 2 559 0
 1157 0090 BB89     		ldrh	r3, [r7, #12]
 1158 0092 022B     		cmp	r3, #2
 1159 0094 02D0     		beq	.L83
 1160              		.loc 2 559 0 is_stmt 0 discriminator 1
 1161 0096 BB89     		ldrh	r3, [r7, #12]
 1162 0098 012B     		cmp	r3, #1
 1163 009a 13D1     		bne	.L84
 1164              	.L83:
 1165              		.loc 2 561 0 is_stmt 1
 1166 009c B7F90230 		ldrsh	r3, [r7, #2]
 1167 00a0 002B     		cmp	r3, #0
 1168 00a2 0DDA     		bge	.L85
 1169              		.loc 2 561 0 is_stmt 0 discriminator 1
 1170 00a4 7B68     		ldr	r3, [r7, #4]
 1171 00a6 5B89     		ldrh	r3, [r3, #10]
 1172 00a8 FA89     		ldrh	r2, [r7, #14]
 1173 00aa 9A42     		cmp	r2, r3
 1174 00ac 08D8     		bhi	.L85
 1175              		.loc 2 563 0 is_stmt 1
 1176 00ae 7B68     		ldr	r3, [r7, #4]
 1177 00b0 5A68     		ldr	r2, [r3, #4]
 1178 00b2 B7F90230 		ldrsh	r3, [r7, #2]
 1179 00b6 5B42     		negs	r3, r3
 1180 00b8 1A44     		add	r2, r2, r3
 1181 00ba 7B68     		ldr	r3, [r7, #4]
 1182 00bc 5A60     		str	r2, [r3, #4]
 1183              		.loc 2 561 0
ARM GAS  C:\Users\Luis\AppData\Local\Temp\cc1uv7VI.s 			page 23


 1184 00be 06E0     		b	.L82
 1185              	.L85:
 1186              		.loc 2 567 0
 1187 00c0 0123     		movs	r3, #1
 1188 00c2 13E0     		b	.L76
 1189              	.L84:
 1190              		.loc 2 571 0 discriminator 1
 1191 00c4 0D48     		ldr	r0, .L86+8
 1192 00c6 FFF7FEFF 		bl	osalSysHalt
 1193              		.loc 2 572 0 discriminator 1
 1194 00ca 0123     		movs	r3, #1
 1195 00cc 0EE0     		b	.L76
 1196              	.L82:
 1197              		.loc 2 575 0
 1198 00ce 7B68     		ldr	r3, [r7, #4]
 1199 00d0 5A89     		ldrh	r2, [r3, #10]
 1200 00d2 7B88     		ldrh	r3, [r7, #2]
 1201 00d4 1344     		add	r3, r3, r2
 1202 00d6 9AB2     		uxth	r2, r3
 1203 00d8 7B68     		ldr	r3, [r7, #4]
 1204 00da 5A81     		strh	r2, [r3, #10]	@ movhi
 1205              		.loc 2 576 0
 1206 00dc 7B68     		ldr	r3, [r7, #4]
 1207 00de 1A89     		ldrh	r2, [r3, #8]
 1208 00e0 7B88     		ldrh	r3, [r7, #2]
 1209 00e2 1344     		add	r3, r3, r2
 1210 00e4 9AB2     		uxth	r2, r3
 1211 00e6 7B68     		ldr	r3, [r7, #4]
 1212 00e8 1A81     		strh	r2, [r3, #8]	@ movhi
 1213              		.loc 2 581 0
 1214 00ea 0023     		movs	r3, #0
 1215              	.L76:
 1216              		.loc 2 582 0
 1217 00ec 1846     		mov	r0, r3
 1218 00ee 1037     		adds	r7, r7, #16
 1219 00f0 BD46     		mov	sp, r7
 1220              		@ sp needed
 1221 00f2 80BD     		pop	{r7, pc}
 1222              	.L87:
 1223              		.align	2
 1224              	.L86:
 1225 00f4 E0010000 		.word	.LC14
 1226 00f8 EC010000 		.word	.LC15
 1227 00fc 0C020000 		.word	.LC16
 1228              		.cfi_endproc
 1229              	.LFE266:
 1230              		.size	pbuf_header, .-pbuf_header
 1231              		.section	.rodata
 1232 021a 0000     		.align	2
 1233              	.LC17:
 1234 021c 70627566 		.ascii	"pbuf_free: sane type\000"
 1234      5F667265 
 1234      653A2073 
 1234      616E6520 
 1234      74797065 
 1235 0231 000000   		.align	2
 1236              	.LC18:
ARM GAS  C:\Users\Luis\AppData\Local\Temp\cc1uv7VI.s 			page 24


 1237 0234 70627566 		.ascii	"pbuf_free: p->ref > 0\000"
 1237      5F667265 
 1237      653A2070 
 1237      2D3E7265 
 1237      66203E20 
 1238 024a 0000     		.align	2
 1239              	.LC19:
 1240 024c 70632D3E 		.ascii	"pc->custom_free_function != NULL\000"
 1240      63757374 
 1240      6F6D5F66 
 1240      7265655F 
 1240      66756E63 
 1241              		.section	.text.pbuf_free,"ax",%progbits
 1242              		.align	2
 1243              		.p2align 4,,15
 1244              		.global	pbuf_free
 1245              		.thumb
 1246              		.thumb_func
 1247              		.type	pbuf_free, %function
 1248              	pbuf_free:
 1249              	.LFB267:
 1250              		.loc 2 619 0
 1251              		.cfi_startproc
 1252              		@ args = 0, pretend = 0, frame = 24
 1253              		@ frame_needed = 1, uses_anonymous_args = 0
 1254 0000 80B5     		push	{r7, lr}
 1255              		.cfi_def_cfa_offset 8
 1256              		.cfi_offset 7, -8
 1257              		.cfi_offset 14, -4
 1258 0002 86B0     		sub	sp, sp, #24
 1259              		.cfi_def_cfa_offset 32
 1260 0004 00AF     		add	r7, sp, #0
 1261              		.cfi_def_cfa_register 7
 1262 0006 7860     		str	r0, [r7, #4]
 1263              		.loc 2 624 0
 1264 0008 7B68     		ldr	r3, [r7, #4]
 1265 000a 002B     		cmp	r3, #0
 1266 000c 07D1     		bne	.L89
 1267              		.loc 2 625 0
 1268 000e 7B68     		ldr	r3, [r7, #4]
 1269 0010 002B     		cmp	r3, #0
 1270 0012 02D1     		bne	.L90
 1271              		.loc 2 625 0 is_stmt 0 discriminator 1
 1272 0014 3648     		ldr	r0, .L103
 1273 0016 FFF7FEFF 		bl	osalSysHalt
 1274              	.L90:
 1275              		.loc 2 629 0 is_stmt 1
 1276 001a 0023     		movs	r3, #0
 1277 001c 64E0     		b	.L91
 1278              	.L89:
 1279              		.loc 2 635 0
 1280 001e 7B68     		ldr	r3, [r7, #4]
 1281 0020 1B7B     		ldrb	r3, [r3, #12]	@ zero_extendqisi2
 1282 0022 002B     		cmp	r3, #0
 1283 0024 0ED0     		beq	.L92
 1284              		.loc 2 635 0 is_stmt 0 discriminator 1
 1285 0026 7B68     		ldr	r3, [r7, #4]
ARM GAS  C:\Users\Luis\AppData\Local\Temp\cc1uv7VI.s 			page 25


 1286 0028 1B7B     		ldrb	r3, [r3, #12]	@ zero_extendqisi2
 1287 002a 012B     		cmp	r3, #1
 1288 002c 0AD0     		beq	.L92
 1289 002e 7B68     		ldr	r3, [r7, #4]
 1290 0030 1B7B     		ldrb	r3, [r3, #12]	@ zero_extendqisi2
 1291 0032 022B     		cmp	r3, #2
 1292 0034 06D0     		beq	.L92
 1293 0036 7B68     		ldr	r3, [r7, #4]
 1294 0038 1B7B     		ldrb	r3, [r3, #12]	@ zero_extendqisi2
 1295 003a 032B     		cmp	r3, #3
 1296 003c 02D0     		beq	.L92
 1297 003e 2D48     		ldr	r0, .L103+4
 1298 0040 FFF7FEFF 		bl	osalSysHalt
 1299              	.L92:
 1300              		.loc 2 639 0 is_stmt 1
 1301 0044 0023     		movs	r3, #0
 1302 0046 FB75     		strb	r3, [r7, #23]
 1303              		.loc 2 642 0
 1304 0048 4AE0     		b	.L93
 1305              	.L102:
 1306              	.LBB2:
 1307              		.loc 2 650 0
 1308 004a 7B68     		ldr	r3, [r7, #4]
 1309 004c DB89     		ldrh	r3, [r3, #14]
 1310 004e 002B     		cmp	r3, #0
 1311 0050 02D1     		bne	.L94
 1312              		.loc 2 650 0 is_stmt 0 discriminator 1
 1313 0052 2948     		ldr	r0, .L103+8
 1314 0054 FFF7FEFF 		bl	osalSysHalt
 1315              	.L94:
 1316              		.loc 2 652 0 is_stmt 1
 1317 0058 7B68     		ldr	r3, [r7, #4]
 1318 005a DB89     		ldrh	r3, [r3, #14]
 1319 005c 013B     		subs	r3, r3, #1
 1320 005e 9AB2     		uxth	r2, r3
 1321 0060 7B68     		ldr	r3, [r7, #4]
 1322 0062 DA81     		strh	r2, [r3, #14]	@ movhi
 1323 0064 7B68     		ldr	r3, [r7, #4]
 1324 0066 DB89     		ldrh	r3, [r3, #14]	@ movhi
 1325 0068 BB82     		strh	r3, [r7, #20]	@ movhi
 1326              		.loc 2 655 0
 1327 006a BB8A     		ldrh	r3, [r7, #20]
 1328 006c 002B     		cmp	r3, #0
 1329 006e 35D1     		bne	.L95
 1330              		.loc 2 657 0
 1331 0070 7B68     		ldr	r3, [r7, #4]
 1332 0072 1B68     		ldr	r3, [r3]
 1333 0074 3B61     		str	r3, [r7, #16]
 1334              		.loc 2 659 0
 1335 0076 7B68     		ldr	r3, [r7, #4]
 1336 0078 1B7B     		ldrb	r3, [r3, #12]	@ zero_extendqisi2
 1337 007a FB81     		strh	r3, [r7, #14]	@ movhi
 1338              		.loc 2 662 0
 1339 007c 7B68     		ldr	r3, [r7, #4]
 1340 007e 5B7B     		ldrb	r3, [r3, #13]	@ zero_extendqisi2
 1341 0080 03F00203 		and	r3, r3, #2
 1342 0084 002B     		cmp	r3, #0
ARM GAS  C:\Users\Luis\AppData\Local\Temp\cc1uv7VI.s 			page 26


 1343 0086 0DD0     		beq	.L96
 1344              	.LBB3:
 1345              		.loc 2 663 0
 1346 0088 7B68     		ldr	r3, [r7, #4]
 1347 008a BB60     		str	r3, [r7, #8]
 1348              		.loc 2 664 0
 1349 008c BB68     		ldr	r3, [r7, #8]
 1350 008e 1B69     		ldr	r3, [r3, #16]
 1351 0090 002B     		cmp	r3, #0
 1352 0092 02D1     		bne	.L97
 1353              		.loc 2 664 0 is_stmt 0 discriminator 1
 1354 0094 1948     		ldr	r0, .L103+12
 1355 0096 FFF7FEFF 		bl	osalSysHalt
 1356              	.L97:
 1357              		.loc 2 665 0 is_stmt 1
 1358 009a BB68     		ldr	r3, [r7, #8]
 1359 009c 1B69     		ldr	r3, [r3, #16]
 1360 009e 7868     		ldr	r0, [r7, #4]
 1361 00a0 9847     		blx	r3
 1362              	.LBE3:
 1363 00a2 15E0     		b	.L98
 1364              	.L96:
 1365              		.loc 2 670 0
 1366 00a4 FB89     		ldrh	r3, [r7, #14]
 1367 00a6 032B     		cmp	r3, #3
 1368 00a8 04D1     		bne	.L99
 1369              		.loc 2 671 0
 1370 00aa 0D20     		movs	r0, #13
 1371 00ac 7968     		ldr	r1, [r7, #4]
 1372 00ae FFF7FEFF 		bl	memp_free
 1373 00b2 0DE0     		b	.L98
 1374              	.L99:
 1375              		.loc 2 673 0
 1376 00b4 FB89     		ldrh	r3, [r7, #14]
 1377 00b6 012B     		cmp	r3, #1
 1378 00b8 02D0     		beq	.L100
 1379              		.loc 2 673 0 is_stmt 0 discriminator 1
 1380 00ba FB89     		ldrh	r3, [r7, #14]
 1381 00bc 022B     		cmp	r3, #2
 1382 00be 04D1     		bne	.L101
 1383              	.L100:
 1384              		.loc 2 674 0 is_stmt 1
 1385 00c0 0C20     		movs	r0, #12
 1386 00c2 7968     		ldr	r1, [r7, #4]
 1387 00c4 FFF7FEFF 		bl	memp_free
 1388 00c8 02E0     		b	.L98
 1389              	.L101:
 1390              		.loc 2 677 0
 1391 00ca 7868     		ldr	r0, [r7, #4]
 1392 00cc FFF7FEFF 		bl	mem_free
 1393              	.L98:
 1394              		.loc 2 680 0 discriminator 1
 1395 00d0 FB7D     		ldrb	r3, [r7, #23]	@ zero_extendqisi2
 1396 00d2 0133     		adds	r3, r3, #1
 1397 00d4 FB75     		strb	r3, [r7, #23]
 1398              		.loc 2 682 0 discriminator 1
 1399 00d6 3B69     		ldr	r3, [r7, #16]
ARM GAS  C:\Users\Luis\AppData\Local\Temp\cc1uv7VI.s 			page 27


 1400 00d8 7B60     		str	r3, [r7, #4]
 1401 00da 01E0     		b	.L93
 1402              	.L95:
 1403              		.loc 2 688 0
 1404 00dc 0023     		movs	r3, #0
 1405 00de 7B60     		str	r3, [r7, #4]
 1406              	.L93:
 1407              	.LBE2:
 1408              		.loc 2 642 0 discriminator 1
 1409 00e0 7B68     		ldr	r3, [r7, #4]
 1410 00e2 002B     		cmp	r3, #0
 1411 00e4 B1D1     		bne	.L102
 1412              		.loc 2 693 0
 1413 00e6 FB7D     		ldrb	r3, [r7, #23]	@ zero_extendqisi2
 1414              	.L91:
 1415              		.loc 2 694 0
 1416 00e8 1846     		mov	r0, r3
 1417 00ea 1837     		adds	r7, r7, #24
 1418 00ec BD46     		mov	sp, r7
 1419              		@ sp needed
 1420 00ee 80BD     		pop	{r7, pc}
 1421              	.L104:
 1422              		.align	2
 1423              	.L103:
 1424 00f0 E0010000 		.word	.LC14
 1425 00f4 1C020000 		.word	.LC17
 1426 00f8 34020000 		.word	.LC18
 1427 00fc 4C020000 		.word	.LC19
 1428              		.cfi_endproc
 1429              	.LFE267:
 1430              		.size	pbuf_free, .-pbuf_free
 1431              		.section	.text.pbuf_clen,"ax",%progbits
 1432              		.align	2
 1433              		.p2align 4,,15
 1434              		.global	pbuf_clen
 1435              		.thumb
 1436              		.thumb_func
 1437              		.type	pbuf_clen, %function
 1438              	pbuf_clen:
 1439              	.LFB268:
 1440              		.loc 2 705 0
 1441              		.cfi_startproc
 1442              		@ args = 0, pretend = 0, frame = 16
 1443              		@ frame_needed = 1, uses_anonymous_args = 0
 1444              		@ link register save eliminated.
 1445 0000 80B4     		push	{r7}
 1446              		.cfi_def_cfa_offset 4
 1447              		.cfi_offset 7, -4
 1448 0002 85B0     		sub	sp, sp, #20
 1449              		.cfi_def_cfa_offset 24
 1450 0004 00AF     		add	r7, sp, #0
 1451              		.cfi_def_cfa_register 7
 1452 0006 7860     		str	r0, [r7, #4]
 1453              		.loc 2 708 0
 1454 0008 0023     		movs	r3, #0
 1455 000a FB73     		strb	r3, [r7, #15]
 1456              		.loc 2 709 0
ARM GAS  C:\Users\Luis\AppData\Local\Temp\cc1uv7VI.s 			page 28


 1457 000c 05E0     		b	.L106
 1458              	.L107:
 1459              		.loc 2 710 0
 1460 000e FB7B     		ldrb	r3, [r7, #15]
 1461 0010 0133     		adds	r3, r3, #1
 1462 0012 FB73     		strb	r3, [r7, #15]
 1463              		.loc 2 711 0
 1464 0014 7B68     		ldr	r3, [r7, #4]
 1465 0016 1B68     		ldr	r3, [r3]
 1466 0018 7B60     		str	r3, [r7, #4]
 1467              	.L106:
 1468              		.loc 2 709 0 discriminator 1
 1469 001a 7B68     		ldr	r3, [r7, #4]
 1470 001c 002B     		cmp	r3, #0
 1471 001e F6D1     		bne	.L107
 1472              		.loc 2 713 0
 1473 0020 FB7B     		ldrb	r3, [r7, #15]	@ zero_extendqisi2
 1474              		.loc 2 714 0
 1475 0022 1846     		mov	r0, r3
 1476 0024 1437     		adds	r7, r7, #20
 1477 0026 BD46     		mov	sp, r7
 1478              		@ sp needed
 1479 0028 5DF8047B 		ldr	r7, [sp], #4
 1480 002c 7047     		bx	lr
 1481              		.cfi_endproc
 1482              	.LFE268:
 1483              		.size	pbuf_clen, .-pbuf_clen
 1484 002e 00BF     		.section	.text.pbuf_ref,"ax",%progbits
 1485              		.align	2
 1486              		.p2align 4,,15
 1487              		.global	pbuf_ref
 1488              		.thumb
 1489              		.thumb_func
 1490              		.type	pbuf_ref, %function
 1491              	pbuf_ref:
 1492              	.LFB269:
 1493              		.loc 2 724 0
 1494              		.cfi_startproc
 1495              		@ args = 0, pretend = 0, frame = 8
 1496              		@ frame_needed = 1, uses_anonymous_args = 0
 1497              		@ link register save eliminated.
 1498 0000 80B4     		push	{r7}
 1499              		.cfi_def_cfa_offset 4
 1500              		.cfi_offset 7, -4
 1501 0002 83B0     		sub	sp, sp, #12
 1502              		.cfi_def_cfa_offset 16
 1503 0004 00AF     		add	r7, sp, #0
 1504              		.cfi_def_cfa_register 7
 1505 0006 7860     		str	r0, [r7, #4]
 1506              		.loc 2 727 0
 1507 0008 7B68     		ldr	r3, [r7, #4]
 1508 000a 002B     		cmp	r3, #0
 1509 000c 05D0     		beq	.L109
 1510              		.loc 2 729 0
 1511 000e 7B68     		ldr	r3, [r7, #4]
 1512 0010 DB89     		ldrh	r3, [r3, #14]
 1513 0012 0133     		adds	r3, r3, #1
ARM GAS  C:\Users\Luis\AppData\Local\Temp\cc1uv7VI.s 			page 29


 1514 0014 9AB2     		uxth	r2, r3
 1515 0016 7B68     		ldr	r3, [r7, #4]
 1516 0018 DA81     		strh	r2, [r3, #14]	@ movhi
 1517              	.L109:
 1518              		.loc 2 732 0
 1519 001a 0C37     		adds	r7, r7, #12
 1520 001c BD46     		mov	sp, r7
 1521              		@ sp needed
 1522 001e 5DF8047B 		ldr	r7, [sp], #4
 1523 0022 7047     		bx	lr
 1524              		.cfi_endproc
 1525              	.LFE269:
 1526              		.size	pbuf_ref, .-pbuf_ref
 1527 0024 AFF30080 		.section	.rodata
 1527      AFF30080 
 1527      AFF30080 
 1528 026d 000000   		.align	2
 1529              	.LC20:
 1530 0270 28682021 		.ascii	"(h != NULL) && (t != NULL) (programmer violates API"
 1530      3D204E55 
 1530      4C4C2920 
 1530      26262028 
 1530      7420213D 
 1531 02a3 2900     		.ascii	")\000"
 1532 02a5 000000   		.align	2
 1533              	.LC21:
 1534 02a8 702D3E74 		.ascii	"p->tot_len == p->len (of last pbuf in chain)\000"
 1534      6F745F6C 
 1534      656E203D 
 1534      3D20702D 
 1534      3E6C656E 
 1535 02d5 000000   		.align	2
 1536              	.LC22:
 1537 02d8 702D3E6E 		.ascii	"p->next == NULL\000"
 1537      65787420 
 1537      3D3D204E 
 1537      554C4C00 
 1538              		.section	.text.pbuf_cat,"ax",%progbits
 1539              		.align	2
 1540              		.p2align 4,,15
 1541              		.global	pbuf_cat
 1542              		.thumb
 1543              		.thumb_func
 1544              		.type	pbuf_cat, %function
 1545              	pbuf_cat:
 1546              	.LFB270:
 1547              		.loc 2 746 0
 1548              		.cfi_startproc
 1549              		@ args = 0, pretend = 0, frame = 16
 1550              		@ frame_needed = 1, uses_anonymous_args = 0
 1551 0000 80B5     		push	{r7, lr}
 1552              		.cfi_def_cfa_offset 8
 1553              		.cfi_offset 7, -8
 1554              		.cfi_offset 14, -4
 1555 0002 84B0     		sub	sp, sp, #16
 1556              		.cfi_def_cfa_offset 24
 1557 0004 00AF     		add	r7, sp, #0
ARM GAS  C:\Users\Luis\AppData\Local\Temp\cc1uv7VI.s 			page 30


 1558              		.cfi_def_cfa_register 7
 1559 0006 7860     		str	r0, [r7, #4]
 1560 0008 3960     		str	r1, [r7]
 1561              		.loc 2 749 0
 1562 000a 7B68     		ldr	r3, [r7, #4]
 1563 000c 002B     		cmp	r3, #0
 1564 000e 02D0     		beq	.L112
 1565              		.loc 2 749 0 is_stmt 0 discriminator 2
 1566 0010 3B68     		ldr	r3, [r7]
 1567 0012 002B     		cmp	r3, #0
 1568 0014 03D1     		bne	.L113
 1569              	.L112:
 1570              		.loc 2 749 0 discriminator 1
 1571 0016 1A48     		ldr	r0, .L119
 1572 0018 FFF7FEFF 		bl	osalSysHalt
 1573 001c 2CE0     		b	.L111
 1574              	.L113:
 1575              		.loc 2 753 0 is_stmt 1
 1576 001e 7B68     		ldr	r3, [r7, #4]
 1577 0020 FB60     		str	r3, [r7, #12]
 1578 0022 0AE0     		b	.L115
 1579              	.L116:
 1580              		.loc 2 755 0 discriminator 2
 1581 0024 FB68     		ldr	r3, [r7, #12]
 1582 0026 1A89     		ldrh	r2, [r3, #8]
 1583 0028 3B68     		ldr	r3, [r7]
 1584 002a 1B89     		ldrh	r3, [r3, #8]
 1585 002c 1344     		add	r3, r3, r2
 1586 002e 9AB2     		uxth	r2, r3
 1587 0030 FB68     		ldr	r3, [r7, #12]
 1588 0032 1A81     		strh	r2, [r3, #8]	@ movhi
 1589              		.loc 2 753 0 discriminator 2
 1590 0034 FB68     		ldr	r3, [r7, #12]
 1591 0036 1B68     		ldr	r3, [r3]
 1592 0038 FB60     		str	r3, [r7, #12]
 1593              	.L115:
 1594              		.loc 2 753 0 is_stmt 0 discriminator 1
 1595 003a FB68     		ldr	r3, [r7, #12]
 1596 003c 1B68     		ldr	r3, [r3]
 1597 003e 002B     		cmp	r3, #0
 1598 0040 F0D1     		bne	.L116
 1599              		.loc 2 758 0 is_stmt 1
 1600 0042 FB68     		ldr	r3, [r7, #12]
 1601 0044 1A89     		ldrh	r2, [r3, #8]
 1602 0046 FB68     		ldr	r3, [r7, #12]
 1603 0048 5B89     		ldrh	r3, [r3, #10]
 1604 004a 9A42     		cmp	r2, r3
 1605 004c 02D0     		beq	.L117
 1606              		.loc 2 758 0 is_stmt 0 discriminator 1
 1607 004e 0D48     		ldr	r0, .L119+4
 1608 0050 FFF7FEFF 		bl	osalSysHalt
 1609              	.L117:
 1610              		.loc 2 759 0 is_stmt 1
 1611 0054 FB68     		ldr	r3, [r7, #12]
 1612 0056 1B68     		ldr	r3, [r3]
 1613 0058 002B     		cmp	r3, #0
 1614 005a 02D0     		beq	.L118
ARM GAS  C:\Users\Luis\AppData\Local\Temp\cc1uv7VI.s 			page 31


 1615              		.loc 2 759 0 is_stmt 0 discriminator 1
 1616 005c 0A48     		ldr	r0, .L119+8
 1617 005e FFF7FEFF 		bl	osalSysHalt
 1618              	.L118:
 1619              		.loc 2 761 0 is_stmt 1
 1620 0062 FB68     		ldr	r3, [r7, #12]
 1621 0064 1A89     		ldrh	r2, [r3, #8]
 1622 0066 3B68     		ldr	r3, [r7]
 1623 0068 1B89     		ldrh	r3, [r3, #8]
 1624 006a 1344     		add	r3, r3, r2
 1625 006c 9AB2     		uxth	r2, r3
 1626 006e FB68     		ldr	r3, [r7, #12]
 1627 0070 1A81     		strh	r2, [r3, #8]	@ movhi
 1628              		.loc 2 763 0
 1629 0072 FB68     		ldr	r3, [r7, #12]
 1630 0074 3A68     		ldr	r2, [r7]
 1631 0076 1A60     		str	r2, [r3]
 1632              	.L111:
 1633              		.loc 2 767 0
 1634 0078 1037     		adds	r7, r7, #16
 1635 007a BD46     		mov	sp, r7
 1636              		@ sp needed
 1637 007c 80BD     		pop	{r7, pc}
 1638              	.L120:
 1639 007e 00BF     		.align	2
 1640              	.L119:
 1641 0080 70020000 		.word	.LC20
 1642 0084 A8020000 		.word	.LC21
 1643 0088 D8020000 		.word	.LC22
 1644              		.cfi_endproc
 1645              	.LFE270:
 1646              		.size	pbuf_cat, .-pbuf_cat
 1647 008c AFF30080 		.section	.text.pbuf_chain,"ax",%progbits
 1648              		.align	2
 1649              		.p2align 4,,15
 1650              		.global	pbuf_chain
 1651              		.thumb
 1652              		.thumb_func
 1653              		.type	pbuf_chain, %function
 1654              	pbuf_chain:
 1655              	.LFB271:
 1656              		.loc 2 787 0
 1657              		.cfi_startproc
 1658              		@ args = 0, pretend = 0, frame = 8
 1659              		@ frame_needed = 1, uses_anonymous_args = 0
 1660 0000 80B5     		push	{r7, lr}
 1661              		.cfi_def_cfa_offset 8
 1662              		.cfi_offset 7, -8
 1663              		.cfi_offset 14, -4
 1664 0002 82B0     		sub	sp, sp, #8
 1665              		.cfi_def_cfa_offset 16
 1666 0004 00AF     		add	r7, sp, #0
 1667              		.cfi_def_cfa_register 7
 1668 0006 7860     		str	r0, [r7, #4]
 1669 0008 3960     		str	r1, [r7]
 1670              		.loc 2 788 0
 1671 000a 7868     		ldr	r0, [r7, #4]
ARM GAS  C:\Users\Luis\AppData\Local\Temp\cc1uv7VI.s 			page 32


 1672 000c 3968     		ldr	r1, [r7]
 1673 000e FFF7FEFF 		bl	pbuf_cat
 1674              		.loc 2 790 0
 1675 0012 3868     		ldr	r0, [r7]
 1676 0014 FFF7FEFF 		bl	pbuf_ref
 1677              		.loc 2 792 0
 1678 0018 0837     		adds	r7, r7, #8
 1679 001a BD46     		mov	sp, r7
 1680              		@ sp needed
 1681 001c 80BD     		pop	{r7, pc}
 1682              		.cfi_endproc
 1683              	.LFE271:
 1684              		.size	pbuf_chain, .-pbuf_chain
 1685 001e 00BF     		.section	.rodata
 1686              		.align	2
 1687              	.LC23:
 1688 02e8 702D3E74 		.ascii	"p->tot_len == p->len + q->tot_len\000"
 1688      6F745F6C 
 1688      656E203D 
 1688      3D20702D 
 1688      3E6C656E 
 1689 030a 0000     		.align	2
 1690              	.LC24:
 1691 030c 702D3E74 		.ascii	"p->tot_len == p->len\000"
 1691      6F745F6C 
 1691      656E203D 
 1691      3D20702D 
 1691      3E6C656E 
 1692              		.section	.text.pbuf_dechain,"ax",%progbits
 1693              		.align	2
 1694              		.p2align 4,,15
 1695              		.global	pbuf_dechain
 1696              		.thumb
 1697              		.thumb_func
 1698              		.type	pbuf_dechain, %function
 1699              	pbuf_dechain:
 1700              	.LFB272:
 1701              		.loc 2 804 0
 1702              		.cfi_startproc
 1703              		@ args = 0, pretend = 0, frame = 16
 1704              		@ frame_needed = 1, uses_anonymous_args = 0
 1705 0000 80B5     		push	{r7, lr}
 1706              		.cfi_def_cfa_offset 8
 1707              		.cfi_offset 7, -8
 1708              		.cfi_offset 14, -4
 1709 0002 84B0     		sub	sp, sp, #16
 1710              		.cfi_def_cfa_offset 24
 1711 0004 00AF     		add	r7, sp, #0
 1712              		.cfi_def_cfa_register 7
 1713 0006 7860     		str	r0, [r7, #4]
 1714              		.loc 2 806 0
 1715 0008 0123     		movs	r3, #1
 1716 000a FB73     		strb	r3, [r7, #15]
 1717              		.loc 2 808 0
 1718 000c 7B68     		ldr	r3, [r7, #4]
 1719 000e 1B68     		ldr	r3, [r3]
 1720 0010 BB60     		str	r3, [r7, #8]
ARM GAS  C:\Users\Luis\AppData\Local\Temp\cc1uv7VI.s 			page 33


 1721              		.loc 2 810 0
 1722 0012 BB68     		ldr	r3, [r7, #8]
 1723 0014 002B     		cmp	r3, #0
 1724 0016 21D0     		beq	.L123
 1725              		.loc 2 812 0
 1726 0018 BB68     		ldr	r3, [r7, #8]
 1727 001a 1B89     		ldrh	r3, [r3, #8]
 1728 001c 1A46     		mov	r2, r3
 1729 001e 7B68     		ldr	r3, [r7, #4]
 1730 0020 1B89     		ldrh	r3, [r3, #8]
 1731 0022 1946     		mov	r1, r3
 1732 0024 7B68     		ldr	r3, [r7, #4]
 1733 0026 5B89     		ldrh	r3, [r3, #10]
 1734 0028 CB1A     		subs	r3, r1, r3
 1735 002a 9A42     		cmp	r2, r3
 1736 002c 02D0     		beq	.L124
 1737              		.loc 2 812 0 is_stmt 0 discriminator 1
 1738 002e 1548     		ldr	r0, .L129
 1739 0030 FFF7FEFF 		bl	osalSysHalt
 1740              	.L124:
 1741              		.loc 2 814 0 is_stmt 1
 1742 0034 7B68     		ldr	r3, [r7, #4]
 1743 0036 1A89     		ldrh	r2, [r3, #8]
 1744 0038 7B68     		ldr	r3, [r7, #4]
 1745 003a 5B89     		ldrh	r3, [r3, #10]
 1746 003c D31A     		subs	r3, r2, r3
 1747 003e 9AB2     		uxth	r2, r3
 1748 0040 BB68     		ldr	r3, [r7, #8]
 1749 0042 1A81     		strh	r2, [r3, #8]	@ movhi
 1750              		.loc 2 816 0
 1751 0044 7B68     		ldr	r3, [r7, #4]
 1752 0046 0022     		movs	r2, #0
 1753 0048 1A60     		str	r2, [r3]
 1754              		.loc 2 818 0
 1755 004a 7B68     		ldr	r3, [r7, #4]
 1756 004c 5A89     		ldrh	r2, [r3, #10]
 1757 004e 7B68     		ldr	r3, [r7, #4]
 1758 0050 1A81     		strh	r2, [r3, #8]	@ movhi
 1759              		.loc 2 821 0
 1760 0052 B868     		ldr	r0, [r7, #8]
 1761 0054 FFF7FEFF 		bl	pbuf_free
 1762 0058 0346     		mov	r3, r0
 1763 005a FB73     		strb	r3, [r7, #15]
 1764              	.L123:
 1765              		.loc 2 829 0
 1766 005c 7B68     		ldr	r3, [r7, #4]
 1767 005e 1A89     		ldrh	r2, [r3, #8]
 1768 0060 7B68     		ldr	r3, [r7, #4]
 1769 0062 5B89     		ldrh	r3, [r3, #10]
 1770 0064 9A42     		cmp	r2, r3
 1771 0066 02D0     		beq	.L125
 1772              		.loc 2 829 0 is_stmt 0 discriminator 1
 1773 0068 0748     		ldr	r0, .L129+4
 1774 006a FFF7FEFF 		bl	osalSysHalt
 1775              	.L125:
 1776              		.loc 2 830 0 is_stmt 1
 1777 006e FB7B     		ldrb	r3, [r7, #15]	@ zero_extendqisi2
ARM GAS  C:\Users\Luis\AppData\Local\Temp\cc1uv7VI.s 			page 34


 1778 0070 002B     		cmp	r3, #0
 1779 0072 01D1     		bne	.L126
 1780              		.loc 2 830 0 is_stmt 0 discriminator 1
 1781 0074 BB68     		ldr	r3, [r7, #8]
 1782 0076 00E0     		b	.L127
 1783              	.L126:
 1784              		.loc 2 830 0 discriminator 2
 1785 0078 0023     		movs	r3, #0
 1786              	.L127:
 1787              		.loc 2 831 0 is_stmt 1 discriminator 3
 1788 007a 1846     		mov	r0, r3
 1789 007c 1037     		adds	r7, r7, #16
 1790 007e BD46     		mov	sp, r7
 1791              		@ sp needed
 1792 0080 80BD     		pop	{r7, pc}
 1793              	.L130:
 1794 0082 00BF     		.align	2
 1795              	.L129:
 1796 0084 E8020000 		.word	.LC23
 1797 0088 0C030000 		.word	.LC24
 1798              		.cfi_endproc
 1799              	.LFE272:
 1800              		.size	pbuf_dechain, .-pbuf_dechain
 1801 008c AFF30080 		.section	.rodata
 1802 0321 000000   		.align	2
 1803              	.LC25:
 1804 0324 70627566 		.ascii	"pbuf_copy: target not big enough to hold source\000"
 1804      5F636F70 
 1804      793A2074 
 1804      61726765 
 1804      74206E6F 
 1805              		.align	2
 1806              	.LC26:
 1807 0354 6F666673 		.ascii	"offset_to <= p_to->len\000"
 1807      65745F74 
 1807      6F203C3D 
 1807      20705F74 
 1807      6F2D3E6C 
 1808 036b 00       		.align	2
 1809              	.LC27:
 1810 036c 6F666673 		.ascii	"offset_from <= p_from->len\000"
 1810      65745F66 
 1810      726F6D20 
 1810      3C3D2070 
 1810      5F66726F 
 1811 0387 00       		.align	2
 1812              	.LC28:
 1813 0388 705F746F 		.ascii	"p_to != NULL\000"
 1813      20213D20 
 1813      4E554C4C 
 1813      00
 1814 0395 000000   		.align	2
 1815              	.LC29:
 1816 0398 70627566 		.ascii	"pbuf_copy() does not allow packet queues!\012\000"
 1816      5F636F70 
 1816      79282920 
 1816      646F6573 
ARM GAS  C:\Users\Luis\AppData\Local\Temp\cc1uv7VI.s 			page 35


 1816      206E6F74 
 1817              		.section	.text.pbuf_copy,"ax",%progbits
 1818              		.align	2
 1819              		.p2align 4,,15
 1820              		.global	pbuf_copy
 1821              		.thumb
 1822              		.thumb_func
 1823              		.type	pbuf_copy, %function
 1824              	pbuf_copy:
 1825              	.LFB273:
 1826              		.loc 2 853 0
 1827              		.cfi_startproc
 1828              		@ args = 0, pretend = 0, frame = 16
 1829              		@ frame_needed = 1, uses_anonymous_args = 0
 1830 0000 80B5     		push	{r7, lr}
 1831              		.cfi_def_cfa_offset 8
 1832              		.cfi_offset 7, -8
 1833              		.cfi_offset 14, -4
 1834 0002 84B0     		sub	sp, sp, #16
 1835              		.cfi_def_cfa_offset 24
 1836 0004 00AF     		add	r7, sp, #0
 1837              		.cfi_def_cfa_register 7
 1838 0006 7860     		str	r0, [r7, #4]
 1839 0008 3960     		str	r1, [r7]
 1840              		.loc 2 854 0
 1841 000a 0023     		movs	r3, #0
 1842 000c FB81     		strh	r3, [r7, #14]	@ movhi
 1843 000e 0023     		movs	r3, #0
 1844 0010 BB81     		strh	r3, [r7, #12]	@ movhi
 1845              		.loc 2 860 0
 1846 0012 7B68     		ldr	r3, [r7, #4]
 1847 0014 002B     		cmp	r3, #0
 1848 0016 08D0     		beq	.L132
 1849              		.loc 2 860 0 is_stmt 0 discriminator 2
 1850 0018 3B68     		ldr	r3, [r7]
 1851 001a 002B     		cmp	r3, #0
 1852 001c 05D0     		beq	.L132
 1853              		.loc 2 860 0 discriminator 1
 1854 001e 7B68     		ldr	r3, [r7, #4]
 1855 0020 1A89     		ldrh	r2, [r3, #8]
 1856 0022 3B68     		ldr	r3, [r7]
 1857 0024 1B89     		ldrh	r3, [r3, #8]
 1858 0026 9A42     		cmp	r2, r3
 1859 0028 04D2     		bcs	.L133
 1860              	.L132:
 1861 002a 4748     		ldr	r0, .L143
 1862 002c FFF7FEFF 		bl	osalSysHalt
 1863 0030 F223     		movs	r3, #242
 1864 0032 84E0     		b	.L134
 1865              	.L133:
 1866              		.loc 2 867 0 is_stmt 1
 1867 0034 7B68     		ldr	r3, [r7, #4]
 1868 0036 5B89     		ldrh	r3, [r3, #10]
 1869 0038 1A46     		mov	r2, r3
 1870 003a FB89     		ldrh	r3, [r7, #14]
 1871 003c D21A     		subs	r2, r2, r3
 1872 003e 3B68     		ldr	r3, [r7]
ARM GAS  C:\Users\Luis\AppData\Local\Temp\cc1uv7VI.s 			page 36


 1873 0040 5B89     		ldrh	r3, [r3, #10]
 1874 0042 1946     		mov	r1, r3
 1875 0044 BB89     		ldrh	r3, [r7, #12]
 1876 0046 CB1A     		subs	r3, r1, r3
 1877 0048 9A42     		cmp	r2, r3
 1878 004a 05DB     		blt	.L135
 1879              		.loc 2 869 0
 1880 004c 3B68     		ldr	r3, [r7]
 1881 004e 5A89     		ldrh	r2, [r3, #10]
 1882 0050 BB89     		ldrh	r3, [r7, #12]	@ movhi
 1883 0052 D31A     		subs	r3, r2, r3
 1884 0054 7B81     		strh	r3, [r7, #10]	@ movhi
 1885 0056 04E0     		b	.L136
 1886              	.L135:
 1887              		.loc 2 872 0
 1888 0058 7B68     		ldr	r3, [r7, #4]
 1889 005a 5A89     		ldrh	r2, [r3, #10]
 1890 005c FB89     		ldrh	r3, [r7, #14]	@ movhi
 1891 005e D31A     		subs	r3, r2, r3
 1892 0060 7B81     		strh	r3, [r7, #10]	@ movhi
 1893              	.L136:
 1894              		.loc 2 874 0
 1895 0062 7B68     		ldr	r3, [r7, #4]
 1896 0064 5A68     		ldr	r2, [r3, #4]
 1897 0066 FB89     		ldrh	r3, [r7, #14]
 1898 0068 D118     		adds	r1, r2, r3
 1899 006a 3B68     		ldr	r3, [r7]
 1900 006c 5A68     		ldr	r2, [r3, #4]
 1901 006e BB89     		ldrh	r3, [r7, #12]
 1902 0070 1A44     		add	r2, r2, r3
 1903 0072 7B89     		ldrh	r3, [r7, #10]
 1904 0074 0846     		mov	r0, r1
 1905 0076 1146     		mov	r1, r2
 1906 0078 1A46     		mov	r2, r3
 1907 007a FFF7FEFF 		bl	memcpy
 1908              		.loc 2 875 0
 1909 007e FA89     		ldrh	r2, [r7, #14]	@ movhi
 1910 0080 7B89     		ldrh	r3, [r7, #10]	@ movhi
 1911 0082 1344     		add	r3, r3, r2
 1912 0084 FB81     		strh	r3, [r7, #14]	@ movhi
 1913              		.loc 2 876 0
 1914 0086 BA89     		ldrh	r2, [r7, #12]	@ movhi
 1915 0088 7B89     		ldrh	r3, [r7, #10]	@ movhi
 1916 008a 1344     		add	r3, r3, r2
 1917 008c BB81     		strh	r3, [r7, #12]	@ movhi
 1918              		.loc 2 877 0
 1919 008e 7B68     		ldr	r3, [r7, #4]
 1920 0090 5B89     		ldrh	r3, [r3, #10]
 1921 0092 FA89     		ldrh	r2, [r7, #14]
 1922 0094 9A42     		cmp	r2, r3
 1923 0096 02D9     		bls	.L137
 1924              		.loc 2 877 0 is_stmt 0 discriminator 1
 1925 0098 2C48     		ldr	r0, .L143+4
 1926 009a FFF7FEFF 		bl	osalSysHalt
 1927              	.L137:
 1928              		.loc 2 878 0 is_stmt 1
 1929 009e 3B68     		ldr	r3, [r7]
ARM GAS  C:\Users\Luis\AppData\Local\Temp\cc1uv7VI.s 			page 37


 1930 00a0 5B89     		ldrh	r3, [r3, #10]
 1931 00a2 BA89     		ldrh	r2, [r7, #12]
 1932 00a4 9A42     		cmp	r2, r3
 1933 00a6 02D9     		bls	.L138
 1934              		.loc 2 878 0 is_stmt 0 discriminator 1
 1935 00a8 2948     		ldr	r0, .L143+8
 1936 00aa FFF7FEFF 		bl	osalSysHalt
 1937              	.L138:
 1938              		.loc 2 879 0 is_stmt 1
 1939 00ae 3B68     		ldr	r3, [r7]
 1940 00b0 5B89     		ldrh	r3, [r3, #10]
 1941 00b2 BA89     		ldrh	r2, [r7, #12]
 1942 00b4 9A42     		cmp	r2, r3
 1943 00b6 04D3     		bcc	.L139
 1944              		.loc 2 881 0
 1945 00b8 0023     		movs	r3, #0
 1946 00ba BB81     		strh	r3, [r7, #12]	@ movhi
 1947              		.loc 2 882 0
 1948 00bc 3B68     		ldr	r3, [r7]
 1949 00be 1B68     		ldr	r3, [r3]
 1950 00c0 3B60     		str	r3, [r7]
 1951              	.L139:
 1952              		.loc 2 884 0
 1953 00c2 7B68     		ldr	r3, [r7, #4]
 1954 00c4 5B89     		ldrh	r3, [r3, #10]
 1955 00c6 FA89     		ldrh	r2, [r7, #14]
 1956 00c8 9A42     		cmp	r2, r3
 1957 00ca 0FD1     		bne	.L140
 1958              		.loc 2 886 0
 1959 00cc 0023     		movs	r3, #0
 1960 00ce FB81     		strh	r3, [r7, #14]	@ movhi
 1961              		.loc 2 887 0
 1962 00d0 7B68     		ldr	r3, [r7, #4]
 1963 00d2 1B68     		ldr	r3, [r3]
 1964 00d4 7B60     		str	r3, [r7, #4]
 1965              		.loc 2 888 0
 1966 00d6 7B68     		ldr	r3, [r7, #4]
 1967 00d8 002B     		cmp	r3, #0
 1968 00da 07D1     		bne	.L140
 1969              		.loc 2 888 0 is_stmt 0 discriminator 1
 1970 00dc 3B68     		ldr	r3, [r7]
 1971 00de 002B     		cmp	r3, #0
 1972 00e0 04D0     		beq	.L140
 1973 00e2 1C48     		ldr	r0, .L143+12
 1974 00e4 FFF7FEFF 		bl	osalSysHalt
 1975 00e8 F223     		movs	r3, #242
 1976 00ea 28E0     		b	.L134
 1977              	.L140:
 1978              		.loc 2 891 0 is_stmt 1
 1979 00ec 3B68     		ldr	r3, [r7]
 1980 00ee 002B     		cmp	r3, #0
 1981 00f0 0ED0     		beq	.L141
 1982              		.loc 2 891 0 is_stmt 0 discriminator 1
 1983 00f2 3B68     		ldr	r3, [r7]
 1984 00f4 5A89     		ldrh	r2, [r3, #10]
 1985 00f6 3B68     		ldr	r3, [r7]
 1986 00f8 1B89     		ldrh	r3, [r3, #8]
ARM GAS  C:\Users\Luis\AppData\Local\Temp\cc1uv7VI.s 			page 38


 1987 00fa 9A42     		cmp	r2, r3
 1988 00fc 08D1     		bne	.L141
 1989              		.loc 2 893 0 is_stmt 1
 1990 00fe 3B68     		ldr	r3, [r7]
 1991 0100 1B68     		ldr	r3, [r3]
 1992 0102 002B     		cmp	r3, #0
 1993 0104 04D0     		beq	.L141
 1994              		.loc 2 893 0 is_stmt 0 discriminator 1
 1995 0106 1448     		ldr	r0, .L143+16
 1996 0108 FFF7FEFF 		bl	osalSysHalt
 1997 010c FA23     		movs	r3, #250
 1998 010e 16E0     		b	.L134
 1999              	.L141:
 2000              		.loc 2 896 0 is_stmt 1
 2001 0110 7B68     		ldr	r3, [r7, #4]
 2002 0112 002B     		cmp	r3, #0
 2003 0114 0ED0     		beq	.L142
 2004              		.loc 2 896 0 is_stmt 0 discriminator 1
 2005 0116 7B68     		ldr	r3, [r7, #4]
 2006 0118 5A89     		ldrh	r2, [r3, #10]
 2007 011a 7B68     		ldr	r3, [r7, #4]
 2008 011c 1B89     		ldrh	r3, [r3, #8]
 2009 011e 9A42     		cmp	r2, r3
 2010 0120 08D1     		bne	.L142
 2011              		.loc 2 898 0 is_stmt 1
 2012 0122 7B68     		ldr	r3, [r7, #4]
 2013 0124 1B68     		ldr	r3, [r3]
 2014 0126 002B     		cmp	r3, #0
 2015 0128 04D0     		beq	.L142
 2016              		.loc 2 898 0 is_stmt 0 discriminator 1
 2017 012a 0B48     		ldr	r0, .L143+16
 2018 012c FFF7FEFF 		bl	osalSysHalt
 2019 0130 FA23     		movs	r3, #250
 2020 0132 04E0     		b	.L134
 2021              	.L142:
 2022              		.loc 2 901 0 is_stmt 1
 2023 0134 3B68     		ldr	r3, [r7]
 2024 0136 002B     		cmp	r3, #0
 2025 0138 7FF47CAF 		bne	.L133
 2026              		.loc 2 903 0
 2027 013c 0023     		movs	r3, #0
 2028              	.L134:
 2029 013e 5BB2     		sxtb	r3, r3
 2030              		.loc 2 904 0
 2031 0140 1846     		mov	r0, r3
 2032 0142 1037     		adds	r7, r7, #16
 2033 0144 BD46     		mov	sp, r7
 2034              		@ sp needed
 2035 0146 80BD     		pop	{r7, pc}
 2036              	.L144:
 2037              		.align	2
 2038              	.L143:
 2039 0148 24030000 		.word	.LC25
 2040 014c 54030000 		.word	.LC26
 2041 0150 6C030000 		.word	.LC27
 2042 0154 88030000 		.word	.LC28
 2043 0158 98030000 		.word	.LC29
ARM GAS  C:\Users\Luis\AppData\Local\Temp\cc1uv7VI.s 			page 39


 2044              		.cfi_endproc
 2045              	.LFE273:
 2046              		.size	pbuf_copy, .-pbuf_copy
 2047 015c AFF30080 		.section	.rodata
 2048 03c3 00       		.align	2
 2049              	.LC30:
 2050 03c4 70627566 		.ascii	"pbuf_copy_partial: invalid buf\000"
 2050      5F636F70 
 2050      795F7061 
 2050      72746961 
 2050      6C3A2069 
 2051 03e3 00       		.align	2
 2052              	.LC31:
 2053 03e4 70627566 		.ascii	"pbuf_copy_partial: invalid dataptr\000"
 2053      5F636F70 
 2053      795F7061 
 2053      72746961 
 2053      6C3A2069 
 2054              		.section	.text.pbuf_copy_partial,"ax",%progbits
 2055              		.align	2
 2056              		.p2align 4,,15
 2057              		.global	pbuf_copy_partial
 2058              		.thumb
 2059              		.thumb_func
 2060              		.type	pbuf_copy_partial, %function
 2061              	pbuf_copy_partial:
 2062              	.LFB274:
 2063              		.loc 2 919 0
 2064              		.cfi_startproc
 2065              		@ args = 0, pretend = 0, frame = 32
 2066              		@ frame_needed = 1, uses_anonymous_args = 0
 2067 0000 80B5     		push	{r7, lr}
 2068              		.cfi_def_cfa_offset 8
 2069              		.cfi_offset 7, -8
 2070              		.cfi_offset 14, -4
 2071 0002 88B0     		sub	sp, sp, #32
 2072              		.cfi_def_cfa_offset 40
 2073 0004 00AF     		add	r7, sp, #0
 2074              		.cfi_def_cfa_register 7
 2075 0006 F860     		str	r0, [r7, #12]
 2076 0008 B960     		str	r1, [r7, #8]
 2077 000a FA80     		strh	r2, [r7, #6]	@ movhi
 2078 000c BB80     		strh	r3, [r7, #4]	@ movhi
 2079              		.loc 2 923 0
 2080 000e 0023     		movs	r3, #0
 2081 0010 FB82     		strh	r3, [r7, #22]	@ movhi
 2082              		.loc 2 925 0
 2083 0012 FB68     		ldr	r3, [r7, #12]
 2084 0014 002B     		cmp	r3, #0
 2085 0016 04D1     		bne	.L146
 2086              		.loc 2 925 0 is_stmt 0 discriminator 1
 2087 0018 2D48     		ldr	r0, .L157
 2088 001a FFF7FEFF 		bl	osalSysHalt
 2089 001e 0023     		movs	r3, #0
 2090 0020 52E0     		b	.L147
 2091              	.L146:
 2092              		.loc 2 926 0 is_stmt 1
ARM GAS  C:\Users\Luis\AppData\Local\Temp\cc1uv7VI.s 			page 40


 2093 0022 BB68     		ldr	r3, [r7, #8]
 2094 0024 002B     		cmp	r3, #0
 2095 0026 04D1     		bne	.L148
 2096              		.loc 2 926 0 is_stmt 0 discriminator 1
 2097 0028 2A48     		ldr	r0, .L157+4
 2098 002a FFF7FEFF 		bl	osalSysHalt
 2099 002e 0023     		movs	r3, #0
 2100 0030 4AE0     		b	.L147
 2101              	.L148:
 2102              		.loc 2 928 0 is_stmt 1
 2103 0032 0023     		movs	r3, #0
 2104 0034 7B83     		strh	r3, [r7, #26]	@ movhi
 2105              		.loc 2 930 0
 2106 0036 FB68     		ldr	r3, [r7, #12]
 2107 0038 002B     		cmp	r3, #0
 2108 003a 02D0     		beq	.L149
 2109              		.loc 2 930 0 is_stmt 0 discriminator 1
 2110 003c BB68     		ldr	r3, [r7, #8]
 2111 003e 002B     		cmp	r3, #0
 2112 0040 01D1     		bne	.L150
 2113              	.L149:
 2114              		.loc 2 931 0 is_stmt 1
 2115 0042 0023     		movs	r3, #0
 2116 0044 40E0     		b	.L147
 2117              	.L150:
 2118              		.loc 2 935 0
 2119 0046 FB68     		ldr	r3, [r7, #12]
 2120 0048 FB61     		str	r3, [r7, #28]
 2121 004a 36E0     		b	.L151
 2122              	.L156:
 2123              		.loc 2 936 0
 2124 004c BB88     		ldrh	r3, [r7, #4]
 2125 004e 002B     		cmp	r3, #0
 2126 0050 0AD0     		beq	.L152
 2127              		.loc 2 936 0 is_stmt 0 discriminator 1
 2128 0052 FB69     		ldr	r3, [r7, #28]
 2129 0054 5B89     		ldrh	r3, [r3, #10]
 2130 0056 BA88     		ldrh	r2, [r7, #4]
 2131 0058 9A42     		cmp	r2, r3
 2132 005a 05D3     		bcc	.L152
 2133              		.loc 2 938 0 is_stmt 1
 2134 005c FB69     		ldr	r3, [r7, #28]
 2135 005e 5B89     		ldrh	r3, [r3, #10]
 2136 0060 BA88     		ldrh	r2, [r7, #4]	@ movhi
 2137 0062 D31A     		subs	r3, r2, r3
 2138 0064 BB80     		strh	r3, [r7, #4]	@ movhi
 2139 0066 25E0     		b	.L153
 2140              	.L152:
 2141              		.loc 2 941 0
 2142 0068 FB69     		ldr	r3, [r7, #28]
 2143 006a 5A89     		ldrh	r2, [r3, #10]
 2144 006c BB88     		ldrh	r3, [r7, #4]	@ movhi
 2145 006e D31A     		subs	r3, r2, r3
 2146 0070 3B83     		strh	r3, [r7, #24]	@ movhi
 2147              		.loc 2 942 0
 2148 0072 3A8B     		ldrh	r2, [r7, #24]
 2149 0074 FB88     		ldrh	r3, [r7, #6]
ARM GAS  C:\Users\Luis\AppData\Local\Temp\cc1uv7VI.s 			page 41


 2150 0076 9A42     		cmp	r2, r3
 2151 0078 01D9     		bls	.L154
 2152              		.loc 2 943 0
 2153 007a FB88     		ldrh	r3, [r7, #6]	@ movhi
 2154 007c 3B83     		strh	r3, [r7, #24]	@ movhi
 2155              	.L154:
 2156              		.loc 2 945 0
 2157 007e 7B8B     		ldrh	r3, [r7, #26]
 2158 0080 BA68     		ldr	r2, [r7, #8]
 2159 0082 D118     		adds	r1, r2, r3
 2160 0084 FB69     		ldr	r3, [r7, #28]
 2161 0086 5A68     		ldr	r2, [r3, #4]
 2162 0088 BB88     		ldrh	r3, [r7, #4]
 2163 008a 1A44     		add	r2, r2, r3
 2164 008c 3B8B     		ldrh	r3, [r7, #24]
 2165 008e 0846     		mov	r0, r1
 2166 0090 1146     		mov	r1, r2
 2167 0092 1A46     		mov	r2, r3
 2168 0094 FFF7FEFF 		bl	memcpy
 2169              		.loc 2 946 0
 2170 0098 FA8A     		ldrh	r2, [r7, #22]	@ movhi
 2171 009a 3B8B     		ldrh	r3, [r7, #24]	@ movhi
 2172 009c 1344     		add	r3, r3, r2
 2173 009e FB82     		strh	r3, [r7, #22]	@ movhi
 2174              		.loc 2 947 0
 2175 00a0 7A8B     		ldrh	r2, [r7, #26]	@ movhi
 2176 00a2 3B8B     		ldrh	r3, [r7, #24]	@ movhi
 2177 00a4 1344     		add	r3, r3, r2
 2178 00a6 7B83     		strh	r3, [r7, #26]	@ movhi
 2179              		.loc 2 948 0
 2180 00a8 FA88     		ldrh	r2, [r7, #6]	@ movhi
 2181 00aa 3B8B     		ldrh	r3, [r7, #24]	@ movhi
 2182 00ac D31A     		subs	r3, r2, r3
 2183 00ae FB80     		strh	r3, [r7, #6]	@ movhi
 2184              		.loc 2 949 0
 2185 00b0 0023     		movs	r3, #0
 2186 00b2 BB80     		strh	r3, [r7, #4]	@ movhi
 2187              	.L153:
 2188              		.loc 2 935 0
 2189 00b4 FB69     		ldr	r3, [r7, #28]
 2190 00b6 1B68     		ldr	r3, [r3]
 2191 00b8 FB61     		str	r3, [r7, #28]
 2192              	.L151:
 2193              		.loc 2 935 0 is_stmt 0 discriminator 1
 2194 00ba FB88     		ldrh	r3, [r7, #6]
 2195 00bc 002B     		cmp	r3, #0
 2196 00be 02D0     		beq	.L155
 2197              		.loc 2 935 0 discriminator 2
 2198 00c0 FB69     		ldr	r3, [r7, #28]
 2199 00c2 002B     		cmp	r3, #0
 2200 00c4 C2D1     		bne	.L156
 2201              	.L155:
 2202              		.loc 2 952 0 is_stmt 1
 2203 00c6 FB8A     		ldrh	r3, [r7, #22]
 2204              	.L147:
 2205              		.loc 2 953 0
 2206 00c8 1846     		mov	r0, r3
ARM GAS  C:\Users\Luis\AppData\Local\Temp\cc1uv7VI.s 			page 42


 2207 00ca 2037     		adds	r7, r7, #32
 2208 00cc BD46     		mov	sp, r7
 2209              		@ sp needed
 2210 00ce 80BD     		pop	{r7, pc}
 2211              	.L158:
 2212              		.align	2
 2213              	.L157:
 2214 00d0 C4030000 		.word	.LC30
 2215 00d4 E4030000 		.word	.LC31
 2216              		.cfi_endproc
 2217              	.LFE274:
 2218              		.size	pbuf_copy_partial, .-pbuf_copy_partial
 2219 00d8 AFF30080 		.section	.rodata
 2219      AFF30080 
 2220 0407 00       		.align	2
 2221              	.LC32:
 2222 0408 70627566 		.ascii	"pbuf_take: invalid buf\000"
 2222      5F74616B 
 2222      653A2069 
 2222      6E76616C 
 2222      69642062 
 2223 041f 00       		.align	2
 2224              	.LC33:
 2225 0420 70627566 		.ascii	"pbuf_take: invalid dataptr\000"
 2225      5F74616B 
 2225      653A2069 
 2225      6E76616C 
 2225      69642064 
 2226 043b 00       		.align	2
 2227              	.LC34:
 2228 043c 70627566 		.ascii	"pbuf_take: invalid pbuf\000"
 2228      5F74616B 
 2228      653A2069 
 2228      6E76616C 
 2228      69642070 
 2229              		.align	2
 2230              	.LC35:
 2231 0454 64696420 		.ascii	"did not copy all data\000"
 2231      6E6F7420 
 2231      636F7079 
 2231      20616C6C 
 2231      20646174 
 2232              		.section	.text.pbuf_take,"ax",%progbits
 2233              		.align	2
 2234              		.p2align 4,,15
 2235              		.global	pbuf_take
 2236              		.thumb
 2237              		.thumb_func
 2238              		.type	pbuf_take, %function
 2239              	pbuf_take:
 2240              	.LFB275:
 2241              		.loc 2 967 0
 2242              		.cfi_startproc
 2243              		@ args = 0, pretend = 0, frame = 32
 2244              		@ frame_needed = 1, uses_anonymous_args = 0
 2245 0000 80B5     		push	{r7, lr}
 2246              		.cfi_def_cfa_offset 8
ARM GAS  C:\Users\Luis\AppData\Local\Temp\cc1uv7VI.s 			page 43


 2247              		.cfi_offset 7, -8
 2248              		.cfi_offset 14, -4
 2249 0002 88B0     		sub	sp, sp, #32
 2250              		.cfi_def_cfa_offset 40
 2251 0004 00AF     		add	r7, sp, #0
 2252              		.cfi_def_cfa_register 7
 2253 0006 F860     		str	r0, [r7, #12]
 2254 0008 B960     		str	r1, [r7, #8]
 2255 000a 1346     		mov	r3, r2
 2256 000c FB80     		strh	r3, [r7, #6]	@ movhi
 2257              		.loc 2 970 0
 2258 000e FB88     		ldrh	r3, [r7, #6]	@ movhi
 2259 0010 3B83     		strh	r3, [r7, #24]	@ movhi
 2260              		.loc 2 971 0
 2261 0012 0023     		movs	r3, #0
 2262 0014 FB82     		strh	r3, [r7, #22]	@ movhi
 2263              		.loc 2 973 0
 2264 0016 FB68     		ldr	r3, [r7, #12]
 2265 0018 002B     		cmp	r3, #0
 2266 001a 04D1     		bne	.L160
 2267              		.loc 2 973 0 is_stmt 0 discriminator 1
 2268 001c 2A48     		ldr	r0, .L171
 2269 001e FFF7FEFF 		bl	osalSysHalt
 2270 0022 0023     		movs	r3, #0
 2271 0024 4BE0     		b	.L161
 2272              	.L160:
 2273              		.loc 2 974 0 is_stmt 1
 2274 0026 BB68     		ldr	r3, [r7, #8]
 2275 0028 002B     		cmp	r3, #0
 2276 002a 04D1     		bne	.L162
 2277              		.loc 2 974 0 is_stmt 0 discriminator 1
 2278 002c 2748     		ldr	r0, .L171+4
 2279 002e FFF7FEFF 		bl	osalSysHalt
 2280 0032 0023     		movs	r3, #0
 2281 0034 43E0     		b	.L161
 2282              	.L162:
 2283              		.loc 2 976 0 is_stmt 1
 2284 0036 FB68     		ldr	r3, [r7, #12]
 2285 0038 002B     		cmp	r3, #0
 2286 003a 07D0     		beq	.L163
 2287              		.loc 2 976 0 is_stmt 0 discriminator 1
 2288 003c BB68     		ldr	r3, [r7, #8]
 2289 003e 002B     		cmp	r3, #0
 2290 0040 04D0     		beq	.L163
 2291 0042 FB68     		ldr	r3, [r7, #12]
 2292 0044 1B89     		ldrh	r3, [r3, #8]
 2293 0046 FA88     		ldrh	r2, [r7, #6]
 2294 0048 9A42     		cmp	r2, r3
 2295 004a 01D9     		bls	.L164
 2296              	.L163:
 2297              		.loc 2 977 0 is_stmt 1
 2298 004c F223     		movs	r3, #242
 2299 004e 36E0     		b	.L161
 2300              	.L164:
 2301              		.loc 2 981 0
 2302 0050 FB68     		ldr	r3, [r7, #12]
 2303 0052 FB61     		str	r3, [r7, #28]
ARM GAS  C:\Users\Luis\AppData\Local\Temp\cc1uv7VI.s 			page 44


 2304 0054 25E0     		b	.L165
 2305              	.L168:
 2306              		.loc 2 982 0
 2307 0056 FB69     		ldr	r3, [r7, #28]
 2308 0058 002B     		cmp	r3, #0
 2309 005a 02D1     		bne	.L166
 2310              		.loc 2 982 0 is_stmt 0 discriminator 1
 2311 005c 1C48     		ldr	r0, .L171+8
 2312 005e FFF7FEFF 		bl	osalSysHalt
 2313              	.L166:
 2314              		.loc 2 983 0 is_stmt 1
 2315 0062 3B8B     		ldrh	r3, [r7, #24]	@ movhi
 2316 0064 7B83     		strh	r3, [r7, #26]	@ movhi
 2317              		.loc 2 984 0
 2318 0066 FB69     		ldr	r3, [r7, #28]
 2319 0068 5B89     		ldrh	r3, [r3, #10]
 2320 006a 7A8B     		ldrh	r2, [r7, #26]
 2321 006c 9A42     		cmp	r2, r3
 2322 006e 02D9     		bls	.L167
 2323              		.loc 2 986 0
 2324 0070 FB69     		ldr	r3, [r7, #28]
 2325 0072 5B89     		ldrh	r3, [r3, #10]	@ movhi
 2326 0074 7B83     		strh	r3, [r7, #26]	@ movhi
 2327              	.L167:
 2328              		.loc 2 989 0
 2329 0076 FB69     		ldr	r3, [r7, #28]
 2330 0078 5968     		ldr	r1, [r3, #4]
 2331 007a FB8A     		ldrh	r3, [r7, #22]
 2332 007c BA68     		ldr	r2, [r7, #8]
 2333 007e 1A44     		add	r2, r2, r3
 2334 0080 7B8B     		ldrh	r3, [r7, #26]
 2335 0082 0846     		mov	r0, r1
 2336 0084 1146     		mov	r1, r2
 2337 0086 1A46     		mov	r2, r3
 2338 0088 FFF7FEFF 		bl	memcpy
 2339              		.loc 2 990 0
 2340 008c 3A8B     		ldrh	r2, [r7, #24]	@ movhi
 2341 008e 7B8B     		ldrh	r3, [r7, #26]	@ movhi
 2342 0090 D31A     		subs	r3, r2, r3
 2343 0092 3B83     		strh	r3, [r7, #24]	@ movhi
 2344              		.loc 2 991 0
 2345 0094 FA8A     		ldrh	r2, [r7, #22]	@ movhi
 2346 0096 7B8B     		ldrh	r3, [r7, #26]	@ movhi
 2347 0098 1344     		add	r3, r3, r2
 2348 009a FB82     		strh	r3, [r7, #22]	@ movhi
 2349              		.loc 2 981 0
 2350 009c FB69     		ldr	r3, [r7, #28]
 2351 009e 1B68     		ldr	r3, [r3]
 2352 00a0 FB61     		str	r3, [r7, #28]
 2353              	.L165:
 2354              		.loc 2 981 0 is_stmt 0 discriminator 1
 2355 00a2 3B8B     		ldrh	r3, [r7, #24]
 2356 00a4 002B     		cmp	r3, #0
 2357 00a6 D6D1     		bne	.L168
 2358              		.loc 2 993 0 is_stmt 1
 2359 00a8 3B8B     		ldrh	r3, [r7, #24]
 2360 00aa 002B     		cmp	r3, #0
ARM GAS  C:\Users\Luis\AppData\Local\Temp\cc1uv7VI.s 			page 45


 2361 00ac 03D1     		bne	.L169
 2362              		.loc 2 993 0 is_stmt 0 discriminator 2
 2363 00ae FA8A     		ldrh	r2, [r7, #22]
 2364 00b0 FB88     		ldrh	r3, [r7, #6]
 2365 00b2 9A42     		cmp	r2, r3
 2366 00b4 02D0     		beq	.L170
 2367              	.L169:
 2368              		.loc 2 993 0 discriminator 1
 2369 00b6 0748     		ldr	r0, .L171+12
 2370 00b8 FFF7FEFF 		bl	osalSysHalt
 2371              	.L170:
 2372              		.loc 2 994 0 is_stmt 1
 2373 00bc 0023     		movs	r3, #0
 2374              	.L161:
 2375 00be 5BB2     		sxtb	r3, r3
 2376              		.loc 2 995 0
 2377 00c0 1846     		mov	r0, r3
 2378 00c2 2037     		adds	r7, r7, #32
 2379 00c4 BD46     		mov	sp, r7
 2380              		@ sp needed
 2381 00c6 80BD     		pop	{r7, pc}
 2382              	.L172:
 2383              		.align	2
 2384              	.L171:
 2385 00c8 08040000 		.word	.LC32
 2386 00cc 20040000 		.word	.LC33
 2387 00d0 3C040000 		.word	.LC34
 2388 00d4 54040000 		.word	.LC35
 2389              		.cfi_endproc
 2390              	.LFE275:
 2391              		.size	pbuf_take, .-pbuf_take
 2392 00d8 AFF30080 		.section	.rodata
 2392      AFF30080 
 2393 046a 0000     		.align	2
 2394              	.LC36:
 2395 046c 70627566 		.ascii	"pbuf_copy failed\000"
 2395      5F636F70 
 2395      79206661 
 2395      696C6564 
 2395      00
 2396 047d 000000   		.section	.text.pbuf_coalesce,"ax",%progbits
 2397              		.align	2
 2398              		.p2align 4,,15
 2399              		.global	pbuf_coalesce
 2400              		.thumb
 2401              		.thumb_func
 2402              		.type	pbuf_coalesce, %function
 2403              	pbuf_coalesce:
 2404              	.LFB276:
 2405              		.loc 2 1011 0
 2406              		.cfi_startproc
 2407              		@ args = 0, pretend = 0, frame = 16
 2408              		@ frame_needed = 1, uses_anonymous_args = 0
 2409 0000 80B5     		push	{r7, lr}
 2410              		.cfi_def_cfa_offset 8
 2411              		.cfi_offset 7, -8
 2412              		.cfi_offset 14, -4
ARM GAS  C:\Users\Luis\AppData\Local\Temp\cc1uv7VI.s 			page 46


 2413 0002 84B0     		sub	sp, sp, #16
 2414              		.cfi_def_cfa_offset 24
 2415 0004 00AF     		add	r7, sp, #0
 2416              		.cfi_def_cfa_register 7
 2417 0006 7860     		str	r0, [r7, #4]
 2418 0008 0B46     		mov	r3, r1
 2419 000a FB70     		strb	r3, [r7, #3]
 2420              		.loc 2 1014 0
 2421 000c 7B68     		ldr	r3, [r7, #4]
 2422 000e 1B68     		ldr	r3, [r3]
 2423 0010 002B     		cmp	r3, #0
 2424 0012 01D1     		bne	.L174
 2425              		.loc 2 1015 0
 2426 0014 7B68     		ldr	r3, [r7, #4]
 2427 0016 1EE0     		b	.L175
 2428              	.L174:
 2429              		.loc 2 1017 0
 2430 0018 7B68     		ldr	r3, [r7, #4]
 2431 001a 1B89     		ldrh	r3, [r3, #8]
 2432 001c FA78     		ldrb	r2, [r7, #3]	@ zero_extendqisi2
 2433 001e 1046     		mov	r0, r2
 2434 0020 1946     		mov	r1, r3
 2435 0022 0022     		movs	r2, #0
 2436 0024 FFF7FEFF 		bl	pbuf_alloc
 2437 0028 F860     		str	r0, [r7, #12]
 2438              		.loc 2 1018 0
 2439 002a FB68     		ldr	r3, [r7, #12]
 2440 002c 002B     		cmp	r3, #0
 2441 002e 01D1     		bne	.L176
 2442              		.loc 2 1020 0
 2443 0030 7B68     		ldr	r3, [r7, #4]
 2444 0032 10E0     		b	.L175
 2445              	.L176:
 2446              		.loc 2 1022 0
 2447 0034 F868     		ldr	r0, [r7, #12]
 2448 0036 7968     		ldr	r1, [r7, #4]
 2449 0038 FFF7FEFF 		bl	pbuf_copy
 2450 003c 0346     		mov	r3, r0
 2451 003e FB72     		strb	r3, [r7, #11]
 2452              		.loc 2 1023 0
 2453 0040 97F90B30 		ldrsb	r3, [r7, #11]
 2454 0044 002B     		cmp	r3, #0
 2455 0046 02D0     		beq	.L177
 2456              		.loc 2 1023 0 is_stmt 0 discriminator 1
 2457 0048 0548     		ldr	r0, .L178
 2458 004a FFF7FEFF 		bl	osalSysHalt
 2459              	.L177:
 2460              		.loc 2 1024 0 is_stmt 1
 2461 004e 7868     		ldr	r0, [r7, #4]
 2462 0050 FFF7FEFF 		bl	pbuf_free
 2463              		.loc 2 1025 0
 2464 0054 FB68     		ldr	r3, [r7, #12]
 2465              	.L175:
 2466              		.loc 2 1026 0
 2467 0056 1846     		mov	r0, r3
 2468 0058 1037     		adds	r7, r7, #16
 2469 005a BD46     		mov	sp, r7
ARM GAS  C:\Users\Luis\AppData\Local\Temp\cc1uv7VI.s 			page 47


 2470              		@ sp needed
 2471 005c 80BD     		pop	{r7, pc}
 2472              	.L179:
 2473 005e 00BF     		.align	2
 2474              	.L178:
 2475 0060 6C040000 		.word	.LC36
 2476              		.cfi_endproc
 2477              	.LFE276:
 2478              		.size	pbuf_coalesce, .-pbuf_coalesce
 2479 0064 AFF30080 		.section	.text.pbuf_get_at,"ax",%progbits
 2479      AFF30080 
 2479      AFF30080 
 2480              		.align	2
 2481              		.p2align 4,,15
 2482              		.global	pbuf_get_at
 2483              		.thumb
 2484              		.thumb_func
 2485              		.type	pbuf_get_at, %function
 2486              	pbuf_get_at:
 2487              	.LFB277:
 2488              		.loc 2 1078 0
 2489              		.cfi_startproc
 2490              		@ args = 0, pretend = 0, frame = 16
 2491              		@ frame_needed = 1, uses_anonymous_args = 0
 2492              		@ link register save eliminated.
 2493 0000 80B4     		push	{r7}
 2494              		.cfi_def_cfa_offset 4
 2495              		.cfi_offset 7, -4
 2496 0002 85B0     		sub	sp, sp, #20
 2497              		.cfi_def_cfa_offset 24
 2498 0004 00AF     		add	r7, sp, #0
 2499              		.cfi_def_cfa_register 7
 2500 0006 7860     		str	r0, [r7, #4]
 2501 0008 0B46     		mov	r3, r1
 2502 000a 7B80     		strh	r3, [r7, #2]	@ movhi
 2503              		.loc 2 1079 0
 2504 000c 7B88     		ldrh	r3, [r7, #2]	@ movhi
 2505 000e FB81     		strh	r3, [r7, #14]	@ movhi
 2506              		.loc 2 1080 0
 2507 0010 7B68     		ldr	r3, [r7, #4]
 2508 0012 BB60     		str	r3, [r7, #8]
 2509              		.loc 2 1083 0
 2510 0014 07E0     		b	.L181
 2511              	.L183:
 2512              		.loc 2 1084 0
 2513 0016 BB68     		ldr	r3, [r7, #8]
 2514 0018 5B89     		ldrh	r3, [r3, #10]
 2515 001a FA89     		ldrh	r2, [r7, #14]	@ movhi
 2516 001c D31A     		subs	r3, r2, r3
 2517 001e FB81     		strh	r3, [r7, #14]	@ movhi
 2518              		.loc 2 1085 0
 2519 0020 BB68     		ldr	r3, [r7, #8]
 2520 0022 1B68     		ldr	r3, [r3]
 2521 0024 BB60     		str	r3, [r7, #8]
 2522              	.L181:
 2523              		.loc 2 1083 0 discriminator 1
 2524 0026 BB68     		ldr	r3, [r7, #8]
ARM GAS  C:\Users\Luis\AppData\Local\Temp\cc1uv7VI.s 			page 48


 2525 0028 002B     		cmp	r3, #0
 2526 002a 04D0     		beq	.L182
 2527              		.loc 2 1083 0 is_stmt 0 discriminator 2
 2528 002c BB68     		ldr	r3, [r7, #8]
 2529 002e 5B89     		ldrh	r3, [r3, #10]
 2530 0030 FA89     		ldrh	r2, [r7, #14]
 2531 0032 9A42     		cmp	r2, r3
 2532 0034 EFD2     		bcs	.L183
 2533              	.L182:
 2534              		.loc 2 1088 0 is_stmt 1
 2535 0036 BB68     		ldr	r3, [r7, #8]
 2536 0038 002B     		cmp	r3, #0
 2537 003a 0AD0     		beq	.L184
 2538              		.loc 2 1088 0 is_stmt 0 discriminator 1
 2539 003c BB68     		ldr	r3, [r7, #8]
 2540 003e 5B89     		ldrh	r3, [r3, #10]
 2541 0040 FA89     		ldrh	r2, [r7, #14]
 2542 0042 9A42     		cmp	r2, r3
 2543 0044 05D2     		bcs	.L184
 2544              		.loc 2 1089 0 is_stmt 1
 2545 0046 BB68     		ldr	r3, [r7, #8]
 2546 0048 5A68     		ldr	r2, [r3, #4]
 2547 004a FB89     		ldrh	r3, [r7, #14]
 2548 004c 1344     		add	r3, r3, r2
 2549 004e 1B78     		ldrb	r3, [r3]	@ zero_extendqisi2
 2550 0050 00E0     		b	.L185
 2551              	.L184:
 2552              		.loc 2 1091 0
 2553 0052 0023     		movs	r3, #0
 2554              	.L185:
 2555              		.loc 2 1092 0
 2556 0054 1846     		mov	r0, r3
 2557 0056 1437     		adds	r7, r7, #20
 2558 0058 BD46     		mov	sp, r7
 2559              		@ sp needed
 2560 005a 5DF8047B 		ldr	r7, [sp], #4
 2561 005e 7047     		bx	lr
 2562              		.cfi_endproc
 2563              	.LFE277:
 2564              		.size	pbuf_get_at, .-pbuf_get_at
 2565              		.section	.text.pbuf_memcmp,"ax",%progbits
 2566              		.align	2
 2567              		.p2align 4,,15
 2568              		.global	pbuf_memcmp
 2569              		.thumb
 2570              		.thumb_func
 2571              		.type	pbuf_memcmp, %function
 2572              	pbuf_memcmp:
 2573              	.LFB278:
 2574              		.loc 2 1105 0
 2575              		.cfi_startproc
 2576              		@ args = 0, pretend = 0, frame = 32
 2577              		@ frame_needed = 1, uses_anonymous_args = 0
 2578 0000 80B5     		push	{r7, lr}
 2579              		.cfi_def_cfa_offset 8
 2580              		.cfi_offset 7, -8
 2581              		.cfi_offset 14, -4
ARM GAS  C:\Users\Luis\AppData\Local\Temp\cc1uv7VI.s 			page 49


 2582 0002 88B0     		sub	sp, sp, #32
 2583              		.cfi_def_cfa_offset 40
 2584 0004 00AF     		add	r7, sp, #0
 2585              		.cfi_def_cfa_register 7
 2586 0006 F860     		str	r0, [r7, #12]
 2587 0008 7A60     		str	r2, [r7, #4]
 2588 000a 0A46     		mov	r2, r1	@ movhi
 2589 000c 7A81     		strh	r2, [r7, #10]	@ movhi
 2590 000e 3B81     		strh	r3, [r7, #8]	@ movhi
 2591              		.loc 2 1106 0
 2592 0010 7B89     		ldrh	r3, [r7, #10]	@ movhi
 2593 0012 FB83     		strh	r3, [r7, #30]	@ movhi
 2594              		.loc 2 1107 0
 2595 0014 FB68     		ldr	r3, [r7, #12]
 2596 0016 BB61     		str	r3, [r7, #24]
 2597              		.loc 2 1110 0
 2598 0018 07E0     		b	.L187
 2599              	.L189:
 2600              		.loc 2 1111 0
 2601 001a BB69     		ldr	r3, [r7, #24]
 2602 001c 5B89     		ldrh	r3, [r3, #10]
 2603 001e FA8B     		ldrh	r2, [r7, #30]	@ movhi
 2604 0020 D31A     		subs	r3, r2, r3
 2605 0022 FB83     		strh	r3, [r7, #30]	@ movhi
 2606              		.loc 2 1112 0
 2607 0024 BB69     		ldr	r3, [r7, #24]
 2608 0026 1B68     		ldr	r3, [r3]
 2609 0028 BB61     		str	r3, [r7, #24]
 2610              	.L187:
 2611              		.loc 2 1110 0 discriminator 1
 2612 002a BB69     		ldr	r3, [r7, #24]
 2613 002c 002B     		cmp	r3, #0
 2614 002e 04D0     		beq	.L188
 2615              		.loc 2 1110 0 is_stmt 0 discriminator 2
 2616 0030 BB69     		ldr	r3, [r7, #24]
 2617 0032 5B89     		ldrh	r3, [r3, #10]
 2618 0034 FA8B     		ldrh	r2, [r7, #30]
 2619 0036 9A42     		cmp	r2, r3
 2620 0038 EFD2     		bcs	.L189
 2621              	.L188:
 2622              		.loc 2 1115 0 is_stmt 1
 2623 003a BB69     		ldr	r3, [r7, #24]
 2624 003c 002B     		cmp	r3, #0
 2625 003e 27D0     		beq	.L190
 2626              		.loc 2 1115 0 is_stmt 0 discriminator 1
 2627 0040 BB69     		ldr	r3, [r7, #24]
 2628 0042 5B89     		ldrh	r3, [r3, #10]
 2629 0044 FA8B     		ldrh	r2, [r7, #30]
 2630 0046 9A42     		cmp	r2, r3
 2631 0048 22D2     		bcs	.L190
 2632              	.LBB4:
 2633              		.loc 2 1117 0 is_stmt 1
 2634 004a 0023     		movs	r3, #0
 2635 004c FB82     		strh	r3, [r7, #22]	@ movhi
 2636 004e 19E0     		b	.L191
 2637              	.L194:
 2638              	.LBB5:
ARM GAS  C:\Users\Luis\AppData\Local\Temp\cc1uv7VI.s 			page 50


 2639              		.loc 2 1118 0
 2640 0050 FA8B     		ldrh	r2, [r7, #30]	@ movhi
 2641 0052 FB8A     		ldrh	r3, [r7, #22]	@ movhi
 2642 0054 1344     		add	r3, r3, r2
 2643 0056 9BB2     		uxth	r3, r3
 2644 0058 B869     		ldr	r0, [r7, #24]
 2645 005a 1946     		mov	r1, r3
 2646 005c FFF7FEFF 		bl	pbuf_get_at
 2647 0060 0346     		mov	r3, r0
 2648 0062 7B75     		strb	r3, [r7, #21]
 2649              		.loc 2 1119 0
 2650 0064 FB8A     		ldrh	r3, [r7, #22]
 2651 0066 7A68     		ldr	r2, [r7, #4]
 2652 0068 1344     		add	r3, r3, r2
 2653 006a 1B78     		ldrb	r3, [r3]
 2654 006c 3B75     		strb	r3, [r7, #20]
 2655              		.loc 2 1120 0
 2656 006e 7A7D     		ldrb	r2, [r7, #21]	@ zero_extendqisi2
 2657 0070 3B7D     		ldrb	r3, [r7, #20]	@ zero_extendqisi2
 2658 0072 9A42     		cmp	r2, r3
 2659 0074 03D0     		beq	.L192
 2660              		.loc 2 1121 0
 2661 0076 FB8A     		ldrh	r3, [r7, #22]	@ movhi
 2662 0078 0133     		adds	r3, r3, #1
 2663 007a 9BB2     		uxth	r3, r3
 2664 007c 0AE0     		b	.L193
 2665              	.L192:
 2666              	.LBE5:
 2667              		.loc 2 1117 0
 2668 007e FB8A     		ldrh	r3, [r7, #22]
 2669 0080 0133     		adds	r3, r3, #1
 2670 0082 FB82     		strh	r3, [r7, #22]	@ movhi
 2671              	.L191:
 2672              		.loc 2 1117 0 is_stmt 0 discriminator 1
 2673 0084 FA8A     		ldrh	r2, [r7, #22]
 2674 0086 3B89     		ldrh	r3, [r7, #8]
 2675 0088 9A42     		cmp	r2, r3
 2676 008a E1D3     		bcc	.L194
 2677              		.loc 2 1124 0 is_stmt 1
 2678 008c 0023     		movs	r3, #0
 2679 008e 01E0     		b	.L193
 2680              	.L190:
 2681              	.LBE4:
 2682              		.loc 2 1126 0
 2683 0090 4FF6FF73 		movw	r3, #65535
 2684              	.L193:
 2685              		.loc 2 1127 0
 2686 0094 1846     		mov	r0, r3
 2687 0096 2037     		adds	r7, r7, #32
 2688 0098 BD46     		mov	sp, r7
 2689              		@ sp needed
 2690 009a 80BD     		pop	{r7, pc}
 2691              		.cfi_endproc
 2692              	.LFE278:
 2693              		.size	pbuf_memcmp, .-pbuf_memcmp
 2694 009c AFF30080 		.section	.text.pbuf_memfind,"ax",%progbits
 2695              		.align	2
ARM GAS  C:\Users\Luis\AppData\Local\Temp\cc1uv7VI.s 			page 51


 2696              		.p2align 4,,15
 2697              		.global	pbuf_memfind
 2698              		.thumb
 2699              		.thumb_func
 2700              		.type	pbuf_memfind, %function
 2701              	pbuf_memfind:
 2702              	.LFB279:
 2703              		.loc 2 1141 0
 2704              		.cfi_startproc
 2705              		@ args = 0, pretend = 0, frame = 24
 2706              		@ frame_needed = 1, uses_anonymous_args = 0
 2707 0000 80B5     		push	{r7, lr}
 2708              		.cfi_def_cfa_offset 8
 2709              		.cfi_offset 7, -8
 2710              		.cfi_offset 14, -4
 2711 0002 86B0     		sub	sp, sp, #24
 2712              		.cfi_def_cfa_offset 32
 2713 0004 00AF     		add	r7, sp, #0
 2714              		.cfi_def_cfa_register 7
 2715 0006 F860     		str	r0, [r7, #12]
 2716 0008 B960     		str	r1, [r7, #8]
 2717 000a FA80     		strh	r2, [r7, #6]	@ movhi
 2718 000c BB80     		strh	r3, [r7, #4]	@ movhi
 2719              		.loc 2 1143 0
 2720 000e FB68     		ldr	r3, [r7, #12]
 2721 0010 1A89     		ldrh	r2, [r3, #8]
 2722 0012 FB88     		ldrh	r3, [r7, #6]	@ movhi
 2723 0014 D31A     		subs	r3, r2, r3
 2724 0016 BB82     		strh	r3, [r7, #20]	@ movhi
 2725              		.loc 2 1144 0
 2726 0018 FB68     		ldr	r3, [r7, #12]
 2727 001a 1B89     		ldrh	r3, [r3, #8]
 2728 001c 1A46     		mov	r2, r3
 2729 001e F988     		ldrh	r1, [r7, #6]
 2730 0020 BB88     		ldrh	r3, [r7, #4]
 2731 0022 0B44     		add	r3, r3, r1
 2732 0024 9A42     		cmp	r2, r3
 2733 0026 18DB     		blt	.L196
 2734              		.loc 2 1145 0
 2735 0028 BB88     		ldrh	r3, [r7, #4]	@ movhi
 2736 002a FB82     		strh	r3, [r7, #22]	@ movhi
 2737 002c 11E0     		b	.L197
 2738              	.L200:
 2739              	.LBB6:
 2740              		.loc 2 1146 0
 2741 002e FA8A     		ldrh	r2, [r7, #22]
 2742 0030 FB88     		ldrh	r3, [r7, #6]
 2743 0032 F868     		ldr	r0, [r7, #12]
 2744 0034 1146     		mov	r1, r2
 2745 0036 BA68     		ldr	r2, [r7, #8]
 2746 0038 FFF7FEFF 		bl	pbuf_memcmp
 2747 003c 0346     		mov	r3, r0
 2748 003e 7B82     		strh	r3, [r7, #18]	@ movhi
 2749              		.loc 2 1147 0
 2750 0040 7B8A     		ldrh	r3, [r7, #18]
 2751 0042 002B     		cmp	r3, #0
 2752 0044 01D1     		bne	.L198
ARM GAS  C:\Users\Luis\AppData\Local\Temp\cc1uv7VI.s 			page 52


 2753              		.loc 2 1148 0
 2754 0046 FB8A     		ldrh	r3, [r7, #22]
 2755 0048 09E0     		b	.L199
 2756              	.L198:
 2757              		.loc 2 1150 0
 2758 004a FA8A     		ldrh	r2, [r7, #22]	@ movhi
 2759 004c 7B8A     		ldrh	r3, [r7, #18]	@ movhi
 2760 004e 1344     		add	r3, r3, r2
 2761 0050 FB82     		strh	r3, [r7, #22]	@ movhi
 2762              	.L197:
 2763              	.LBE6:
 2764              		.loc 2 1145 0 discriminator 1
 2765 0052 FA8A     		ldrh	r2, [r7, #22]
 2766 0054 BB8A     		ldrh	r3, [r7, #20]
 2767 0056 9A42     		cmp	r2, r3
 2768 0058 E9D9     		bls	.L200
 2769              	.L196:
 2770              		.loc 2 1154 0
 2771 005a 4FF6FF73 		movw	r3, #65535
 2772              	.L199:
 2773              		.loc 2 1155 0
 2774 005e 1846     		mov	r0, r3
 2775 0060 1837     		adds	r7, r7, #24
 2776 0062 BD46     		mov	sp, r7
 2777              		@ sp needed
 2778 0064 80BD     		pop	{r7, pc}
 2779              		.cfi_endproc
 2780              	.LFE279:
 2781              		.size	pbuf_memfind, .-pbuf_memfind
 2782 0066 00BFAFF3 		.section	.text.pbuf_strstr,"ax",%progbits
 2782      0080AFF3 
 2782      0080
 2783              		.align	2
 2784              		.p2align 4,,15
 2785              		.global	pbuf_strstr
 2786              		.thumb
 2787              		.thumb_func
 2788              		.type	pbuf_strstr, %function
 2789              	pbuf_strstr:
 2790              	.LFB280:
 2791              		.loc 2 1169 0
 2792              		.cfi_startproc
 2793              		@ args = 0, pretend = 0, frame = 16
 2794              		@ frame_needed = 1, uses_anonymous_args = 0
 2795 0000 80B5     		push	{r7, lr}
 2796              		.cfi_def_cfa_offset 8
 2797              		.cfi_offset 7, -8
 2798              		.cfi_offset 14, -4
 2799 0002 84B0     		sub	sp, sp, #16
 2800              		.cfi_def_cfa_offset 24
 2801 0004 00AF     		add	r7, sp, #0
 2802              		.cfi_def_cfa_register 7
 2803 0006 7860     		str	r0, [r7, #4]
 2804 0008 3960     		str	r1, [r7]
 2805              		.loc 2 1171 0
 2806 000a 3B68     		ldr	r3, [r7]
 2807 000c 002B     		cmp	r3, #0
ARM GAS  C:\Users\Luis\AppData\Local\Temp\cc1uv7VI.s 			page 53


 2808 000e 09D0     		beq	.L202
 2809              		.loc 2 1171 0 is_stmt 0 discriminator 1
 2810 0010 3B68     		ldr	r3, [r7]
 2811 0012 1B78     		ldrb	r3, [r3]	@ zero_extendqisi2
 2812 0014 002B     		cmp	r3, #0
 2813 0016 05D0     		beq	.L202
 2814 0018 7B68     		ldr	r3, [r7, #4]
 2815 001a 1A89     		ldrh	r2, [r3, #8]
 2816 001c 4FF6FF73 		movw	r3, #65535
 2817 0020 9A42     		cmp	r2, r3
 2818 0022 02D1     		bne	.L203
 2819              	.L202:
 2820              		.loc 2 1172 0 is_stmt 1
 2821 0024 4FF6FF73 		movw	r3, #65535
 2822 0028 14E0     		b	.L204
 2823              	.L203:
 2824              		.loc 2 1174 0
 2825 002a 3868     		ldr	r0, [r7]
 2826 002c FFF7FEFF 		bl	strlen
 2827 0030 F860     		str	r0, [r7, #12]
 2828              		.loc 2 1175 0
 2829 0032 FA68     		ldr	r2, [r7, #12]
 2830 0034 4FF6FE73 		movw	r3, #65534
 2831 0038 9A42     		cmp	r2, r3
 2832 003a 02D9     		bls	.L205
 2833              		.loc 2 1176 0
 2834 003c 4FF6FF73 		movw	r3, #65535
 2835 0040 08E0     		b	.L204
 2836              	.L205:
 2837              		.loc 2 1178 0
 2838 0042 FB68     		ldr	r3, [r7, #12]
 2839 0044 9BB2     		uxth	r3, r3
 2840 0046 7868     		ldr	r0, [r7, #4]
 2841 0048 3968     		ldr	r1, [r7]
 2842 004a 1A46     		mov	r2, r3
 2843 004c 0023     		movs	r3, #0
 2844 004e FFF7FEFF 		bl	pbuf_memfind
 2845 0052 0346     		mov	r3, r0
 2846              	.L204:
 2847              		.loc 2 1179 0
 2848 0054 1846     		mov	r0, r3
 2849 0056 1037     		adds	r7, r7, #16
 2850 0058 BD46     		mov	sp, r7
 2851              		@ sp needed
 2852 005a 80BD     		pop	{r7, pc}
 2853              		.cfi_endproc
 2854              	.LFE280:
 2855              		.size	pbuf_strstr, .-pbuf_strstr
 2856 005c AFF30080 		.text
 2857              	.Letext0:
 2858              		.file 3 "c:\\emtechesdk\\gcc\\lib\\gcc\\arm-none-eabi\\4.8.3\\include\\stddef.h"
 2859              		.file 4 "c:\\emtechesdk\\gcc\\arm-none-eabi\\include\\stdint.h"
 2860              		.file 5 "../../ChibiOS/os/rt/ports/ARMCMx/compilers/GCC/chtypes.h"
 2861              		.file 6 "../../ChibiOS/os/rt/include/chsystypes.h"
 2862              		.file 7 "../../ChibiOS/os/rt/include/chschd.h"
 2863              		.file 8 "../../ChibiOS/os/rt/ports/ARMCMx/chcore.h"
 2864              		.file 9 "../../ChibiOS/os/rt/ports/ARMCMx/chcore_v7m.h"
ARM GAS  C:\Users\Luis\AppData\Local\Temp\cc1uv7VI.s 			page 54


 2865              		.file 10 "../../ChibiOS/os/rt/include/chdebug.h"
 2866              		.file 11 "../../ChibiOS/os/rt/include/chtm.h"
 2867              		.file 12 "../../ChibiOS/os/rt/include/chstats.h"
 2868              		.file 13 "../../ChibiOS/os/rt/include/chsem.h"
 2869              		.file 14 "../../ChibiOS/os/rt/include/chmtx.h"
 2870              		.file 15 "../../ChibiOS/os/various/lwip_bindings/arch/cc.h"
 2871              		.file 16 "../../ChibiOS/ext/lwip/src/include/lwip/err.h"
 2872              		.file 17 "../../ChibiOS/ext/lwip/src/include/lwip/memp.h"
 2873              		.file 18 "../../ChibiOS/ext/lwip/src/include/lwip/pbuf.h"
 2874              		.file 19 "../../ChibiOS/ext/lwip/src/include/ipv4/lwip/ip_addr.h"
 2875              		.file 20 "../../ChibiOS/ext/lwip/src/include/lwip/tcp.h"
 2876              		.file 21 "../../ChibiOS/ext/lwip/src/include/lwip/tcp_impl.h"
 2877              		.file 22 "../../ChibiOS/os/ext/CMSIS/include/core_cm4.h"
 2878              		.section	.debug_info,"",%progbits
 2879              	.Ldebug_info0:
 2880 0000 07160000 		.4byte	0x1607
 2881 0004 0400     		.2byte	0x4
 2882 0006 00000000 		.4byte	.Ldebug_abbrev0
 2883 000a 04       		.byte	0x4
 2884 000b 01       		.uleb128 0x1
 2885 000c 3A010000 		.4byte	.LASF303
 2886 0010 01       		.byte	0x1
 2887 0011 DF070000 		.4byte	.LASF304
 2888 0015 92040000 		.4byte	.LASF305
 2889 0019 00000000 		.4byte	.Ldebug_ranges0+0
 2890 001d 00000000 		.4byte	0
 2891 0021 00000000 		.4byte	.Ldebug_line0
 2892 0025 02       		.uleb128 0x2
 2893 0026 04       		.byte	0x4
 2894 0027 05       		.byte	0x5
 2895 0028 696E7400 		.ascii	"int\000"
 2896 002c 03       		.uleb128 0x3
 2897 002d 64040000 		.4byte	.LASF1
 2898 0031 03       		.byte	0x3
 2899 0032 D4       		.byte	0xd4
 2900 0033 37000000 		.4byte	0x37
 2901 0037 04       		.uleb128 0x4
 2902 0038 04       		.byte	0x4
 2903 0039 07       		.byte	0x7
 2904 003a AD000000 		.4byte	.LASF0
 2905 003e 03       		.uleb128 0x3
 2906 003f 54050000 		.4byte	.LASF2
 2907 0043 04       		.byte	0x4
 2908 0044 29       		.byte	0x29
 2909 0045 49000000 		.4byte	0x49
 2910 0049 04       		.uleb128 0x4
 2911 004a 01       		.byte	0x1
 2912 004b 06       		.byte	0x6
 2913 004c 960C0000 		.4byte	.LASF3
 2914 0050 03       		.uleb128 0x3
 2915 0051 52060000 		.4byte	.LASF4
 2916 0055 04       		.byte	0x4
 2917 0056 2A       		.byte	0x2a
 2918 0057 5B000000 		.4byte	0x5b
 2919 005b 04       		.uleb128 0x4
 2920 005c 01       		.byte	0x1
 2921 005d 08       		.byte	0x8
ARM GAS  C:\Users\Luis\AppData\Local\Temp\cc1uv7VI.s 			page 55


 2922 005e 8C0B0000 		.4byte	.LASF5
 2923 0062 03       		.uleb128 0x3
 2924 0063 88030000 		.4byte	.LASF6
 2925 0067 04       		.byte	0x4
 2926 0068 35       		.byte	0x35
 2927 0069 6D000000 		.4byte	0x6d
 2928 006d 04       		.uleb128 0x4
 2929 006e 02       		.byte	0x2
 2930 006f 05       		.byte	0x5
 2931 0070 28090000 		.4byte	.LASF7
 2932 0074 03       		.uleb128 0x3
 2933 0075 95080000 		.4byte	.LASF8
 2934 0079 04       		.byte	0x4
 2935 007a 36       		.byte	0x36
 2936 007b 7F000000 		.4byte	0x7f
 2937 007f 04       		.uleb128 0x4
 2938 0080 02       		.byte	0x2
 2939 0081 07       		.byte	0x7
 2940 0082 AA0C0000 		.4byte	.LASF9
 2941 0086 03       		.uleb128 0x3
 2942 0087 160B0000 		.4byte	.LASF10
 2943 008b 04       		.byte	0x4
 2944 008c 4F       		.byte	0x4f
 2945 008d 91000000 		.4byte	0x91
 2946 0091 04       		.uleb128 0x4
 2947 0092 04       		.byte	0x4
 2948 0093 05       		.byte	0x5
 2949 0094 4F090000 		.4byte	.LASF11
 2950 0098 03       		.uleb128 0x3
 2951 0099 D1020000 		.4byte	.LASF12
 2952 009d 04       		.byte	0x4
 2953 009e 50       		.byte	0x50
 2954 009f A3000000 		.4byte	0xa3
 2955 00a3 04       		.uleb128 0x4
 2956 00a4 04       		.byte	0x4
 2957 00a5 07       		.byte	0x7
 2958 00a6 EA0A0000 		.4byte	.LASF13
 2959 00aa 04       		.uleb128 0x4
 2960 00ab 08       		.byte	0x8
 2961 00ac 05       		.byte	0x5
 2962 00ad 12060000 		.4byte	.LASF14
 2963 00b1 03       		.uleb128 0x3
 2964 00b2 070A0000 		.4byte	.LASF15
 2965 00b6 04       		.byte	0x4
 2966 00b7 78       		.byte	0x78
 2967 00b8 BC000000 		.4byte	0xbc
 2968 00bc 04       		.uleb128 0x4
 2969 00bd 08       		.byte	0x8
 2970 00be 07       		.byte	0x7
 2971 00bf 98030000 		.4byte	.LASF16
 2972 00c3 05       		.uleb128 0x5
 2973 00c4 86000000 		.4byte	0x86
 2974 00c8 03       		.uleb128 0x3
 2975 00c9 D1080000 		.4byte	.LASF17
 2976 00cd 05       		.byte	0x5
 2977 00ce 45       		.byte	0x45
 2978 00cf 98000000 		.4byte	0x98
ARM GAS  C:\Users\Luis\AppData\Local\Temp\cc1uv7VI.s 			page 56


 2979 00d3 03       		.uleb128 0x3
 2980 00d4 BB050000 		.4byte	.LASF18
 2981 00d8 05       		.byte	0x5
 2982 00d9 46       		.byte	0x46
 2983 00da B1000000 		.4byte	0xb1
 2984 00de 03       		.uleb128 0x3
 2985 00df 5F080000 		.4byte	.LASF19
 2986 00e3 05       		.byte	0x5
 2987 00e4 48       		.byte	0x48
 2988 00e5 50000000 		.4byte	0x50
 2989 00e9 03       		.uleb128 0x3
 2990 00ea ED050000 		.4byte	.LASF20
 2991 00ee 05       		.byte	0x5
 2992 00ef 49       		.byte	0x49
 2993 00f0 50000000 		.4byte	0x50
 2994 00f4 03       		.uleb128 0x3
 2995 00f5 E20A0000 		.4byte	.LASF21
 2996 00f9 05       		.byte	0x5
 2997 00fa 4A       		.byte	0x4a
 2998 00fb 50000000 		.4byte	0x50
 2999 00ff 03       		.uleb128 0x3
 3000 0100 5E030000 		.4byte	.LASF22
 3001 0104 05       		.byte	0x5
 3002 0105 4C       		.byte	0x4c
 3003 0106 98000000 		.4byte	0x98
 3004 010a 03       		.uleb128 0x3
 3005 010b 2E070000 		.4byte	.LASF23
 3006 010f 05       		.byte	0x5
 3007 0110 4D       		.byte	0x4d
 3008 0111 86000000 		.4byte	0x86
 3009 0115 03       		.uleb128 0x3
 3010 0116 FB020000 		.4byte	.LASF24
 3011 011a 05       		.byte	0x5
 3012 011b 4F       		.byte	0x4f
 3013 011c 98000000 		.4byte	0x98
 3014 0120 03       		.uleb128 0x3
 3015 0121 CD030000 		.4byte	.LASF25
 3016 0125 05       		.byte	0x5
 3017 0126 51       		.byte	0x51
 3018 0127 86000000 		.4byte	0x86
 3019 012b 03       		.uleb128 0x3
 3020 012c 67080000 		.4byte	.LASF26
 3021 0130 05       		.byte	0x5
 3022 0131 52       		.byte	0x52
 3023 0132 98000000 		.4byte	0x98
 3024 0136 03       		.uleb128 0x3
 3025 0137 89000000 		.4byte	.LASF27
 3026 013b 06       		.byte	0x6
 3027 013c 33       		.byte	0x33
 3028 013d 98000000 		.4byte	0x98
 3029 0141 03       		.uleb128 0x3
 3030 0142 44040000 		.4byte	.LASF28
 3031 0146 06       		.byte	0x6
 3032 0147 3F       		.byte	0x3f
 3033 0148 4C010000 		.4byte	0x14c
 3034 014c 06       		.uleb128 0x6
 3035 014d A4060000 		.4byte	.LASF51
ARM GAS  C:\Users\Luis\AppData\Local\Temp\cc1uv7VI.s 			page 57


 3036 0151 68       		.byte	0x68
 3037 0152 07       		.byte	0x7
 3038 0153 C2       		.byte	0xc2
 3039 0154 5F020000 		.4byte	0x25f
 3040 0158 07       		.uleb128 0x7
 3041 0159 4D040000 		.4byte	.LASF29
 3042 015d 07       		.byte	0x7
 3043 015e C3       		.byte	0xc3
 3044 015f 6A020000 		.4byte	0x26a
 3045 0163 00       		.byte	0
 3046 0164 07       		.uleb128 0x7
 3047 0165 D20A0000 		.4byte	.LASF30
 3048 0169 07       		.byte	0x7
 3049 016a C5       		.byte	0xc5
 3050 016b 6A020000 		.4byte	0x26a
 3051 016f 04       		.byte	0x4
 3052 0170 07       		.uleb128 0x7
 3053 0171 54000000 		.4byte	.LASF31
 3054 0175 07       		.byte	0x7
 3055 0176 C7       		.byte	0xc7
 3056 0177 FF000000 		.4byte	0xff
 3057 017b 08       		.byte	0x8
 3058 017c 07       		.uleb128 0x7
 3059 017d 100A0000 		.4byte	.LASF32
 3060 0181 07       		.byte	0x7
 3061 0182 C8       		.byte	0xc8
 3062 0183 D3040000 		.4byte	0x4d3
 3063 0187 0C       		.byte	0xc
 3064 0188 07       		.uleb128 0x7
 3065 0189 ED030000 		.4byte	.LASF33
 3066 018d 07       		.byte	0x7
 3067 018e CA       		.byte	0xca
 3068 018f 6A020000 		.4byte	0x26a
 3069 0193 10       		.byte	0x10
 3070 0194 07       		.uleb128 0x7
 3071 0195 32060000 		.4byte	.LASF34
 3072 0199 07       		.byte	0x7
 3073 019a CB       		.byte	0xcb
 3074 019b 6A020000 		.4byte	0x26a
 3075 019f 14       		.byte	0x14
 3076 01a0 07       		.uleb128 0x7
 3077 01a1 8E080000 		.4byte	.LASF35
 3078 01a5 07       		.byte	0x7
 3079 01a6 D2       		.byte	0xd2
 3080 01a7 77070000 		.4byte	0x777
 3081 01ab 18       		.byte	0x18
 3082 01ac 07       		.uleb128 0x7
 3083 01ad 42060000 		.4byte	.LASF36
 3084 01b1 07       		.byte	0x7
 3085 01b2 D8       		.byte	0xd8
 3086 01b3 89070000 		.4byte	0x789
 3087 01b7 1C       		.byte	0x1c
 3088 01b8 07       		.uleb128 0x7
 3089 01b9 E3060000 		.4byte	.LASF37
 3090 01bd 07       		.byte	0x7
 3091 01be DD       		.byte	0xdd
 3092 01bf E9000000 		.4byte	0xe9
ARM GAS  C:\Users\Luis\AppData\Local\Temp\cc1uv7VI.s 			page 58


 3093 01c3 20       		.byte	0x20
 3094 01c4 07       		.uleb128 0x7
 3095 01c5 46070000 		.4byte	.LASF38
 3096 01c9 07       		.byte	0x7
 3097 01ca E1       		.byte	0xe1
 3098 01cb DE000000 		.4byte	0xde
 3099 01cf 21       		.byte	0x21
 3100 01d0 07       		.uleb128 0x7
 3101 01d1 C60B0000 		.4byte	.LASF39
 3102 01d5 07       		.byte	0x7
 3103 01d6 E6       		.byte	0xe6
 3104 01d7 F4000000 		.4byte	0xf4
 3105 01db 22       		.byte	0x22
 3106 01dc 08       		.uleb128 0x8
 3107 01dd 705F7500 		.ascii	"p_u\000"
 3108 01e1 07       		.byte	0x7
 3109 01e2 3101     		.2byte	0x131
 3110 01e4 B2060000 		.4byte	0x6b2
 3111 01e8 24       		.byte	0x24
 3112 01e9 09       		.uleb128 0x9
 3113 01ea 15010000 		.4byte	.LASF40
 3114 01ee 07       		.byte	0x7
 3115 01ef 3601     		.2byte	0x136
 3116 01f1 70020000 		.4byte	0x270
 3117 01f5 28       		.byte	0x28
 3118 01f6 09       		.uleb128 0x9
 3119 01f7 D30C0000 		.4byte	.LASF41
 3120 01fb 07       		.byte	0x7
 3121 01fc 3C01     		.2byte	0x13c
 3122 01fe 94020000 		.4byte	0x294
 3123 0202 2C       		.byte	0x2c
 3124 0203 09       		.uleb128 0x9
 3125 0204 40080000 		.4byte	.LASF42
 3126 0208 07       		.byte	0x7
 3127 0209 4001     		.2byte	0x140
 3128 020b 0A010000 		.4byte	0x10a
 3129 020f 34       		.byte	0x34
 3130 0210 09       		.uleb128 0x9
 3131 0211 3C090000 		.4byte	.LASF43
 3132 0215 07       		.byte	0x7
 3133 0216 4601     		.2byte	0x146
 3134 0218 15010000 		.4byte	0x115
 3135 021c 38       		.byte	0x38
 3136 021d 09       		.uleb128 0x9
 3137 021e 77060000 		.4byte	.LASF44
 3138 0222 07       		.byte	0x7
 3139 0223 4D01     		.2byte	0x14d
 3140 0225 71070000 		.4byte	0x771
 3141 0229 3C       		.byte	0x3c
 3142 022a 09       		.uleb128 0x9
 3143 022b 10090000 		.4byte	.LASF45
 3144 022f 07       		.byte	0x7
 3145 0230 5101     		.2byte	0x151
 3146 0232 FF000000 		.4byte	0xff
 3147 0236 40       		.byte	0x40
 3148 0237 09       		.uleb128 0x9
 3149 0238 6F060000 		.4byte	.LASF46
ARM GAS  C:\Users\Luis\AppData\Local\Temp\cc1uv7VI.s 			page 59


 3150 023c 07       		.byte	0x7
 3151 023d 5801     		.2byte	0x158
 3152 023f 47030000 		.4byte	0x347
 3153 0243 44       		.byte	0x44
 3154 0244 09       		.uleb128 0x9
 3155 0245 67060000 		.4byte	.LASF47
 3156 0249 07       		.byte	0x7
 3157 024a 5E01     		.2byte	0x15e
 3158 024c 63060000 		.4byte	0x663
 3159 0250 48       		.byte	0x48
 3160 0251 09       		.uleb128 0x9
 3161 0252 57030000 		.4byte	.LASF48
 3162 0256 07       		.byte	0x7
 3163 0257 6201     		.2byte	0x162
 3164 0259 47030000 		.4byte	0x347
 3165 025d 60       		.byte	0x60
 3166 025e 00       		.byte	0
 3167 025f 03       		.uleb128 0x3
 3168 0260 9E080000 		.4byte	.LASF49
 3169 0264 06       		.byte	0x6
 3170 0265 44       		.byte	0x44
 3171 0266 6A020000 		.4byte	0x26a
 3172 026a 0A       		.uleb128 0xa
 3173 026b 04       		.byte	0x4
 3174 026c 41010000 		.4byte	0x141
 3175 0270 03       		.uleb128 0x3
 3176 0271 E8000000 		.4byte	.LASF50
 3177 0275 06       		.byte	0x6
 3178 0276 49       		.byte	0x49
 3179 0277 7B020000 		.4byte	0x27b
 3180 027b 06       		.uleb128 0x6
 3181 027c 00000000 		.4byte	.LASF52
 3182 0280 04       		.byte	0x4
 3183 0281 07       		.byte	0x7
 3184 0282 B0       		.byte	0xb0
 3185 0283 94020000 		.4byte	0x294
 3186 0287 07       		.uleb128 0x7
 3187 0288 4D040000 		.4byte	.LASF29
 3188 028c 07       		.byte	0x7
 3189 028d B1       		.byte	0xb1
 3190 028e 6A020000 		.4byte	0x26a
 3191 0292 00       		.byte	0
 3192 0293 00       		.byte	0
 3193 0294 03       		.uleb128 0x3
 3194 0295 10000000 		.4byte	.LASF53
 3195 0299 06       		.byte	0x6
 3196 029a 50       		.byte	0x50
 3197 029b 9F020000 		.4byte	0x29f
 3198 029f 06       		.uleb128 0x6
 3199 02a0 EB060000 		.4byte	.LASF54
 3200 02a4 08       		.byte	0x8
 3201 02a5 07       		.byte	0x7
 3202 02a6 B7       		.byte	0xb7
 3203 02a7 C4020000 		.4byte	0x2c4
 3204 02ab 07       		.uleb128 0x7
 3205 02ac 4D040000 		.4byte	.LASF29
 3206 02b0 07       		.byte	0x7
ARM GAS  C:\Users\Luis\AppData\Local\Temp\cc1uv7VI.s 			page 60


 3207 02b1 B8       		.byte	0xb8
 3208 02b2 6A020000 		.4byte	0x26a
 3209 02b6 00       		.byte	0
 3210 02b7 07       		.uleb128 0x7
 3211 02b8 D20A0000 		.4byte	.LASF30
 3212 02bc 07       		.byte	0x7
 3213 02bd B9       		.byte	0xb9
 3214 02be 6A020000 		.4byte	0x26a
 3215 02c2 04       		.byte	0x4
 3216 02c3 00       		.byte	0
 3217 02c4 03       		.uleb128 0x3
 3218 02c5 FC0A0000 		.4byte	.LASF55
 3219 02c9 06       		.byte	0x6
 3220 02ca 57       		.byte	0x57
 3221 02cb CF020000 		.4byte	0x2cf
 3222 02cf 0B       		.uleb128 0xb
 3223 02d0 32020000 		.4byte	.LASF56
 3224 02d4 1C       		.byte	0x1c
 3225 02d5 07       		.byte	0x7
 3226 02d6 9001     		.2byte	0x190
 3227 02d8 2B030000 		.4byte	0x32b
 3228 02dc 09       		.uleb128 0x9
 3229 02dd 02070000 		.4byte	.LASF57
 3230 02e1 07       		.byte	0x7
 3231 02e2 9101     		.2byte	0x191
 3232 02e4 94020000 		.4byte	0x294
 3233 02e8 00       		.byte	0
 3234 02e9 09       		.uleb128 0x9
 3235 02ea 300D0000 		.4byte	.LASF58
 3236 02ee 07       		.byte	0x7
 3237 02ef 9201     		.2byte	0x192
 3238 02f1 FF000000 		.4byte	0xff
 3239 02f5 08       		.byte	0x8
 3240 02f6 09       		.uleb128 0x9
 3241 02f7 BD0C0000 		.4byte	.LASF59
 3242 02fb 07       		.byte	0x7
 3243 02fc 9401     		.2byte	0x194
 3244 02fe D3040000 		.4byte	0x4d3
 3245 0302 0C       		.byte	0xc
 3246 0303 09       		.uleb128 0x9
 3247 0304 26070000 		.4byte	.LASF60
 3248 0308 07       		.byte	0x7
 3249 0309 9701     		.2byte	0x197
 3250 030b 6A020000 		.4byte	0x26a
 3251 030f 10       		.byte	0x10
 3252 0310 09       		.uleb128 0x9
 3253 0311 B8070000 		.4byte	.LASF61
 3254 0315 07       		.byte	0x7
 3255 0316 9801     		.2byte	0x198
 3256 0318 6A020000 		.4byte	0x26a
 3257 031c 14       		.byte	0x14
 3258 031d 09       		.uleb128 0x9
 3259 031e 32090000 		.4byte	.LASF62
 3260 0322 07       		.byte	0x7
 3261 0323 9B01     		.2byte	0x19b
 3262 0325 6A020000 		.4byte	0x26a
 3263 0329 18       		.byte	0x18
ARM GAS  C:\Users\Luis\AppData\Local\Temp\cc1uv7VI.s 			page 61


 3264 032a 00       		.byte	0
 3265 032b 03       		.uleb128 0x3
 3266 032c 7F020000 		.4byte	.LASF63
 3267 0330 06       		.byte	0x6
 3268 0331 5C       		.byte	0x5c
 3269 0332 36030000 		.4byte	0x336
 3270 0336 0A       		.uleb128 0xa
 3271 0337 04       		.byte	0x4
 3272 0338 3C030000 		.4byte	0x33c
 3273 033c 0C       		.uleb128 0xc
 3274 033d 47030000 		.4byte	0x347
 3275 0341 0D       		.uleb128 0xd
 3276 0342 47030000 		.4byte	0x347
 3277 0346 00       		.byte	0
 3278 0347 0E       		.uleb128 0xe
 3279 0348 04       		.byte	0x4
 3280 0349 03       		.uleb128 0x3
 3281 034a 54070000 		.4byte	.LASF64
 3282 034e 06       		.byte	0x6
 3283 034f 61       		.byte	0x61
 3284 0350 54030000 		.4byte	0x354
 3285 0354 0B       		.uleb128 0xb
 3286 0355 77030000 		.4byte	.LASF65
 3287 0359 14       		.byte	0x14
 3288 035a 07       		.byte	0x7
 3289 035b 6B01     		.2byte	0x16b
 3290 035d A3030000 		.4byte	0x3a3
 3291 0361 09       		.uleb128 0x9
 3292 0362 450C0000 		.4byte	.LASF66
 3293 0366 07       		.byte	0x7
 3294 0367 6C01     		.2byte	0x16c
 3295 0369 8F070000 		.4byte	0x78f
 3296 036d 00       		.byte	0
 3297 036e 09       		.uleb128 0x9
 3298 036f FC0C0000 		.4byte	.LASF67
 3299 0373 07       		.byte	0x7
 3300 0374 6D01     		.2byte	0x16d
 3301 0376 8F070000 		.4byte	0x78f
 3302 037a 04       		.byte	0x4
 3303 037b 09       		.uleb128 0x9
 3304 037c 91050000 		.4byte	.LASF68
 3305 0380 07       		.byte	0x7
 3306 0381 6E01     		.2byte	0x16e
 3307 0383 36010000 		.4byte	0x136
 3308 0387 08       		.byte	0x8
 3309 0388 09       		.uleb128 0x9
 3310 0389 F40C0000 		.4byte	.LASF69
 3311 038d 07       		.byte	0x7
 3312 038e 6F01     		.2byte	0x16f
 3313 0390 2B030000 		.4byte	0x32b
 3314 0394 0C       		.byte	0xc
 3315 0395 09       		.uleb128 0x9
 3316 0396 7B0B0000 		.4byte	.LASF70
 3317 039a 07       		.byte	0x7
 3318 039b 7101     		.2byte	0x171
 3319 039d 47030000 		.4byte	0x347
 3320 03a1 10       		.byte	0x10
ARM GAS  C:\Users\Luis\AppData\Local\Temp\cc1uv7VI.s 			page 62


 3321 03a2 00       		.byte	0
 3322 03a3 03       		.uleb128 0x3
 3323 03a4 B00B0000 		.4byte	.LASF71
 3324 03a8 06       		.byte	0x6
 3325 03a9 66       		.byte	0x66
 3326 03aa AE030000 		.4byte	0x3ae
 3327 03ae 0B       		.uleb128 0xb
 3328 03af F5030000 		.4byte	.LASF72
 3329 03b3 10       		.byte	0x10
 3330 03b4 07       		.byte	0x7
 3331 03b5 7B01     		.2byte	0x17b
 3332 03b7 F0030000 		.4byte	0x3f0
 3333 03bb 09       		.uleb128 0x9
 3334 03bc 450C0000 		.4byte	.LASF66
 3335 03c0 07       		.byte	0x7
 3336 03c1 7C01     		.2byte	0x17c
 3337 03c3 8F070000 		.4byte	0x78f
 3338 03c7 00       		.byte	0
 3339 03c8 09       		.uleb128 0x9
 3340 03c9 FC0C0000 		.4byte	.LASF67
 3341 03cd 07       		.byte	0x7
 3342 03ce 7E01     		.2byte	0x17e
 3343 03d0 8F070000 		.4byte	0x78f
 3344 03d4 04       		.byte	0x4
 3345 03d5 09       		.uleb128 0x9
 3346 03d6 91050000 		.4byte	.LASF68
 3347 03da 07       		.byte	0x7
 3348 03db 8001     		.2byte	0x180
 3349 03dd 36010000 		.4byte	0x136
 3350 03e1 08       		.byte	0x8
 3351 03e2 09       		.uleb128 0x9
 3352 03e3 D0050000 		.4byte	.LASF73
 3353 03e7 07       		.byte	0x7
 3354 03e8 8801     		.2byte	0x188
 3355 03ea 36010000 		.4byte	0x136
 3356 03ee 0C       		.byte	0xc
 3357 03ef 00       		.byte	0
 3358 03f0 03       		.uleb128 0x3
 3359 03f1 C8060000 		.4byte	.LASF74
 3360 03f5 06       		.byte	0x6
 3361 03f6 6B       		.byte	0x6b
 3362 03f7 FB030000 		.4byte	0x3fb
 3363 03fb 0F       		.uleb128 0xf
 3364 03fc 8F020000 		.4byte	.LASF75
 3365 0400 1404     		.2byte	0x414
 3366 0402 07       		.byte	0x7
 3367 0403 A201     		.2byte	0x1a2
 3368 0405 3E040000 		.4byte	0x43e
 3369 0409 09       		.uleb128 0x9
 3370 040a DA0B0000 		.4byte	.LASF76
 3371 040e 07       		.byte	0x7
 3372 040f AA01     		.2byte	0x1aa
 3373 0411 95070000 		.4byte	0x795
 3374 0415 00       		.byte	0
 3375 0416 09       		.uleb128 0x9
 3376 0417 D9030000 		.4byte	.LASF77
 3377 041b 07       		.byte	0x7
ARM GAS  C:\Users\Luis\AppData\Local\Temp\cc1uv7VI.s 			page 63


 3378 041c AF01     		.2byte	0x1af
 3379 041e 20010000 		.4byte	0x120
 3380 0422 04       		.byte	0x4
 3381 0423 09       		.uleb128 0x9
 3382 0424 EE080000 		.4byte	.LASF78
 3383 0428 07       		.byte	0x7
 3384 0429 B301     		.2byte	0x1b3
 3385 042b 20010000 		.4byte	0x120
 3386 042f 08       		.byte	0x8
 3387 0430 09       		.uleb128 0x9
 3388 0431 360B0000 		.4byte	.LASF79
 3389 0435 07       		.byte	0x7
 3390 0436 B901     		.2byte	0x1b9
 3391 0438 F5050000 		.4byte	0x5f5
 3392 043c 0C       		.byte	0xc
 3393 043d 00       		.byte	0
 3394 043e 03       		.uleb128 0x3
 3395 043f 660C0000 		.4byte	.LASF80
 3396 0443 06       		.byte	0x6
 3397 0444 70       		.byte	0x70
 3398 0445 49040000 		.4byte	0x449
 3399 0449 0F       		.uleb128 0xf
 3400 044a B6090000 		.4byte	.LASF81
 3401 044e E805     		.2byte	0x5e8
 3402 0450 07       		.byte	0x7
 3403 0451 C201     		.2byte	0x1c2
 3404 0453 B6040000 		.4byte	0x4b6
 3405 0457 09       		.uleb128 0x9
 3406 0458 160A0000 		.4byte	.LASF82
 3407 045c 07       		.byte	0x7
 3408 045d C601     		.2byte	0x1c6
 3409 045f C4020000 		.4byte	0x2c4
 3410 0463 00       		.byte	0
 3411 0464 09       		.uleb128 0x9
 3412 0465 18020000 		.4byte	.LASF83
 3413 0469 07       		.byte	0x7
 3414 046a CA01     		.2byte	0x1ca
 3415 046c A3030000 		.4byte	0x3a3
 3416 0470 1C       		.byte	0x1c
 3417 0471 08       		.uleb128 0x8
 3418 0472 64626700 		.ascii	"dbg\000"
 3419 0476 07       		.byte	0x7
 3420 0477 CE01     		.2byte	0x1ce
 3421 0479 F0030000 		.4byte	0x3f0
 3422 047d 2C       		.byte	0x2c
 3423 047e 10       		.uleb128 0x10
 3424 047f 1F0C0000 		.4byte	.LASF84
 3425 0483 07       		.byte	0x7
 3426 0484 D201     		.2byte	0x1d2
 3427 0486 41010000 		.4byte	0x141
 3428 048a 4004     		.2byte	0x440
 3429 048c 11       		.uleb128 0x11
 3430 048d 746D00   		.ascii	"tm\000"
 3431 0490 07       		.byte	0x7
 3432 0491 D701     		.2byte	0x1d7
 3433 0493 15060000 		.4byte	0x615
 3434 0497 A804     		.2byte	0x4a8
ARM GAS  C:\Users\Luis\AppData\Local\Temp\cc1uv7VI.s 			page 64


 3435 0499 10       		.uleb128 0x10
 3436 049a 18030000 		.4byte	.LASF85
 3437 049e 07       		.byte	0x7
 3438 049f DD01     		.2byte	0x1dd
 3439 04a1 A7060000 		.4byte	0x6a7
 3440 04a5 B004     		.2byte	0x4b0
 3441 04a7 10       		.uleb128 0x10
 3442 04a8 40020000 		.4byte	.LASF86
 3443 04ac 07       		.byte	0x7
 3444 04ad E301     		.2byte	0x1e3
 3445 04af 9A070000 		.4byte	0x79a
 3446 04b3 E804     		.2byte	0x4e8
 3447 04b5 00       		.byte	0
 3448 04b6 04       		.uleb128 0x4
 3449 04b7 04       		.byte	0x4
 3450 04b8 07       		.byte	0x7
 3451 04b9 D90A0000 		.4byte	.LASF87
 3452 04bd 03       		.uleb128 0x3
 3453 04be 4B000000 		.4byte	.LASF88
 3454 04c2 08       		.byte	0x8
 3455 04c3 65       		.byte	0x65
 3456 04c4 47030000 		.4byte	0x347
 3457 04c8 03       		.uleb128 0x3
 3458 04c9 0F0C0000 		.4byte	.LASF89
 3459 04cd 08       		.byte	0x8
 3460 04ce 6D       		.byte	0x6d
 3461 04cf B1000000 		.4byte	0xb1
 3462 04d3 06       		.uleb128 0x6
 3463 04d4 2A080000 		.4byte	.LASF90
 3464 04d8 04       		.byte	0x4
 3465 04d9 08       		.byte	0x8
 3466 04da 89       		.byte	0x89
 3467 04db EC040000 		.4byte	0x4ec
 3468 04df 12       		.uleb128 0x12
 3469 04e0 72313300 		.ascii	"r13\000"
 3470 04e4 08       		.byte	0x8
 3471 04e5 8A       		.byte	0x8a
 3472 04e6 67050000 		.4byte	0x567
 3473 04ea 00       		.byte	0
 3474 04eb 00       		.byte	0
 3475 04ec 06       		.uleb128 0x6
 3476 04ed 58090000 		.4byte	.LASF91
 3477 04f1 24       		.byte	0x24
 3478 04f2 09       		.byte	0x9
 3479 04f3 F4       		.byte	0xf4
 3480 04f4 67050000 		.4byte	0x567
 3481 04f8 08       		.uleb128 0x8
 3482 04f9 723400   		.ascii	"r4\000"
 3483 04fc 09       		.byte	0x9
 3484 04fd 0701     		.2byte	0x107
 3485 04ff BD040000 		.4byte	0x4bd
 3486 0503 00       		.byte	0
 3487 0504 08       		.uleb128 0x8
 3488 0505 723500   		.ascii	"r5\000"
 3489 0508 09       		.byte	0x9
 3490 0509 0801     		.2byte	0x108
 3491 050b BD040000 		.4byte	0x4bd
ARM GAS  C:\Users\Luis\AppData\Local\Temp\cc1uv7VI.s 			page 65


 3492 050f 04       		.byte	0x4
 3493 0510 08       		.uleb128 0x8
 3494 0511 723600   		.ascii	"r6\000"
 3495 0514 09       		.byte	0x9
 3496 0515 0901     		.2byte	0x109
 3497 0517 BD040000 		.4byte	0x4bd
 3498 051b 08       		.byte	0x8
 3499 051c 08       		.uleb128 0x8
 3500 051d 723700   		.ascii	"r7\000"
 3501 0520 09       		.byte	0x9
 3502 0521 0A01     		.2byte	0x10a
 3503 0523 BD040000 		.4byte	0x4bd
 3504 0527 0C       		.byte	0xc
 3505 0528 08       		.uleb128 0x8
 3506 0529 723800   		.ascii	"r8\000"
 3507 052c 09       		.byte	0x9
 3508 052d 0B01     		.2byte	0x10b
 3509 052f BD040000 		.4byte	0x4bd
 3510 0533 10       		.byte	0x10
 3511 0534 08       		.uleb128 0x8
 3512 0535 723900   		.ascii	"r9\000"
 3513 0538 09       		.byte	0x9
 3514 0539 0C01     		.2byte	0x10c
 3515 053b BD040000 		.4byte	0x4bd
 3516 053f 14       		.byte	0x14
 3517 0540 08       		.uleb128 0x8
 3518 0541 72313000 		.ascii	"r10\000"
 3519 0545 09       		.byte	0x9
 3520 0546 0D01     		.2byte	0x10d
 3521 0548 BD040000 		.4byte	0x4bd
 3522 054c 18       		.byte	0x18
 3523 054d 08       		.uleb128 0x8
 3524 054e 72313100 		.ascii	"r11\000"
 3525 0552 09       		.byte	0x9
 3526 0553 0E01     		.2byte	0x10e
 3527 0555 BD040000 		.4byte	0x4bd
 3528 0559 1C       		.byte	0x1c
 3529 055a 08       		.uleb128 0x8
 3530 055b 6C7200   		.ascii	"lr\000"
 3531 055e 09       		.byte	0x9
 3532 055f 0F01     		.2byte	0x10f
 3533 0561 BD040000 		.4byte	0x4bd
 3534 0565 20       		.byte	0x20
 3535 0566 00       		.byte	0
 3536 0567 0A       		.uleb128 0xa
 3537 0568 04       		.byte	0x4
 3538 0569 EC040000 		.4byte	0x4ec
 3539 056d 13       		.uleb128 0x13
 3540 056e 10       		.byte	0x10
 3541 056f 0A       		.byte	0xa
 3542 0570 51       		.byte	0x51
 3543 0571 A6050000 		.4byte	0x5a6
 3544 0575 07       		.uleb128 0x7
 3545 0576 3A060000 		.4byte	.LASF92
 3546 057a 0A       		.byte	0xa
 3547 057b 55       		.byte	0x55
 3548 057c 36010000 		.4byte	0x136
ARM GAS  C:\Users\Luis\AppData\Local\Temp\cc1uv7VI.s 			page 66


 3549 0580 00       		.byte	0
 3550 0581 07       		.uleb128 0x7
 3551 0582 F6050000 		.4byte	.LASF93
 3552 0586 0A       		.byte	0xa
 3553 0587 59       		.byte	0x59
 3554 0588 6A020000 		.4byte	0x26a
 3555 058c 04       		.byte	0x4
 3556 058d 07       		.uleb128 0x7
 3557 058e AF030000 		.4byte	.LASF94
 3558 0592 0A       		.byte	0xa
 3559 0593 5D       		.byte	0x5d
 3560 0594 47030000 		.4byte	0x347
 3561 0598 08       		.byte	0x8
 3562 0599 07       		.uleb128 0x7
 3563 059a 1F010000 		.4byte	.LASF95
 3564 059e 0A       		.byte	0xa
 3565 059f 61       		.byte	0x61
 3566 05a0 50000000 		.4byte	0x50
 3567 05a4 0C       		.byte	0xc
 3568 05a5 00       		.byte	0
 3569 05a6 03       		.uleb128 0x3
 3570 05a7 4A0B0000 		.4byte	.LASF96
 3571 05ab 0A       		.byte	0xa
 3572 05ac 62       		.byte	0x62
 3573 05ad 6D050000 		.4byte	0x56d
 3574 05b1 14       		.uleb128 0x14
 3575 05b2 0804     		.2byte	0x408
 3576 05b4 0A       		.byte	0xa
 3577 05b5 67       		.byte	0x67
 3578 05b6 DF050000 		.4byte	0x5df
 3579 05ba 07       		.uleb128 0x7
 3580 05bb AE060000 		.4byte	.LASF97
 3581 05bf 0A       		.byte	0xa
 3582 05c0 6B       		.byte	0x6b
 3583 05c1 37000000 		.4byte	0x37
 3584 05c5 00       		.byte	0
 3585 05c6 07       		.uleb128 0x7
 3586 05c7 A5070000 		.4byte	.LASF98
 3587 05cb 0A       		.byte	0xa
 3588 05cc 6F       		.byte	0x6f
 3589 05cd DF050000 		.4byte	0x5df
 3590 05d1 04       		.byte	0x4
 3591 05d2 07       		.uleb128 0x7
 3592 05d3 93070000 		.4byte	.LASF99
 3593 05d7 0A       		.byte	0xa
 3594 05d8 73       		.byte	0x73
 3595 05d9 E5050000 		.4byte	0x5e5
 3596 05dd 08       		.byte	0x8
 3597 05de 00       		.byte	0
 3598 05df 0A       		.uleb128 0xa
 3599 05e0 04       		.byte	0x4
 3600 05e1 A6050000 		.4byte	0x5a6
 3601 05e5 15       		.uleb128 0x15
 3602 05e6 A6050000 		.4byte	0x5a6
 3603 05ea F5050000 		.4byte	0x5f5
 3604 05ee 16       		.uleb128 0x16
 3605 05ef B6040000 		.4byte	0x4b6
ARM GAS  C:\Users\Luis\AppData\Local\Temp\cc1uv7VI.s 			page 67


 3606 05f3 3F       		.byte	0x3f
 3607 05f4 00       		.byte	0
 3608 05f5 03       		.uleb128 0x3
 3609 05f6 7D0C0000 		.4byte	.LASF100
 3610 05fa 0A       		.byte	0xa
 3611 05fb 74       		.byte	0x74
 3612 05fc B1050000 		.4byte	0x5b1
 3613 0600 13       		.uleb128 0x13
 3614 0601 04       		.byte	0x4
 3615 0602 0B       		.byte	0xb
 3616 0603 38       		.byte	0x38
 3617 0604 15060000 		.4byte	0x615
 3618 0608 07       		.uleb128 0x7
 3619 0609 B9030000 		.4byte	.LASF101
 3620 060d 0B       		.byte	0xb
 3621 060e 3C       		.byte	0x3c
 3622 060f C8000000 		.4byte	0xc8
 3623 0613 00       		.byte	0
 3624 0614 00       		.byte	0
 3625 0615 03       		.uleb128 0x3
 3626 0616 46080000 		.4byte	.LASF102
 3627 061a 0B       		.byte	0xb
 3628 061b 3D       		.byte	0x3d
 3629 061c 00060000 		.4byte	0x600
 3630 0620 13       		.uleb128 0x13
 3631 0621 18       		.byte	0x18
 3632 0622 0B       		.byte	0xb
 3633 0623 48       		.byte	0x48
 3634 0624 63060000 		.4byte	0x663
 3635 0628 07       		.uleb128 0x7
 3636 0629 820B0000 		.4byte	.LASF103
 3637 062d 0B       		.byte	0xb
 3638 062e 49       		.byte	0x49
 3639 062f C8000000 		.4byte	0xc8
 3640 0633 00       		.byte	0
 3641 0634 07       		.uleb128 0x7
 3642 0635 E1030000 		.4byte	.LASF104
 3643 0639 0B       		.byte	0xb
 3644 063a 4A       		.byte	0x4a
 3645 063b C8000000 		.4byte	0xc8
 3646 063f 04       		.byte	0x4
 3647 0640 07       		.uleb128 0x7
 3648 0641 19050000 		.4byte	.LASF105
 3649 0645 0B       		.byte	0xb
 3650 0646 4B       		.byte	0x4b
 3651 0647 C8000000 		.4byte	0xc8
 3652 064b 08       		.byte	0x8
 3653 064c 12       		.uleb128 0x12
 3654 064d 6E00     		.ascii	"n\000"
 3655 064f 0B       		.byte	0xb
 3656 0650 4C       		.byte	0x4c
 3657 0651 2B010000 		.4byte	0x12b
 3658 0655 0C       		.byte	0xc
 3659 0656 07       		.uleb128 0x7
 3660 0657 FD000000 		.4byte	.LASF106
 3661 065b 0B       		.byte	0xb
 3662 065c 4D       		.byte	0x4d
ARM GAS  C:\Users\Luis\AppData\Local\Temp\cc1uv7VI.s 			page 68


 3663 065d D3000000 		.4byte	0xd3
 3664 0661 10       		.byte	0x10
 3665 0662 00       		.byte	0
 3666 0663 03       		.uleb128 0x3
 3667 0664 41050000 		.4byte	.LASF107
 3668 0668 0B       		.byte	0xb
 3669 0669 4E       		.byte	0x4e
 3670 066a 20060000 		.4byte	0x620
 3671 066e 13       		.uleb128 0x13
 3672 066f 38       		.byte	0x38
 3673 0670 0C       		.byte	0xc
 3674 0671 38       		.byte	0x38
 3675 0672 A7060000 		.4byte	0x6a7
 3676 0676 07       		.uleb128 0x7
 3677 0677 0A090000 		.4byte	.LASF108
 3678 067b 0C       		.byte	0xc
 3679 067c 39       		.byte	0x39
 3680 067d 2B010000 		.4byte	0x12b
 3681 0681 00       		.byte	0
 3682 0682 07       		.uleb128 0x7
 3683 0683 06080000 		.4byte	.LASF109
 3684 0687 0C       		.byte	0xc
 3685 0688 3A       		.byte	0x3a
 3686 0689 2B010000 		.4byte	0x12b
 3687 068d 04       		.byte	0x4
 3688 068e 07       		.uleb128 0x7
 3689 068f C0090000 		.4byte	.LASF110
 3690 0693 0C       		.byte	0xc
 3691 0694 3B       		.byte	0x3b
 3692 0695 63060000 		.4byte	0x663
 3693 0699 08       		.byte	0x8
 3694 069a 07       		.uleb128 0x7
 3695 069b DD000000 		.4byte	.LASF111
 3696 069f 0C       		.byte	0xc
 3697 06a0 3D       		.byte	0x3d
 3698 06a1 63060000 		.4byte	0x663
 3699 06a5 20       		.byte	0x20
 3700 06a6 00       		.byte	0
 3701 06a7 03       		.uleb128 0x3
 3702 06a8 EC020000 		.4byte	.LASF112
 3703 06ac 0C       		.byte	0xc
 3704 06ad 3F       		.byte	0x3f
 3705 06ae 6E060000 		.4byte	0x66e
 3706 06b2 17       		.uleb128 0x17
 3707 06b3 04       		.byte	0x4
 3708 06b4 07       		.byte	0x7
 3709 06b5 FA       		.byte	0xfa
 3710 06b6 0F070000 		.4byte	0x70f
 3711 06ba 18       		.uleb128 0x18
 3712 06bb 6B040000 		.4byte	.LASF113
 3713 06bf 07       		.byte	0x7
 3714 06c0 0101     		.2byte	0x101
 3715 06c2 0A010000 		.4byte	0x10a
 3716 06c6 18       		.uleb128 0x18
 3717 06c7 410D0000 		.4byte	.LASF114
 3718 06cb 07       		.byte	0x7
 3719 06cc 0801     		.2byte	0x108
ARM GAS  C:\Users\Luis\AppData\Local\Temp\cc1uv7VI.s 			page 69


 3720 06ce 0A010000 		.4byte	0x10a
 3721 06d2 18       		.uleb128 0x18
 3722 06d3 88020000 		.4byte	.LASF115
 3723 06d7 07       		.byte	0x7
 3724 06d8 0F01     		.2byte	0x10f
 3725 06da 47030000 		.4byte	0x347
 3726 06de 18       		.uleb128 0x18
 3727 06df 720C0000 		.4byte	.LASF116
 3728 06e3 07       		.byte	0x7
 3729 06e4 1601     		.2byte	0x116
 3730 06e6 0F070000 		.4byte	0x70f
 3731 06ea 18       		.uleb128 0x18
 3732 06eb 430B0000 		.4byte	.LASF117
 3733 06ef 07       		.byte	0x7
 3734 06f0 1E01     		.2byte	0x11e
 3735 06f2 3A070000 		.4byte	0x73a
 3736 06f6 18       		.uleb128 0x18
 3737 06f7 20000000 		.4byte	.LASF118
 3738 06fb 07       		.byte	0x7
 3739 06fc 2701     		.2byte	0x127
 3740 06fe 71070000 		.4byte	0x771
 3741 0702 18       		.uleb128 0x18
 3742 0703 4F020000 		.4byte	.LASF119
 3743 0707 07       		.byte	0x7
 3744 0708 2F01     		.2byte	0x12f
 3745 070a 15010000 		.4byte	0x115
 3746 070e 00       		.byte	0
 3747 070f 0A       		.uleb128 0xa
 3748 0710 04       		.byte	0x4
 3749 0711 5F020000 		.4byte	0x25f
 3750 0715 06       		.uleb128 0x6
 3751 0716 4A030000 		.4byte	.LASF120
 3752 071a 0C       		.byte	0xc
 3753 071b 0D       		.byte	0xd
 3754 071c 34       		.byte	0x34
 3755 071d 3A070000 		.4byte	0x73a
 3756 0721 07       		.uleb128 0x7
 3757 0722 9B000000 		.4byte	.LASF121
 3758 0726 0D       		.byte	0xd
 3759 0727 35       		.byte	0x35
 3760 0728 94020000 		.4byte	0x294
 3761 072c 00       		.byte	0
 3762 072d 07       		.uleb128 0x7
 3763 072e E7030000 		.4byte	.LASF122
 3764 0732 0D       		.byte	0xd
 3765 0733 37       		.byte	0x37
 3766 0734 20010000 		.4byte	0x120
 3767 0738 08       		.byte	0x8
 3768 0739 00       		.byte	0
 3769 073a 0A       		.uleb128 0xa
 3770 073b 04       		.byte	0x4
 3771 073c 15070000 		.4byte	0x715
 3772 0740 06       		.uleb128 0x6
 3773 0741 F4040000 		.4byte	.LASF123
 3774 0745 10       		.byte	0x10
 3775 0746 0E       		.byte	0xe
 3776 0747 39       		.byte	0x39
ARM GAS  C:\Users\Luis\AppData\Local\Temp\cc1uv7VI.s 			page 70


 3777 0748 71070000 		.4byte	0x771
 3778 074c 07       		.uleb128 0x7
 3779 074d 47090000 		.4byte	.LASF124
 3780 0751 0E       		.byte	0xe
 3781 0752 3A       		.byte	0x3a
 3782 0753 94020000 		.4byte	0x294
 3783 0757 00       		.byte	0
 3784 0758 07       		.uleb128 0x7
 3785 0759 93000000 		.4byte	.LASF125
 3786 075d 0E       		.byte	0xe
 3787 075e 3C       		.byte	0x3c
 3788 075f 6A020000 		.4byte	0x26a
 3789 0763 08       		.byte	0x8
 3790 0764 07       		.uleb128 0x7
 3791 0765 8F0C0000 		.4byte	.LASF126
 3792 0769 0E       		.byte	0xe
 3793 076a 3E       		.byte	0x3e
 3794 076b B5070000 		.4byte	0x7b5
 3795 076f 0C       		.byte	0xc
 3796 0770 00       		.byte	0
 3797 0771 0A       		.uleb128 0xa
 3798 0772 04       		.byte	0x4
 3799 0773 40070000 		.4byte	0x740
 3800 0777 0A       		.uleb128 0xa
 3801 0778 04       		.byte	0x4
 3802 0779 7D070000 		.4byte	0x77d
 3803 077d 19       		.uleb128 0x19
 3804 077e 82070000 		.4byte	0x782
 3805 0782 04       		.uleb128 0x4
 3806 0783 01       		.byte	0x1
 3807 0784 08       		.byte	0x8
 3808 0785 46000000 		.4byte	.LASF127
 3809 0789 0A       		.uleb128 0xa
 3810 078a 04       		.byte	0x4
 3811 078b C8040000 		.4byte	0x4c8
 3812 078f 0A       		.uleb128 0xa
 3813 0790 04       		.byte	0x4
 3814 0791 49030000 		.4byte	0x349
 3815 0795 05       		.uleb128 0x5
 3816 0796 77070000 		.4byte	0x777
 3817 079a 15       		.uleb128 0x15
 3818 079b C8040000 		.4byte	0x4c8
 3819 079f AA070000 		.4byte	0x7aa
 3820 07a3 16       		.uleb128 0x16
 3821 07a4 B6040000 		.4byte	0x4b6
 3822 07a8 1F       		.byte	0x1f
 3823 07a9 00       		.byte	0
 3824 07aa 03       		.uleb128 0x3
 3825 07ab 610B0000 		.4byte	.LASF128
 3826 07af 0E       		.byte	0xe
 3827 07b0 34       		.byte	0x34
 3828 07b1 40070000 		.4byte	0x740
 3829 07b5 0A       		.uleb128 0xa
 3830 07b6 04       		.byte	0x4
 3831 07b7 AA070000 		.4byte	0x7aa
 3832 07bb 04       		.uleb128 0x4
 3833 07bc 01       		.byte	0x1
ARM GAS  C:\Users\Luis\AppData\Local\Temp\cc1uv7VI.s 			page 71


 3834 07bd 02       		.byte	0x2
 3835 07be 8C040000 		.4byte	.LASF129
 3836 07c2 03       		.uleb128 0x3
 3837 07c3 41070000 		.4byte	.LASF130
 3838 07c7 0F       		.byte	0xf
 3839 07c8 38       		.byte	0x38
 3840 07c9 50000000 		.4byte	0x50
 3841 07cd 03       		.uleb128 0x3
 3842 07ce 0E050000 		.4byte	.LASF131
 3843 07d2 0F       		.byte	0xf
 3844 07d3 39       		.byte	0x39
 3845 07d4 3E000000 		.4byte	0x3e
 3846 07d8 03       		.uleb128 0x3
 3847 07d9 28010000 		.4byte	.LASF132
 3848 07dd 0F       		.byte	0xf
 3849 07de 3A       		.byte	0x3a
 3850 07df 74000000 		.4byte	0x74
 3851 07e3 03       		.uleb128 0x3
 3852 07e4 100B0000 		.4byte	.LASF133
 3853 07e8 0F       		.byte	0xf
 3854 07e9 3B       		.byte	0x3b
 3855 07ea 62000000 		.4byte	0x62
 3856 07ee 03       		.uleb128 0x3
 3857 07ef 22090000 		.4byte	.LASF134
 3858 07f3 0F       		.byte	0xf
 3859 07f4 3C       		.byte	0x3c
 3860 07f5 98000000 		.4byte	0x98
 3861 07f9 03       		.uleb128 0x3
 3862 07fa 13050000 		.4byte	.LASF135
 3863 07fe 0F       		.byte	0xf
 3864 07ff 3D       		.byte	0x3d
 3865 0800 86000000 		.4byte	0x86
 3866 0804 03       		.uleb128 0x3
 3867 0805 520A0000 		.4byte	.LASF136
 3868 0809 0F       		.byte	0xf
 3869 080a 3E       		.byte	0x3e
 3870 080b 98000000 		.4byte	0x98
 3871 080f 1A       		.uleb128 0x1a
 3872 0810 01       		.byte	0x1
 3873 0811 11       		.byte	0x11
 3874 0812 2B       		.byte	0x2b
 3875 0813 72080000 		.4byte	0x872
 3876 0817 1B       		.uleb128 0x1b
 3877 0818 B20A0000 		.4byte	.LASF137
 3878 081c 00       		.sleb128 0
 3879 081d 1B       		.uleb128 0x1b
 3880 081e 08010000 		.4byte	.LASF138
 3881 0822 01       		.sleb128 1
 3882 0823 1B       		.uleb128 0x1b
 3883 0824 34070000 		.4byte	.LASF139
 3884 0828 02       		.sleb128 2
 3885 0829 1B       		.uleb128 0x1b
 3886 082a 27000000 		.4byte	.LASF140
 3887 082e 03       		.sleb128 3
 3888 082f 1B       		.uleb128 0x1b
 3889 0830 CD0B0000 		.4byte	.LASF141
 3890 0834 04       		.sleb128 4
ARM GAS  C:\Users\Luis\AppData\Local\Temp\cc1uv7VI.s 			page 72


 3891 0835 1B       		.uleb128 0x1b
 3892 0836 C0070000 		.4byte	.LASF142
 3893 083a 05       		.sleb128 5
 3894 083b 1B       		.uleb128 0x1b
 3895 083c 890A0000 		.4byte	.LASF143
 3896 0840 06       		.sleb128 6
 3897 0841 1B       		.uleb128 0x1b
 3898 0842 D7060000 		.4byte	.LASF144
 3899 0846 07       		.sleb128 7
 3900 0847 1B       		.uleb128 0x1b
 3901 0848 DA020000 		.4byte	.LASF145
 3902 084c 08       		.sleb128 8
 3903 084d 1B       		.uleb128 0x1b
 3904 084e 25030000 		.4byte	.LASF146
 3905 0852 09       		.sleb128 9
 3906 0853 1B       		.uleb128 0x1b
 3907 0854 14040000 		.4byte	.LASF147
 3908 0858 0A       		.sleb128 10
 3909 0859 1B       		.uleb128 0x1b
 3910 085a CB090000 		.4byte	.LASF148
 3911 085e 0B       		.sleb128 11
 3912 085f 1B       		.uleb128 0x1b
 3913 0860 82050000 		.4byte	.LASF149
 3914 0864 0C       		.sleb128 12
 3915 0865 1B       		.uleb128 0x1b
 3916 0866 64020000 		.4byte	.LASF150
 3917 086a 0D       		.sleb128 13
 3918 086b 1B       		.uleb128 0x1b
 3919 086c 05050000 		.4byte	.LASF151
 3920 0870 0E       		.sleb128 14
 3921 0871 00       		.byte	0
 3922 0872 03       		.uleb128 0x3
 3923 0873 F7000000 		.4byte	.LASF152
 3924 0877 10       		.byte	0x10
 3925 0878 2F       		.byte	0x2f
 3926 0879 CD070000 		.4byte	0x7cd
 3927 087d 1A       		.uleb128 0x1a
 3928 087e 01       		.byte	0x1
 3929 087f 12       		.byte	0x12
 3930 0880 32       		.byte	0x32
 3931 0881 9E080000 		.4byte	0x89e
 3932 0885 1B       		.uleb128 0x1b
 3933 0886 B2020000 		.4byte	.LASF153
 3934 088a 00       		.sleb128 0
 3935 088b 1B       		.uleb128 0x1b
 3936 088c 7A040000 		.4byte	.LASF154
 3937 0890 01       		.sleb128 1
 3938 0891 1B       		.uleb128 0x1b
 3939 0892 20080000 		.4byte	.LASF155
 3940 0896 02       		.sleb128 2
 3941 0897 1B       		.uleb128 0x1b
 3942 0898 B6080000 		.4byte	.LASF156
 3943 089c 03       		.sleb128 3
 3944 089d 00       		.byte	0
 3945 089e 03       		.uleb128 0x3
 3946 089f 1E0B0000 		.4byte	.LASF157
 3947 08a3 12       		.byte	0x12
ARM GAS  C:\Users\Luis\AppData\Local\Temp\cc1uv7VI.s 			page 73


 3948 08a4 37       		.byte	0x37
 3949 08a5 7D080000 		.4byte	0x87d
 3950 08a9 1A       		.uleb128 0x1a
 3951 08aa 01       		.byte	0x1
 3952 08ab 12       		.byte	0x12
 3953 08ac 39       		.byte	0x39
 3954 08ad CA080000 		.4byte	0x8ca
 3955 08b1 1B       		.uleb128 0x1b
 3956 08b2 5B000000 		.4byte	.LASF158
 3957 08b6 00       		.sleb128 0
 3958 08b7 1B       		.uleb128 0x1b
 3959 08b8 170D0000 		.4byte	.LASF159
 3960 08bc 01       		.sleb128 1
 3961 08bd 1B       		.uleb128 0x1b
 3962 08be 29040000 		.4byte	.LASF160
 3963 08c2 02       		.sleb128 2
 3964 08c3 1B       		.uleb128 0x1b
 3965 08c4 D5040000 		.4byte	.LASF161
 3966 08c8 03       		.sleb128 3
 3967 08c9 00       		.byte	0
 3968 08ca 03       		.uleb128 0x3
 3969 08cb 7F000000 		.4byte	.LASF162
 3970 08cf 12       		.byte	0x12
 3971 08d0 3E       		.byte	0x3e
 3972 08d1 A9080000 		.4byte	0x8a9
 3973 08d5 06       		.uleb128 0x6
 3974 08d6 EC0B0000 		.4byte	.LASF163
 3975 08da 10       		.byte	0x10
 3976 08db 12       		.byte	0x12
 3977 08dc 4F       		.byte	0x4f
 3978 08dd 36090000 		.4byte	0x936
 3979 08e1 07       		.uleb128 0x7
 3980 08e2 CB000000 		.4byte	.LASF164
 3981 08e6 12       		.byte	0x12
 3982 08e7 51       		.byte	0x51
 3983 08e8 36090000 		.4byte	0x936
 3984 08ec 00       		.byte	0
 3985 08ed 07       		.uleb128 0x7
 3986 08ee 72040000 		.4byte	.LASF165
 3987 08f2 12       		.byte	0x12
 3988 08f3 54       		.byte	0x54
 3989 08f4 47030000 		.4byte	0x347
 3990 08f8 04       		.byte	0x4
 3991 08f9 07       		.uleb128 0x7
 3992 08fa 300C0000 		.4byte	.LASF166
 3993 08fe 12       		.byte	0x12
 3994 08ff 5D       		.byte	0x5d
 3995 0900 D8070000 		.4byte	0x7d8
 3996 0904 08       		.byte	0x8
 3997 0905 12       		.uleb128 0x12
 3998 0906 6C656E00 		.ascii	"len\000"
 3999 090a 12       		.byte	0x12
 4000 090b 60       		.byte	0x60
 4001 090c D8070000 		.4byte	0x7d8
 4002 0910 0A       		.byte	0xa
 4003 0911 07       		.uleb128 0x7
 4004 0912 5A060000 		.4byte	.LASF167
ARM GAS  C:\Users\Luis\AppData\Local\Temp\cc1uv7VI.s 			page 74


 4005 0916 12       		.byte	0x12
 4006 0917 63       		.byte	0x63
 4007 0918 C2070000 		.4byte	0x7c2
 4008 091c 0C       		.byte	0xc
 4009 091d 07       		.uleb128 0x7
 4010 091e FD080000 		.4byte	.LASF168
 4011 0922 12       		.byte	0x12
 4012 0923 66       		.byte	0x66
 4013 0924 C2070000 		.4byte	0x7c2
 4014 0928 0D       		.byte	0xd
 4015 0929 12       		.uleb128 0x12
 4016 092a 72656600 		.ascii	"ref\000"
 4017 092e 12       		.byte	0x12
 4018 092f 6D       		.byte	0x6d
 4019 0930 D8070000 		.4byte	0x7d8
 4020 0934 0E       		.byte	0xe
 4021 0935 00       		.byte	0
 4022 0936 0A       		.uleb128 0xa
 4023 0937 04       		.byte	0x4
 4024 0938 D5080000 		.4byte	0x8d5
 4025 093c 03       		.uleb128 0x3
 4026 093d 64090000 		.4byte	.LASF169
 4027 0941 12       		.byte	0x12
 4028 0942 72       		.byte	0x72
 4029 0943 47090000 		.4byte	0x947
 4030 0947 0A       		.uleb128 0xa
 4031 0948 04       		.byte	0x4
 4032 0949 4D090000 		.4byte	0x94d
 4033 094d 0C       		.uleb128 0xc
 4034 094e 58090000 		.4byte	0x958
 4035 0952 0D       		.uleb128 0xd
 4036 0953 36090000 		.4byte	0x936
 4037 0957 00       		.byte	0
 4038 0958 06       		.uleb128 0x6
 4039 0959 2E010000 		.4byte	.LASF170
 4040 095d 14       		.byte	0x14
 4041 095e 12       		.byte	0x12
 4042 095f 75       		.byte	0x75
 4043 0960 7D090000 		.4byte	0x97d
 4044 0964 07       		.uleb128 0x7
 4045 0965 EC0B0000 		.4byte	.LASF163
 4046 0969 12       		.byte	0x12
 4047 096a 77       		.byte	0x77
 4048 096b D5080000 		.4byte	0x8d5
 4049 096f 00       		.byte	0
 4050 0970 07       		.uleb128 0x7
 4051 0971 D9080000 		.4byte	.LASF171
 4052 0975 12       		.byte	0x12
 4053 0976 79       		.byte	0x79
 4054 0977 3C090000 		.4byte	0x93c
 4055 097b 10       		.byte	0x10
 4056 097c 00       		.byte	0
 4057 097d 06       		.uleb128 0x6
 4058 097e 5A0D0000 		.4byte	.LASF172
 4059 0982 04       		.byte	0x4
 4060 0983 13       		.byte	0x13
 4061 0984 2C       		.byte	0x2c
ARM GAS  C:\Users\Luis\AppData\Local\Temp\cc1uv7VI.s 			page 75


 4062 0985 96090000 		.4byte	0x996
 4063 0989 07       		.uleb128 0x7
 4064 098a 1A0C0000 		.4byte	.LASF173
 4065 098e 13       		.byte	0x13
 4066 098f 2D       		.byte	0x2d
 4067 0990 EE070000 		.4byte	0x7ee
 4068 0994 00       		.byte	0
 4069 0995 00       		.byte	0
 4070 0996 03       		.uleb128 0x3
 4071 0997 040D0000 		.4byte	.LASF174
 4072 099b 13       		.byte	0x13
 4073 099c 40       		.byte	0x40
 4074 099d 7D090000 		.4byte	0x97d
 4075 09a1 03       		.uleb128 0x3
 4076 09a2 71000000 		.4byte	.LASF175
 4077 09a6 14       		.byte	0x14
 4078 09a7 3C       		.byte	0x3c
 4079 09a8 AC090000 		.4byte	0x9ac
 4080 09ac 0A       		.uleb128 0xa
 4081 09ad 04       		.byte	0x4
 4082 09ae B2090000 		.4byte	0x9b2
 4083 09b2 1C       		.uleb128 0x1c
 4084 09b3 72080000 		.4byte	0x872
 4085 09b7 CB090000 		.4byte	0x9cb
 4086 09bb 0D       		.uleb128 0xd
 4087 09bc 47030000 		.4byte	0x347
 4088 09c0 0D       		.uleb128 0xd
 4089 09c1 CB090000 		.4byte	0x9cb
 4090 09c5 0D       		.uleb128 0xd
 4091 09c6 72080000 		.4byte	0x872
 4092 09ca 00       		.byte	0
 4093 09cb 0A       		.uleb128 0xa
 4094 09cc 04       		.byte	0x4
 4095 09cd D1090000 		.4byte	0x9d1
 4096 09d1 06       		.uleb128 0x6
 4097 09d2 A20C0000 		.4byte	.LASF176
 4098 09d6 98       		.byte	0x98
 4099 09d7 14       		.byte	0x14
 4100 09d8 A8       		.byte	0xa8
 4101 09d9 830C0000 		.4byte	0xc83
 4102 09dd 07       		.uleb128 0x7
 4103 09de FE090000 		.4byte	.LASF177
 4104 09e2 14       		.byte	0x14
 4105 09e3 AA       		.byte	0xaa
 4106 09e4 96090000 		.4byte	0x996
 4107 09e8 00       		.byte	0
 4108 09e9 07       		.uleb128 0x7
 4109 09ea EA0C0000 		.4byte	.LASF178
 4110 09ee 14       		.byte	0x14
 4111 09ef AA       		.byte	0xaa
 4112 09f0 96090000 		.4byte	0x996
 4113 09f4 04       		.byte	0x4
 4114 09f5 07       		.uleb128 0x7
 4115 09f6 3B000000 		.4byte	.LASF179
 4116 09fa 14       		.byte	0x14
 4117 09fb AA       		.byte	0xaa
 4118 09fc C2070000 		.4byte	0x7c2
ARM GAS  C:\Users\Luis\AppData\Local\Temp\cc1uv7VI.s 			page 76


 4119 0a00 08       		.byte	0x8
 4120 0a01 12       		.uleb128 0x12
 4121 0a02 746F7300 		.ascii	"tos\000"
 4122 0a06 14       		.byte	0x14
 4123 0a07 AA       		.byte	0xaa
 4124 0a08 C2070000 		.4byte	0x7c2
 4125 0a0c 09       		.byte	0x9
 4126 0a0d 12       		.uleb128 0x12
 4127 0a0e 74746C00 		.ascii	"ttl\000"
 4128 0a12 14       		.byte	0x14
 4129 0a13 AA       		.byte	0xaa
 4130 0a14 C2070000 		.4byte	0x7c2
 4131 0a18 0A       		.byte	0xa
 4132 0a19 07       		.uleb128 0x7
 4133 0a1a CB000000 		.4byte	.LASF164
 4134 0a1e 14       		.byte	0x14
 4135 0a1f AC       		.byte	0xac
 4136 0a20 CB090000 		.4byte	0x9cb
 4137 0a24 0C       		.byte	0xc
 4138 0a25 07       		.uleb128 0x7
 4139 0a26 FB0B0000 		.4byte	.LASF180
 4140 0a2a 14       		.byte	0x14
 4141 0a2b AC       		.byte	0xac
 4142 0a2c 47030000 		.4byte	0x347
 4143 0a30 10       		.byte	0x10
 4144 0a31 07       		.uleb128 0x7
 4145 0a32 11030000 		.4byte	.LASF181
 4146 0a36 14       		.byte	0x14
 4147 0a37 AC       		.byte	0xac
 4148 0a38 A1090000 		.4byte	0x9a1
 4149 0a3c 14       		.byte	0x14
 4150 0a3d 07       		.uleb128 0x7
 4151 0a3e 2A0C0000 		.4byte	.LASF182
 4152 0a42 14       		.byte	0x14
 4153 0a43 AC       		.byte	0xac
 4154 0a44 2D0D0000 		.4byte	0xd2d
 4155 0a48 18       		.byte	0x18
 4156 0a49 07       		.uleb128 0x7
 4157 0a4a 70050000 		.4byte	.LASF183
 4158 0a4e 14       		.byte	0x14
 4159 0a4f AC       		.byte	0xac
 4160 0a50 C2070000 		.4byte	0x7c2
 4161 0a54 19       		.byte	0x19
 4162 0a55 07       		.uleb128 0x7
 4163 0a56 38030000 		.4byte	.LASF184
 4164 0a5a 14       		.byte	0x14
 4165 0a5b AC       		.byte	0xac
 4166 0a5c D8070000 		.4byte	0x7d8
 4167 0a60 1A       		.byte	0x1a
 4168 0a61 07       		.uleb128 0x7
 4169 0a62 87070000 		.4byte	.LASF185
 4170 0a66 14       		.byte	0x14
 4171 0a67 AF       		.byte	0xaf
 4172 0a68 D8070000 		.4byte	0x7d8
 4173 0a6c 1C       		.byte	0x1c
 4174 0a6d 07       		.uleb128 0x7
 4175 0a6e FD080000 		.4byte	.LASF168
ARM GAS  C:\Users\Luis\AppData\Local\Temp\cc1uv7VI.s 			page 77


 4176 0a72 14       		.byte	0x14
 4177 0a73 B1       		.byte	0xb1
 4178 0a74 C2070000 		.4byte	0x7c2
 4179 0a78 1E       		.byte	0x1e
 4180 0a79 07       		.uleb128 0x7
 4181 0a7a 69000000 		.4byte	.LASF186
 4182 0a7e 14       		.byte	0x14
 4183 0a7f BF       		.byte	0xbf
 4184 0a80 C2070000 		.4byte	0x7c2
 4185 0a84 1F       		.byte	0x1f
 4186 0a85 07       		.uleb128 0x7
 4187 0a86 75050000 		.4byte	.LASF187
 4188 0a8a 14       		.byte	0x14
 4189 0a8b BF       		.byte	0xbf
 4190 0a8c C2070000 		.4byte	0x7c2
 4191 0a90 20       		.byte	0x20
 4192 0a91 07       		.uleb128 0x7
 4193 0a92 E8090000 		.4byte	.LASF188
 4194 0a96 14       		.byte	0x14
 4195 0a97 C0       		.byte	0xc0
 4196 0a98 C2070000 		.4byte	0x7c2
 4197 0a9c 21       		.byte	0x21
 4198 0a9d 12       		.uleb128 0x12
 4199 0a9e 746D7200 		.ascii	"tmr\000"
 4200 0aa2 14       		.byte	0x14
 4201 0aa3 C1       		.byte	0xc1
 4202 0aa4 EE070000 		.4byte	0x7ee
 4203 0aa8 24       		.byte	0x24
 4204 0aa9 07       		.uleb128 0x7
 4205 0aaa 0C040000 		.4byte	.LASF189
 4206 0aae 14       		.byte	0x14
 4207 0aaf C4       		.byte	0xc4
 4208 0ab0 EE070000 		.4byte	0x7ee
 4209 0ab4 28       		.byte	0x28
 4210 0ab5 07       		.uleb128 0x7
 4211 0ab6 9A090000 		.4byte	.LASF190
 4212 0aba 14       		.byte	0x14
 4213 0abb C5       		.byte	0xc5
 4214 0abc D8070000 		.4byte	0x7d8
 4215 0ac0 2C       		.byte	0x2c
 4216 0ac1 07       		.uleb128 0x7
 4217 0ac2 AC070000 		.4byte	.LASF191
 4218 0ac6 14       		.byte	0x14
 4219 0ac7 C6       		.byte	0xc6
 4220 0ac8 D8070000 		.4byte	0x7d8
 4221 0acc 2E       		.byte	0x2e
 4222 0acd 07       		.uleb128 0x7
 4223 0ace 1F020000 		.4byte	.LASF192
 4224 0ad2 14       		.byte	0x14
 4225 0ad3 C7       		.byte	0xc7
 4226 0ad4 EE070000 		.4byte	0x7ee
 4227 0ad8 30       		.byte	0x30
 4228 0ad9 07       		.uleb128 0x7
 4229 0ada D3030000 		.4byte	.LASF193
 4230 0ade 14       		.byte	0x14
 4231 0adf CA       		.byte	0xca
 4232 0ae0 E3070000 		.4byte	0x7e3
ARM GAS  C:\Users\Luis\AppData\Local\Temp\cc1uv7VI.s 			page 78


 4233 0ae4 34       		.byte	0x34
 4234 0ae5 12       		.uleb128 0x12
 4235 0ae6 6D737300 		.ascii	"mss\000"
 4236 0aea 14       		.byte	0x14
 4237 0aeb CC       		.byte	0xcc
 4238 0aec D8070000 		.4byte	0x7d8
 4239 0af0 36       		.byte	0x36
 4240 0af1 07       		.uleb128 0x7
 4241 0af2 AF090000 		.4byte	.LASF194
 4242 0af6 14       		.byte	0x14
 4243 0af7 CF       		.byte	0xcf
 4244 0af8 EE070000 		.4byte	0x7ee
 4245 0afc 38       		.byte	0x38
 4246 0afd 07       		.uleb128 0x7
 4247 0afe C7030000 		.4byte	.LASF195
 4248 0b02 14       		.byte	0x14
 4249 0b03 D0       		.byte	0xd0
 4250 0b04 EE070000 		.4byte	0x7ee
 4251 0b08 3C       		.byte	0x3c
 4252 0b09 12       		.uleb128 0x12
 4253 0b0a 736100   		.ascii	"sa\000"
 4254 0b0d 14       		.byte	0x14
 4255 0b0e D1       		.byte	0xd1
 4256 0b0f E3070000 		.4byte	0x7e3
 4257 0b13 40       		.byte	0x40
 4258 0b14 12       		.uleb128 0x12
 4259 0b15 737600   		.ascii	"sv\000"
 4260 0b18 14       		.byte	0x14
 4261 0b19 D1       		.byte	0xd1
 4262 0b1a E3070000 		.4byte	0x7e3
 4263 0b1e 42       		.byte	0x42
 4264 0b1f 12       		.uleb128 0x12
 4265 0b20 72746F00 		.ascii	"rto\000"
 4266 0b24 14       		.byte	0x14
 4267 0b25 D3       		.byte	0xd3
 4268 0b26 E3070000 		.4byte	0x7e3
 4269 0b2a 44       		.byte	0x44
 4270 0b2b 07       		.uleb128 0x7
 4271 0b2c 370D0000 		.4byte	.LASF196
 4272 0b30 14       		.byte	0x14
 4273 0b31 D4       		.byte	0xd4
 4274 0b32 C2070000 		.4byte	0x7c2
 4275 0b36 46       		.byte	0x46
 4276 0b37 07       		.uleb128 0x7
 4277 0b38 68050000 		.4byte	.LASF197
 4278 0b3c 14       		.byte	0x14
 4279 0b3d D7       		.byte	0xd7
 4280 0b3e C2070000 		.4byte	0x7c2
 4281 0b42 47       		.byte	0x47
 4282 0b43 07       		.uleb128 0x7
 4283 0b44 FD040000 		.4byte	.LASF198
 4284 0b48 14       		.byte	0x14
 4285 0b49 D8       		.byte	0xd8
 4286 0b4a EE070000 		.4byte	0x7ee
 4287 0b4e 48       		.byte	0x48
 4288 0b4f 07       		.uleb128 0x7
 4289 0b50 E7020000 		.4byte	.LASF199
ARM GAS  C:\Users\Luis\AppData\Local\Temp\cc1uv7VI.s 			page 79


 4290 0b54 14       		.byte	0x14
 4291 0b55 DB       		.byte	0xdb
 4292 0b56 D8070000 		.4byte	0x7d8
 4293 0b5a 4C       		.byte	0x4c
 4294 0b5b 07       		.uleb128 0x7
 4295 0b5c 980A0000 		.4byte	.LASF200
 4296 0b60 14       		.byte	0x14
 4297 0b61 DC       		.byte	0xdc
 4298 0b62 D8070000 		.4byte	0x7d8
 4299 0b66 4E       		.byte	0x4e
 4300 0b67 07       		.uleb128 0x7
 4301 0b68 450A0000 		.4byte	.LASF201
 4302 0b6c 14       		.byte	0x14
 4303 0b6d DF       		.byte	0xdf
 4304 0b6e EE070000 		.4byte	0x7ee
 4305 0b72 50       		.byte	0x50
 4306 0b73 07       		.uleb128 0x7
 4307 0b74 B3050000 		.4byte	.LASF202
 4308 0b78 14       		.byte	0x14
 4309 0b79 E0       		.byte	0xe0
 4310 0b7a EE070000 		.4byte	0x7ee
 4311 0b7e 54       		.byte	0x54
 4312 0b7f 07       		.uleb128 0x7
 4313 0b80 5F060000 		.4byte	.LASF203
 4314 0b84 14       		.byte	0x14
 4315 0b85 E0       		.byte	0xe0
 4316 0b86 EE070000 		.4byte	0x7ee
 4317 0b8a 58       		.byte	0x58
 4318 0b8b 07       		.uleb128 0x7
 4319 0b8c C0060000 		.4byte	.LASF204
 4320 0b90 14       		.byte	0x14
 4321 0b91 E2       		.byte	0xe2
 4322 0b92 EE070000 		.4byte	0x7ee
 4323 0b96 5C       		.byte	0x5c
 4324 0b97 07       		.uleb128 0x7
 4325 0b98 BF080000 		.4byte	.LASF205
 4326 0b9c 14       		.byte	0x14
 4327 0b9d E3       		.byte	0xe3
 4328 0b9e D8070000 		.4byte	0x7d8
 4329 0ba2 60       		.byte	0x60
 4330 0ba3 07       		.uleb128 0x7
 4331 0ba4 680A0000 		.4byte	.LASF206
 4332 0ba8 14       		.byte	0x14
 4333 0ba9 E4       		.byte	0xe4
 4334 0baa D8070000 		.4byte	0x7d8
 4335 0bae 62       		.byte	0x62
 4336 0baf 07       		.uleb128 0x7
 4337 0bb0 DC050000 		.4byte	.LASF207
 4338 0bb4 14       		.byte	0x14
 4339 0bb5 E6       		.byte	0xe6
 4340 0bb6 D8070000 		.4byte	0x7d8
 4341 0bba 64       		.byte	0x64
 4342 0bbb 07       		.uleb128 0x7
 4343 0bbc AA0A0000 		.4byte	.LASF208
 4344 0bc0 14       		.byte	0x14
 4345 0bc1 E8       		.byte	0xe8
 4346 0bc2 D8070000 		.4byte	0x7d8
ARM GAS  C:\Users\Luis\AppData\Local\Temp\cc1uv7VI.s 			page 80


 4347 0bc6 66       		.byte	0x66
 4348 0bc7 07       		.uleb128 0x7
 4349 0bc8 590C0000 		.4byte	.LASF209
 4350 0bcc 14       		.byte	0x14
 4351 0bcd EA       		.byte	0xea
 4352 0bce D8070000 		.4byte	0x7d8
 4353 0bd2 68       		.byte	0x68
 4354 0bd3 07       		.uleb128 0x7
 4355 0bd4 1C0A0000 		.4byte	.LASF210
 4356 0bd8 14       		.byte	0x14
 4357 0bd9 EE       		.byte	0xee
 4358 0bda D8070000 		.4byte	0x7d8
 4359 0bde 6A       		.byte	0x6a
 4360 0bdf 07       		.uleb128 0x7
 4361 0be0 93090000 		.4byte	.LASF211
 4362 0be4 14       		.byte	0x14
 4363 0be5 F2       		.byte	0xf2
 4364 0be6 C90D0000 		.4byte	0xdc9
 4365 0bea 6C       		.byte	0x6c
 4366 0beb 07       		.uleb128 0x7
 4367 0bec 3C040000 		.4byte	.LASF212
 4368 0bf0 14       		.byte	0x14
 4369 0bf1 F3       		.byte	0xf3
 4370 0bf2 C90D0000 		.4byte	0xdc9
 4371 0bf6 70       		.byte	0x70
 4372 0bf7 07       		.uleb128 0x7
 4373 0bf8 F7080000 		.4byte	.LASF213
 4374 0bfc 14       		.byte	0x14
 4375 0bfd F5       		.byte	0xf5
 4376 0bfe C90D0000 		.4byte	0xdc9
 4377 0c02 74       		.byte	0x74
 4378 0c03 07       		.uleb128 0x7
 4379 0c04 290B0000 		.4byte	.LASF214
 4380 0c08 14       		.byte	0x14
 4381 0c09 F8       		.byte	0xf8
 4382 0c0a 36090000 		.4byte	0x936
 4383 0c0e 78       		.byte	0x78
 4384 0c0f 07       		.uleb128 0x7
 4385 0c10 4D060000 		.4byte	.LASF215
 4386 0c14 14       		.byte	0x14
 4387 0c15 FC       		.byte	0xfc
 4388 0c16 B20C0000 		.4byte	0xcb2
 4389 0c1a 7C       		.byte	0x7c
 4390 0c1b 07       		.uleb128 0x7
 4391 0c1c 780C0000 		.4byte	.LASF216
 4392 0c20 14       		.byte	0x14
 4393 0c21 FE       		.byte	0xfe
 4394 0c22 830C0000 		.4byte	0xc83
 4395 0c26 80       		.byte	0x80
 4396 0c27 09       		.uleb128 0x9
 4397 0c28 82040000 		.4byte	.LASF217
 4398 0c2c 14       		.byte	0x14
 4399 0c2d 0001     		.2byte	0x100
 4400 0c2f 220D0000 		.4byte	0xd22
 4401 0c33 84       		.byte	0x84
 4402 0c34 09       		.uleb128 0x9
 4403 0c35 8C050000 		.4byte	.LASF218
ARM GAS  C:\Users\Luis\AppData\Local\Temp\cc1uv7VI.s 			page 81


 4404 0c39 14       		.byte	0x14
 4405 0c3a 0201     		.2byte	0x102
 4406 0c3c DC0C0000 		.4byte	0xcdc
 4407 0c40 88       		.byte	0x88
 4408 0c41 09       		.uleb128 0x9
 4409 0c42 B1080000 		.4byte	.LASF219
 4410 0c46 14       		.byte	0x14
 4411 0c47 0401     		.2byte	0x104
 4412 0c49 010D0000 		.4byte	0xd01
 4413 0c4d 8C       		.byte	0x8c
 4414 0c4e 09       		.uleb128 0x9
 4415 0c4f F10B0000 		.4byte	.LASF220
 4416 0c53 14       		.byte	0x14
 4417 0c54 0D01     		.2byte	0x10d
 4418 0c56 EE070000 		.4byte	0x7ee
 4419 0c5a 90       		.byte	0x90
 4420 0c5b 09       		.uleb128 0x9
 4421 0c5c DE0C0000 		.4byte	.LASF221
 4422 0c60 14       		.byte	0x14
 4423 0c61 1401     		.2byte	0x114
 4424 0c63 C2070000 		.4byte	0x7c2
 4425 0c67 94       		.byte	0x94
 4426 0c68 09       		.uleb128 0x9
 4427 0c69 16070000 		.4byte	.LASF222
 4428 0c6d 14       		.byte	0x14
 4429 0c6e 1601     		.2byte	0x116
 4430 0c70 C2070000 		.4byte	0x7c2
 4431 0c74 95       		.byte	0x95
 4432 0c75 09       		.uleb128 0x9
 4433 0c76 56020000 		.4byte	.LASF223
 4434 0c7a 14       		.byte	0x14
 4435 0c7b 1901     		.2byte	0x119
 4436 0c7d C2070000 		.4byte	0x7c2
 4437 0c81 96       		.byte	0x96
 4438 0c82 00       		.byte	0
 4439 0c83 03       		.uleb128 0x3
 4440 0c84 0F080000 		.4byte	.LASF224
 4441 0c88 14       		.byte	0x14
 4442 0c89 48       		.byte	0x48
 4443 0c8a 8E0C0000 		.4byte	0xc8e
 4444 0c8e 0A       		.uleb128 0xa
 4445 0c8f 04       		.byte	0x4
 4446 0c90 940C0000 		.4byte	0xc94
 4447 0c94 1C       		.uleb128 0x1c
 4448 0c95 72080000 		.4byte	0x872
 4449 0c99 B20C0000 		.4byte	0xcb2
 4450 0c9d 0D       		.uleb128 0xd
 4451 0c9e 47030000 		.4byte	0x347
 4452 0ca2 0D       		.uleb128 0xd
 4453 0ca3 CB090000 		.4byte	0x9cb
 4454 0ca7 0D       		.uleb128 0xd
 4455 0ca8 36090000 		.4byte	0x936
 4456 0cac 0D       		.uleb128 0xd
 4457 0cad 72080000 		.4byte	0x872
 4458 0cb1 00       		.byte	0
 4459 0cb2 03       		.uleb128 0x3
 4460 0cb3 73020000 		.4byte	.LASF225
ARM GAS  C:\Users\Luis\AppData\Local\Temp\cc1uv7VI.s 			page 82


 4461 0cb7 14       		.byte	0x14
 4462 0cb8 56       		.byte	0x56
 4463 0cb9 BD0C0000 		.4byte	0xcbd
 4464 0cbd 0A       		.uleb128 0xa
 4465 0cbe 04       		.byte	0x4
 4466 0cbf C30C0000 		.4byte	0xcc3
 4467 0cc3 1C       		.uleb128 0x1c
 4468 0cc4 72080000 		.4byte	0x872
 4469 0cc8 DC0C0000 		.4byte	0xcdc
 4470 0ccc 0D       		.uleb128 0xd
 4471 0ccd 47030000 		.4byte	0x347
 4472 0cd1 0D       		.uleb128 0xd
 4473 0cd2 CB090000 		.4byte	0x9cb
 4474 0cd6 0D       		.uleb128 0xd
 4475 0cd7 D8070000 		.4byte	0x7d8
 4476 0cdb 00       		.byte	0
 4477 0cdc 03       		.uleb128 0x3
 4478 0cdd 77080000 		.4byte	.LASF226
 4479 0ce1 14       		.byte	0x14
 4480 0ce2 62       		.byte	0x62
 4481 0ce3 E70C0000 		.4byte	0xce7
 4482 0ce7 0A       		.uleb128 0xa
 4483 0ce8 04       		.byte	0x4
 4484 0ce9 ED0C0000 		.4byte	0xced
 4485 0ced 1C       		.uleb128 0x1c
 4486 0cee 72080000 		.4byte	0x872
 4487 0cf2 010D0000 		.4byte	0xd01
 4488 0cf6 0D       		.uleb128 0xd
 4489 0cf7 47030000 		.4byte	0x347
 4490 0cfb 0D       		.uleb128 0xd
 4491 0cfc CB090000 		.4byte	0x9cb
 4492 0d00 00       		.byte	0
 4493 0d01 03       		.uleb128 0x3
 4494 0d02 81060000 		.4byte	.LASF227
 4495 0d06 14       		.byte	0x14
 4496 0d07 6E       		.byte	0x6e
 4497 0d08 0C0D0000 		.4byte	0xd0c
 4498 0d0c 0A       		.uleb128 0xa
 4499 0d0d 04       		.byte	0x4
 4500 0d0e 120D0000 		.4byte	0xd12
 4501 0d12 0C       		.uleb128 0xc
 4502 0d13 220D0000 		.4byte	0xd22
 4503 0d17 0D       		.uleb128 0xd
 4504 0d18 47030000 		.4byte	0x347
 4505 0d1c 0D       		.uleb128 0xd
 4506 0d1d 72080000 		.4byte	0x872
 4507 0d21 00       		.byte	0
 4508 0d22 03       		.uleb128 0x3
 4509 0d23 BA000000 		.4byte	.LASF228
 4510 0d27 14       		.byte	0x14
 4511 0d28 7C       		.byte	0x7c
 4512 0d29 AC090000 		.4byte	0x9ac
 4513 0d2d 1D       		.uleb128 0x1d
 4514 0d2e C7080000 		.4byte	.LASF306
 4515 0d32 01       		.byte	0x1
 4516 0d33 14       		.byte	0x14
 4517 0d34 7E       		.byte	0x7e
ARM GAS  C:\Users\Luis\AppData\Local\Temp\cc1uv7VI.s 			page 83


 4518 0d35 7C0D0000 		.4byte	0xd7c
 4519 0d39 1B       		.uleb128 0x1b
 4520 0d3a 1B090000 		.4byte	.LASF229
 4521 0d3e 00       		.sleb128 0
 4522 0d3f 1B       		.uleb128 0x1b
 4523 0d40 080C0000 		.4byte	.LASF230
 4524 0d44 01       		.sleb128 1
 4525 0d45 1B       		.uleb128 0x1b
 4526 0d46 6E080000 		.4byte	.LASF231
 4527 0d4a 02       		.sleb128 2
 4528 0d4b 1B       		.uleb128 0x1b
 4529 0d4c 510D0000 		.4byte	.LASF232
 4530 0d50 03       		.sleb128 3
 4531 0d51 1B       		.uleb128 0x1b
 4532 0d52 5C0A0000 		.4byte	.LASF233
 4533 0d56 04       		.sleb128 4
 4534 0d57 1B       		.uleb128 0x1b
 4535 0d58 9A0B0000 		.4byte	.LASF234
 4536 0d5c 05       		.sleb128 5
 4537 0d5d 1B       		.uleb128 0x1b
 4538 0d5e A50B0000 		.4byte	.LASF235
 4539 0d62 06       		.sleb128 6
 4540 0d63 1B       		.uleb128 0x1b
 4541 0d64 E2050000 		.4byte	.LASF236
 4542 0d68 07       		.sleb128 7
 4543 0d69 1B       		.uleb128 0x1b
 4544 0d6a DF040000 		.4byte	.LASF237
 4545 0d6e 08       		.sleb128 8
 4546 0d6f 1B       		.uleb128 0x1b
 4547 0d70 54040000 		.4byte	.LASF238
 4548 0d74 09       		.sleb128 9
 4549 0d75 1B       		.uleb128 0x1b
 4550 0d76 A3000000 		.4byte	.LASF239
 4551 0d7a 0A       		.sleb128 10
 4552 0d7b 00       		.byte	0
 4553 0d7c 0B       		.uleb128 0xb
 4554 0d7d 90030000 		.4byte	.LASF240
 4555 0d81 10       		.byte	0x10
 4556 0d82 15       		.byte	0x15
 4557 0d83 1501     		.2byte	0x115
 4558 0d85 C90D0000 		.4byte	0xdc9
 4559 0d89 09       		.uleb128 0x9
 4560 0d8a CB000000 		.4byte	.LASF164
 4561 0d8e 15       		.byte	0x15
 4562 0d8f 1601     		.2byte	0x116
 4563 0d91 C90D0000 		.4byte	0xdc9
 4564 0d95 00       		.byte	0
 4565 0d96 08       		.uleb128 0x8
 4566 0d97 7000     		.ascii	"p\000"
 4567 0d99 15       		.byte	0x15
 4568 0d9a 1701     		.2byte	0x117
 4569 0d9c 36090000 		.4byte	0x936
 4570 0da0 04       		.byte	0x4
 4571 0da1 08       		.uleb128 0x8
 4572 0da2 6C656E00 		.ascii	"len\000"
 4573 0da6 15       		.byte	0x15
 4574 0da7 1801     		.2byte	0x118
ARM GAS  C:\Users\Luis\AppData\Local\Temp\cc1uv7VI.s 			page 84


 4575 0da9 D8070000 		.4byte	0x7d8
 4576 0dad 08       		.byte	0x8
 4577 0dae 09       		.uleb128 0x9
 4578 0daf FD080000 		.4byte	.LASF168
 4579 0db3 15       		.byte	0x15
 4580 0db4 2201     		.2byte	0x122
 4581 0db6 C2070000 		.4byte	0x7c2
 4582 0dba 0A       		.byte	0xa
 4583 0dbb 09       		.uleb128 0x9
 4584 0dbc 090B0000 		.4byte	.LASF241
 4585 0dc0 15       		.byte	0x15
 4586 0dc1 2701     		.2byte	0x127
 4587 0dc3 3C0E0000 		.4byte	0xe3c
 4588 0dc7 0C       		.byte	0xc
 4589 0dc8 00       		.byte	0
 4590 0dc9 0A       		.uleb128 0xa
 4591 0dca 04       		.byte	0x4
 4592 0dcb 7C0D0000 		.4byte	0xd7c
 4593 0dcf 06       		.uleb128 0x6
 4594 0dd0 690B0000 		.4byte	.LASF242
 4595 0dd4 14       		.byte	0x14
 4596 0dd5 15       		.byte	0x15
 4597 0dd6 9F       		.byte	0x9f
 4598 0dd7 3C0E0000 		.4byte	0xe3c
 4599 0ddb 12       		.uleb128 0x12
 4600 0ddc 73726300 		.ascii	"src\000"
 4601 0de0 15       		.byte	0x15
 4602 0de1 A0       		.byte	0xa0
 4603 0de2 D8070000 		.4byte	0x7d8
 4604 0de6 00       		.byte	0
 4605 0de7 07       		.uleb128 0x7
 4606 0de8 3C0D0000 		.4byte	.LASF243
 4607 0dec 15       		.byte	0x15
 4608 0ded A1       		.byte	0xa1
 4609 0dee D8070000 		.4byte	0x7d8
 4610 0df2 02       		.byte	0x2
 4611 0df3 07       		.uleb128 0x7
 4612 0df4 C1020000 		.4byte	.LASF244
 4613 0df8 15       		.byte	0x15
 4614 0df9 A2       		.byte	0xa2
 4615 0dfa EE070000 		.4byte	0x7ee
 4616 0dfe 04       		.byte	0x4
 4617 0dff 07       		.uleb128 0x7
 4618 0e00 FC060000 		.4byte	.LASF245
 4619 0e04 15       		.byte	0x15
 4620 0e05 A3       		.byte	0xa3
 4621 0e06 EE070000 		.4byte	0x7ee
 4622 0e0a 08       		.byte	0x8
 4623 0e0b 07       		.uleb128 0x7
 4624 0e0c BF0A0000 		.4byte	.LASF246
 4625 0e10 15       		.byte	0x15
 4626 0e11 A4       		.byte	0xa4
 4627 0e12 D8070000 		.4byte	0x7d8
 4628 0e16 0C       		.byte	0xc
 4629 0e17 12       		.uleb128 0x12
 4630 0e18 776E6400 		.ascii	"wnd\000"
 4631 0e1c 15       		.byte	0x15
ARM GAS  C:\Users\Luis\AppData\Local\Temp\cc1uv7VI.s 			page 85


 4632 0e1d A5       		.byte	0xa5
 4633 0e1e D8070000 		.4byte	0x7d8
 4634 0e22 0E       		.byte	0xe
 4635 0e23 07       		.uleb128 0x7
 4636 0e24 5D040000 		.4byte	.LASF247
 4637 0e28 15       		.byte	0x15
 4638 0e29 A6       		.byte	0xa6
 4639 0e2a D8070000 		.4byte	0x7d8
 4640 0e2e 10       		.byte	0x10
 4641 0e2f 07       		.uleb128 0x7
 4642 0e30 64000000 		.4byte	.LASF248
 4643 0e34 15       		.byte	0x15
 4644 0e35 A7       		.byte	0xa7
 4645 0e36 D8070000 		.4byte	0x7d8
 4646 0e3a 12       		.byte	0x12
 4647 0e3b 00       		.byte	0
 4648 0e3c 0A       		.uleb128 0xa
 4649 0e3d 04       		.byte	0x4
 4650 0e3e CF0D0000 		.4byte	0xdcf
 4651 0e42 0A       		.uleb128 0xa
 4652 0e43 04       		.byte	0x4
 4653 0e44 480E0000 		.4byte	0xe48
 4654 0e48 1E       		.uleb128 0x1e
 4655 0e49 1F       		.uleb128 0x1f
 4656 0e4a 64070000 		.4byte	.LASF249
 4657 0e4e 01       		.byte	0x1
 4658 0e4f CC01     		.2byte	0x1cc
 4659 0e51 00000000 		.4byte	.LFB230
 4660 0e55 14000000 		.4byte	.LFE230-.LFB230
 4661 0e59 01       		.uleb128 0x1
 4662 0e5a 9C       		.byte	0x9c
 4663 0e5b 6F0E0000 		.4byte	0xe6f
 4664 0e5f 20       		.uleb128 0x20
 4665 0e60 C0030000 		.4byte	.LASF252
 4666 0e64 01       		.byte	0x1
 4667 0e65 CC01     		.2byte	0x1cc
 4668 0e67 77070000 		.4byte	0x777
 4669 0e6b 02       		.uleb128 0x2
 4670 0e6c 91       		.byte	0x91
 4671 0e6d 74       		.sleb128 -12
 4672 0e6e 00       		.byte	0
 4673 0e6f 21       		.uleb128 0x21
 4674 0e70 C30C0000 		.4byte	.LASF250
 4675 0e74 02       		.byte	0x2
 4676 0e75 76       		.byte	0x76
 4677 0e76 00000000 		.4byte	.LFB260
 4678 0e7a 48000000 		.4byte	.LFE260-.LFB260
 4679 0e7e 01       		.uleb128 0x1
 4680 0e7f 9C       		.byte	0x9c
 4681 0e80 930E0000 		.4byte	0xe93
 4682 0e84 22       		.uleb128 0x22
 4683 0e85 70636200 		.ascii	"pcb\000"
 4684 0e89 02       		.byte	0x2
 4685 0e8a 78       		.byte	0x78
 4686 0e8b CB090000 		.4byte	0x9cb
 4687 0e8f 02       		.uleb128 0x2
 4688 0e90 91       		.byte	0x91
ARM GAS  C:\Users\Luis\AppData\Local\Temp\cc1uv7VI.s 			page 86


 4689 0e91 74       		.sleb128 -12
 4690 0e92 00       		.byte	0
 4691 0e93 21       		.uleb128 0x21
 4692 0e94 2C0A0000 		.4byte	.LASF251
 4693 0e98 02       		.byte	0x2
 4694 0e99 8F       		.byte	0x8f
 4695 0e9a 00000000 		.4byte	.LFB261
 4696 0e9e 12000000 		.4byte	.LFE261-.LFB261
 4697 0ea2 01       		.uleb128 0x1
 4698 0ea3 9C       		.byte	0x9c
 4699 0ea4 B70E0000 		.4byte	0xeb7
 4700 0ea8 23       		.uleb128 0x23
 4701 0ea9 61726700 		.ascii	"arg\000"
 4702 0ead 02       		.byte	0x2
 4703 0eae 8F       		.byte	0x8f
 4704 0eaf 47030000 		.4byte	0x347
 4705 0eb3 02       		.uleb128 0x2
 4706 0eb4 91       		.byte	0x91
 4707 0eb5 74       		.sleb128 -12
 4708 0eb6 00       		.byte	0
 4709 0eb7 21       		.uleb128 0x21
 4710 0eb8 9F020000 		.4byte	.LASF253
 4711 0ebc 02       		.byte	0x2
 4712 0ebd 98       		.byte	0x98
 4713 0ebe 00000000 		.4byte	.LFB262
 4714 0ec2 3C000000 		.4byte	.LFE262-.LFB262
 4715 0ec6 01       		.uleb128 0x1
 4716 0ec7 9C       		.byte	0x9c
 4717 0ec8 DB0E0000 		.4byte	0xedb
 4718 0ecc 24       		.uleb128 0x24
 4719 0ecd 4A0D0000 		.4byte	.LASF254
 4720 0ed1 02       		.byte	0x2
 4721 0ed2 A0       		.byte	0xa0
 4722 0ed3 C2070000 		.4byte	0x7c2
 4723 0ed7 02       		.uleb128 0x2
 4724 0ed8 91       		.byte	0x91
 4725 0ed9 77       		.sleb128 -9
 4726 0eda 00       		.byte	0
 4727 0edb 25       		.uleb128 0x25
 4728 0edc 6C030000 		.4byte	.LASF258
 4729 0ee0 02       		.byte	0x2
 4730 0ee1 CF       		.byte	0xcf
 4731 0ee2 36090000 		.4byte	0x936
 4732 0ee6 00000000 		.4byte	.LFB263
 4733 0eea BC020000 		.4byte	.LFE263-.LFB263
 4734 0eee 01       		.uleb128 0x1
 4735 0eef 9C       		.byte	0x9c
 4736 0ef0 5F0F0000 		.4byte	0xf5f
 4737 0ef4 26       		.uleb128 0x26
 4738 0ef5 4E070000 		.4byte	.LASF255
 4739 0ef9 02       		.byte	0x2
 4740 0efa CF       		.byte	0xcf
 4741 0efb 9E080000 		.4byte	0x89e
 4742 0eff 02       		.uleb128 0x2
 4743 0f00 91       		.byte	0x91
 4744 0f01 5F       		.sleb128 -33
 4745 0f02 26       		.uleb128 0x26
ARM GAS  C:\Users\Luis\AppData\Local\Temp\cc1uv7VI.s 			page 87


 4746 0f03 8C090000 		.4byte	.LASF256
 4747 0f07 02       		.byte	0x2
 4748 0f08 CF       		.byte	0xcf
 4749 0f09 D8070000 		.4byte	0x7d8
 4750 0f0d 02       		.uleb128 0x2
 4751 0f0e 91       		.byte	0x91
 4752 0f0f 5C       		.sleb128 -36
 4753 0f10 26       		.uleb128 0x26
 4754 0f11 5A060000 		.4byte	.LASF167
 4755 0f15 02       		.byte	0x2
 4756 0f16 CF       		.byte	0xcf
 4757 0f17 CA080000 		.4byte	0x8ca
 4758 0f1b 02       		.uleb128 0x2
 4759 0f1c 91       		.byte	0x91
 4760 0f1d 5E       		.sleb128 -34
 4761 0f1e 22       		.uleb128 0x22
 4762 0f1f 7000     		.ascii	"p\000"
 4763 0f21 02       		.byte	0x2
 4764 0f22 D1       		.byte	0xd1
 4765 0f23 36090000 		.4byte	0x936
 4766 0f27 02       		.uleb128 0x2
 4767 0f28 91       		.byte	0x91
 4768 0f29 74       		.sleb128 -12
 4769 0f2a 22       		.uleb128 0x22
 4770 0f2b 7100     		.ascii	"q\000"
 4771 0f2d 02       		.byte	0x2
 4772 0f2e D1       		.byte	0xd1
 4773 0f2f 36090000 		.4byte	0x936
 4774 0f33 02       		.uleb128 0x2
 4775 0f34 91       		.byte	0x91
 4776 0f35 64       		.sleb128 -28
 4777 0f36 22       		.uleb128 0x22
 4778 0f37 7200     		.ascii	"r\000"
 4779 0f39 02       		.byte	0x2
 4780 0f3a D1       		.byte	0xd1
 4781 0f3b 36090000 		.4byte	0x936
 4782 0f3f 02       		.uleb128 0x2
 4783 0f40 91       		.byte	0x91
 4784 0f41 70       		.sleb128 -16
 4785 0f42 24       		.uleb128 0x24
 4786 0f43 B9030000 		.4byte	.LASF101
 4787 0f47 02       		.byte	0x2
 4788 0f48 D2       		.byte	0xd2
 4789 0f49 D8070000 		.4byte	0x7d8
 4790 0f4d 02       		.uleb128 0x2
 4791 0f4e 91       		.byte	0x91
 4792 0f4f 6E       		.sleb128 -18
 4793 0f50 24       		.uleb128 0x24
 4794 0f51 9D070000 		.4byte	.LASF257
 4795 0f55 02       		.byte	0x2
 4796 0f56 D3       		.byte	0xd3
 4797 0f57 F9070000 		.4byte	0x7f9
 4798 0f5b 02       		.uleb128 0x2
 4799 0f5c 91       		.byte	0x91
 4800 0f5d 68       		.sleb128 -24
 4801 0f5e 00       		.byte	0
 4802 0f5f 27       		.uleb128 0x27
ARM GAS  C:\Users\Luis\AppData\Local\Temp\cc1uv7VI.s 			page 88


 4803 0f60 78090000 		.4byte	.LASF259
 4804 0f64 02       		.byte	0x2
 4805 0f65 6F01     		.2byte	0x16f
 4806 0f67 36090000 		.4byte	0x936
 4807 0f6b 00000000 		.4byte	.LFB264
 4808 0f6f BC000000 		.4byte	.LFE264-.LFB264
 4809 0f73 01       		.uleb128 0x1
 4810 0f74 9C       		.byte	0x9c
 4811 0f75 DF0F0000 		.4byte	0xfdf
 4812 0f79 28       		.uleb128 0x28
 4813 0f7a 6C00     		.ascii	"l\000"
 4814 0f7c 02       		.byte	0x2
 4815 0f7d 6F01     		.2byte	0x16f
 4816 0f7f 9E080000 		.4byte	0x89e
 4817 0f83 02       		.uleb128 0x2
 4818 0f84 91       		.byte	0x91
 4819 0f85 6F       		.sleb128 -17
 4820 0f86 20       		.uleb128 0x20
 4821 0f87 8C090000 		.4byte	.LASF256
 4822 0f8b 02       		.byte	0x2
 4823 0f8c 6F01     		.2byte	0x16f
 4824 0f8e D8070000 		.4byte	0x7d8
 4825 0f92 02       		.uleb128 0x2
 4826 0f93 91       		.byte	0x91
 4827 0f94 6C       		.sleb128 -20
 4828 0f95 20       		.uleb128 0x20
 4829 0f96 5A060000 		.4byte	.LASF167
 4830 0f9a 02       		.byte	0x2
 4831 0f9b 6F01     		.2byte	0x16f
 4832 0f9d CA080000 		.4byte	0x8ca
 4833 0fa1 02       		.uleb128 0x2
 4834 0fa2 91       		.byte	0x91
 4835 0fa3 6E       		.sleb128 -18
 4836 0fa4 28       		.uleb128 0x28
 4837 0fa5 7000     		.ascii	"p\000"
 4838 0fa7 02       		.byte	0x2
 4839 0fa8 6F01     		.2byte	0x16f
 4840 0faa DF0F0000 		.4byte	0xfdf
 4841 0fae 02       		.uleb128 0x2
 4842 0faf 91       		.byte	0x91
 4843 0fb0 68       		.sleb128 -24
 4844 0fb1 20       		.uleb128 0x20
 4845 0fb2 4D0C0000 		.4byte	.LASF260
 4846 0fb6 02       		.byte	0x2
 4847 0fb7 7001     		.2byte	0x170
 4848 0fb9 47030000 		.4byte	0x347
 4849 0fbd 02       		.uleb128 0x2
 4850 0fbe 91       		.byte	0x91
 4851 0fbf 00       		.sleb128 0
 4852 0fc0 20       		.uleb128 0x20
 4853 0fc1 CF070000 		.4byte	.LASF261
 4854 0fc5 02       		.byte	0x2
 4855 0fc6 7001     		.2byte	0x170
 4856 0fc8 D8070000 		.4byte	0x7d8
 4857 0fcc 02       		.uleb128 0x2
 4858 0fcd 91       		.byte	0x91
 4859 0fce 04       		.sleb128 4
ARM GAS  C:\Users\Luis\AppData\Local\Temp\cc1uv7VI.s 			page 89


 4860 0fcf 29       		.uleb128 0x29
 4861 0fd0 B9030000 		.4byte	.LASF101
 4862 0fd4 02       		.byte	0x2
 4863 0fd5 7201     		.2byte	0x172
 4864 0fd7 D8070000 		.4byte	0x7d8
 4865 0fdb 02       		.uleb128 0x2
 4866 0fdc 91       		.byte	0x91
 4867 0fdd 76       		.sleb128 -10
 4868 0fde 00       		.byte	0
 4869 0fdf 0A       		.uleb128 0xa
 4870 0fe0 04       		.byte	0x4
 4871 0fe1 58090000 		.4byte	0x958
 4872 0fe5 2A       		.uleb128 0x2a
 4873 0fe6 A6050000 		.4byte	.LASF270
 4874 0fea 02       		.byte	0x2
 4875 0feb AE01     		.2byte	0x1ae
 4876 0fed 00000000 		.4byte	.LFB265
 4877 0ff1 20010000 		.4byte	.LFE265-.LFB265
 4878 0ff5 01       		.uleb128 0x1
 4879 0ff6 9C       		.byte	0x9c
 4880 0ff7 43100000 		.4byte	0x1043
 4881 0ffb 28       		.uleb128 0x28
 4882 0ffc 7000     		.ascii	"p\000"
 4883 0ffe 02       		.byte	0x2
 4884 0fff AE01     		.2byte	0x1ae
 4885 1001 36090000 		.4byte	0x936
 4886 1005 02       		.uleb128 0x2
 4887 1006 91       		.byte	0x91
 4888 1007 64       		.sleb128 -28
 4889 1008 20       		.uleb128 0x20
 4890 1009 590B0000 		.4byte	.LASF262
 4891 100d 02       		.byte	0x2
 4892 100e AE01     		.2byte	0x1ae
 4893 1010 D8070000 		.4byte	0x7d8
 4894 1014 02       		.uleb128 0x2
 4895 1015 91       		.byte	0x91
 4896 1016 62       		.sleb128 -30
 4897 1017 2B       		.uleb128 0x2b
 4898 1018 7100     		.ascii	"q\000"
 4899 101a 02       		.byte	0x2
 4900 101b B001     		.2byte	0x1b0
 4901 101d 36090000 		.4byte	0x936
 4902 1021 02       		.uleb128 0x2
 4903 1022 91       		.byte	0x91
 4904 1023 74       		.sleb128 -12
 4905 1024 29       		.uleb128 0x29
 4906 1025 9D070000 		.4byte	.LASF257
 4907 1029 02       		.byte	0x2
 4908 102a B101     		.2byte	0x1b1
 4909 102c D8070000 		.4byte	0x7d8
 4910 1030 02       		.uleb128 0x2
 4911 1031 91       		.byte	0x91
 4912 1032 72       		.sleb128 -14
 4913 1033 29       		.uleb128 0x29
 4914 1034 870B0000 		.4byte	.LASF263
 4915 1038 02       		.byte	0x2
 4916 1039 B201     		.2byte	0x1b2
ARM GAS  C:\Users\Luis\AppData\Local\Temp\cc1uv7VI.s 			page 90


 4917 103b F9070000 		.4byte	0x7f9
 4918 103f 02       		.uleb128 0x2
 4919 1040 91       		.byte	0x91
 4920 1041 6C       		.sleb128 -20
 4921 1042 00       		.byte	0
 4922 1043 27       		.uleb128 0x27
 4923 1044 9A050000 		.4byte	.LASF264
 4924 1048 02       		.byte	0x2
 4925 1049 FF01     		.2byte	0x1ff
 4926 104b C2070000 		.4byte	0x7c2
 4927 104f 00000000 		.4byte	.LFB266
 4928 1053 00010000 		.4byte	.LFE266-.LFB266
 4929 1057 01       		.uleb128 0x1
 4930 1058 9C       		.byte	0x9c
 4931 1059 A7100000 		.4byte	0x10a7
 4932 105d 28       		.uleb128 0x28
 4933 105e 7000     		.ascii	"p\000"
 4934 1060 02       		.byte	0x2
 4935 1061 FF01     		.2byte	0x1ff
 4936 1063 36090000 		.4byte	0x936
 4937 1067 02       		.uleb128 0x2
 4938 1068 91       		.byte	0x91
 4939 1069 6C       		.sleb128 -20
 4940 106a 20       		.uleb128 0x20
 4941 106b FC050000 		.4byte	.LASF265
 4942 106f 02       		.byte	0x2
 4943 1070 FF01     		.2byte	0x1ff
 4944 1072 E3070000 		.4byte	0x7e3
 4945 1076 02       		.uleb128 0x2
 4946 1077 91       		.byte	0x91
 4947 1078 6A       		.sleb128 -22
 4948 1079 29       		.uleb128 0x29
 4949 107a 5A060000 		.4byte	.LASF167
 4950 107e 02       		.byte	0x2
 4951 107f 0102     		.2byte	0x201
 4952 1081 D8070000 		.4byte	0x7d8
 4953 1085 02       		.uleb128 0x2
 4954 1086 91       		.byte	0x91
 4955 1087 74       		.sleb128 -12
 4956 1088 29       		.uleb128 0x29
 4957 1089 72040000 		.4byte	.LASF165
 4958 108d 02       		.byte	0x2
 4959 108e 0202     		.2byte	0x202
 4960 1090 47030000 		.4byte	0x347
 4961 1094 02       		.uleb128 0x2
 4962 1095 91       		.byte	0x91
 4963 1096 70       		.sleb128 -16
 4964 1097 29       		.uleb128 0x29
 4965 1098 28050000 		.4byte	.LASF266
 4966 109c 02       		.byte	0x2
 4967 109d 0302     		.2byte	0x203
 4968 109f D8070000 		.4byte	0x7d8
 4969 10a3 02       		.uleb128 0x2
 4970 10a4 91       		.byte	0x91
 4971 10a5 76       		.sleb128 -10
 4972 10a6 00       		.byte	0
 4973 10a7 27       		.uleb128 0x27
ARM GAS  C:\Users\Luis\AppData\Local\Temp\cc1uv7VI.s 			page 91


 4974 10a8 B6060000 		.4byte	.LASF267
 4975 10ac 02       		.byte	0x2
 4976 10ad 6A02     		.2byte	0x26a
 4977 10af C2070000 		.4byte	0x7c2
 4978 10b3 00000000 		.4byte	.LFB267
 4979 10b7 00010000 		.4byte	.LFE267-.LFB267
 4980 10bb 01       		.uleb128 0x1
 4981 10bc 9C       		.byte	0x9c
 4982 10bd 2B110000 		.4byte	0x112b
 4983 10c1 28       		.uleb128 0x28
 4984 10c2 7000     		.ascii	"p\000"
 4985 10c4 02       		.byte	0x2
 4986 10c5 6A02     		.2byte	0x26a
 4987 10c7 36090000 		.4byte	0x936
 4988 10cb 02       		.uleb128 0x2
 4989 10cc 91       		.byte	0x91
 4990 10cd 64       		.sleb128 -28
 4991 10ce 29       		.uleb128 0x29
 4992 10cf 5A060000 		.4byte	.LASF167
 4993 10d3 02       		.byte	0x2
 4994 10d4 6C02     		.2byte	0x26c
 4995 10d6 D8070000 		.4byte	0x7d8
 4996 10da 02       		.uleb128 0x2
 4997 10db 91       		.byte	0x91
 4998 10dc 6E       		.sleb128 -18
 4999 10dd 2B       		.uleb128 0x2b
 5000 10de 7100     		.ascii	"q\000"
 5001 10e0 02       		.byte	0x2
 5002 10e1 6D02     		.2byte	0x26d
 5003 10e3 36090000 		.4byte	0x936
 5004 10e7 02       		.uleb128 0x2
 5005 10e8 91       		.byte	0x91
 5006 10e9 70       		.sleb128 -16
 5007 10ea 29       		.uleb128 0x29
 5008 10eb 66030000 		.4byte	.LASF268
 5009 10ef 02       		.byte	0x2
 5010 10f0 6E02     		.2byte	0x26e
 5011 10f2 C2070000 		.4byte	0x7c2
 5012 10f6 02       		.uleb128 0x2
 5013 10f7 91       		.byte	0x91
 5014 10f8 77       		.sleb128 -9
 5015 10f9 2C       		.uleb128 0x2c
 5016 10fa 4A000000 		.4byte	.LBB2
 5017 10fe 96000000 		.4byte	.LBE2-.LBB2
 5018 1102 2B       		.uleb128 0x2b
 5019 1103 72656600 		.ascii	"ref\000"
 5020 1107 02       		.byte	0x2
 5021 1108 8302     		.2byte	0x283
 5022 110a D8070000 		.4byte	0x7d8
 5023 110e 02       		.uleb128 0x2
 5024 110f 91       		.byte	0x91
 5025 1110 74       		.sleb128 -12
 5026 1111 2C       		.uleb128 0x2c
 5027 1112 88000000 		.4byte	.LBB3
 5028 1116 1A000000 		.4byte	.LBE3-.LBB3
 5029 111a 2B       		.uleb128 0x2b
 5030 111b 706300   		.ascii	"pc\000"
ARM GAS  C:\Users\Luis\AppData\Local\Temp\cc1uv7VI.s 			page 92


 5031 111e 02       		.byte	0x2
 5032 111f 9702     		.2byte	0x297
 5033 1121 DF0F0000 		.4byte	0xfdf
 5034 1125 02       		.uleb128 0x2
 5035 1126 91       		.byte	0x91
 5036 1127 68       		.sleb128 -24
 5037 1128 00       		.byte	0
 5038 1129 00       		.byte	0
 5039 112a 00       		.byte	0
 5040 112b 2D       		.uleb128 0x2d
 5041 112c 1E050000 		.4byte	.LASF269
 5042 1130 02       		.byte	0x2
 5043 1131 C002     		.2byte	0x2c0
 5044 1133 C2070000 		.4byte	0x7c2
 5045 1137 00000000 		.4byte	.LFB268
 5046 113b 2E000000 		.4byte	.LFE268-.LFB268
 5047 113f 01       		.uleb128 0x1
 5048 1140 9C       		.byte	0x9c
 5049 1141 62110000 		.4byte	0x1162
 5050 1145 28       		.uleb128 0x28
 5051 1146 7000     		.ascii	"p\000"
 5052 1148 02       		.byte	0x2
 5053 1149 C002     		.2byte	0x2c0
 5054 114b 36090000 		.4byte	0x936
 5055 114f 02       		.uleb128 0x2
 5056 1150 91       		.byte	0x91
 5057 1151 6C       		.sleb128 -20
 5058 1152 2B       		.uleb128 0x2b
 5059 1153 6C656E00 		.ascii	"len\000"
 5060 1157 02       		.byte	0x2
 5061 1158 C202     		.2byte	0x2c2
 5062 115a C2070000 		.4byte	0x7c2
 5063 115e 02       		.uleb128 0x2
 5064 115f 91       		.byte	0x91
 5065 1160 77       		.sleb128 -9
 5066 1161 00       		.byte	0
 5067 1162 2E       		.uleb128 0x2e
 5068 1163 A10A0000 		.4byte	.LASF271
 5069 1167 02       		.byte	0x2
 5070 1168 D302     		.2byte	0x2d3
 5071 116a 00000000 		.4byte	.LFB269
 5072 116e 24000000 		.4byte	.LFE269-.LFB269
 5073 1172 01       		.uleb128 0x1
 5074 1173 9C       		.byte	0x9c
 5075 1174 86110000 		.4byte	0x1186
 5076 1178 28       		.uleb128 0x28
 5077 1179 7000     		.ascii	"p\000"
 5078 117b 02       		.byte	0x2
 5079 117c D302     		.2byte	0x2d3
 5080 117e 36090000 		.4byte	0x936
 5081 1182 02       		.uleb128 0x2
 5082 1183 91       		.byte	0x91
 5083 1184 74       		.sleb128 -12
 5084 1185 00       		.byte	0
 5085 1186 2A       		.uleb128 0x2a
 5086 1187 0E0D0000 		.4byte	.LASF272
 5087 118b 02       		.byte	0x2
ARM GAS  C:\Users\Luis\AppData\Local\Temp\cc1uv7VI.s 			page 93


 5088 118c E902     		.2byte	0x2e9
 5089 118e 00000000 		.4byte	.LFB270
 5090 1192 8C000000 		.4byte	.LFE270-.LFB270
 5091 1196 01       		.uleb128 0x1
 5092 1197 9C       		.byte	0x9c
 5093 1198 C4110000 		.4byte	0x11c4
 5094 119c 28       		.uleb128 0x28
 5095 119d 6800     		.ascii	"h\000"
 5096 119f 02       		.byte	0x2
 5097 11a0 E902     		.2byte	0x2e9
 5098 11a2 36090000 		.4byte	0x936
 5099 11a6 02       		.uleb128 0x2
 5100 11a7 91       		.byte	0x91
 5101 11a8 6C       		.sleb128 -20
 5102 11a9 28       		.uleb128 0x28
 5103 11aa 7400     		.ascii	"t\000"
 5104 11ac 02       		.byte	0x2
 5105 11ad E902     		.2byte	0x2e9
 5106 11af 36090000 		.4byte	0x936
 5107 11b3 02       		.uleb128 0x2
 5108 11b4 91       		.byte	0x91
 5109 11b5 68       		.sleb128 -24
 5110 11b6 2B       		.uleb128 0x2b
 5111 11b7 7000     		.ascii	"p\000"
 5112 11b9 02       		.byte	0x2
 5113 11ba EB02     		.2byte	0x2eb
 5114 11bc 36090000 		.4byte	0x936
 5115 11c0 02       		.uleb128 0x2
 5116 11c1 91       		.byte	0x91
 5117 11c2 74       		.sleb128 -12
 5118 11c3 00       		.byte	0
 5119 11c4 2A       		.uleb128 0x2a
 5120 11c5 F3090000 		.4byte	.LASF273
 5121 11c9 02       		.byte	0x2
 5122 11ca 1203     		.2byte	0x312
 5123 11cc 00000000 		.4byte	.LFB271
 5124 11d0 1E000000 		.4byte	.LFE271-.LFB271
 5125 11d4 01       		.uleb128 0x1
 5126 11d5 9C       		.byte	0x9c
 5127 11d6 F5110000 		.4byte	0x11f5
 5128 11da 28       		.uleb128 0x28
 5129 11db 6800     		.ascii	"h\000"
 5130 11dd 02       		.byte	0x2
 5131 11de 1203     		.2byte	0x312
 5132 11e0 36090000 		.4byte	0x936
 5133 11e4 02       		.uleb128 0x2
 5134 11e5 91       		.byte	0x91
 5135 11e6 74       		.sleb128 -12
 5136 11e7 28       		.uleb128 0x28
 5137 11e8 7400     		.ascii	"t\000"
 5138 11ea 02       		.byte	0x2
 5139 11eb 1203     		.2byte	0x312
 5140 11ed 36090000 		.4byte	0x936
 5141 11f1 02       		.uleb128 0x2
 5142 11f2 91       		.byte	0x91
 5143 11f3 70       		.sleb128 -16
 5144 11f4 00       		.byte	0
ARM GAS  C:\Users\Luis\AppData\Local\Temp\cc1uv7VI.s 			page 94


 5145 11f5 27       		.uleb128 0x27
 5146 11f6 380C0000 		.4byte	.LASF274
 5147 11fa 02       		.byte	0x2
 5148 11fb 2303     		.2byte	0x323
 5149 11fd 36090000 		.4byte	0x936
 5150 1201 00000000 		.4byte	.LFB272
 5151 1205 8C000000 		.4byte	.LFE272-.LFB272
 5152 1209 01       		.uleb128 0x1
 5153 120a 9C       		.byte	0x9c
 5154 120b 39120000 		.4byte	0x1239
 5155 120f 28       		.uleb128 0x28
 5156 1210 7000     		.ascii	"p\000"
 5157 1212 02       		.byte	0x2
 5158 1213 2303     		.2byte	0x323
 5159 1215 36090000 		.4byte	0x936
 5160 1219 02       		.uleb128 0x2
 5161 121a 91       		.byte	0x91
 5162 121b 6C       		.sleb128 -20
 5163 121c 2B       		.uleb128 0x2b
 5164 121d 7100     		.ascii	"q\000"
 5165 121f 02       		.byte	0x2
 5166 1220 2503     		.2byte	0x325
 5167 1222 36090000 		.4byte	0x936
 5168 1226 02       		.uleb128 0x2
 5169 1227 91       		.byte	0x91
 5170 1228 70       		.sleb128 -16
 5171 1229 29       		.uleb128 0x29
 5172 122a C7020000 		.4byte	.LASF275
 5173 122e 02       		.byte	0x2
 5174 122f 2603     		.2byte	0x326
 5175 1231 C2070000 		.4byte	0x7c2
 5176 1235 02       		.uleb128 0x2
 5177 1236 91       		.byte	0x91
 5178 1237 77       		.sleb128 -9
 5179 1238 00       		.byte	0
 5180 1239 27       		.uleb128 0x27
 5181 123a 32040000 		.4byte	.LASF276
 5182 123e 02       		.byte	0x2
 5183 123f 5403     		.2byte	0x354
 5184 1241 72080000 		.4byte	0x872
 5185 1245 00000000 		.4byte	.LFB273
 5186 1249 5C010000 		.4byte	.LFE273-.LFB273
 5187 124d 01       		.uleb128 0x1
 5188 124e 9C       		.byte	0x9c
 5189 124f 9F120000 		.4byte	0x129f
 5190 1253 20       		.uleb128 0x20
 5191 1254 1B080000 		.4byte	.LASF277
 5192 1258 02       		.byte	0x2
 5193 1259 5403     		.2byte	0x354
 5194 125b 36090000 		.4byte	0x936
 5195 125f 02       		.uleb128 0x2
 5196 1260 91       		.byte	0x91
 5197 1261 6C       		.sleb128 -20
 5198 1262 20       		.uleb128 0x20
 5199 1263 03090000 		.4byte	.LASF278
 5200 1267 02       		.byte	0x2
 5201 1268 5403     		.2byte	0x354
ARM GAS  C:\Users\Luis\AppData\Local\Temp\cc1uv7VI.s 			page 95


 5202 126a 36090000 		.4byte	0x936
 5203 126e 02       		.uleb128 0x2
 5204 126f 91       		.byte	0x91
 5205 1270 68       		.sleb128 -24
 5206 1271 29       		.uleb128 0x29
 5207 1272 7D070000 		.4byte	.LASF279
 5208 1276 02       		.byte	0x2
 5209 1277 5603     		.2byte	0x356
 5210 1279 D8070000 		.4byte	0x7d8
 5211 127d 02       		.uleb128 0x2
 5212 127e 91       		.byte	0x91
 5213 127f 76       		.sleb128 -10
 5214 1280 29       		.uleb128 0x29
 5215 1281 DC090000 		.4byte	.LASF280
 5216 1285 02       		.byte	0x2
 5217 1286 5603     		.2byte	0x356
 5218 1288 D8070000 		.4byte	0x7d8
 5219 128c 02       		.uleb128 0x2
 5220 128d 91       		.byte	0x91
 5221 128e 74       		.sleb128 -12
 5222 128f 2B       		.uleb128 0x2b
 5223 1290 6C656E00 		.ascii	"len\000"
 5224 1294 02       		.byte	0x2
 5225 1295 5603     		.2byte	0x356
 5226 1297 D8070000 		.4byte	0x7d8
 5227 129b 02       		.uleb128 0x2
 5228 129c 91       		.byte	0x91
 5229 129d 72       		.sleb128 -14
 5230 129e 00       		.byte	0
 5231 129f 27       		.uleb128 0x27
 5232 12a0 20060000 		.4byte	.LASF281
 5233 12a4 02       		.byte	0x2
 5234 12a5 9603     		.2byte	0x396
 5235 12a7 D8070000 		.4byte	0x7d8
 5236 12ab 00000000 		.4byte	.LFB274
 5237 12af D8000000 		.4byte	.LFE274-.LFB274
 5238 12b3 01       		.uleb128 0x1
 5239 12b4 9C       		.byte	0x9c
 5240 12b5 30130000 		.4byte	0x1330
 5241 12b9 28       		.uleb128 0x28
 5242 12ba 62756600 		.ascii	"buf\000"
 5243 12be 02       		.byte	0x2
 5244 12bf 9603     		.2byte	0x396
 5245 12c1 36090000 		.4byte	0x936
 5246 12c5 02       		.uleb128 0x2
 5247 12c6 91       		.byte	0x91
 5248 12c7 64       		.sleb128 -28
 5249 12c8 20       		.uleb128 0x20
 5250 12c9 57080000 		.4byte	.LASF282
 5251 12cd 02       		.byte	0x2
 5252 12ce 9603     		.2byte	0x396
 5253 12d0 47030000 		.4byte	0x347
 5254 12d4 02       		.uleb128 0x2
 5255 12d5 91       		.byte	0x91
 5256 12d6 60       		.sleb128 -32
 5257 12d7 28       		.uleb128 0x28
 5258 12d8 6C656E00 		.ascii	"len\000"
ARM GAS  C:\Users\Luis\AppData\Local\Temp\cc1uv7VI.s 			page 96


 5259 12dc 02       		.byte	0x2
 5260 12dd 9603     		.2byte	0x396
 5261 12df D8070000 		.4byte	0x7d8
 5262 12e3 02       		.uleb128 0x2
 5263 12e4 91       		.byte	0x91
 5264 12e5 5E       		.sleb128 -34
 5265 12e6 20       		.uleb128 0x20
 5266 12e7 B9030000 		.4byte	.LASF101
 5267 12eb 02       		.byte	0x2
 5268 12ec 9603     		.2byte	0x396
 5269 12ee D8070000 		.4byte	0x7d8
 5270 12f2 02       		.uleb128 0x2
 5271 12f3 91       		.byte	0x91
 5272 12f4 5C       		.sleb128 -36
 5273 12f5 2B       		.uleb128 0x2b
 5274 12f6 7000     		.ascii	"p\000"
 5275 12f8 02       		.byte	0x2
 5276 12f9 9803     		.2byte	0x398
 5277 12fb 36090000 		.4byte	0x936
 5278 12ff 02       		.uleb128 0x2
 5279 1300 91       		.byte	0x91
 5280 1301 74       		.sleb128 -12
 5281 1302 29       		.uleb128 0x29
 5282 1303 4D0A0000 		.4byte	.LASF283
 5283 1307 02       		.byte	0x2
 5284 1308 9903     		.2byte	0x399
 5285 130a D8070000 		.4byte	0x7d8
 5286 130e 02       		.uleb128 0x2
 5287 130f 91       		.byte	0x91
 5288 1310 72       		.sleb128 -14
 5289 1311 29       		.uleb128 0x29
 5290 1312 70070000 		.4byte	.LASF284
 5291 1316 02       		.byte	0x2
 5292 1317 9A03     		.2byte	0x39a
 5293 1319 D8070000 		.4byte	0x7d8
 5294 131d 02       		.uleb128 0x2
 5295 131e 91       		.byte	0x91
 5296 131f 70       		.sleb128 -16
 5297 1320 29       		.uleb128 0x29
 5298 1321 5B050000 		.4byte	.LASF285
 5299 1325 02       		.byte	0x2
 5300 1326 9B03     		.2byte	0x39b
 5301 1328 D8070000 		.4byte	0x7d8
 5302 132c 02       		.uleb128 0x2
 5303 132d 91       		.byte	0x91
 5304 132e 6E       		.sleb128 -18
 5305 132f 00       		.byte	0
 5306 1330 27       		.uleb128 0x27
 5307 1331 07030000 		.4byte	.LASF286
 5308 1335 02       		.byte	0x2
 5309 1336 C603     		.2byte	0x3c6
 5310 1338 72080000 		.4byte	0x872
 5311 133c 00000000 		.4byte	.LFB275
 5312 1340 D8000000 		.4byte	.LFE275-.LFB275
 5313 1344 01       		.uleb128 0x1
 5314 1345 9C       		.byte	0x9c
 5315 1346 B2130000 		.4byte	0x13b2
ARM GAS  C:\Users\Luis\AppData\Local\Temp\cc1uv7VI.s 			page 97


 5316 134a 28       		.uleb128 0x28
 5317 134b 62756600 		.ascii	"buf\000"
 5318 134f 02       		.byte	0x2
 5319 1350 C603     		.2byte	0x3c6
 5320 1352 36090000 		.4byte	0x936
 5321 1356 02       		.uleb128 0x2
 5322 1357 91       		.byte	0x91
 5323 1358 64       		.sleb128 -28
 5324 1359 20       		.uleb128 0x20
 5325 135a 57080000 		.4byte	.LASF282
 5326 135e 02       		.byte	0x2
 5327 135f C603     		.2byte	0x3c6
 5328 1361 420E0000 		.4byte	0xe42
 5329 1365 02       		.uleb128 0x2
 5330 1366 91       		.byte	0x91
 5331 1367 60       		.sleb128 -32
 5332 1368 28       		.uleb128 0x28
 5333 1369 6C656E00 		.ascii	"len\000"
 5334 136d 02       		.byte	0x2
 5335 136e C603     		.2byte	0x3c6
 5336 1370 D8070000 		.4byte	0x7d8
 5337 1374 02       		.uleb128 0x2
 5338 1375 91       		.byte	0x91
 5339 1376 5E       		.sleb128 -34
 5340 1377 2B       		.uleb128 0x2b
 5341 1378 7000     		.ascii	"p\000"
 5342 137a 02       		.byte	0x2
 5343 137b C803     		.2byte	0x3c8
 5344 137d 36090000 		.4byte	0x936
 5345 1381 02       		.uleb128 0x2
 5346 1382 91       		.byte	0x91
 5347 1383 74       		.sleb128 -12
 5348 1384 29       		.uleb128 0x29
 5349 1385 70070000 		.4byte	.LASF284
 5350 1389 02       		.byte	0x2
 5351 138a C903     		.2byte	0x3c9
 5352 138c D8070000 		.4byte	0x7d8
 5353 1390 02       		.uleb128 0x2
 5354 1391 91       		.byte	0x91
 5355 1392 72       		.sleb128 -14
 5356 1393 29       		.uleb128 0x29
 5357 1394 7A0A0000 		.4byte	.LASF287
 5358 1398 02       		.byte	0x2
 5359 1399 CA03     		.2byte	0x3ca
 5360 139b D8070000 		.4byte	0x7d8
 5361 139f 02       		.uleb128 0x2
 5362 13a0 91       		.byte	0x91
 5363 13a1 70       		.sleb128 -16
 5364 13a2 29       		.uleb128 0x29
 5365 13a3 5B050000 		.4byte	.LASF285
 5366 13a7 02       		.byte	0x2
 5367 13a8 CB03     		.2byte	0x3cb
 5368 13aa D8070000 		.4byte	0x7d8
 5369 13ae 02       		.uleb128 0x2
 5370 13af 91       		.byte	0x91
 5371 13b0 6E       		.sleb128 -18
 5372 13b1 00       		.byte	0
ARM GAS  C:\Users\Luis\AppData\Local\Temp\cc1uv7VI.s 			page 98


 5373 13b2 27       		.uleb128 0x27
 5374 13b3 32080000 		.4byte	.LASF288
 5375 13b7 02       		.byte	0x2
 5376 13b8 F203     		.2byte	0x3f2
 5377 13ba 36090000 		.4byte	0x936
 5378 13be 00000000 		.4byte	.LFB276
 5379 13c2 64000000 		.4byte	.LFE276-.LFB276
 5380 13c6 01       		.uleb128 0x1
 5381 13c7 9C       		.byte	0x9c
 5382 13c8 05140000 		.4byte	0x1405
 5383 13cc 28       		.uleb128 0x28
 5384 13cd 7000     		.ascii	"p\000"
 5385 13cf 02       		.byte	0x2
 5386 13d0 F203     		.2byte	0x3f2
 5387 13d2 36090000 		.4byte	0x936
 5388 13d6 02       		.uleb128 0x2
 5389 13d7 91       		.byte	0x91
 5390 13d8 6C       		.sleb128 -20
 5391 13d9 20       		.uleb128 0x20
 5392 13da 4E070000 		.4byte	.LASF255
 5393 13de 02       		.byte	0x2
 5394 13df F203     		.2byte	0x3f2
 5395 13e1 9E080000 		.4byte	0x89e
 5396 13e5 02       		.uleb128 0x2
 5397 13e6 91       		.byte	0x91
 5398 13e7 6B       		.sleb128 -21
 5399 13e8 2B       		.uleb128 0x2b
 5400 13e9 7100     		.ascii	"q\000"
 5401 13eb 02       		.byte	0x2
 5402 13ec F403     		.2byte	0x3f4
 5403 13ee 36090000 		.4byte	0x936
 5404 13f2 02       		.uleb128 0x2
 5405 13f3 91       		.byte	0x91
 5406 13f4 74       		.sleb128 -12
 5407 13f5 2B       		.uleb128 0x2b
 5408 13f6 65727200 		.ascii	"err\000"
 5409 13fa 02       		.byte	0x2
 5410 13fb F503     		.2byte	0x3f5
 5411 13fd 72080000 		.4byte	0x872
 5412 1401 02       		.uleb128 0x2
 5413 1402 91       		.byte	0x91
 5414 1403 73       		.sleb128 -13
 5415 1404 00       		.byte	0
 5416 1405 2D       		.uleb128 0x2d
 5417 1406 0C020000 		.4byte	.LASF289
 5418 140a 02       		.byte	0x2
 5419 140b 3504     		.2byte	0x435
 5420 140d C2070000 		.4byte	0x7c2
 5421 1411 00000000 		.4byte	.LFB277
 5422 1415 60000000 		.4byte	.LFE277-.LFB277
 5423 1419 01       		.uleb128 0x1
 5424 141a 9C       		.byte	0x9c
 5425 141b 58140000 		.4byte	0x1458
 5426 141f 28       		.uleb128 0x28
 5427 1420 7000     		.ascii	"p\000"
 5428 1422 02       		.byte	0x2
 5429 1423 3504     		.2byte	0x435
ARM GAS  C:\Users\Luis\AppData\Local\Temp\cc1uv7VI.s 			page 99


 5430 1425 36090000 		.4byte	0x936
 5431 1429 02       		.uleb128 0x2
 5432 142a 91       		.byte	0x91
 5433 142b 6C       		.sleb128 -20
 5434 142c 20       		.uleb128 0x20
 5435 142d B9030000 		.4byte	.LASF101
 5436 1431 02       		.byte	0x2
 5437 1432 3504     		.2byte	0x435
 5438 1434 D8070000 		.4byte	0x7d8
 5439 1438 02       		.uleb128 0x2
 5440 1439 91       		.byte	0x91
 5441 143a 6A       		.sleb128 -22
 5442 143b 29       		.uleb128 0x29
 5443 143c 710B0000 		.4byte	.LASF290
 5444 1440 02       		.byte	0x2
 5445 1441 3704     		.2byte	0x437
 5446 1443 D8070000 		.4byte	0x7d8
 5447 1447 02       		.uleb128 0x2
 5448 1448 91       		.byte	0x91
 5449 1449 76       		.sleb128 -10
 5450 144a 2B       		.uleb128 0x2b
 5451 144b 7100     		.ascii	"q\000"
 5452 144d 02       		.byte	0x2
 5453 144e 3804     		.2byte	0x438
 5454 1450 36090000 		.4byte	0x936
 5455 1454 02       		.uleb128 0x2
 5456 1455 91       		.byte	0x91
 5457 1456 70       		.sleb128 -16
 5458 1457 00       		.byte	0
 5459 1458 27       		.uleb128 0x27
 5460 1459 C4050000 		.4byte	.LASF291
 5461 145d 02       		.byte	0x2
 5462 145e 5004     		.2byte	0x450
 5463 1460 D8070000 		.4byte	0x7d8
 5464 1464 00000000 		.4byte	.LFB278
 5465 1468 9C000000 		.4byte	.LFE278-.LFB278
 5466 146c 01       		.uleb128 0x1
 5467 146d 9C       		.byte	0x9c
 5468 146e 01150000 		.4byte	0x1501
 5469 1472 28       		.uleb128 0x28
 5470 1473 7000     		.ascii	"p\000"
 5471 1475 02       		.byte	0x2
 5472 1476 5004     		.2byte	0x450
 5473 1478 36090000 		.4byte	0x936
 5474 147c 02       		.uleb128 0x2
 5475 147d 91       		.byte	0x91
 5476 147e 64       		.sleb128 -28
 5477 147f 20       		.uleb128 0x20
 5478 1480 B9030000 		.4byte	.LASF101
 5479 1484 02       		.byte	0x2
 5480 1485 5004     		.2byte	0x450
 5481 1487 D8070000 		.4byte	0x7d8
 5482 148b 02       		.uleb128 0x2
 5483 148c 91       		.byte	0x91
 5484 148d 62       		.sleb128 -30
 5485 148e 28       		.uleb128 0x28
 5486 148f 733200   		.ascii	"s2\000"
ARM GAS  C:\Users\Luis\AppData\Local\Temp\cc1uv7VI.s 			page 100


 5487 1492 02       		.byte	0x2
 5488 1493 5004     		.2byte	0x450
 5489 1495 420E0000 		.4byte	0xe42
 5490 1499 02       		.uleb128 0x2
 5491 149a 91       		.byte	0x91
 5492 149b 5C       		.sleb128 -36
 5493 149c 28       		.uleb128 0x28
 5494 149d 6E00     		.ascii	"n\000"
 5495 149f 02       		.byte	0x2
 5496 14a0 5004     		.2byte	0x450
 5497 14a2 D8070000 		.4byte	0x7d8
 5498 14a6 02       		.uleb128 0x2
 5499 14a7 91       		.byte	0x91
 5500 14a8 60       		.sleb128 -32
 5501 14a9 29       		.uleb128 0x29
 5502 14aa 740A0000 		.4byte	.LASF292
 5503 14ae 02       		.byte	0x2
 5504 14af 5204     		.2byte	0x452
 5505 14b1 D8070000 		.4byte	0x7d8
 5506 14b5 02       		.uleb128 0x2
 5507 14b6 91       		.byte	0x91
 5508 14b7 76       		.sleb128 -10
 5509 14b8 2B       		.uleb128 0x2b
 5510 14b9 7100     		.ascii	"q\000"
 5511 14bb 02       		.byte	0x2
 5512 14bc 5304     		.2byte	0x453
 5513 14be 36090000 		.4byte	0x936
 5514 14c2 02       		.uleb128 0x2
 5515 14c3 91       		.byte	0x91
 5516 14c4 70       		.sleb128 -16
 5517 14c5 2C       		.uleb128 0x2c
 5518 14c6 4A000000 		.4byte	.LBB4
 5519 14ca 46000000 		.4byte	.LBE4-.LBB4
 5520 14ce 2B       		.uleb128 0x2b
 5521 14cf 6900     		.ascii	"i\000"
 5522 14d1 02       		.byte	0x2
 5523 14d2 5C04     		.2byte	0x45c
 5524 14d4 D8070000 		.4byte	0x7d8
 5525 14d8 02       		.uleb128 0x2
 5526 14d9 91       		.byte	0x91
 5527 14da 6E       		.sleb128 -18
 5528 14db 2C       		.uleb128 0x2c
 5529 14dc 50000000 		.4byte	.LBB5
 5530 14e0 2E000000 		.4byte	.LBE5-.LBB5
 5531 14e4 2B       		.uleb128 0x2b
 5532 14e5 6100     		.ascii	"a\000"
 5533 14e7 02       		.byte	0x2
 5534 14e8 5E04     		.2byte	0x45e
 5535 14ea C2070000 		.4byte	0x7c2
 5536 14ee 02       		.uleb128 0x2
 5537 14ef 91       		.byte	0x91
 5538 14f0 6D       		.sleb128 -19
 5539 14f1 2B       		.uleb128 0x2b
 5540 14f2 6200     		.ascii	"b\000"
 5541 14f4 02       		.byte	0x2
 5542 14f5 5F04     		.2byte	0x45f
 5543 14f7 C2070000 		.4byte	0x7c2
ARM GAS  C:\Users\Luis\AppData\Local\Temp\cc1uv7VI.s 			page 101


 5544 14fb 02       		.uleb128 0x2
 5545 14fc 91       		.byte	0x91
 5546 14fd 6C       		.sleb128 -20
 5547 14fe 00       		.byte	0
 5548 14ff 00       		.byte	0
 5549 1500 00       		.byte	0
 5550 1501 27       		.uleb128 0x27
 5551 1502 A2090000 		.4byte	.LASF293
 5552 1506 02       		.byte	0x2
 5553 1507 7404     		.2byte	0x474
 5554 1509 D8070000 		.4byte	0x7d8
 5555 150d 00000000 		.4byte	.LFB279
 5556 1511 66000000 		.4byte	.LFE279-.LFB279
 5557 1515 01       		.uleb128 0x1
 5558 1516 9C       		.byte	0x9c
 5559 1517 8B150000 		.4byte	0x158b
 5560 151b 28       		.uleb128 0x28
 5561 151c 7000     		.ascii	"p\000"
 5562 151e 02       		.byte	0x2
 5563 151f 7404     		.2byte	0x474
 5564 1521 36090000 		.4byte	0x936
 5565 1525 02       		.uleb128 0x2
 5566 1526 91       		.byte	0x91
 5567 1527 6C       		.sleb128 -20
 5568 1528 28       		.uleb128 0x28
 5569 1529 6D656D00 		.ascii	"mem\000"
 5570 152d 02       		.byte	0x2
 5571 152e 7404     		.2byte	0x474
 5572 1530 420E0000 		.4byte	0xe42
 5573 1534 02       		.uleb128 0x2
 5574 1535 91       		.byte	0x91
 5575 1536 68       		.sleb128 -24
 5576 1537 20       		.uleb128 0x20
 5577 1538 E40B0000 		.4byte	.LASF294
 5578 153c 02       		.byte	0x2
 5579 153d 7404     		.2byte	0x474
 5580 153f D8070000 		.4byte	0x7d8
 5581 1543 02       		.uleb128 0x2
 5582 1544 91       		.byte	0x91
 5583 1545 66       		.sleb128 -26
 5584 1546 20       		.uleb128 0x20
 5585 1547 D0000000 		.4byte	.LASF295
 5586 154b 02       		.byte	0x2
 5587 154c 7404     		.2byte	0x474
 5588 154e D8070000 		.4byte	0x7d8
 5589 1552 02       		.uleb128 0x2
 5590 1553 91       		.byte	0x91
 5591 1554 64       		.sleb128 -28
 5592 1555 2B       		.uleb128 0x2b
 5593 1556 6900     		.ascii	"i\000"
 5594 1558 02       		.byte	0x2
 5595 1559 7604     		.2byte	0x476
 5596 155b D8070000 		.4byte	0x7d8
 5597 155f 02       		.uleb128 0x2
 5598 1560 91       		.byte	0x91
 5599 1561 76       		.sleb128 -10
 5600 1562 2B       		.uleb128 0x2b
ARM GAS  C:\Users\Luis\AppData\Local\Temp\cc1uv7VI.s 			page 102


 5601 1563 6D617800 		.ascii	"max\000"
 5602 1567 02       		.byte	0x2
 5603 1568 7704     		.2byte	0x477
 5604 156a D8070000 		.4byte	0x7d8
 5605 156e 02       		.uleb128 0x2
 5606 156f 91       		.byte	0x91
 5607 1570 74       		.sleb128 -12
 5608 1571 2C       		.uleb128 0x2c
 5609 1572 2E000000 		.4byte	.LBB6
 5610 1576 24000000 		.4byte	.LBE6-.LBB6
 5611 157a 29       		.uleb128 0x29
 5612 157b 3C050000 		.4byte	.LASF296
 5613 157f 02       		.byte	0x2
 5614 1580 7A04     		.2byte	0x47a
 5615 1582 D8070000 		.4byte	0x7d8
 5616 1586 02       		.uleb128 0x2
 5617 1587 91       		.byte	0x91
 5618 1588 72       		.sleb128 -14
 5619 1589 00       		.byte	0
 5620 158a 00       		.byte	0
 5621 158b 27       		.uleb128 0x27
 5622 158c 0A070000 		.4byte	.LASF297
 5623 1590 02       		.byte	0x2
 5624 1591 9004     		.2byte	0x490
 5625 1593 D8070000 		.4byte	0x7d8
 5626 1597 00000000 		.4byte	.LFB280
 5627 159b 5C000000 		.4byte	.LFE280-.LFB280
 5628 159f 01       		.uleb128 0x1
 5629 15a0 9C       		.byte	0x9c
 5630 15a1 D1150000 		.4byte	0x15d1
 5631 15a5 28       		.uleb128 0x28
 5632 15a6 7000     		.ascii	"p\000"
 5633 15a8 02       		.byte	0x2
 5634 15a9 9004     		.2byte	0x490
 5635 15ab 36090000 		.4byte	0x936
 5636 15af 02       		.uleb128 0x2
 5637 15b0 91       		.byte	0x91
 5638 15b1 6C       		.sleb128 -20
 5639 15b2 20       		.uleb128 0x20
 5640 15b3 43030000 		.4byte	.LASF298
 5641 15b7 02       		.byte	0x2
 5642 15b8 9004     		.2byte	0x490
 5643 15ba 77070000 		.4byte	0x777
 5644 15be 02       		.uleb128 0x2
 5645 15bf 91       		.byte	0x91
 5646 15c0 68       		.sleb128 -24
 5647 15c1 29       		.uleb128 0x29
 5648 15c2 83080000 		.4byte	.LASF299
 5649 15c6 02       		.byte	0x2
 5650 15c7 9204     		.2byte	0x492
 5651 15c9 2C000000 		.4byte	0x2c
 5652 15cd 02       		.uleb128 0x2
 5653 15ce 91       		.byte	0x91
 5654 15cf 74       		.sleb128 -12
 5655 15d0 00       		.byte	0
 5656 15d1 2F       		.uleb128 0x2f
 5657 15d2 E7040000 		.4byte	.LASF300
ARM GAS  C:\Users\Luis\AppData\Local\Temp\cc1uv7VI.s 			page 103


 5658 15d6 16       		.byte	0x16
 5659 15d7 A706     		.2byte	0x6a7
 5660 15d9 C3000000 		.4byte	0xc3
 5661 15dd 30       		.uleb128 0x30
 5662 15de 636800   		.ascii	"ch\000"
 5663 15e1 07       		.byte	0x7
 5664 15e2 0902     		.2byte	0x209
 5665 15e4 3E040000 		.4byte	0x43e
 5666 15e8 2F       		.uleb128 0x2f
 5667 15e9 200D0000 		.4byte	.LASF301
 5668 15ed 15       		.byte	0x15
 5669 15ee 3D01     		.2byte	0x13d
 5670 15f0 CB090000 		.4byte	0x9cb
 5671 15f4 31       		.uleb128 0x31
 5672 15f5 8C060000 		.4byte	.LASF302
 5673 15f9 02       		.byte	0x2
 5674 15fa 67       		.byte	0x67
 5675 15fb 05160000 		.4byte	0x1605
 5676 15ff 05       		.uleb128 0x5
 5677 1600 03       		.byte	0x3
 5678 1601 00000000 		.4byte	pbuf_free_ooseq_pending
 5679 1605 05       		.uleb128 0x5
 5680 1606 C2070000 		.4byte	0x7c2
 5681 160a 00       		.byte	0
 5682              		.section	.debug_abbrev,"",%progbits
 5683              	.Ldebug_abbrev0:
 5684 0000 01       		.uleb128 0x1
 5685 0001 11       		.uleb128 0x11
 5686 0002 01       		.byte	0x1
 5687 0003 25       		.uleb128 0x25
 5688 0004 0E       		.uleb128 0xe
 5689 0005 13       		.uleb128 0x13
 5690 0006 0B       		.uleb128 0xb
 5691 0007 03       		.uleb128 0x3
 5692 0008 0E       		.uleb128 0xe
 5693 0009 1B       		.uleb128 0x1b
 5694 000a 0E       		.uleb128 0xe
 5695 000b 55       		.uleb128 0x55
 5696 000c 17       		.uleb128 0x17
 5697 000d 11       		.uleb128 0x11
 5698 000e 01       		.uleb128 0x1
 5699 000f 10       		.uleb128 0x10
 5700 0010 17       		.uleb128 0x17
 5701 0011 00       		.byte	0
 5702 0012 00       		.byte	0
 5703 0013 02       		.uleb128 0x2
 5704 0014 24       		.uleb128 0x24
 5705 0015 00       		.byte	0
 5706 0016 0B       		.uleb128 0xb
 5707 0017 0B       		.uleb128 0xb
 5708 0018 3E       		.uleb128 0x3e
 5709 0019 0B       		.uleb128 0xb
 5710 001a 03       		.uleb128 0x3
 5711 001b 08       		.uleb128 0x8
 5712 001c 00       		.byte	0
 5713 001d 00       		.byte	0
 5714 001e 03       		.uleb128 0x3
ARM GAS  C:\Users\Luis\AppData\Local\Temp\cc1uv7VI.s 			page 104


 5715 001f 16       		.uleb128 0x16
 5716 0020 00       		.byte	0
 5717 0021 03       		.uleb128 0x3
 5718 0022 0E       		.uleb128 0xe
 5719 0023 3A       		.uleb128 0x3a
 5720 0024 0B       		.uleb128 0xb
 5721 0025 3B       		.uleb128 0x3b
 5722 0026 0B       		.uleb128 0xb
 5723 0027 49       		.uleb128 0x49
 5724 0028 13       		.uleb128 0x13
 5725 0029 00       		.byte	0
 5726 002a 00       		.byte	0
 5727 002b 04       		.uleb128 0x4
 5728 002c 24       		.uleb128 0x24
 5729 002d 00       		.byte	0
 5730 002e 0B       		.uleb128 0xb
 5731 002f 0B       		.uleb128 0xb
 5732 0030 3E       		.uleb128 0x3e
 5733 0031 0B       		.uleb128 0xb
 5734 0032 03       		.uleb128 0x3
 5735 0033 0E       		.uleb128 0xe
 5736 0034 00       		.byte	0
 5737 0035 00       		.byte	0
 5738 0036 05       		.uleb128 0x5
 5739 0037 35       		.uleb128 0x35
 5740 0038 00       		.byte	0
 5741 0039 49       		.uleb128 0x49
 5742 003a 13       		.uleb128 0x13
 5743 003b 00       		.byte	0
 5744 003c 00       		.byte	0
 5745 003d 06       		.uleb128 0x6
 5746 003e 13       		.uleb128 0x13
 5747 003f 01       		.byte	0x1
 5748 0040 03       		.uleb128 0x3
 5749 0041 0E       		.uleb128 0xe
 5750 0042 0B       		.uleb128 0xb
 5751 0043 0B       		.uleb128 0xb
 5752 0044 3A       		.uleb128 0x3a
 5753 0045 0B       		.uleb128 0xb
 5754 0046 3B       		.uleb128 0x3b
 5755 0047 0B       		.uleb128 0xb
 5756 0048 01       		.uleb128 0x1
 5757 0049 13       		.uleb128 0x13
 5758 004a 00       		.byte	0
 5759 004b 00       		.byte	0
 5760 004c 07       		.uleb128 0x7
 5761 004d 0D       		.uleb128 0xd
 5762 004e 00       		.byte	0
 5763 004f 03       		.uleb128 0x3
 5764 0050 0E       		.uleb128 0xe
 5765 0051 3A       		.uleb128 0x3a
 5766 0052 0B       		.uleb128 0xb
 5767 0053 3B       		.uleb128 0x3b
 5768 0054 0B       		.uleb128 0xb
 5769 0055 49       		.uleb128 0x49
 5770 0056 13       		.uleb128 0x13
 5771 0057 38       		.uleb128 0x38
ARM GAS  C:\Users\Luis\AppData\Local\Temp\cc1uv7VI.s 			page 105


 5772 0058 0B       		.uleb128 0xb
 5773 0059 00       		.byte	0
 5774 005a 00       		.byte	0
 5775 005b 08       		.uleb128 0x8
 5776 005c 0D       		.uleb128 0xd
 5777 005d 00       		.byte	0
 5778 005e 03       		.uleb128 0x3
 5779 005f 08       		.uleb128 0x8
 5780 0060 3A       		.uleb128 0x3a
 5781 0061 0B       		.uleb128 0xb
 5782 0062 3B       		.uleb128 0x3b
 5783 0063 05       		.uleb128 0x5
 5784 0064 49       		.uleb128 0x49
 5785 0065 13       		.uleb128 0x13
 5786 0066 38       		.uleb128 0x38
 5787 0067 0B       		.uleb128 0xb
 5788 0068 00       		.byte	0
 5789 0069 00       		.byte	0
 5790 006a 09       		.uleb128 0x9
 5791 006b 0D       		.uleb128 0xd
 5792 006c 00       		.byte	0
 5793 006d 03       		.uleb128 0x3
 5794 006e 0E       		.uleb128 0xe
 5795 006f 3A       		.uleb128 0x3a
 5796 0070 0B       		.uleb128 0xb
 5797 0071 3B       		.uleb128 0x3b
 5798 0072 05       		.uleb128 0x5
 5799 0073 49       		.uleb128 0x49
 5800 0074 13       		.uleb128 0x13
 5801 0075 38       		.uleb128 0x38
 5802 0076 0B       		.uleb128 0xb
 5803 0077 00       		.byte	0
 5804 0078 00       		.byte	0
 5805 0079 0A       		.uleb128 0xa
 5806 007a 0F       		.uleb128 0xf
 5807 007b 00       		.byte	0
 5808 007c 0B       		.uleb128 0xb
 5809 007d 0B       		.uleb128 0xb
 5810 007e 49       		.uleb128 0x49
 5811 007f 13       		.uleb128 0x13
 5812 0080 00       		.byte	0
 5813 0081 00       		.byte	0
 5814 0082 0B       		.uleb128 0xb
 5815 0083 13       		.uleb128 0x13
 5816 0084 01       		.byte	0x1
 5817 0085 03       		.uleb128 0x3
 5818 0086 0E       		.uleb128 0xe
 5819 0087 0B       		.uleb128 0xb
 5820 0088 0B       		.uleb128 0xb
 5821 0089 3A       		.uleb128 0x3a
 5822 008a 0B       		.uleb128 0xb
 5823 008b 3B       		.uleb128 0x3b
 5824 008c 05       		.uleb128 0x5
 5825 008d 01       		.uleb128 0x1
 5826 008e 13       		.uleb128 0x13
 5827 008f 00       		.byte	0
 5828 0090 00       		.byte	0
ARM GAS  C:\Users\Luis\AppData\Local\Temp\cc1uv7VI.s 			page 106


 5829 0091 0C       		.uleb128 0xc
 5830 0092 15       		.uleb128 0x15
 5831 0093 01       		.byte	0x1
 5832 0094 27       		.uleb128 0x27
 5833 0095 19       		.uleb128 0x19
 5834 0096 01       		.uleb128 0x1
 5835 0097 13       		.uleb128 0x13
 5836 0098 00       		.byte	0
 5837 0099 00       		.byte	0
 5838 009a 0D       		.uleb128 0xd
 5839 009b 05       		.uleb128 0x5
 5840 009c 00       		.byte	0
 5841 009d 49       		.uleb128 0x49
 5842 009e 13       		.uleb128 0x13
 5843 009f 00       		.byte	0
 5844 00a0 00       		.byte	0
 5845 00a1 0E       		.uleb128 0xe
 5846 00a2 0F       		.uleb128 0xf
 5847 00a3 00       		.byte	0
 5848 00a4 0B       		.uleb128 0xb
 5849 00a5 0B       		.uleb128 0xb
 5850 00a6 00       		.byte	0
 5851 00a7 00       		.byte	0
 5852 00a8 0F       		.uleb128 0xf
 5853 00a9 13       		.uleb128 0x13
 5854 00aa 01       		.byte	0x1
 5855 00ab 03       		.uleb128 0x3
 5856 00ac 0E       		.uleb128 0xe
 5857 00ad 0B       		.uleb128 0xb
 5858 00ae 05       		.uleb128 0x5
 5859 00af 3A       		.uleb128 0x3a
 5860 00b0 0B       		.uleb128 0xb
 5861 00b1 3B       		.uleb128 0x3b
 5862 00b2 05       		.uleb128 0x5
 5863 00b3 01       		.uleb128 0x1
 5864 00b4 13       		.uleb128 0x13
 5865 00b5 00       		.byte	0
 5866 00b6 00       		.byte	0
 5867 00b7 10       		.uleb128 0x10
 5868 00b8 0D       		.uleb128 0xd
 5869 00b9 00       		.byte	0
 5870 00ba 03       		.uleb128 0x3
 5871 00bb 0E       		.uleb128 0xe
 5872 00bc 3A       		.uleb128 0x3a
 5873 00bd 0B       		.uleb128 0xb
 5874 00be 3B       		.uleb128 0x3b
 5875 00bf 05       		.uleb128 0x5
 5876 00c0 49       		.uleb128 0x49
 5877 00c1 13       		.uleb128 0x13
 5878 00c2 38       		.uleb128 0x38
 5879 00c3 05       		.uleb128 0x5
 5880 00c4 00       		.byte	0
 5881 00c5 00       		.byte	0
 5882 00c6 11       		.uleb128 0x11
 5883 00c7 0D       		.uleb128 0xd
 5884 00c8 00       		.byte	0
 5885 00c9 03       		.uleb128 0x3
ARM GAS  C:\Users\Luis\AppData\Local\Temp\cc1uv7VI.s 			page 107


 5886 00ca 08       		.uleb128 0x8
 5887 00cb 3A       		.uleb128 0x3a
 5888 00cc 0B       		.uleb128 0xb
 5889 00cd 3B       		.uleb128 0x3b
 5890 00ce 05       		.uleb128 0x5
 5891 00cf 49       		.uleb128 0x49
 5892 00d0 13       		.uleb128 0x13
 5893 00d1 38       		.uleb128 0x38
 5894 00d2 05       		.uleb128 0x5
 5895 00d3 00       		.byte	0
 5896 00d4 00       		.byte	0
 5897 00d5 12       		.uleb128 0x12
 5898 00d6 0D       		.uleb128 0xd
 5899 00d7 00       		.byte	0
 5900 00d8 03       		.uleb128 0x3
 5901 00d9 08       		.uleb128 0x8
 5902 00da 3A       		.uleb128 0x3a
 5903 00db 0B       		.uleb128 0xb
 5904 00dc 3B       		.uleb128 0x3b
 5905 00dd 0B       		.uleb128 0xb
 5906 00de 49       		.uleb128 0x49
 5907 00df 13       		.uleb128 0x13
 5908 00e0 38       		.uleb128 0x38
 5909 00e1 0B       		.uleb128 0xb
 5910 00e2 00       		.byte	0
 5911 00e3 00       		.byte	0
 5912 00e4 13       		.uleb128 0x13
 5913 00e5 13       		.uleb128 0x13
 5914 00e6 01       		.byte	0x1
 5915 00e7 0B       		.uleb128 0xb
 5916 00e8 0B       		.uleb128 0xb
 5917 00e9 3A       		.uleb128 0x3a
 5918 00ea 0B       		.uleb128 0xb
 5919 00eb 3B       		.uleb128 0x3b
 5920 00ec 0B       		.uleb128 0xb
 5921 00ed 01       		.uleb128 0x1
 5922 00ee 13       		.uleb128 0x13
 5923 00ef 00       		.byte	0
 5924 00f0 00       		.byte	0
 5925 00f1 14       		.uleb128 0x14
 5926 00f2 13       		.uleb128 0x13
 5927 00f3 01       		.byte	0x1
 5928 00f4 0B       		.uleb128 0xb
 5929 00f5 05       		.uleb128 0x5
 5930 00f6 3A       		.uleb128 0x3a
 5931 00f7 0B       		.uleb128 0xb
 5932 00f8 3B       		.uleb128 0x3b
 5933 00f9 0B       		.uleb128 0xb
 5934 00fa 01       		.uleb128 0x1
 5935 00fb 13       		.uleb128 0x13
 5936 00fc 00       		.byte	0
 5937 00fd 00       		.byte	0
 5938 00fe 15       		.uleb128 0x15
 5939 00ff 01       		.uleb128 0x1
 5940 0100 01       		.byte	0x1
 5941 0101 49       		.uleb128 0x49
 5942 0102 13       		.uleb128 0x13
ARM GAS  C:\Users\Luis\AppData\Local\Temp\cc1uv7VI.s 			page 108


 5943 0103 01       		.uleb128 0x1
 5944 0104 13       		.uleb128 0x13
 5945 0105 00       		.byte	0
 5946 0106 00       		.byte	0
 5947 0107 16       		.uleb128 0x16
 5948 0108 21       		.uleb128 0x21
 5949 0109 00       		.byte	0
 5950 010a 49       		.uleb128 0x49
 5951 010b 13       		.uleb128 0x13
 5952 010c 2F       		.uleb128 0x2f
 5953 010d 0B       		.uleb128 0xb
 5954 010e 00       		.byte	0
 5955 010f 00       		.byte	0
 5956 0110 17       		.uleb128 0x17
 5957 0111 17       		.uleb128 0x17
 5958 0112 01       		.byte	0x1
 5959 0113 0B       		.uleb128 0xb
 5960 0114 0B       		.uleb128 0xb
 5961 0115 3A       		.uleb128 0x3a
 5962 0116 0B       		.uleb128 0xb
 5963 0117 3B       		.uleb128 0x3b
 5964 0118 0B       		.uleb128 0xb
 5965 0119 01       		.uleb128 0x1
 5966 011a 13       		.uleb128 0x13
 5967 011b 00       		.byte	0
 5968 011c 00       		.byte	0
 5969 011d 18       		.uleb128 0x18
 5970 011e 0D       		.uleb128 0xd
 5971 011f 00       		.byte	0
 5972 0120 03       		.uleb128 0x3
 5973 0121 0E       		.uleb128 0xe
 5974 0122 3A       		.uleb128 0x3a
 5975 0123 0B       		.uleb128 0xb
 5976 0124 3B       		.uleb128 0x3b
 5977 0125 05       		.uleb128 0x5
 5978 0126 49       		.uleb128 0x49
 5979 0127 13       		.uleb128 0x13
 5980 0128 00       		.byte	0
 5981 0129 00       		.byte	0
 5982 012a 19       		.uleb128 0x19
 5983 012b 26       		.uleb128 0x26
 5984 012c 00       		.byte	0
 5985 012d 49       		.uleb128 0x49
 5986 012e 13       		.uleb128 0x13
 5987 012f 00       		.byte	0
 5988 0130 00       		.byte	0
 5989 0131 1A       		.uleb128 0x1a
 5990 0132 04       		.uleb128 0x4
 5991 0133 01       		.byte	0x1
 5992 0134 0B       		.uleb128 0xb
 5993 0135 0B       		.uleb128 0xb
 5994 0136 3A       		.uleb128 0x3a
 5995 0137 0B       		.uleb128 0xb
 5996 0138 3B       		.uleb128 0x3b
 5997 0139 0B       		.uleb128 0xb
 5998 013a 01       		.uleb128 0x1
 5999 013b 13       		.uleb128 0x13
ARM GAS  C:\Users\Luis\AppData\Local\Temp\cc1uv7VI.s 			page 109


 6000 013c 00       		.byte	0
 6001 013d 00       		.byte	0
 6002 013e 1B       		.uleb128 0x1b
 6003 013f 28       		.uleb128 0x28
 6004 0140 00       		.byte	0
 6005 0141 03       		.uleb128 0x3
 6006 0142 0E       		.uleb128 0xe
 6007 0143 1C       		.uleb128 0x1c
 6008 0144 0D       		.uleb128 0xd
 6009 0145 00       		.byte	0
 6010 0146 00       		.byte	0
 6011 0147 1C       		.uleb128 0x1c
 6012 0148 15       		.uleb128 0x15
 6013 0149 01       		.byte	0x1
 6014 014a 27       		.uleb128 0x27
 6015 014b 19       		.uleb128 0x19
 6016 014c 49       		.uleb128 0x49
 6017 014d 13       		.uleb128 0x13
 6018 014e 01       		.uleb128 0x1
 6019 014f 13       		.uleb128 0x13
 6020 0150 00       		.byte	0
 6021 0151 00       		.byte	0
 6022 0152 1D       		.uleb128 0x1d
 6023 0153 04       		.uleb128 0x4
 6024 0154 01       		.byte	0x1
 6025 0155 03       		.uleb128 0x3
 6026 0156 0E       		.uleb128 0xe
 6027 0157 0B       		.uleb128 0xb
 6028 0158 0B       		.uleb128 0xb
 6029 0159 3A       		.uleb128 0x3a
 6030 015a 0B       		.uleb128 0xb
 6031 015b 3B       		.uleb128 0x3b
 6032 015c 0B       		.uleb128 0xb
 6033 015d 01       		.uleb128 0x1
 6034 015e 13       		.uleb128 0x13
 6035 015f 00       		.byte	0
 6036 0160 00       		.byte	0
 6037 0161 1E       		.uleb128 0x1e
 6038 0162 26       		.uleb128 0x26
 6039 0163 00       		.byte	0
 6040 0164 00       		.byte	0
 6041 0165 00       		.byte	0
 6042 0166 1F       		.uleb128 0x1f
 6043 0167 2E       		.uleb128 0x2e
 6044 0168 01       		.byte	0x1
 6045 0169 03       		.uleb128 0x3
 6046 016a 0E       		.uleb128 0xe
 6047 016b 3A       		.uleb128 0x3a
 6048 016c 0B       		.uleb128 0xb
 6049 016d 3B       		.uleb128 0x3b
 6050 016e 05       		.uleb128 0x5
 6051 016f 27       		.uleb128 0x27
 6052 0170 19       		.uleb128 0x19
 6053 0171 11       		.uleb128 0x11
 6054 0172 01       		.uleb128 0x1
 6055 0173 12       		.uleb128 0x12
 6056 0174 06       		.uleb128 0x6
ARM GAS  C:\Users\Luis\AppData\Local\Temp\cc1uv7VI.s 			page 110


 6057 0175 40       		.uleb128 0x40
 6058 0176 18       		.uleb128 0x18
 6059 0177 9642     		.uleb128 0x2116
 6060 0179 19       		.uleb128 0x19
 6061 017a 01       		.uleb128 0x1
 6062 017b 13       		.uleb128 0x13
 6063 017c 00       		.byte	0
 6064 017d 00       		.byte	0
 6065 017e 20       		.uleb128 0x20
 6066 017f 05       		.uleb128 0x5
 6067 0180 00       		.byte	0
 6068 0181 03       		.uleb128 0x3
 6069 0182 0E       		.uleb128 0xe
 6070 0183 3A       		.uleb128 0x3a
 6071 0184 0B       		.uleb128 0xb
 6072 0185 3B       		.uleb128 0x3b
 6073 0186 05       		.uleb128 0x5
 6074 0187 49       		.uleb128 0x49
 6075 0188 13       		.uleb128 0x13
 6076 0189 02       		.uleb128 0x2
 6077 018a 18       		.uleb128 0x18
 6078 018b 00       		.byte	0
 6079 018c 00       		.byte	0
 6080 018d 21       		.uleb128 0x21
 6081 018e 2E       		.uleb128 0x2e
 6082 018f 01       		.byte	0x1
 6083 0190 03       		.uleb128 0x3
 6084 0191 0E       		.uleb128 0xe
 6085 0192 3A       		.uleb128 0x3a
 6086 0193 0B       		.uleb128 0xb
 6087 0194 3B       		.uleb128 0x3b
 6088 0195 0B       		.uleb128 0xb
 6089 0196 27       		.uleb128 0x27
 6090 0197 19       		.uleb128 0x19
 6091 0198 11       		.uleb128 0x11
 6092 0199 01       		.uleb128 0x1
 6093 019a 12       		.uleb128 0x12
 6094 019b 06       		.uleb128 0x6
 6095 019c 40       		.uleb128 0x40
 6096 019d 18       		.uleb128 0x18
 6097 019e 9642     		.uleb128 0x2116
 6098 01a0 19       		.uleb128 0x19
 6099 01a1 01       		.uleb128 0x1
 6100 01a2 13       		.uleb128 0x13
 6101 01a3 00       		.byte	0
 6102 01a4 00       		.byte	0
 6103 01a5 22       		.uleb128 0x22
 6104 01a6 34       		.uleb128 0x34
 6105 01a7 00       		.byte	0
 6106 01a8 03       		.uleb128 0x3
 6107 01a9 08       		.uleb128 0x8
 6108 01aa 3A       		.uleb128 0x3a
 6109 01ab 0B       		.uleb128 0xb
 6110 01ac 3B       		.uleb128 0x3b
 6111 01ad 0B       		.uleb128 0xb
 6112 01ae 49       		.uleb128 0x49
 6113 01af 13       		.uleb128 0x13
ARM GAS  C:\Users\Luis\AppData\Local\Temp\cc1uv7VI.s 			page 111


 6114 01b0 02       		.uleb128 0x2
 6115 01b1 18       		.uleb128 0x18
 6116 01b2 00       		.byte	0
 6117 01b3 00       		.byte	0
 6118 01b4 23       		.uleb128 0x23
 6119 01b5 05       		.uleb128 0x5
 6120 01b6 00       		.byte	0
 6121 01b7 03       		.uleb128 0x3
 6122 01b8 08       		.uleb128 0x8
 6123 01b9 3A       		.uleb128 0x3a
 6124 01ba 0B       		.uleb128 0xb
 6125 01bb 3B       		.uleb128 0x3b
 6126 01bc 0B       		.uleb128 0xb
 6127 01bd 49       		.uleb128 0x49
 6128 01be 13       		.uleb128 0x13
 6129 01bf 02       		.uleb128 0x2
 6130 01c0 18       		.uleb128 0x18
 6131 01c1 00       		.byte	0
 6132 01c2 00       		.byte	0
 6133 01c3 24       		.uleb128 0x24
 6134 01c4 34       		.uleb128 0x34
 6135 01c5 00       		.byte	0
 6136 01c6 03       		.uleb128 0x3
 6137 01c7 0E       		.uleb128 0xe
 6138 01c8 3A       		.uleb128 0x3a
 6139 01c9 0B       		.uleb128 0xb
 6140 01ca 3B       		.uleb128 0x3b
 6141 01cb 0B       		.uleb128 0xb
 6142 01cc 49       		.uleb128 0x49
 6143 01cd 13       		.uleb128 0x13
 6144 01ce 02       		.uleb128 0x2
 6145 01cf 18       		.uleb128 0x18
 6146 01d0 00       		.byte	0
 6147 01d1 00       		.byte	0
 6148 01d2 25       		.uleb128 0x25
 6149 01d3 2E       		.uleb128 0x2e
 6150 01d4 01       		.byte	0x1
 6151 01d5 3F       		.uleb128 0x3f
 6152 01d6 19       		.uleb128 0x19
 6153 01d7 03       		.uleb128 0x3
 6154 01d8 0E       		.uleb128 0xe
 6155 01d9 3A       		.uleb128 0x3a
 6156 01da 0B       		.uleb128 0xb
 6157 01db 3B       		.uleb128 0x3b
 6158 01dc 0B       		.uleb128 0xb
 6159 01dd 27       		.uleb128 0x27
 6160 01de 19       		.uleb128 0x19
 6161 01df 49       		.uleb128 0x49
 6162 01e0 13       		.uleb128 0x13
 6163 01e1 11       		.uleb128 0x11
 6164 01e2 01       		.uleb128 0x1
 6165 01e3 12       		.uleb128 0x12
 6166 01e4 06       		.uleb128 0x6
 6167 01e5 40       		.uleb128 0x40
 6168 01e6 18       		.uleb128 0x18
 6169 01e7 9642     		.uleb128 0x2116
 6170 01e9 19       		.uleb128 0x19
ARM GAS  C:\Users\Luis\AppData\Local\Temp\cc1uv7VI.s 			page 112


 6171 01ea 01       		.uleb128 0x1
 6172 01eb 13       		.uleb128 0x13
 6173 01ec 00       		.byte	0
 6174 01ed 00       		.byte	0
 6175 01ee 26       		.uleb128 0x26
 6176 01ef 05       		.uleb128 0x5
 6177 01f0 00       		.byte	0
 6178 01f1 03       		.uleb128 0x3
 6179 01f2 0E       		.uleb128 0xe
 6180 01f3 3A       		.uleb128 0x3a
 6181 01f4 0B       		.uleb128 0xb
 6182 01f5 3B       		.uleb128 0x3b
 6183 01f6 0B       		.uleb128 0xb
 6184 01f7 49       		.uleb128 0x49
 6185 01f8 13       		.uleb128 0x13
 6186 01f9 02       		.uleb128 0x2
 6187 01fa 18       		.uleb128 0x18
 6188 01fb 00       		.byte	0
 6189 01fc 00       		.byte	0
 6190 01fd 27       		.uleb128 0x27
 6191 01fe 2E       		.uleb128 0x2e
 6192 01ff 01       		.byte	0x1
 6193 0200 3F       		.uleb128 0x3f
 6194 0201 19       		.uleb128 0x19
 6195 0202 03       		.uleb128 0x3
 6196 0203 0E       		.uleb128 0xe
 6197 0204 3A       		.uleb128 0x3a
 6198 0205 0B       		.uleb128 0xb
 6199 0206 3B       		.uleb128 0x3b
 6200 0207 05       		.uleb128 0x5
 6201 0208 27       		.uleb128 0x27
 6202 0209 19       		.uleb128 0x19
 6203 020a 49       		.uleb128 0x49
 6204 020b 13       		.uleb128 0x13
 6205 020c 11       		.uleb128 0x11
 6206 020d 01       		.uleb128 0x1
 6207 020e 12       		.uleb128 0x12
 6208 020f 06       		.uleb128 0x6
 6209 0210 40       		.uleb128 0x40
 6210 0211 18       		.uleb128 0x18
 6211 0212 9642     		.uleb128 0x2116
 6212 0214 19       		.uleb128 0x19
 6213 0215 01       		.uleb128 0x1
 6214 0216 13       		.uleb128 0x13
 6215 0217 00       		.byte	0
 6216 0218 00       		.byte	0
 6217 0219 28       		.uleb128 0x28
 6218 021a 05       		.uleb128 0x5
 6219 021b 00       		.byte	0
 6220 021c 03       		.uleb128 0x3
 6221 021d 08       		.uleb128 0x8
 6222 021e 3A       		.uleb128 0x3a
 6223 021f 0B       		.uleb128 0xb
 6224 0220 3B       		.uleb128 0x3b
 6225 0221 05       		.uleb128 0x5
 6226 0222 49       		.uleb128 0x49
 6227 0223 13       		.uleb128 0x13
ARM GAS  C:\Users\Luis\AppData\Local\Temp\cc1uv7VI.s 			page 113


 6228 0224 02       		.uleb128 0x2
 6229 0225 18       		.uleb128 0x18
 6230 0226 00       		.byte	0
 6231 0227 00       		.byte	0
 6232 0228 29       		.uleb128 0x29
 6233 0229 34       		.uleb128 0x34
 6234 022a 00       		.byte	0
 6235 022b 03       		.uleb128 0x3
 6236 022c 0E       		.uleb128 0xe
 6237 022d 3A       		.uleb128 0x3a
 6238 022e 0B       		.uleb128 0xb
 6239 022f 3B       		.uleb128 0x3b
 6240 0230 05       		.uleb128 0x5
 6241 0231 49       		.uleb128 0x49
 6242 0232 13       		.uleb128 0x13
 6243 0233 02       		.uleb128 0x2
 6244 0234 18       		.uleb128 0x18
 6245 0235 00       		.byte	0
 6246 0236 00       		.byte	0
 6247 0237 2A       		.uleb128 0x2a
 6248 0238 2E       		.uleb128 0x2e
 6249 0239 01       		.byte	0x1
 6250 023a 3F       		.uleb128 0x3f
 6251 023b 19       		.uleb128 0x19
 6252 023c 03       		.uleb128 0x3
 6253 023d 0E       		.uleb128 0xe
 6254 023e 3A       		.uleb128 0x3a
 6255 023f 0B       		.uleb128 0xb
 6256 0240 3B       		.uleb128 0x3b
 6257 0241 05       		.uleb128 0x5
 6258 0242 27       		.uleb128 0x27
 6259 0243 19       		.uleb128 0x19
 6260 0244 11       		.uleb128 0x11
 6261 0245 01       		.uleb128 0x1
 6262 0246 12       		.uleb128 0x12
 6263 0247 06       		.uleb128 0x6
 6264 0248 40       		.uleb128 0x40
 6265 0249 18       		.uleb128 0x18
 6266 024a 9642     		.uleb128 0x2116
 6267 024c 19       		.uleb128 0x19
 6268 024d 01       		.uleb128 0x1
 6269 024e 13       		.uleb128 0x13
 6270 024f 00       		.byte	0
 6271 0250 00       		.byte	0
 6272 0251 2B       		.uleb128 0x2b
 6273 0252 34       		.uleb128 0x34
 6274 0253 00       		.byte	0
 6275 0254 03       		.uleb128 0x3
 6276 0255 08       		.uleb128 0x8
 6277 0256 3A       		.uleb128 0x3a
 6278 0257 0B       		.uleb128 0xb
 6279 0258 3B       		.uleb128 0x3b
 6280 0259 05       		.uleb128 0x5
 6281 025a 49       		.uleb128 0x49
 6282 025b 13       		.uleb128 0x13
 6283 025c 02       		.uleb128 0x2
 6284 025d 18       		.uleb128 0x18
ARM GAS  C:\Users\Luis\AppData\Local\Temp\cc1uv7VI.s 			page 114


 6285 025e 00       		.byte	0
 6286 025f 00       		.byte	0
 6287 0260 2C       		.uleb128 0x2c
 6288 0261 0B       		.uleb128 0xb
 6289 0262 01       		.byte	0x1
 6290 0263 11       		.uleb128 0x11
 6291 0264 01       		.uleb128 0x1
 6292 0265 12       		.uleb128 0x12
 6293 0266 06       		.uleb128 0x6
 6294 0267 00       		.byte	0
 6295 0268 00       		.byte	0
 6296 0269 2D       		.uleb128 0x2d
 6297 026a 2E       		.uleb128 0x2e
 6298 026b 01       		.byte	0x1
 6299 026c 3F       		.uleb128 0x3f
 6300 026d 19       		.uleb128 0x19
 6301 026e 03       		.uleb128 0x3
 6302 026f 0E       		.uleb128 0xe
 6303 0270 3A       		.uleb128 0x3a
 6304 0271 0B       		.uleb128 0xb
 6305 0272 3B       		.uleb128 0x3b
 6306 0273 05       		.uleb128 0x5
 6307 0274 27       		.uleb128 0x27
 6308 0275 19       		.uleb128 0x19
 6309 0276 49       		.uleb128 0x49
 6310 0277 13       		.uleb128 0x13
 6311 0278 11       		.uleb128 0x11
 6312 0279 01       		.uleb128 0x1
 6313 027a 12       		.uleb128 0x12
 6314 027b 06       		.uleb128 0x6
 6315 027c 40       		.uleb128 0x40
 6316 027d 18       		.uleb128 0x18
 6317 027e 9742     		.uleb128 0x2117
 6318 0280 19       		.uleb128 0x19
 6319 0281 01       		.uleb128 0x1
 6320 0282 13       		.uleb128 0x13
 6321 0283 00       		.byte	0
 6322 0284 00       		.byte	0
 6323 0285 2E       		.uleb128 0x2e
 6324 0286 2E       		.uleb128 0x2e
 6325 0287 01       		.byte	0x1
 6326 0288 3F       		.uleb128 0x3f
 6327 0289 19       		.uleb128 0x19
 6328 028a 03       		.uleb128 0x3
 6329 028b 0E       		.uleb128 0xe
 6330 028c 3A       		.uleb128 0x3a
 6331 028d 0B       		.uleb128 0xb
 6332 028e 3B       		.uleb128 0x3b
 6333 028f 05       		.uleb128 0x5
 6334 0290 27       		.uleb128 0x27
 6335 0291 19       		.uleb128 0x19
 6336 0292 11       		.uleb128 0x11
 6337 0293 01       		.uleb128 0x1
 6338 0294 12       		.uleb128 0x12
 6339 0295 06       		.uleb128 0x6
 6340 0296 40       		.uleb128 0x40
 6341 0297 18       		.uleb128 0x18
ARM GAS  C:\Users\Luis\AppData\Local\Temp\cc1uv7VI.s 			page 115


 6342 0298 9742     		.uleb128 0x2117
 6343 029a 19       		.uleb128 0x19
 6344 029b 01       		.uleb128 0x1
 6345 029c 13       		.uleb128 0x13
 6346 029d 00       		.byte	0
 6347 029e 00       		.byte	0
 6348 029f 2F       		.uleb128 0x2f
 6349 02a0 34       		.uleb128 0x34
 6350 02a1 00       		.byte	0
 6351 02a2 03       		.uleb128 0x3
 6352 02a3 0E       		.uleb128 0xe
 6353 02a4 3A       		.uleb128 0x3a
 6354 02a5 0B       		.uleb128 0xb
 6355 02a6 3B       		.uleb128 0x3b
 6356 02a7 05       		.uleb128 0x5
 6357 02a8 49       		.uleb128 0x49
 6358 02a9 13       		.uleb128 0x13
 6359 02aa 3F       		.uleb128 0x3f
 6360 02ab 19       		.uleb128 0x19
 6361 02ac 3C       		.uleb128 0x3c
 6362 02ad 19       		.uleb128 0x19
 6363 02ae 00       		.byte	0
 6364 02af 00       		.byte	0
 6365 02b0 30       		.uleb128 0x30
 6366 02b1 34       		.uleb128 0x34
 6367 02b2 00       		.byte	0
 6368 02b3 03       		.uleb128 0x3
 6369 02b4 08       		.uleb128 0x8
 6370 02b5 3A       		.uleb128 0x3a
 6371 02b6 0B       		.uleb128 0xb
 6372 02b7 3B       		.uleb128 0x3b
 6373 02b8 05       		.uleb128 0x5
 6374 02b9 49       		.uleb128 0x49
 6375 02ba 13       		.uleb128 0x13
 6376 02bb 3F       		.uleb128 0x3f
 6377 02bc 19       		.uleb128 0x19
 6378 02bd 3C       		.uleb128 0x3c
 6379 02be 19       		.uleb128 0x19
 6380 02bf 00       		.byte	0
 6381 02c0 00       		.byte	0
 6382 02c1 31       		.uleb128 0x31
 6383 02c2 34       		.uleb128 0x34
 6384 02c3 00       		.byte	0
 6385 02c4 03       		.uleb128 0x3
 6386 02c5 0E       		.uleb128 0xe
 6387 02c6 3A       		.uleb128 0x3a
 6388 02c7 0B       		.uleb128 0xb
 6389 02c8 3B       		.uleb128 0x3b
 6390 02c9 0B       		.uleb128 0xb
 6391 02ca 49       		.uleb128 0x49
 6392 02cb 13       		.uleb128 0x13
 6393 02cc 3F       		.uleb128 0x3f
 6394 02cd 19       		.uleb128 0x19
 6395 02ce 02       		.uleb128 0x2
 6396 02cf 18       		.uleb128 0x18
 6397 02d0 00       		.byte	0
 6398 02d1 00       		.byte	0
ARM GAS  C:\Users\Luis\AppData\Local\Temp\cc1uv7VI.s 			page 116


 6399 02d2 00       		.byte	0
 6400              		.section	.debug_aranges,"",%progbits
 6401 0000 C4000000 		.4byte	0xc4
 6402 0004 0200     		.2byte	0x2
 6403 0006 00000000 		.4byte	.Ldebug_info0
 6404 000a 04       		.byte	0x4
 6405 000b 00       		.byte	0
 6406 000c 0000     		.2byte	0
 6407 000e 0000     		.2byte	0
 6408 0010 00000000 		.4byte	.LFB230
 6409 0014 14000000 		.4byte	.LFE230-.LFB230
 6410 0018 00000000 		.4byte	.LFB260
 6411 001c 48000000 		.4byte	.LFE260-.LFB260
 6412 0020 00000000 		.4byte	.LFB261
 6413 0024 12000000 		.4byte	.LFE261-.LFB261
 6414 0028 00000000 		.4byte	.LFB262
 6415 002c 3C000000 		.4byte	.LFE262-.LFB262
 6416 0030 00000000 		.4byte	.LFB263
 6417 0034 BC020000 		.4byte	.LFE263-.LFB263
 6418 0038 00000000 		.4byte	.LFB264
 6419 003c BC000000 		.4byte	.LFE264-.LFB264
 6420 0040 00000000 		.4byte	.LFB265
 6421 0044 20010000 		.4byte	.LFE265-.LFB265
 6422 0048 00000000 		.4byte	.LFB266
 6423 004c 00010000 		.4byte	.LFE266-.LFB266
 6424 0050 00000000 		.4byte	.LFB267
 6425 0054 00010000 		.4byte	.LFE267-.LFB267
 6426 0058 00000000 		.4byte	.LFB268
 6427 005c 2E000000 		.4byte	.LFE268-.LFB268
 6428 0060 00000000 		.4byte	.LFB269
 6429 0064 24000000 		.4byte	.LFE269-.LFB269
 6430 0068 00000000 		.4byte	.LFB270
 6431 006c 8C000000 		.4byte	.LFE270-.LFB270
 6432 0070 00000000 		.4byte	.LFB271
 6433 0074 1E000000 		.4byte	.LFE271-.LFB271
 6434 0078 00000000 		.4byte	.LFB272
 6435 007c 8C000000 		.4byte	.LFE272-.LFB272
 6436 0080 00000000 		.4byte	.LFB273
 6437 0084 5C010000 		.4byte	.LFE273-.LFB273
 6438 0088 00000000 		.4byte	.LFB274
 6439 008c D8000000 		.4byte	.LFE274-.LFB274
 6440 0090 00000000 		.4byte	.LFB275
 6441 0094 D8000000 		.4byte	.LFE275-.LFB275
 6442 0098 00000000 		.4byte	.LFB276
 6443 009c 64000000 		.4byte	.LFE276-.LFB276
 6444 00a0 00000000 		.4byte	.LFB277
 6445 00a4 60000000 		.4byte	.LFE277-.LFB277
 6446 00a8 00000000 		.4byte	.LFB278
 6447 00ac 9C000000 		.4byte	.LFE278-.LFB278
 6448 00b0 00000000 		.4byte	.LFB279
 6449 00b4 66000000 		.4byte	.LFE279-.LFB279
 6450 00b8 00000000 		.4byte	.LFB280
 6451 00bc 5C000000 		.4byte	.LFE280-.LFB280
 6452 00c0 00000000 		.4byte	0
 6453 00c4 00000000 		.4byte	0
 6454              		.section	.debug_ranges,"",%progbits
 6455              	.Ldebug_ranges0:
ARM GAS  C:\Users\Luis\AppData\Local\Temp\cc1uv7VI.s 			page 117


 6456 0000 00000000 		.4byte	.LFB230
 6457 0004 14000000 		.4byte	.LFE230
 6458 0008 00000000 		.4byte	.LFB260
 6459 000c 48000000 		.4byte	.LFE260
 6460 0010 00000000 		.4byte	.LFB261
 6461 0014 12000000 		.4byte	.LFE261
 6462 0018 00000000 		.4byte	.LFB262
 6463 001c 3C000000 		.4byte	.LFE262
 6464 0020 00000000 		.4byte	.LFB263
 6465 0024 BC020000 		.4byte	.LFE263
 6466 0028 00000000 		.4byte	.LFB264
 6467 002c BC000000 		.4byte	.LFE264
 6468 0030 00000000 		.4byte	.LFB265
 6469 0034 20010000 		.4byte	.LFE265
 6470 0038 00000000 		.4byte	.LFB266
 6471 003c 00010000 		.4byte	.LFE266
 6472 0040 00000000 		.4byte	.LFB267
 6473 0044 00010000 		.4byte	.LFE267
 6474 0048 00000000 		.4byte	.LFB268
 6475 004c 2E000000 		.4byte	.LFE268
 6476 0050 00000000 		.4byte	.LFB269
 6477 0054 24000000 		.4byte	.LFE269
 6478 0058 00000000 		.4byte	.LFB270
 6479 005c 8C000000 		.4byte	.LFE270
 6480 0060 00000000 		.4byte	.LFB271
 6481 0064 1E000000 		.4byte	.LFE271
 6482 0068 00000000 		.4byte	.LFB272
 6483 006c 8C000000 		.4byte	.LFE272
 6484 0070 00000000 		.4byte	.LFB273
 6485 0074 5C010000 		.4byte	.LFE273
 6486 0078 00000000 		.4byte	.LFB274
 6487 007c D8000000 		.4byte	.LFE274
 6488 0080 00000000 		.4byte	.LFB275
 6489 0084 D8000000 		.4byte	.LFE275
 6490 0088 00000000 		.4byte	.LFB276
 6491 008c 64000000 		.4byte	.LFE276
 6492 0090 00000000 		.4byte	.LFB277
 6493 0094 60000000 		.4byte	.LFE277
 6494 0098 00000000 		.4byte	.LFB278
 6495 009c 9C000000 		.4byte	.LFE278
 6496 00a0 00000000 		.4byte	.LFB279
 6497 00a4 66000000 		.4byte	.LFE279
 6498 00a8 00000000 		.4byte	.LFB280
 6499 00ac 5C000000 		.4byte	.LFE280
 6500 00b0 00000000 		.4byte	0
 6501 00b4 00000000 		.4byte	0
 6502              		.section	.debug_line,"",%progbits
 6503              	.Ldebug_line0:
 6504 0000 D3070000 		.section	.debug_str,"MS",%progbits,1
 6504      0200C002 
 6504      00000201 
 6504      FB0E0D00 
 6504      01010101 
 6505              	.LASF52:
 6506 0000 63685F74 		.ascii	"ch_threads_list\000"
 6506      68726561 
 6506      64735F6C 
ARM GAS  C:\Users\Luis\AppData\Local\Temp\cc1uv7VI.s 			page 118


 6506      69737400 
 6507              	.LASF53:
 6508 0010 74687265 		.ascii	"threads_queue_t\000"
 6508      6164735F 
 6508      71756575 
 6508      655F7400 
 6509              	.LASF118:
 6510 0020 77746D74 		.ascii	"wtmtxp\000"
 6510      787000
 6511              	.LASF140:
 6512 0027 4D454D50 		.ascii	"MEMP_TCP_PCB_LISTEN\000"
 6512      5F544350 
 6512      5F504342 
 6512      5F4C4953 
 6512      54454E00 
 6513              	.LASF179:
 6514 003b 736F5F6F 		.ascii	"so_options\000"
 6514      7074696F 
 6514      6E7300
 6515              	.LASF127:
 6516 0046 63686172 		.ascii	"char\000"
 6516      00
 6517              	.LASF88:
 6518 004b 72656761 		.ascii	"regarm_t\000"
 6518      726D5F74 
 6518      00
 6519              	.LASF31:
 6520 0054 705F7072 		.ascii	"p_prio\000"
 6520      696F00
 6521              	.LASF158:
 6522 005b 50425546 		.ascii	"PBUF_RAM\000"
 6522      5F52414D 
 6522      00
 6523              	.LASF248:
 6524 0064 75726770 		.ascii	"urgp\000"
 6524      00
 6525              	.LASF186:
 6526 0069 706F6C6C 		.ascii	"polltmr\000"
 6526      746D7200 
 6527              	.LASF175:
 6528 0071 7463705F 		.ascii	"tcp_accept_fn\000"
 6528      61636365 
 6528      70745F66 
 6528      6E00
 6529              	.LASF162:
 6530 007f 70627566 		.ascii	"pbuf_type\000"
 6530      5F747970 
 6530      6500
 6531              	.LASF27:
 6532 0089 73797374 		.ascii	"systime_t\000"
 6532      696D655F 
 6532      7400
 6533              	.LASF125:
 6534 0093 6D5F6F77 		.ascii	"m_owner\000"
 6534      6E657200 
 6535              	.LASF121:
 6536 009b 735F7175 		.ascii	"s_queue\000"
ARM GAS  C:\Users\Luis\AppData\Local\Temp\cc1uv7VI.s 			page 119


 6536      65756500 
 6537              	.LASF239:
 6538 00a3 54494D45 		.ascii	"TIME_WAIT\000"
 6538      5F574149 
 6538      5400
 6539              	.LASF0:
 6540 00ad 756E7369 		.ascii	"unsigned int\000"
 6540      676E6564 
 6540      20696E74 
 6540      00
 6541              	.LASF228:
 6542 00ba 7463705F 		.ascii	"tcp_connected_fn\000"
 6542      636F6E6E 
 6542      65637465 
 6542      645F666E 
 6542      00
 6543              	.LASF164:
 6544 00cb 6E657874 		.ascii	"next\000"
 6544      00
 6545              	.LASF295:
 6546 00d0 73746172 		.ascii	"start_offset\000"
 6546      745F6F66 
 6546      66736574 
 6546      00
 6547              	.LASF111:
 6548 00dd 6D5F6372 		.ascii	"m_crit_isr\000"
 6548      69745F69 
 6548      737200
 6549              	.LASF50:
 6550 00e8 74687265 		.ascii	"threads_list_t\000"
 6550      6164735F 
 6550      6C697374 
 6550      5F7400
 6551              	.LASF152:
 6552 00f7 6572725F 		.ascii	"err_t\000"
 6552      7400
 6553              	.LASF106:
 6554 00fd 63756D75 		.ascii	"cumulative\000"
 6554      6C617469 
 6554      766500
 6555              	.LASF138:
 6556 0108 4D454D50 		.ascii	"MEMP_UDP_PCB\000"
 6556      5F554450 
 6556      5F504342 
 6556      00
 6557              	.LASF40:
 6558 0115 705F7761 		.ascii	"p_waiting\000"
 6558      6974696E 
 6558      6700
 6559              	.LASF95:
 6560 011f 73655F73 		.ascii	"se_state\000"
 6560      74617465 
 6560      00
 6561              	.LASF132:
 6562 0128 7531365F 		.ascii	"u16_t\000"
 6562      7400
 6563              	.LASF170:
ARM GAS  C:\Users\Luis\AppData\Local\Temp\cc1uv7VI.s 			page 120


 6564 012e 70627566 		.ascii	"pbuf_custom\000"
 6564      5F637573 
 6564      746F6D00 
 6565              	.LASF303:
 6566 013a 474E5520 		.ascii	"GNU C 4.8.3 20131129 (release) [ARM/embedded-4_8-br"
 6566      4320342E 
 6566      382E3320 
 6566      32303133 
 6566      31313239 
 6567 016d 616E6368 		.ascii	"anch revision 205641] -mcpu=cortex-m4 -mapcs-frame "
 6567      20726576 
 6567      6973696F 
 6567      6E203230 
 6567      35363431 
 6568 01a0 2D6D6E6F 		.ascii	"-mno-thumb-interwork -mthumb -ggdb -O0 -falign-func"
 6568      2D746875 
 6568      6D622D69 
 6568      6E746572 
 6568      776F726B 
 6569 01d3 74696F6E 		.ascii	"tions=16 -ffunction-sections -fdata-sections -fno-c"
 6569      733D3136 
 6569      202D6666 
 6569      756E6374 
 6569      696F6E2D 
 6570 0206 6F6D6D6F 		.ascii	"ommon\000"
 6570      6E00
 6571              	.LASF289:
 6572 020c 70627566 		.ascii	"pbuf_get_at\000"
 6572      5F676574 
 6572      5F617400 
 6573              	.LASF83:
 6574 0218 76746C69 		.ascii	"vtlist\000"
 6574      737400
 6575              	.LASF192:
 6576 021f 7263765F 		.ascii	"rcv_ann_right_edge\000"
 6576      616E6E5F 
 6576      72696768 
 6576      745F6564 
 6576      676500
 6577              	.LASF56:
 6578 0232 63685F72 		.ascii	"ch_ready_list\000"
 6578      65616479 
 6578      5F6C6973 
 6578      7400
 6579              	.LASF86:
 6580 0240 69646C65 		.ascii	"idle_thread_wa\000"
 6580      5F746872 
 6580      6561645F 
 6580      776100
 6581              	.LASF119:
 6582 024f 65776D61 		.ascii	"ewmask\000"
 6582      736B00
 6583              	.LASF223:
 6584 0256 6B656570 		.ascii	"keep_cnt_sent\000"
 6584      5F636E74 
 6584      5F73656E 
 6584      7400
ARM GAS  C:\Users\Luis\AppData\Local\Temp\cc1uv7VI.s 			page 121


 6585              	.LASF150:
 6586 0264 4D454D50 		.ascii	"MEMP_PBUF_POOL\000"
 6586      5F504255 
 6586      465F504F 
 6586      4F4C00
 6587              	.LASF225:
 6588 0273 7463705F 		.ascii	"tcp_sent_fn\000"
 6588      73656E74 
 6588      5F666E00 
 6589              	.LASF63:
 6590 027f 76746675 		.ascii	"vtfunc_t\000"
 6590      6E635F74 
 6590      00
 6591              	.LASF115:
 6592 0288 77746F62 		.ascii	"wtobjp\000"
 6592      6A7000
 6593              	.LASF75:
 6594 028f 63685F73 		.ascii	"ch_system_debug\000"
 6594      79737465 
 6594      6D5F6465 
 6594      62756700 
 6595              	.LASF253:
 6596 029f 70627566 		.ascii	"pbuf_pool_is_empty\000"
 6596      5F706F6F 
 6596      6C5F6973 
 6596      5F656D70 
 6596      747900
 6597              	.LASF153:
 6598 02b2 50425546 		.ascii	"PBUF_TRANSPORT\000"
 6598      5F545241 
 6598      4E53504F 
 6598      525400
 6599              	.LASF244:
 6600 02c1 7365716E 		.ascii	"seqno\000"
 6600      6F00
 6601              	.LASF275:
 6602 02c7 7461696C 		.ascii	"tail_gone\000"
 6602      5F676F6E 
 6602      6500
 6603              	.LASF12:
 6604 02d1 75696E74 		.ascii	"uint32_t\000"
 6604      33325F74 
 6604      00
 6605              	.LASF145:
 6606 02da 4D454D50 		.ascii	"MEMP_NETCONN\000"
 6606      5F4E4554 
 6606      434F4E4E 
 6606      00
 6607              	.LASF199:
 6608 02e7 63776E64 		.ascii	"cwnd\000"
 6608      00
 6609              	.LASF112:
 6610 02ec 6B65726E 		.ascii	"kernel_stats_t\000"
 6610      656C5F73 
 6610      74617473 
 6610      5F7400
 6611              	.LASF24:
ARM GAS  C:\Users\Luis\AppData\Local\Temp\cc1uv7VI.s 			page 122


 6612 02fb 6576656E 		.ascii	"eventmask_t\000"
 6612      746D6173 
 6612      6B5F7400 
 6613              	.LASF286:
 6614 0307 70627566 		.ascii	"pbuf_take\000"
 6614      5F74616B 
 6614      6500
 6615              	.LASF181:
 6616 0311 61636365 		.ascii	"accept\000"
 6616      707400
 6617              	.LASF85:
 6618 0318 6B65726E 		.ascii	"kernel_stats\000"
 6618      656C5F73 
 6618      74617473 
 6618      00
 6619              	.LASF146:
 6620 0325 4D454D50 		.ascii	"MEMP_TCPIP_MSG_API\000"
 6620      5F544350 
 6620      49505F4D 
 6620      53475F41 
 6620      504900
 6621              	.LASF184:
 6622 0338 6C6F6361 		.ascii	"local_port\000"
 6622      6C5F706F 
 6622      727400
 6623              	.LASF298:
 6624 0343 73756273 		.ascii	"substr\000"
 6624      747200
 6625              	.LASF120:
 6626 034a 63685F73 		.ascii	"ch_semaphore\000"
 6626      656D6170 
 6626      686F7265 
 6626      00
 6627              	.LASF48:
 6628 0357 746C7350 		.ascii	"tlsPtr\000"
 6628      747200
 6629              	.LASF22:
 6630 035e 74707269 		.ascii	"tprio_t\000"
 6630      6F5F7400 
 6631              	.LASF268:
 6632 0366 636F756E 		.ascii	"count\000"
 6632      7400
 6633              	.LASF258:
 6634 036c 70627566 		.ascii	"pbuf_alloc\000"
 6634      5F616C6C 
 6634      6F6300
 6635              	.LASF65:
 6636 0377 63685F76 		.ascii	"ch_virtual_timer\000"
 6636      69727475 
 6636      616C5F74 
 6636      696D6572 
 6636      00
 6637              	.LASF6:
 6638 0388 696E7431 		.ascii	"int16_t\000"
 6638      365F7400 
 6639              	.LASF240:
 6640 0390 7463705F 		.ascii	"tcp_seg\000"
ARM GAS  C:\Users\Luis\AppData\Local\Temp\cc1uv7VI.s 			page 123


 6640      73656700 
 6641              	.LASF16:
 6642 0398 6C6F6E67 		.ascii	"long long unsigned int\000"
 6642      206C6F6E 
 6642      6720756E 
 6642      7369676E 
 6642      65642069 
 6643              	.LASF94:
 6644 03af 73655F77 		.ascii	"se_wtobjp\000"
 6644      746F626A 
 6644      7000
 6645              	.LASF101:
 6646 03b9 6F666673 		.ascii	"offset\000"
 6646      657400
 6647              	.LASF252:
 6648 03c0 72656173 		.ascii	"reason\000"
 6648      6F6E00
 6649              	.LASF195:
 6650 03c7 72747365 		.ascii	"rtseq\000"
 6650      7100
 6651              	.LASF25:
 6652 03cd 636E745F 		.ascii	"cnt_t\000"
 6652      7400
 6653              	.LASF193:
 6654 03d3 7274696D 		.ascii	"rtime\000"
 6654      6500
 6655              	.LASF77:
 6656 03d9 6973725F 		.ascii	"isr_cnt\000"
 6656      636E7400 
 6657              	.LASF104:
 6658 03e1 776F7273 		.ascii	"worst\000"
 6658      7400
 6659              	.LASF122:
 6660 03e7 735F636E 		.ascii	"s_cnt\000"
 6660      7400
 6661              	.LASF33:
 6662 03ed 705F6E65 		.ascii	"p_newer\000"
 6662      77657200 
 6663              	.LASF72:
 6664 03f5 63685F76 		.ascii	"ch_virtual_timers_list\000"
 6664      69727475 
 6664      616C5F74 
 6664      696D6572 
 6664      735F6C69 
 6665              	.LASF189:
 6666 040c 7263765F 		.ascii	"rcv_nxt\000"
 6666      6E787400 
 6667              	.LASF147:
 6668 0414 4D454D50 		.ascii	"MEMP_TCPIP_MSG_INPKT\000"
 6668      5F544350 
 6668      49505F4D 
 6668      53475F49 
 6668      4E504B54 
 6669              	.LASF160:
 6670 0429 50425546 		.ascii	"PBUF_REF\000"
 6670      5F524546 
 6670      00
ARM GAS  C:\Users\Luis\AppData\Local\Temp\cc1uv7VI.s 			page 124


 6671              	.LASF276:
 6672 0432 70627566 		.ascii	"pbuf_copy\000"
 6672      5F636F70 
 6672      7900
 6673              	.LASF212:
 6674 043c 756E6163 		.ascii	"unacked\000"
 6674      6B656400 
 6675              	.LASF28:
 6676 0444 74687265 		.ascii	"thread_t\000"
 6676      61645F74 
 6676      00
 6677              	.LASF29:
 6678 044d 705F6E65 		.ascii	"p_next\000"
 6678      787400
 6679              	.LASF238:
 6680 0454 4C415354 		.ascii	"LAST_ACK\000"
 6680      5F41434B 
 6680      00
 6681              	.LASF247:
 6682 045d 63686B73 		.ascii	"chksum\000"
 6682      756D00
 6683              	.LASF1:
 6684 0464 73697A65 		.ascii	"size_t\000"
 6684      5F7400
 6685              	.LASF113:
 6686 046b 7264796D 		.ascii	"rdymsg\000"
 6686      736700
 6687              	.LASF165:
 6688 0472 7061796C 		.ascii	"payload\000"
 6688      6F616400 
 6689              	.LASF154:
 6690 047a 50425546 		.ascii	"PBUF_IP\000"
 6690      5F495000 
 6691              	.LASF217:
 6692 0482 636F6E6E 		.ascii	"connected\000"
 6692      65637465 
 6692      6400
 6693              	.LASF129:
 6694 048c 5F426F6F 		.ascii	"_Bool\000"
 6694      6C00
 6695              	.LASF305:
 6696 0492 433A5C55 		.ascii	"C:\\Users\\Luis\\git\\DSP-Library-Lanin\\examples\\"
 6696      73657273 
 6696      5C4C7569 
 6696      735C6769 
 6696      745C4453 
 6697 04bf 53544D33 		.ascii	"STM32F407_EMTECH-LWIP\000"
 6697      32463430 
 6697      375F454D 
 6697      54454348 
 6697      2D4C5749 
 6698              	.LASF161:
 6699 04d5 50425546 		.ascii	"PBUF_POOL\000"
 6699      5F504F4F 
 6699      4C00
 6700              	.LASF237:
 6701 04df 434C4F53 		.ascii	"CLOSING\000"
ARM GAS  C:\Users\Luis\AppData\Local\Temp\cc1uv7VI.s 			page 125


 6701      494E4700 
 6702              	.LASF300:
 6703 04e7 49544D5F 		.ascii	"ITM_RxBuffer\000"
 6703      52784275 
 6703      66666572 
 6703      00
 6704              	.LASF123:
 6705 04f4 63685F6D 		.ascii	"ch_mutex\000"
 6705      75746578 
 6705      00
 6706              	.LASF198:
 6707 04fd 6C617374 		.ascii	"lastack\000"
 6707      61636B00 
 6708              	.LASF151:
 6709 0505 4D454D50 		.ascii	"MEMP_MAX\000"
 6709      5F4D4158 
 6709      00
 6710              	.LASF131:
 6711 050e 73385F74 		.ascii	"s8_t\000"
 6711      00
 6712              	.LASF135:
 6713 0513 7333325F 		.ascii	"s32_t\000"
 6713      7400
 6714              	.LASF105:
 6715 0519 6C617374 		.ascii	"last\000"
 6715      00
 6716              	.LASF269:
 6717 051e 70627566 		.ascii	"pbuf_clen\000"
 6717      5F636C65 
 6717      6E00
 6718              	.LASF266:
 6719 0528 696E6372 		.ascii	"increment_magnitude\000"
 6719      656D656E 
 6719      745F6D61 
 6719      676E6974 
 6719      75646500 
 6720              	.LASF296:
 6721 053c 706C7573 		.ascii	"plus\000"
 6721      00
 6722              	.LASF107:
 6723 0541 74696D65 		.ascii	"time_measurement_t\000"
 6723      5F6D6561 
 6723      73757265 
 6723      6D656E74 
 6723      5F7400
 6724              	.LASF2:
 6725 0554 696E7438 		.ascii	"int8_t\000"
 6725      5F7400
 6726              	.LASF285:
 6727 055b 636F7069 		.ascii	"copied_total\000"
 6727      65645F74 
 6727      6F74616C 
 6727      00
 6728              	.LASF197:
 6729 0568 64757061 		.ascii	"dupacks\000"
 6729      636B7300 
 6730              	.LASF183:
ARM GAS  C:\Users\Luis\AppData\Local\Temp\cc1uv7VI.s 			page 126


 6731 0570 7072696F 		.ascii	"prio\000"
 6731      00
 6732              	.LASF187:
 6733 0575 706F6C6C 		.ascii	"pollinterval\000"
 6733      696E7465 
 6733      7276616C 
 6733      00
 6734              	.LASF149:
 6735 0582 4D454D50 		.ascii	"MEMP_PBUF\000"
 6735      5F504255 
 6735      4600
 6736              	.LASF218:
 6737 058c 706F6C6C 		.ascii	"poll\000"
 6737      00
 6738              	.LASF68:
 6739 0591 76745F64 		.ascii	"vt_delta\000"
 6739      656C7461 
 6739      00
 6740              	.LASF264:
 6741 059a 70627566 		.ascii	"pbuf_header\000"
 6741      5F686561 
 6741      64657200 
 6742              	.LASF270:
 6743 05a6 70627566 		.ascii	"pbuf_realloc\000"
 6743      5F726561 
 6743      6C6C6F63 
 6743      00
 6744              	.LASF202:
 6745 05b3 736E645F 		.ascii	"snd_wl1\000"
 6745      776C3100 
 6746              	.LASF18:
 6747 05bb 72747469 		.ascii	"rttime_t\000"
 6747      6D655F74 
 6747      00
 6748              	.LASF291:
 6749 05c4 70627566 		.ascii	"pbuf_memcmp\000"
 6749      5F6D656D 
 6749      636D7000 
 6750              	.LASF73:
 6751 05d0 76745F6C 		.ascii	"vt_lasttime\000"
 6751      61737474 
 6751      696D6500 
 6752              	.LASF207:
 6753 05dc 61636B65 		.ascii	"acked\000"
 6753      6400
 6754              	.LASF236:
 6755 05e2 434C4F53 		.ascii	"CLOSE_WAIT\000"
 6755      455F5741 
 6755      495400
 6756              	.LASF20:
 6757 05ed 74737461 		.ascii	"tstate_t\000"
 6757      74655F74 
 6757      00
 6758              	.LASF93:
 6759 05f6 73655F74 		.ascii	"se_tp\000"
 6759      7000
 6760              	.LASF265:
ARM GAS  C:\Users\Luis\AppData\Local\Temp\cc1uv7VI.s 			page 127


 6761 05fc 68656164 		.ascii	"header_size_increment\000"
 6761      65725F73 
 6761      697A655F 
 6761      696E6372 
 6761      656D656E 
 6762              	.LASF14:
 6763 0612 6C6F6E67 		.ascii	"long long int\000"
 6763      206C6F6E 
 6763      6720696E 
 6763      7400
 6764              	.LASF281:
 6765 0620 70627566 		.ascii	"pbuf_copy_partial\000"
 6765      5F636F70 
 6765      795F7061 
 6765      72746961 
 6765      6C00
 6766              	.LASF34:
 6767 0632 705F6F6C 		.ascii	"p_older\000"
 6767      64657200 
 6768              	.LASF92:
 6769 063a 73655F74 		.ascii	"se_time\000"
 6769      696D6500 
 6770              	.LASF36:
 6771 0642 705F7374 		.ascii	"p_stklimit\000"
 6771      6B6C696D 
 6771      697400
 6772              	.LASF215:
 6773 064d 73656E74 		.ascii	"sent\000"
 6773      00
 6774              	.LASF4:
 6775 0652 75696E74 		.ascii	"uint8_t\000"
 6775      385F7400 
 6776              	.LASF167:
 6777 065a 74797065 		.ascii	"type\000"
 6777      00
 6778              	.LASF203:
 6779 065f 736E645F 		.ascii	"snd_wl2\000"
 6779      776C3200 
 6780              	.LASF47:
 6781 0667 705F7374 		.ascii	"p_stats\000"
 6781      61747300 
 6782              	.LASF46:
 6783 066f 705F6D70 		.ascii	"p_mpool\000"
 6783      6F6F6C00 
 6784              	.LASF44:
 6785 0677 705F6D74 		.ascii	"p_mtxlist\000"
 6785      786C6973 
 6785      7400
 6786              	.LASF227:
 6787 0681 7463705F 		.ascii	"tcp_err_fn\000"
 6787      6572725F 
 6787      666E00
 6788              	.LASF302:
 6789 068c 70627566 		.ascii	"pbuf_free_ooseq_pending\000"
 6789      5F667265 
 6789      655F6F6F 
 6789      7365715F 
ARM GAS  C:\Users\Luis\AppData\Local\Temp\cc1uv7VI.s 			page 128


 6789      70656E64 
 6790              	.LASF51:
 6791 06a4 63685F74 		.ascii	"ch_thread\000"
 6791      68726561 
 6791      6400
 6792              	.LASF97:
 6793 06ae 74625F73 		.ascii	"tb_size\000"
 6793      697A6500 
 6794              	.LASF267:
 6795 06b6 70627566 		.ascii	"pbuf_free\000"
 6795      5F667265 
 6795      6500
 6796              	.LASF204:
 6797 06c0 736E645F 		.ascii	"snd_lbb\000"
 6797      6C626200 
 6798              	.LASF74:
 6799 06c8 73797374 		.ascii	"system_debug_t\000"
 6799      656D5F64 
 6799      65627567 
 6799      5F7400
 6800              	.LASF144:
 6801 06d7 4D454D50 		.ascii	"MEMP_NETBUF\000"
 6801      5F4E4554 
 6801      42554600 
 6802              	.LASF37:
 6803 06e3 705F7374 		.ascii	"p_state\000"
 6803      61746500 
 6804              	.LASF54:
 6805 06eb 63685F74 		.ascii	"ch_threads_queue\000"
 6805      68726561 
 6805      64735F71 
 6805      75657565 
 6805      00
 6806              	.LASF245:
 6807 06fc 61636B6E 		.ascii	"ackno\000"
 6807      6F00
 6808              	.LASF57:
 6809 0702 725F7175 		.ascii	"r_queue\000"
 6809      65756500 
 6810              	.LASF297:
 6811 070a 70627566 		.ascii	"pbuf_strstr\000"
 6811      5F737472 
 6811      73747200 
 6812              	.LASF222:
 6813 0716 70657273 		.ascii	"persist_backoff\000"
 6813      6973745F 
 6813      6261636B 
 6813      6F666600 
 6814              	.LASF60:
 6815 0726 725F6E65 		.ascii	"r_newer\000"
 6815      77657200 
 6816              	.LASF23:
 6817 072e 6D73675F 		.ascii	"msg_t\000"
 6817      7400
 6818              	.LASF139:
 6819 0734 4D454D50 		.ascii	"MEMP_TCP_PCB\000"
 6819      5F544350 
ARM GAS  C:\Users\Luis\AppData\Local\Temp\cc1uv7VI.s 			page 129


 6819      5F504342 
 6819      00
 6820              	.LASF130:
 6821 0741 75385F74 		.ascii	"u8_t\000"
 6821      00
 6822              	.LASF38:
 6823 0746 705F666C 		.ascii	"p_flags\000"
 6823      61677300 
 6824              	.LASF255:
 6825 074e 6C617965 		.ascii	"layer\000"
 6825      7200
 6826              	.LASF64:
 6827 0754 76697274 		.ascii	"virtual_timer_t\000"
 6827      75616C5F 
 6827      74696D65 
 6827      725F7400 
 6828              	.LASF249:
 6829 0764 6F73616C 		.ascii	"osalSysHalt\000"
 6829      53797348 
 6829      616C7400 
 6830              	.LASF284:
 6831 0770 6275665F 		.ascii	"buf_copy_len\000"
 6831      636F7079 
 6831      5F6C656E 
 6831      00
 6832              	.LASF279:
 6833 077d 6F666673 		.ascii	"offset_to\000"
 6833      65745F74 
 6833      6F00
 6834              	.LASF185:
 6835 0787 72656D6F 		.ascii	"remote_port\000"
 6835      74655F70 
 6835      6F727400 
 6836              	.LASF99:
 6837 0793 74625F62 		.ascii	"tb_buffer\000"
 6837      75666665 
 6837      7200
 6838              	.LASF257:
 6839 079d 72656D5F 		.ascii	"rem_len\000"
 6839      6C656E00 
 6840              	.LASF98:
 6841 07a5 74625F70 		.ascii	"tb_ptr\000"
 6841      747200
 6842              	.LASF191:
 6843 07ac 7263765F 		.ascii	"rcv_ann_wnd\000"
 6843      616E6E5F 
 6843      776E6400 
 6844              	.LASF61:
 6845 07b8 725F6F6C 		.ascii	"r_older\000"
 6845      64657200 
 6846              	.LASF142:
 6847 07c0 4D454D50 		.ascii	"MEMP_REASSDATA\000"
 6847      5F524541 
 6847      53534441 
 6847      544100
 6848              	.LASF261:
 6849 07cf 7061796C 		.ascii	"payload_mem_len\000"
ARM GAS  C:\Users\Luis\AppData\Local\Temp\cc1uv7VI.s 			page 130


 6849      6F61645F 
 6849      6D656D5F 
 6849      6C656E00 
 6850              	.LASF304:
 6851 07df 2E2E2F2E 		.ascii	"../../ChibiOS/ext/lwip/src/core/pbuf.c\000"
 6851      2E2F4368 
 6851      6962694F 
 6851      532F6578 
 6851      742F6C77 
 6852              	.LASF109:
 6853 0806 6E5F6374 		.ascii	"n_ctxswc\000"
 6853      78737763 
 6853      00
 6854              	.LASF224:
 6855 080f 7463705F 		.ascii	"tcp_recv_fn\000"
 6855      72656376 
 6855      5F666E00 
 6856              	.LASF277:
 6857 081b 705F746F 		.ascii	"p_to\000"
 6857      00
 6858              	.LASF155:
 6859 0820 50425546 		.ascii	"PBUF_LINK\000"
 6859      5F4C494E 
 6859      4B00
 6860              	.LASF90:
 6861 082a 636F6E74 		.ascii	"context\000"
 6861      65787400 
 6862              	.LASF288:
 6863 0832 70627566 		.ascii	"pbuf_coalesce\000"
 6863      5F636F61 
 6863      6C657363 
 6863      6500
 6864              	.LASF42:
 6865 0840 705F6D73 		.ascii	"p_msg\000"
 6865      6700
 6866              	.LASF102:
 6867 0846 746D5F63 		.ascii	"tm_calibration_t\000"
 6867      616C6962 
 6867      72617469 
 6867      6F6E5F74 
 6867      00
 6868              	.LASF282:
 6869 0857 64617461 		.ascii	"dataptr\000"
 6869      70747200 
 6870              	.LASF19:
 6871 085f 746D6F64 		.ascii	"tmode_t\000"
 6871      655F7400 
 6872              	.LASF26:
 6873 0867 75636E74 		.ascii	"ucnt_t\000"
 6873      5F7400
 6874              	.LASF231:
 6875 086e 53594E5F 		.ascii	"SYN_SENT\000"
 6875      53454E54 
 6875      00
 6876              	.LASF226:
 6877 0877 7463705F 		.ascii	"tcp_poll_fn\000"
 6877      706F6C6C 
ARM GAS  C:\Users\Luis\AppData\Local\Temp\cc1uv7VI.s 			page 131


 6877      5F666E00 
 6878              	.LASF299:
 6879 0883 73756273 		.ascii	"substr_len\000"
 6879      74725F6C 
 6879      656E00
 6880              	.LASF35:
 6881 088e 705F6E61 		.ascii	"p_name\000"
 6881      6D6500
 6882              	.LASF8:
 6883 0895 75696E74 		.ascii	"uint16_t\000"
 6883      31365F74 
 6883      00
 6884              	.LASF49:
 6885 089e 74687265 		.ascii	"thread_reference_t\000"
 6885      61645F72 
 6885      65666572 
 6885      656E6365 
 6885      5F7400
 6886              	.LASF219:
 6887 08b1 65727266 		.ascii	"errf\000"
 6887      00
 6888              	.LASF156:
 6889 08b6 50425546 		.ascii	"PBUF_RAW\000"
 6889      5F524157 
 6889      00
 6890              	.LASF205:
 6891 08bf 736E645F 		.ascii	"snd_wnd\000"
 6891      776E6400 
 6892              	.LASF306:
 6893 08c7 7463705F 		.ascii	"tcp_state\000"
 6893      73746174 
 6893      6500
 6894              	.LASF17:
 6895 08d1 7274636E 		.ascii	"rtcnt_t\000"
 6895      745F7400 
 6896              	.LASF171:
 6897 08d9 63757374 		.ascii	"custom_free_function\000"
 6897      6F6D5F66 
 6897      7265655F 
 6897      66756E63 
 6897      74696F6E 
 6898              	.LASF78:
 6899 08ee 6C6F636B 		.ascii	"lock_cnt\000"
 6899      5F636E74 
 6899      00
 6900              	.LASF213:
 6901 08f7 6F6F7365 		.ascii	"ooseq\000"
 6901      7100
 6902              	.LASF168:
 6903 08fd 666C6167 		.ascii	"flags\000"
 6903      7300
 6904              	.LASF278:
 6905 0903 705F6672 		.ascii	"p_from\000"
 6905      6F6D00
 6906              	.LASF108:
 6907 090a 6E5F6972 		.ascii	"n_irq\000"
 6907      7100
ARM GAS  C:\Users\Luis\AppData\Local\Temp\cc1uv7VI.s 			page 132


 6908              	.LASF45:
 6909 0910 705F7265 		.ascii	"p_realprio\000"
 6909      616C7072 
 6909      696F00
 6910              	.LASF229:
 6911 091b 434C4F53 		.ascii	"CLOSED\000"
 6911      454400
 6912              	.LASF134:
 6913 0922 7533325F 		.ascii	"u32_t\000"
 6913      7400
 6914              	.LASF7:
 6915 0928 73686F72 		.ascii	"short int\000"
 6915      7420696E 
 6915      7400
 6916              	.LASF62:
 6917 0932 725F6375 		.ascii	"r_current\000"
 6917      7272656E 
 6917      7400
 6918              	.LASF43:
 6919 093c 705F6570 		.ascii	"p_epending\000"
 6919      656E6469 
 6919      6E6700
 6920              	.LASF124:
 6921 0947 6D5F7175 		.ascii	"m_queue\000"
 6921      65756500 
 6922              	.LASF11:
 6923 094f 6C6F6E67 		.ascii	"long int\000"
 6923      20696E74 
 6923      00
 6924              	.LASF91:
 6925 0958 706F7274 		.ascii	"port_intctx\000"
 6925      5F696E74 
 6925      63747800 
 6926              	.LASF169:
 6927 0964 70627566 		.ascii	"pbuf_free_custom_fn\000"
 6927      5F667265 
 6927      655F6375 
 6927      73746F6D 
 6927      5F666E00 
 6928              	.LASF259:
 6929 0978 70627566 		.ascii	"pbuf_alloced_custom\000"
 6929      5F616C6C 
 6929      6F636564 
 6929      5F637573 
 6929      746F6D00 
 6930              	.LASF256:
 6931 098c 6C656E67 		.ascii	"length\000"
 6931      746800
 6932              	.LASF211:
 6933 0993 756E7365 		.ascii	"unsent\000"
 6933      6E7400
 6934              	.LASF190:
 6935 099a 7263765F 		.ascii	"rcv_wnd\000"
 6935      776E6400 
 6936              	.LASF293:
 6937 09a2 70627566 		.ascii	"pbuf_memfind\000"
 6937      5F6D656D 
ARM GAS  C:\Users\Luis\AppData\Local\Temp\cc1uv7VI.s 			page 133


 6937      66696E64 
 6937      00
 6938              	.LASF194:
 6939 09af 72747465 		.ascii	"rttest\000"
 6939      737400
 6940              	.LASF81:
 6941 09b6 63685F73 		.ascii	"ch_system\000"
 6941      79737465 
 6941      6D00
 6942              	.LASF110:
 6943 09c0 6D5F6372 		.ascii	"m_crit_thd\000"
 6943      69745F74 
 6943      686400
 6944              	.LASF148:
 6945 09cb 4D454D50 		.ascii	"MEMP_SYS_TIMEOUT\000"
 6945      5F535953 
 6945      5F54494D 
 6945      454F5554 
 6945      00
 6946              	.LASF280:
 6947 09dc 6F666673 		.ascii	"offset_from\000"
 6947      65745F66 
 6947      726F6D00 
 6948              	.LASF188:
 6949 09e8 6C617374 		.ascii	"last_timer\000"
 6949      5F74696D 
 6949      657200
 6950              	.LASF273:
 6951 09f3 70627566 		.ascii	"pbuf_chain\000"
 6951      5F636861 
 6951      696E00
 6952              	.LASF177:
 6953 09fe 6C6F6361 		.ascii	"local_ip\000"
 6953      6C5F6970 
 6953      00
 6954              	.LASF15:
 6955 0a07 75696E74 		.ascii	"uint64_t\000"
 6955      36345F74 
 6955      00
 6956              	.LASF32:
 6957 0a10 705F6374 		.ascii	"p_ctx\000"
 6957      7800
 6958              	.LASF82:
 6959 0a16 726C6973 		.ascii	"rlist\000"
 6959      7400
 6960              	.LASF210:
 6961 0a1c 756E7365 		.ascii	"unsent_oversize\000"
 6961      6E745F6F 
 6961      76657273 
 6961      697A6500 
 6962              	.LASF251:
 6963 0a2c 70627566 		.ascii	"pbuf_free_ooseq_callback\000"
 6963      5F667265 
 6963      655F6F6F 
 6963      7365715F 
 6963      63616C6C 
 6964              	.LASF201:
ARM GAS  C:\Users\Luis\AppData\Local\Temp\cc1uv7VI.s 			page 134


 6965 0a45 736E645F 		.ascii	"snd_nxt\000"
 6965      6E787400 
 6966              	.LASF283:
 6967 0a4d 6C656674 		.ascii	"left\000"
 6967      00
 6968              	.LASF136:
 6969 0a52 6D656D5F 		.ascii	"mem_ptr_t\000"
 6969      7074725F 
 6969      7400
 6970              	.LASF233:
 6971 0a5c 45535441 		.ascii	"ESTABLISHED\000"
 6971      424C4953 
 6971      48454400 
 6972              	.LASF206:
 6973 0a68 736E645F 		.ascii	"snd_wnd_max\000"
 6973      776E645F 
 6973      6D617800 
 6974              	.LASF292:
 6975 0a74 73746172 		.ascii	"start\000"
 6975      7400
 6976              	.LASF287:
 6977 0a7a 746F7461 		.ascii	"total_copy_len\000"
 6977      6C5F636F 
 6977      70795F6C 
 6977      656E00
 6978              	.LASF143:
 6979 0a89 4D454D50 		.ascii	"MEMP_FRAG_PBUF\000"
 6979      5F465241 
 6979      475F5042 
 6979      554600
 6980              	.LASF200:
 6981 0a98 73737468 		.ascii	"ssthresh\000"
 6981      72657368 
 6981      00
 6982              	.LASF271:
 6983 0aa1 70627566 		.ascii	"pbuf_ref\000"
 6983      5F726566 
 6983      00
 6984              	.LASF208:
 6985 0aaa 736E645F 		.ascii	"snd_buf\000"
 6985      62756600 
 6986              	.LASF137:
 6987 0ab2 4D454D50 		.ascii	"MEMP_RAW_PCB\000"
 6987      5F524157 
 6987      5F504342 
 6987      00
 6988              	.LASF246:
 6989 0abf 5F686472 		.ascii	"_hdrlen_rsvd_flags\000"
 6989      6C656E5F 
 6989      72737664 
 6989      5F666C61 
 6989      677300
 6990              	.LASF30:
 6991 0ad2 705F7072 		.ascii	"p_prev\000"
 6991      657600
 6992              	.LASF87:
 6993 0ad9 73697A65 		.ascii	"sizetype\000"
ARM GAS  C:\Users\Luis\AppData\Local\Temp\cc1uv7VI.s 			page 135


 6993      74797065 
 6993      00
 6994              	.LASF21:
 6995 0ae2 74726566 		.ascii	"trefs_t\000"
 6995      735F7400 
 6996              	.LASF13:
 6997 0aea 6C6F6E67 		.ascii	"long unsigned int\000"
 6997      20756E73 
 6997      69676E65 
 6997      6420696E 
 6997      7400
 6998              	.LASF55:
 6999 0afc 72656164 		.ascii	"ready_list_t\000"
 6999      795F6C69 
 6999      73745F74 
 6999      00
 7000              	.LASF241:
 7001 0b09 74637068 		.ascii	"tcphdr\000"
 7001      647200
 7002              	.LASF133:
 7003 0b10 7331365F 		.ascii	"s16_t\000"
 7003      7400
 7004              	.LASF10:
 7005 0b16 696E7433 		.ascii	"int32_t\000"
 7005      325F7400 
 7006              	.LASF157:
 7007 0b1e 70627566 		.ascii	"pbuf_layer\000"
 7007      5F6C6179 
 7007      657200
 7008              	.LASF214:
 7009 0b29 72656675 		.ascii	"refused_data\000"
 7009      7365645F 
 7009      64617461 
 7009      00
 7010              	.LASF79:
 7011 0b36 74726163 		.ascii	"trace_buffer\000"
 7011      655F6275 
 7011      66666572 
 7011      00
 7012              	.LASF117:
 7013 0b43 77747365 		.ascii	"wtsemp\000"
 7013      6D7000
 7014              	.LASF96:
 7015 0b4a 63685F73 		.ascii	"ch_swc_event_t\000"
 7015      77635F65 
 7015      76656E74 
 7015      5F7400
 7016              	.LASF262:
 7017 0b59 6E65775F 		.ascii	"new_len\000"
 7017      6C656E00 
 7018              	.LASF128:
 7019 0b61 6D757465 		.ascii	"mutex_t\000"
 7019      785F7400 
 7020              	.LASF242:
 7021 0b69 7463705F 		.ascii	"tcp_hdr\000"
 7021      68647200 
 7022              	.LASF290:
ARM GAS  C:\Users\Luis\AppData\Local\Temp\cc1uv7VI.s 			page 136


 7023 0b71 636F7079 		.ascii	"copy_from\000"
 7023      5F66726F 
 7023      6D00
 7024              	.LASF70:
 7025 0b7b 76745F70 		.ascii	"vt_par\000"
 7025      617200
 7026              	.LASF103:
 7027 0b82 62657374 		.ascii	"best\000"
 7027      00
 7028              	.LASF263:
 7029 0b87 67726F77 		.ascii	"grow\000"
 7029      00
 7030              	.LASF5:
 7031 0b8c 756E7369 		.ascii	"unsigned char\000"
 7031      676E6564 
 7031      20636861 
 7031      7200
 7032              	.LASF234:
 7033 0b9a 46494E5F 		.ascii	"FIN_WAIT_1\000"
 7033      57414954 
 7033      5F3100
 7034              	.LASF235:
 7035 0ba5 46494E5F 		.ascii	"FIN_WAIT_2\000"
 7035      57414954 
 7035      5F3200
 7036              	.LASF71:
 7037 0bb0 76697274 		.ascii	"virtual_timers_list_t\000"
 7037      75616C5F 
 7037      74696D65 
 7037      72735F6C 
 7037      6973745F 
 7038              	.LASF39:
 7039 0bc6 705F7265 		.ascii	"p_refs\000"
 7039      667300
 7040              	.LASF141:
 7041 0bcd 4D454D50 		.ascii	"MEMP_TCP_SEG\000"
 7041      5F544350 
 7041      5F534547 
 7041      00
 7042              	.LASF76:
 7043 0bda 70616E69 		.ascii	"panic_msg\000"
 7043      635F6D73 
 7043      6700
 7044              	.LASF294:
 7045 0be4 6D656D5F 		.ascii	"mem_len\000"
 7045      6C656E00 
 7046              	.LASF163:
 7047 0bec 70627566 		.ascii	"pbuf\000"
 7047      00
 7048              	.LASF220:
 7049 0bf1 6B656570 		.ascii	"keep_idle\000"
 7049      5F69646C 
 7049      6500
 7050              	.LASF180:
 7051 0bfb 63616C6C 		.ascii	"callback_arg\000"
 7051      6261636B 
 7051      5F617267 
ARM GAS  C:\Users\Luis\AppData\Local\Temp\cc1uv7VI.s 			page 137


 7051      00
 7052              	.LASF230:
 7053 0c08 4C495354 		.ascii	"LISTEN\000"
 7053      454E00
 7054              	.LASF89:
 7055 0c0f 73746B61 		.ascii	"stkalign_t\000"
 7055      6C69676E 
 7055      5F7400
 7056              	.LASF173:
 7057 0c1a 61646472 		.ascii	"addr\000"
 7057      00
 7058              	.LASF84:
 7059 0c1f 6D61696E 		.ascii	"mainthread\000"
 7059      74687265 
 7059      616400
 7060              	.LASF182:
 7061 0c2a 73746174 		.ascii	"state\000"
 7061      6500
 7062              	.LASF166:
 7063 0c30 746F745F 		.ascii	"tot_len\000"
 7063      6C656E00 
 7064              	.LASF274:
 7065 0c38 70627566 		.ascii	"pbuf_dechain\000"
 7065      5F646563 
 7065      6861696E 
 7065      00
 7066              	.LASF66:
 7067 0c45 76745F6E 		.ascii	"vt_next\000"
 7067      65787400 
 7068              	.LASF260:
 7069 0c4d 7061796C 		.ascii	"payload_mem\000"
 7069      6F61645F 
 7069      6D656D00 
 7070              	.LASF209:
 7071 0c59 736E645F 		.ascii	"snd_queuelen\000"
 7071      71756575 
 7071      656C656E 
 7071      00
 7072              	.LASF80:
 7073 0c66 63685F73 		.ascii	"ch_system_t\000"
 7073      79737465 
 7073      6D5F7400 
 7074              	.LASF116:
 7075 0c72 77747472 		.ascii	"wttrp\000"
 7075      7000
 7076              	.LASF216:
 7077 0c78 72656376 		.ascii	"recv\000"
 7077      00
 7078              	.LASF100:
 7079 0c7d 63685F74 		.ascii	"ch_trace_buffer_t\000"
 7079      72616365 
 7079      5F627566 
 7079      6665725F 
 7079      7400
 7080              	.LASF126:
 7081 0c8f 6D5F6E65 		.ascii	"m_next\000"
 7081      787400
ARM GAS  C:\Users\Luis\AppData\Local\Temp\cc1uv7VI.s 			page 138


 7082              	.LASF3:
 7083 0c96 7369676E 		.ascii	"signed char\000"
 7083      65642063 
 7083      68617200 
 7084              	.LASF176:
 7085 0ca2 7463705F 		.ascii	"tcp_pcb\000"
 7085      70636200 
 7086              	.LASF9:
 7087 0caa 73686F72 		.ascii	"short unsigned int\000"
 7087      7420756E 
 7087      7369676E 
 7087      65642069 
 7087      6E7400
 7088              	.LASF59:
 7089 0cbd 725F6374 		.ascii	"r_ctx\000"
 7089      7800
 7090              	.LASF250:
 7091 0cc3 70627566 		.ascii	"pbuf_free_ooseq\000"
 7091      5F667265 
 7091      655F6F6F 
 7091      73657100 
 7092              	.LASF41:
 7093 0cd3 705F6D73 		.ascii	"p_msgqueue\000"
 7093      67717565 
 7093      756500
 7094              	.LASF221:
 7095 0cde 70657273 		.ascii	"persist_cnt\000"
 7095      6973745F 
 7095      636E7400 
 7096              	.LASF178:
 7097 0cea 72656D6F 		.ascii	"remote_ip\000"
 7097      74655F69 
 7097      7000
 7098              	.LASF69:
 7099 0cf4 76745F66 		.ascii	"vt_func\000"
 7099      756E6300 
 7100              	.LASF67:
 7101 0cfc 76745F70 		.ascii	"vt_prev\000"
 7101      72657600 
 7102              	.LASF174:
 7103 0d04 69705F61 		.ascii	"ip_addr_t\000"
 7103      6464725F 
 7103      7400
 7104              	.LASF272:
 7105 0d0e 70627566 		.ascii	"pbuf_cat\000"
 7105      5F636174 
 7105      00
 7106              	.LASF159:
 7107 0d17 50425546 		.ascii	"PBUF_ROM\000"
 7107      5F524F4D 
 7107      00
 7108              	.LASF301:
 7109 0d20 7463705F 		.ascii	"tcp_active_pcbs\000"
 7109      61637469 
 7109      76655F70 
 7109      63627300 
 7110              	.LASF58:
ARM GAS  C:\Users\Luis\AppData\Local\Temp\cc1uv7VI.s 			page 139


 7111 0d30 725F7072 		.ascii	"r_prio\000"
 7111      696F00
 7112              	.LASF196:
 7113 0d37 6E727478 		.ascii	"nrtx\000"
 7113      00
 7114              	.LASF243:
 7115 0d3c 64657374 		.ascii	"dest\000"
 7115      00
 7116              	.LASF114:
 7117 0d41 65786974 		.ascii	"exitcode\000"
 7117      636F6465 
 7117      00
 7118              	.LASF254:
 7119 0d4a 71756575 		.ascii	"queued\000"
 7119      656400
 7120              	.LASF232:
 7121 0d51 53594E5F 		.ascii	"SYN_RCVD\000"
 7121      52435644 
 7121      00
 7122              	.LASF172:
 7123 0d5a 69705F61 		.ascii	"ip_addr\000"
 7123      64647200 
 7124              		.ident	"GCC: (GNU Tools for ARM Embedded Processors) 4.8.3 20131129 (release) [ARM/embedded-4_8-br
ARM GAS  C:\Users\Luis\AppData\Local\Temp\cc1uv7VI.s 			page 140


DEFINED SYMBOLS
                            *ABS*:00000000 pbuf.c
C:\Users\Luis\AppData\Local\Temp\cc1uv7VI.s:19     .text.osalSysHalt:00000000 $t
C:\Users\Luis\AppData\Local\Temp\cc1uv7VI.s:24     .text.osalSysHalt:00000000 osalSysHalt
C:\Users\Luis\AppData\Local\Temp\cc1uv7VI.s:55     .bss.pbuf_free_ooseq_pending:00000000 pbuf_free_ooseq_pending
C:\Users\Luis\AppData\Local\Temp\cc1uv7VI.s:56     .bss.pbuf_free_ooseq_pending:00000000 $d
C:\Users\Luis\AppData\Local\Temp\cc1uv7VI.s:58     .text.pbuf_free_ooseq:00000000 $t
C:\Users\Luis\AppData\Local\Temp\cc1uv7VI.s:63     .text.pbuf_free_ooseq:00000000 pbuf_free_ooseq
C:\Users\Luis\AppData\Local\Temp\cc1uv7VI.s:123    .text.pbuf_free_ooseq:00000040 $d
C:\Users\Luis\AppData\Local\Temp\cc1uv7VI.s:129    .text.pbuf_free_ooseq_callback:00000000 $t
C:\Users\Luis\AppData\Local\Temp\cc1uv7VI.s:134    .text.pbuf_free_ooseq_callback:00000000 pbuf_free_ooseq_callback
C:\Users\Luis\AppData\Local\Temp\cc1uv7VI.s:160    .text.pbuf_pool_is_empty:00000000 $t
C:\Users\Luis\AppData\Local\Temp\cc1uv7VI.s:165    .text.pbuf_pool_is_empty:00000000 pbuf_pool_is_empty
C:\Users\Luis\AppData\Local\Temp\cc1uv7VI.s:212    .text.pbuf_pool_is_empty:00000034 $d
C:\Users\Luis\AppData\Local\Temp\cc1uv7VI.s:218    .rodata:00000000 $d
C:\Users\Luis\AppData\Local\Temp\cc1uv7VI.s:244    .text.pbuf_alloc:00000000 $t
C:\Users\Luis\AppData\Local\Temp\cc1uv7VI.s:250    .text.pbuf_alloc:00000000 pbuf_alloc
C:\Users\Luis\AppData\Local\Temp\cc1uv7VI.s:278    .text.pbuf_alloc:00000020 $d
C:\Users\Luis\AppData\Local\Temp\cc1uv7VI.s:284    .text.pbuf_alloc:00000030 $t
C:\Users\Luis\AppData\Local\Temp\cc1uv7VI.s:322    .text.pbuf_alloc:00000060 $d
C:\Users\Luis\AppData\Local\Temp\cc1uv7VI.s:328    .text.pbuf_alloc:00000070 $t
C:\Users\Luis\AppData\Local\Temp\cc1uv7VI.s:1248   .text.pbuf_free:00000000 pbuf_free
C:\Users\Luis\AppData\Local\Temp\cc1uv7VI.s:666    .text.pbuf_alloc:0000029c $d
C:\Users\Luis\AppData\Local\Temp\cc1uv7VI.s:682    .text.pbuf_alloced_custom:00000000 $t
C:\Users\Luis\AppData\Local\Temp\cc1uv7VI.s:688    .text.pbuf_alloced_custom:00000000 pbuf_alloced_custom
C:\Users\Luis\AppData\Local\Temp\cc1uv7VI.s:717    .text.pbuf_alloced_custom:00000020 $d
C:\Users\Luis\AppData\Local\Temp\cc1uv7VI.s:723    .text.pbuf_alloced_custom:00000030 $t
C:\Users\Luis\AppData\Local\Temp\cc1uv7VI.s:821    .text.pbuf_alloced_custom:000000b8 $d
C:\Users\Luis\AppData\Local\Temp\cc1uv7VI.s:842    .text.pbuf_realloc:00000000 $t
C:\Users\Luis\AppData\Local\Temp\cc1uv7VI.s:848    .text.pbuf_realloc:00000000 pbuf_realloc
C:\Users\Luis\AppData\Local\Temp\cc1uv7VI.s:1026   .text.pbuf_realloc:0000010c $d
C:\Users\Luis\AppData\Local\Temp\cc1uv7VI.s:1045   .text.pbuf_header:00000000 $t
C:\Users\Luis\AppData\Local\Temp\cc1uv7VI.s:1051   .text.pbuf_header:00000000 pbuf_header
C:\Users\Luis\AppData\Local\Temp\cc1uv7VI.s:1225   .text.pbuf_header:000000f4 $d
C:\Users\Luis\AppData\Local\Temp\cc1uv7VI.s:1242   .text.pbuf_free:00000000 $t
C:\Users\Luis\AppData\Local\Temp\cc1uv7VI.s:1424   .text.pbuf_free:000000f0 $d
C:\Users\Luis\AppData\Local\Temp\cc1uv7VI.s:1432   .text.pbuf_clen:00000000 $t
C:\Users\Luis\AppData\Local\Temp\cc1uv7VI.s:1438   .text.pbuf_clen:00000000 pbuf_clen
C:\Users\Luis\AppData\Local\Temp\cc1uv7VI.s:1485   .text.pbuf_ref:00000000 $t
C:\Users\Luis\AppData\Local\Temp\cc1uv7VI.s:1491   .text.pbuf_ref:00000000 pbuf_ref
C:\Users\Luis\AppData\Local\Temp\cc1uv7VI.s:1539   .text.pbuf_cat:00000000 $t
C:\Users\Luis\AppData\Local\Temp\cc1uv7VI.s:1545   .text.pbuf_cat:00000000 pbuf_cat
C:\Users\Luis\AppData\Local\Temp\cc1uv7VI.s:1641   .text.pbuf_cat:00000080 $d
C:\Users\Luis\AppData\Local\Temp\cc1uv7VI.s:1648   .text.pbuf_chain:00000000 $t
C:\Users\Luis\AppData\Local\Temp\cc1uv7VI.s:1654   .text.pbuf_chain:00000000 pbuf_chain
C:\Users\Luis\AppData\Local\Temp\cc1uv7VI.s:1693   .text.pbuf_dechain:00000000 $t
C:\Users\Luis\AppData\Local\Temp\cc1uv7VI.s:1699   .text.pbuf_dechain:00000000 pbuf_dechain
C:\Users\Luis\AppData\Local\Temp\cc1uv7VI.s:1796   .text.pbuf_dechain:00000084 $d
C:\Users\Luis\AppData\Local\Temp\cc1uv7VI.s:1818   .text.pbuf_copy:00000000 $t
C:\Users\Luis\AppData\Local\Temp\cc1uv7VI.s:1824   .text.pbuf_copy:00000000 pbuf_copy
C:\Users\Luis\AppData\Local\Temp\cc1uv7VI.s:2039   .text.pbuf_copy:00000148 $d
C:\Users\Luis\AppData\Local\Temp\cc1uv7VI.s:2055   .text.pbuf_copy_partial:00000000 $t
C:\Users\Luis\AppData\Local\Temp\cc1uv7VI.s:2061   .text.pbuf_copy_partial:00000000 pbuf_copy_partial
C:\Users\Luis\AppData\Local\Temp\cc1uv7VI.s:2214   .text.pbuf_copy_partial:000000d0 $d
C:\Users\Luis\AppData\Local\Temp\cc1uv7VI.s:2233   .text.pbuf_take:00000000 $t
C:\Users\Luis\AppData\Local\Temp\cc1uv7VI.s:2239   .text.pbuf_take:00000000 pbuf_take
C:\Users\Luis\AppData\Local\Temp\cc1uv7VI.s:2385   .text.pbuf_take:000000c8 $d
ARM GAS  C:\Users\Luis\AppData\Local\Temp\cc1uv7VI.s 			page 141


C:\Users\Luis\AppData\Local\Temp\cc1uv7VI.s:2397   .text.pbuf_coalesce:00000000 $t
C:\Users\Luis\AppData\Local\Temp\cc1uv7VI.s:2403   .text.pbuf_coalesce:00000000 pbuf_coalesce
C:\Users\Luis\AppData\Local\Temp\cc1uv7VI.s:2475   .text.pbuf_coalesce:00000060 $d
C:\Users\Luis\AppData\Local\Temp\cc1uv7VI.s:2480   .text.pbuf_get_at:00000000 $t
C:\Users\Luis\AppData\Local\Temp\cc1uv7VI.s:2486   .text.pbuf_get_at:00000000 pbuf_get_at
C:\Users\Luis\AppData\Local\Temp\cc1uv7VI.s:2566   .text.pbuf_memcmp:00000000 $t
C:\Users\Luis\AppData\Local\Temp\cc1uv7VI.s:2572   .text.pbuf_memcmp:00000000 pbuf_memcmp
C:\Users\Luis\AppData\Local\Temp\cc1uv7VI.s:2695   .text.pbuf_memfind:00000000 $t
C:\Users\Luis\AppData\Local\Temp\cc1uv7VI.s:2701   .text.pbuf_memfind:00000000 pbuf_memfind
C:\Users\Luis\AppData\Local\Temp\cc1uv7VI.s:2783   .text.pbuf_strstr:00000000 $t
C:\Users\Luis\AppData\Local\Temp\cc1uv7VI.s:2789   .text.pbuf_strstr:00000000 pbuf_strstr
                     .debug_frame:00000010 $d
C:\Users\Luis\AppData\Local\Temp\cc1uv7VI.s:128    .text.pbuf_free_ooseq:00000048 $t
C:\Users\Luis\AppData\Local\Temp\cc1uv7VI.s:217    .text.pbuf_pool_is_empty:0000003c $t
C:\Users\Luis\AppData\Local\Temp\cc1uv7VI.s:677    .text.pbuf_alloc:000002bc $t
C:\Users\Luis\AppData\Local\Temp\cc1uv7VI.s:825    .text.pbuf_alloced_custom:000000bc $t
C:\Users\Luis\AppData\Local\Temp\cc1uv7VI.s:1647   .text.pbuf_cat:0000008c $t
C:\Users\Luis\AppData\Local\Temp\cc1uv7VI.s:1801   .text.pbuf_dechain:0000008c $t
C:\Users\Luis\AppData\Local\Temp\cc1uv7VI.s:2047   .text.pbuf_copy:0000015c $t
C:\Users\Luis\AppData\Local\Temp\cc1uv7VI.s:2219   .text.pbuf_copy_partial:000000d8 $t
C:\Users\Luis\AppData\Local\Temp\cc1uv7VI.s:2392   .text.pbuf_take:000000d8 $t
C:\Users\Luis\AppData\Local\Temp\cc1uv7VI.s:2479   .text.pbuf_coalesce:00000064 $t

UNDEFINED SYMBOLS
chSysHalt
tcp_segs_free
tcp_active_pcbs
tcpip_callback_with_block
memp_malloc
mem_malloc
mem_trim
memp_free
mem_free
memcpy
strlen
