ARM GAS  C:\Users\Luis\AppData\Local\Temp\cc1uv7VI.s 			page 1


   1              		.syntax unified
   2              		.cpu cortex-m4
   3              		.fpu softvfp
   4              		.eabi_attribute 20, 1
   5              		.eabi_attribute 21, 1
   6              		.eabi_attribute 23, 3
   7              		.eabi_attribute 24, 1
   8              		.eabi_attribute 25, 1
   9              		.eabi_attribute 26, 1
  10              		.eabi_attribute 30, 6
  11              		.eabi_attribute 34, 1
  12              		.eabi_attribute 18, 4
  13              		.thumb
  14              		.file	"pbuf.c"
  15              		.text
  16              	.Ltext0:
  17              		.cfi_sections	.debug_frame
  18              		.section	.text.osalSysHalt,"ax",%progbits
  19              		.align	2
  20              		.p2align 4,,15
  21              		.thumb
  22              		.thumb_func
  23              		.type	osalSysHalt, %function
  24              	osalSysHalt:
  25              	.LFB230:
  26              		.file 1 "../../ChibiOS/os/hal/osal/rt/osal.h"
  27              		.loc 1 460 0
  28              		.cfi_startproc
  29              		@ args = 0, pretend = 0, frame = 8
  30              		@ frame_needed = 1, uses_anonymous_args = 0
  31 0000 80B5     		push	{r7, lr}
  32              		.cfi_def_cfa_offset 8
  33              		.cfi_offset 7, -8
  34              		.cfi_offset 14, -4
  35 0002 82B0     		sub	sp, sp, #8
  36              		.cfi_def_cfa_offset 16
  37 0004 00AF     		add	r7, sp, #0
  38              		.cfi_def_cfa_register 7
  39 0006 7860     		str	r0, [r7, #4]
  40              		.loc 1 462 0
  41 0008 7868     		ldr	r0, [r7, #4]
  42 000a FFF7FEFF 		bl	chSysHalt
  43              		.loc 1 463 0
  44 000e 0837     		adds	r7, r7, #8
  45 0010 BD46     		mov	sp, r7
  46              		@ sp needed
  47 0012 80BD     		pop	{r7, pc}
  48              		.cfi_endproc
  49              	.LFE230:
  50              		.size	osalSysHalt, .-osalSysHalt
  51              		.global	pbuf_free_ooseq_pending
  52 0014 AFF30080 		.section	.bss.pbuf_free_ooseq_pending,"aw",%nobits
  52      AFF30080 
  52      AFF30080 
  53              		.type	pbuf_free_ooseq_pending, %object
  54              		.size	pbuf_free_ooseq_pending, 1
  55              	pbuf_free_ooseq_pending:
ARM GAS  C:\Users\Luis\AppData\Local\Temp\cc1uv7VI.s 			page 2


  56 0000 00       		.space	1
  57              		.section	.text.pbuf_free_ooseq,"ax",%progbits
  58              		.align	2
  59              		.p2align 4,,15
  60              		.thumb
  61              		.thumb_func
  62              		.type	pbuf_free_ooseq, %function
  63              	pbuf_free_ooseq:
  64              	.LFB260:
  65              		.file 2 "../../ChibiOS/ext/lwip/src/core/pbuf.c"
  66              		.loc 2 119 0
  67              		.cfi_startproc
  68              		@ args = 0, pretend = 0, frame = 8
  69              		@ frame_needed = 1, uses_anonymous_args = 0
  70 0000 80B5     		push	{r7, lr}
  71              		.cfi_def_cfa_offset 8
  72              		.cfi_offset 7, -8
  73              		.cfi_offset 14, -4
  74 0002 82B0     		sub	sp, sp, #8
  75              		.cfi_def_cfa_offset 16
  76 0004 00AF     		add	r7, sp, #0
  77              		.cfi_def_cfa_register 7
  78              		.loc 2 124 0
  79 0006 0E4B     		ldr	r3, .L7
  80 0008 0022     		movs	r2, #0
  81 000a 1A70     		strb	r2, [r3]
  82              		.loc 2 127 0
  83 000c 0D4B     		ldr	r3, .L7+4
  84 000e 1B68     		ldr	r3, [r3]
  85 0010 7B60     		str	r3, [r7, #4]
  86 0012 0FE0     		b	.L3
  87              	.L6:
  88              		.loc 2 128 0
  89 0014 7B68     		ldr	r3, [r7, #4]
  90 0016 5B6F     		ldr	r3, [r3, #116]
  91 0018 002B     		cmp	r3, #0
  92 001a 08D0     		beq	.L4
  93              		.loc 2 131 0
  94 001c 7B68     		ldr	r3, [r7, #4]
  95 001e 5B6F     		ldr	r3, [r3, #116]
  96 0020 1846     		mov	r0, r3
  97 0022 FFF7FEFF 		bl	tcp_segs_free
  98              		.loc 2 132 0
  99 0026 7B68     		ldr	r3, [r7, #4]
 100 0028 0022     		movs	r2, #0
 101 002a 5A67     		str	r2, [r3, #116]
 102              		.loc 2 133 0
 103 002c 05E0     		b	.L2
 104              	.L4:
 105              		.loc 2 127 0
 106 002e 7B68     		ldr	r3, [r7, #4]
 107 0030 DB68     		ldr	r3, [r3, #12]
 108 0032 7B60     		str	r3, [r7, #4]
 109              	.L3:
 110              		.loc 2 127 0 is_stmt 0 discriminator 1
 111 0034 7B68     		ldr	r3, [r7, #4]
 112 0036 002B     		cmp	r3, #0
ARM GAS  C:\Users\Luis\AppData\Local\Temp\cc1uv7VI.s 			page 3


 113 0038 ECD1     		bne	.L6
 114              	.L2:
 115              		.loc 2 136 0 is_stmt 1
 116 003a 0837     		adds	r7, r7, #8
 117 003c BD46     		mov	sp, r7
 118              		@ sp needed
 119 003e 80BD     		pop	{r7, pc}
 120              	.L8:
 121              		.align	2
 122              	.L7:
 123 0040 00000000 		.word	pbuf_free_ooseq_pending
 124 0044 00000000 		.word	tcp_active_pcbs
 125              		.cfi_endproc
 126              	.LFE260:
 127              		.size	pbuf_free_ooseq, .-pbuf_free_ooseq
 128 0048 AFF30080 		.section	.text.pbuf_free_ooseq_callback,"ax",%progbits
 128      AFF30080 
 129              		.align	2
 130              		.p2align 4,,15
 131              		.thumb
 132              		.thumb_func
 133              		.type	pbuf_free_ooseq_callback, %function
 134              	pbuf_free_ooseq_callback:
 135              	.LFB261:
 136              		.loc 2 144 0
 137              		.cfi_startproc
 138              		@ args = 0, pretend = 0, frame = 8
 139              		@ frame_needed = 1, uses_anonymous_args = 0
 140 0000 80B5     		push	{r7, lr}
 141              		.cfi_def_cfa_offset 8
 142              		.cfi_offset 7, -8
 143              		.cfi_offset 14, -4
 144 0002 82B0     		sub	sp, sp, #8
 145              		.cfi_def_cfa_offset 16
 146 0004 00AF     		add	r7, sp, #0
 147              		.cfi_def_cfa_register 7
 148 0006 7860     		str	r0, [r7, #4]
 149              		.loc 2 146 0
 150 0008 FFF7FEFF 		bl	pbuf_free_ooseq
 151              		.loc 2 147 0
 152 000c 0837     		adds	r7, r7, #8
 153 000e BD46     		mov	sp, r7
 154              		@ sp needed
 155 0010 80BD     		pop	{r7, pc}
 156              		.cfi_endproc
 157              	.LFE261:
 158              		.size	pbuf_free_ooseq_callback, .-pbuf_free_ooseq_callback
 159 0012 00BFAFF3 		.section	.text.pbuf_pool_is_empty,"ax",%progbits
 159      0080AFF3 
 159      0080AFF3 
 159      0080
 160              		.align	2
 161              		.p2align 4,,15
 162              		.thumb
 163              		.thumb_func
 164              		.type	pbuf_pool_is_empty, %function
 165              	pbuf_pool_is_empty:
ARM GAS  C:\Users\Luis\AppData\Local\Temp\cc1uv7VI.s 			page 4


 166              	.LFB262:
 167              		.loc 2 153 0
 168              		.cfi_startproc
 169              		@ args = 0, pretend = 0, frame = 8
 170              		@ frame_needed = 1, uses_anonymous_args = 0
 171 0000 80B5     		push	{r7, lr}
 172              		.cfi_def_cfa_offset 8
 173              		.cfi_offset 7, -8
 174              		.cfi_offset 14, -4
 175 0002 82B0     		sub	sp, sp, #8
 176              		.cfi_def_cfa_offset 16
 177 0004 00AF     		add	r7, sp, #0
 178              		.cfi_def_cfa_register 7
 179              		.loc 2 163 0
 180 0006 0B4B     		ldr	r3, .L12
 181 0008 1B78     		ldrb	r3, [r3]
 182 000a FB71     		strb	r3, [r7, #7]
 183              		.loc 2 164 0
 184 000c 094B     		ldr	r3, .L12
 185 000e 0122     		movs	r2, #1
 186 0010 1A70     		strb	r2, [r3]
 187              		.loc 2 167 0
 188 0012 FB79     		ldrb	r3, [r7, #7]	@ zero_extendqisi2
 189 0014 002B     		cmp	r3, #0
 190 0016 0AD1     		bne	.L10
 191              		.loc 2 169 0
 192 0018 0748     		ldr	r0, .L12+4
 193 001a 0021     		movs	r1, #0
 194 001c 0022     		movs	r2, #0
 195 001e FFF7FEFF 		bl	tcpip_callback_with_block
 196 0022 0346     		mov	r3, r0
 197 0024 002B     		cmp	r3, #0
 198 0026 02D0     		beq	.L10
 199              		.loc 2 169 0 is_stmt 0 discriminator 1
 200 0028 024B     		ldr	r3, .L12
 201 002a 0022     		movs	r2, #0
 202 002c 1A70     		strb	r2, [r3]
 203              	.L10:
 204              		.loc 2 172 0 is_stmt 1
 205 002e 0837     		adds	r7, r7, #8
 206 0030 BD46     		mov	sp, r7
 207              		@ sp needed
 208 0032 80BD     		pop	{r7, pc}
 209              	.L13:
 210              		.align	2
 211              	.L12:
 212 0034 00000000 		.word	pbuf_free_ooseq_pending
 213 0038 00000000 		.word	pbuf_free_ooseq_callback
 214              		.cfi_endproc
 215              	.LFE262:
 216              		.size	pbuf_pool_is_empty, .-pbuf_pool_is_empty
 217 003c AFF30080 		.section	.rodata
 218              		.align	2
 219              	.LC0:
 220 0000 70627566 		.ascii	"pbuf_alloc: bad pbuf layer\000"
 220      5F616C6C 
 220      6F633A20 
ARM GAS  C:\Users\Luis\AppData\Local\Temp\cc1uv7VI.s 			page 5


 220      62616420 
 220      70627566 
 221 001b 00       		.align	2
 222              	.LC1:
 223 001c 70627566 		.ascii	"pbuf_alloc: pbuf p->payload properly aligned\000"
 223      5F616C6C 
 223      6F633A20 
 223      70627566 
 223      20702D3E 
 224 0049 000000   		.align	2
 225              	.LC2:
 226 004c 63686563 		.ascii	"check p->payload + p->len does not overflow pbuf\000"
 226      6B20702D 
 226      3E706179 
 226      6C6F6164 
 226      202B2070 
 227 007d 000000   		.align	2
 228              	.LC3:
 229 0080 50425546 		.ascii	"PBUF_POOL_BUFSIZE must be bigger than MEM_ALIGNMENT"
 229      5F504F4F 
 229      4C5F4255 
 229      4653495A 
 229      45206D75 
 230 00b3 00       		.ascii	"\000"
 231              		.align	2
 232              	.LC4:
 233 00b4 72656D5F 		.ascii	"rem_len < max_u16_t\000"
 233      6C656E20 
 233      3C206D61 
 233      785F7531 
 233      365F7400 
 234              		.align	2
 235              	.LC5:
 236 00c8 70627566 		.ascii	"pbuf_alloc: pbuf q->payload properly aligned\000"
 236      5F616C6C 
 236      6F633A20 
 236      70627566 
 236      20712D3E 
 237 00f5 000000   		.align	2
 238              	.LC6:
 239 00f8 70627566 		.ascii	"pbuf_alloc: pbuf->payload properly aligned\000"
 239      5F616C6C 
 239      6F633A20 
 239      70627566 
 239      2D3E7061 
 240 0123 00       		.align	2
 241              	.LC7:
 242 0124 70627566 		.ascii	"pbuf_alloc: erroneous type\000"
 242      5F616C6C 
 242      6F633A20 
 242      6572726F 
 242      6E656F75 
 243              		.section	.text.pbuf_alloc,"ax",%progbits
 244              		.align	2
 245              		.p2align 4,,15
 246              		.global	pbuf_alloc
 247              		.thumb
ARM GAS  C:\Users\Luis\AppData\Local\Temp\cc1uv7VI.s 			page 6


 248              		.thumb_func
 249              		.type	pbuf_alloc, %function
 250              	pbuf_alloc:
 251              	.LFB263:
 252              		.loc 2 208 0
 253              		.cfi_startproc
 254              		@ args = 0, pretend = 0, frame = 32
 255              		@ frame_needed = 1, uses_anonymous_args = 0
 256 0000 80B5     		push	{r7, lr}
 257              		.cfi_def_cfa_offset 8
 258              		.cfi_offset 7, -8
 259              		.cfi_offset 14, -4
 260 0002 88B0     		sub	sp, sp, #32
 261              		.cfi_def_cfa_offset 40
 262 0004 00AF     		add	r7, sp, #0
 263              		.cfi_def_cfa_register 7
 264 0006 1346     		mov	r3, r2
 265 0008 0246     		mov	r2, r0
 266 000a FA71     		strb	r2, [r7, #7]
 267 000c 0A46     		mov	r2, r1	@ movhi
 268 000e BA80     		strh	r2, [r7, #4]	@ movhi
 269 0010 BB71     		strb	r3, [r7, #6]
 270              		.loc 2 215 0
 271 0012 FB79     		ldrb	r3, [r7, #7]	@ zero_extendqisi2
 272 0014 032B     		cmp	r3, #3
 273 0016 17D8     		bhi	.L15
 274 0018 01A2     		adr	r2, .L17
 275 001a 52F823F0 		ldr	pc, [r2, r3, lsl #2]
 276 001e 00BF     		.p2align 2
 277              	.L17:
 278 0020 31000000 		.word	.L16+1
 279 0024 37000000 		.word	.L18+1
 280 0028 3D000000 		.word	.L19+1
 281 002c 43000000 		.word	.L20+1
 282              	.L16:
 283              		.loc 2 218 0
 284 0030 3623     		movs	r3, #54
 285 0032 FB82     		strh	r3, [r7, #22]	@ movhi
 286              		.loc 2 219 0
 287 0034 0DE0     		b	.L21
 288              	.L18:
 289              		.loc 2 222 0
 290 0036 2223     		movs	r3, #34
 291 0038 FB82     		strh	r3, [r7, #22]	@ movhi
 292              		.loc 2 223 0
 293 003a 0AE0     		b	.L21
 294              	.L19:
 295              		.loc 2 226 0
 296 003c 0E23     		movs	r3, #14
 297 003e FB82     		strh	r3, [r7, #22]	@ movhi
 298              		.loc 2 227 0
 299 0040 07E0     		b	.L21
 300              	.L20:
 301              		.loc 2 229 0
 302 0042 0023     		movs	r3, #0
 303 0044 FB82     		strh	r3, [r7, #22]	@ movhi
 304              		.loc 2 230 0
ARM GAS  C:\Users\Luis\AppData\Local\Temp\cc1uv7VI.s 			page 7


 305 0046 04E0     		b	.L21
 306              	.L15:
 307              		.loc 2 232 0
 308 0048 9448     		ldr	r0, .L44
 309 004a FFF7FEFF 		bl	osalSysHalt
 310              		.loc 2 233 0
 311 004e 0023     		movs	r3, #0
 312 0050 1FE1     		b	.L22
 313              	.L21:
 314              		.loc 2 236 0
 315 0052 BB79     		ldrb	r3, [r7, #6]	@ zero_extendqisi2
 316 0054 032B     		cmp	r3, #3
 317 0056 00F21081 		bhi	.L23
 318 005a 01A2     		adr	r2, .L25
 319 005c 52F823F0 		ldr	pc, [r2, r3, lsl #2]
 320              		.p2align 2
 321              	.L25:
 322 0060 D5010000 		.word	.L24+1
 323 0064 47020000 		.word	.L26+1
 324 0068 47020000 		.word	.L26+1
 325 006c 71000000 		.word	.L27+1
 326              	.L27:
 327              		.loc 2 239 0
 328 0070 0D20     		movs	r0, #13
 329 0072 FFF7FEFF 		bl	memp_malloc
 330 0076 F861     		str	r0, [r7, #28]
 331              		.loc 2 241 0
 332 0078 FB69     		ldr	r3, [r7, #28]
 333 007a 002B     		cmp	r3, #0
 334 007c 03D1     		bne	.L28
 335              		.loc 2 242 0
 336 007e FFF7FEFF 		bl	pbuf_pool_is_empty
 337              		.loc 2 243 0
 338 0082 0023     		movs	r3, #0
 339 0084 05E1     		b	.L22
 340              	.L28:
 341              		.loc 2 245 0
 342 0086 FB69     		ldr	r3, [r7, #28]
 343 0088 BA79     		ldrb	r2, [r7, #6]
 344 008a 1A73     		strb	r2, [r3, #12]
 345              		.loc 2 246 0
 346 008c FB69     		ldr	r3, [r7, #28]
 347 008e 0022     		movs	r2, #0
 348 0090 1A60     		str	r2, [r3]
 349              		.loc 2 249 0
 350 0092 FB8A     		ldrh	r3, [r7, #22]
 351 0094 1033     		adds	r3, r3, #16
 352 0096 FA69     		ldr	r2, [r7, #28]
 353 0098 1344     		add	r3, r3, r2
 354 009a 0333     		adds	r3, r3, #3
 355 009c 23F00303 		bic	r3, r3, #3
 356 00a0 1A46     		mov	r2, r3
 357 00a2 FB69     		ldr	r3, [r7, #28]
 358 00a4 5A60     		str	r2, [r3, #4]
 359              		.loc 2 250 0
 360 00a6 FB69     		ldr	r3, [r7, #28]
 361 00a8 5B68     		ldr	r3, [r3, #4]
ARM GAS  C:\Users\Luis\AppData\Local\Temp\cc1uv7VI.s 			page 8


 362 00aa 03F00303 		and	r3, r3, #3
 363 00ae 002B     		cmp	r3, #0
 364 00b0 02D0     		beq	.L29
 365              		.loc 2 250 0 is_stmt 0 discriminator 1
 366 00b2 7B48     		ldr	r0, .L44+4
 367 00b4 FFF7FEFF 		bl	osalSysHalt
 368              	.L29:
 369              		.loc 2 253 0 is_stmt 1
 370 00b8 FB69     		ldr	r3, [r7, #28]
 371 00ba BA88     		ldrh	r2, [r7, #4]	@ movhi
 372 00bc 1A81     		strh	r2, [r3, #8]	@ movhi
 373              		.loc 2 255 0
 374 00be FB8A     		ldrh	r3, [r7, #22]
 375 00c0 0333     		adds	r3, r3, #3
 376 00c2 23F00303 		bic	r3, r3, #3
 377 00c6 C3F51472 		rsb	r2, r3, #592
 378 00ca BB88     		ldrh	r3, [r7, #4]
 379 00cc 9A42     		cmp	r2, r3
 380 00ce B8BF     		it	lt
 381 00d0 1346     		movlt	r3, r2
 382 00d2 9AB2     		uxth	r2, r3
 383 00d4 FB69     		ldr	r3, [r7, #28]
 384 00d6 5A81     		strh	r2, [r3, #10]	@ movhi
 385              		.loc 2 256 0
 386 00d8 FB69     		ldr	r3, [r7, #28]
 387 00da 5A68     		ldr	r2, [r3, #4]
 388 00dc FB69     		ldr	r3, [r7, #28]
 389 00de 5B89     		ldrh	r3, [r3, #10]
 390 00e0 1A44     		add	r2, r2, r3
 391 00e2 FB69     		ldr	r3, [r7, #28]
 392 00e4 03F51873 		add	r3, r3, #608
 393 00e8 9A42     		cmp	r2, r3
 394 00ea 02D9     		bls	.L30
 395              		.loc 2 256 0 is_stmt 0 discriminator 1
 396 00ec 6D48     		ldr	r0, .L44+8
 397 00ee FFF7FEFF 		bl	osalSysHalt
 398              	.L30:
 399              		.loc 2 259 0 is_stmt 1
 400 00f2 FB8A     		ldrh	r3, [r7, #22]
 401 00f4 0333     		adds	r3, r3, #3
 402 00f6 23F00303 		bic	r3, r3, #3
 403 00fa C3F51473 		rsb	r3, r3, #592
 404 00fe 002B     		cmp	r3, #0
 405 0100 02DC     		bgt	.L31
 406              		.loc 2 259 0 is_stmt 0 discriminator 1
 407 0102 6948     		ldr	r0, .L44+12
 408 0104 FFF7FEFF 		bl	osalSysHalt
 409              	.L31:
 410              		.loc 2 262 0 is_stmt 1
 411 0108 FB69     		ldr	r3, [r7, #28]
 412 010a 0122     		movs	r2, #1
 413 010c DA81     		strh	r2, [r3, #14]	@ movhi
 414              		.loc 2 267 0
 415 010e FB69     		ldr	r3, [r7, #28]
 416 0110 BB61     		str	r3, [r7, #24]
 417              		.loc 2 269 0
 418 0112 BA88     		ldrh	r2, [r7, #4]
ARM GAS  C:\Users\Luis\AppData\Local\Temp\cc1uv7VI.s 			page 9


 419 0114 FB69     		ldr	r3, [r7, #28]
 420 0116 5B89     		ldrh	r3, [r3, #10]
 421 0118 D31A     		subs	r3, r2, r3
 422 011a 3B61     		str	r3, [r7, #16]
 423              		.loc 2 271 0
 424 011c 56E0     		b	.L32
 425              	.L39:
 426              		.loc 2 272 0
 427 011e 0D20     		movs	r0, #13
 428 0120 FFF7FEFF 		bl	memp_malloc
 429 0124 F860     		str	r0, [r7, #12]
 430              		.loc 2 273 0
 431 0126 FB68     		ldr	r3, [r7, #12]
 432 0128 002B     		cmp	r3, #0
 433 012a 06D1     		bne	.L33
 434              		.loc 2 274 0
 435 012c FFF7FEFF 		bl	pbuf_pool_is_empty
 436              		.loc 2 276 0
 437 0130 F869     		ldr	r0, [r7, #28]
 438 0132 FFF7FEFF 		bl	pbuf_free
 439              		.loc 2 278 0
 440 0136 0023     		movs	r3, #0
 441 0138 ABE0     		b	.L22
 442              	.L33:
 443              		.loc 2 280 0
 444 013a FB68     		ldr	r3, [r7, #12]
 445 013c BA79     		ldrb	r2, [r7, #6]
 446 013e 1A73     		strb	r2, [r3, #12]
 447              		.loc 2 281 0
 448 0140 FB68     		ldr	r3, [r7, #12]
 449 0142 0022     		movs	r2, #0
 450 0144 5A73     		strb	r2, [r3, #13]
 451              		.loc 2 282 0
 452 0146 FB68     		ldr	r3, [r7, #12]
 453 0148 0022     		movs	r2, #0
 454 014a 1A60     		str	r2, [r3]
 455              		.loc 2 284 0
 456 014c BB69     		ldr	r3, [r7, #24]
 457 014e FA68     		ldr	r2, [r7, #12]
 458 0150 1A60     		str	r2, [r3]
 459              		.loc 2 286 0
 460 0152 3A69     		ldr	r2, [r7, #16]
 461 0154 4FF6FE73 		movw	r3, #65534
 462 0158 9A42     		cmp	r2, r3
 463 015a 02DD     		ble	.L34
 464              		.loc 2 286 0 is_stmt 0 discriminator 1
 465 015c 5348     		ldr	r0, .L44+16
 466 015e FFF7FEFF 		bl	osalSysHalt
 467              	.L34:
 468              		.loc 2 287 0 is_stmt 1
 469 0162 3B69     		ldr	r3, [r7, #16]
 470 0164 9AB2     		uxth	r2, r3
 471 0166 FB68     		ldr	r3, [r7, #12]
 472 0168 1A81     		strh	r2, [r3, #8]	@ movhi
 473              		.loc 2 289 0
 474 016a 3B69     		ldr	r3, [r7, #16]
 475 016c 9BB2     		uxth	r3, r3
ARM GAS  C:\Users\Luis\AppData\Local\Temp\cc1uv7VI.s 			page 10


 476 016e B3F5147F 		cmp	r3, #592
 477 0172 02D2     		bcs	.L35
 478              		.loc 2 289 0 is_stmt 0 discriminator 1
 479 0174 3B69     		ldr	r3, [r7, #16]
 480 0176 9BB2     		uxth	r3, r3
 481 0178 01E0     		b	.L36
 482              	.L35:
 483              		.loc 2 289 0 discriminator 2
 484 017a 4FF41473 		mov	r3, #592
 485              	.L36:
 486              		.loc 2 289 0 discriminator 3
 487 017e FA68     		ldr	r2, [r7, #12]
 488 0180 5381     		strh	r3, [r2, #10]	@ movhi
 489              		.loc 2 290 0 is_stmt 1 discriminator 3
 490 0182 FB68     		ldr	r3, [r7, #12]
 491 0184 03F11002 		add	r2, r3, #16
 492 0188 FB68     		ldr	r3, [r7, #12]
 493 018a 5A60     		str	r2, [r3, #4]
 494              		.loc 2 291 0 discriminator 3
 495 018c FB68     		ldr	r3, [r7, #12]
 496 018e 5B68     		ldr	r3, [r3, #4]
 497 0190 03F00303 		and	r3, r3, #3
 498 0194 002B     		cmp	r3, #0
 499 0196 02D0     		beq	.L37
 500              		.loc 2 291 0 is_stmt 0 discriminator 1
 501 0198 4548     		ldr	r0, .L44+20
 502 019a FFF7FEFF 		bl	osalSysHalt
 503              	.L37:
 504              		.loc 2 293 0 is_stmt 1
 505 019e FB69     		ldr	r3, [r7, #28]
 506 01a0 5A68     		ldr	r2, [r3, #4]
 507 01a2 FB69     		ldr	r3, [r7, #28]
 508 01a4 5B89     		ldrh	r3, [r3, #10]
 509 01a6 1A44     		add	r2, r2, r3
 510 01a8 FB69     		ldr	r3, [r7, #28]
 511 01aa 03F51873 		add	r3, r3, #608
 512 01ae 9A42     		cmp	r2, r3
 513 01b0 02D9     		bls	.L38
 514              		.loc 2 293 0 is_stmt 0 discriminator 1
 515 01b2 3C48     		ldr	r0, .L44+8
 516 01b4 FFF7FEFF 		bl	osalSysHalt
 517              	.L38:
 518              		.loc 2 296 0 is_stmt 1
 519 01b8 FB68     		ldr	r3, [r7, #12]
 520 01ba 0122     		movs	r2, #1
 521 01bc DA81     		strh	r2, [r3, #14]	@ movhi
 522              		.loc 2 298 0
 523 01be FB68     		ldr	r3, [r7, #12]
 524 01c0 5B89     		ldrh	r3, [r3, #10]
 525 01c2 3A69     		ldr	r2, [r7, #16]
 526 01c4 D31A     		subs	r3, r2, r3
 527 01c6 3B61     		str	r3, [r7, #16]
 528              		.loc 2 300 0
 529 01c8 FB68     		ldr	r3, [r7, #12]
 530 01ca BB61     		str	r3, [r7, #24]
 531              	.L32:
 532              		.loc 2 271 0 discriminator 1
ARM GAS  C:\Users\Luis\AppData\Local\Temp\cc1uv7VI.s 			page 11


 533 01cc 3B69     		ldr	r3, [r7, #16]
 534 01ce 002B     		cmp	r3, #0
 535 01d0 A5DC     		bgt	.L39
 536              		.loc 2 305 0
 537 01d2 57E0     		b	.L40
 538              	.L24:
 539              		.loc 2 308 0
 540 01d4 FB8A     		ldrh	r3, [r7, #22]	@ movhi
 541 01d6 1333     		adds	r3, r3, #19
 542 01d8 9BB2     		uxth	r3, r3
 543 01da 23F00303 		bic	r3, r3, #3
 544 01de 9AB2     		uxth	r2, r3
 545 01e0 BB88     		ldrh	r3, [r7, #4]	@ movhi
 546 01e2 0333     		adds	r3, r3, #3
 547 01e4 9BB2     		uxth	r3, r3
 548 01e6 23F00303 		bic	r3, r3, #3
 549 01ea 9BB2     		uxth	r3, r3
 550 01ec 1344     		add	r3, r3, r2
 551 01ee 9BB2     		uxth	r3, r3
 552 01f0 1846     		mov	r0, r3
 553 01f2 FFF7FEFF 		bl	mem_malloc
 554 01f6 F861     		str	r0, [r7, #28]
 555              		.loc 2 309 0
 556 01f8 FB69     		ldr	r3, [r7, #28]
 557 01fa 002B     		cmp	r3, #0
 558 01fc 01D1     		bne	.L41
 559              		.loc 2 310 0
 560 01fe 0023     		movs	r3, #0
 561 0200 47E0     		b	.L22
 562              	.L41:
 563              		.loc 2 313 0
 564 0202 FB8A     		ldrh	r3, [r7, #22]
 565 0204 1033     		adds	r3, r3, #16
 566 0206 FA69     		ldr	r2, [r7, #28]
 567 0208 1344     		add	r3, r3, r2
 568 020a 0333     		adds	r3, r3, #3
 569 020c 23F00303 		bic	r3, r3, #3
 570 0210 1A46     		mov	r2, r3
 571 0212 FB69     		ldr	r3, [r7, #28]
 572 0214 5A60     		str	r2, [r3, #4]
 573              		.loc 2 314 0
 574 0216 FB69     		ldr	r3, [r7, #28]
 575 0218 BA88     		ldrh	r2, [r7, #4]	@ movhi
 576 021a 1A81     		strh	r2, [r3, #8]	@ movhi
 577 021c FB69     		ldr	r3, [r7, #28]
 578 021e 1A89     		ldrh	r2, [r3, #8]
 579 0220 FB69     		ldr	r3, [r7, #28]
 580 0222 5A81     		strh	r2, [r3, #10]	@ movhi
 581              		.loc 2 315 0
 582 0224 FB69     		ldr	r3, [r7, #28]
 583 0226 0022     		movs	r2, #0
 584 0228 1A60     		str	r2, [r3]
 585              		.loc 2 316 0
 586 022a FB69     		ldr	r3, [r7, #28]
 587 022c BA79     		ldrb	r2, [r7, #6]
 588 022e 1A73     		strb	r2, [r3, #12]
 589              		.loc 2 318 0
ARM GAS  C:\Users\Luis\AppData\Local\Temp\cc1uv7VI.s 			page 12


 590 0230 FB69     		ldr	r3, [r7, #28]
 591 0232 5B68     		ldr	r3, [r3, #4]
 592 0234 03F00303 		and	r3, r3, #3
 593 0238 002B     		cmp	r3, #0
 594 023a 03D0     		beq	.L42
 595              		.loc 2 318 0 is_stmt 0 discriminator 1
 596 023c 1D48     		ldr	r0, .L44+24
 597 023e FFF7FEFF 		bl	osalSysHalt
 598              		.loc 2 320 0 is_stmt 1 discriminator 1
 599 0242 1FE0     		b	.L40
 600              	.L42:
 601              		.loc 2 320 0 is_stmt 0
 602 0244 1EE0     		b	.L40
 603              	.L26:
 604              		.loc 2 326 0 is_stmt 1
 605 0246 0C20     		movs	r0, #12
 606 0248 FFF7FEFF 		bl	memp_malloc
 607 024c F861     		str	r0, [r7, #28]
 608              		.loc 2 327 0
 609 024e FB69     		ldr	r3, [r7, #28]
 610 0250 002B     		cmp	r3, #0
 611 0252 01D1     		bne	.L43
 612              		.loc 2 331 0
 613 0254 0023     		movs	r3, #0
 614 0256 1CE0     		b	.L22
 615              	.L43:
 616              		.loc 2 334 0
 617 0258 FB69     		ldr	r3, [r7, #28]
 618 025a 0022     		movs	r2, #0
 619 025c 5A60     		str	r2, [r3, #4]
 620              		.loc 2 335 0
 621 025e FB69     		ldr	r3, [r7, #28]
 622 0260 BA88     		ldrh	r2, [r7, #4]	@ movhi
 623 0262 1A81     		strh	r2, [r3, #8]	@ movhi
 624 0264 FB69     		ldr	r3, [r7, #28]
 625 0266 1A89     		ldrh	r2, [r3, #8]
 626 0268 FB69     		ldr	r3, [r7, #28]
 627 026a 5A81     		strh	r2, [r3, #10]	@ movhi
 628              		.loc 2 336 0
 629 026c FB69     		ldr	r3, [r7, #28]
 630 026e 0022     		movs	r2, #0
 631 0270 1A60     		str	r2, [r3]
 632              		.loc 2 337 0
 633 0272 FB69     		ldr	r3, [r7, #28]
 634 0274 BA79     		ldrb	r2, [r7, #6]
 635 0276 1A73     		strb	r2, [r3, #12]
 636              		.loc 2 338 0
 637 0278 04E0     		b	.L40
 638              	.L23:
 639              		.loc 2 340 0
 640 027a 0F48     		ldr	r0, .L44+28
 641 027c FFF7FEFF 		bl	osalSysHalt
 642              		.loc 2 341 0
 643 0280 0023     		movs	r3, #0
 644 0282 06E0     		b	.L22
 645              	.L40:
 646              		.loc 2 344 0
ARM GAS  C:\Users\Luis\AppData\Local\Temp\cc1uv7VI.s 			page 13


 647 0284 FB69     		ldr	r3, [r7, #28]
 648 0286 0122     		movs	r2, #1
 649 0288 DA81     		strh	r2, [r3, #14]	@ movhi
 650              		.loc 2 346 0
 651 028a FB69     		ldr	r3, [r7, #28]
 652 028c 0022     		movs	r2, #0
 653 028e 5A73     		strb	r2, [r3, #13]
 654              		.loc 2 348 0
 655 0290 FB69     		ldr	r3, [r7, #28]
 656              	.L22:
 657              		.loc 2 349 0
 658 0292 1846     		mov	r0, r3
 659 0294 2037     		adds	r7, r7, #32
 660 0296 BD46     		mov	sp, r7
 661              		@ sp needed
 662 0298 80BD     		pop	{r7, pc}
 663              	.L45:
 664 029a 00BF     		.align	2
 665              	.L44:
 666 029c 00000000 		.word	.LC0
 667 02a0 1C000000 		.word	.LC1
 668 02a4 4C000000 		.word	.LC2
 669 02a8 80000000 		.word	.LC3
 670 02ac B4000000 		.word	.LC4
 671 02b0 C8000000 		.word	.LC5
 672 02b4 F8000000 		.word	.LC6
 673 02b8 24010000 		.word	.LC7
 674              		.cfi_endproc
 675              	.LFE263:
 676              		.size	pbuf_alloc, .-pbuf_alloc
 677 02bc AFF30080 		.section	.rodata
 678 013f 00       		.align	2
 679              	.LC8:
 680 0140 70627566 		.ascii	"pbuf_alloced_custom: bad pbuf layer\000"
 680      5F616C6C 
 680      6F636564 
 680      5F637573 
 680      746F6D3A 
 681              		.section	.text.pbuf_alloced_custom,"ax",%progbits
 682              		.align	2
 683              		.p2align 4,,15
 684              		.global	pbuf_alloced_custom
 685              		.thumb
 686              		.thumb_func
 687              		.type	pbuf_alloced_custom, %function
 688              	pbuf_alloced_custom:
 689              	.LFB264:
 690              		.loc 2 369 0
 691              		.cfi_startproc
 692              		@ args = 8, pretend = 0, frame = 16
 693              		@ frame_needed = 1, uses_anonymous_args = 0
 694 0000 80B5     		push	{r7, lr}
 695              		.cfi_def_cfa_offset 8
 696              		.cfi_offset 7, -8
 697              		.cfi_offset 14, -4
 698 0002 84B0     		sub	sp, sp, #16
 699              		.cfi_def_cfa_offset 24
ARM GAS  C:\Users\Luis\AppData\Local\Temp\cc1uv7VI.s 			page 14


 700 0004 00AF     		add	r7, sp, #0
 701              		.cfi_def_cfa_register 7
 702 0006 3B60     		str	r3, [r7]
 703 0008 0346     		mov	r3, r0
 704 000a FB71     		strb	r3, [r7, #7]
 705 000c 0B46     		mov	r3, r1	@ movhi
 706 000e BB80     		strh	r3, [r7, #4]	@ movhi
 707 0010 1346     		mov	r3, r2
 708 0012 BB71     		strb	r3, [r7, #6]
 709              		.loc 2 374 0
 710 0014 FB79     		ldrb	r3, [r7, #7]	@ zero_extendqisi2
 711 0016 032B     		cmp	r3, #3
 712 0018 16D8     		bhi	.L47
 713 001a 01A2     		adr	r2, .L49
 714 001c 52F823F0 		ldr	pc, [r2, r3, lsl #2]
 715              		.p2align 2
 716              	.L49:
 717 0020 31000000 		.word	.L48+1
 718 0024 37000000 		.word	.L50+1
 719 0028 3D000000 		.word	.L51+1
 720 002c 43000000 		.word	.L52+1
 721              	.L48:
 722              		.loc 2 377 0
 723 0030 3623     		movs	r3, #54
 724 0032 FB81     		strh	r3, [r7, #14]	@ movhi
 725              		.loc 2 378 0
 726 0034 0DE0     		b	.L53
 727              	.L50:
 728              		.loc 2 381 0
 729 0036 2223     		movs	r3, #34
 730 0038 FB81     		strh	r3, [r7, #14]	@ movhi
 731              		.loc 2 382 0
 732 003a 0AE0     		b	.L53
 733              	.L51:
 734              		.loc 2 385 0
 735 003c 0E23     		movs	r3, #14
 736 003e FB81     		strh	r3, [r7, #14]	@ movhi
 737              		.loc 2 386 0
 738 0040 07E0     		b	.L53
 739              	.L52:
 740              		.loc 2 388 0
 741 0042 0023     		movs	r3, #0
 742 0044 FB81     		strh	r3, [r7, #14]	@ movhi
 743              		.loc 2 389 0
 744 0046 04E0     		b	.L53
 745              	.L47:
 746              		.loc 2 391 0
 747 0048 1B48     		ldr	r0, .L58
 748 004a FFF7FEFF 		bl	osalSysHalt
 749              		.loc 2 392 0
 750 004e 0023     		movs	r3, #0
 751 0050 2DE0     		b	.L54
 752              	.L53:
 753              		.loc 2 395 0
 754 0052 FB89     		ldrh	r3, [r7, #14]
 755 0054 0333     		adds	r3, r3, #3
 756 0056 23F00302 		bic	r2, r3, #3
ARM GAS  C:\Users\Luis\AppData\Local\Temp\cc1uv7VI.s 			page 15


 757 005a BB88     		ldrh	r3, [r7, #4]
 758 005c 1A44     		add	r2, r2, r3
 759 005e BB8B     		ldrh	r3, [r7, #28]
 760 0060 9A42     		cmp	r2, r3
 761 0062 01DD     		ble	.L55
 762              		.loc 2 397 0
 763 0064 0023     		movs	r3, #0
 764 0066 22E0     		b	.L54
 765              	.L55:
 766              		.loc 2 400 0
 767 0068 3B68     		ldr	r3, [r7]
 768 006a 0022     		movs	r2, #0
 769 006c 1A60     		str	r2, [r3]
 770              		.loc 2 401 0
 771 006e BB69     		ldr	r3, [r7, #24]
 772 0070 002B     		cmp	r3, #0
 773 0072 08D0     		beq	.L56
 774              		.loc 2 402 0
 775 0074 FB89     		ldrh	r3, [r7, #14]
 776 0076 0333     		adds	r3, r3, #3
 777 0078 23F00303 		bic	r3, r3, #3
 778 007c BA69     		ldr	r2, [r7, #24]
 779 007e 1A44     		add	r2, r2, r3
 780 0080 3B68     		ldr	r3, [r7]
 781 0082 5A60     		str	r2, [r3, #4]
 782 0084 02E0     		b	.L57
 783              	.L56:
 784              		.loc 2 404 0
 785 0086 3B68     		ldr	r3, [r7]
 786 0088 0022     		movs	r2, #0
 787 008a 5A60     		str	r2, [r3, #4]
 788              	.L57:
 789              		.loc 2 406 0
 790 008c 3B68     		ldr	r3, [r7]
 791 008e 0222     		movs	r2, #2
 792 0090 5A73     		strb	r2, [r3, #13]
 793              		.loc 2 407 0
 794 0092 3B68     		ldr	r3, [r7]
 795 0094 BA88     		ldrh	r2, [r7, #4]	@ movhi
 796 0096 1A81     		strh	r2, [r3, #8]	@ movhi
 797 0098 3B68     		ldr	r3, [r7]
 798 009a 1A89     		ldrh	r2, [r3, #8]
 799 009c 3B68     		ldr	r3, [r7]
 800 009e 5A81     		strh	r2, [r3, #10]	@ movhi
 801              		.loc 2 408 0
 802 00a0 3B68     		ldr	r3, [r7]
 803 00a2 BA79     		ldrb	r2, [r7, #6]
 804 00a4 1A73     		strb	r2, [r3, #12]
 805              		.loc 2 409 0
 806 00a6 3B68     		ldr	r3, [r7]
 807 00a8 0122     		movs	r2, #1
 808 00aa DA81     		strh	r2, [r3, #14]	@ movhi
 809              		.loc 2 410 0
 810 00ac 3B68     		ldr	r3, [r7]
 811              	.L54:
 812              		.loc 2 411 0
 813 00ae 1846     		mov	r0, r3
ARM GAS  C:\Users\Luis\AppData\Local\Temp\cc1uv7VI.s 			page 16


 814 00b0 1037     		adds	r7, r7, #16
 815 00b2 BD46     		mov	sp, r7
 816              		@ sp needed
 817 00b4 80BD     		pop	{r7, pc}
 818              	.L59:
 819 00b6 00BF     		.align	2
 820              	.L58:
 821 00b8 40010000 		.word	.LC8
 822              		.cfi_endproc
 823              	.LFE264:
 824              		.size	pbuf_alloced_custom, .-pbuf_alloced_custom
 825 00bc AFF30080 		.section	.rodata
 826              		.align	2
 827              	.LC9:
 828 0164 70627566 		.ascii	"pbuf_realloc: p != NULL\000"
 828      5F726561 
 828      6C6C6F63 
 828      3A207020 
 828      213D204E 
 829              		.align	2
 830              	.LC10:
 831 017c 70627566 		.ascii	"pbuf_realloc: sane p->type\000"
 831      5F726561 
 831      6C6C6F63 
 831      3A207361 
 831      6E652070 
 832 0197 00       		.align	2
 833              	.LC11:
 834 0198 67726F77 		.ascii	"grow < max_u16_t\000"
 834      203C206D 
 834      61785F75 
 834      31365F74 
 834      00
 835 01a9 000000   		.align	2
 836              	.LC12:
 837 01ac 70627566 		.ascii	"pbuf_realloc: q != NULL\000"
 837      5F726561 
 837      6C6C6F63 
 837      3A207120 
 837      213D204E 
 838              		.align	2
 839              	.LC13:
 840 01c4 6D656D5F 		.ascii	"mem_trim returned q == NULL\000"
 840      7472696D 
 840      20726574 
 840      75726E65 
 840      64207120 
 841              		.section	.text.pbuf_realloc,"ax",%progbits
 842              		.align	2
 843              		.p2align 4,,15
 844              		.global	pbuf_realloc
 845              		.thumb
 846              		.thumb_func
 847              		.type	pbuf_realloc, %function
 848              	pbuf_realloc:
 849              	.LFB265:
 850              		.loc 2 431 0
ARM GAS  C:\Users\Luis\AppData\Local\Temp\cc1uv7VI.s 			page 17


 851              		.cfi_startproc
 852              		@ args = 0, pretend = 0, frame = 24
 853              		@ frame_needed = 1, uses_anonymous_args = 0
 854 0000 80B5     		push	{r7, lr}
 855              		.cfi_def_cfa_offset 8
 856              		.cfi_offset 7, -8
 857              		.cfi_offset 14, -4
 858 0002 86B0     		sub	sp, sp, #24
 859              		.cfi_def_cfa_offset 32
 860 0004 00AF     		add	r7, sp, #0
 861              		.cfi_def_cfa_register 7
 862 0006 7860     		str	r0, [r7, #4]
 863 0008 0B46     		mov	r3, r1
 864 000a 7B80     		strh	r3, [r7, #2]	@ movhi
 865              		.loc 2 436 0
 866 000c 7B68     		ldr	r3, [r7, #4]
 867 000e 002B     		cmp	r3, #0
 868 0010 02D1     		bne	.L61
 869              		.loc 2 436 0 is_stmt 0 discriminator 1
 870 0012 3E48     		ldr	r0, .L70
 871 0014 FFF7FEFF 		bl	osalSysHalt
 872              	.L61:
 873              		.loc 2 437 0 is_stmt 1
 874 0018 7B68     		ldr	r3, [r7, #4]
 875 001a 1B7B     		ldrb	r3, [r3, #12]	@ zero_extendqisi2
 876 001c 032B     		cmp	r3, #3
 877 001e 0ED0     		beq	.L62
 878              		.loc 2 437 0 is_stmt 0 discriminator 1
 879 0020 7B68     		ldr	r3, [r7, #4]
 880 0022 1B7B     		ldrb	r3, [r3, #12]	@ zero_extendqisi2
 881 0024 012B     		cmp	r3, #1
 882 0026 0AD0     		beq	.L62
 883 0028 7B68     		ldr	r3, [r7, #4]
 884 002a 1B7B     		ldrb	r3, [r3, #12]	@ zero_extendqisi2
 885 002c 002B     		cmp	r3, #0
 886 002e 06D0     		beq	.L62
 887 0030 7B68     		ldr	r3, [r7, #4]
 888 0032 1B7B     		ldrb	r3, [r3, #12]	@ zero_extendqisi2
 889 0034 022B     		cmp	r3, #2
 890 0036 02D0     		beq	.L62
 891 0038 3548     		ldr	r0, .L70+4
 892 003a FFF7FEFF 		bl	osalSysHalt
 893              	.L62:
 894              		.loc 2 443 0 is_stmt 1
 895 003e 7B68     		ldr	r3, [r7, #4]
 896 0040 1B89     		ldrh	r3, [r3, #8]
 897 0042 7A88     		ldrh	r2, [r7, #2]
 898 0044 9A42     		cmp	r2, r3
 899 0046 00D3     		bcc	.L63
 900              		.loc 2 445 0
 901 0048 5CE0     		b	.L60
 902              	.L63:
 903              		.loc 2 450 0
 904 004a 7A88     		ldrh	r2, [r7, #2]
 905 004c 7B68     		ldr	r3, [r7, #4]
 906 004e 1B89     		ldrh	r3, [r3, #8]
 907 0050 D31A     		subs	r3, r2, r3
ARM GAS  C:\Users\Luis\AppData\Local\Temp\cc1uv7VI.s 			page 18


 908 0052 FB60     		str	r3, [r7, #12]
 909              		.loc 2 453 0
 910 0054 7B88     		ldrh	r3, [r7, #2]	@ movhi
 911 0056 7B82     		strh	r3, [r7, #18]	@ movhi
 912              		.loc 2 454 0
 913 0058 7B68     		ldr	r3, [r7, #4]
 914 005a 7B61     		str	r3, [r7, #20]
 915              		.loc 2 456 0
 916 005c 1DE0     		b	.L65
 917              	.L67:
 918              		.loc 2 458 0
 919 005e 7B69     		ldr	r3, [r7, #20]
 920 0060 5B89     		ldrh	r3, [r3, #10]
 921 0062 7A8A     		ldrh	r2, [r7, #18]	@ movhi
 922 0064 D31A     		subs	r3, r2, r3
 923 0066 7B82     		strh	r3, [r7, #18]	@ movhi
 924              		.loc 2 460 0
 925 0068 FA68     		ldr	r2, [r7, #12]
 926 006a 4FF6FE73 		movw	r3, #65534
 927 006e 9A42     		cmp	r2, r3
 928 0070 02DD     		ble	.L66
 929              		.loc 2 460 0 is_stmt 0 discriminator 1
 930 0072 2848     		ldr	r0, .L70+8
 931 0074 FFF7FEFF 		bl	osalSysHalt
 932              	.L66:
 933              		.loc 2 461 0 is_stmt 1
 934 0078 7B69     		ldr	r3, [r7, #20]
 935 007a 1A89     		ldrh	r2, [r3, #8]
 936 007c FB68     		ldr	r3, [r7, #12]
 937 007e 9BB2     		uxth	r3, r3
 938 0080 1344     		add	r3, r3, r2
 939 0082 9AB2     		uxth	r2, r3
 940 0084 7B69     		ldr	r3, [r7, #20]
 941 0086 1A81     		strh	r2, [r3, #8]	@ movhi
 942              		.loc 2 463 0
 943 0088 7B69     		ldr	r3, [r7, #20]
 944 008a 1B68     		ldr	r3, [r3]
 945 008c 7B61     		str	r3, [r7, #20]
 946              		.loc 2 464 0
 947 008e 7B69     		ldr	r3, [r7, #20]
 948 0090 002B     		cmp	r3, #0
 949 0092 02D1     		bne	.L65
 950              		.loc 2 464 0 is_stmt 0 discriminator 1
 951 0094 2048     		ldr	r0, .L70+12
 952 0096 FFF7FEFF 		bl	osalSysHalt
 953              	.L65:
 954              		.loc 2 456 0 is_stmt 1 discriminator 1
 955 009a 7B69     		ldr	r3, [r7, #20]
 956 009c 5B89     		ldrh	r3, [r3, #10]
 957 009e 7A8A     		ldrh	r2, [r7, #18]
 958 00a0 9A42     		cmp	r2, r3
 959 00a2 DCD8     		bhi	.L67
 960              		.loc 2 471 0
 961 00a4 7B69     		ldr	r3, [r7, #20]
 962 00a6 1B7B     		ldrb	r3, [r3, #12]	@ zero_extendqisi2
 963 00a8 002B     		cmp	r3, #0
 964 00aa 18D1     		bne	.L68
ARM GAS  C:\Users\Luis\AppData\Local\Temp\cc1uv7VI.s 			page 19


 965              		.loc 2 471 0 is_stmt 0 discriminator 1
 966 00ac 7B69     		ldr	r3, [r7, #20]
 967 00ae 5B89     		ldrh	r3, [r3, #10]
 968 00b0 7A8A     		ldrh	r2, [r7, #18]
 969 00b2 9A42     		cmp	r2, r3
 970 00b4 13D0     		beq	.L68
 971              		.loc 2 473 0 is_stmt 1
 972 00b6 7B69     		ldr	r3, [r7, #20]
 973 00b8 5B68     		ldr	r3, [r3, #4]
 974 00ba 1A46     		mov	r2, r3
 975 00bc 7B69     		ldr	r3, [r7, #20]
 976 00be D31A     		subs	r3, r2, r3
 977 00c0 9AB2     		uxth	r2, r3
 978 00c2 7B8A     		ldrh	r3, [r7, #18]	@ movhi
 979 00c4 1344     		add	r3, r3, r2
 980 00c6 9BB2     		uxth	r3, r3
 981 00c8 7869     		ldr	r0, [r7, #20]
 982 00ca 1946     		mov	r1, r3
 983 00cc FFF7FEFF 		bl	mem_trim
 984 00d0 7861     		str	r0, [r7, #20]
 985              		.loc 2 474 0
 986 00d2 7B69     		ldr	r3, [r7, #20]
 987 00d4 002B     		cmp	r3, #0
 988 00d6 02D1     		bne	.L68
 989              		.loc 2 474 0 is_stmt 0 discriminator 1
 990 00d8 1048     		ldr	r0, .L70+16
 991 00da FFF7FEFF 		bl	osalSysHalt
 992              	.L68:
 993              		.loc 2 477 0 is_stmt 1
 994 00de 7B69     		ldr	r3, [r7, #20]
 995 00e0 7A8A     		ldrh	r2, [r7, #18]	@ movhi
 996 00e2 5A81     		strh	r2, [r3, #10]	@ movhi
 997              		.loc 2 478 0
 998 00e4 7B69     		ldr	r3, [r7, #20]
 999 00e6 5A89     		ldrh	r2, [r3, #10]
 1000 00e8 7B69     		ldr	r3, [r7, #20]
 1001 00ea 1A81     		strh	r2, [r3, #8]	@ movhi
 1002              		.loc 2 481 0
 1003 00ec 7B69     		ldr	r3, [r7, #20]
 1004 00ee 1B68     		ldr	r3, [r3]
 1005 00f0 002B     		cmp	r3, #0
 1006 00f2 04D0     		beq	.L69
 1007              		.loc 2 483 0
 1008 00f4 7B69     		ldr	r3, [r7, #20]
 1009 00f6 1B68     		ldr	r3, [r3]
 1010 00f8 1846     		mov	r0, r3
 1011 00fa FFF7FEFF 		bl	pbuf_free
 1012              	.L69:
 1013              		.loc 2 486 0
 1014 00fe 7B69     		ldr	r3, [r7, #20]
 1015 0100 0022     		movs	r2, #0
 1016 0102 1A60     		str	r2, [r3]
 1017              	.L60:
 1018              		.loc 2 488 0
 1019 0104 1837     		adds	r7, r7, #24
 1020 0106 BD46     		mov	sp, r7
 1021              		@ sp needed
ARM GAS  C:\Users\Luis\AppData\Local\Temp\cc1uv7VI.s 			page 20


 1022 0108 80BD     		pop	{r7, pc}
 1023              	.L71:
 1024 010a 00BF     		.align	2
 1025              	.L70:
 1026 010c 64010000 		.word	.LC9
 1027 0110 7C010000 		.word	.LC10
 1028 0114 98010000 		.word	.LC11
 1029 0118 AC010000 		.word	.LC12
 1030 011c C4010000 		.word	.LC13
 1031              		.cfi_endproc
 1032              	.LFE265:
 1033              		.size	pbuf_realloc, .-pbuf_realloc
 1034              		.section	.rodata
 1035              		.align	2
 1036              	.LC14:
 1037 01e0 7020213D 		.ascii	"p != NULL\000"
 1037      204E554C 
 1037      4C00
 1038 01ea 0000     		.align	2
 1039              	.LC15:
 1040 01ec 696E6372 		.ascii	"increment_magnitude <= p->len\000"
 1040      656D656E 
 1040      745F6D61 
 1040      676E6974 
 1040      75646520 
 1041 020a 0000     		.align	2
 1042              	.LC16:
 1043 020c 62616420 		.ascii	"bad pbuf type\000"
 1043      70627566 
 1043      20747970 
 1043      6500
 1044              		.section	.text.pbuf_header,"ax",%progbits
 1045              		.align	2
 1046              		.p2align 4,,15
 1047              		.global	pbuf_header
 1048              		.thumb
 1049              		.thumb_func
 1050              		.type	pbuf_header, %function
 1051              	pbuf_header:
 1052              	.LFB266:
 1053              		.loc 2 512 0
 1054              		.cfi_startproc
 1055              		@ args = 0, pretend = 0, frame = 16
 1056              		@ frame_needed = 1, uses_anonymous_args = 0
 1057 0000 80B5     		push	{r7, lr}
 1058              		.cfi_def_cfa_offset 8
 1059              		.cfi_offset 7, -8
 1060              		.cfi_offset 14, -4
 1061 0002 84B0     		sub	sp, sp, #16
 1062              		.cfi_def_cfa_offset 24
 1063 0004 00AF     		add	r7, sp, #0
 1064              		.cfi_def_cfa_register 7
 1065 0006 7860     		str	r0, [r7, #4]
 1066 0008 0B46     		mov	r3, r1
 1067 000a 7B80     		strh	r3, [r7, #2]	@ movhi
 1068              		.loc 2 517 0
 1069 000c 7B68     		ldr	r3, [r7, #4]
ARM GAS  C:\Users\Luis\AppData\Local\Temp\cc1uv7VI.s 			page 21


 1070 000e 002B     		cmp	r3, #0
 1071 0010 02D1     		bne	.L73
 1072              		.loc 2 517 0 is_stmt 0 discriminator 1
 1073 0012 3848     		ldr	r0, .L86
 1074 0014 FFF7FEFF 		bl	osalSysHalt
 1075              	.L73:
 1076              		.loc 2 518 0 is_stmt 1
 1077 0018 B7F90230 		ldrsh	r3, [r7, #2]
 1078 001c 002B     		cmp	r3, #0
 1079 001e 02D0     		beq	.L74
 1080              		.loc 2 518 0 is_stmt 0 discriminator 1
 1081 0020 7B68     		ldr	r3, [r7, #4]
 1082 0022 002B     		cmp	r3, #0
 1083 0024 01D1     		bne	.L75
 1084              	.L74:
 1085              		.loc 2 519 0 is_stmt 1
 1086 0026 0023     		movs	r3, #0
 1087 0028 60E0     		b	.L76
 1088              	.L75:
 1089              		.loc 2 522 0
 1090 002a B7F90230 		ldrsh	r3, [r7, #2]
 1091 002e 002B     		cmp	r3, #0
 1092 0030 0CDA     		bge	.L77
 1093              		.loc 2 523 0
 1094 0032 7B88     		ldrh	r3, [r7, #2]
 1095 0034 5B42     		negs	r3, r3
 1096 0036 FB81     		strh	r3, [r7, #14]	@ movhi
 1097              		.loc 2 525 0
 1098 0038 7B68     		ldr	r3, [r7, #4]
 1099 003a 5B89     		ldrh	r3, [r3, #10]
 1100 003c FA89     		ldrh	r2, [r7, #14]
 1101 003e 9A42     		cmp	r2, r3
 1102 0040 06D9     		bls	.L78
 1103              		.loc 2 525 0 is_stmt 0 discriminator 1
 1104 0042 2D48     		ldr	r0, .L86+4
 1105 0044 FFF7FEFF 		bl	osalSysHalt
 1106 0048 0123     		movs	r3, #1
 1107 004a 4FE0     		b	.L76
 1108              	.L77:
 1109              		.loc 2 527 0 is_stmt 1
 1110 004c 7B88     		ldrh	r3, [r7, #2]	@ movhi
 1111 004e FB81     		strh	r3, [r7, #14]	@ movhi
 1112              	.L78:
 1113              		.loc 2 540 0
 1114 0050 7B68     		ldr	r3, [r7, #4]
 1115 0052 1B7B     		ldrb	r3, [r3, #12]	@ zero_extendqisi2
 1116 0054 BB81     		strh	r3, [r7, #12]	@ movhi
 1117              		.loc 2 542 0
 1118 0056 7B68     		ldr	r3, [r7, #4]
 1119 0058 5B68     		ldr	r3, [r3, #4]
 1120 005a BB60     		str	r3, [r7, #8]
 1121              		.loc 2 545 0
 1122 005c BB89     		ldrh	r3, [r7, #12]
 1123 005e 002B     		cmp	r3, #0
 1124 0060 02D0     		beq	.L79
 1125              		.loc 2 545 0 is_stmt 0 discriminator 1
 1126 0062 BB89     		ldrh	r3, [r7, #12]
ARM GAS  C:\Users\Luis\AppData\Local\Temp\cc1uv7VI.s 			page 22


 1127 0064 032B     		cmp	r3, #3
 1128 0066 13D1     		bne	.L80
 1129              	.L79:
 1130              		.loc 2 547 0 is_stmt 1
 1131 0068 7B68     		ldr	r3, [r7, #4]
 1132 006a 5A68     		ldr	r2, [r3, #4]
 1133 006c B7F90230 		ldrsh	r3, [r7, #2]
 1134 0070 5B42     		negs	r3, r3
 1135 0072 1A44     		add	r2, r2, r3
 1136 0074 7B68     		ldr	r3, [r7, #4]
 1137 0076 5A60     		str	r2, [r3, #4]
 1138              		.loc 2 549 0
 1139 0078 7B68     		ldr	r3, [r7, #4]
 1140 007a 5A68     		ldr	r2, [r3, #4]
 1141 007c 7B68     		ldr	r3, [r7, #4]
 1142 007e 1033     		adds	r3, r3, #16
 1143 0080 9A42     		cmp	r2, r3
 1144 0082 04D2     		bcs	.L81
 1145              		.loc 2 554 0
 1146 0084 7B68     		ldr	r3, [r7, #4]
 1147 0086 BA68     		ldr	r2, [r7, #8]
 1148 0088 5A60     		str	r2, [r3, #4]
 1149              		.loc 2 556 0
 1150 008a 0123     		movs	r3, #1
 1151 008c 2EE0     		b	.L76
 1152              	.L81:
 1153              		.loc 2 549 0 discriminator 1
 1154 008e 1EE0     		b	.L82
 1155              	.L80:
 1156              		.loc 2 559 0
 1157 0090 BB89     		ldrh	r3, [r7, #12]
 1158 0092 022B     		cmp	r3, #2
 1159 0094 02D0     		beq	.L83
 1160              		.loc 2 559 0 is_stmt 0 discriminator 1
 1161 0096 BB89     		ldrh	r3, [r7, #12]
 1162 0098 012B     		cmp	r3, #1
 1163 009a 13D1     		bne	.L84
 1164              	.L83:
 1165              		.loc 2 561 0 is_stmt 1
 1166 009c B7F90230 		ldrsh	r3, [r7, #2]
 1167 00a0 002B     		cmp	r3, #0
 1168 00a2 0DDA     		bge	.L85
 1169              		.loc 2 561 0 is_stmt 0 discriminator 1
 1170 00a4 7B68     		ldr	r3, [r7, #4]
 1171 00a6 5B89     		ldrh	r3, [r3, #10]
 1172 00a8 FA89     		ldrh	r2, [r7, #14]
 1173 00aa 9A42     		cmp	r2, r3
 1174 00ac 08D8     		bhi	.L85
 1175              		.loc 2 563 0 is_stmt 1
 1176 00ae 7B68     		ldr	r3, [r7, #4]
 1177 00b0 5A68     		ldr	r2, [r3, #4]
 1178 00b2 B7F90230 		ldrsh	r3, [r7, #2]
 1179 00b6 5B42     		negs	r3, r3
 1180 00b8 1A44     		add	r2, r2, r3
 1181 00ba 7B68     		ldr	r3, [r7, #4]
 1182 00bc 5A60     		str	r2, [r3, #4]
 1183              		.loc 2 561 0
ARM GAS  C:\Users\Luis\AppData\Local\Temp\cc1uv7VI.s 			page 23


 1184 00be 06E0     		b	.L82
 1185              	.L85:
 1186              		.loc 2 567 0
 1187 00c0 0123     		movs	r3, #1
 1188 00c2 13E0     		b	.L76
 1189              	.L84:
 1190              		.loc 2 571 0 discriminator 1
 1191 00c4 0D48     		ldr	r0, .L86+8
 1192 00c6 FFF7FEFF 		bl	osalSysHalt
 1193              		.loc 2 572 0 discriminator 1
 1194 00ca 0123     		movs	r3, #1
 1195 00cc 0EE0     		b	.L76
 1196              	.L82:
 1197              		.loc 2 575 0
 1198 00ce 7B68     		ldr	r3, [r7, #4]
 1199 00d0 5A89     		ldrh	r2, [r3, #10]
 1200 00d2 7B88     		ldrh	r3, [r7, #2]
 1201 00d4 1344     		add	r3, r3, r2
 1202 00d6 9AB2     		uxth	r2, r3
 1203 00d8 7B68     		ldr	r3, [r7, #4]
 1204 00da 5A81     		strh	r2, [r3, #10]	@ movhi
 1205              		.loc 2 576 0
 1206 00dc 7B68     		ldr	r3, [r7, #4]
 1207 00de 1A89     		ldrh	r2, [r3, #8]
 1208 00e0 7B88     		ldrh	r3, [r7, #2]
 1209 00e2 1344     		add	r3, r3, r2
 1210 00e4 9AB2     		uxth	r2, r3
 1211 00e6 7B68     		ldr	r3, [r7, #4]
 1212 00e8 1A81     		strh	r2, [r3, #8]	@ movhi
 1213              		.loc 2 581 0
 1214 00ea 0023     		movs	r3, #0
 1215              	.L76:
 1216              		.loc 2 582 0
 1217 00ec 1846     		mov	r0, r3
 1218 00ee 1037     		adds	r7, r7, #16
 1219 00f0 BD46     		mov	sp, r7
 1220              		@ sp needed
 1221 00f2 80BD     		pop	{r7, pc}
 1222              	.L87:
 1223              		.align	2
 1224              	.L86:
 1225 00f4 E0010000 		.word	.LC14
 1226 00f8 EC010000 		.word	.LC15
 1227 00fc 0C020000 		.word	.LC16
 1228              		.cfi_endproc
 1229              	.LFE266:
 1230              		.size	pbuf_header, .-pbuf_header
 1231              		.section	.rodata
 1232 021a 0000     		.align	2
 1233              	.LC17:
 1234 021c 70627566 		.ascii	"pbuf_free: sane type\000"
 1234      5F667265 
 1234      653A2073 
 1234      616E6520 
 1234      74797065 
 1235 0231 000000   		.align	2
 1236              	.LC18:
ARM GAS  C:\Users\Luis\AppData\Local\Temp\cc1uv7VI.s 			page 24


 1237 0234 70627566 		.ascii	"pbuf_free: p->ref > 0\000"
 1237      5F667265 
 1237      653A2070 
 1237      2D3E7265 
 1237      66203E20 
 1238 024a 0000     		.align	2
 1239              	.LC19:
 1240 024c 70632D3E 		.ascii	"pc->custom_free_function != NULL\000"
 1240      63757374 
 1240      6F6D5F66 
 1240      7265655F 
 1240      66756E63 
 1241              		.section	.text.pbuf_free,"ax",%progbits
 1242              		.align	2
 1243              		.p2align 4,,15
 1244              		.global	pbuf_free
 1245              		.thumb
 1246              		.thumb_func
 1247              		.type	pbuf_free, %function
 1248              	pbuf_free:
 1249              	.LFB267:
 1250              		.loc 2 619 0
 1251              		.cfi_startproc
 1252              		@ args = 0, pretend = 0, frame = 24
 1253              		@ frame_needed = 1, uses_anonymous_args = 0
 1254 0000 80B5     		push	{r7, lr}
 1255              		.cfi_def_cfa_offset 8
 1256              		.cfi_offset 7, -8
 1257              		.cfi_offset 14, -4
 1258 0002 86B0     		sub	sp, sp, #24
 1259              		.cfi_def_cfa_offset 32
 1260 0004 00AF     		add	r7, sp, #0
 1261              		.cfi_def_cfa_register 7
 1262 0006 7860     		str	r0, [r7, #4]
 1263              		.loc 2 624 0
 1264 0008 7B68     		ldr	r3, [r7, #4]
 1265 000a 002B     		cmp	r3, #0
 1266 000c 07D1     		bne	.L89
 1267              		.loc 2 625 0
 1268 000e 7B68     		ldr	r3, [r7, #4]
 1269 0010 002B     		cmp	r3, #0
 1270 0012 02D1     		bne	.L90
 1271              		.loc 2 625 0 is_stmt 0 discriminator 1
 1272 0014 3648     		ldr	r0, .L103
 1273 0016 FFF7FEFF 		bl	osalSysHalt
 1274              	.L90:
 1275              		.loc 2 629 0 is_stmt 1
 1276 001a 0023     		movs	r3, #0
 1277 001c 64E0     		b	.L91
 1278              	.L89:
 1279              		.loc 2 635 0
 1280 001e 7B68     		ldr	r3, [r7, #4]
 1281 0020 1B7B     		ldrb	r3, [r3, #12]	@ zero_extendqisi2
 1282 0022 002B     		cmp	r3, #0
 1283 0024 0ED0     		beq	.L92
 1284              		.loc 2 635 0 is_stmt 0 discriminator 1
 1285 0026 7B68     		ldr	r3, [r7, #4]
ARM GAS  C:\Users\Luis\AppData\Local\Temp\cc1uv7VI.s 			page 25


 1286 0028 1B7B     		ldrb	r3, [r3, #12]	@ zero_extendqisi2
 1287 002a 012B     		cmp	r3, #1
 1288 002c 0AD0     		beq	.L92
 1289 002e 7B68     		ldr	r3, [r7, #4]
 1290 0030 1B7B     		ldrb	r3, [r3, #12]	@ zero_extendqisi2
 1291 0032 022B     		cmp	r3, #2
 1292 0034 06D0     		beq	.L92
 1293 0036 7B68     		ldr	r3, [r7, #4]
 1294 0038 1B7B     		ldrb	r3, [r3, #12]	@ zero_extendqisi2
 1295 003a 032B     		cmp	r3, #3
 1296 003c 02D0     		beq	.L92
 1297 003e 2D48     		ldr	r0, .L103+4
 1298 0040 FFF7FEFF 		bl	osalSysHalt
 1299              	.L92:
 1300              		.loc 2 639 0 is_stmt 1
 1301 0044 0023     		movs	r3, #0
 1302 0046 FB75     		strb	r3, [r7, #23]
 1303              		.loc 2 642 0
 1304 0048 4AE0     		b	.L93
 1305              	.L102:
 1306              	.LBB2:
 1307              		.loc 2 650 0
 1308 004a 7B68     		ldr	r3, [r7, #4]
 1309 004c DB89     		ldrh	r3, [r3, #14]
 1310 004e 002B     		cmp	r3, #0
 1311 0050 02D1     		bne	.L94
 1312              		.loc 2 650 0 is_stmt 0 discriminator 1
 1313 0052 2948     		ldr	r0, .L103+8
 1314 0054 FFF7FEFF 		bl	osalSysHalt
 1315              	.L94:
 1316              		.loc 2 652 0 is_stmt 1
 1317 0058 7B68     		ldr	r3, [r7, #4]
 1318 005a DB89     		ldrh	r3, [r3, #14]
 1319 005c 013B     		subs	r3, r3, #1
 1320 005e 9AB2     		uxth	r2, r3
 1321 0060 7B68     		ldr	r3, [r7, #4]
 1322 0062 DA81     		strh	r2, [r3, #14]	@ movhi
 1323 0064 7B68     		ldr	r3, [r7, #4]
 1324 0066 DB89     		ldrh	r3, [r3, #14]	@ movhi
 1325 0068 BB82     		strh	r3, [r7, #20]	@ movhi
 1326              		.loc 2 655 0
 1327 006a BB8A     		ldrh	r3, [r7, #20]
 1328 006c 002B     		cmp	r3, #0
 1329 006e 35D1     		bne	.L95
 1330              		.loc 2 657 0
 1331 0070 7B68     		ldr	r3, [r7, #4]
 1332 0072 1B68     		ldr	r3, [r3]
 1333 0074 3B61     		str	r3, [r7, #16]
 1334              		.loc 2 659 0
 1335 0076 7B68     		ldr	r3, [r7, #4]
 1336 0078 1B7B     		ldrb	r3, [r3, #12]	@ zero_extendqisi2
 1337 007a FB81     		strh	r3, [r7, #14]	@ movhi
 1338              		.loc 2 662 0
 1339 007c 7B68     		ldr	r3, [r7, #4]
 1340 007e 5B7B     		ldrb	r3, [r3, #13]	@ zero_extendqisi2
 1341 0080 03F00203 		and	r3, r3, #2
 1342 0084 002B     		cmp	r3, #0
ARM GAS  C:\Users\Luis\AppData\Local\Temp\cc1uv7VI.s 			page 26


 1343 0086 0DD0     		beq	.L96
 1344              	.LBB3:
 1345              		.loc 2 663 0
 1346 0088 7B68     		ldr	r3, [r7, #4]
 1347 008a BB60     		str	r3, [r7, #8]
 1348              		.loc 2 664 0
 1349 008c BB68     		ldr	r3, [r7, #8]
 1350 008e 1B69     		ldr	r3, [r3, #16]
 1351 0090 002B     		cmp	r3, #0
 1352 0092 02D1     		bne	.L97
 1353              		.loc 2 664 0 is_stmt 0 discriminator 1
 1354 0094 1948     		ldr	r0, .L103+12
 1355 0096 FFF7FEFF 		bl	osalSysHalt
 1356              	.L97:
 1357              		.loc 2 665 0 is_stmt 1
 1358 009a BB68     		ldr	r3, [r7, #8]
 1359 009c 1B69     		ldr	r3, [r3, #16]
 1360 009e 7868     		ldr	r0, [r7, #4]
 1361 00a0 9847     		blx	r3
 1362              	.LBE3:
 1363 00a2 15E0     		b	.L98
 1364              	.L96:
 1365              		.loc 2 670 0
 1366 00a4 FB89     		ldrh	r3, [r7, #14]
 1367 00a6 032B     		cmp	r3, #3
 1368 00a8 04D1     		bne	.L99
 1369              		.loc 2 671 0
 1370 00aa 0D20     		movs	r0, #13
 1371 00ac 7968     		ldr	r1, [r7, #4]
 1372 00ae FFF7FEFF 		bl	memp_free
 1373 00b2 0DE0     		b	.L98
 1374              	.L99:
 1375              		.loc 2 673 0
 1376 00b4 FB89     		ldrh	r3, [r7, #14]
 1377 00b6 012B     		cmp	r3, #1
 1378 00b8 02D0     		beq	.L100
 1379              		.loc 2 673 0 is_stmt 0 discriminator 1
 1380 00ba FB89     		ldrh	r3, [r7, #14]
 1381 00bc 022B     		cmp	r3, #2
 1382 00be 04D1     		bne	.L101
 1383              	.L100:
 1384              		.loc 2 674 0 is_stmt 1
 1385 00c0 0C20     		movs	r0, #12
 1386 00c2 7968     		ldr	r1, [r7, #4]
 1387 00c4 FFF7FEFF 		bl	memp_free
 1388 00c8 02E0     		b	.L98
 1389              	.L101:
 1390              		.loc 2 677 0
 1391 00ca 7868     		ldr	r0, [r7, #4]
 1392 00cc FFF7FEFF 		bl	mem_free
 1393              	.L98:
 1394              		.loc 2 680 0 discriminator 1
 1395 00d0 FB7D     		ldrb	r3, [r7, #23]	@ zero_extendqisi2
 1396 00d2 0133     		adds	r3, r3, #1
 1397 00d4 FB75     		strb	r3, [r7, #23]
 1398              		.loc 2 682 0 discriminator 1
 1399 00d6 3B69     		ldr	r3, [r7, #16]
ARM GAS  C:\Users\Luis\AppData\Local\Temp\cc1uv7VI.s 			page 27


 1400 00d8 7B60     		str	r3, [r7, #4]
 1401 00da 01E0     		b	.L93
 1402              	.L95:
 1403              		.loc 2 688 0
 1404 00dc 0023     		movs	r3, #0
 1405 00de 7B60     		str	r3, [r7, #4]
 1406              	.L93:
 1407              	.LBE2:
 1408              		.loc 2 642 0 discriminator 1
 1409 00e0 7B68     		ldr	r3, [r7, #4]
 1410 00e2 002B     		cmp	r3, #0
 1411 00e4 B1D1     		bne	.L102
 1412              		.loc 2 693 0
 1413 00e6 FB7D     		ldrb	r3, [r7, #23]	@ zero_extendqisi2
 1414              	.L91:
 1415              		.loc 2 694 0
 1416 00e8 1846     		mov	r0, r3
 1417 00ea 1837     		adds	r7, r7, #24
 1418 00ec BD46     		mov	sp, r7
 1419              		@ sp needed
 1420 00ee 80BD     		pop	{r7, pc}
 1421              	.L104:
 1422              		.align	2
 1423              	.L103:
 1424 00f0 E0010000 		.word	.LC14
 1425 00f4 1C020000 		.word	.LC17
 1426 00f8 34020000 		.word	.LC18
 1427 00fc 4C020000 		.word	.LC19
 1428              		.cfi_endproc
 1429              	.LFE267:
 1430              		.size	pbuf_free, .-pbuf_free
 1431              		.section	.text.pbuf_clen,"ax",%progbits
 1432              		.align	2
 1433              		.p2align 4,,15
 1434              		.global	pbuf_clen
 1435              		.thumb
 1436              		.thumb_func
 1437              		.type	pbuf_clen, %function
 1438              	pbuf_clen:
 1439              	.LFB268:
 1440              		.loc 2 705 0
 1441              		.cfi_startproc
 1442              		@ args = 0, pretend = 0, frame = 16
 1443              		@ frame_needed = 1, uses_anonymous_args = 0
 1444              		@ link register save eliminated.
 1445 0000 80B4     		push	{r7}
 1446              		.cfi_def_cfa_offset 4
 1447              		.cfi_offset 7, -4
 1448 0002 85B0     		sub	sp, sp, #20
 1449              		.cfi_def_cfa_offset 24
 1450 0004 00AF     		add	r7, sp, #0
 1451              		.cfi_def_cfa_register 7
 1452 0006 7860     		str	r0, [r7, #4]
 1453              		.loc 2 708 0
 1454 0008 0023     		movs	r3, #0
 1455 000a FB73     		strb	r3, [r7, #15]
 1456              		.loc 2 709 0
ARM GAS  C:\Users\Luis\AppData\Local\Temp\cc1uv7VI.s 			page 28


 1457 000c 05E0     		b	.L106
 1458              	.L107:
 1459              		.loc 2 710 0
 1460 000e FB7B     		ldrb	r3, [r7, #15]
 1461 0010 0133     		adds	r3, r3, #1
 1462 0012 FB73     		strb	r3, [r7, #15]
 1463              		.loc 2 711 0
 1464 0014 7B68     		ldr	r3, [r7, #4]
 1465 0016 1B68     		ldr	r3, [r3]
 1466 0018 7B60     		str	r3, [r7, #4]
 1467              	.L106:
 1468              		.loc 2 709 0 discriminator 1
 1469 001a 7B68     		ldr	r3, [r7, #4]
 1470 001c 002B     		cmp	r3, #0
 1471 001e F6D1     		bne	.L107
 1472              		.loc 2 713 0
 1473 0020 FB7B     		ldrb	r3, [r7, #15]	@ zero_extendqisi2
 1474              		.loc 2 714 0
 1475 0022 1846     		mov	r0, r3
 1476 0024 1437     		adds	r7, r7, #20
 1477 0026 BD46     		mov	sp, r7
 1478              		@ sp needed
 1479 0028 5DF8047B 		ldr	r7, [sp], #4
 1480 002c 7047     		bx	lr
 1481              		.cfi_endproc
 1482              	.LFE268:
 1483              		.size	pbuf_clen, .-pbuf_clen
 1484 002e 00BF     		.section	.text.pbuf_ref,"ax",%progbits
 1485              		.align	2
 1486              		.p2align 4,,15
 1487              		.global	pbuf_ref
 1488              		.thumb
 1489              		.thumb_func
 1490              		.type	pbuf_ref, %function
 1491              	pbuf_ref:
 1492              	.LFB269:
 1493              		.loc 2 724 0
 1494              		.cfi_startproc
 1495              		@ args = 0, pretend = 0, frame = 8
 1496              		@ frame_needed = 1, uses_anonymous_args = 0
 1497              		@ link register save eliminated.
 1498 0000 80B4     		push	{r7}
 1499              		.cfi_def_cfa_offset 4
 1500              		.cfi_offset 7, -4
 1501 0002 83B0     		sub	sp, sp, #12
 1502              		.cfi_def_cfa_offset 16
 1503 0004 00AF     		add	r7, sp, #0
 1504              		.cfi_def_cfa_register 7
 1505 0006 7860     		str	r0, [r7, #4]
 1506              		.loc 2 727 0
 1507 0008 7B68     		ldr	r3, [r7, #4]
 1508 000a 002B     		cmp	r3, #0
 1509 000c 05D0     		beq	.L109
 1510              		.loc 2 729 0
 1511 000e 7B68     		ldr	r3, [r7, #4]
 1512 0010 DB89     		ldrh	r3, [r3, #14]
 1513 0012 0133     		adds	r3, r3, #1
ARM GAS  C:\Users\Luis\AppData\Local\Temp\cc1uv7VI.s 			page 29


 1514 0014 9AB2     		uxth	r2, r3
 1515 0016 7B68     		ldr	r3, [r7, #4]
 1516 0018 DA81     		strh	r2, [r3, #14]	@ movhi
 1517              	.L109:
 1518              		.loc 2 732 0
 1519 001a 0C37     		adds	r7, r7, #12
 1520 001c BD46     		mov	sp, r7
 1521              		@ sp needed
 1522 001e 5DF8047B 		ldr	r7, [sp], #4
 1523 0022 7047     		bx	lr
 1524              		.cfi_endproc
 1525              	.LFE269:
 1526              		.size	pbuf_ref, .-pbuf_ref
 1527 0024 AFF30080 		.section	.rodata
 1527      AFF30080 
 1527      AFF30080 
 1528 026d 000000   		.align	2
 1529              	.LC20:
 1530 0270 28682021 		.ascii	"(h != NULL) && (t != NULL) (programmer violates API"
 1530      3D204E55 
 1530      4C4C2920 
 1530      26262028 
 1530      7420213D 
 1531 02a3 2900     		.ascii	")\000"
 1532 02a5 000000   		.align	2
 1533              	.LC21:
 1534 02a8 702D3E74 		.ascii	"p->tot_len == p->len (of last pbuf in chain)\000"
 1534      6F745F6C 
 1534      656E203D 
 1534      3D20702D 
 1534      3E6C656E 
 1535 02d5 000000   		.align	2
 1536              	.LC22:
 1537 02d8 702D3E6E 		.ascii	"p->next == NULL\000"
 1537      65787420 
 1537      3D3D204E 
 1537      554C4C00 
 1538              		.section	.text.pbuf_cat,"ax",%progbits
 1539              		.align	2
 1540              		.p2align 4,,15
 1541              		.global	pbuf_cat
 1542              		.thumb
 1543              		.thumb_func
 1544              		.type	pbuf_cat, %function
 1545              	pbuf_cat:
 1546              	.LFB270:
 1547              		.loc 2 746 0
 1548              		.cfi_startproc
 1549              		@ args = 0, pretend = 0, frame = 16
 1550              		@ frame_needed = 1, uses_anonymous_args = 0
 1551 0000 80B5     		push	{r7, lr}
 1552              		.cfi_def_cfa_offset 8
 1553              		.cfi_offset 7, -8
 1554              		.cfi_offset 14, -4
 1555 0002 84B0     		sub	sp, sp, #16
 1556              		.cfi_def_cfa_offset 24
 1557 0004 00AF     		add	r7, sp, #0
ARM GAS  C:\Users\Luis\AppData\Local\Temp\cc1uv7VI.s 			page 30


 1558              		.cfi_def_cfa_register 7
 1559 0006 7860     		str	r0, [r7, #4]
 1560 0008 3960     		str	r1, [r7]
 1561              		.loc 2 749 0
 1562 000a 7B68     		ldr	r3, [r7, #4]
 1563 000c 002B     		cmp	r3, #0
 1564 000e 02D0     		beq	.L112
 1565              		.loc 2 749 0 is_stmt 0 discriminator 2
 1566 0010 3B68     		ldr	r3, [r7]
 1567 0012 002B     		cmp	r3, #0
 1568 0014 03D1     		bne	.L113
 1569              	.L112:
 1570              		.loc 2 749 0 discriminator 1
 1571 0016 1A48     		ldr	r0, .L119
 1572 0018 FFF7FEFF 		bl	osalSysHalt
 1573 001c 2CE0     		b	.L111
 1574              	.L113:
 1575              		.loc 2 753 0 is_stmt 1
 1576 001e 7B68     		ldr	r3, [r7, #4]
 1577 0020 FB60     		str	r3, [r7, #12]
 1578 0022 0AE0     		b	.L115
 1579              	.L116:
 1580              		.loc 2 755 0 discriminator 2
 1581 0024 FB68     		ldr	r3, [r7, #12]
 1582 0026 1A89     		ldrh	r2, [r3, #8]
 1583 0028 3B68     		ldr	r3, [r7]
 1584 002a 1B89     		ldrh	r3, [r3, #8]
 1585 002c 1344     		add	r3, r3, r2
 1586 002e 9AB2     		uxth	r2, r3
 1587 0030 FB68     		ldr	r3, [r7, #12]
 1588 0032 1A81     		strh	r2, [r3, #8]	@ movhi
 1589              		.loc 2 753 0 discriminator 2
 1590 0034 FB68     		ldr	r3, [r7, #12]
 1591 0036 1B68     		ldr	r3, [r3]
 1592 0038 FB60     		str	r3, [r7, #12]
 1593              	.L115:
 1594              		.loc 2 753 0 is_stmt 0 discriminator 1
 1595 003a FB68     		ldr	r3, [r7, #12]
 1596 003c 1B68     		ldr	r3, [r3]
 1597 003e 002B     		cmp	r3, #0
 1598 0040 F0D1     		bne	.L116
 1599              		.loc 2 758 0 is_stmt 1
 1600 0042 FB68     		ldr	r3, [r7, #12]
 1601 0044 1A89     		ldrh	r2, [r3, #8]
 1602 0046 FB68     		ldr	r3, [r7, #12]
 1603 0048 5B89     		ldrh	r3, [r3, #10]
 1604 004a 9A42     		cmp	r2, r3
 1605 004c 02D0     		beq	.L117
 1606              		.loc 2 758 0 is_stmt 0 discriminator 1
 1607 004e 0D48     		ldr	r0, .L119+4
 1608 0050 FFF7FEFF 		bl	osalSysHalt
 1609              	.L117:
 1610              		.loc 2 759 0 is_stmt 1
 1611 0054 FB68     		ldr	r3, [r7, #12]
 1612 0056 1B68     		ldr	r3, [r3]
 1613 0058 002B     		cmp	r3, #0
 1614 005a 02D0     		beq	.L118
ARM GAS  C:\Users\Luis\AppData\Local\Temp\cc1uv7VI.s 			page 31


 1615              		.loc 2 759 0 is_stmt 0 discriminator 1
 1616 005c 0A48     		ldr	r0, .L119+8
 1617 005e FFF7FEFF 		bl	osalSysHalt
 1618              	.L118:
 1619              		.loc 2 761 0 is_stmt 1
 1620 0062 FB68     		ldr	r3, [r7, #12]
 1621 0064 1A89     		ldrh	r2, [r3, #8]
 1622 0066 3B68     		ldr	r3, [r7]
 1623 0068 1B89     		ldrh	r3, [r3, #8]
 1624 006a 1344     		add	r3, r3, r2
 1625 006c 9AB2     		uxth	r2, r3
 1626 006e FB68     		ldr	r3, [r7, #12]
 1627 0070 1A81     		strh	r2, [r3, #8]	@ movhi
 1628              		.loc 2 763 0
 1629 0072 FB68     		ldr	r3, [r7, #12]
 1630 0074 3A68     		ldr	r2, [r7]
 1631 0076 1A60     		str	r2, [r3]
 1632              	.L111:
 1633              		.loc 2 767 0
 1634 0078 1037     		adds	r7, r7, #16
 1635 007a BD46     		mov	sp, r7
 1636              		@ sp needed
 1637 007c 80BD     		pop	{r7, pc}
 1638              	.L120:
 1639 007e 00BF     		.align	2
 1640              	.L119:
 1641 0080 70020000 		.word	.LC20
 1642 0084 A8020000 		.word	.LC21
 1643 0088 D8020000 		.word	.LC22
 1644              		.cfi_endproc
 1645              	.LFE270:
 1646              		.size	pbuf_cat, .-pbuf_cat
 1647 008c AFF30080 		.section	.text.pbuf_chain,"ax",%progbits
 1648              		.align	2
 1649              		.p2align 4,,15
 1650              		.global	pbuf_chain
 1651              		.thumb
 1652              		.thumb_func
 1653              		.type	pbuf_chain, %function
 1654              	pbuf_chain:
 1655              	.LFB271:
 1656              		.loc 2 787 0
 1657              		.cfi_startproc
 1658              		@ args = 0, pretend = 0, frame = 8
 1659              		@ frame_needed = 1, uses_anonymous_args = 0
 1660 0000 80B5     		push	{r7, lr}
 1661              		.cfi_def_cfa_offset 8
 1662              		.cfi_offset 7, -8
 1663              		.cfi_offset 14, -4
 1664 0002 82B0     		sub	sp, sp, #8
 1665              		.cfi_def_cfa_offset 16
 1666 0004 00AF     		add	r7, sp, #0
 1667              		.cfi_def_cfa_register 7
 1668 0006 7860     		str	r0, [r7, #4]
 1669 0008 3960     		str	r1, [r7]
 1670              		.loc 2 788 0
 1671 000a 7868     		ldr	r0, [r7, #4]
ARM GAS  C:\Users\Luis\AppData\Local\Temp\cc1uv7VI.s 			page 32


 1672 000c 3968     		ldr	r1, [r7]
 1673 000e FFF7FEFF 		bl	pbuf_cat
 1674              		.loc 2 790 0
 1675 0012 3868     		ldr	r0, [r7]
 1676 0014 FFF7FEFF 		bl	pbuf_ref
 1677              		.loc 2 792 0
 1678 0018 0837     		adds	r7, r7, #8
 1679 001a BD46     		mov	sp, r7
 1680              		@ sp needed
 1681 001c 80BD     		pop	{r7, pc}
 1682              		.cfi_endproc
 1683              	.LFE271:
 1684              		.size	pbuf_chain, .-pbuf_chain
 1685 001e 00BF     		.section	.rodata
 1686              		.align	2
 1687              	.LC23:
 1688 02e8 702D3E74 		.ascii	"p->tot_len == p->len + q->tot_len\000"
 1688      6F745F6C 
 1688      656E203D 
 1688      3D20702D 
 1688      3E6C656E 
 1689 030a 0000     		.align	2
 1690              	.LC24:
 1691 030c 702D3E74 		.ascii	"p->tot_len == p->len\000"
 1691      6F745F6C 
 1691      656E203D 
 1691      3D20702D 
 1691      3E6C656E 
 1692              		.section	.text.pbuf_dechain,"ax",%progbits
 1693              		.align	2
 1694              		.p2align 4,,15
 1695              		.global	pbuf_dechain
 1696              		.thumb
 1697              		.thumb_func
 1698              		.type	pbuf_dechain, %function
 1699              	pbuf_dechain:
 1700              	.LFB272:
 1701              		.loc 2 804 0
 1702              		.cfi_startproc
 1703              		@ args = 0, pretend = 0, frame = 16
 1704              		@ frame_needed = 1, uses_anonymous_args = 0
 1705 0000 80B5     		push	{r7, lr}
 1706              		.cfi_def_cfa_offset 8
 1707              		.cfi_offset 7, -8
 1708              		.cfi_offset 14, -4
 1709 0002 84B0     		sub	sp, sp, #16
 1710              		.cfi_def_cfa_offset 24
 1711 0004 00AF     		add	r7, sp, #0
 1712              		.cfi_def_cfa_register 7
 1713 0006 7860     		str	r0, [r7, #4]
 1714              		.loc 2 806 0
 1715 0008 0123     		movs	r3, #1
 1716 000a FB73     		strb	r3, [r7, #15]
 1717              		.loc 2 808 0
 1718 000c 7B68     		ldr	r3, [r7, #4]
 1719 000e 1B68     		ldr	r3, [r3]
 1720 0010 BB60     		str	r3, [r7, #8]
ARM GAS  C:\Users\Luis\AppData\Local\Temp\cc1uv7VI.s 			page 33


 1721              		.loc 2 810 0
 1722 0012 BB68     		ldr	r3, [r7, #8]
 1723 0014 002B     		cmp	r3, #0
 1724 0016 21D0     		beq	.L123
 1725              		.loc 2 812 0
 1726 0018 BB68     		ldr	r3, [r7, #8]
 1727 001a 1B89     		ldrh	r3, [r3, #8]
 1728 001c 1A46     		mov	r2, r3
 1729 001e 7B68     		ldr	r3, [r7, #4]
 1730 0020 1B89     		ldrh	r3, [r3, #8]
 1731 0022 1946     		mov	r1, r3
 1732 0024 7B68     		ldr	r3, [r7, #4]
 1733 0026 5B89     		ldrh	r3, [r3, #10]
 1734 0028 CB1A     		subs	r3, r1, r3
 1735 002a 9A42     		cmp	r2, r3
 1736 002c 02D0     		beq	.L124
 1737              		.loc 2 812 0 is_stmt 0 discriminator 1
 1738 002e 1548     		ldr	r0, .L129
 1739 0030 FFF7FEFF 		bl	osalSysHalt
 1740              	.L124:
 1741              		.loc 2 814 0 is_stmt 1
 1742 0034 7B68     		ldr	r3, [r7, #4]
 1743 0036 1A89     		ldrh	r2, [r3, #8]
 1744 0038 7B68     		ldr	r3, [r7, #4]
 1745 003a 5B89     		ldrh	r3, [r3, #10]
 1746 003c D31A     		subs	r3, r2, r3
 1747 003e 9AB2     		uxth	r2, r3
 1748 0040 BB68     		ldr	r3, [r7, #8]
 1749 0042 1A81     		strh	r2, [r3, #8]	@ movhi
 1750              		.loc 2 816 0
 1751 0044 7B68     		ldr	r3, [r7, #4]
 1752 0046 0022     		movs	r2, #0
 1753 0048 1A60     		str	r2, [r3]
 1754              		.loc 2 818 0
 1755 004a 7B68     		ldr	r3, [r7, #4]
 1756 004c 5A89     		ldrh	r2, [r3, #10]
 1757 004e 7B68     		ldr	r3, [r7, #4]
 1758 0050 1A81     		strh	r2, [r3, #8]	@ movhi
 1759              		.loc 2 821 0
 1760 0052 B868     		ldr	r0, [r7, #8]
 1761 0054 FFF7FEFF 		bl	pbuf_free
 1762 0058 0346     		mov	r3, r0
 1763 005a FB73     		strb	r3, [r7, #15]
 1764              	.L123:
 1765              		.loc 2 829 0
 1766 005c 7B68     		ldr	r3, [r7, #4]
 1767 005e 1A89     		ldrh	r2, [r3, #8]
 1768 0060 7B68     		ldr	r3, [r7, #4]
 1769 0062 5B89     		ldrh	r3, [r3, #10]
 1770 0064 9A42     		cmp	r2, r3
 1771 0066 02D0     		beq	.L125
 1772              		.loc 2 829 0 is_stmt 0 discriminator 1
 1773 0068 0748     		ldr	r0, .L129+4
 1774 006a FFF7FEFF 		bl	osalSysHalt
 1775              	.L125:
 1776              		.loc 2 830 0 is_stmt 1
 1777 006e FB7B     		ldrb	r3, [r7, #15]	@ zero_extendqisi2
ARM GAS  C:\Users\Luis\AppData\Local\Temp\cc1uv7VI.s 			page 34


 1778 0070 002B     		cmp	r3, #0
 1779 0072 01D1     		bne	.L126
 1780              		.loc 2 830 0 is_stmt 0 discriminator 1
 1781 0074 BB68     		ldr	r3, [r7, #8]
 1782 0076 00E0     		b	.L127
 1783              	.L126:
 1784              		.loc 2 830 0 discriminator 2
 1785 0078 0023     		movs	r3, #0
 1786              	.L127:
 1787              		.loc 2 831 0 is_stmt 1 discriminator 3
 1788 007a 1846     		mov	r0, r3
 1789 007c 1037     		adds	r7, r7, #16
 1790 007e BD46     		mov	sp, r7
 1791              		@ sp needed
 1792 0080 80BD     		pop	{r7, pc}
 1793              	.L130:
 1794 0082 00BF     		.align	2
 1795              	.L129:
 1796 0084 E8020000 		.word	.LC23
 1797 0088 0C030000 		.word	.LC24
 1798              		.cfi_endproc
 1799              	.LFE272:
 1800              		.size	pbuf_dechain, .-pbuf_dechain
 1801 008c AFF30080 		.section	.rodata
 1802 0321 000000   		.align	2
 1803              	.LC25:
 1804 0324 70627566 		.ascii	"pbuf_copy: target not big enough to hold source\000"
 1804      5F636F70 
 1804      793A2074 
 1804      61726765 
 1804      74206E6F 
 1805              		.align	2
 1806              	.LC26:
 1807 0354 6F666673 		.ascii	"offset_to <= p_to->len\000"
 1807      65745F74 
 1807      6F203C3D 
 1807      20705F74 
 1807      6F2D3E6C 
 1808 036b 00       		.align	2
 1809              	.LC27:
 1810 036c 6F666673 		.ascii	"offset_from <= p_from->len\000"
 1810      65745F66 
 1810      726F6D20 
 1810      3C3D2070 
 1810      5F66726F 
 1811 0387 00       		.align	2
 1812              	.LC28:
 1813 0388 705F746F 		.ascii	"p_to != NULL\000"
 1813      20213D20 
 1813      4E554C4C 
 1813      00
 1814 0395 000000   		.align	2
 1815              	.LC29:
 1816 0398 70627566 		.ascii	"pbuf_copy() does not allow packet queues!\012\000"
 1816      5F636F70 
 1816      79282920 
 1816      646F6573 
ARM GAS  C:\Users\Luis\AppData\Local\Temp\cc1uv7VI.s 			page 35


 1816      206E6F74 
 1817              		.section	.text.pbuf_copy,"ax",%progbits
 1818              		.align	2
 1819              		.p2align 4,,15
 1820              		.global	pbuf_copy
 1821              		.thumb
 1822              		.thumb_func
 1823              		.type	pbuf_copy, %function
 1824              	pbuf_copy:
 1825              	.LFB273:
 1826              		.loc 2 853 0
 1827              		.cfi_startproc
 1828              		@ args = 0, pretend = 0, frame = 16
 1829              		@ frame_needed = 1, uses_anonymous_args = 0
 1830 0000 80B5     		push	{r7, lr}
 1831              		.cfi_def_cfa_offset 8
 1832              		.cfi_offset 7, -8
 1833              		.cfi_offset 14, -4
 1834 0002 84B0     		sub	sp, sp, #16
 1835              		.cfi_def_cfa_offset 24
 1836 0004 00AF     		add	r7, sp, #0
 1837              		.cfi_def_cfa_register 7
 1838 0006 7860     		str	r0, [r7, #4]
 1839 0008 3960     		str	r1, [r7]
 1840              		.loc 2 854 0
 1841 000a 0023     		movs	r3, #0
 1842 000c FB81     		strh	r3, [r7, #14]	@ movhi
 1843 000e 0023     		movs	r3, #0
 1844 0010 BB81     		strh	r3, [r7, #12]	@ movhi
 1845              		.loc 2 860 0
 1846 0012 7B68     		ldr	r3, [r7, #4]
 1847 0014 002B     		cmp	r3, #0
 1848 0016 08D0     		beq	.L132
 1849              		.loc 2 860 0 is_stmt 0 discriminator 2
 1850 0018 3B68     		ldr	r3, [r7]
 1851 001a 002B     		cmp	r3, #0
 1852 001c 05D0     		beq	.L132
 1853              		.loc 2 860 0 discriminator 1
 1854 001e 7B68     		ldr	r3, [r7, #4]
 1855 0020 1A89     		ldrh	r2, [r3, #8]
 1856 0022 3B68     		ldr	r3, [r7]
 1857 0024 1B89     		ldrh	r3, [r3, #8]
 1858 0026 9A42     		cmp	r2, r3
 1859 0028 04D2     		bcs	.L133
 1860              	.L132:
 1861 002a 4748     		ldr	r0, .L143
 1862 002c FFF7FEFF 		bl	osalSysHalt
 1863 0030 F223     		movs	r3, #242
 1864 0032 84E0     		b	.L134
 1865              	.L133:
 1866              		.loc 2 867 0 is_stmt 1
 1867 0034 7B68     		ldr	r3, [r7, #4]
 1868 0036 5B89     		ldrh	r3, [r3, #10]
 1869 0038 1A46     		mov	r2, r3
 1870 003a FB89     		ldrh	r3, [r7, #14]
 1871 003c D21A     		subs	r2, r2, r3
 1872 003e 3B68     		ldr	r3, [r7]
ARM GAS  C:\Users\Luis\AppData\Local\Temp\cc1uv7VI.s 			page 36


 1873 0040 5B89     		ldrh	r3, [r3, #10]
 1874 0042 1946     		mov	r1, r3
 1875 0044 BB89     		ldrh	r3, [r7, #12]
 1876 0046 CB1A     		subs	r3, r1, r3
 1877 0048 9A42     		cmp	r2, r3
 1878 004a 05DB     		blt	.L135
 1879              		.loc 2 869 0
 1880 004c 3B68     		ldr	r3, [r7]
 1881 004e 5A89     		ldrh	r2, [r3, #10]
 1882 0050 BB89     		ldrh	r3, [r7, #12]	@ movhi
 1883 0052 D31A     		subs	r3, r2, r3
 1884 0054 7B81     		strh	r3, [r7, #10]	@ movhi
 1885 0056 04E0     		b	.L136
 1886              	.L135:
 1887              		.loc 2 872 0
 1888 0058 7B68     		ldr	r3, [r7, #4]
 1889 005a 5A89     		ldrh	r2, [r3, #10]
 1890 005c FB89     		ldrh	r3, [r7, #14]	@ movhi
 1891 005e D31A     		subs	r3, r2, r3
 1892 0060 7B81     		strh	r3, [r7, #10]	@ movhi
 1893              	.L136:
 1894              		.loc 2 874 0
 1895 0062 7B68     		ldr	r3, [r7, #4]
 1896 0064 5A68     		ldr	r2, [r3, #4]
 1897 0066 FB89     		ldrh	r3, [r7, #14]
 1898 0068 D118     		adds	r1, r2, r3
 1899 006a 3B68     		ldr	r3, [r7]
 1900 006c 5A68     		ldr	r2, [r3, #4]
 1901 006e BB89     		ldrh	r3, [r7, #12]
 1902 0070 1A44     		add	r2, r2, r3
 1903 0072 7B89     		ldrh	r3, [r7, #10]
 1904 0074 0846     		mov	r0, r1
 1905 0076 1146     		mov	r1, r2
 1906 0078 1A46     		mov	r2, r3
 1907 007a FFF7FEFF 		bl	memcpy
 1908              		.loc 2 875 0
 1909 007e FA89     		ldrh	r2, [r7, #14]	@ movhi
 1910 0080 7B89     		ldrh	r3, [r7, #10]	@ movhi
 1911 0082 1344     		add	r3, r3, r2
 1912 0084 FB81     		strh	r3, [r7, #14]	@ movhi
 1913              		.loc 2 876 0
 1914 0086 BA89     		ldrh	r2, [r7, #12]	@ movhi
 1915 0088 7B89     		ldrh	r3, [r7, #10]	@ movhi
 1916 008a 1344     		add	r3, r3, r2
 1917 008c BB81     		strh	r3, [r7, #12]	@ movhi
 1918              		.loc 2 877 0
 1919 008e 7B68     		ldr	r3, [r7, #4]
 1920 0090 5B89     		ldrh	r3, [r3, #10]
 1921 0092 FA89     		ldrh	r2, [r7, #14]
 1922 0094 9A42     		cmp	r2, r3
 1923 0096 02D9     		bls	.L137
 1924              		.loc 2 877 0 is_stmt 0 discriminator 1
 1925 0098 2C48     		ldr	r0, .L143+4
 1926 009a FFF7FEFF 		bl	osalSysHalt
 1927              	.L137:
 1928              		.loc 2 878 0 is_stmt 1
 1929 009e 3B68     		ldr	r3, [r7]
ARM GAS  C:\Users\Luis\AppData\Local\Temp\cc1uv7VI.s 			page 37


 1930 00a0 5B89     		ldrh	r3, [r3, #10]
 1931 00a2 BA89     		ldrh	r2, [r7, #12]
 1932 00a4 9A42     		cmp	r2, r3
 1933 00a6 02D9     		bls	.L138
 1934              		.loc 2 878 0 is_stmt 0 discriminator 1
 1935 00a8 2948     		ldr	r0, .L143+8
 1936 00aa FFF7FEFF 		bl	osalSysHalt
 1937              	.L138:
 1938              		.loc 2 879 0 is_stmt 1
 1939 00ae 3B68     		ldr	r3, [r7]
 1940 00b0 5B89     		ldrh	r3, [r3, #10]
 1941 00b2 BA89     		ldrh	r2, [r7, #12]
 1942 00b4 9A42     		cmp	r2, r3
 1943 00b6 04D3     		bcc	.L139
 1944              		.loc 2 881 0
 1945 00b8 0023     		movs	r3, #0
 1946 00ba BB81     		strh	r3, [r7, #12]	@ movhi
 1947              		.loc 2 882 0
 1948 00bc 3B68     		ldr	r3, [r7]
 1949 00be 1B68     		ldr	r3, [r3]
 1950 00c0 3B60     		str	r3, [r7]
 1951              	.L139:
 1952              		.loc 2 884 0
 1953 00c2 7B68     		ldr	r3, [r7, #4]
 1954 00c4 5B89     		ldrh	r3, [r3, #10]
 1955 00c6 FA89     		ldrh	r2, [r7, #14]
 1956 00c8 9A42     		cmp	r2, r3
 1957 00ca 0FD1     		bne	.L140
 1958              		.loc 2 886 0
 1959 00cc 0023     		movs	r3, #0
 1960 00ce FB81     		strh	r3, [r7, #14]	@ movhi
 1961              		.loc 2 887 0
 1962 00d0 7B68     		ldr	r3, [r7, #4]
 1963 00d2 1B68     		ldr	r3, [r3]
 1964 00d4 7B60     		str	r3, [r7, #4]
 1965              		.loc 2 888 0
 1966 00d6 7B68     		ldr	r3, [r7, #4]
 1967 00d8 002B     		cmp	r3, #0
 1968 00da 07D1     		bne	.L140
 1969              		.loc 2 888 0 is_stmt 0 discriminator 1
 1970 00dc 3B68     		ldr	r3, [r7]
 1971 00de 002B     		cmp	r3, #0
 1972 00e0 04D0     		beq	.L140
 1973 00e2 1C48     		ldr	r0, .L143+12
 1974 00e4 FFF7FEFF 		bl	osalSysHalt
 1975 00e8 F223     		movs	r3, #242
 1976 00ea 28E0     		b	.L134
 1977              	.L140:
 1978              		.loc 2 891 0 is_stmt 1
 1979 00ec 3B68     		ldr	r3, [r7]
 1980 00ee 002B     		cmp	r3, #0
 1981 00f0 0ED0     		beq	.L141
 1982              		.loc 2 891 0 is_stmt 0 discriminator 1
 1983 00f2 3B68     		ldr	r3, [r7]
 1984 00f4 5A89     		ldrh	r2, [r3, #10]
 1985 00f6 3B68     		ldr	r3, [r7]
 1986 00f8 1B89     		ldrh	r3, [r3, #8]
ARM GAS  C:\Users\Luis\AppData\Local\Temp\cc1uv7VI.s 			page 38


 1987 00fa 9A42     		cmp	r2, r3
 1988 00fc 08D1     		bne	.L141
 1989              		.loc 2 893 0 is_stmt 1
 1990 00fe 3B68     		ldr	r3, [r7]
 1991 0100 1B68     		ldr	r3, [r3]
 1992 0102 002B     		cmp	r3, #0
 1993 0104 04D0     		beq	.L141
 1994              		.loc 2 893 0 is_stmt 0 discriminator 1
 1995 0106 1448     		ldr	r0, .L143+16
 1996 0108 FFF7FEFF 		bl	osalSysHalt
 1997 010c FA23     		movs	r3, #250
 1998 010e 16E0     		b	.L134
 1999              	.L141:
 2000              		.loc 2 896 0 is_stmt 1
 2001 0110 7B68     		ldr	r3, [r7, #4]
 2002 0112 002B     		cmp	r3, #0
 2003 0114 0ED0     		beq	.L142
 2004              		.loc 2 896 0 is_stmt 0 discriminator 1
 2005 0116 7B68     		ldr	r3, [r7, #4]
 2006 0118 5A89     		ldrh	r2, [r3, #10]
 2007 011a 7B68     		ldr	r3, [r7, #4]
 2008 011c 1B89     		ldrh	r3, [r3, #8]
 2009 011e 9A42     		cmp	r2, r3
 2010 0120 08D1     		bne	.L142
 2011              		.loc 2 898 0 is_stmt 1
 2012 0122 7B68     		ldr	r3, [r7, #4]
 2013 0124 1B68     		ldr	r3, [r3]
 2014 0126 002B     		cmp	r3, #0
 2015 0128 04D0     		beq	.L142
 2016              		.loc 2 898 0 is_stmt 0 discriminator 1
 2017 012a 0B48     		ldr	r0, .L143+16
 2018 012c FFF7FEFF 		bl	osalSysHalt
 2019 0130 FA23     		movs	r3, #250
 2020 0132 04E0     		b	.L134
 2021              	.L142:
 2022              		.loc 2 901 0 is_stmt 1
 2023 0134 3B68     		ldr	r3, [r7]
 2024 0136 002B     		cmp	r3, #0
 2025 0138 7FF47CAF 		bne	.L133
 2026              		.loc 2 903 0
 2027 013c 0023     		movs	r3, #0
 2028              	.L134:
 2029 013e 5BB2     		sxtb	r3, r3
 2030              		.loc 2 904 0
 2031 0140 1846     		mov	r0, r3
 2032 0142 1037     		adds	r7, r7, #16
 2033 0144 BD46     		mov	sp, r7
 2034              		@ sp needed
 2035 0146 80BD     		pop	{r7, pc}
 2036              	.L144:
 2037              		.align	2
 2038              	.L143:
 2039 0148 24030000 		.word	.LC25
 2040 014c 54030000 		.word	.LC26
 2041 0150 6C030000 		.word	.LC27
 2042 0154 88030000 		.word	.LC28
 2043 0158 98030000 		.word	.LC29
ARM GAS  C:\Users\Luis\AppData\Local\Temp\cc1uv7VI.s 			page 39


 2044              		.cfi_endproc
 2045              	.LFE273:
 2046              		.size	pbuf_copy, .-pbuf_copy
 2047 015c AFF30080 		.section	.rodata
 2048 03c3 00       		.align	2
 2049              	.LC30:
 2050 03c4 70627566 		.ascii	"pbuf_copy_partial: invalid buf\000"
 2050      5F636F70 
 2050      795F7061 
 2050      72746961 
 2050      6C3A2069 
 2051 03e3 00       		.align	2
 2052              	.LC31:
 2053 03e4 70627566 		.ascii	"pbuf_copy_partial: invalid dataptr\000"
 2053      5F636F70 
 2053      795F7061 
 2053      72746961 
 2053      6C3A2069 
 2054              		.section	.text.pbuf_copy_partial,"ax",%progbits
 2055              		.align	2
 2056              		.p2align 4,,15
 2057              		.global	pbuf_copy_partial
 2058              		.thumb
 2059              		.thumb_func
 2060              		.type	pbuf_copy_partial, %function
 2061              	pbuf_copy_partial:
 2062              	.LFB274:
 2063              		.loc 2 919 0
 2064              		.cfi_startproc
 2065              		@ args = 0, pretend = 0, frame = 32
 2066              		@ frame_needed = 1, uses_anonymous_args = 0
 2067 0000 80B5     		push	{r7, lr}
 2068              		.cfi_def_cfa_offset 8
 2069              		.cfi_offset 7, -8
 2070              		.cfi_offset 14, -4
 2071 0002 88B0     		sub	sp, sp, #32
 2072              		.cfi_def_cfa_offset 40
 2073 0004 00AF     		add	r7, sp, #0
 2074              		.cfi_def_cfa_register 7
 2075 0006 F860     		str	r0, [r7, #12]
 2076 0008 B960     		str	r1, [r7, #8]
 2077 000a FA80     		strh	r2, [r7, #6]	@ movhi
 2078 000c BB80     		strh	r3, [r7, #4]	@ movhi
 2079              		.loc 2 923 0
 2080 000e 0023     		movs	r3, #0
 2081 0010 FB82     		strh	r3, [r7, #22]	@ movhi
 2082              		.loc 2 925 0
 2083 0012 FB68     		ldr	r3, [r7, #12]
 2084 0014 002B     		cmp	r3, #0
 2085 0016 04D1     		bne	.L146
 2086              		.loc 2 925 0 is_stmt 0 discriminator 1
 2087 0018 2D48     		ldr	r0, .L157
 2088 001a FFF7FEFF 		bl	osalSysHalt
 2089 001e 0023     		movs	r3, #0
 2090 0020 52E0     		b	.L147
 2091              	.L146:
 2092              		.loc 2 926 0 is_stmt 1
ARM GAS  C:\Users\Luis\AppData\Local\Temp\cc1uv7VI.s 			page 40


 2093 0022 BB68     		ldr	r3, [r7, #8]
 2094 0024 002B     		cmp	r3, #0
 2095 0026 04D1     		bne	.L148
 2096              		.loc 2 926 0 is_stmt 0 discriminator 1
 2097 0028 2A48     		ldr	r0, .L157+4
 2098 002a FFF7FEFF 		bl	osalSysHalt
 2099 002e 0023     		movs	r3, #0
 2100 0030 4AE0     		b	.L147
 2101              	.L148:
 2102              		.loc 2 928 0 is_stmt 1
 2103 0032 0023     		movs	r3, #0
 2104 0034 7B83     		strh	r3, [r7, #26]	@ movhi
 2105              		.loc 2 930 0
 2106 0036 FB68     		ldr	r3, [r7, #12]
 2107 0038 002B     		cmp	r3, #0
 2108 003a 02D0     		beq	.L149
 2109              		.loc 2 930 0 is_stmt 0 discriminator 1
 2110 003c BB68     		ldr	r3, [r7, #8]
 2111 003e 002B     		cmp	r3, #0
 2112 0040 01D1     		bne	.L150
 2113              	.L149:
 2114              		.loc 2 931 0 is_stmt 1
 2115 0042 0023     		movs	r3, #0
 2116 0044 40E0     		b	.L147
 2117              	.L150:
 2118              		.loc 2 935 0
 2119 0046 FB68     		ldr	r3, [r7, #12]
 2120 0048 FB61     		str	r3, [r7, #28]
 2121 004a 36E0     		b	.L151
 2122              	.L156:
 2123              		.loc 2 936 0
 2124 004c BB88     		ldrh	r3, [r7, #4]
 2125 004e 002B     		cmp	r3, #0
 2126 0050 0AD0     		beq	.L152
 2127              		.loc 2 936 0 is_stmt 0 discriminator 1
 2128 0052 FB69     		ldr	r3, [r7, #28]
 2129 0054 5B89     		ldrh	r3, [r3, #10]
 2130 0056 BA88     		ldrh	r2, [r7, #4]
 2131 0058 9A42     		cmp	r2, r3
 2132 005a 05D3     		bcc	.L152
 2133              		.loc 2 938 0 is_stmt 1
 2134 005c FB69     		ldr	r3, [r7, #28]
 2135 005e 5B89     		ldrh	r3, [r3, #10]
 2136 0060 BA88     		ldrh	r2, [r7, #4]	@ movhi
 2137 0062 D31A     		subs	r3, r2, r3
 2138 0064 BB80     		strh	r3, [r7, #4]	@ movhi
 2139 0066 25E0     		b	.L153
 2140              	.L152:
 2141              		.loc 2 941 0
 2142 0068 FB69     		ldr	r3, [r7, #28]
 2143 006a 5A89     		ldrh	r2, [r3, #10]
 2144 006c BB88     		ldrh	r3, [r7, #4]	@ movhi
 2145 006e D31A     		subs	r3, r2, r3
 2146 0070 3B83     		strh	r3, [r7, #24]	@ movhi
 2147              		.loc 2 942 0
 2148 0072 3A8B     		ldrh	r2, [r7, #24]
 2149 0074 FB88     		ldrh	r3, [r7, #6]
ARM GAS  C:\Users\Luis\AppData\Local\Temp\cc1uv7VI.s 			page 41


 2150 0076 9A42     		cmp	r2, r3
 2151 0078 01D9     		bls	.L154
 2152              		.loc 2 943 0
 2153 007a FB88     		ldrh	r3, [r7, #6]	@ movhi
 2154 007c 3B83     		strh	r3, [r7, #24]	@ movhi
 2155              	.L154:
 2156              		.loc 2 945 0
 2157 007e 7B8B     		ldrh	r3, [r7, #26]
 2158 0080 BA68     		ldr	r2, [r7, #8]
 2159 0082 D118     		adds	r1, r2, r3
 2160 0084 FB69     		ldr	r3, [r7, #28]
 2161 0086 5A68     		ldr	r2, [r3, #4]
 2162 0088 BB88     		ldrh	r3, [r7, #4]
 2163 008a 1A44     		add	r2, r2, r3
 2164 008c 3B8B     		ldrh	r3, [r7, #24]
 2165 008e 0846     		mov	r0, r1
 2166 0090 1146     		mov	r1, r2
 2167 0092 1A46     		mov	r2, r3
 2168 0094 FFF7FEFF 		bl	memcpy
 2169              		.loc 2 946 0
 2170 0098 FA8A     		ldrh	r2, [r7, #22]	@ movhi
 2171 009a 3B8B     		ldrh	r3, [r7, #24]	@ movhi
 2172 009c 1344     		add	r3, r3, r2
 2173 009e FB82     		strh	r3, [r7, #22]	@ movhi
 2174              		.loc 2 947 0
 2175 00a0 7A8B     		ldrh	r2, [r7, #26]	@ movhi
 2176 00a2 3B8B     		ldrh	r3, [r7, #24]	@ movhi
 2177 00a4 1344     		add	r3, r3, r2
 2178 00a6 7B83     		strh	r3, [r7, #26]	@ movhi
 2179              		.loc 2 948 0
 2180 00a8 FA88     		ldrh	r2, [r7, #6]	@ movhi
 2181 00aa 3B8B     		ldrh	r3, [r7, #24]	@ movhi
 2182 00ac D31A     		subs	r3, r2, r3
 2183 00ae FB80     		strh	r3, [r7, #6]	@ movhi
 2184              		.loc 2 949 0
 2185 00b0 0023     		movs	r3, #0
 2186 00b2 BB80     		strh	r3, [r7, #4]	@ movhi
 2187              	.L153:
 2188              		.loc 2 935 0
 2189 00b4 FB69     		ldr	r3, [r7, #28]
 2190 00b6 1B68     		ldr	r3, [r3]
 2191 00b8 FB61     		str	r3, [r7, #28]
 2192              	.L151:
 2193              		.loc 2 935 0 is_stmt 0 discriminator 1
 2194 00ba FB88     		ldrh	r3, [r7, #6]
 2195 00bc 002B     		cmp	r3, #0
 2196 00be 02D0     		beq	.L155
 2197              		.loc 2 935 0 discriminator 2
 2198 00c0 FB69     		ldr	r3, [r7, #28]
 2199 00c2 002B     		cmp	r3, #0
 2200 00c4 C2D1     		bne	.L156
 2201              	.L155:
 2202              		.loc 2 952 0 is_stmt 1
 2203 00c6 FB8A     		ldrh	r3, [r7, #22]
 2204              	.L147:
 2205              		.loc 2 953 0
 2206 00c8 1846     		mov	r0, r3
ARM GAS  C:\Users\Luis\AppData\Local\Temp\cc1uv7VI.s 			page 42


 2207 00ca 2037     		adds	r7, r7, #32
 2208 00cc BD46     		mov	sp, r7
 2209              		@ sp needed
 2210 00ce 80BD     		pop	{r7, pc}
 2211              	.L158:
 2212              		.align	2
 2213              	.L157:
 2214 00d0 C4030000 		.word	.LC30
 2215 00d4 E4030000 		.word	.LC31
 2216              		.cfi_endproc
 2217              	.LFE274:
 2218              		.size	pbuf_copy_partial, .-pbuf_copy_partial
 2219 00d8 AFF30080 		.section	.rodata
 2219      AFF30080 
 2220 0407 00       		.align	2
 2221              	.LC32:
 2222 0408 70627566 		.ascii	"pbuf_take: invalid buf\000"
 2222      5F74616B 
 2222      653A2069 
 2222      6E76616C 
 2222      69642062 
 2223 041f 00       		.align	2
 2224              	.LC33:
 2225 0420 70627566 		.ascii	"pbuf_take: invalid dataptr\000"
 2225      5F74616B 
 2225      653A2069 
 2225      6E76616C 
 2225      69642064 
 2226 043b 00       		.align	2
 2227              	.LC34:
 2228 043c 70627566 		.ascii	"pbuf_take: invalid pbuf\000"
 2228      5F74616B 
 2228      653A2069 
 2228      6E76616C 
 2228      69642070 
 2229              		.align	2
 2230              	.LC35:
 2231 0454 64696420 		.ascii	"did not copy all data\000"
 2231      6E6F7420 
 2231      636F7079 
 2231      20616C6C 
 2231      20646174 
 2232              		.section	.text.pbuf_take,"ax",%progbits
 2233              		.align	2
 2234              		.p2align 4,,15
 2235              		.global	pbuf_take
 2236              		.thumb
 2237              		.thumb_func
 2238              		.type	pbuf_take, %function
 2239              	pbuf_take:
 2240              	.LFB275:
 2241              		.loc 2 967 0
 2242              		.cfi_startproc
 2243              		@ args = 0, pretend = 0, frame = 32
 2244              		@ frame_needed = 1, uses_anonymous_args = 0
 2245 0000 80B5     		push	{r7, lr}
 2246              		.cfi_def_cfa_offset 8
ARM GAS  C:\Users\Luis\AppData\Local\Temp\cc1uv7VI.s 			page 43


 2247              		.cfi_offset 7, -8
 2248              		.cfi_offset 14, -4
 2249 0002 88B0     		sub	sp, sp, #32
 2250              		.cfi_def_cfa_offset 40
 2251 0004 00AF     		add	r7, sp, #0
 2252              		.cfi_def_cfa_register 7
 2253 0006 F860     		str	r0, [r7, #12]
 2254 0008 B960     		str	r1, [r7, #8]
 2255 000a 1346     		mov	r3, r2
 2256 000c FB80     		strh	r3, [r7, #6]	@ movhi
 2257              		.loc 2 970 0
 2258 000e FB88     		ldrh	r3, [r7, #6]	@ movhi
 2259 0010 3B83     		strh	r3, [r7, #24]	@ movhi
 2260              		.loc 2 971 0
 2261 0012 0023     		movs	r3, #0
 2262 0014 FB82     		strh	r3, [r7, #22]	@ movhi
 2263              		.loc 2 973 0
 2264 0016 FB68     		ldr	r3, [r7, #12]
 2265 0018 002B     		cmp	r3, #0
 2266 001a 04D1     		bne	.L160
 2267              		.loc 2 973 0 is_stmt 0 discriminator 1
 2268 001c 2A48     		ldr	r0, .L171
 2269 001e FFF7FEFF 		bl	osalSysHalt
 2270 0022 0023     		movs	r3, #0
 2271 0024 4BE0     		b	.L161
 2272              	.L160:
 2273              		.loc 2 974 0 is_stmt 1
 2274 0026 BB68     		ldr	r3, [r7, #8]
 2275 0028 002B     		cmp	r3, #0
 2276 002a 04D1     		bne	.L162
 2277              		.loc 2 974 0 is_stmt 0 discriminator 1
 2278 002c 2748     		ldr	r0, .L171+4
 2279 002e FFF7FEFF 		bl	osalSysHalt
 2280 0032 0023     		movs	r3, #0
 2281 0034 43E0     		b	.L161
 2282              	.L162:
 2283              		.loc 2 976 0 is_stmt 1
 2284 0036 FB68     		ldr	r3, [r7, #12]
 2285 0038 002B     		cmp	r3, #0
 2286 003a 07D0     		beq	.L163
 2287              		.loc 2 976 0 is_stmt 0 discriminator 1
 2288 003c BB68     		ldr	r3, [r7, #8]
 2289 003e 002B     		cmp	r3, #0
 2290 0040 04D0     		beq	.L163
 2291 0042 FB68     		ldr	r3, [r7, #12]
 2292 0044 1B89     		ldrh	r3, [r3, #8]
 2293 0046 FA88     		ldrh	r2, [r7, #6]
 2294 0048 9A42     		cmp	r2, r3
 2295 004a 01D9     		bls	.L164
 2296              	.L163:
 2297              		.loc 2 977 0 is_stmt 1
 2298 004c F223     		movs	r3, #242
 2299 004e 36E0     		b	.L161
 2300              	.L164:
 2301              		.loc 2 981 0
 2302 0050 FB68     		ldr	r3, [r7, #12]
 2303 0052 FB61     		str	r3, [r7, #28]
ARM GAS  C:\Users\Luis\AppData\Local\Temp\cc1uv7VI.s 			page 44


 2304 0054 25E0     		b	.L165
 2305              	.L168:
 2306              		.loc 2 982 0
 2307 0056 FB69     		ldr	r3, [r7, #28]
 2308 0058 002B     		cmp	r3, #0
 2309 005a 02D1     		bne	.L166
 2310              		.loc 2 982 0 is_stmt 0 discriminator 1
 2311 005c 1C48     		ldr	r0, .L171+8
 2312 005e FFF7FEFF 		bl	osalSysHalt
 2313              	.L166:
 2314              		.loc 2 983 0 is_stmt 1
 2315 0062 3B8B     		ldrh	r3, [r7, #24]	@ movhi
 2316 0064 7B83     		strh	r3, [r7, #26]	@ movhi
 2317              		.loc 2 984 0
 2318 0066 FB69     		ldr	r3, [r7, #28]
 2319 0068 5B89     		ldrh	r3, [r3, #10]
 2320 006a 7A8B     		ldrh	r2, [r7, #26]
 2321 006c 9A42     		cmp	r2, r3
 2322 006e 02D9     		bls	.L167
 2323              		.loc 2 986 0
 2324 0070 FB69     		ldr	r3, [r7, #28]
 2325 0072 5B89     		ldrh	r3, [r3, #10]	@ movhi
 2326 0074 7B83     		strh	r3, [r7, #26]	@ movhi
 2327              	.L167:
 2328              		.loc 2 989 0
 2329 0076 FB69     		ldr	r3, [r7, #28]
 2330 0078 5968     		ldr	r1, [r3, #4]
 2331 007a FB8A     		ldrh	r3, [r7, #22]
 2332 007c BA68     		ldr	r2, [r7, #8]
 2333 007e 1A44     		add	r2, r2, r3
 2334 0080 7B8B     		ldrh	r3, [r7, #26]
 2335 0082 0846     		mov	r0, r1
 2336 0084 1146     		mov	r1, r2
 2337 0086 1A46     		mov	r2, r3
 2338 0088 FFF7FEFF 		bl	memcpy
 2339              		.loc 2 990 0
 2340 008c 3A8B     		ldrh	r2, [r7, #24]	@ movhi
 2341 008e 7B8B     		ldrh	r3, [r7, #26]	@ movhi
 2342 0090 D31A     		subs	r3, r2, r3
 2343 0092 3B83     		strh	r3, [r7, #24]	@ movhi
 2344              		.loc 2 991 0
 2345 0094 FA8A     		ldrh	r2, [r7, #22]	@ movhi
 2346 0096 7B8B     		ldrh	r3, [r7, #26]	@ movhi
 2347 0098 1344     		add	r3, r3, r2
 2348 009a FB82     		strh	r3, [r7, #22]	@ movhi
 2349              		.loc 2 981 0
 2350 009c FB69     		ldr	r3, [r7, #28]
 2351 009e 1B68     		ldr	r3, [r3]
 2352 00a0 FB61     		str	r3, [r7, #28]
 2353              	.L165:
 2354              		.loc 2 981 0 is_stmt 0 discriminator 1
 2355 00a2 3B8B     		ldrh	r3, [r7, #24]
 2356 00a4 002B     		cmp	r3, #0
 2357 00a6 D6D1     		bne	.L168
 2358              		.loc 2 993 0 is_stmt 1
 2359 00a8 3B8B     		ldrh	r3, [r7, #24]
 2360 00aa 002B     		cmp	r3, #0
ARM GAS  C:\Users\Luis\AppData\Local\Temp\cc1uv7VI.s 			page 45


 2361 00ac 03D1     		bne	.L169
 2362              		.loc 2 993 0 is_stmt 0 discriminator 2
 2363 00ae FA8A     		ldrh	r2, [r7, #22]
 2364 00b0 FB88     		ldrh	r3, [r7, #6]
 2365 00b2 9A42     		cmp	r2, r3
 2366 00b4 02D0     		beq	.L170
 2367              	.L169:
 2368              		.loc 2 993 0 discriminator 1
 2369 00b6 0748     		ldr	r0, .L171+12
 2370 00b8 FFF7FEFF 		bl	osalSysHalt
 2371              	.L170:
 2372              		.loc 2 994 0 is_stmt 1
 2373 00bc 0023     		movs	r3, #0
 2374              	.L161:
 2375 00be 5BB2     		sxtb	r3, r3
 2376              		.loc 2 995 0
 2377 00c0 1846     		mov	r0, r3
 2378 00c2 2037     		adds	r7, r7, #32
 2379 00c4 BD46     		mov	sp, r7
 2380              		@ sp needed
 2381 00c6 80BD     		pop	{r7, pc}
 2382              	.L172:
 2383              		.align	2
 2384              	.L171:
 2385 00c8 08040000 		.word	.LC32
 2386 00cc 20040000 		.word	.LC33
 2387 00d0 3C040000 		.word	.LC34
 2388 00d4 54040000 		.word	.LC35
 2389              		.cfi_endproc
 2390              	.LFE275:
 2391              		.size	pbuf_take, .-pbuf_take
 2392 00d8 AFF30080 		.section	.rodata
 2392      AFF30080 
 2393 046a 0000     		.align	2
 2394              	.LC36:
 2395 046c 70627566 		.ascii	"pbuf_copy failed\000"
 2395      5F636F70 
 2395      79206661 
 2395      696C6564 
 2395      00
 2396 047d 000000   		.section	.text.pbuf_coalesce,"ax",%progbits
 2397              		.align	2
 2398              		.p2align 4,,15
 2399              		.global	pbuf_coalesce
 2400              		.thumb
 2401              		.thumb_func
 2402              		.type	pbuf_coalesce, %function
 2403              	pbuf_coalesce:
 2404              	.LFB276:
 2405              		.loc 2 1011 0
 2406              		.cfi_startproc
 2407              		@ args = 0, pretend = 0, frame = 16
 2408              		@ frame_needed = 1, uses_anonymous_args = 0
 2409 0000 80B5     		push	{r7, lr}
 2410              		.cfi_def_cfa_offset 8
 2411              		.cfi_offset 7, -8
 2412              		.cfi_offset 14, -4
ARM GAS  C:\Users\Luis\AppData\Local\Temp\cc1uv7VI.s 			page 46


 2413 0002 84B0     		sub	sp, sp, #16
 2414              		.cfi_def_cfa_offset 24
 2415 0004 00AF     		add	r7, sp, #0
 2416              		.cfi_def_cfa_register 7
 2417 0006 7860     		str	r0, [r7, #4]
 2418 0008 0B46     		mov	r3, r1
 2419 000a FB70     		strb	r3, [r7, #3]
 2420              		.loc 2 1014 0
 2421 000c 7B68     		ldr	r3, [r7, #4]
 2422 000e 1B68     		ldr	r3, [r3]
 2423 0010 002B     		cmp	r3, #0
 2424 0012 01D1     		bne	.L174
 2425              		.loc 2 1015 0
 2426 0014 7B68     		ldr	r3, [r7, #4]
 2427 0016 1EE0     		b	.L175
 2428              	.L174:
 2429              		.loc 2 1017 0
 2430 0018 7B68     		ldr	r3, [r7, #4]
 2431 001a 1B89     		ldrh	r3, [r3, #8]
 2432 001c FA78     		ldrb	r2, [r7, #3]	@ zero_extendqisi2
 2433 001e 1046     		mov	r0, r2
 2434 0020 1946     		mov	r1, r3
 2435 0022 0022     		movs	r2, #0
 2436 0024 FFF7FEFF 		bl	pbuf_alloc
 2437 0028 F860     		str	r0, [r7, #12]
 2438              		.loc 2 1018 0
 2439 002a FB68     		ldr	r3, [r7, #12]
 2440 002c 002B     		cmp	r3, #0
 2441 002e 01D1     		bne	.L176
 2442              		.loc 2 1020 0
 2443 0030 7B68     		ldr	r3, [r7, #4]
 2444 0032 10E0     		b	.L175
 2445              	.L176:
 2446              		.loc 2 1022 0
 2447 0034 F868     		ldr	r0, [r7, #12]
 2448 0036 7968     		ldr	r1, [r7, #4]
 2449 0038 FFF7FEFF 		bl	pbuf_copy
 2450 003c 0346     		mov	r3, r0
 2451 003e FB72     		strb	r3, [r7, #11]
 2452              		.loc 2 1023 0
 2453 0040 97F90B30 		ldrsb	r3, [r7, #11]
 2454 0044 002B     		cmp	r3, #0
 2455 0046 02D0     		beq	.L177
 2456              		.loc 2 1023 0 is_stmt 0 discriminator 1
 2457 0048 0548     		ldr	r0, .L178
 2458 004a FFF7FEFF 		bl	osalSysHalt
 2459              	.L177:
 2460              		.loc 2 1024 0 is_stmt 1
 2461 004e 7868     		ldr	r0, [r7, #4]
 2462 0050 FFF7FEFF 		bl	pbuf_free
 2463              		.loc 2 1025 0
 2464 0054 FB68     		ldr	r3, [r7, #12]
 2465              	.L175:
 2466              		.loc 2 1026 0
 2467 0056 1846     		mov	r0, r3
 2468 0058 1037     		adds	r7, r7, #16
 2469 005a BD46     		mov	sp, r7
ARM GAS  C:\Users\Luis\AppData\Local\Temp\cc1uv7VI.s 			page 47


 2470              		@ sp needed
 2471 005c 80BD     		pop	{r7, pc}
 2472              	.L179:
 2473 005e 00BF     		.align	2
 2474              	.L178:
 2475 0060 6C040000 		.word	.LC36
 2476              		.cfi_endproc
 2477              	.LFE276:
 2478              		.size	pbuf_coalesce, .-pbuf_coalesce
 2479 0064 AFF30080 		.section	.text.pbuf_get_at,"ax",%progbits
 2479      AFF30080 
 2479      AFF30080 
 2480              		.align	2
 2481              		.p2align 4,,15
 2482              		.global	pbuf_get_at
 2483              		.thumb
 2484              		.thumb_func
 2485              		.type	pbuf_get_at, %function
 2486              	pbuf_get_at:
 2487              	.LFB277:
 2488              		.loc 2 1078 0
 2489              		.cfi_startproc
 2490              		@ args = 0, pretend = 0, frame = 16
 2491              		@ frame_needed = 1, uses_anonymous_args = 0
 2492              		@ link register save eliminated.
 2493 0000 80B4     		push	{r7}
 2494              		.cfi_def_cfa_offset 4
 2495              		.cfi_offset 7, -4
 2496 0002 85B0     		sub	sp, sp, #20
 2497              		.cfi_def_cfa_offset 24
 2498 0004 00AF     		add	r7, sp, #0
 2499              		.cfi_def_cfa_register 7
 2500 0006 7860     		str	r0, [r7, #4]
 2501 0008 0B46     		mov	r3, r1
 2502 000a 7B80     		strh	r3, [r7, #2]	@ movhi
 2503              		.loc 2 1079 0
 2504 000c 7B88     		ldrh	r3, [r7, #2]	@ movhi
 2505 000e FB81     		strh	r3, [r7, #14]	@ movhi
 2506              		.loc 2 1080 0
 2507 0010 7B68     		ldr	r3, [r7, #4]
 2508 0012 BB60     		str	r3, [r7, #8]
 2509              		.loc 2 1083 0
 2510 0014 07E0     		b	.L181
 2511              	.L183:
 2512              		.loc 2 1084 0
 2513 0016 BB68     		ldr	r3, [r7, #8]
 2514 0018 5B89     		ldrh	r3, [r3, #10]
 2515 001a FA89     		ldrh	r2, [r7, #14]	@ movhi
 2516 001c D31A     		subs	r3, r2, r3
 2517 001e FB81     		strh	r3, [r7, #14]	@ movhi
 2518              		.loc 2 1085 0
 2519 0020 BB68     		ldr	r3, [r7, #8]
 2520 0022 1B68     		ldr	r3, [r3]
 2521 0024 BB60     		str	r3, [r7, #8]
 2522              	.L181:
 2523              		.loc 2 1083 0 discriminator 1
 2524 0026 BB68     		ldr	r3, [r7, #8]
ARM GAS  C:\Users\Luis\AppData\Local\Temp\cc1uv7VI.s 			page 48


 2525 0028 002B     		cmp	r3, #0
 2526 002a 04D0     		beq	.L182
 2527              		.loc 2 1083 0 is_stmt 0 discriminator 2
 2528 002c BB68     		ldr	r3, [r7, #8]
 2529 002e 5B89     		ldrh	r3, [r3, #10]
 2530 0030 FA89     		ldrh	r2, [r7, #14]
 2531 0032 9A42     		cmp	r2, r3
 2532 0034 EFD2     		bcs	.L183
 2533              	.L182:
 2534              		.loc 2 1088 0 is_stmt 1
 2535 0036 BB68     		ldr	r3, [r7, #8]
 2536 0038 002B     		cmp	r3, #0
 2537 003a 0AD0     		beq	.L184
 2538              		.loc 2 1088 0 is_stmt 0 discriminator 1
 2539 003c BB68     		ldr	r3, [r7, #8]
 2540 003e 5B89     		ldrh	r3, [r3, #10]
 2541 0040 FA89     		ldrh	r2, [r7, #14]
 2542 0042 9A42     		cmp	r2, r3
 2543 0044 05D2     		bcs	.L184
 2544              		.loc 2 1089 0 is_stmt 1
 2545 0046 BB68     		ldr	r3, [r7, #8]
 2546 0048 5A68     		ldr	r2, [r3, #4]
 2547 004a FB89     		ldrh	r3, [r7, #14]
 2548 004c 1344     		add	r3, r3, r2
 2549 004e 1B78     		ldrb	r3, [r3]	@ zero_extendqisi2
 2550 0050 00E0     		b	.L185
 2551              	.L184:
 2552              		.loc 2 1091 0
 2553 0052 0023     		movs	r3, #0
 2554              	.L185:
 2555              		.loc 2 1092 0
 2556 0054 1846     		mov	r0, r3
 2557 0056 1437     		adds	r7, r7, #20
 2558 0058 BD46     		mov	sp, r7
 2559              		@ sp needed
 2560 005a 5DF8047B 		ldr	r7, [sp], #4
 2561 005e 7047     		bx	lr
 2562              		.cfi_endproc
 2563              	.LFE277:
 2564              		.size	pbuf_get_at, .-pbuf_get_at
 2565              		.section	.text.pbuf_memcmp,"ax",%progbits
 2566              		.align	2
 2567              		.p2align 4,,15
 2568              		.global	pbuf_memcmp
 2569              		.thumb
 2570              		.thumb_func
 2571              		.type	pbuf_memcmp, %function
 2572              	pbuf_memcmp:
 2573              	.LFB278:
 2574              		.loc 2 1105 0
 2575              		.cfi_startproc
 2576              		@ args = 0, pretend = 0, frame = 32
 2577              		@ frame_needed = 1, uses_anonymous_args = 0
 2578 0000 80B5     		push	{r7, lr}
 2579              		.cfi_def_cfa_offset 8
 2580              		.cfi_offset 7, -8
 2581              		.cfi_offset 14, -4
ARM GAS  C:\Users\Luis\AppData\Local\Temp\cc1uv7VI.s 			page 49


 2582 0002 88B0     		sub	sp, sp, #32
 2583              		.cfi_def_cfa_offset 40
 2584 0004 00AF     		add	r7, sp, #0
 2585              		.cfi_def_cfa_register 7
 2586 0006 F860     		str	r0, [r7, #12]
 2587 0008 7A60     		str	r2, [r7, #4]
 2588 000a 0A46     		mov	r2, r1	@ movhi
 2589 000c 7A81     		strh	r2, [r7, #10]	@ movhi
 2590 000e 3B81     		strh	r3, [r7, #8]	@ movhi
 2591              		.loc 2 1106 0
 2592 0010 7B89     		ldrh	r3, [r7, #10]	@ movhi
 2593 0012 FB83     		strh	r3, [r7, #30]	@ movhi
 2594              		.loc 2 1107 0
 2595 0014 FB68     		ldr	r3, [r7, #12]
 2596 0016 BB61     		str	r3, [r7, #24]
 2597              		.loc 2 1110 0
 2598 0018 07E0     		b	.L187
 2599              	.L189:
 2600              		.loc 2 1111 0
 2601 001a BB69     		ldr	r3, [r7, #24]
 2602 001c 5B89     		ldrh	r3, [r3, #10]
 2603 001e FA8B     		ldrh	r2, [r7, #30]	@ movhi
 2604 0020 D31A     		subs	r3, r2, r3
 2605 0022 FB83     		strh	r3, [r7, #30]	@ movhi
 2606              		.loc 2 1112 0
 2607 0024 BB69     		ldr	r3, [r7, #24]
 2608 0026 1B68     		ldr	r3, [r3]
 2609 0028 BB61     		str	r3, [r7, #24]
 2610              	.L187:
 2611              		.loc 2 1110 0 discriminator 1
 2612 002a BB69     		ldr	r3, [r7, #24]
 2613 002c 002B     		cmp	r3, #0
 2614 002e 04D0     		beq	.L188
 2615              		.loc 2 1110 0 is_stmt 0 discriminator 2
 2616 0030 BB69     		ldr	r3, [r7, #24]
 2617 0032 5B89     		ldrh	r3, [r3, #10]
 2618 0034 FA8B     		ldrh	r2, [r7, #30]
 2619 0036 9A42     		cmp	r2, r3
 2620 0038 EFD2     		bcs	.L189
 2621              	.L188:
 2622              		.loc 2 1115 0 is_stmt 1
 2623 003a BB69     		ldr	r3, [r7, #24]
 2624 003c 002B     		cmp	r3, #0
 2625 003e 27D0     		beq	.L190
 2626              		.loc 2 1115 0 is_stmt 0 discriminator 1
 2627 0040 BB69     		ldr	r3, [r7, #24]
 2628 0042 5B89     		ldrh	r3, [r3, #10]
 2629 0044 FA8B     		ldrh	r2, [r7, #30]
 2630 0046 9A42     		cmp	r2, r3
 2631 0048 22D2     		bcs	.L190
 2632              	.LBB4:
 2633              		.loc 2 1117 0 is_stmt 1
 2634 004a 0023     		movs	r3, #0
 2635 004c FB82     		strh	r3, [r7, #22]	@ movhi
 2636 004e 19E0     		b	.L191
 2637              	.L194:
 2638              	.LBB5:
ARM GAS  C:\Users\Luis\AppData\Local\Temp\cc1uv7VI.s 			page 50


 2639              		.loc 2 1118 0
 2640 0050 FA8B     		ldrh	r2, [r7, #30]	@ movhi
 2641 0052 FB8A     		ldrh	r3, [r7, #22]	@ movhi
 2642 0054 1344     		add	r3, r3, r2
 2643 0056 9BB2     		uxth	r3, r3
 2644 0058 B869     		ldr	r0, [r7, #24]
 2645 005a 1946     		mov	r1, r3
 2646 005c FFF7FEFF 		bl	pbuf_get_at
 2647 0060 0346     		mov	r3, r0
 2648 0062 7B75     		strb	r3, [r7, #21]
 2649              		.loc 2 1119 0
 2650 0064 FB8A     		ldrh	r3, [r7, #22]
 2651 0066 7A68     		ldr	r2, [r7, #4]
 2652 0068 1344     		add	r3, r3, r2
 2653 006a 1B78     		ldrb	r3, [r3]
 2654 006c 3B75     		strb	r3, [r7, #20]
 2655              		.loc 2 1120 0
 2656 006e 7A7D     		ldrb	r2, [r7, #21]	@ zero_extendqisi2
 2657 0070 3B7D     		ldrb	r3, [r7, #20]	@ zero_extendqisi2
 2658 0072 9A42     		cmp	r2, r3
 2659 0074 03D0     		beq	.L192
 2660              		.loc 2 1121 0
 2661 0076 FB8A     		ldrh	r3, [r7, #22]	@ movhi
 2662 0078 0133     		adds	r3, r3, #1
 2663 007a 9BB2     		uxth	r3, r3
 2664 007c 0AE0     		b	.L193
 2665              	.L192:
 2666              	.LBE5:
 2667              		.loc 2 1117 0
 2668 007e FB8A     		ldrh	r3, [r7, #22]
 2669 0080 0133     		adds	r3, r3, #1
 2670 0082 FB82     		strh	r3, [r7, #22]	@ movhi
 2671              	.L191:
 2672              		.loc 2 1117 0 is_stmt 0 discriminator 1
 2673 0084 FA8A     		ldrh	r2, [r7, #22]
 2674 0086 3B89     		ldrh	r3, [r7, #8]
 2675 0088 9A42     		cmp	r2, r3
 2676 008a E1D3     		bcc	.L194
 2677              		.loc 2 1124 0 is_stmt 1
 2678 008c 0023     		movs	r3, #0
 2679 008e 01E0     		b	.L193
 2680              	.L190:
 2681              	.LBE4:
 2682              		.loc 2 1126 0
 2683 0090 4FF6FF73 		movw	r3, #65535
 2684              	.L193:
 2685              		.loc 2 1127 0
 2686 0094 1846     		mov	r0, r3
 2687 0096 2037     		adds	r7, r7, #32
 2688 0098 BD46     		mov	sp, r7
 2689              		@ sp needed
 2690 009a 80BD     		pop	{r7, pc}
 2691              		.cfi_endproc
 2692              	.LFE278:
 2693              		.size	pbuf_memcmp, .-pbuf_memcmp
 2694 009c AFF30080 		.section	.text.pbuf_memfind,"ax",%progbits
 2695              		.align	2
ARM GAS  C:\Users\Luis\AppData\Local\Temp\cc1uv7VI.s 			page 51


 2696              		.p2align 4,,15
 2697              		.global	pbuf_memfind
 2698              		.thumb
 2699              		.thumb_func
 2700              		.type	pbuf_memfind, %function
 2701              	pbuf_memfind:
 2702              	.LFB279:
 2703              		.loc 2 1141 0
 2704              		.cfi_startproc
 2705              		@ args = 0, pretend = 0, frame = 24
 2706              		@ frame_needed = 1, uses_anonymous_args = 0
 2707 0000 80B5     		push	{r7, lr}
 2708              		.cfi_def_cfa_offset 8
 2709              		.cfi_offset 7, -8
 2710              		.cfi_offset 14, -4
 2711 0002 86B0     		sub	sp, sp, #24
 2712              		.cfi_def_cfa_offset 32
 2713 0004 00AF     		add	r7, sp, #0
 2714              		.cfi_def_cfa_register 7
 2715 0006 F860     		str	r0, [r7, #12]
 2716 0008 B960     		str	r1, [r7, #8]
 2717 000a FA80     		strh	r2, [r7, #6]	@ movhi
 2718 000c BB80     		strh	r3, [r7, #4]	@ movhi
 2719              		.loc 2 1143 0
 2720 000e FB68     		ldr	r3, [r7, #12]
 2721 0010 1A89     		ldrh	r2, [r3, #8]
 2722 0012 FB88     		ldrh	r3, [r7, #6]	@ movhi
 2723 0014 D31A     		subs	r3, r2, r3
 2724 0016 BB82     		strh	r3, [r7, #20]	@ movhi
 2725              		.loc 2 1144 0
 2726 0018 FB68     		ldr	r3, [r7, #12]
 2727 001a 1B89     		ldrh	r3, [r3, #8]
 2728 001c 1A46     		mov	r2, r3
 2729 001e F988     		ldrh	r1, [r7, #6]
 2730 0020 BB88     		ldrh	r3, [r7, #4]
 2731 0022 0B44     		add	r3, r3, r1
 2732 0024 9A42     		cmp	r2, r3
 2733 0026 18DB     		blt	.L196
 2734              		.loc 2 1145 0
 2735 0028 BB88     		ldrh	r3, [r7, #4]	@ movhi
 2736 002a FB82     		strh	r3, [r7, #22]	@ movhi
 2737 002c 11E0     		b	.L197
 2738              	.L200:
 2739              	.LBB6:
 2740              		.loc 2 1146 0
 2741 002e FA8A     		ldrh	r2, [r7, #22]
 2742 0030 FB88     		ldrh	r3, [r7, #6]
 2743 0032 F868     		ldr	r0, [r7, #12]
 2744 0034 1146     		mov	r1, r2
 2745 0036 BA68     		ldr	r2, [r7, #8]
 2746 0038 FFF7FEFF 		bl	pbuf_memcmp
 2747 003c 0346     		mov	r3, r0
 2748 003e 7B82     		strh	r3, [r7, #18]	@ movhi
 2749              		.loc 2 1147 0
 2750 0040 7B8A     		ldrh	r3, [r7, #18]
 2751 0042 002B     		cmp	r3, #0
 2752 0044 01D1     		bne	.L198
ARM GAS  C:\Users\Luis\AppData\Local\Temp\cc1uv7VI.s 			page 52


 2753              		.loc 2 1148 0
 2754 0046 FB8A     		ldrh	r3, [r7, #22]
 2755 0048 09E0     		b	.L199
 2756              	.L198:
 2757              		.loc 2 1150 0
 2758 004a FA8A     		ldrh	r2, [r7, #22]	@ movhi
 2759 004c 7B8A     		ldrh	r3, [r7, #18]	@ movhi
 2760 004e 1344     		add	r3, r3, r2
 2761 0050 FB82     		strh	r3, [r7, #22]	@ movhi
 2762              	.L197:
 2763              	.LBE6:
 2764              		.loc 2 1145 0 discriminator 1
 2765 0052 FA8A     		ldrh	r2, [r7, #22]
 2766 0054 BB8A     		ldrh	r3, [r7, #20]
 2767 0056 9A42     		cmp	r2, r3
 2768 0058 E9D9     		bls	.L200
 2769              	.L196:
 2770              		.loc 2 1154 0
 2771 005a 4FF6FF73 		movw	r3, #65535
 2772              	.L199:
 2773              		.loc 2 1155 0
 2774 005e 1846     		mov	r0, r3
 2775 0060 1837     		adds	r7, r7, #24
 2776 0062 BD46     		mov	sp, r7
 2777              		@ sp needed
 2778 0064 80BD     		pop	{r7, pc}
 2779              		.cfi_endproc
 2780              	.LFE279:
 2781              		.size	pbuf_memfind, .-pbuf_memfind
 2782 0066 00BFAFF3 		.section	.text.pbuf_strstr,"ax",%progbits
 2782      0080AFF3 
 2782      0080
 2783              		.align	2
 2784              		.p2align 4,,15
 2785              		.global	pbuf_strstr
 2786              		.thumb
 2787              		.thumb_func
 2788              		.type	pbuf_strstr, %function
 2789              	pbuf_strstr:
 2790              	.LFB280:
 2791              		.loc 2 1169 0
 2792              		.cfi_startproc
 2793              		@ args = 0, pretend = 0, frame = 16
 2794              		@ frame_needed = 1, uses_anonymous_args = 0
 2795 0000 80B5     		push	{r7, lr}
 2796              		.cfi_def_cfa_offset 8
 2797              		.cfi_offset 7, -8
 2798              		.cfi_offset 14, -4
 2799 0002 84B0     		sub	sp, sp, #16
 2800              		.cfi_def_cfa_offset 24
 2801 0004 00AF     		add	r7, sp, #0
 2802              		.cfi_def_cfa_register 7
 2803 0006 7860     		str	r0, [r7, #4]
 2804 0008 3960     		str	r1, [r7]
 2805              		.loc 2 1171 0
 2806 000a 3B68     		ldr	r3, [r7]
 2807 000c 002B     		cmp	r3, #0
ARM GAS  C:\Users\Luis\AppData\Local\Temp\cc1uv7VI.s 			page 53


 2808 000e 09D0     		beq	.L202
 2809              		.loc 2 1171 0 is_stmt 0 discriminator 1
 2810 0010 3B68     		ldr	r3, [r7]
 2811 0012 1B78     		ldrb	r3, [r3]	@ zero_extendqisi2
 2812 0014 002B     		cmp	r3, #0
 2813 0016 05D0     		beq	.L202
 2814 0018 7B68     		ldr	r3, [r7, #4]
 2815 001a 1A89     		ldrh	r2, [r3, #8]
 2816 001c 4FF6FF73 		movw	r3, #65535
 2817 0020 9A42     		cmp	r2, r3
 2818 0022 02D1     		bne	.L203
 2819              	.L202:
 2820              		.loc 2 1172 0 is_stmt 1
 2821 0024 4FF6FF73 		movw	r3, #65535
 2822 0028 14E0     		b	.L204
 2823              	.L203:
 2824              		.loc 2 1174 0
 2825 002a 3868     		ldr	r0, [r7]
 2826 002c FFF7FEFF 		bl	strlen
 2827 0030 F860     		str	r0, [r7, #12]
 2828              		.loc 2 1175 0
 2829 0032 FA68     		ldr	r2, [r7, #12]
 2830 0034 4FF6FE73 		movw	r3, #65534
 2831 0038 9A42     		cmp	r2, r3
 2832 003a 02D9     		bls	.L205
 2833              		.loc 2 1176 0
 2834 003c 4FF6FF73 		movw	r3, #65535
 2835 0040 08E0     		b	.L204
 2836              	.L205:
 2837              		.loc 2 1178 0
 2838 0042 FB68     		ldr	r3, [r7, #12]
 2839 0044 9BB2     		uxth	r3, r3
 2840 0046 7868     		ldr	r0, [r7, #4]
 2841 0048 3968     		ldr	r1, [r7]
 2842 004a 1A46     		mov	r2, r3
 2843 004c 0023     		movs	r3, #0
 2844 004e FFF7FEFF 		bl	pbuf_memfind
 2845 0052 0346     		mov	r3, r0
 2846              	.L204:
 2847              		.loc 2 1179 0
 2848 0054 1846     		mov	r0, r3
 2849 0056 1037     		adds	r7, r7, #16
 2850 0058 BD46     		mov	sp, r7
 2851              		@ sp needed
 2852 005a 80BD     		pop	{r7, pc}
 2853              		.cfi_endproc
 2854              	.LFE280:
 2855              		.size	pbuf_strstr, .-pbuf_strstr
 2856 005c AFF30080 		.text
 2857              	.Letext0:
 2858              		.file 3 "c:\\emtechesdk\\gcc\\lib\\gcc\\arm-none-eabi\\4.8.3\\include\\stddef.h"
 2859              		.file 4 "c:\\emtechesdk\\gcc\\arm-none-eabi\\include\\stdint.h"
 2860              		.file 5 "../../ChibiOS/os/rt/ports/ARMCMx/compilers/GCC/chtypes.h"
 2861              		.file 6 "../../ChibiOS/os/rt/include/chsystypes.h"
 2862              		.file 7 "../../ChibiOS/os/rt/include/chschd.h"
 2863              		.file 8 "../../ChibiOS/os/rt/ports/ARMCMx/chcore.h"
 2864              		.file 9 "../../ChibiOS/os/rt/ports/ARMCMx/chcore_v7m.h"
ARM GAS  C:\Users\Luis\AppData\Local\Temp\cc1uv7VI.s 			page 54


 2865              		.file 10 "../../ChibiOS/os/rt/include/chdebug.h"
 2866              		.file 11 "../../ChibiOS/os/rt/include/chtm.h"
 2867              		.file 12 "../../ChibiOS/os/rt/include/chstats.h"
 2868              		.file 13 "../../ChibiOS/os/rt/include/chsem.h"
 2869              		.file 14 "../../ChibiOS/os/rt/include/chmtx.h"
 2870              		.file 15 "../../ChibiOS/os/various/lwip_bindings/arch/cc.h"
 2871              		.file 16 "../../ChibiOS/ext/lwip/src/include/lwip/err.h"
 2872              		.file 17 "../../ChibiOS/ext/lwip/src/include/lwip/memp.h"
 2873              		.file 18 "../../ChibiOS/ext/lwip/src/include/lwip/pbuf.h"
 2874              		.file 19 "../../ChibiOS/ext/lwip/src/include/ipv4/lwip/ip_addr.h"
 2875              		.file 20 "../../ChibiOS/ext/lwip/src/include/lwip/tcp.h"
 2876              		.file 21 "../../ChibiOS/ext/lwip/src/include/lwip/tcp_impl.h"
 2877              		.file 22 "../../ChibiOS/os/ext/CMSIS/include/core_cm4.h"