ARM GAS  C:\Users\Luis\AppData\Local\Temp\ccUW6O2c.s 			page 1


   1              		.syntax unified
   2              		.cpu cortex-m4
   3              		.fpu softvfp
   4              		.eabi_attribute 20, 1
   5              		.eabi_attribute 21, 1
   6              		.eabi_attribute 23, 3
   7              		.eabi_attribute 24, 1
   8              		.eabi_attribute 25, 1
   9              		.eabi_attribute 26, 1
  10              		.eabi_attribute 30, 6
  11              		.eabi_attribute 34, 1
  12              		.eabi_attribute 18, 4
  13              		.thumb
  14              		.file	"raw.c"
  15              		.text
  16              	.Ltext0:
  17              		.cfi_sections	.debug_frame
  18              		.section	.text.osalSysHalt,"ax",%progbits
  19              		.align	2
  20              		.p2align 4,,15
  21              		.thumb
  22              		.thumb_func
  23              		.type	osalSysHalt, %function
  24              	osalSysHalt:
  25              	.LFB230:
  26              		.file 1 "../../ChibiOS/os/hal/osal/rt/osal.h"
  27              		.loc 1 460 0
  28              		.cfi_startproc
  29              		@ args = 0, pretend = 0, frame = 8
  30              		@ frame_needed = 1, uses_anonymous_args = 0
  31 0000 80B5     		push	{r7, lr}
  32              		.cfi_def_cfa_offset 8
  33              		.cfi_offset 7, -8
  34              		.cfi_offset 14, -4
  35 0002 82B0     		sub	sp, sp, #8
  36              		.cfi_def_cfa_offset 16
  37 0004 00AF     		add	r7, sp, #0
  38              		.cfi_def_cfa_register 7
  39 0006 7860     		str	r0, [r7, #4]
  40              		.loc 1 462 0
  41 0008 7868     		ldr	r0, [r7, #4]
  42 000a FFF7FEFF 		bl	chSysHalt
  43              		.loc 1 463 0
  44 000e 0837     		adds	r7, r7, #8
  45 0010 BD46     		mov	sp, r7
  46              		@ sp needed
  47 0012 80BD     		pop	{r7, pc}
  48              		.cfi_endproc
  49              	.LFE230:
  50              		.size	osalSysHalt, .-osalSysHalt
  51 0014 AFF30080 		.section	.bss.raw_pcbs,"aw",%nobits
  51      AFF30080 
  51      AFF30080 
  52              		.align	2
  53              		.type	raw_pcbs, %object
  54              		.size	raw_pcbs, 4
  55              	raw_pcbs:
ARM GAS  C:\Users\Luis\AppData\Local\Temp\ccUW6O2c.s 			page 2


  56 0000 00000000 		.space	4
  57              		.section	.text.raw_input,"ax",%progbits
  58              		.align	2
  59              		.p2align 4,,15
  60              		.global	raw_input
  61              		.thumb
  62              		.thumb_func
  63              		.type	raw_input, %function
  64              	raw_input:
  65              	.LFB260:
  66              		.file 2 "../../ChibiOS/ext/lwip/src/core/raw.c"
  67              		.loc 2 77 0
  68              		.cfi_startproc
  69              		@ args = 0, pretend = 0, frame = 32
  70              		@ frame_needed = 1, uses_anonymous_args = 0
  71 0000 90B5     		push	{r4, r7, lr}
  72              		.cfi_def_cfa_offset 12
  73              		.cfi_offset 4, -12
  74              		.cfi_offset 7, -8
  75              		.cfi_offset 14, -4
  76 0002 89B0     		sub	sp, sp, #36
  77              		.cfi_def_cfa_offset 48
  78 0004 00AF     		add	r7, sp, #0
  79              		.cfi_def_cfa_register 7
  80 0006 7860     		str	r0, [r7, #4]
  81 0008 3960     		str	r1, [r7]
  82              		.loc 2 81 0
  83 000a 0023     		movs	r3, #0
  84 000c FB75     		strb	r3, [r7, #23]
  85              		.loc 2 85 0
  86 000e 7B68     		ldr	r3, [r7, #4]
  87 0010 5B68     		ldr	r3, [r3, #4]
  88 0012 3B61     		str	r3, [r7, #16]
  89              		.loc 2 86 0
  90 0014 3B69     		ldr	r3, [r7, #16]
  91 0016 5B7A     		ldrb	r3, [r3, #9]	@ zero_extendqisi2
  92 0018 FB81     		strh	r3, [r7, #14]	@ movhi
  93              		.loc 2 88 0
  94 001a 0023     		movs	r3, #0
  95 001c BB61     		str	r3, [r7, #24]
  96              		.loc 2 89 0
  97 001e 254B     		ldr	r3, .L9
  98 0020 1B68     		ldr	r3, [r3]
  99 0022 FB61     		str	r3, [r7, #28]
 100              		.loc 2 92 0
 101 0024 3AE0     		b	.L3
 102              	.L7:
 103              		.loc 2 93 0
 104 0026 FB69     		ldr	r3, [r7, #28]
 105 0028 1B7C     		ldrb	r3, [r3, #16]	@ zero_extendqisi2
 106 002a 1A46     		mov	r2, r3
 107 002c B7F90E30 		ldrsh	r3, [r7, #14]
 108 0030 9A42     		cmp	r2, r3
 109 0032 2ED1     		bne	.L4
 110              		.loc 2 94 0 discriminator 1
 111 0034 FB69     		ldr	r3, [r7, #28]
 112              		.loc 2 93 0 discriminator 1
ARM GAS  C:\Users\Luis\AppData\Local\Temp\ccUW6O2c.s 			page 3


 113 0036 002B     		cmp	r3, #0
 114 0038 09D0     		beq	.L5
 115              		.loc 2 94 0
 116 003a FB69     		ldr	r3, [r7, #28]
 117 003c 1B68     		ldr	r3, [r3]
 118 003e 002B     		cmp	r3, #0
 119 0040 05D0     		beq	.L5
 120              		.loc 2 95 0 discriminator 1
 121 0042 FB69     		ldr	r3, [r7, #28]
 122 0044 1A68     		ldr	r2, [r3]
 123 0046 1C4B     		ldr	r3, .L9+4
 124 0048 1B68     		ldr	r3, [r3]
 125              		.loc 2 94 0 discriminator 1
 126 004a 9A42     		cmp	r2, r3
 127 004c 21D1     		bne	.L4
 128              	.L5:
 129              		.loc 2 102 0
 130 004e FB69     		ldr	r3, [r7, #28]
 131 0050 5B69     		ldr	r3, [r3, #20]
 132 0052 002B     		cmp	r3, #0
 133 0054 1DD0     		beq	.L4
 134              		.loc 2 104 0
 135 0056 FB69     		ldr	r3, [r7, #28]
 136 0058 5C69     		ldr	r4, [r3, #20]
 137 005a FB69     		ldr	r3, [r7, #28]
 138 005c 9B69     		ldr	r3, [r3, #24]
 139 005e 1846     		mov	r0, r3
 140 0060 F969     		ldr	r1, [r7, #28]
 141 0062 7A68     		ldr	r2, [r7, #4]
 142 0064 154B     		ldr	r3, .L9+8
 143 0066 A047     		blx	r4
 144 0068 0346     		mov	r3, r0
 145 006a 002B     		cmp	r3, #0
 146 006c 11D0     		beq	.L4
 147              		.loc 2 106 0
 148 006e 0023     		movs	r3, #0
 149 0070 7B60     		str	r3, [r7, #4]
 150              		.loc 2 107 0
 151 0072 0123     		movs	r3, #1
 152 0074 FB75     		strb	r3, [r7, #23]
 153              		.loc 2 108 0
 154 0076 BB69     		ldr	r3, [r7, #24]
 155 0078 002B     		cmp	r3, #0
 156 007a 0AD0     		beq	.L4
 157              		.loc 2 111 0
 158 007c FB69     		ldr	r3, [r7, #28]
 159 007e DA68     		ldr	r2, [r3, #12]
 160 0080 BB69     		ldr	r3, [r7, #24]
 161 0082 DA60     		str	r2, [r3, #12]
 162              		.loc 2 112 0
 163 0084 0B4B     		ldr	r3, .L9
 164 0086 1A68     		ldr	r2, [r3]
 165 0088 FB69     		ldr	r3, [r7, #28]
 166 008a DA60     		str	r2, [r3, #12]
 167              		.loc 2 113 0
 168 008c 094B     		ldr	r3, .L9
 169 008e FA69     		ldr	r2, [r7, #28]
ARM GAS  C:\Users\Luis\AppData\Local\Temp\ccUW6O2c.s 			page 4


 170 0090 1A60     		str	r2, [r3]
 171              	.L4:
 172              		.loc 2 121 0
 173 0092 FB69     		ldr	r3, [r7, #28]
 174 0094 BB61     		str	r3, [r7, #24]
 175              		.loc 2 122 0
 176 0096 FB69     		ldr	r3, [r7, #28]
 177 0098 DB68     		ldr	r3, [r3, #12]
 178 009a FB61     		str	r3, [r7, #28]
 179              	.L3:
 180              		.loc 2 92 0 discriminator 1
 181 009c FB7D     		ldrb	r3, [r7, #23]	@ zero_extendqisi2
 182 009e 002B     		cmp	r3, #0
 183 00a0 02D1     		bne	.L6
 184              		.loc 2 92 0 is_stmt 0 discriminator 2
 185 00a2 FB69     		ldr	r3, [r7, #28]
 186 00a4 002B     		cmp	r3, #0
 187 00a6 BED1     		bne	.L7
 188              	.L6:
 189              		.loc 2 124 0 is_stmt 1
 190 00a8 FB7D     		ldrb	r3, [r7, #23]	@ zero_extendqisi2
 191              		.loc 2 125 0
 192 00aa 1846     		mov	r0, r3
 193 00ac 2437     		adds	r7, r7, #36
 194 00ae BD46     		mov	sp, r7
 195              		@ sp needed
 196 00b0 90BD     		pop	{r4, r7, pc}
 197              	.L10:
 198 00b2 00BF     		.align	2
 199              	.L9:
 200 00b4 00000000 		.word	raw_pcbs
 201 00b8 00000000 		.word	current_iphdr_dest
 202 00bc 00000000 		.word	current_iphdr_src
 203              		.cfi_endproc
 204              	.LFE260:
 205              		.size	raw_input, .-raw_input
 206              		.section	.text.raw_bind,"ax",%progbits
 207              		.align	2
 208              		.p2align 4,,15
 209              		.global	raw_bind
 210              		.thumb
 211              		.thumb_func
 212              		.type	raw_bind, %function
 213              	raw_bind:
 214              	.LFB261:
 215              		.loc 2 143 0
 216              		.cfi_startproc
 217              		@ args = 0, pretend = 0, frame = 8
 218              		@ frame_needed = 1, uses_anonymous_args = 0
 219              		@ link register save eliminated.
 220 0000 80B4     		push	{r7}
 221              		.cfi_def_cfa_offset 4
 222              		.cfi_offset 7, -4
 223 0002 83B0     		sub	sp, sp, #12
 224              		.cfi_def_cfa_offset 16
 225 0004 00AF     		add	r7, sp, #0
 226              		.cfi_def_cfa_register 7
ARM GAS  C:\Users\Luis\AppData\Local\Temp\ccUW6O2c.s 			page 5


 227 0006 7860     		str	r0, [r7, #4]
 228 0008 3960     		str	r1, [r7]
 229              		.loc 2 144 0
 230 000a 3B68     		ldr	r3, [r7]
 231 000c 002B     		cmp	r3, #0
 232 000e 02D0     		beq	.L12
 233              		.loc 2 144 0 is_stmt 0 discriminator 1
 234 0010 3B68     		ldr	r3, [r7]
 235 0012 1B68     		ldr	r3, [r3]
 236 0014 00E0     		b	.L13
 237              	.L12:
 238              		.loc 2 144 0 discriminator 2
 239 0016 0023     		movs	r3, #0
 240              	.L13:
 241              		.loc 2 144 0 discriminator 3
 242 0018 7A68     		ldr	r2, [r7, #4]
 243 001a 1360     		str	r3, [r2]
 244              		.loc 2 145 0 is_stmt 1 discriminator 3
 245 001c 0023     		movs	r3, #0
 246 001e 5BB2     		sxtb	r3, r3
 247              		.loc 2 146 0 discriminator 3
 248 0020 1846     		mov	r0, r3
 249 0022 0C37     		adds	r7, r7, #12
 250 0024 BD46     		mov	sp, r7
 251              		@ sp needed
 252 0026 5DF8047B 		ldr	r7, [sp], #4
 253 002a 7047     		bx	lr
 254              		.cfi_endproc
 255              	.LFE261:
 256              		.size	raw_bind, .-raw_bind
 257 002c AFF30080 		.section	.text.raw_connect,"ax",%progbits
 258              		.align	2
 259              		.p2align 4,,15
 260              		.global	raw_connect
 261              		.thumb
 262              		.thumb_func
 263              		.type	raw_connect, %function
 264              	raw_connect:
 265              	.LFB262:
 266              		.loc 2 163 0
 267              		.cfi_startproc
 268              		@ args = 0, pretend = 0, frame = 8
 269              		@ frame_needed = 1, uses_anonymous_args = 0
 270              		@ link register save eliminated.
 271 0000 80B4     		push	{r7}
 272              		.cfi_def_cfa_offset 4
 273              		.cfi_offset 7, -4
 274 0002 83B0     		sub	sp, sp, #12
 275              		.cfi_def_cfa_offset 16
 276 0004 00AF     		add	r7, sp, #0
 277              		.cfi_def_cfa_register 7
 278 0006 7860     		str	r0, [r7, #4]
 279 0008 3960     		str	r1, [r7]
 280              		.loc 2 164 0
 281 000a 3B68     		ldr	r3, [r7]
 282 000c 002B     		cmp	r3, #0
 283 000e 02D0     		beq	.L16
ARM GAS  C:\Users\Luis\AppData\Local\Temp\ccUW6O2c.s 			page 6


 284              		.loc 2 164 0 is_stmt 0 discriminator 1
 285 0010 3B68     		ldr	r3, [r7]
 286 0012 1B68     		ldr	r3, [r3]
 287 0014 00E0     		b	.L17
 288              	.L16:
 289              		.loc 2 164 0 discriminator 2
 290 0016 0023     		movs	r3, #0
 291              	.L17:
 292              		.loc 2 164 0 discriminator 3
 293 0018 7A68     		ldr	r2, [r7, #4]
 294 001a 5360     		str	r3, [r2, #4]
 295              		.loc 2 165 0 is_stmt 1 discriminator 3
 296 001c 0023     		movs	r3, #0
 297 001e 5BB2     		sxtb	r3, r3
 298              		.loc 2 166 0 discriminator 3
 299 0020 1846     		mov	r0, r3
 300 0022 0C37     		adds	r7, r7, #12
 301 0024 BD46     		mov	sp, r7
 302              		@ sp needed
 303 0026 5DF8047B 		ldr	r7, [sp], #4
 304 002a 7047     		bx	lr
 305              		.cfi_endproc
 306              	.LFE262:
 307              		.size	raw_connect, .-raw_connect
 308 002c AFF30080 		.section	.text.raw_recv,"ax",%progbits
 309              		.align	2
 310              		.p2align 4,,15
 311              		.global	raw_recv
 312              		.thumb
 313              		.thumb_func
 314              		.type	raw_recv, %function
 315              	raw_recv:
 316              	.LFB263:
 317              		.loc 2 184 0
 318              		.cfi_startproc
 319              		@ args = 0, pretend = 0, frame = 16
 320              		@ frame_needed = 1, uses_anonymous_args = 0
 321              		@ link register save eliminated.
 322 0000 80B4     		push	{r7}
 323              		.cfi_def_cfa_offset 4
 324              		.cfi_offset 7, -4
 325 0002 85B0     		sub	sp, sp, #20
 326              		.cfi_def_cfa_offset 24
 327 0004 00AF     		add	r7, sp, #0
 328              		.cfi_def_cfa_register 7
 329 0006 F860     		str	r0, [r7, #12]
 330 0008 B960     		str	r1, [r7, #8]
 331 000a 7A60     		str	r2, [r7, #4]
 332              		.loc 2 186 0
 333 000c FB68     		ldr	r3, [r7, #12]
 334 000e BA68     		ldr	r2, [r7, #8]
 335 0010 5A61     		str	r2, [r3, #20]
 336              		.loc 2 187 0
 337 0012 FB68     		ldr	r3, [r7, #12]
 338 0014 7A68     		ldr	r2, [r7, #4]
 339 0016 9A61     		str	r2, [r3, #24]
 340              		.loc 2 188 0
ARM GAS  C:\Users\Luis\AppData\Local\Temp\ccUW6O2c.s 			page 7


 341 0018 1437     		adds	r7, r7, #20
 342 001a BD46     		mov	sp, r7
 343              		@ sp needed
 344 001c 5DF8047B 		ldr	r7, [sp], #4
 345 0020 7047     		bx	lr
 346              		.cfi_endproc
 347              	.LFE263:
 348              		.size	raw_recv, .-raw_recv
 349 0022 00BFAFF3 		.section	.rodata
 349      0080AFF3 
 349      0080AFF3 
 349      0080
 350              		.align	2
 351              	.LC0:
 352 0000 43616E27 		.ascii	"Can't restore header we just removed!\000"
 352      74207265 
 352      73746F72 
 352      65206865 
 352      61646572 
 353 0026 0000     		.section	.text.raw_sendto,"ax",%progbits
 354              		.align	2
 355              		.p2align 4,,15
 356              		.global	raw_sendto
 357              		.thumb
 358              		.thumb_func
 359              		.type	raw_sendto, %function
 360              	raw_sendto:
 361              	.LFB264:
 362              		.loc 2 204 0
 363              		.cfi_startproc
 364              		@ args = 0, pretend = 0, frame = 32
 365              		@ frame_needed = 1, uses_anonymous_args = 0
 366 0000 80B5     		push	{r7, lr}
 367              		.cfi_def_cfa_offset 8
 368              		.cfi_offset 7, -8
 369              		.cfi_offset 14, -4
 370 0002 8CB0     		sub	sp, sp, #48
 371              		.cfi_def_cfa_offset 56
 372 0004 04AF     		add	r7, sp, #16
 373              		.cfi_def_cfa 7, 40
 374 0006 F860     		str	r0, [r7, #12]
 375 0008 B960     		str	r1, [r7, #8]
 376 000a 7A60     		str	r2, [r7, #4]
 377              		.loc 2 213 0
 378 000c B868     		ldr	r0, [r7, #8]
 379 000e 1421     		movs	r1, #20
 380 0010 FFF7FEFF 		bl	pbuf_header
 381 0014 0346     		mov	r3, r0
 382 0016 002B     		cmp	r3, #0
 383 0018 13D0     		beq	.L21
 384              		.loc 2 215 0
 385 001a 0120     		movs	r0, #1
 386 001c 0021     		movs	r1, #0
 387 001e 0022     		movs	r2, #0
 388 0020 FFF7FEFF 		bl	pbuf_alloc
 389 0024 B861     		str	r0, [r7, #24]
 390              		.loc 2 217 0
ARM GAS  C:\Users\Luis\AppData\Local\Temp\ccUW6O2c.s 			page 8


 391 0026 BB69     		ldr	r3, [r7, #24]
 392 0028 002B     		cmp	r3, #0
 393 002a 01D1     		bne	.L22
 394              		.loc 2 219 0
 395 002c FF23     		movs	r3, #255
 396 002e 4DE0     		b	.L23
 397              	.L22:
 398              		.loc 2 221 0
 399 0030 BB68     		ldr	r3, [r7, #8]
 400 0032 1B89     		ldrh	r3, [r3, #8]
 401 0034 002B     		cmp	r3, #0
 402 0036 13D0     		beq	.L25
 403              		.loc 2 223 0
 404 0038 B869     		ldr	r0, [r7, #24]
 405 003a B968     		ldr	r1, [r7, #8]
 406 003c FFF7FEFF 		bl	pbuf_chain
 407 0040 0EE0     		b	.L25
 408              	.L21:
 409              		.loc 2 229 0
 410 0042 BB68     		ldr	r3, [r7, #8]
 411 0044 BB61     		str	r3, [r7, #24]
 412              		.loc 2 230 0
 413 0046 B869     		ldr	r0, [r7, #24]
 414 0048 6FF01301 		mvn	r1, #19
 415 004c FFF7FEFF 		bl	pbuf_header
 416 0050 0346     		mov	r3, r0
 417 0052 002B     		cmp	r3, #0
 418 0054 04D0     		beq	.L25
 419              		.loc 2 231 0 discriminator 1
 420 0056 2048     		ldr	r0, .L32
 421 0058 FFF7FEFF 		bl	osalSysHalt
 422              		.loc 2 232 0 discriminator 1
 423 005c FF23     		movs	r3, #255
 424 005e 35E0     		b	.L23
 425              	.L25:
 426              		.loc 2 236 0
 427 0060 7868     		ldr	r0, [r7, #4]
 428 0062 FFF7FEFF 		bl	ip_route
 429 0066 7861     		str	r0, [r7, #20]
 430 0068 7B69     		ldr	r3, [r7, #20]
 431 006a 002B     		cmp	r3, #0
 432 006c 08D1     		bne	.L26
 433              		.loc 2 240 0
 434 006e BA69     		ldr	r2, [r7, #24]
 435 0070 BB68     		ldr	r3, [r7, #8]
 436 0072 9A42     		cmp	r2, r3
 437 0074 02D0     		beq	.L27
 438              		.loc 2 241 0
 439 0076 B869     		ldr	r0, [r7, #24]
 440 0078 FFF7FEFF 		bl	pbuf_free
 441              	.L27:
 442              		.loc 2 243 0
 443 007c FC23     		movs	r3, #252
 444 007e 25E0     		b	.L23
 445              	.L26:
 446              		.loc 2 258 0
 447 0080 FB68     		ldr	r3, [r7, #12]
ARM GAS  C:\Users\Luis\AppData\Local\Temp\ccUW6O2c.s 			page 9


 448 0082 002B     		cmp	r3, #0
 449 0084 03D0     		beq	.L28
 450              		.loc 2 258 0 is_stmt 0 discriminator 1
 451 0086 FB68     		ldr	r3, [r7, #12]
 452 0088 1B68     		ldr	r3, [r3]
 453 008a 002B     		cmp	r3, #0
 454 008c 03D1     		bne	.L29
 455              	.L28:
 456              		.loc 2 260 0 is_stmt 1
 457 008e 7B69     		ldr	r3, [r7, #20]
 458 0090 0433     		adds	r3, r3, #4
 459 0092 FB61     		str	r3, [r7, #28]
 460 0094 01E0     		b	.L30
 461              	.L29:
 462              		.loc 2 263 0
 463 0096 FB68     		ldr	r3, [r7, #12]
 464 0098 FB61     		str	r3, [r7, #28]
 465              	.L30:
 466              		.loc 2 267 0
 467 009a FB68     		ldr	r3, [r7, #12]
 468 009c 9B7A     		ldrb	r3, [r3, #10]	@ zero_extendqisi2
 469 009e FA68     		ldr	r2, [r7, #12]
 470 00a0 517A     		ldrb	r1, [r2, #9]	@ zero_extendqisi2
 471 00a2 FA68     		ldr	r2, [r7, #12]
 472 00a4 127C     		ldrb	r2, [r2, #16]	@ zero_extendqisi2
 473 00a6 0091     		str	r1, [sp]
 474 00a8 0192     		str	r2, [sp, #4]
 475 00aa 7A69     		ldr	r2, [r7, #20]
 476 00ac 0292     		str	r2, [sp, #8]
 477 00ae B869     		ldr	r0, [r7, #24]
 478 00b0 F969     		ldr	r1, [r7, #28]
 479 00b2 7A68     		ldr	r2, [r7, #4]
 480 00b4 FFF7FEFF 		bl	ip_output_if
 481 00b8 0346     		mov	r3, r0
 482 00ba FB74     		strb	r3, [r7, #19]
 483              		.loc 2 271 0
 484 00bc BA69     		ldr	r2, [r7, #24]
 485 00be BB68     		ldr	r3, [r7, #8]
 486 00c0 9A42     		cmp	r2, r3
 487 00c2 02D0     		beq	.L31
 488              		.loc 2 273 0
 489 00c4 B869     		ldr	r0, [r7, #24]
 490 00c6 FFF7FEFF 		bl	pbuf_free
 491              	.L31:
 492              		.loc 2 275 0
 493 00ca FB7C     		ldrb	r3, [r7, #19]	@ zero_extendqisi2
 494              	.L23:
 495 00cc 5BB2     		sxtb	r3, r3
 496              		.loc 2 276 0
 497 00ce 1846     		mov	r0, r3
 498 00d0 2037     		adds	r7, r7, #32
 499 00d2 BD46     		mov	sp, r7
 500              		@ sp needed
 501 00d4 80BD     		pop	{r7, pc}
 502              	.L33:
 503 00d6 00BF     		.align	2
 504              	.L32:
ARM GAS  C:\Users\Luis\AppData\Local\Temp\ccUW6O2c.s 			page 10


 505 00d8 00000000 		.word	.LC0
 506              		.cfi_endproc
 507              	.LFE264:
 508              		.size	raw_sendto, .-raw_sendto
 509 00dc AFF30080 		.section	.text.raw_send,"ax",%progbits
 510              		.align	2
 511              		.p2align 4,,15
 512              		.global	raw_send
 513              		.thumb
 514              		.thumb_func
 515              		.type	raw_send, %function
 516              	raw_send:
 517              	.LFB265:
 518              		.loc 2 287 0
 519              		.cfi_startproc
 520              		@ args = 0, pretend = 0, frame = 8
 521              		@ frame_needed = 1, uses_anonymous_args = 0
 522 0000 80B5     		push	{r7, lr}
 523              		.cfi_def_cfa_offset 8
 524              		.cfi_offset 7, -8
 525              		.cfi_offset 14, -4
 526 0002 82B0     		sub	sp, sp, #8
 527              		.cfi_def_cfa_offset 16
 528 0004 00AF     		add	r7, sp, #0
 529              		.cfi_def_cfa_register 7
 530 0006 7860     		str	r0, [r7, #4]
 531 0008 3960     		str	r1, [r7]
 532              		.loc 2 288 0
 533 000a 7B68     		ldr	r3, [r7, #4]
 534 000c 0433     		adds	r3, r3, #4
 535 000e 7868     		ldr	r0, [r7, #4]
 536 0010 3968     		ldr	r1, [r7]
 537 0012 1A46     		mov	r2, r3
 538 0014 FFF7FEFF 		bl	raw_sendto
 539 0018 0346     		mov	r3, r0
 540              		.loc 2 289 0
 541 001a 1846     		mov	r0, r3
 542 001c 0837     		adds	r7, r7, #8
 543 001e BD46     		mov	sp, r7
 544              		@ sp needed
 545 0020 80BD     		pop	{r7, pc}
 546              		.cfi_endproc
 547              	.LFE265:
 548              		.size	raw_send, .-raw_send
 549 0022 00BFAFF3 		.section	.text.raw_remove,"ax",%progbits
 549      0080AFF3 
 549      0080AFF3 
 549      0080
 550              		.align	2
 551              		.p2align 4,,15
 552              		.global	raw_remove
 553              		.thumb
 554              		.thumb_func
 555              		.type	raw_remove, %function
 556              	raw_remove:
 557              	.LFB266:
 558              		.loc 2 301 0
ARM GAS  C:\Users\Luis\AppData\Local\Temp\ccUW6O2c.s 			page 11


 559              		.cfi_startproc
 560              		@ args = 0, pretend = 0, frame = 16
 561              		@ frame_needed = 1, uses_anonymous_args = 0
 562 0000 80B5     		push	{r7, lr}
 563              		.cfi_def_cfa_offset 8
 564              		.cfi_offset 7, -8
 565              		.cfi_offset 14, -4
 566 0002 84B0     		sub	sp, sp, #16
 567              		.cfi_def_cfa_offset 24
 568 0004 00AF     		add	r7, sp, #0
 569              		.cfi_def_cfa_register 7
 570 0006 7860     		str	r0, [r7, #4]
 571              		.loc 2 304 0
 572 0008 144B     		ldr	r3, .L42
 573 000a 1A68     		ldr	r2, [r3]
 574 000c 7B68     		ldr	r3, [r7, #4]
 575 000e 9A42     		cmp	r2, r3
 576 0010 05D1     		bne	.L37
 577              		.loc 2 306 0
 578 0012 124B     		ldr	r3, .L42
 579 0014 1B68     		ldr	r3, [r3]
 580 0016 DA68     		ldr	r2, [r3, #12]
 581 0018 104B     		ldr	r3, .L42
 582 001a 1A60     		str	r2, [r3]
 583 001c 16E0     		b	.L38
 584              	.L37:
 585              		.loc 2 309 0
 586 001e 0F4B     		ldr	r3, .L42
 587 0020 1B68     		ldr	r3, [r3]
 588 0022 FB60     		str	r3, [r7, #12]
 589 0024 0FE0     		b	.L39
 590              	.L41:
 591              		.loc 2 311 0
 592 0026 FB68     		ldr	r3, [r7, #12]
 593 0028 DB68     		ldr	r3, [r3, #12]
 594 002a 002B     		cmp	r3, #0
 595 002c 08D0     		beq	.L40
 596              		.loc 2 311 0 is_stmt 0 discriminator 1
 597 002e FB68     		ldr	r3, [r7, #12]
 598 0030 DA68     		ldr	r2, [r3, #12]
 599 0032 7B68     		ldr	r3, [r7, #4]
 600 0034 9A42     		cmp	r2, r3
 601 0036 03D1     		bne	.L40
 602              		.loc 2 313 0 is_stmt 1
 603 0038 7B68     		ldr	r3, [r7, #4]
 604 003a DA68     		ldr	r2, [r3, #12]
 605 003c FB68     		ldr	r3, [r7, #12]
 606 003e DA60     		str	r2, [r3, #12]
 607              	.L40:
 608              		.loc 2 309 0
 609 0040 FB68     		ldr	r3, [r7, #12]
 610 0042 DB68     		ldr	r3, [r3, #12]
 611 0044 FB60     		str	r3, [r7, #12]
 612              	.L39:
 613              		.loc 2 309 0 is_stmt 0 discriminator 1
 614 0046 FB68     		ldr	r3, [r7, #12]
 615 0048 002B     		cmp	r3, #0
ARM GAS  C:\Users\Luis\AppData\Local\Temp\ccUW6O2c.s 			page 12


 616 004a ECD1     		bne	.L41
 617              	.L38:
 618              		.loc 2 317 0 is_stmt 1
 619 004c 0020     		movs	r0, #0
 620 004e 7968     		ldr	r1, [r7, #4]
 621 0050 FFF7FEFF 		bl	memp_free
 622              		.loc 2 318 0
 623 0054 1037     		adds	r7, r7, #16
 624 0056 BD46     		mov	sp, r7
 625              		@ sp needed
 626 0058 80BD     		pop	{r7, pc}
 627              	.L43:
 628 005a 00BF     		.align	2
 629              	.L42:
 630 005c 00000000 		.word	raw_pcbs
 631              		.cfi_endproc
 632              	.LFE266:
 633              		.size	raw_remove, .-raw_remove
 634              		.section	.text.raw_new,"ax",%progbits
 635              		.align	2
 636              		.p2align 4,,15
 637              		.global	raw_new
 638              		.thumb
 639              		.thumb_func
 640              		.type	raw_new, %function
 641              	raw_new:
 642              	.LFB267:
 643              		.loc 2 332 0
 644              		.cfi_startproc
 645              		@ args = 0, pretend = 0, frame = 16
 646              		@ frame_needed = 1, uses_anonymous_args = 0
 647 0000 80B5     		push	{r7, lr}
 648              		.cfi_def_cfa_offset 8
 649              		.cfi_offset 7, -8
 650              		.cfi_offset 14, -4
 651 0002 84B0     		sub	sp, sp, #16
 652              		.cfi_def_cfa_offset 24
 653 0004 00AF     		add	r7, sp, #0
 654              		.cfi_def_cfa_register 7
 655 0006 0346     		mov	r3, r0
 656 0008 FB71     		strb	r3, [r7, #7]
 657              		.loc 2 337 0
 658 000a 0020     		movs	r0, #0
 659 000c FFF7FEFF 		bl	memp_malloc
 660 0010 F860     		str	r0, [r7, #12]
 661              		.loc 2 339 0
 662 0012 FB68     		ldr	r3, [r7, #12]
 663 0014 002B     		cmp	r3, #0
 664 0016 11D0     		beq	.L45
 665              		.loc 2 341 0
 666 0018 F868     		ldr	r0, [r7, #12]
 667 001a 0021     		movs	r1, #0
 668 001c 1C22     		movs	r2, #28
 669 001e FFF7FEFF 		bl	memset
 670              		.loc 2 342 0
 671 0022 FB68     		ldr	r3, [r7, #12]
 672 0024 FA79     		ldrb	r2, [r7, #7]
ARM GAS  C:\Users\Luis\AppData\Local\Temp\ccUW6O2c.s 			page 13


 673 0026 1A74     		strb	r2, [r3, #16]
 674              		.loc 2 343 0
 675 0028 FB68     		ldr	r3, [r7, #12]
 676 002a FF22     		movs	r2, #255
 677 002c 9A72     		strb	r2, [r3, #10]
 678              		.loc 2 344 0
 679 002e 064B     		ldr	r3, .L47
 680 0030 1A68     		ldr	r2, [r3]
 681 0032 FB68     		ldr	r3, [r7, #12]
 682 0034 DA60     		str	r2, [r3, #12]
 683              		.loc 2 345 0
 684 0036 044B     		ldr	r3, .L47
 685 0038 FA68     		ldr	r2, [r7, #12]
 686 003a 1A60     		str	r2, [r3]
 687              	.L45:
 688              		.loc 2 347 0
 689 003c FB68     		ldr	r3, [r7, #12]
 690              		.loc 2 348 0
 691 003e 1846     		mov	r0, r3
 692 0040 1037     		adds	r7, r7, #16
 693 0042 BD46     		mov	sp, r7
 694              		@ sp needed
 695 0044 80BD     		pop	{r7, pc}
 696              	.L48:
 697 0046 00BF     		.align	2
 698              	.L47:
 699 0048 00000000 		.word	raw_pcbs
 700              		.cfi_endproc
 701              	.LFE267:
 702              		.size	raw_new, .-raw_new
 703 004c AFF30080 		.text
 704              	.Letext0:
 705              		.file 3 "c:\\emtechesdk\\gcc\\lib\\gcc\\arm-none-eabi\\4.8.3\\include\\stddef.h"
 706              		.file 4 "c:\\emtechesdk\\gcc\\arm-none-eabi\\include\\stdint.h"
 707              		.file 5 "../../ChibiOS/os/rt/ports/ARMCMx/compilers/GCC/chtypes.h"
 708              		.file 6 "../../ChibiOS/os/rt/include/chsystypes.h"
 709              		.file 7 "../../ChibiOS/os/rt/include/chschd.h"
 710              		.file 8 "../../ChibiOS/os/rt/ports/ARMCMx/chcore.h"
 711              		.file 9 "../../ChibiOS/os/rt/ports/ARMCMx/chcore_v7m.h"
 712              		.file 10 "../../ChibiOS/os/rt/include/chdebug.h"
 713              		.file 11 "../../ChibiOS/os/rt/include/chtm.h"
 714              		.file 12 "../../ChibiOS/os/rt/include/chstats.h"
 715              		.file 13 "../../ChibiOS/os/rt/include/chsem.h"
 716              		.file 14 "../../ChibiOS/os/rt/include/chmtx.h"
 717              		.file 15 "../../ChibiOS/os/various/lwip_bindings/arch/cc.h"
 718              		.file 16 "../../ChibiOS/ext/lwip/src/include/ipv4/lwip/ip_addr.h"
 719              		.file 17 "../../ChibiOS/ext/lwip/src/include/lwip/err.h"
 720              		.file 18 "../../ChibiOS/ext/lwip/src/include/lwip/memp.h"
 721              		.file 19 "../../ChibiOS/ext/lwip/src/include/lwip/pbuf.h"
 722              		.file 20 "../../ChibiOS/ext/lwip/src/include/lwip/netif.h"
 723              		.file 21 "../../ChibiOS/ext/lwip/src/include/ipv4/lwip/ip.h"
 724              		.file 22 "../../ChibiOS/ext/lwip/src/include/lwip/raw.h"
 725              		.file 23 "../../ChibiOS/os/ext/CMSIS/include/core_cm4.h"