ARM GAS  C:\Users\Luis\AppData\Local\Temp\ccUW6O2c.s 			page 1


   1              		.syntax unified
   2              		.cpu cortex-m4
   3              		.fpu softvfp
   4              		.eabi_attribute 20, 1
   5              		.eabi_attribute 21, 1
   6              		.eabi_attribute 23, 3
   7              		.eabi_attribute 24, 1
   8              		.eabi_attribute 25, 1
   9              		.eabi_attribute 26, 1
  10              		.eabi_attribute 30, 6
  11              		.eabi_attribute 34, 1
  12              		.eabi_attribute 18, 4
  13              		.thumb
  14              		.file	"raw.c"
  15              		.text
  16              	.Ltext0:
  17              		.cfi_sections	.debug_frame
  18              		.section	.text.osalSysHalt,"ax",%progbits
  19              		.align	2
  20              		.p2align 4,,15
  21              		.thumb
  22              		.thumb_func
  23              		.type	osalSysHalt, %function
  24              	osalSysHalt:
  25              	.LFB230:
  26              		.file 1 "../../ChibiOS/os/hal/osal/rt/osal.h"
  27              		.loc 1 460 0
  28              		.cfi_startproc
  29              		@ args = 0, pretend = 0, frame = 8
  30              		@ frame_needed = 1, uses_anonymous_args = 0
  31 0000 80B5     		push	{r7, lr}
  32              		.cfi_def_cfa_offset 8
  33              		.cfi_offset 7, -8
  34              		.cfi_offset 14, -4
  35 0002 82B0     		sub	sp, sp, #8
  36              		.cfi_def_cfa_offset 16
  37 0004 00AF     		add	r7, sp, #0
  38              		.cfi_def_cfa_register 7
  39 0006 7860     		str	r0, [r7, #4]
  40              		.loc 1 462 0
  41 0008 7868     		ldr	r0, [r7, #4]
  42 000a FFF7FEFF 		bl	chSysHalt
  43              		.loc 1 463 0
  44 000e 0837     		adds	r7, r7, #8
  45 0010 BD46     		mov	sp, r7
  46              		@ sp needed
  47 0012 80BD     		pop	{r7, pc}
  48              		.cfi_endproc
  49              	.LFE230:
  50              		.size	osalSysHalt, .-osalSysHalt
  51 0014 AFF30080 		.section	.bss.raw_pcbs,"aw",%nobits
  51      AFF30080 
  51      AFF30080 
  52              		.align	2
  53              		.type	raw_pcbs, %object
  54              		.size	raw_pcbs, 4
  55              	raw_pcbs:
ARM GAS  C:\Users\Luis\AppData\Local\Temp\ccUW6O2c.s 			page 2


  56 0000 00000000 		.space	4
  57              		.section	.text.raw_input,"ax",%progbits
  58              		.align	2
  59              		.p2align 4,,15
  60              		.global	raw_input
  61              		.thumb
  62              		.thumb_func
  63              		.type	raw_input, %function
  64              	raw_input:
  65              	.LFB260:
  66              		.file 2 "../../ChibiOS/ext/lwip/src/core/raw.c"
  67              		.loc 2 77 0
  68              		.cfi_startproc
  69              		@ args = 0, pretend = 0, frame = 32
  70              		@ frame_needed = 1, uses_anonymous_args = 0
  71 0000 90B5     		push	{r4, r7, lr}
  72              		.cfi_def_cfa_offset 12
  73              		.cfi_offset 4, -12
  74              		.cfi_offset 7, -8
  75              		.cfi_offset 14, -4
  76 0002 89B0     		sub	sp, sp, #36
  77              		.cfi_def_cfa_offset 48
  78 0004 00AF     		add	r7, sp, #0
  79              		.cfi_def_cfa_register 7
  80 0006 7860     		str	r0, [r7, #4]
  81 0008 3960     		str	r1, [r7]
  82              		.loc 2 81 0
  83 000a 0023     		movs	r3, #0
  84 000c FB75     		strb	r3, [r7, #23]
  85              		.loc 2 85 0
  86 000e 7B68     		ldr	r3, [r7, #4]
  87 0010 5B68     		ldr	r3, [r3, #4]
  88 0012 3B61     		str	r3, [r7, #16]
  89              		.loc 2 86 0
  90 0014 3B69     		ldr	r3, [r7, #16]
  91 0016 5B7A     		ldrb	r3, [r3, #9]	@ zero_extendqisi2
  92 0018 FB81     		strh	r3, [r7, #14]	@ movhi
  93              		.loc 2 88 0
  94 001a 0023     		movs	r3, #0
  95 001c BB61     		str	r3, [r7, #24]
  96              		.loc 2 89 0
  97 001e 254B     		ldr	r3, .L9
  98 0020 1B68     		ldr	r3, [r3]
  99 0022 FB61     		str	r3, [r7, #28]
 100              		.loc 2 92 0
 101 0024 3AE0     		b	.L3
 102              	.L7:
 103              		.loc 2 93 0
 104 0026 FB69     		ldr	r3, [r7, #28]
 105 0028 1B7C     		ldrb	r3, [r3, #16]	@ zero_extendqisi2
 106 002a 1A46     		mov	r2, r3
 107 002c B7F90E30 		ldrsh	r3, [r7, #14]
 108 0030 9A42     		cmp	r2, r3
 109 0032 2ED1     		bne	.L4
 110              		.loc 2 94 0 discriminator 1
 111 0034 FB69     		ldr	r3, [r7, #28]
 112              		.loc 2 93 0 discriminator 1
ARM GAS  C:\Users\Luis\AppData\Local\Temp\ccUW6O2c.s 			page 3


 113 0036 002B     		cmp	r3, #0
 114 0038 09D0     		beq	.L5
 115              		.loc 2 94 0
 116 003a FB69     		ldr	r3, [r7, #28]
 117 003c 1B68     		ldr	r3, [r3]
 118 003e 002B     		cmp	r3, #0
 119 0040 05D0     		beq	.L5
 120              		.loc 2 95 0 discriminator 1
 121 0042 FB69     		ldr	r3, [r7, #28]
 122 0044 1A68     		ldr	r2, [r3]
 123 0046 1C4B     		ldr	r3, .L9+4
 124 0048 1B68     		ldr	r3, [r3]
 125              		.loc 2 94 0 discriminator 1
 126 004a 9A42     		cmp	r2, r3
 127 004c 21D1     		bne	.L4
 128              	.L5:
 129              		.loc 2 102 0
 130 004e FB69     		ldr	r3, [r7, #28]
 131 0050 5B69     		ldr	r3, [r3, #20]
 132 0052 002B     		cmp	r3, #0
 133 0054 1DD0     		beq	.L4
 134              		.loc 2 104 0
 135 0056 FB69     		ldr	r3, [r7, #28]
 136 0058 5C69     		ldr	r4, [r3, #20]
 137 005a FB69     		ldr	r3, [r7, #28]
 138 005c 9B69     		ldr	r3, [r3, #24]
 139 005e 1846     		mov	r0, r3
 140 0060 F969     		ldr	r1, [r7, #28]
 141 0062 7A68     		ldr	r2, [r7, #4]
 142 0064 154B     		ldr	r3, .L9+8
 143 0066 A047     		blx	r4
 144 0068 0346     		mov	r3, r0
 145 006a 002B     		cmp	r3, #0
 146 006c 11D0     		beq	.L4
 147              		.loc 2 106 0
 148 006e 0023     		movs	r3, #0
 149 0070 7B60     		str	r3, [r7, #4]
 150              		.loc 2 107 0
 151 0072 0123     		movs	r3, #1
 152 0074 FB75     		strb	r3, [r7, #23]
 153              		.loc 2 108 0
 154 0076 BB69     		ldr	r3, [r7, #24]
 155 0078 002B     		cmp	r3, #0
 156 007a 0AD0     		beq	.L4
 157              		.loc 2 111 0
 158 007c FB69     		ldr	r3, [r7, #28]
 159 007e DA68     		ldr	r2, [r3, #12]
 160 0080 BB69     		ldr	r3, [r7, #24]
 161 0082 DA60     		str	r2, [r3, #12]
 162              		.loc 2 112 0
 163 0084 0B4B     		ldr	r3, .L9
 164 0086 1A68     		ldr	r2, [r3]
 165 0088 FB69     		ldr	r3, [r7, #28]
 166 008a DA60     		str	r2, [r3, #12]
 167              		.loc 2 113 0
 168 008c 094B     		ldr	r3, .L9
 169 008e FA69     		ldr	r2, [r7, #28]
ARM GAS  C:\Users\Luis\AppData\Local\Temp\ccUW6O2c.s 			page 4


 170 0090 1A60     		str	r2, [r3]
 171              	.L4:
 172              		.loc 2 121 0
 173 0092 FB69     		ldr	r3, [r7, #28]
 174 0094 BB61     		str	r3, [r7, #24]
 175              		.loc 2 122 0
 176 0096 FB69     		ldr	r3, [r7, #28]
 177 0098 DB68     		ldr	r3, [r3, #12]
 178 009a FB61     		str	r3, [r7, #28]
 179              	.L3:
 180              		.loc 2 92 0 discriminator 1
 181 009c FB7D     		ldrb	r3, [r7, #23]	@ zero_extendqisi2
 182 009e 002B     		cmp	r3, #0
 183 00a0 02D1     		bne	.L6
 184              		.loc 2 92 0 is_stmt 0 discriminator 2
 185 00a2 FB69     		ldr	r3, [r7, #28]
 186 00a4 002B     		cmp	r3, #0
 187 00a6 BED1     		bne	.L7
 188              	.L6:
 189              		.loc 2 124 0 is_stmt 1
 190 00a8 FB7D     		ldrb	r3, [r7, #23]	@ zero_extendqisi2
 191              		.loc 2 125 0
 192 00aa 1846     		mov	r0, r3
 193 00ac 2437     		adds	r7, r7, #36
 194 00ae BD46     		mov	sp, r7
 195              		@ sp needed
 196 00b0 90BD     		pop	{r4, r7, pc}
 197              	.L10:
 198 00b2 00BF     		.align	2
 199              	.L9:
 200 00b4 00000000 		.word	raw_pcbs
 201 00b8 00000000 		.word	current_iphdr_dest
 202 00bc 00000000 		.word	current_iphdr_src
 203              		.cfi_endproc
 204              	.LFE260:
 205              		.size	raw_input, .-raw_input
 206              		.section	.text.raw_bind,"ax",%progbits
 207              		.align	2
 208              		.p2align 4,,15
 209              		.global	raw_bind
 210              		.thumb
 211              		.thumb_func
 212              		.type	raw_bind, %function
 213              	raw_bind:
 214              	.LFB261:
 215              		.loc 2 143 0
 216              		.cfi_startproc
 217              		@ args = 0, pretend = 0, frame = 8
 218              		@ frame_needed = 1, uses_anonymous_args = 0
 219              		@ link register save eliminated.
 220 0000 80B4     		push	{r7}
 221              		.cfi_def_cfa_offset 4
 222              		.cfi_offset 7, -4
 223 0002 83B0     		sub	sp, sp, #12
 224              		.cfi_def_cfa_offset 16
 225 0004 00AF     		add	r7, sp, #0
 226              		.cfi_def_cfa_register 7
ARM GAS  C:\Users\Luis\AppData\Local\Temp\ccUW6O2c.s 			page 5


 227 0006 7860     		str	r0, [r7, #4]
 228 0008 3960     		str	r1, [r7]
 229              		.loc 2 144 0
 230 000a 3B68     		ldr	r3, [r7]
 231 000c 002B     		cmp	r3, #0
 232 000e 02D0     		beq	.L12
 233              		.loc 2 144 0 is_stmt 0 discriminator 1
 234 0010 3B68     		ldr	r3, [r7]
 235 0012 1B68     		ldr	r3, [r3]
 236 0014 00E0     		b	.L13
 237              	.L12:
 238              		.loc 2 144 0 discriminator 2
 239 0016 0023     		movs	r3, #0
 240              	.L13:
 241              		.loc 2 144 0 discriminator 3
 242 0018 7A68     		ldr	r2, [r7, #4]
 243 001a 1360     		str	r3, [r2]
 244              		.loc 2 145 0 is_stmt 1 discriminator 3
 245 001c 0023     		movs	r3, #0
 246 001e 5BB2     		sxtb	r3, r3
 247              		.loc 2 146 0 discriminator 3
 248 0020 1846     		mov	r0, r3
 249 0022 0C37     		adds	r7, r7, #12
 250 0024 BD46     		mov	sp, r7
 251              		@ sp needed
 252 0026 5DF8047B 		ldr	r7, [sp], #4
 253 002a 7047     		bx	lr
 254              		.cfi_endproc
 255              	.LFE261:
 256              		.size	raw_bind, .-raw_bind
 257 002c AFF30080 		.section	.text.raw_connect,"ax",%progbits
 258              		.align	2
 259              		.p2align 4,,15
 260              		.global	raw_connect
 261              		.thumb
 262              		.thumb_func
 263              		.type	raw_connect, %function
 264              	raw_connect:
 265              	.LFB262:
 266              		.loc 2 163 0
 267              		.cfi_startproc
 268              		@ args = 0, pretend = 0, frame = 8
 269              		@ frame_needed = 1, uses_anonymous_args = 0
 270              		@ link register save eliminated.
 271 0000 80B4     		push	{r7}
 272              		.cfi_def_cfa_offset 4
 273              		.cfi_offset 7, -4
 274 0002 83B0     		sub	sp, sp, #12
 275              		.cfi_def_cfa_offset 16
 276 0004 00AF     		add	r7, sp, #0
 277              		.cfi_def_cfa_register 7
 278 0006 7860     		str	r0, [r7, #4]
 279 0008 3960     		str	r1, [r7]
 280              		.loc 2 164 0
 281 000a 3B68     		ldr	r3, [r7]
 282 000c 002B     		cmp	r3, #0
 283 000e 02D0     		beq	.L16
ARM GAS  C:\Users\Luis\AppData\Local\Temp\ccUW6O2c.s 			page 6


 284              		.loc 2 164 0 is_stmt 0 discriminator 1
 285 0010 3B68     		ldr	r3, [r7]
 286 0012 1B68     		ldr	r3, [r3]
 287 0014 00E0     		b	.L17
 288              	.L16:
 289              		.loc 2 164 0 discriminator 2
 290 0016 0023     		movs	r3, #0
 291              	.L17:
 292              		.loc 2 164 0 discriminator 3
 293 0018 7A68     		ldr	r2, [r7, #4]
 294 001a 5360     		str	r3, [r2, #4]
 295              		.loc 2 165 0 is_stmt 1 discriminator 3
 296 001c 0023     		movs	r3, #0
 297 001e 5BB2     		sxtb	r3, r3
 298              		.loc 2 166 0 discriminator 3
 299 0020 1846     		mov	r0, r3
 300 0022 0C37     		adds	r7, r7, #12
 301 0024 BD46     		mov	sp, r7
 302              		@ sp needed
 303 0026 5DF8047B 		ldr	r7, [sp], #4
 304 002a 7047     		bx	lr
 305              		.cfi_endproc
 306              	.LFE262:
 307              		.size	raw_connect, .-raw_connect
 308 002c AFF30080 		.section	.text.raw_recv,"ax",%progbits
 309              		.align	2
 310              		.p2align 4,,15
 311              		.global	raw_recv
 312              		.thumb
 313              		.thumb_func
 314              		.type	raw_recv, %function
 315              	raw_recv:
 316              	.LFB263:
 317              		.loc 2 184 0
 318              		.cfi_startproc
 319              		@ args = 0, pretend = 0, frame = 16
 320              		@ frame_needed = 1, uses_anonymous_args = 0
 321              		@ link register save eliminated.
 322 0000 80B4     		push	{r7}
 323              		.cfi_def_cfa_offset 4
 324              		.cfi_offset 7, -4
 325 0002 85B0     		sub	sp, sp, #20
 326              		.cfi_def_cfa_offset 24
 327 0004 00AF     		add	r7, sp, #0
 328              		.cfi_def_cfa_register 7
 329 0006 F860     		str	r0, [r7, #12]
 330 0008 B960     		str	r1, [r7, #8]
 331 000a 7A60     		str	r2, [r7, #4]
 332              		.loc 2 186 0
 333 000c FB68     		ldr	r3, [r7, #12]
 334 000e BA68     		ldr	r2, [r7, #8]
 335 0010 5A61     		str	r2, [r3, #20]
 336              		.loc 2 187 0
 337 0012 FB68     		ldr	r3, [r7, #12]
 338 0014 7A68     		ldr	r2, [r7, #4]
 339 0016 9A61     		str	r2, [r3, #24]
 340              		.loc 2 188 0
ARM GAS  C:\Users\Luis\AppData\Local\Temp\ccUW6O2c.s 			page 7


 341 0018 1437     		adds	r7, r7, #20
 342 001a BD46     		mov	sp, r7
 343              		@ sp needed
 344 001c 5DF8047B 		ldr	r7, [sp], #4
 345 0020 7047     		bx	lr
 346              		.cfi_endproc
 347              	.LFE263:
 348              		.size	raw_recv, .-raw_recv
 349 0022 00BFAFF3 		.section	.rodata
 349      0080AFF3 
 349      0080AFF3 
 349      0080
 350              		.align	2
 351              	.LC0:
 352 0000 43616E27 		.ascii	"Can't restore header we just removed!\000"
 352      74207265 
 352      73746F72 
 352      65206865 
 352      61646572 
 353 0026 0000     		.section	.text.raw_sendto,"ax",%progbits
 354              		.align	2
 355              		.p2align 4,,15
 356              		.global	raw_sendto
 357              		.thumb
 358              		.thumb_func
 359              		.type	raw_sendto, %function
 360              	raw_sendto:
 361              	.LFB264:
 362              		.loc 2 204 0
 363              		.cfi_startproc
 364              		@ args = 0, pretend = 0, frame = 32
 365              		@ frame_needed = 1, uses_anonymous_args = 0
 366 0000 80B5     		push	{r7, lr}
 367              		.cfi_def_cfa_offset 8
 368              		.cfi_offset 7, -8
 369              		.cfi_offset 14, -4
 370 0002 8CB0     		sub	sp, sp, #48
 371              		.cfi_def_cfa_offset 56
 372 0004 04AF     		add	r7, sp, #16
 373              		.cfi_def_cfa 7, 40
 374 0006 F860     		str	r0, [r7, #12]
 375 0008 B960     		str	r1, [r7, #8]
 376 000a 7A60     		str	r2, [r7, #4]
 377              		.loc 2 213 0
 378 000c B868     		ldr	r0, [r7, #8]
 379 000e 1421     		movs	r1, #20
 380 0010 FFF7FEFF 		bl	pbuf_header
 381 0014 0346     		mov	r3, r0
 382 0016 002B     		cmp	r3, #0
 383 0018 13D0     		beq	.L21
 384              		.loc 2 215 0
 385 001a 0120     		movs	r0, #1
 386 001c 0021     		movs	r1, #0
 387 001e 0022     		movs	r2, #0
 388 0020 FFF7FEFF 		bl	pbuf_alloc
 389 0024 B861     		str	r0, [r7, #24]
 390              		.loc 2 217 0
ARM GAS  C:\Users\Luis\AppData\Local\Temp\ccUW6O2c.s 			page 8


 391 0026 BB69     		ldr	r3, [r7, #24]
 392 0028 002B     		cmp	r3, #0
 393 002a 01D1     		bne	.L22
 394              		.loc 2 219 0
 395 002c FF23     		movs	r3, #255
 396 002e 4DE0     		b	.L23
 397              	.L22:
 398              		.loc 2 221 0
 399 0030 BB68     		ldr	r3, [r7, #8]
 400 0032 1B89     		ldrh	r3, [r3, #8]
 401 0034 002B     		cmp	r3, #0
 402 0036 13D0     		beq	.L25
 403              		.loc 2 223 0
 404 0038 B869     		ldr	r0, [r7, #24]
 405 003a B968     		ldr	r1, [r7, #8]
 406 003c FFF7FEFF 		bl	pbuf_chain
 407 0040 0EE0     		b	.L25
 408              	.L21:
 409              		.loc 2 229 0
 410 0042 BB68     		ldr	r3, [r7, #8]
 411 0044 BB61     		str	r3, [r7, #24]
 412              		.loc 2 230 0
 413 0046 B869     		ldr	r0, [r7, #24]
 414 0048 6FF01301 		mvn	r1, #19
 415 004c FFF7FEFF 		bl	pbuf_header
 416 0050 0346     		mov	r3, r0
 417 0052 002B     		cmp	r3, #0
 418 0054 04D0     		beq	.L25
 419              		.loc 2 231 0 discriminator 1
 420 0056 2048     		ldr	r0, .L32
 421 0058 FFF7FEFF 		bl	osalSysHalt
 422              		.loc 2 232 0 discriminator 1
 423 005c FF23     		movs	r3, #255
 424 005e 35E0     		b	.L23
 425              	.L25:
 426              		.loc 2 236 0
 427 0060 7868     		ldr	r0, [r7, #4]
 428 0062 FFF7FEFF 		bl	ip_route
 429 0066 7861     		str	r0, [r7, #20]
 430 0068 7B69     		ldr	r3, [r7, #20]
 431 006a 002B     		cmp	r3, #0
 432 006c 08D1     		bne	.L26
 433              		.loc 2 240 0
 434 006e BA69     		ldr	r2, [r7, #24]
 435 0070 BB68     		ldr	r3, [r7, #8]
 436 0072 9A42     		cmp	r2, r3
 437 0074 02D0     		beq	.L27
 438              		.loc 2 241 0
 439 0076 B869     		ldr	r0, [r7, #24]
 440 0078 FFF7FEFF 		bl	pbuf_free
 441              	.L27:
 442              		.loc 2 243 0
 443 007c FC23     		movs	r3, #252
 444 007e 25E0     		b	.L23
 445              	.L26:
 446              		.loc 2 258 0
 447 0080 FB68     		ldr	r3, [r7, #12]
ARM GAS  C:\Users\Luis\AppData\Local\Temp\ccUW6O2c.s 			page 9


 448 0082 002B     		cmp	r3, #0
 449 0084 03D0     		beq	.L28
 450              		.loc 2 258 0 is_stmt 0 discriminator 1
 451 0086 FB68     		ldr	r3, [r7, #12]
 452 0088 1B68     		ldr	r3, [r3]
 453 008a 002B     		cmp	r3, #0
 454 008c 03D1     		bne	.L29
 455              	.L28:
 456              		.loc 2 260 0 is_stmt 1
 457 008e 7B69     		ldr	r3, [r7, #20]
 458 0090 0433     		adds	r3, r3, #4
 459 0092 FB61     		str	r3, [r7, #28]
 460 0094 01E0     		b	.L30
 461              	.L29:
 462              		.loc 2 263 0
 463 0096 FB68     		ldr	r3, [r7, #12]
 464 0098 FB61     		str	r3, [r7, #28]
 465              	.L30:
 466              		.loc 2 267 0
 467 009a FB68     		ldr	r3, [r7, #12]
 468 009c 9B7A     		ldrb	r3, [r3, #10]	@ zero_extendqisi2
 469 009e FA68     		ldr	r2, [r7, #12]
 470 00a0 517A     		ldrb	r1, [r2, #9]	@ zero_extendqisi2
 471 00a2 FA68     		ldr	r2, [r7, #12]
 472 00a4 127C     		ldrb	r2, [r2, #16]	@ zero_extendqisi2
 473 00a6 0091     		str	r1, [sp]
 474 00a8 0192     		str	r2, [sp, #4]
 475 00aa 7A69     		ldr	r2, [r7, #20]
 476 00ac 0292     		str	r2, [sp, #8]
 477 00ae B869     		ldr	r0, [r7, #24]
 478 00b0 F969     		ldr	r1, [r7, #28]
 479 00b2 7A68     		ldr	r2, [r7, #4]
 480 00b4 FFF7FEFF 		bl	ip_output_if
 481 00b8 0346     		mov	r3, r0
 482 00ba FB74     		strb	r3, [r7, #19]
 483              		.loc 2 271 0
 484 00bc BA69     		ldr	r2, [r7, #24]
 485 00be BB68     		ldr	r3, [r7, #8]
 486 00c0 9A42     		cmp	r2, r3
 487 00c2 02D0     		beq	.L31
 488              		.loc 2 273 0
 489 00c4 B869     		ldr	r0, [r7, #24]
 490 00c6 FFF7FEFF 		bl	pbuf_free
 491              	.L31:
 492              		.loc 2 275 0
 493 00ca FB7C     		ldrb	r3, [r7, #19]	@ zero_extendqisi2
 494              	.L23:
 495 00cc 5BB2     		sxtb	r3, r3
 496              		.loc 2 276 0
 497 00ce 1846     		mov	r0, r3
 498 00d0 2037     		adds	r7, r7, #32
 499 00d2 BD46     		mov	sp, r7
 500              		@ sp needed
 501 00d4 80BD     		pop	{r7, pc}
 502              	.L33:
 503 00d6 00BF     		.align	2
 504              	.L32:
ARM GAS  C:\Users\Luis\AppData\Local\Temp\ccUW6O2c.s 			page 10


 505 00d8 00000000 		.word	.LC0
 506              		.cfi_endproc
 507              	.LFE264:
 508              		.size	raw_sendto, .-raw_sendto
 509 00dc AFF30080 		.section	.text.raw_send,"ax",%progbits
 510              		.align	2
 511              		.p2align 4,,15
 512              		.global	raw_send
 513              		.thumb
 514              		.thumb_func
 515              		.type	raw_send, %function
 516              	raw_send:
 517              	.LFB265:
 518              		.loc 2 287 0
 519              		.cfi_startproc
 520              		@ args = 0, pretend = 0, frame = 8
 521              		@ frame_needed = 1, uses_anonymous_args = 0
 522 0000 80B5     		push	{r7, lr}
 523              		.cfi_def_cfa_offset 8
 524              		.cfi_offset 7, -8
 525              		.cfi_offset 14, -4
 526 0002 82B0     		sub	sp, sp, #8
 527              		.cfi_def_cfa_offset 16
 528 0004 00AF     		add	r7, sp, #0
 529              		.cfi_def_cfa_register 7
 530 0006 7860     		str	r0, [r7, #4]
 531 0008 3960     		str	r1, [r7]
 532              		.loc 2 288 0
 533 000a 7B68     		ldr	r3, [r7, #4]
 534 000c 0433     		adds	r3, r3, #4
 535 000e 7868     		ldr	r0, [r7, #4]
 536 0010 3968     		ldr	r1, [r7]
 537 0012 1A46     		mov	r2, r3
 538 0014 FFF7FEFF 		bl	raw_sendto
 539 0018 0346     		mov	r3, r0
 540              		.loc 2 289 0
 541 001a 1846     		mov	r0, r3
 542 001c 0837     		adds	r7, r7, #8
 543 001e BD46     		mov	sp, r7
 544              		@ sp needed
 545 0020 80BD     		pop	{r7, pc}
 546              		.cfi_endproc
 547              	.LFE265:
 548              		.size	raw_send, .-raw_send
 549 0022 00BFAFF3 		.section	.text.raw_remove,"ax",%progbits
 549      0080AFF3 
 549      0080AFF3 
 549      0080
 550              		.align	2
 551              		.p2align 4,,15
 552              		.global	raw_remove
 553              		.thumb
 554              		.thumb_func
 555              		.type	raw_remove, %function
 556              	raw_remove:
 557              	.LFB266:
 558              		.loc 2 301 0
ARM GAS  C:\Users\Luis\AppData\Local\Temp\ccUW6O2c.s 			page 11


 559              		.cfi_startproc
 560              		@ args = 0, pretend = 0, frame = 16
 561              		@ frame_needed = 1, uses_anonymous_args = 0
 562 0000 80B5     		push	{r7, lr}
 563              		.cfi_def_cfa_offset 8
 564              		.cfi_offset 7, -8
 565              		.cfi_offset 14, -4
 566 0002 84B0     		sub	sp, sp, #16
 567              		.cfi_def_cfa_offset 24
 568 0004 00AF     		add	r7, sp, #0
 569              		.cfi_def_cfa_register 7
 570 0006 7860     		str	r0, [r7, #4]
 571              		.loc 2 304 0
 572 0008 144B     		ldr	r3, .L42
 573 000a 1A68     		ldr	r2, [r3]
 574 000c 7B68     		ldr	r3, [r7, #4]
 575 000e 9A42     		cmp	r2, r3
 576 0010 05D1     		bne	.L37
 577              		.loc 2 306 0
 578 0012 124B     		ldr	r3, .L42
 579 0014 1B68     		ldr	r3, [r3]
 580 0016 DA68     		ldr	r2, [r3, #12]
 581 0018 104B     		ldr	r3, .L42
 582 001a 1A60     		str	r2, [r3]
 583 001c 16E0     		b	.L38
 584              	.L37:
 585              		.loc 2 309 0
 586 001e 0F4B     		ldr	r3, .L42
 587 0020 1B68     		ldr	r3, [r3]
 588 0022 FB60     		str	r3, [r7, #12]
 589 0024 0FE0     		b	.L39
 590              	.L41:
 591              		.loc 2 311 0
 592 0026 FB68     		ldr	r3, [r7, #12]
 593 0028 DB68     		ldr	r3, [r3, #12]
 594 002a 002B     		cmp	r3, #0
 595 002c 08D0     		beq	.L40
 596              		.loc 2 311 0 is_stmt 0 discriminator 1
 597 002e FB68     		ldr	r3, [r7, #12]
 598 0030 DA68     		ldr	r2, [r3, #12]
 599 0032 7B68     		ldr	r3, [r7, #4]
 600 0034 9A42     		cmp	r2, r3
 601 0036 03D1     		bne	.L40
 602              		.loc 2 313 0 is_stmt 1
 603 0038 7B68     		ldr	r3, [r7, #4]
 604 003a DA68     		ldr	r2, [r3, #12]
 605 003c FB68     		ldr	r3, [r7, #12]
 606 003e DA60     		str	r2, [r3, #12]
 607              	.L40:
 608              		.loc 2 309 0
 609 0040 FB68     		ldr	r3, [r7, #12]
 610 0042 DB68     		ldr	r3, [r3, #12]
 611 0044 FB60     		str	r3, [r7, #12]
 612              	.L39:
 613              		.loc 2 309 0 is_stmt 0 discriminator 1
 614 0046 FB68     		ldr	r3, [r7, #12]
 615 0048 002B     		cmp	r3, #0
ARM GAS  C:\Users\Luis\AppData\Local\Temp\ccUW6O2c.s 			page 12


 616 004a ECD1     		bne	.L41
 617              	.L38:
 618              		.loc 2 317 0 is_stmt 1
 619 004c 0020     		movs	r0, #0
 620 004e 7968     		ldr	r1, [r7, #4]
 621 0050 FFF7FEFF 		bl	memp_free
 622              		.loc 2 318 0
 623 0054 1037     		adds	r7, r7, #16
 624 0056 BD46     		mov	sp, r7
 625              		@ sp needed
 626 0058 80BD     		pop	{r7, pc}
 627              	.L43:
 628 005a 00BF     		.align	2
 629              	.L42:
 630 005c 00000000 		.word	raw_pcbs
 631              		.cfi_endproc
 632              	.LFE266:
 633              		.size	raw_remove, .-raw_remove
 634              		.section	.text.raw_new,"ax",%progbits
 635              		.align	2
 636              		.p2align 4,,15
 637              		.global	raw_new
 638              		.thumb
 639              		.thumb_func
 640              		.type	raw_new, %function
 641              	raw_new:
 642              	.LFB267:
 643              		.loc 2 332 0
 644              		.cfi_startproc
 645              		@ args = 0, pretend = 0, frame = 16
 646              		@ frame_needed = 1, uses_anonymous_args = 0
 647 0000 80B5     		push	{r7, lr}
 648              		.cfi_def_cfa_offset 8
 649              		.cfi_offset 7, -8
 650              		.cfi_offset 14, -4
 651 0002 84B0     		sub	sp, sp, #16
 652              		.cfi_def_cfa_offset 24
 653 0004 00AF     		add	r7, sp, #0
 654              		.cfi_def_cfa_register 7
 655 0006 0346     		mov	r3, r0
 656 0008 FB71     		strb	r3, [r7, #7]
 657              		.loc 2 337 0
 658 000a 0020     		movs	r0, #0
 659 000c FFF7FEFF 		bl	memp_malloc
 660 0010 F860     		str	r0, [r7, #12]
 661              		.loc 2 339 0
 662 0012 FB68     		ldr	r3, [r7, #12]
 663 0014 002B     		cmp	r3, #0
 664 0016 11D0     		beq	.L45
 665              		.loc 2 341 0
 666 0018 F868     		ldr	r0, [r7, #12]
 667 001a 0021     		movs	r1, #0
 668 001c 1C22     		movs	r2, #28
 669 001e FFF7FEFF 		bl	memset
 670              		.loc 2 342 0
 671 0022 FB68     		ldr	r3, [r7, #12]
 672 0024 FA79     		ldrb	r2, [r7, #7]
ARM GAS  C:\Users\Luis\AppData\Local\Temp\ccUW6O2c.s 			page 13


 673 0026 1A74     		strb	r2, [r3, #16]
 674              		.loc 2 343 0
 675 0028 FB68     		ldr	r3, [r7, #12]
 676 002a FF22     		movs	r2, #255
 677 002c 9A72     		strb	r2, [r3, #10]
 678              		.loc 2 344 0
 679 002e 064B     		ldr	r3, .L47
 680 0030 1A68     		ldr	r2, [r3]
 681 0032 FB68     		ldr	r3, [r7, #12]
 682 0034 DA60     		str	r2, [r3, #12]
 683              		.loc 2 345 0
 684 0036 044B     		ldr	r3, .L47
 685 0038 FA68     		ldr	r2, [r7, #12]
 686 003a 1A60     		str	r2, [r3]
 687              	.L45:
 688              		.loc 2 347 0
 689 003c FB68     		ldr	r3, [r7, #12]
 690              		.loc 2 348 0
 691 003e 1846     		mov	r0, r3
 692 0040 1037     		adds	r7, r7, #16
 693 0042 BD46     		mov	sp, r7
 694              		@ sp needed
 695 0044 80BD     		pop	{r7, pc}
 696              	.L48:
 697 0046 00BF     		.align	2
 698              	.L47:
 699 0048 00000000 		.word	raw_pcbs
 700              		.cfi_endproc
 701              	.LFE267:
 702              		.size	raw_new, .-raw_new
 703 004c AFF30080 		.text
 704              	.Letext0:
 705              		.file 3 "c:\\emtechesdk\\gcc\\lib\\gcc\\arm-none-eabi\\4.8.3\\include\\stddef.h"
 706              		.file 4 "c:\\emtechesdk\\gcc\\arm-none-eabi\\include\\stdint.h"
 707              		.file 5 "../../ChibiOS/os/rt/ports/ARMCMx/compilers/GCC/chtypes.h"
 708              		.file 6 "../../ChibiOS/os/rt/include/chsystypes.h"
 709              		.file 7 "../../ChibiOS/os/rt/include/chschd.h"
 710              		.file 8 "../../ChibiOS/os/rt/ports/ARMCMx/chcore.h"
 711              		.file 9 "../../ChibiOS/os/rt/ports/ARMCMx/chcore_v7m.h"
 712              		.file 10 "../../ChibiOS/os/rt/include/chdebug.h"
 713              		.file 11 "../../ChibiOS/os/rt/include/chtm.h"
 714              		.file 12 "../../ChibiOS/os/rt/include/chstats.h"
 715              		.file 13 "../../ChibiOS/os/rt/include/chsem.h"
 716              		.file 14 "../../ChibiOS/os/rt/include/chmtx.h"
 717              		.file 15 "../../ChibiOS/os/various/lwip_bindings/arch/cc.h"
 718              		.file 16 "../../ChibiOS/ext/lwip/src/include/ipv4/lwip/ip_addr.h"
 719              		.file 17 "../../ChibiOS/ext/lwip/src/include/lwip/err.h"
 720              		.file 18 "../../ChibiOS/ext/lwip/src/include/lwip/memp.h"
 721              		.file 19 "../../ChibiOS/ext/lwip/src/include/lwip/pbuf.h"
 722              		.file 20 "../../ChibiOS/ext/lwip/src/include/lwip/netif.h"
 723              		.file 21 "../../ChibiOS/ext/lwip/src/include/ipv4/lwip/ip.h"
 724              		.file 22 "../../ChibiOS/ext/lwip/src/include/lwip/raw.h"
 725              		.file 23 "../../ChibiOS/os/ext/CMSIS/include/core_cm4.h"
 726              		.section	.debug_info,"",%progbits
 727              	.Ldebug_info0:
 728 0000 890E0000 		.4byte	0xe89
 729 0004 0400     		.2byte	0x4
ARM GAS  C:\Users\Luis\AppData\Local\Temp\ccUW6O2c.s 			page 14


 730 0006 00000000 		.4byte	.Ldebug_abbrev0
 731 000a 04       		.byte	0x4
 732 000b 01       		.uleb128 0x1
 733 000c CA070000 		.4byte	.LASF219
 734 0010 01       		.byte	0x1
 735 0011 4F090000 		.4byte	.LASF220
 736 0015 8E020000 		.4byte	.LASF221
 737 0019 00000000 		.4byte	.Ldebug_ranges0+0
 738 001d 00000000 		.4byte	0
 739 0021 00000000 		.4byte	.Ldebug_line0
 740 0025 02       		.uleb128 0x2
 741 0026 04       		.byte	0x4
 742 0027 05       		.byte	0x5
 743 0028 696E7400 		.ascii	"int\000"
 744 002c 03       		.uleb128 0x3
 745 002d 1D000000 		.4byte	.LASF1
 746 0031 03       		.byte	0x3
 747 0032 D4       		.byte	0xd4
 748 0033 37000000 		.4byte	0x37
 749 0037 04       		.uleb128 0x4
 750 0038 04       		.byte	0x4
 751 0039 07       		.byte	0x7
 752 003a 3A030000 		.4byte	.LASF0
 753 003e 03       		.uleb128 0x3
 754 003f C1040000 		.4byte	.LASF2
 755 0043 04       		.byte	0x4
 756 0044 29       		.byte	0x29
 757 0045 49000000 		.4byte	0x49
 758 0049 04       		.uleb128 0x4
 759 004a 01       		.byte	0x1
 760 004b 06       		.byte	0x6
 761 004c 54010000 		.4byte	.LASF3
 762 0050 03       		.uleb128 0x3
 763 0051 DA080000 		.4byte	.LASF4
 764 0055 04       		.byte	0x4
 765 0056 2A       		.byte	0x2a
 766 0057 5B000000 		.4byte	0x5b
 767 005b 04       		.uleb128 0x4
 768 005c 01       		.byte	0x1
 769 005d 08       		.byte	0x8
 770 005e B1070000 		.4byte	.LASF5
 771 0062 03       		.uleb128 0x3
 772 0063 3E010000 		.4byte	.LASF6
 773 0067 04       		.byte	0x4
 774 0068 35       		.byte	0x35
 775 0069 6D000000 		.4byte	0x6d
 776 006d 04       		.uleb128 0x4
 777 006e 02       		.byte	0x2
 778 006f 05       		.byte	0x5
 779 0070 2C060000 		.4byte	.LASF7
 780 0074 03       		.uleb128 0x3
 781 0075 09020000 		.4byte	.LASF8
 782 0079 04       		.byte	0x4
 783 007a 36       		.byte	0x36
 784 007b 7F000000 		.4byte	0x7f
 785 007f 04       		.uleb128 0x4
 786 0080 02       		.byte	0x2
ARM GAS  C:\Users\Luis\AppData\Local\Temp\ccUW6O2c.s 			page 15


 787 0081 07       		.byte	0x7
 788 0082 BB030000 		.4byte	.LASF9
 789 0086 03       		.uleb128 0x3
 790 0087 FA050000 		.4byte	.LASF10
 791 008b 04       		.byte	0x4
 792 008c 4F       		.byte	0x4f
 793 008d 91000000 		.4byte	0x91
 794 0091 04       		.uleb128 0x4
 795 0092 04       		.byte	0x4
 796 0093 05       		.byte	0x5
 797 0094 AD010000 		.4byte	.LASF11
 798 0098 03       		.uleb128 0x3
 799 0099 EF060000 		.4byte	.LASF12
 800 009d 04       		.byte	0x4
 801 009e 50       		.byte	0x50
 802 009f A3000000 		.4byte	0xa3
 803 00a3 04       		.uleb128 0x4
 804 00a4 04       		.byte	0x4
 805 00a5 07       		.byte	0x7
 806 00a6 60010000 		.4byte	.LASF13
 807 00aa 04       		.uleb128 0x4
 808 00ab 08       		.byte	0x8
 809 00ac 05       		.byte	0x5
 810 00ad 46010000 		.4byte	.LASF14
 811 00b1 03       		.uleb128 0x3
 812 00b2 3E000000 		.4byte	.LASF15
 813 00b6 04       		.byte	0x4
 814 00b7 78       		.byte	0x78
 815 00b8 BC000000 		.4byte	0xbc
 816 00bc 04       		.uleb128 0x4
 817 00bd 08       		.byte	0x8
 818 00be 07       		.byte	0x7
 819 00bf 99000000 		.4byte	.LASF16
 820 00c3 05       		.uleb128 0x5
 821 00c4 86000000 		.4byte	0x86
 822 00c8 03       		.uleb128 0x3
 823 00c9 CE040000 		.4byte	.LASF17
 824 00cd 05       		.byte	0x5
 825 00ce 45       		.byte	0x45
 826 00cf 98000000 		.4byte	0x98
 827 00d3 03       		.uleb128 0x3
 828 00d4 00000000 		.4byte	.LASF18
 829 00d8 05       		.byte	0x5
 830 00d9 46       		.byte	0x46
 831 00da B1000000 		.4byte	0xb1
 832 00de 03       		.uleb128 0x3
 833 00df 54040000 		.4byte	.LASF19
 834 00e3 05       		.byte	0x5
 835 00e4 48       		.byte	0x48
 836 00e5 50000000 		.4byte	0x50
 837 00e9 03       		.uleb128 0x3
 838 00ea D5010000 		.4byte	.LASF20
 839 00ee 05       		.byte	0x5
 840 00ef 49       		.byte	0x49
 841 00f0 50000000 		.4byte	0x50
 842 00f4 03       		.uleb128 0x3
 843 00f5 AA050000 		.4byte	.LASF21
ARM GAS  C:\Users\Luis\AppData\Local\Temp\ccUW6O2c.s 			page 16


 844 00f9 05       		.byte	0x5
 845 00fa 4A       		.byte	0x4a
 846 00fb 50000000 		.4byte	0x50
 847 00ff 03       		.uleb128 0x3
 848 0100 DA050000 		.4byte	.LASF22
 849 0104 05       		.byte	0x5
 850 0105 4C       		.byte	0x4c
 851 0106 98000000 		.4byte	0x98
 852 010a 03       		.uleb128 0x3
 853 010b 17040000 		.4byte	.LASF23
 854 010f 05       		.byte	0x5
 855 0110 4D       		.byte	0x4d
 856 0111 86000000 		.4byte	0x86
 857 0115 03       		.uleb128 0x3
 858 0116 75040000 		.4byte	.LASF24
 859 011a 05       		.byte	0x5
 860 011b 4F       		.byte	0x4f
 861 011c 98000000 		.4byte	0x98
 862 0120 03       		.uleb128 0x3
 863 0121 1A030000 		.4byte	.LASF25
 864 0125 05       		.byte	0x5
 865 0126 51       		.byte	0x51
 866 0127 86000000 		.4byte	0x86
 867 012b 03       		.uleb128 0x3
 868 012c 32040000 		.4byte	.LASF26
 869 0130 05       		.byte	0x5
 870 0131 52       		.byte	0x52
 871 0132 98000000 		.4byte	0x98
 872 0136 03       		.uleb128 0x3
 873 0137 6F070000 		.4byte	.LASF27
 874 013b 06       		.byte	0x6
 875 013c 33       		.byte	0x33
 876 013d 98000000 		.4byte	0x98
 877 0141 03       		.uleb128 0x3
 878 0142 59070000 		.4byte	.LASF28
 879 0146 06       		.byte	0x6
 880 0147 3F       		.byte	0x3f
 881 0148 4C010000 		.4byte	0x14c
 882 014c 06       		.uleb128 0x6
 883 014d EF030000 		.4byte	.LASF51
 884 0151 68       		.byte	0x68
 885 0152 07       		.byte	0x7
 886 0153 C2       		.byte	0xc2
 887 0154 5F020000 		.4byte	0x25f
 888 0158 07       		.uleb128 0x7
 889 0159 64060000 		.4byte	.LASF29
 890 015d 07       		.byte	0x7
 891 015e C3       		.byte	0xc3
 892 015f 6A020000 		.4byte	0x26a
 893 0163 00       		.byte	0
 894 0164 07       		.uleb128 0x7
 895 0165 D3050000 		.4byte	.LASF30
 896 0169 07       		.byte	0x7
 897 016a C5       		.byte	0xc5
 898 016b 6A020000 		.4byte	0x26a
 899 016f 04       		.byte	0x4
 900 0170 07       		.uleb128 0x7
ARM GAS  C:\Users\Luis\AppData\Local\Temp\ccUW6O2c.s 			page 17


 901 0171 37010000 		.4byte	.LASF31
 902 0175 07       		.byte	0x7
 903 0176 C7       		.byte	0xc7
 904 0177 FF000000 		.4byte	0xff
 905 017b 08       		.byte	0x8
 906 017c 07       		.uleb128 0x7
 907 017d 9E090000 		.4byte	.LASF32
 908 0181 07       		.byte	0x7
 909 0182 C8       		.byte	0xc8
 910 0183 D3040000 		.4byte	0x4d3
 911 0187 0C       		.byte	0xc
 912 0188 07       		.uleb128 0x7
 913 0189 3A020000 		.4byte	.LASF33
 914 018d 07       		.byte	0x7
 915 018e CA       		.byte	0xca
 916 018f 6A020000 		.4byte	0x26a
 917 0193 10       		.byte	0x10
 918 0194 07       		.uleb128 0x7
 919 0195 4E060000 		.4byte	.LASF34
 920 0199 07       		.byte	0x7
 921 019a CB       		.byte	0xcb
 922 019b 6A020000 		.4byte	0x26a
 923 019f 14       		.byte	0x14
 924 01a0 07       		.uleb128 0x7
 925 01a1 13090000 		.4byte	.LASF35
 926 01a5 07       		.byte	0x7
 927 01a6 D2       		.byte	0xd2
 928 01a7 77070000 		.4byte	0x777
 929 01ab 18       		.byte	0x18
 930 01ac 07       		.uleb128 0x7
 931 01ad 2F030000 		.4byte	.LASF36
 932 01b1 07       		.byte	0x7
 933 01b2 D8       		.byte	0xd8
 934 01b3 89070000 		.4byte	0x789
 935 01b7 1C       		.byte	0x1c
 936 01b8 07       		.uleb128 0x7
 937 01b9 36060000 		.4byte	.LASF37
 938 01bd 07       		.byte	0x7
 939 01be DD       		.byte	0xdd
 940 01bf E9000000 		.4byte	0xe9
 941 01c3 20       		.byte	0x20
 942 01c4 07       		.uleb128 0x7
 943 01c5 36090000 		.4byte	.LASF38
 944 01c9 07       		.byte	0x7
 945 01ca E1       		.byte	0xe1
 946 01cb DE000000 		.4byte	0xde
 947 01cf 21       		.byte	0x21
 948 01d0 07       		.uleb128 0x7
 949 01d1 B9080000 		.4byte	.LASF39
 950 01d5 07       		.byte	0x7
 951 01d6 E6       		.byte	0xe6
 952 01d7 F4000000 		.4byte	0xf4
 953 01db 22       		.byte	0x22
 954 01dc 08       		.uleb128 0x8
 955 01dd 705F7500 		.ascii	"p_u\000"
 956 01e1 07       		.byte	0x7
 957 01e2 3101     		.2byte	0x131
ARM GAS  C:\Users\Luis\AppData\Local\Temp\ccUW6O2c.s 			page 18


 958 01e4 B2060000 		.4byte	0x6b2
 959 01e8 24       		.byte	0x24
 960 01e9 09       		.uleb128 0x9
 961 01ea A4090000 		.4byte	.LASF40
 962 01ee 07       		.byte	0x7
 963 01ef 3601     		.2byte	0x136
 964 01f1 70020000 		.4byte	0x270
 965 01f5 28       		.byte	0x28
 966 01f6 09       		.uleb128 0x9
 967 01f7 54030000 		.4byte	.LASF41
 968 01fb 07       		.byte	0x7
 969 01fc 3C01     		.2byte	0x13c
 970 01fe 94020000 		.4byte	0x294
 971 0202 2C       		.byte	0x2c
 972 0203 09       		.uleb128 0x9
 973 0204 3E090000 		.4byte	.LASF42
 974 0208 07       		.byte	0x7
 975 0209 4001     		.2byte	0x140
 976 020b 0A010000 		.4byte	0x10a
 977 020f 34       		.byte	0x34
 978 0210 09       		.uleb128 0x9
 979 0211 D3060000 		.4byte	.LASF43
 980 0215 07       		.byte	0x7
 981 0216 4601     		.2byte	0x146
 982 0218 15010000 		.4byte	0x115
 983 021c 38       		.byte	0x38
 984 021d 09       		.uleb128 0x9
 985 021e 22060000 		.4byte	.LASF44
 986 0222 07       		.byte	0x7
 987 0223 4D01     		.2byte	0x14d
 988 0225 71070000 		.4byte	0x771
 989 0229 3C       		.byte	0x3c
 990 022a 09       		.uleb128 0x9
 991 022b 79070000 		.4byte	.LASF45
 992 022f 07       		.byte	0x7
 993 0230 5101     		.2byte	0x151
 994 0232 FF000000 		.4byte	0xff
 995 0236 40       		.byte	0x40
 996 0237 09       		.uleb128 0x9
 997 0238 72010000 		.4byte	.LASF46
 998 023c 07       		.byte	0x7
 999 023d 5801     		.2byte	0x158
 1000 023f 47030000 		.4byte	0x347
 1001 0243 44       		.byte	0x44
 1002 0244 09       		.uleb128 0x9
 1003 0245 F6010000 		.4byte	.LASF47
 1004 0249 07       		.byte	0x7
 1005 024a 5E01     		.2byte	0x15e
 1006 024c 63060000 		.4byte	0x663
 1007 0250 48       		.byte	0x48
 1008 0251 09       		.uleb128 0x9
 1009 0252 82030000 		.4byte	.LASF48
 1010 0256 07       		.byte	0x7
 1011 0257 6201     		.2byte	0x162
 1012 0259 47030000 		.4byte	0x347
 1013 025d 60       		.byte	0x60
 1014 025e 00       		.byte	0
ARM GAS  C:\Users\Luis\AppData\Local\Temp\ccUW6O2c.s 			page 19


 1015 025f 03       		.uleb128 0x3
 1016 0260 F7080000 		.4byte	.LASF49
 1017 0264 06       		.byte	0x6
 1018 0265 44       		.byte	0x44
 1019 0266 6A020000 		.4byte	0x26a
 1020 026a 0A       		.uleb128 0xa
 1021 026b 04       		.byte	0x4
 1022 026c 41010000 		.4byte	0x141
 1023 0270 03       		.uleb128 0x3
 1024 0271 1A090000 		.4byte	.LASF50
 1025 0275 06       		.byte	0x6
 1026 0276 49       		.byte	0x49
 1027 0277 7B020000 		.4byte	0x27b
 1028 027b 06       		.uleb128 0x6
 1029 027c 22040000 		.4byte	.LASF52
 1030 0280 04       		.byte	0x4
 1031 0281 07       		.byte	0x7
 1032 0282 B0       		.byte	0xb0
 1033 0283 94020000 		.4byte	0x294
 1034 0287 07       		.uleb128 0x7
 1035 0288 64060000 		.4byte	.LASF29
 1036 028c 07       		.byte	0x7
 1037 028d B1       		.byte	0xb1
 1038 028e 6A020000 		.4byte	0x26a
 1039 0292 00       		.byte	0
 1040 0293 00       		.byte	0
 1041 0294 03       		.uleb128 0x3
 1042 0295 A9080000 		.4byte	.LASF53
 1043 0299 06       		.byte	0x6
 1044 029a 50       		.byte	0x50
 1045 029b 9F020000 		.4byte	0x29f
 1046 029f 06       		.uleb128 0x6
 1047 02a0 26010000 		.4byte	.LASF54
 1048 02a4 08       		.byte	0x8
 1049 02a5 07       		.byte	0x7
 1050 02a6 B7       		.byte	0xb7
 1051 02a7 C4020000 		.4byte	0x2c4
 1052 02ab 07       		.uleb128 0x7
 1053 02ac 64060000 		.4byte	.LASF29
 1054 02b0 07       		.byte	0x7
 1055 02b1 B8       		.byte	0xb8
 1056 02b2 6A020000 		.4byte	0x26a
 1057 02b6 00       		.byte	0
 1058 02b7 07       		.uleb128 0x7
 1059 02b8 D3050000 		.4byte	.LASF30
 1060 02bc 07       		.byte	0x7
 1061 02bd B9       		.byte	0xb9
 1062 02be 6A020000 		.4byte	0x26a
 1063 02c2 04       		.byte	0x4
 1064 02c3 00       		.byte	0
 1065 02c4 03       		.uleb128 0x3
 1066 02c5 10000000 		.4byte	.LASF55
 1067 02c9 06       		.byte	0x6
 1068 02ca 57       		.byte	0x57
 1069 02cb CF020000 		.4byte	0x2cf
 1070 02cf 0B       		.uleb128 0xb
 1071 02d0 67040000 		.4byte	.LASF56
ARM GAS  C:\Users\Luis\AppData\Local\Temp\ccUW6O2c.s 			page 20


 1072 02d4 1C       		.byte	0x1c
 1073 02d5 07       		.byte	0x7
 1074 02d6 9001     		.2byte	0x190
 1075 02d8 2B030000 		.4byte	0x32b
 1076 02dc 09       		.uleb128 0x9
 1077 02dd FF060000 		.4byte	.LASF57
 1078 02e1 07       		.byte	0x7
 1079 02e2 9101     		.2byte	0x191
 1080 02e4 94020000 		.4byte	0x294
 1081 02e8 00       		.byte	0
 1082 02e9 09       		.uleb128 0x9
 1083 02ea 56060000 		.4byte	.LASF58
 1084 02ee 07       		.byte	0x7
 1085 02ef 9201     		.2byte	0x192
 1086 02f1 FF000000 		.4byte	0xff
 1087 02f5 08       		.byte	0x8
 1088 02f6 09       		.uleb128 0x9
 1089 02f7 54050000 		.4byte	.LASF59
 1090 02fb 07       		.byte	0x7
 1091 02fc 9401     		.2byte	0x194
 1092 02fe D3040000 		.4byte	0x4d3
 1093 0302 0C       		.byte	0xc
 1094 0303 09       		.uleb128 0x9
 1095 0304 75020000 		.4byte	.LASF60
 1096 0308 07       		.byte	0x7
 1097 0309 9701     		.2byte	0x197
 1098 030b 6A020000 		.4byte	0x26a
 1099 030f 10       		.byte	0x10
 1100 0310 09       		.uleb128 0x9
 1101 0311 7A050000 		.4byte	.LASF61
 1102 0315 07       		.byte	0x7
 1103 0316 9801     		.2byte	0x198
 1104 0318 6A020000 		.4byte	0x26a
 1105 031c 14       		.byte	0x14
 1106 031d 09       		.uleb128 0x9
 1107 031e 70050000 		.4byte	.LASF62
 1108 0322 07       		.byte	0x7
 1109 0323 9B01     		.2byte	0x19b
 1110 0325 6A020000 		.4byte	0x26a
 1111 0329 18       		.byte	0x18
 1112 032a 00       		.byte	0
 1113 032b 03       		.uleb128 0x3
 1114 032c 84070000 		.4byte	.LASF63
 1115 0330 06       		.byte	0x6
 1116 0331 5C       		.byte	0x5c
 1117 0332 36030000 		.4byte	0x336
 1118 0336 0A       		.uleb128 0xa
 1119 0337 04       		.byte	0x4
 1120 0338 3C030000 		.4byte	0x33c
 1121 033c 0C       		.uleb128 0xc
 1122 033d 47030000 		.4byte	0x347
 1123 0341 0D       		.uleb128 0xd
 1124 0342 47030000 		.4byte	0x347
 1125 0346 00       		.byte	0
 1126 0347 0E       		.uleb128 0xe
 1127 0348 04       		.byte	0x4
 1128 0349 03       		.uleb128 0x3
ARM GAS  C:\Users\Luis\AppData\Local\Temp\ccUW6O2c.s 			page 21


 1129 034a C3050000 		.4byte	.LASF64
 1130 034e 06       		.byte	0x6
 1131 034f 61       		.byte	0x61
 1132 0350 54030000 		.4byte	0x354
 1133 0354 0B       		.uleb128 0xb
 1134 0355 A8060000 		.4byte	.LASF65
 1135 0359 14       		.byte	0x14
 1136 035a 07       		.byte	0x7
 1137 035b 6B01     		.2byte	0x16b
 1138 035d A3030000 		.4byte	0x3a3
 1139 0361 09       		.uleb128 0x9
 1140 0362 4C030000 		.4byte	.LASF66
 1141 0366 07       		.byte	0x7
 1142 0367 6C01     		.2byte	0x16c
 1143 0369 8F070000 		.4byte	0x78f
 1144 036d 00       		.byte	0
 1145 036e 09       		.uleb128 0x9
 1146 036f 86020000 		.4byte	.LASF67
 1147 0373 07       		.byte	0x7
 1148 0374 6D01     		.2byte	0x16d
 1149 0376 8F070000 		.4byte	0x78f
 1150 037a 04       		.byte	0x4
 1151 037b 09       		.uleb128 0x9
 1152 037c 07070000 		.4byte	.LASF68
 1153 0380 07       		.byte	0x7
 1154 0381 6E01     		.2byte	0x16e
 1155 0383 36010000 		.4byte	0x136
 1156 0387 08       		.byte	0x8
 1157 0388 09       		.uleb128 0x9
 1158 0389 63050000 		.4byte	.LASF69
 1159 038d 07       		.byte	0x7
 1160 038e 6F01     		.2byte	0x16f
 1161 0390 2B030000 		.4byte	0x32b
 1162 0394 0C       		.byte	0xc
 1163 0395 09       		.uleb128 0x9
 1164 0396 9C080000 		.4byte	.LASF70
 1165 039a 07       		.byte	0x7
 1166 039b 7101     		.2byte	0x171
 1167 039d 47030000 		.4byte	0x347
 1168 03a1 10       		.byte	0x10
 1169 03a2 00       		.byte	0
 1170 03a3 03       		.uleb128 0x3
 1171 03a4 F1000000 		.4byte	.LASF71
 1172 03a8 06       		.byte	0x6
 1173 03a9 66       		.byte	0x66
 1174 03aa AE030000 		.4byte	0x3ae
 1175 03ae 0B       		.uleb128 0xb
 1176 03af E7040000 		.4byte	.LASF72
 1177 03b3 10       		.byte	0x10
 1178 03b4 07       		.byte	0x7
 1179 03b5 7B01     		.2byte	0x17b
 1180 03b7 F0030000 		.4byte	0x3f0
 1181 03bb 09       		.uleb128 0x9
 1182 03bc 4C030000 		.4byte	.LASF66
 1183 03c0 07       		.byte	0x7
 1184 03c1 7C01     		.2byte	0x17c
 1185 03c3 8F070000 		.4byte	0x78f
ARM GAS  C:\Users\Luis\AppData\Local\Temp\ccUW6O2c.s 			page 22


 1186 03c7 00       		.byte	0
 1187 03c8 09       		.uleb128 0x9
 1188 03c9 86020000 		.4byte	.LASF67
 1189 03cd 07       		.byte	0x7
 1190 03ce 7E01     		.2byte	0x17e
 1191 03d0 8F070000 		.4byte	0x78f
 1192 03d4 04       		.byte	0x4
 1193 03d5 09       		.uleb128 0x9
 1194 03d6 07070000 		.4byte	.LASF68
 1195 03da 07       		.byte	0x7
 1196 03db 8001     		.2byte	0x180
 1197 03dd 36010000 		.4byte	0x136
 1198 03e1 08       		.byte	0x8
 1199 03e2 09       		.uleb128 0x9
 1200 03e3 2E050000 		.4byte	.LASF73
 1201 03e7 07       		.byte	0x7
 1202 03e8 8801     		.2byte	0x188
 1203 03ea 36010000 		.4byte	0x136
 1204 03ee 0C       		.byte	0xc
 1205 03ef 00       		.byte	0
 1206 03f0 03       		.uleb128 0x3
 1207 03f1 66030000 		.4byte	.LASF74
 1208 03f5 06       		.byte	0x6
 1209 03f6 6B       		.byte	0x6b
 1210 03f7 FB030000 		.4byte	0x3fb
 1211 03fb 0F       		.uleb128 0xf
 1212 03fc D1020000 		.4byte	.LASF75
 1213 0400 1404     		.2byte	0x414
 1214 0402 07       		.byte	0x7
 1215 0403 A201     		.2byte	0x1a2
 1216 0405 3E040000 		.4byte	0x43e
 1217 0409 09       		.uleb128 0x9
 1218 040a 8D070000 		.4byte	.LASF76
 1219 040e 07       		.byte	0x7
 1220 040f AA01     		.2byte	0x1aa
 1221 0411 95070000 		.4byte	0x795
 1222 0415 00       		.byte	0
 1223 0416 09       		.uleb128 0x9
 1224 0417 28070000 		.4byte	.LASF77
 1225 041b 07       		.byte	0x7
 1226 041c AF01     		.2byte	0x1af
 1227 041e 20010000 		.4byte	0x120
 1228 0422 04       		.byte	0x4
 1229 0423 09       		.uleb128 0x9
 1230 0424 FD020000 		.4byte	.LASF78
 1231 0428 07       		.byte	0x7
 1232 0429 B301     		.2byte	0x1b3
 1233 042b 20010000 		.4byte	0x120
 1234 042f 08       		.byte	0x8
 1235 0430 09       		.uleb128 0x9
 1236 0431 29090000 		.4byte	.LASF79
 1237 0435 07       		.byte	0x7
 1238 0436 B901     		.2byte	0x1b9
 1239 0438 F5050000 		.4byte	0x5f5
 1240 043c 0C       		.byte	0xc
 1241 043d 00       		.byte	0
 1242 043e 03       		.uleb128 0x3
ARM GAS  C:\Users\Luis\AppData\Local\Temp\ccUW6O2c.s 			page 23


 1243 043f 39040000 		.4byte	.LASF80
 1244 0443 06       		.byte	0x6
 1245 0444 70       		.byte	0x70
 1246 0445 49040000 		.4byte	0x449
 1247 0449 0F       		.uleb128 0xf
 1248 044a A3010000 		.4byte	.LASF81
 1249 044e E805     		.2byte	0x5e8
 1250 0450 07       		.byte	0x7
 1251 0451 C201     		.2byte	0x1c2
 1252 0453 B6040000 		.4byte	0x4b6
 1253 0457 09       		.uleb128 0x9
 1254 0458 CC080000 		.4byte	.LASF82
 1255 045c 07       		.byte	0x7
 1256 045d C601     		.2byte	0x1c6
 1257 045f C4020000 		.4byte	0x2c4
 1258 0463 00       		.byte	0
 1259 0464 09       		.uleb128 0x9
 1260 0465 65000000 		.4byte	.LASF83
 1261 0469 07       		.byte	0x7
 1262 046a CA01     		.2byte	0x1ca
 1263 046c A3030000 		.4byte	0x3a3
 1264 0470 1C       		.byte	0x1c
 1265 0471 08       		.uleb128 0x8
 1266 0472 64626700 		.ascii	"dbg\000"
 1267 0476 07       		.byte	0x7
 1268 0477 CE01     		.2byte	0x1ce
 1269 0479 F0030000 		.4byte	0x3f0
 1270 047d 2C       		.byte	0x2c
 1271 047e 10       		.uleb128 0x10
 1272 047f D9000000 		.4byte	.LASF84
 1273 0483 07       		.byte	0x7
 1274 0484 D201     		.2byte	0x1d2
 1275 0486 41010000 		.4byte	0x141
 1276 048a 4004     		.2byte	0x440
 1277 048c 11       		.uleb128 0x11
 1278 048d 746D00   		.ascii	"tm\000"
 1279 0490 07       		.byte	0x7
 1280 0491 D701     		.2byte	0x1d7
 1281 0493 15060000 		.4byte	0x615
 1282 0497 A804     		.2byte	0x4a8
 1283 0499 10       		.uleb128 0x10
 1284 049a 47000000 		.4byte	.LASF85
 1285 049e 07       		.byte	0x7
 1286 049f DD01     		.2byte	0x1dd
 1287 04a1 A7060000 		.4byte	0x6a7
 1288 04a5 B004     		.2byte	0x4b0
 1289 04a7 10       		.uleb128 0x10
 1290 04a8 71000000 		.4byte	.LASF86
 1291 04ac 07       		.byte	0x7
 1292 04ad E301     		.2byte	0x1e3
 1293 04af 9A070000 		.4byte	0x79a
 1294 04b3 E804     		.2byte	0x4e8
 1295 04b5 00       		.byte	0
 1296 04b6 04       		.uleb128 0x4
 1297 04b7 04       		.byte	0x4
 1298 04b8 07       		.byte	0x7
 1299 04b9 EE080000 		.4byte	.LASF87
ARM GAS  C:\Users\Luis\AppData\Local\Temp\ccUW6O2c.s 			page 24


 1300 04bd 03       		.uleb128 0x3
 1301 04be 7D020000 		.4byte	.LASF88
 1302 04c2 08       		.byte	0x8
 1303 04c3 65       		.byte	0x65
 1304 04c4 47030000 		.4byte	0x347
 1305 04c8 03       		.uleb128 0x3
 1306 04c9 8D040000 		.4byte	.LASF89
 1307 04cd 08       		.byte	0x8
 1308 04ce 6D       		.byte	0x6d
 1309 04cf B1000000 		.4byte	0xb1
 1310 04d3 06       		.uleb128 0x6
 1311 04d4 A9070000 		.4byte	.LASF90
 1312 04d8 04       		.byte	0x4
 1313 04d9 08       		.byte	0x8
 1314 04da 89       		.byte	0x89
 1315 04db EC040000 		.4byte	0x4ec
 1316 04df 12       		.uleb128 0x12
 1317 04e0 72313300 		.ascii	"r13\000"
 1318 04e4 08       		.byte	0x8
 1319 04e5 8A       		.byte	0x8a
 1320 04e6 67050000 		.4byte	0x567
 1321 04ea 00       		.byte	0
 1322 04eb 00       		.byte	0
 1323 04ec 06       		.uleb128 0x6
 1324 04ed 59000000 		.4byte	.LASF91
 1325 04f1 24       		.byte	0x24
 1326 04f2 09       		.byte	0x9
 1327 04f3 F4       		.byte	0xf4
 1328 04f4 67050000 		.4byte	0x567
 1329 04f8 08       		.uleb128 0x8
 1330 04f9 723400   		.ascii	"r4\000"
 1331 04fc 09       		.byte	0x9
 1332 04fd 0701     		.2byte	0x107
 1333 04ff BD040000 		.4byte	0x4bd
 1334 0503 00       		.byte	0
 1335 0504 08       		.uleb128 0x8
 1336 0505 723500   		.ascii	"r5\000"
 1337 0508 09       		.byte	0x9
 1338 0509 0801     		.2byte	0x108
 1339 050b BD040000 		.4byte	0x4bd
 1340 050f 04       		.byte	0x4
 1341 0510 08       		.uleb128 0x8
 1342 0511 723600   		.ascii	"r6\000"
 1343 0514 09       		.byte	0x9
 1344 0515 0901     		.2byte	0x109
 1345 0517 BD040000 		.4byte	0x4bd
 1346 051b 08       		.byte	0x8
 1347 051c 08       		.uleb128 0x8
 1348 051d 723700   		.ascii	"r7\000"
 1349 0520 09       		.byte	0x9
 1350 0521 0A01     		.2byte	0x10a
 1351 0523 BD040000 		.4byte	0x4bd
 1352 0527 0C       		.byte	0xc
 1353 0528 08       		.uleb128 0x8
 1354 0529 723800   		.ascii	"r8\000"
 1355 052c 09       		.byte	0x9
 1356 052d 0B01     		.2byte	0x10b
ARM GAS  C:\Users\Luis\AppData\Local\Temp\ccUW6O2c.s 			page 25


 1357 052f BD040000 		.4byte	0x4bd
 1358 0533 10       		.byte	0x10
 1359 0534 08       		.uleb128 0x8
 1360 0535 723900   		.ascii	"r9\000"
 1361 0538 09       		.byte	0x9
 1362 0539 0C01     		.2byte	0x10c
 1363 053b BD040000 		.4byte	0x4bd
 1364 053f 14       		.byte	0x14
 1365 0540 08       		.uleb128 0x8
 1366 0541 72313000 		.ascii	"r10\000"
 1367 0545 09       		.byte	0x9
 1368 0546 0D01     		.2byte	0x10d
 1369 0548 BD040000 		.4byte	0x4bd
 1370 054c 18       		.byte	0x18
 1371 054d 08       		.uleb128 0x8
 1372 054e 72313100 		.ascii	"r11\000"
 1373 0552 09       		.byte	0x9
 1374 0553 0E01     		.2byte	0x10e
 1375 0555 BD040000 		.4byte	0x4bd
 1376 0559 1C       		.byte	0x1c
 1377 055a 08       		.uleb128 0x8
 1378 055b 6C7200   		.ascii	"lr\000"
 1379 055e 09       		.byte	0x9
 1380 055f 0F01     		.2byte	0x10f
 1381 0561 BD040000 		.4byte	0x4bd
 1382 0565 20       		.byte	0x20
 1383 0566 00       		.byte	0
 1384 0567 0A       		.uleb128 0xa
 1385 0568 04       		.byte	0x4
 1386 0569 EC040000 		.4byte	0x4ec
 1387 056d 13       		.uleb128 0x13
 1388 056e 10       		.byte	0x10
 1389 056f 0A       		.byte	0xa
 1390 0570 51       		.byte	0x51
 1391 0571 A6050000 		.4byte	0x5a6
 1392 0575 07       		.uleb128 0x7
 1393 0576 06030000 		.4byte	.LASF92
 1394 057a 0A       		.byte	0xa
 1395 057b 55       		.byte	0x55
 1396 057c 36010000 		.4byte	0x136
 1397 0580 00       		.byte	0
 1398 0581 07       		.uleb128 0x7
 1399 0582 FE010000 		.4byte	.LASF93
 1400 0586 0A       		.byte	0xa
 1401 0587 59       		.byte	0x59
 1402 0588 6A020000 		.4byte	0x26a
 1403 058c 04       		.byte	0x4
 1404 058d 07       		.uleb128 0x7
 1405 058e 94090000 		.4byte	.LASF94
 1406 0592 0A       		.byte	0xa
 1407 0593 5D       		.byte	0x5d
 1408 0594 47030000 		.4byte	0x347
 1409 0598 08       		.byte	0x8
 1410 0599 07       		.uleb128 0x7
 1411 059a B0000000 		.4byte	.LASF95
 1412 059e 0A       		.byte	0xa
 1413 059f 61       		.byte	0x61
ARM GAS  C:\Users\Luis\AppData\Local\Temp\ccUW6O2c.s 			page 26


 1414 05a0 50000000 		.4byte	0x50
 1415 05a4 0C       		.byte	0xc
 1416 05a5 00       		.byte	0
 1417 05a6 03       		.uleb128 0x3
 1418 05a7 17050000 		.4byte	.LASF96
 1419 05ab 0A       		.byte	0xa
 1420 05ac 62       		.byte	0x62
 1421 05ad 6D050000 		.4byte	0x56d
 1422 05b1 14       		.uleb128 0x14
 1423 05b2 0804     		.2byte	0x408
 1424 05b4 0A       		.byte	0xa
 1425 05b5 67       		.byte	0x67
 1426 05b6 DF050000 		.4byte	0x5df
 1427 05ba 07       		.uleb128 0x7
 1428 05bb 6D020000 		.4byte	.LASF97
 1429 05bf 0A       		.byte	0xa
 1430 05c0 6B       		.byte	0x6b
 1431 05c1 37000000 		.4byte	0x37
 1432 05c5 00       		.byte	0
 1433 05c6 07       		.uleb128 0x7
 1434 05c7 09000000 		.4byte	.LASF98
 1435 05cb 0A       		.byte	0xa
 1436 05cc 6F       		.byte	0x6f
 1437 05cd DF050000 		.4byte	0x5df
 1438 05d1 04       		.byte	0x4
 1439 05d2 07       		.uleb128 0x7
 1440 05d3 B2050000 		.4byte	.LASF99
 1441 05d7 0A       		.byte	0xa
 1442 05d8 73       		.byte	0x73
 1443 05d9 E5050000 		.4byte	0x5e5
 1444 05dd 08       		.byte	0x8
 1445 05de 00       		.byte	0
 1446 05df 0A       		.uleb128 0xa
 1447 05e0 04       		.byte	0x4
 1448 05e1 A6050000 		.4byte	0x5a6
 1449 05e5 15       		.uleb128 0x15
 1450 05e6 A6050000 		.4byte	0x5a6
 1451 05ea F5050000 		.4byte	0x5f5
 1452 05ee 16       		.uleb128 0x16
 1453 05ef B6040000 		.4byte	0x4b6
 1454 05f3 3F       		.byte	0x3f
 1455 05f4 00       		.byte	0
 1456 05f5 03       		.uleb128 0x3
 1457 05f6 02060000 		.4byte	.LASF100
 1458 05fa 0A       		.byte	0xa
 1459 05fb 74       		.byte	0x74
 1460 05fc B1050000 		.4byte	0x5b1
 1461 0600 13       		.uleb128 0x13
 1462 0601 04       		.byte	0x4
 1463 0602 0B       		.byte	0xb
 1464 0603 38       		.byte	0x38
 1465 0604 15060000 		.4byte	0x615
 1466 0608 07       		.uleb128 0x7
 1467 0609 A2070000 		.4byte	.LASF101
 1468 060d 0B       		.byte	0xb
 1469 060e 3C       		.byte	0x3c
 1470 060f C8000000 		.4byte	0xc8
ARM GAS  C:\Users\Luis\AppData\Local\Temp\ccUW6O2c.s 			page 27


 1471 0613 00       		.byte	0
 1472 0614 00       		.byte	0
 1473 0615 03       		.uleb128 0x3
 1474 0616 D6040000 		.4byte	.LASF102
 1475 061a 0B       		.byte	0xb
 1476 061b 3D       		.byte	0x3d
 1477 061c 00060000 		.4byte	0x600
 1478 0620 13       		.uleb128 0x13
 1479 0621 18       		.byte	0x18
 1480 0622 0B       		.byte	0xb
 1481 0623 48       		.byte	0x48
 1482 0624 63060000 		.4byte	0x663
 1483 0628 07       		.uleb128 0x7
 1484 0629 AF030000 		.4byte	.LASF103
 1485 062d 0B       		.byte	0xb
 1486 062e 49       		.byte	0x49
 1487 062f C8000000 		.4byte	0xc8
 1488 0633 00       		.byte	0
 1489 0634 07       		.uleb128 0x7
 1490 0635 80000000 		.4byte	.LASF104
 1491 0639 0B       		.byte	0xb
 1492 063a 4A       		.byte	0x4a
 1493 063b C8000000 		.4byte	0xc8
 1494 063f 04       		.byte	0x4
 1495 0640 07       		.uleb128 0x7
 1496 0641 1D040000 		.4byte	.LASF105
 1497 0645 0B       		.byte	0xb
 1498 0646 4B       		.byte	0x4b
 1499 0647 C8000000 		.4byte	0xc8
 1500 064b 08       		.byte	0x8
 1501 064c 12       		.uleb128 0x12
 1502 064d 6E00     		.ascii	"n\000"
 1503 064f 0B       		.byte	0xb
 1504 0650 4C       		.byte	0x4c
 1505 0651 2B010000 		.4byte	0x12b
 1506 0655 0C       		.byte	0xc
 1507 0656 07       		.uleb128 0x7
 1508 0657 97070000 		.4byte	.LASF106
 1509 065b 0B       		.byte	0xb
 1510 065c 4D       		.byte	0x4d
 1511 065d D3000000 		.4byte	0xd3
 1512 0661 10       		.byte	0x10
 1513 0662 00       		.byte	0
 1514 0663 03       		.uleb128 0x3
 1515 0664 86000000 		.4byte	.LASF107
 1516 0668 0B       		.byte	0xb
 1517 0669 4E       		.byte	0x4e
 1518 066a 20060000 		.4byte	0x620
 1519 066e 13       		.uleb128 0x13
 1520 066f 38       		.byte	0x38
 1521 0670 0C       		.byte	0xc
 1522 0671 38       		.byte	0x38
 1523 0672 A7060000 		.4byte	0x6a7
 1524 0676 07       		.uleb128 0x7
 1525 0677 89030000 		.4byte	.LASF108
 1526 067b 0C       		.byte	0xc
 1527 067c 39       		.byte	0x39
ARM GAS  C:\Users\Luis\AppData\Local\Temp\ccUW6O2c.s 			page 28


 1528 067d 2B010000 		.4byte	0x12b
 1529 0681 00       		.byte	0
 1530 0682 07       		.uleb128 0x7
 1531 0683 EB050000 		.4byte	.LASF109
 1532 0687 0C       		.byte	0xc
 1533 0688 3A       		.byte	0x3a
 1534 0689 2B010000 		.4byte	0x12b
 1535 068d 04       		.byte	0x4
 1536 068e 07       		.uleb128 0x7
 1537 068f 7F090000 		.4byte	.LASF110
 1538 0693 0C       		.byte	0xc
 1539 0694 3B       		.byte	0x3b
 1540 0695 63060000 		.4byte	0x663
 1541 0699 08       		.byte	0x8
 1542 069a 07       		.uleb128 0x7
 1543 069b 5C040000 		.4byte	.LASF111
 1544 069f 0C       		.byte	0xc
 1545 06a0 3D       		.byte	0x3d
 1546 06a1 63060000 		.4byte	0x663
 1547 06a5 20       		.byte	0x20
 1548 06a6 00       		.byte	0
 1549 06a7 03       		.uleb128 0x3
 1550 06a8 CE030000 		.4byte	.LASF112
 1551 06ac 0C       		.byte	0xc
 1552 06ad 3F       		.byte	0x3f
 1553 06ae 6E060000 		.4byte	0x66e
 1554 06b2 17       		.uleb128 0x17
 1555 06b3 04       		.byte	0x4
 1556 06b4 07       		.byte	0x7
 1557 06b5 FA       		.byte	0xfa
 1558 06b6 0F070000 		.4byte	0x70f
 1559 06ba 18       		.uleb128 0x18
 1560 06bb 24000000 		.4byte	.LASF113
 1561 06bf 07       		.byte	0x7
 1562 06c0 0101     		.2byte	0x101
 1563 06c2 0A010000 		.4byte	0x10a
 1564 06c6 18       		.uleb128 0x18
 1565 06c7 C1000000 		.4byte	.LASF114
 1566 06cb 07       		.byte	0x7
 1567 06cc 0801     		.2byte	0x108
 1568 06ce 0A010000 		.4byte	0x10a
 1569 06d2 18       		.uleb128 0x18
 1570 06d3 8E010000 		.4byte	.LASF115
 1571 06d7 07       		.byte	0x7
 1572 06d8 0F01     		.2byte	0x10f
 1573 06da 47030000 		.4byte	0x347
 1574 06de 18       		.uleb128 0x18
 1575 06df FE040000 		.4byte	.LASF116
 1576 06e3 07       		.byte	0x7
 1577 06e4 1601     		.2byte	0x116
 1578 06e6 0F070000 		.4byte	0x70f
 1579 06ea 18       		.uleb128 0x18
 1580 06eb 5F030000 		.4byte	.LASF117
 1581 06ef 07       		.byte	0x7
 1582 06f0 1E01     		.2byte	0x11e
 1583 06f2 3A070000 		.4byte	0x73a
 1584 06f6 18       		.uleb128 0x18
ARM GAS  C:\Users\Luis\AppData\Local\Temp\ccUW6O2c.s 			page 29


 1585 06f7 F8060000 		.4byte	.LASF118
 1586 06fb 07       		.byte	0x7
 1587 06fc 2701     		.2byte	0x127
 1588 06fe 71070000 		.4byte	0x771
 1589 0702 18       		.uleb128 0x18
 1590 0703 5D060000 		.4byte	.LASF119
 1591 0707 07       		.byte	0x7
 1592 0708 2F01     		.2byte	0x12f
 1593 070a 15010000 		.4byte	0x115
 1594 070e 00       		.byte	0
 1595 070f 0A       		.uleb128 0xa
 1596 0710 04       		.byte	0x4
 1597 0711 5F020000 		.4byte	0x25f
 1598 0715 06       		.uleb128 0x6
 1599 0716 95060000 		.4byte	.LASF120
 1600 071a 0C       		.byte	0xc
 1601 071b 0D       		.byte	0xd
 1602 071c 34       		.byte	0x34
 1603 071d 3A070000 		.4byte	0x73a
 1604 0721 07       		.uleb128 0x7
 1605 0722 B9000000 		.4byte	.LASF121
 1606 0726 0D       		.byte	0xd
 1607 0727 35       		.byte	0x35
 1608 0728 94020000 		.4byte	0x294
 1609 072c 00       		.byte	0
 1610 072d 07       		.uleb128 0x7
 1611 072e A4030000 		.4byte	.LASF122
 1612 0732 0D       		.byte	0xd
 1613 0733 37       		.byte	0x37
 1614 0734 20010000 		.4byte	0x120
 1615 0738 08       		.byte	0x8
 1616 0739 00       		.byte	0
 1617 073a 0A       		.uleb128 0xa
 1618 073b 04       		.byte	0x4
 1619 073c 15070000 		.4byte	0x715
 1620 0740 06       		.uleb128 0x6
 1621 0741 0A090000 		.4byte	.LASF123
 1622 0745 10       		.byte	0x10
 1623 0746 0E       		.byte	0xe
 1624 0747 39       		.byte	0x39
 1625 0748 71070000 		.4byte	0x771
 1626 074c 07       		.uleb128 0x7
 1627 074d 7A010000 		.4byte	.LASF124
 1628 0751 0E       		.byte	0xe
 1629 0752 3A       		.byte	0x3a
 1630 0753 94020000 		.4byte	0x294
 1631 0757 00       		.byte	0
 1632 0758 07       		.uleb128 0x7
 1633 0759 D2080000 		.4byte	.LASF125
 1634 075d 0E       		.byte	0xe
 1635 075e 3C       		.byte	0x3c
 1636 075f 6A020000 		.4byte	0x26a
 1637 0763 08       		.byte	0x8
 1638 0764 07       		.uleb128 0x7
 1639 0765 68070000 		.4byte	.LASF126
 1640 0769 0E       		.byte	0xe
 1641 076a 3E       		.byte	0x3e
ARM GAS  C:\Users\Luis\AppData\Local\Temp\ccUW6O2c.s 			page 30


 1642 076b B5070000 		.4byte	0x7b5
 1643 076f 0C       		.byte	0xc
 1644 0770 00       		.byte	0
 1645 0771 0A       		.uleb128 0xa
 1646 0772 04       		.byte	0x4
 1647 0773 40070000 		.4byte	0x740
 1648 0777 0A       		.uleb128 0xa
 1649 0778 04       		.byte	0x4
 1650 0779 7D070000 		.4byte	0x77d
 1651 077d 19       		.uleb128 0x19
 1652 077e 82070000 		.4byte	0x782
 1653 0782 04       		.uleb128 0x4
 1654 0783 01       		.byte	0x1
 1655 0784 08       		.byte	0x8
 1656 0785 23070000 		.4byte	.LASF127
 1657 0789 0A       		.uleb128 0xa
 1658 078a 04       		.byte	0x4
 1659 078b C8040000 		.4byte	0x4c8
 1660 078f 0A       		.uleb128 0xa
 1661 0790 04       		.byte	0x4
 1662 0791 49030000 		.4byte	0x349
 1663 0795 05       		.uleb128 0x5
 1664 0796 77070000 		.4byte	0x777
 1665 079a 15       		.uleb128 0x15
 1666 079b C8040000 		.4byte	0x4c8
 1667 079f AA070000 		.4byte	0x7aa
 1668 07a3 16       		.uleb128 0x16
 1669 07a4 B6040000 		.4byte	0x4b6
 1670 07a8 1F       		.byte	0x1f
 1671 07a9 00       		.byte	0
 1672 07aa 03       		.uleb128 0x3
 1673 07ab F5020000 		.4byte	.LASF128
 1674 07af 0E       		.byte	0xe
 1675 07b0 34       		.byte	0x34
 1676 07b1 40070000 		.4byte	0x740
 1677 07b5 0A       		.uleb128 0xa
 1678 07b6 04       		.byte	0x4
 1679 07b7 AA070000 		.4byte	0x7aa
 1680 07bb 04       		.uleb128 0x4
 1681 07bc 01       		.byte	0x1
 1682 07bd 02       		.byte	0x2
 1683 07be F4050000 		.4byte	.LASF129
 1684 07c2 03       		.uleb128 0x3
 1685 07c3 47030000 		.4byte	.LASF130
 1686 07c7 0F       		.byte	0xf
 1687 07c8 38       		.byte	0x38
 1688 07c9 50000000 		.4byte	0x50
 1689 07cd 03       		.uleb128 0x3
 1690 07ce C5060000 		.4byte	.LASF131
 1691 07d2 0F       		.byte	0xf
 1692 07d3 39       		.byte	0x39
 1693 07d4 3E000000 		.4byte	0x3e
 1694 07d8 03       		.uleb128 0x3
 1695 07d9 A3080000 		.4byte	.LASF132
 1696 07dd 0F       		.byte	0xf
 1697 07de 3A       		.byte	0x3a
 1698 07df 74000000 		.4byte	0x74
ARM GAS  C:\Users\Luis\AppData\Local\Temp\ccUW6O2c.s 			page 31


 1699 07e3 03       		.uleb128 0x3
 1700 07e4 9B050000 		.4byte	.LASF133
 1701 07e8 0F       		.byte	0xf
 1702 07e9 3B       		.byte	0x3b
 1703 07ea 62000000 		.4byte	0x62
 1704 07ee 03       		.uleb128 0x3
 1705 07ef 7C030000 		.4byte	.LASF134
 1706 07f3 0F       		.byte	0xf
 1707 07f4 3C       		.byte	0x3c
 1708 07f5 98000000 		.4byte	0x98
 1709 07f9 1A       		.uleb128 0x1a
 1710 07fa 01       		.byte	0x1
 1711 07fb 12       		.byte	0x12
 1712 07fc 2B       		.byte	0x2b
 1713 07fd 5C080000 		.4byte	0x85c
 1714 0801 1B       		.uleb128 0x1b
 1715 0802 C8010000 		.4byte	.LASF135
 1716 0806 00       		.sleb128 0
 1717 0807 1B       		.uleb128 0x1b
 1718 0808 2D020000 		.4byte	.LASF136
 1719 080c 01       		.sleb128 1
 1720 080d 1B       		.uleb128 0x1b
 1721 080e 97030000 		.4byte	.LASF137
 1722 0812 02       		.sleb128 2
 1723 0813 1B       		.uleb128 0x1b
 1724 0814 38070000 		.4byte	.LASF138
 1725 0818 03       		.sleb128 3
 1726 0819 1B       		.uleb128 0x1b
 1727 081a E4000000 		.4byte	.LASF139
 1728 081e 04       		.sleb128 4
 1729 081f 1B       		.uleb128 0x1b
 1730 0820 20030000 		.4byte	.LASF140
 1731 0824 05       		.sleb128 5
 1732 0825 1B       		.uleb128 0x1b
 1733 0826 4A020000 		.4byte	.LASF141
 1734 082a 06       		.sleb128 6
 1735 082b 1B       		.uleb128 0x1b
 1736 082c 0E030000 		.4byte	.LASF142
 1737 0830 07       		.sleb128 7
 1738 0831 1B       		.uleb128 0x1b
 1739 0832 4C070000 		.4byte	.LASF143
 1740 0836 08       		.sleb128 8
 1741 0837 1B       		.uleb128 0x1b
 1742 0838 10070000 		.4byte	.LASF144
 1743 083c 09       		.sleb128 9
 1744 083d 1B       		.uleb128 0x1b
 1745 083e F9030000 		.4byte	.LASF145
 1746 0842 0A       		.sleb128 10
 1747 0843 1B       		.uleb128 0x1b
 1748 0844 DE060000 		.4byte	.LASF146
 1749 0848 0B       		.sleb128 11
 1750 0849 1B       		.uleb128 0x1b
 1751 084a 8A090000 		.4byte	.LASF147
 1752 084e 0C       		.sleb128 12
 1753 084f 1B       		.uleb128 0x1b
 1754 0850 CA000000 		.4byte	.LASF148
 1755 0854 0D       		.sleb128 13
ARM GAS  C:\Users\Luis\AppData\Local\Temp\ccUW6O2c.s 			page 32


 1756 0855 1B       		.uleb128 0x1b
 1757 0856 AE040000 		.4byte	.LASF149
 1758 085a 0E       		.sleb128 14
 1759 085b 00       		.byte	0
 1760 085c 06       		.uleb128 0x6
 1761 085d 3A050000 		.4byte	.LASF150
 1762 0861 04       		.byte	0x4
 1763 0862 10       		.byte	0x10
 1764 0863 2C       		.byte	0x2c
 1765 0864 75080000 		.4byte	0x875
 1766 0868 07       		.uleb128 0x7
 1767 0869 89010000 		.4byte	.LASF151
 1768 086d 10       		.byte	0x10
 1769 086e 2D       		.byte	0x2d
 1770 086f EE070000 		.4byte	0x7ee
 1771 0873 00       		.byte	0
 1772 0874 00       		.byte	0
 1773 0875 06       		.uleb128 0x6
 1774 0876 DE010000 		.4byte	.LASF152
 1775 087a 04       		.byte	0x4
 1776 087b 10       		.byte	0x10
 1777 087c 36       		.byte	0x36
 1778 087d 8E080000 		.4byte	0x88e
 1779 0881 07       		.uleb128 0x7
 1780 0882 89010000 		.4byte	.LASF151
 1781 0886 10       		.byte	0x10
 1782 0887 37       		.byte	0x37
 1783 0888 EE070000 		.4byte	0x7ee
 1784 088c 00       		.byte	0
 1785 088d 00       		.byte	0
 1786 088e 03       		.uleb128 0x3
 1787 088f B7040000 		.4byte	.LASF153
 1788 0893 10       		.byte	0x10
 1789 0894 40       		.byte	0x40
 1790 0895 5C080000 		.4byte	0x85c
 1791 0899 03       		.uleb128 0x3
 1792 089a 74060000 		.4byte	.LASF154
 1793 089e 10       		.byte	0x10
 1794 089f 41       		.byte	0x41
 1795 08a0 75080000 		.4byte	0x875
 1796 08a4 03       		.uleb128 0x3
 1797 08a5 C8040000 		.4byte	.LASF155
 1798 08a9 11       		.byte	0x11
 1799 08aa 2F       		.byte	0x2f
 1800 08ab CD070000 		.4byte	0x7cd
 1801 08af 1A       		.uleb128 0x1a
 1802 08b0 01       		.byte	0x1
 1803 08b1 13       		.byte	0x13
 1804 08b2 32       		.byte	0x32
 1805 08b3 D0080000 		.4byte	0x8d0
 1806 08b7 1B       		.uleb128 0x1b
 1807 08b8 45040000 		.4byte	.LASF156
 1808 08bc 00       		.sleb128 0
 1809 08bd 1B       		.uleb128 0x1b
 1810 08be B6010000 		.4byte	.LASF157
 1811 08c2 01       		.sleb128 1
 1812 08c3 1B       		.uleb128 0x1b
ARM GAS  C:\Users\Luis\AppData\Local\Temp\ccUW6O2c.s 			page 33


 1813 08c4 91050000 		.4byte	.LASF158
 1814 08c8 02       		.sleb128 2
 1815 08c9 1B       		.uleb128 0x1b
 1816 08ca CA060000 		.4byte	.LASF159
 1817 08ce 03       		.sleb128 3
 1818 08cf 00       		.byte	0
 1819 08d0 1A       		.uleb128 0x1a
 1820 08d1 01       		.byte	0x1
 1821 08d2 13       		.byte	0x13
 1822 08d3 39       		.byte	0x39
 1823 08d4 F1080000 		.4byte	0x8f1
 1824 08d8 1B       		.uleb128 0x1b
 1825 08d9 86060000 		.4byte	.LASF160
 1826 08dd 00       		.sleb128 0
 1827 08de 1B       		.uleb128 0x1b
 1828 08df 42050000 		.4byte	.LASF161
 1829 08e3 01       		.sleb128 1
 1830 08e4 1B       		.uleb128 0x1b
 1831 08e5 ED010000 		.4byte	.LASF162
 1832 08e9 02       		.sleb128 2
 1833 08ea 1B       		.uleb128 0x1b
 1834 08eb BE010000 		.4byte	.LASF163
 1835 08ef 03       		.sleb128 3
 1836 08f0 00       		.byte	0
 1837 08f1 06       		.uleb128 0x6
 1838 08f2 1C010000 		.4byte	.LASF164
 1839 08f6 10       		.byte	0x10
 1840 08f7 13       		.byte	0x13
 1841 08f8 4F       		.byte	0x4f
 1842 08f9 52090000 		.4byte	0x952
 1843 08fd 07       		.uleb128 0x7
 1844 08fe 21010000 		.4byte	.LASF165
 1845 0902 13       		.byte	0x13
 1846 0903 51       		.byte	0x51
 1847 0904 52090000 		.4byte	0x952
 1848 0908 00       		.byte	0
 1849 0909 07       		.uleb128 0x7
 1850 090a 0F050000 		.4byte	.LASF166
 1851 090e 13       		.byte	0x13
 1852 090f 54       		.byte	0x54
 1853 0910 47030000 		.4byte	0x347
 1854 0914 04       		.byte	0x4
 1855 0915 07       		.uleb128 0x7
 1856 0916 95010000 		.4byte	.LASF167
 1857 091a 13       		.byte	0x13
 1858 091b 5D       		.byte	0x5d
 1859 091c D8070000 		.4byte	0x7d8
 1860 0920 08       		.byte	0x8
 1861 0921 12       		.uleb128 0x12
 1862 0922 6C656E00 		.ascii	"len\000"
 1863 0926 13       		.byte	0x13
 1864 0927 60       		.byte	0x60
 1865 0928 D8070000 		.4byte	0x7d8
 1866 092c 0A       		.byte	0xa
 1867 092d 07       		.uleb128 0x7
 1868 092e 6C000000 		.4byte	.LASF168
 1869 0932 13       		.byte	0x13
ARM GAS  C:\Users\Luis\AppData\Local\Temp\ccUW6O2c.s 			page 34


 1870 0933 63       		.byte	0x63
 1871 0934 C2070000 		.4byte	0x7c2
 1872 0938 0C       		.byte	0xc
 1873 0939 07       		.uleb128 0x7
 1874 093a E8080000 		.4byte	.LASF169
 1875 093e 13       		.byte	0x13
 1876 093f 66       		.byte	0x66
 1877 0940 C2070000 		.4byte	0x7c2
 1878 0944 0D       		.byte	0xd
 1879 0945 12       		.uleb128 0x12
 1880 0946 72656600 		.ascii	"ref\000"
 1881 094a 13       		.byte	0x13
 1882 094b 6D       		.byte	0x6d
 1883 094c D8070000 		.4byte	0x7d8
 1884 0950 0E       		.byte	0xe
 1885 0951 00       		.byte	0
 1886 0952 0A       		.uleb128 0xa
 1887 0953 04       		.byte	0x4
 1888 0954 F1080000 		.4byte	0x8f1
 1889 0958 0A       		.uleb128 0xa
 1890 0959 04       		.byte	0x4
 1891 095a 5E090000 		.4byte	0x95e
 1892 095e 06       		.uleb128 0x6
 1893 095f 04050000 		.4byte	.LASF170
 1894 0963 30       		.byte	0x30
 1895 0964 14       		.byte	0x14
 1896 0965 88       		.byte	0x88
 1897 0966 120A0000 		.4byte	0xa12
 1898 096a 07       		.uleb128 0x7
 1899 096b 21010000 		.4byte	.LASF165
 1900 096f 14       		.byte	0x14
 1901 0970 8A       		.byte	0x8a
 1902 0971 58090000 		.4byte	0x958
 1903 0975 00       		.byte	0
 1904 0976 07       		.uleb128 0x7
 1905 0977 3A050000 		.4byte	.LASF150
 1906 097b 14       		.byte	0x14
 1907 097c 8D       		.byte	0x8d
 1908 097d 8E080000 		.4byte	0x88e
 1909 0981 04       		.byte	0x4
 1910 0982 07       		.uleb128 0x7
 1911 0983 42020000 		.4byte	.LASF171
 1912 0987 14       		.byte	0x14
 1913 0988 8E       		.byte	0x8e
 1914 0989 8E080000 		.4byte	0x88e
 1915 098d 08       		.byte	0x8
 1916 098e 12       		.uleb128 0x12
 1917 098f 677700   		.ascii	"gw\000"
 1918 0992 14       		.byte	0x14
 1919 0993 8F       		.byte	0x8f
 1920 0994 8E080000 		.4byte	0x88e
 1921 0998 0C       		.byte	0xc
 1922 0999 07       		.uleb128 0x7
 1923 099a A2060000 		.4byte	.LASF172
 1924 099e 14       		.byte	0x14
 1925 099f 93       		.byte	0x93
 1926 09a0 120A0000 		.4byte	0xa12
ARM GAS  C:\Users\Luis\AppData\Local\Temp\ccUW6O2c.s 			page 35


 1927 09a4 10       		.byte	0x10
 1928 09a5 07       		.uleb128 0x7
 1929 09a6 75030000 		.4byte	.LASF173
 1930 09aa 14       		.byte	0x14
 1931 09ab 97       		.byte	0x97
 1932 09ac 370A0000 		.4byte	0xa37
 1933 09b0 14       		.byte	0x14
 1934 09b1 07       		.uleb128 0x7
 1935 09b2 44090000 		.4byte	.LASF174
 1936 09b6 14       		.byte	0x14
 1937 09b7 9B       		.byte	0x9b
 1938 09b8 670A0000 		.4byte	0xa67
 1939 09bc 18       		.byte	0x18
 1940 09bd 07       		.uleb128 0x7
 1941 09be 9D010000 		.4byte	.LASF175
 1942 09c2 14       		.byte	0x14
 1943 09c3 AC       		.byte	0xac
 1944 09c4 47030000 		.4byte	0x347
 1945 09c8 1C       		.byte	0x1c
 1946 09c9 12       		.uleb128 0x12
 1947 09ca 6D747500 		.ascii	"mtu\000"
 1948 09ce 14       		.byte	0x14
 1949 09cf BA       		.byte	0xba
 1950 09d0 D8070000 		.4byte	0x7d8
 1951 09d4 20       		.byte	0x20
 1952 09d5 07       		.uleb128 0x7
 1953 09d6 12020000 		.4byte	.LASF176
 1954 09da 14       		.byte	0x14
 1955 09db BC       		.byte	0xbc
 1956 09dc C2070000 		.4byte	0x7c2
 1957 09e0 22       		.byte	0x22
 1958 09e1 07       		.uleb128 0x7
 1959 09e2 82010000 		.4byte	.LASF177
 1960 09e6 14       		.byte	0x14
 1961 09e7 BE       		.byte	0xbe
 1962 09e8 8C0A0000 		.4byte	0xa8c
 1963 09ec 23       		.byte	0x23
 1964 09ed 07       		.uleb128 0x7
 1965 09ee E8080000 		.4byte	.LASF169
 1966 09f2 14       		.byte	0x14
 1967 09f3 C0       		.byte	0xc0
 1968 09f4 C2070000 		.4byte	0x7c2
 1969 09f8 29       		.byte	0x29
 1970 09f9 07       		.uleb128 0x7
 1971 09fa AA030000 		.4byte	.LASF178
 1972 09fe 14       		.byte	0x14
 1973 09ff C2       		.byte	0xc2
 1974 0a00 9C0A0000 		.4byte	0xa9c
 1975 0a04 2A       		.byte	0x2a
 1976 0a05 12       		.uleb128 0x12
 1977 0a06 6E756D00 		.ascii	"num\000"
 1978 0a0a 14       		.byte	0x14
 1979 0a0b C4       		.byte	0xc4
 1980 0a0c C2070000 		.4byte	0x7c2
 1981 0a10 2C       		.byte	0x2c
 1982 0a11 00       		.byte	0
 1983 0a12 03       		.uleb128 0x3
ARM GAS  C:\Users\Luis\AppData\Local\Temp\ccUW6O2c.s 			page 36


 1984 0a13 82050000 		.4byte	.LASF179
 1985 0a17 14       		.byte	0x14
 1986 0a18 6D       		.byte	0x6d
 1987 0a19 1D0A0000 		.4byte	0xa1d
 1988 0a1d 0A       		.uleb128 0xa
 1989 0a1e 04       		.byte	0x4
 1990 0a1f 230A0000 		.4byte	0xa23
 1991 0a23 1C       		.uleb128 0x1c
 1992 0a24 A4080000 		.4byte	0x8a4
 1993 0a28 370A0000 		.4byte	0xa37
 1994 0a2c 0D       		.uleb128 0xd
 1995 0a2d 52090000 		.4byte	0x952
 1996 0a31 0D       		.uleb128 0xd
 1997 0a32 58090000 		.4byte	0x958
 1998 0a36 00       		.byte	0
 1999 0a37 03       		.uleb128 0x3
 2000 0a38 3E060000 		.4byte	.LASF180
 2001 0a3c 14       		.byte	0x14
 2002 0a3d 76       		.byte	0x76
 2003 0a3e 420A0000 		.4byte	0xa42
 2004 0a42 0A       		.uleb128 0xa
 2005 0a43 04       		.byte	0x4
 2006 0a44 480A0000 		.4byte	0xa48
 2007 0a48 1C       		.uleb128 0x1c
 2008 0a49 A4080000 		.4byte	0x8a4
 2009 0a4d 610A0000 		.4byte	0xa61
 2010 0a51 0D       		.uleb128 0xd
 2011 0a52 58090000 		.4byte	0x958
 2012 0a56 0D       		.uleb128 0xd
 2013 0a57 52090000 		.4byte	0x952
 2014 0a5b 0D       		.uleb128 0xd
 2015 0a5c 610A0000 		.4byte	0xa61
 2016 0a60 00       		.byte	0
 2017 0a61 0A       		.uleb128 0xa
 2018 0a62 04       		.byte	0x4
 2019 0a63 8E080000 		.4byte	0x88e
 2020 0a67 03       		.uleb128 0x3
 2021 0a68 59020000 		.4byte	.LASF181
 2022 0a6c 14       		.byte	0x14
 2023 0a6d 7E       		.byte	0x7e
 2024 0a6e 720A0000 		.4byte	0xa72
 2025 0a72 0A       		.uleb128 0xa
 2026 0a73 04       		.byte	0x4
 2027 0a74 780A0000 		.4byte	0xa78
 2028 0a78 1C       		.uleb128 0x1c
 2029 0a79 A4080000 		.4byte	0x8a4
 2030 0a7d 8C0A0000 		.4byte	0xa8c
 2031 0a81 0D       		.uleb128 0xd
 2032 0a82 58090000 		.4byte	0x958
 2033 0a86 0D       		.uleb128 0xd
 2034 0a87 52090000 		.4byte	0x952
 2035 0a8b 00       		.byte	0
 2036 0a8c 15       		.uleb128 0x15
 2037 0a8d C2070000 		.4byte	0x7c2
 2038 0a91 9C0A0000 		.4byte	0xa9c
 2039 0a95 16       		.uleb128 0x16
 2040 0a96 B6040000 		.4byte	0x4b6
ARM GAS  C:\Users\Luis\AppData\Local\Temp\ccUW6O2c.s 			page 37


 2041 0a9a 05       		.byte	0x5
 2042 0a9b 00       		.byte	0
 2043 0a9c 15       		.uleb128 0x15
 2044 0a9d 82070000 		.4byte	0x782
 2045 0aa1 AC0A0000 		.4byte	0xaac
 2046 0aa5 16       		.uleb128 0x16
 2047 0aa6 B6040000 		.4byte	0x4b6
 2048 0aaa 01       		.byte	0x1
 2049 0aab 00       		.byte	0
 2050 0aac 06       		.uleb128 0x6
 2051 0aad 1B060000 		.4byte	.LASF182
 2052 0ab1 14       		.byte	0x14
 2053 0ab2 15       		.byte	0x15
 2054 0ab3 74       		.byte	0x74
 2055 0ab4 310B0000 		.4byte	0xb31
 2056 0ab8 07       		.uleb128 0x7
 2057 0ab9 E2080000 		.4byte	.LASF183
 2058 0abd 15       		.byte	0x15
 2059 0abe 76       		.byte	0x76
 2060 0abf C2070000 		.4byte	0x7c2
 2061 0ac3 00       		.byte	0
 2062 0ac4 07       		.uleb128 0x7
 2063 0ac5 C0080000 		.4byte	.LASF184
 2064 0ac9 15       		.byte	0x15
 2065 0aca 78       		.byte	0x78
 2066 0acb C2070000 		.4byte	0x7c2
 2067 0acf 01       		.byte	0x1
 2068 0ad0 07       		.uleb128 0x7
 2069 0ad1 AE090000 		.4byte	.LASF185
 2070 0ad5 15       		.byte	0x15
 2071 0ad6 7A       		.byte	0x7a
 2072 0ad7 D8070000 		.4byte	0x7d8
 2073 0adb 02       		.byte	0x2
 2074 0adc 12       		.uleb128 0x12
 2075 0add 5F696400 		.ascii	"_id\000"
 2076 0ae1 15       		.byte	0x15
 2077 0ae2 7C       		.byte	0x7c
 2078 0ae3 D8070000 		.4byte	0x7d8
 2079 0ae7 04       		.byte	0x4
 2080 0ae8 07       		.uleb128 0x7
 2081 0ae9 30070000 		.4byte	.LASF186
 2082 0aed 15       		.byte	0x15
 2083 0aee 7E       		.byte	0x7e
 2084 0aef D8070000 		.4byte	0x7d8
 2085 0af3 06       		.byte	0x6
 2086 0af4 07       		.uleb128 0x7
 2087 0af5 0A050000 		.4byte	.LASF187
 2088 0af9 15       		.byte	0x15
 2089 0afa 84       		.byte	0x84
 2090 0afb C2070000 		.4byte	0x7c2
 2091 0aff 08       		.byte	0x8
 2092 0b00 07       		.uleb128 0x7
 2093 0b01 B4030000 		.4byte	.LASF188
 2094 0b05 15       		.byte	0x15
 2095 0b06 86       		.byte	0x86
 2096 0b07 C2070000 		.4byte	0x7c2
 2097 0b0b 09       		.byte	0x9
ARM GAS  C:\Users\Luis\AppData\Local\Temp\ccUW6O2c.s 			page 38


 2098 0b0c 07       		.uleb128 0x7
 2099 0b0d 8F030000 		.4byte	.LASF189
 2100 0b11 15       		.byte	0x15
 2101 0b12 88       		.byte	0x88
 2102 0b13 D8070000 		.4byte	0x7d8
 2103 0b17 0A       		.byte	0xa
 2104 0b18 12       		.uleb128 0x12
 2105 0b19 73726300 		.ascii	"src\000"
 2106 0b1d 15       		.byte	0x15
 2107 0b1e 8A       		.byte	0x8a
 2108 0b1f 99080000 		.4byte	0x899
 2109 0b23 0C       		.byte	0xc
 2110 0b24 07       		.uleb128 0x7
 2111 0b25 6B050000 		.4byte	.LASF190
 2112 0b29 15       		.byte	0x15
 2113 0b2a 8B       		.byte	0x8b
 2114 0b2b 99080000 		.4byte	0x899
 2115 0b2f 10       		.byte	0x10
 2116 0b30 00       		.byte	0
 2117 0b31 03       		.uleb128 0x3
 2118 0b32 B9060000 		.4byte	.LASF191
 2119 0b36 16       		.byte	0x16
 2120 0b37 3C       		.byte	0x3c
 2121 0b38 3C0B0000 		.4byte	0xb3c
 2122 0b3c 0A       		.uleb128 0xa
 2123 0b3d 04       		.byte	0x4
 2124 0b3e 420B0000 		.4byte	0xb42
 2125 0b42 1C       		.uleb128 0x1c
 2126 0b43 C2070000 		.4byte	0x7c2
 2127 0b47 600B0000 		.4byte	0xb60
 2128 0b4b 0D       		.uleb128 0xd
 2129 0b4c 47030000 		.4byte	0x347
 2130 0b50 0D       		.uleb128 0xd
 2131 0b51 600B0000 		.4byte	0xb60
 2132 0b55 0D       		.uleb128 0xd
 2133 0b56 52090000 		.4byte	0x952
 2134 0b5a 0D       		.uleb128 0xd
 2135 0b5b 610A0000 		.4byte	0xa61
 2136 0b5f 00       		.byte	0
 2137 0b60 0A       		.uleb128 0xa
 2138 0b61 04       		.byte	0x4
 2139 0b62 660B0000 		.4byte	0xb66
 2140 0b66 06       		.uleb128 0x6
 2141 0b67 07010000 		.4byte	.LASF192
 2142 0b6b 1C       		.byte	0x1c
 2143 0b6c 16       		.byte	0x16
 2144 0b6d 3F       		.byte	0x3f
 2145 0b6e DF0B0000 		.4byte	0xbdf
 2146 0b72 07       		.uleb128 0x7
 2147 0b73 6B060000 		.4byte	.LASF193
 2148 0b77 16       		.byte	0x16
 2149 0b78 41       		.byte	0x41
 2150 0b79 8E080000 		.4byte	0x88e
 2151 0b7d 00       		.byte	0
 2152 0b7e 07       		.uleb128 0x7
 2153 0b7f 75090000 		.4byte	.LASF194
 2154 0b83 16       		.byte	0x16
ARM GAS  C:\Users\Luis\AppData\Local\Temp\ccUW6O2c.s 			page 39


 2155 0b84 41       		.byte	0x41
 2156 0b85 8E080000 		.4byte	0x88e
 2157 0b89 04       		.byte	0x4
 2158 0b8a 07       		.uleb128 0x7
 2159 0b8b BF070000 		.4byte	.LASF195
 2160 0b8f 16       		.byte	0x16
 2161 0b90 41       		.byte	0x41
 2162 0b91 C2070000 		.4byte	0x7c2
 2163 0b95 08       		.byte	0x8
 2164 0b96 12       		.uleb128 0x12
 2165 0b97 746F7300 		.ascii	"tos\000"
 2166 0b9b 16       		.byte	0x16
 2167 0b9c 41       		.byte	0x41
 2168 0b9d C2070000 		.4byte	0x7c2
 2169 0ba1 09       		.byte	0x9
 2170 0ba2 12       		.uleb128 0x12
 2171 0ba3 74746C00 		.ascii	"ttl\000"
 2172 0ba7 16       		.byte	0x16
 2173 0ba8 41       		.byte	0x41
 2174 0ba9 C2070000 		.4byte	0x7c2
 2175 0bad 0A       		.byte	0xa
 2176 0bae 07       		.uleb128 0x7
 2177 0baf 21010000 		.4byte	.LASF165
 2178 0bb3 16       		.byte	0x16
 2179 0bb4 43       		.byte	0x43
 2180 0bb5 600B0000 		.4byte	0xb60
 2181 0bb9 0C       		.byte	0xc
 2182 0bba 07       		.uleb128 0x7
 2183 0bbb E2050000 		.4byte	.LASF196
 2184 0bbf 16       		.byte	0x16
 2185 0bc0 45       		.byte	0x45
 2186 0bc1 C2070000 		.4byte	0x7c2
 2187 0bc5 10       		.byte	0x10
 2188 0bc6 07       		.uleb128 0x7
 2189 0bc7 04020000 		.4byte	.LASF197
 2190 0bcb 16       		.byte	0x16
 2191 0bcc 48       		.byte	0x48
 2192 0bcd 310B0000 		.4byte	0xb31
 2193 0bd1 14       		.byte	0x14
 2194 0bd2 07       		.uleb128 0x7
 2195 0bd3 A1050000 		.4byte	.LASF198
 2196 0bd7 16       		.byte	0x16
 2197 0bd8 4A       		.byte	0x4a
 2198 0bd9 47030000 		.4byte	0x347
 2199 0bdd 18       		.byte	0x18
 2200 0bde 00       		.byte	0
 2201 0bdf 1D       		.uleb128 0x1d
 2202 0be0 98040000 		.4byte	.LASF222
 2203 0be4 01       		.byte	0x1
 2204 0be5 CC01     		.2byte	0x1cc
 2205 0be7 00000000 		.4byte	.LFB230
 2206 0beb 14000000 		.4byte	.LFE230-.LFB230
 2207 0bef 01       		.uleb128 0x1
 2208 0bf0 9C       		.byte	0x9c
 2209 0bf1 050C0000 		.4byte	0xc05
 2210 0bf5 1E       		.uleb128 0x1e
 2211 0bf6 14060000 		.4byte	.LASF199
ARM GAS  C:\Users\Luis\AppData\Local\Temp\ccUW6O2c.s 			page 40


 2212 0bfa 01       		.byte	0x1
 2213 0bfb CC01     		.2byte	0x1cc
 2214 0bfd 77070000 		.4byte	0x777
 2215 0c01 02       		.uleb128 0x2
 2216 0c02 91       		.byte	0x91
 2217 0c03 74       		.sleb128 -12
 2218 0c04 00       		.byte	0
 2219 0c05 1F       		.uleb128 0x1f
 2220 0c06 A4040000 		.4byte	.LASF204
 2221 0c0a 02       		.byte	0x2
 2222 0c0b 4C       		.byte	0x4c
 2223 0c0c C2070000 		.4byte	0x7c2
 2224 0c10 00000000 		.4byte	.LFB260
 2225 0c14 C0000000 		.4byte	.LFE260-.LFB260
 2226 0c18 01       		.uleb128 0x1
 2227 0c19 9C       		.byte	0x9c
 2228 0c1a 7F0C0000 		.4byte	0xc7f
 2229 0c1e 20       		.uleb128 0x20
 2230 0c1f 7000     		.ascii	"p\000"
 2231 0c21 02       		.byte	0x2
 2232 0c22 4C       		.byte	0x4c
 2233 0c23 52090000 		.4byte	0x952
 2234 0c27 02       		.uleb128 0x2
 2235 0c28 91       		.byte	0x91
 2236 0c29 54       		.sleb128 -44
 2237 0c2a 20       		.uleb128 0x20
 2238 0c2b 696E7000 		.ascii	"inp\000"
 2239 0c2f 02       		.byte	0x2
 2240 0c30 4C       		.byte	0x4c
 2241 0c31 58090000 		.4byte	0x958
 2242 0c35 02       		.uleb128 0x2
 2243 0c36 91       		.byte	0x91
 2244 0c37 50       		.sleb128 -48
 2245 0c38 21       		.uleb128 0x21
 2246 0c39 70636200 		.ascii	"pcb\000"
 2247 0c3d 02       		.byte	0x2
 2248 0c3e 4E       		.byte	0x4e
 2249 0c3f 600B0000 		.4byte	0xb60
 2250 0c43 02       		.uleb128 0x2
 2251 0c44 91       		.byte	0x91
 2252 0c45 6C       		.sleb128 -20
 2253 0c46 22       		.uleb128 0x22
 2254 0c47 54000000 		.4byte	.LASF200
 2255 0c4b 02       		.byte	0x2
 2256 0c4c 4E       		.byte	0x4e
 2257 0c4d 600B0000 		.4byte	0xb60
 2258 0c51 02       		.uleb128 0x2
 2259 0c52 91       		.byte	0x91
 2260 0c53 68       		.sleb128 -24
 2261 0c54 22       		.uleb128 0x22
 2262 0c55 80060000 		.4byte	.LASF201
 2263 0c59 02       		.byte	0x2
 2264 0c5a 4F       		.byte	0x4f
 2265 0c5b 7F0C0000 		.4byte	0xc7f
 2266 0c5f 02       		.uleb128 0x2
 2267 0c60 91       		.byte	0x91
 2268 0c61 60       		.sleb128 -32
ARM GAS  C:\Users\Luis\AppData\Local\Temp\ccUW6O2c.s 			page 41


 2269 0c62 22       		.uleb128 0x22
 2270 0c63 8F060000 		.4byte	.LASF202
 2271 0c67 02       		.byte	0x2
 2272 0c68 50       		.byte	0x50
 2273 0c69 E3070000 		.4byte	0x7e3
 2274 0c6d 02       		.uleb128 0x2
 2275 0c6e 91       		.byte	0x91
 2276 0c6f 5E       		.sleb128 -34
 2277 0c70 22       		.uleb128 0x22
 2278 0c71 62070000 		.4byte	.LASF203
 2279 0c75 02       		.byte	0x2
 2280 0c76 51       		.byte	0x51
 2281 0c77 C2070000 		.4byte	0x7c2
 2282 0c7b 02       		.uleb128 0x2
 2283 0c7c 91       		.byte	0x91
 2284 0c7d 67       		.sleb128 -25
 2285 0c7e 00       		.byte	0
 2286 0c7f 0A       		.uleb128 0xa
 2287 0c80 04       		.byte	0x4
 2288 0c81 AC0A0000 		.4byte	0xaac
 2289 0c85 23       		.uleb128 0x23
 2290 0c86 5A050000 		.4byte	.LASF205
 2291 0c8a 02       		.byte	0x2
 2292 0c8b 8E       		.byte	0x8e
 2293 0c8c A4080000 		.4byte	0x8a4
 2294 0c90 00000000 		.4byte	.LFB261
 2295 0c94 2C000000 		.4byte	.LFE261-.LFB261
 2296 0c98 01       		.uleb128 0x1
 2297 0c99 9C       		.byte	0x9c
 2298 0c9a BB0C0000 		.4byte	0xcbb
 2299 0c9e 20       		.uleb128 0x20
 2300 0c9f 70636200 		.ascii	"pcb\000"
 2301 0ca3 02       		.byte	0x2
 2302 0ca4 8E       		.byte	0x8e
 2303 0ca5 600B0000 		.4byte	0xb60
 2304 0ca9 02       		.uleb128 0x2
 2305 0caa 91       		.byte	0x91
 2306 0cab 74       		.sleb128 -12
 2307 0cac 24       		.uleb128 0x24
 2308 0cad C5080000 		.4byte	.LASF206
 2309 0cb1 02       		.byte	0x2
 2310 0cb2 8E       		.byte	0x8e
 2311 0cb3 610A0000 		.4byte	0xa61
 2312 0cb7 02       		.uleb128 0x2
 2313 0cb8 91       		.byte	0x91
 2314 0cb9 70       		.sleb128 -16
 2315 0cba 00       		.byte	0
 2316 0cbb 23       		.uleb128 0x23
 2317 0cbc 81040000 		.4byte	.LASF207
 2318 0cc0 02       		.byte	0x2
 2319 0cc1 A2       		.byte	0xa2
 2320 0cc2 A4080000 		.4byte	0x8a4
 2321 0cc6 00000000 		.4byte	.LFB262
 2322 0cca 2C000000 		.4byte	.LFE262-.LFB262
 2323 0cce 01       		.uleb128 0x1
 2324 0ccf 9C       		.byte	0x9c
 2325 0cd0 F10C0000 		.4byte	0xcf1
ARM GAS  C:\Users\Luis\AppData\Local\Temp\ccUW6O2c.s 			page 42


 2326 0cd4 20       		.uleb128 0x20
 2327 0cd5 70636200 		.ascii	"pcb\000"
 2328 0cd9 02       		.byte	0x2
 2329 0cda A2       		.byte	0xa2
 2330 0cdb 600B0000 		.4byte	0xb60
 2331 0cdf 02       		.uleb128 0x2
 2332 0ce0 91       		.byte	0x91
 2333 0ce1 74       		.sleb128 -12
 2334 0ce2 24       		.uleb128 0x24
 2335 0ce3 C5080000 		.4byte	.LASF206
 2336 0ce7 02       		.byte	0x2
 2337 0ce8 A2       		.byte	0xa2
 2338 0ce9 610A0000 		.4byte	0xa61
 2339 0ced 02       		.uleb128 0x2
 2340 0cee 91       		.byte	0x91
 2341 0cef 70       		.sleb128 -16
 2342 0cf0 00       		.byte	0
 2343 0cf1 25       		.uleb128 0x25
 2344 0cf2 E1020000 		.4byte	.LASF211
 2345 0cf6 02       		.byte	0x2
 2346 0cf7 B7       		.byte	0xb7
 2347 0cf8 00000000 		.4byte	.LFB263
 2348 0cfc 22000000 		.4byte	.LFE263-.LFB263
 2349 0d00 01       		.uleb128 0x1
 2350 0d01 9C       		.byte	0x9c
 2351 0d02 310D0000 		.4byte	0xd31
 2352 0d06 20       		.uleb128 0x20
 2353 0d07 70636200 		.ascii	"pcb\000"
 2354 0d0b 02       		.byte	0x2
 2355 0d0c B7       		.byte	0xb7
 2356 0d0d 600B0000 		.4byte	0xb60
 2357 0d11 02       		.uleb128 0x2
 2358 0d12 91       		.byte	0x91
 2359 0d13 74       		.sleb128 -12
 2360 0d14 24       		.uleb128 0x24
 2361 0d15 04020000 		.4byte	.LASF197
 2362 0d19 02       		.byte	0x2
 2363 0d1a B7       		.byte	0xb7
 2364 0d1b 310B0000 		.4byte	0xb31
 2365 0d1f 02       		.uleb128 0x2
 2366 0d20 91       		.byte	0x91
 2367 0d21 70       		.sleb128 -16
 2368 0d22 24       		.uleb128 0x24
 2369 0d23 A1050000 		.4byte	.LASF198
 2370 0d27 02       		.byte	0x2
 2371 0d28 B7       		.byte	0xb7
 2372 0d29 47030000 		.4byte	0x347
 2373 0d2d 02       		.uleb128 0x2
 2374 0d2e 91       		.byte	0x91
 2375 0d2f 6C       		.sleb128 -20
 2376 0d30 00       		.byte	0
 2377 0d31 1F       		.uleb128 0x1f
 2378 0d32 EA020000 		.4byte	.LASF208
 2379 0d36 02       		.byte	0x2
 2380 0d37 CB       		.byte	0xcb
 2381 0d38 A4080000 		.4byte	0x8a4
 2382 0d3c 00000000 		.4byte	.LFB264
ARM GAS  C:\Users\Luis\AppData\Local\Temp\ccUW6O2c.s 			page 43


 2383 0d40 DC000000 		.4byte	.LFE264-.LFB264
 2384 0d44 01       		.uleb128 0x1
 2385 0d45 9C       		.byte	0x9c
 2386 0d46 A90D0000 		.4byte	0xda9
 2387 0d4a 20       		.uleb128 0x20
 2388 0d4b 70636200 		.ascii	"pcb\000"
 2389 0d4f 02       		.byte	0x2
 2390 0d50 CB       		.byte	0xcb
 2391 0d51 600B0000 		.4byte	0xb60
 2392 0d55 02       		.uleb128 0x2
 2393 0d56 91       		.byte	0x91
 2394 0d57 64       		.sleb128 -28
 2395 0d58 20       		.uleb128 0x20
 2396 0d59 7000     		.ascii	"p\000"
 2397 0d5b 02       		.byte	0x2
 2398 0d5c CB       		.byte	0xcb
 2399 0d5d 52090000 		.4byte	0x952
 2400 0d61 02       		.uleb128 0x2
 2401 0d62 91       		.byte	0x91
 2402 0d63 60       		.sleb128 -32
 2403 0d64 24       		.uleb128 0x24
 2404 0d65 C5080000 		.4byte	.LASF206
 2405 0d69 02       		.byte	0x2
 2406 0d6a CB       		.byte	0xcb
 2407 0d6b 610A0000 		.4byte	0xa61
 2408 0d6f 02       		.uleb128 0x2
 2409 0d70 91       		.byte	0x91
 2410 0d71 5C       		.sleb128 -36
 2411 0d72 21       		.uleb128 0x21
 2412 0d73 65727200 		.ascii	"err\000"
 2413 0d77 02       		.byte	0x2
 2414 0d78 CD       		.byte	0xcd
 2415 0d79 A4080000 		.4byte	0x8a4
 2416 0d7d 02       		.uleb128 0x2
 2417 0d7e 91       		.byte	0x91
 2418 0d7f 6B       		.sleb128 -21
 2419 0d80 22       		.uleb128 0x22
 2420 0d81 04050000 		.4byte	.LASF170
 2421 0d85 02       		.byte	0x2
 2422 0d86 CE       		.byte	0xce
 2423 0d87 58090000 		.4byte	0x958
 2424 0d8b 02       		.uleb128 0x2
 2425 0d8c 91       		.byte	0x91
 2426 0d8d 6C       		.sleb128 -20
 2427 0d8e 22       		.uleb128 0x22
 2428 0d8f BC050000 		.4byte	.LASF209
 2429 0d93 02       		.byte	0x2
 2430 0d94 CF       		.byte	0xcf
 2431 0d95 610A0000 		.4byte	0xa61
 2432 0d99 02       		.uleb128 0x2
 2433 0d9a 91       		.byte	0x91
 2434 0d9b 74       		.sleb128 -12
 2435 0d9c 21       		.uleb128 0x21
 2436 0d9d 7100     		.ascii	"q\000"
 2437 0d9f 02       		.byte	0x2
 2438 0da0 D0       		.byte	0xd0
 2439 0da1 52090000 		.4byte	0x952
ARM GAS  C:\Users\Luis\AppData\Local\Temp\ccUW6O2c.s 			page 44


 2440 0da5 02       		.uleb128 0x2
 2441 0da6 91       		.byte	0x91
 2442 0da7 70       		.sleb128 -16
 2443 0da8 00       		.byte	0
 2444 0da9 26       		.uleb128 0x26
 2445 0daa 0E040000 		.4byte	.LASF210
 2446 0dae 02       		.byte	0x2
 2447 0daf 1E01     		.2byte	0x11e
 2448 0db1 A4080000 		.4byte	0x8a4
 2449 0db5 00000000 		.4byte	.LFB265
 2450 0db9 22000000 		.4byte	.LFE265-.LFB265
 2451 0dbd 01       		.uleb128 0x1
 2452 0dbe 9C       		.byte	0x9c
 2453 0dbf E00D0000 		.4byte	0xde0
 2454 0dc3 27       		.uleb128 0x27
 2455 0dc4 70636200 		.ascii	"pcb\000"
 2456 0dc8 02       		.byte	0x2
 2457 0dc9 1E01     		.2byte	0x11e
 2458 0dcb 600B0000 		.4byte	0xb60
 2459 0dcf 02       		.uleb128 0x2
 2460 0dd0 91       		.byte	0x91
 2461 0dd1 74       		.sleb128 -12
 2462 0dd2 27       		.uleb128 0x27
 2463 0dd3 7000     		.ascii	"p\000"
 2464 0dd5 02       		.byte	0x2
 2465 0dd6 1E01     		.2byte	0x11e
 2466 0dd8 52090000 		.4byte	0x952
 2467 0ddc 02       		.uleb128 0x2
 2468 0ddd 91       		.byte	0x91
 2469 0dde 70       		.sleb128 -16
 2470 0ddf 00       		.byte	0
 2471 0de0 28       		.uleb128 0x28
 2472 0de1 22020000 		.4byte	.LASF212
 2473 0de5 02       		.byte	0x2
 2474 0de6 2C01     		.2byte	0x12c
 2475 0de8 00000000 		.4byte	.LFB266
 2476 0dec 60000000 		.4byte	.LFE266-.LFB266
 2477 0df0 01       		.uleb128 0x1
 2478 0df1 9C       		.byte	0x9c
 2479 0df2 150E0000 		.4byte	0xe15
 2480 0df6 27       		.uleb128 0x27
 2481 0df7 70636200 		.ascii	"pcb\000"
 2482 0dfb 02       		.byte	0x2
 2483 0dfc 2C01     		.2byte	0x12c
 2484 0dfe 600B0000 		.4byte	0xb60
 2485 0e02 02       		.uleb128 0x2
 2486 0e03 91       		.byte	0x91
 2487 0e04 6C       		.sleb128 -20
 2488 0e05 29       		.uleb128 0x29
 2489 0e06 1D020000 		.4byte	.LASF213
 2490 0e0a 02       		.byte	0x2
 2491 0e0b 2E01     		.2byte	0x12e
 2492 0e0d 600B0000 		.4byte	0xb60
 2493 0e11 02       		.uleb128 0x2
 2494 0e12 91       		.byte	0x91
 2495 0e13 74       		.sleb128 -12
 2496 0e14 00       		.byte	0
ARM GAS  C:\Users\Luis\AppData\Local\Temp\ccUW6O2c.s 			page 45


 2497 0e15 26       		.uleb128 0x26
 2498 0e16 26050000 		.4byte	.LASF214
 2499 0e1a 02       		.byte	0x2
 2500 0e1b 4B01     		.2byte	0x14b
 2501 0e1d 600B0000 		.4byte	0xb60
 2502 0e21 00000000 		.4byte	.LFB267
 2503 0e25 4C000000 		.4byte	.LFE267-.LFB267
 2504 0e29 01       		.uleb128 0x1
 2505 0e2a 9C       		.byte	0x9c
 2506 0e2b 4E0E0000 		.4byte	0xe4e
 2507 0e2f 1E       		.uleb128 0x1e
 2508 0e30 8F060000 		.4byte	.LASF202
 2509 0e34 02       		.byte	0x2
 2510 0e35 4B01     		.2byte	0x14b
 2511 0e37 C2070000 		.4byte	0x7c2
 2512 0e3b 02       		.uleb128 0x2
 2513 0e3c 91       		.byte	0x91
 2514 0e3d 6F       		.sleb128 -17
 2515 0e3e 2A       		.uleb128 0x2a
 2516 0e3f 70636200 		.ascii	"pcb\000"
 2517 0e43 02       		.byte	0x2
 2518 0e44 4D01     		.2byte	0x14d
 2519 0e46 600B0000 		.4byte	0xb60
 2520 0e4a 02       		.uleb128 0x2
 2521 0e4b 91       		.byte	0x91
 2522 0e4c 74       		.sleb128 -12
 2523 0e4d 00       		.byte	0
 2524 0e4e 22       		.uleb128 0x22
 2525 0e4f 4B050000 		.4byte	.LASF215
 2526 0e53 02       		.byte	0x2
 2527 0e54 38       		.byte	0x38
 2528 0e55 600B0000 		.4byte	0xb60
 2529 0e59 05       		.uleb128 0x5
 2530 0e5a 03       		.byte	0x3
 2531 0e5b 00000000 		.4byte	raw_pcbs
 2532 0e5f 2B       		.uleb128 0x2b
 2533 0e60 0F010000 		.4byte	.LASF216
 2534 0e64 17       		.byte	0x17
 2535 0e65 A706     		.2byte	0x6a7
 2536 0e67 C3000000 		.4byte	0xc3
 2537 0e6b 2C       		.uleb128 0x2c
 2538 0e6c 636800   		.ascii	"ch\000"
 2539 0e6f 07       		.byte	0x7
 2540 0e70 0902     		.2byte	0x209
 2541 0e72 3E040000 		.4byte	0x43e
 2542 0e76 2D       		.uleb128 0x2d
 2543 0e77 DD030000 		.4byte	.LASF217
 2544 0e7b 15       		.byte	0x15
 2545 0e7c AA       		.byte	0xaa
 2546 0e7d 8E080000 		.4byte	0x88e
 2547 0e81 2D       		.uleb128 0x2d
 2548 0e82 2B000000 		.4byte	.LASF218
 2549 0e86 15       		.byte	0x15
 2550 0e87 AC       		.byte	0xac
 2551 0e88 8E080000 		.4byte	0x88e
 2552 0e8c 00       		.byte	0
 2553              		.section	.debug_abbrev,"",%progbits
ARM GAS  C:\Users\Luis\AppData\Local\Temp\ccUW6O2c.s 			page 46


 2554              	.Ldebug_abbrev0:
 2555 0000 01       		.uleb128 0x1
 2556 0001 11       		.uleb128 0x11
 2557 0002 01       		.byte	0x1
 2558 0003 25       		.uleb128 0x25
 2559 0004 0E       		.uleb128 0xe
 2560 0005 13       		.uleb128 0x13
 2561 0006 0B       		.uleb128 0xb
 2562 0007 03       		.uleb128 0x3
 2563 0008 0E       		.uleb128 0xe
 2564 0009 1B       		.uleb128 0x1b
 2565 000a 0E       		.uleb128 0xe
 2566 000b 55       		.uleb128 0x55
 2567 000c 17       		.uleb128 0x17
 2568 000d 11       		.uleb128 0x11
 2569 000e 01       		.uleb128 0x1
 2570 000f 10       		.uleb128 0x10
 2571 0010 17       		.uleb128 0x17
 2572 0011 00       		.byte	0
 2573 0012 00       		.byte	0
 2574 0013 02       		.uleb128 0x2
 2575 0014 24       		.uleb128 0x24
 2576 0015 00       		.byte	0
 2577 0016 0B       		.uleb128 0xb
 2578 0017 0B       		.uleb128 0xb
 2579 0018 3E       		.uleb128 0x3e
 2580 0019 0B       		.uleb128 0xb
 2581 001a 03       		.uleb128 0x3
 2582 001b 08       		.uleb128 0x8
 2583 001c 00       		.byte	0
 2584 001d 00       		.byte	0
 2585 001e 03       		.uleb128 0x3
 2586 001f 16       		.uleb128 0x16
 2587 0020 00       		.byte	0
 2588 0021 03       		.uleb128 0x3
 2589 0022 0E       		.uleb128 0xe
 2590 0023 3A       		.uleb128 0x3a
 2591 0024 0B       		.uleb128 0xb
 2592 0025 3B       		.uleb128 0x3b
 2593 0026 0B       		.uleb128 0xb
 2594 0027 49       		.uleb128 0x49
 2595 0028 13       		.uleb128 0x13
 2596 0029 00       		.byte	0
 2597 002a 00       		.byte	0
 2598 002b 04       		.uleb128 0x4
 2599 002c 24       		.uleb128 0x24
 2600 002d 00       		.byte	0
 2601 002e 0B       		.uleb128 0xb
 2602 002f 0B       		.uleb128 0xb
 2603 0030 3E       		.uleb128 0x3e
 2604 0031 0B       		.uleb128 0xb
 2605 0032 03       		.uleb128 0x3
 2606 0033 0E       		.uleb128 0xe
 2607 0034 00       		.byte	0
 2608 0035 00       		.byte	0
 2609 0036 05       		.uleb128 0x5
 2610 0037 35       		.uleb128 0x35
ARM GAS  C:\Users\Luis\AppData\Local\Temp\ccUW6O2c.s 			page 47


 2611 0038 00       		.byte	0
 2612 0039 49       		.uleb128 0x49
 2613 003a 13       		.uleb128 0x13
 2614 003b 00       		.byte	0
 2615 003c 00       		.byte	0
 2616 003d 06       		.uleb128 0x6
 2617 003e 13       		.uleb128 0x13
 2618 003f 01       		.byte	0x1
 2619 0040 03       		.uleb128 0x3
 2620 0041 0E       		.uleb128 0xe
 2621 0042 0B       		.uleb128 0xb
 2622 0043 0B       		.uleb128 0xb
 2623 0044 3A       		.uleb128 0x3a
 2624 0045 0B       		.uleb128 0xb
 2625 0046 3B       		.uleb128 0x3b
 2626 0047 0B       		.uleb128 0xb
 2627 0048 01       		.uleb128 0x1
 2628 0049 13       		.uleb128 0x13
 2629 004a 00       		.byte	0
 2630 004b 00       		.byte	0
 2631 004c 07       		.uleb128 0x7
 2632 004d 0D       		.uleb128 0xd
 2633 004e 00       		.byte	0
 2634 004f 03       		.uleb128 0x3
 2635 0050 0E       		.uleb128 0xe
 2636 0051 3A       		.uleb128 0x3a
 2637 0052 0B       		.uleb128 0xb
 2638 0053 3B       		.uleb128 0x3b
 2639 0054 0B       		.uleb128 0xb
 2640 0055 49       		.uleb128 0x49
 2641 0056 13       		.uleb128 0x13
 2642 0057 38       		.uleb128 0x38
 2643 0058 0B       		.uleb128 0xb
 2644 0059 00       		.byte	0
 2645 005a 00       		.byte	0
 2646 005b 08       		.uleb128 0x8
 2647 005c 0D       		.uleb128 0xd
 2648 005d 00       		.byte	0
 2649 005e 03       		.uleb128 0x3
 2650 005f 08       		.uleb128 0x8
 2651 0060 3A       		.uleb128 0x3a
 2652 0061 0B       		.uleb128 0xb
 2653 0062 3B       		.uleb128 0x3b
 2654 0063 05       		.uleb128 0x5
 2655 0064 49       		.uleb128 0x49
 2656 0065 13       		.uleb128 0x13
 2657 0066 38       		.uleb128 0x38
 2658 0067 0B       		.uleb128 0xb
 2659 0068 00       		.byte	0
 2660 0069 00       		.byte	0
 2661 006a 09       		.uleb128 0x9
 2662 006b 0D       		.uleb128 0xd
 2663 006c 00       		.byte	0
 2664 006d 03       		.uleb128 0x3
 2665 006e 0E       		.uleb128 0xe
 2666 006f 3A       		.uleb128 0x3a
 2667 0070 0B       		.uleb128 0xb
ARM GAS  C:\Users\Luis\AppData\Local\Temp\ccUW6O2c.s 			page 48


 2668 0071 3B       		.uleb128 0x3b
 2669 0072 05       		.uleb128 0x5
 2670 0073 49       		.uleb128 0x49
 2671 0074 13       		.uleb128 0x13
 2672 0075 38       		.uleb128 0x38
 2673 0076 0B       		.uleb128 0xb
 2674 0077 00       		.byte	0
 2675 0078 00       		.byte	0
 2676 0079 0A       		.uleb128 0xa
 2677 007a 0F       		.uleb128 0xf
 2678 007b 00       		.byte	0
 2679 007c 0B       		.uleb128 0xb
 2680 007d 0B       		.uleb128 0xb
 2681 007e 49       		.uleb128 0x49
 2682 007f 13       		.uleb128 0x13
 2683 0080 00       		.byte	0
 2684 0081 00       		.byte	0
 2685 0082 0B       		.uleb128 0xb
 2686 0083 13       		.uleb128 0x13
 2687 0084 01       		.byte	0x1
 2688 0085 03       		.uleb128 0x3
 2689 0086 0E       		.uleb128 0xe
 2690 0087 0B       		.uleb128 0xb
 2691 0088 0B       		.uleb128 0xb
 2692 0089 3A       		.uleb128 0x3a
 2693 008a 0B       		.uleb128 0xb
 2694 008b 3B       		.uleb128 0x3b
 2695 008c 05       		.uleb128 0x5
 2696 008d 01       		.uleb128 0x1
 2697 008e 13       		.uleb128 0x13
 2698 008f 00       		.byte	0
 2699 0090 00       		.byte	0
 2700 0091 0C       		.uleb128 0xc
 2701 0092 15       		.uleb128 0x15
 2702 0093 01       		.byte	0x1
 2703 0094 27       		.uleb128 0x27
 2704 0095 19       		.uleb128 0x19
 2705 0096 01       		.uleb128 0x1
 2706 0097 13       		.uleb128 0x13
 2707 0098 00       		.byte	0
 2708 0099 00       		.byte	0
 2709 009a 0D       		.uleb128 0xd
 2710 009b 05       		.uleb128 0x5
 2711 009c 00       		.byte	0
 2712 009d 49       		.uleb128 0x49
 2713 009e 13       		.uleb128 0x13
 2714 009f 00       		.byte	0
 2715 00a0 00       		.byte	0
 2716 00a1 0E       		.uleb128 0xe
 2717 00a2 0F       		.uleb128 0xf
 2718 00a3 00       		.byte	0
 2719 00a4 0B       		.uleb128 0xb
 2720 00a5 0B       		.uleb128 0xb
 2721 00a6 00       		.byte	0
 2722 00a7 00       		.byte	0
 2723 00a8 0F       		.uleb128 0xf
 2724 00a9 13       		.uleb128 0x13
ARM GAS  C:\Users\Luis\AppData\Local\Temp\ccUW6O2c.s 			page 49


 2725 00aa 01       		.byte	0x1
 2726 00ab 03       		.uleb128 0x3
 2727 00ac 0E       		.uleb128 0xe
 2728 00ad 0B       		.uleb128 0xb
 2729 00ae 05       		.uleb128 0x5
 2730 00af 3A       		.uleb128 0x3a
 2731 00b0 0B       		.uleb128 0xb
 2732 00b1 3B       		.uleb128 0x3b
 2733 00b2 05       		.uleb128 0x5
 2734 00b3 01       		.uleb128 0x1
 2735 00b4 13       		.uleb128 0x13
 2736 00b5 00       		.byte	0
 2737 00b6 00       		.byte	0
 2738 00b7 10       		.uleb128 0x10
 2739 00b8 0D       		.uleb128 0xd
 2740 00b9 00       		.byte	0
 2741 00ba 03       		.uleb128 0x3
 2742 00bb 0E       		.uleb128 0xe
 2743 00bc 3A       		.uleb128 0x3a
 2744 00bd 0B       		.uleb128 0xb
 2745 00be 3B       		.uleb128 0x3b
 2746 00bf 05       		.uleb128 0x5
 2747 00c0 49       		.uleb128 0x49
 2748 00c1 13       		.uleb128 0x13
 2749 00c2 38       		.uleb128 0x38
 2750 00c3 05       		.uleb128 0x5
 2751 00c4 00       		.byte	0
 2752 00c5 00       		.byte	0
 2753 00c6 11       		.uleb128 0x11
 2754 00c7 0D       		.uleb128 0xd
 2755 00c8 00       		.byte	0
 2756 00c9 03       		.uleb128 0x3
 2757 00ca 08       		.uleb128 0x8
 2758 00cb 3A       		.uleb128 0x3a
 2759 00cc 0B       		.uleb128 0xb
 2760 00cd 3B       		.uleb128 0x3b
 2761 00ce 05       		.uleb128 0x5
 2762 00cf 49       		.uleb128 0x49
 2763 00d0 13       		.uleb128 0x13
 2764 00d1 38       		.uleb128 0x38
 2765 00d2 05       		.uleb128 0x5
 2766 00d3 00       		.byte	0
 2767 00d4 00       		.byte	0
 2768 00d5 12       		.uleb128 0x12
 2769 00d6 0D       		.uleb128 0xd
 2770 00d7 00       		.byte	0
 2771 00d8 03       		.uleb128 0x3
 2772 00d9 08       		.uleb128 0x8
 2773 00da 3A       		.uleb128 0x3a
 2774 00db 0B       		.uleb128 0xb
 2775 00dc 3B       		.uleb128 0x3b
 2776 00dd 0B       		.uleb128 0xb
 2777 00de 49       		.uleb128 0x49
 2778 00df 13       		.uleb128 0x13
 2779 00e0 38       		.uleb128 0x38
 2780 00e1 0B       		.uleb128 0xb
 2781 00e2 00       		.byte	0
ARM GAS  C:\Users\Luis\AppData\Local\Temp\ccUW6O2c.s 			page 50


 2782 00e3 00       		.byte	0
 2783 00e4 13       		.uleb128 0x13
 2784 00e5 13       		.uleb128 0x13
 2785 00e6 01       		.byte	0x1
 2786 00e7 0B       		.uleb128 0xb
 2787 00e8 0B       		.uleb128 0xb
 2788 00e9 3A       		.uleb128 0x3a
 2789 00ea 0B       		.uleb128 0xb
 2790 00eb 3B       		.uleb128 0x3b
 2791 00ec 0B       		.uleb128 0xb
 2792 00ed 01       		.uleb128 0x1
 2793 00ee 13       		.uleb128 0x13
 2794 00ef 00       		.byte	0
 2795 00f0 00       		.byte	0
 2796 00f1 14       		.uleb128 0x14
 2797 00f2 13       		.uleb128 0x13
 2798 00f3 01       		.byte	0x1
 2799 00f4 0B       		.uleb128 0xb
 2800 00f5 05       		.uleb128 0x5
 2801 00f6 3A       		.uleb128 0x3a
 2802 00f7 0B       		.uleb128 0xb
 2803 00f8 3B       		.uleb128 0x3b
 2804 00f9 0B       		.uleb128 0xb
 2805 00fa 01       		.uleb128 0x1
 2806 00fb 13       		.uleb128 0x13
 2807 00fc 00       		.byte	0
 2808 00fd 00       		.byte	0
 2809 00fe 15       		.uleb128 0x15
 2810 00ff 01       		.uleb128 0x1
 2811 0100 01       		.byte	0x1
 2812 0101 49       		.uleb128 0x49
 2813 0102 13       		.uleb128 0x13
 2814 0103 01       		.uleb128 0x1
 2815 0104 13       		.uleb128 0x13
 2816 0105 00       		.byte	0
 2817 0106 00       		.byte	0
 2818 0107 16       		.uleb128 0x16
 2819 0108 21       		.uleb128 0x21
 2820 0109 00       		.byte	0
 2821 010a 49       		.uleb128 0x49
 2822 010b 13       		.uleb128 0x13
 2823 010c 2F       		.uleb128 0x2f
 2824 010d 0B       		.uleb128 0xb
 2825 010e 00       		.byte	0
 2826 010f 00       		.byte	0
 2827 0110 17       		.uleb128 0x17
 2828 0111 17       		.uleb128 0x17
 2829 0112 01       		.byte	0x1
 2830 0113 0B       		.uleb128 0xb
 2831 0114 0B       		.uleb128 0xb
 2832 0115 3A       		.uleb128 0x3a
 2833 0116 0B       		.uleb128 0xb
 2834 0117 3B       		.uleb128 0x3b
 2835 0118 0B       		.uleb128 0xb
 2836 0119 01       		.uleb128 0x1
 2837 011a 13       		.uleb128 0x13
 2838 011b 00       		.byte	0
ARM GAS  C:\Users\Luis\AppData\Local\Temp\ccUW6O2c.s 			page 51


 2839 011c 00       		.byte	0
 2840 011d 18       		.uleb128 0x18
 2841 011e 0D       		.uleb128 0xd
 2842 011f 00       		.byte	0
 2843 0120 03       		.uleb128 0x3
 2844 0121 0E       		.uleb128 0xe
 2845 0122 3A       		.uleb128 0x3a
 2846 0123 0B       		.uleb128 0xb
 2847 0124 3B       		.uleb128 0x3b
 2848 0125 05       		.uleb128 0x5
 2849 0126 49       		.uleb128 0x49
 2850 0127 13       		.uleb128 0x13
 2851 0128 00       		.byte	0
 2852 0129 00       		.byte	0
 2853 012a 19       		.uleb128 0x19
 2854 012b 26       		.uleb128 0x26
 2855 012c 00       		.byte	0
 2856 012d 49       		.uleb128 0x49
 2857 012e 13       		.uleb128 0x13
 2858 012f 00       		.byte	0
 2859 0130 00       		.byte	0
 2860 0131 1A       		.uleb128 0x1a
 2861 0132 04       		.uleb128 0x4
 2862 0133 01       		.byte	0x1
 2863 0134 0B       		.uleb128 0xb
 2864 0135 0B       		.uleb128 0xb
 2865 0136 3A       		.uleb128 0x3a
 2866 0137 0B       		.uleb128 0xb
 2867 0138 3B       		.uleb128 0x3b
 2868 0139 0B       		.uleb128 0xb
 2869 013a 01       		.uleb128 0x1
 2870 013b 13       		.uleb128 0x13
 2871 013c 00       		.byte	0
 2872 013d 00       		.byte	0
 2873 013e 1B       		.uleb128 0x1b
 2874 013f 28       		.uleb128 0x28
 2875 0140 00       		.byte	0
 2876 0141 03       		.uleb128 0x3
 2877 0142 0E       		.uleb128 0xe
 2878 0143 1C       		.uleb128 0x1c
 2879 0144 0D       		.uleb128 0xd
 2880 0145 00       		.byte	0
 2881 0146 00       		.byte	0
 2882 0147 1C       		.uleb128 0x1c
 2883 0148 15       		.uleb128 0x15
 2884 0149 01       		.byte	0x1
 2885 014a 27       		.uleb128 0x27
 2886 014b 19       		.uleb128 0x19
 2887 014c 49       		.uleb128 0x49
 2888 014d 13       		.uleb128 0x13
 2889 014e 01       		.uleb128 0x1
 2890 014f 13       		.uleb128 0x13
 2891 0150 00       		.byte	0
 2892 0151 00       		.byte	0
 2893 0152 1D       		.uleb128 0x1d
 2894 0153 2E       		.uleb128 0x2e
 2895 0154 01       		.byte	0x1
ARM GAS  C:\Users\Luis\AppData\Local\Temp\ccUW6O2c.s 			page 52


 2896 0155 03       		.uleb128 0x3
 2897 0156 0E       		.uleb128 0xe
 2898 0157 3A       		.uleb128 0x3a
 2899 0158 0B       		.uleb128 0xb
 2900 0159 3B       		.uleb128 0x3b
 2901 015a 05       		.uleb128 0x5
 2902 015b 27       		.uleb128 0x27
 2903 015c 19       		.uleb128 0x19
 2904 015d 11       		.uleb128 0x11
 2905 015e 01       		.uleb128 0x1
 2906 015f 12       		.uleb128 0x12
 2907 0160 06       		.uleb128 0x6
 2908 0161 40       		.uleb128 0x40
 2909 0162 18       		.uleb128 0x18
 2910 0163 9642     		.uleb128 0x2116
 2911 0165 19       		.uleb128 0x19
 2912 0166 01       		.uleb128 0x1
 2913 0167 13       		.uleb128 0x13
 2914 0168 00       		.byte	0
 2915 0169 00       		.byte	0
 2916 016a 1E       		.uleb128 0x1e
 2917 016b 05       		.uleb128 0x5
 2918 016c 00       		.byte	0
 2919 016d 03       		.uleb128 0x3
 2920 016e 0E       		.uleb128 0xe
 2921 016f 3A       		.uleb128 0x3a
 2922 0170 0B       		.uleb128 0xb
 2923 0171 3B       		.uleb128 0x3b
 2924 0172 05       		.uleb128 0x5
 2925 0173 49       		.uleb128 0x49
 2926 0174 13       		.uleb128 0x13
 2927 0175 02       		.uleb128 0x2
 2928 0176 18       		.uleb128 0x18
 2929 0177 00       		.byte	0
 2930 0178 00       		.byte	0
 2931 0179 1F       		.uleb128 0x1f
 2932 017a 2E       		.uleb128 0x2e
 2933 017b 01       		.byte	0x1
 2934 017c 3F       		.uleb128 0x3f
 2935 017d 19       		.uleb128 0x19
 2936 017e 03       		.uleb128 0x3
 2937 017f 0E       		.uleb128 0xe
 2938 0180 3A       		.uleb128 0x3a
 2939 0181 0B       		.uleb128 0xb
 2940 0182 3B       		.uleb128 0x3b
 2941 0183 0B       		.uleb128 0xb
 2942 0184 27       		.uleb128 0x27
 2943 0185 19       		.uleb128 0x19
 2944 0186 49       		.uleb128 0x49
 2945 0187 13       		.uleb128 0x13
 2946 0188 11       		.uleb128 0x11
 2947 0189 01       		.uleb128 0x1
 2948 018a 12       		.uleb128 0x12
 2949 018b 06       		.uleb128 0x6
 2950 018c 40       		.uleb128 0x40
 2951 018d 18       		.uleb128 0x18
 2952 018e 9642     		.uleb128 0x2116
ARM GAS  C:\Users\Luis\AppData\Local\Temp\ccUW6O2c.s 			page 53


 2953 0190 19       		.uleb128 0x19
 2954 0191 01       		.uleb128 0x1
 2955 0192 13       		.uleb128 0x13
 2956 0193 00       		.byte	0
 2957 0194 00       		.byte	0
 2958 0195 20       		.uleb128 0x20
 2959 0196 05       		.uleb128 0x5
 2960 0197 00       		.byte	0
 2961 0198 03       		.uleb128 0x3
 2962 0199 08       		.uleb128 0x8
 2963 019a 3A       		.uleb128 0x3a
 2964 019b 0B       		.uleb128 0xb
 2965 019c 3B       		.uleb128 0x3b
 2966 019d 0B       		.uleb128 0xb
 2967 019e 49       		.uleb128 0x49
 2968 019f 13       		.uleb128 0x13
 2969 01a0 02       		.uleb128 0x2
 2970 01a1 18       		.uleb128 0x18
 2971 01a2 00       		.byte	0
 2972 01a3 00       		.byte	0
 2973 01a4 21       		.uleb128 0x21
 2974 01a5 34       		.uleb128 0x34
 2975 01a6 00       		.byte	0
 2976 01a7 03       		.uleb128 0x3
 2977 01a8 08       		.uleb128 0x8
 2978 01a9 3A       		.uleb128 0x3a
 2979 01aa 0B       		.uleb128 0xb
 2980 01ab 3B       		.uleb128 0x3b
 2981 01ac 0B       		.uleb128 0xb
 2982 01ad 49       		.uleb128 0x49
 2983 01ae 13       		.uleb128 0x13
 2984 01af 02       		.uleb128 0x2
 2985 01b0 18       		.uleb128 0x18
 2986 01b1 00       		.byte	0
 2987 01b2 00       		.byte	0
 2988 01b3 22       		.uleb128 0x22
 2989 01b4 34       		.uleb128 0x34
 2990 01b5 00       		.byte	0
 2991 01b6 03       		.uleb128 0x3
 2992 01b7 0E       		.uleb128 0xe
 2993 01b8 3A       		.uleb128 0x3a
 2994 01b9 0B       		.uleb128 0xb
 2995 01ba 3B       		.uleb128 0x3b
 2996 01bb 0B       		.uleb128 0xb
 2997 01bc 49       		.uleb128 0x49
 2998 01bd 13       		.uleb128 0x13
 2999 01be 02       		.uleb128 0x2
 3000 01bf 18       		.uleb128 0x18
 3001 01c0 00       		.byte	0
 3002 01c1 00       		.byte	0
 3003 01c2 23       		.uleb128 0x23
 3004 01c3 2E       		.uleb128 0x2e
 3005 01c4 01       		.byte	0x1
 3006 01c5 3F       		.uleb128 0x3f
 3007 01c6 19       		.uleb128 0x19
 3008 01c7 03       		.uleb128 0x3
 3009 01c8 0E       		.uleb128 0xe
ARM GAS  C:\Users\Luis\AppData\Local\Temp\ccUW6O2c.s 			page 54


 3010 01c9 3A       		.uleb128 0x3a
 3011 01ca 0B       		.uleb128 0xb
 3012 01cb 3B       		.uleb128 0x3b
 3013 01cc 0B       		.uleb128 0xb
 3014 01cd 27       		.uleb128 0x27
 3015 01ce 19       		.uleb128 0x19
 3016 01cf 49       		.uleb128 0x49
 3017 01d0 13       		.uleb128 0x13
 3018 01d1 11       		.uleb128 0x11
 3019 01d2 01       		.uleb128 0x1
 3020 01d3 12       		.uleb128 0x12
 3021 01d4 06       		.uleb128 0x6
 3022 01d5 40       		.uleb128 0x40
 3023 01d6 18       		.uleb128 0x18
 3024 01d7 9742     		.uleb128 0x2117
 3025 01d9 19       		.uleb128 0x19
 3026 01da 01       		.uleb128 0x1
 3027 01db 13       		.uleb128 0x13
 3028 01dc 00       		.byte	0
 3029 01dd 00       		.byte	0
 3030 01de 24       		.uleb128 0x24
 3031 01df 05       		.uleb128 0x5
 3032 01e0 00       		.byte	0
 3033 01e1 03       		.uleb128 0x3
 3034 01e2 0E       		.uleb128 0xe
 3035 01e3 3A       		.uleb128 0x3a
 3036 01e4 0B       		.uleb128 0xb
 3037 01e5 3B       		.uleb128 0x3b
 3038 01e6 0B       		.uleb128 0xb
 3039 01e7 49       		.uleb128 0x49
 3040 01e8 13       		.uleb128 0x13
 3041 01e9 02       		.uleb128 0x2
 3042 01ea 18       		.uleb128 0x18
 3043 01eb 00       		.byte	0
 3044 01ec 00       		.byte	0
 3045 01ed 25       		.uleb128 0x25
 3046 01ee 2E       		.uleb128 0x2e
 3047 01ef 01       		.byte	0x1
 3048 01f0 3F       		.uleb128 0x3f
 3049 01f1 19       		.uleb128 0x19
 3050 01f2 03       		.uleb128 0x3
 3051 01f3 0E       		.uleb128 0xe
 3052 01f4 3A       		.uleb128 0x3a
 3053 01f5 0B       		.uleb128 0xb
 3054 01f6 3B       		.uleb128 0x3b
 3055 01f7 0B       		.uleb128 0xb
 3056 01f8 27       		.uleb128 0x27
 3057 01f9 19       		.uleb128 0x19
 3058 01fa 11       		.uleb128 0x11
 3059 01fb 01       		.uleb128 0x1
 3060 01fc 12       		.uleb128 0x12
 3061 01fd 06       		.uleb128 0x6
 3062 01fe 40       		.uleb128 0x40
 3063 01ff 18       		.uleb128 0x18
 3064 0200 9742     		.uleb128 0x2117
 3065 0202 19       		.uleb128 0x19
 3066 0203 01       		.uleb128 0x1
ARM GAS  C:\Users\Luis\AppData\Local\Temp\ccUW6O2c.s 			page 55


 3067 0204 13       		.uleb128 0x13
 3068 0205 00       		.byte	0
 3069 0206 00       		.byte	0
 3070 0207 26       		.uleb128 0x26
 3071 0208 2E       		.uleb128 0x2e
 3072 0209 01       		.byte	0x1
 3073 020a 3F       		.uleb128 0x3f
 3074 020b 19       		.uleb128 0x19
 3075 020c 03       		.uleb128 0x3
 3076 020d 0E       		.uleb128 0xe
 3077 020e 3A       		.uleb128 0x3a
 3078 020f 0B       		.uleb128 0xb
 3079 0210 3B       		.uleb128 0x3b
 3080 0211 05       		.uleb128 0x5
 3081 0212 27       		.uleb128 0x27
 3082 0213 19       		.uleb128 0x19
 3083 0214 49       		.uleb128 0x49
 3084 0215 13       		.uleb128 0x13
 3085 0216 11       		.uleb128 0x11
 3086 0217 01       		.uleb128 0x1
 3087 0218 12       		.uleb128 0x12
 3088 0219 06       		.uleb128 0x6
 3089 021a 40       		.uleb128 0x40
 3090 021b 18       		.uleb128 0x18
 3091 021c 9642     		.uleb128 0x2116
 3092 021e 19       		.uleb128 0x19
 3093 021f 01       		.uleb128 0x1
 3094 0220 13       		.uleb128 0x13
 3095 0221 00       		.byte	0
 3096 0222 00       		.byte	0
 3097 0223 27       		.uleb128 0x27
 3098 0224 05       		.uleb128 0x5
 3099 0225 00       		.byte	0
 3100 0226 03       		.uleb128 0x3
 3101 0227 08       		.uleb128 0x8
 3102 0228 3A       		.uleb128 0x3a
 3103 0229 0B       		.uleb128 0xb
 3104 022a 3B       		.uleb128 0x3b
 3105 022b 05       		.uleb128 0x5
 3106 022c 49       		.uleb128 0x49
 3107 022d 13       		.uleb128 0x13
 3108 022e 02       		.uleb128 0x2
 3109 022f 18       		.uleb128 0x18
 3110 0230 00       		.byte	0
 3111 0231 00       		.byte	0
 3112 0232 28       		.uleb128 0x28
 3113 0233 2E       		.uleb128 0x2e
 3114 0234 01       		.byte	0x1
 3115 0235 3F       		.uleb128 0x3f
 3116 0236 19       		.uleb128 0x19
 3117 0237 03       		.uleb128 0x3
 3118 0238 0E       		.uleb128 0xe
 3119 0239 3A       		.uleb128 0x3a
 3120 023a 0B       		.uleb128 0xb
 3121 023b 3B       		.uleb128 0x3b
 3122 023c 05       		.uleb128 0x5
 3123 023d 27       		.uleb128 0x27
ARM GAS  C:\Users\Luis\AppData\Local\Temp\ccUW6O2c.s 			page 56


 3124 023e 19       		.uleb128 0x19
 3125 023f 11       		.uleb128 0x11
 3126 0240 01       		.uleb128 0x1
 3127 0241 12       		.uleb128 0x12
 3128 0242 06       		.uleb128 0x6
 3129 0243 40       		.uleb128 0x40
 3130 0244 18       		.uleb128 0x18
 3131 0245 9642     		.uleb128 0x2116
 3132 0247 19       		.uleb128 0x19
 3133 0248 01       		.uleb128 0x1
 3134 0249 13       		.uleb128 0x13
 3135 024a 00       		.byte	0
 3136 024b 00       		.byte	0
 3137 024c 29       		.uleb128 0x29
 3138 024d 34       		.uleb128 0x34
 3139 024e 00       		.byte	0
 3140 024f 03       		.uleb128 0x3
 3141 0250 0E       		.uleb128 0xe
 3142 0251 3A       		.uleb128 0x3a
 3143 0252 0B       		.uleb128 0xb
 3144 0253 3B       		.uleb128 0x3b
 3145 0254 05       		.uleb128 0x5
 3146 0255 49       		.uleb128 0x49
 3147 0256 13       		.uleb128 0x13
 3148 0257 02       		.uleb128 0x2
 3149 0258 18       		.uleb128 0x18
 3150 0259 00       		.byte	0
 3151 025a 00       		.byte	0
 3152 025b 2A       		.uleb128 0x2a
 3153 025c 34       		.uleb128 0x34
 3154 025d 00       		.byte	0
 3155 025e 03       		.uleb128 0x3
 3156 025f 08       		.uleb128 0x8
 3157 0260 3A       		.uleb128 0x3a
 3158 0261 0B       		.uleb128 0xb
 3159 0262 3B       		.uleb128 0x3b
 3160 0263 05       		.uleb128 0x5
 3161 0264 49       		.uleb128 0x49
 3162 0265 13       		.uleb128 0x13
 3163 0266 02       		.uleb128 0x2
 3164 0267 18       		.uleb128 0x18
 3165 0268 00       		.byte	0
 3166 0269 00       		.byte	0
 3167 026a 2B       		.uleb128 0x2b
 3168 026b 34       		.uleb128 0x34
 3169 026c 00       		.byte	0
 3170 026d 03       		.uleb128 0x3
 3171 026e 0E       		.uleb128 0xe
 3172 026f 3A       		.uleb128 0x3a
 3173 0270 0B       		.uleb128 0xb
 3174 0271 3B       		.uleb128 0x3b
 3175 0272 05       		.uleb128 0x5
 3176 0273 49       		.uleb128 0x49
 3177 0274 13       		.uleb128 0x13
 3178 0275 3F       		.uleb128 0x3f
 3179 0276 19       		.uleb128 0x19
 3180 0277 3C       		.uleb128 0x3c
ARM GAS  C:\Users\Luis\AppData\Local\Temp\ccUW6O2c.s 			page 57


 3181 0278 19       		.uleb128 0x19
 3182 0279 00       		.byte	0
 3183 027a 00       		.byte	0
 3184 027b 2C       		.uleb128 0x2c
 3185 027c 34       		.uleb128 0x34
 3186 027d 00       		.byte	0
 3187 027e 03       		.uleb128 0x3
 3188 027f 08       		.uleb128 0x8
 3189 0280 3A       		.uleb128 0x3a
 3190 0281 0B       		.uleb128 0xb
 3191 0282 3B       		.uleb128 0x3b
 3192 0283 05       		.uleb128 0x5
 3193 0284 49       		.uleb128 0x49
 3194 0285 13       		.uleb128 0x13
 3195 0286 3F       		.uleb128 0x3f
 3196 0287 19       		.uleb128 0x19
 3197 0288 3C       		.uleb128 0x3c
 3198 0289 19       		.uleb128 0x19
 3199 028a 00       		.byte	0
 3200 028b 00       		.byte	0
 3201 028c 2D       		.uleb128 0x2d
 3202 028d 34       		.uleb128 0x34
 3203 028e 00       		.byte	0
 3204 028f 03       		.uleb128 0x3
 3205 0290 0E       		.uleb128 0xe
 3206 0291 3A       		.uleb128 0x3a
 3207 0292 0B       		.uleb128 0xb
 3208 0293 3B       		.uleb128 0x3b
 3209 0294 0B       		.uleb128 0xb
 3210 0295 49       		.uleb128 0x49
 3211 0296 13       		.uleb128 0x13
 3212 0297 3F       		.uleb128 0x3f
 3213 0298 19       		.uleb128 0x19
 3214 0299 3C       		.uleb128 0x3c
 3215 029a 19       		.uleb128 0x19
 3216 029b 00       		.byte	0
 3217 029c 00       		.byte	0
 3218 029d 00       		.byte	0
 3219              		.section	.debug_aranges,"",%progbits
 3220 0000 5C000000 		.4byte	0x5c
 3221 0004 0200     		.2byte	0x2
 3222 0006 00000000 		.4byte	.Ldebug_info0
 3223 000a 04       		.byte	0x4
 3224 000b 00       		.byte	0
 3225 000c 0000     		.2byte	0
 3226 000e 0000     		.2byte	0
 3227 0010 00000000 		.4byte	.LFB230
 3228 0014 14000000 		.4byte	.LFE230-.LFB230
 3229 0018 00000000 		.4byte	.LFB260
 3230 001c C0000000 		.4byte	.LFE260-.LFB260
 3231 0020 00000000 		.4byte	.LFB261
 3232 0024 2C000000 		.4byte	.LFE261-.LFB261
 3233 0028 00000000 		.4byte	.LFB262
 3234 002c 2C000000 		.4byte	.LFE262-.LFB262
 3235 0030 00000000 		.4byte	.LFB263
 3236 0034 22000000 		.4byte	.LFE263-.LFB263
 3237 0038 00000000 		.4byte	.LFB264
ARM GAS  C:\Users\Luis\AppData\Local\Temp\ccUW6O2c.s 			page 58


 3238 003c DC000000 		.4byte	.LFE264-.LFB264
 3239 0040 00000000 		.4byte	.LFB265
 3240 0044 22000000 		.4byte	.LFE265-.LFB265
 3241 0048 00000000 		.4byte	.LFB266
 3242 004c 60000000 		.4byte	.LFE266-.LFB266
 3243 0050 00000000 		.4byte	.LFB267
 3244 0054 4C000000 		.4byte	.LFE267-.LFB267
 3245 0058 00000000 		.4byte	0
 3246 005c 00000000 		.4byte	0
 3247              		.section	.debug_ranges,"",%progbits
 3248              	.Ldebug_ranges0:
 3249 0000 00000000 		.4byte	.LFB230
 3250 0004 14000000 		.4byte	.LFE230
 3251 0008 00000000 		.4byte	.LFB260
 3252 000c C0000000 		.4byte	.LFE260
 3253 0010 00000000 		.4byte	.LFB261
 3254 0014 2C000000 		.4byte	.LFE261
 3255 0018 00000000 		.4byte	.LFB262
 3256 001c 2C000000 		.4byte	.LFE262
 3257 0020 00000000 		.4byte	.LFB263
 3258 0024 22000000 		.4byte	.LFE263
 3259 0028 00000000 		.4byte	.LFB264
 3260 002c DC000000 		.4byte	.LFE264
 3261 0030 00000000 		.4byte	.LFB265
 3262 0034 22000000 		.4byte	.LFE265
 3263 0038 00000000 		.4byte	.LFB266
 3264 003c 60000000 		.4byte	.LFE266
 3265 0040 00000000 		.4byte	.LFB267
 3266 0044 4C000000 		.4byte	.LFE267
 3267 0048 00000000 		.4byte	0
 3268 004c 00000000 		.4byte	0
 3269              		.section	.debug_line,"",%progbits
 3270              	.Ldebug_line0:
 3271 0000 2A040000 		.section	.debug_str,"MS",%progbits,1
 3271      0200C402 
 3271      00000201 
 3271      FB0E0D00 
 3271      01010101 
 3272              	.LASF18:
 3273 0000 72747469 		.ascii	"rttime_t\000"
 3273      6D655F74 
 3273      00
 3274              	.LASF98:
 3275 0009 74625F70 		.ascii	"tb_ptr\000"
 3275      747200
 3276              	.LASF55:
 3277 0010 72656164 		.ascii	"ready_list_t\000"
 3277      795F6C69 
 3277      73745F74 
 3277      00
 3278              	.LASF1:
 3279 001d 73697A65 		.ascii	"size_t\000"
 3279      5F7400
 3280              	.LASF113:
 3281 0024 7264796D 		.ascii	"rdymsg\000"
 3281      736700
 3282              	.LASF218:
ARM GAS  C:\Users\Luis\AppData\Local\Temp\ccUW6O2c.s 			page 59


 3283 002b 63757272 		.ascii	"current_iphdr_dest\000"
 3283      656E745F 
 3283      69706864 
 3283      725F6465 
 3283      737400
 3284              	.LASF15:
 3285 003e 75696E74 		.ascii	"uint64_t\000"
 3285      36345F74 
 3285      00
 3286              	.LASF85:
 3287 0047 6B65726E 		.ascii	"kernel_stats\000"
 3287      656C5F73 
 3287      74617473 
 3287      00
 3288              	.LASF200:
 3289 0054 70726576 		.ascii	"prev\000"
 3289      00
 3290              	.LASF91:
 3291 0059 706F7274 		.ascii	"port_intctx\000"
 3291      5F696E74 
 3291      63747800 
 3292              	.LASF83:
 3293 0065 76746C69 		.ascii	"vtlist\000"
 3293      737400
 3294              	.LASF168:
 3295 006c 74797065 		.ascii	"type\000"
 3295      00
 3296              	.LASF86:
 3297 0071 69646C65 		.ascii	"idle_thread_wa\000"
 3297      5F746872 
 3297      6561645F 
 3297      776100
 3298              	.LASF104:
 3299 0080 776F7273 		.ascii	"worst\000"
 3299      7400
 3300              	.LASF107:
 3301 0086 74696D65 		.ascii	"time_measurement_t\000"
 3301      5F6D6561 
 3301      73757265 
 3301      6D656E74 
 3301      5F7400
 3302              	.LASF16:
 3303 0099 6C6F6E67 		.ascii	"long long unsigned int\000"
 3303      206C6F6E 
 3303      6720756E 
 3303      7369676E 
 3303      65642069 
 3304              	.LASF95:
 3305 00b0 73655F73 		.ascii	"se_state\000"
 3305      74617465 
 3305      00
 3306              	.LASF121:
 3307 00b9 735F7175 		.ascii	"s_queue\000"
 3307      65756500 
 3308              	.LASF114:
 3309 00c1 65786974 		.ascii	"exitcode\000"
 3309      636F6465 
ARM GAS  C:\Users\Luis\AppData\Local\Temp\ccUW6O2c.s 			page 60


 3309      00
 3310              	.LASF148:
 3311 00ca 4D454D50 		.ascii	"MEMP_PBUF_POOL\000"
 3311      5F504255 
 3311      465F504F 
 3311      4F4C00
 3312              	.LASF84:
 3313 00d9 6D61696E 		.ascii	"mainthread\000"
 3313      74687265 
 3313      616400
 3314              	.LASF139:
 3315 00e4 4D454D50 		.ascii	"MEMP_TCP_SEG\000"
 3315      5F544350 
 3315      5F534547 
 3315      00
 3316              	.LASF71:
 3317 00f1 76697274 		.ascii	"virtual_timers_list_t\000"
 3317      75616C5F 
 3317      74696D65 
 3317      72735F6C 
 3317      6973745F 
 3318              	.LASF192:
 3319 0107 7261775F 		.ascii	"raw_pcb\000"
 3319      70636200 
 3320              	.LASF216:
 3321 010f 49544D5F 		.ascii	"ITM_RxBuffer\000"
 3321      52784275 
 3321      66666572 
 3321      00
 3322              	.LASF164:
 3323 011c 70627566 		.ascii	"pbuf\000"
 3323      00
 3324              	.LASF165:
 3325 0121 6E657874 		.ascii	"next\000"
 3325      00
 3326              	.LASF54:
 3327 0126 63685F74 		.ascii	"ch_threads_queue\000"
 3327      68726561 
 3327      64735F71 
 3327      75657565 
 3327      00
 3328              	.LASF31:
 3329 0137 705F7072 		.ascii	"p_prio\000"
 3329      696F00
 3330              	.LASF6:
 3331 013e 696E7431 		.ascii	"int16_t\000"
 3331      365F7400 
 3332              	.LASF14:
 3333 0146 6C6F6E67 		.ascii	"long long int\000"
 3333      206C6F6E 
 3333      6720696E 
 3333      7400
 3334              	.LASF3:
 3335 0154 7369676E 		.ascii	"signed char\000"
 3335      65642063 
 3335      68617200 
 3336              	.LASF13:
ARM GAS  C:\Users\Luis\AppData\Local\Temp\ccUW6O2c.s 			page 61


 3337 0160 6C6F6E67 		.ascii	"long unsigned int\000"
 3337      20756E73 
 3337      69676E65 
 3337      6420696E 
 3337      7400
 3338              	.LASF46:
 3339 0172 705F6D70 		.ascii	"p_mpool\000"
 3339      6F6F6C00 
 3340              	.LASF124:
 3341 017a 6D5F7175 		.ascii	"m_queue\000"
 3341      65756500 
 3342              	.LASF177:
 3343 0182 68776164 		.ascii	"hwaddr\000"
 3343      647200
 3344              	.LASF151:
 3345 0189 61646472 		.ascii	"addr\000"
 3345      00
 3346              	.LASF115:
 3347 018e 77746F62 		.ascii	"wtobjp\000"
 3347      6A7000
 3348              	.LASF167:
 3349 0195 746F745F 		.ascii	"tot_len\000"
 3349      6C656E00 
 3350              	.LASF175:
 3351 019d 73746174 		.ascii	"state\000"
 3351      6500
 3352              	.LASF81:
 3353 01a3 63685F73 		.ascii	"ch_system\000"
 3353      79737465 
 3353      6D00
 3354              	.LASF11:
 3355 01ad 6C6F6E67 		.ascii	"long int\000"
 3355      20696E74 
 3355      00
 3356              	.LASF157:
 3357 01b6 50425546 		.ascii	"PBUF_IP\000"
 3357      5F495000 
 3358              	.LASF163:
 3359 01be 50425546 		.ascii	"PBUF_POOL\000"
 3359      5F504F4F 
 3359      4C00
 3360              	.LASF135:
 3361 01c8 4D454D50 		.ascii	"MEMP_RAW_PCB\000"
 3361      5F524157 
 3361      5F504342 
 3361      00
 3362              	.LASF20:
 3363 01d5 74737461 		.ascii	"tstate_t\000"
 3363      74655F74 
 3363      00
 3364              	.LASF152:
 3365 01de 69705F61 		.ascii	"ip_addr_packed\000"
 3365      6464725F 
 3365      7061636B 
 3365      656400
 3366              	.LASF162:
 3367 01ed 50425546 		.ascii	"PBUF_REF\000"
ARM GAS  C:\Users\Luis\AppData\Local\Temp\ccUW6O2c.s 			page 62


 3367      5F524546 
 3367      00
 3368              	.LASF47:
 3369 01f6 705F7374 		.ascii	"p_stats\000"
 3369      61747300 
 3370              	.LASF93:
 3371 01fe 73655F74 		.ascii	"se_tp\000"
 3371      7000
 3372              	.LASF197:
 3373 0204 72656376 		.ascii	"recv\000"
 3373      00
 3374              	.LASF8:
 3375 0209 75696E74 		.ascii	"uint16_t\000"
 3375      31365F74 
 3375      00
 3376              	.LASF176:
 3377 0212 68776164 		.ascii	"hwaddr_len\000"
 3377      64725F6C 
 3377      656E00
 3378              	.LASF213:
 3379 021d 70636232 		.ascii	"pcb2\000"
 3379      00
 3380              	.LASF212:
 3381 0222 7261775F 		.ascii	"raw_remove\000"
 3381      72656D6F 
 3381      766500
 3382              	.LASF136:
 3383 022d 4D454D50 		.ascii	"MEMP_UDP_PCB\000"
 3383      5F554450 
 3383      5F504342 
 3383      00
 3384              	.LASF33:
 3385 023a 705F6E65 		.ascii	"p_newer\000"
 3385      77657200 
 3386              	.LASF171:
 3387 0242 6E65746D 		.ascii	"netmask\000"
 3387      61736B00 
 3388              	.LASF141:
 3389 024a 4D454D50 		.ascii	"MEMP_FRAG_PBUF\000"
 3389      5F465241 
 3389      475F5042 
 3389      554600
 3390              	.LASF181:
 3391 0259 6E657469 		.ascii	"netif_linkoutput_fn\000"
 3391      665F6C69 
 3391      6E6B6F75 
 3391      74707574 
 3391      5F666E00 
 3392              	.LASF97:
 3393 026d 74625F73 		.ascii	"tb_size\000"
 3393      697A6500 
 3394              	.LASF60:
 3395 0275 725F6E65 		.ascii	"r_newer\000"
 3395      77657200 
 3396              	.LASF88:
 3397 027d 72656761 		.ascii	"regarm_t\000"
 3397      726D5F74 
ARM GAS  C:\Users\Luis\AppData\Local\Temp\ccUW6O2c.s 			page 63


 3397      00
 3398              	.LASF67:
 3399 0286 76745F70 		.ascii	"vt_prev\000"
 3399      72657600 
 3400              	.LASF221:
 3401 028e 433A5C55 		.ascii	"C:\\Users\\Luis\\git\\DSP-Library-Lanin\\examples\\"
 3401      73657273 
 3401      5C4C7569 
 3401      735C6769 
 3401      745C4453 
 3402 02bb 53544D33 		.ascii	"STM32F407_EMTECH-LWIP\000"
 3402      32463430 
 3402      375F454D 
 3402      54454348 
 3402      2D4C5749 
 3403              	.LASF75:
 3404 02d1 63685F73 		.ascii	"ch_system_debug\000"
 3404      79737465 
 3404      6D5F6465 
 3404      62756700 
 3405              	.LASF211:
 3406 02e1 7261775F 		.ascii	"raw_recv\000"
 3406      72656376 
 3406      00
 3407              	.LASF208:
 3408 02ea 7261775F 		.ascii	"raw_sendto\000"
 3408      73656E64 
 3408      746F00
 3409              	.LASF128:
 3410 02f5 6D757465 		.ascii	"mutex_t\000"
 3410      785F7400 
 3411              	.LASF78:
 3412 02fd 6C6F636B 		.ascii	"lock_cnt\000"
 3412      5F636E74 
 3412      00
 3413              	.LASF92:
 3414 0306 73655F74 		.ascii	"se_time\000"
 3414      696D6500 
 3415              	.LASF142:
 3416 030e 4D454D50 		.ascii	"MEMP_NETBUF\000"
 3416      5F4E4554 
 3416      42554600 
 3417              	.LASF25:
 3418 031a 636E745F 		.ascii	"cnt_t\000"
 3418      7400
 3419              	.LASF140:
 3420 0320 4D454D50 		.ascii	"MEMP_REASSDATA\000"
 3420      5F524541 
 3420      53534441 
 3420      544100
 3421              	.LASF36:
 3422 032f 705F7374 		.ascii	"p_stklimit\000"
 3422      6B6C696D 
 3422      697400
 3423              	.LASF0:
 3424 033a 756E7369 		.ascii	"unsigned int\000"
 3424      676E6564 
ARM GAS  C:\Users\Luis\AppData\Local\Temp\ccUW6O2c.s 			page 64


 3424      20696E74 
 3424      00
 3425              	.LASF130:
 3426 0347 75385F74 		.ascii	"u8_t\000"
 3426      00
 3427              	.LASF66:
 3428 034c 76745F6E 		.ascii	"vt_next\000"
 3428      65787400 
 3429              	.LASF41:
 3430 0354 705F6D73 		.ascii	"p_msgqueue\000"
 3430      67717565 
 3430      756500
 3431              	.LASF117:
 3432 035f 77747365 		.ascii	"wtsemp\000"
 3432      6D7000
 3433              	.LASF74:
 3434 0366 73797374 		.ascii	"system_debug_t\000"
 3434      656D5F64 
 3434      65627567 
 3434      5F7400
 3435              	.LASF173:
 3436 0375 6F757470 		.ascii	"output\000"
 3436      757400
 3437              	.LASF134:
 3438 037c 7533325F 		.ascii	"u32_t\000"
 3438      7400
 3439              	.LASF48:
 3440 0382 746C7350 		.ascii	"tlsPtr\000"
 3440      747200
 3441              	.LASF108:
 3442 0389 6E5F6972 		.ascii	"n_irq\000"
 3442      7100
 3443              	.LASF189:
 3444 038f 5F63686B 		.ascii	"_chksum\000"
 3444      73756D00 
 3445              	.LASF137:
 3446 0397 4D454D50 		.ascii	"MEMP_TCP_PCB\000"
 3446      5F544350 
 3446      5F504342 
 3446      00
 3447              	.LASF122:
 3448 03a4 735F636E 		.ascii	"s_cnt\000"
 3448      7400
 3449              	.LASF178:
 3450 03aa 6E616D65 		.ascii	"name\000"
 3450      00
 3451              	.LASF103:
 3452 03af 62657374 		.ascii	"best\000"
 3452      00
 3453              	.LASF188:
 3454 03b4 5F70726F 		.ascii	"_proto\000"
 3454      746F00
 3455              	.LASF9:
 3456 03bb 73686F72 		.ascii	"short unsigned int\000"
 3456      7420756E 
 3456      7369676E 
 3456      65642069 
ARM GAS  C:\Users\Luis\AppData\Local\Temp\ccUW6O2c.s 			page 65


 3456      6E7400
 3457              	.LASF112:
 3458 03ce 6B65726E 		.ascii	"kernel_stats_t\000"
 3458      656C5F73 
 3458      74617473 
 3458      5F7400
 3459              	.LASF217:
 3460 03dd 63757272 		.ascii	"current_iphdr_src\000"
 3460      656E745F 
 3460      69706864 
 3460      725F7372 
 3460      6300
 3461              	.LASF51:
 3462 03ef 63685F74 		.ascii	"ch_thread\000"
 3462      68726561 
 3462      6400
 3463              	.LASF145:
 3464 03f9 4D454D50 		.ascii	"MEMP_TCPIP_MSG_INPKT\000"
 3464      5F544350 
 3464      49505F4D 
 3464      53475F49 
 3464      4E504B54 
 3465              	.LASF210:
 3466 040e 7261775F 		.ascii	"raw_send\000"
 3466      73656E64 
 3466      00
 3467              	.LASF23:
 3468 0417 6D73675F 		.ascii	"msg_t\000"
 3468      7400
 3469              	.LASF105:
 3470 041d 6C617374 		.ascii	"last\000"
 3470      00
 3471              	.LASF52:
 3472 0422 63685F74 		.ascii	"ch_threads_list\000"
 3472      68726561 
 3472      64735F6C 
 3472      69737400 
 3473              	.LASF26:
 3474 0432 75636E74 		.ascii	"ucnt_t\000"
 3474      5F7400
 3475              	.LASF80:
 3476 0439 63685F73 		.ascii	"ch_system_t\000"
 3476      79737465 
 3476      6D5F7400 
 3477              	.LASF156:
 3478 0445 50425546 		.ascii	"PBUF_TRANSPORT\000"
 3478      5F545241 
 3478      4E53504F 
 3478      525400
 3479              	.LASF19:
 3480 0454 746D6F64 		.ascii	"tmode_t\000"
 3480      655F7400 
 3481              	.LASF111:
 3482 045c 6D5F6372 		.ascii	"m_crit_isr\000"
 3482      69745F69 
 3482      737200
 3483              	.LASF56:
ARM GAS  C:\Users\Luis\AppData\Local\Temp\ccUW6O2c.s 			page 66


 3484 0467 63685F72 		.ascii	"ch_ready_list\000"
 3484      65616479 
 3484      5F6C6973 
 3484      7400
 3485              	.LASF24:
 3486 0475 6576656E 		.ascii	"eventmask_t\000"
 3486      746D6173 
 3486      6B5F7400 
 3487              	.LASF207:
 3488 0481 7261775F 		.ascii	"raw_connect\000"
 3488      636F6E6E 
 3488      65637400 
 3489              	.LASF89:
 3490 048d 73746B61 		.ascii	"stkalign_t\000"
 3490      6C69676E 
 3490      5F7400
 3491              	.LASF222:
 3492 0498 6F73616C 		.ascii	"osalSysHalt\000"
 3492      53797348 
 3492      616C7400 
 3493              	.LASF204:
 3494 04a4 7261775F 		.ascii	"raw_input\000"
 3494      696E7075 
 3494      7400
 3495              	.LASF149:
 3496 04ae 4D454D50 		.ascii	"MEMP_MAX\000"
 3496      5F4D4158 
 3496      00
 3497              	.LASF153:
 3498 04b7 69705F61 		.ascii	"ip_addr_t\000"
 3498      6464725F 
 3498      7400
 3499              	.LASF2:
 3500 04c1 696E7438 		.ascii	"int8_t\000"
 3500      5F7400
 3501              	.LASF155:
 3502 04c8 6572725F 		.ascii	"err_t\000"
 3502      7400
 3503              	.LASF17:
 3504 04ce 7274636E 		.ascii	"rtcnt_t\000"
 3504      745F7400 
 3505              	.LASF102:
 3506 04d6 746D5F63 		.ascii	"tm_calibration_t\000"
 3506      616C6962 
 3506      72617469 
 3506      6F6E5F74 
 3506      00
 3507              	.LASF72:
 3508 04e7 63685F76 		.ascii	"ch_virtual_timers_list\000"
 3508      69727475 
 3508      616C5F74 
 3508      696D6572 
 3508      735F6C69 
 3509              	.LASF116:
 3510 04fe 77747472 		.ascii	"wttrp\000"
 3510      7000
 3511              	.LASF170:
ARM GAS  C:\Users\Luis\AppData\Local\Temp\ccUW6O2c.s 			page 67


 3512 0504 6E657469 		.ascii	"netif\000"
 3512      6600
 3513              	.LASF187:
 3514 050a 5F74746C 		.ascii	"_ttl\000"
 3514      00
 3515              	.LASF166:
 3516 050f 7061796C 		.ascii	"payload\000"
 3516      6F616400 
 3517              	.LASF96:
 3518 0517 63685F73 		.ascii	"ch_swc_event_t\000"
 3518      77635F65 
 3518      76656E74 
 3518      5F7400
 3519              	.LASF214:
 3520 0526 7261775F 		.ascii	"raw_new\000"
 3520      6E657700 
 3521              	.LASF73:
 3522 052e 76745F6C 		.ascii	"vt_lasttime\000"
 3522      61737474 
 3522      696D6500 
 3523              	.LASF150:
 3524 053a 69705F61 		.ascii	"ip_addr\000"
 3524      64647200 
 3525              	.LASF161:
 3526 0542 50425546 		.ascii	"PBUF_ROM\000"
 3526      5F524F4D 
 3526      00
 3527              	.LASF215:
 3528 054b 7261775F 		.ascii	"raw_pcbs\000"
 3528      70636273 
 3528      00
 3529              	.LASF59:
 3530 0554 725F6374 		.ascii	"r_ctx\000"
 3530      7800
 3531              	.LASF205:
 3532 055a 7261775F 		.ascii	"raw_bind\000"
 3532      62696E64 
 3532      00
 3533              	.LASF69:
 3534 0563 76745F66 		.ascii	"vt_func\000"
 3534      756E6300 
 3535              	.LASF190:
 3536 056b 64657374 		.ascii	"dest\000"
 3536      00
 3537              	.LASF62:
 3538 0570 725F6375 		.ascii	"r_current\000"
 3538      7272656E 
 3538      7400
 3539              	.LASF61:
 3540 057a 725F6F6C 		.ascii	"r_older\000"
 3540      64657200 
 3541              	.LASF179:
 3542 0582 6E657469 		.ascii	"netif_input_fn\000"
 3542      665F696E 
 3542      7075745F 
 3542      666E00
 3543              	.LASF158:
ARM GAS  C:\Users\Luis\AppData\Local\Temp\ccUW6O2c.s 			page 68


 3544 0591 50425546 		.ascii	"PBUF_LINK\000"
 3544      5F4C494E 
 3544      4B00
 3545              	.LASF133:
 3546 059b 7331365F 		.ascii	"s16_t\000"
 3546      7400
 3547              	.LASF198:
 3548 05a1 72656376 		.ascii	"recv_arg\000"
 3548      5F617267 
 3548      00
 3549              	.LASF21:
 3550 05aa 74726566 		.ascii	"trefs_t\000"
 3550      735F7400 
 3551              	.LASF99:
 3552 05b2 74625F62 		.ascii	"tb_buffer\000"
 3552      75666665 
 3552      7200
 3553              	.LASF209:
 3554 05bc 7372635F 		.ascii	"src_ip\000"
 3554      697000
 3555              	.LASF64:
 3556 05c3 76697274 		.ascii	"virtual_timer_t\000"
 3556      75616C5F 
 3556      74696D65 
 3556      725F7400 
 3557              	.LASF30:
 3558 05d3 705F7072 		.ascii	"p_prev\000"
 3558      657600
 3559              	.LASF22:
 3560 05da 74707269 		.ascii	"tprio_t\000"
 3560      6F5F7400 
 3561              	.LASF196:
 3562 05e2 70726F74 		.ascii	"protocol\000"
 3562      6F636F6C 
 3562      00
 3563              	.LASF109:
 3564 05eb 6E5F6374 		.ascii	"n_ctxswc\000"
 3564      78737763 
 3564      00
 3565              	.LASF129:
 3566 05f4 5F426F6F 		.ascii	"_Bool\000"
 3566      6C00
 3567              	.LASF10:
 3568 05fa 696E7433 		.ascii	"int32_t\000"
 3568      325F7400 
 3569              	.LASF100:
 3570 0602 63685F74 		.ascii	"ch_trace_buffer_t\000"
 3570      72616365 
 3570      5F627566 
 3570      6665725F 
 3570      7400
 3571              	.LASF199:
 3572 0614 72656173 		.ascii	"reason\000"
 3572      6F6E00
 3573              	.LASF182:
 3574 061b 69705F68 		.ascii	"ip_hdr\000"
 3574      647200
ARM GAS  C:\Users\Luis\AppData\Local\Temp\ccUW6O2c.s 			page 69


 3575              	.LASF44:
 3576 0622 705F6D74 		.ascii	"p_mtxlist\000"
 3576      786C6973 
 3576      7400
 3577              	.LASF7:
 3578 062c 73686F72 		.ascii	"short int\000"
 3578      7420696E 
 3578      7400
 3579              	.LASF37:
 3580 0636 705F7374 		.ascii	"p_state\000"
 3580      61746500 
 3581              	.LASF180:
 3582 063e 6E657469 		.ascii	"netif_output_fn\000"
 3582      665F6F75 
 3582      74707574 
 3582      5F666E00 
 3583              	.LASF34:
 3584 064e 705F6F6C 		.ascii	"p_older\000"
 3584      64657200 
 3585              	.LASF58:
 3586 0656 725F7072 		.ascii	"r_prio\000"
 3586      696F00
 3587              	.LASF119:
 3588 065d 65776D61 		.ascii	"ewmask\000"
 3588      736B00
 3589              	.LASF29:
 3590 0664 705F6E65 		.ascii	"p_next\000"
 3590      787400
 3591              	.LASF193:
 3592 066b 6C6F6361 		.ascii	"local_ip\000"
 3592      6C5F6970 
 3592      00
 3593              	.LASF154:
 3594 0674 69705F61 		.ascii	"ip_addr_p_t\000"
 3594      6464725F 
 3594      705F7400 
 3595              	.LASF201:
 3596 0680 69706864 		.ascii	"iphdr\000"
 3596      7200
 3597              	.LASF160:
 3598 0686 50425546 		.ascii	"PBUF_RAM\000"
 3598      5F52414D 
 3598      00
 3599              	.LASF202:
 3600 068f 70726F74 		.ascii	"proto\000"
 3600      6F00
 3601              	.LASF120:
 3602 0695 63685F73 		.ascii	"ch_semaphore\000"
 3602      656D6170 
 3602      686F7265 
 3602      00
 3603              	.LASF172:
 3604 06a2 696E7075 		.ascii	"input\000"
 3604      7400
 3605              	.LASF65:
 3606 06a8 63685F76 		.ascii	"ch_virtual_timer\000"
 3606      69727475 
ARM GAS  C:\Users\Luis\AppData\Local\Temp\ccUW6O2c.s 			page 70


 3606      616C5F74 
 3606      696D6572 
 3606      00
 3607              	.LASF191:
 3608 06b9 7261775F 		.ascii	"raw_recv_fn\000"
 3608      72656376 
 3608      5F666E00 
 3609              	.LASF131:
 3610 06c5 73385F74 		.ascii	"s8_t\000"
 3610      00
 3611              	.LASF159:
 3612 06ca 50425546 		.ascii	"PBUF_RAW\000"
 3612      5F524157 
 3612      00
 3613              	.LASF43:
 3614 06d3 705F6570 		.ascii	"p_epending\000"
 3614      656E6469 
 3614      6E6700
 3615              	.LASF146:
 3616 06de 4D454D50 		.ascii	"MEMP_SYS_TIMEOUT\000"
 3616      5F535953 
 3616      5F54494D 
 3616      454F5554 
 3616      00
 3617              	.LASF12:
 3618 06ef 75696E74 		.ascii	"uint32_t\000"
 3618      33325F74 
 3618      00
 3619              	.LASF118:
 3620 06f8 77746D74 		.ascii	"wtmtxp\000"
 3620      787000
 3621              	.LASF57:
 3622 06ff 725F7175 		.ascii	"r_queue\000"
 3622      65756500 
 3623              	.LASF68:
 3624 0707 76745F64 		.ascii	"vt_delta\000"
 3624      656C7461 
 3624      00
 3625              	.LASF144:
 3626 0710 4D454D50 		.ascii	"MEMP_TCPIP_MSG_API\000"
 3626      5F544350 
 3626      49505F4D 
 3626      53475F41 
 3626      504900
 3627              	.LASF127:
 3628 0723 63686172 		.ascii	"char\000"
 3628      00
 3629              	.LASF77:
 3630 0728 6973725F 		.ascii	"isr_cnt\000"
 3630      636E7400 
 3631              	.LASF186:
 3632 0730 5F6F6666 		.ascii	"_offset\000"
 3632      73657400 
 3633              	.LASF138:
 3634 0738 4D454D50 		.ascii	"MEMP_TCP_PCB_LISTEN\000"
 3634      5F544350 
 3634      5F504342 
ARM GAS  C:\Users\Luis\AppData\Local\Temp\ccUW6O2c.s 			page 71


 3634      5F4C4953 
 3634      54454E00 
 3635              	.LASF143:
 3636 074c 4D454D50 		.ascii	"MEMP_NETCONN\000"
 3636      5F4E4554 
 3636      434F4E4E 
 3636      00
 3637              	.LASF28:
 3638 0759 74687265 		.ascii	"thread_t\000"
 3638      61645F74 
 3638      00
 3639              	.LASF203:
 3640 0762 65617465 		.ascii	"eaten\000"
 3640      6E00
 3641              	.LASF126:
 3642 0768 6D5F6E65 		.ascii	"m_next\000"
 3642      787400
 3643              	.LASF27:
 3644 076f 73797374 		.ascii	"systime_t\000"
 3644      696D655F 
 3644      7400
 3645              	.LASF45:
 3646 0779 705F7265 		.ascii	"p_realprio\000"
 3646      616C7072 
 3646      696F00
 3647              	.LASF63:
 3648 0784 76746675 		.ascii	"vtfunc_t\000"
 3648      6E635F74 
 3648      00
 3649              	.LASF76:
 3650 078d 70616E69 		.ascii	"panic_msg\000"
 3650      635F6D73 
 3650      6700
 3651              	.LASF106:
 3652 0797 63756D75 		.ascii	"cumulative\000"
 3652      6C617469 
 3652      766500
 3653              	.LASF101:
 3654 07a2 6F666673 		.ascii	"offset\000"
 3654      657400
 3655              	.LASF90:
 3656 07a9 636F6E74 		.ascii	"context\000"
 3656      65787400 
 3657              	.LASF5:
 3658 07b1 756E7369 		.ascii	"unsigned char\000"
 3658      676E6564 
 3658      20636861 
 3658      7200
 3659              	.LASF195:
 3660 07bf 736F5F6F 		.ascii	"so_options\000"
 3660      7074696F 
 3660      6E7300
 3661              	.LASF219:
 3662 07ca 474E5520 		.ascii	"GNU C 4.8.3 20131129 (release) [ARM/embedded-4_8-br"
 3662      4320342E 
 3662      382E3320 
 3662      32303133 
ARM GAS  C:\Users\Luis\AppData\Local\Temp\ccUW6O2c.s 			page 72


 3662      31313239 
 3663 07fd 616E6368 		.ascii	"anch revision 205641] -mcpu=cortex-m4 -mapcs-frame "
 3663      20726576 
 3663      6973696F 
 3663      6E203230 
 3663      35363431 
 3664 0830 2D6D6E6F 		.ascii	"-mno-thumb-interwork -mthumb -ggdb -O0 -falign-func"
 3664      2D746875 
 3664      6D622D69 
 3664      6E746572 
 3664      776F726B 
 3665 0863 74696F6E 		.ascii	"tions=16 -ffunction-sections -fdata-sections -fno-c"
 3665      733D3136 
 3665      202D6666 
 3665      756E6374 
 3665      696F6E2D 
 3666 0896 6F6D6D6F 		.ascii	"ommon\000"
 3666      6E00
 3667              	.LASF70:
 3668 089c 76745F70 		.ascii	"vt_par\000"
 3668      617200
 3669              	.LASF132:
 3670 08a3 7531365F 		.ascii	"u16_t\000"
 3670      7400
 3671              	.LASF53:
 3672 08a9 74687265 		.ascii	"threads_queue_t\000"
 3672      6164735F 
 3672      71756575 
 3672      655F7400 
 3673              	.LASF39:
 3674 08b9 705F7265 		.ascii	"p_refs\000"
 3674      667300
 3675              	.LASF184:
 3676 08c0 5F746F73 		.ascii	"_tos\000"
 3676      00
 3677              	.LASF206:
 3678 08c5 69706164 		.ascii	"ipaddr\000"
 3678      647200
 3679              	.LASF82:
 3680 08cc 726C6973 		.ascii	"rlist\000"
 3680      7400
 3681              	.LASF125:
 3682 08d2 6D5F6F77 		.ascii	"m_owner\000"
 3682      6E657200 
 3683              	.LASF4:
 3684 08da 75696E74 		.ascii	"uint8_t\000"
 3684      385F7400 
 3685              	.LASF183:
 3686 08e2 5F765F68 		.ascii	"_v_hl\000"
 3686      6C00
 3687              	.LASF169:
 3688 08e8 666C6167 		.ascii	"flags\000"
 3688      7300
 3689              	.LASF87:
 3690 08ee 73697A65 		.ascii	"sizetype\000"
 3690      74797065 
 3690      00
ARM GAS  C:\Users\Luis\AppData\Local\Temp\ccUW6O2c.s 			page 73


 3691              	.LASF49:
 3692 08f7 74687265 		.ascii	"thread_reference_t\000"
 3692      61645F72 
 3692      65666572 
 3692      656E6365 
 3692      5F7400
 3693              	.LASF123:
 3694 090a 63685F6D 		.ascii	"ch_mutex\000"
 3694      75746578 
 3694      00
 3695              	.LASF35:
 3696 0913 705F6E61 		.ascii	"p_name\000"
 3696      6D6500
 3697              	.LASF50:
 3698 091a 74687265 		.ascii	"threads_list_t\000"
 3698      6164735F 
 3698      6C697374 
 3698      5F7400
 3699              	.LASF79:
 3700 0929 74726163 		.ascii	"trace_buffer\000"
 3700      655F6275 
 3700      66666572 
 3700      00
 3701              	.LASF38:
 3702 0936 705F666C 		.ascii	"p_flags\000"
 3702      61677300 
 3703              	.LASF42:
 3704 093e 705F6D73 		.ascii	"p_msg\000"
 3704      6700
 3705              	.LASF174:
 3706 0944 6C696E6B 		.ascii	"linkoutput\000"
 3706      6F757470 
 3706      757400
 3707              	.LASF220:
 3708 094f 2E2E2F2E 		.ascii	"../../ChibiOS/ext/lwip/src/core/raw.c\000"
 3708      2E2F4368 
 3708      6962694F 
 3708      532F6578 
 3708      742F6C77 
 3709              	.LASF194:
 3710 0975 72656D6F 		.ascii	"remote_ip\000"
 3710      74655F69 
 3710      7000
 3711              	.LASF110:
 3712 097f 6D5F6372 		.ascii	"m_crit_thd\000"
 3712      69745F74 
 3712      686400
 3713              	.LASF147:
 3714 098a 4D454D50 		.ascii	"MEMP_PBUF\000"
 3714      5F504255 
 3714      4600
 3715              	.LASF94:
 3716 0994 73655F77 		.ascii	"se_wtobjp\000"
 3716      746F626A 
 3716      7000
 3717              	.LASF32:
 3718 099e 705F6374 		.ascii	"p_ctx\000"
ARM GAS  C:\Users\Luis\AppData\Local\Temp\ccUW6O2c.s 			page 74


 3718      7800
 3719              	.LASF40:
 3720 09a4 705F7761 		.ascii	"p_waiting\000"
 3720      6974696E 
 3720      6700
 3721              	.LASF185:
 3722 09ae 5F6C656E 		.ascii	"_len\000"
 3722      00
 3723              		.ident	"GCC: (GNU Tools for ARM Embedded Processors) 4.8.3 20131129 (release) [ARM/embedded-4_8-br
ARM GAS  C:\Users\Luis\AppData\Local\Temp\ccUW6O2c.s 			page 75


DEFINED SYMBOLS
                            *ABS*:00000000 raw.c
C:\Users\Luis\AppData\Local\Temp\ccUW6O2c.s:19     .text.osalSysHalt:00000000 $t
C:\Users\Luis\AppData\Local\Temp\ccUW6O2c.s:24     .text.osalSysHalt:00000000 osalSysHalt
C:\Users\Luis\AppData\Local\Temp\ccUW6O2c.s:52     .bss.raw_pcbs:00000000 $d
C:\Users\Luis\AppData\Local\Temp\ccUW6O2c.s:55     .bss.raw_pcbs:00000000 raw_pcbs
C:\Users\Luis\AppData\Local\Temp\ccUW6O2c.s:58     .text.raw_input:00000000 $t
C:\Users\Luis\AppData\Local\Temp\ccUW6O2c.s:64     .text.raw_input:00000000 raw_input
C:\Users\Luis\AppData\Local\Temp\ccUW6O2c.s:200    .text.raw_input:000000b4 $d
C:\Users\Luis\AppData\Local\Temp\ccUW6O2c.s:207    .text.raw_bind:00000000 $t
C:\Users\Luis\AppData\Local\Temp\ccUW6O2c.s:213    .text.raw_bind:00000000 raw_bind
C:\Users\Luis\AppData\Local\Temp\ccUW6O2c.s:258    .text.raw_connect:00000000 $t
C:\Users\Luis\AppData\Local\Temp\ccUW6O2c.s:264    .text.raw_connect:00000000 raw_connect
C:\Users\Luis\AppData\Local\Temp\ccUW6O2c.s:309    .text.raw_recv:00000000 $t
C:\Users\Luis\AppData\Local\Temp\ccUW6O2c.s:315    .text.raw_recv:00000000 raw_recv
C:\Users\Luis\AppData\Local\Temp\ccUW6O2c.s:350    .rodata:00000000 $d
C:\Users\Luis\AppData\Local\Temp\ccUW6O2c.s:354    .text.raw_sendto:00000000 $t
C:\Users\Luis\AppData\Local\Temp\ccUW6O2c.s:360    .text.raw_sendto:00000000 raw_sendto
C:\Users\Luis\AppData\Local\Temp\ccUW6O2c.s:505    .text.raw_sendto:000000d8 $d
C:\Users\Luis\AppData\Local\Temp\ccUW6O2c.s:510    .text.raw_send:00000000 $t
C:\Users\Luis\AppData\Local\Temp\ccUW6O2c.s:516    .text.raw_send:00000000 raw_send
C:\Users\Luis\AppData\Local\Temp\ccUW6O2c.s:550    .text.raw_remove:00000000 $t
C:\Users\Luis\AppData\Local\Temp\ccUW6O2c.s:556    .text.raw_remove:00000000 raw_remove
C:\Users\Luis\AppData\Local\Temp\ccUW6O2c.s:630    .text.raw_remove:0000005c $d
C:\Users\Luis\AppData\Local\Temp\ccUW6O2c.s:635    .text.raw_new:00000000 $t
C:\Users\Luis\AppData\Local\Temp\ccUW6O2c.s:641    .text.raw_new:00000000 raw_new
C:\Users\Luis\AppData\Local\Temp\ccUW6O2c.s:699    .text.raw_new:00000048 $d
                     .debug_frame:00000010 $d
C:\Users\Luis\AppData\Local\Temp\ccUW6O2c.s:509    .text.raw_sendto:000000dc $t
C:\Users\Luis\AppData\Local\Temp\ccUW6O2c.s:703    .text.raw_new:0000004c $t

UNDEFINED SYMBOLS
chSysHalt
current_iphdr_dest
current_iphdr_src
pbuf_header
pbuf_alloc
pbuf_chain
ip_route
pbuf_free
ip_output_if
memp_free
memp_malloc
memset
