ARM GAS  C:\Users\Luis\AppData\Local\Temp\ccVAybnr.s 			page 1


   1              		.syntax unified
   2              		.cpu cortex-m4
   3              		.fpu softvfp
   4              		.eabi_attribute 20, 1
   5              		.eabi_attribute 21, 1
   6              		.eabi_attribute 23, 3
   7              		.eabi_attribute 24, 1
   8              		.eabi_attribute 25, 1
   9              		.eabi_attribute 26, 1
  10              		.eabi_attribute 30, 6
  11              		.eabi_attribute 34, 1
  12              		.eabi_attribute 18, 4
  13              		.thumb
  14              		.file	"st.c"
  15              		.text
  16              	.Ltext0:
  17              		.cfi_sections	.debug_frame
  18              		.section	.text.st_lld_start_alarm,"ax",%progbits
  19              		.align	2
  20              		.p2align 4,,15
  21              		.thumb
  22              		.thumb_func
  23              		.type	st_lld_start_alarm, %function
  24              	st_lld_start_alarm:
  25              	.LFB126:
  26              		.file 1 "../../ChibiOS/os/hal/ports/STM32/LLD/TIMv1/st_lld.h"
  27              		.loc 1 141 0
  28              		.cfi_startproc
  29              		@ args = 0, pretend = 0, frame = 8
  30              		@ frame_needed = 1, uses_anonymous_args = 0
  31              		@ link register save eliminated.
  32 0000 80B4     		push	{r7}
  33              		.cfi_def_cfa_offset 4
  34              		.cfi_offset 7, -4
  35 0002 83B0     		sub	sp, sp, #12
  36              		.cfi_def_cfa_offset 16
  37 0004 00AF     		add	r7, sp, #0
  38              		.cfi_def_cfa_register 7
  39 0006 7860     		str	r0, [r7, #4]
  40              		.loc 1 143 0
  41 0008 4FF08043 		mov	r3, #1073741824
  42 000c 7A68     		ldr	r2, [r7, #4]
  43 000e 5A63     		str	r2, [r3, #52]
  44              		.loc 1 144 0
  45 0010 4FF08043 		mov	r3, #1073741824
  46 0014 0022     		movs	r2, #0
  47 0016 1A61     		str	r2, [r3, #16]
  48              		.loc 1 145 0
  49 0018 4FF08043 		mov	r3, #1073741824
  50 001c 0222     		movs	r2, #2
  51 001e DA60     		str	r2, [r3, #12]
  52              		.loc 1 146 0
  53 0020 0C37     		adds	r7, r7, #12
  54 0022 BD46     		mov	sp, r7
  55              		@ sp needed
  56 0024 5DF8047B 		ldr	r7, [sp], #4
  57 0028 7047     		bx	lr
ARM GAS  C:\Users\Luis\AppData\Local\Temp\ccVAybnr.s 			page 2


  58              		.cfi_endproc
  59              	.LFE126:
  60              		.size	st_lld_start_alarm, .-st_lld_start_alarm
  61 002a 00BFAFF3 		.section	.text.st_lld_stop_alarm,"ax",%progbits
  61      0080
  62              		.align	2
  63              		.p2align 4,,15
  64              		.thumb
  65              		.thumb_func
  66              		.type	st_lld_stop_alarm, %function
  67              	st_lld_stop_alarm:
  68              	.LFB127:
  69              		.loc 1 153 0
  70              		.cfi_startproc
  71              		@ args = 0, pretend = 0, frame = 0
  72              		@ frame_needed = 1, uses_anonymous_args = 0
  73              		@ link register save eliminated.
  74 0000 80B4     		push	{r7}
  75              		.cfi_def_cfa_offset 4
  76              		.cfi_offset 7, -4
  77 0002 00AF     		add	r7, sp, #0
  78              		.cfi_def_cfa_register 7
  79              		.loc 1 155 0
  80 0004 4FF08043 		mov	r3, #1073741824
  81 0008 0022     		movs	r2, #0
  82 000a DA60     		str	r2, [r3, #12]
  83              		.loc 1 156 0
  84 000c BD46     		mov	sp, r7
  85              		@ sp needed
  86 000e 5DF8047B 		ldr	r7, [sp], #4
  87 0012 7047     		bx	lr
  88              		.cfi_endproc
  89              	.LFE127:
  90              		.size	st_lld_stop_alarm, .-st_lld_stop_alarm
  91 0014 AFF30080 		.section	.text.st_lld_set_alarm,"ax",%progbits
  91      AFF30080 
  91      AFF30080 
  92              		.align	2
  93              		.p2align 4,,15
  94              		.thumb
  95              		.thumb_func
  96              		.type	st_lld_set_alarm, %function
  97              	st_lld_set_alarm:
  98              	.LFB128:
  99              		.loc 1 165 0
 100              		.cfi_startproc
 101              		@ args = 0, pretend = 0, frame = 8
 102              		@ frame_needed = 1, uses_anonymous_args = 0
 103              		@ link register save eliminated.
 104 0000 80B4     		push	{r7}
 105              		.cfi_def_cfa_offset 4
 106              		.cfi_offset 7, -4
 107 0002 83B0     		sub	sp, sp, #12
 108              		.cfi_def_cfa_offset 16
 109 0004 00AF     		add	r7, sp, #0
 110              		.cfi_def_cfa_register 7
 111 0006 7860     		str	r0, [r7, #4]
ARM GAS  C:\Users\Luis\AppData\Local\Temp\ccVAybnr.s 			page 3


 112              		.loc 1 167 0
 113 0008 4FF08043 		mov	r3, #1073741824
 114 000c 7A68     		ldr	r2, [r7, #4]
 115 000e 5A63     		str	r2, [r3, #52]
 116              		.loc 1 168 0
 117 0010 0C37     		adds	r7, r7, #12
 118 0012 BD46     		mov	sp, r7
 119              		@ sp needed
 120 0014 5DF8047B 		ldr	r7, [sp], #4
 121 0018 7047     		bx	lr
 122              		.cfi_endproc
 123              	.LFE128:
 124              		.size	st_lld_set_alarm, .-st_lld_set_alarm
 125 001a 00BFAFF3 		.section	.text.st_lld_get_alarm,"ax",%progbits
 125      0080
 126              		.align	2
 127              		.p2align 4,,15
 128              		.thumb
 129              		.thumb_func
 130              		.type	st_lld_get_alarm, %function
 131              	st_lld_get_alarm:
 132              	.LFB129:
 133              		.loc 1 177 0
 134              		.cfi_startproc
 135              		@ args = 0, pretend = 0, frame = 0
 136              		@ frame_needed = 1, uses_anonymous_args = 0
 137              		@ link register save eliminated.
 138 0000 80B4     		push	{r7}
 139              		.cfi_def_cfa_offset 4
 140              		.cfi_offset 7, -4
 141 0002 00AF     		add	r7, sp, #0
 142              		.cfi_def_cfa_register 7
 143              		.loc 1 179 0
 144 0004 4FF08043 		mov	r3, #1073741824
 145 0008 5B6B     		ldr	r3, [r3, #52]
 146              		.loc 1 180 0
 147 000a 1846     		mov	r0, r3
 148 000c BD46     		mov	sp, r7
 149              		@ sp needed
 150 000e 5DF8047B 		ldr	r7, [sp], #4
 151 0012 7047     		bx	lr
 152              		.cfi_endproc
 153              	.LFE129:
 154              		.size	st_lld_get_alarm, .-st_lld_get_alarm
 155 0014 AFF30080 		.section	.text.st_lld_is_alarm_active,"ax",%progbits
 155      AFF30080 
 155      AFF30080 
 156              		.align	2
 157              		.p2align 4,,15
 158              		.thumb
 159              		.thumb_func
 160              		.type	st_lld_is_alarm_active, %function
 161              	st_lld_is_alarm_active:
 162              	.LFB130:
 163              		.loc 1 191 0
 164              		.cfi_startproc
 165              		@ args = 0, pretend = 0, frame = 0
ARM GAS  C:\Users\Luis\AppData\Local\Temp\ccVAybnr.s 			page 4


 166              		@ frame_needed = 1, uses_anonymous_args = 0
 167              		@ link register save eliminated.
 168 0000 80B4     		push	{r7}
 169              		.cfi_def_cfa_offset 4
 170              		.cfi_offset 7, -4
 171 0002 00AF     		add	r7, sp, #0
 172              		.cfi_def_cfa_register 7
 173              		.loc 1 193 0
 174 0004 4FF08043 		mov	r3, #1073741824
 175 0008 DB68     		ldr	r3, [r3, #12]
 176 000a 03F00203 		and	r3, r3, #2
 177 000e 002B     		cmp	r3, #0
 178 0010 0CBF     		ite	eq
 179 0012 0023     		moveq	r3, #0
 180 0014 0123     		movne	r3, #1
 181 0016 DBB2     		uxtb	r3, r3
 182              		.loc 1 194 0
 183 0018 1846     		mov	r0, r3
 184 001a BD46     		mov	sp, r7
 185              		@ sp needed
 186 001c 5DF8047B 		ldr	r7, [sp], #4
 187 0020 7047     		bx	lr
 188              		.cfi_endproc
 189              	.LFE130:
 190              		.size	st_lld_is_alarm_active, .-st_lld_is_alarm_active
 191 0022 00BFAFF3 		.section	.text.stInit,"ax",%progbits
 191      0080AFF3 
 191      0080AFF3 
 191      0080
 192              		.align	2
 193              		.p2align 4,,15
 194              		.global	stInit
 195              		.thumb
 196              		.thumb_func
 197              		.type	stInit, %function
 198              	stInit:
 199              	.LFB260:
 200              		.file 2 "../../ChibiOS/os/hal/src/st.c"
 201              		.loc 2 60 0
 202              		.cfi_startproc
 203              		@ args = 0, pretend = 0, frame = 0
 204              		@ frame_needed = 1, uses_anonymous_args = 0
 205 0000 80B5     		push	{r7, lr}
 206              		.cfi_def_cfa_offset 8
 207              		.cfi_offset 7, -8
 208              		.cfi_offset 14, -4
 209 0002 00AF     		add	r7, sp, #0
 210              		.cfi_def_cfa_register 7
 211              		.loc 2 62 0
 212 0004 FFF7FEFF 		bl	st_lld_init
 213              		.loc 2 63 0
 214 0008 80BD     		pop	{r7, pc}
 215              		.cfi_endproc
 216              	.LFE260:
 217              		.size	stInit, .-stInit
 218 000a 00BFAFF3 		.section	.text.stStartAlarm,"ax",%progbits
 218      0080
ARM GAS  C:\Users\Luis\AppData\Local\Temp\ccVAybnr.s 			page 5


 219              		.align	2
 220              		.p2align 4,,15
 221              		.global	stStartAlarm
 222              		.thumb
 223              		.thumb_func
 224              		.type	stStartAlarm, %function
 225              	stStartAlarm:
 226              	.LFB261:
 227              		.loc 2 77 0
 228              		.cfi_startproc
 229              		@ args = 0, pretend = 0, frame = 8
 230              		@ frame_needed = 1, uses_anonymous_args = 0
 231 0000 80B5     		push	{r7, lr}
 232              		.cfi_def_cfa_offset 8
 233              		.cfi_offset 7, -8
 234              		.cfi_offset 14, -4
 235 0002 82B0     		sub	sp, sp, #8
 236              		.cfi_def_cfa_offset 16
 237 0004 00AF     		add	r7, sp, #0
 238              		.cfi_def_cfa_register 7
 239 0006 7860     		str	r0, [r7, #4]
 240              		.loc 2 79 0
 241 0008 FFF7FEFF 		bl	st_lld_is_alarm_active
 242 000c 0346     		mov	r3, r0
 243 000e 002B     		cmp	r3, #0
 244 0010 02D0     		beq	.L10
 245              		.loc 2 79 0 is_stmt 0 discriminator 1
 246 0012 0448     		ldr	r0, .L11
 247 0014 FFF7FEFF 		bl	chSysHalt
 248              	.L10:
 249              		.loc 2 81 0 is_stmt 1
 250 0018 7868     		ldr	r0, [r7, #4]
 251 001a FFF7FEFF 		bl	st_lld_start_alarm
 252              		.loc 2 82 0
 253 001e 0837     		adds	r7, r7, #8
 254 0020 BD46     		mov	sp, r7
 255              		@ sp needed
 256 0022 80BD     		pop	{r7, pc}
 257              	.L12:
 258              		.align	2
 259              	.L11:
 260 0024 00000000 		.word	__func__.7909
 261              		.cfi_endproc
 262              	.LFE261:
 263              		.size	stStartAlarm, .-stStartAlarm
 264 0028 AFF30080 		.section	.text.stStopAlarm,"ax",%progbits
 264      AFF30080 
 265              		.align	2
 266              		.p2align 4,,15
 267              		.global	stStopAlarm
 268              		.thumb
 269              		.thumb_func
 270              		.type	stStopAlarm, %function
 271              	stStopAlarm:
 272              	.LFB262:
 273              		.loc 2 91 0
 274              		.cfi_startproc
ARM GAS  C:\Users\Luis\AppData\Local\Temp\ccVAybnr.s 			page 6


 275              		@ args = 0, pretend = 0, frame = 0
 276              		@ frame_needed = 1, uses_anonymous_args = 0
 277 0000 80B5     		push	{r7, lr}
 278              		.cfi_def_cfa_offset 8
 279              		.cfi_offset 7, -8
 280              		.cfi_offset 14, -4
 281 0002 00AF     		add	r7, sp, #0
 282              		.cfi_def_cfa_register 7
 283              		.loc 2 93 0
 284 0004 FFF7FEFF 		bl	st_lld_stop_alarm
 285              		.loc 2 94 0
 286 0008 80BD     		pop	{r7, pc}
 287              		.cfi_endproc
 288              	.LFE262:
 289              		.size	stStopAlarm, .-stStopAlarm
 290 000a 00BFAFF3 		.section	.text.stSetAlarm,"ax",%progbits
 290      0080
 291              		.align	2
 292              		.p2align 4,,15
 293              		.global	stSetAlarm
 294              		.thumb
 295              		.thumb_func
 296              		.type	stSetAlarm, %function
 297              	stSetAlarm:
 298              	.LFB263:
 299              		.loc 2 105 0
 300              		.cfi_startproc
 301              		@ args = 0, pretend = 0, frame = 8
 302              		@ frame_needed = 1, uses_anonymous_args = 0
 303 0000 80B5     		push	{r7, lr}
 304              		.cfi_def_cfa_offset 8
 305              		.cfi_offset 7, -8
 306              		.cfi_offset 14, -4
 307 0002 82B0     		sub	sp, sp, #8
 308              		.cfi_def_cfa_offset 16
 309 0004 00AF     		add	r7, sp, #0
 310              		.cfi_def_cfa_register 7
 311 0006 7860     		str	r0, [r7, #4]
 312              		.loc 2 107 0
 313 0008 FFF7FEFF 		bl	st_lld_is_alarm_active
 314 000c 0346     		mov	r3, r0
 315 000e 83F00103 		eor	r3, r3, #1
 316 0012 DBB2     		uxtb	r3, r3
 317 0014 002B     		cmp	r3, #0
 318 0016 02D0     		beq	.L15
 319              		.loc 2 107 0 is_stmt 0 discriminator 1
 320 0018 0448     		ldr	r0, .L16
 321 001a FFF7FEFF 		bl	chSysHalt
 322              	.L15:
 323              		.loc 2 109 0 is_stmt 1
 324 001e 7868     		ldr	r0, [r7, #4]
 325 0020 FFF7FEFF 		bl	st_lld_set_alarm
 326              		.loc 2 110 0
 327 0024 0837     		adds	r7, r7, #8
 328 0026 BD46     		mov	sp, r7
 329              		@ sp needed
 330 0028 80BD     		pop	{r7, pc}
ARM GAS  C:\Users\Luis\AppData\Local\Temp\ccVAybnr.s 			page 7


 331              	.L17:
 332 002a 00BF     		.align	2
 333              	.L16:
 334 002c 00000000 		.word	__func__.7916
 335              		.cfi_endproc
 336              	.LFE263:
 337              		.size	stSetAlarm, .-stSetAlarm
 338              		.section	.text.stGetAlarm,"ax",%progbits
 339              		.align	2
 340              		.p2align 4,,15
 341              		.global	stGetAlarm
 342              		.thumb
 343              		.thumb_func
 344              		.type	stGetAlarm, %function
 345              	stGetAlarm:
 346              	.LFB264:
 347              		.loc 2 121 0
 348              		.cfi_startproc
 349              		@ args = 0, pretend = 0, frame = 0
 350              		@ frame_needed = 1, uses_anonymous_args = 0
 351 0000 80B5     		push	{r7, lr}
 352              		.cfi_def_cfa_offset 8
 353              		.cfi_offset 7, -8
 354              		.cfi_offset 14, -4
 355 0002 00AF     		add	r7, sp, #0
 356              		.cfi_def_cfa_register 7
 357              		.loc 2 123 0
 358 0004 FFF7FEFF 		bl	st_lld_is_alarm_active
 359 0008 0346     		mov	r3, r0
 360 000a 83F00103 		eor	r3, r3, #1
 361 000e DBB2     		uxtb	r3, r3
 362 0010 002B     		cmp	r3, #0
 363 0012 02D0     		beq	.L19
 364              		.loc 2 123 0 is_stmt 0 discriminator 1
 365 0014 0348     		ldr	r0, .L21
 366 0016 FFF7FEFF 		bl	chSysHalt
 367              	.L19:
 368              		.loc 2 125 0 is_stmt 1
 369 001a FFF7FEFF 		bl	st_lld_get_alarm
 370 001e 0346     		mov	r3, r0
 371              		.loc 2 126 0
 372 0020 1846     		mov	r0, r3
 373 0022 80BD     		pop	{r7, pc}
 374              	.L22:
 375              		.align	2
 376              	.L21:
 377 0024 00000000 		.word	__func__.7920
 378              		.cfi_endproc
 379              	.LFE264:
 380              		.size	stGetAlarm, .-stGetAlarm
 381 0028 AFF30080 		.section	.rodata.__func__.7909,"a",%progbits
 381      AFF30080 
 382              		.align	2
 383              		.type	__func__.7909, %object
 384              		.size	__func__.7909, 13
 385              	__func__.7909:
 386 0000 73745374 		.ascii	"stStartAlarm\000"
ARM GAS  C:\Users\Luis\AppData\Local\Temp\ccVAybnr.s 			page 8


 386      61727441 
 386      6C61726D 
 386      00
 387 000d 000000   		.section	.rodata.__func__.7916,"a",%progbits
 388              		.align	2
 389              		.type	__func__.7916, %object
 390              		.size	__func__.7916, 11
 391              	__func__.7916:
 392 0000 73745365 		.ascii	"stSetAlarm\000"
 392      74416C61 
 392      726D00
 393 000b 00       		.section	.rodata.__func__.7920,"a",%progbits
 394              		.align	2
 395              		.type	__func__.7920, %object
 396              		.size	__func__.7920, 11
 397              	__func__.7920:
 398 0000 73744765 		.ascii	"stGetAlarm\000"
 398      74416C61 
 398      726D00
 399 000b 00       		.text
 400              	.Letext0:
 401              		.file 3 "c:\\emtechesdk\\gcc\\arm-none-eabi\\include\\stdint.h"
 402              		.file 4 "../../ChibiOS/os/rt/ports/ARMCMx/compilers/GCC/chtypes.h"
 403              		.file 5 "../../ChibiOS/os/rt/include/chsystypes.h"
 404              		.file 6 "../../ChibiOS/os/rt/include/chschd.h"
 405              		.file 7 "../../ChibiOS/os/rt/ports/ARMCMx/chcore.h"
 406              		.file 8 "../../ChibiOS/os/rt/ports/ARMCMx/chcore_v7m.h"
 407              		.file 9 "../../ChibiOS/os/hal/ports/STM32/LLD/TIMv1/stm32_tim.h"
 408              		.file 10 "../../ChibiOS/os/rt/include/chdebug.h"
 409              		.file 11 "../../ChibiOS/os/rt/include/chtm.h"
 410              		.file 12 "../../ChibiOS/os/rt/include/chstats.h"
 411              		.file 13 "../../ChibiOS/os/rt/include/chsem.h"
 412              		.file 14 "../../ChibiOS/os/rt/include/chmtx.h"
 413              		.file 15 "../../ChibiOS/os/ext/CMSIS/include/core_cm4.h"
 414              		.section	.debug_info,"",%progbits
 415              	.Ldebug_info0:
 416 0000 540A0000 		.4byte	0xa54
 417 0004 0400     		.2byte	0x4
 418 0006 00000000 		.4byte	.Ldebug_abbrev0
 419 000a 04       		.byte	0x4
 420 000b 01       		.uleb128 0x1
 421 000c F5040000 		.4byte	.LASF148
 422 0010 01       		.byte	0x1
 423 0011 0F060000 		.4byte	.LASF149
 424 0015 D4010000 		.4byte	.LASF150
 425 0019 00000000 		.4byte	.Ldebug_ranges0+0
 426 001d 00000000 		.4byte	0
 427 0021 00000000 		.4byte	.Ldebug_line0
 428 0025 02       		.uleb128 0x2
 429 0026 04       		.byte	0x4
 430 0027 05       		.byte	0x5
 431 0028 696E7400 		.ascii	"int\000"
 432 002c 03       		.uleb128 0x3
 433 002d 04       		.byte	0x4
 434 002e 07       		.byte	0x7
 435 002f 58020000 		.4byte	.LASF0
 436 0033 03       		.uleb128 0x3
ARM GAS  C:\Users\Luis\AppData\Local\Temp\ccVAybnr.s 			page 9


 437 0034 01       		.byte	0x1
 438 0035 06       		.byte	0x6
 439 0036 11010000 		.4byte	.LASF1
 440 003a 04       		.uleb128 0x4
 441 003b 44040000 		.4byte	.LASF5
 442 003f 03       		.byte	0x3
 443 0040 2A       		.byte	0x2a
 444 0041 45000000 		.4byte	0x45
 445 0045 03       		.uleb128 0x3
 446 0046 01       		.byte	0x1
 447 0047 08       		.byte	0x8
 448 0048 05040000 		.4byte	.LASF2
 449 004c 03       		.uleb128 0x3
 450 004d 02       		.byte	0x2
 451 004e 05       		.byte	0x5
 452 004f 1D040000 		.4byte	.LASF3
 453 0053 03       		.uleb128 0x3
 454 0054 02       		.byte	0x2
 455 0055 07       		.byte	0x7
 456 0056 81010000 		.4byte	.LASF4
 457 005a 04       		.uleb128 0x4
 458 005b FD030000 		.4byte	.LASF6
 459 005f 03       		.byte	0x3
 460 0060 4F       		.byte	0x4f
 461 0061 65000000 		.4byte	0x65
 462 0065 03       		.uleb128 0x3
 463 0066 04       		.byte	0x4
 464 0067 05       		.byte	0x5
 465 0068 3E010000 		.4byte	.LASF7
 466 006c 04       		.uleb128 0x4
 467 006d 9C040000 		.4byte	.LASF8
 468 0071 03       		.byte	0x3
 469 0072 50       		.byte	0x50
 470 0073 77000000 		.4byte	0x77
 471 0077 03       		.uleb128 0x3
 472 0078 04       		.byte	0x4
 473 0079 07       		.byte	0x7
 474 007a CD040000 		.4byte	.LASF9
 475 007e 03       		.uleb128 0x3
 476 007f 08       		.byte	0x8
 477 0080 05       		.byte	0x5
 478 0081 63010000 		.4byte	.LASF10
 479 0085 04       		.uleb128 0x4
 480 0086 26000000 		.4byte	.LASF11
 481 008a 03       		.byte	0x3
 482 008b 78       		.byte	0x78
 483 008c 90000000 		.4byte	0x90
 484 0090 03       		.uleb128 0x3
 485 0091 08       		.byte	0x8
 486 0092 07       		.byte	0x7
 487 0093 81000000 		.4byte	.LASF12
 488 0097 05       		.uleb128 0x5
 489 0098 5A000000 		.4byte	0x5a
 490 009c 05       		.uleb128 0x5
 491 009d 6C000000 		.4byte	0x6c
 492 00a1 04       		.uleb128 0x4
 493 00a2 3B060000 		.4byte	.LASF13
ARM GAS  C:\Users\Luis\AppData\Local\Temp\ccVAybnr.s 			page 10


 494 00a6 04       		.byte	0x4
 495 00a7 45       		.byte	0x45
 496 00a8 6C000000 		.4byte	0x6c
 497 00ac 04       		.uleb128 0x4
 498 00ad EF000000 		.4byte	.LASF14
 499 00b1 04       		.byte	0x4
 500 00b2 46       		.byte	0x46
 501 00b3 85000000 		.4byte	0x85
 502 00b7 04       		.uleb128 0x4
 503 00b8 47010000 		.4byte	.LASF15
 504 00bc 04       		.byte	0x4
 505 00bd 48       		.byte	0x48
 506 00be 3A000000 		.4byte	0x3a
 507 00c2 04       		.uleb128 0x4
 508 00c3 4F010000 		.4byte	.LASF16
 509 00c7 04       		.byte	0x4
 510 00c8 49       		.byte	0x49
 511 00c9 3A000000 		.4byte	0x3a
 512 00cd 04       		.uleb128 0x4
 513 00ce BD030000 		.4byte	.LASF17
 514 00d2 04       		.byte	0x4
 515 00d3 4A       		.byte	0x4a
 516 00d4 3A000000 		.4byte	0x3a
 517 00d8 04       		.uleb128 0x4
 518 00d9 E6030000 		.4byte	.LASF18
 519 00dd 04       		.byte	0x4
 520 00de 4C       		.byte	0x4c
 521 00df 6C000000 		.4byte	0x6c
 522 00e3 04       		.uleb128 0x4
 523 00e4 B0020000 		.4byte	.LASF19
 524 00e8 04       		.byte	0x4
 525 00e9 4D       		.byte	0x4d
 526 00ea 5A000000 		.4byte	0x5a
 527 00ee 04       		.uleb128 0x4
 528 00ef F3020000 		.4byte	.LASF20
 529 00f3 04       		.byte	0x4
 530 00f4 4F       		.byte	0x4f
 531 00f5 6C000000 		.4byte	0x6c
 532 00f9 04       		.uleb128 0x4
 533 00fa 47020000 		.4byte	.LASF21
 534 00fe 04       		.byte	0x4
 535 00ff 51       		.byte	0x51
 536 0100 5A000000 		.4byte	0x5a
 537 0104 04       		.uleb128 0x4
 538 0105 BB020000 		.4byte	.LASF22
 539 0109 04       		.byte	0x4
 540 010a 52       		.byte	0x52
 541 010b 6C000000 		.4byte	0x6c
 542 010f 04       		.uleb128 0x4
 543 0110 D3050000 		.4byte	.LASF23
 544 0114 05       		.byte	0x5
 545 0115 33       		.byte	0x33
 546 0116 6C000000 		.4byte	0x6c
 547 011a 04       		.uleb128 0x4
 548 011b 84060000 		.4byte	.LASF24
 549 011f 05       		.byte	0x5
 550 0120 3F       		.byte	0x3f
ARM GAS  C:\Users\Luis\AppData\Local\Temp\ccVAybnr.s 			page 11


 551 0121 25010000 		.4byte	0x125
 552 0125 06       		.uleb128 0x6
 553 0126 A6020000 		.4byte	.LASF47
 554 012a 68       		.byte	0x68
 555 012b 06       		.byte	0x6
 556 012c C2       		.byte	0xc2
 557 012d 38020000 		.4byte	0x238
 558 0131 07       		.uleb128 0x7
 559 0132 3D040000 		.4byte	.LASF25
 560 0136 06       		.byte	0x6
 561 0137 C3       		.byte	0xc3
 562 0138 43020000 		.4byte	0x243
 563 013c 00       		.byte	0
 564 013d 07       		.uleb128 0x7
 565 013e DF030000 		.4byte	.LASF26
 566 0142 06       		.byte	0x6
 567 0143 C5       		.byte	0xc5
 568 0144 43020000 		.4byte	0x243
 569 0148 04       		.byte	0x4
 570 0149 07       		.uleb128 0x7
 571 014a F8000000 		.4byte	.LASF27
 572 014e 06       		.byte	0x6
 573 014f C7       		.byte	0xc7
 574 0150 D8000000 		.4byte	0xd8
 575 0154 08       		.byte	0x8
 576 0155 07       		.uleb128 0x7
 577 0156 11070000 		.4byte	.LASF28
 578 015a 06       		.byte	0x6
 579 015b C8       		.byte	0xc8
 580 015c CC040000 		.4byte	0x4cc
 581 0160 0C       		.byte	0xc
 582 0161 07       		.uleb128 0x7
 583 0162 71010000 		.4byte	.LASF29
 584 0166 06       		.byte	0x6
 585 0167 CA       		.byte	0xca
 586 0168 43020000 		.4byte	0x243
 587 016c 10       		.byte	0x10
 588 016d 07       		.uleb128 0x7
 589 016e 75030000 		.4byte	.LASF30
 590 0172 06       		.byte	0x6
 591 0173 CB       		.byte	0xcb
 592 0174 43020000 		.4byte	0x243
 593 0178 14       		.byte	0x14
 594 0179 07       		.uleb128 0x7
 595 017a B0060000 		.4byte	.LASF31
 596 017e 06       		.byte	0x6
 597 017f D2       		.byte	0xd2
 598 0180 92080000 		.4byte	0x892
 599 0184 18       		.byte	0x18
 600 0185 07       		.uleb128 0x7
 601 0186 4D020000 		.4byte	.LASF32
 602 018a 06       		.byte	0x6
 603 018b D8       		.byte	0xd8
 604 018c A4080000 		.4byte	0x8a4
 605 0190 1C       		.byte	0x1c
 606 0191 07       		.uleb128 0x7
 607 0192 27040000 		.4byte	.LASF33
ARM GAS  C:\Users\Luis\AppData\Local\Temp\ccVAybnr.s 			page 12


 608 0196 06       		.byte	0x6
 609 0197 DD       		.byte	0xdd
 610 0198 C2000000 		.4byte	0xc2
 611 019c 20       		.byte	0x20
 612 019d 07       		.uleb128 0x7
 613 019e DB060000 		.4byte	.LASF34
 614 01a2 06       		.byte	0x6
 615 01a3 E1       		.byte	0xe1
 616 01a4 B7000000 		.4byte	0xb7
 617 01a8 21       		.byte	0x21
 618 01a9 07       		.uleb128 0x7
 619 01aa 75060000 		.4byte	.LASF35
 620 01ae 06       		.byte	0x6
 621 01af E6       		.byte	0xe6
 622 01b0 CD000000 		.4byte	0xcd
 623 01b4 22       		.byte	0x22
 624 01b5 08       		.uleb128 0x8
 625 01b6 705F7500 		.ascii	"p_u\000"
 626 01ba 06       		.byte	0x6
 627 01bb 3101     		.2byte	0x131
 628 01bd CD070000 		.4byte	0x7cd
 629 01c1 24       		.byte	0x24
 630 01c2 09       		.uleb128 0x9
 631 01c3 1D030000 		.4byte	.LASF36
 632 01c7 06       		.byte	0x6
 633 01c8 3601     		.2byte	0x136
 634 01ca 49020000 		.4byte	0x249
 635 01ce 28       		.byte	0x28
 636 01cf 09       		.uleb128 0x9
 637 01d0 74020000 		.4byte	.LASF37
 638 01d4 06       		.byte	0x6
 639 01d5 3C01     		.2byte	0x13c
 640 01d7 6D020000 		.4byte	0x26d
 641 01db 2C       		.byte	0x2c
 642 01dc 09       		.uleb128 0x9
 643 01dd 35060000 		.4byte	.LASF38
 644 01e1 06       		.byte	0x6
 645 01e2 4001     		.2byte	0x140
 646 01e4 E3000000 		.4byte	0xe3
 647 01e8 34       		.byte	0x34
 648 01e9 09       		.uleb128 0x9
 649 01ea 91040000 		.4byte	.LASF39
 650 01ee 06       		.byte	0x6
 651 01ef 4601     		.2byte	0x146
 652 01f1 EE000000 		.4byte	0xee
 653 01f5 38       		.byte	0x38
 654 01f6 09       		.uleb128 0x9
 655 01f7 13040000 		.4byte	.LASF40
 656 01fb 06       		.byte	0x6
 657 01fc 4D01     		.2byte	0x14d
 658 01fe 8C080000 		.4byte	0x88c
 659 0202 3C       		.byte	0x3c
 660 0203 09       		.uleb128 0x9
 661 0204 DD050000 		.4byte	.LASF41
 662 0208 06       		.byte	0x6
 663 0209 5101     		.2byte	0x151
 664 020b D8000000 		.4byte	0xd8
ARM GAS  C:\Users\Luis\AppData\Local\Temp\ccVAybnr.s 			page 13


 665 020f 40       		.byte	0x40
 666 0210 09       		.uleb128 0x9
 667 0211 BB010000 		.4byte	.LASF42
 668 0215 06       		.byte	0x6
 669 0216 5801     		.2byte	0x158
 670 0218 20030000 		.4byte	0x320
 671 021c 44       		.byte	0x44
 672 021d 09       		.uleb128 0x9
 673 021e 55040000 		.4byte	.LASF43
 674 0222 06       		.byte	0x6
 675 0223 5E01     		.2byte	0x15e
 676 0225 7E070000 		.4byte	0x77e
 677 0229 48       		.byte	0x48
 678 022a 09       		.uleb128 0x9
 679 022b 7F020000 		.4byte	.LASF44
 680 022f 06       		.byte	0x6
 681 0230 6201     		.2byte	0x162
 682 0232 20030000 		.4byte	0x320
 683 0236 60       		.byte	0x60
 684 0237 00       		.byte	0
 685 0238 04       		.uleb128 0x4
 686 0239 30030000 		.4byte	.LASF45
 687 023d 05       		.byte	0x5
 688 023e 44       		.byte	0x44
 689 023f 43020000 		.4byte	0x243
 690 0243 0A       		.uleb128 0xa
 691 0244 04       		.byte	0x4
 692 0245 1A010000 		.4byte	0x11a
 693 0249 04       		.uleb128 0x4
 694 024a B7060000 		.4byte	.LASF46
 695 024e 05       		.byte	0x5
 696 024f 49       		.byte	0x49
 697 0250 54020000 		.4byte	0x254
 698 0254 06       		.uleb128 0x6
 699 0255 BD040000 		.4byte	.LASF48
 700 0259 04       		.byte	0x4
 701 025a 06       		.byte	0x6
 702 025b B0       		.byte	0xb0
 703 025c 6D020000 		.4byte	0x26d
 704 0260 07       		.uleb128 0x7
 705 0261 3D040000 		.4byte	.LASF25
 706 0265 06       		.byte	0x6
 707 0266 B1       		.byte	0xb1
 708 0267 43020000 		.4byte	0x243
 709 026b 00       		.byte	0
 710 026c 00       		.byte	0
 711 026d 04       		.uleb128 0x4
 712 026e 5C060000 		.4byte	.LASF49
 713 0272 05       		.byte	0x5
 714 0273 50       		.byte	0x50
 715 0274 78020000 		.4byte	0x278
 716 0278 06       		.uleb128 0x6
 717 0279 48000000 		.4byte	.LASF50
 718 027d 08       		.byte	0x8
 719 027e 06       		.byte	0x6
 720 027f B7       		.byte	0xb7
 721 0280 9D020000 		.4byte	0x29d
ARM GAS  C:\Users\Luis\AppData\Local\Temp\ccVAybnr.s 			page 14


 722 0284 07       		.uleb128 0x7
 723 0285 3D040000 		.4byte	.LASF25
 724 0289 06       		.byte	0x6
 725 028a B8       		.byte	0xb8
 726 028b 43020000 		.4byte	0x243
 727 028f 00       		.byte	0
 728 0290 07       		.uleb128 0x7
 729 0291 DF030000 		.4byte	.LASF26
 730 0295 06       		.byte	0x6
 731 0296 B9       		.byte	0xb9
 732 0297 43020000 		.4byte	0x243
 733 029b 04       		.byte	0x4
 734 029c 00       		.byte	0
 735 029d 04       		.uleb128 0x4
 736 029e 07000000 		.4byte	.LASF51
 737 02a2 05       		.byte	0x5
 738 02a3 57       		.byte	0x57
 739 02a4 A8020000 		.4byte	0x2a8
 740 02a8 0B       		.uleb128 0xb
 741 02a9 E5020000 		.4byte	.LASF52
 742 02ad 1C       		.byte	0x1c
 743 02ae 06       		.byte	0x6
 744 02af 9001     		.2byte	0x190
 745 02b1 04030000 		.4byte	0x304
 746 02b5 09       		.uleb128 0x9
 747 02b6 AC040000 		.4byte	.LASF53
 748 02ba 06       		.byte	0x6
 749 02bb 9101     		.2byte	0x191
 750 02bd 6D020000 		.4byte	0x26d
 751 02c1 00       		.byte	0
 752 02c2 09       		.uleb128 0x9
 753 02c3 2F040000 		.4byte	.LASF54
 754 02c7 06       		.byte	0x6
 755 02c8 9201     		.2byte	0x192
 756 02ca D8000000 		.4byte	0xd8
 757 02ce 08       		.byte	0x8
 758 02cf 09       		.uleb128 0x9
 759 02d0 84030000 		.4byte	.LASF55
 760 02d4 06       		.byte	0x6
 761 02d5 9401     		.2byte	0x194
 762 02d7 CC040000 		.4byte	0x4cc
 763 02db 0C       		.byte	0xc
 764 02dc 09       		.uleb128 0x9
 765 02dd B3010000 		.4byte	.LASF56
 766 02e1 06       		.byte	0x6
 767 02e2 9701     		.2byte	0x197
 768 02e4 43020000 		.4byte	0x243
 769 02e8 10       		.byte	0x10
 770 02e9 09       		.uleb128 0x9
 771 02ea AA030000 		.4byte	.LASF57
 772 02ee 06       		.byte	0x6
 773 02ef 9801     		.2byte	0x198
 774 02f1 43020000 		.4byte	0x243
 775 02f5 14       		.byte	0x14
 776 02f6 09       		.uleb128 0x9
 777 02f7 A0030000 		.4byte	.LASF58
 778 02fb 06       		.byte	0x6
ARM GAS  C:\Users\Luis\AppData\Local\Temp\ccVAybnr.s 			page 15


 779 02fc 9B01     		.2byte	0x19b
 780 02fe 43020000 		.4byte	0x243
 781 0302 18       		.byte	0x18
 782 0303 00       		.byte	0
 783 0304 04       		.uleb128 0x4
 784 0305 E8050000 		.4byte	.LASF59
 785 0309 05       		.byte	0x5
 786 030a 5C       		.byte	0x5c
 787 030b 0F030000 		.4byte	0x30f
 788 030f 0A       		.uleb128 0xa
 789 0310 04       		.byte	0x4
 790 0311 15030000 		.4byte	0x315
 791 0315 0C       		.uleb128 0xc
 792 0316 20030000 		.4byte	0x320
 793 031a 0D       		.uleb128 0xd
 794 031b 20030000 		.4byte	0x320
 795 031f 00       		.byte	0
 796 0320 0E       		.uleb128 0xe
 797 0321 04       		.byte	0x4
 798 0322 04       		.uleb128 0x4
 799 0323 CF030000 		.4byte	.LASF60
 800 0327 05       		.byte	0x5
 801 0328 61       		.byte	0x61
 802 0329 2D030000 		.4byte	0x32d
 803 032d 0B       		.uleb128 0xb
 804 032e 5D040000 		.4byte	.LASF61
 805 0332 14       		.byte	0x14
 806 0333 06       		.byte	0x6
 807 0334 6B01     		.2byte	0x16b
 808 0336 7C030000 		.4byte	0x37c
 809 033a 09       		.uleb128 0x9
 810 033b 65020000 		.4byte	.LASF62
 811 033f 06       		.byte	0x6
 812 0340 6C01     		.2byte	0x16c
 813 0342 AA080000 		.4byte	0x8aa
 814 0346 00       		.byte	0
 815 0347 09       		.uleb128 0x9
 816 0348 CC010000 		.4byte	.LASF63
 817 034c 06       		.byte	0x6
 818 034d 6D01     		.2byte	0x16d
 819 034f AA080000 		.4byte	0x8aa
 820 0353 04       		.byte	0x4
 821 0354 09       		.uleb128 0x9
 822 0355 B4040000 		.4byte	.LASF64
 823 0359 06       		.byte	0x6
 824 035a 6E01     		.2byte	0x16e
 825 035c 0F010000 		.4byte	0x10f
 826 0360 08       		.byte	0x8
 827 0361 09       		.uleb128 0x9
 828 0362 17070000 		.4byte	.LASF65
 829 0366 06       		.byte	0x6
 830 0367 6F01     		.2byte	0x16f
 831 0369 04030000 		.4byte	0x304
 832 036d 0C       		.byte	0xc
 833 036e 09       		.uleb128 0x9
 834 036f 55060000 		.4byte	.LASF66
 835 0373 06       		.byte	0x6
ARM GAS  C:\Users\Luis\AppData\Local\Temp\ccVAybnr.s 			page 16


 836 0374 7101     		.2byte	0x171
 837 0376 20030000 		.4byte	0x320
 838 037a 10       		.byte	0x10
 839 037b 00       		.byte	0
 840 037c 04       		.uleb128 0x4
 841 037d C7000000 		.4byte	.LASF67
 842 0381 05       		.byte	0x5
 843 0382 66       		.byte	0x66
 844 0383 87030000 		.4byte	0x387
 845 0387 0B       		.uleb128 0xb
 846 0388 43030000 		.4byte	.LASF68
 847 038c 10       		.byte	0x10
 848 038d 06       		.byte	0x6
 849 038e 7B01     		.2byte	0x17b
 850 0390 C9030000 		.4byte	0x3c9
 851 0394 09       		.uleb128 0x9
 852 0395 65020000 		.4byte	.LASF62
 853 0399 06       		.byte	0x6
 854 039a 7C01     		.2byte	0x17c
 855 039c AA080000 		.4byte	0x8aa
 856 03a0 00       		.byte	0
 857 03a1 09       		.uleb128 0x9
 858 03a2 CC010000 		.4byte	.LASF63
 859 03a6 06       		.byte	0x6
 860 03a7 7E01     		.2byte	0x17e
 861 03a9 AA080000 		.4byte	0x8aa
 862 03ad 04       		.byte	0x4
 863 03ae 09       		.uleb128 0x9
 864 03af B4040000 		.4byte	.LASF64
 865 03b3 06       		.byte	0x6
 866 03b4 8001     		.2byte	0x180
 867 03b6 0F010000 		.4byte	0x10f
 868 03ba 08       		.byte	0x8
 869 03bb 09       		.uleb128 0x9
 870 03bc 69030000 		.4byte	.LASF69
 871 03c0 06       		.byte	0x6
 872 03c1 8801     		.2byte	0x188
 873 03c3 0F010000 		.4byte	0x10f
 874 03c7 0C       		.byte	0xc
 875 03c8 00       		.byte	0
 876 03c9 04       		.uleb128 0x4
 877 03ca 59000000 		.4byte	.LASF70
 878 03ce 05       		.byte	0x5
 879 03cf 6B       		.byte	0x6b
 880 03d0 D4030000 		.4byte	0x3d4
 881 03d4 0F       		.uleb128 0xf
 882 03d5 17020000 		.4byte	.LASF71
 883 03d9 1404     		.2byte	0x414
 884 03db 06       		.byte	0x6
 885 03dc A201     		.2byte	0x1a2
 886 03de 17040000 		.4byte	0x417
 887 03e2 09       		.uleb128 0x9
 888 03e3 F1050000 		.4byte	.LASF72
 889 03e7 06       		.byte	0x6
 890 03e8 AA01     		.2byte	0x1aa
 891 03ea B0080000 		.4byte	0x8b0
 892 03ee 00       		.byte	0
ARM GAS  C:\Users\Luis\AppData\Local\Temp\ccVAybnr.s 			page 17


 893 03ef 09       		.uleb128 0x9
 894 03f0 7C060000 		.4byte	.LASF73
 895 03f4 06       		.byte	0x6
 896 03f5 AF01     		.2byte	0x1af
 897 03f7 F9000000 		.4byte	0xf9
 898 03fb 04       		.byte	0x4
 899 03fc 09       		.uleb128 0x9
 900 03fd 2F020000 		.4byte	.LASF74
 901 0401 06       		.byte	0x6
 902 0402 B301     		.2byte	0x1b3
 903 0404 F9000000 		.4byte	0xf9
 904 0408 08       		.byte	0x8
 905 0409 09       		.uleb128 0x9
 906 040a CE060000 		.4byte	.LASF75
 907 040e 06       		.byte	0x6
 908 040f B901     		.2byte	0x1b9
 909 0411 10070000 		.4byte	0x710
 910 0415 0C       		.byte	0xc
 911 0416 00       		.byte	0
 912 0417 04       		.uleb128 0x4
 913 0418 C2020000 		.4byte	.LASF76
 914 041c 05       		.byte	0x5
 915 041d 70       		.byte	0x70
 916 041e 22040000 		.4byte	0x422
 917 0422 0F       		.uleb128 0xf
 918 0423 34010000 		.4byte	.LASF77
 919 0427 E805     		.2byte	0x5e8
 920 0429 06       		.byte	0x6
 921 042a C201     		.2byte	0x1c2
 922 042c 8F040000 		.4byte	0x48f
 923 0430 09       		.uleb128 0x9
 924 0431 8D060000 		.4byte	.LASF78
 925 0435 06       		.byte	0x6
 926 0436 C601     		.2byte	0x1c6
 927 0438 9D020000 		.4byte	0x29d
 928 043c 00       		.byte	0
 929 043d 09       		.uleb128 0x9
 930 043e 2D010000 		.4byte	.LASF79
 931 0442 06       		.byte	0x6
 932 0443 CA01     		.2byte	0x1ca
 933 0445 7C030000 		.4byte	0x37c
 934 0449 1C       		.byte	0x1c
 935 044a 08       		.uleb128 0x8
 936 044b 64626700 		.ascii	"dbg\000"
 937 044f 06       		.byte	0x6
 938 0450 CE01     		.2byte	0x1ce
 939 0452 C9030000 		.4byte	0x3c9
 940 0456 2C       		.byte	0x2c
 941 0457 10       		.uleb128 0x10
 942 0458 BC000000 		.4byte	.LASF80
 943 045c 06       		.byte	0x6
 944 045d D201     		.2byte	0x1d2
 945 045f 1A010000 		.4byte	0x11a
 946 0463 4004     		.2byte	0x440
 947 0465 11       		.uleb128 0x11
 948 0466 746D00   		.ascii	"tm\000"
 949 0469 06       		.byte	0x6
ARM GAS  C:\Users\Luis\AppData\Local\Temp\ccVAybnr.s 			page 18


 950 046a D701     		.2byte	0x1d7
 951 046c 30070000 		.4byte	0x730
 952 0470 A804     		.2byte	0x4a8
 953 0472 10       		.uleb128 0x10
 954 0473 2F000000 		.4byte	.LASF81
 955 0477 06       		.byte	0x6
 956 0478 DD01     		.2byte	0x1dd
 957 047a C2070000 		.4byte	0x7c2
 958 047e B004     		.2byte	0x4b0
 959 0480 10       		.uleb128 0x10
 960 0481 38020000 		.4byte	.LASF82
 961 0485 06       		.byte	0x6
 962 0486 E301     		.2byte	0x1e3
 963 0488 B5080000 		.4byte	0x8b5
 964 048c E804     		.2byte	0x4e8
 965 048e 00       		.byte	0
 966 048f 03       		.uleb128 0x3
 967 0490 04       		.byte	0x4
 968 0491 07       		.byte	0x7
 969 0492 27030000 		.4byte	.LASF83
 970 0496 12       		.uleb128 0x12
 971 0497 6C000000 		.4byte	0x6c
 972 049b A6040000 		.4byte	0x4a6
 973 049f 13       		.uleb128 0x13
 974 04a0 8F040000 		.4byte	0x48f
 975 04a4 01       		.byte	0x1
 976 04a5 00       		.byte	0
 977 04a6 12       		.uleb128 0x12
 978 04a7 6C000000 		.4byte	0x6c
 979 04ab B6040000 		.4byte	0x4b6
 980 04af 13       		.uleb128 0x13
 981 04b0 8F040000 		.4byte	0x48f
 982 04b4 03       		.byte	0x3
 983 04b5 00       		.byte	0
 984 04b6 04       		.uleb128 0x4
 985 04b7 C3010000 		.4byte	.LASF84
 986 04bb 07       		.byte	0x7
 987 04bc 65       		.byte	0x65
 988 04bd 20030000 		.4byte	0x320
 989 04c1 04       		.uleb128 0x4
 990 04c2 12030000 		.4byte	.LASF85
 991 04c6 07       		.byte	0x7
 992 04c7 6D       		.byte	0x6d
 993 04c8 85000000 		.4byte	0x85
 994 04cc 06       		.uleb128 0x6
 995 04cd 2D060000 		.4byte	.LASF86
 996 04d1 04       		.byte	0x4
 997 04d2 07       		.byte	0x7
 998 04d3 89       		.byte	0x89
 999 04d4 E5040000 		.4byte	0x4e5
 1000 04d8 14       		.uleb128 0x14
 1001 04d9 72313300 		.ascii	"r13\000"
 1002 04dd 07       		.byte	0x7
 1003 04de 8A       		.byte	0x8a
 1004 04df 60050000 		.4byte	0x560
 1005 04e3 00       		.byte	0
 1006 04e4 00       		.byte	0
ARM GAS  C:\Users\Luis\AppData\Local\Temp\ccVAybnr.s 			page 19


 1007 04e5 06       		.uleb128 0x6
 1008 04e6 3C000000 		.4byte	.LASF87
 1009 04ea 24       		.byte	0x24
 1010 04eb 08       		.byte	0x8
 1011 04ec F4       		.byte	0xf4
 1012 04ed 60050000 		.4byte	0x560
 1013 04f1 08       		.uleb128 0x8
 1014 04f2 723400   		.ascii	"r4\000"
 1015 04f5 08       		.byte	0x8
 1016 04f6 0701     		.2byte	0x107
 1017 04f8 B6040000 		.4byte	0x4b6
 1018 04fc 00       		.byte	0
 1019 04fd 08       		.uleb128 0x8
 1020 04fe 723500   		.ascii	"r5\000"
 1021 0501 08       		.byte	0x8
 1022 0502 0801     		.2byte	0x108
 1023 0504 B6040000 		.4byte	0x4b6
 1024 0508 04       		.byte	0x4
 1025 0509 08       		.uleb128 0x8
 1026 050a 723600   		.ascii	"r6\000"
 1027 050d 08       		.byte	0x8
 1028 050e 0901     		.2byte	0x109
 1029 0510 B6040000 		.4byte	0x4b6
 1030 0514 08       		.byte	0x8
 1031 0515 08       		.uleb128 0x8
 1032 0516 723700   		.ascii	"r7\000"
 1033 0519 08       		.byte	0x8
 1034 051a 0A01     		.2byte	0x10a
 1035 051c B6040000 		.4byte	0x4b6
 1036 0520 0C       		.byte	0xc
 1037 0521 08       		.uleb128 0x8
 1038 0522 723800   		.ascii	"r8\000"
 1039 0525 08       		.byte	0x8
 1040 0526 0B01     		.2byte	0x10b
 1041 0528 B6040000 		.4byte	0x4b6
 1042 052c 10       		.byte	0x10
 1043 052d 08       		.uleb128 0x8
 1044 052e 723900   		.ascii	"r9\000"
 1045 0531 08       		.byte	0x8
 1046 0532 0C01     		.2byte	0x10c
 1047 0534 B6040000 		.4byte	0x4b6
 1048 0538 14       		.byte	0x14
 1049 0539 08       		.uleb128 0x8
 1050 053a 72313000 		.ascii	"r10\000"
 1051 053e 08       		.byte	0x8
 1052 053f 0D01     		.2byte	0x10d
 1053 0541 B6040000 		.4byte	0x4b6
 1054 0545 18       		.byte	0x18
 1055 0546 08       		.uleb128 0x8
 1056 0547 72313100 		.ascii	"r11\000"
 1057 054b 08       		.byte	0x8
 1058 054c 0E01     		.2byte	0x10e
 1059 054e B6040000 		.4byte	0x4b6
 1060 0552 1C       		.byte	0x1c
 1061 0553 08       		.uleb128 0x8
 1062 0554 6C7200   		.ascii	"lr\000"
 1063 0557 08       		.byte	0x8
ARM GAS  C:\Users\Luis\AppData\Local\Temp\ccVAybnr.s 			page 20


 1064 0558 0F01     		.2byte	0x10f
 1065 055a B6040000 		.4byte	0x4b6
 1066 055e 20       		.byte	0x20
 1067 055f 00       		.byte	0
 1068 0560 0A       		.uleb128 0xa
 1069 0561 04       		.byte	0x4
 1070 0562 E5040000 		.4byte	0x4e5
 1071 0566 15       		.uleb128 0x15
 1072 0567 60       		.byte	0x60
 1073 0568 09       		.byte	0x9
 1074 0569 9E01     		.2byte	0x19e
 1075 056b 72060000 		.4byte	0x672
 1076 056f 08       		.uleb128 0x8
 1077 0570 43523100 		.ascii	"CR1\000"
 1078 0574 09       		.byte	0x9
 1079 0575 9F01     		.2byte	0x19f
 1080 0577 9C000000 		.4byte	0x9c
 1081 057b 00       		.byte	0
 1082 057c 08       		.uleb128 0x8
 1083 057d 43523200 		.ascii	"CR2\000"
 1084 0581 09       		.byte	0x9
 1085 0582 A001     		.2byte	0x1a0
 1086 0584 9C000000 		.4byte	0x9c
 1087 0588 04       		.byte	0x4
 1088 0589 09       		.uleb128 0x9
 1089 058a 92020000 		.4byte	.LASF88
 1090 058e 09       		.byte	0x9
 1091 058f A101     		.2byte	0x1a1
 1092 0591 9C000000 		.4byte	0x9c
 1093 0595 08       		.byte	0x8
 1094 0596 09       		.uleb128 0x9
 1095 0597 14000000 		.4byte	.LASF89
 1096 059b 09       		.byte	0x9
 1097 059c A201     		.2byte	0x1a2
 1098 059e 9C000000 		.4byte	0x9c
 1099 05a2 0C       		.byte	0xc
 1100 05a3 08       		.uleb128 0x8
 1101 05a4 535200   		.ascii	"SR\000"
 1102 05a7 09       		.byte	0x9
 1103 05a8 A301     		.2byte	0x1a3
 1104 05aa 9C000000 		.4byte	0x9c
 1105 05ae 10       		.byte	0x10
 1106 05af 08       		.uleb128 0x8
 1107 05b0 45475200 		.ascii	"EGR\000"
 1108 05b4 09       		.byte	0x9
 1109 05b5 A401     		.2byte	0x1a4
 1110 05b7 9C000000 		.4byte	0x9c
 1111 05bb 14       		.byte	0x14
 1112 05bc 09       		.uleb128 0x9
 1113 05bd FF000000 		.4byte	.LASF90
 1114 05c1 09       		.byte	0x9
 1115 05c2 A501     		.2byte	0x1a5
 1116 05c4 9C000000 		.4byte	0x9c
 1117 05c8 18       		.byte	0x18
 1118 05c9 09       		.uleb128 0x9
 1119 05ca 05010000 		.4byte	.LASF91
 1120 05ce 09       		.byte	0x9
ARM GAS  C:\Users\Luis\AppData\Local\Temp\ccVAybnr.s 			page 21


 1121 05cf A601     		.2byte	0x1a6
 1122 05d1 9C000000 		.4byte	0x9c
 1123 05d5 1C       		.byte	0x1c
 1124 05d6 09       		.uleb128 0x9
 1125 05d7 58010000 		.4byte	.LASF92
 1126 05db 09       		.byte	0x9
 1127 05dc A701     		.2byte	0x1a7
 1128 05de 9C000000 		.4byte	0x9c
 1129 05e2 20       		.byte	0x20
 1130 05e3 08       		.uleb128 0x8
 1131 05e4 434E5400 		.ascii	"CNT\000"
 1132 05e8 09       		.byte	0x9
 1133 05e9 A801     		.2byte	0x1a8
 1134 05eb 9C000000 		.4byte	0x9c
 1135 05ef 24       		.byte	0x24
 1136 05f0 08       		.uleb128 0x8
 1137 05f1 50534300 		.ascii	"PSC\000"
 1138 05f5 09       		.byte	0x9
 1139 05f6 A901     		.2byte	0x1a9
 1140 05f8 9C000000 		.4byte	0x9c
 1141 05fc 28       		.byte	0x28
 1142 05fd 08       		.uleb128 0x8
 1143 05fe 41525200 		.ascii	"ARR\000"
 1144 0602 09       		.byte	0x9
 1145 0603 AA01     		.2byte	0x1aa
 1146 0605 9C000000 		.4byte	0x9c
 1147 0609 2C       		.byte	0x2c
 1148 060a 08       		.uleb128 0x8
 1149 060b 52435200 		.ascii	"RCR\000"
 1150 060f 09       		.byte	0x9
 1151 0610 AB01     		.2byte	0x1ab
 1152 0612 9C000000 		.4byte	0x9c
 1153 0616 30       		.byte	0x30
 1154 0617 08       		.uleb128 0x8
 1155 0618 43435200 		.ascii	"CCR\000"
 1156 061c 09       		.byte	0x9
 1157 061d AC01     		.2byte	0x1ac
 1158 061f 72060000 		.4byte	0x672
 1159 0623 34       		.byte	0x34
 1160 0624 09       		.uleb128 0x9
 1161 0625 EA000000 		.4byte	.LASF93
 1162 0629 09       		.byte	0x9
 1163 062a AD01     		.2byte	0x1ad
 1164 062c 9C000000 		.4byte	0x9c
 1165 0630 44       		.byte	0x44
 1166 0631 08       		.uleb128 0x8
 1167 0632 44435200 		.ascii	"DCR\000"
 1168 0636 09       		.byte	0x9
 1169 0637 AE01     		.2byte	0x1ae
 1170 0639 9C000000 		.4byte	0x9c
 1171 063d 48       		.byte	0x48
 1172 063e 09       		.uleb128 0x9
 1173 063f F0040000 		.4byte	.LASF94
 1174 0643 09       		.byte	0x9
 1175 0644 AF01     		.2byte	0x1af
 1176 0646 9C000000 		.4byte	0x9c
 1177 064a 4C       		.byte	0x4c
ARM GAS  C:\Users\Luis\AppData\Local\Temp\ccVAybnr.s 			page 22


 1178 064b 08       		.uleb128 0x8
 1179 064c 4F5200   		.ascii	"OR\000"
 1180 064f 09       		.byte	0x9
 1181 0650 B001     		.2byte	0x1b0
 1182 0652 9C000000 		.4byte	0x9c
 1183 0656 50       		.byte	0x50
 1184 0657 09       		.uleb128 0x9
 1185 0658 0B010000 		.4byte	.LASF95
 1186 065c 09       		.byte	0x9
 1187 065d B101     		.2byte	0x1b1
 1188 065f 9C000000 		.4byte	0x9c
 1189 0663 54       		.byte	0x54
 1190 0664 09       		.uleb128 0x9
 1191 0665 8C040000 		.4byte	.LASF96
 1192 0669 09       		.byte	0x9
 1193 066a B201     		.2byte	0x1b2
 1194 066c 77060000 		.4byte	0x677
 1195 0670 58       		.byte	0x58
 1196 0671 00       		.byte	0
 1197 0672 05       		.uleb128 0x5
 1198 0673 A6040000 		.4byte	0x4a6
 1199 0677 05       		.uleb128 0x5
 1200 0678 96040000 		.4byte	0x496
 1201 067c 16       		.uleb128 0x16
 1202 067d CE020000 		.4byte	.LASF97
 1203 0681 09       		.byte	0x9
 1204 0682 B301     		.2byte	0x1b3
 1205 0684 66050000 		.4byte	0x566
 1206 0688 17       		.uleb128 0x17
 1207 0689 10       		.byte	0x10
 1208 068a 0A       		.byte	0xa
 1209 068b 51       		.byte	0x51
 1210 068c C1060000 		.4byte	0x6c1
 1211 0690 07       		.uleb128 0x7
 1212 0691 1D010000 		.4byte	.LASF98
 1213 0695 0A       		.byte	0xa
 1214 0696 55       		.byte	0x55
 1215 0697 0F010000 		.4byte	0x10f
 1216 069b 00       		.byte	0
 1217 069c 07       		.uleb128 0x7
 1218 069d 5D010000 		.4byte	.LASF99
 1219 06a1 0A       		.byte	0xa
 1220 06a2 59       		.byte	0x59
 1221 06a3 43020000 		.4byte	0x243
 1222 06a7 04       		.byte	0x4
 1223 06a8 07       		.uleb128 0x7
 1224 06a9 07070000 		.4byte	.LASF100
 1225 06ad 0A       		.byte	0xa
 1226 06ae 5D       		.byte	0x5d
 1227 06af 20030000 		.4byte	0x320
 1228 06b3 08       		.byte	0x8
 1229 06b4 07       		.uleb128 0x7
 1230 06b5 AA000000 		.4byte	.LASF101
 1231 06b9 0A       		.byte	0xa
 1232 06ba 61       		.byte	0x61
 1233 06bb 3A000000 		.4byte	0x3a
 1234 06bf 0C       		.byte	0xc
ARM GAS  C:\Users\Luis\AppData\Local\Temp\ccVAybnr.s 			page 23


 1235 06c0 00       		.byte	0
 1236 06c1 04       		.uleb128 0x4
 1237 06c2 5A030000 		.4byte	.LASF102
 1238 06c6 0A       		.byte	0xa
 1239 06c7 62       		.byte	0x62
 1240 06c8 88060000 		.4byte	0x688
 1241 06cc 18       		.uleb128 0x18
 1242 06cd 0804     		.2byte	0x408
 1243 06cf 0A       		.byte	0xa
 1244 06d0 67       		.byte	0x67
 1245 06d1 FA060000 		.4byte	0x6fa
 1246 06d5 07       		.uleb128 0x7
 1247 06d6 AB010000 		.4byte	.LASF103
 1248 06da 0A       		.byte	0xa
 1249 06db 6B       		.byte	0x6b
 1250 06dc 2C000000 		.4byte	0x2c
 1251 06e0 00       		.byte	0
 1252 06e1 07       		.uleb128 0x7
 1253 06e2 00000000 		.4byte	.LASF104
 1254 06e6 0A       		.byte	0xa
 1255 06e7 6F       		.byte	0x6f
 1256 06e8 FA060000 		.4byte	0x6fa
 1257 06ec 04       		.byte	0x4
 1258 06ed 07       		.uleb128 0x7
 1259 06ee C5030000 		.4byte	.LASF105
 1260 06f2 0A       		.byte	0xa
 1261 06f3 73       		.byte	0x73
 1262 06f4 00070000 		.4byte	0x700
 1263 06f8 08       		.byte	0x8
 1264 06f9 00       		.byte	0
 1265 06fa 0A       		.uleb128 0xa
 1266 06fb 04       		.byte	0x4
 1267 06fc C1060000 		.4byte	0x6c1
 1268 0700 12       		.uleb128 0x12
 1269 0701 C1060000 		.4byte	0x6c1
 1270 0705 10070000 		.4byte	0x710
 1271 0709 13       		.uleb128 0x13
 1272 070a 8F040000 		.4byte	0x48f
 1273 070e 3F       		.byte	0x3f
 1274 070f 00       		.byte	0
 1275 0710 04       		.uleb128 0x4
 1276 0711 98000000 		.4byte	.LASF106
 1277 0715 0A       		.byte	0xa
 1278 0716 74       		.byte	0x74
 1279 0717 CC060000 		.4byte	0x6cc
 1280 071b 17       		.uleb128 0x17
 1281 071c 04       		.byte	0x4
 1282 071d 0B       		.byte	0xb
 1283 071e 38       		.byte	0x38
 1284 071f 30070000 		.4byte	0x730
 1285 0723 07       		.uleb128 0x7
 1286 0724 FB050000 		.4byte	.LASF107
 1287 0728 0B       		.byte	0xb
 1288 0729 3C       		.byte	0x3c
 1289 072a A1000000 		.4byte	0xa1
 1290 072e 00       		.byte	0
 1291 072f 00       		.byte	0
ARM GAS  C:\Users\Luis\AppData\Local\Temp\ccVAybnr.s 			page 24


 1292 0730 04       		.uleb128 0x4
 1293 0731 8A030000 		.4byte	.LASF108
 1294 0735 0B       		.byte	0xb
 1295 0736 3D       		.byte	0x3d
 1296 0737 1B070000 		.4byte	0x71b
 1297 073b 17       		.uleb128 0x17
 1298 073c 18       		.byte	0x18
 1299 073d 0B       		.byte	0xb
 1300 073e 48       		.byte	0x48
 1301 073f 7E070000 		.4byte	0x77e
 1302 0743 07       		.uleb128 0x7
 1303 0744 C7050000 		.4byte	.LASF109
 1304 0748 0B       		.byte	0xb
 1305 0749 49       		.byte	0x49
 1306 074a A1000000 		.4byte	0xa1
 1307 074e 00       		.byte	0
 1308 074f 07       		.uleb128 0x7
 1309 0750 68000000 		.4byte	.LASF110
 1310 0754 0B       		.byte	0xb
 1311 0755 4A       		.byte	0x4a
 1312 0756 A1000000 		.4byte	0xa1
 1313 075a 04       		.byte	0x4
 1314 075b 07       		.uleb128 0x7
 1315 075c B6020000 		.4byte	.LASF111
 1316 0760 0B       		.byte	0xb
 1317 0761 4B       		.byte	0x4b
 1318 0762 A1000000 		.4byte	0xa1
 1319 0766 08       		.byte	0x8
 1320 0767 14       		.uleb128 0x14
 1321 0768 6E00     		.ascii	"n\000"
 1322 076a 0B       		.byte	0xb
 1323 076b 4C       		.byte	0x4c
 1324 076c 04010000 		.4byte	0x104
 1325 0770 0C       		.byte	0xc
 1326 0771 07       		.uleb128 0x7
 1327 0772 B2030000 		.4byte	.LASF112
 1328 0776 0B       		.byte	0xb
 1329 0777 4D       		.byte	0x4d
 1330 0778 AC000000 		.4byte	0xac
 1331 077c 10       		.byte	0x10
 1332 077d 00       		.byte	0
 1333 077e 04       		.uleb128 0x4
 1334 077f 6E000000 		.4byte	.LASF113
 1335 0783 0B       		.byte	0xb
 1336 0784 4E       		.byte	0x4e
 1337 0785 3B070000 		.4byte	0x73b
 1338 0789 17       		.uleb128 0x17
 1339 078a 38       		.byte	0x38
 1340 078b 0C       		.byte	0xc
 1341 078c 38       		.byte	0x38
 1342 078d C2070000 		.4byte	0x7c2
 1343 0791 07       		.uleb128 0x7
 1344 0792 86020000 		.4byte	.LASF114
 1345 0796 0C       		.byte	0xc
 1346 0797 39       		.byte	0x39
 1347 0798 04010000 		.4byte	0x104
 1348 079c 00       		.byte	0
ARM GAS  C:\Users\Luis\AppData\Local\Temp\ccVAybnr.s 			page 25


 1349 079d 07       		.uleb128 0x7
 1350 079e EE030000 		.4byte	.LASF115
 1351 07a2 0C       		.byte	0xc
 1352 07a3 3A       		.byte	0x3a
 1353 07a4 04010000 		.4byte	0x104
 1354 07a8 04       		.byte	0x4
 1355 07a9 07       		.uleb128 0x7
 1356 07aa F4060000 		.4byte	.LASF116
 1357 07ae 0C       		.byte	0xc
 1358 07af 3B       		.byte	0x3b
 1359 07b0 7E070000 		.4byte	0x77e
 1360 07b4 08       		.byte	0x8
 1361 07b5 07       		.uleb128 0x7
 1362 07b6 DA020000 		.4byte	.LASF117
 1363 07ba 0C       		.byte	0xc
 1364 07bb 3D       		.byte	0x3d
 1365 07bc 7E070000 		.4byte	0x77e
 1366 07c0 20       		.byte	0x20
 1367 07c1 00       		.byte	0
 1368 07c2 04       		.uleb128 0x4
 1369 07c3 97020000 		.4byte	.LASF118
 1370 07c7 0C       		.byte	0xc
 1371 07c8 3F       		.byte	0x3f
 1372 07c9 89070000 		.4byte	0x789
 1373 07cd 19       		.uleb128 0x19
 1374 07ce 04       		.byte	0x4
 1375 07cf 06       		.byte	0x6
 1376 07d0 FA       		.byte	0xfa
 1377 07d1 2A080000 		.4byte	0x82a
 1378 07d5 1A       		.uleb128 0x1a
 1379 07d6 1F000000 		.4byte	.LASF119
 1380 07da 06       		.byte	0x6
 1381 07db 0101     		.2byte	0x101
 1382 07dd E3000000 		.4byte	0xe3
 1383 07e1 1A       		.uleb128 0x1a
 1384 07e2 B3000000 		.4byte	.LASF120
 1385 07e6 06       		.byte	0x6
 1386 07e7 0801     		.2byte	0x108
 1387 07e9 E3000000 		.4byte	0xe3
 1388 07ed 1A       		.uleb128 0x1a
 1389 07ee A9060000 		.4byte	.LASF121
 1390 07f2 06       		.byte	0x6
 1391 07f3 0F01     		.2byte	0x10f
 1392 07f5 20030000 		.4byte	0x320
 1393 07f9 1A       		.uleb128 0x1a
 1394 07fa 19000000 		.4byte	.LASF122
 1395 07fe 06       		.byte	0x6
 1396 07ff 1601     		.2byte	0x116
 1397 0801 2A080000 		.4byte	0x82a
 1398 0805 1A       		.uleb128 0x1a
 1399 0806 6D020000 		.4byte	.LASF123
 1400 080a 06       		.byte	0x6
 1401 080b 1E01     		.2byte	0x11e
 1402 080d 55080000 		.4byte	0x855
 1403 0811 1A       		.uleb128 0x1a
 1404 0812 A5040000 		.4byte	.LASF124
 1405 0816 06       		.byte	0x6
ARM GAS  C:\Users\Luis\AppData\Local\Temp\ccVAybnr.s 			page 26


 1406 0817 2701     		.2byte	0x127
 1407 0819 8C080000 		.4byte	0x88c
 1408 081d 1A       		.uleb128 0x1a
 1409 081e 36040000 		.4byte	.LASF125
 1410 0822 06       		.byte	0x6
 1411 0823 2F01     		.2byte	0x12f
 1412 0825 EE000000 		.4byte	0xee
 1413 0829 00       		.byte	0
 1414 082a 0A       		.uleb128 0xa
 1415 082b 04       		.byte	0x4
 1416 082c 38020000 		.4byte	0x238
 1417 0830 06       		.uleb128 0x6
 1418 0831 7F040000 		.4byte	.LASF126
 1419 0835 0C       		.byte	0xc
 1420 0836 0D       		.byte	0xd
 1421 0837 34       		.byte	0x34
 1422 0838 55080000 		.4byte	0x855
 1423 083c 07       		.uleb128 0x7
 1424 083d 79010000 		.4byte	.LASF127
 1425 0841 0D       		.byte	0xd
 1426 0842 35       		.byte	0x35
 1427 0843 6D020000 		.4byte	0x26d
 1428 0847 00       		.byte	0
 1429 0848 07       		.uleb128 0x7
 1430 0849 8C020000 		.4byte	.LASF128
 1431 084d 0D       		.byte	0xd
 1432 084e 37       		.byte	0x37
 1433 084f F9000000 		.4byte	0xf9
 1434 0853 08       		.byte	0x8
 1435 0854 00       		.byte	0
 1436 0855 0A       		.uleb128 0xa
 1437 0856 04       		.byte	0x4
 1438 0857 30080000 		.4byte	0x830
 1439 085b 06       		.uleb128 0x6
 1440 085c 6C060000 		.4byte	.LASF129
 1441 0860 10       		.byte	0x10
 1442 0861 0E       		.byte	0xe
 1443 0862 39       		.byte	0x39
 1444 0863 8C080000 		.4byte	0x88c
 1445 0867 07       		.uleb128 0x7
 1446 0868 25010000 		.4byte	.LASF130
 1447 086c 0E       		.byte	0xe
 1448 086d 3A       		.byte	0x3a
 1449 086e 6D020000 		.4byte	0x26d
 1450 0872 00       		.byte	0
 1451 0873 07       		.uleb128 0x7
 1452 0874 FF060000 		.4byte	.LASF131
 1453 0878 0E       		.byte	0xe
 1454 0879 3C       		.byte	0x3c
 1455 087a 43020000 		.4byte	0x243
 1456 087e 08       		.byte	0x8
 1457 087f 07       		.uleb128 0x7
 1458 0880 CC050000 		.4byte	.LASF132
 1459 0884 0E       		.byte	0xe
 1460 0885 3E       		.byte	0x3e
 1461 0886 D0080000 		.4byte	0x8d0
 1462 088a 0C       		.byte	0xc
ARM GAS  C:\Users\Luis\AppData\Local\Temp\ccVAybnr.s 			page 27


 1463 088b 00       		.byte	0
 1464 088c 0A       		.uleb128 0xa
 1465 088d 04       		.byte	0x4
 1466 088e 5B080000 		.4byte	0x85b
 1467 0892 0A       		.uleb128 0xa
 1468 0893 04       		.byte	0x4
 1469 0894 98080000 		.4byte	0x898
 1470 0898 1B       		.uleb128 0x1b
 1471 0899 9D080000 		.4byte	0x89d
 1472 089d 03       		.uleb128 0x3
 1473 089e 01       		.byte	0x1
 1474 089f 08       		.byte	0x8
 1475 08a0 EB040000 		.4byte	.LASF133
 1476 08a4 0A       		.uleb128 0xa
 1477 08a5 04       		.byte	0x4
 1478 08a6 C1040000 		.4byte	0x4c1
 1479 08aa 0A       		.uleb128 0xa
 1480 08ab 04       		.byte	0x4
 1481 08ac 22030000 		.4byte	0x322
 1482 08b0 05       		.uleb128 0x5
 1483 08b1 92080000 		.4byte	0x892
 1484 08b5 12       		.uleb128 0x12
 1485 08b6 C1040000 		.4byte	0x4c1
 1486 08ba C5080000 		.4byte	0x8c5
 1487 08be 13       		.uleb128 0x13
 1488 08bf 8F040000 		.4byte	0x48f
 1489 08c3 1F       		.byte	0x1f
 1490 08c4 00       		.byte	0
 1491 08c5 04       		.uleb128 0x4
 1492 08c6 27020000 		.4byte	.LASF134
 1493 08ca 0E       		.byte	0xe
 1494 08cb 34       		.byte	0x34
 1495 08cc 5B080000 		.4byte	0x85b
 1496 08d0 0A       		.uleb128 0xa
 1497 08d1 04       		.byte	0x4
 1498 08d2 C5080000 		.4byte	0x8c5
 1499 08d6 03       		.uleb128 0x3
 1500 08d7 01       		.byte	0x1
 1501 08d8 02       		.byte	0x2
 1502 08d9 F7030000 		.4byte	.LASF135
 1503 08dd 1C       		.uleb128 0x1c
 1504 08de FF020000 		.4byte	.LASF136
 1505 08e2 01       		.byte	0x1
 1506 08e3 8D       		.byte	0x8d
 1507 08e4 00000000 		.4byte	.LFB126
 1508 08e8 2A000000 		.4byte	.LFE126-.LFB126
 1509 08ec 01       		.uleb128 0x1
 1510 08ed 9C       		.byte	0x9c
 1511 08ee 01090000 		.4byte	0x901
 1512 08f2 1D       		.uleb128 0x1d
 1513 08f3 9B030000 		.4byte	.LASF138
 1514 08f7 01       		.byte	0x1
 1515 08f8 8D       		.byte	0x8d
 1516 08f9 0F010000 		.4byte	0x10f
 1517 08fd 02       		.uleb128 0x2
 1518 08fe 91       		.byte	0x91
 1519 08ff 74       		.sleb128 -12
ARM GAS  C:\Users\Luis\AppData\Local\Temp\ccVAybnr.s 			page 28


 1520 0900 00       		.byte	0
 1521 0901 1E       		.uleb128 0x1e
 1522 0902 43060000 		.4byte	.LASF151
 1523 0906 01       		.byte	0x1
 1524 0907 99       		.byte	0x99
 1525 0908 00000000 		.4byte	.LFB127
 1526 090c 14000000 		.4byte	.LFE127-.LFB127
 1527 0910 01       		.uleb128 0x1
 1528 0911 9C       		.byte	0x9c
 1529 0912 1C       		.uleb128 0x1c
 1530 0913 E3060000 		.4byte	.LASF137
 1531 0917 01       		.byte	0x1
 1532 0918 A5       		.byte	0xa5
 1533 0919 00000000 		.4byte	.LFB128
 1534 091d 1A000000 		.4byte	.LFE128-.LFB128
 1535 0921 01       		.uleb128 0x1
 1536 0922 9C       		.byte	0x9c
 1537 0923 36090000 		.4byte	0x936
 1538 0927 1D       		.uleb128 0x1d
 1539 0928 9B030000 		.4byte	.LASF138
 1540 092c 01       		.byte	0x1
 1541 092d A5       		.byte	0xa5
 1542 092e 0F010000 		.4byte	0x10f
 1543 0932 02       		.uleb128 0x2
 1544 0933 91       		.byte	0x91
 1545 0934 74       		.sleb128 -12
 1546 0935 00       		.byte	0
 1547 0936 1F       		.uleb128 0x1f
 1548 0937 6E040000 		.4byte	.LASF139
 1549 093b 01       		.byte	0x1
 1550 093c B1       		.byte	0xb1
 1551 093d 0F010000 		.4byte	0x10f
 1552 0941 00000000 		.4byte	.LFB129
 1553 0945 14000000 		.4byte	.LFE129-.LFB129
 1554 0949 01       		.uleb128 0x1
 1555 094a 9C       		.byte	0x9c
 1556 094b 1F       		.uleb128 0x1f
 1557 094c 94010000 		.4byte	.LASF140
 1558 0950 01       		.byte	0x1
 1559 0951 BF       		.byte	0xbf
 1560 0952 D6080000 		.4byte	0x8d6
 1561 0956 00000000 		.4byte	.LFB130
 1562 095a 22000000 		.4byte	.LFE130-.LFB130
 1563 095e 01       		.uleb128 0x1
 1564 095f 9C       		.byte	0x9c
 1565 0960 20       		.uleb128 0x20
 1566 0961 7D030000 		.4byte	.LASF142
 1567 0965 02       		.byte	0x2
 1568 0966 3C       		.byte	0x3c
 1569 0967 00000000 		.4byte	.LFB260
 1570 096b 0A000000 		.4byte	.LFE260-.LFB260
 1571 096f 01       		.uleb128 0x1
 1572 0970 9C       		.byte	0x9c
 1573 0971 21       		.uleb128 0x21
 1574 0972 02060000 		.4byte	.LASF144
 1575 0976 02       		.byte	0x2
 1576 0977 4D       		.byte	0x4d
ARM GAS  C:\Users\Luis\AppData\Local\Temp\ccVAybnr.s 			page 29


 1577 0978 00000000 		.4byte	.LFB261
 1578 097c 28000000 		.4byte	.LFE261-.LFB261
 1579 0980 01       		.uleb128 0x1
 1580 0981 9C       		.byte	0x9c
 1581 0982 A4090000 		.4byte	0x9a4
 1582 0986 1D       		.uleb128 0x1d
 1583 0987 C6060000 		.4byte	.LASF141
 1584 098b 02       		.byte	0x2
 1585 098c 4D       		.byte	0x4d
 1586 098d 0F010000 		.4byte	0x10f
 1587 0991 02       		.uleb128 0x2
 1588 0992 91       		.byte	0x91
 1589 0993 74       		.sleb128 -12
 1590 0994 22       		.uleb128 0x22
 1591 0995 4C040000 		.4byte	.LASF146
 1592 0999 B4090000 		.4byte	0x9b4
 1593 099d 05       		.uleb128 0x5
 1594 099e 03       		.byte	0x3
 1595 099f 00000000 		.4byte	__func__.7909
 1596 09a3 00       		.byte	0
 1597 09a4 12       		.uleb128 0x12
 1598 09a5 9D080000 		.4byte	0x89d
 1599 09a9 B4090000 		.4byte	0x9b4
 1600 09ad 13       		.uleb128 0x13
 1601 09ae 8F040000 		.4byte	0x48f
 1602 09b2 0C       		.byte	0xc
 1603 09b3 00       		.byte	0
 1604 09b4 1B       		.uleb128 0x1b
 1605 09b5 A4090000 		.4byte	0x9a4
 1606 09b9 20       		.uleb128 0x20
 1607 09ba DF040000 		.4byte	.LASF143
 1608 09be 02       		.byte	0x2
 1609 09bf 5B       		.byte	0x5b
 1610 09c0 00000000 		.4byte	.LFB262
 1611 09c4 0A000000 		.4byte	.LFE262-.LFB262
 1612 09c8 01       		.uleb128 0x1
 1613 09c9 9C       		.byte	0x9c
 1614 09ca 21       		.uleb128 0x21
 1615 09cb 93060000 		.4byte	.LASF145
 1616 09cf 02       		.byte	0x2
 1617 09d0 69       		.byte	0x69
 1618 09d1 00000000 		.4byte	.LFB263
 1619 09d5 30000000 		.4byte	.LFE263-.LFB263
 1620 09d9 01       		.uleb128 0x1
 1621 09da 9C       		.byte	0x9c
 1622 09db FD090000 		.4byte	0x9fd
 1623 09df 1D       		.uleb128 0x1d
 1624 09e0 C6060000 		.4byte	.LASF141
 1625 09e4 02       		.byte	0x2
 1626 09e5 69       		.byte	0x69
 1627 09e6 0F010000 		.4byte	0x10f
 1628 09ea 02       		.uleb128 0x2
 1629 09eb 91       		.byte	0x91
 1630 09ec 74       		.sleb128 -12
 1631 09ed 22       		.uleb128 0x22
 1632 09ee 4C040000 		.4byte	.LASF146
 1633 09f2 0D0A0000 		.4byte	0xa0d
ARM GAS  C:\Users\Luis\AppData\Local\Temp\ccVAybnr.s 			page 30


 1634 09f6 05       		.uleb128 0x5
 1635 09f7 03       		.byte	0x3
 1636 09f8 00000000 		.4byte	__func__.7916
 1637 09fc 00       		.byte	0
 1638 09fd 12       		.uleb128 0x12
 1639 09fe 9D080000 		.4byte	0x89d
 1640 0a02 0D0A0000 		.4byte	0xa0d
 1641 0a06 13       		.uleb128 0x13
 1642 0a07 8F040000 		.4byte	0x48f
 1643 0a0b 0A       		.byte	0xa
 1644 0a0c 00       		.byte	0
 1645 0a0d 1B       		.uleb128 0x1b
 1646 0a0e FD090000 		.4byte	0x9fd
 1647 0a12 23       		.uleb128 0x23
 1648 0a13 9E060000 		.4byte	.LASF152
 1649 0a17 02       		.byte	0x2
 1650 0a18 79       		.byte	0x79
 1651 0a19 0F010000 		.4byte	0x10f
 1652 0a1d 00000000 		.4byte	.LFB264
 1653 0a21 28000000 		.4byte	.LFE264-.LFB264
 1654 0a25 01       		.uleb128 0x1
 1655 0a26 9C       		.byte	0x9c
 1656 0a27 3B0A0000 		.4byte	0xa3b
 1657 0a2b 22       		.uleb128 0x22
 1658 0a2c 4C040000 		.4byte	.LASF146
 1659 0a30 3B0A0000 		.4byte	0xa3b
 1660 0a34 05       		.uleb128 0x5
 1661 0a35 03       		.byte	0x3
 1662 0a36 00000000 		.4byte	__func__.7920
 1663 0a3a 00       		.byte	0
 1664 0a3b 1B       		.uleb128 0x1b
 1665 0a3c FD090000 		.4byte	0x9fd
 1666 0a40 24       		.uleb128 0x24
 1667 0a41 DD000000 		.4byte	.LASF147
 1668 0a45 0F       		.byte	0xf
 1669 0a46 A706     		.2byte	0x6a7
 1670 0a48 97000000 		.4byte	0x97
 1671 0a4c 25       		.uleb128 0x25
 1672 0a4d 636800   		.ascii	"ch\000"
 1673 0a50 06       		.byte	0x6
 1674 0a51 0902     		.2byte	0x209
 1675 0a53 17040000 		.4byte	0x417
 1676 0a57 00       		.byte	0
 1677              		.section	.debug_abbrev,"",%progbits
 1678              	.Ldebug_abbrev0:
 1679 0000 01       		.uleb128 0x1
 1680 0001 11       		.uleb128 0x11
 1681 0002 01       		.byte	0x1
 1682 0003 25       		.uleb128 0x25
 1683 0004 0E       		.uleb128 0xe
 1684 0005 13       		.uleb128 0x13
 1685 0006 0B       		.uleb128 0xb
 1686 0007 03       		.uleb128 0x3
 1687 0008 0E       		.uleb128 0xe
 1688 0009 1B       		.uleb128 0x1b
 1689 000a 0E       		.uleb128 0xe
 1690 000b 55       		.uleb128 0x55
ARM GAS  C:\Users\Luis\AppData\Local\Temp\ccVAybnr.s 			page 31


 1691 000c 17       		.uleb128 0x17
 1692 000d 11       		.uleb128 0x11
 1693 000e 01       		.uleb128 0x1
 1694 000f 10       		.uleb128 0x10
 1695 0010 17       		.uleb128 0x17
 1696 0011 00       		.byte	0
 1697 0012 00       		.byte	0
 1698 0013 02       		.uleb128 0x2
 1699 0014 24       		.uleb128 0x24
 1700 0015 00       		.byte	0
 1701 0016 0B       		.uleb128 0xb
 1702 0017 0B       		.uleb128 0xb
 1703 0018 3E       		.uleb128 0x3e
 1704 0019 0B       		.uleb128 0xb
 1705 001a 03       		.uleb128 0x3
 1706 001b 08       		.uleb128 0x8
 1707 001c 00       		.byte	0
 1708 001d 00       		.byte	0
 1709 001e 03       		.uleb128 0x3
 1710 001f 24       		.uleb128 0x24
 1711 0020 00       		.byte	0
 1712 0021 0B       		.uleb128 0xb
 1713 0022 0B       		.uleb128 0xb
 1714 0023 3E       		.uleb128 0x3e
 1715 0024 0B       		.uleb128 0xb
 1716 0025 03       		.uleb128 0x3
 1717 0026 0E       		.uleb128 0xe
 1718 0027 00       		.byte	0
 1719 0028 00       		.byte	0
 1720 0029 04       		.uleb128 0x4
 1721 002a 16       		.uleb128 0x16
 1722 002b 00       		.byte	0
 1723 002c 03       		.uleb128 0x3
 1724 002d 0E       		.uleb128 0xe
 1725 002e 3A       		.uleb128 0x3a
 1726 002f 0B       		.uleb128 0xb
 1727 0030 3B       		.uleb128 0x3b
 1728 0031 0B       		.uleb128 0xb
 1729 0032 49       		.uleb128 0x49
 1730 0033 13       		.uleb128 0x13
 1731 0034 00       		.byte	0
 1732 0035 00       		.byte	0
 1733 0036 05       		.uleb128 0x5
 1734 0037 35       		.uleb128 0x35
 1735 0038 00       		.byte	0
 1736 0039 49       		.uleb128 0x49
 1737 003a 13       		.uleb128 0x13
 1738 003b 00       		.byte	0
 1739 003c 00       		.byte	0
 1740 003d 06       		.uleb128 0x6
 1741 003e 13       		.uleb128 0x13
 1742 003f 01       		.byte	0x1
 1743 0040 03       		.uleb128 0x3
 1744 0041 0E       		.uleb128 0xe
 1745 0042 0B       		.uleb128 0xb
 1746 0043 0B       		.uleb128 0xb
 1747 0044 3A       		.uleb128 0x3a
ARM GAS  C:\Users\Luis\AppData\Local\Temp\ccVAybnr.s 			page 32


 1748 0045 0B       		.uleb128 0xb
 1749 0046 3B       		.uleb128 0x3b
 1750 0047 0B       		.uleb128 0xb
 1751 0048 01       		.uleb128 0x1
 1752 0049 13       		.uleb128 0x13
 1753 004a 00       		.byte	0
 1754 004b 00       		.byte	0
 1755 004c 07       		.uleb128 0x7
 1756 004d 0D       		.uleb128 0xd
 1757 004e 00       		.byte	0
 1758 004f 03       		.uleb128 0x3
 1759 0050 0E       		.uleb128 0xe
 1760 0051 3A       		.uleb128 0x3a
 1761 0052 0B       		.uleb128 0xb
 1762 0053 3B       		.uleb128 0x3b
 1763 0054 0B       		.uleb128 0xb
 1764 0055 49       		.uleb128 0x49
 1765 0056 13       		.uleb128 0x13
 1766 0057 38       		.uleb128 0x38
 1767 0058 0B       		.uleb128 0xb
 1768 0059 00       		.byte	0
 1769 005a 00       		.byte	0
 1770 005b 08       		.uleb128 0x8
 1771 005c 0D       		.uleb128 0xd
 1772 005d 00       		.byte	0
 1773 005e 03       		.uleb128 0x3
 1774 005f 08       		.uleb128 0x8
 1775 0060 3A       		.uleb128 0x3a
 1776 0061 0B       		.uleb128 0xb
 1777 0062 3B       		.uleb128 0x3b
 1778 0063 05       		.uleb128 0x5
 1779 0064 49       		.uleb128 0x49
 1780 0065 13       		.uleb128 0x13
 1781 0066 38       		.uleb128 0x38
 1782 0067 0B       		.uleb128 0xb
 1783 0068 00       		.byte	0
 1784 0069 00       		.byte	0
 1785 006a 09       		.uleb128 0x9
 1786 006b 0D       		.uleb128 0xd
 1787 006c 00       		.byte	0
 1788 006d 03       		.uleb128 0x3
 1789 006e 0E       		.uleb128 0xe
 1790 006f 3A       		.uleb128 0x3a
 1791 0070 0B       		.uleb128 0xb
 1792 0071 3B       		.uleb128 0x3b
 1793 0072 05       		.uleb128 0x5
 1794 0073 49       		.uleb128 0x49
 1795 0074 13       		.uleb128 0x13
 1796 0075 38       		.uleb128 0x38
 1797 0076 0B       		.uleb128 0xb
 1798 0077 00       		.byte	0
 1799 0078 00       		.byte	0
 1800 0079 0A       		.uleb128 0xa
 1801 007a 0F       		.uleb128 0xf
 1802 007b 00       		.byte	0
 1803 007c 0B       		.uleb128 0xb
 1804 007d 0B       		.uleb128 0xb
ARM GAS  C:\Users\Luis\AppData\Local\Temp\ccVAybnr.s 			page 33


 1805 007e 49       		.uleb128 0x49
 1806 007f 13       		.uleb128 0x13
 1807 0080 00       		.byte	0
 1808 0081 00       		.byte	0
 1809 0082 0B       		.uleb128 0xb
 1810 0083 13       		.uleb128 0x13
 1811 0084 01       		.byte	0x1
 1812 0085 03       		.uleb128 0x3
 1813 0086 0E       		.uleb128 0xe
 1814 0087 0B       		.uleb128 0xb
 1815 0088 0B       		.uleb128 0xb
 1816 0089 3A       		.uleb128 0x3a
 1817 008a 0B       		.uleb128 0xb
 1818 008b 3B       		.uleb128 0x3b
 1819 008c 05       		.uleb128 0x5
 1820 008d 01       		.uleb128 0x1
 1821 008e 13       		.uleb128 0x13
 1822 008f 00       		.byte	0
 1823 0090 00       		.byte	0
 1824 0091 0C       		.uleb128 0xc
 1825 0092 15       		.uleb128 0x15
 1826 0093 01       		.byte	0x1
 1827 0094 27       		.uleb128 0x27
 1828 0095 19       		.uleb128 0x19
 1829 0096 01       		.uleb128 0x1
 1830 0097 13       		.uleb128 0x13
 1831 0098 00       		.byte	0
 1832 0099 00       		.byte	0
 1833 009a 0D       		.uleb128 0xd
 1834 009b 05       		.uleb128 0x5
 1835 009c 00       		.byte	0
 1836 009d 49       		.uleb128 0x49
 1837 009e 13       		.uleb128 0x13
 1838 009f 00       		.byte	0
 1839 00a0 00       		.byte	0
 1840 00a1 0E       		.uleb128 0xe
 1841 00a2 0F       		.uleb128 0xf
 1842 00a3 00       		.byte	0
 1843 00a4 0B       		.uleb128 0xb
 1844 00a5 0B       		.uleb128 0xb
 1845 00a6 00       		.byte	0
 1846 00a7 00       		.byte	0
 1847 00a8 0F       		.uleb128 0xf
 1848 00a9 13       		.uleb128 0x13
 1849 00aa 01       		.byte	0x1
 1850 00ab 03       		.uleb128 0x3
 1851 00ac 0E       		.uleb128 0xe
 1852 00ad 0B       		.uleb128 0xb
 1853 00ae 05       		.uleb128 0x5
 1854 00af 3A       		.uleb128 0x3a
 1855 00b0 0B       		.uleb128 0xb
 1856 00b1 3B       		.uleb128 0x3b
 1857 00b2 05       		.uleb128 0x5
 1858 00b3 01       		.uleb128 0x1
 1859 00b4 13       		.uleb128 0x13
 1860 00b5 00       		.byte	0
 1861 00b6 00       		.byte	0
ARM GAS  C:\Users\Luis\AppData\Local\Temp\ccVAybnr.s 			page 34


 1862 00b7 10       		.uleb128 0x10
 1863 00b8 0D       		.uleb128 0xd
 1864 00b9 00       		.byte	0
 1865 00ba 03       		.uleb128 0x3
 1866 00bb 0E       		.uleb128 0xe
 1867 00bc 3A       		.uleb128 0x3a
 1868 00bd 0B       		.uleb128 0xb
 1869 00be 3B       		.uleb128 0x3b
 1870 00bf 05       		.uleb128 0x5
 1871 00c0 49       		.uleb128 0x49
 1872 00c1 13       		.uleb128 0x13
 1873 00c2 38       		.uleb128 0x38
 1874 00c3 05       		.uleb128 0x5
 1875 00c4 00       		.byte	0
 1876 00c5 00       		.byte	0
 1877 00c6 11       		.uleb128 0x11
 1878 00c7 0D       		.uleb128 0xd
 1879 00c8 00       		.byte	0
 1880 00c9 03       		.uleb128 0x3
 1881 00ca 08       		.uleb128 0x8
 1882 00cb 3A       		.uleb128 0x3a
 1883 00cc 0B       		.uleb128 0xb
 1884 00cd 3B       		.uleb128 0x3b
 1885 00ce 05       		.uleb128 0x5
 1886 00cf 49       		.uleb128 0x49
 1887 00d0 13       		.uleb128 0x13
 1888 00d1 38       		.uleb128 0x38
 1889 00d2 05       		.uleb128 0x5
 1890 00d3 00       		.byte	0
 1891 00d4 00       		.byte	0
 1892 00d5 12       		.uleb128 0x12
 1893 00d6 01       		.uleb128 0x1
 1894 00d7 01       		.byte	0x1
 1895 00d8 49       		.uleb128 0x49
 1896 00d9 13       		.uleb128 0x13
 1897 00da 01       		.uleb128 0x1
 1898 00db 13       		.uleb128 0x13
 1899 00dc 00       		.byte	0
 1900 00dd 00       		.byte	0
 1901 00de 13       		.uleb128 0x13
 1902 00df 21       		.uleb128 0x21
 1903 00e0 00       		.byte	0
 1904 00e1 49       		.uleb128 0x49
 1905 00e2 13       		.uleb128 0x13
 1906 00e3 2F       		.uleb128 0x2f
 1907 00e4 0B       		.uleb128 0xb
 1908 00e5 00       		.byte	0
 1909 00e6 00       		.byte	0
 1910 00e7 14       		.uleb128 0x14
 1911 00e8 0D       		.uleb128 0xd
 1912 00e9 00       		.byte	0
 1913 00ea 03       		.uleb128 0x3
 1914 00eb 08       		.uleb128 0x8
 1915 00ec 3A       		.uleb128 0x3a
 1916 00ed 0B       		.uleb128 0xb
 1917 00ee 3B       		.uleb128 0x3b
 1918 00ef 0B       		.uleb128 0xb
ARM GAS  C:\Users\Luis\AppData\Local\Temp\ccVAybnr.s 			page 35


 1919 00f0 49       		.uleb128 0x49
 1920 00f1 13       		.uleb128 0x13
 1921 00f2 38       		.uleb128 0x38
 1922 00f3 0B       		.uleb128 0xb
 1923 00f4 00       		.byte	0
 1924 00f5 00       		.byte	0
 1925 00f6 15       		.uleb128 0x15
 1926 00f7 13       		.uleb128 0x13
 1927 00f8 01       		.byte	0x1
 1928 00f9 0B       		.uleb128 0xb
 1929 00fa 0B       		.uleb128 0xb
 1930 00fb 3A       		.uleb128 0x3a
 1931 00fc 0B       		.uleb128 0xb
 1932 00fd 3B       		.uleb128 0x3b
 1933 00fe 05       		.uleb128 0x5
 1934 00ff 01       		.uleb128 0x1
 1935 0100 13       		.uleb128 0x13
 1936 0101 00       		.byte	0
 1937 0102 00       		.byte	0
 1938 0103 16       		.uleb128 0x16
 1939 0104 16       		.uleb128 0x16
 1940 0105 00       		.byte	0
 1941 0106 03       		.uleb128 0x3
 1942 0107 0E       		.uleb128 0xe
 1943 0108 3A       		.uleb128 0x3a
 1944 0109 0B       		.uleb128 0xb
 1945 010a 3B       		.uleb128 0x3b
 1946 010b 05       		.uleb128 0x5
 1947 010c 49       		.uleb128 0x49
 1948 010d 13       		.uleb128 0x13
 1949 010e 00       		.byte	0
 1950 010f 00       		.byte	0
 1951 0110 17       		.uleb128 0x17
 1952 0111 13       		.uleb128 0x13
 1953 0112 01       		.byte	0x1
 1954 0113 0B       		.uleb128 0xb
 1955 0114 0B       		.uleb128 0xb
 1956 0115 3A       		.uleb128 0x3a
 1957 0116 0B       		.uleb128 0xb
 1958 0117 3B       		.uleb128 0x3b
 1959 0118 0B       		.uleb128 0xb
 1960 0119 01       		.uleb128 0x1
 1961 011a 13       		.uleb128 0x13
 1962 011b 00       		.byte	0
 1963 011c 00       		.byte	0
 1964 011d 18       		.uleb128 0x18
 1965 011e 13       		.uleb128 0x13
 1966 011f 01       		.byte	0x1
 1967 0120 0B       		.uleb128 0xb
 1968 0121 05       		.uleb128 0x5
 1969 0122 3A       		.uleb128 0x3a
 1970 0123 0B       		.uleb128 0xb
 1971 0124 3B       		.uleb128 0x3b
 1972 0125 0B       		.uleb128 0xb
 1973 0126 01       		.uleb128 0x1
 1974 0127 13       		.uleb128 0x13
 1975 0128 00       		.byte	0
ARM GAS  C:\Users\Luis\AppData\Local\Temp\ccVAybnr.s 			page 36


 1976 0129 00       		.byte	0
 1977 012a 19       		.uleb128 0x19
 1978 012b 17       		.uleb128 0x17
 1979 012c 01       		.byte	0x1
 1980 012d 0B       		.uleb128 0xb
 1981 012e 0B       		.uleb128 0xb
 1982 012f 3A       		.uleb128 0x3a
 1983 0130 0B       		.uleb128 0xb
 1984 0131 3B       		.uleb128 0x3b
 1985 0132 0B       		.uleb128 0xb
 1986 0133 01       		.uleb128 0x1
 1987 0134 13       		.uleb128 0x13
 1988 0135 00       		.byte	0
 1989 0136 00       		.byte	0
 1990 0137 1A       		.uleb128 0x1a
 1991 0138 0D       		.uleb128 0xd
 1992 0139 00       		.byte	0
 1993 013a 03       		.uleb128 0x3
 1994 013b 0E       		.uleb128 0xe
 1995 013c 3A       		.uleb128 0x3a
 1996 013d 0B       		.uleb128 0xb
 1997 013e 3B       		.uleb128 0x3b
 1998 013f 05       		.uleb128 0x5
 1999 0140 49       		.uleb128 0x49
 2000 0141 13       		.uleb128 0x13
 2001 0142 00       		.byte	0
 2002 0143 00       		.byte	0
 2003 0144 1B       		.uleb128 0x1b
 2004 0145 26       		.uleb128 0x26
 2005 0146 00       		.byte	0
 2006 0147 49       		.uleb128 0x49
 2007 0148 13       		.uleb128 0x13
 2008 0149 00       		.byte	0
 2009 014a 00       		.byte	0
 2010 014b 1C       		.uleb128 0x1c
 2011 014c 2E       		.uleb128 0x2e
 2012 014d 01       		.byte	0x1
 2013 014e 03       		.uleb128 0x3
 2014 014f 0E       		.uleb128 0xe
 2015 0150 3A       		.uleb128 0x3a
 2016 0151 0B       		.uleb128 0xb
 2017 0152 3B       		.uleb128 0x3b
 2018 0153 0B       		.uleb128 0xb
 2019 0154 27       		.uleb128 0x27
 2020 0155 19       		.uleb128 0x19
 2021 0156 11       		.uleb128 0x11
 2022 0157 01       		.uleb128 0x1
 2023 0158 12       		.uleb128 0x12
 2024 0159 06       		.uleb128 0x6
 2025 015a 40       		.uleb128 0x40
 2026 015b 18       		.uleb128 0x18
 2027 015c 9742     		.uleb128 0x2117
 2028 015e 19       		.uleb128 0x19
 2029 015f 01       		.uleb128 0x1
 2030 0160 13       		.uleb128 0x13
 2031 0161 00       		.byte	0
 2032 0162 00       		.byte	0
ARM GAS  C:\Users\Luis\AppData\Local\Temp\ccVAybnr.s 			page 37


 2033 0163 1D       		.uleb128 0x1d
 2034 0164 05       		.uleb128 0x5
 2035 0165 00       		.byte	0
 2036 0166 03       		.uleb128 0x3
 2037 0167 0E       		.uleb128 0xe
 2038 0168 3A       		.uleb128 0x3a
 2039 0169 0B       		.uleb128 0xb
 2040 016a 3B       		.uleb128 0x3b
 2041 016b 0B       		.uleb128 0xb
 2042 016c 49       		.uleb128 0x49
 2043 016d 13       		.uleb128 0x13
 2044 016e 02       		.uleb128 0x2
 2045 016f 18       		.uleb128 0x18
 2046 0170 00       		.byte	0
 2047 0171 00       		.byte	0
 2048 0172 1E       		.uleb128 0x1e
 2049 0173 2E       		.uleb128 0x2e
 2050 0174 00       		.byte	0
 2051 0175 03       		.uleb128 0x3
 2052 0176 0E       		.uleb128 0xe
 2053 0177 3A       		.uleb128 0x3a
 2054 0178 0B       		.uleb128 0xb
 2055 0179 3B       		.uleb128 0x3b
 2056 017a 0B       		.uleb128 0xb
 2057 017b 27       		.uleb128 0x27
 2058 017c 19       		.uleb128 0x19
 2059 017d 11       		.uleb128 0x11
 2060 017e 01       		.uleb128 0x1
 2061 017f 12       		.uleb128 0x12
 2062 0180 06       		.uleb128 0x6
 2063 0181 40       		.uleb128 0x40
 2064 0182 18       		.uleb128 0x18
 2065 0183 9742     		.uleb128 0x2117
 2066 0185 19       		.uleb128 0x19
 2067 0186 00       		.byte	0
 2068 0187 00       		.byte	0
 2069 0188 1F       		.uleb128 0x1f
 2070 0189 2E       		.uleb128 0x2e
 2071 018a 00       		.byte	0
 2072 018b 03       		.uleb128 0x3
 2073 018c 0E       		.uleb128 0xe
 2074 018d 3A       		.uleb128 0x3a
 2075 018e 0B       		.uleb128 0xb
 2076 018f 3B       		.uleb128 0x3b
 2077 0190 0B       		.uleb128 0xb
 2078 0191 27       		.uleb128 0x27
 2079 0192 19       		.uleb128 0x19
 2080 0193 49       		.uleb128 0x49
 2081 0194 13       		.uleb128 0x13
 2082 0195 11       		.uleb128 0x11
 2083 0196 01       		.uleb128 0x1
 2084 0197 12       		.uleb128 0x12
 2085 0198 06       		.uleb128 0x6
 2086 0199 40       		.uleb128 0x40
 2087 019a 18       		.uleb128 0x18
 2088 019b 9742     		.uleb128 0x2117
 2089 019d 19       		.uleb128 0x19
ARM GAS  C:\Users\Luis\AppData\Local\Temp\ccVAybnr.s 			page 38


 2090 019e 00       		.byte	0
 2091 019f 00       		.byte	0
 2092 01a0 20       		.uleb128 0x20
 2093 01a1 2E       		.uleb128 0x2e
 2094 01a2 00       		.byte	0
 2095 01a3 3F       		.uleb128 0x3f
 2096 01a4 19       		.uleb128 0x19
 2097 01a5 03       		.uleb128 0x3
 2098 01a6 0E       		.uleb128 0xe
 2099 01a7 3A       		.uleb128 0x3a
 2100 01a8 0B       		.uleb128 0xb
 2101 01a9 3B       		.uleb128 0x3b
 2102 01aa 0B       		.uleb128 0xb
 2103 01ab 27       		.uleb128 0x27
 2104 01ac 19       		.uleb128 0x19
 2105 01ad 11       		.uleb128 0x11
 2106 01ae 01       		.uleb128 0x1
 2107 01af 12       		.uleb128 0x12
 2108 01b0 06       		.uleb128 0x6
 2109 01b1 40       		.uleb128 0x40
 2110 01b2 18       		.uleb128 0x18
 2111 01b3 9642     		.uleb128 0x2116
 2112 01b5 19       		.uleb128 0x19
 2113 01b6 00       		.byte	0
 2114 01b7 00       		.byte	0
 2115 01b8 21       		.uleb128 0x21
 2116 01b9 2E       		.uleb128 0x2e
 2117 01ba 01       		.byte	0x1
 2118 01bb 3F       		.uleb128 0x3f
 2119 01bc 19       		.uleb128 0x19
 2120 01bd 03       		.uleb128 0x3
 2121 01be 0E       		.uleb128 0xe
 2122 01bf 3A       		.uleb128 0x3a
 2123 01c0 0B       		.uleb128 0xb
 2124 01c1 3B       		.uleb128 0x3b
 2125 01c2 0B       		.uleb128 0xb
 2126 01c3 27       		.uleb128 0x27
 2127 01c4 19       		.uleb128 0x19
 2128 01c5 11       		.uleb128 0x11
 2129 01c6 01       		.uleb128 0x1
 2130 01c7 12       		.uleb128 0x12
 2131 01c8 06       		.uleb128 0x6
 2132 01c9 40       		.uleb128 0x40
 2133 01ca 18       		.uleb128 0x18
 2134 01cb 9642     		.uleb128 0x2116
 2135 01cd 19       		.uleb128 0x19
 2136 01ce 01       		.uleb128 0x1
 2137 01cf 13       		.uleb128 0x13
 2138 01d0 00       		.byte	0
 2139 01d1 00       		.byte	0
 2140 01d2 22       		.uleb128 0x22
 2141 01d3 34       		.uleb128 0x34
 2142 01d4 00       		.byte	0
 2143 01d5 03       		.uleb128 0x3
 2144 01d6 0E       		.uleb128 0xe
 2145 01d7 49       		.uleb128 0x49
 2146 01d8 13       		.uleb128 0x13
ARM GAS  C:\Users\Luis\AppData\Local\Temp\ccVAybnr.s 			page 39


 2147 01d9 34       		.uleb128 0x34
 2148 01da 19       		.uleb128 0x19
 2149 01db 02       		.uleb128 0x2
 2150 01dc 18       		.uleb128 0x18
 2151 01dd 00       		.byte	0
 2152 01de 00       		.byte	0
 2153 01df 23       		.uleb128 0x23
 2154 01e0 2E       		.uleb128 0x2e
 2155 01e1 01       		.byte	0x1
 2156 01e2 3F       		.uleb128 0x3f
 2157 01e3 19       		.uleb128 0x19
 2158 01e4 03       		.uleb128 0x3
 2159 01e5 0E       		.uleb128 0xe
 2160 01e6 3A       		.uleb128 0x3a
 2161 01e7 0B       		.uleb128 0xb
 2162 01e8 3B       		.uleb128 0x3b
 2163 01e9 0B       		.uleb128 0xb
 2164 01ea 27       		.uleb128 0x27
 2165 01eb 19       		.uleb128 0x19
 2166 01ec 49       		.uleb128 0x49
 2167 01ed 13       		.uleb128 0x13
 2168 01ee 11       		.uleb128 0x11
 2169 01ef 01       		.uleb128 0x1
 2170 01f0 12       		.uleb128 0x12
 2171 01f1 06       		.uleb128 0x6
 2172 01f2 40       		.uleb128 0x40
 2173 01f3 18       		.uleb128 0x18
 2174 01f4 9642     		.uleb128 0x2116
 2175 01f6 19       		.uleb128 0x19
 2176 01f7 01       		.uleb128 0x1
 2177 01f8 13       		.uleb128 0x13
 2178 01f9 00       		.byte	0
 2179 01fa 00       		.byte	0
 2180 01fb 24       		.uleb128 0x24
 2181 01fc 34       		.uleb128 0x34
 2182 01fd 00       		.byte	0
 2183 01fe 03       		.uleb128 0x3
 2184 01ff 0E       		.uleb128 0xe
 2185 0200 3A       		.uleb128 0x3a
 2186 0201 0B       		.uleb128 0xb
 2187 0202 3B       		.uleb128 0x3b
 2188 0203 05       		.uleb128 0x5
 2189 0204 49       		.uleb128 0x49
 2190 0205 13       		.uleb128 0x13
 2191 0206 3F       		.uleb128 0x3f
 2192 0207 19       		.uleb128 0x19
 2193 0208 3C       		.uleb128 0x3c
 2194 0209 19       		.uleb128 0x19
 2195 020a 00       		.byte	0
 2196 020b 00       		.byte	0
 2197 020c 25       		.uleb128 0x25
 2198 020d 34       		.uleb128 0x34
 2199 020e 00       		.byte	0
 2200 020f 03       		.uleb128 0x3
 2201 0210 08       		.uleb128 0x8
 2202 0211 3A       		.uleb128 0x3a
 2203 0212 0B       		.uleb128 0xb
ARM GAS  C:\Users\Luis\AppData\Local\Temp\ccVAybnr.s 			page 40


 2204 0213 3B       		.uleb128 0x3b
 2205 0214 05       		.uleb128 0x5
 2206 0215 49       		.uleb128 0x49
 2207 0216 13       		.uleb128 0x13
 2208 0217 3F       		.uleb128 0x3f
 2209 0218 19       		.uleb128 0x19
 2210 0219 3C       		.uleb128 0x3c
 2211 021a 19       		.uleb128 0x19
 2212 021b 00       		.byte	0
 2213 021c 00       		.byte	0
 2214 021d 00       		.byte	0
 2215              		.section	.debug_aranges,"",%progbits
 2216 0000 64000000 		.4byte	0x64
 2217 0004 0200     		.2byte	0x2
 2218 0006 00000000 		.4byte	.Ldebug_info0
 2219 000a 04       		.byte	0x4
 2220 000b 00       		.byte	0
 2221 000c 0000     		.2byte	0
 2222 000e 0000     		.2byte	0
 2223 0010 00000000 		.4byte	.LFB126
 2224 0014 2A000000 		.4byte	.LFE126-.LFB126
 2225 0018 00000000 		.4byte	.LFB127
 2226 001c 14000000 		.4byte	.LFE127-.LFB127
 2227 0020 00000000 		.4byte	.LFB128
 2228 0024 1A000000 		.4byte	.LFE128-.LFB128
 2229 0028 00000000 		.4byte	.LFB129
 2230 002c 14000000 		.4byte	.LFE129-.LFB129
 2231 0030 00000000 		.4byte	.LFB130
 2232 0034 22000000 		.4byte	.LFE130-.LFB130
 2233 0038 00000000 		.4byte	.LFB260
 2234 003c 0A000000 		.4byte	.LFE260-.LFB260
 2235 0040 00000000 		.4byte	.LFB261
 2236 0044 28000000 		.4byte	.LFE261-.LFB261
 2237 0048 00000000 		.4byte	.LFB262
 2238 004c 0A000000 		.4byte	.LFE262-.LFB262
 2239 0050 00000000 		.4byte	.LFB263
 2240 0054 30000000 		.4byte	.LFE263-.LFB263
 2241 0058 00000000 		.4byte	.LFB264
 2242 005c 28000000 		.4byte	.LFE264-.LFB264
 2243 0060 00000000 		.4byte	0
 2244 0064 00000000 		.4byte	0
 2245              		.section	.debug_ranges,"",%progbits
 2246              	.Ldebug_ranges0:
 2247 0000 00000000 		.4byte	.LFB126
 2248 0004 2A000000 		.4byte	.LFE126
 2249 0008 00000000 		.4byte	.LFB127
 2250 000c 14000000 		.4byte	.LFE127
 2251 0010 00000000 		.4byte	.LFB128
 2252 0014 1A000000 		.4byte	.LFE128
 2253 0018 00000000 		.4byte	.LFB129
 2254 001c 14000000 		.4byte	.LFE129
 2255 0020 00000000 		.4byte	.LFB130
 2256 0024 22000000 		.4byte	.LFE130
 2257 0028 00000000 		.4byte	.LFB260
 2258 002c 0A000000 		.4byte	.LFE260
 2259 0030 00000000 		.4byte	.LFB261
 2260 0034 28000000 		.4byte	.LFE261
ARM GAS  C:\Users\Luis\AppData\Local\Temp\ccVAybnr.s 			page 41


 2261 0038 00000000 		.4byte	.LFB262
 2262 003c 0A000000 		.4byte	.LFE262
 2263 0040 00000000 		.4byte	.LFB263
 2264 0044 30000000 		.4byte	.LFE263
 2265 0048 00000000 		.4byte	.LFB264
 2266 004c 28000000 		.4byte	.LFE264
 2267 0050 00000000 		.4byte	0
 2268 0054 00000000 		.4byte	0
 2269              		.section	.debug_line,"",%progbits
 2270              	.Ldebug_line0:
 2271 0000 A7020000 		.section	.debug_str,"MS",%progbits,1
 2271      0200CA01 
 2271      00000201 
 2271      FB0E0D00 
 2271      01010101 
 2272              	.LASF104:
 2273 0000 74625F70 		.ascii	"tb_ptr\000"
 2273      747200
 2274              	.LASF51:
 2275 0007 72656164 		.ascii	"ready_list_t\000"
 2275      795F6C69 
 2275      73745F74 
 2275      00
 2276              	.LASF89:
 2277 0014 44494552 		.ascii	"DIER\000"
 2277      00
 2278              	.LASF122:
 2279 0019 77747472 		.ascii	"wttrp\000"
 2279      7000
 2280              	.LASF119:
 2281 001f 7264796D 		.ascii	"rdymsg\000"
 2281      736700
 2282              	.LASF11:
 2283 0026 75696E74 		.ascii	"uint64_t\000"
 2283      36345F74 
 2283      00
 2284              	.LASF81:
 2285 002f 6B65726E 		.ascii	"kernel_stats\000"
 2285      656C5F73 
 2285      74617473 
 2285      00
 2286              	.LASF87:
 2287 003c 706F7274 		.ascii	"port_intctx\000"
 2287      5F696E74 
 2287      63747800 
 2288              	.LASF50:
 2289 0048 63685F74 		.ascii	"ch_threads_queue\000"
 2289      68726561 
 2289      64735F71 
 2289      75657565 
 2289      00
 2290              	.LASF70:
 2291 0059 73797374 		.ascii	"system_debug_t\000"
 2291      656D5F64 
 2291      65627567 
 2291      5F7400
 2292              	.LASF110:
ARM GAS  C:\Users\Luis\AppData\Local\Temp\ccVAybnr.s 			page 42


 2293 0068 776F7273 		.ascii	"worst\000"
 2293      7400
 2294              	.LASF113:
 2295 006e 74696D65 		.ascii	"time_measurement_t\000"
 2295      5F6D6561 
 2295      73757265 
 2295      6D656E74 
 2295      5F7400
 2296              	.LASF12:
 2297 0081 6C6F6E67 		.ascii	"long long unsigned int\000"
 2297      206C6F6E 
 2297      6720756E 
 2297      7369676E 
 2297      65642069 
 2298              	.LASF106:
 2299 0098 63685F74 		.ascii	"ch_trace_buffer_t\000"
 2299      72616365 
 2299      5F627566 
 2299      6665725F 
 2299      7400
 2300              	.LASF101:
 2301 00aa 73655F73 		.ascii	"se_state\000"
 2301      74617465 
 2301      00
 2302              	.LASF120:
 2303 00b3 65786974 		.ascii	"exitcode\000"
 2303      636F6465 
 2303      00
 2304              	.LASF80:
 2305 00bc 6D61696E 		.ascii	"mainthread\000"
 2305      74687265 
 2305      616400
 2306              	.LASF67:
 2307 00c7 76697274 		.ascii	"virtual_timers_list_t\000"
 2307      75616C5F 
 2307      74696D65 
 2307      72735F6C 
 2307      6973745F 
 2308              	.LASF147:
 2309 00dd 49544D5F 		.ascii	"ITM_RxBuffer\000"
 2309      52784275 
 2309      66666572 
 2309      00
 2310              	.LASF93:
 2311 00ea 42445452 		.ascii	"BDTR\000"
 2311      00
 2312              	.LASF14:
 2313 00ef 72747469 		.ascii	"rttime_t\000"
 2313      6D655F74 
 2313      00
 2314              	.LASF27:
 2315 00f8 705F7072 		.ascii	"p_prio\000"
 2315      696F00
 2316              	.LASF90:
 2317 00ff 43434D52 		.ascii	"CCMR1\000"
 2317      3100
 2318              	.LASF91:
ARM GAS  C:\Users\Luis\AppData\Local\Temp\ccVAybnr.s 			page 43


 2319 0105 43434D52 		.ascii	"CCMR2\000"
 2319      3200
 2320              	.LASF95:
 2321 010b 43434D52 		.ascii	"CCMR3\000"
 2321      3300
 2322              	.LASF1:
 2323 0111 7369676E 		.ascii	"signed char\000"
 2323      65642063 
 2323      68617200 
 2324              	.LASF98:
 2325 011d 73655F74 		.ascii	"se_time\000"
 2325      696D6500 
 2326              	.LASF130:
 2327 0125 6D5F7175 		.ascii	"m_queue\000"
 2327      65756500 
 2328              	.LASF79:
 2329 012d 76746C69 		.ascii	"vtlist\000"
 2329      737400
 2330              	.LASF77:
 2331 0134 63685F73 		.ascii	"ch_system\000"
 2331      79737465 
 2331      6D00
 2332              	.LASF7:
 2333 013e 6C6F6E67 		.ascii	"long int\000"
 2333      20696E74 
 2333      00
 2334              	.LASF15:
 2335 0147 746D6F64 		.ascii	"tmode_t\000"
 2335      655F7400 
 2336              	.LASF16:
 2337 014f 74737461 		.ascii	"tstate_t\000"
 2337      74655F74 
 2337      00
 2338              	.LASF92:
 2339 0158 43434552 		.ascii	"CCER\000"
 2339      00
 2340              	.LASF99:
 2341 015d 73655F74 		.ascii	"se_tp\000"
 2341      7000
 2342              	.LASF10:
 2343 0163 6C6F6E67 		.ascii	"long long int\000"
 2343      206C6F6E 
 2343      6720696E 
 2343      7400
 2344              	.LASF29:
 2345 0171 705F6E65 		.ascii	"p_newer\000"
 2345      77657200 
 2346              	.LASF127:
 2347 0179 735F7175 		.ascii	"s_queue\000"
 2347      65756500 
 2348              	.LASF4:
 2349 0181 73686F72 		.ascii	"short unsigned int\000"
 2349      7420756E 
 2349      7369676E 
 2349      65642069 
 2349      6E7400
 2350              	.LASF140:
ARM GAS  C:\Users\Luis\AppData\Local\Temp\ccVAybnr.s 			page 44


 2351 0194 73745F6C 		.ascii	"st_lld_is_alarm_active\000"
 2351      6C645F69 
 2351      735F616C 
 2351      61726D5F 
 2351      61637469 
 2352              	.LASF103:
 2353 01ab 74625F73 		.ascii	"tb_size\000"
 2353      697A6500 
 2354              	.LASF56:
 2355 01b3 725F6E65 		.ascii	"r_newer\000"
 2355      77657200 
 2356              	.LASF42:
 2357 01bb 705F6D70 		.ascii	"p_mpool\000"
 2357      6F6F6C00 
 2358              	.LASF84:
 2359 01c3 72656761 		.ascii	"regarm_t\000"
 2359      726D5F74 
 2359      00
 2360              	.LASF63:
 2361 01cc 76745F70 		.ascii	"vt_prev\000"
 2361      72657600 
 2362              	.LASF150:
 2363 01d4 433A5C55 		.ascii	"C:\\Users\\Luis\\git\\DSP-Library-Lanin\\examples\\"
 2363      73657273 
 2363      5C4C7569 
 2363      735C6769 
 2363      745C4453 
 2364 0201 53544D33 		.ascii	"STM32F407_EMTECH-LWIP\000"
 2364      32463430 
 2364      375F454D 
 2364      54454348 
 2364      2D4C5749 
 2365              	.LASF71:
 2366 0217 63685F73 		.ascii	"ch_system_debug\000"
 2366      79737465 
 2366      6D5F6465 
 2366      62756700 
 2367              	.LASF134:
 2368 0227 6D757465 		.ascii	"mutex_t\000"
 2368      785F7400 
 2369              	.LASF74:
 2370 022f 6C6F636B 		.ascii	"lock_cnt\000"
 2370      5F636E74 
 2370      00
 2371              	.LASF82:
 2372 0238 69646C65 		.ascii	"idle_thread_wa\000"
 2372      5F746872 
 2372      6561645F 
 2372      776100
 2373              	.LASF21:
 2374 0247 636E745F 		.ascii	"cnt_t\000"
 2374      7400
 2375              	.LASF32:
 2376 024d 705F7374 		.ascii	"p_stklimit\000"
 2376      6B6C696D 
 2376      697400
 2377              	.LASF0:
ARM GAS  C:\Users\Luis\AppData\Local\Temp\ccVAybnr.s 			page 45


 2378 0258 756E7369 		.ascii	"unsigned int\000"
 2378      676E6564 
 2378      20696E74 
 2378      00
 2379              	.LASF62:
 2380 0265 76745F6E 		.ascii	"vt_next\000"
 2380      65787400 
 2381              	.LASF123:
 2382 026d 77747365 		.ascii	"wtsemp\000"
 2382      6D7000
 2383              	.LASF37:
 2384 0274 705F6D73 		.ascii	"p_msgqueue\000"
 2384      67717565 
 2384      756500
 2385              	.LASF44:
 2386 027f 746C7350 		.ascii	"tlsPtr\000"
 2386      747200
 2387              	.LASF114:
 2388 0286 6E5F6972 		.ascii	"n_irq\000"
 2388      7100
 2389              	.LASF128:
 2390 028c 735F636E 		.ascii	"s_cnt\000"
 2390      7400
 2391              	.LASF88:
 2392 0292 534D4352 		.ascii	"SMCR\000"
 2392      00
 2393              	.LASF118:
 2394 0297 6B65726E 		.ascii	"kernel_stats_t\000"
 2394      656C5F73 
 2394      74617473 
 2394      5F7400
 2395              	.LASF47:
 2396 02a6 63685F74 		.ascii	"ch_thread\000"
 2396      68726561 
 2396      6400
 2397              	.LASF19:
 2398 02b0 6D73675F 		.ascii	"msg_t\000"
 2398      7400
 2399              	.LASF111:
 2400 02b6 6C617374 		.ascii	"last\000"
 2400      00
 2401              	.LASF22:
 2402 02bb 75636E74 		.ascii	"ucnt_t\000"
 2402      5F7400
 2403              	.LASF76:
 2404 02c2 63685F73 		.ascii	"ch_system_t\000"
 2404      79737465 
 2404      6D5F7400 
 2405              	.LASF97:
 2406 02ce 73746D33 		.ascii	"stm32_tim_t\000"
 2406      325F7469 
 2406      6D5F7400 
 2407              	.LASF117:
 2408 02da 6D5F6372 		.ascii	"m_crit_isr\000"
 2408      69745F69 
 2408      737200
 2409              	.LASF52:
ARM GAS  C:\Users\Luis\AppData\Local\Temp\ccVAybnr.s 			page 46


 2410 02e5 63685F72 		.ascii	"ch_ready_list\000"
 2410      65616479 
 2410      5F6C6973 
 2410      7400
 2411              	.LASF20:
 2412 02f3 6576656E 		.ascii	"eventmask_t\000"
 2412      746D6173 
 2412      6B5F7400 
 2413              	.LASF136:
 2414 02ff 73745F6C 		.ascii	"st_lld_start_alarm\000"
 2414      6C645F73 
 2414      74617274 
 2414      5F616C61 
 2414      726D00
 2415              	.LASF85:
 2416 0312 73746B61 		.ascii	"stkalign_t\000"
 2416      6C69676E 
 2416      5F7400
 2417              	.LASF36:
 2418 031d 705F7761 		.ascii	"p_waiting\000"
 2418      6974696E 
 2418      6700
 2419              	.LASF83:
 2420 0327 73697A65 		.ascii	"sizetype\000"
 2420      74797065 
 2420      00
 2421              	.LASF45:
 2422 0330 74687265 		.ascii	"thread_reference_t\000"
 2422      61645F72 
 2422      65666572 
 2422      656E6365 
 2422      5F7400
 2423              	.LASF68:
 2424 0343 63685F76 		.ascii	"ch_virtual_timers_list\000"
 2424      69727475 
 2424      616C5F74 
 2424      696D6572 
 2424      735F6C69 
 2425              	.LASF102:
 2426 035a 63685F73 		.ascii	"ch_swc_event_t\000"
 2426      77635F65 
 2426      76656E74 
 2426      5F7400
 2427              	.LASF69:
 2428 0369 76745F6C 		.ascii	"vt_lasttime\000"
 2428      61737474 
 2428      696D6500 
 2429              	.LASF30:
 2430 0375 705F6F6C 		.ascii	"p_older\000"
 2430      64657200 
 2431              	.LASF142:
 2432 037d 7374496E 		.ascii	"stInit\000"
 2432      697400
 2433              	.LASF55:
 2434 0384 725F6374 		.ascii	"r_ctx\000"
 2434      7800
 2435              	.LASF108:
ARM GAS  C:\Users\Luis\AppData\Local\Temp\ccVAybnr.s 			page 47


 2436 038a 746D5F63 		.ascii	"tm_calibration_t\000"
 2436      616C6962 
 2436      72617469 
 2436      6F6E5F74 
 2436      00
 2437              	.LASF138:
 2438 039b 74696D65 		.ascii	"time\000"
 2438      00
 2439              	.LASF58:
 2440 03a0 725F6375 		.ascii	"r_current\000"
 2440      7272656E 
 2440      7400
 2441              	.LASF57:
 2442 03aa 725F6F6C 		.ascii	"r_older\000"
 2442      64657200 
 2443              	.LASF112:
 2444 03b2 63756D75 		.ascii	"cumulative\000"
 2444      6C617469 
 2444      766500
 2445              	.LASF17:
 2446 03bd 74726566 		.ascii	"trefs_t\000"
 2446      735F7400 
 2447              	.LASF105:
 2448 03c5 74625F62 		.ascii	"tb_buffer\000"
 2448      75666665 
 2448      7200
 2449              	.LASF60:
 2450 03cf 76697274 		.ascii	"virtual_timer_t\000"
 2450      75616C5F 
 2450      74696D65 
 2450      725F7400 
 2451              	.LASF26:
 2452 03df 705F7072 		.ascii	"p_prev\000"
 2452      657600
 2453              	.LASF18:
 2454 03e6 74707269 		.ascii	"tprio_t\000"
 2454      6F5F7400 
 2455              	.LASF115:
 2456 03ee 6E5F6374 		.ascii	"n_ctxswc\000"
 2456      78737763 
 2456      00
 2457              	.LASF135:
 2458 03f7 5F426F6F 		.ascii	"_Bool\000"
 2458      6C00
 2459              	.LASF6:
 2460 03fd 696E7433 		.ascii	"int32_t\000"
 2460      325F7400 
 2461              	.LASF2:
 2462 0405 756E7369 		.ascii	"unsigned char\000"
 2462      676E6564 
 2462      20636861 
 2462      7200
 2463              	.LASF40:
 2464 0413 705F6D74 		.ascii	"p_mtxlist\000"
 2464      786C6973 
 2464      7400
 2465              	.LASF3:
ARM GAS  C:\Users\Luis\AppData\Local\Temp\ccVAybnr.s 			page 48


 2466 041d 73686F72 		.ascii	"short int\000"
 2466      7420696E 
 2466      7400
 2467              	.LASF33:
 2468 0427 705F7374 		.ascii	"p_state\000"
 2468      61746500 
 2469              	.LASF54:
 2470 042f 725F7072 		.ascii	"r_prio\000"
 2470      696F00
 2471              	.LASF125:
 2472 0436 65776D61 		.ascii	"ewmask\000"
 2472      736B00
 2473              	.LASF25:
 2474 043d 705F6E65 		.ascii	"p_next\000"
 2474      787400
 2475              	.LASF5:
 2476 0444 75696E74 		.ascii	"uint8_t\000"
 2476      385F7400 
 2477              	.LASF146:
 2478 044c 5F5F6675 		.ascii	"__func__\000"
 2478      6E635F5F 
 2478      00
 2479              	.LASF43:
 2480 0455 705F7374 		.ascii	"p_stats\000"
 2480      61747300 
 2481              	.LASF61:
 2482 045d 63685F76 		.ascii	"ch_virtual_timer\000"
 2482      69727475 
 2482      616C5F74 
 2482      696D6572 
 2482      00
 2483              	.LASF139:
 2484 046e 73745F6C 		.ascii	"st_lld_get_alarm\000"
 2484      6C645F67 
 2484      65745F61 
 2484      6C61726D 
 2484      00
 2485              	.LASF126:
 2486 047f 63685F73 		.ascii	"ch_semaphore\000"
 2486      656D6170 
 2486      686F7265 
 2486      00
 2487              	.LASF96:
 2488 048c 43435852 		.ascii	"CCXR\000"
 2488      00
 2489              	.LASF39:
 2490 0491 705F6570 		.ascii	"p_epending\000"
 2490      656E6469 
 2490      6E6700
 2491              	.LASF8:
 2492 049c 75696E74 		.ascii	"uint32_t\000"
 2492      33325F74 
 2492      00
 2493              	.LASF124:
 2494 04a5 77746D74 		.ascii	"wtmtxp\000"
 2494      787000
 2495              	.LASF53:
ARM GAS  C:\Users\Luis\AppData\Local\Temp\ccVAybnr.s 			page 49


 2496 04ac 725F7175 		.ascii	"r_queue\000"
 2496      65756500 
 2497              	.LASF64:
 2498 04b4 76745F64 		.ascii	"vt_delta\000"
 2498      656C7461 
 2498      00
 2499              	.LASF48:
 2500 04bd 63685F74 		.ascii	"ch_threads_list\000"
 2500      68726561 
 2500      64735F6C 
 2500      69737400 
 2501              	.LASF9:
 2502 04cd 6C6F6E67 		.ascii	"long unsigned int\000"
 2502      20756E73 
 2502      69676E65 
 2502      6420696E 
 2502      7400
 2503              	.LASF143:
 2504 04df 73745374 		.ascii	"stStopAlarm\000"
 2504      6F70416C 
 2504      61726D00 
 2505              	.LASF133:
 2506 04eb 63686172 		.ascii	"char\000"
 2506      00
 2507              	.LASF94:
 2508 04f0 444D4152 		.ascii	"DMAR\000"
 2508      00
 2509              	.LASF148:
 2510 04f5 474E5520 		.ascii	"GNU C 4.8.3 20131129 (release) [ARM/embedded-4_8-br"
 2510      4320342E 
 2510      382E3320 
 2510      32303133 
 2510      31313239 
 2511 0528 616E6368 		.ascii	"anch revision 205641] -mcpu=cortex-m4 -mapcs-frame "
 2511      20726576 
 2511      6973696F 
 2511      6E203230 
 2511      35363431 
 2512 055b 2D6D6E6F 		.ascii	"-mno-thumb-interwork -mthumb -ggdb -O0 -falign-func"
 2512      2D746875 
 2512      6D622D69 
 2512      6E746572 
 2512      776F726B 
 2513 058e 74696F6E 		.ascii	"tions=16 -ffunction-sections -fdata-sections -fno-c"
 2513      733D3136 
 2513      202D6666 
 2513      756E6374 
 2513      696F6E2D 
 2514 05c1 6F6D6D6F 		.ascii	"ommon\000"
 2514      6E00
 2515              	.LASF109:
 2516 05c7 62657374 		.ascii	"best\000"
 2516      00
 2517              	.LASF132:
 2518 05cc 6D5F6E65 		.ascii	"m_next\000"
 2518      787400
 2519              	.LASF23:
ARM GAS  C:\Users\Luis\AppData\Local\Temp\ccVAybnr.s 			page 50


 2520 05d3 73797374 		.ascii	"systime_t\000"
 2520      696D655F 
 2520      7400
 2521              	.LASF41:
 2522 05dd 705F7265 		.ascii	"p_realprio\000"
 2522      616C7072 
 2522      696F00
 2523              	.LASF59:
 2524 05e8 76746675 		.ascii	"vtfunc_t\000"
 2524      6E635F74 
 2524      00
 2525              	.LASF72:
 2526 05f1 70616E69 		.ascii	"panic_msg\000"
 2526      635F6D73 
 2526      6700
 2527              	.LASF107:
 2528 05fb 6F666673 		.ascii	"offset\000"
 2528      657400
 2529              	.LASF144:
 2530 0602 73745374 		.ascii	"stStartAlarm\000"
 2530      61727441 
 2530      6C61726D 
 2530      00
 2531              	.LASF149:
 2532 060f 2E2E2F2E 		.ascii	"../../ChibiOS/os/hal/src/st.c\000"
 2532      2E2F4368 
 2532      6962694F 
 2532      532F6F73 
 2532      2F68616C 
 2533              	.LASF86:
 2534 062d 636F6E74 		.ascii	"context\000"
 2534      65787400 
 2535              	.LASF38:
 2536 0635 705F6D73 		.ascii	"p_msg\000"
 2536      6700
 2537              	.LASF13:
 2538 063b 7274636E 		.ascii	"rtcnt_t\000"
 2538      745F7400 
 2539              	.LASF151:
 2540 0643 73745F6C 		.ascii	"st_lld_stop_alarm\000"
 2540      6C645F73 
 2540      746F705F 
 2540      616C6172 
 2540      6D00
 2541              	.LASF66:
 2542 0655 76745F70 		.ascii	"vt_par\000"
 2542      617200
 2543              	.LASF49:
 2544 065c 74687265 		.ascii	"threads_queue_t\000"
 2544      6164735F 
 2544      71756575 
 2544      655F7400 
 2545              	.LASF129:
 2546 066c 63685F6D 		.ascii	"ch_mutex\000"
 2546      75746578 
 2546      00
 2547              	.LASF35:
ARM GAS  C:\Users\Luis\AppData\Local\Temp\ccVAybnr.s 			page 51


 2548 0675 705F7265 		.ascii	"p_refs\000"
 2548      667300
 2549              	.LASF73:
 2550 067c 6973725F 		.ascii	"isr_cnt\000"
 2550      636E7400 
 2551              	.LASF24:
 2552 0684 74687265 		.ascii	"thread_t\000"
 2552      61645F74 
 2552      00
 2553              	.LASF78:
 2554 068d 726C6973 		.ascii	"rlist\000"
 2554      7400
 2555              	.LASF145:
 2556 0693 73745365 		.ascii	"stSetAlarm\000"
 2556      74416C61 
 2556      726D00
 2557              	.LASF152:
 2558 069e 73744765 		.ascii	"stGetAlarm\000"
 2558      74416C61 
 2558      726D00
 2559              	.LASF121:
 2560 06a9 77746F62 		.ascii	"wtobjp\000"
 2560      6A7000
 2561              	.LASF31:
 2562 06b0 705F6E61 		.ascii	"p_name\000"
 2562      6D6500
 2563              	.LASF46:
 2564 06b7 74687265 		.ascii	"threads_list_t\000"
 2564      6164735F 
 2564      6C697374 
 2564      5F7400
 2565              	.LASF141:
 2566 06c6 61627374 		.ascii	"abstime\000"
 2566      696D6500 
 2567              	.LASF75:
 2568 06ce 74726163 		.ascii	"trace_buffer\000"
 2568      655F6275 
 2568      66666572 
 2568      00
 2569              	.LASF34:
 2570 06db 705F666C 		.ascii	"p_flags\000"
 2570      61677300 
 2571              	.LASF137:
 2572 06e3 73745F6C 		.ascii	"st_lld_set_alarm\000"
 2572      6C645F73 
 2572      65745F61 
 2572      6C61726D 
 2572      00
 2573              	.LASF116:
 2574 06f4 6D5F6372 		.ascii	"m_crit_thd\000"
 2574      69745F74 
 2574      686400
 2575              	.LASF131:
 2576 06ff 6D5F6F77 		.ascii	"m_owner\000"
 2576      6E657200 
 2577              	.LASF100:
 2578 0707 73655F77 		.ascii	"se_wtobjp\000"
ARM GAS  C:\Users\Luis\AppData\Local\Temp\ccVAybnr.s 			page 52


 2578      746F626A 
 2578      7000
 2579              	.LASF28:
 2580 0711 705F6374 		.ascii	"p_ctx\000"
 2580      7800
 2581              	.LASF65:
 2582 0717 76745F66 		.ascii	"vt_func\000"
 2582      756E6300 
 2583              		.ident	"GCC: (GNU Tools for ARM Embedded Processors) 4.8.3 20131129 (release) [ARM/embedded-4_8-br
ARM GAS  C:\Users\Luis\AppData\Local\Temp\ccVAybnr.s 			page 53


DEFINED SYMBOLS
                            *ABS*:00000000 st.c
C:\Users\Luis\AppData\Local\Temp\ccVAybnr.s:19     .text.st_lld_start_alarm:00000000 $t
C:\Users\Luis\AppData\Local\Temp\ccVAybnr.s:24     .text.st_lld_start_alarm:00000000 st_lld_start_alarm
C:\Users\Luis\AppData\Local\Temp\ccVAybnr.s:62     .text.st_lld_stop_alarm:00000000 $t
C:\Users\Luis\AppData\Local\Temp\ccVAybnr.s:67     .text.st_lld_stop_alarm:00000000 st_lld_stop_alarm
C:\Users\Luis\AppData\Local\Temp\ccVAybnr.s:92     .text.st_lld_set_alarm:00000000 $t
C:\Users\Luis\AppData\Local\Temp\ccVAybnr.s:97     .text.st_lld_set_alarm:00000000 st_lld_set_alarm
C:\Users\Luis\AppData\Local\Temp\ccVAybnr.s:126    .text.st_lld_get_alarm:00000000 $t
C:\Users\Luis\AppData\Local\Temp\ccVAybnr.s:131    .text.st_lld_get_alarm:00000000 st_lld_get_alarm
C:\Users\Luis\AppData\Local\Temp\ccVAybnr.s:156    .text.st_lld_is_alarm_active:00000000 $t
C:\Users\Luis\AppData\Local\Temp\ccVAybnr.s:161    .text.st_lld_is_alarm_active:00000000 st_lld_is_alarm_active
C:\Users\Luis\AppData\Local\Temp\ccVAybnr.s:192    .text.stInit:00000000 $t
C:\Users\Luis\AppData\Local\Temp\ccVAybnr.s:198    .text.stInit:00000000 stInit
C:\Users\Luis\AppData\Local\Temp\ccVAybnr.s:219    .text.stStartAlarm:00000000 $t
C:\Users\Luis\AppData\Local\Temp\ccVAybnr.s:225    .text.stStartAlarm:00000000 stStartAlarm
C:\Users\Luis\AppData\Local\Temp\ccVAybnr.s:260    .text.stStartAlarm:00000024 $d
C:\Users\Luis\AppData\Local\Temp\ccVAybnr.s:385    .rodata.__func__.7909:00000000 __func__.7909
C:\Users\Luis\AppData\Local\Temp\ccVAybnr.s:265    .text.stStopAlarm:00000000 $t
C:\Users\Luis\AppData\Local\Temp\ccVAybnr.s:271    .text.stStopAlarm:00000000 stStopAlarm
C:\Users\Luis\AppData\Local\Temp\ccVAybnr.s:291    .text.stSetAlarm:00000000 $t
C:\Users\Luis\AppData\Local\Temp\ccVAybnr.s:297    .text.stSetAlarm:00000000 stSetAlarm
C:\Users\Luis\AppData\Local\Temp\ccVAybnr.s:334    .text.stSetAlarm:0000002c $d
C:\Users\Luis\AppData\Local\Temp\ccVAybnr.s:391    .rodata.__func__.7916:00000000 __func__.7916
C:\Users\Luis\AppData\Local\Temp\ccVAybnr.s:339    .text.stGetAlarm:00000000 $t
C:\Users\Luis\AppData\Local\Temp\ccVAybnr.s:345    .text.stGetAlarm:00000000 stGetAlarm
C:\Users\Luis\AppData\Local\Temp\ccVAybnr.s:377    .text.stGetAlarm:00000024 $d
C:\Users\Luis\AppData\Local\Temp\ccVAybnr.s:397    .rodata.__func__.7920:00000000 __func__.7920
C:\Users\Luis\AppData\Local\Temp\ccVAybnr.s:382    .rodata.__func__.7909:00000000 $d
C:\Users\Luis\AppData\Local\Temp\ccVAybnr.s:388    .rodata.__func__.7916:00000000 $d
C:\Users\Luis\AppData\Local\Temp\ccVAybnr.s:394    .rodata.__func__.7920:00000000 $d
                     .debug_frame:00000010 $d
C:\Users\Luis\AppData\Local\Temp\ccVAybnr.s:264    .text.stStartAlarm:00000028 $t
C:\Users\Luis\AppData\Local\Temp\ccVAybnr.s:381    .text.stGetAlarm:00000028 $t

UNDEFINED SYMBOLS
st_lld_init
chSysHalt
