ARM GAS  C:\Users\Luis\AppData\Local\Temp\ccVAybnr.s 			page 1


   1              		.syntax unified
   2              		.cpu cortex-m4
   3              		.fpu softvfp
   4              		.eabi_attribute 20, 1
   5              		.eabi_attribute 21, 1
   6              		.eabi_attribute 23, 3
   7              		.eabi_attribute 24, 1
   8              		.eabi_attribute 25, 1
   9              		.eabi_attribute 26, 1
  10              		.eabi_attribute 30, 6
  11              		.eabi_attribute 34, 1
  12              		.eabi_attribute 18, 4
  13              		.thumb
  14              		.file	"st.c"
  15              		.text
  16              	.Ltext0:
  17              		.cfi_sections	.debug_frame
  18              		.section	.text.st_lld_start_alarm,"ax",%progbits
  19              		.align	2
  20              		.p2align 4,,15
  21              		.thumb
  22              		.thumb_func
  23              		.type	st_lld_start_alarm, %function
  24              	st_lld_start_alarm:
  25              	.LFB126:
  26              		.file 1 "../../ChibiOS/os/hal/ports/STM32/LLD/TIMv1/st_lld.h"
  27              		.loc 1 141 0
  28              		.cfi_startproc
  29              		@ args = 0, pretend = 0, frame = 8
  30              		@ frame_needed = 1, uses_anonymous_args = 0
  31              		@ link register save eliminated.
  32 0000 80B4     		push	{r7}
  33              		.cfi_def_cfa_offset 4
  34              		.cfi_offset 7, -4
  35 0002 83B0     		sub	sp, sp, #12
  36              		.cfi_def_cfa_offset 16
  37 0004 00AF     		add	r7, sp, #0
  38              		.cfi_def_cfa_register 7
  39 0006 7860     		str	r0, [r7, #4]
  40              		.loc 1 143 0
  41 0008 4FF08043 		mov	r3, #1073741824
  42 000c 7A68     		ldr	r2, [r7, #4]
  43 000e 5A63     		str	r2, [r3, #52]
  44              		.loc 1 144 0
  45 0010 4FF08043 		mov	r3, #1073741824
  46 0014 0022     		movs	r2, #0
  47 0016 1A61     		str	r2, [r3, #16]
  48              		.loc 1 145 0
  49 0018 4FF08043 		mov	r3, #1073741824
  50 001c 0222     		movs	r2, #2
  51 001e DA60     		str	r2, [r3, #12]
  52              		.loc 1 146 0
  53 0020 0C37     		adds	r7, r7, #12
  54 0022 BD46     		mov	sp, r7
  55              		@ sp needed
  56 0024 5DF8047B 		ldr	r7, [sp], #4
  57 0028 7047     		bx	lr
ARM GAS  C:\Users\Luis\AppData\Local\Temp\ccVAybnr.s 			page 2


  58              		.cfi_endproc
  59              	.LFE126:
  60              		.size	st_lld_start_alarm, .-st_lld_start_alarm
  61 002a 00BFAFF3 		.section	.text.st_lld_stop_alarm,"ax",%progbits
  61      0080
  62              		.align	2
  63              		.p2align 4,,15
  64              		.thumb
  65              		.thumb_func
  66              		.type	st_lld_stop_alarm, %function
  67              	st_lld_stop_alarm:
  68              	.LFB127:
  69              		.loc 1 153 0
  70              		.cfi_startproc
  71              		@ args = 0, pretend = 0, frame = 0
  72              		@ frame_needed = 1, uses_anonymous_args = 0
  73              		@ link register save eliminated.
  74 0000 80B4     		push	{r7}
  75              		.cfi_def_cfa_offset 4
  76              		.cfi_offset 7, -4
  77 0002 00AF     		add	r7, sp, #0
  78              		.cfi_def_cfa_register 7
  79              		.loc 1 155 0
  80 0004 4FF08043 		mov	r3, #1073741824
  81 0008 0022     		movs	r2, #0
  82 000a DA60     		str	r2, [r3, #12]
  83              		.loc 1 156 0
  84 000c BD46     		mov	sp, r7
  85              		@ sp needed
  86 000e 5DF8047B 		ldr	r7, [sp], #4
  87 0012 7047     		bx	lr
  88              		.cfi_endproc
  89              	.LFE127:
  90              		.size	st_lld_stop_alarm, .-st_lld_stop_alarm
  91 0014 AFF30080 		.section	.text.st_lld_set_alarm,"ax",%progbits
  91      AFF30080 
  91      AFF30080 
  92              		.align	2
  93              		.p2align 4,,15
  94              		.thumb
  95              		.thumb_func
  96              		.type	st_lld_set_alarm, %function
  97              	st_lld_set_alarm:
  98              	.LFB128:
  99              		.loc 1 165 0
 100              		.cfi_startproc
 101              		@ args = 0, pretend = 0, frame = 8
 102              		@ frame_needed = 1, uses_anonymous_args = 0
 103              		@ link register save eliminated.
 104 0000 80B4     		push	{r7}
 105              		.cfi_def_cfa_offset 4
 106              		.cfi_offset 7, -4
 107 0002 83B0     		sub	sp, sp, #12
 108              		.cfi_def_cfa_offset 16
 109 0004 00AF     		add	r7, sp, #0
 110              		.cfi_def_cfa_register 7
 111 0006 7860     		str	r0, [r7, #4]
ARM GAS  C:\Users\Luis\AppData\Local\Temp\ccVAybnr.s 			page 3


 112              		.loc 1 167 0
 113 0008 4FF08043 		mov	r3, #1073741824
 114 000c 7A68     		ldr	r2, [r7, #4]
 115 000e 5A63     		str	r2, [r3, #52]
 116              		.loc 1 168 0
 117 0010 0C37     		adds	r7, r7, #12
 118 0012 BD46     		mov	sp, r7
 119              		@ sp needed
 120 0014 5DF8047B 		ldr	r7, [sp], #4
 121 0018 7047     		bx	lr
 122              		.cfi_endproc
 123              	.LFE128:
 124              		.size	st_lld_set_alarm, .-st_lld_set_alarm
 125 001a 00BFAFF3 		.section	.text.st_lld_get_alarm,"ax",%progbits
 125      0080
 126              		.align	2
 127              		.p2align 4,,15
 128              		.thumb
 129              		.thumb_func
 130              		.type	st_lld_get_alarm, %function
 131              	st_lld_get_alarm:
 132              	.LFB129:
 133              		.loc 1 177 0
 134              		.cfi_startproc
 135              		@ args = 0, pretend = 0, frame = 0
 136              		@ frame_needed = 1, uses_anonymous_args = 0
 137              		@ link register save eliminated.
 138 0000 80B4     		push	{r7}
 139              		.cfi_def_cfa_offset 4
 140              		.cfi_offset 7, -4
 141 0002 00AF     		add	r7, sp, #0
 142              		.cfi_def_cfa_register 7
 143              		.loc 1 179 0
 144 0004 4FF08043 		mov	r3, #1073741824
 145 0008 5B6B     		ldr	r3, [r3, #52]
 146              		.loc 1 180 0
 147 000a 1846     		mov	r0, r3
 148 000c BD46     		mov	sp, r7
 149              		@ sp needed
 150 000e 5DF8047B 		ldr	r7, [sp], #4
 151 0012 7047     		bx	lr
 152              		.cfi_endproc
 153              	.LFE129:
 154              		.size	st_lld_get_alarm, .-st_lld_get_alarm
 155 0014 AFF30080 		.section	.text.st_lld_is_alarm_active,"ax",%progbits
 155      AFF30080 
 155      AFF30080 
 156              		.align	2
 157              		.p2align 4,,15
 158              		.thumb
 159              		.thumb_func
 160              		.type	st_lld_is_alarm_active, %function
 161              	st_lld_is_alarm_active:
 162              	.LFB130:
 163              		.loc 1 191 0
 164              		.cfi_startproc
 165              		@ args = 0, pretend = 0, frame = 0
ARM GAS  C:\Users\Luis\AppData\Local\Temp\ccVAybnr.s 			page 4


 166              		@ frame_needed = 1, uses_anonymous_args = 0
 167              		@ link register save eliminated.
 168 0000 80B4     		push	{r7}
 169              		.cfi_def_cfa_offset 4
 170              		.cfi_offset 7, -4
 171 0002 00AF     		add	r7, sp, #0
 172              		.cfi_def_cfa_register 7
 173              		.loc 1 193 0
 174 0004 4FF08043 		mov	r3, #1073741824
 175 0008 DB68     		ldr	r3, [r3, #12]
 176 000a 03F00203 		and	r3, r3, #2
 177 000e 002B     		cmp	r3, #0
 178 0010 0CBF     		ite	eq
 179 0012 0023     		moveq	r3, #0
 180 0014 0123     		movne	r3, #1
 181 0016 DBB2     		uxtb	r3, r3
 182              		.loc 1 194 0
 183 0018 1846     		mov	r0, r3
 184 001a BD46     		mov	sp, r7
 185              		@ sp needed
 186 001c 5DF8047B 		ldr	r7, [sp], #4
 187 0020 7047     		bx	lr
 188              		.cfi_endproc
 189              	.LFE130:
 190              		.size	st_lld_is_alarm_active, .-st_lld_is_alarm_active
 191 0022 00BFAFF3 		.section	.text.stInit,"ax",%progbits
 191      0080AFF3 
 191      0080AFF3 
 191      0080
 192              		.align	2
 193              		.p2align 4,,15
 194              		.global	stInit
 195              		.thumb
 196              		.thumb_func
 197              		.type	stInit, %function
 198              	stInit:
 199              	.LFB260:
 200              		.file 2 "../../ChibiOS/os/hal/src/st.c"
 201              		.loc 2 60 0
 202              		.cfi_startproc
 203              		@ args = 0, pretend = 0, frame = 0
 204              		@ frame_needed = 1, uses_anonymous_args = 0
 205 0000 80B5     		push	{r7, lr}
 206              		.cfi_def_cfa_offset 8
 207              		.cfi_offset 7, -8
 208              		.cfi_offset 14, -4
 209 0002 00AF     		add	r7, sp, #0
 210              		.cfi_def_cfa_register 7
 211              		.loc 2 62 0
 212 0004 FFF7FEFF 		bl	st_lld_init
 213              		.loc 2 63 0
 214 0008 80BD     		pop	{r7, pc}
 215              		.cfi_endproc
 216              	.LFE260:
 217              		.size	stInit, .-stInit
 218 000a 00BFAFF3 		.section	.text.stStartAlarm,"ax",%progbits
 218      0080
ARM GAS  C:\Users\Luis\AppData\Local\Temp\ccVAybnr.s 			page 5


 219              		.align	2
 220              		.p2align 4,,15
 221              		.global	stStartAlarm
 222              		.thumb
 223              		.thumb_func
 224              		.type	stStartAlarm, %function
 225              	stStartAlarm:
 226              	.LFB261:
 227              		.loc 2 77 0
 228              		.cfi_startproc
 229              		@ args = 0, pretend = 0, frame = 8
 230              		@ frame_needed = 1, uses_anonymous_args = 0
 231 0000 80B5     		push	{r7, lr}
 232              		.cfi_def_cfa_offset 8
 233              		.cfi_offset 7, -8
 234              		.cfi_offset 14, -4
 235 0002 82B0     		sub	sp, sp, #8
 236              		.cfi_def_cfa_offset 16
 237 0004 00AF     		add	r7, sp, #0
 238              		.cfi_def_cfa_register 7
 239 0006 7860     		str	r0, [r7, #4]
 240              		.loc 2 79 0
 241 0008 FFF7FEFF 		bl	st_lld_is_alarm_active
 242 000c 0346     		mov	r3, r0
 243 000e 002B     		cmp	r3, #0
 244 0010 02D0     		beq	.L10
 245              		.loc 2 79 0 is_stmt 0 discriminator 1
 246 0012 0448     		ldr	r0, .L11
 247 0014 FFF7FEFF 		bl	chSysHalt
 248              	.L10:
 249              		.loc 2 81 0 is_stmt 1
 250 0018 7868     		ldr	r0, [r7, #4]
 251 001a FFF7FEFF 		bl	st_lld_start_alarm
 252              		.loc 2 82 0
 253 001e 0837     		adds	r7, r7, #8
 254 0020 BD46     		mov	sp, r7
 255              		@ sp needed
 256 0022 80BD     		pop	{r7, pc}
 257              	.L12:
 258              		.align	2
 259              	.L11:
 260 0024 00000000 		.word	__func__.7909
 261              		.cfi_endproc
 262              	.LFE261:
 263              		.size	stStartAlarm, .-stStartAlarm
 264 0028 AFF30080 		.section	.text.stStopAlarm,"ax",%progbits
 264      AFF30080 
 265              		.align	2
 266              		.p2align 4,,15
 267              		.global	stStopAlarm
 268              		.thumb
 269              		.thumb_func
 270              		.type	stStopAlarm, %function
 271              	stStopAlarm:
 272              	.LFB262:
 273              		.loc 2 91 0
 274              		.cfi_startproc
ARM GAS  C:\Users\Luis\AppData\Local\Temp\ccVAybnr.s 			page 6


 275              		@ args = 0, pretend = 0, frame = 0
 276              		@ frame_needed = 1, uses_anonymous_args = 0
 277 0000 80B5     		push	{r7, lr}
 278              		.cfi_def_cfa_offset 8
 279              		.cfi_offset 7, -8
 280              		.cfi_offset 14, -4
 281 0002 00AF     		add	r7, sp, #0
 282              		.cfi_def_cfa_register 7
 283              		.loc 2 93 0
 284 0004 FFF7FEFF 		bl	st_lld_stop_alarm
 285              		.loc 2 94 0
 286 0008 80BD     		pop	{r7, pc}
 287              		.cfi_endproc
 288              	.LFE262:
 289              		.size	stStopAlarm, .-stStopAlarm
 290 000a 00BFAFF3 		.section	.text.stSetAlarm,"ax",%progbits
 290      0080
 291              		.align	2
 292              		.p2align 4,,15
 293              		.global	stSetAlarm
 294              		.thumb
 295              		.thumb_func
 296              		.type	stSetAlarm, %function
 297              	stSetAlarm:
 298              	.LFB263:
 299              		.loc 2 105 0
 300              		.cfi_startproc
 301              		@ args = 0, pretend = 0, frame = 8
 302              		@ frame_needed = 1, uses_anonymous_args = 0
 303 0000 80B5     		push	{r7, lr}
 304              		.cfi_def_cfa_offset 8
 305              		.cfi_offset 7, -8
 306              		.cfi_offset 14, -4
 307 0002 82B0     		sub	sp, sp, #8
 308              		.cfi_def_cfa_offset 16
 309 0004 00AF     		add	r7, sp, #0
 310              		.cfi_def_cfa_register 7
 311 0006 7860     		str	r0, [r7, #4]
 312              		.loc 2 107 0
 313 0008 FFF7FEFF 		bl	st_lld_is_alarm_active
 314 000c 0346     		mov	r3, r0
 315 000e 83F00103 		eor	r3, r3, #1
 316 0012 DBB2     		uxtb	r3, r3
 317 0014 002B     		cmp	r3, #0
 318 0016 02D0     		beq	.L15
 319              		.loc 2 107 0 is_stmt 0 discriminator 1
 320 0018 0448     		ldr	r0, .L16
 321 001a FFF7FEFF 		bl	chSysHalt
 322              	.L15:
 323              		.loc 2 109 0 is_stmt 1
 324 001e 7868     		ldr	r0, [r7, #4]
 325 0020 FFF7FEFF 		bl	st_lld_set_alarm
 326              		.loc 2 110 0
 327 0024 0837     		adds	r7, r7, #8
 328 0026 BD46     		mov	sp, r7
 329              		@ sp needed
 330 0028 80BD     		pop	{r7, pc}
ARM GAS  C:\Users\Luis\AppData\Local\Temp\ccVAybnr.s 			page 7


 331              	.L17:
 332 002a 00BF     		.align	2
 333              	.L16:
 334 002c 00000000 		.word	__func__.7916
 335              		.cfi_endproc
 336              	.LFE263:
 337              		.size	stSetAlarm, .-stSetAlarm
 338              		.section	.text.stGetAlarm,"ax",%progbits
 339              		.align	2
 340              		.p2align 4,,15
 341              		.global	stGetAlarm
 342              		.thumb
 343              		.thumb_func
 344              		.type	stGetAlarm, %function
 345              	stGetAlarm:
 346              	.LFB264:
 347              		.loc 2 121 0
 348              		.cfi_startproc
 349              		@ args = 0, pretend = 0, frame = 0
 350              		@ frame_needed = 1, uses_anonymous_args = 0
 351 0000 80B5     		push	{r7, lr}
 352              		.cfi_def_cfa_offset 8
 353              		.cfi_offset 7, -8
 354              		.cfi_offset 14, -4
 355 0002 00AF     		add	r7, sp, #0
 356              		.cfi_def_cfa_register 7
 357              		.loc 2 123 0
 358 0004 FFF7FEFF 		bl	st_lld_is_alarm_active
 359 0008 0346     		mov	r3, r0
 360 000a 83F00103 		eor	r3, r3, #1
 361 000e DBB2     		uxtb	r3, r3
 362 0010 002B     		cmp	r3, #0
 363 0012 02D0     		beq	.L19
 364              		.loc 2 123 0 is_stmt 0 discriminator 1
 365 0014 0348     		ldr	r0, .L21
 366 0016 FFF7FEFF 		bl	chSysHalt
 367              	.L19:
 368              		.loc 2 125 0 is_stmt 1
 369 001a FFF7FEFF 		bl	st_lld_get_alarm
 370 001e 0346     		mov	r3, r0
 371              		.loc 2 126 0
 372 0020 1846     		mov	r0, r3
 373 0022 80BD     		pop	{r7, pc}
 374              	.L22:
 375              		.align	2
 376              	.L21:
 377 0024 00000000 		.word	__func__.7920
 378              		.cfi_endproc
 379              	.LFE264:
 380              		.size	stGetAlarm, .-stGetAlarm
 381 0028 AFF30080 		.section	.rodata.__func__.7909,"a",%progbits
 381      AFF30080 
 382              		.align	2
 383              		.type	__func__.7909, %object
 384              		.size	__func__.7909, 13
 385              	__func__.7909:
 386 0000 73745374 		.ascii	"stStartAlarm\000"
ARM GAS  C:\Users\Luis\AppData\Local\Temp\ccVAybnr.s 			page 8


 386      61727441 
 386      6C61726D 
 386      00
 387 000d 000000   		.section	.rodata.__func__.7916,"a",%progbits
 388              		.align	2
 389              		.type	__func__.7916, %object
 390              		.size	__func__.7916, 11
 391              	__func__.7916:
 392 0000 73745365 		.ascii	"stSetAlarm\000"
 392      74416C61 
 392      726D00
 393 000b 00       		.section	.rodata.__func__.7920,"a",%progbits
 394              		.align	2
 395              		.type	__func__.7920, %object
 396              		.size	__func__.7920, 11
 397              	__func__.7920:
 398 0000 73744765 		.ascii	"stGetAlarm\000"
 398      74416C61 
 398      726D00
 399 000b 00       		.text
 400              	.Letext0:
 401              		.file 3 "c:\\emtechesdk\\gcc\\arm-none-eabi\\include\\stdint.h"
 402              		.file 4 "../../ChibiOS/os/rt/ports/ARMCMx/compilers/GCC/chtypes.h"
 403              		.file 5 "../../ChibiOS/os/rt/include/chsystypes.h"
 404              		.file 6 "../../ChibiOS/os/rt/include/chschd.h"
 405              		.file 7 "../../ChibiOS/os/rt/ports/ARMCMx/chcore.h"
 406              		.file 8 "../../ChibiOS/os/rt/ports/ARMCMx/chcore_v7m.h"
 407              		.file 9 "../../ChibiOS/os/hal/ports/STM32/LLD/TIMv1/stm32_tim.h"
 408              		.file 10 "../../ChibiOS/os/rt/include/chdebug.h"
 409              		.file 11 "../../ChibiOS/os/rt/include/chtm.h"
 410              		.file 12 "../../ChibiOS/os/rt/include/chstats.h"
 411              		.file 13 "../../ChibiOS/os/rt/include/chsem.h"
 412              		.file 14 "../../ChibiOS/os/rt/include/chmtx.h"
 413              		.file 15 "../../ChibiOS/os/ext/CMSIS/include/core_cm4.h"