ARM GAS  C:\Users\Luis\AppData\Local\Temp\cckKrh1B.s 			page 1


   1              		.syntax unified
   2              		.cpu cortex-m4
   3              		.fpu softvfp
   4              		.eabi_attribute 20, 1
   5              		.eabi_attribute 21, 1
   6              		.eabi_attribute 23, 3
   7              		.eabi_attribute 24, 1
   8              		.eabi_attribute 25, 1
   9              		.eabi_attribute 26, 1
  10              		.eabi_attribute 30, 6
  11              		.eabi_attribute 34, 1
  12              		.eabi_attribute 18, 4
  13              		.thumb
  14              		.file	"sys_arch.c"
  15              		.text
  16              	.Ltext0:
  17              		.cfi_sections	.debug_frame
  18              		.section	.text.port_lock,"ax",%progbits
  19              		.align	2
  20              		.p2align 4,,15
  21              		.thumb
  22              		.thumb_func
  23              		.type	port_lock, %function
  24              	port_lock:
  25              	.LFB116:
  26              		.file 1 "../../ChibiOS/os/rt/ports/ARMCMx/chcore_v7m.h"
  27              		.loc 1 444 0
  28              		.cfi_startproc
  29              		@ args = 0, pretend = 0, frame = 8
  30              		@ frame_needed = 1, uses_anonymous_args = 0
  31              		@ link register save eliminated.
  32 0000 80B4     		push	{r7}
  33              		.cfi_def_cfa_offset 4
  34              		.cfi_offset 7, -4
  35 0002 83B0     		sub	sp, sp, #12
  36              		.cfi_def_cfa_offset 16
  37 0004 00AF     		add	r7, sp, #0
  38              		.cfi_def_cfa_register 7
  39 0006 2023     		movs	r3, #32
  40 0008 7B60     		str	r3, [r7, #4]
  41              	.LBB6:
  42              	.LBB7:
  43              		.file 2 "../../ChibiOS/os/ext/CMSIS/include/core_cmFunc.h"
  44              		.loc 2 546 0
  45 000a 7B68     		ldr	r3, [r7, #4]
  46              	@ 546 "../../ChibiOS/os/ext/CMSIS/include/core_cmFunc.h" 1
  47 000c 83F31188 		MSR basepri, r3
  48              	@ 0 "" 2
  49              		.thumb
  50              	.LBE7:
  51              	.LBE6:
  52              		.loc 1 451 0
  53 0010 0C37     		adds	r7, r7, #12
  54 0012 BD46     		mov	sp, r7
  55              		@ sp needed
  56 0014 5DF8047B 		ldr	r7, [sp], #4
  57 0018 7047     		bx	lr
ARM GAS  C:\Users\Luis\AppData\Local\Temp\cckKrh1B.s 			page 2


  58              		.cfi_endproc
  59              	.LFE116:
  60              		.size	port_lock, .-port_lock
  61 001a 00BFAFF3 		.section	.text.port_unlock,"ax",%progbits
  61      0080
  62              		.align	2
  63              		.p2align 4,,15
  64              		.thumb
  65              		.thumb_func
  66              		.type	port_unlock, %function
  67              	port_unlock:
  68              	.LFB117:
  69              		.loc 1 458 0
  70              		.cfi_startproc
  71              		@ args = 0, pretend = 0, frame = 8
  72              		@ frame_needed = 1, uses_anonymous_args = 0
  73              		@ link register save eliminated.
  74 0000 80B4     		push	{r7}
  75              		.cfi_def_cfa_offset 4
  76              		.cfi_offset 7, -4
  77 0002 83B0     		sub	sp, sp, #12
  78              		.cfi_def_cfa_offset 16
  79 0004 00AF     		add	r7, sp, #0
  80              		.cfi_def_cfa_register 7
  81 0006 0023     		movs	r3, #0
  82 0008 7B60     		str	r3, [r7, #4]
  83              	.LBB8:
  84              	.LBB9:
  85              		.loc 2 546 0
  86 000a 7B68     		ldr	r3, [r7, #4]
  87              	@ 546 "../../ChibiOS/os/ext/CMSIS/include/core_cmFunc.h" 1
  88 000c 83F31188 		MSR basepri, r3
  89              	@ 0 "" 2
  90              		.thumb
  91              	.LBE9:
  92              	.LBE8:
  93              		.loc 1 465 0
  94 0010 0C37     		adds	r7, r7, #12
  95 0012 BD46     		mov	sp, r7
  96              		@ sp needed
  97 0014 5DF8047B 		ldr	r7, [sp], #4
  98 0018 7047     		bx	lr
  99              		.cfi_endproc
 100              	.LFE117:
 101              		.size	port_unlock, .-port_unlock
 102 001a 00BFAFF3 		.section	.text.st_lld_get_counter,"ax",%progbits
 102      0080
 103              		.align	2
 104              		.p2align 4,,15
 105              		.thumb
 106              		.thumb_func
 107              		.type	st_lld_get_counter, %function
 108              	st_lld_get_counter:
 109              	.LFB125:
 110              		.file 3 "../../ChibiOS/os/hal/ports/STM32/LLD/TIMv1/st_lld.h"
 111              		.loc 3 127 0
 112              		.cfi_startproc
ARM GAS  C:\Users\Luis\AppData\Local\Temp\cckKrh1B.s 			page 3


 113              		@ args = 0, pretend = 0, frame = 0
 114              		@ frame_needed = 1, uses_anonymous_args = 0
 115              		@ link register save eliminated.
 116 0000 80B4     		push	{r7}
 117              		.cfi_def_cfa_offset 4
 118              		.cfi_offset 7, -4
 119 0002 00AF     		add	r7, sp, #0
 120              		.cfi_def_cfa_register 7
 121              		.loc 3 129 0
 122 0004 4FF08043 		mov	r3, #1073741824
 123 0008 5B6A     		ldr	r3, [r3, #36]
 124              		.loc 3 130 0
 125 000a 1846     		mov	r0, r3
 126 000c BD46     		mov	sp, r7
 127              		@ sp needed
 128 000e 5DF8047B 		ldr	r7, [sp], #4
 129 0012 7047     		bx	lr
 130              		.cfi_endproc
 131              	.LFE125:
 132              		.size	st_lld_get_counter, .-st_lld_get_counter
 133 0014 AFF30080 		.section	.text.port_timer_get_time,"ax",%progbits
 133      AFF30080 
 133      AFF30080 
 134              		.align	2
 135              		.p2align 4,,15
 136              		.thumb
 137              		.thumb_func
 138              		.type	port_timer_get_time, %function
 139              	port_timer_get_time:
 140              	.LFB134:
 141              		.file 4 "../../ChibiOS/os/rt/ports/ARMCMx/chcore_timer.h"
 142              		.loc 4 105 0
 143              		.cfi_startproc
 144              		@ args = 0, pretend = 0, frame = 0
 145              		@ frame_needed = 1, uses_anonymous_args = 0
 146 0000 80B5     		push	{r7, lr}
 147              		.cfi_def_cfa_offset 8
 148              		.cfi_offset 7, -8
 149              		.cfi_offset 14, -4
 150 0002 00AF     		add	r7, sp, #0
 151              		.cfi_def_cfa_register 7
 152              		.loc 4 107 0
 153 0004 FFF7FEFF 		bl	st_lld_get_counter
 154 0008 0346     		mov	r3, r0
 155              		.loc 4 108 0
 156 000a 1846     		mov	r0, r3
 157 000c 80BD     		pop	{r7, pc}
 158              		.cfi_endproc
 159              	.LFE134:
 160              		.size	port_timer_get_time, .-port_timer_get_time
 161 000e 00BF     		.section	.text.chSysLock,"ax",%progbits
 162              		.align	2
 163              		.p2align 4,,15
 164              		.thumb
 165              		.thumb_func
 166              		.type	chSysLock, %function
 167              	chSysLock:
ARM GAS  C:\Users\Luis\AppData\Local\Temp\cckKrh1B.s 			page 4


 168              	.LFB156:
 169              		.file 5 "../../ChibiOS/os/rt/include/chsys.h"
 170              		.loc 5 346 0
 171              		.cfi_startproc
 172              		@ args = 0, pretend = 0, frame = 0
 173              		@ frame_needed = 1, uses_anonymous_args = 0
 174 0000 80B5     		push	{r7, lr}
 175              		.cfi_def_cfa_offset 8
 176              		.cfi_offset 7, -8
 177              		.cfi_offset 14, -4
 178 0002 00AF     		add	r7, sp, #0
 179              		.cfi_def_cfa_register 7
 180              		.loc 5 348 0
 181 0004 FFF7FEFF 		bl	port_lock
 182              		.loc 5 349 0
 183 0008 FFF7FEFF 		bl	_stats_start_measure_crit_thd
 184              		.loc 5 350 0
 185 000c FFF7FEFF 		bl	_dbg_check_lock
 186              		.loc 5 351 0
 187 0010 80BD     		pop	{r7, pc}
 188              		.cfi_endproc
 189              	.LFE156:
 190              		.size	chSysLock, .-chSysLock
 191 0012 00BFAFF3 		.section	.text.chSysUnlock,"ax",%progbits
 191      0080AFF3 
 191      0080AFF3 
 191      0080
 192              		.align	2
 193              		.p2align 4,,15
 194              		.thumb
 195              		.thumb_func
 196              		.type	chSysUnlock, %function
 197              	chSysUnlock:
 198              	.LFB157:
 199              		.loc 5 358 0
 200              		.cfi_startproc
 201              		@ args = 0, pretend = 0, frame = 0
 202              		@ frame_needed = 1, uses_anonymous_args = 0
 203 0000 80B5     		push	{r7, lr}
 204              		.cfi_def_cfa_offset 8
 205              		.cfi_offset 7, -8
 206              		.cfi_offset 14, -4
 207 0002 00AF     		add	r7, sp, #0
 208              		.cfi_def_cfa_register 7
 209              		.loc 5 360 0
 210 0004 FFF7FEFF 		bl	_dbg_check_unlock
 211              		.loc 5 361 0
 212 0008 FFF7FEFF 		bl	_stats_stop_measure_crit_thd
 213              		.loc 5 367 0
 214 000c 094B     		ldr	r3, .L10
 215 000e 1A68     		ldr	r2, [r3]
 216 0010 084B     		ldr	r3, .L10
 217 0012 9A42     		cmp	r2, r3
 218 0014 0AD0     		beq	.L9
 219              		.loc 5 367 0 is_stmt 0 discriminator 1
 220 0016 074B     		ldr	r3, .L10
 221 0018 9B69     		ldr	r3, [r3, #24]
ARM GAS  C:\Users\Luis\AppData\Local\Temp\cckKrh1B.s 			page 5


 222 001a 9A68     		ldr	r2, [r3, #8]
 223 001c 054B     		ldr	r3, .L10
 224 001e 1B68     		ldr	r3, [r3]
 225 0020 9B68     		ldr	r3, [r3, #8]
 226 0022 9A42     		cmp	r2, r3
 227 0024 02D2     		bcs	.L9
 228 0026 0448     		ldr	r0, .L10+4
 229 0028 FFF7FEFF 		bl	chSysHalt
 230              	.L9:
 231              		.loc 5 371 0 is_stmt 1
 232 002c FFF7FEFF 		bl	port_unlock
 233              		.loc 5 372 0
 234 0030 80BD     		pop	{r7, pc}
 235              	.L11:
 236 0032 00BF     		.align	2
 237              	.L10:
 238 0034 00000000 		.word	ch
 239 0038 00000000 		.word	__func__.5842
 240              		.cfi_endproc
 241              	.LFE157:
 242              		.size	chSysUnlock, .-chSysUnlock
 243 003c AFF30080 		.section	.text.chVTGetSystemTimeX,"ax",%progbits
 244              		.align	2
 245              		.p2align 4,,15
 246              		.thumb
 247              		.thumb_func
 248              		.type	chVTGetSystemTimeX, %function
 249              	chVTGetSystemTimeX:
 250              	.LFB164:
 251              		.file 6 "../../ChibiOS/os/rt/include/chvt.h"
 252              		.loc 6 228 0
 253              		.cfi_startproc
 254              		@ args = 0, pretend = 0, frame = 0
 255              		@ frame_needed = 1, uses_anonymous_args = 0
 256 0000 80B5     		push	{r7, lr}
 257              		.cfi_def_cfa_offset 8
 258              		.cfi_offset 7, -8
 259              		.cfi_offset 14, -4
 260 0002 00AF     		add	r7, sp, #0
 261              		.cfi_def_cfa_register 7
 262              		.loc 6 233 0
 263 0004 FFF7FEFF 		bl	port_timer_get_time
 264 0008 0346     		mov	r3, r0
 265              		.loc 6 235 0
 266 000a 1846     		mov	r0, r3
 267 000c 80BD     		pop	{r7, pc}
 268              		.cfi_endproc
 269              	.LFE164:
 270              		.size	chVTGetSystemTimeX, .-chVTGetSystemTimeX
 271 000e 00BF     		.section	.text.chThdStartI,"ax",%progbits
 272              		.align	2
 273              		.p2align 4,,15
 274              		.thumb
 275              		.thumb_func
 276              		.type	chThdStartI, %function
 277              	chThdStartI:
 278              	.LFB181:
ARM GAS  C:\Users\Luis\AppData\Local\Temp\cckKrh1B.s 			page 6


 279              		.file 7 "../../ChibiOS/os/rt/include/chthreads.h"
 280              		.loc 7 245 0
 281              		.cfi_startproc
 282              		@ args = 0, pretend = 0, frame = 8
 283              		@ frame_needed = 1, uses_anonymous_args = 0
 284 0000 80B5     		push	{r7, lr}
 285              		.cfi_def_cfa_offset 8
 286              		.cfi_offset 7, -8
 287              		.cfi_offset 14, -4
 288 0002 82B0     		sub	sp, sp, #8
 289              		.cfi_def_cfa_offset 16
 290 0004 00AF     		add	r7, sp, #0
 291              		.cfi_def_cfa_register 7
 292 0006 7860     		str	r0, [r7, #4]
 293              		.loc 7 247 0
 294 0008 7B68     		ldr	r3, [r7, #4]
 295 000a 93F82030 		ldrb	r3, [r3, #32]	@ zero_extendqisi2
 296 000e 022B     		cmp	r3, #2
 297 0010 02D0     		beq	.L15
 298              		.loc 7 247 0 is_stmt 0 discriminator 1
 299 0012 0548     		ldr	r0, .L17
 300 0014 FFF7FEFF 		bl	chSysHalt
 301              	.L15:
 302              		.loc 7 249 0 is_stmt 1
 303 0018 7868     		ldr	r0, [r7, #4]
 304 001a FFF7FEFF 		bl	chSchReadyI
 305 001e 0346     		mov	r3, r0
 306              		.loc 7 250 0
 307 0020 1846     		mov	r0, r3
 308 0022 0837     		adds	r7, r7, #8
 309 0024 BD46     		mov	sp, r7
 310              		@ sp needed
 311 0026 80BD     		pop	{r7, pc}
 312              	.L18:
 313              		.align	2
 314              	.L17:
 315 0028 00000000 		.word	__func__.6009
 316              		.cfi_endproc
 317              	.LFE181:
 318              		.size	chThdStartI, .-chThdStartI
 319 002c AFF30080 		.section	.text.chRegSetThreadNameX,"ax",%progbits
 320              		.align	2
 321              		.p2align 4,,15
 322              		.thumb
 323              		.thumb_func
 324              		.type	chRegSetThreadNameX, %function
 325              	chRegSetThreadNameX:
 326              	.LFB188:
 327              		.file 8 "../../ChibiOS/os/rt/include/chregistry.h"
 328              		.loc 8 172 0
 329              		.cfi_startproc
 330              		@ args = 0, pretend = 0, frame = 8
 331              		@ frame_needed = 1, uses_anonymous_args = 0
 332              		@ link register save eliminated.
 333 0000 80B4     		push	{r7}
 334              		.cfi_def_cfa_offset 4
 335              		.cfi_offset 7, -4
ARM GAS  C:\Users\Luis\AppData\Local\Temp\cckKrh1B.s 			page 7


 336 0002 83B0     		sub	sp, sp, #12
 337              		.cfi_def_cfa_offset 16
 338 0004 00AF     		add	r7, sp, #0
 339              		.cfi_def_cfa_register 7
 340 0006 7860     		str	r0, [r7, #4]
 341 0008 3960     		str	r1, [r7]
 342              		.loc 8 175 0
 343 000a 7B68     		ldr	r3, [r7, #4]
 344 000c 3A68     		ldr	r2, [r7]
 345 000e 9A61     		str	r2, [r3, #24]
 346              		.loc 8 180 0
 347 0010 0C37     		adds	r7, r7, #12
 348 0012 BD46     		mov	sp, r7
 349              		@ sp needed
 350 0014 5DF8047B 		ldr	r7, [sp], #4
 351 0018 7047     		bx	lr
 352              		.cfi_endproc
 353              	.LFE188:
 354              		.size	chRegSetThreadNameX, .-chRegSetThreadNameX
 355 001a 00BFAFF3 		.section	.text.chSemGetCounterI,"ax",%progbits
 355      0080
 356              		.align	2
 357              		.p2align 4,,15
 358              		.thumb
 359              		.thumb_func
 360              		.type	chSemGetCounterI, %function
 361              	chSemGetCounterI:
 362              	.LFB191:
 363              		.file 9 "../../ChibiOS/os/rt/include/chsem.h"
 364              		.loc 9 149 0
 365              		.cfi_startproc
 366              		@ args = 0, pretend = 0, frame = 8
 367              		@ frame_needed = 1, uses_anonymous_args = 0
 368 0000 80B5     		push	{r7, lr}
 369              		.cfi_def_cfa_offset 8
 370              		.cfi_offset 7, -8
 371              		.cfi_offset 14, -4
 372 0002 82B0     		sub	sp, sp, #8
 373              		.cfi_def_cfa_offset 16
 374 0004 00AF     		add	r7, sp, #0
 375              		.cfi_def_cfa_register 7
 376 0006 7860     		str	r0, [r7, #4]
 377              		.loc 9 151 0
 378 0008 FFF7FEFF 		bl	chDbgCheckClassI
 379              		.loc 9 153 0
 380 000c 7B68     		ldr	r3, [r7, #4]
 381 000e 9B68     		ldr	r3, [r3, #8]
 382              		.loc 9 154 0
 383 0010 1846     		mov	r0, r3
 384 0012 0837     		adds	r7, r7, #8
 385 0014 BD46     		mov	sp, r7
 386              		@ sp needed
 387 0016 80BD     		pop	{r7, pc}
 388              		.cfi_endproc
 389              	.LFE191:
 390              		.size	chSemGetCounterI, .-chSemGetCounterI
 391 0018 AFF30080 		.section	.text.chMBGetUsedCountI,"ax",%progbits
ARM GAS  C:\Users\Luis\AppData\Local\Temp\cckKrh1B.s 			page 8


 391      AFF30080 
 392              		.align	2
 393              		.p2align 4,,15
 394              		.thumb
 395              		.thumb_func
 396              		.type	chMBGetUsedCountI, %function
 397              	chMBGetUsedCountI:
 398              	.LFB215:
 399              		.file 10 "../../ChibiOS/os/rt/include/chmboxes.h"
 400              		.loc 10 177 0
 401              		.cfi_startproc
 402              		@ args = 0, pretend = 0, frame = 8
 403              		@ frame_needed = 1, uses_anonymous_args = 0
 404 0000 80B5     		push	{r7, lr}
 405              		.cfi_def_cfa_offset 8
 406              		.cfi_offset 7, -8
 407              		.cfi_offset 14, -4
 408 0002 82B0     		sub	sp, sp, #8
 409              		.cfi_def_cfa_offset 16
 410 0004 00AF     		add	r7, sp, #0
 411              		.cfi_def_cfa_register 7
 412 0006 7860     		str	r0, [r7, #4]
 413              		.loc 10 179 0
 414 0008 FFF7FEFF 		bl	chDbgCheckClassI
 415              		.loc 10 181 0
 416 000c 7B68     		ldr	r3, [r7, #4]
 417 000e 1033     		adds	r3, r3, #16
 418 0010 1846     		mov	r0, r3
 419 0012 FFF7FEFF 		bl	chSemGetCounterI
 420 0016 0346     		mov	r3, r0
 421              		.loc 10 182 0
 422 0018 1846     		mov	r0, r3
 423 001a 0837     		adds	r7, r7, #8
 424 001c BD46     		mov	sp, r7
 425              		@ sp needed
 426 001e 80BD     		pop	{r7, pc}
 427              		.cfi_endproc
 428              	.LFE215:
 429              		.size	chMBGetUsedCountI, .-chMBGetUsedCountI
 430              		.section	.text.osalSysLock,"ax",%progbits
 431              		.align	2
 432              		.p2align 4,,15
 433              		.thumb
 434              		.thumb_func
 435              		.type	osalSysLock, %function
 436              	osalSysLock:
 437              	.LFB233:
 438              		.file 11 "../../ChibiOS/os/hal/osal/rt/osal.h"
 439              		.loc 11 491 0
 440              		.cfi_startproc
 441              		@ args = 0, pretend = 0, frame = 0
 442              		@ frame_needed = 1, uses_anonymous_args = 0
 443 0000 80B5     		push	{r7, lr}
 444              		.cfi_def_cfa_offset 8
 445              		.cfi_offset 7, -8
 446              		.cfi_offset 14, -4
 447 0002 00AF     		add	r7, sp, #0
ARM GAS  C:\Users\Luis\AppData\Local\Temp\cckKrh1B.s 			page 9


 448              		.cfi_def_cfa_register 7
 449              		.loc 11 493 0
 450 0004 FFF7FEFF 		bl	chSysLock
 451              		.loc 11 494 0
 452 0008 80BD     		pop	{r7, pc}
 453              		.cfi_endproc
 454              	.LFE233:
 455              		.size	osalSysLock, .-osalSysLock
 456 000a 00BFAFF3 		.section	.text.osalSysUnlock,"ax",%progbits
 456      0080
 457              		.align	2
 458              		.p2align 4,,15
 459              		.thumb
 460              		.thumb_func
 461              		.type	osalSysUnlock, %function
 462              	osalSysUnlock:
 463              	.LFB234:
 464              		.loc 11 502 0
 465              		.cfi_startproc
 466              		@ args = 0, pretend = 0, frame = 0
 467              		@ frame_needed = 1, uses_anonymous_args = 0
 468 0000 80B5     		push	{r7, lr}
 469              		.cfi_def_cfa_offset 8
 470              		.cfi_offset 7, -8
 471              		.cfi_offset 14, -4
 472 0002 00AF     		add	r7, sp, #0
 473              		.cfi_def_cfa_register 7
 474              		.loc 11 504 0
 475 0004 FFF7FEFF 		bl	chSysUnlock
 476              		.loc 11 505 0
 477 0008 80BD     		pop	{r7, pc}
 478              		.cfi_endproc
 479              	.LFE234:
 480              		.size	osalSysUnlock, .-osalSysUnlock
 481 000a 00BFAFF3 		.section	.text.osalSysRestoreStatusX,"ax",%progbits
 481      0080
 482              		.align	2
 483              		.p2align 4,,15
 484              		.thumb
 485              		.thumb_func
 486              		.type	osalSysRestoreStatusX, %function
 487              	osalSysRestoreStatusX:
 488              	.LFB238:
 489              		.loc 11 556 0
 490              		.cfi_startproc
 491              		@ args = 0, pretend = 0, frame = 8
 492              		@ frame_needed = 1, uses_anonymous_args = 0
 493 0000 80B5     		push	{r7, lr}
 494              		.cfi_def_cfa_offset 8
 495              		.cfi_offset 7, -8
 496              		.cfi_offset 14, -4
 497 0002 82B0     		sub	sp, sp, #8
 498              		.cfi_def_cfa_offset 16
 499 0004 00AF     		add	r7, sp, #0
 500              		.cfi_def_cfa_register 7
 501 0006 7860     		str	r0, [r7, #4]
 502              		.loc 11 558 0
ARM GAS  C:\Users\Luis\AppData\Local\Temp\cckKrh1B.s 			page 10


 503 0008 7868     		ldr	r0, [r7, #4]
 504 000a FFF7FEFF 		bl	chSysRestoreStatusX
 505              		.loc 11 559 0
 506 000e 0837     		adds	r7, r7, #8
 507 0010 BD46     		mov	sp, r7
 508              		@ sp needed
 509 0012 80BD     		pop	{r7, pc}
 510              		.cfi_endproc
 511              	.LFE238:
 512              		.size	osalSysRestoreStatusX, .-osalSysRestoreStatusX
 513 0014 AFF30080 		.section	.text.osalOsGetSystemTimeX,"ax",%progbits
 513      AFF30080 
 513      AFF30080 
 514              		.align	2
 515              		.p2align 4,,15
 516              		.thumb
 517              		.thumb_func
 518              		.type	osalOsGetSystemTimeX, %function
 519              	osalOsGetSystemTimeX:
 520              	.LFB242:
 521              		.loc 11 616 0
 522              		.cfi_startproc
 523              		@ args = 0, pretend = 0, frame = 0
 524              		@ frame_needed = 1, uses_anonymous_args = 0
 525 0000 80B5     		push	{r7, lr}
 526              		.cfi_def_cfa_offset 8
 527              		.cfi_offset 7, -8
 528              		.cfi_offset 14, -4
 529 0002 00AF     		add	r7, sp, #0
 530              		.cfi_def_cfa_register 7
 531              		.loc 11 618 0
 532 0004 FFF7FEFF 		bl	chVTGetSystemTimeX
 533 0008 0346     		mov	r3, r0
 534              		.loc 11 619 0
 535 000a 1846     		mov	r0, r3
 536 000c 80BD     		pop	{r7, pc}
 537              		.cfi_endproc
 538              	.LFE242:
 539              		.size	osalOsGetSystemTimeX, .-osalOsGetSystemTimeX
 540 000e 00BF     		.section	.text.sys_init,"ax",%progbits
 541              		.align	2
 542              		.p2align 4,,15
 543              		.global	sys_init
 544              		.thumb
 545              		.thumb_func
 546              		.type	sys_init, %function
 547              	sys_init:
 548              	.LFB260:
 549              		.file 12 "../../ChibiOS/os/various/lwip_bindings/arch/sys_arch.c"
 550              		.loc 12 63 0
 551              		.cfi_startproc
 552              		@ args = 0, pretend = 0, frame = 0
 553              		@ frame_needed = 1, uses_anonymous_args = 0
 554              		@ link register save eliminated.
 555 0000 80B4     		push	{r7}
 556              		.cfi_def_cfa_offset 4
 557              		.cfi_offset 7, -4
ARM GAS  C:\Users\Luis\AppData\Local\Temp\cckKrh1B.s 			page 11


 558 0002 00AF     		add	r7, sp, #0
 559              		.cfi_def_cfa_register 7
 560              		.loc 12 65 0
 561 0004 BD46     		mov	sp, r7
 562              		@ sp needed
 563 0006 5DF8047B 		ldr	r7, [sp], #4
 564 000a 7047     		bx	lr
 565              		.cfi_endproc
 566              	.LFE260:
 567              		.size	sys_init, .-sys_init
 568 000c AFF30080 		.section	.text.sys_sem_new,"ax",%progbits
 569              		.align	2
 570              		.p2align 4,,15
 571              		.global	sys_sem_new
 572              		.thumb
 573              		.thumb_func
 574              		.type	sys_sem_new, %function
 575              	sys_sem_new:
 576              	.LFB261:
 577              		.loc 12 67 0
 578              		.cfi_startproc
 579              		@ args = 0, pretend = 0, frame = 8
 580              		@ frame_needed = 1, uses_anonymous_args = 0
 581 0000 80B5     		push	{r7, lr}
 582              		.cfi_def_cfa_offset 8
 583              		.cfi_offset 7, -8
 584              		.cfi_offset 14, -4
 585 0002 82B0     		sub	sp, sp, #8
 586              		.cfi_def_cfa_offset 16
 587 0004 00AF     		add	r7, sp, #0
 588              		.cfi_def_cfa_register 7
 589 0006 7860     		str	r0, [r7, #4]
 590 0008 0B46     		mov	r3, r1
 591 000a FB70     		strb	r3, [r7, #3]
 592              		.loc 12 69 0
 593 000c 0020     		movs	r0, #0
 594 000e 0C21     		movs	r1, #12
 595 0010 FFF7FEFF 		bl	chHeapAlloc
 596 0014 0246     		mov	r2, r0
 597 0016 7B68     		ldr	r3, [r7, #4]
 598 0018 1A60     		str	r2, [r3]
 599              		.loc 12 70 0
 600 001a 7B68     		ldr	r3, [r7, #4]
 601 001c 1B68     		ldr	r3, [r3]
 602 001e 002B     		cmp	r3, #0
 603 0020 09D1     		bne	.L31
 604              		.loc 12 71 0
 605 0022 164B     		ldr	r3, .L34
 606 0024 B3F84231 		ldrh	r3, [r3, #322]
 607 0028 0133     		adds	r3, r3, #1
 608 002a 9AB2     		uxth	r2, r3
 609 002c 134B     		ldr	r3, .L34
 610 002e A3F84221 		strh	r2, [r3, #322]	@ movhi
 611              		.loc 12 72 0
 612 0032 FF23     		movs	r3, #255
 613 0034 1DE0     		b	.L32
 614              	.L31:
ARM GAS  C:\Users\Luis\AppData\Local\Temp\cckKrh1B.s 			page 12


 615              		.loc 12 75 0
 616 0036 7B68     		ldr	r3, [r7, #4]
 617 0038 1A68     		ldr	r2, [r3]
 618 003a FB78     		ldrb	r3, [r7, #3]	@ zero_extendqisi2
 619 003c 1046     		mov	r0, r2
 620 003e 1946     		mov	r1, r3
 621 0040 FFF7FEFF 		bl	chSemObjectInit
 622              		.loc 12 76 0
 623 0044 0D4B     		ldr	r3, .L34
 624 0046 B3F83E31 		ldrh	r3, [r3, #318]
 625 004a 0133     		adds	r3, r3, #1
 626 004c 9AB2     		uxth	r2, r3
 627 004e 0B4B     		ldr	r3, .L34
 628 0050 A3F83E21 		strh	r2, [r3, #318]	@ movhi
 629 0054 094B     		ldr	r3, .L34
 630 0056 B3F84021 		ldrh	r2, [r3, #320]
 631 005a 084B     		ldr	r3, .L34
 632 005c B3F83E31 		ldrh	r3, [r3, #318]
 633 0060 9A42     		cmp	r2, r3
 634 0062 05D2     		bcs	.L33
 635              		.loc 12 76 0 is_stmt 0 discriminator 1
 636 0064 054B     		ldr	r3, .L34
 637 0066 B3F83E21 		ldrh	r2, [r3, #318]
 638 006a 044B     		ldr	r3, .L34
 639 006c A3F84021 		strh	r2, [r3, #320]	@ movhi
 640              	.L33:
 641              		.loc 12 77 0 is_stmt 1
 642 0070 0023     		movs	r3, #0
 643              	.L32:
 644 0072 5BB2     		sxtb	r3, r3
 645              		.loc 12 79 0
 646 0074 1846     		mov	r0, r3
 647 0076 0837     		adds	r7, r7, #8
 648 0078 BD46     		mov	sp, r7
 649              		@ sp needed
 650 007a 80BD     		pop	{r7, pc}
 651              	.L35:
 652              		.align	2
 653              	.L34:
 654 007c 00000000 		.word	lwip_stats
 655              		.cfi_endproc
 656              	.LFE261:
 657              		.size	sys_sem_new, .-sys_sem_new
 658              		.section	.text.sys_sem_free,"ax",%progbits
 659              		.align	2
 660              		.p2align 4,,15
 661              		.global	sys_sem_free
 662              		.thumb
 663              		.thumb_func
 664              		.type	sys_sem_free, %function
 665              	sys_sem_free:
 666              	.LFB262:
 667              		.loc 12 81 0
 668              		.cfi_startproc
 669              		@ args = 0, pretend = 0, frame = 8
 670              		@ frame_needed = 1, uses_anonymous_args = 0
 671 0000 80B5     		push	{r7, lr}
ARM GAS  C:\Users\Luis\AppData\Local\Temp\cckKrh1B.s 			page 13


 672              		.cfi_def_cfa_offset 8
 673              		.cfi_offset 7, -8
 674              		.cfi_offset 14, -4
 675 0002 82B0     		sub	sp, sp, #8
 676              		.cfi_def_cfa_offset 16
 677 0004 00AF     		add	r7, sp, #0
 678              		.cfi_def_cfa_register 7
 679 0006 7860     		str	r0, [r7, #4]
 680              		.loc 12 83 0
 681 0008 7B68     		ldr	r3, [r7, #4]
 682 000a 1B68     		ldr	r3, [r3]
 683 000c 1846     		mov	r0, r3
 684 000e FFF7FEFF 		bl	chHeapFree
 685              		.loc 12 84 0
 686 0012 7B68     		ldr	r3, [r7, #4]
 687 0014 0022     		movs	r2, #0
 688 0016 1A60     		str	r2, [r3]
 689              		.loc 12 85 0
 690 0018 054B     		ldr	r3, .L37
 691 001a B3F83E31 		ldrh	r3, [r3, #318]
 692 001e 013B     		subs	r3, r3, #1
 693 0020 9AB2     		uxth	r2, r3
 694 0022 034B     		ldr	r3, .L37
 695 0024 A3F83E21 		strh	r2, [r3, #318]	@ movhi
 696              		.loc 12 86 0
 697 0028 0837     		adds	r7, r7, #8
 698 002a BD46     		mov	sp, r7
 699              		@ sp needed
 700 002c 80BD     		pop	{r7, pc}
 701              	.L38:
 702 002e 00BF     		.align	2
 703              	.L37:
 704 0030 00000000 		.word	lwip_stats
 705              		.cfi_endproc
 706              	.LFE262:
 707              		.size	sys_sem_free, .-sys_sem_free
 708 0034 AFF30080 		.section	.text.sys_sem_signal,"ax",%progbits
 708      AFF30080 
 708      AFF30080 
 709              		.align	2
 710              		.p2align 4,,15
 711              		.global	sys_sem_signal
 712              		.thumb
 713              		.thumb_func
 714              		.type	sys_sem_signal, %function
 715              	sys_sem_signal:
 716              	.LFB263:
 717              		.loc 12 88 0
 718              		.cfi_startproc
 719              		@ args = 0, pretend = 0, frame = 8
 720              		@ frame_needed = 1, uses_anonymous_args = 0
 721 0000 80B5     		push	{r7, lr}
 722              		.cfi_def_cfa_offset 8
 723              		.cfi_offset 7, -8
 724              		.cfi_offset 14, -4
 725 0002 82B0     		sub	sp, sp, #8
 726              		.cfi_def_cfa_offset 16
ARM GAS  C:\Users\Luis\AppData\Local\Temp\cckKrh1B.s 			page 14


 727 0004 00AF     		add	r7, sp, #0
 728              		.cfi_def_cfa_register 7
 729 0006 7860     		str	r0, [r7, #4]
 730              		.loc 12 90 0
 731 0008 7B68     		ldr	r3, [r7, #4]
 732 000a 1B68     		ldr	r3, [r3]
 733 000c 1846     		mov	r0, r3
 734 000e FFF7FEFF 		bl	chSemSignal
 735              		.loc 12 91 0
 736 0012 0837     		adds	r7, r7, #8
 737 0014 BD46     		mov	sp, r7
 738              		@ sp needed
 739 0016 80BD     		pop	{r7, pc}
 740              		.cfi_endproc
 741              	.LFE263:
 742              		.size	sys_sem_signal, .-sys_sem_signal
 743 0018 AFF30080 		.section	.text.sys_sem_signal_S,"ax",%progbits
 743      AFF30080 
 744              		.align	2
 745              		.p2align 4,,15
 746              		.global	sys_sem_signal_S
 747              		.thumb
 748              		.thumb_func
 749              		.type	sys_sem_signal_S, %function
 750              	sys_sem_signal_S:
 751              	.LFB264:
 752              		.loc 12 95 0
 753              		.cfi_startproc
 754              		@ args = 0, pretend = 0, frame = 8
 755              		@ frame_needed = 1, uses_anonymous_args = 0
 756 0000 80B5     		push	{r7, lr}
 757              		.cfi_def_cfa_offset 8
 758              		.cfi_offset 7, -8
 759              		.cfi_offset 14, -4
 760 0002 82B0     		sub	sp, sp, #8
 761              		.cfi_def_cfa_offset 16
 762 0004 00AF     		add	r7, sp, #0
 763              		.cfi_def_cfa_register 7
 764 0006 7860     		str	r0, [r7, #4]
 765              		.loc 12 97 0
 766 0008 7B68     		ldr	r3, [r7, #4]
 767 000a 1B68     		ldr	r3, [r3]
 768 000c 1846     		mov	r0, r3
 769 000e FFF7FEFF 		bl	chSemSignalI
 770              		.loc 12 98 0
 771 0012 FFF7FEFF 		bl	chSchRescheduleS
 772              		.loc 12 99 0
 773 0016 0837     		adds	r7, r7, #8
 774 0018 BD46     		mov	sp, r7
 775              		@ sp needed
 776 001a 80BD     		pop	{r7, pc}
 777              		.cfi_endproc
 778              	.LFE264:
 779              		.size	sys_sem_signal_S, .-sys_sem_signal_S
 780 001c AFF30080 		.section	.text.sys_arch_sem_wait,"ax",%progbits
 781              		.align	2
 782              		.p2align 4,,15
ARM GAS  C:\Users\Luis\AppData\Local\Temp\cckKrh1B.s 			page 15


 783              		.global	sys_arch_sem_wait
 784              		.thumb
 785              		.thumb_func
 786              		.type	sys_arch_sem_wait, %function
 787              	sys_arch_sem_wait:
 788              	.LFB265:
 789              		.loc 12 101 0
 790              		.cfi_startproc
 791              		@ args = 0, pretend = 0, frame = 16
 792              		@ frame_needed = 1, uses_anonymous_args = 0
 793 0000 80B5     		push	{r7, lr}
 794              		.cfi_def_cfa_offset 8
 795              		.cfi_offset 7, -8
 796              		.cfi_offset 14, -4
 797 0002 84B0     		sub	sp, sp, #16
 798              		.cfi_def_cfa_offset 24
 799 0004 00AF     		add	r7, sp, #0
 800              		.cfi_def_cfa_register 7
 801 0006 7860     		str	r0, [r7, #4]
 802 0008 3960     		str	r1, [r7]
 803              		.loc 12 105 0
 804 000a FFF7FEFF 		bl	osalSysLock
 805              		.loc 12 106 0
 806 000e 3B68     		ldr	r3, [r7]
 807 0010 002B     		cmp	r3, #0
 808 0012 01D0     		beq	.L42
 809              		.loc 12 106 0 is_stmt 0 discriminator 1
 810 0014 3B68     		ldr	r3, [r7]
 811 0016 01E0     		b	.L43
 812              	.L42:
 813              		.loc 12 106 0 discriminator 2
 814 0018 4FF0FF33 		mov	r3, #-1
 815              	.L43:
 816              		.loc 12 106 0 discriminator 3
 817 001c BB60     		str	r3, [r7, #8]
 818              		.loc 12 107 0 is_stmt 1 discriminator 3
 819 001e FFF7FEFF 		bl	osalOsGetSystemTimeX
 820 0022 F860     		str	r0, [r7, #12]
 821              		.loc 12 108 0 discriminator 3
 822 0024 7B68     		ldr	r3, [r7, #4]
 823 0026 1B68     		ldr	r3, [r3]
 824 0028 1846     		mov	r0, r3
 825 002a B968     		ldr	r1, [r7, #8]
 826 002c FFF7FEFF 		bl	chSemWaitTimeoutS
 827 0030 0346     		mov	r3, r0
 828 0032 002B     		cmp	r3, #0
 829 0034 03D0     		beq	.L44
 830              		.loc 12 109 0
 831 0036 4FF0FF33 		mov	r3, #-1
 832 003a FB60     		str	r3, [r7, #12]
 833 003c 05E0     		b	.L45
 834              	.L44:
 835              		.loc 12 111 0
 836 003e FFF7FEFF 		bl	osalOsGetSystemTimeX
 837 0042 0246     		mov	r2, r0
 838 0044 FB68     		ldr	r3, [r7, #12]
 839 0046 D31A     		subs	r3, r2, r3
ARM GAS  C:\Users\Luis\AppData\Local\Temp\cckKrh1B.s 			page 16


 840 0048 FB60     		str	r3, [r7, #12]
 841              	.L45:
 842              		.loc 12 112 0
 843 004a FFF7FEFF 		bl	osalSysUnlock
 844              		.loc 12 113 0
 845 004e FB68     		ldr	r3, [r7, #12]
 846              		.loc 12 114 0
 847 0050 1846     		mov	r0, r3
 848 0052 1037     		adds	r7, r7, #16
 849 0054 BD46     		mov	sp, r7
 850              		@ sp needed
 851 0056 80BD     		pop	{r7, pc}
 852              		.cfi_endproc
 853              	.LFE265:
 854              		.size	sys_arch_sem_wait, .-sys_arch_sem_wait
 855 0058 AFF30080 		.section	.text.sys_sem_valid,"ax",%progbits
 855      AFF30080 
 856              		.align	2
 857              		.p2align 4,,15
 858              		.global	sys_sem_valid
 859              		.thumb
 860              		.thumb_func
 861              		.type	sys_sem_valid, %function
 862              	sys_sem_valid:
 863              	.LFB266:
 864              		.loc 12 116 0
 865              		.cfi_startproc
 866              		@ args = 0, pretend = 0, frame = 8
 867              		@ frame_needed = 1, uses_anonymous_args = 0
 868              		@ link register save eliminated.
 869 0000 80B4     		push	{r7}
 870              		.cfi_def_cfa_offset 4
 871              		.cfi_offset 7, -4
 872 0002 83B0     		sub	sp, sp, #12
 873              		.cfi_def_cfa_offset 16
 874 0004 00AF     		add	r7, sp, #0
 875              		.cfi_def_cfa_register 7
 876 0006 7860     		str	r0, [r7, #4]
 877              		.loc 12 117 0
 878 0008 7B68     		ldr	r3, [r7, #4]
 879 000a 1B68     		ldr	r3, [r3]
 880 000c 002B     		cmp	r3, #0
 881 000e 0CBF     		ite	eq
 882 0010 0023     		moveq	r3, #0
 883 0012 0123     		movne	r3, #1
 884 0014 DBB2     		uxtb	r3, r3
 885              		.loc 12 118 0
 886 0016 1846     		mov	r0, r3
 887 0018 0C37     		adds	r7, r7, #12
 888 001a BD46     		mov	sp, r7
 889              		@ sp needed
 890 001c 5DF8047B 		ldr	r7, [sp], #4
 891 0020 7047     		bx	lr
 892              		.cfi_endproc
 893              	.LFE266:
 894              		.size	sys_sem_valid, .-sys_sem_valid
 895 0022 00BFAFF3 		.section	.text.sys_sem_set_invalid,"ax",%progbits
ARM GAS  C:\Users\Luis\AppData\Local\Temp\cckKrh1B.s 			page 17


 895      0080AFF3 
 895      0080AFF3 
 895      0080
 896              		.align	2
 897              		.p2align 4,,15
 898              		.global	sys_sem_set_invalid
 899              		.thumb
 900              		.thumb_func
 901              		.type	sys_sem_set_invalid, %function
 902              	sys_sem_set_invalid:
 903              	.LFB267:
 904              		.loc 12 122 0
 905              		.cfi_startproc
 906              		@ args = 0, pretend = 0, frame = 8
 907              		@ frame_needed = 1, uses_anonymous_args = 0
 908              		@ link register save eliminated.
 909 0000 80B4     		push	{r7}
 910              		.cfi_def_cfa_offset 4
 911              		.cfi_offset 7, -4
 912 0002 83B0     		sub	sp, sp, #12
 913              		.cfi_def_cfa_offset 16
 914 0004 00AF     		add	r7, sp, #0
 915              		.cfi_def_cfa_register 7
 916 0006 7860     		str	r0, [r7, #4]
 917              		.loc 12 123 0
 918 0008 7B68     		ldr	r3, [r7, #4]
 919 000a 0022     		movs	r2, #0
 920 000c 1A60     		str	r2, [r3]
 921              		.loc 12 124 0
 922 000e 0C37     		adds	r7, r7, #12
 923 0010 BD46     		mov	sp, r7
 924              		@ sp needed
 925 0012 5DF8047B 		ldr	r7, [sp], #4
 926 0016 7047     		bx	lr
 927              		.cfi_endproc
 928              	.LFE267:
 929              		.size	sys_sem_set_invalid, .-sys_sem_set_invalid
 930 0018 AFF30080 		.section	.text.sys_mbox_new,"ax",%progbits
 930      AFF30080 
 931              		.align	2
 932              		.p2align 4,,15
 933              		.global	sys_mbox_new
 934              		.thumb
 935              		.thumb_func
 936              		.type	sys_mbox_new, %function
 937              	sys_mbox_new:
 938              	.LFB268:
 939              		.loc 12 126 0
 940              		.cfi_startproc
 941              		@ args = 0, pretend = 0, frame = 8
 942              		@ frame_needed = 1, uses_anonymous_args = 0
 943 0000 80B5     		push	{r7, lr}
 944              		.cfi_def_cfa_offset 8
 945              		.cfi_offset 7, -8
 946              		.cfi_offset 14, -4
 947 0002 82B0     		sub	sp, sp, #8
 948              		.cfi_def_cfa_offset 16
ARM GAS  C:\Users\Luis\AppData\Local\Temp\cckKrh1B.s 			page 18


 949 0004 00AF     		add	r7, sp, #0
 950              		.cfi_def_cfa_register 7
 951 0006 7860     		str	r0, [r7, #4]
 952 0008 3960     		str	r1, [r7]
 953              		.loc 12 128 0
 954 000a 3B68     		ldr	r3, [r7]
 955 000c 0A33     		adds	r3, r3, #10
 956 000e 9B00     		lsls	r3, r3, #2
 957 0010 0020     		movs	r0, #0
 958 0012 1946     		mov	r1, r3
 959 0014 FFF7FEFF 		bl	chHeapAlloc
 960 0018 0246     		mov	r2, r0
 961 001a 7B68     		ldr	r3, [r7, #4]
 962 001c 1A60     		str	r2, [r3]
 963              		.loc 12 129 0
 964 001e 7B68     		ldr	r3, [r7, #4]
 965 0020 1B68     		ldr	r3, [r3]
 966 0022 002B     		cmp	r3, #0
 967 0024 09D1     		bne	.L51
 968              		.loc 12 130 0
 969 0026 114B     		ldr	r3, .L53
 970 0028 B3F84E31 		ldrh	r3, [r3, #334]
 971 002c 0133     		adds	r3, r3, #1
 972 002e 9AB2     		uxth	r2, r3
 973 0030 0E4B     		ldr	r3, .L53
 974 0032 A3F84E21 		strh	r2, [r3, #334]	@ movhi
 975              		.loc 12 131 0
 976 0036 FF23     		movs	r3, #255
 977 0038 12E0     		b	.L52
 978              	.L51:
 979              		.loc 12 134 0
 980 003a 7B68     		ldr	r3, [r7, #4]
 981 003c 1A68     		ldr	r2, [r3]
 982 003e 7B68     		ldr	r3, [r7, #4]
 983 0040 1B68     		ldr	r3, [r3]
 984 0042 2833     		adds	r3, r3, #40
 985 0044 1046     		mov	r0, r2
 986 0046 1946     		mov	r1, r3
 987 0048 3A68     		ldr	r2, [r7]
 988 004a FFF7FEFF 		bl	chMBObjectInit
 989              		.loc 12 135 0
 990 004e 074B     		ldr	r3, .L53
 991 0050 B3F84A31 		ldrh	r3, [r3, #330]
 992 0054 0133     		adds	r3, r3, #1
 993 0056 9AB2     		uxth	r2, r3
 994 0058 044B     		ldr	r3, .L53
 995 005a A3F84A21 		strh	r2, [r3, #330]	@ movhi
 996              		.loc 12 136 0
 997 005e 0023     		movs	r3, #0
 998              	.L52:
 999 0060 5BB2     		sxtb	r3, r3
 1000              		.loc 12 138 0
 1001 0062 1846     		mov	r0, r3
 1002 0064 0837     		adds	r7, r7, #8
 1003 0066 BD46     		mov	sp, r7
 1004              		@ sp needed
 1005 0068 80BD     		pop	{r7, pc}
ARM GAS  C:\Users\Luis\AppData\Local\Temp\cckKrh1B.s 			page 19


 1006              	.L54:
 1007 006a 00BF     		.align	2
 1008              	.L53:
 1009 006c 00000000 		.word	lwip_stats
 1010              		.cfi_endproc
 1011              	.LFE268:
 1012              		.size	sys_mbox_new, .-sys_mbox_new
 1013              		.section	.text.sys_mbox_free,"ax",%progbits
 1014              		.align	2
 1015              		.p2align 4,,15
 1016              		.global	sys_mbox_free
 1017              		.thumb
 1018              		.thumb_func
 1019              		.type	sys_mbox_free, %function
 1020              	sys_mbox_free:
 1021              	.LFB269:
 1022              		.loc 12 140 0
 1023              		.cfi_startproc
 1024              		@ args = 0, pretend = 0, frame = 16
 1025              		@ frame_needed = 1, uses_anonymous_args = 0
 1026 0000 80B5     		push	{r7, lr}
 1027              		.cfi_def_cfa_offset 8
 1028              		.cfi_offset 7, -8
 1029              		.cfi_offset 14, -4
 1030 0002 84B0     		sub	sp, sp, #16
 1031              		.cfi_def_cfa_offset 24
 1032 0004 00AF     		add	r7, sp, #0
 1033              		.cfi_def_cfa_register 7
 1034 0006 7860     		str	r0, [r7, #4]
 1035              		.loc 12 143 0
 1036 0008 FFF7FEFF 		bl	osalSysLock
 1037              		.loc 12 144 0
 1038 000c 7B68     		ldr	r3, [r7, #4]
 1039 000e 1B68     		ldr	r3, [r3]
 1040 0010 1846     		mov	r0, r3
 1041 0012 FFF7FEFF 		bl	chMBGetUsedCountI
 1042 0016 F860     		str	r0, [r7, #12]
 1043              		.loc 12 145 0
 1044 0018 FFF7FEFF 		bl	osalSysUnlock
 1045              		.loc 12 147 0
 1046 001c FB68     		ldr	r3, [r7, #12]
 1047 001e 002B     		cmp	r3, #0
 1048 0020 0CD0     		beq	.L56
 1049              		.loc 12 151 0
 1050 0022 104B     		ldr	r3, .L57
 1051 0024 B3F84E31 		ldrh	r3, [r3, #334]
 1052 0028 0133     		adds	r3, r3, #1
 1053 002a 9AB2     		uxth	r2, r3
 1054 002c 0D4B     		ldr	r3, .L57
 1055 002e A3F84E21 		strh	r2, [r3, #334]	@ movhi
 1056              		.loc 12 152 0
 1057 0032 7B68     		ldr	r3, [r7, #4]
 1058 0034 1B68     		ldr	r3, [r3]
 1059 0036 1846     		mov	r0, r3
 1060 0038 FFF7FEFF 		bl	chMBReset
 1061              	.L56:
 1062              		.loc 12 154 0
ARM GAS  C:\Users\Luis\AppData\Local\Temp\cckKrh1B.s 			page 20


 1063 003c 7B68     		ldr	r3, [r7, #4]
 1064 003e 1B68     		ldr	r3, [r3]
 1065 0040 1846     		mov	r0, r3
 1066 0042 FFF7FEFF 		bl	chHeapFree
 1067              		.loc 12 155 0
 1068 0046 7B68     		ldr	r3, [r7, #4]
 1069 0048 0022     		movs	r2, #0
 1070 004a 1A60     		str	r2, [r3]
 1071              		.loc 12 156 0
 1072 004c 054B     		ldr	r3, .L57
 1073 004e B3F84A31 		ldrh	r3, [r3, #330]
 1074 0052 013B     		subs	r3, r3, #1
 1075 0054 9AB2     		uxth	r2, r3
 1076 0056 034B     		ldr	r3, .L57
 1077 0058 A3F84A21 		strh	r2, [r3, #330]	@ movhi
 1078              		.loc 12 157 0
 1079 005c 1037     		adds	r7, r7, #16
 1080 005e BD46     		mov	sp, r7
 1081              		@ sp needed
 1082 0060 80BD     		pop	{r7, pc}
 1083              	.L58:
 1084 0062 00BF     		.align	2
 1085              	.L57:
 1086 0064 00000000 		.word	lwip_stats
 1087              		.cfi_endproc
 1088              	.LFE269:
 1089              		.size	sys_mbox_free, .-sys_mbox_free
 1090 0068 AFF30080 		.section	.text.sys_mbox_post,"ax",%progbits
 1090      AFF30080 
 1091              		.align	2
 1092              		.p2align 4,,15
 1093              		.global	sys_mbox_post
 1094              		.thumb
 1095              		.thumb_func
 1096              		.type	sys_mbox_post, %function
 1097              	sys_mbox_post:
 1098              	.LFB270:
 1099              		.loc 12 159 0
 1100              		.cfi_startproc
 1101              		@ args = 0, pretend = 0, frame = 8
 1102              		@ frame_needed = 1, uses_anonymous_args = 0
 1103 0000 80B5     		push	{r7, lr}
 1104              		.cfi_def_cfa_offset 8
 1105              		.cfi_offset 7, -8
 1106              		.cfi_offset 14, -4
 1107 0002 82B0     		sub	sp, sp, #8
 1108              		.cfi_def_cfa_offset 16
 1109 0004 00AF     		add	r7, sp, #0
 1110              		.cfi_def_cfa_register 7
 1111 0006 7860     		str	r0, [r7, #4]
 1112 0008 3960     		str	r1, [r7]
 1113              		.loc 12 161 0
 1114 000a 7B68     		ldr	r3, [r7, #4]
 1115 000c 1A68     		ldr	r2, [r3]
 1116 000e 3B68     		ldr	r3, [r7]
 1117 0010 1046     		mov	r0, r2
 1118 0012 1946     		mov	r1, r3
ARM GAS  C:\Users\Luis\AppData\Local\Temp\cckKrh1B.s 			page 21


 1119 0014 4FF0FF32 		mov	r2, #-1
 1120 0018 FFF7FEFF 		bl	chMBPost
 1121              		.loc 12 162 0
 1122 001c 0837     		adds	r7, r7, #8
 1123 001e BD46     		mov	sp, r7
 1124              		@ sp needed
 1125 0020 80BD     		pop	{r7, pc}
 1126              		.cfi_endproc
 1127              	.LFE270:
 1128              		.size	sys_mbox_post, .-sys_mbox_post
 1129 0022 00BFAFF3 		.section	.text.sys_mbox_trypost,"ax",%progbits
 1129      0080AFF3 
 1129      0080AFF3 
 1129      0080
 1130              		.align	2
 1131              		.p2align 4,,15
 1132              		.global	sys_mbox_trypost
 1133              		.thumb
 1134              		.thumb_func
 1135              		.type	sys_mbox_trypost, %function
 1136              	sys_mbox_trypost:
 1137              	.LFB271:
 1138              		.loc 12 164 0
 1139              		.cfi_startproc
 1140              		@ args = 0, pretend = 0, frame = 8
 1141              		@ frame_needed = 1, uses_anonymous_args = 0
 1142 0000 80B5     		push	{r7, lr}
 1143              		.cfi_def_cfa_offset 8
 1144              		.cfi_offset 7, -8
 1145              		.cfi_offset 14, -4
 1146 0002 82B0     		sub	sp, sp, #8
 1147              		.cfi_def_cfa_offset 16
 1148 0004 00AF     		add	r7, sp, #0
 1149              		.cfi_def_cfa_register 7
 1150 0006 7860     		str	r0, [r7, #4]
 1151 0008 3960     		str	r1, [r7]
 1152              		.loc 12 166 0
 1153 000a 7B68     		ldr	r3, [r7, #4]
 1154 000c 1A68     		ldr	r2, [r3]
 1155 000e 3B68     		ldr	r3, [r7]
 1156 0010 1046     		mov	r0, r2
 1157 0012 1946     		mov	r1, r3
 1158 0014 0022     		movs	r2, #0
 1159 0016 FFF7FEFF 		bl	chMBPost
 1160 001a 0346     		mov	r3, r0
 1161 001c B3F1FF3F 		cmp	r3, #-1
 1162 0020 09D1     		bne	.L61
 1163              		.loc 12 167 0
 1164 0022 084B     		ldr	r3, .L63
 1165 0024 B3F84E31 		ldrh	r3, [r3, #334]
 1166 0028 0133     		adds	r3, r3, #1
 1167 002a 9AB2     		uxth	r2, r3
 1168 002c 054B     		ldr	r3, .L63
 1169 002e A3F84E21 		strh	r2, [r3, #334]	@ movhi
 1170              		.loc 12 168 0
 1171 0032 FF23     		movs	r3, #255
 1172 0034 00E0     		b	.L62
ARM GAS  C:\Users\Luis\AppData\Local\Temp\cckKrh1B.s 			page 22


 1173              	.L61:
 1174              		.loc 12 170 0
 1175 0036 0023     		movs	r3, #0
 1176              	.L62:
 1177 0038 5BB2     		sxtb	r3, r3
 1178              		.loc 12 171 0
 1179 003a 1846     		mov	r0, r3
 1180 003c 0837     		adds	r7, r7, #8
 1181 003e BD46     		mov	sp, r7
 1182              		@ sp needed
 1183 0040 80BD     		pop	{r7, pc}
 1184              	.L64:
 1185 0042 00BF     		.align	2
 1186              	.L63:
 1187 0044 00000000 		.word	lwip_stats
 1188              		.cfi_endproc
 1189              	.LFE271:
 1190              		.size	sys_mbox_trypost, .-sys_mbox_trypost
 1191 0048 AFF30080 		.section	.text.sys_arch_mbox_fetch,"ax",%progbits
 1191      AFF30080 
 1192              		.align	2
 1193              		.p2align 4,,15
 1194              		.global	sys_arch_mbox_fetch
 1195              		.thumb
 1196              		.thumb_func
 1197              		.type	sys_arch_mbox_fetch, %function
 1198              	sys_arch_mbox_fetch:
 1199              	.LFB272:
 1200              		.loc 12 173 0
 1201              		.cfi_startproc
 1202              		@ args = 0, pretend = 0, frame = 24
 1203              		@ frame_needed = 1, uses_anonymous_args = 0
 1204 0000 80B5     		push	{r7, lr}
 1205              		.cfi_def_cfa_offset 8
 1206              		.cfi_offset 7, -8
 1207              		.cfi_offset 14, -4
 1208 0002 86B0     		sub	sp, sp, #24
 1209              		.cfi_def_cfa_offset 32
 1210 0004 00AF     		add	r7, sp, #0
 1211              		.cfi_def_cfa_register 7
 1212 0006 F860     		str	r0, [r7, #12]
 1213 0008 B960     		str	r1, [r7, #8]
 1214 000a 7A60     		str	r2, [r7, #4]
 1215              		.loc 12 177 0
 1216 000c FFF7FEFF 		bl	osalSysLock
 1217              		.loc 12 178 0
 1218 0010 7B68     		ldr	r3, [r7, #4]
 1219 0012 002B     		cmp	r3, #0
 1220 0014 01D0     		beq	.L66
 1221              		.loc 12 178 0 is_stmt 0 discriminator 1
 1222 0016 7B68     		ldr	r3, [r7, #4]
 1223 0018 01E0     		b	.L67
 1224              	.L66:
 1225              		.loc 12 178 0 discriminator 2
 1226 001a 4FF0FF33 		mov	r3, #-1
 1227              	.L67:
 1228              		.loc 12 178 0 discriminator 3
ARM GAS  C:\Users\Luis\AppData\Local\Temp\cckKrh1B.s 			page 23


 1229 001e 3B61     		str	r3, [r7, #16]
 1230              		.loc 12 179 0 is_stmt 1 discriminator 3
 1231 0020 FFF7FEFF 		bl	osalOsGetSystemTimeX
 1232 0024 7861     		str	r0, [r7, #20]
 1233              		.loc 12 180 0 discriminator 3
 1234 0026 FB68     		ldr	r3, [r7, #12]
 1235 0028 1B68     		ldr	r3, [r3]
 1236 002a 1846     		mov	r0, r3
 1237 002c B968     		ldr	r1, [r7, #8]
 1238 002e 3A69     		ldr	r2, [r7, #16]
 1239 0030 FFF7FEFF 		bl	chMBFetchS
 1240 0034 0346     		mov	r3, r0
 1241 0036 002B     		cmp	r3, #0
 1242 0038 03D0     		beq	.L68
 1243              		.loc 12 181 0
 1244 003a 4FF0FF33 		mov	r3, #-1
 1245 003e 7B61     		str	r3, [r7, #20]
 1246 0040 05E0     		b	.L69
 1247              	.L68:
 1248              		.loc 12 183 0
 1249 0042 FFF7FEFF 		bl	osalOsGetSystemTimeX
 1250 0046 0246     		mov	r2, r0
 1251 0048 7B69     		ldr	r3, [r7, #20]
 1252 004a D31A     		subs	r3, r2, r3
 1253 004c 7B61     		str	r3, [r7, #20]
 1254              	.L69:
 1255              		.loc 12 184 0
 1256 004e FFF7FEFF 		bl	osalSysUnlock
 1257              		.loc 12 185 0
 1258 0052 7B69     		ldr	r3, [r7, #20]
 1259              		.loc 12 186 0
 1260 0054 1846     		mov	r0, r3
 1261 0056 1837     		adds	r7, r7, #24
 1262 0058 BD46     		mov	sp, r7
 1263              		@ sp needed
 1264 005a 80BD     		pop	{r7, pc}
 1265              		.cfi_endproc
 1266              	.LFE272:
 1267              		.size	sys_arch_mbox_fetch, .-sys_arch_mbox_fetch
 1268 005c AFF30080 		.section	.text.sys_arch_mbox_tryfetch,"ax",%progbits
 1269              		.align	2
 1270              		.p2align 4,,15
 1271              		.global	sys_arch_mbox_tryfetch
 1272              		.thumb
 1273              		.thumb_func
 1274              		.type	sys_arch_mbox_tryfetch, %function
 1275              	sys_arch_mbox_tryfetch:
 1276              	.LFB273:
 1277              		.loc 12 188 0
 1278              		.cfi_startproc
 1279              		@ args = 0, pretend = 0, frame = 8
 1280              		@ frame_needed = 1, uses_anonymous_args = 0
 1281 0000 80B5     		push	{r7, lr}
 1282              		.cfi_def_cfa_offset 8
 1283              		.cfi_offset 7, -8
 1284              		.cfi_offset 14, -4
 1285 0002 82B0     		sub	sp, sp, #8
ARM GAS  C:\Users\Luis\AppData\Local\Temp\cckKrh1B.s 			page 24


 1286              		.cfi_def_cfa_offset 16
 1287 0004 00AF     		add	r7, sp, #0
 1288              		.cfi_def_cfa_register 7
 1289 0006 7860     		str	r0, [r7, #4]
 1290 0008 3960     		str	r1, [r7]
 1291              		.loc 12 190 0
 1292 000a 7B68     		ldr	r3, [r7, #4]
 1293 000c 1B68     		ldr	r3, [r3]
 1294 000e 1846     		mov	r0, r3
 1295 0010 3968     		ldr	r1, [r7]
 1296 0012 0022     		movs	r2, #0
 1297 0014 FFF7FEFF 		bl	chMBFetch
 1298 0018 0346     		mov	r3, r0
 1299 001a B3F1FF3F 		cmp	r3, #-1
 1300 001e 02D1     		bne	.L72
 1301              		.loc 12 191 0
 1302 0020 4FF0FF33 		mov	r3, #-1
 1303 0024 00E0     		b	.L73
 1304              	.L72:
 1305              		.loc 12 192 0
 1306 0026 0023     		movs	r3, #0
 1307              	.L73:
 1308              		.loc 12 193 0
 1309 0028 1846     		mov	r0, r3
 1310 002a 0837     		adds	r7, r7, #8
 1311 002c BD46     		mov	sp, r7
 1312              		@ sp needed
 1313 002e 80BD     		pop	{r7, pc}
 1314              		.cfi_endproc
 1315              	.LFE273:
 1316              		.size	sys_arch_mbox_tryfetch, .-sys_arch_mbox_tryfetch
 1317              		.section	.text.sys_mbox_valid,"ax",%progbits
 1318              		.align	2
 1319              		.p2align 4,,15
 1320              		.global	sys_mbox_valid
 1321              		.thumb
 1322              		.thumb_func
 1323              		.type	sys_mbox_valid, %function
 1324              	sys_mbox_valid:
 1325              	.LFB274:
 1326              		.loc 12 195 0
 1327              		.cfi_startproc
 1328              		@ args = 0, pretend = 0, frame = 8
 1329              		@ frame_needed = 1, uses_anonymous_args = 0
 1330              		@ link register save eliminated.
 1331 0000 80B4     		push	{r7}
 1332              		.cfi_def_cfa_offset 4
 1333              		.cfi_offset 7, -4
 1334 0002 83B0     		sub	sp, sp, #12
 1335              		.cfi_def_cfa_offset 16
 1336 0004 00AF     		add	r7, sp, #0
 1337              		.cfi_def_cfa_register 7
 1338 0006 7860     		str	r0, [r7, #4]
 1339              		.loc 12 196 0
 1340 0008 7B68     		ldr	r3, [r7, #4]
 1341 000a 1B68     		ldr	r3, [r3]
 1342 000c 002B     		cmp	r3, #0
ARM GAS  C:\Users\Luis\AppData\Local\Temp\cckKrh1B.s 			page 25


 1343 000e 0CBF     		ite	eq
 1344 0010 0023     		moveq	r3, #0
 1345 0012 0123     		movne	r3, #1
 1346 0014 DBB2     		uxtb	r3, r3
 1347              		.loc 12 197 0
 1348 0016 1846     		mov	r0, r3
 1349 0018 0C37     		adds	r7, r7, #12
 1350 001a BD46     		mov	sp, r7
 1351              		@ sp needed
 1352 001c 5DF8047B 		ldr	r7, [sp], #4
 1353 0020 7047     		bx	lr
 1354              		.cfi_endproc
 1355              	.LFE274:
 1356              		.size	sys_mbox_valid, .-sys_mbox_valid
 1357 0022 00BFAFF3 		.section	.text.sys_mbox_set_invalid,"ax",%progbits
 1357      0080AFF3 
 1357      0080AFF3 
 1357      0080
 1358              		.align	2
 1359              		.p2align 4,,15
 1360              		.global	sys_mbox_set_invalid
 1361              		.thumb
 1362              		.thumb_func
 1363              		.type	sys_mbox_set_invalid, %function
 1364              	sys_mbox_set_invalid:
 1365              	.LFB275:
 1366              		.loc 12 201 0
 1367              		.cfi_startproc
 1368              		@ args = 0, pretend = 0, frame = 8
 1369              		@ frame_needed = 1, uses_anonymous_args = 0
 1370              		@ link register save eliminated.
 1371 0000 80B4     		push	{r7}
 1372              		.cfi_def_cfa_offset 4
 1373              		.cfi_offset 7, -4
 1374 0002 83B0     		sub	sp, sp, #12
 1375              		.cfi_def_cfa_offset 16
 1376 0004 00AF     		add	r7, sp, #0
 1377              		.cfi_def_cfa_register 7
 1378 0006 7860     		str	r0, [r7, #4]
 1379              		.loc 12 202 0
 1380 0008 7B68     		ldr	r3, [r7, #4]
 1381 000a 0022     		movs	r2, #0
 1382 000c 1A60     		str	r2, [r3]
 1383              		.loc 12 203 0
 1384 000e 0C37     		adds	r7, r7, #12
 1385 0010 BD46     		mov	sp, r7
 1386              		@ sp needed
 1387 0012 5DF8047B 		ldr	r7, [sp], #4
 1388 0016 7047     		bx	lr
 1389              		.cfi_endproc
 1390              	.LFE275:
 1391              		.size	sys_mbox_set_invalid, .-sys_mbox_set_invalid
 1392 0018 AFF30080 		.section	.text.sys_thread_new,"ax",%progbits
 1392      AFF30080 
 1393              		.align	2
 1394              		.p2align 4,,15
 1395              		.global	sys_thread_new
ARM GAS  C:\Users\Luis\AppData\Local\Temp\cckKrh1B.s 			page 26


 1396              		.thumb
 1397              		.thumb_func
 1398              		.type	sys_thread_new, %function
 1399              	sys_thread_new:
 1400              	.LFB276:
 1401              		.loc 12 206 0
 1402              		.cfi_startproc
 1403              		@ args = 4, pretend = 0, frame = 32
 1404              		@ frame_needed = 1, uses_anonymous_args = 0
 1405 0000 80B5     		push	{r7, lr}
 1406              		.cfi_def_cfa_offset 8
 1407              		.cfi_offset 7, -8
 1408              		.cfi_offset 14, -4
 1409 0002 8AB0     		sub	sp, sp, #40
 1410              		.cfi_def_cfa_offset 48
 1411 0004 02AF     		add	r7, sp, #8
 1412              		.cfi_def_cfa 7, 40
 1413 0006 F860     		str	r0, [r7, #12]
 1414 0008 B960     		str	r1, [r7, #8]
 1415 000a 7A60     		str	r2, [r7, #4]
 1416 000c 3B60     		str	r3, [r7]
 1417              		.loc 12 213 0
 1418 000e 3B68     		ldr	r3, [r7]
 1419 0010 EB33     		adds	r3, r3, #235
 1420 0012 43F00703 		orr	r3, r3, #7
 1421 0016 0133     		adds	r3, r3, #1
 1422 0018 FB61     		str	r3, [r7, #28]
 1423              		.loc 12 214 0
 1424 001a F869     		ldr	r0, [r7, #28]
 1425 001c FFF7FEFF 		bl	chCoreAlloc
 1426 0020 B861     		str	r0, [r7, #24]
 1427              		.loc 12 215 0
 1428 0022 BB69     		ldr	r3, [r7, #24]
 1429 0024 002B     		cmp	r3, #0
 1430 0026 01D1     		bne	.L78
 1431              		.loc 12 216 0
 1432 0028 0023     		movs	r3, #0
 1433 002a 29E0     		b	.L79
 1434              	.L78:
 1435              		.loc 12 219 0
 1436 002c BB69     		ldr	r3, [r7, #24]
 1437 002e 6833     		adds	r3, r3, #104
 1438 0030 B869     		ldr	r0, [r7, #24]
 1439 0032 1946     		mov	r1, r3
 1440 0034 FF22     		movs	r2, #255
 1441 0036 FFF7FEFF 		bl	_thread_memfill
 1442              		.loc 12 222 0
 1443 003a BB69     		ldr	r3, [r7, #24]
 1444 003c 03F16802 		add	r2, r3, #104
 1445 0040 B969     		ldr	r1, [r7, #24]
 1446 0042 FB69     		ldr	r3, [r7, #28]
 1447 0044 0B44     		add	r3, r3, r1
 1448 0046 1046     		mov	r0, r2
 1449 0048 1946     		mov	r1, r3
 1450 004a 5522     		movs	r2, #85
 1451 004c FFF7FEFF 		bl	_thread_memfill
 1452              		.loc 12 227 0
ARM GAS  C:\Users\Luis\AppData\Local\Temp\cckKrh1B.s 			page 27


 1453 0050 FFF7FEFF 		bl	chSysGetStatusAndLockX
 1454 0054 7861     		str	r0, [r7, #20]
 1455              		.loc 12 228 0
 1456 0056 BB6A     		ldr	r3, [r7, #40]
 1457 0058 7A68     		ldr	r2, [r7, #4]
 1458 005a 0092     		str	r2, [sp]
 1459 005c B869     		ldr	r0, [r7, #24]
 1460 005e F969     		ldr	r1, [r7, #28]
 1461 0060 1A46     		mov	r2, r3
 1462 0062 BB68     		ldr	r3, [r7, #8]
 1463 0064 FFF7FEFF 		bl	chThdCreateI
 1464 0068 3861     		str	r0, [r7, #16]
 1465              		.loc 12 229 0
 1466 006a 3869     		ldr	r0, [r7, #16]
 1467 006c F968     		ldr	r1, [r7, #12]
 1468 006e FFF7FEFF 		bl	chRegSetThreadNameX
 1469              		.loc 12 230 0
 1470 0072 3869     		ldr	r0, [r7, #16]
 1471 0074 FFF7FEFF 		bl	chThdStartI
 1472              		.loc 12 231 0
 1473 0078 7869     		ldr	r0, [r7, #20]
 1474 007a FFF7FEFF 		bl	chSysRestoreStatusX
 1475              		.loc 12 233 0
 1476 007e 3B69     		ldr	r3, [r7, #16]
 1477              	.L79:
 1478              		.loc 12 234 0
 1479 0080 1846     		mov	r0, r3
 1480 0082 2037     		adds	r7, r7, #32
 1481 0084 BD46     		mov	sp, r7
 1482              		@ sp needed
 1483 0086 80BD     		pop	{r7, pc}
 1484              		.cfi_endproc
 1485              	.LFE276:
 1486              		.size	sys_thread_new, .-sys_thread_new
 1487 0088 AFF30080 		.section	.text.sys_arch_protect,"ax",%progbits
 1487      AFF30080 
 1488              		.align	2
 1489              		.p2align 4,,15
 1490              		.global	sys_arch_protect
 1491              		.thumb
 1492              		.thumb_func
 1493              		.type	sys_arch_protect, %function
 1494              	sys_arch_protect:
 1495              	.LFB277:
 1496              		.loc 12 236 0
 1497              		.cfi_startproc
 1498              		@ args = 0, pretend = 0, frame = 0
 1499              		@ frame_needed = 1, uses_anonymous_args = 0
 1500 0000 80B5     		push	{r7, lr}
 1501              		.cfi_def_cfa_offset 8
 1502              		.cfi_offset 7, -8
 1503              		.cfi_offset 14, -4
 1504 0002 00AF     		add	r7, sp, #0
 1505              		.cfi_def_cfa_register 7
 1506              		.loc 12 238 0
 1507 0004 FFF7FEFF 		bl	chSysGetStatusAndLockX
 1508 0008 0346     		mov	r3, r0
ARM GAS  C:\Users\Luis\AppData\Local\Temp\cckKrh1B.s 			page 28


 1509              		.loc 12 239 0
 1510 000a 1846     		mov	r0, r3
 1511 000c 80BD     		pop	{r7, pc}
 1512              		.cfi_endproc
 1513              	.LFE277:
 1514              		.size	sys_arch_protect, .-sys_arch_protect
 1515 000e 00BF     		.section	.text.sys_arch_unprotect,"ax",%progbits
 1516              		.align	2
 1517              		.p2align 4,,15
 1518              		.global	sys_arch_unprotect
 1519              		.thumb
 1520              		.thumb_func
 1521              		.type	sys_arch_unprotect, %function
 1522              	sys_arch_unprotect:
 1523              	.LFB278:
 1524              		.loc 12 241 0
 1525              		.cfi_startproc
 1526              		@ args = 0, pretend = 0, frame = 8
 1527              		@ frame_needed = 1, uses_anonymous_args = 0
 1528 0000 80B5     		push	{r7, lr}
 1529              		.cfi_def_cfa_offset 8
 1530              		.cfi_offset 7, -8
 1531              		.cfi_offset 14, -4
 1532 0002 82B0     		sub	sp, sp, #8
 1533              		.cfi_def_cfa_offset 16
 1534 0004 00AF     		add	r7, sp, #0
 1535              		.cfi_def_cfa_register 7
 1536 0006 7860     		str	r0, [r7, #4]
 1537              		.loc 12 243 0
 1538 0008 7868     		ldr	r0, [r7, #4]
 1539 000a FFF7FEFF 		bl	osalSysRestoreStatusX
 1540              		.loc 12 244 0
 1541 000e 0837     		adds	r7, r7, #8
 1542 0010 BD46     		mov	sp, r7
 1543              		@ sp needed
 1544 0012 80BD     		pop	{r7, pc}
 1545              		.cfi_endproc
 1546              	.LFE278:
 1547              		.size	sys_arch_unprotect, .-sys_arch_unprotect
 1548 0014 AFF30080 		.section	.text.sys_now,"ax",%progbits
 1548      AFF30080 
 1548      AFF30080 
 1549              		.align	2
 1550              		.p2align 4,,15
 1551              		.global	sys_now
 1552              		.thumb
 1553              		.thumb_func
 1554              		.type	sys_now, %function
 1555              	sys_now:
 1556              	.LFB279:
 1557              		.loc 12 246 0
 1558              		.cfi_startproc
 1559              		@ args = 0, pretend = 0, frame = 0
 1560              		@ frame_needed = 1, uses_anonymous_args = 0
 1561 0000 80B5     		push	{r7, lr}
 1562              		.cfi_def_cfa_offset 8
 1563              		.cfi_offset 7, -8
ARM GAS  C:\Users\Luis\AppData\Local\Temp\cckKrh1B.s 			page 29


 1564              		.cfi_offset 14, -4
 1565 0002 00AF     		add	r7, sp, #0
 1566              		.cfi_def_cfa_register 7
 1567              		.loc 12 251 0
 1568 0004 FFF7FEFF 		bl	osalOsGetSystemTimeX
 1569 0008 0346     		mov	r3, r0
 1570 000a 5A1E     		subs	r2, r3, #1
 1571 000c 034B     		ldr	r3, .L85
 1572 000e A3FB0213 		umull	r1, r3, r3, r2
 1573 0012 DB08     		lsrs	r3, r3, #3
 1574 0014 0133     		adds	r3, r3, #1
 1575              		.loc 12 257 0
 1576 0016 1846     		mov	r0, r3
 1577 0018 80BD     		pop	{r7, pc}
 1578              	.L86:
 1579 001a 00BF     		.align	2
 1580              	.L85:
 1581 001c CDCCCCCC 		.word	-858993459
 1582              		.cfi_endproc
 1583              	.LFE279:
 1584              		.size	sys_now, .-sys_now
 1585              		.section	.rodata.__func__.5842,"a",%progbits
 1586              		.align	2
 1587              		.type	__func__.5842, %object
 1588              		.size	__func__.5842, 12
 1589              	__func__.5842:
 1590 0000 63685379 		.ascii	"chSysUnlock\000"
 1590      73556E6C 
 1590      6F636B00 
 1591              		.section	.rodata.__func__.6009,"a",%progbits
 1592              		.align	2
 1593              		.type	__func__.6009, %object
 1594              		.size	__func__.6009, 12
 1595              	__func__.6009:
 1596 0000 63685468 		.ascii	"chThdStartI\000"
 1596      64537461 
 1596      72744900 
 1597              		.text
 1598              	.Letext0:
 1599              		.file 13 "c:\\emtechesdk\\gcc\\lib\\gcc\\arm-none-eabi\\4.8.3\\include\\stddef.h"
 1600              		.file 14 "c:\\emtechesdk\\gcc\\arm-none-eabi\\include\\stdint.h"
 1601              		.file 15 "../../ChibiOS/os/rt/ports/ARMCMx/compilers/GCC/chtypes.h"
 1602              		.file 16 "../../ChibiOS/os/rt/include/chsystypes.h"
 1603              		.file 17 "../../ChibiOS/os/rt/include/chschd.h"
 1604              		.file 18 "../../ChibiOS/os/rt/ports/ARMCMx/chcore.h"
 1605              		.file 19 "../../ChibiOS/os/hal/ports/STM32/LLD/TIMv1/stm32_tim.h"
 1606              		.file 20 "../../ChibiOS/os/rt/include/chdebug.h"
 1607              		.file 21 "../../ChibiOS/os/rt/include/chtm.h"
 1608              		.file 22 "../../ChibiOS/os/rt/include/chstats.h"
 1609              		.file 23 "../../ChibiOS/os/rt/include/chmtx.h"
 1610              		.file 24 "../../ChibiOS/os/various/lwip_bindings/arch/cc.h"
 1611              		.file 25 "../../ChibiOS/ext/lwip/src/include/lwip/mem.h"
 1612              		.file 26 "../../ChibiOS/ext/lwip/src/include/lwip/err.h"
 1613              		.file 27 "../../ChibiOS/os/various/lwip_bindings/arch/sys_arch.h"
 1614              		.file 28 "../../ChibiOS/ext/lwip/src/include/lwip/sys.h"
 1615              		.file 29 "../../ChibiOS/ext/lwip/src/include/lwip/stats.h"
 1616              		.file 30 "../../ChibiOS/os/ext/CMSIS/include/core_cm4.h"
ARM GAS  C:\Users\Luis\AppData\Local\Temp\cckKrh1B.s 			page 30

