ARM GAS  C:\Users\Luis\AppData\Local\Temp\cc4eIE9x.s 			page 1


   1              		.syntax unified
   2              		.cpu cortex-m4
   3              		.fpu softvfp
   4              		.eabi_attribute 20, 1
   5              		.eabi_attribute 21, 1
   6              		.eabi_attribute 23, 3
   7              		.eabi_attribute 24, 1
   8              		.eabi_attribute 25, 1
   9              		.eabi_attribute 26, 1
  10              		.eabi_attribute 30, 6
  11              		.eabi_attribute 34, 1
  12              		.eabi_attribute 18, 4
  13              		.thumb
  14              		.file	"tcp_out.c"
  15              		.text
  16              	.Ltext0:
  17              		.cfi_sections	.debug_frame
  18              		.section	.text.osalSysHalt,"ax",%progbits
  19              		.align	2
  20              		.p2align 4,,15
  21              		.thumb
  22              		.thumb_func
  23              		.type	osalSysHalt, %function
  24              	osalSysHalt:
  25              	.LFB230:
  26              		.file 1 "../../ChibiOS/os/hal/osal/rt/osal.h"
  27              		.loc 1 460 0
  28              		.cfi_startproc
  29              		@ args = 0, pretend = 0, frame = 8
  30              		@ frame_needed = 1, uses_anonymous_args = 0
  31 0000 80B5     		push	{r7, lr}
  32              		.cfi_def_cfa_offset 8
  33              		.cfi_offset 7, -8
  34              		.cfi_offset 14, -4
  35 0002 82B0     		sub	sp, sp, #8
  36              		.cfi_def_cfa_offset 16
  37 0004 00AF     		add	r7, sp, #0
  38              		.cfi_def_cfa_register 7
  39 0006 7860     		str	r0, [r7, #4]
  40              		.loc 1 462 0
  41 0008 7868     		ldr	r0, [r7, #4]
  42 000a FFF7FEFF 		bl	chSysHalt
  43              		.loc 1 463 0
  44 000e 0837     		adds	r7, r7, #8
  45 0010 BD46     		mov	sp, r7
  46              		@ sp needed
  47 0012 80BD     		pop	{r7, pc}
  48              		.cfi_endproc
  49              	.LFE230:
  50              		.size	osalSysHalt, .-osalSysHalt
  51 0014 AFF30080 		.section	.rodata
  51      AFF30080 
  51      AFF30080 
  52              		.align	2
  53              	.LC0:
  54 0000 63686563 		.ascii	"check that first pbuf can hold struct tcp_hdr\000"
  54      6B207468 
ARM GAS  C:\Users\Luis\AppData\Local\Temp\cc4eIE9x.s 			page 2


  54      61742066 
  54      69727374 
  54      20706275 
  55              		.section	.text.tcp_output_alloc_header,"ax",%progbits
  56              		.align	2
  57              		.p2align 4,,15
  58              		.thumb
  59              		.thumb_func
  60              		.type	tcp_output_alloc_header, %function
  61              	tcp_output_alloc_header:
  62              	.LFB260:
  63              		.file 2 "../../ChibiOS/ext/lwip/src/core/tcp_out.c"
  64              		.loc 2 96 0
  65              		.cfi_startproc
  66              		@ args = 0, pretend = 0, frame = 24
  67              		@ frame_needed = 1, uses_anonymous_args = 0
  68 0000 80B5     		push	{r7, lr}
  69              		.cfi_def_cfa_offset 8
  70              		.cfi_offset 7, -8
  71              		.cfi_offset 14, -4
  72 0002 86B0     		sub	sp, sp, #24
  73              		.cfi_def_cfa_offset 32
  74 0004 00AF     		add	r7, sp, #0
  75              		.cfi_def_cfa_register 7
  76 0006 F860     		str	r0, [r7, #12]
  77 0008 7B60     		str	r3, [r7, #4]
  78 000a 0B46     		mov	r3, r1	@ movhi
  79 000c 7B81     		strh	r3, [r7, #10]	@ movhi
  80 000e 1346     		mov	r3, r2	@ movhi
  81 0010 3B81     		strh	r3, [r7, #8]	@ movhi
  82              		.loc 2 98 0
  83 0012 7A89     		ldrh	r2, [r7, #10]	@ movhi
  84 0014 3B89     		ldrh	r3, [r7, #8]	@ movhi
  85 0016 1344     		add	r3, r3, r2
  86 0018 9BB2     		uxth	r3, r3
  87 001a 1433     		adds	r3, r3, #20
  88 001c 9BB2     		uxth	r3, r3
  89 001e 0120     		movs	r0, #1
  90 0020 1946     		mov	r1, r3
  91 0022 0022     		movs	r2, #0
  92 0024 FFF7FEFF 		bl	pbuf_alloc
  93 0028 7861     		str	r0, [r7, #20]
  94              		.loc 2 99 0
  95 002a 7B69     		ldr	r3, [r7, #20]
  96 002c 002B     		cmp	r3, #0
  97 002e 54D0     		beq	.L3
  98              		.loc 2 100 0
  99 0030 7B69     		ldr	r3, [r7, #20]
 100 0032 5B89     		ldrh	r3, [r3, #10]
 101 0034 1A46     		mov	r2, r3
 102 0036 7B89     		ldrh	r3, [r7, #10]
 103 0038 1433     		adds	r3, r3, #20
 104 003a 9A42     		cmp	r2, r3
 105 003c 02DA     		bge	.L4
 106              		.loc 2 100 0 is_stmt 0 discriminator 1
 107 003e 2948     		ldr	r0, .L6
 108 0040 FFF7FEFF 		bl	osalSysHalt
ARM GAS  C:\Users\Luis\AppData\Local\Temp\cc4eIE9x.s 			page 3


 109              	.L4:
 110              		.loc 2 102 0 is_stmt 1
 111 0044 7B69     		ldr	r3, [r7, #20]
 112 0046 5B68     		ldr	r3, [r3, #4]
 113 0048 3B61     		str	r3, [r7, #16]
 114              		.loc 2 103 0
 115 004a FB68     		ldr	r3, [r7, #12]
 116 004c 5B8B     		ldrh	r3, [r3, #26]
 117 004e 1846     		mov	r0, r3
 118 0050 FFF7FEFF 		bl	lwip_htons
 119 0054 0346     		mov	r3, r0
 120 0056 1A46     		mov	r2, r3
 121 0058 3B69     		ldr	r3, [r7, #16]
 122 005a 1A80     		strh	r2, [r3]	@ unaligned
 123              		.loc 2 104 0
 124 005c FB68     		ldr	r3, [r7, #12]
 125 005e 9B8B     		ldrh	r3, [r3, #28]
 126 0060 1846     		mov	r0, r3
 127 0062 FFF7FEFF 		bl	lwip_htons
 128 0066 0346     		mov	r3, r0
 129 0068 1A46     		mov	r2, r3
 130 006a 3B69     		ldr	r3, [r7, #16]
 131 006c 5A80     		strh	r2, [r3, #2]	@ unaligned
 132              		.loc 2 105 0
 133 006e 3B69     		ldr	r3, [r7, #16]
 134 0070 7A68     		ldr	r2, [r7, #4]
 135 0072 5A60     		str	r2, [r3, #4]	@ unaligned
 136              		.loc 2 106 0
 137 0074 FB68     		ldr	r3, [r7, #12]
 138 0076 9B6A     		ldr	r3, [r3, #40]
 139 0078 1846     		mov	r0, r3
 140 007a FFF7FEFF 		bl	lwip_htonl
 141 007e 0246     		mov	r2, r0
 142 0080 3B69     		ldr	r3, [r7, #16]
 143 0082 9A60     		str	r2, [r3, #8]	@ unaligned
 144              		.loc 2 107 0
 145 0084 7B89     		ldrh	r3, [r7, #10]
 146 0086 9B08     		lsrs	r3, r3, #2
 147 0088 9BB2     		uxth	r3, r3
 148 008a 0533     		adds	r3, r3, #5
 149 008c 9BB2     		uxth	r3, r3
 150 008e 1B03     		lsls	r3, r3, #12
 151 0090 9BB2     		uxth	r3, r3
 152 0092 43F01003 		orr	r3, r3, #16
 153 0096 9BB2     		uxth	r3, r3
 154 0098 1846     		mov	r0, r3
 155 009a FFF7FEFF 		bl	lwip_htons
 156 009e 0346     		mov	r3, r0
 157 00a0 1A46     		mov	r2, r3
 158 00a2 3B69     		ldr	r3, [r7, #16]
 159 00a4 9A81     		strh	r2, [r3, #12]	@ unaligned
 160              		.loc 2 108 0
 161 00a6 FB68     		ldr	r3, [r7, #12]
 162 00a8 DB8D     		ldrh	r3, [r3, #46]
 163 00aa 1846     		mov	r0, r3
 164 00ac FFF7FEFF 		bl	lwip_htons
 165 00b0 0346     		mov	r3, r0
ARM GAS  C:\Users\Luis\AppData\Local\Temp\cc4eIE9x.s 			page 4


 166 00b2 1A46     		mov	r2, r3
 167 00b4 3B69     		ldr	r3, [r7, #16]
 168 00b6 DA81     		strh	r2, [r3, #14]	@ unaligned
 169              		.loc 2 109 0
 170 00b8 3B69     		ldr	r3, [r7, #16]
 171 00ba 0022     		movs	r2, #0
 172 00bc 1A74     		strb	r2, [r3, #16]
 173 00be 0022     		movs	r2, #0
 174 00c0 5A74     		strb	r2, [r3, #17]
 175              		.loc 2 110 0
 176 00c2 3B69     		ldr	r3, [r7, #16]
 177 00c4 0022     		movs	r2, #0
 178 00c6 9A74     		strb	r2, [r3, #18]
 179 00c8 0022     		movs	r2, #0
 180 00ca DA74     		strb	r2, [r3, #19]
 181              		.loc 2 113 0
 182 00cc FB68     		ldr	r3, [r7, #12]
 183 00ce 9A6A     		ldr	r2, [r3, #40]
 184 00d0 FB68     		ldr	r3, [r7, #12]
 185 00d2 DB8D     		ldrh	r3, [r3, #46]
 186 00d4 1A44     		add	r2, r2, r3
 187 00d6 FB68     		ldr	r3, [r7, #12]
 188 00d8 1A63     		str	r2, [r3, #48]
 189              	.L3:
 190              		.loc 2 115 0
 191 00da 7B69     		ldr	r3, [r7, #20]
 192              		.loc 2 116 0
 193 00dc 1846     		mov	r0, r3
 194 00de 1837     		adds	r7, r7, #24
 195 00e0 BD46     		mov	sp, r7
 196              		@ sp needed
 197 00e2 80BD     		pop	{r7, pc}
 198              	.L7:
 199              		.align	2
 200              	.L6:
 201 00e4 00000000 		.word	.LC0
 202              		.cfi_endproc
 203              	.LFE260:
 204              		.size	tcp_output_alloc_header, .-tcp_output_alloc_header
 205 00e8 AFF30080 		.section	.text.tcp_send_fin,"ax",%progbits
 205      AFF30080 
 206              		.align	2
 207              		.p2align 4,,15
 208              		.global	tcp_send_fin
 209              		.thumb
 210              		.thumb_func
 211              		.type	tcp_send_fin, %function
 212              	tcp_send_fin:
 213              	.LFB261:
 214              		.loc 2 126 0
 215              		.cfi_startproc
 216              		@ args = 0, pretend = 0, frame = 16
 217              		@ frame_needed = 1, uses_anonymous_args = 0
 218 0000 B0B5     		push	{r4, r5, r7, lr}
 219              		.cfi_def_cfa_offset 16
 220              		.cfi_offset 4, -16
 221              		.cfi_offset 5, -12
ARM GAS  C:\Users\Luis\AppData\Local\Temp\cc4eIE9x.s 			page 5


 222              		.cfi_offset 7, -8
 223              		.cfi_offset 14, -4
 224 0002 84B0     		sub	sp, sp, #16
 225              		.cfi_def_cfa_offset 32
 226 0004 00AF     		add	r7, sp, #0
 227              		.cfi_def_cfa_register 7
 228 0006 7860     		str	r0, [r7, #4]
 229              		.loc 2 128 0
 230 0008 7B68     		ldr	r3, [r7, #4]
 231 000a DB6E     		ldr	r3, [r3, #108]
 232 000c 002B     		cmp	r3, #0
 233 000e 2CD0     		beq	.L9
 234              	.LBB2:
 235              		.loc 2 130 0
 236 0010 7B68     		ldr	r3, [r7, #4]
 237 0012 DB6E     		ldr	r3, [r3, #108]
 238 0014 FB60     		str	r3, [r7, #12]
 239 0016 02E0     		b	.L10
 240              	.L11:
 241              		.loc 2 131 0
 242 0018 FB68     		ldr	r3, [r7, #12]
 243 001a 1B68     		ldr	r3, [r3]
 244 001c FB60     		str	r3, [r7, #12]
 245              	.L10:
 246              		.loc 2 130 0 discriminator 1
 247 001e FB68     		ldr	r3, [r7, #12]
 248 0020 1B68     		ldr	r3, [r3]
 249 0022 002B     		cmp	r3, #0
 250 0024 F8D1     		bne	.L11
 251              		.loc 2 133 0
 252 0026 FB68     		ldr	r3, [r7, #12]
 253 0028 DB68     		ldr	r3, [r3, #12]
 254 002a 9B89     		ldrh	r3, [r3, #12]	@ unaligned
 255 002c 9BB2     		uxth	r3, r3
 256 002e 1846     		mov	r0, r3
 257 0030 FFF7FEFF 		bl	lwip_ntohs
 258 0034 0346     		mov	r3, r0
 259 0036 03F00703 		and	r3, r3, #7
 260 003a 002B     		cmp	r3, #0
 261 003c 15D1     		bne	.L9
 262              		.loc 2 135 0
 263 003e FB68     		ldr	r3, [r7, #12]
 264 0040 DC68     		ldr	r4, [r3, #12]
 265 0042 FB68     		ldr	r3, [r7, #12]
 266 0044 DB68     		ldr	r3, [r3, #12]
 267 0046 9B89     		ldrh	r3, [r3, #12]	@ unaligned
 268 0048 9DB2     		uxth	r5, r3
 269 004a 0120     		movs	r0, #1
 270 004c FFF7FEFF 		bl	lwip_htons
 271 0050 0346     		mov	r3, r0
 272 0052 2B43     		orrs	r3, r3, r5
 273 0054 9BB2     		uxth	r3, r3
 274 0056 A381     		strh	r3, [r4, #12]	@ unaligned
 275              		.loc 2 136 0
 276 0058 7B68     		ldr	r3, [r7, #4]
 277 005a 9B7F     		ldrb	r3, [r3, #30]	@ zero_extendqisi2
 278 005c 43F02003 		orr	r3, r3, #32
ARM GAS  C:\Users\Luis\AppData\Local\Temp\cc4eIE9x.s 			page 6


 279 0060 DAB2     		uxtb	r2, r3
 280 0062 7B68     		ldr	r3, [r7, #4]
 281 0064 9A77     		strb	r2, [r3, #30]
 282              		.loc 2 137 0
 283 0066 0023     		movs	r3, #0
 284 0068 04E0     		b	.L12
 285              	.L9:
 286              	.LBE2:
 287              		.loc 2 141 0
 288 006a 7868     		ldr	r0, [r7, #4]
 289 006c 0121     		movs	r1, #1
 290 006e FFF7FEFF 		bl	tcp_enqueue_flags
 291 0072 0346     		mov	r3, r0
 292              	.L12:
 293 0074 5BB2     		sxtb	r3, r3
 294              		.loc 2 142 0
 295 0076 1846     		mov	r0, r3
 296 0078 1037     		adds	r7, r7, #16
 297 007a BD46     		mov	sp, r7
 298              		@ sp needed
 299 007c B0BD     		pop	{r4, r5, r7, pc}
 300              		.cfi_endproc
 301              	.LFE261:
 302              		.size	tcp_send_fin, .-tcp_send_fin
 303 007e 00BF     		.section	.text.tcp_create_segment,"ax",%progbits
 304              		.align	2
 305              		.p2align 4,,15
 306              		.thumb
 307              		.thumb_func
 308              		.type	tcp_create_segment, %function
 309              	tcp_create_segment:
 310              	.LFB262:
 311              		.loc 2 160 0
 312              		.cfi_startproc
 313              		@ args = 4, pretend = 0, frame = 24
 314              		@ frame_needed = 1, uses_anonymous_args = 0
 315 0000 90B5     		push	{r4, r7, lr}
 316              		.cfi_def_cfa_offset 12
 317              		.cfi_offset 4, -12
 318              		.cfi_offset 7, -8
 319              		.cfi_offset 14, -4
 320 0002 87B0     		sub	sp, sp, #28
 321              		.cfi_def_cfa_offset 40
 322 0004 00AF     		add	r7, sp, #0
 323              		.cfi_def_cfa_register 7
 324 0006 F860     		str	r0, [r7, #12]
 325 0008 B960     		str	r1, [r7, #8]
 326 000a 3B60     		str	r3, [r7]
 327 000c 1346     		mov	r3, r2
 328 000e FB71     		strb	r3, [r7, #7]
 329              		.loc 2 162 0
 330 0010 97F82830 		ldrb	r3, [r7, #40]	@ zero_extendqisi2
 331 0014 03F00103 		and	r3, r3, #1
 332 0018 002B     		cmp	r3, #0
 333 001a 01D0     		beq	.L14
 334              		.loc 2 162 0 is_stmt 0 discriminator 1
 335 001c 0422     		movs	r2, #4
ARM GAS  C:\Users\Luis\AppData\Local\Temp\cc4eIE9x.s 			page 7


 336 001e 00E0     		b	.L15
 337              	.L14:
 338              		.loc 2 162 0 discriminator 2
 339 0020 0022     		movs	r2, #0
 340              	.L15:
 341              		.loc 2 162 0 discriminator 3
 342 0022 97F82830 		ldrb	r3, [r7, #40]	@ zero_extendqisi2
 343 0026 03F00203 		and	r3, r3, #2
 344 002a 002B     		cmp	r3, #0
 345 002c 01D0     		beq	.L16
 346              		.loc 2 162 0 discriminator 4
 347 002e 0C23     		movs	r3, #12
 348 0030 00E0     		b	.L17
 349              	.L16:
 350              		.loc 2 162 0 discriminator 5
 351 0032 0023     		movs	r3, #0
 352              	.L17:
 353              		.loc 2 162 0 discriminator 6
 354 0034 1344     		add	r3, r3, r2
 355 0036 FB75     		strb	r3, [r7, #23]
 356              		.loc 2 164 0 is_stmt 1 discriminator 6
 357 0038 0420     		movs	r0, #4
 358 003a FFF7FEFF 		bl	memp_malloc
 359 003e 3861     		str	r0, [r7, #16]
 360 0040 3B69     		ldr	r3, [r7, #16]
 361 0042 002B     		cmp	r3, #0
 362 0044 04D1     		bne	.L18
 363              		.loc 2 166 0
 364 0046 B868     		ldr	r0, [r7, #8]
 365 0048 FFF7FEFF 		bl	pbuf_free
 366              		.loc 2 167 0
 367 004c 0023     		movs	r3, #0
 368 004e 5CE0     		b	.L19
 369              	.L18:
 370              		.loc 2 169 0
 371 0050 3B69     		ldr	r3, [r7, #16]
 372 0052 97F82820 		ldrb	r2, [r7, #40]
 373 0056 9A72     		strb	r2, [r3, #10]
 374              		.loc 2 170 0
 375 0058 3B69     		ldr	r3, [r7, #16]
 376 005a 0022     		movs	r2, #0
 377 005c 1A60     		str	r2, [r3]
 378              		.loc 2 171 0
 379 005e 3B69     		ldr	r3, [r7, #16]
 380 0060 BA68     		ldr	r2, [r7, #8]
 381 0062 5A60     		str	r2, [r3, #4]
 382              		.loc 2 172 0
 383 0064 BB68     		ldr	r3, [r7, #8]
 384 0066 1A89     		ldrh	r2, [r3, #8]
 385 0068 FB7D     		ldrb	r3, [r7, #23]	@ zero_extendqisi2
 386 006a 9BB2     		uxth	r3, r3
 387 006c D31A     		subs	r3, r2, r3
 388 006e 9AB2     		uxth	r2, r3
 389 0070 3B69     		ldr	r3, [r7, #16]
 390 0072 1A81     		strh	r2, [r3, #8]	@ movhi
 391              		.loc 2 185 0
 392 0074 B868     		ldr	r0, [r7, #8]
ARM GAS  C:\Users\Luis\AppData\Local\Temp\cc4eIE9x.s 			page 8


 393 0076 1421     		movs	r1, #20
 394 0078 FFF7FEFF 		bl	pbuf_header
 395 007c 0346     		mov	r3, r0
 396 007e 002B     		cmp	r3, #0
 397 0080 0CD0     		beq	.L20
 398              		.loc 2 187 0
 399 0082 244B     		ldr	r3, .L21
 400 0084 B3F8A430 		ldrh	r3, [r3, #164]
 401 0088 0133     		adds	r3, r3, #1
 402 008a 9AB2     		uxth	r2, r3
 403 008c 214B     		ldr	r3, .L21
 404 008e A3F8A420 		strh	r2, [r3, #164]	@ movhi
 405              		.loc 2 188 0
 406 0092 3869     		ldr	r0, [r7, #16]
 407 0094 FFF7FEFF 		bl	tcp_seg_free
 408              		.loc 2 189 0
 409 0098 0023     		movs	r3, #0
 410 009a 36E0     		b	.L19
 411              	.L20:
 412              		.loc 2 191 0
 413 009c 3B69     		ldr	r3, [r7, #16]
 414 009e 5B68     		ldr	r3, [r3, #4]
 415 00a0 5A68     		ldr	r2, [r3, #4]
 416 00a2 3B69     		ldr	r3, [r7, #16]
 417 00a4 DA60     		str	r2, [r3, #12]
 418              		.loc 2 192 0
 419 00a6 3B69     		ldr	r3, [r7, #16]
 420 00a8 DC68     		ldr	r4, [r3, #12]
 421 00aa FB68     		ldr	r3, [r7, #12]
 422 00ac 5B8B     		ldrh	r3, [r3, #26]
 423 00ae 1846     		mov	r0, r3
 424 00b0 FFF7FEFF 		bl	lwip_htons
 425 00b4 0346     		mov	r3, r0
 426 00b6 2380     		strh	r3, [r4]	@ unaligned
 427              		.loc 2 193 0
 428 00b8 3B69     		ldr	r3, [r7, #16]
 429 00ba DC68     		ldr	r4, [r3, #12]
 430 00bc FB68     		ldr	r3, [r7, #12]
 431 00be 9B8B     		ldrh	r3, [r3, #28]
 432 00c0 1846     		mov	r0, r3
 433 00c2 FFF7FEFF 		bl	lwip_htons
 434 00c6 0346     		mov	r3, r0
 435 00c8 6380     		strh	r3, [r4, #2]	@ unaligned
 436              		.loc 2 194 0
 437 00ca 3B69     		ldr	r3, [r7, #16]
 438 00cc DC68     		ldr	r4, [r3, #12]
 439 00ce 3868     		ldr	r0, [r7]
 440 00d0 FFF7FEFF 		bl	lwip_htonl
 441 00d4 0346     		mov	r3, r0
 442 00d6 6360     		str	r3, [r4, #4]	@ unaligned
 443              		.loc 2 196 0
 444 00d8 3B69     		ldr	r3, [r7, #16]
 445 00da DC68     		ldr	r4, [r3, #12]
 446 00dc FB7D     		ldrb	r3, [r7, #23]	@ zero_extendqisi2
 447 00de 9B08     		lsrs	r3, r3, #2
 448 00e0 DBB2     		uxtb	r3, r3
 449 00e2 0533     		adds	r3, r3, #5
ARM GAS  C:\Users\Luis\AppData\Local\Temp\cc4eIE9x.s 			page 9


 450 00e4 1B03     		lsls	r3, r3, #12
 451 00e6 9AB2     		uxth	r2, r3
 452 00e8 FB79     		ldrb	r3, [r7, #7]	@ zero_extendqisi2
 453 00ea 9BB2     		uxth	r3, r3
 454 00ec 1343     		orrs	r3, r3, r2
 455 00ee 9BB2     		uxth	r3, r3
 456 00f0 9BB2     		uxth	r3, r3
 457 00f2 1846     		mov	r0, r3
 458 00f4 FFF7FEFF 		bl	lwip_htons
 459 00f8 0346     		mov	r3, r0
 460 00fa A381     		strh	r3, [r4, #12]	@ unaligned
 461              		.loc 2 198 0
 462 00fc 3B69     		ldr	r3, [r7, #16]
 463 00fe DB68     		ldr	r3, [r3, #12]
 464 0100 0022     		movs	r2, #0
 465 0102 9A74     		strb	r2, [r3, #18]
 466 0104 0022     		movs	r2, #0
 467 0106 DA74     		strb	r2, [r3, #19]
 468              		.loc 2 199 0
 469 0108 3B69     		ldr	r3, [r7, #16]
 470              	.L19:
 471              		.loc 2 200 0
 472 010a 1846     		mov	r0, r3
 473 010c 1C37     		adds	r7, r7, #28
 474 010e BD46     		mov	sp, r7
 475              		@ sp needed
 476 0110 90BD     		pop	{r4, r7, pc}
 477              	.L22:
 478 0112 00BF     		.align	2
 479              	.L21:
 480 0114 00000000 		.word	lwip_stats
 481              		.cfi_endproc
 482              	.LFE262:
 483              		.size	tcp_create_segment, .-tcp_create_segment
 484 0118 AFF30080 		.section	.rodata
 484      AFF30080 
 485 002e 0000     		.align	2
 486              	.LC1:
 487 0030 6E656564 		.ascii	"need unchained pbuf\000"
 487      20756E63 
 487      6861696E 
 487      65642070 
 487      62756600 
 488              		.section	.text.tcp_pbuf_prealloc,"ax",%progbits
 489              		.align	2
 490              		.p2align 4,,15
 491              		.thumb
 492              		.thumb_func
 493              		.type	tcp_pbuf_prealloc, %function
 494              	tcp_pbuf_prealloc:
 495              	.LFB263:
 496              		.loc 2 222 0
 497              		.cfi_startproc
 498              		@ args = 12, pretend = 0, frame = 24
 499              		@ frame_needed = 1, uses_anonymous_args = 0
 500 0000 80B5     		push	{r7, lr}
 501              		.cfi_def_cfa_offset 8
ARM GAS  C:\Users\Luis\AppData\Local\Temp\cc4eIE9x.s 			page 10


 502              		.cfi_offset 7, -8
 503              		.cfi_offset 14, -4
 504 0002 86B0     		sub	sp, sp, #24
 505              		.cfi_def_cfa_offset 32
 506 0004 00AF     		add	r7, sp, #0
 507              		.cfi_def_cfa_register 7
 508 0006 7B60     		str	r3, [r7, #4]
 509 0008 0346     		mov	r3, r0
 510 000a FB73     		strb	r3, [r7, #15]
 511 000c 0B46     		mov	r3, r1	@ movhi
 512 000e BB81     		strh	r3, [r7, #12]	@ movhi
 513 0010 1346     		mov	r3, r2	@ movhi
 514 0012 7B81     		strh	r3, [r7, #10]	@ movhi
 515              		.loc 2 224 0
 516 0014 BB89     		ldrh	r3, [r7, #12]	@ movhi
 517 0016 FB82     		strh	r3, [r7, #22]	@ movhi
 518              		.loc 2 234 0
 519 0018 BA89     		ldrh	r2, [r7, #12]
 520 001a 7B89     		ldrh	r3, [r7, #10]
 521 001c 9A42     		cmp	r2, r3
 522 001e 21D2     		bcs	.L24
 523              		.loc 2 246 0
 524 0020 97F82430 		ldrb	r3, [r7, #36]	@ zero_extendqisi2
 525 0024 03F00203 		and	r3, r3, #2
 526 0028 002B     		cmp	r3, #0
 527 002a 11D1     		bne	.L25
 528              		.loc 2 247 0 discriminator 1
 529 002c 3B6A     		ldr	r3, [r7, #32]
 530 002e 9B7F     		ldrb	r3, [r3, #30]	@ zero_extendqisi2
 531 0030 03F04003 		and	r3, r3, #64
 532              		.loc 2 246 0 discriminator 1
 533 0034 002B     		cmp	r3, #0
 534 0036 15D1     		bne	.L24
 535              		.loc 2 247 0
 536 0038 97F82830 		ldrb	r3, [r7, #40]	@ zero_extendqisi2
 537 003c 002B     		cmp	r3, #0
 538 003e 07D0     		beq	.L25
 539              		.loc 2 249 0
 540 0040 3B6A     		ldr	r3, [r7, #32]
 541 0042 DB6E     		ldr	r3, [r3, #108]
 542              		.loc 2 248 0
 543 0044 002B     		cmp	r3, #0
 544 0046 03D1     		bne	.L25
 545              		.loc 2 250 0
 546 0048 3B6A     		ldr	r3, [r7, #32]
 547 004a 1B6F     		ldr	r3, [r3, #112]
 548              		.loc 2 249 0
 549 004c 002B     		cmp	r3, #0
 550 004e 09D0     		beq	.L24
 551              	.L25:
 552              		.loc 2 251 0
 553 0050 BB89     		ldrh	r3, [r7, #12]
 554 0052 03F21B23 		addw	r3, r3, #539
 555 0056 23F00302 		bic	r2, r3, #3
 556 005a 7B89     		ldrh	r3, [r7, #10]
 557 005c 9A42     		cmp	r2, r3
 558 005e B8BF     		it	lt
ARM GAS  C:\Users\Luis\AppData\Local\Temp\cc4eIE9x.s 			page 11


 559 0060 1346     		movlt	r3, r2
 560 0062 FB82     		strh	r3, [r7, #22]	@ movhi
 561              	.L24:
 562              		.loc 2 255 0
 563 0064 FA7B     		ldrb	r2, [r7, #15]	@ zero_extendqisi2
 564 0066 FB8A     		ldrh	r3, [r7, #22]
 565 0068 1046     		mov	r0, r2
 566 006a 1946     		mov	r1, r3
 567 006c 0022     		movs	r2, #0
 568 006e FFF7FEFF 		bl	pbuf_alloc
 569 0072 3861     		str	r0, [r7, #16]
 570              		.loc 2 256 0
 571 0074 3B69     		ldr	r3, [r7, #16]
 572 0076 002B     		cmp	r3, #0
 573 0078 01D1     		bne	.L26
 574              		.loc 2 257 0
 575 007a 0023     		movs	r3, #0
 576 007c 15E0     		b	.L27
 577              	.L26:
 578              		.loc 2 259 0
 579 007e 3B69     		ldr	r3, [r7, #16]
 580 0080 1B68     		ldr	r3, [r3]
 581 0082 002B     		cmp	r3, #0
 582 0084 02D0     		beq	.L28
 583              		.loc 2 259 0 is_stmt 0 discriminator 1
 584 0086 0B48     		ldr	r0, .L29
 585 0088 FFF7FEFF 		bl	osalSysHalt
 586              	.L28:
 587              		.loc 2 260 0 is_stmt 1
 588 008c 3B69     		ldr	r3, [r7, #16]
 589 008e 5A89     		ldrh	r2, [r3, #10]
 590 0090 BB89     		ldrh	r3, [r7, #12]	@ movhi
 591 0092 D31A     		subs	r3, r2, r3
 592 0094 9AB2     		uxth	r2, r3
 593 0096 7B68     		ldr	r3, [r7, #4]
 594 0098 1A80     		strh	r2, [r3]	@ movhi
 595              		.loc 2 262 0
 596 009a 3B69     		ldr	r3, [r7, #16]
 597 009c BA89     		ldrh	r2, [r7, #12]	@ movhi
 598 009e 1A81     		strh	r2, [r3, #8]	@ movhi
 599 00a0 3B69     		ldr	r3, [r7, #16]
 600 00a2 1A89     		ldrh	r2, [r3, #8]
 601 00a4 3B69     		ldr	r3, [r7, #16]
 602 00a6 5A81     		strh	r2, [r3, #10]	@ movhi
 603              		.loc 2 263 0
 604 00a8 3B69     		ldr	r3, [r7, #16]
 605              	.L27:
 606              		.loc 2 264 0
 607 00aa 1846     		mov	r0, r3
 608 00ac 1837     		adds	r7, r7, #24
 609 00ae BD46     		mov	sp, r7
 610              		@ sp needed
 611 00b0 80BD     		pop	{r7, pc}
 612              	.L30:
 613 00b2 00BF     		.align	2
 614              	.L29:
 615 00b4 30000000 		.word	.LC1
ARM GAS  C:\Users\Luis\AppData\Local\Temp\cc4eIE9x.s 			page 12


 616              		.cfi_endproc
 617              	.LFE263:
 618              		.size	tcp_pbuf_prealloc, .-tcp_pbuf_prealloc
 619 00b8 AFF30080 		.section	.rodata
 619      AFF30080 
 620              		.align	2
 621              	.LC2:
 622 0044 7463705F 		.ascii	"tcp_write: pbufs on queue => at least one queue non"
 622      77726974 
 622      653A2070 
 622      62756673 
 622      206F6E20 
 623 0077 2D656D70 		.ascii	"-empty\000"
 623      747900
 624 007e 0000     		.align	2
 625              	.LC3:
 626 0080 7463705F 		.ascii	"tcp_write: no pbufs on queue => both queues empty\000"
 626      77726974 
 626      653A206E 
 626      6F207062 
 626      75667320 
 627              		.section	.text.tcp_write_checks,"ax",%progbits
 628              		.align	2
 629              		.p2align 4,,15
 630              		.thumb
 631              		.thumb_func
 632              		.type	tcp_write_checks, %function
 633              	tcp_write_checks:
 634              	.LFB264:
 635              		.loc 2 295 0
 636              		.cfi_startproc
 637              		@ args = 0, pretend = 0, frame = 8
 638              		@ frame_needed = 1, uses_anonymous_args = 0
 639 0000 80B5     		push	{r7, lr}
 640              		.cfi_def_cfa_offset 8
 641              		.cfi_offset 7, -8
 642              		.cfi_offset 14, -4
 643 0002 82B0     		sub	sp, sp, #8
 644              		.cfi_def_cfa_offset 16
 645 0004 00AF     		add	r7, sp, #0
 646              		.cfi_def_cfa_register 7
 647 0006 7860     		str	r0, [r7, #4]
 648 0008 0B46     		mov	r3, r1
 649 000a 7B80     		strh	r3, [r7, #2]	@ movhi
 650              		.loc 2 297 0
 651 000c 7B68     		ldr	r3, [r7, #4]
 652 000e 1B7E     		ldrb	r3, [r3, #24]	@ zero_extendqisi2
 653 0010 042B     		cmp	r3, #4
 654 0012 0DD0     		beq	.L32
 655              		.loc 2 298 0 discriminator 1
 656 0014 7B68     		ldr	r3, [r7, #4]
 657 0016 1B7E     		ldrb	r3, [r3, #24]	@ zero_extendqisi2
 658              		.loc 2 297 0 discriminator 1
 659 0018 072B     		cmp	r3, #7
 660 001a 09D0     		beq	.L32
 661              		.loc 2 299 0
 662 001c 7B68     		ldr	r3, [r7, #4]
ARM GAS  C:\Users\Luis\AppData\Local\Temp\cc4eIE9x.s 			page 13


 663 001e 1B7E     		ldrb	r3, [r3, #24]	@ zero_extendqisi2
 664              		.loc 2 298 0
 665 0020 022B     		cmp	r3, #2
 666 0022 05D0     		beq	.L32
 667              		.loc 2 300 0
 668 0024 7B68     		ldr	r3, [r7, #4]
 669 0026 1B7E     		ldrb	r3, [r3, #24]	@ zero_extendqisi2
 670              		.loc 2 299 0
 671 0028 032B     		cmp	r3, #3
 672 002a 01D0     		beq	.L32
 673              		.loc 2 302 0
 674 002c F323     		movs	r3, #243
 675 002e 4DE0     		b	.L33
 676              	.L32:
 677              		.loc 2 303 0
 678 0030 7B88     		ldrh	r3, [r7, #2]
 679 0032 002B     		cmp	r3, #0
 680 0034 01D1     		bne	.L34
 681              		.loc 2 304 0
 682 0036 0023     		movs	r3, #0
 683 0038 48E0     		b	.L33
 684              	.L34:
 685              		.loc 2 308 0
 686 003a 7B68     		ldr	r3, [r7, #4]
 687 003c B3F86630 		ldrh	r3, [r3, #102]
 688 0040 7A88     		ldrh	r2, [r7, #2]
 689 0042 9A42     		cmp	r2, r3
 690 0044 08D9     		bls	.L35
 691              		.loc 2 311 0
 692 0046 7B68     		ldr	r3, [r7, #4]
 693 0048 9B7F     		ldrb	r3, [r3, #30]	@ zero_extendqisi2
 694 004a 63F07F03 		orn	r3, r3, #127
 695 004e DAB2     		uxtb	r2, r3
 696 0050 7B68     		ldr	r3, [r7, #4]
 697 0052 9A77     		strb	r2, [r3, #30]
 698              		.loc 2 312 0
 699 0054 FF23     		movs	r3, #255
 700 0056 39E0     		b	.L33
 701              	.L35:
 702              		.loc 2 320 0
 703 0058 7B68     		ldr	r3, [r7, #4]
 704 005a B3F86830 		ldrh	r3, [r3, #104]
 705 005e 072B     		cmp	r3, #7
 706 0060 06D8     		bhi	.L36
 707              		.loc 2 320 0 is_stmt 0 discriminator 1
 708 0062 7B68     		ldr	r3, [r7, #4]
 709 0064 B3F86820 		ldrh	r2, [r3, #104]
 710 0068 4FF6FC73 		movw	r3, #65532
 711 006c 9A42     		cmp	r2, r3
 712 006e 10D9     		bls	.L37
 713              	.L36:
 714              		.loc 2 323 0 is_stmt 1
 715 0070 194B     		ldr	r3, .L42
 716 0072 B3F89C30 		ldrh	r3, [r3, #156]
 717 0076 0133     		adds	r3, r3, #1
 718 0078 9AB2     		uxth	r2, r3
 719 007a 174B     		ldr	r3, .L42
ARM GAS  C:\Users\Luis\AppData\Local\Temp\cc4eIE9x.s 			page 14


 720 007c A3F89C20 		strh	r2, [r3, #156]	@ movhi
 721              		.loc 2 324 0
 722 0080 7B68     		ldr	r3, [r7, #4]
 723 0082 9B7F     		ldrb	r3, [r3, #30]	@ zero_extendqisi2
 724 0084 63F07F03 		orn	r3, r3, #127
 725 0088 DAB2     		uxtb	r2, r3
 726 008a 7B68     		ldr	r3, [r7, #4]
 727 008c 9A77     		strb	r2, [r3, #30]
 728              		.loc 2 325 0
 729 008e FF23     		movs	r3, #255
 730 0090 1CE0     		b	.L33
 731              	.L37:
 732              		.loc 2 327 0
 733 0092 7B68     		ldr	r3, [r7, #4]
 734 0094 B3F86830 		ldrh	r3, [r3, #104]
 735 0098 002B     		cmp	r3, #0
 736 009a 0BD0     		beq	.L38
 737              		.loc 2 328 0
 738 009c 7B68     		ldr	r3, [r7, #4]
 739 009e 1B6F     		ldr	r3, [r3, #112]
 740 00a0 002B     		cmp	r3, #0
 741 00a2 12D1     		bne	.L40
 742              		.loc 2 328 0 is_stmt 0 discriminator 1
 743 00a4 7B68     		ldr	r3, [r7, #4]
 744 00a6 DB6E     		ldr	r3, [r3, #108]
 745 00a8 002B     		cmp	r3, #0
 746 00aa 0ED1     		bne	.L40
 747 00ac 0B48     		ldr	r0, .L42+4
 748 00ae FFF7FEFF 		bl	osalSysHalt
 749 00b2 0AE0     		b	.L40
 750              	.L38:
 751              		.loc 2 331 0 is_stmt 1
 752 00b4 7B68     		ldr	r3, [r7, #4]
 753 00b6 1B6F     		ldr	r3, [r3, #112]
 754 00b8 002B     		cmp	r3, #0
 755 00ba 03D1     		bne	.L41
 756              		.loc 2 331 0 is_stmt 0 discriminator 2
 757 00bc 7B68     		ldr	r3, [r7, #4]
 758 00be DB6E     		ldr	r3, [r3, #108]
 759 00c0 002B     		cmp	r3, #0
 760 00c2 02D0     		beq	.L40
 761              	.L41:
 762              		.loc 2 331 0 discriminator 1
 763 00c4 0648     		ldr	r0, .L42+8
 764 00c6 FFF7FEFF 		bl	osalSysHalt
 765              	.L40:
 766              		.loc 2 334 0 is_stmt 1
 767 00ca 0023     		movs	r3, #0
 768              	.L33:
 769 00cc 5BB2     		sxtb	r3, r3
 770              		.loc 2 335 0
 771 00ce 1846     		mov	r0, r3
 772 00d0 0837     		adds	r7, r7, #8
 773 00d2 BD46     		mov	sp, r7
 774              		@ sp needed
 775 00d4 80BD     		pop	{r7, pc}
 776              	.L43:
ARM GAS  C:\Users\Luis\AppData\Local\Temp\cc4eIE9x.s 			page 15


 777 00d6 00BF     		.align	2
 778              	.L42:
 779 00d8 00000000 		.word	lwip_stats
 780 00dc 44000000 		.word	.LC2
 781 00e0 80000000 		.word	.LC3
 782              		.cfi_endproc
 783              	.LFE264:
 784              		.size	tcp_write_checks, .-tcp_write_checks
 785 00e4 AFF30080 		.section	.rodata
 785      AFF30080 
 785      AFF30080 
 786 00b2 0000     		.align	2
 787              	.LC4:
 788 00b4 7463705F 		.ascii	"tcp_write: arg == NULL (programmer violates API)\000"
 788      77726974 
 788      653A2061 
 788      7267203D 
 788      3D204E55 
 789 00e5 000000   		.align	2
 790              	.LC5:
 791 00e8 696E636F 		.ascii	"inconsistent oversize vs. space\000"
 791      6E736973 
 791      74656E74 
 791      206F7665 
 791      7273697A 
 792              		.align	2
 793              	.LC6:
 794 0108 696E636F 		.ascii	"inconsistend oversize vs. len\000"
 794      6E736973 
 794      74656E64 
 794      206F7665 
 794      7273697A 
 795 0126 0000     		.align	2
 796              	.LC7:
 797 0128 756E7365 		.ascii	"unsent_oversize mismatch (pcb->unsent is NULL)\000"
 797      6E745F6F 
 797      76657273 
 797      697A6520 
 797      6D69736D 
 798 0157 00       		.align	2
 799              	.LC8:
 800 0158 7463705F 		.ascii	"tcp_write: check that first pbuf can hold the compl"
 800      77726974 
 800      653A2063 
 800      6865636B 
 800      20746861 
 801 018b 65746520 		.ascii	"ete seglen\000"
 801      7365676C 
 801      656E00
 802 0196 0000     		.align	2
 803              	.LC9:
 804 0198 6F766572 		.ascii	"oversize == 0\000"
 804      73697A65 
 804      203D3D20 
 804      3000
 805 01a6 0000     		.align	2
 806              	.LC10:
ARM GAS  C:\Users\Luis\AppData\Local\Temp\cc4eIE9x.s 			page 16


 807 01a8 70726576 		.ascii	"prev_seg != NULL\000"
 807      5F736567 
 807      20213D20 
 807      4E554C4C 
 807      00
 808 01b9 000000   		.align	2
 809              	.LC11:
 810 01bc 7463705F 		.ascii	"tcp_write: cannot concatenate when pcb->unsent is e"
 810      77726974 
 810      653A2063 
 810      616E6E6F 
 810      7420636F 
 811 01ef 6D707479 		.ascii	"mpty\000"
 811      00
 812              		.align	2
 813              	.LC12:
 814 01f4 7463705F 		.ascii	"tcp_write: valid queue length\000"
 814      77726974 
 814      653A2076 
 814      616C6964 
 814      20717565 
 815              		.section	.text.tcp_write,"ax",%progbits
 816              		.align	2
 817              		.p2align 4,,15
 818              		.global	tcp_write
 819              		.thumb
 820              		.thumb_func
 821              		.type	tcp_write, %function
 822              	tcp_write:
 823              	.LFB265:
 824              		.loc 2 355 0
 825              		.cfi_startproc
 826              		@ args = 0, pretend = 0, frame = 80
 827              		@ frame_needed = 1, uses_anonymous_args = 0
 828 0000 B0B5     		push	{r4, r5, r7, lr}
 829              		.cfi_def_cfa_offset 16
 830              		.cfi_offset 4, -16
 831              		.cfi_offset 5, -12
 832              		.cfi_offset 7, -8
 833              		.cfi_offset 14, -4
 834 0002 98B0     		sub	sp, sp, #96
 835              		.cfi_def_cfa_offset 112
 836 0004 04AF     		add	r7, sp, #16
 837              		.cfi_def_cfa 7, 96
 838 0006 F860     		str	r0, [r7, #12]
 839 0008 B960     		str	r1, [r7, #8]
 840 000a FA80     		strh	r2, [r7, #6]	@ movhi
 841 000c 7B71     		strb	r3, [r7, #5]
 842              		.loc 2 356 0
 843 000e 0023     		movs	r3, #0
 844 0010 FB64     		str	r3, [r7, #76]
 845              		.loc 2 357 0
 846 0012 0023     		movs	r3, #0
 847 0014 BB64     		str	r3, [r7, #72]
 848 0016 0023     		movs	r3, #0
 849 0018 7B64     		str	r3, [r7, #68]
 850 001a 0023     		movs	r3, #0
ARM GAS  C:\Users\Luis\AppData\Local\Temp\cc4eIE9x.s 			page 17


 851 001c 3B64     		str	r3, [r7, #64]
 852 001e 0023     		movs	r3, #0
 853 0020 FB63     		str	r3, [r7, #60]
 854              		.loc 2 358 0
 855 0022 0023     		movs	r3, #0
 856 0024 7B87     		strh	r3, [r7, #58]	@ movhi
 857              		.loc 2 360 0
 858 0026 0023     		movs	r3, #0
 859 0028 87F82B30 		strb	r3, [r7, #43]
 860              		.loc 2 361 0
 861 002c 0023     		movs	r3, #0
 862 002e 87F82A30 		strb	r3, [r7, #42]
 863              		.loc 2 363 0
 864 0032 0023     		movs	r3, #0
 865 0034 FB82     		strh	r3, [r7, #22]	@ movhi
 866              		.loc 2 364 0
 867 0036 0023     		movs	r3, #0
 868 0038 FB86     		strh	r3, [r7, #54]	@ movhi
 869              		.loc 2 373 0
 870 003a FB68     		ldr	r3, [r7, #12]
 871 003c B3F86230 		ldrh	r3, [r3, #98]
 872 0040 5B08     		lsrs	r3, r3, #1
 873 0042 9AB2     		uxth	r2, r3
 874 0044 FB68     		ldr	r3, [r7, #12]
 875 0046 DB8E     		ldrh	r3, [r3, #54]
 876 0048 9A42     		cmp	r2, r3
 877 004a 38BF     		it	cc
 878 004c 1346     		movcc	r3, r2
 879 004e 3B85     		strh	r3, [r7, #40]	@ movhi
 880              		.loc 2 382 0
 881 0050 BB68     		ldr	r3, [r7, #8]
 882 0052 002B     		cmp	r3, #0
 883 0054 04D1     		bne	.L45
 884              		.loc 2 382 0 is_stmt 0 discriminator 1
 885 0056 9548     		ldr	r0, .L94
 886 0058 FFF7FEFF 		bl	osalSysHalt
 887 005c F223     		movs	r3, #242
 888 005e 49E2     		b	.L93
 889              	.L45:
 890              		.loc 2 385 0 is_stmt 1
 891 0060 FB88     		ldrh	r3, [r7, #6]
 892 0062 F868     		ldr	r0, [r7, #12]
 893 0064 1946     		mov	r1, r3
 894 0066 FFF7FEFF 		bl	tcp_write_checks
 895 006a 0346     		mov	r3, r0
 896 006c 87F82730 		strb	r3, [r7, #39]
 897              		.loc 2 386 0
 898 0070 97F92730 		ldrsb	r3, [r7, #39]
 899 0074 002B     		cmp	r3, #0
 900 0076 02D0     		beq	.L47
 901              		.loc 2 387 0
 902 0078 97F82730 		ldrb	r3, [r7, #39]	@ zero_extendqisi2
 903 007c 3AE2     		b	.L93
 904              	.L47:
 905              		.loc 2 389 0
 906 007e FB68     		ldr	r3, [r7, #12]
 907 0080 B3F86830 		ldrh	r3, [r3, #104]	@ movhi
ARM GAS  C:\Users\Luis\AppData\Local\Temp\cc4eIE9x.s 			page 18


 908 0084 3B87     		strh	r3, [r7, #56]	@ movhi
 909              		.loc 2 422 0
 910 0086 FB68     		ldr	r3, [r7, #12]
 911 0088 DB6E     		ldr	r3, [r3, #108]
 912 008a 002B     		cmp	r3, #0
 913 008c 00F0AA80 		beq	.L48
 914              	.LBB3:
 915              		.loc 2 427 0
 916 0090 FB68     		ldr	r3, [r7, #12]
 917 0092 DB6E     		ldr	r3, [r3, #108]
 918 0094 BB64     		str	r3, [r7, #72]
 919 0096 02E0     		b	.L49
 920              	.L50:
 921              		.loc 2 428 0
 922 0098 BB6C     		ldr	r3, [r7, #72]
 923 009a 1B68     		ldr	r3, [r3]
 924 009c BB64     		str	r3, [r7, #72]
 925              	.L49:
 926              		.loc 2 427 0 discriminator 1
 927 009e BB6C     		ldr	r3, [r7, #72]
 928 00a0 1B68     		ldr	r3, [r3]
 929 00a2 002B     		cmp	r3, #0
 930 00a4 F8D1     		bne	.L50
 931              		.loc 2 431 0
 932 00a6 BB6C     		ldr	r3, [r7, #72]
 933 00a8 9B7A     		ldrb	r3, [r3, #10]	@ zero_extendqisi2
 934 00aa 03F00103 		and	r3, r3, #1
 935 00ae 002B     		cmp	r3, #0
 936 00b0 01D0     		beq	.L51
 937              		.loc 2 431 0 is_stmt 0 discriminator 1
 938 00b2 0422     		movs	r2, #4
 939 00b4 00E0     		b	.L52
 940              	.L51:
 941              		.loc 2 431 0 discriminator 2
 942 00b6 0022     		movs	r2, #0
 943              	.L52:
 944              		.loc 2 431 0 discriminator 3
 945 00b8 BB6C     		ldr	r3, [r7, #72]
 946 00ba 9B7A     		ldrb	r3, [r3, #10]	@ zero_extendqisi2
 947 00bc 03F00203 		and	r3, r3, #2
 948 00c0 002B     		cmp	r3, #0
 949 00c2 01D0     		beq	.L53
 950              		.loc 2 431 0 discriminator 4
 951 00c4 0C23     		movs	r3, #12
 952 00c6 00E0     		b	.L54
 953              	.L53:
 954              		.loc 2 431 0 discriminator 5
 955 00c8 0023     		movs	r3, #0
 956              	.L54:
 957              		.loc 2 431 0 discriminator 6
 958 00ca 1344     		add	r3, r3, r2
 959 00cc BB84     		strh	r3, [r7, #36]	@ movhi
 960              		.loc 2 432 0 is_stmt 1 discriminator 6
 961 00ce BB6C     		ldr	r3, [r7, #72]
 962 00d0 1A89     		ldrh	r2, [r3, #8]
 963 00d2 BB8C     		ldrh	r3, [r7, #36]	@ movhi
 964 00d4 1344     		add	r3, r3, r2
ARM GAS  C:\Users\Luis\AppData\Local\Temp\cc4eIE9x.s 			page 19


 965 00d6 9BB2     		uxth	r3, r3
 966 00d8 3A8D     		ldrh	r2, [r7, #40]	@ movhi
 967 00da D31A     		subs	r3, r2, r3
 968 00dc BB86     		strh	r3, [r7, #52]	@ movhi
 969              		.loc 2 447 0 discriminator 6
 970 00de FB68     		ldr	r3, [r7, #12]
 971 00e0 B3F86A30 		ldrh	r3, [r3, #106]
 972 00e4 FB82     		strh	r3, [r7, #22]	@ movhi
 973              		.loc 2 448 0 discriminator 6
 974 00e6 FB8A     		ldrh	r3, [r7, #22]
 975 00e8 002B     		cmp	r3, #0
 976 00ea 1BD0     		beq	.L55
 977              		.loc 2 449 0
 978 00ec FA8E     		ldrh	r2, [r7, #54]
 979 00ee BB8E     		ldrh	r3, [r7, #52]
 980 00f0 9A42     		cmp	r2, r3
 981 00f2 02D9     		bls	.L56
 982              		.loc 2 449 0 is_stmt 0 discriminator 1
 983 00f4 6E48     		ldr	r0, .L94+4
 984 00f6 FFF7FEFF 		bl	osalSysHalt
 985              	.L56:
 986              		.loc 2 450 0 is_stmt 1
 987 00fa BB6C     		ldr	r3, [r7, #72]
 988 00fc 7B64     		str	r3, [r7, #68]
 989              		.loc 2 451 0
 990 00fe FB8A     		ldrh	r3, [r7, #22]
 991 0100 FA88     		ldrh	r2, [r7, #6]
 992 0102 9A42     		cmp	r2, r3
 993 0104 38BF     		it	cc
 994 0106 1346     		movcc	r3, r2
 995 0108 FB86     		strh	r3, [r7, #54]	@ movhi
 996              		.loc 2 452 0
 997 010a 7A8F     		ldrh	r2, [r7, #58]	@ movhi
 998 010c FB8E     		ldrh	r3, [r7, #54]	@ movhi
 999 010e 1344     		add	r3, r3, r2
 1000 0110 7B87     		strh	r3, [r7, #58]	@ movhi
 1001              		.loc 2 453 0
 1002 0112 FA8A     		ldrh	r2, [r7, #22]
 1003 0114 FB8E     		ldrh	r3, [r7, #54]	@ movhi
 1004 0116 D31A     		subs	r3, r2, r3
 1005 0118 9BB2     		uxth	r3, r3
 1006 011a FB82     		strh	r3, [r7, #22]	@ movhi
 1007              		.loc 2 454 0
 1008 011c BA8E     		ldrh	r2, [r7, #52]	@ movhi
 1009 011e FB8E     		ldrh	r3, [r7, #54]	@ movhi
 1010 0120 D31A     		subs	r3, r2, r3
 1011 0122 BB86     		strh	r3, [r7, #52]	@ movhi
 1012              	.L55:
 1013              		.loc 2 457 0
 1014 0124 FB8A     		ldrh	r3, [r7, #22]
 1015 0126 002B     		cmp	r3, #0
 1016 0128 06D0     		beq	.L57
 1017              		.loc 2 457 0 is_stmt 0 discriminator 1
 1018 012a 7A8F     		ldrh	r2, [r7, #58]
 1019 012c FB88     		ldrh	r3, [r7, #6]
 1020 012e 9A42     		cmp	r2, r3
 1021 0130 02D0     		beq	.L57
ARM GAS  C:\Users\Luis\AppData\Local\Temp\cc4eIE9x.s 			page 20


 1022 0132 6048     		ldr	r0, .L94+8
 1023 0134 FFF7FEFF 		bl	osalSysHalt
 1024              	.L57:
 1025              		.loc 2 467 0 is_stmt 1
 1026 0138 7A8F     		ldrh	r2, [r7, #58]
 1027 013a FB88     		ldrh	r3, [r7, #6]
 1028 013c 9A42     		cmp	r2, r3
 1029 013e 50D2     		bcs	.L58
 1030              		.loc 2 467 0 is_stmt 0 discriminator 1
 1031 0140 BB8E     		ldrh	r3, [r7, #52]
 1032 0142 002B     		cmp	r3, #0
 1033 0144 4DD0     		beq	.L58
 1034 0146 BB6C     		ldr	r3, [r7, #72]
 1035 0148 1B89     		ldrh	r3, [r3, #8]
 1036 014a 002B     		cmp	r3, #0
 1037 014c 49D0     		beq	.L58
 1038              	.LBB4:
 1039              		.loc 2 468 0 is_stmt 1
 1040 014e FA88     		ldrh	r2, [r7, #6]
 1041 0150 7B8F     		ldrh	r3, [r7, #58]
 1042 0152 D21A     		subs	r2, r2, r3
 1043 0154 BB8E     		ldrh	r3, [r7, #52]
 1044 0156 9A42     		cmp	r2, r3
 1045 0158 B8BF     		it	lt
 1046 015a 1346     		movlt	r3, r2
 1047 015c 7B84     		strh	r3, [r7, #34]	@ movhi
 1048              		.loc 2 469 0
 1049 015e BB6C     		ldr	r3, [r7, #72]
 1050 0160 7B64     		str	r3, [r7, #68]
 1051              		.loc 2 474 0
 1052 0162 7B79     		ldrb	r3, [r7, #5]	@ zero_extendqisi2
 1053 0164 03F00103 		and	r3, r3, #1
 1054 0168 002B     		cmp	r3, #0
 1055 016a 1DD0     		beq	.L59
 1056              		.loc 2 476 0
 1057 016c 798C     		ldrh	r1, [r7, #34]
 1058 016e BA8E     		ldrh	r2, [r7, #52]
 1059 0170 07F11603 		add	r3, r7, #22
 1060 0174 F868     		ldr	r0, [r7, #12]
 1061 0176 0090     		str	r0, [sp]
 1062 0178 7879     		ldrb	r0, [r7, #5]	@ zero_extendqisi2
 1063 017a 0190     		str	r0, [sp, #4]
 1064 017c 0120     		movs	r0, #1
 1065 017e 0290     		str	r0, [sp, #8]
 1066 0180 0320     		movs	r0, #3
 1067 0182 FFF7FEFF 		bl	tcp_pbuf_prealloc
 1068 0186 F864     		str	r0, [r7, #76]
 1069 0188 FB6C     		ldr	r3, [r7, #76]
 1070 018a 002B     		cmp	r3, #0
 1071 018c 00D1     		bne	.L60
 1072              		.loc 2 480 0
 1073 018e 85E1     		b	.L61
 1074              	.L60:
 1075              		.loc 2 485 0
 1076 0190 FB6C     		ldr	r3, [r7, #76]
 1077 0192 5968     		ldr	r1, [r3, #4]
 1078 0194 7B8F     		ldrh	r3, [r7, #58]
ARM GAS  C:\Users\Luis\AppData\Local\Temp\cc4eIE9x.s 			page 21


 1079 0196 BA68     		ldr	r2, [r7, #8]
 1080 0198 1A44     		add	r2, r2, r3
 1081 019a 7B8C     		ldrh	r3, [r7, #34]
 1082 019c 0846     		mov	r0, r1
 1083 019e 1146     		mov	r1, r2
 1084 01a0 1A46     		mov	r2, r3
 1085 01a2 FFF7FEFF 		bl	memcpy
 1086 01a6 0FE0     		b	.L62
 1087              	.L59:
 1088              		.loc 2 491 0
 1089 01a8 7B8C     		ldrh	r3, [r7, #34]
 1090 01aa 0320     		movs	r0, #3
 1091 01ac 1946     		mov	r1, r3
 1092 01ae 0122     		movs	r2, #1
 1093 01b0 FFF7FEFF 		bl	pbuf_alloc
 1094 01b4 F864     		str	r0, [r7, #76]
 1095 01b6 FB6C     		ldr	r3, [r7, #76]
 1096 01b8 002B     		cmp	r3, #0
 1097 01ba 00D1     		bne	.L63
 1098              		.loc 2 494 0
 1099 01bc 6EE1     		b	.L61
 1100              	.L63:
 1101              		.loc 2 503 0
 1102 01be 7B8F     		ldrh	r3, [r7, #58]
 1103 01c0 BA68     		ldr	r2, [r7, #8]
 1104 01c2 1A44     		add	r2, r2, r3
 1105 01c4 FB6C     		ldr	r3, [r7, #76]
 1106 01c6 5A60     		str	r2, [r3, #4]
 1107              	.L62:
 1108              		.loc 2 506 0
 1109 01c8 7A8F     		ldrh	r2, [r7, #58]	@ movhi
 1110 01ca 7B8C     		ldrh	r3, [r7, #34]	@ movhi
 1111 01cc 1344     		add	r3, r3, r2
 1112 01ce 7B87     		strh	r3, [r7, #58]	@ movhi
 1113              		.loc 2 507 0
 1114 01d0 F86C     		ldr	r0, [r7, #76]
 1115 01d2 FFF7FEFF 		bl	pbuf_clen
 1116 01d6 0346     		mov	r3, r0
 1117 01d8 1A46     		mov	r2, r3
 1118 01da 3B8F     		ldrh	r3, [r7, #56]	@ movhi
 1119 01dc 1344     		add	r3, r3, r2
 1120 01de 3B87     		strh	r3, [r7, #56]	@ movhi
 1121              	.LBE4:
 1122              	.LBE3:
 1123 01e0 09E0     		b	.L64
 1124              	.L58:
 1125 01e2 08E0     		b	.L64
 1126              	.L48:
 1127              		.loc 2 511 0
 1128 01e4 FB68     		ldr	r3, [r7, #12]
 1129 01e6 B3F86A30 		ldrh	r3, [r3, #106]
 1130 01ea 002B     		cmp	r3, #0
 1131 01ec 03D0     		beq	.L64
 1132              		.loc 2 511 0 is_stmt 0 discriminator 1
 1133 01ee 3248     		ldr	r0, .L94+12
 1134 01f0 FFF7FEFF 		bl	osalSysHalt
 1135              		.loc 2 522 0 is_stmt 1 discriminator 1
ARM GAS  C:\Users\Luis\AppData\Local\Temp\cc4eIE9x.s 			page 22


 1136 01f4 B9E0     		b	.L65
 1137              	.L64:
 1138              		.loc 2 522 0 is_stmt 0
 1139 01f6 B8E0     		b	.L65
 1140              	.L79:
 1141              	.LBB5:
 1142              		.loc 2 524 0 is_stmt 1
 1143 01f8 FA88     		ldrh	r2, [r7, #6]	@ movhi
 1144 01fa 7B8F     		ldrh	r3, [r7, #58]	@ movhi
 1145 01fc D31A     		subs	r3, r2, r3
 1146 01fe 3B84     		strh	r3, [r7, #32]	@ movhi
 1147              		.loc 2 525 0
 1148 0200 97F82B30 		ldrb	r3, [r7, #43]	@ zero_extendqisi2
 1149 0204 9BB2     		uxth	r3, r3
 1150 0206 3A8D     		ldrh	r2, [r7, #40]	@ movhi
 1151 0208 D31A     		subs	r3, r2, r3
 1152 020a FB83     		strh	r3, [r7, #30]	@ movhi
 1153              		.loc 2 526 0
 1154 020c 3A8C     		ldrh	r2, [r7, #32]
 1155 020e FB8B     		ldrh	r3, [r7, #30]
 1156 0210 9A42     		cmp	r2, r3
 1157 0212 38BF     		it	cc
 1158 0214 1346     		movcc	r3, r2
 1159 0216 BB83     		strh	r3, [r7, #28]	@ movhi
 1160              		.loc 2 532 0
 1161 0218 7B79     		ldrb	r3, [r7, #5]	@ zero_extendqisi2
 1162 021a 03F00103 		and	r3, r3, #1
 1163 021e 002B     		cmp	r3, #0
 1164 0220 33D0     		beq	.L66
 1165              		.loc 2 535 0
 1166 0222 97F82B30 		ldrb	r3, [r7, #43]	@ zero_extendqisi2
 1167 0226 9AB2     		uxth	r2, r3
 1168 0228 BB8B     		ldrh	r3, [r7, #28]	@ movhi
 1169 022a 1344     		add	r3, r3, r2
 1170 022c 99B2     		uxth	r1, r3
 1171 022e FB6B     		ldr	r3, [r7, #60]
 1172 0230 002B     		cmp	r3, #0
 1173 0232 14BF     		ite	ne
 1174 0234 0023     		movne	r3, #0
 1175 0236 0123     		moveq	r3, #1
 1176 0238 DBB2     		uxtb	r3, r3
 1177 023a 1846     		mov	r0, r3
 1178 023c 3A8D     		ldrh	r2, [r7, #40]
 1179 023e 07F11603 		add	r3, r7, #22
 1180 0242 FC68     		ldr	r4, [r7, #12]
 1181 0244 0094     		str	r4, [sp]
 1182 0246 7C79     		ldrb	r4, [r7, #5]	@ zero_extendqisi2
 1183 0248 0194     		str	r4, [sp, #4]
 1184 024a 0290     		str	r0, [sp, #8]
 1185 024c 0020     		movs	r0, #0
 1186 024e FFF7FEFF 		bl	tcp_pbuf_prealloc
 1187 0252 3863     		str	r0, [r7, #48]
 1188 0254 3B6B     		ldr	r3, [r7, #48]
 1189 0256 002B     		cmp	r3, #0
 1190 0258 00D1     		bne	.L67
 1191              		.loc 2 537 0
 1192 025a 1FE1     		b	.L61
ARM GAS  C:\Users\Luis\AppData\Local\Temp\cc4eIE9x.s 			page 23


 1193              	.L67:
 1194              		.loc 2 539 0
 1195 025c 3B6B     		ldr	r3, [r7, #48]
 1196 025e 5B89     		ldrh	r3, [r3, #10]
 1197 0260 BA8B     		ldrh	r2, [r7, #28]
 1198 0262 9A42     		cmp	r2, r3
 1199 0264 02D9     		bls	.L68
 1200              		.loc 2 539 0 is_stmt 0 discriminator 1
 1201 0266 1548     		ldr	r0, .L94+16
 1202 0268 FFF7FEFF 		bl	osalSysHalt
 1203              	.L68:
 1204              		.loc 2 541 0 is_stmt 1
 1205 026c 3B6B     		ldr	r3, [r7, #48]
 1206 026e 5A68     		ldr	r2, [r3, #4]
 1207 0270 97F82B30 		ldrb	r3, [r7, #43]	@ zero_extendqisi2
 1208 0274 D118     		adds	r1, r2, r3
 1209 0276 7B8F     		ldrh	r3, [r7, #58]
 1210 0278 BA68     		ldr	r2, [r7, #8]
 1211 027a 1A44     		add	r2, r2, r3
 1212 027c BB8B     		ldrh	r3, [r7, #28]
 1213 027e 0846     		mov	r0, r1
 1214 0280 1146     		mov	r1, r2
 1215 0282 1A46     		mov	r2, r3
 1216 0284 FFF7FEFF 		bl	memcpy
 1217 0288 35E0     		b	.L69
 1218              	.L66:
 1219              	.LBB6:
 1220              		.loc 2 550 0
 1221 028a FB8A     		ldrh	r3, [r7, #22]
 1222 028c 002B     		cmp	r3, #0
 1223 028e 02D0     		beq	.L70
 1224              		.loc 2 550 0 is_stmt 0 discriminator 1
 1225 0290 0B48     		ldr	r0, .L94+20
 1226 0292 FFF7FEFF 		bl	osalSysHalt
 1227              	.L70:
 1228              		.loc 2 552 0 is_stmt 1
 1229 0296 BB8B     		ldrh	r3, [r7, #28]
 1230 0298 0020     		movs	r0, #0
 1231 029a 1946     		mov	r1, r3
 1232 029c 0122     		movs	r2, #1
 1233 029e FFF7FEFF 		bl	pbuf_alloc
 1234 02a2 B861     		str	r0, [r7, #24]
 1235 02a4 BB69     		ldr	r3, [r7, #24]
 1236 02a6 002B     		cmp	r3, #0
 1237 02a8 0CD1     		bne	.L71
 1238              		.loc 2 554 0
 1239 02aa F7E0     		b	.L61
 1240              	.L95:
 1241              		.align	2
 1242              	.L94:
 1243 02ac B4000000 		.word	.LC4
 1244 02b0 E8000000 		.word	.LC5
 1245 02b4 08010000 		.word	.LC6
 1246 02b8 28010000 		.word	.LC7
 1247 02bc 58010000 		.word	.LC8
 1248 02c0 98010000 		.word	.LC9
 1249              	.L71:
ARM GAS  C:\Users\Luis\AppData\Local\Temp\cc4eIE9x.s 			page 24


 1250              		.loc 2 561 0
 1251 02c4 7B8F     		ldrh	r3, [r7, #58]
 1252 02c6 BA68     		ldr	r2, [r7, #8]
 1253 02c8 1A44     		add	r2, r2, r3
 1254 02ca BB69     		ldr	r3, [r7, #24]
 1255 02cc 5A60     		str	r2, [r3, #4]
 1256              		.loc 2 564 0
 1257 02ce 97F82B30 		ldrb	r3, [r7, #43]	@ zero_extendqisi2
 1258 02d2 9BB2     		uxth	r3, r3
 1259 02d4 0020     		movs	r0, #0
 1260 02d6 1946     		mov	r1, r3
 1261 02d8 0022     		movs	r2, #0
 1262 02da FFF7FEFF 		bl	pbuf_alloc
 1263 02de 3863     		str	r0, [r7, #48]
 1264 02e0 3B6B     		ldr	r3, [r7, #48]
 1265 02e2 002B     		cmp	r3, #0
 1266 02e4 03D1     		bne	.L72
 1267              		.loc 2 567 0
 1268 02e6 B869     		ldr	r0, [r7, #24]
 1269 02e8 FFF7FEFF 		bl	pbuf_free
 1270              		.loc 2 569 0
 1271 02ec D6E0     		b	.L61
 1272              	.L72:
 1273              		.loc 2 572 0
 1274 02ee 386B     		ldr	r0, [r7, #48]
 1275 02f0 B969     		ldr	r1, [r7, #24]
 1276 02f2 FFF7FEFF 		bl	pbuf_cat
 1277              	.L69:
 1278              	.LBE6:
 1279              		.loc 2 575 0
 1280 02f6 386B     		ldr	r0, [r7, #48]
 1281 02f8 FFF7FEFF 		bl	pbuf_clen
 1282 02fc 0346     		mov	r3, r0
 1283 02fe 1A46     		mov	r2, r3
 1284 0300 3B8F     		ldrh	r3, [r7, #56]	@ movhi
 1285 0302 1344     		add	r3, r3, r2
 1286 0304 3B87     		strh	r3, [r7, #56]	@ movhi
 1287              		.loc 2 580 0
 1288 0306 3B8F     		ldrh	r3, [r7, #56]
 1289 0308 082B     		cmp	r3, #8
 1290 030a 04D8     		bhi	.L73
 1291              		.loc 2 580 0 is_stmt 0 discriminator 1
 1292 030c 3A8F     		ldrh	r2, [r7, #56]
 1293 030e 4FF6FC73 		movw	r3, #65532
 1294 0312 9A42     		cmp	r2, r3
 1295 0314 03D9     		bls	.L74
 1296              	.L73:
 1297              		.loc 2 582 0 is_stmt 1
 1298 0316 386B     		ldr	r0, [r7, #48]
 1299 0318 FFF7FEFF 		bl	pbuf_free
 1300              		.loc 2 583 0
 1301 031c BEE0     		b	.L61
 1302              	.L74:
 1303              		.loc 2 586 0
 1304 031e FB68     		ldr	r3, [r7, #12]
 1305 0320 DA6D     		ldr	r2, [r3, #92]
 1306 0322 7B8F     		ldrh	r3, [r7, #58]
ARM GAS  C:\Users\Luis\AppData\Local\Temp\cc4eIE9x.s 			page 25


 1307 0324 1344     		add	r3, r3, r2
 1308 0326 97F82A20 		ldrb	r2, [r7, #42]	@ zero_extendqisi2
 1309 032a 0092     		str	r2, [sp]
 1310 032c F868     		ldr	r0, [r7, #12]
 1311 032e 396B     		ldr	r1, [r7, #48]
 1312 0330 0022     		movs	r2, #0
 1313 0332 FFF7FEFF 		bl	tcp_create_segment
 1314 0336 7864     		str	r0, [r7, #68]
 1315 0338 7B6C     		ldr	r3, [r7, #68]
 1316 033a 002B     		cmp	r3, #0
 1317 033c 00D1     		bne	.L75
 1318              		.loc 2 587 0
 1319 033e ADE0     		b	.L61
 1320              	.L75:
 1321              		.loc 2 599 0
 1322 0340 FB6B     		ldr	r3, [r7, #60]
 1323 0342 002B     		cmp	r3, #0
 1324 0344 02D1     		bne	.L76
 1325              		.loc 2 600 0
 1326 0346 7B6C     		ldr	r3, [r7, #68]
 1327 0348 FB63     		str	r3, [r7, #60]
 1328 034a 08E0     		b	.L77
 1329              	.L76:
 1330              		.loc 2 603 0
 1331 034c 3B6C     		ldr	r3, [r7, #64]
 1332 034e 002B     		cmp	r3, #0
 1333 0350 02D1     		bne	.L78
 1334              		.loc 2 603 0 is_stmt 0 discriminator 1
 1335 0352 6B48     		ldr	r0, .L96
 1336 0354 FFF7FEFF 		bl	osalSysHalt
 1337              	.L78:
 1338              		.loc 2 604 0 is_stmt 1
 1339 0358 3B6C     		ldr	r3, [r7, #64]
 1340 035a 7A6C     		ldr	r2, [r7, #68]
 1341 035c 1A60     		str	r2, [r3]
 1342              	.L77:
 1343              		.loc 2 607 0
 1344 035e 7B6C     		ldr	r3, [r7, #68]
 1345 0360 3B64     		str	r3, [r7, #64]
 1346              		.loc 2 613 0
 1347 0362 7A8F     		ldrh	r2, [r7, #58]	@ movhi
 1348 0364 BB8B     		ldrh	r3, [r7, #28]	@ movhi
 1349 0366 1344     		add	r3, r3, r2
 1350 0368 7B87     		strh	r3, [r7, #58]	@ movhi
 1351              	.L65:
 1352              	.LBE5:
 1353              		.loc 2 522 0 discriminator 1
 1354 036a 7A8F     		ldrh	r2, [r7, #58]
 1355 036c FB88     		ldrh	r3, [r7, #6]
 1356 036e 9A42     		cmp	r2, r3
 1357 0370 FFF442AF 		bcc	.L79
 1358              		.loc 2 626 0
 1359 0374 FB8E     		ldrh	r3, [r7, #54]
 1360 0376 002B     		cmp	r3, #0
 1361 0378 2DD0     		beq	.L80
 1362              	.LBB7:
 1363              		.loc 2 629 0
ARM GAS  C:\Users\Luis\AppData\Local\Temp\cc4eIE9x.s 			page 26


 1364 037a BB6C     		ldr	r3, [r7, #72]
 1365 037c 5B68     		ldr	r3, [r3, #4]
 1366 037e FB62     		str	r3, [r7, #44]
 1367 0380 1FE0     		b	.L81
 1368              	.L83:
 1369              		.loc 2 630 0
 1370 0382 FB6A     		ldr	r3, [r7, #44]
 1371 0384 1A89     		ldrh	r2, [r3, #8]
 1372 0386 FB8E     		ldrh	r3, [r7, #54]	@ movhi
 1373 0388 1344     		add	r3, r3, r2
 1374 038a 9AB2     		uxth	r2, r3
 1375 038c FB6A     		ldr	r3, [r7, #44]
 1376 038e 1A81     		strh	r2, [r3, #8]	@ movhi
 1377              		.loc 2 631 0
 1378 0390 FB6A     		ldr	r3, [r7, #44]
 1379 0392 1B68     		ldr	r3, [r3]
 1380 0394 002B     		cmp	r3, #0
 1381 0396 11D1     		bne	.L82
 1382              		.loc 2 632 0
 1383 0398 FB6A     		ldr	r3, [r7, #44]
 1384 039a 5A68     		ldr	r2, [r3, #4]
 1385 039c FB6A     		ldr	r3, [r7, #44]
 1386 039e 5B89     		ldrh	r3, [r3, #10]
 1387 03a0 1A44     		add	r2, r2, r3
 1388 03a2 FB8E     		ldrh	r3, [r7, #54]
 1389 03a4 1046     		mov	r0, r2
 1390 03a6 B968     		ldr	r1, [r7, #8]
 1391 03a8 1A46     		mov	r2, r3
 1392 03aa FFF7FEFF 		bl	memcpy
 1393              		.loc 2 633 0
 1394 03ae FB6A     		ldr	r3, [r7, #44]
 1395 03b0 5A89     		ldrh	r2, [r3, #10]
 1396 03b2 FB8E     		ldrh	r3, [r7, #54]	@ movhi
 1397 03b4 1344     		add	r3, r3, r2
 1398 03b6 9AB2     		uxth	r2, r3
 1399 03b8 FB6A     		ldr	r3, [r7, #44]
 1400 03ba 5A81     		strh	r2, [r3, #10]	@ movhi
 1401              	.L82:
 1402              		.loc 2 629 0
 1403 03bc FB6A     		ldr	r3, [r7, #44]
 1404 03be 1B68     		ldr	r3, [r3]
 1405 03c0 FB62     		str	r3, [r7, #44]
 1406              	.L81:
 1407              		.loc 2 629 0 is_stmt 0 discriminator 1
 1408 03c2 FB6A     		ldr	r3, [r7, #44]
 1409 03c4 002B     		cmp	r3, #0
 1410 03c6 DCD1     		bne	.L83
 1411              		.loc 2 636 0 is_stmt 1
 1412 03c8 BB6C     		ldr	r3, [r7, #72]
 1413 03ca 1A89     		ldrh	r2, [r3, #8]
 1414 03cc FB8E     		ldrh	r3, [r7, #54]	@ movhi
 1415 03ce 1344     		add	r3, r3, r2
 1416 03d0 9AB2     		uxth	r2, r3
 1417 03d2 BB6C     		ldr	r3, [r7, #72]
 1418 03d4 1A81     		strh	r2, [r3, #8]	@ movhi
 1419              	.L80:
 1420              	.LBE7:
ARM GAS  C:\Users\Luis\AppData\Local\Temp\cc4eIE9x.s 			page 27


 1421              		.loc 2 643 0
 1422 03d6 FA8A     		ldrh	r2, [r7, #22]
 1423 03d8 FB68     		ldr	r3, [r7, #12]
 1424 03da A3F86A20 		strh	r2, [r3, #106]	@ movhi
 1425              		.loc 2 649 0
 1426 03de FB6C     		ldr	r3, [r7, #76]
 1427 03e0 002B     		cmp	r3, #0
 1428 03e2 13D0     		beq	.L84
 1429              		.loc 2 650 0
 1430 03e4 BB6C     		ldr	r3, [r7, #72]
 1431 03e6 002B     		cmp	r3, #0
 1432 03e8 02D1     		bne	.L85
 1433              		.loc 2 650 0 is_stmt 0 discriminator 1
 1434 03ea 4648     		ldr	r0, .L96+4
 1435 03ec FFF7FEFF 		bl	osalSysHalt
 1436              	.L85:
 1437              		.loc 2 652 0 is_stmt 1
 1438 03f0 BB6C     		ldr	r3, [r7, #72]
 1439 03f2 5B68     		ldr	r3, [r3, #4]
 1440 03f4 1846     		mov	r0, r3
 1441 03f6 F96C     		ldr	r1, [r7, #76]
 1442 03f8 FFF7FEFF 		bl	pbuf_cat
 1443              		.loc 2 653 0
 1444 03fc BB6C     		ldr	r3, [r7, #72]
 1445 03fe 1A89     		ldrh	r2, [r3, #8]
 1446 0400 FB6C     		ldr	r3, [r7, #76]
 1447 0402 1B89     		ldrh	r3, [r3, #8]
 1448 0404 1344     		add	r3, r3, r2
 1449 0406 9AB2     		uxth	r2, r3
 1450 0408 BB6C     		ldr	r3, [r7, #72]
 1451 040a 1A81     		strh	r2, [r3, #8]	@ movhi
 1452              	.L84:
 1453              		.loc 2 667 0
 1454 040c BB6C     		ldr	r3, [r7, #72]
 1455 040e 002B     		cmp	r3, #0
 1456 0410 03D1     		bne	.L86
 1457              		.loc 2 668 0
 1458 0412 FB68     		ldr	r3, [r7, #12]
 1459 0414 FA6B     		ldr	r2, [r7, #60]
 1460 0416 DA66     		str	r2, [r3, #108]
 1461 0418 02E0     		b	.L87
 1462              	.L86:
 1463              		.loc 2 670 0
 1464 041a BB6C     		ldr	r3, [r7, #72]
 1465 041c FA6B     		ldr	r2, [r7, #60]
 1466 041e 1A60     		str	r2, [r3]
 1467              	.L87:
 1468              		.loc 2 676 0
 1469 0420 FB68     		ldr	r3, [r7, #12]
 1470 0422 DA6D     		ldr	r2, [r3, #92]
 1471 0424 FB88     		ldrh	r3, [r7, #6]
 1472 0426 1A44     		add	r2, r2, r3
 1473 0428 FB68     		ldr	r3, [r7, #12]
 1474 042a DA65     		str	r2, [r3, #92]
 1475              		.loc 2 677 0
 1476 042c FB68     		ldr	r3, [r7, #12]
 1477 042e B3F86620 		ldrh	r2, [r3, #102]
ARM GAS  C:\Users\Luis\AppData\Local\Temp\cc4eIE9x.s 			page 28


 1478 0432 FB88     		ldrh	r3, [r7, #6]	@ movhi
 1479 0434 D31A     		subs	r3, r2, r3
 1480 0436 9AB2     		uxth	r2, r3
 1481 0438 FB68     		ldr	r3, [r7, #12]
 1482 043a A3F86620 		strh	r2, [r3, #102]	@ movhi
 1483              		.loc 2 678 0
 1484 043e FB68     		ldr	r3, [r7, #12]
 1485 0440 3A8F     		ldrh	r2, [r7, #56]	@ movhi
 1486 0442 A3F86820 		strh	r2, [r3, #104]	@ movhi
 1487              		.loc 2 682 0
 1488 0446 FB68     		ldr	r3, [r7, #12]
 1489 0448 B3F86830 		ldrh	r3, [r3, #104]
 1490 044c 002B     		cmp	r3, #0
 1491 044e 0AD0     		beq	.L88
 1492              		.loc 2 683 0
 1493 0450 FB68     		ldr	r3, [r7, #12]
 1494 0452 1B6F     		ldr	r3, [r3, #112]
 1495 0454 002B     		cmp	r3, #0
 1496 0456 06D1     		bne	.L88
 1497              		.loc 2 683 0 is_stmt 0 discriminator 1
 1498 0458 FB68     		ldr	r3, [r7, #12]
 1499 045a DB6E     		ldr	r3, [r3, #108]
 1500 045c 002B     		cmp	r3, #0
 1501 045e 02D1     		bne	.L88
 1502 0460 2948     		ldr	r0, .L96+8
 1503 0462 FFF7FEFF 		bl	osalSysHalt
 1504              	.L88:
 1505              		.loc 2 688 0 is_stmt 1
 1506 0466 7B6C     		ldr	r3, [r7, #68]
 1507 0468 002B     		cmp	r3, #0
 1508 046a 15D0     		beq	.L89
 1509              		.loc 2 688 0 is_stmt 0 discriminator 1
 1510 046c 7B6C     		ldr	r3, [r7, #68]
 1511 046e DB68     		ldr	r3, [r3, #12]
 1512 0470 002B     		cmp	r3, #0
 1513 0472 11D0     		beq	.L89
 1514 0474 7B79     		ldrb	r3, [r7, #5]	@ zero_extendqisi2
 1515 0476 03F00203 		and	r3, r3, #2
 1516 047a 002B     		cmp	r3, #0
 1517 047c 0CD1     		bne	.L89
 1518              		.loc 2 689 0 is_stmt 1
 1519 047e 7B6C     		ldr	r3, [r7, #68]
 1520 0480 DC68     		ldr	r4, [r3, #12]
 1521 0482 7B6C     		ldr	r3, [r7, #68]
 1522 0484 DB68     		ldr	r3, [r3, #12]
 1523 0486 9B89     		ldrh	r3, [r3, #12]	@ unaligned
 1524 0488 9DB2     		uxth	r5, r3
 1525 048a 0820     		movs	r0, #8
 1526 048c FFF7FEFF 		bl	lwip_htons
 1527 0490 0346     		mov	r3, r0
 1528 0492 2B43     		orrs	r3, r3, r5
 1529 0494 9BB2     		uxth	r3, r3
 1530 0496 A381     		strh	r3, [r4, #12]	@ unaligned
 1531              	.L89:
 1532              		.loc 2 692 0
 1533 0498 0023     		movs	r3, #0
 1534 049a 2BE0     		b	.L93
ARM GAS  C:\Users\Luis\AppData\Local\Temp\cc4eIE9x.s 			page 29


 1535              	.L61:
 1536              		.loc 2 694 0
 1537 049c FB68     		ldr	r3, [r7, #12]
 1538 049e 9B7F     		ldrb	r3, [r3, #30]	@ zero_extendqisi2
 1539 04a0 63F07F03 		orn	r3, r3, #127
 1540 04a4 DAB2     		uxtb	r2, r3
 1541 04a6 FB68     		ldr	r3, [r7, #12]
 1542 04a8 9A77     		strb	r2, [r3, #30]
 1543              		.loc 2 695 0
 1544 04aa 184B     		ldr	r3, .L96+12
 1545 04ac B3F89C30 		ldrh	r3, [r3, #156]
 1546 04b0 0133     		adds	r3, r3, #1
 1547 04b2 9AB2     		uxth	r2, r3
 1548 04b4 154B     		ldr	r3, .L96+12
 1549 04b6 A3F89C20 		strh	r2, [r3, #156]	@ movhi
 1550              		.loc 2 697 0
 1551 04ba FB6C     		ldr	r3, [r7, #76]
 1552 04bc 002B     		cmp	r3, #0
 1553 04be 02D0     		beq	.L90
 1554              		.loc 2 698 0
 1555 04c0 F86C     		ldr	r0, [r7, #76]
 1556 04c2 FFF7FEFF 		bl	pbuf_free
 1557              	.L90:
 1558              		.loc 2 700 0
 1559 04c6 FB6B     		ldr	r3, [r7, #60]
 1560 04c8 002B     		cmp	r3, #0
 1561 04ca 02D0     		beq	.L91
 1562              		.loc 2 701 0
 1563 04cc F86B     		ldr	r0, [r7, #60]
 1564 04ce FFF7FEFF 		bl	tcp_segs_free
 1565              	.L91:
 1566              		.loc 2 703 0
 1567 04d2 FB68     		ldr	r3, [r7, #12]
 1568 04d4 B3F86830 		ldrh	r3, [r3, #104]
 1569 04d8 002B     		cmp	r3, #0
 1570 04da 0AD0     		beq	.L92
 1571              		.loc 2 704 0
 1572 04dc FB68     		ldr	r3, [r7, #12]
 1573 04de 1B6F     		ldr	r3, [r3, #112]
 1574 04e0 002B     		cmp	r3, #0
 1575 04e2 06D1     		bne	.L92
 1576              		.loc 2 704 0 is_stmt 0 discriminator 1
 1577 04e4 FB68     		ldr	r3, [r7, #12]
 1578 04e6 DB6E     		ldr	r3, [r3, #108]
 1579 04e8 002B     		cmp	r3, #0
 1580 04ea 02D1     		bne	.L92
 1581 04ec 0648     		ldr	r0, .L96+8
 1582 04ee FFF7FEFF 		bl	osalSysHalt
 1583              	.L92:
 1584              		.loc 2 708 0 is_stmt 1
 1585 04f2 FF23     		movs	r3, #255
 1586              	.L93:
 1587 04f4 5BB2     		sxtb	r3, r3
 1588              		.loc 2 709 0
 1589 04f6 1846     		mov	r0, r3
 1590 04f8 5037     		adds	r7, r7, #80
 1591 04fa BD46     		mov	sp, r7
ARM GAS  C:\Users\Luis\AppData\Local\Temp\cc4eIE9x.s 			page 30


 1592              		@ sp needed
 1593 04fc B0BD     		pop	{r4, r5, r7, pc}
 1594              	.L97:
 1595 04fe 00BF     		.align	2
 1596              	.L96:
 1597 0500 A8010000 		.word	.LC10
 1598 0504 BC010000 		.word	.LC11
 1599 0508 F4010000 		.word	.LC12
 1600 050c 00000000 		.word	lwip_stats
 1601              		.cfi_endproc
 1602              	.LFE265:
 1603              		.size	tcp_write, .-tcp_write
 1604              		.section	.rodata
 1605 0212 0000     		.align	2
 1606              	.LC13:
 1607 0214 7463705F 		.ascii	"tcp_enqueue_flags: need either TCP_SYN or TCP_FIN i"
 1607      656E7175 
 1607      6575655F 
 1607      666C6167 
 1607      733A206E 
 1608 0247 6E20666C 		.ascii	"n flags (programmer violates API)\000"
 1608      61677320 
 1608      2870726F 
 1608      6772616D 
 1608      6D657220 
 1609 0269 000000   		.align	2
 1610              	.LC14:
 1611 026c 7463705F 		.ascii	"tcp_enqueue_flags: check that first pbuf can hold o"
 1611      656E7175 
 1611      6575655F 
 1611      666C6167 
 1611      733A2063 
 1612 029f 70746C65 		.ascii	"ptlen\000"
 1612      6E00
 1613 02a5 000000   		.align	2
 1614              	.LC15:
 1615 02a8 7365672D 		.ascii	"seg->tcphdr not aligned\000"
 1615      3E746370 
 1615      68647220 
 1615      6E6F7420 
 1615      616C6967 
 1616              		.align	2
 1617              	.LC16:
 1618 02c0 7463705F 		.ascii	"tcp_enqueue_flags: invalid segment length\000"
 1618      656E7175 
 1618      6575655F 
 1618      666C6167 
 1618      733A2069 
 1619 02ea 0000     		.align	2
 1620              	.LC17:
 1621 02ec 7463705F 		.ascii	"tcp_enqueue_flags: invalid queue length\000"
 1621      656E7175 
 1621      6575655F 
 1621      666C6167 
 1621      733A2069 
 1622              		.section	.text.tcp_enqueue_flags,"ax",%progbits
 1623              		.align	2
ARM GAS  C:\Users\Luis\AppData\Local\Temp\cc4eIE9x.s 			page 31


 1624              		.p2align 4,,15
 1625              		.global	tcp_enqueue_flags
 1626              		.thumb
 1627              		.thumb_func
 1628              		.type	tcp_enqueue_flags, %function
 1629              	tcp_enqueue_flags:
 1630              	.LFB266:
 1631              		.loc 2 723 0
 1632              		.cfi_startproc
 1633              		@ args = 0, pretend = 0, frame = 32
 1634              		@ frame_needed = 1, uses_anonymous_args = 0
 1635 0000 90B5     		push	{r4, r7, lr}
 1636              		.cfi_def_cfa_offset 12
 1637              		.cfi_offset 4, -12
 1638              		.cfi_offset 7, -8
 1639              		.cfi_offset 14, -4
 1640 0002 8BB0     		sub	sp, sp, #44
 1641              		.cfi_def_cfa_offset 56
 1642 0004 02AF     		add	r7, sp, #8
 1643              		.cfi_def_cfa 7, 48
 1644 0006 7860     		str	r0, [r7, #4]
 1645 0008 0B46     		mov	r3, r1
 1646 000a FB70     		strb	r3, [r7, #3]
 1647              		.loc 2 726 0
 1648 000c 0023     		movs	r3, #0
 1649 000e FB77     		strb	r3, [r7, #31]
 1650              		.loc 2 727 0
 1651 0010 0023     		movs	r3, #0
 1652 0012 FB75     		strb	r3, [r7, #23]
 1653              		.loc 2 731 0
 1654 0014 FB78     		ldrb	r3, [r7, #3]	@ zero_extendqisi2
 1655 0016 03F00303 		and	r3, r3, #3
 1656 001a 002B     		cmp	r3, #0
 1657 001c 02D1     		bne	.L99
 1658              		.loc 2 731 0 is_stmt 0 discriminator 1
 1659 001e 7E48     		ldr	r0, .L122
 1660 0020 FFF7FEFF 		bl	osalSysHalt
 1661              	.L99:
 1662              		.loc 2 735 0 is_stmt 1
 1663 0024 7B68     		ldr	r3, [r7, #4]
 1664 0026 B3F86830 		ldrh	r3, [r3, #104]
 1665 002a 072B     		cmp	r3, #7
 1666 002c 06D8     		bhi	.L100
 1667              		.loc 2 735 0 is_stmt 0 discriminator 1
 1668 002e 7B68     		ldr	r3, [r7, #4]
 1669 0030 B3F86820 		ldrh	r2, [r3, #104]
 1670 0034 4FF6FC73 		movw	r3, #65532
 1671 0038 9A42     		cmp	r2, r3
 1672 003a 10D9     		bls	.L101
 1673              	.L100:
 1674              		.loc 2 738 0 is_stmt 1
 1675 003c 774B     		ldr	r3, .L122+4
 1676 003e B3F89C30 		ldrh	r3, [r3, #156]
 1677 0042 0133     		adds	r3, r3, #1
 1678 0044 9AB2     		uxth	r2, r3
 1679 0046 754B     		ldr	r3, .L122+4
 1680 0048 A3F89C20 		strh	r2, [r3, #156]	@ movhi
ARM GAS  C:\Users\Luis\AppData\Local\Temp\cc4eIE9x.s 			page 32


 1681              		.loc 2 739 0
 1682 004c 7B68     		ldr	r3, [r7, #4]
 1683 004e 9B7F     		ldrb	r3, [r3, #30]	@ zero_extendqisi2
 1684 0050 63F07F03 		orn	r3, r3, #127
 1685 0054 DAB2     		uxtb	r2, r3
 1686 0056 7B68     		ldr	r3, [r7, #4]
 1687 0058 9A77     		strb	r2, [r3, #30]
 1688              		.loc 2 740 0
 1689 005a FF23     		movs	r3, #255
 1690 005c D6E0     		b	.L102
 1691              	.L101:
 1692              		.loc 2 743 0
 1693 005e FB78     		ldrb	r3, [r7, #3]	@ zero_extendqisi2
 1694 0060 03F00203 		and	r3, r3, #2
 1695 0064 002B     		cmp	r3, #0
 1696 0066 01D0     		beq	.L103
 1697              		.loc 2 744 0
 1698 0068 0123     		movs	r3, #1
 1699 006a FB77     		strb	r3, [r7, #31]
 1700              	.L103:
 1701              		.loc 2 751 0
 1702 006c FB7F     		ldrb	r3, [r7, #31]	@ zero_extendqisi2
 1703 006e 03F00103 		and	r3, r3, #1
 1704 0072 002B     		cmp	r3, #0
 1705 0074 01D0     		beq	.L104
 1706              		.loc 2 751 0 is_stmt 0 discriminator 1
 1707 0076 0422     		movs	r2, #4
 1708 0078 00E0     		b	.L105
 1709              	.L104:
 1710              		.loc 2 751 0 discriminator 2
 1711 007a 0022     		movs	r2, #0
 1712              	.L105:
 1713              		.loc 2 751 0 discriminator 3
 1714 007c FB7F     		ldrb	r3, [r7, #31]	@ zero_extendqisi2
 1715 007e 03F00203 		and	r3, r3, #2
 1716 0082 002B     		cmp	r3, #0
 1717 0084 01D0     		beq	.L106
 1718              		.loc 2 751 0 discriminator 4
 1719 0086 0C23     		movs	r3, #12
 1720 0088 00E0     		b	.L107
 1721              	.L106:
 1722              		.loc 2 751 0 discriminator 5
 1723 008a 0023     		movs	r3, #0
 1724              	.L107:
 1725              		.loc 2 751 0 discriminator 6
 1726 008c 1344     		add	r3, r3, r2
 1727 008e FB75     		strb	r3, [r7, #23]
 1728              		.loc 2 757 0 is_stmt 1 discriminator 6
 1729 0090 7B68     		ldr	r3, [r7, #4]
 1730 0092 B3F86630 		ldrh	r3, [r3, #102]
 1731 0096 002B     		cmp	r3, #0
 1732 0098 09D1     		bne	.L108
 1733              		.loc 2 759 0
 1734 009a 604B     		ldr	r3, .L122+4
 1735 009c B3F89C30 		ldrh	r3, [r3, #156]
 1736 00a0 0133     		adds	r3, r3, #1
 1737 00a2 9AB2     		uxth	r2, r3
ARM GAS  C:\Users\Luis\AppData\Local\Temp\cc4eIE9x.s 			page 33


 1738 00a4 5D4B     		ldr	r3, .L122+4
 1739 00a6 A3F89C20 		strh	r2, [r3, #156]	@ movhi
 1740              		.loc 2 760 0
 1741 00aa FF23     		movs	r3, #255
 1742 00ac AEE0     		b	.L102
 1743              	.L108:
 1744              		.loc 2 764 0
 1745 00ae FB7D     		ldrb	r3, [r7, #23]	@ zero_extendqisi2
 1746 00b0 9BB2     		uxth	r3, r3
 1747 00b2 0020     		movs	r0, #0
 1748 00b4 1946     		mov	r1, r3
 1749 00b6 0022     		movs	r2, #0
 1750 00b8 FFF7FEFF 		bl	pbuf_alloc
 1751 00bc 3861     		str	r0, [r7, #16]
 1752 00be 3B69     		ldr	r3, [r7, #16]
 1753 00c0 002B     		cmp	r3, #0
 1754 00c2 10D1     		bne	.L109
 1755              		.loc 2 765 0
 1756 00c4 7B68     		ldr	r3, [r7, #4]
 1757 00c6 9B7F     		ldrb	r3, [r3, #30]	@ zero_extendqisi2
 1758 00c8 63F07F03 		orn	r3, r3, #127
 1759 00cc DAB2     		uxtb	r2, r3
 1760 00ce 7B68     		ldr	r3, [r7, #4]
 1761 00d0 9A77     		strb	r2, [r3, #30]
 1762              		.loc 2 766 0
 1763 00d2 524B     		ldr	r3, .L122+4
 1764 00d4 B3F89C30 		ldrh	r3, [r3, #156]
 1765 00d8 0133     		adds	r3, r3, #1
 1766 00da 9AB2     		uxth	r2, r3
 1767 00dc 4F4B     		ldr	r3, .L122+4
 1768 00de A3F89C20 		strh	r2, [r3, #156]	@ movhi
 1769              		.loc 2 767 0
 1770 00e2 FF23     		movs	r3, #255
 1771 00e4 92E0     		b	.L102
 1772              	.L109:
 1773              		.loc 2 769 0
 1774 00e6 3B69     		ldr	r3, [r7, #16]
 1775 00e8 5A89     		ldrh	r2, [r3, #10]
 1776 00ea FB7D     		ldrb	r3, [r7, #23]	@ zero_extendqisi2
 1777 00ec 9BB2     		uxth	r3, r3
 1778 00ee 9A42     		cmp	r2, r3
 1779 00f0 02D2     		bcs	.L110
 1780              		.loc 2 769 0 is_stmt 0 discriminator 1
 1781 00f2 4B48     		ldr	r0, .L122+8
 1782 00f4 FFF7FEFF 		bl	osalSysHalt
 1783              	.L110:
 1784              		.loc 2 773 0 is_stmt 1
 1785 00f8 7B68     		ldr	r3, [r7, #4]
 1786 00fa DB6D     		ldr	r3, [r3, #92]
 1787 00fc FA78     		ldrb	r2, [r7, #3]	@ zero_extendqisi2
 1788 00fe F97F     		ldrb	r1, [r7, #31]	@ zero_extendqisi2
 1789 0100 0091     		str	r1, [sp]
 1790 0102 7868     		ldr	r0, [r7, #4]
 1791 0104 3969     		ldr	r1, [r7, #16]
 1792 0106 FFF7FEFF 		bl	tcp_create_segment
 1793 010a F860     		str	r0, [r7, #12]
 1794 010c FB68     		ldr	r3, [r7, #12]
ARM GAS  C:\Users\Luis\AppData\Local\Temp\cc4eIE9x.s 			page 34


 1795 010e 002B     		cmp	r3, #0
 1796 0110 10D1     		bne	.L111
 1797              		.loc 2 774 0
 1798 0112 7B68     		ldr	r3, [r7, #4]
 1799 0114 9B7F     		ldrb	r3, [r3, #30]	@ zero_extendqisi2
 1800 0116 63F07F03 		orn	r3, r3, #127
 1801 011a DAB2     		uxtb	r2, r3
 1802 011c 7B68     		ldr	r3, [r7, #4]
 1803 011e 9A77     		strb	r2, [r3, #30]
 1804              		.loc 2 775 0
 1805 0120 3E4B     		ldr	r3, .L122+4
 1806 0122 B3F89C30 		ldrh	r3, [r3, #156]
 1807 0126 0133     		adds	r3, r3, #1
 1808 0128 9AB2     		uxth	r2, r3
 1809 012a 3C4B     		ldr	r3, .L122+4
 1810 012c A3F89C20 		strh	r2, [r3, #156]	@ movhi
 1811              		.loc 2 776 0
 1812 0130 FF23     		movs	r3, #255
 1813 0132 6BE0     		b	.L102
 1814              	.L111:
 1815              		.loc 2 778 0
 1816 0134 FB68     		ldr	r3, [r7, #12]
 1817 0136 DB68     		ldr	r3, [r3, #12]
 1818 0138 03F00303 		and	r3, r3, #3
 1819 013c 002B     		cmp	r3, #0
 1820 013e 02D0     		beq	.L112
 1821              		.loc 2 778 0 is_stmt 0 discriminator 1
 1822 0140 3848     		ldr	r0, .L122+12
 1823 0142 FFF7FEFF 		bl	osalSysHalt
 1824              	.L112:
 1825              		.loc 2 779 0 is_stmt 1
 1826 0146 FB68     		ldr	r3, [r7, #12]
 1827 0148 1B89     		ldrh	r3, [r3, #8]
 1828 014a 002B     		cmp	r3, #0
 1829 014c 02D0     		beq	.L113
 1830              		.loc 2 779 0 is_stmt 0 discriminator 1
 1831 014e 3648     		ldr	r0, .L122+16
 1832 0150 FFF7FEFF 		bl	osalSysHalt
 1833              	.L113:
 1834              		.loc 2 788 0 is_stmt 1
 1835 0154 7B68     		ldr	r3, [r7, #4]
 1836 0156 DB6E     		ldr	r3, [r3, #108]
 1837 0158 002B     		cmp	r3, #0
 1838 015a 03D1     		bne	.L114
 1839              		.loc 2 789 0
 1840 015c 7B68     		ldr	r3, [r7, #4]
 1841 015e FA68     		ldr	r2, [r7, #12]
 1842 0160 DA66     		str	r2, [r3, #108]
 1843 0162 0DE0     		b	.L115
 1844              	.L114:
 1845              	.LBB8:
 1846              		.loc 2 792 0
 1847 0164 7B68     		ldr	r3, [r7, #4]
 1848 0166 DB6E     		ldr	r3, [r3, #108]
 1849 0168 BB61     		str	r3, [r7, #24]
 1850 016a 02E0     		b	.L116
 1851              	.L117:
ARM GAS  C:\Users\Luis\AppData\Local\Temp\cc4eIE9x.s 			page 35


 1852              		.loc 2 792 0 is_stmt 0 discriminator 2
 1853 016c BB69     		ldr	r3, [r7, #24]
 1854 016e 1B68     		ldr	r3, [r3]
 1855 0170 BB61     		str	r3, [r7, #24]
 1856              	.L116:
 1857              		.loc 2 792 0 discriminator 1
 1858 0172 BB69     		ldr	r3, [r7, #24]
 1859 0174 1B68     		ldr	r3, [r3]
 1860 0176 002B     		cmp	r3, #0
 1861 0178 F8D1     		bne	.L117
 1862              		.loc 2 793 0 is_stmt 1
 1863 017a BB69     		ldr	r3, [r7, #24]
 1864 017c FA68     		ldr	r2, [r7, #12]
 1865 017e 1A60     		str	r2, [r3]
 1866              	.L115:
 1867              	.LBE8:
 1868              		.loc 2 797 0
 1869 0180 7B68     		ldr	r3, [r7, #4]
 1870 0182 0022     		movs	r2, #0
 1871 0184 A3F86A20 		strh	r2, [r3, #106]	@ movhi
 1872              		.loc 2 801 0
 1873 0188 FB78     		ldrb	r3, [r7, #3]	@ zero_extendqisi2
 1874 018a 03F00203 		and	r3, r3, #2
 1875 018e 002B     		cmp	r3, #0
 1876 0190 04D1     		bne	.L118
 1877              		.loc 2 801 0 is_stmt 0 discriminator 1
 1878 0192 FB78     		ldrb	r3, [r7, #3]	@ zero_extendqisi2
 1879 0194 03F00103 		and	r3, r3, #1
 1880 0198 002B     		cmp	r3, #0
 1881 019a 0CD0     		beq	.L119
 1882              	.L118:
 1883              		.loc 2 802 0 is_stmt 1
 1884 019c 7B68     		ldr	r3, [r7, #4]
 1885 019e DB6D     		ldr	r3, [r3, #92]
 1886 01a0 5A1C     		adds	r2, r3, #1
 1887 01a2 7B68     		ldr	r3, [r7, #4]
 1888 01a4 DA65     		str	r2, [r3, #92]
 1889              		.loc 2 804 0
 1890 01a6 7B68     		ldr	r3, [r7, #4]
 1891 01a8 B3F86630 		ldrh	r3, [r3, #102]
 1892 01ac 013B     		subs	r3, r3, #1
 1893 01ae 9AB2     		uxth	r2, r3
 1894 01b0 7B68     		ldr	r3, [r7, #4]
 1895 01b2 A3F86620 		strh	r2, [r3, #102]	@ movhi
 1896              	.L119:
 1897              		.loc 2 806 0
 1898 01b6 FB78     		ldrb	r3, [r7, #3]	@ zero_extendqisi2
 1899 01b8 03F00103 		and	r3, r3, #1
 1900 01bc 002B     		cmp	r3, #0
 1901 01be 06D0     		beq	.L120
 1902              		.loc 2 807 0
 1903 01c0 7B68     		ldr	r3, [r7, #4]
 1904 01c2 9B7F     		ldrb	r3, [r3, #30]	@ zero_extendqisi2
 1905 01c4 43F02003 		orr	r3, r3, #32
 1906 01c8 DAB2     		uxtb	r2, r3
 1907 01ca 7B68     		ldr	r3, [r7, #4]
 1908 01cc 9A77     		strb	r2, [r3, #30]
ARM GAS  C:\Users\Luis\AppData\Local\Temp\cc4eIE9x.s 			page 36


 1909              	.L120:
 1910              		.loc 2 811 0
 1911 01ce 7B68     		ldr	r3, [r7, #4]
 1912 01d0 B3F86840 		ldrh	r4, [r3, #104]
 1913 01d4 FB68     		ldr	r3, [r7, #12]
 1914 01d6 5B68     		ldr	r3, [r3, #4]
 1915 01d8 1846     		mov	r0, r3
 1916 01da FFF7FEFF 		bl	pbuf_clen
 1917 01de 0346     		mov	r3, r0
 1918 01e0 2344     		add	r3, r3, r4
 1919 01e2 9AB2     		uxth	r2, r3
 1920 01e4 7B68     		ldr	r3, [r7, #4]
 1921 01e6 A3F86820 		strh	r2, [r3, #104]	@ movhi
 1922              		.loc 2 813 0
 1923 01ea 7B68     		ldr	r3, [r7, #4]
 1924 01ec B3F86830 		ldrh	r3, [r3, #104]
 1925 01f0 002B     		cmp	r3, #0
 1926 01f2 0AD0     		beq	.L121
 1927              		.loc 2 814 0
 1928 01f4 7B68     		ldr	r3, [r7, #4]
 1929 01f6 1B6F     		ldr	r3, [r3, #112]
 1930 01f8 002B     		cmp	r3, #0
 1931 01fa 06D1     		bne	.L121
 1932              		.loc 2 814 0 is_stmt 0 discriminator 1
 1933 01fc 7B68     		ldr	r3, [r7, #4]
 1934 01fe DB6E     		ldr	r3, [r3, #108]
 1935 0200 002B     		cmp	r3, #0
 1936 0202 02D1     		bne	.L121
 1937 0204 0948     		ldr	r0, .L122+20
 1938 0206 FFF7FEFF 		bl	osalSysHalt
 1939              	.L121:
 1940              		.loc 2 818 0 is_stmt 1
 1941 020a 0023     		movs	r3, #0
 1942              	.L102:
 1943 020c 5BB2     		sxtb	r3, r3
 1944              		.loc 2 819 0
 1945 020e 1846     		mov	r0, r3
 1946 0210 2437     		adds	r7, r7, #36
 1947 0212 BD46     		mov	sp, r7
 1948              		@ sp needed
 1949 0214 90BD     		pop	{r4, r7, pc}
 1950              	.L123:
 1951 0216 00BF     		.align	2
 1952              	.L122:
 1953 0218 14020000 		.word	.LC13
 1954 021c 00000000 		.word	lwip_stats
 1955 0220 6C020000 		.word	.LC14
 1956 0224 A8020000 		.word	.LC15
 1957 0228 C0020000 		.word	.LC16
 1958 022c EC020000 		.word	.LC17
 1959              		.cfi_endproc
 1960              	.LFE266:
 1961              		.size	tcp_enqueue_flags, .-tcp_enqueue_flags
 1962              		.section	.text.tcp_send_empty_ack,"ax",%progbits
 1963              		.align	2
 1964              		.p2align 4,,15
 1965              		.global	tcp_send_empty_ack
ARM GAS  C:\Users\Luis\AppData\Local\Temp\cc4eIE9x.s 			page 37


 1966              		.thumb
 1967              		.thumb_func
 1968              		.type	tcp_send_empty_ack, %function
 1969              	tcp_send_empty_ack:
 1970              	.LFB267:
 1971              		.loc 2 843 0
 1972              		.cfi_startproc
 1973              		@ args = 0, pretend = 0, frame = 24
 1974              		@ frame_needed = 1, uses_anonymous_args = 0
 1975 0000 90B5     		push	{r4, r7, lr}
 1976              		.cfi_def_cfa_offset 12
 1977              		.cfi_offset 4, -12
 1978              		.cfi_offset 7, -8
 1979              		.cfi_offset 14, -4
 1980 0002 89B0     		sub	sp, sp, #36
 1981              		.cfi_def_cfa_offset 48
 1982 0004 02AF     		add	r7, sp, #8
 1983              		.cfi_def_cfa 7, 40
 1984 0006 7860     		str	r0, [r7, #4]
 1985              		.loc 2 846 0
 1986 0008 0023     		movs	r3, #0
 1987 000a FB75     		strb	r3, [r7, #23]
 1988              		.loc 2 854 0
 1989 000c FB7D     		ldrb	r3, [r7, #23]	@ zero_extendqisi2
 1990 000e 9CB2     		uxth	r4, r3
 1991 0010 7B68     		ldr	r3, [r7, #4]
 1992 0012 1B6D     		ldr	r3, [r3, #80]
 1993 0014 1846     		mov	r0, r3
 1994 0016 FFF7FEFF 		bl	lwip_htonl
 1995 001a 0346     		mov	r3, r0
 1996 001c 7868     		ldr	r0, [r7, #4]
 1997 001e 2146     		mov	r1, r4
 1998 0020 0022     		movs	r2, #0
 1999 0022 FFF7FEFF 		bl	tcp_output_alloc_header
 2000 0026 3861     		str	r0, [r7, #16]
 2001              		.loc 2 855 0
 2002 0028 3B69     		ldr	r3, [r7, #16]
 2003 002a 002B     		cmp	r3, #0
 2004 002c 01D1     		bne	.L125
 2005              		.loc 2 857 0
 2006 002e FE23     		movs	r3, #254
 2007 0030 2AE0     		b	.L126
 2008              	.L125:
 2009              		.loc 2 859 0
 2010 0032 3B69     		ldr	r3, [r7, #16]
 2011 0034 5B68     		ldr	r3, [r3, #4]
 2012 0036 FB60     		str	r3, [r7, #12]
 2013              		.loc 2 863 0
 2014 0038 7B68     		ldr	r3, [r7, #4]
 2015 003a 9B7F     		ldrb	r3, [r3, #30]	@ zero_extendqisi2
 2016 003c 23F00303 		bic	r3, r3, #3
 2017 0040 DAB2     		uxtb	r2, r3
 2018 0042 7B68     		ldr	r3, [r7, #4]
 2019 0044 9A77     		strb	r2, [r3, #30]
 2020              		.loc 2 875 0
 2021 0046 7A68     		ldr	r2, [r7, #4]
 2022 0048 7B68     		ldr	r3, [r7, #4]
ARM GAS  C:\Users\Luis\AppData\Local\Temp\cc4eIE9x.s 			page 38


 2023 004a 0433     		adds	r3, r3, #4
 2024 004c 3969     		ldr	r1, [r7, #16]
 2025 004e 0989     		ldrh	r1, [r1, #8]
 2026 0050 0091     		str	r1, [sp]
 2027 0052 3869     		ldr	r0, [r7, #16]
 2028 0054 1146     		mov	r1, r2
 2029 0056 1A46     		mov	r2, r3
 2030 0058 0623     		movs	r3, #6
 2031 005a FFF7FEFF 		bl	inet_chksum_pseudo
 2032 005e 0346     		mov	r3, r0
 2033 0060 1A46     		mov	r2, r3
 2034 0062 FB68     		ldr	r3, [r7, #12]
 2035 0064 1A82     		strh	r2, [r3, #16]	@ unaligned
 2036              		.loc 2 882 0
 2037 0066 7968     		ldr	r1, [r7, #4]
 2038 0068 7B68     		ldr	r3, [r7, #4]
 2039 006a 1A1D     		adds	r2, r3, #4
 2040 006c 7B68     		ldr	r3, [r7, #4]
 2041 006e 9B7A     		ldrb	r3, [r3, #10]	@ zero_extendqisi2
 2042 0070 7868     		ldr	r0, [r7, #4]
 2043 0072 407A     		ldrb	r0, [r0, #9]	@ zero_extendqisi2
 2044 0074 0090     		str	r0, [sp]
 2045 0076 0620     		movs	r0, #6
 2046 0078 0190     		str	r0, [sp, #4]
 2047 007a 3869     		ldr	r0, [r7, #16]
 2048 007c FFF7FEFF 		bl	ip_output
 2049              		.loc 2 885 0
 2050 0080 3869     		ldr	r0, [r7, #16]
 2051 0082 FFF7FEFF 		bl	pbuf_free
 2052              		.loc 2 887 0
 2053 0086 0023     		movs	r3, #0
 2054              	.L126:
 2055 0088 5BB2     		sxtb	r3, r3
 2056              		.loc 2 888 0
 2057 008a 1846     		mov	r0, r3
 2058 008c 1C37     		adds	r7, r7, #28
 2059 008e BD46     		mov	sp, r7
 2060              		@ sp needed
 2061 0090 90BD     		pop	{r4, r7, pc}
 2062              		.cfi_endproc
 2063              	.LFE267:
 2064              		.size	tcp_send_empty_ack, .-tcp_send_empty_ack
 2065 0092 00BFAFF3 		.section	.rodata
 2065      0080AFF3 
 2065      0080AFF3 
 2065      0080
 2066              		.align	2
 2067              	.LC18:
 2068 0314 646F6E27 		.ascii	"don't call tcp_output for listen-pcbs\000"
 2068      74206361 
 2068      6C6C2074 
 2068      63705F6F 
 2068      75747075 
 2069 033a 0000     		.align	2
 2070              	.LC19:
 2071 033c 52535420 		.ascii	"RST not expected here!\000"
 2071      6E6F7420 
ARM GAS  C:\Users\Luis\AppData\Local\Temp\cc4eIE9x.s 			page 39


 2071      65787065 
 2071      63746564 
 2071      20686572 
 2072 0353 00       		.section	.text.tcp_output,"ax",%progbits
 2073              		.align	2
 2074              		.p2align 4,,15
 2075              		.global	tcp_output
 2076              		.thumb
 2077              		.thumb_func
 2078              		.type	tcp_output, %function
 2079              	tcp_output:
 2080              	.LFB268:
 2081              		.loc 2 899 0
 2082              		.cfi_startproc
 2083              		@ args = 0, pretend = 0, frame = 32
 2084              		@ frame_needed = 1, uses_anonymous_args = 0
 2085 0000 B0B5     		push	{r4, r5, r7, lr}
 2086              		.cfi_def_cfa_offset 16
 2087              		.cfi_offset 4, -16
 2088              		.cfi_offset 5, -12
 2089              		.cfi_offset 7, -8
 2090              		.cfi_offset 14, -4
 2091 0002 88B0     		sub	sp, sp, #32
 2092              		.cfi_def_cfa_offset 48
 2093 0004 00AF     		add	r7, sp, #0
 2094              		.cfi_def_cfa_register 7
 2095 0006 7860     		str	r0, [r7, #4]
 2096              		.loc 2 907 0
 2097 0008 7B68     		ldr	r3, [r7, #4]
 2098 000a 1B7E     		ldrb	r3, [r3, #24]	@ zero_extendqisi2
 2099 000c 012B     		cmp	r3, #1
 2100 000e 02D1     		bne	.L128
 2101              		.loc 2 907 0 is_stmt 0 discriminator 1
 2102 0010 9348     		ldr	r0, .L156
 2103 0012 FFF7FEFF 		bl	osalSysHalt
 2104              	.L128:
 2105              		.loc 2 914 0 is_stmt 1
 2106 0016 934B     		ldr	r3, .L156+4
 2107 0018 1A68     		ldr	r2, [r3]
 2108 001a 7B68     		ldr	r3, [r7, #4]
 2109 001c 9A42     		cmp	r2, r3
 2110 001e 01D1     		bne	.L129
 2111              		.loc 2 915 0
 2112 0020 0023     		movs	r3, #0
 2113 0022 4DE1     		b	.L130
 2114              	.L129:
 2115              		.loc 2 918 0
 2116 0024 7B68     		ldr	r3, [r7, #4]
 2117 0026 B3F84C20 		ldrh	r2, [r3, #76]
 2118 002a 7B68     		ldr	r3, [r7, #4]
 2119 002c B3F86030 		ldrh	r3, [r3, #96]
 2120 0030 9A42     		cmp	r2, r3
 2121 0032 38BF     		it	cc
 2122 0034 1346     		movcc	r3, r2
 2123 0036 9BB2     		uxth	r3, r3
 2124 0038 3B61     		str	r3, [r7, #16]
 2125              		.loc 2 920 0
ARM GAS  C:\Users\Luis\AppData\Local\Temp\cc4eIE9x.s 			page 40


 2126 003a 7B68     		ldr	r3, [r7, #4]
 2127 003c DB6E     		ldr	r3, [r3, #108]
 2128 003e FB61     		str	r3, [r7, #28]
 2129              		.loc 2 928 0
 2130 0040 7B68     		ldr	r3, [r7, #4]
 2131 0042 9B7F     		ldrb	r3, [r3, #30]	@ zero_extendqisi2
 2132 0044 03F00203 		and	r3, r3, #2
 2133 0048 002B     		cmp	r3, #0
 2134 004a 17D0     		beq	.L131
 2135              		.loc 2 928 0 is_stmt 0 discriminator 1
 2136 004c FB69     		ldr	r3, [r7, #28]
 2137 004e 002B     		cmp	r3, #0
 2138 0050 0FD0     		beq	.L132
 2139              		.loc 2 930 0 is_stmt 1
 2140 0052 FB69     		ldr	r3, [r7, #28]
 2141 0054 DB68     		ldr	r3, [r3, #12]
 2142 0056 5B68     		ldr	r3, [r3, #4]	@ unaligned
 2143 0058 1846     		mov	r0, r3
 2144 005a FFF7FEFF 		bl	lwip_ntohl
 2145 005e 0246     		mov	r2, r0
 2146 0060 7B68     		ldr	r3, [r7, #4]
 2147 0062 9B6C     		ldr	r3, [r3, #72]
 2148 0064 D21A     		subs	r2, r2, r3
 2149 0066 FB69     		ldr	r3, [r7, #28]
 2150 0068 1B89     		ldrh	r3, [r3, #8]
 2151 006a 1A44     		add	r2, r2, r3
 2152              		.loc 2 929 0
 2153 006c 3B69     		ldr	r3, [r7, #16]
 2154 006e 9A42     		cmp	r2, r3
 2155 0070 04D9     		bls	.L131
 2156              	.L132:
 2157              		.loc 2 931 0
 2158 0072 7868     		ldr	r0, [r7, #4]
 2159 0074 FFF7FEFF 		bl	tcp_send_empty_ack
 2160 0078 0346     		mov	r3, r0
 2161 007a 21E1     		b	.L130
 2162              	.L131:
 2163              		.loc 2 935 0
 2164 007c 7B68     		ldr	r3, [r7, #4]
 2165 007e 1B6F     		ldr	r3, [r3, #112]
 2166 0080 BB61     		str	r3, [r7, #24]
 2167              		.loc 2 936 0
 2168 0082 BB69     		ldr	r3, [r7, #24]
 2169 0084 002B     		cmp	r3, #0
 2170 0086 07D0     		beq	.L133
 2171              		.loc 2 937 0
 2172 0088 02E0     		b	.L134
 2173              	.L135:
 2174              		.loc 2 937 0 is_stmt 0 discriminator 2
 2175 008a BB69     		ldr	r3, [r7, #24]
 2176 008c 1B68     		ldr	r3, [r3]
 2177 008e BB61     		str	r3, [r7, #24]
 2178              	.L134:
 2179              		.loc 2 937 0 discriminator 1
 2180 0090 BB69     		ldr	r3, [r7, #24]
 2181 0092 1B68     		ldr	r3, [r3]
 2182 0094 002B     		cmp	r3, #0
ARM GAS  C:\Users\Luis\AppData\Local\Temp\cc4eIE9x.s 			page 41


 2183 0096 F8D1     		bne	.L135
 2184              	.L133:
 2185              		.loc 2 962 0 is_stmt 1
 2186 0098 EEE0     		b	.L136
 2187              	.L154:
 2188              		.loc 2 964 0
 2189 009a FB69     		ldr	r3, [r7, #28]
 2190 009c DB68     		ldr	r3, [r3, #12]
 2191 009e 9B89     		ldrh	r3, [r3, #12]	@ unaligned
 2192 00a0 9BB2     		uxth	r3, r3
 2193 00a2 1846     		mov	r0, r3
 2194 00a4 FFF7FEFF 		bl	lwip_ntohs
 2195 00a8 0346     		mov	r3, r0
 2196 00aa 03F00403 		and	r3, r3, #4
 2197 00ae 002B     		cmp	r3, #0
 2198 00b0 02D0     		beq	.L137
 2199              		.loc 2 964 0 is_stmt 0 discriminator 1
 2200 00b2 6D48     		ldr	r0, .L156+8
 2201 00b4 FFF7FEFF 		bl	osalSysHalt
 2202              	.L137:
 2203              		.loc 2 973 0 is_stmt 1
 2204 00b8 7B68     		ldr	r3, [r7, #4]
 2205 00ba 1B6F     		ldr	r3, [r3, #112]
 2206 00bc 002B     		cmp	r3, #0
 2207 00be 1FD0     		beq	.L138
 2208              		.loc 2 973 0 is_stmt 0 discriminator 2
 2209 00c0 7B68     		ldr	r3, [r7, #4]
 2210 00c2 9B7F     		ldrb	r3, [r3, #30]	@ zero_extendqisi2
 2211 00c4 03F04403 		and	r3, r3, #68
 2212 00c8 002B     		cmp	r3, #0
 2213 00ca 19D1     		bne	.L138
 2214              		.loc 2 973 0 discriminator 1
 2215 00cc 7B68     		ldr	r3, [r7, #4]
 2216 00ce DB6E     		ldr	r3, [r3, #108]
 2217 00d0 002B     		cmp	r3, #0
 2218 00d2 0BD0     		beq	.L139
 2219 00d4 7B68     		ldr	r3, [r7, #4]
 2220 00d6 DB6E     		ldr	r3, [r3, #108]
 2221 00d8 1B68     		ldr	r3, [r3]
 2222 00da 002B     		cmp	r3, #0
 2223 00dc 10D1     		bne	.L138
 2224 00de 7B68     		ldr	r3, [r7, #4]
 2225 00e0 DB6E     		ldr	r3, [r3, #108]
 2226 00e2 1A89     		ldrh	r2, [r3, #8]
 2227 00e4 7B68     		ldr	r3, [r7, #4]
 2228 00e6 DB8E     		ldrh	r3, [r3, #54]
 2229 00e8 9A42     		cmp	r2, r3
 2230 00ea 09D2     		bcs	.L138
 2231              	.L139:
 2232              		.loc 2 973 0 discriminator 2
 2233 00ec 7B68     		ldr	r3, [r7, #4]
 2234 00ee B3F86630 		ldrh	r3, [r3, #102]
 2235 00f2 002B     		cmp	r3, #0
 2236 00f4 04D0     		beq	.L138
 2237              		.loc 2 973 0 discriminator 3
 2238 00f6 7B68     		ldr	r3, [r7, #4]
 2239 00f8 B3F86830 		ldrh	r3, [r3, #104]
ARM GAS  C:\Users\Luis\AppData\Local\Temp\cc4eIE9x.s 			page 42


 2240 00fc 072B     		cmp	r3, #7
 2241 00fe 01D9     		bls	.L140
 2242              	.L138:
 2243              		.loc 2 973 0 discriminator 1
 2244 0100 0123     		movs	r3, #1
 2245 0102 00E0     		b	.L141
 2246              	.L140:
 2247 0104 0023     		movs	r3, #0
 2248              	.L141:
 2249              		.loc 2 973 0 discriminator 4
 2250 0106 002B     		cmp	r3, #0
 2251 0108 06D1     		bne	.L142
 2252              		.loc 2 974 0 is_stmt 1 discriminator 1
 2253 010a 7B68     		ldr	r3, [r7, #4]
 2254 010c 9B7F     		ldrb	r3, [r3, #30]	@ zero_extendqisi2
 2255 010e 03F0A003 		and	r3, r3, #160
 2256              		.loc 2 973 0 discriminator 1
 2257 0112 002B     		cmp	r3, #0
 2258 0114 00D1     		bne	.L142
 2259              		.loc 2 975 0
 2260 0116 C3E0     		b	.L143
 2261              	.L142:
 2262              		.loc 2 986 0
 2263 0118 FB69     		ldr	r3, [r7, #28]
 2264 011a 1A68     		ldr	r2, [r3]
 2265 011c 7B68     		ldr	r3, [r7, #4]
 2266 011e DA66     		str	r2, [r3, #108]
 2267              		.loc 2 988 0
 2268 0120 7B68     		ldr	r3, [r7, #4]
 2269 0122 1B7E     		ldrb	r3, [r3, #24]	@ zero_extendqisi2
 2270 0124 022B     		cmp	r3, #2
 2271 0126 13D0     		beq	.L144
 2272              		.loc 2 989 0
 2273 0128 FB69     		ldr	r3, [r7, #28]
 2274 012a DC68     		ldr	r4, [r3, #12]
 2275 012c FB69     		ldr	r3, [r7, #28]
 2276 012e DB68     		ldr	r3, [r3, #12]
 2277 0130 9B89     		ldrh	r3, [r3, #12]	@ unaligned
 2278 0132 9DB2     		uxth	r5, r3
 2279 0134 1020     		movs	r0, #16
 2280 0136 FFF7FEFF 		bl	lwip_htons
 2281 013a 0346     		mov	r3, r0
 2282 013c 2B43     		orrs	r3, r3, r5
 2283 013e 9BB2     		uxth	r3, r3
 2284 0140 A381     		strh	r3, [r4, #12]	@ unaligned
 2285              		.loc 2 990 0
 2286 0142 7B68     		ldr	r3, [r7, #4]
 2287 0144 9B7F     		ldrb	r3, [r3, #30]	@ zero_extendqisi2
 2288 0146 23F00303 		bic	r3, r3, #3
 2289 014a DAB2     		uxtb	r2, r3
 2290 014c 7B68     		ldr	r3, [r7, #4]
 2291 014e 9A77     		strb	r2, [r3, #30]
 2292              	.L144:
 2293              		.loc 2 993 0
 2294 0150 F869     		ldr	r0, [r7, #28]
 2295 0152 7968     		ldr	r1, [r7, #4]
 2296 0154 FFF7FEFF 		bl	tcp_output_segment
ARM GAS  C:\Users\Luis\AppData\Local\Temp\cc4eIE9x.s 			page 43


 2297              		.loc 2 994 0
 2298 0158 FB69     		ldr	r3, [r7, #28]
 2299 015a DB68     		ldr	r3, [r3, #12]
 2300 015c 5B68     		ldr	r3, [r3, #4]	@ unaligned
 2301 015e 1846     		mov	r0, r3
 2302 0160 FFF7FEFF 		bl	lwip_ntohl
 2303 0164 0446     		mov	r4, r0
 2304 0166 FB69     		ldr	r3, [r7, #28]
 2305 0168 1B89     		ldrh	r3, [r3, #8]
 2306 016a 1D46     		mov	r5, r3
 2307 016c FB69     		ldr	r3, [r7, #28]
 2308 016e DB68     		ldr	r3, [r3, #12]
 2309 0170 9B89     		ldrh	r3, [r3, #12]	@ unaligned
 2310 0172 9BB2     		uxth	r3, r3
 2311 0174 1846     		mov	r0, r3
 2312 0176 FFF7FEFF 		bl	lwip_ntohs
 2313 017a 0346     		mov	r3, r0
 2314 017c 03F00303 		and	r3, r3, #3
 2315 0180 002B     		cmp	r3, #0
 2316 0182 0CBF     		ite	eq
 2317 0184 0023     		moveq	r3, #0
 2318 0186 0123     		movne	r3, #1
 2319 0188 DBB2     		uxtb	r3, r3
 2320 018a 2B44     		add	r3, r3, r5
 2321 018c 2344     		add	r3, r3, r4
 2322 018e FB60     		str	r3, [r7, #12]
 2323              		.loc 2 995 0
 2324 0190 7B68     		ldr	r3, [r7, #4]
 2325 0192 1A6D     		ldr	r2, [r3, #80]
 2326 0194 FB68     		ldr	r3, [r7, #12]
 2327 0196 D31A     		subs	r3, r2, r3
 2328 0198 002B     		cmp	r3, #0
 2329 019a 02DA     		bge	.L145
 2330              		.loc 2 996 0
 2331 019c 7B68     		ldr	r3, [r7, #4]
 2332 019e FA68     		ldr	r2, [r7, #12]
 2333 01a0 1A65     		str	r2, [r3, #80]
 2334              	.L145:
 2335              		.loc 2 999 0
 2336 01a2 FB69     		ldr	r3, [r7, #28]
 2337 01a4 1B89     		ldrh	r3, [r3, #8]
 2338 01a6 1C46     		mov	r4, r3
 2339 01a8 FB69     		ldr	r3, [r7, #28]
 2340 01aa DB68     		ldr	r3, [r3, #12]
 2341 01ac 9B89     		ldrh	r3, [r3, #12]	@ unaligned
 2342 01ae 9BB2     		uxth	r3, r3
 2343 01b0 1846     		mov	r0, r3
 2344 01b2 FFF7FEFF 		bl	lwip_ntohs
 2345 01b6 0346     		mov	r3, r0
 2346 01b8 03F00303 		and	r3, r3, #3
 2347 01bc 002B     		cmp	r3, #0
 2348 01be 0CBF     		ite	eq
 2349 01c0 0023     		moveq	r3, #0
 2350 01c2 0123     		movne	r3, #1
 2351 01c4 DBB2     		uxtb	r3, r3
 2352 01c6 2344     		add	r3, r3, r4
 2353 01c8 002B     		cmp	r3, #0
ARM GAS  C:\Users\Luis\AppData\Local\Temp\cc4eIE9x.s 			page 44


 2354 01ca 4FDD     		ble	.L146
 2355              		.loc 2 1000 0
 2356 01cc FB69     		ldr	r3, [r7, #28]
 2357 01ce 0022     		movs	r2, #0
 2358 01d0 1A60     		str	r2, [r3]
 2359              		.loc 2 1002 0
 2360 01d2 7B68     		ldr	r3, [r7, #4]
 2361 01d4 1B6F     		ldr	r3, [r3, #112]
 2362 01d6 002B     		cmp	r3, #0
 2363 01d8 05D1     		bne	.L147
 2364              		.loc 2 1003 0
 2365 01da 7B68     		ldr	r3, [r7, #4]
 2366 01dc FA69     		ldr	r2, [r7, #28]
 2367 01de 1A67     		str	r2, [r3, #112]
 2368              		.loc 2 1004 0
 2369 01e0 FB69     		ldr	r3, [r7, #28]
 2370 01e2 BB61     		str	r3, [r7, #24]
 2371 01e4 45E0     		b	.L153
 2372              	.L147:
 2373              		.loc 2 1010 0
 2374 01e6 FB69     		ldr	r3, [r7, #28]
 2375 01e8 DB68     		ldr	r3, [r3, #12]
 2376 01ea 5B68     		ldr	r3, [r3, #4]	@ unaligned
 2377 01ec 1846     		mov	r0, r3
 2378 01ee FFF7FEFF 		bl	lwip_ntohl
 2379 01f2 0446     		mov	r4, r0
 2380 01f4 BB69     		ldr	r3, [r7, #24]
 2381 01f6 DB68     		ldr	r3, [r3, #12]
 2382 01f8 5B68     		ldr	r3, [r3, #4]	@ unaligned
 2383 01fa 1846     		mov	r0, r3
 2384 01fc FFF7FEFF 		bl	lwip_ntohl
 2385 0200 0346     		mov	r3, r0
 2386 0202 E31A     		subs	r3, r4, r3
 2387 0204 002B     		cmp	r3, #0
 2388 0206 24DA     		bge	.L149
 2389              	.LBB9:
 2390              		.loc 2 1012 0
 2391 0208 7B68     		ldr	r3, [r7, #4]
 2392 020a 7033     		adds	r3, r3, #112
 2393 020c 7B61     		str	r3, [r7, #20]
 2394              		.loc 2 1013 0
 2395 020e 02E0     		b	.L150
 2396              	.L152:
 2397              		.loc 2 1015 0
 2398 0210 7B69     		ldr	r3, [r7, #20]
 2399 0212 1B68     		ldr	r3, [r3]
 2400 0214 7B61     		str	r3, [r7, #20]
 2401              	.L150:
 2402              		.loc 2 1013 0 discriminator 1
 2403 0216 7B69     		ldr	r3, [r7, #20]
 2404 0218 1B68     		ldr	r3, [r3]
 2405 021a 002B     		cmp	r3, #0
 2406 021c 11D0     		beq	.L151
 2407              		.loc 2 1014 0 discriminator 2
 2408 021e 7B69     		ldr	r3, [r7, #20]
 2409 0220 1B68     		ldr	r3, [r3]
 2410 0222 DB68     		ldr	r3, [r3, #12]
ARM GAS  C:\Users\Luis\AppData\Local\Temp\cc4eIE9x.s 			page 45


 2411 0224 5B68     		ldr	r3, [r3, #4]	@ unaligned
 2412 0226 1846     		mov	r0, r3
 2413 0228 FFF7FEFF 		bl	lwip_ntohl
 2414 022c 0446     		mov	r4, r0
 2415 022e FB69     		ldr	r3, [r7, #28]
 2416 0230 DB68     		ldr	r3, [r3, #12]
 2417 0232 5B68     		ldr	r3, [r3, #4]	@ unaligned
 2418 0234 1846     		mov	r0, r3
 2419 0236 FFF7FEFF 		bl	lwip_ntohl
 2420 023a 0346     		mov	r3, r0
 2421 023c E31A     		subs	r3, r4, r3
 2422              		.loc 2 1013 0 discriminator 2
 2423 023e 002B     		cmp	r3, #0
 2424 0240 E6DB     		blt	.L152
 2425              	.L151:
 2426              		.loc 2 1017 0
 2427 0242 7B69     		ldr	r3, [r7, #20]
 2428 0244 1A68     		ldr	r2, [r3]
 2429 0246 FB69     		ldr	r3, [r7, #28]
 2430 0248 1A60     		str	r2, [r3]
 2431              		.loc 2 1018 0
 2432 024a 7B69     		ldr	r3, [r7, #20]
 2433 024c FA69     		ldr	r2, [r7, #28]
 2434 024e 1A60     		str	r2, [r3]
 2435              	.LBE9:
 2436 0250 0FE0     		b	.L153
 2437              	.L149:
 2438              		.loc 2 1021 0
 2439 0252 BB69     		ldr	r3, [r7, #24]
 2440 0254 FA69     		ldr	r2, [r7, #28]
 2441 0256 1A60     		str	r2, [r3]
 2442              		.loc 2 1022 0
 2443 0258 BB69     		ldr	r3, [r7, #24]
 2444 025a 1B68     		ldr	r3, [r3]
 2445 025c BB61     		str	r3, [r7, #24]
 2446 025e 08E0     		b	.L153
 2447              	.L157:
 2448              		.align	2
 2449              	.L156:
 2450 0260 14030000 		.word	.LC18
 2451 0264 00000000 		.word	tcp_input_pcb
 2452 0268 3C030000 		.word	.LC19
 2453              	.L146:
 2454              		.loc 2 1027 0
 2455 026c F869     		ldr	r0, [r7, #28]
 2456 026e FFF7FEFF 		bl	tcp_seg_free
 2457              	.L153:
 2458              		.loc 2 1029 0
 2459 0272 7B68     		ldr	r3, [r7, #4]
 2460 0274 DB6E     		ldr	r3, [r3, #108]
 2461 0276 FB61     		str	r3, [r7, #28]
 2462              	.L136:
 2463              		.loc 2 962 0 discriminator 1
 2464 0278 FB69     		ldr	r3, [r7, #28]
 2465 027a 002B     		cmp	r3, #0
 2466 027c 10D0     		beq	.L143
 2467              		.loc 2 963 0 discriminator 2
ARM GAS  C:\Users\Luis\AppData\Local\Temp\cc4eIE9x.s 			page 46


 2468 027e FB69     		ldr	r3, [r7, #28]
 2469 0280 DB68     		ldr	r3, [r3, #12]
 2470 0282 5B68     		ldr	r3, [r3, #4]	@ unaligned
 2471 0284 1846     		mov	r0, r3
 2472 0286 FFF7FEFF 		bl	lwip_ntohl
 2473 028a 0246     		mov	r2, r0
 2474 028c 7B68     		ldr	r3, [r7, #4]
 2475 028e 9B6C     		ldr	r3, [r3, #72]
 2476 0290 D21A     		subs	r2, r2, r3
 2477 0292 FB69     		ldr	r3, [r7, #28]
 2478 0294 1B89     		ldrh	r3, [r3, #8]
 2479 0296 1A44     		add	r2, r2, r3
 2480              		.loc 2 962 0 discriminator 2
 2481 0298 3B69     		ldr	r3, [r7, #16]
 2482 029a 9A42     		cmp	r2, r3
 2483 029c 7FF6FDAE 		bls	.L154
 2484              	.L143:
 2485              		.loc 2 1032 0
 2486 02a0 7B68     		ldr	r3, [r7, #4]
 2487 02a2 DB6E     		ldr	r3, [r3, #108]
 2488 02a4 002B     		cmp	r3, #0
 2489 02a6 03D1     		bne	.L155
 2490              		.loc 2 1034 0
 2491 02a8 7B68     		ldr	r3, [r7, #4]
 2492 02aa 0022     		movs	r2, #0
 2493 02ac A3F86A20 		strh	r2, [r3, #106]	@ movhi
 2494              	.L155:
 2495              		.loc 2 1038 0
 2496 02b0 7B68     		ldr	r3, [r7, #4]
 2497 02b2 9B7F     		ldrb	r3, [r3, #30]	@ zero_extendqisi2
 2498 02b4 03F07F03 		and	r3, r3, #127
 2499 02b8 DAB2     		uxtb	r2, r3
 2500 02ba 7B68     		ldr	r3, [r7, #4]
 2501 02bc 9A77     		strb	r2, [r3, #30]
 2502              		.loc 2 1039 0
 2503 02be 0023     		movs	r3, #0
 2504              	.L130:
 2505 02c0 5BB2     		sxtb	r3, r3
 2506              		.loc 2 1040 0
 2507 02c2 1846     		mov	r0, r3
 2508 02c4 2037     		adds	r7, r7, #32
 2509 02c6 BD46     		mov	sp, r7
 2510              		@ sp needed
 2511 02c8 B0BD     		pop	{r4, r5, r7, pc}
 2512              		.cfi_endproc
 2513              	.LFE268:
 2514              		.size	tcp_output, .-tcp_output
 2515 02ca 00BFAFF3 		.section	.text.tcp_output_segment,"ax",%progbits
 2515      0080
 2516              		.align	2
 2517              		.p2align 4,,15
 2518              		.thumb
 2519              		.thumb_func
 2520              		.type	tcp_output_segment, %function
 2521              	tcp_output_segment:
 2522              	.LFB269:
 2523              		.loc 2 1050 0
ARM GAS  C:\Users\Luis\AppData\Local\Temp\cc4eIE9x.s 			page 47


 2524              		.cfi_startproc
 2525              		@ args = 0, pretend = 0, frame = 24
 2526              		@ frame_needed = 1, uses_anonymous_args = 0
 2527 0000 90B5     		push	{r4, r7, lr}
 2528              		.cfi_def_cfa_offset 12
 2529              		.cfi_offset 4, -12
 2530              		.cfi_offset 7, -8
 2531              		.cfi_offset 14, -4
 2532 0002 89B0     		sub	sp, sp, #36
 2533              		.cfi_def_cfa_offset 48
 2534 0004 02AF     		add	r7, sp, #8
 2535              		.cfi_def_cfa 7, 40
 2536 0006 7860     		str	r0, [r7, #4]
 2537 0008 3960     		str	r1, [r7]
 2538              		.loc 2 1060 0
 2539 000a 7B68     		ldr	r3, [r7, #4]
 2540 000c DC68     		ldr	r4, [r3, #12]
 2541 000e 3B68     		ldr	r3, [r7]
 2542 0010 9B6A     		ldr	r3, [r3, #40]
 2543 0012 1846     		mov	r0, r3
 2544 0014 FFF7FEFF 		bl	lwip_htonl
 2545 0018 0346     		mov	r3, r0
 2546 001a A360     		str	r3, [r4, #8]	@ unaligned
 2547              		.loc 2 1063 0
 2548 001c 7B68     		ldr	r3, [r7, #4]
 2549 001e DC68     		ldr	r4, [r3, #12]
 2550 0020 3B68     		ldr	r3, [r7]
 2551 0022 DB8D     		ldrh	r3, [r3, #46]
 2552 0024 1846     		mov	r0, r3
 2553 0026 FFF7FEFF 		bl	lwip_htons
 2554 002a 0346     		mov	r3, r0
 2555 002c E381     		strh	r3, [r4, #14]	@ unaligned
 2556              		.loc 2 1065 0
 2557 002e 3B68     		ldr	r3, [r7]
 2558 0030 9A6A     		ldr	r2, [r3, #40]
 2559 0032 3B68     		ldr	r3, [r7]
 2560 0034 DB8D     		ldrh	r3, [r3, #46]
 2561 0036 1A44     		add	r2, r2, r3
 2562 0038 3B68     		ldr	r3, [r7]
 2563 003a 1A63     		str	r2, [r3, #48]
 2564              		.loc 2 1069 0
 2565 003c 7B68     		ldr	r3, [r7, #4]
 2566 003e DB68     		ldr	r3, [r3, #12]
 2567 0040 1433     		adds	r3, r3, #20
 2568 0042 7B61     		str	r3, [r7, #20]
 2569              		.loc 2 1070 0
 2570 0044 7B68     		ldr	r3, [r7, #4]
 2571 0046 9B7A     		ldrb	r3, [r3, #10]	@ zero_extendqisi2
 2572 0048 03F00103 		and	r3, r3, #1
 2573 004c 002B     		cmp	r3, #0
 2574 004e 14D0     		beq	.L159
 2575              	.LBB10:
 2576              		.loc 2 1073 0
 2577 0050 3B68     		ldr	r3, [r7]
 2578 0052 0433     		adds	r3, r3, #4
 2579 0054 4FF40670 		mov	r0, #536
 2580 0058 1946     		mov	r1, r3
ARM GAS  C:\Users\Luis\AppData\Local\Temp\cc4eIE9x.s 			page 48


 2581 005a FFF7FEFF 		bl	tcp_eff_send_mss
 2582 005e 0346     		mov	r3, r0
 2583 0060 7B82     		strh	r3, [r7, #18]	@ movhi
 2584              		.loc 2 1077 0
 2585 0062 7B8A     		ldrh	r3, [r7, #18]
 2586 0064 43F00173 		orr	r3, r3, #33816576
 2587 0068 1846     		mov	r0, r3
 2588 006a FFF7FEFF 		bl	lwip_htonl
 2589 006e 0246     		mov	r2, r0
 2590 0070 7B69     		ldr	r3, [r7, #20]
 2591 0072 1A60     		str	r2, [r3]
 2592              		.loc 2 1078 0
 2593 0074 7B69     		ldr	r3, [r7, #20]
 2594 0076 0433     		adds	r3, r3, #4
 2595 0078 7B61     		str	r3, [r7, #20]
 2596              	.L159:
 2597              	.LBE10:
 2598              		.loc 2 1091 0
 2599 007a 3B68     		ldr	r3, [r7]
 2600 007c 9B8E     		ldrh	r3, [r3, #52]
 2601 007e 1BB2     		sxth	r3, r3
 2602 0080 B3F1FF3F 		cmp	r3, #-1
 2603 0084 02D1     		bne	.L160
 2604              		.loc 2 1092 0
 2605 0086 3B68     		ldr	r3, [r7]
 2606 0088 0022     		movs	r2, #0
 2607 008a 9A86     		strh	r2, [r3, #52]	@ movhi
 2608              	.L160:
 2609              		.loc 2 1097 0
 2610 008c 3B68     		ldr	r3, [r7]
 2611 008e 002B     		cmp	r3, #0
 2612 0090 03D0     		beq	.L161
 2613              		.loc 2 1097 0 is_stmt 0 discriminator 1
 2614 0092 3B68     		ldr	r3, [r7]
 2615 0094 1B68     		ldr	r3, [r3]
 2616 0096 002B     		cmp	r3, #0
 2617 0098 0DD1     		bne	.L162
 2618              	.L161:
 2619              		.loc 2 1098 0 is_stmt 1
 2620 009a 3B68     		ldr	r3, [r7]
 2621 009c 0433     		adds	r3, r3, #4
 2622 009e 1846     		mov	r0, r3
 2623 00a0 FFF7FEFF 		bl	ip_route
 2624 00a4 F860     		str	r0, [r7, #12]
 2625              		.loc 2 1099 0
 2626 00a6 FB68     		ldr	r3, [r7, #12]
 2627 00a8 002B     		cmp	r3, #0
 2628 00aa 00D1     		bne	.L163
 2629              		.loc 2 1100 0
 2630 00ac 62E0     		b	.L158
 2631              	.L163:
 2632              		.loc 2 1102 0
 2633 00ae FB68     		ldr	r3, [r7, #12]
 2634 00b0 5A68     		ldr	r2, [r3, #4]
 2635 00b2 3B68     		ldr	r3, [r7]
 2636 00b4 1A60     		str	r2, [r3]
 2637              	.L162:
ARM GAS  C:\Users\Luis\AppData\Local\Temp\cc4eIE9x.s 			page 49


 2638              		.loc 2 1105 0
 2639 00b6 3B68     		ldr	r3, [r7]
 2640 00b8 9B6B     		ldr	r3, [r3, #56]
 2641 00ba 002B     		cmp	r3, #0
 2642 00bc 0CD1     		bne	.L165
 2643              		.loc 2 1106 0
 2644 00be 2F4B     		ldr	r3, .L166
 2645 00c0 1A68     		ldr	r2, [r3]
 2646 00c2 3B68     		ldr	r3, [r7]
 2647 00c4 9A63     		str	r2, [r3, #56]
 2648              		.loc 2 1107 0
 2649 00c6 7B68     		ldr	r3, [r7, #4]
 2650 00c8 DB68     		ldr	r3, [r3, #12]
 2651 00ca 5B68     		ldr	r3, [r3, #4]	@ unaligned
 2652 00cc 1846     		mov	r0, r3
 2653 00ce FFF7FEFF 		bl	lwip_ntohl
 2654 00d2 0246     		mov	r2, r0
 2655 00d4 3B68     		ldr	r3, [r7]
 2656 00d6 DA63     		str	r2, [r3, #60]
 2657              	.L165:
 2658              		.loc 2 1115 0
 2659 00d8 7B68     		ldr	r3, [r7, #4]
 2660 00da DB68     		ldr	r3, [r3, #12]
 2661 00dc 1A46     		mov	r2, r3
 2662 00de 7B68     		ldr	r3, [r7, #4]
 2663 00e0 5B68     		ldr	r3, [r3, #4]
 2664 00e2 5B68     		ldr	r3, [r3, #4]
 2665 00e4 D31A     		subs	r3, r2, r3
 2666 00e6 7B81     		strh	r3, [r7, #10]	@ movhi
 2667              		.loc 2 1117 0
 2668 00e8 7B68     		ldr	r3, [r7, #4]
 2669 00ea 5B68     		ldr	r3, [r3, #4]
 2670 00ec 7A68     		ldr	r2, [r7, #4]
 2671 00ee 5268     		ldr	r2, [r2, #4]
 2672 00f0 5189     		ldrh	r1, [r2, #10]
 2673 00f2 7A89     		ldrh	r2, [r7, #10]	@ movhi
 2674 00f4 8A1A     		subs	r2, r1, r2
 2675 00f6 92B2     		uxth	r2, r2
 2676 00f8 5A81     		strh	r2, [r3, #10]	@ movhi
 2677              		.loc 2 1118 0
 2678 00fa 7B68     		ldr	r3, [r7, #4]
 2679 00fc 5B68     		ldr	r3, [r3, #4]
 2680 00fe 7A68     		ldr	r2, [r7, #4]
 2681 0100 5268     		ldr	r2, [r2, #4]
 2682 0102 1189     		ldrh	r1, [r2, #8]
 2683 0104 7A89     		ldrh	r2, [r7, #10]	@ movhi
 2684 0106 8A1A     		subs	r2, r1, r2
 2685 0108 92B2     		uxth	r2, r2
 2686 010a 1A81     		strh	r2, [r3, #8]	@ movhi
 2687              		.loc 2 1120 0
 2688 010c 7B68     		ldr	r3, [r7, #4]
 2689 010e 5B68     		ldr	r3, [r3, #4]
 2690 0110 7A68     		ldr	r2, [r7, #4]
 2691 0112 D268     		ldr	r2, [r2, #12]
 2692 0114 5A60     		str	r2, [r3, #4]
 2693              		.loc 2 1122 0
 2694 0116 7B68     		ldr	r3, [r7, #4]
ARM GAS  C:\Users\Luis\AppData\Local\Temp\cc4eIE9x.s 			page 50


 2695 0118 DB68     		ldr	r3, [r3, #12]
 2696 011a 0022     		movs	r2, #0
 2697 011c 1A74     		strb	r2, [r3, #16]
 2698 011e 0022     		movs	r2, #0
 2699 0120 5A74     		strb	r2, [r3, #17]
 2700              		.loc 2 1158 0
 2701 0122 7B68     		ldr	r3, [r7, #4]
 2702 0124 DC68     		ldr	r4, [r3, #12]
 2703 0126 7B68     		ldr	r3, [r7, #4]
 2704 0128 5968     		ldr	r1, [r3, #4]
 2705 012a 3A68     		ldr	r2, [r7]
 2706 012c 3B68     		ldr	r3, [r7]
 2707 012e 0433     		adds	r3, r3, #4
 2708              		.loc 2 1160 0
 2709 0130 7868     		ldr	r0, [r7, #4]
 2710 0132 4068     		ldr	r0, [r0, #4]
 2711              		.loc 2 1158 0
 2712 0134 0089     		ldrh	r0, [r0, #8]
 2713 0136 0090     		str	r0, [sp]
 2714 0138 0846     		mov	r0, r1
 2715 013a 1146     		mov	r1, r2
 2716 013c 1A46     		mov	r2, r3
 2717 013e 0623     		movs	r3, #6
 2718 0140 FFF7FEFF 		bl	inet_chksum_pseudo
 2719 0144 0346     		mov	r3, r0
 2720 0146 2382     		strh	r3, [r4, #16]	@ unaligned
 2721              		.loc 2 1163 0
 2722 0148 0D4B     		ldr	r3, .L166+4
 2723 014a B3F89030 		ldrh	r3, [r3, #144]
 2724 014e 0133     		adds	r3, r3, #1
 2725 0150 9AB2     		uxth	r2, r3
 2726 0152 0B4B     		ldr	r3, .L166+4
 2727 0154 A3F89020 		strh	r2, [r3, #144]	@ movhi
 2728              		.loc 2 1169 0
 2729 0158 7B68     		ldr	r3, [r7, #4]
 2730 015a 5868     		ldr	r0, [r3, #4]
 2731 015c 3968     		ldr	r1, [r7]
 2732 015e 3B68     		ldr	r3, [r7]
 2733 0160 1A1D     		adds	r2, r3, #4
 2734 0162 3B68     		ldr	r3, [r7]
 2735 0164 9B7A     		ldrb	r3, [r3, #10]	@ zero_extendqisi2
 2736 0166 3C68     		ldr	r4, [r7]
 2737 0168 647A     		ldrb	r4, [r4, #9]	@ zero_extendqisi2
 2738 016a 0094     		str	r4, [sp]
 2739 016c 0624     		movs	r4, #6
 2740 016e 0194     		str	r4, [sp, #4]
 2741 0170 FFF7FEFF 		bl	ip_output
 2742              	.L158:
 2743              		.loc 2 1172 0
 2744 0174 1C37     		adds	r7, r7, #28
 2745 0176 BD46     		mov	sp, r7
 2746              		@ sp needed
 2747 0178 90BD     		pop	{r4, r7, pc}
 2748              	.L167:
 2749 017a 00BF     		.align	2
 2750              	.L166:
 2751 017c 00000000 		.word	tcp_ticks
ARM GAS  C:\Users\Luis\AppData\Local\Temp\cc4eIE9x.s 			page 51


 2752 0180 00000000 		.word	lwip_stats
 2753              		.cfi_endproc
 2754              	.LFE269:
 2755              		.size	tcp_output_segment, .-tcp_output_segment
 2756 0184 AFF30080 		.section	.text.tcp_rst,"ax",%progbits
 2756      AFF30080 
 2756      AFF30080 
 2757              		.align	2
 2758              		.p2align 4,,15
 2759              		.global	tcp_rst
 2760              		.thumb
 2761              		.thumb_func
 2762              		.type	tcp_rst, %function
 2763              	tcp_rst:
 2764              	.LFB270:
 2765              		.loc 2 1198 0
 2766              		.cfi_startproc
 2767              		@ args = 8, pretend = 0, frame = 24
 2768              		@ frame_needed = 1, uses_anonymous_args = 0
 2769 0000 80B5     		push	{r7, lr}
 2770              		.cfi_def_cfa_offset 8
 2771              		.cfi_offset 7, -8
 2772              		.cfi_offset 14, -4
 2773 0002 88B0     		sub	sp, sp, #32
 2774              		.cfi_def_cfa_offset 40
 2775 0004 02AF     		add	r7, sp, #8
 2776              		.cfi_def_cfa 7, 32
 2777 0006 F860     		str	r0, [r7, #12]
 2778 0008 B960     		str	r1, [r7, #8]
 2779 000a 7A60     		str	r2, [r7, #4]
 2780 000c 3B60     		str	r3, [r7]
 2781              		.loc 2 1201 0
 2782 000e 0120     		movs	r0, #1
 2783 0010 1421     		movs	r1, #20
 2784 0012 0022     		movs	r2, #0
 2785 0014 FFF7FEFF 		bl	pbuf_alloc
 2786 0018 7861     		str	r0, [r7, #20]
 2787              		.loc 2 1202 0
 2788 001a 7B69     		ldr	r3, [r7, #20]
 2789 001c 002B     		cmp	r3, #0
 2790 001e 00D1     		bne	.L169
 2791              		.loc 2 1204 0
 2792 0020 62E0     		b	.L168
 2793              	.L169:
 2794              		.loc 2 1206 0
 2795 0022 7B69     		ldr	r3, [r7, #20]
 2796 0024 5B89     		ldrh	r3, [r3, #10]
 2797 0026 132B     		cmp	r3, #19
 2798 0028 02D8     		bhi	.L171
 2799              		.loc 2 1206 0 is_stmt 0 discriminator 1
 2800 002a 3148     		ldr	r0, .L172
 2801 002c FFF7FEFF 		bl	osalSysHalt
 2802              	.L171:
 2803              		.loc 2 1209 0 is_stmt 1
 2804 0030 7B69     		ldr	r3, [r7, #20]
 2805 0032 5B68     		ldr	r3, [r3, #4]
 2806 0034 3B61     		str	r3, [r7, #16]
ARM GAS  C:\Users\Luis\AppData\Local\Temp\cc4eIE9x.s 			page 52


 2807              		.loc 2 1210 0
 2808 0036 3B8C     		ldrh	r3, [r7, #32]
 2809 0038 1846     		mov	r0, r3
 2810 003a FFF7FEFF 		bl	lwip_htons
 2811 003e 0346     		mov	r3, r0
 2812 0040 1A46     		mov	r2, r3
 2813 0042 3B69     		ldr	r3, [r7, #16]
 2814 0044 1A80     		strh	r2, [r3]	@ unaligned
 2815              		.loc 2 1211 0
 2816 0046 BB8C     		ldrh	r3, [r7, #36]
 2817 0048 1846     		mov	r0, r3
 2818 004a FFF7FEFF 		bl	lwip_htons
 2819 004e 0346     		mov	r3, r0
 2820 0050 1A46     		mov	r2, r3
 2821 0052 3B69     		ldr	r3, [r7, #16]
 2822 0054 5A80     		strh	r2, [r3, #2]	@ unaligned
 2823              		.loc 2 1212 0
 2824 0056 F868     		ldr	r0, [r7, #12]
 2825 0058 FFF7FEFF 		bl	lwip_htonl
 2826 005c 0246     		mov	r2, r0
 2827 005e 3B69     		ldr	r3, [r7, #16]
 2828 0060 5A60     		str	r2, [r3, #4]	@ unaligned
 2829              		.loc 2 1213 0
 2830 0062 B868     		ldr	r0, [r7, #8]
 2831 0064 FFF7FEFF 		bl	lwip_htonl
 2832 0068 0246     		mov	r2, r0
 2833 006a 3B69     		ldr	r3, [r7, #16]
 2834 006c 9A60     		str	r2, [r3, #8]	@ unaligned
 2835              		.loc 2 1214 0
 2836 006e 45F21400 		movw	r0, #20500
 2837 0072 FFF7FEFF 		bl	lwip_htons
 2838 0076 0346     		mov	r3, r0
 2839 0078 1A46     		mov	r2, r3
 2840 007a 3B69     		ldr	r3, [r7, #16]
 2841 007c 9A81     		strh	r2, [r3, #12]	@ unaligned
 2842              		.loc 2 1215 0
 2843 007e 3B69     		ldr	r3, [r7, #16]
 2844 0080 0022     		movs	r2, #0
 2845 0082 42F00802 		orr	r2, r2, #8
 2846 0086 9A73     		strb	r2, [r3, #14]
 2847 0088 0022     		movs	r2, #0
 2848 008a 42F06002 		orr	r2, r2, #96
 2849 008e DA73     		strb	r2, [r3, #15]
 2850              		.loc 2 1216 0
 2851 0090 3B69     		ldr	r3, [r7, #16]
 2852 0092 0022     		movs	r2, #0
 2853 0094 1A74     		strb	r2, [r3, #16]
 2854 0096 0022     		movs	r2, #0
 2855 0098 5A74     		strb	r2, [r3, #17]
 2856              		.loc 2 1217 0
 2857 009a 3B69     		ldr	r3, [r7, #16]
 2858 009c 0022     		movs	r2, #0
 2859 009e 9A74     		strb	r2, [r3, #18]
 2860 00a0 0022     		movs	r2, #0
 2861 00a2 DA74     		strb	r2, [r3, #19]
 2862              		.loc 2 1220 0
 2863 00a4 7B69     		ldr	r3, [r7, #20]
ARM GAS  C:\Users\Luis\AppData\Local\Temp\cc4eIE9x.s 			page 53


 2864 00a6 1B89     		ldrh	r3, [r3, #8]
 2865 00a8 0093     		str	r3, [sp]
 2866 00aa 7869     		ldr	r0, [r7, #20]
 2867 00ac 7968     		ldr	r1, [r7, #4]
 2868 00ae 3A68     		ldr	r2, [r7]
 2869 00b0 0623     		movs	r3, #6
 2870 00b2 FFF7FEFF 		bl	inet_chksum_pseudo
 2871 00b6 0346     		mov	r3, r0
 2872 00b8 1A46     		mov	r2, r3
 2873 00ba 3B69     		ldr	r3, [r7, #16]
 2874 00bc 1A82     		strh	r2, [r3, #16]	@ unaligned
 2875              		.loc 2 1223 0
 2876 00be 0D4B     		ldr	r3, .L172+4
 2877 00c0 B3F89030 		ldrh	r3, [r3, #144]
 2878 00c4 0133     		adds	r3, r3, #1
 2879 00c6 9AB2     		uxth	r2, r3
 2880 00c8 0A4B     		ldr	r3, .L172+4
 2881 00ca A3F89020 		strh	r2, [r3, #144]	@ movhi
 2882              		.loc 2 1226 0
 2883 00ce 0023     		movs	r3, #0
 2884 00d0 0093     		str	r3, [sp]
 2885 00d2 0623     		movs	r3, #6
 2886 00d4 0193     		str	r3, [sp, #4]
 2887 00d6 7869     		ldr	r0, [r7, #20]
 2888 00d8 7968     		ldr	r1, [r7, #4]
 2889 00da 3A68     		ldr	r2, [r7]
 2890 00dc FF23     		movs	r3, #255
 2891 00de FFF7FEFF 		bl	ip_output
 2892              		.loc 2 1227 0
 2893 00e2 7869     		ldr	r0, [r7, #20]
 2894 00e4 FFF7FEFF 		bl	pbuf_free
 2895              	.L168:
 2896              		.loc 2 1229 0
 2897 00e8 1837     		adds	r7, r7, #24
 2898 00ea BD46     		mov	sp, r7
 2899              		@ sp needed
 2900 00ec 80BD     		pop	{r7, pc}
 2901              	.L173:
 2902 00ee 00BF     		.align	2
 2903              	.L172:
 2904 00f0 00000000 		.word	.LC0
 2905 00f4 00000000 		.word	lwip_stats
 2906              		.cfi_endproc
 2907              	.LFE270:
 2908              		.size	tcp_rst, .-tcp_rst
 2909 00f8 AFF30080 		.section	.text.tcp_rexmit_rto,"ax",%progbits
 2909      AFF30080 
 2910              		.align	2
 2911              		.p2align 4,,15
 2912              		.global	tcp_rexmit_rto
 2913              		.thumb
 2914              		.thumb_func
 2915              		.type	tcp_rexmit_rto, %function
 2916              	tcp_rexmit_rto:
 2917              	.LFB271:
 2918              		.loc 2 1240 0
 2919              		.cfi_startproc
ARM GAS  C:\Users\Luis\AppData\Local\Temp\cc4eIE9x.s 			page 54


 2920              		@ args = 0, pretend = 0, frame = 16
 2921              		@ frame_needed = 1, uses_anonymous_args = 0
 2922 0000 80B5     		push	{r7, lr}
 2923              		.cfi_def_cfa_offset 8
 2924              		.cfi_offset 7, -8
 2925              		.cfi_offset 14, -4
 2926 0002 84B0     		sub	sp, sp, #16
 2927              		.cfi_def_cfa_offset 24
 2928 0004 00AF     		add	r7, sp, #0
 2929              		.cfi_def_cfa_register 7
 2930 0006 7860     		str	r0, [r7, #4]
 2931              		.loc 2 1243 0
 2932 0008 7B68     		ldr	r3, [r7, #4]
 2933 000a 1B6F     		ldr	r3, [r3, #112]
 2934 000c 002B     		cmp	r3, #0
 2935 000e 00D1     		bne	.L175
 2936              		.loc 2 1244 0
 2937 0010 23E0     		b	.L174
 2938              	.L175:
 2939              		.loc 2 1248 0
 2940 0012 7B68     		ldr	r3, [r7, #4]
 2941 0014 1B6F     		ldr	r3, [r3, #112]
 2942 0016 FB60     		str	r3, [r7, #12]
 2943 0018 02E0     		b	.L177
 2944              	.L178:
 2945              		.loc 2 1248 0 is_stmt 0 discriminator 2
 2946 001a FB68     		ldr	r3, [r7, #12]
 2947 001c 1B68     		ldr	r3, [r3]
 2948 001e FB60     		str	r3, [r7, #12]
 2949              	.L177:
 2950              		.loc 2 1248 0 discriminator 1
 2951 0020 FB68     		ldr	r3, [r7, #12]
 2952 0022 1B68     		ldr	r3, [r3]
 2953 0024 002B     		cmp	r3, #0
 2954 0026 F8D1     		bne	.L178
 2955              		.loc 2 1250 0 is_stmt 1
 2956 0028 7B68     		ldr	r3, [r7, #4]
 2957 002a DA6E     		ldr	r2, [r3, #108]
 2958 002c FB68     		ldr	r3, [r7, #12]
 2959 002e 1A60     		str	r2, [r3]
 2960              		.loc 2 1252 0
 2961 0030 7B68     		ldr	r3, [r7, #4]
 2962 0032 1A6F     		ldr	r2, [r3, #112]
 2963 0034 7B68     		ldr	r3, [r7, #4]
 2964 0036 DA66     		str	r2, [r3, #108]
 2965              		.loc 2 1254 0
 2966 0038 7B68     		ldr	r3, [r7, #4]
 2967 003a 0022     		movs	r2, #0
 2968 003c 1A67     		str	r2, [r3, #112]
 2969              		.loc 2 1258 0
 2970 003e 7B68     		ldr	r3, [r7, #4]
 2971 0040 93F84630 		ldrb	r3, [r3, #70]	@ zero_extendqisi2
 2972 0044 0133     		adds	r3, r3, #1
 2973 0046 DAB2     		uxtb	r2, r3
 2974 0048 7B68     		ldr	r3, [r7, #4]
 2975 004a 83F84620 		strb	r2, [r3, #70]
 2976              		.loc 2 1261 0
ARM GAS  C:\Users\Luis\AppData\Local\Temp\cc4eIE9x.s 			page 55


 2977 004e 7B68     		ldr	r3, [r7, #4]
 2978 0050 0022     		movs	r2, #0
 2979 0052 9A63     		str	r2, [r3, #56]
 2980              		.loc 2 1264 0
 2981 0054 7868     		ldr	r0, [r7, #4]
 2982 0056 FFF7FEFF 		bl	tcp_output
 2983              	.L174:
 2984              		.loc 2 1265 0
 2985 005a 1037     		adds	r7, r7, #16
 2986 005c BD46     		mov	sp, r7
 2987              		@ sp needed
 2988 005e 80BD     		pop	{r7, pc}
 2989              		.cfi_endproc
 2990              	.LFE271:
 2991              		.size	tcp_rexmit_rto, .-tcp_rexmit_rto
 2992              		.section	.text.tcp_rexmit,"ax",%progbits
 2993              		.align	2
 2994              		.p2align 4,,15
 2995              		.global	tcp_rexmit
 2996              		.thumb
 2997              		.thumb_func
 2998              		.type	tcp_rexmit, %function
 2999              	tcp_rexmit:
 3000              	.LFB272:
 3001              		.loc 2 1276 0
 3002              		.cfi_startproc
 3003              		@ args = 0, pretend = 0, frame = 16
 3004              		@ frame_needed = 1, uses_anonymous_args = 0
 3005 0000 90B5     		push	{r4, r7, lr}
 3006              		.cfi_def_cfa_offset 12
 3007              		.cfi_offset 4, -12
 3008              		.cfi_offset 7, -8
 3009              		.cfi_offset 14, -4
 3010 0002 85B0     		sub	sp, sp, #20
 3011              		.cfi_def_cfa_offset 32
 3012 0004 00AF     		add	r7, sp, #0
 3013              		.cfi_def_cfa_register 7
 3014 0006 7860     		str	r0, [r7, #4]
 3015              		.loc 2 1280 0
 3016 0008 7B68     		ldr	r3, [r7, #4]
 3017 000a 1B6F     		ldr	r3, [r3, #112]
 3018 000c 002B     		cmp	r3, #0
 3019 000e 00D1     		bne	.L180
 3020              		.loc 2 1281 0
 3021 0010 3DE0     		b	.L179
 3022              	.L180:
 3023              		.loc 2 1286 0
 3024 0012 7B68     		ldr	r3, [r7, #4]
 3025 0014 1B6F     		ldr	r3, [r3, #112]
 3026 0016 BB60     		str	r3, [r7, #8]
 3027              		.loc 2 1287 0
 3028 0018 BB68     		ldr	r3, [r7, #8]
 3029 001a 1A68     		ldr	r2, [r3]
 3030 001c 7B68     		ldr	r3, [r7, #4]
 3031 001e 1A67     		str	r2, [r3, #112]
 3032              		.loc 2 1289 0
 3033 0020 7B68     		ldr	r3, [r7, #4]
ARM GAS  C:\Users\Luis\AppData\Local\Temp\cc4eIE9x.s 			page 56


 3034 0022 6C33     		adds	r3, r3, #108
 3035 0024 FB60     		str	r3, [r7, #12]
 3036              		.loc 2 1290 0
 3037 0026 02E0     		b	.L182
 3038              	.L184:
 3039              		.loc 2 1292 0
 3040 0028 FB68     		ldr	r3, [r7, #12]
 3041 002a 1B68     		ldr	r3, [r3]
 3042 002c FB60     		str	r3, [r7, #12]
 3043              	.L182:
 3044              		.loc 2 1290 0 discriminator 1
 3045 002e FB68     		ldr	r3, [r7, #12]
 3046 0030 1B68     		ldr	r3, [r3]
 3047 0032 002B     		cmp	r3, #0
 3048 0034 11D0     		beq	.L183
 3049              		.loc 2 1291 0 discriminator 2
 3050 0036 FB68     		ldr	r3, [r7, #12]
 3051 0038 1B68     		ldr	r3, [r3]
 3052 003a DB68     		ldr	r3, [r3, #12]
 3053 003c 5B68     		ldr	r3, [r3, #4]	@ unaligned
 3054 003e 1846     		mov	r0, r3
 3055 0040 FFF7FEFF 		bl	lwip_ntohl
 3056 0044 0446     		mov	r4, r0
 3057 0046 BB68     		ldr	r3, [r7, #8]
 3058 0048 DB68     		ldr	r3, [r3, #12]
 3059 004a 5B68     		ldr	r3, [r3, #4]	@ unaligned
 3060 004c 1846     		mov	r0, r3
 3061 004e FFF7FEFF 		bl	lwip_ntohl
 3062 0052 0346     		mov	r3, r0
 3063 0054 E31A     		subs	r3, r4, r3
 3064              		.loc 2 1290 0 discriminator 2
 3065 0056 002B     		cmp	r3, #0
 3066 0058 E6DB     		blt	.L184
 3067              	.L183:
 3068              		.loc 2 1294 0
 3069 005a FB68     		ldr	r3, [r7, #12]
 3070 005c 1A68     		ldr	r2, [r3]
 3071 005e BB68     		ldr	r3, [r7, #8]
 3072 0060 1A60     		str	r2, [r3]
 3073              		.loc 2 1295 0
 3074 0062 FB68     		ldr	r3, [r7, #12]
 3075 0064 BA68     		ldr	r2, [r7, #8]
 3076 0066 1A60     		str	r2, [r3]
 3077              		.loc 2 1297 0
 3078 0068 BB68     		ldr	r3, [r7, #8]
 3079 006a 1B68     		ldr	r3, [r3]
 3080 006c 002B     		cmp	r3, #0
 3081 006e 03D1     		bne	.L185
 3082              		.loc 2 1299 0
 3083 0070 7B68     		ldr	r3, [r7, #4]
 3084 0072 0022     		movs	r2, #0
 3085 0074 A3F86A20 		strh	r2, [r3, #106]	@ movhi
 3086              	.L185:
 3087              		.loc 2 1303 0
 3088 0078 7B68     		ldr	r3, [r7, #4]
 3089 007a 93F84630 		ldrb	r3, [r3, #70]	@ zero_extendqisi2
 3090 007e 0133     		adds	r3, r3, #1
ARM GAS  C:\Users\Luis\AppData\Local\Temp\cc4eIE9x.s 			page 57


 3091 0080 DAB2     		uxtb	r2, r3
 3092 0082 7B68     		ldr	r3, [r7, #4]
 3093 0084 83F84620 		strb	r2, [r3, #70]
 3094              		.loc 2 1306 0
 3095 0088 7B68     		ldr	r3, [r7, #4]
 3096 008a 0022     		movs	r2, #0
 3097 008c 9A63     		str	r2, [r3, #56]
 3098              	.L179:
 3099              		.loc 2 1312 0
 3100 008e 1437     		adds	r7, r7, #20
 3101 0090 BD46     		mov	sp, r7
 3102              		@ sp needed
 3103 0092 90BD     		pop	{r4, r7, pc}
 3104              		.cfi_endproc
 3105              	.LFE272:
 3106              		.size	tcp_rexmit, .-tcp_rexmit
 3107 0094 AFF30080 		.section	.text.tcp_rexmit_fast,"ax",%progbits
 3107      AFF30080 
 3107      AFF30080 
 3108              		.align	2
 3109              		.p2align 4,,15
 3110              		.global	tcp_rexmit_fast
 3111              		.thumb
 3112              		.thumb_func
 3113              		.type	tcp_rexmit_fast, %function
 3114              	tcp_rexmit_fast:
 3115              	.LFB273:
 3116              		.loc 2 1322 0
 3117              		.cfi_startproc
 3118              		@ args = 0, pretend = 0, frame = 8
 3119              		@ frame_needed = 1, uses_anonymous_args = 0
 3120 0000 80B5     		push	{r7, lr}
 3121              		.cfi_def_cfa_offset 8
 3122              		.cfi_offset 7, -8
 3123              		.cfi_offset 14, -4
 3124 0002 82B0     		sub	sp, sp, #8
 3125              		.cfi_def_cfa_offset 16
 3126 0004 00AF     		add	r7, sp, #0
 3127              		.cfi_def_cfa_register 7
 3128 0006 7860     		str	r0, [r7, #4]
 3129              		.loc 2 1323 0
 3130 0008 7B68     		ldr	r3, [r7, #4]
 3131 000a 1B6F     		ldr	r3, [r3, #112]
 3132 000c 002B     		cmp	r3, #0
 3133 000e 46D0     		beq	.L186
 3134              		.loc 2 1323 0 is_stmt 0 discriminator 1
 3135 0010 7B68     		ldr	r3, [r7, #4]
 3136 0012 9B7F     		ldrb	r3, [r3, #30]	@ zero_extendqisi2
 3137 0014 03F00403 		and	r3, r3, #4
 3138 0018 002B     		cmp	r3, #0
 3139 001a 40D1     		bne	.L186
 3140              		.loc 2 1330 0 is_stmt 1
 3141 001c 7868     		ldr	r0, [r7, #4]
 3142 001e FFF7FEFF 		bl	tcp_rexmit
 3143              		.loc 2 1334 0
 3144 0022 7B68     		ldr	r3, [r7, #4]
 3145 0024 B3F84C20 		ldrh	r2, [r3, #76]
ARM GAS  C:\Users\Luis\AppData\Local\Temp\cc4eIE9x.s 			page 58


 3146 0028 7B68     		ldr	r3, [r7, #4]
 3147 002a B3F86030 		ldrh	r3, [r3, #96]
 3148 002e 9A42     		cmp	r2, r3
 3149 0030 08D9     		bls	.L188
 3150              		.loc 2 1335 0
 3151 0032 7B68     		ldr	r3, [r7, #4]
 3152 0034 B3F86030 		ldrh	r3, [r3, #96]
 3153 0038 5B08     		lsrs	r3, r3, #1
 3154 003a 9AB2     		uxth	r2, r3
 3155 003c 7B68     		ldr	r3, [r7, #4]
 3156 003e A3F84E20 		strh	r2, [r3, #78]	@ movhi
 3157 0042 07E0     		b	.L189
 3158              	.L188:
 3159              		.loc 2 1337 0
 3160 0044 7B68     		ldr	r3, [r7, #4]
 3161 0046 B3F84C30 		ldrh	r3, [r3, #76]
 3162 004a 5B08     		lsrs	r3, r3, #1
 3163 004c 9AB2     		uxth	r2, r3
 3164 004e 7B68     		ldr	r3, [r7, #4]
 3165 0050 A3F84E20 		strh	r2, [r3, #78]	@ movhi
 3166              	.L189:
 3167              		.loc 2 1341 0
 3168 0054 7B68     		ldr	r3, [r7, #4]
 3169 0056 B3F84E30 		ldrh	r3, [r3, #78]
 3170 005a 1A46     		mov	r2, r3
 3171 005c 7B68     		ldr	r3, [r7, #4]
 3172 005e DB8E     		ldrh	r3, [r3, #54]
 3173 0060 5B00     		lsls	r3, r3, #1
 3174 0062 9A42     		cmp	r2, r3
 3175 0064 06DA     		bge	.L190
 3176              		.loc 2 1346 0
 3177 0066 7B68     		ldr	r3, [r7, #4]
 3178 0068 DB8E     		ldrh	r3, [r3, #54]
 3179 006a 5B00     		lsls	r3, r3, #1
 3180 006c 9AB2     		uxth	r2, r3
 3181 006e 7B68     		ldr	r3, [r7, #4]
 3182 0070 A3F84E20 		strh	r2, [r3, #78]	@ movhi
 3183              	.L190:
 3184              		.loc 2 1349 0
 3185 0074 7B68     		ldr	r3, [r7, #4]
 3186 0076 B3F84E20 		ldrh	r2, [r3, #78]
 3187 007a 7B68     		ldr	r3, [r7, #4]
 3188 007c DB8E     		ldrh	r3, [r3, #54]
 3189 007e 1946     		mov	r1, r3	@ movhi
 3190 0080 4900     		lsls	r1, r1, #1
 3191 0082 0B44     		add	r3, r3, r1
 3192 0084 9BB2     		uxth	r3, r3
 3193 0086 1344     		add	r3, r3, r2
 3194 0088 9AB2     		uxth	r2, r3
 3195 008a 7B68     		ldr	r3, [r7, #4]
 3196 008c A3F84C20 		strh	r2, [r3, #76]	@ movhi
 3197              		.loc 2 1350 0
 3198 0090 7B68     		ldr	r3, [r7, #4]
 3199 0092 9B7F     		ldrb	r3, [r3, #30]	@ zero_extendqisi2
 3200 0094 43F00403 		orr	r3, r3, #4
 3201 0098 DAB2     		uxtb	r2, r3
 3202 009a 7B68     		ldr	r3, [r7, #4]
ARM GAS  C:\Users\Luis\AppData\Local\Temp\cc4eIE9x.s 			page 59


 3203 009c 9A77     		strb	r2, [r3, #30]
 3204              	.L186:
 3205              		.loc 2 1352 0
 3206 009e 0837     		adds	r7, r7, #8
 3207 00a0 BD46     		mov	sp, r7
 3208              		@ sp needed
 3209 00a2 80BD     		pop	{r7, pc}
 3210              		.cfi_endproc
 3211              	.LFE273:
 3212              		.size	tcp_rexmit_fast, .-tcp_rexmit_fast
 3213 00a4 AFF30080 		.section	.text.tcp_keepalive,"ax",%progbits
 3213      AFF30080 
 3213      AFF30080 
 3214              		.align	2
 3215              		.p2align 4,,15
 3216              		.global	tcp_keepalive
 3217              		.thumb
 3218              		.thumb_func
 3219              		.type	tcp_keepalive, %function
 3220              	tcp_keepalive:
 3221              	.LFB274:
 3222              		.loc 2 1365 0
 3223              		.cfi_startproc
 3224              		@ args = 0, pretend = 0, frame = 16
 3225              		@ frame_needed = 1, uses_anonymous_args = 0
 3226 0000 80B5     		push	{r7, lr}
 3227              		.cfi_def_cfa_offset 8
 3228              		.cfi_offset 7, -8
 3229              		.cfi_offset 14, -4
 3230 0002 86B0     		sub	sp, sp, #24
 3231              		.cfi_def_cfa_offset 32
 3232 0004 02AF     		add	r7, sp, #8
 3233              		.cfi_def_cfa 7, 24
 3234 0006 7860     		str	r0, [r7, #4]
 3235              		.loc 2 1376 0
 3236 0008 7B68     		ldr	r3, [r7, #4]
 3237 000a 1B6D     		ldr	r3, [r3, #80]
 3238 000c 013B     		subs	r3, r3, #1
 3239 000e 1846     		mov	r0, r3
 3240 0010 FFF7FEFF 		bl	lwip_htonl
 3241 0014 0346     		mov	r3, r0
 3242 0016 7868     		ldr	r0, [r7, #4]
 3243 0018 0021     		movs	r1, #0
 3244 001a 0022     		movs	r2, #0
 3245 001c FFF7FEFF 		bl	tcp_output_alloc_header
 3246 0020 F860     		str	r0, [r7, #12]
 3247              		.loc 2 1377 0
 3248 0022 FB68     		ldr	r3, [r7, #12]
 3249 0024 002B     		cmp	r3, #0
 3250 0026 00D1     		bne	.L192
 3251              		.loc 2 1380 0
 3252 0028 29E0     		b	.L191
 3253              	.L192:
 3254              		.loc 2 1382 0
 3255 002a FB68     		ldr	r3, [r7, #12]
 3256 002c 5B68     		ldr	r3, [r3, #4]
 3257 002e BB60     		str	r3, [r7, #8]
ARM GAS  C:\Users\Luis\AppData\Local\Temp\cc4eIE9x.s 			page 60


 3258              		.loc 2 1385 0
 3259 0030 7A68     		ldr	r2, [r7, #4]
 3260 0032 7B68     		ldr	r3, [r7, #4]
 3261 0034 0433     		adds	r3, r3, #4
 3262 0036 F968     		ldr	r1, [r7, #12]
 3263 0038 0989     		ldrh	r1, [r1, #8]
 3264 003a 0091     		str	r1, [sp]
 3265 003c F868     		ldr	r0, [r7, #12]
 3266 003e 1146     		mov	r1, r2
 3267 0040 1A46     		mov	r2, r3
 3268 0042 0623     		movs	r3, #6
 3269 0044 FFF7FEFF 		bl	inet_chksum_pseudo
 3270 0048 0346     		mov	r3, r0
 3271 004a 1A46     		mov	r2, r3
 3272 004c BB68     		ldr	r3, [r7, #8]
 3273 004e 1A82     		strh	r2, [r3, #16]	@ unaligned
 3274              		.loc 2 1388 0
 3275 0050 0C4B     		ldr	r3, .L194
 3276 0052 B3F89030 		ldrh	r3, [r3, #144]
 3277 0056 0133     		adds	r3, r3, #1
 3278 0058 9AB2     		uxth	r2, r3
 3279 005a 0A4B     		ldr	r3, .L194
 3280 005c A3F89020 		strh	r2, [r3, #144]	@ movhi
 3281              		.loc 2 1395 0
 3282 0060 7968     		ldr	r1, [r7, #4]
 3283 0062 7B68     		ldr	r3, [r7, #4]
 3284 0064 1A1D     		adds	r2, r3, #4
 3285 0066 7B68     		ldr	r3, [r7, #4]
 3286 0068 9B7A     		ldrb	r3, [r3, #10]	@ zero_extendqisi2
 3287 006a 0020     		movs	r0, #0
 3288 006c 0090     		str	r0, [sp]
 3289 006e 0620     		movs	r0, #6
 3290 0070 0190     		str	r0, [sp, #4]
 3291 0072 F868     		ldr	r0, [r7, #12]
 3292 0074 FFF7FEFF 		bl	ip_output
 3293              		.loc 2 1398 0
 3294 0078 F868     		ldr	r0, [r7, #12]
 3295 007a FFF7FEFF 		bl	pbuf_free
 3296              	.L191:
 3297              		.loc 2 1402 0
 3298 007e 1037     		adds	r7, r7, #16
 3299 0080 BD46     		mov	sp, r7
 3300              		@ sp needed
 3301 0082 80BD     		pop	{r7, pc}
 3302              	.L195:
 3303              		.align	2
 3304              	.L194:
 3305 0084 00000000 		.word	lwip_stats
 3306              		.cfi_endproc
 3307              	.LFE274:
 3308              		.size	tcp_keepalive, .-tcp_keepalive
 3309 0088 AFF30080 		.section	.text.tcp_zero_window_probe,"ax",%progbits
 3309      AFF30080 
 3310              		.align	2
 3311              		.p2align 4,,15
 3312              		.global	tcp_zero_window_probe
 3313              		.thumb
ARM GAS  C:\Users\Luis\AppData\Local\Temp\cc4eIE9x.s 			page 61


 3314              		.thumb_func
 3315              		.type	tcp_zero_window_probe, %function
 3316              	tcp_zero_window_probe:
 3317              	.LFB275:
 3318              		.loc 2 1415 0
 3319              		.cfi_startproc
 3320              		@ args = 0, pretend = 0, frame = 32
 3321              		@ frame_needed = 1, uses_anonymous_args = 0
 3322 0000 90B5     		push	{r4, r7, lr}
 3323              		.cfi_def_cfa_offset 12
 3324              		.cfi_offset 4, -12
 3325              		.cfi_offset 7, -8
 3326              		.cfi_offset 14, -4
 3327 0002 8BB0     		sub	sp, sp, #44
 3328              		.cfi_def_cfa_offset 56
 3329 0004 02AF     		add	r7, sp, #8
 3330              		.cfi_def_cfa 7, 48
 3331 0006 7860     		str	r0, [r7, #4]
 3332              		.loc 2 1433 0
 3333 0008 7B68     		ldr	r3, [r7, #4]
 3334 000a 1B6F     		ldr	r3, [r3, #112]
 3335 000c FB61     		str	r3, [r7, #28]
 3336              		.loc 2 1435 0
 3337 000e FB69     		ldr	r3, [r7, #28]
 3338 0010 002B     		cmp	r3, #0
 3339 0012 02D1     		bne	.L197
 3340              		.loc 2 1436 0
 3341 0014 7B68     		ldr	r3, [r7, #4]
 3342 0016 DB6E     		ldr	r3, [r3, #108]
 3343 0018 FB61     		str	r3, [r7, #28]
 3344              	.L197:
 3345              		.loc 2 1438 0
 3346 001a FB69     		ldr	r3, [r7, #28]
 3347 001c 002B     		cmp	r3, #0
 3348 001e 00D1     		bne	.L198
 3349              		.loc 2 1439 0
 3350 0020 79E0     		b	.L196
 3351              	.L198:
 3352              		.loc 2 1442 0
 3353 0022 FB69     		ldr	r3, [r7, #28]
 3354 0024 DB68     		ldr	r3, [r3, #12]
 3355 0026 9B89     		ldrh	r3, [r3, #12]	@ unaligned
 3356 0028 9BB2     		uxth	r3, r3
 3357 002a 1846     		mov	r0, r3
 3358 002c FFF7FEFF 		bl	lwip_ntohs
 3359 0030 0346     		mov	r3, r0
 3360 0032 03F00103 		and	r3, r3, #1
 3361 0036 002B     		cmp	r3, #0
 3362 0038 05D0     		beq	.L200
 3363              		.loc 2 1442 0 is_stmt 0 discriminator 1
 3364 003a FB69     		ldr	r3, [r7, #28]
 3365 003c 1B89     		ldrh	r3, [r3, #8]
 3366 003e 002B     		cmp	r3, #0
 3367 0040 01D1     		bne	.L200
 3368              		.loc 2 1442 0 discriminator 3
 3369 0042 0123     		movs	r3, #1
 3370 0044 00E0     		b	.L201
ARM GAS  C:\Users\Luis\AppData\Local\Temp\cc4eIE9x.s 			page 62


 3371              	.L200:
 3372              		.loc 2 1442 0 discriminator 2
 3373 0046 0023     		movs	r3, #0
 3374              	.L201:
 3375              		.loc 2 1442 0 discriminator 4
 3376 0048 FB76     		strb	r3, [r7, #27]
 3377              		.loc 2 1444 0 is_stmt 1 discriminator 4
 3378 004a FB7E     		ldrb	r3, [r7, #27]	@ zero_extendqisi2
 3379 004c 002B     		cmp	r3, #0
 3380 004e 14BF     		ite	ne
 3381 0050 0023     		movne	r3, #0
 3382 0052 0123     		moveq	r3, #1
 3383 0054 DBB2     		uxtb	r3, r3
 3384 0056 3B83     		strh	r3, [r7, #24]	@ movhi
 3385              		.loc 2 1446 0 discriminator 4
 3386 0058 FB69     		ldr	r3, [r7, #28]
 3387 005a DB68     		ldr	r3, [r3, #12]
 3388 005c 5B68     		ldr	r3, [r3, #4]	@ unaligned
 3389 005e 3A8B     		ldrh	r2, [r7, #24]
 3390 0060 7868     		ldr	r0, [r7, #4]
 3391 0062 0021     		movs	r1, #0
 3392 0064 FFF7FEFF 		bl	tcp_output_alloc_header
 3393 0068 7861     		str	r0, [r7, #20]
 3394              		.loc 2 1447 0 discriminator 4
 3395 006a 7B69     		ldr	r3, [r7, #20]
 3396 006c 002B     		cmp	r3, #0
 3397 006e 00D1     		bne	.L202
 3398              		.loc 2 1449 0
 3399 0070 51E0     		b	.L196
 3400              	.L202:
 3401              		.loc 2 1451 0
 3402 0072 7B69     		ldr	r3, [r7, #20]
 3403 0074 5B68     		ldr	r3, [r3, #4]
 3404 0076 3B61     		str	r3, [r7, #16]
 3405              		.loc 2 1453 0
 3406 0078 FB7E     		ldrb	r3, [r7, #27]	@ zero_extendqisi2
 3407 007a 002B     		cmp	r3, #0
 3408 007c 12D0     		beq	.L203
 3409              		.loc 2 1455 0
 3410 007e 3B69     		ldr	r3, [r7, #16]
 3411 0080 9B89     		ldrh	r3, [r3, #12]	@ unaligned
 3412 0082 9BB2     		uxth	r3, r3
 3413 0084 9BB2     		uxth	r3, r3
 3414 0086 23F47C53 		bic	r3, r3, #16128
 3415 008a 9CB2     		uxth	r4, r3
 3416 008c 1120     		movs	r0, #17
 3417 008e FFF7FEFF 		bl	lwip_htons
 3418 0092 0346     		mov	r3, r0
 3419 0094 9BB2     		uxth	r3, r3
 3420 0096 2246     		mov	r2, r4	@ movhi
 3421 0098 1343     		orrs	r3, r3, r2
 3422 009a 9BB2     		uxth	r3, r3
 3423 009c 9AB2     		uxth	r2, r3
 3424 009e 3B69     		ldr	r3, [r7, #16]
 3425 00a0 9A81     		strh	r2, [r3, #12]	@ unaligned
 3426 00a2 11E0     		b	.L204
 3427              	.L203:
ARM GAS  C:\Users\Luis\AppData\Local\Temp\cc4eIE9x.s 			page 63


 3428              	.LBB11:
 3429              		.loc 2 1458 0
 3430 00a4 7B69     		ldr	r3, [r7, #20]
 3431 00a6 5B68     		ldr	r3, [r3, #4]
 3432 00a8 1433     		adds	r3, r3, #20
 3433 00aa FB60     		str	r3, [r7, #12]
 3434              		.loc 2 1462 0
 3435 00ac FB69     		ldr	r3, [r7, #28]
 3436 00ae 5A68     		ldr	r2, [r3, #4]
 3437 00b0 FB69     		ldr	r3, [r7, #28]
 3438 00b2 5B68     		ldr	r3, [r3, #4]
 3439 00b4 1989     		ldrh	r1, [r3, #8]
 3440 00b6 FB69     		ldr	r3, [r7, #28]
 3441 00b8 1B89     		ldrh	r3, [r3, #8]
 3442 00ba CB1A     		subs	r3, r1, r3
 3443 00bc 9BB2     		uxth	r3, r3
 3444 00be 1046     		mov	r0, r2
 3445 00c0 F968     		ldr	r1, [r7, #12]
 3446 00c2 0122     		movs	r2, #1
 3447 00c4 FFF7FEFF 		bl	pbuf_copy_partial
 3448              	.L204:
 3449              	.LBE11:
 3450              		.loc 2 1466 0
 3451 00c8 7A68     		ldr	r2, [r7, #4]
 3452 00ca 7B68     		ldr	r3, [r7, #4]
 3453 00cc 0433     		adds	r3, r3, #4
 3454 00ce 7969     		ldr	r1, [r7, #20]
 3455 00d0 0989     		ldrh	r1, [r1, #8]
 3456 00d2 0091     		str	r1, [sp]
 3457 00d4 7869     		ldr	r0, [r7, #20]
 3458 00d6 1146     		mov	r1, r2
 3459 00d8 1A46     		mov	r2, r3
 3460 00da 0623     		movs	r3, #6
 3461 00dc FFF7FEFF 		bl	inet_chksum_pseudo
 3462 00e0 0346     		mov	r3, r0
 3463 00e2 1A46     		mov	r2, r3
 3464 00e4 3B69     		ldr	r3, [r7, #16]
 3465 00e6 1A82     		strh	r2, [r3, #16]	@ unaligned
 3466              		.loc 2 1469 0
 3467 00e8 0C4B     		ldr	r3, .L205
 3468 00ea B3F89030 		ldrh	r3, [r3, #144]
 3469 00ee 0133     		adds	r3, r3, #1
 3470 00f0 9AB2     		uxth	r2, r3
 3471 00f2 0A4B     		ldr	r3, .L205
 3472 00f4 A3F89020 		strh	r2, [r3, #144]	@ movhi
 3473              		.loc 2 1476 0
 3474 00f8 7968     		ldr	r1, [r7, #4]
 3475 00fa 7B68     		ldr	r3, [r7, #4]
 3476 00fc 1A1D     		adds	r2, r3, #4
 3477 00fe 7B68     		ldr	r3, [r7, #4]
 3478 0100 9B7A     		ldrb	r3, [r3, #10]	@ zero_extendqisi2
 3479 0102 0020     		movs	r0, #0
 3480 0104 0090     		str	r0, [sp]
 3481 0106 0620     		movs	r0, #6
 3482 0108 0190     		str	r0, [sp, #4]
 3483 010a 7869     		ldr	r0, [r7, #20]
 3484 010c FFF7FEFF 		bl	ip_output
ARM GAS  C:\Users\Luis\AppData\Local\Temp\cc4eIE9x.s 			page 64


 3485              		.loc 2 1479 0
 3486 0110 7869     		ldr	r0, [r7, #20]
 3487 0112 FFF7FEFF 		bl	pbuf_free
 3488              	.L196:
 3489              		.loc 2 1484 0
 3490 0116 2437     		adds	r7, r7, #36
 3491 0118 BD46     		mov	sp, r7
 3492              		@ sp needed
 3493 011a 90BD     		pop	{r4, r7, pc}
 3494              	.L206:
 3495              		.align	2
 3496              	.L205:
 3497 011c 00000000 		.word	lwip_stats
 3498              		.cfi_endproc
 3499              	.LFE275:
 3500              		.size	tcp_zero_window_probe, .-tcp_zero_window_probe
 3501              		.text
 3502              	.Letext0:
 3503              		.file 3 "c:\\emtechesdk\\gcc\\arm-none-eabi\\include\\stdint.h"
 3504              		.file 4 "../../ChibiOS/os/rt/ports/ARMCMx/compilers/GCC/chtypes.h"
 3505              		.file 5 "../../ChibiOS/os/rt/include/chsystypes.h"
 3506              		.file 6 "../../ChibiOS/os/rt/include/chschd.h"
 3507              		.file 7 "../../ChibiOS/os/rt/ports/ARMCMx/chcore.h"
 3508              		.file 8 "../../ChibiOS/os/rt/ports/ARMCMx/chcore_v7m.h"
 3509              		.file 9 "../../ChibiOS/os/rt/include/chdebug.h"
 3510              		.file 10 "../../ChibiOS/os/rt/include/chtm.h"
 3511              		.file 11 "../../ChibiOS/os/rt/include/chstats.h"
 3512              		.file 12 "../../ChibiOS/os/rt/include/chsem.h"
 3513              		.file 13 "../../ChibiOS/os/rt/include/chmtx.h"
 3514              		.file 14 "../../ChibiOS/os/various/lwip_bindings/arch/cc.h"
 3515              		.file 15 "../../ChibiOS/ext/lwip/src/include/lwip/mem.h"
 3516              		.file 16 "../../ChibiOS/ext/lwip/src/include/lwip/err.h"
 3517              		.file 17 "../../ChibiOS/ext/lwip/src/include/lwip/pbuf.h"
 3518              		.file 18 "../../ChibiOS/ext/lwip/src/include/ipv4/lwip/ip_addr.h"
 3519              		.file 19 "../../ChibiOS/ext/lwip/src/include/lwip/netif.h"
 3520              		.file 20 "../../ChibiOS/ext/lwip/src/include/lwip/tcp.h"
 3521              		.file 21 "../../ChibiOS/ext/lwip/src/include/lwip/tcp_impl.h"
 3522              		.file 22 "../../ChibiOS/ext/lwip/src/include/lwip/memp.h"
 3523              		.file 23 "../../ChibiOS/ext/lwip/src/include/lwip/stats.h"
 3524              		.file 24 "../../ChibiOS/os/ext/CMSIS/include/core_cm4.h"