ARM GAS  C:\Users\Luis\AppData\Local\Temp\cc4eIE9x.s 			page 1


   1              		.syntax unified
   2              		.cpu cortex-m4
   3              		.fpu softvfp
   4              		.eabi_attribute 20, 1
   5              		.eabi_attribute 21, 1
   6              		.eabi_attribute 23, 3
   7              		.eabi_attribute 24, 1
   8              		.eabi_attribute 25, 1
   9              		.eabi_attribute 26, 1
  10              		.eabi_attribute 30, 6
  11              		.eabi_attribute 34, 1
  12              		.eabi_attribute 18, 4
  13              		.thumb
  14              		.file	"tcp_out.c"
  15              		.text
  16              	.Ltext0:
  17              		.cfi_sections	.debug_frame
  18              		.section	.text.osalSysHalt,"ax",%progbits
  19              		.align	2
  20              		.p2align 4,,15
  21              		.thumb
  22              		.thumb_func
  23              		.type	osalSysHalt, %function
  24              	osalSysHalt:
  25              	.LFB230:
  26              		.file 1 "../../ChibiOS/os/hal/osal/rt/osal.h"
  27              		.loc 1 460 0
  28              		.cfi_startproc
  29              		@ args = 0, pretend = 0, frame = 8
  30              		@ frame_needed = 1, uses_anonymous_args = 0
  31 0000 80B5     		push	{r7, lr}
  32              		.cfi_def_cfa_offset 8
  33              		.cfi_offset 7, -8
  34              		.cfi_offset 14, -4
  35 0002 82B0     		sub	sp, sp, #8
  36              		.cfi_def_cfa_offset 16
  37 0004 00AF     		add	r7, sp, #0
  38              		.cfi_def_cfa_register 7
  39 0006 7860     		str	r0, [r7, #4]
  40              		.loc 1 462 0
  41 0008 7868     		ldr	r0, [r7, #4]
  42 000a FFF7FEFF 		bl	chSysHalt
  43              		.loc 1 463 0
  44 000e 0837     		adds	r7, r7, #8
  45 0010 BD46     		mov	sp, r7
  46              		@ sp needed
  47 0012 80BD     		pop	{r7, pc}
  48              		.cfi_endproc
  49              	.LFE230:
  50              		.size	osalSysHalt, .-osalSysHalt
  51 0014 AFF30080 		.section	.rodata
  51      AFF30080 
  51      AFF30080 
  52              		.align	2
  53              	.LC0:
  54 0000 63686563 		.ascii	"check that first pbuf can hold struct tcp_hdr\000"
  54      6B207468 
ARM GAS  C:\Users\Luis\AppData\Local\Temp\cc4eIE9x.s 			page 2


  54      61742066 
  54      69727374 
  54      20706275 
  55              		.section	.text.tcp_output_alloc_header,"ax",%progbits
  56              		.align	2
  57              		.p2align 4,,15
  58              		.thumb
  59              		.thumb_func
  60              		.type	tcp_output_alloc_header, %function
  61              	tcp_output_alloc_header:
  62              	.LFB260:
  63              		.file 2 "../../ChibiOS/ext/lwip/src/core/tcp_out.c"
  64              		.loc 2 96 0
  65              		.cfi_startproc
  66              		@ args = 0, pretend = 0, frame = 24
  67              		@ frame_needed = 1, uses_anonymous_args = 0
  68 0000 80B5     		push	{r7, lr}
  69              		.cfi_def_cfa_offset 8
  70              		.cfi_offset 7, -8
  71              		.cfi_offset 14, -4
  72 0002 86B0     		sub	sp, sp, #24
  73              		.cfi_def_cfa_offset 32
  74 0004 00AF     		add	r7, sp, #0
  75              		.cfi_def_cfa_register 7
  76 0006 F860     		str	r0, [r7, #12]
  77 0008 7B60     		str	r3, [r7, #4]
  78 000a 0B46     		mov	r3, r1	@ movhi
  79 000c 7B81     		strh	r3, [r7, #10]	@ movhi
  80 000e 1346     		mov	r3, r2	@ movhi
  81 0010 3B81     		strh	r3, [r7, #8]	@ movhi
  82              		.loc 2 98 0
  83 0012 7A89     		ldrh	r2, [r7, #10]	@ movhi
  84 0014 3B89     		ldrh	r3, [r7, #8]	@ movhi
  85 0016 1344     		add	r3, r3, r2
  86 0018 9BB2     		uxth	r3, r3
  87 001a 1433     		adds	r3, r3, #20
  88 001c 9BB2     		uxth	r3, r3
  89 001e 0120     		movs	r0, #1
  90 0020 1946     		mov	r1, r3
  91 0022 0022     		movs	r2, #0
  92 0024 FFF7FEFF 		bl	pbuf_alloc
  93 0028 7861     		str	r0, [r7, #20]
  94              		.loc 2 99 0
  95 002a 7B69     		ldr	r3, [r7, #20]
  96 002c 002B     		cmp	r3, #0
  97 002e 54D0     		beq	.L3
  98              		.loc 2 100 0
  99 0030 7B69     		ldr	r3, [r7, #20]
 100 0032 5B89     		ldrh	r3, [r3, #10]
 101 0034 1A46     		mov	r2, r3
 102 0036 7B89     		ldrh	r3, [r7, #10]
 103 0038 1433     		adds	r3, r3, #20
 104 003a 9A42     		cmp	r2, r3
 105 003c 02DA     		bge	.L4
 106              		.loc 2 100 0 is_stmt 0 discriminator 1
 107 003e 2948     		ldr	r0, .L6
 108 0040 FFF7FEFF 		bl	osalSysHalt
ARM GAS  C:\Users\Luis\AppData\Local\Temp\cc4eIE9x.s 			page 3


 109              	.L4:
 110              		.loc 2 102 0 is_stmt 1
 111 0044 7B69     		ldr	r3, [r7, #20]
 112 0046 5B68     		ldr	r3, [r3, #4]
 113 0048 3B61     		str	r3, [r7, #16]
 114              		.loc 2 103 0
 115 004a FB68     		ldr	r3, [r7, #12]
 116 004c 5B8B     		ldrh	r3, [r3, #26]
 117 004e 1846     		mov	r0, r3
 118 0050 FFF7FEFF 		bl	lwip_htons
 119 0054 0346     		mov	r3, r0
 120 0056 1A46     		mov	r2, r3
 121 0058 3B69     		ldr	r3, [r7, #16]
 122 005a 1A80     		strh	r2, [r3]	@ unaligned
 123              		.loc 2 104 0
 124 005c FB68     		ldr	r3, [r7, #12]
 125 005e 9B8B     		ldrh	r3, [r3, #28]
 126 0060 1846     		mov	r0, r3
 127 0062 FFF7FEFF 		bl	lwip_htons
 128 0066 0346     		mov	r3, r0
 129 0068 1A46     		mov	r2, r3
 130 006a 3B69     		ldr	r3, [r7, #16]
 131 006c 5A80     		strh	r2, [r3, #2]	@ unaligned
 132              		.loc 2 105 0
 133 006e 3B69     		ldr	r3, [r7, #16]
 134 0070 7A68     		ldr	r2, [r7, #4]
 135 0072 5A60     		str	r2, [r3, #4]	@ unaligned
 136              		.loc 2 106 0
 137 0074 FB68     		ldr	r3, [r7, #12]
 138 0076 9B6A     		ldr	r3, [r3, #40]
 139 0078 1846     		mov	r0, r3
 140 007a FFF7FEFF 		bl	lwip_htonl
 141 007e 0246     		mov	r2, r0
 142 0080 3B69     		ldr	r3, [r7, #16]
 143 0082 9A60     		str	r2, [r3, #8]	@ unaligned
 144              		.loc 2 107 0
 145 0084 7B89     		ldrh	r3, [r7, #10]
 146 0086 9B08     		lsrs	r3, r3, #2
 147 0088 9BB2     		uxth	r3, r3
 148 008a 0533     		adds	r3, r3, #5
 149 008c 9BB2     		uxth	r3, r3
 150 008e 1B03     		lsls	r3, r3, #12
 151 0090 9BB2     		uxth	r3, r3
 152 0092 43F01003 		orr	r3, r3, #16
 153 0096 9BB2     		uxth	r3, r3
 154 0098 1846     		mov	r0, r3
 155 009a FFF7FEFF 		bl	lwip_htons
 156 009e 0346     		mov	r3, r0
 157 00a0 1A46     		mov	r2, r3
 158 00a2 3B69     		ldr	r3, [r7, #16]
 159 00a4 9A81     		strh	r2, [r3, #12]	@ unaligned
 160              		.loc 2 108 0
 161 00a6 FB68     		ldr	r3, [r7, #12]
 162 00a8 DB8D     		ldrh	r3, [r3, #46]
 163 00aa 1846     		mov	r0, r3
 164 00ac FFF7FEFF 		bl	lwip_htons
 165 00b0 0346     		mov	r3, r0
ARM GAS  C:\Users\Luis\AppData\Local\Temp\cc4eIE9x.s 			page 4


 166 00b2 1A46     		mov	r2, r3
 167 00b4 3B69     		ldr	r3, [r7, #16]
 168 00b6 DA81     		strh	r2, [r3, #14]	@ unaligned
 169              		.loc 2 109 0
 170 00b8 3B69     		ldr	r3, [r7, #16]
 171 00ba 0022     		movs	r2, #0
 172 00bc 1A74     		strb	r2, [r3, #16]
 173 00be 0022     		movs	r2, #0
 174 00c0 5A74     		strb	r2, [r3, #17]
 175              		.loc 2 110 0
 176 00c2 3B69     		ldr	r3, [r7, #16]
 177 00c4 0022     		movs	r2, #0
 178 00c6 9A74     		strb	r2, [r3, #18]
 179 00c8 0022     		movs	r2, #0
 180 00ca DA74     		strb	r2, [r3, #19]
 181              		.loc 2 113 0
 182 00cc FB68     		ldr	r3, [r7, #12]
 183 00ce 9A6A     		ldr	r2, [r3, #40]
 184 00d0 FB68     		ldr	r3, [r7, #12]
 185 00d2 DB8D     		ldrh	r3, [r3, #46]
 186 00d4 1A44     		add	r2, r2, r3
 187 00d6 FB68     		ldr	r3, [r7, #12]
 188 00d8 1A63     		str	r2, [r3, #48]
 189              	.L3:
 190              		.loc 2 115 0
 191 00da 7B69     		ldr	r3, [r7, #20]
 192              		.loc 2 116 0
 193 00dc 1846     		mov	r0, r3
 194 00de 1837     		adds	r7, r7, #24
 195 00e0 BD46     		mov	sp, r7
 196              		@ sp needed
 197 00e2 80BD     		pop	{r7, pc}
 198              	.L7:
 199              		.align	2
 200              	.L6:
 201 00e4 00000000 		.word	.LC0
 202              		.cfi_endproc
 203              	.LFE260:
 204              		.size	tcp_output_alloc_header, .-tcp_output_alloc_header
 205 00e8 AFF30080 		.section	.text.tcp_send_fin,"ax",%progbits
 205      AFF30080 
 206              		.align	2
 207              		.p2align 4,,15
 208              		.global	tcp_send_fin
 209              		.thumb
 210              		.thumb_func
 211              		.type	tcp_send_fin, %function
 212              	tcp_send_fin:
 213              	.LFB261:
 214              		.loc 2 126 0
 215              		.cfi_startproc
 216              		@ args = 0, pretend = 0, frame = 16
 217              		@ frame_needed = 1, uses_anonymous_args = 0
 218 0000 B0B5     		push	{r4, r5, r7, lr}
 219              		.cfi_def_cfa_offset 16
 220              		.cfi_offset 4, -16
 221              		.cfi_offset 5, -12
ARM GAS  C:\Users\Luis\AppData\Local\Temp\cc4eIE9x.s 			page 5


 222              		.cfi_offset 7, -8
 223              		.cfi_offset 14, -4
 224 0002 84B0     		sub	sp, sp, #16
 225              		.cfi_def_cfa_offset 32
 226 0004 00AF     		add	r7, sp, #0
 227              		.cfi_def_cfa_register 7
 228 0006 7860     		str	r0, [r7, #4]
 229              		.loc 2 128 0
 230 0008 7B68     		ldr	r3, [r7, #4]
 231 000a DB6E     		ldr	r3, [r3, #108]
 232 000c 002B     		cmp	r3, #0
 233 000e 2CD0     		beq	.L9
 234              	.LBB2:
 235              		.loc 2 130 0
 236 0010 7B68     		ldr	r3, [r7, #4]
 237 0012 DB6E     		ldr	r3, [r3, #108]
 238 0014 FB60     		str	r3, [r7, #12]
 239 0016 02E0     		b	.L10
 240              	.L11:
 241              		.loc 2 131 0
 242 0018 FB68     		ldr	r3, [r7, #12]
 243 001a 1B68     		ldr	r3, [r3]
 244 001c FB60     		str	r3, [r7, #12]
 245              	.L10:
 246              		.loc 2 130 0 discriminator 1
 247 001e FB68     		ldr	r3, [r7, #12]
 248 0020 1B68     		ldr	r3, [r3]
 249 0022 002B     		cmp	r3, #0
 250 0024 F8D1     		bne	.L11
 251              		.loc 2 133 0
 252 0026 FB68     		ldr	r3, [r7, #12]
 253 0028 DB68     		ldr	r3, [r3, #12]
 254 002a 9B89     		ldrh	r3, [r3, #12]	@ unaligned
 255 002c 9BB2     		uxth	r3, r3
 256 002e 1846     		mov	r0, r3
 257 0030 FFF7FEFF 		bl	lwip_ntohs
 258 0034 0346     		mov	r3, r0
 259 0036 03F00703 		and	r3, r3, #7
 260 003a 002B     		cmp	r3, #0
 261 003c 15D1     		bne	.L9
 262              		.loc 2 135 0
 263 003e FB68     		ldr	r3, [r7, #12]
 264 0040 DC68     		ldr	r4, [r3, #12]
 265 0042 FB68     		ldr	r3, [r7, #12]
 266 0044 DB68     		ldr	r3, [r3, #12]
 267 0046 9B89     		ldrh	r3, [r3, #12]	@ unaligned
 268 0048 9DB2     		uxth	r5, r3
 269 004a 0120     		movs	r0, #1
 270 004c FFF7FEFF 		bl	lwip_htons
 271 0050 0346     		mov	r3, r0
 272 0052 2B43     		orrs	r3, r3, r5
 273 0054 9BB2     		uxth	r3, r3
 274 0056 A381     		strh	r3, [r4, #12]	@ unaligned
 275              		.loc 2 136 0
 276 0058 7B68     		ldr	r3, [r7, #4]
 277 005a 9B7F     		ldrb	r3, [r3, #30]	@ zero_extendqisi2
 278 005c 43F02003 		orr	r3, r3, #32
ARM GAS  C:\Users\Luis\AppData\Local\Temp\cc4eIE9x.s 			page 6


 279 0060 DAB2     		uxtb	r2, r3
 280 0062 7B68     		ldr	r3, [r7, #4]
 281 0064 9A77     		strb	r2, [r3, #30]
 282              		.loc 2 137 0
 283 0066 0023     		movs	r3, #0
 284 0068 04E0     		b	.L12
 285              	.L9:
 286              	.LBE2:
 287              		.loc 2 141 0
 288 006a 7868     		ldr	r0, [r7, #4]
 289 006c 0121     		movs	r1, #1
 290 006e FFF7FEFF 		bl	tcp_enqueue_flags
 291 0072 0346     		mov	r3, r0
 292              	.L12:
 293 0074 5BB2     		sxtb	r3, r3
 294              		.loc 2 142 0
 295 0076 1846     		mov	r0, r3
 296 0078 1037     		adds	r7, r7, #16
 297 007a BD46     		mov	sp, r7
 298              		@ sp needed
 299 007c B0BD     		pop	{r4, r5, r7, pc}
 300              		.cfi_endproc
 301              	.LFE261:
 302              		.size	tcp_send_fin, .-tcp_send_fin
 303 007e 00BF     		.section	.text.tcp_create_segment,"ax",%progbits
 304              		.align	2
 305              		.p2align 4,,15
 306              		.thumb
 307              		.thumb_func
 308              		.type	tcp_create_segment, %function
 309              	tcp_create_segment:
 310              	.LFB262:
 311              		.loc 2 160 0
 312              		.cfi_startproc
 313              		@ args = 4, pretend = 0, frame = 24
 314              		@ frame_needed = 1, uses_anonymous_args = 0
 315 0000 90B5     		push	{r4, r7, lr}
 316              		.cfi_def_cfa_offset 12
 317              		.cfi_offset 4, -12
 318              		.cfi_offset 7, -8
 319              		.cfi_offset 14, -4
 320 0002 87B0     		sub	sp, sp, #28
 321              		.cfi_def_cfa_offset 40
 322 0004 00AF     		add	r7, sp, #0
 323              		.cfi_def_cfa_register 7
 324 0006 F860     		str	r0, [r7, #12]
 325 0008 B960     		str	r1, [r7, #8]
 326 000a 3B60     		str	r3, [r7]
 327 000c 1346     		mov	r3, r2
 328 000e FB71     		strb	r3, [r7, #7]
 329              		.loc 2 162 0
 330 0010 97F82830 		ldrb	r3, [r7, #40]	@ zero_extendqisi2
 331 0014 03F00103 		and	r3, r3, #1
 332 0018 002B     		cmp	r3, #0
 333 001a 01D0     		beq	.L14
 334              		.loc 2 162 0 is_stmt 0 discriminator 1
 335 001c 0422     		movs	r2, #4
ARM GAS  C:\Users\Luis\AppData\Local\Temp\cc4eIE9x.s 			page 7


 336 001e 00E0     		b	.L15
 337              	.L14:
 338              		.loc 2 162 0 discriminator 2
 339 0020 0022     		movs	r2, #0
 340              	.L15:
 341              		.loc 2 162 0 discriminator 3
 342 0022 97F82830 		ldrb	r3, [r7, #40]	@ zero_extendqisi2
 343 0026 03F00203 		and	r3, r3, #2
 344 002a 002B     		cmp	r3, #0
 345 002c 01D0     		beq	.L16
 346              		.loc 2 162 0 discriminator 4
 347 002e 0C23     		movs	r3, #12
 348 0030 00E0     		b	.L17
 349              	.L16:
 350              		.loc 2 162 0 discriminator 5
 351 0032 0023     		movs	r3, #0
 352              	.L17:
 353              		.loc 2 162 0 discriminator 6
 354 0034 1344     		add	r3, r3, r2
 355 0036 FB75     		strb	r3, [r7, #23]
 356              		.loc 2 164 0 is_stmt 1 discriminator 6
 357 0038 0420     		movs	r0, #4
 358 003a FFF7FEFF 		bl	memp_malloc
 359 003e 3861     		str	r0, [r7, #16]
 360 0040 3B69     		ldr	r3, [r7, #16]
 361 0042 002B     		cmp	r3, #0
 362 0044 04D1     		bne	.L18
 363              		.loc 2 166 0
 364 0046 B868     		ldr	r0, [r7, #8]
 365 0048 FFF7FEFF 		bl	pbuf_free
 366              		.loc 2 167 0
 367 004c 0023     		movs	r3, #0
 368 004e 5CE0     		b	.L19
 369              	.L18:
 370              		.loc 2 169 0
 371 0050 3B69     		ldr	r3, [r7, #16]
 372 0052 97F82820 		ldrb	r2, [r7, #40]
 373 0056 9A72     		strb	r2, [r3, #10]
 374              		.loc 2 170 0
 375 0058 3B69     		ldr	r3, [r7, #16]
 376 005a 0022     		movs	r2, #0
 377 005c 1A60     		str	r2, [r3]
 378              		.loc 2 171 0
 379 005e 3B69     		ldr	r3, [r7, #16]
 380 0060 BA68     		ldr	r2, [r7, #8]
 381 0062 5A60     		str	r2, [r3, #4]
 382              		.loc 2 172 0
 383 0064 BB68     		ldr	r3, [r7, #8]
 384 0066 1A89     		ldrh	r2, [r3, #8]
 385 0068 FB7D     		ldrb	r3, [r7, #23]	@ zero_extendqisi2
 386 006a 9BB2     		uxth	r3, r3
 387 006c D31A     		subs	r3, r2, r3
 388 006e 9AB2     		uxth	r2, r3
 389 0070 3B69     		ldr	r3, [r7, #16]
 390 0072 1A81     		strh	r2, [r3, #8]	@ movhi
 391              		.loc 2 185 0
 392 0074 B868     		ldr	r0, [r7, #8]
ARM GAS  C:\Users\Luis\AppData\Local\Temp\cc4eIE9x.s 			page 8


 393 0076 1421     		movs	r1, #20
 394 0078 FFF7FEFF 		bl	pbuf_header
 395 007c 0346     		mov	r3, r0
 396 007e 002B     		cmp	r3, #0
 397 0080 0CD0     		beq	.L20
 398              		.loc 2 187 0
 399 0082 244B     		ldr	r3, .L21
 400 0084 B3F8A430 		ldrh	r3, [r3, #164]
 401 0088 0133     		adds	r3, r3, #1
 402 008a 9AB2     		uxth	r2, r3
 403 008c 214B     		ldr	r3, .L21
 404 008e A3F8A420 		strh	r2, [r3, #164]	@ movhi
 405              		.loc 2 188 0
 406 0092 3869     		ldr	r0, [r7, #16]
 407 0094 FFF7FEFF 		bl	tcp_seg_free
 408              		.loc 2 189 0
 409 0098 0023     		movs	r3, #0
 410 009a 36E0     		b	.L19
 411              	.L20:
 412              		.loc 2 191 0
 413 009c 3B69     		ldr	r3, [r7, #16]
 414 009e 5B68     		ldr	r3, [r3, #4]
 415 00a0 5A68     		ldr	r2, [r3, #4]
 416 00a2 3B69     		ldr	r3, [r7, #16]
 417 00a4 DA60     		str	r2, [r3, #12]
 418              		.loc 2 192 0
 419 00a6 3B69     		ldr	r3, [r7, #16]
 420 00a8 DC68     		ldr	r4, [r3, #12]
 421 00aa FB68     		ldr	r3, [r7, #12]
 422 00ac 5B8B     		ldrh	r3, [r3, #26]
 423 00ae 1846     		mov	r0, r3
 424 00b0 FFF7FEFF 		bl	lwip_htons
 425 00b4 0346     		mov	r3, r0
 426 00b6 2380     		strh	r3, [r4]	@ unaligned
 427              		.loc 2 193 0
 428 00b8 3B69     		ldr	r3, [r7, #16]
 429 00ba DC68     		ldr	r4, [r3, #12]
 430 00bc FB68     		ldr	r3, [r7, #12]
 431 00be 9B8B     		ldrh	r3, [r3, #28]
 432 00c0 1846     		mov	r0, r3
 433 00c2 FFF7FEFF 		bl	lwip_htons
 434 00c6 0346     		mov	r3, r0
 435 00c8 6380     		strh	r3, [r4, #2]	@ unaligned
 436              		.loc 2 194 0
 437 00ca 3B69     		ldr	r3, [r7, #16]
 438 00cc DC68     		ldr	r4, [r3, #12]
 439 00ce 3868     		ldr	r0, [r7]
 440 00d0 FFF7FEFF 		bl	lwip_htonl
 441 00d4 0346     		mov	r3, r0
 442 00d6 6360     		str	r3, [r4, #4]	@ unaligned
 443              		.loc 2 196 0
 444 00d8 3B69     		ldr	r3, [r7, #16]
 445 00da DC68     		ldr	r4, [r3, #12]
 446 00dc FB7D     		ldrb	r3, [r7, #23]	@ zero_extendqisi2
 447 00de 9B08     		lsrs	r3, r3, #2
 448 00e0 DBB2     		uxtb	r3, r3
 449 00e2 0533     		adds	r3, r3, #5
ARM GAS  C:\Users\Luis\AppData\Local\Temp\cc4eIE9x.s 			page 9


 450 00e4 1B03     		lsls	r3, r3, #12
 451 00e6 9AB2     		uxth	r2, r3
 452 00e8 FB79     		ldrb	r3, [r7, #7]	@ zero_extendqisi2
 453 00ea 9BB2     		uxth	r3, r3
 454 00ec 1343     		orrs	r3, r3, r2
 455 00ee 9BB2     		uxth	r3, r3
 456 00f0 9BB2     		uxth	r3, r3
 457 00f2 1846     		mov	r0, r3
 458 00f4 FFF7FEFF 		bl	lwip_htons
 459 00f8 0346     		mov	r3, r0
 460 00fa A381     		strh	r3, [r4, #12]	@ unaligned
 461              		.loc 2 198 0
 462 00fc 3B69     		ldr	r3, [r7, #16]
 463 00fe DB68     		ldr	r3, [r3, #12]
 464 0100 0022     		movs	r2, #0
 465 0102 9A74     		strb	r2, [r3, #18]
 466 0104 0022     		movs	r2, #0
 467 0106 DA74     		strb	r2, [r3, #19]
 468              		.loc 2 199 0
 469 0108 3B69     		ldr	r3, [r7, #16]
 470              	.L19:
 471              		.loc 2 200 0
 472 010a 1846     		mov	r0, r3
 473 010c 1C37     		adds	r7, r7, #28
 474 010e BD46     		mov	sp, r7
 475              		@ sp needed
 476 0110 90BD     		pop	{r4, r7, pc}
 477              	.L22:
 478 0112 00BF     		.align	2
 479              	.L21:
 480 0114 00000000 		.word	lwip_stats
 481              		.cfi_endproc
 482              	.LFE262:
 483              		.size	tcp_create_segment, .-tcp_create_segment
 484 0118 AFF30080 		.section	.rodata
 484      AFF30080 
 485 002e 0000     		.align	2
 486              	.LC1:
 487 0030 6E656564 		.ascii	"need unchained pbuf\000"
 487      20756E63 
 487      6861696E 
 487      65642070 
 487      62756600 
 488              		.section	.text.tcp_pbuf_prealloc,"ax",%progbits
 489              		.align	2
 490              		.p2align 4,,15
 491              		.thumb
 492              		.thumb_func
 493              		.type	tcp_pbuf_prealloc, %function
 494              	tcp_pbuf_prealloc:
 495              	.LFB263:
 496              		.loc 2 222 0
 497              		.cfi_startproc
 498              		@ args = 12, pretend = 0, frame = 24
 499              		@ frame_needed = 1, uses_anonymous_args = 0
 500 0000 80B5     		push	{r7, lr}
 501              		.cfi_def_cfa_offset 8
ARM GAS  C:\Users\Luis\AppData\Local\Temp\cc4eIE9x.s 			page 10


 502              		.cfi_offset 7, -8
 503              		.cfi_offset 14, -4
 504 0002 86B0     		sub	sp, sp, #24
 505              		.cfi_def_cfa_offset 32
 506 0004 00AF     		add	r7, sp, #0
 507              		.cfi_def_cfa_register 7
 508 0006 7B60     		str	r3, [r7, #4]
 509 0008 0346     		mov	r3, r0
 510 000a FB73     		strb	r3, [r7, #15]
 511 000c 0B46     		mov	r3, r1	@ movhi
 512 000e BB81     		strh	r3, [r7, #12]	@ movhi
 513 0010 1346     		mov	r3, r2	@ movhi
 514 0012 7B81     		strh	r3, [r7, #10]	@ movhi
 515              		.loc 2 224 0
 516 0014 BB89     		ldrh	r3, [r7, #12]	@ movhi
 517 0016 FB82     		strh	r3, [r7, #22]	@ movhi
 518              		.loc 2 234 0
 519 0018 BA89     		ldrh	r2, [r7, #12]
 520 001a 7B89     		ldrh	r3, [r7, #10]
 521 001c 9A42     		cmp	r2, r3
 522 001e 21D2     		bcs	.L24
 523              		.loc 2 246 0
 524 0020 97F82430 		ldrb	r3, [r7, #36]	@ zero_extendqisi2
 525 0024 03F00203 		and	r3, r3, #2
 526 0028 002B     		cmp	r3, #0
 527 002a 11D1     		bne	.L25
 528              		.loc 2 247 0 discriminator 1
 529 002c 3B6A     		ldr	r3, [r7, #32]
 530 002e 9B7F     		ldrb	r3, [r3, #30]	@ zero_extendqisi2
 531 0030 03F04003 		and	r3, r3, #64
 532              		.loc 2 246 0 discriminator 1
 533 0034 002B     		cmp	r3, #0
 534 0036 15D1     		bne	.L24
 535              		.loc 2 247 0
 536 0038 97F82830 		ldrb	r3, [r7, #40]	@ zero_extendqisi2
 537 003c 002B     		cmp	r3, #0
 538 003e 07D0     		beq	.L25
 539              		.loc 2 249 0
 540 0040 3B6A     		ldr	r3, [r7, #32]
 541 0042 DB6E     		ldr	r3, [r3, #108]
 542              		.loc 2 248 0
 543 0044 002B     		cmp	r3, #0
 544 0046 03D1     		bne	.L25
 545              		.loc 2 250 0
 546 0048 3B6A     		ldr	r3, [r7, #32]
 547 004a 1B6F     		ldr	r3, [r3, #112]
 548              		.loc 2 249 0
 549 004c 002B     		cmp	r3, #0
 550 004e 09D0     		beq	.L24
 551              	.L25:
 552              		.loc 2 251 0
 553 0050 BB89     		ldrh	r3, [r7, #12]
 554 0052 03F21B23 		addw	r3, r3, #539
 555 0056 23F00302 		bic	r2, r3, #3
 556 005a 7B89     		ldrh	r3, [r7, #10]
 557 005c 9A42     		cmp	r2, r3
 558 005e B8BF     		it	lt
ARM GAS  C:\Users\Luis\AppData\Local\Temp\cc4eIE9x.s 			page 11


 559 0060 1346     		movlt	r3, r2
 560 0062 FB82     		strh	r3, [r7, #22]	@ movhi
 561              	.L24:
 562              		.loc 2 255 0
 563 0064 FA7B     		ldrb	r2, [r7, #15]	@ zero_extendqisi2
 564 0066 FB8A     		ldrh	r3, [r7, #22]
 565 0068 1046     		mov	r0, r2
 566 006a 1946     		mov	r1, r3
 567 006c 0022     		movs	r2, #0
 568 006e FFF7FEFF 		bl	pbuf_alloc
 569 0072 3861     		str	r0, [r7, #16]
 570              		.loc 2 256 0
 571 0074 3B69     		ldr	r3, [r7, #16]
 572 0076 002B     		cmp	r3, #0
 573 0078 01D1     		bne	.L26
 574              		.loc 2 257 0
 575 007a 0023     		movs	r3, #0
 576 007c 15E0     		b	.L27
 577              	.L26:
 578              		.loc 2 259 0
 579 007e 3B69     		ldr	r3, [r7, #16]
 580 0080 1B68     		ldr	r3, [r3]
 581 0082 002B     		cmp	r3, #0
 582 0084 02D0     		beq	.L28
 583              		.loc 2 259 0 is_stmt 0 discriminator 1
 584 0086 0B48     		ldr	r0, .L29
 585 0088 FFF7FEFF 		bl	osalSysHalt
 586              	.L28:
 587              		.loc 2 260 0 is_stmt 1
 588 008c 3B69     		ldr	r3, [r7, #16]
 589 008e 5A89     		ldrh	r2, [r3, #10]
 590 0090 BB89     		ldrh	r3, [r7, #12]	@ movhi
 591 0092 D31A     		subs	r3, r2, r3
 592 0094 9AB2     		uxth	r2, r3
 593 0096 7B68     		ldr	r3, [r7, #4]
 594 0098 1A80     		strh	r2, [r3]	@ movhi
 595              		.loc 2 262 0
 596 009a 3B69     		ldr	r3, [r7, #16]
 597 009c BA89     		ldrh	r2, [r7, #12]	@ movhi
 598 009e 1A81     		strh	r2, [r3, #8]	@ movhi
 599 00a0 3B69     		ldr	r3, [r7, #16]
 600 00a2 1A89     		ldrh	r2, [r3, #8]
 601 00a4 3B69     		ldr	r3, [r7, #16]
 602 00a6 5A81     		strh	r2, [r3, #10]	@ movhi
 603              		.loc 2 263 0
 604 00a8 3B69     		ldr	r3, [r7, #16]
 605              	.L27:
 606              		.loc 2 264 0
 607 00aa 1846     		mov	r0, r3
 608 00ac 1837     		adds	r7, r7, #24
 609 00ae BD46     		mov	sp, r7
 610              		@ sp needed
 611 00b0 80BD     		pop	{r7, pc}
 612              	.L30:
 613 00b2 00BF     		.align	2
 614              	.L29:
 615 00b4 30000000 		.word	.LC1
ARM GAS  C:\Users\Luis\AppData\Local\Temp\cc4eIE9x.s 			page 12


 616              		.cfi_endproc
 617              	.LFE263:
 618              		.size	tcp_pbuf_prealloc, .-tcp_pbuf_prealloc
 619 00b8 AFF30080 		.section	.rodata
 619      AFF30080 
 620              		.align	2
 621              	.LC2:
 622 0044 7463705F 		.ascii	"tcp_write: pbufs on queue => at least one queue non"
 622      77726974 
 622      653A2070 
 622      62756673 
 622      206F6E20 
 623 0077 2D656D70 		.ascii	"-empty\000"
 623      747900
 624 007e 0000     		.align	2
 625              	.LC3:
 626 0080 7463705F 		.ascii	"tcp_write: no pbufs on queue => both queues empty\000"
 626      77726974 
 626      653A206E 
 626      6F207062 
 626      75667320 
 627              		.section	.text.tcp_write_checks,"ax",%progbits
 628              		.align	2
 629              		.p2align 4,,15
 630              		.thumb
 631              		.thumb_func
 632              		.type	tcp_write_checks, %function
 633              	tcp_write_checks:
 634              	.LFB264:
 635              		.loc 2 295 0
 636              		.cfi_startproc
 637              		@ args = 0, pretend = 0, frame = 8
 638              		@ frame_needed = 1, uses_anonymous_args = 0
 639 0000 80B5     		push	{r7, lr}
 640              		.cfi_def_cfa_offset 8
 641              		.cfi_offset 7, -8
 642              		.cfi_offset 14, -4
 643 0002 82B0     		sub	sp, sp, #8
 644              		.cfi_def_cfa_offset 16
 645 0004 00AF     		add	r7, sp, #0
 646              		.cfi_def_cfa_register 7
 647 0006 7860     		str	r0, [r7, #4]
 648 0008 0B46     		mov	r3, r1
 649 000a 7B80     		strh	r3, [r7, #2]	@ movhi
 650              		.loc 2 297 0
 651 000c 7B68     		ldr	r3, [r7, #4]
 652 000e 1B7E     		ldrb	r3, [r3, #24]	@ zero_extendqisi2
 653 0010 042B     		cmp	r3, #4
 654 0012 0DD0     		beq	.L32
 655              		.loc 2 298 0 discriminator 1
 656 0014 7B68     		ldr	r3, [r7, #4]
 657 0016 1B7E     		ldrb	r3, [r3, #24]	@ zero_extendqisi2
 658              		.loc 2 297 0 discriminator 1
 659 0018 072B     		cmp	r3, #7
 660 001a 09D0     		beq	.L32
 661              		.loc 2 299 0
 662 001c 7B68     		ldr	r3, [r7, #4]
ARM GAS  C:\Users\Luis\AppData\Local\Temp\cc4eIE9x.s 			page 13


 663 001e 1B7E     		ldrb	r3, [r3, #24]	@ zero_extendqisi2
 664              		.loc 2 298 0
 665 0020 022B     		cmp	r3, #2
 666 0022 05D0     		beq	.L32
 667              		.loc 2 300 0
 668 0024 7B68     		ldr	r3, [r7, #4]
 669 0026 1B7E     		ldrb	r3, [r3, #24]	@ zero_extendqisi2
 670              		.loc 2 299 0
 671 0028 032B     		cmp	r3, #3
 672 002a 01D0     		beq	.L32
 673              		.loc 2 302 0
 674 002c F323     		movs	r3, #243
 675 002e 4DE0     		b	.L33
 676              	.L32:
 677              		.loc 2 303 0
 678 0030 7B88     		ldrh	r3, [r7, #2]
 679 0032 002B     		cmp	r3, #0
 680 0034 01D1     		bne	.L34
 681              		.loc 2 304 0
 682 0036 0023     		movs	r3, #0
 683 0038 48E0     		b	.L33
 684              	.L34:
 685              		.loc 2 308 0
 686 003a 7B68     		ldr	r3, [r7, #4]
 687 003c B3F86630 		ldrh	r3, [r3, #102]
 688 0040 7A88     		ldrh	r2, [r7, #2]
 689 0042 9A42     		cmp	r2, r3
 690 0044 08D9     		bls	.L35
 691              		.loc 2 311 0
 692 0046 7B68     		ldr	r3, [r7, #4]
 693 0048 9B7F     		ldrb	r3, [r3, #30]	@ zero_extendqisi2
 694 004a 63F07F03 		orn	r3, r3, #127
 695 004e DAB2     		uxtb	r2, r3
 696 0050 7B68     		ldr	r3, [r7, #4]
 697 0052 9A77     		strb	r2, [r3, #30]
 698              		.loc 2 312 0
 699 0054 FF23     		movs	r3, #255
 700 0056 39E0     		b	.L33
 701              	.L35:
 702              		.loc 2 320 0
 703 0058 7B68     		ldr	r3, [r7, #4]
 704 005a B3F86830 		ldrh	r3, [r3, #104]
 705 005e 072B     		cmp	r3, #7
 706 0060 06D8     		bhi	.L36
 707              		.loc 2 320 0 is_stmt 0 discriminator 1
 708 0062 7B68     		ldr	r3, [r7, #4]
 709 0064 B3F86820 		ldrh	r2, [r3, #104]
 710 0068 4FF6FC73 		movw	r3, #65532
 711 006c 9A42     		cmp	r2, r3
 712 006e 10D9     		bls	.L37
 713              	.L36:
 714              		.loc 2 323 0 is_stmt 1
 715 0070 194B     		ldr	r3, .L42
 716 0072 B3F89C30 		ldrh	r3, [r3, #156]
 717 0076 0133     		adds	r3, r3, #1
 718 0078 9AB2     		uxth	r2, r3
 719 007a 174B     		ldr	r3, .L42
ARM GAS  C:\Users\Luis\AppData\Local\Temp\cc4eIE9x.s 			page 14


 720 007c A3F89C20 		strh	r2, [r3, #156]	@ movhi
 721              		.loc 2 324 0
 722 0080 7B68     		ldr	r3, [r7, #4]
 723 0082 9B7F     		ldrb	r3, [r3, #30]	@ zero_extendqisi2
 724 0084 63F07F03 		orn	r3, r3, #127
 725 0088 DAB2     		uxtb	r2, r3
 726 008a 7B68     		ldr	r3, [r7, #4]
 727 008c 9A77     		strb	r2, [r3, #30]
 728              		.loc 2 325 0
 729 008e FF23     		movs	r3, #255
 730 0090 1CE0     		b	.L33
 731              	.L37:
 732              		.loc 2 327 0
 733 0092 7B68     		ldr	r3, [r7, #4]
 734 0094 B3F86830 		ldrh	r3, [r3, #104]
 735 0098 002B     		cmp	r3, #0
 736 009a 0BD0     		beq	.L38
 737              		.loc 2 328 0
 738 009c 7B68     		ldr	r3, [r7, #4]
 739 009e 1B6F     		ldr	r3, [r3, #112]
 740 00a0 002B     		cmp	r3, #0
 741 00a2 12D1     		bne	.L40
 742              		.loc 2 328 0 is_stmt 0 discriminator 1
 743 00a4 7B68     		ldr	r3, [r7, #4]
 744 00a6 DB6E     		ldr	r3, [r3, #108]
 745 00a8 002B     		cmp	r3, #0
 746 00aa 0ED1     		bne	.L40
 747 00ac 0B48     		ldr	r0, .L42+4
 748 00ae FFF7FEFF 		bl	osalSysHalt
 749 00b2 0AE0     		b	.L40
 750              	.L38:
 751              		.loc 2 331 0 is_stmt 1
 752 00b4 7B68     		ldr	r3, [r7, #4]
 753 00b6 1B6F     		ldr	r3, [r3, #112]
 754 00b8 002B     		cmp	r3, #0
 755 00ba 03D1     		bne	.L41
 756              		.loc 2 331 0 is_stmt 0 discriminator 2
 757 00bc 7B68     		ldr	r3, [r7, #4]
 758 00be DB6E     		ldr	r3, [r3, #108]
 759 00c0 002B     		cmp	r3, #0
 760 00c2 02D0     		beq	.L40
 761              	.L41:
 762              		.loc 2 331 0 discriminator 1
 763 00c4 0648     		ldr	r0, .L42+8
 764 00c6 FFF7FEFF 		bl	osalSysHalt
 765              	.L40:
 766              		.loc 2 334 0 is_stmt 1
 767 00ca 0023     		movs	r3, #0
 768              	.L33:
 769 00cc 5BB2     		sxtb	r3, r3
 770              		.loc 2 335 0
 771 00ce 1846     		mov	r0, r3
 772 00d0 0837     		adds	r7, r7, #8
 773 00d2 BD46     		mov	sp, r7
 774              		@ sp needed
 775 00d4 80BD     		pop	{r7, pc}
 776              	.L43:
ARM GAS  C:\Users\Luis\AppData\Local\Temp\cc4eIE9x.s 			page 15


 777 00d6 00BF     		.align	2
 778              	.L42:
 779 00d8 00000000 		.word	lwip_stats
 780 00dc 44000000 		.word	.LC2
 781 00e0 80000000 		.word	.LC3
 782              		.cfi_endproc
 783              	.LFE264:
 784              		.size	tcp_write_checks, .-tcp_write_checks
 785 00e4 AFF30080 		.section	.rodata
 785      AFF30080 
 785      AFF30080 
 786 00b2 0000     		.align	2
 787              	.LC4:
 788 00b4 7463705F 		.ascii	"tcp_write: arg == NULL (programmer violates API)\000"
 788      77726974 
 788      653A2061 
 788      7267203D 
 788      3D204E55 
 789 00e5 000000   		.align	2
 790              	.LC5:
 791 00e8 696E636F 		.ascii	"inconsistent oversize vs. space\000"
 791      6E736973 
 791      74656E74 
 791      206F7665 
 791      7273697A 
 792              		.align	2
 793              	.LC6:
 794 0108 696E636F 		.ascii	"inconsistend oversize vs. len\000"
 794      6E736973 
 794      74656E64 
 794      206F7665 
 794      7273697A 
 795 0126 0000     		.align	2
 796              	.LC7:
 797 0128 756E7365 		.ascii	"unsent_oversize mismatch (pcb->unsent is NULL)\000"
 797      6E745F6F 
 797      76657273 
 797      697A6520 
 797      6D69736D 
 798 0157 00       		.align	2
 799              	.LC8:
 800 0158 7463705F 		.ascii	"tcp_write: check that first pbuf can hold the compl"
 800      77726974 
 800      653A2063 
 800      6865636B 
 800      20746861 
 801 018b 65746520 		.ascii	"ete seglen\000"
 801      7365676C 
 801      656E00
 802 0196 0000     		.align	2
 803              	.LC9:
 804 0198 6F766572 		.ascii	"oversize == 0\000"
 804      73697A65 
 804      203D3D20 
 804      3000
 805 01a6 0000     		.align	2
 806              	.LC10:
ARM GAS  C:\Users\Luis\AppData\Local\Temp\cc4eIE9x.s 			page 16


 807 01a8 70726576 		.ascii	"prev_seg != NULL\000"
 807      5F736567 
 807      20213D20 
 807      4E554C4C 
 807      00
 808 01b9 000000   		.align	2
 809              	.LC11:
 810 01bc 7463705F 		.ascii	"tcp_write: cannot concatenate when pcb->unsent is e"
 810      77726974 
 810      653A2063 
 810      616E6E6F 
 810      7420636F 
 811 01ef 6D707479 		.ascii	"mpty\000"
 811      00
 812              		.align	2
 813              	.LC12:
 814 01f4 7463705F 		.ascii	"tcp_write: valid queue length\000"
 814      77726974 
 814      653A2076 
 814      616C6964 
 814      20717565 
 815              		.section	.text.tcp_write,"ax",%progbits
 816              		.align	2
 817              		.p2align 4,,15
 818              		.global	tcp_write
 819              		.thumb
 820              		.thumb_func
 821              		.type	tcp_write, %function
 822              	tcp_write:
 823              	.LFB265:
 824              		.loc 2 355 0
 825              		.cfi_startproc
 826              		@ args = 0, pretend = 0, frame = 80
 827              		@ frame_needed = 1, uses_anonymous_args = 0
 828 0000 B0B5     		push	{r4, r5, r7, lr}
 829              		.cfi_def_cfa_offset 16
 830              		.cfi_offset 4, -16
 831              		.cfi_offset 5, -12
 832              		.cfi_offset 7, -8
 833              		.cfi_offset 14, -4
 834 0002 98B0     		sub	sp, sp, #96
 835              		.cfi_def_cfa_offset 112
 836 0004 04AF     		add	r7, sp, #16
 837              		.cfi_def_cfa 7, 96
 838 0006 F860     		str	r0, [r7, #12]
 839 0008 B960     		str	r1, [r7, #8]
 840 000a FA80     		strh	r2, [r7, #6]	@ movhi
 841 000c 7B71     		strb	r3, [r7, #5]
 842              		.loc 2 356 0
 843 000e 0023     		movs	r3, #0
 844 0010 FB64     		str	r3, [r7, #76]
 845              		.loc 2 357 0
 846 0012 0023     		movs	r3, #0
 847 0014 BB64     		str	r3, [r7, #72]
 848 0016 0023     		movs	r3, #0
 849 0018 7B64     		str	r3, [r7, #68]
 850 001a 0023     		movs	r3, #0
ARM GAS  C:\Users\Luis\AppData\Local\Temp\cc4eIE9x.s 			page 17


 851 001c 3B64     		str	r3, [r7, #64]
 852 001e 0023     		movs	r3, #0
 853 0020 FB63     		str	r3, [r7, #60]
 854              		.loc 2 358 0
 855 0022 0023     		movs	r3, #0
 856 0024 7B87     		strh	r3, [r7, #58]	@ movhi
 857              		.loc 2 360 0
 858 0026 0023     		movs	r3, #0
 859 0028 87F82B30 		strb	r3, [r7, #43]
 860              		.loc 2 361 0
 861 002c 0023     		movs	r3, #0
 862 002e 87F82A30 		strb	r3, [r7, #42]
 863              		.loc 2 363 0
 864 0032 0023     		movs	r3, #0
 865 0034 FB82     		strh	r3, [r7, #22]	@ movhi
 866              		.loc 2 364 0
 867 0036 0023     		movs	r3, #0
 868 0038 FB86     		strh	r3, [r7, #54]	@ movhi
 869              		.loc 2 373 0
 870 003a FB68     		ldr	r3, [r7, #12]
 871 003c B3F86230 		ldrh	r3, [r3, #98]
 872 0040 5B08     		lsrs	r3, r3, #1
 873 0042 9AB2     		uxth	r2, r3
 874 0044 FB68     		ldr	r3, [r7, #12]
 875 0046 DB8E     		ldrh	r3, [r3, #54]
 876 0048 9A42     		cmp	r2, r3
 877 004a 38BF     		it	cc
 878 004c 1346     		movcc	r3, r2
 879 004e 3B85     		strh	r3, [r7, #40]	@ movhi
 880              		.loc 2 382 0
 881 0050 BB68     		ldr	r3, [r7, #8]
 882 0052 002B     		cmp	r3, #0
 883 0054 04D1     		bne	.L45
 884              		.loc 2 382 0 is_stmt 0 discriminator 1
 885 0056 9548     		ldr	r0, .L94
 886 0058 FFF7FEFF 		bl	osalSysHalt
 887 005c F223     		movs	r3, #242
 888 005e 49E2     		b	.L93
 889              	.L45:
 890              		.loc 2 385 0 is_stmt 1
 891 0060 FB88     		ldrh	r3, [r7, #6]
 892 0062 F868     		ldr	r0, [r7, #12]
 893 0064 1946     		mov	r1, r3
 894 0066 FFF7FEFF 		bl	tcp_write_checks
 895 006a 0346     		mov	r3, r0
 896 006c 87F82730 		strb	r3, [r7, #39]
 897              		.loc 2 386 0
 898 0070 97F92730 		ldrsb	r3, [r7, #39]
 899 0074 002B     		cmp	r3, #0
 900 0076 02D0     		beq	.L47
 901              		.loc 2 387 0
 902 0078 97F82730 		ldrb	r3, [r7, #39]	@ zero_extendqisi2
 903 007c 3AE2     		b	.L93
 904              	.L47:
 905              		.loc 2 389 0
 906 007e FB68     		ldr	r3, [r7, #12]
 907 0080 B3F86830 		ldrh	r3, [r3, #104]	@ movhi
ARM GAS  C:\Users\Luis\AppData\Local\Temp\cc4eIE9x.s 			page 18


 908 0084 3B87     		strh	r3, [r7, #56]	@ movhi
 909              		.loc 2 422 0
 910 0086 FB68     		ldr	r3, [r7, #12]
 911 0088 DB6E     		ldr	r3, [r3, #108]
 912 008a 002B     		cmp	r3, #0
 913 008c 00F0AA80 		beq	.L48
 914              	.LBB3:
 915              		.loc 2 427 0
 916 0090 FB68     		ldr	r3, [r7, #12]
 917 0092 DB6E     		ldr	r3, [r3, #108]
 918 0094 BB64     		str	r3, [r7, #72]
 919 0096 02E0     		b	.L49
 920              	.L50:
 921              		.loc 2 428 0
 922 0098 BB6C     		ldr	r3, [r7, #72]
 923 009a 1B68     		ldr	r3, [r3]
 924 009c BB64     		str	r3, [r7, #72]
 925              	.L49:
 926              		.loc 2 427 0 discriminator 1
 927 009e BB6C     		ldr	r3, [r7, #72]
 928 00a0 1B68     		ldr	r3, [r3]
 929 00a2 002B     		cmp	r3, #0
 930 00a4 F8D1     		bne	.L50
 931              		.loc 2 431 0
 932 00a6 BB6C     		ldr	r3, [r7, #72]
 933 00a8 9B7A     		ldrb	r3, [r3, #10]	@ zero_extendqisi2
 934 00aa 03F00103 		and	r3, r3, #1
 935 00ae 002B     		cmp	r3, #0
 936 00b0 01D0     		beq	.L51
 937              		.loc 2 431 0 is_stmt 0 discriminator 1
 938 00b2 0422     		movs	r2, #4
 939 00b4 00E0     		b	.L52
 940              	.L51:
 941              		.loc 2 431 0 discriminator 2
 942 00b6 0022     		movs	r2, #0
 943              	.L52:
 944              		.loc 2 431 0 discriminator 3
 945 00b8 BB6C     		ldr	r3, [r7, #72]
 946 00ba 9B7A     		ldrb	r3, [r3, #10]	@ zero_extendqisi2
 947 00bc 03F00203 		and	r3, r3, #2
 948 00c0 002B     		cmp	r3, #0
 949 00c2 01D0     		beq	.L53
 950              		.loc 2 431 0 discriminator 4
 951 00c4 0C23     		movs	r3, #12
 952 00c6 00E0     		b	.L54
 953              	.L53:
 954              		.loc 2 431 0 discriminator 5
 955 00c8 0023     		movs	r3, #0
 956              	.L54:
 957              		.loc 2 431 0 discriminator 6
 958 00ca 1344     		add	r3, r3, r2
 959 00cc BB84     		strh	r3, [r7, #36]	@ movhi
 960              		.loc 2 432 0 is_stmt 1 discriminator 6
 961 00ce BB6C     		ldr	r3, [r7, #72]
 962 00d0 1A89     		ldrh	r2, [r3, #8]
 963 00d2 BB8C     		ldrh	r3, [r7, #36]	@ movhi
 964 00d4 1344     		add	r3, r3, r2
ARM GAS  C:\Users\Luis\AppData\Local\Temp\cc4eIE9x.s 			page 19


 965 00d6 9BB2     		uxth	r3, r3
 966 00d8 3A8D     		ldrh	r2, [r7, #40]	@ movhi
 967 00da D31A     		subs	r3, r2, r3
 968 00dc BB86     		strh	r3, [r7, #52]	@ movhi
 969              		.loc 2 447 0 discriminator 6
 970 00de FB68     		ldr	r3, [r7, #12]
 971 00e0 B3F86A30 		ldrh	r3, [r3, #106]
 972 00e4 FB82     		strh	r3, [r7, #22]	@ movhi
 973              		.loc 2 448 0 discriminator 6
 974 00e6 FB8A     		ldrh	r3, [r7, #22]
 975 00e8 002B     		cmp	r3, #0
 976 00ea 1BD0     		beq	.L55
 977              		.loc 2 449 0
 978 00ec FA8E     		ldrh	r2, [r7, #54]
 979 00ee BB8E     		ldrh	r3, [r7, #52]
 980 00f0 9A42     		cmp	r2, r3
 981 00f2 02D9     		bls	.L56
 982              		.loc 2 449 0 is_stmt 0 discriminator 1
 983 00f4 6E48     		ldr	r0, .L94+4
 984 00f6 FFF7FEFF 		bl	osalSysHalt
 985              	.L56:
 986              		.loc 2 450 0 is_stmt 1
 987 00fa BB6C     		ldr	r3, [r7, #72]
 988 00fc 7B64     		str	r3, [r7, #68]
 989              		.loc 2 451 0
 990 00fe FB8A     		ldrh	r3, [r7, #22]
 991 0100 FA88     		ldrh	r2, [r7, #6]
 992 0102 9A42     		cmp	r2, r3
 993 0104 38BF     		it	cc
 994 0106 1346     		movcc	r3, r2
 995 0108 FB86     		strh	r3, [r7, #54]	@ movhi
 996              		.loc 2 452 0
 997 010a 7A8F     		ldrh	r2, [r7, #58]	@ movhi
 998 010c FB8E     		ldrh	r3, [r7, #54]	@ movhi
 999 010e 1344     		add	r3, r3, r2
 1000 0110 7B87     		strh	r3, [r7, #58]	@ movhi
 1001              		.loc 2 453 0
 1002 0112 FA8A     		ldrh	r2, [r7, #22]
 1003 0114 FB8E     		ldrh	r3, [r7, #54]	@ movhi
 1004 0116 D31A     		subs	r3, r2, r3
 1005 0118 9BB2     		uxth	r3, r3
 1006 011a FB82     		strh	r3, [r7, #22]	@ movhi
 1007              		.loc 2 454 0
 1008 011c BA8E     		ldrh	r2, [r7, #52]	@ movhi
 1009 011e FB8E     		ldrh	r3, [r7, #54]	@ movhi
 1010 0120 D31A     		subs	r3, r2, r3
 1011 0122 BB86     		strh	r3, [r7, #52]	@ movhi
 1012              	.L55:
 1013              		.loc 2 457 0
 1014 0124 FB8A     		ldrh	r3, [r7, #22]
 1015 0126 002B     		cmp	r3, #0
 1016 0128 06D0     		beq	.L57
 1017              		.loc 2 457 0 is_stmt 0 discriminator 1
 1018 012a 7A8F     		ldrh	r2, [r7, #58]
 1019 012c FB88     		ldrh	r3, [r7, #6]
 1020 012e 9A42     		cmp	r2, r3
 1021 0130 02D0     		beq	.L57
ARM GAS  C:\Users\Luis\AppData\Local\Temp\cc4eIE9x.s 			page 20


 1022 0132 6048     		ldr	r0, .L94+8
 1023 0134 FFF7FEFF 		bl	osalSysHalt
 1024              	.L57:
 1025              		.loc 2 467 0 is_stmt 1
 1026 0138 7A8F     		ldrh	r2, [r7, #58]
 1027 013a FB88     		ldrh	r3, [r7, #6]
 1028 013c 9A42     		cmp	r2, r3
 1029 013e 50D2     		bcs	.L58
 1030              		.loc 2 467 0 is_stmt 0 discriminator 1
 1031 0140 BB8E     		ldrh	r3, [r7, #52]
 1032 0142 002B     		cmp	r3, #0
 1033 0144 4DD0     		beq	.L58
 1034 0146 BB6C     		ldr	r3, [r7, #72]
 1035 0148 1B89     		ldrh	r3, [r3, #8]
 1036 014a 002B     		cmp	r3, #0
 1037 014c 49D0     		beq	.L58
 1038              	.LBB4:
 1039              		.loc 2 468 0 is_stmt 1
 1040 014e FA88     		ldrh	r2, [r7, #6]
 1041 0150 7B8F     		ldrh	r3, [r7, #58]
 1042 0152 D21A     		subs	r2, r2, r3
 1043 0154 BB8E     		ldrh	r3, [r7, #52]
 1044 0156 9A42     		cmp	r2, r3
 1045 0158 B8BF     		it	lt
 1046 015a 1346     		movlt	r3, r2
 1047 015c 7B84     		strh	r3, [r7, #34]	@ movhi
 1048              		.loc 2 469 0
 1049 015e BB6C     		ldr	r3, [r7, #72]
 1050 0160 7B64     		str	r3, [r7, #68]
 1051              		.loc 2 474 0
 1052 0162 7B79     		ldrb	r3, [r7, #5]	@ zero_extendqisi2
 1053 0164 03F00103 		and	r3, r3, #1
 1054 0168 002B     		cmp	r3, #0
 1055 016a 1DD0     		beq	.L59
 1056              		.loc 2 476 0
 1057 016c 798C     		ldrh	r1, [r7, #34]
 1058 016e BA8E     		ldrh	r2, [r7, #52]
 1059 0170 07F11603 		add	r3, r7, #22
 1060 0174 F868     		ldr	r0, [r7, #12]
 1061 0176 0090     		str	r0, [sp]
 1062 0178 7879     		ldrb	r0, [r7, #5]	@ zero_extendqisi2
 1063 017a 0190     		str	r0, [sp, #4]
 1064 017c 0120     		movs	r0, #1
 1065 017e 0290     		str	r0, [sp, #8]
 1066 0180 0320     		movs	r0, #3
 1067 0182 FFF7FEFF 		bl	tcp_pbuf_prealloc
 1068 0186 F864     		str	r0, [r7, #76]
 1069 0188 FB6C     		ldr	r3, [r7, #76]
 1070 018a 002B     		cmp	r3, #0
 1071 018c 00D1     		bne	.L60
 1072              		.loc 2 480 0
 1073 018e 85E1     		b	.L61
 1074              	.L60:
 1075              		.loc 2 485 0
 1076 0190 FB6C     		ldr	r3, [r7, #76]
 1077 0192 5968     		ldr	r1, [r3, #4]
 1078 0194 7B8F     		ldrh	r3, [r7, #58]
ARM GAS  C:\Users\Luis\AppData\Local\Temp\cc4eIE9x.s 			page 21


 1079 0196 BA68     		ldr	r2, [r7, #8]
 1080 0198 1A44     		add	r2, r2, r3
 1081 019a 7B8C     		ldrh	r3, [r7, #34]
 1082 019c 0846     		mov	r0, r1
 1083 019e 1146     		mov	r1, r2
 1084 01a0 1A46     		mov	r2, r3
 1085 01a2 FFF7FEFF 		bl	memcpy
 1086 01a6 0FE0     		b	.L62
 1087              	.L59:
 1088              		.loc 2 491 0
 1089 01a8 7B8C     		ldrh	r3, [r7, #34]
 1090 01aa 0320     		movs	r0, #3
 1091 01ac 1946     		mov	r1, r3
 1092 01ae 0122     		movs	r2, #1
 1093 01b0 FFF7FEFF 		bl	pbuf_alloc
 1094 01b4 F864     		str	r0, [r7, #76]
 1095 01b6 FB6C     		ldr	r3, [r7, #76]
 1096 01b8 002B     		cmp	r3, #0
 1097 01ba 00D1     		bne	.L63
 1098              		.loc 2 494 0
 1099 01bc 6EE1     		b	.L61
 1100              	.L63:
 1101              		.loc 2 503 0
 1102 01be 7B8F     		ldrh	r3, [r7, #58]
 1103 01c0 BA68     		ldr	r2, [r7, #8]
 1104 01c2 1A44     		add	r2, r2, r3
 1105 01c4 FB6C     		ldr	r3, [r7, #76]
 1106 01c6 5A60     		str	r2, [r3, #4]
 1107              	.L62:
 1108              		.loc 2 506 0
 1109 01c8 7A8F     		ldrh	r2, [r7, #58]	@ movhi
 1110 01ca 7B8C     		ldrh	r3, [r7, #34]	@ movhi
 1111 01cc 1344     		add	r3, r3, r2
 1112 01ce 7B87     		strh	r3, [r7, #58]	@ movhi
 1113              		.loc 2 507 0
 1114 01d0 F86C     		ldr	r0, [r7, #76]
 1115 01d2 FFF7FEFF 		bl	pbuf_clen
 1116 01d6 0346     		mov	r3, r0
 1117 01d8 1A46     		mov	r2, r3
 1118 01da 3B8F     		ldrh	r3, [r7, #56]	@ movhi
 1119 01dc 1344     		add	r3, r3, r2
 1120 01de 3B87     		strh	r3, [r7, #56]	@ movhi
 1121              	.LBE4:
 1122              	.LBE3:
 1123 01e0 09E0     		b	.L64
 1124              	.L58:
 1125 01e2 08E0     		b	.L64
 1126              	.L48:
 1127              		.loc 2 511 0
 1128 01e4 FB68     		ldr	r3, [r7, #12]
 1129 01e6 B3F86A30 		ldrh	r3, [r3, #106]
 1130 01ea 002B     		cmp	r3, #0
 1131 01ec 03D0     		beq	.L64
 1132              		.loc 2 511 0 is_stmt 0 discriminator 1
 1133 01ee 3248     		ldr	r0, .L94+12
 1134 01f0 FFF7FEFF 		bl	osalSysHalt
 1135              		.loc 2 522 0 is_stmt 1 discriminator 1
ARM GAS  C:\Users\Luis\AppData\Local\Temp\cc4eIE9x.s 			page 22


 1136 01f4 B9E0     		b	.L65
 1137              	.L64:
 1138              		.loc 2 522 0 is_stmt 0
 1139 01f6 B8E0     		b	.L65
 1140              	.L79:
 1141              	.LBB5:
 1142              		.loc 2 524 0 is_stmt 1
 1143 01f8 FA88     		ldrh	r2, [r7, #6]	@ movhi
 1144 01fa 7B8F     		ldrh	r3, [r7, #58]	@ movhi
 1145 01fc D31A     		subs	r3, r2, r3
 1146 01fe 3B84     		strh	r3, [r7, #32]	@ movhi
 1147              		.loc 2 525 0
 1148 0200 97F82B30 		ldrb	r3, [r7, #43]	@ zero_extendqisi2
 1149 0204 9BB2     		uxth	r3, r3
 1150 0206 3A8D     		ldrh	r2, [r7, #40]	@ movhi
 1151 0208 D31A     		subs	r3, r2, r3
 1152 020a FB83     		strh	r3, [r7, #30]	@ movhi
 1153              		.loc 2 526 0
 1154 020c 3A8C     		ldrh	r2, [r7, #32]
 1155 020e FB8B     		ldrh	r3, [r7, #30]
 1156 0210 9A42     		cmp	r2, r3
 1157 0212 38BF     		it	cc
 1158 0214 1346     		movcc	r3, r2
 1159 0216 BB83     		strh	r3, [r7, #28]	@ movhi
 1160              		.loc 2 532 0
 1161 0218 7B79     		ldrb	r3, [r7, #5]	@ zero_extendqisi2
 1162 021a 03F00103 		and	r3, r3, #1
 1163 021e 002B     		cmp	r3, #0
 1164 0220 33D0     		beq	.L66
 1165              		.loc 2 535 0
 1166 0222 97F82B30 		ldrb	r3, [r7, #43]	@ zero_extendqisi2
 1167 0226 9AB2     		uxth	r2, r3
 1168 0228 BB8B     		ldrh	r3, [r7, #28]	@ movhi
 1169 022a 1344     		add	r3, r3, r2
 1170 022c 99B2     		uxth	r1, r3
 1171 022e FB6B     		ldr	r3, [r7, #60]
 1172 0230 002B     		cmp	r3, #0
 1173 0232 14BF     		ite	ne
 1174 0234 0023     		movne	r3, #0
 1175 0236 0123     		moveq	r3, #1
 1176 0238 DBB2     		uxtb	r3, r3
 1177 023a 1846     		mov	r0, r3
 1178 023c 3A8D     		ldrh	r2, [r7, #40]
 1179 023e 07F11603 		add	r3, r7, #22
 1180 0242 FC68     		ldr	r4, [r7, #12]
 1181 0244 0094     		str	r4, [sp]
 1182 0246 7C79     		ldrb	r4, [r7, #5]	@ zero_extendqisi2
 1183 0248 0194     		str	r4, [sp, #4]
 1184 024a 0290     		str	r0, [sp, #8]
 1185 024c 0020     		movs	r0, #0
 1186 024e FFF7FEFF 		bl	tcp_pbuf_prealloc
 1187 0252 3863     		str	r0, [r7, #48]
 1188 0254 3B6B     		ldr	r3, [r7, #48]
 1189 0256 002B     		cmp	r3, #0
 1190 0258 00D1     		bne	.L67
 1191              		.loc 2 537 0
 1192 025a 1FE1     		b	.L61
ARM GAS  C:\Users\Luis\AppData\Local\Temp\cc4eIE9x.s 			page 23


 1193              	.L67:
 1194              		.loc 2 539 0
 1195 025c 3B6B     		ldr	r3, [r7, #48]
 1196 025e 5B89     		ldrh	r3, [r3, #10]
 1197 0260 BA8B     		ldrh	r2, [r7, #28]
 1198 0262 9A42     		cmp	r2, r3
 1199 0264 02D9     		bls	.L68
 1200              		.loc 2 539 0 is_stmt 0 discriminator 1
 1201 0266 1548     		ldr	r0, .L94+16
 1202 0268 FFF7FEFF 		bl	osalSysHalt
 1203              	.L68:
 1204              		.loc 2 541 0 is_stmt 1
 1205 026c 3B6B     		ldr	r3, [r7, #48]
 1206 026e 5A68     		ldr	r2, [r3, #4]
 1207 0270 97F82B30 		ldrb	r3, [r7, #43]	@ zero_extendqisi2
 1208 0274 D118     		adds	r1, r2, r3
 1209 0276 7B8F     		ldrh	r3, [r7, #58]
 1210 0278 BA68     		ldr	r2, [r7, #8]
 1211 027a 1A44     		add	r2, r2, r3
 1212 027c BB8B     		ldrh	r3, [r7, #28]
 1213 027e 0846     		mov	r0, r1
 1214 0280 1146     		mov	r1, r2
 1215 0282 1A46     		mov	r2, r3
 1216 0284 FFF7FEFF 		bl	memcpy
 1217 0288 35E0     		b	.L69
 1218              	.L66:
 1219              	.LBB6:
 1220              		.loc 2 550 0
 1221 028a FB8A     		ldrh	r3, [r7, #22]
 1222 028c 002B     		cmp	r3, #0
 1223 028e 02D0     		beq	.L70
 1224              		.loc 2 550 0 is_stmt 0 discriminator 1
 1225 0290 0B48     		ldr	r0, .L94+20
 1226 0292 FFF7FEFF 		bl	osalSysHalt
 1227              	.L70:
 1228              		.loc 2 552 0 is_stmt 1
 1229 0296 BB8B     		ldrh	r3, [r7, #28]
 1230 0298 0020     		movs	r0, #0
 1231 029a 1946     		mov	r1, r3
 1232 029c 0122     		movs	r2, #1
 1233 029e FFF7FEFF 		bl	pbuf_alloc
 1234 02a2 B861     		str	r0, [r7, #24]
 1235 02a4 BB69     		ldr	r3, [r7, #24]
 1236 02a6 002B     		cmp	r3, #0
 1237 02a8 0CD1     		bne	.L71
 1238              		.loc 2 554 0
 1239 02aa F7E0     		b	.L61
 1240              	.L95:
 1241              		.align	2
 1242              	.L94:
 1243 02ac B4000000 		.word	.LC4
 1244 02b0 E8000000 		.word	.LC5
 1245 02b4 08010000 		.word	.LC6
 1246 02b8 28010000 		.word	.LC7
 1247 02bc 58010000 		.word	.LC8
 1248 02c0 98010000 		.word	.LC9
 1249              	.L71:
ARM GAS  C:\Users\Luis\AppData\Local\Temp\cc4eIE9x.s 			page 24


 1250              		.loc 2 561 0
 1251 02c4 7B8F     		ldrh	r3, [r7, #58]
 1252 02c6 BA68     		ldr	r2, [r7, #8]
 1253 02c8 1A44     		add	r2, r2, r3
 1254 02ca BB69     		ldr	r3, [r7, #24]
 1255 02cc 5A60     		str	r2, [r3, #4]
 1256              		.loc 2 564 0
 1257 02ce 97F82B30 		ldrb	r3, [r7, #43]	@ zero_extendqisi2
 1258 02d2 9BB2     		uxth	r3, r3
 1259 02d4 0020     		movs	r0, #0
 1260 02d6 1946     		mov	r1, r3
 1261 02d8 0022     		movs	r2, #0
 1262 02da FFF7FEFF 		bl	pbuf_alloc
 1263 02de 3863     		str	r0, [r7, #48]
 1264 02e0 3B6B     		ldr	r3, [r7, #48]
 1265 02e2 002B     		cmp	r3, #0
 1266 02e4 03D1     		bne	.L72
 1267              		.loc 2 567 0
 1268 02e6 B869     		ldr	r0, [r7, #24]
 1269 02e8 FFF7FEFF 		bl	pbuf_free
 1270              		.loc 2 569 0
 1271 02ec D6E0     		b	.L61
 1272              	.L72:
 1273              		.loc 2 572 0
 1274 02ee 386B     		ldr	r0, [r7, #48]
 1275 02f0 B969     		ldr	r1, [r7, #24]
 1276 02f2 FFF7FEFF 		bl	pbuf_cat
 1277              	.L69:
 1278              	.LBE6:
 1279              		.loc 2 575 0
 1280 02f6 386B     		ldr	r0, [r7, #48]
 1281 02f8 FFF7FEFF 		bl	pbuf_clen
 1282 02fc 0346     		mov	r3, r0
 1283 02fe 1A46     		mov	r2, r3
 1284 0300 3B8F     		ldrh	r3, [r7, #56]	@ movhi
 1285 0302 1344     		add	r3, r3, r2
 1286 0304 3B87     		strh	r3, [r7, #56]	@ movhi
 1287              		.loc 2 580 0
 1288 0306 3B8F     		ldrh	r3, [r7, #56]
 1289 0308 082B     		cmp	r3, #8
 1290 030a 04D8     		bhi	.L73
 1291              		.loc 2 580 0 is_stmt 0 discriminator 1
 1292 030c 3A8F     		ldrh	r2, [r7, #56]
 1293 030e 4FF6FC73 		movw	r3, #65532
 1294 0312 9A42     		cmp	r2, r3
 1295 0314 03D9     		bls	.L74
 1296              	.L73:
 1297              		.loc 2 582 0 is_stmt 1
 1298 0316 386B     		ldr	r0, [r7, #48]
 1299 0318 FFF7FEFF 		bl	pbuf_free
 1300              		.loc 2 583 0
 1301 031c BEE0     		b	.L61
 1302              	.L74:
 1303              		.loc 2 586 0
 1304 031e FB68     		ldr	r3, [r7, #12]
 1305 0320 DA6D     		ldr	r2, [r3, #92]
 1306 0322 7B8F     		ldrh	r3, [r7, #58]
ARM GAS  C:\Users\Luis\AppData\Local\Temp\cc4eIE9x.s 			page 25


 1307 0324 1344     		add	r3, r3, r2
 1308 0326 97F82A20 		ldrb	r2, [r7, #42]	@ zero_extendqisi2
 1309 032a 0092     		str	r2, [sp]
 1310 032c F868     		ldr	r0, [r7, #12]
 1311 032e 396B     		ldr	r1, [r7, #48]
 1312 0330 0022     		movs	r2, #0
 1313 0332 FFF7FEFF 		bl	tcp_create_segment
 1314 0336 7864     		str	r0, [r7, #68]
 1315 0338 7B6C     		ldr	r3, [r7, #68]
 1316 033a 002B     		cmp	r3, #0
 1317 033c 00D1     		bne	.L75
 1318              		.loc 2 587 0
 1319 033e ADE0     		b	.L61
 1320              	.L75:
 1321              		.loc 2 599 0
 1322 0340 FB6B     		ldr	r3, [r7, #60]
 1323 0342 002B     		cmp	r3, #0
 1324 0344 02D1     		bne	.L76
 1325              		.loc 2 600 0
 1326 0346 7B6C     		ldr	r3, [r7, #68]
 1327 0348 FB63     		str	r3, [r7, #60]
 1328 034a 08E0     		b	.L77
 1329              	.L76:
 1330              		.loc 2 603 0
 1331 034c 3B6C     		ldr	r3, [r7, #64]
 1332 034e 002B     		cmp	r3, #0
 1333 0350 02D1     		bne	.L78
 1334              		.loc 2 603 0 is_stmt 0 discriminator 1
 1335 0352 6B48     		ldr	r0, .L96
 1336 0354 FFF7FEFF 		bl	osalSysHalt
 1337              	.L78:
 1338              		.loc 2 604 0 is_stmt 1
 1339 0358 3B6C     		ldr	r3, [r7, #64]
 1340 035a 7A6C     		ldr	r2, [r7, #68]
 1341 035c 1A60     		str	r2, [r3]
 1342              	.L77:
 1343              		.loc 2 607 0
 1344 035e 7B6C     		ldr	r3, [r7, #68]
 1345 0360 3B64     		str	r3, [r7, #64]
 1346              		.loc 2 613 0
 1347 0362 7A8F     		ldrh	r2, [r7, #58]	@ movhi
 1348 0364 BB8B     		ldrh	r3, [r7, #28]	@ movhi
 1349 0366 1344     		add	r3, r3, r2
 1350 0368 7B87     		strh	r3, [r7, #58]	@ movhi
 1351              	.L65:
 1352              	.LBE5:
 1353              		.loc 2 522 0 discriminator 1
 1354 036a 7A8F     		ldrh	r2, [r7, #58]
 1355 036c FB88     		ldrh	r3, [r7, #6]
 1356 036e 9A42     		cmp	r2, r3
 1357 0370 FFF442AF 		bcc	.L79
 1358              		.loc 2 626 0
 1359 0374 FB8E     		ldrh	r3, [r7, #54]
 1360 0376 002B     		cmp	r3, #0
 1361 0378 2DD0     		beq	.L80
 1362              	.LBB7:
 1363              		.loc 2 629 0
ARM GAS  C:\Users\Luis\AppData\Local\Temp\cc4eIE9x.s 			page 26


 1364 037a BB6C     		ldr	r3, [r7, #72]
 1365 037c 5B68     		ldr	r3, [r3, #4]
 1366 037e FB62     		str	r3, [r7, #44]
 1367 0380 1FE0     		b	.L81
 1368              	.L83:
 1369              		.loc 2 630 0
 1370 0382 FB6A     		ldr	r3, [r7, #44]
 1371 0384 1A89     		ldrh	r2, [r3, #8]
 1372 0386 FB8E     		ldrh	r3, [r7, #54]	@ movhi
 1373 0388 1344     		add	r3, r3, r2
 1374 038a 9AB2     		uxth	r2, r3
 1375 038c FB6A     		ldr	r3, [r7, #44]
 1376 038e 1A81     		strh	r2, [r3, #8]	@ movhi
 1377              		.loc 2 631 0
 1378 0390 FB6A     		ldr	r3, [r7, #44]
 1379 0392 1B68     		ldr	r3, [r3]
 1380 0394 002B     		cmp	r3, #0
 1381 0396 11D1     		bne	.L82
 1382              		.loc 2 632 0
 1383 0398 FB6A     		ldr	r3, [r7, #44]
 1384 039a 5A68     		ldr	r2, [r3, #4]
 1385 039c FB6A     		ldr	r3, [r7, #44]
 1386 039e 5B89     		ldrh	r3, [r3, #10]
 1387 03a0 1A44     		add	r2, r2, r3
 1388 03a2 FB8E     		ldrh	r3, [r7, #54]
 1389 03a4 1046     		mov	r0, r2
 1390 03a6 B968     		ldr	r1, [r7, #8]
 1391 03a8 1A46     		mov	r2, r3
 1392 03aa FFF7FEFF 		bl	memcpy
 1393              		.loc 2 633 0
 1394 03ae FB6A     		ldr	r3, [r7, #44]
 1395 03b0 5A89     		ldrh	r2, [r3, #10]
 1396 03b2 FB8E     		ldrh	r3, [r7, #54]	@ movhi
 1397 03b4 1344     		add	r3, r3, r2
 1398 03b6 9AB2     		uxth	r2, r3
 1399 03b8 FB6A     		ldr	r3, [r7, #44]
 1400 03ba 5A81     		strh	r2, [r3, #10]	@ movhi
 1401              	.L82:
 1402              		.loc 2 629 0
 1403 03bc FB6A     		ldr	r3, [r7, #44]
 1404 03be 1B68     		ldr	r3, [r3]
 1405 03c0 FB62     		str	r3, [r7, #44]
 1406              	.L81:
 1407              		.loc 2 629 0 is_stmt 0 discriminator 1
 1408 03c2 FB6A     		ldr	r3, [r7, #44]
 1409 03c4 002B     		cmp	r3, #0
 1410 03c6 DCD1     		bne	.L83
 1411              		.loc 2 636 0 is_stmt 1
 1412 03c8 BB6C     		ldr	r3, [r7, #72]
 1413 03ca 1A89     		ldrh	r2, [r3, #8]
 1414 03cc FB8E     		ldrh	r3, [r7, #54]	@ movhi
 1415 03ce 1344     		add	r3, r3, r2
 1416 03d0 9AB2     		uxth	r2, r3
 1417 03d2 BB6C     		ldr	r3, [r7, #72]
 1418 03d4 1A81     		strh	r2, [r3, #8]	@ movhi
 1419              	.L80:
 1420              	.LBE7:
ARM GAS  C:\Users\Luis\AppData\Local\Temp\cc4eIE9x.s 			page 27


 1421              		.loc 2 643 0
 1422 03d6 FA8A     		ldrh	r2, [r7, #22]
 1423 03d8 FB68     		ldr	r3, [r7, #12]
 1424 03da A3F86A20 		strh	r2, [r3, #106]	@ movhi
 1425              		.loc 2 649 0
 1426 03de FB6C     		ldr	r3, [r7, #76]
 1427 03e0 002B     		cmp	r3, #0
 1428 03e2 13D0     		beq	.L84
 1429              		.loc 2 650 0
 1430 03e4 BB6C     		ldr	r3, [r7, #72]
 1431 03e6 002B     		cmp	r3, #0
 1432 03e8 02D1     		bne	.L85
 1433              		.loc 2 650 0 is_stmt 0 discriminator 1
 1434 03ea 4648     		ldr	r0, .L96+4
 1435 03ec FFF7FEFF 		bl	osalSysHalt
 1436              	.L85:
 1437              		.loc 2 652 0 is_stmt 1
 1438 03f0 BB6C     		ldr	r3, [r7, #72]
 1439 03f2 5B68     		ldr	r3, [r3, #4]
 1440 03f4 1846     		mov	r0, r3
 1441 03f6 F96C     		ldr	r1, [r7, #76]
 1442 03f8 FFF7FEFF 		bl	pbuf_cat
 1443              		.loc 2 653 0
 1444 03fc BB6C     		ldr	r3, [r7, #72]
 1445 03fe 1A89     		ldrh	r2, [r3, #8]
 1446 0400 FB6C     		ldr	r3, [r7, #76]
 1447 0402 1B89     		ldrh	r3, [r3, #8]
 1448 0404 1344     		add	r3, r3, r2
 1449 0406 9AB2     		uxth	r2, r3
 1450 0408 BB6C     		ldr	r3, [r7, #72]
 1451 040a 1A81     		strh	r2, [r3, #8]	@ movhi
 1452              	.L84:
 1453              		.loc 2 667 0
 1454 040c BB6C     		ldr	r3, [r7, #72]
 1455 040e 002B     		cmp	r3, #0
 1456 0410 03D1     		bne	.L86
 1457              		.loc 2 668 0
 1458 0412 FB68     		ldr	r3, [r7, #12]
 1459 0414 FA6B     		ldr	r2, [r7, #60]
 1460 0416 DA66     		str	r2, [r3, #108]
 1461 0418 02E0     		b	.L87
 1462              	.L86:
 1463              		.loc 2 670 0
 1464 041a BB6C     		ldr	r3, [r7, #72]
 1465 041c FA6B     		ldr	r2, [r7, #60]
 1466 041e 1A60     		str	r2, [r3]
 1467              	.L87:
 1468              		.loc 2 676 0
 1469 0420 FB68     		ldr	r3, [r7, #12]
 1470 0422 DA6D     		ldr	r2, [r3, #92]
 1471 0424 FB88     		ldrh	r3, [r7, #6]
 1472 0426 1A44     		add	r2, r2, r3
 1473 0428 FB68     		ldr	r3, [r7, #12]
 1474 042a DA65     		str	r2, [r3, #92]
 1475              		.loc 2 677 0
 1476 042c FB68     		ldr	r3, [r7, #12]
 1477 042e B3F86620 		ldrh	r2, [r3, #102]
ARM GAS  C:\Users\Luis\AppData\Local\Temp\cc4eIE9x.s 			page 28


 1478 0432 FB88     		ldrh	r3, [r7, #6]	@ movhi
 1479 0434 D31A     		subs	r3, r2, r3
 1480 0436 9AB2     		uxth	r2, r3
 1481 0438 FB68     		ldr	r3, [r7, #12]
 1482 043a A3F86620 		strh	r2, [r3, #102]	@ movhi
 1483              		.loc 2 678 0
 1484 043e FB68     		ldr	r3, [r7, #12]
 1485 0440 3A8F     		ldrh	r2, [r7, #56]	@ movhi
 1486 0442 A3F86820 		strh	r2, [r3, #104]	@ movhi
 1487              		.loc 2 682 0
 1488 0446 FB68     		ldr	r3, [r7, #12]
 1489 0448 B3F86830 		ldrh	r3, [r3, #104]
 1490 044c 002B     		cmp	r3, #0
 1491 044e 0AD0     		beq	.L88
 1492              		.loc 2 683 0
 1493 0450 FB68     		ldr	r3, [r7, #12]
 1494 0452 1B6F     		ldr	r3, [r3, #112]
 1495 0454 002B     		cmp	r3, #0
 1496 0456 06D1     		bne	.L88
 1497              		.loc 2 683 0 is_stmt 0 discriminator 1
 1498 0458 FB68     		ldr	r3, [r7, #12]
 1499 045a DB6E     		ldr	r3, [r3, #108]
 1500 045c 002B     		cmp	r3, #0
 1501 045e 02D1     		bne	.L88
 1502 0460 2948     		ldr	r0, .L96+8
 1503 0462 FFF7FEFF 		bl	osalSysHalt
 1504              	.L88:
 1505              		.loc 2 688 0 is_stmt 1
 1506 0466 7B6C     		ldr	r3, [r7, #68]
 1507 0468 002B     		cmp	r3, #0
 1508 046a 15D0     		beq	.L89
 1509              		.loc 2 688 0 is_stmt 0 discriminator 1
 1510 046c 7B6C     		ldr	r3, [r7, #68]
 1511 046e DB68     		ldr	r3, [r3, #12]
 1512 0470 002B     		cmp	r3, #0
 1513 0472 11D0     		beq	.L89
 1514 0474 7B79     		ldrb	r3, [r7, #5]	@ zero_extendqisi2
 1515 0476 03F00203 		and	r3, r3, #2
 1516 047a 002B     		cmp	r3, #0
 1517 047c 0CD1     		bne	.L89
 1518              		.loc 2 689 0 is_stmt 1
 1519 047e 7B6C     		ldr	r3, [r7, #68]
 1520 0480 DC68     		ldr	r4, [r3, #12]
 1521 0482 7B6C     		ldr	r3, [r7, #68]
 1522 0484 DB68     		ldr	r3, [r3, #12]
 1523 0486 9B89     		ldrh	r3, [r3, #12]	@ unaligned
 1524 0488 9DB2     		uxth	r5, r3
 1525 048a 0820     		movs	r0, #8
 1526 048c FFF7FEFF 		bl	lwip_htons
 1527 0490 0346     		mov	r3, r0
 1528 0492 2B43     		orrs	r3, r3, r5
 1529 0494 9BB2     		uxth	r3, r3
 1530 0496 A381     		strh	r3, [r4, #12]	@ unaligned
 1531              	.L89:
 1532              		.loc 2 692 0
 1533 0498 0023     		movs	r3, #0
 1534 049a 2BE0     		b	.L93
ARM GAS  C:\Users\Luis\AppData\Local\Temp\cc4eIE9x.s 			page 29


 1535              	.L61:
 1536              		.loc 2 694 0
 1537 049c FB68     		ldr	r3, [r7, #12]
 1538 049e 9B7F     		ldrb	r3, [r3, #30]	@ zero_extendqisi2
 1539 04a0 63F07F03 		orn	r3, r3, #127
 1540 04a4 DAB2     		uxtb	r2, r3
 1541 04a6 FB68     		ldr	r3, [r7, #12]
 1542 04a8 9A77     		strb	r2, [r3, #30]
 1543              		.loc 2 695 0
 1544 04aa 184B     		ldr	r3, .L96+12
 1545 04ac B3F89C30 		ldrh	r3, [r3, #156]
 1546 04b0 0133     		adds	r3, r3, #1
 1547 04b2 9AB2     		uxth	r2, r3
 1548 04b4 154B     		ldr	r3, .L96+12
 1549 04b6 A3F89C20 		strh	r2, [r3, #156]	@ movhi
 1550              		.loc 2 697 0
 1551 04ba FB6C     		ldr	r3, [r7, #76]
 1552 04bc 002B     		cmp	r3, #0
 1553 04be 02D0     		beq	.L90
 1554              		.loc 2 698 0
 1555 04c0 F86C     		ldr	r0, [r7, #76]
 1556 04c2 FFF7FEFF 		bl	pbuf_free
 1557              	.L90:
 1558              		.loc 2 700 0
 1559 04c6 FB6B     		ldr	r3, [r7, #60]
 1560 04c8 002B     		cmp	r3, #0
 1561 04ca 02D0     		beq	.L91
 1562              		.loc 2 701 0
 1563 04cc F86B     		ldr	r0, [r7, #60]
 1564 04ce FFF7FEFF 		bl	tcp_segs_free
 1565              	.L91:
 1566              		.loc 2 703 0
 1567 04d2 FB68     		ldr	r3, [r7, #12]
 1568 04d4 B3F86830 		ldrh	r3, [r3, #104]
 1569 04d8 002B     		cmp	r3, #0
 1570 04da 0AD0     		beq	.L92
 1571              		.loc 2 704 0
 1572 04dc FB68     		ldr	r3, [r7, #12]
 1573 04de 1B6F     		ldr	r3, [r3, #112]
 1574 04e0 002B     		cmp	r3, #0
 1575 04e2 06D1     		bne	.L92
 1576              		.loc 2 704 0 is_stmt 0 discriminator 1
 1577 04e4 FB68     		ldr	r3, [r7, #12]
 1578 04e6 DB6E     		ldr	r3, [r3, #108]
 1579 04e8 002B     		cmp	r3, #0
 1580 04ea 02D1     		bne	.L92
 1581 04ec 0648     		ldr	r0, .L96+8
 1582 04ee FFF7FEFF 		bl	osalSysHalt
 1583              	.L92:
 1584              		.loc 2 708 0 is_stmt 1
 1585 04f2 FF23     		movs	r3, #255
 1586              	.L93:
 1587 04f4 5BB2     		sxtb	r3, r3
 1588              		.loc 2 709 0
 1589 04f6 1846     		mov	r0, r3
 1590 04f8 5037     		adds	r7, r7, #80
 1591 04fa BD46     		mov	sp, r7
ARM GAS  C:\Users\Luis\AppData\Local\Temp\cc4eIE9x.s 			page 30


 1592              		@ sp needed
 1593 04fc B0BD     		pop	{r4, r5, r7, pc}
 1594              	.L97:
 1595 04fe 00BF     		.align	2
 1596              	.L96:
 1597 0500 A8010000 		.word	.LC10
 1598 0504 BC010000 		.word	.LC11
 1599 0508 F4010000 		.word	.LC12
 1600 050c 00000000 		.word	lwip_stats
 1601              		.cfi_endproc
 1602              	.LFE265:
 1603              		.size	tcp_write, .-tcp_write
 1604              		.section	.rodata
 1605 0212 0000     		.align	2
 1606              	.LC13:
 1607 0214 7463705F 		.ascii	"tcp_enqueue_flags: need either TCP_SYN or TCP_FIN i"
 1607      656E7175 
 1607      6575655F 
 1607      666C6167 
 1607      733A206E 
 1608 0247 6E20666C 		.ascii	"n flags (programmer violates API)\000"
 1608      61677320 
 1608      2870726F 
 1608      6772616D 
 1608      6D657220 
 1609 0269 000000   		.align	2
 1610              	.LC14:
 1611 026c 7463705F 		.ascii	"tcp_enqueue_flags: check that first pbuf can hold o"
 1611      656E7175 
 1611      6575655F 
 1611      666C6167 
 1611      733A2063 
 1612 029f 70746C65 		.ascii	"ptlen\000"
 1612      6E00
 1613 02a5 000000   		.align	2
 1614              	.LC15:
 1615 02a8 7365672D 		.ascii	"seg->tcphdr not aligned\000"
 1615      3E746370 
 1615      68647220 
 1615      6E6F7420 
 1615      616C6967 
 1616              		.align	2
 1617              	.LC16:
 1618 02c0 7463705F 		.ascii	"tcp_enqueue_flags: invalid segment length\000"
 1618      656E7175 
 1618      6575655F 
 1618      666C6167 
 1618      733A2069 
 1619 02ea 0000     		.align	2
 1620              	.LC17:
 1621 02ec 7463705F 		.ascii	"tcp_enqueue_flags: invalid queue length\000"
 1621      656E7175 
 1621      6575655F 
 1621      666C6167 
 1621      733A2069 
 1622              		.section	.text.tcp_enqueue_flags,"ax",%progbits
 1623              		.align	2
ARM GAS  C:\Users\Luis\AppData\Local\Temp\cc4eIE9x.s 			page 31


 1624              		.p2align 4,,15
 1625              		.global	tcp_enqueue_flags
 1626              		.thumb
 1627              		.thumb_func
 1628              		.type	tcp_enqueue_flags, %function
 1629              	tcp_enqueue_flags:
 1630              	.LFB266:
 1631              		.loc 2 723 0
 1632              		.cfi_startproc
 1633              		@ args = 0, pretend = 0, frame = 32
 1634              		@ frame_needed = 1, uses_anonymous_args = 0
 1635 0000 90B5     		push	{r4, r7, lr}
 1636              		.cfi_def_cfa_offset 12
 1637              		.cfi_offset 4, -12
 1638              		.cfi_offset 7, -8
 1639              		.cfi_offset 14, -4
 1640 0002 8BB0     		sub	sp, sp, #44
 1641              		.cfi_def_cfa_offset 56
 1642 0004 02AF     		add	r7, sp, #8
 1643              		.cfi_def_cfa 7, 48
 1644 0006 7860     		str	r0, [r7, #4]
 1645 0008 0B46     		mov	r3, r1
 1646 000a FB70     		strb	r3, [r7, #3]
 1647              		.loc 2 726 0
 1648 000c 0023     		movs	r3, #0
 1649 000e FB77     		strb	r3, [r7, #31]
 1650              		.loc 2 727 0
 1651 0010 0023     		movs	r3, #0
 1652 0012 FB75     		strb	r3, [r7, #23]
 1653              		.loc 2 731 0
 1654 0014 FB78     		ldrb	r3, [r7, #3]	@ zero_extendqisi2
 1655 0016 03F00303 		and	r3, r3, #3
 1656 001a 002B     		cmp	r3, #0
 1657 001c 02D1     		bne	.L99
 1658              		.loc 2 731 0 is_stmt 0 discriminator 1
 1659 001e 7E48     		ldr	r0, .L122
 1660 0020 FFF7FEFF 		bl	osalSysHalt
 1661              	.L99:
 1662              		.loc 2 735 0 is_stmt 1
 1663 0024 7B68     		ldr	r3, [r7, #4]
 1664 0026 B3F86830 		ldrh	r3, [r3, #104]
 1665 002a 072B     		cmp	r3, #7
 1666 002c 06D8     		bhi	.L100
 1667              		.loc 2 735 0 is_stmt 0 discriminator 1
 1668 002e 7B68     		ldr	r3, [r7, #4]
 1669 0030 B3F86820 		ldrh	r2, [r3, #104]
 1670 0034 4FF6FC73 		movw	r3, #65532
 1671 0038 9A42     		cmp	r2, r3
 1672 003a 10D9     		bls	.L101
 1673              	.L100:
 1674              		.loc 2 738 0 is_stmt 1
 1675 003c 774B     		ldr	r3, .L122+4
 1676 003e B3F89C30 		ldrh	r3, [r3, #156]
 1677 0042 0133     		adds	r3, r3, #1
 1678 0044 9AB2     		uxth	r2, r3
 1679 0046 754B     		ldr	r3, .L122+4
 1680 0048 A3F89C20 		strh	r2, [r3, #156]	@ movhi
ARM GAS  C:\Users\Luis\AppData\Local\Temp\cc4eIE9x.s 			page 32


 1681              		.loc 2 739 0
 1682 004c 7B68     		ldr	r3, [r7, #4]
 1683 004e 9B7F     		ldrb	r3, [r3, #30]	@ zero_extendqisi2
 1684 0050 63F07F03 		orn	r3, r3, #127
 1685 0054 DAB2     		uxtb	r2, r3
 1686 0056 7B68     		ldr	r3, [r7, #4]
 1687 0058 9A77     		strb	r2, [r3, #30]
 1688              		.loc 2 740 0
 1689 005a FF23     		movs	r3, #255
 1690 005c D6E0     		b	.L102
 1691              	.L101:
 1692              		.loc 2 743 0
 1693 005e FB78     		ldrb	r3, [r7, #3]	@ zero_extendqisi2
 1694 0060 03F00203 		and	r3, r3, #2
 1695 0064 002B     		cmp	r3, #0
 1696 0066 01D0     		beq	.L103
 1697              		.loc 2 744 0
 1698 0068 0123     		movs	r3, #1
 1699 006a FB77     		strb	r3, [r7, #31]
 1700              	.L103:
 1701              		.loc 2 751 0
 1702 006c FB7F     		ldrb	r3, [r7, #31]	@ zero_extendqisi2
 1703 006e 03F00103 		and	r3, r3, #1
 1704 0072 002B     		cmp	r3, #0
 1705 0074 01D0     		beq	.L104
 1706              		.loc 2 751 0 is_stmt 0 discriminator 1
 1707 0076 0422     		movs	r2, #4
 1708 0078 00E0     		b	.L105
 1709              	.L104:
 1710              		.loc 2 751 0 discriminator 2
 1711 007a 0022     		movs	r2, #0
 1712              	.L105:
 1713              		.loc 2 751 0 discriminator 3
 1714 007c FB7F     		ldrb	r3, [r7, #31]	@ zero_extendqisi2
 1715 007e 03F00203 		and	r3, r3, #2
 1716 0082 002B     		cmp	r3, #0
 1717 0084 01D0     		beq	.L106
 1718              		.loc 2 751 0 discriminator 4
 1719 0086 0C23     		movs	r3, #12
 1720 0088 00E0     		b	.L107
 1721              	.L106:
 1722              		.loc 2 751 0 discriminator 5
 1723 008a 0023     		movs	r3, #0
 1724              	.L107:
 1725              		.loc 2 751 0 discriminator 6
 1726 008c 1344     		add	r3, r3, r2
 1727 008e FB75     		strb	r3, [r7, #23]
 1728              		.loc 2 757 0 is_stmt 1 discriminator 6
 1729 0090 7B68     		ldr	r3, [r7, #4]
 1730 0092 B3F86630 		ldrh	r3, [r3, #102]
 1731 0096 002B     		cmp	r3, #0
 1732 0098 09D1     		bne	.L108
 1733              		.loc 2 759 0
 1734 009a 604B     		ldr	r3, .L122+4
 1735 009c B3F89C30 		ldrh	r3, [r3, #156]
 1736 00a0 0133     		adds	r3, r3, #1
 1737 00a2 9AB2     		uxth	r2, r3
ARM GAS  C:\Users\Luis\AppData\Local\Temp\cc4eIE9x.s 			page 33


 1738 00a4 5D4B     		ldr	r3, .L122+4
 1739 00a6 A3F89C20 		strh	r2, [r3, #156]	@ movhi
 1740              		.loc 2 760 0
 1741 00aa FF23     		movs	r3, #255
 1742 00ac AEE0     		b	.L102
 1743              	.L108:
 1744              		.loc 2 764 0
 1745 00ae FB7D     		ldrb	r3, [r7, #23]	@ zero_extendqisi2
 1746 00b0 9BB2     		uxth	r3, r3
 1747 00b2 0020     		movs	r0, #0
 1748 00b4 1946     		mov	r1, r3
 1749 00b6 0022     		movs	r2, #0
 1750 00b8 FFF7FEFF 		bl	pbuf_alloc
 1751 00bc 3861     		str	r0, [r7, #16]
 1752 00be 3B69     		ldr	r3, [r7, #16]
 1753 00c0 002B     		cmp	r3, #0
 1754 00c2 10D1     		bne	.L109
 1755              		.loc 2 765 0
 1756 00c4 7B68     		ldr	r3, [r7, #4]
 1757 00c6 9B7F     		ldrb	r3, [r3, #30]	@ zero_extendqisi2
 1758 00c8 63F07F03 		orn	r3, r3, #127
 1759 00cc DAB2     		uxtb	r2, r3
 1760 00ce 7B68     		ldr	r3, [r7, #4]
 1761 00d0 9A77     		strb	r2, [r3, #30]
 1762              		.loc 2 766 0
 1763 00d2 524B     		ldr	r3, .L122+4
 1764 00d4 B3F89C30 		ldrh	r3, [r3, #156]
 1765 00d8 0133     		adds	r3, r3, #1
 1766 00da 9AB2     		uxth	r2, r3
 1767 00dc 4F4B     		ldr	r3, .L122+4
 1768 00de A3F89C20 		strh	r2, [r3, #156]	@ movhi
 1769              		.loc 2 767 0
 1770 00e2 FF23     		movs	r3, #255
 1771 00e4 92E0     		b	.L102
 1772              	.L109:
 1773              		.loc 2 769 0
 1774 00e6 3B69     		ldr	r3, [r7, #16]
 1775 00e8 5A89     		ldrh	r2, [r3, #10]
 1776 00ea FB7D     		ldrb	r3, [r7, #23]	@ zero_extendqisi2
 1777 00ec 9BB2     		uxth	r3, r3
 1778 00ee 9A42     		cmp	r2, r3
 1779 00f0 02D2     		bcs	.L110
 1780              		.loc 2 769 0 is_stmt 0 discriminator 1
 1781 00f2 4B48     		ldr	r0, .L122+8
 1782 00f4 FFF7FEFF 		bl	osalSysHalt
 1783              	.L110:
 1784              		.loc 2 773 0 is_stmt 1
 1785 00f8 7B68     		ldr	r3, [r7, #4]
 1786 00fa DB6D     		ldr	r3, [r3, #92]
 1787 00fc FA78     		ldrb	r2, [r7, #3]	@ zero_extendqisi2
 1788 00fe F97F     		ldrb	r1, [r7, #31]	@ zero_extendqisi2
 1789 0100 0091     		str	r1, [sp]
 1790 0102 7868     		ldr	r0, [r7, #4]
 1791 0104 3969     		ldr	r1, [r7, #16]
 1792 0106 FFF7FEFF 		bl	tcp_create_segment
 1793 010a F860     		str	r0, [r7, #12]
 1794 010c FB68     		ldr	r3, [r7, #12]
ARM GAS  C:\Users\Luis\AppData\Local\Temp\cc4eIE9x.s 			page 34


 1795 010e 002B     		cmp	r3, #0
 1796 0110 10D1     		bne	.L111
 1797              		.loc 2 774 0
 1798 0112 7B68     		ldr	r3, [r7, #4]
 1799 0114 9B7F     		ldrb	r3, [r3, #30]	@ zero_extendqisi2
 1800 0116 63F07F03 		orn	r3, r3, #127
 1801 011a DAB2     		uxtb	r2, r3
 1802 011c 7B68     		ldr	r3, [r7, #4]
 1803 011e 9A77     		strb	r2, [r3, #30]
 1804              		.loc 2 775 0
 1805 0120 3E4B     		ldr	r3, .L122+4
 1806 0122 B3F89C30 		ldrh	r3, [r3, #156]
 1807 0126 0133     		adds	r3, r3, #1
 1808 0128 9AB2     		uxth	r2, r3
 1809 012a 3C4B     		ldr	r3, .L122+4
 1810 012c A3F89C20 		strh	r2, [r3, #156]	@ movhi
 1811              		.loc 2 776 0
 1812 0130 FF23     		movs	r3, #255
 1813 0132 6BE0     		b	.L102
 1814              	.L111:
 1815              		.loc 2 778 0
 1816 0134 FB68     		ldr	r3, [r7, #12]
 1817 0136 DB68     		ldr	r3, [r3, #12]
 1818 0138 03F00303 		and	r3, r3, #3
 1819 013c 002B     		cmp	r3, #0
 1820 013e 02D0     		beq	.L112
 1821              		.loc 2 778 0 is_stmt 0 discriminator 1
 1822 0140 3848     		ldr	r0, .L122+12
 1823 0142 FFF7FEFF 		bl	osalSysHalt
 1824              	.L112:
 1825              		.loc 2 779 0 is_stmt 1
 1826 0146 FB68     		ldr	r3, [r7, #12]
 1827 0148 1B89     		ldrh	r3, [r3, #8]
 1828 014a 002B     		cmp	r3, #0
 1829 014c 02D0     		beq	.L113
 1830              		.loc 2 779 0 is_stmt 0 discriminator 1
 1831 014e 3648     		ldr	r0, .L122+16
 1832 0150 FFF7FEFF 		bl	osalSysHalt
 1833              	.L113:
 1834              		.loc 2 788 0 is_stmt 1
 1835 0154 7B68     		ldr	r3, [r7, #4]
 1836 0156 DB6E     		ldr	r3, [r3, #108]
 1837 0158 002B     		cmp	r3, #0
 1838 015a 03D1     		bne	.L114
 1839              		.loc 2 789 0
 1840 015c 7B68     		ldr	r3, [r7, #4]
 1841 015e FA68     		ldr	r2, [r7, #12]
 1842 0160 DA66     		str	r2, [r3, #108]
 1843 0162 0DE0     		b	.L115
 1844              	.L114:
 1845              	.LBB8:
 1846              		.loc 2 792 0
 1847 0164 7B68     		ldr	r3, [r7, #4]
 1848 0166 DB6E     		ldr	r3, [r3, #108]
 1849 0168 BB61     		str	r3, [r7, #24]
 1850 016a 02E0     		b	.L116
 1851              	.L117:
ARM GAS  C:\Users\Luis\AppData\Local\Temp\cc4eIE9x.s 			page 35


 1852              		.loc 2 792 0 is_stmt 0 discriminator 2
 1853 016c BB69     		ldr	r3, [r7, #24]
 1854 016e 1B68     		ldr	r3, [r3]
 1855 0170 BB61     		str	r3, [r7, #24]
 1856              	.L116:
 1857              		.loc 2 792 0 discriminator 1
 1858 0172 BB69     		ldr	r3, [r7, #24]
 1859 0174 1B68     		ldr	r3, [r3]
 1860 0176 002B     		cmp	r3, #0
 1861 0178 F8D1     		bne	.L117
 1862              		.loc 2 793 0 is_stmt 1
 1863 017a BB69     		ldr	r3, [r7, #24]
 1864 017c FA68     		ldr	r2, [r7, #12]
 1865 017e 1A60     		str	r2, [r3]
 1866              	.L115:
 1867              	.LBE8:
 1868              		.loc 2 797 0
 1869 0180 7B68     		ldr	r3, [r7, #4]
 1870 0182 0022     		movs	r2, #0
 1871 0184 A3F86A20 		strh	r2, [r3, #106]	@ movhi
 1872              		.loc 2 801 0
 1873 0188 FB78     		ldrb	r3, [r7, #3]	@ zero_extendqisi2
 1874 018a 03F00203 		and	r3, r3, #2
 1875 018e 002B     		cmp	r3, #0
 1876 0190 04D1     		bne	.L118
 1877              		.loc 2 801 0 is_stmt 0 discriminator 1
 1878 0192 FB78     		ldrb	r3, [r7, #3]	@ zero_extendqisi2
 1879 0194 03F00103 		and	r3, r3, #1
 1880 0198 002B     		cmp	r3, #0
 1881 019a 0CD0     		beq	.L119
 1882              	.L118:
 1883              		.loc 2 802 0 is_stmt 1
 1884 019c 7B68     		ldr	r3, [r7, #4]
 1885 019e DB6D     		ldr	r3, [r3, #92]
 1886 01a0 5A1C     		adds	r2, r3, #1
 1887 01a2 7B68     		ldr	r3, [r7, #4]
 1888 01a4 DA65     		str	r2, [r3, #92]
 1889              		.loc 2 804 0
 1890 01a6 7B68     		ldr	r3, [r7, #4]
 1891 01a8 B3F86630 		ldrh	r3, [r3, #102]
 1892 01ac 013B     		subs	r3, r3, #1
 1893 01ae 9AB2     		uxth	r2, r3
 1894 01b0 7B68     		ldr	r3, [r7, #4]
 1895 01b2 A3F86620 		strh	r2, [r3, #102]	@ movhi
 1896              	.L119:
 1897              		.loc 2 806 0
 1898 01b6 FB78     		ldrb	r3, [r7, #3]	@ zero_extendqisi2
 1899 01b8 03F00103 		and	r3, r3, #1
 1900 01bc 002B     		cmp	r3, #0
 1901 01be 06D0     		beq	.L120
 1902              		.loc 2 807 0
 1903 01c0 7B68     		ldr	r3, [r7, #4]
 1904 01c2 9B7F     		ldrb	r3, [r3, #30]	@ zero_extendqisi2
 1905 01c4 43F02003 		orr	r3, r3, #32
 1906 01c8 DAB2     		uxtb	r2, r3
 1907 01ca 7B68     		ldr	r3, [r7, #4]
 1908 01cc 9A77     		strb	r2, [r3, #30]
ARM GAS  C:\Users\Luis\AppData\Local\Temp\cc4eIE9x.s 			page 36


 1909              	.L120:
 1910              		.loc 2 811 0
 1911 01ce 7B68     		ldr	r3, [r7, #4]
 1912 01d0 B3F86840 		ldrh	r4, [r3, #104]
 1913 01d4 FB68     		ldr	r3, [r7, #12]
 1914 01d6 5B68     		ldr	r3, [r3, #4]
 1915 01d8 1846     		mov	r0, r3
 1916 01da FFF7FEFF 		bl	pbuf_clen
 1917 01de 0346     		mov	r3, r0
 1918 01e0 2344     		add	r3, r3, r4
 1919 01e2 9AB2     		uxth	r2, r3
 1920 01e4 7B68     		ldr	r3, [r7, #4]
 1921 01e6 A3F86820 		strh	r2, [r3, #104]	@ movhi
 1922              		.loc 2 813 0
 1923 01ea 7B68     		ldr	r3, [r7, #4]
 1924 01ec B3F86830 		ldrh	r3, [r3, #104]
 1925 01f0 002B     		cmp	r3, #0
 1926 01f2 0AD0     		beq	.L121
 1927              		.loc 2 814 0
 1928 01f4 7B68     		ldr	r3, [r7, #4]
 1929 01f6 1B6F     		ldr	r3, [r3, #112]
 1930 01f8 002B     		cmp	r3, #0
 1931 01fa 06D1     		bne	.L121
 1932              		.loc 2 814 0 is_stmt 0 discriminator 1
 1933 01fc 7B68     		ldr	r3, [r7, #4]
 1934 01fe DB6E     		ldr	r3, [r3, #108]
 1935 0200 002B     		cmp	r3, #0
 1936 0202 02D1     		bne	.L121
 1937 0204 0948     		ldr	r0, .L122+20
 1938 0206 FFF7FEFF 		bl	osalSysHalt
 1939              	.L121:
 1940              		.loc 2 818 0 is_stmt 1
 1941 020a 0023     		movs	r3, #0
 1942              	.L102:
 1943 020c 5BB2     		sxtb	r3, r3
 1944              		.loc 2 819 0
 1945 020e 1846     		mov	r0, r3
 1946 0210 2437     		adds	r7, r7, #36
 1947 0212 BD46     		mov	sp, r7
 1948              		@ sp needed
 1949 0214 90BD     		pop	{r4, r7, pc}
 1950              	.L123:
 1951 0216 00BF     		.align	2
 1952              	.L122:
 1953 0218 14020000 		.word	.LC13
 1954 021c 00000000 		.word	lwip_stats
 1955 0220 6C020000 		.word	.LC14
 1956 0224 A8020000 		.word	.LC15
 1957 0228 C0020000 		.word	.LC16
 1958 022c EC020000 		.word	.LC17
 1959              		.cfi_endproc
 1960              	.LFE266:
 1961              		.size	tcp_enqueue_flags, .-tcp_enqueue_flags
 1962              		.section	.text.tcp_send_empty_ack,"ax",%progbits
 1963              		.align	2
 1964              		.p2align 4,,15
 1965              		.global	tcp_send_empty_ack
ARM GAS  C:\Users\Luis\AppData\Local\Temp\cc4eIE9x.s 			page 37


 1966              		.thumb
 1967              		.thumb_func
 1968              		.type	tcp_send_empty_ack, %function
 1969              	tcp_send_empty_ack:
 1970              	.LFB267:
 1971              		.loc 2 843 0
 1972              		.cfi_startproc
 1973              		@ args = 0, pretend = 0, frame = 24
 1974              		@ frame_needed = 1, uses_anonymous_args = 0
 1975 0000 90B5     		push	{r4, r7, lr}
 1976              		.cfi_def_cfa_offset 12
 1977              		.cfi_offset 4, -12
 1978              		.cfi_offset 7, -8
 1979              		.cfi_offset 14, -4
 1980 0002 89B0     		sub	sp, sp, #36
 1981              		.cfi_def_cfa_offset 48
 1982 0004 02AF     		add	r7, sp, #8
 1983              		.cfi_def_cfa 7, 40
 1984 0006 7860     		str	r0, [r7, #4]
 1985              		.loc 2 846 0
 1986 0008 0023     		movs	r3, #0
 1987 000a FB75     		strb	r3, [r7, #23]
 1988              		.loc 2 854 0
 1989 000c FB7D     		ldrb	r3, [r7, #23]	@ zero_extendqisi2
 1990 000e 9CB2     		uxth	r4, r3
 1991 0010 7B68     		ldr	r3, [r7, #4]
 1992 0012 1B6D     		ldr	r3, [r3, #80]
 1993 0014 1846     		mov	r0, r3
 1994 0016 FFF7FEFF 		bl	lwip_htonl
 1995 001a 0346     		mov	r3, r0
 1996 001c 7868     		ldr	r0, [r7, #4]
 1997 001e 2146     		mov	r1, r4
 1998 0020 0022     		movs	r2, #0
 1999 0022 FFF7FEFF 		bl	tcp_output_alloc_header
 2000 0026 3861     		str	r0, [r7, #16]
 2001              		.loc 2 855 0
 2002 0028 3B69     		ldr	r3, [r7, #16]
 2003 002a 002B     		cmp	r3, #0
 2004 002c 01D1     		bne	.L125
 2005              		.loc 2 857 0
 2006 002e FE23     		movs	r3, #254
 2007 0030 2AE0     		b	.L126
 2008              	.L125:
 2009              		.loc 2 859 0
 2010 0032 3B69     		ldr	r3, [r7, #16]
 2011 0034 5B68     		ldr	r3, [r3, #4]
 2012 0036 FB60     		str	r3, [r7, #12]
 2013              		.loc 2 863 0
 2014 0038 7B68     		ldr	r3, [r7, #4]
 2015 003a 9B7F     		ldrb	r3, [r3, #30]	@ zero_extendqisi2
 2016 003c 23F00303 		bic	r3, r3, #3
 2017 0040 DAB2     		uxtb	r2, r3
 2018 0042 7B68     		ldr	r3, [r7, #4]
 2019 0044 9A77     		strb	r2, [r3, #30]
 2020              		.loc 2 875 0
 2021 0046 7A68     		ldr	r2, [r7, #4]
 2022 0048 7B68     		ldr	r3, [r7, #4]
ARM GAS  C:\Users\Luis\AppData\Local\Temp\cc4eIE9x.s 			page 38


 2023 004a 0433     		adds	r3, r3, #4
 2024 004c 3969     		ldr	r1, [r7, #16]
 2025 004e 0989     		ldrh	r1, [r1, #8]
 2026 0050 0091     		str	r1, [sp]
 2027 0052 3869     		ldr	r0, [r7, #16]
 2028 0054 1146     		mov	r1, r2
 2029 0056 1A46     		mov	r2, r3
 2030 0058 0623     		movs	r3, #6
 2031 005a FFF7FEFF 		bl	inet_chksum_pseudo
 2032 005e 0346     		mov	r3, r0
 2033 0060 1A46     		mov	r2, r3
 2034 0062 FB68     		ldr	r3, [r7, #12]
 2035 0064 1A82     		strh	r2, [r3, #16]	@ unaligned
 2036              		.loc 2 882 0
 2037 0066 7968     		ldr	r1, [r7, #4]
 2038 0068 7B68     		ldr	r3, [r7, #4]
 2039 006a 1A1D     		adds	r2, r3, #4
 2040 006c 7B68     		ldr	r3, [r7, #4]
 2041 006e 9B7A     		ldrb	r3, [r3, #10]	@ zero_extendqisi2
 2042 0070 7868     		ldr	r0, [r7, #4]
 2043 0072 407A     		ldrb	r0, [r0, #9]	@ zero_extendqisi2
 2044 0074 0090     		str	r0, [sp]
 2045 0076 0620     		movs	r0, #6
 2046 0078 0190     		str	r0, [sp, #4]
 2047 007a 3869     		ldr	r0, [r7, #16]
 2048 007c FFF7FEFF 		bl	ip_output
 2049              		.loc 2 885 0
 2050 0080 3869     		ldr	r0, [r7, #16]
 2051 0082 FFF7FEFF 		bl	pbuf_free
 2052              		.loc 2 887 0
 2053 0086 0023     		movs	r3, #0
 2054              	.L126:
 2055 0088 5BB2     		sxtb	r3, r3
 2056              		.loc 2 888 0
 2057 008a 1846     		mov	r0, r3
 2058 008c 1C37     		adds	r7, r7, #28
 2059 008e BD46     		mov	sp, r7
 2060              		@ sp needed
 2061 0090 90BD     		pop	{r4, r7, pc}
 2062              		.cfi_endproc
 2063              	.LFE267:
 2064              		.size	tcp_send_empty_ack, .-tcp_send_empty_ack
 2065 0092 00BFAFF3 		.section	.rodata
 2065      0080AFF3 
 2065      0080AFF3 
 2065      0080
 2066              		.align	2
 2067              	.LC18:
 2068 0314 646F6E27 		.ascii	"don't call tcp_output for listen-pcbs\000"
 2068      74206361 
 2068      6C6C2074 
 2068      63705F6F 
 2068      75747075 
 2069 033a 0000     		.align	2
 2070              	.LC19:
 2071 033c 52535420 		.ascii	"RST not expected here!\000"
 2071      6E6F7420 
ARM GAS  C:\Users\Luis\AppData\Local\Temp\cc4eIE9x.s 			page 39


 2071      65787065 
 2071      63746564 
 2071      20686572 
 2072 0353 00       		.section	.text.tcp_output,"ax",%progbits
 2073              		.align	2
 2074              		.p2align 4,,15
 2075              		.global	tcp_output
 2076              		.thumb
 2077              		.thumb_func
 2078              		.type	tcp_output, %function
 2079              	tcp_output:
 2080              	.LFB268:
 2081              		.loc 2 899 0
 2082              		.cfi_startproc
 2083              		@ args = 0, pretend = 0, frame = 32
 2084              		@ frame_needed = 1, uses_anonymous_args = 0
 2085 0000 B0B5     		push	{r4, r5, r7, lr}
 2086              		.cfi_def_cfa_offset 16
 2087              		.cfi_offset 4, -16
 2088              		.cfi_offset 5, -12
 2089              		.cfi_offset 7, -8
 2090              		.cfi_offset 14, -4
 2091 0002 88B0     		sub	sp, sp, #32
 2092              		.cfi_def_cfa_offset 48
 2093 0004 00AF     		add	r7, sp, #0
 2094              		.cfi_def_cfa_register 7
 2095 0006 7860     		str	r0, [r7, #4]
 2096              		.loc 2 907 0
 2097 0008 7B68     		ldr	r3, [r7, #4]
 2098 000a 1B7E     		ldrb	r3, [r3, #24]	@ zero_extendqisi2
 2099 000c 012B     		cmp	r3, #1
 2100 000e 02D1     		bne	.L128
 2101              		.loc 2 907 0 is_stmt 0 discriminator 1
 2102 0010 9348     		ldr	r0, .L156
 2103 0012 FFF7FEFF 		bl	osalSysHalt
 2104              	.L128:
 2105              		.loc 2 914 0 is_stmt 1
 2106 0016 934B     		ldr	r3, .L156+4
 2107 0018 1A68     		ldr	r2, [r3]
 2108 001a 7B68     		ldr	r3, [r7, #4]
 2109 001c 9A42     		cmp	r2, r3
 2110 001e 01D1     		bne	.L129
 2111              		.loc 2 915 0
 2112 0020 0023     		movs	r3, #0
 2113 0022 4DE1     		b	.L130
 2114              	.L129:
 2115              		.loc 2 918 0
 2116 0024 7B68     		ldr	r3, [r7, #4]
 2117 0026 B3F84C20 		ldrh	r2, [r3, #76]
 2118 002a 7B68     		ldr	r3, [r7, #4]
 2119 002c B3F86030 		ldrh	r3, [r3, #96]
 2120 0030 9A42     		cmp	r2, r3
 2121 0032 38BF     		it	cc
 2122 0034 1346     		movcc	r3, r2
 2123 0036 9BB2     		uxth	r3, r3
 2124 0038 3B61     		str	r3, [r7, #16]
 2125              		.loc 2 920 0
ARM GAS  C:\Users\Luis\AppData\Local\Temp\cc4eIE9x.s 			page 40


 2126 003a 7B68     		ldr	r3, [r7, #4]
 2127 003c DB6E     		ldr	r3, [r3, #108]
 2128 003e FB61     		str	r3, [r7, #28]
 2129              		.loc 2 928 0
 2130 0040 7B68     		ldr	r3, [r7, #4]
 2131 0042 9B7F     		ldrb	r3, [r3, #30]	@ zero_extendqisi2
 2132 0044 03F00203 		and	r3, r3, #2
 2133 0048 002B     		cmp	r3, #0
 2134 004a 17D0     		beq	.L131
 2135              		.loc 2 928 0 is_stmt 0 discriminator 1
 2136 004c FB69     		ldr	r3, [r7, #28]
 2137 004e 002B     		cmp	r3, #0
 2138 0050 0FD0     		beq	.L132
 2139              		.loc 2 930 0 is_stmt 1
 2140 0052 FB69     		ldr	r3, [r7, #28]
 2141 0054 DB68     		ldr	r3, [r3, #12]
 2142 0056 5B68     		ldr	r3, [r3, #4]	@ unaligned
 2143 0058 1846     		mov	r0, r3
 2144 005a FFF7FEFF 		bl	lwip_ntohl
 2145 005e 0246     		mov	r2, r0
 2146 0060 7B68     		ldr	r3, [r7, #4]
 2147 0062 9B6C     		ldr	r3, [r3, #72]
 2148 0064 D21A     		subs	r2, r2, r3
 2149 0066 FB69     		ldr	r3, [r7, #28]
 2150 0068 1B89     		ldrh	r3, [r3, #8]
 2151 006a 1A44     		add	r2, r2, r3
 2152              		.loc 2 929 0
 2153 006c 3B69     		ldr	r3, [r7, #16]
 2154 006e 9A42     		cmp	r2, r3
 2155 0070 04D9     		bls	.L131
 2156              	.L132:
 2157              		.loc 2 931 0
 2158 0072 7868     		ldr	r0, [r7, #4]
 2159 0074 FFF7FEFF 		bl	tcp_send_empty_ack
 2160 0078 0346     		mov	r3, r0
 2161 007a 21E1     		b	.L130
 2162              	.L131:
 2163              		.loc 2 935 0
 2164 007c 7B68     		ldr	r3, [r7, #4]
 2165 007e 1B6F     		ldr	r3, [r3, #112]
 2166 0080 BB61     		str	r3, [r7, #24]
 2167              		.loc 2 936 0
 2168 0082 BB69     		ldr	r3, [r7, #24]
 2169 0084 002B     		cmp	r3, #0
 2170 0086 07D0     		beq	.L133
 2171              		.loc 2 937 0
 2172 0088 02E0     		b	.L134
 2173              	.L135:
 2174              		.loc 2 937 0 is_stmt 0 discriminator 2
 2175 008a BB69     		ldr	r3, [r7, #24]
 2176 008c 1B68     		ldr	r3, [r3]
 2177 008e BB61     		str	r3, [r7, #24]
 2178              	.L134:
 2179              		.loc 2 937 0 discriminator 1
 2180 0090 BB69     		ldr	r3, [r7, #24]
 2181 0092 1B68     		ldr	r3, [r3]
 2182 0094 002B     		cmp	r3, #0
ARM GAS  C:\Users\Luis\AppData\Local\Temp\cc4eIE9x.s 			page 41


 2183 0096 F8D1     		bne	.L135
 2184              	.L133:
 2185              		.loc 2 962 0 is_stmt 1
 2186 0098 EEE0     		b	.L136
 2187              	.L154:
 2188              		.loc 2 964 0
 2189 009a FB69     		ldr	r3, [r7, #28]
 2190 009c DB68     		ldr	r3, [r3, #12]
 2191 009e 9B89     		ldrh	r3, [r3, #12]	@ unaligned
 2192 00a0 9BB2     		uxth	r3, r3
 2193 00a2 1846     		mov	r0, r3
 2194 00a4 FFF7FEFF 		bl	lwip_ntohs
 2195 00a8 0346     		mov	r3, r0
 2196 00aa 03F00403 		and	r3, r3, #4
 2197 00ae 002B     		cmp	r3, #0
 2198 00b0 02D0     		beq	.L137
 2199              		.loc 2 964 0 is_stmt 0 discriminator 1
 2200 00b2 6D48     		ldr	r0, .L156+8
 2201 00b4 FFF7FEFF 		bl	osalSysHalt
 2202              	.L137:
 2203              		.loc 2 973 0 is_stmt 1
 2204 00b8 7B68     		ldr	r3, [r7, #4]
 2205 00ba 1B6F     		ldr	r3, [r3, #112]
 2206 00bc 002B     		cmp	r3, #0
 2207 00be 1FD0     		beq	.L138
 2208              		.loc 2 973 0 is_stmt 0 discriminator 2
 2209 00c0 7B68     		ldr	r3, [r7, #4]
 2210 00c2 9B7F     		ldrb	r3, [r3, #30]	@ zero_extendqisi2
 2211 00c4 03F04403 		and	r3, r3, #68
 2212 00c8 002B     		cmp	r3, #0
 2213 00ca 19D1     		bne	.L138
 2214              		.loc 2 973 0 discriminator 1
 2215 00cc 7B68     		ldr	r3, [r7, #4]
 2216 00ce DB6E     		ldr	r3, [r3, #108]
 2217 00d0 002B     		cmp	r3, #0
 2218 00d2 0BD0     		beq	.L139
 2219 00d4 7B68     		ldr	r3, [r7, #4]
 2220 00d6 DB6E     		ldr	r3, [r3, #108]
 2221 00d8 1B68     		ldr	r3, [r3]
 2222 00da 002B     		cmp	r3, #0
 2223 00dc 10D1     		bne	.L138
 2224 00de 7B68     		ldr	r3, [r7, #4]
 2225 00e0 DB6E     		ldr	r3, [r3, #108]
 2226 00e2 1A89     		ldrh	r2, [r3, #8]
 2227 00e4 7B68     		ldr	r3, [r7, #4]
 2228 00e6 DB8E     		ldrh	r3, [r3, #54]
 2229 00e8 9A42     		cmp	r2, r3
 2230 00ea 09D2     		bcs	.L138
 2231              	.L139:
 2232              		.loc 2 973 0 discriminator 2
 2233 00ec 7B68     		ldr	r3, [r7, #4]
 2234 00ee B3F86630 		ldrh	r3, [r3, #102]
 2235 00f2 002B     		cmp	r3, #0
 2236 00f4 04D0     		beq	.L138
 2237              		.loc 2 973 0 discriminator 3
 2238 00f6 7B68     		ldr	r3, [r7, #4]
 2239 00f8 B3F86830 		ldrh	r3, [r3, #104]
ARM GAS  C:\Users\Luis\AppData\Local\Temp\cc4eIE9x.s 			page 42


 2240 00fc 072B     		cmp	r3, #7
 2241 00fe 01D9     		bls	.L140
 2242              	.L138:
 2243              		.loc 2 973 0 discriminator 1
 2244 0100 0123     		movs	r3, #1
 2245 0102 00E0     		b	.L141
 2246              	.L140:
 2247 0104 0023     		movs	r3, #0
 2248              	.L141:
 2249              		.loc 2 973 0 discriminator 4
 2250 0106 002B     		cmp	r3, #0
 2251 0108 06D1     		bne	.L142
 2252              		.loc 2 974 0 is_stmt 1 discriminator 1
 2253 010a 7B68     		ldr	r3, [r7, #4]
 2254 010c 9B7F     		ldrb	r3, [r3, #30]	@ zero_extendqisi2
 2255 010e 03F0A003 		and	r3, r3, #160
 2256              		.loc 2 973 0 discriminator 1
 2257 0112 002B     		cmp	r3, #0
 2258 0114 00D1     		bne	.L142
 2259              		.loc 2 975 0
 2260 0116 C3E0     		b	.L143
 2261              	.L142:
 2262              		.loc 2 986 0
 2263 0118 FB69     		ldr	r3, [r7, #28]
 2264 011a 1A68     		ldr	r2, [r3]
 2265 011c 7B68     		ldr	r3, [r7, #4]
 2266 011e DA66     		str	r2, [r3, #108]
 2267              		.loc 2 988 0
 2268 0120 7B68     		ldr	r3, [r7, #4]
 2269 0122 1B7E     		ldrb	r3, [r3, #24]	@ zero_extendqisi2
 2270 0124 022B     		cmp	r3, #2
 2271 0126 13D0     		beq	.L144
 2272              		.loc 2 989 0
 2273 0128 FB69     		ldr	r3, [r7, #28]
 2274 012a DC68     		ldr	r4, [r3, #12]
 2275 012c FB69     		ldr	r3, [r7, #28]
 2276 012e DB68     		ldr	r3, [r3, #12]
 2277 0130 9B89     		ldrh	r3, [r3, #12]	@ unaligned
 2278 0132 9DB2     		uxth	r5, r3
 2279 0134 1020     		movs	r0, #16
 2280 0136 FFF7FEFF 		bl	lwip_htons
 2281 013a 0346     		mov	r3, r0
 2282 013c 2B43     		orrs	r3, r3, r5
 2283 013e 9BB2     		uxth	r3, r3
 2284 0140 A381     		strh	r3, [r4, #12]	@ unaligned
 2285              		.loc 2 990 0
 2286 0142 7B68     		ldr	r3, [r7, #4]
 2287 0144 9B7F     		ldrb	r3, [r3, #30]	@ zero_extendqisi2
 2288 0146 23F00303 		bic	r3, r3, #3
 2289 014a DAB2     		uxtb	r2, r3
 2290 014c 7B68     		ldr	r3, [r7, #4]
 2291 014e 9A77     		strb	r2, [r3, #30]
 2292              	.L144:
 2293              		.loc 2 993 0
 2294 0150 F869     		ldr	r0, [r7, #28]
 2295 0152 7968     		ldr	r1, [r7, #4]
 2296 0154 FFF7FEFF 		bl	tcp_output_segment
ARM GAS  C:\Users\Luis\AppData\Local\Temp\cc4eIE9x.s 			page 43


 2297              		.loc 2 994 0
 2298 0158 FB69     		ldr	r3, [r7, #28]
 2299 015a DB68     		ldr	r3, [r3, #12]
 2300 015c 5B68     		ldr	r3, [r3, #4]	@ unaligned
 2301 015e 1846     		mov	r0, r3
 2302 0160 FFF7FEFF 		bl	lwip_ntohl
 2303 0164 0446     		mov	r4, r0
 2304 0166 FB69     		ldr	r3, [r7, #28]
 2305 0168 1B89     		ldrh	r3, [r3, #8]
 2306 016a 1D46     		mov	r5, r3
 2307 016c FB69     		ldr	r3, [r7, #28]
 2308 016e DB68     		ldr	r3, [r3, #12]
 2309 0170 9B89     		ldrh	r3, [r3, #12]	@ unaligned
 2310 0172 9BB2     		uxth	r3, r3
 2311 0174 1846     		mov	r0, r3
 2312 0176 FFF7FEFF 		bl	lwip_ntohs
 2313 017a 0346     		mov	r3, r0
 2314 017c 03F00303 		and	r3, r3, #3
 2315 0180 002B     		cmp	r3, #0
 2316 0182 0CBF     		ite	eq
 2317 0184 0023     		moveq	r3, #0
 2318 0186 0123     		movne	r3, #1
 2319 0188 DBB2     		uxtb	r3, r3
 2320 018a 2B44     		add	r3, r3, r5
 2321 018c 2344     		add	r3, r3, r4
 2322 018e FB60     		str	r3, [r7, #12]
 2323              		.loc 2 995 0
 2324 0190 7B68     		ldr	r3, [r7, #4]
 2325 0192 1A6D     		ldr	r2, [r3, #80]
 2326 0194 FB68     		ldr	r3, [r7, #12]
 2327 0196 D31A     		subs	r3, r2, r3
 2328 0198 002B     		cmp	r3, #0
 2329 019a 02DA     		bge	.L145
 2330              		.loc 2 996 0
 2331 019c 7B68     		ldr	r3, [r7, #4]
 2332 019e FA68     		ldr	r2, [r7, #12]
 2333 01a0 1A65     		str	r2, [r3, #80]
 2334              	.L145:
 2335              		.loc 2 999 0
 2336 01a2 FB69     		ldr	r3, [r7, #28]
 2337 01a4 1B89     		ldrh	r3, [r3, #8]
 2338 01a6 1C46     		mov	r4, r3
 2339 01a8 FB69     		ldr	r3, [r7, #28]
 2340 01aa DB68     		ldr	r3, [r3, #12]
 2341 01ac 9B89     		ldrh	r3, [r3, #12]	@ unaligned
 2342 01ae 9BB2     		uxth	r3, r3
 2343 01b0 1846     		mov	r0, r3
 2344 01b2 FFF7FEFF 		bl	lwip_ntohs
 2345 01b6 0346     		mov	r3, r0
 2346 01b8 03F00303 		and	r3, r3, #3
 2347 01bc 002B     		cmp	r3, #0
 2348 01be 0CBF     		ite	eq
 2349 01c0 0023     		moveq	r3, #0
 2350 01c2 0123     		movne	r3, #1
 2351 01c4 DBB2     		uxtb	r3, r3
 2352 01c6 2344     		add	r3, r3, r4
 2353 01c8 002B     		cmp	r3, #0
ARM GAS  C:\Users\Luis\AppData\Local\Temp\cc4eIE9x.s 			page 44


 2354 01ca 4FDD     		ble	.L146
 2355              		.loc 2 1000 0
 2356 01cc FB69     		ldr	r3, [r7, #28]
 2357 01ce 0022     		movs	r2, #0
 2358 01d0 1A60     		str	r2, [r3]
 2359              		.loc 2 1002 0
 2360 01d2 7B68     		ldr	r3, [r7, #4]
 2361 01d4 1B6F     		ldr	r3, [r3, #112]
 2362 01d6 002B     		cmp	r3, #0
 2363 01d8 05D1     		bne	.L147
 2364              		.loc 2 1003 0
 2365 01da 7B68     		ldr	r3, [r7, #4]
 2366 01dc FA69     		ldr	r2, [r7, #28]
 2367 01de 1A67     		str	r2, [r3, #112]
 2368              		.loc 2 1004 0
 2369 01e0 FB69     		ldr	r3, [r7, #28]
 2370 01e2 BB61     		str	r3, [r7, #24]
 2371 01e4 45E0     		b	.L153
 2372              	.L147:
 2373              		.loc 2 1010 0
 2374 01e6 FB69     		ldr	r3, [r7, #28]
 2375 01e8 DB68     		ldr	r3, [r3, #12]
 2376 01ea 5B68     		ldr	r3, [r3, #4]	@ unaligned
 2377 01ec 1846     		mov	r0, r3
 2378 01ee FFF7FEFF 		bl	lwip_ntohl
 2379 01f2 0446     		mov	r4, r0
 2380 01f4 BB69     		ldr	r3, [r7, #24]
 2381 01f6 DB68     		ldr	r3, [r3, #12]
 2382 01f8 5B68     		ldr	r3, [r3, #4]	@ unaligned
 2383 01fa 1846     		mov	r0, r3
 2384 01fc FFF7FEFF 		bl	lwip_ntohl
 2385 0200 0346     		mov	r3, r0
 2386 0202 E31A     		subs	r3, r4, r3
 2387 0204 002B     		cmp	r3, #0
 2388 0206 24DA     		bge	.L149
 2389              	.LBB9:
 2390              		.loc 2 1012 0
 2391 0208 7B68     		ldr	r3, [r7, #4]
 2392 020a 7033     		adds	r3, r3, #112
 2393 020c 7B61     		str	r3, [r7, #20]
 2394              		.loc 2 1013 0
 2395 020e 02E0     		b	.L150
 2396              	.L152:
 2397              		.loc 2 1015 0
 2398 0210 7B69     		ldr	r3, [r7, #20]
 2399 0212 1B68     		ldr	r3, [r3]
 2400 0214 7B61     		str	r3, [r7, #20]
 2401              	.L150:
 2402              		.loc 2 1013 0 discriminator 1
 2403 0216 7B69     		ldr	r3, [r7, #20]
 2404 0218 1B68     		ldr	r3, [r3]
 2405 021a 002B     		cmp	r3, #0
 2406 021c 11D0     		beq	.L151
 2407              		.loc 2 1014 0 discriminator 2
 2408 021e 7B69     		ldr	r3, [r7, #20]
 2409 0220 1B68     		ldr	r3, [r3]
 2410 0222 DB68     		ldr	r3, [r3, #12]
ARM GAS  C:\Users\Luis\AppData\Local\Temp\cc4eIE9x.s 			page 45


 2411 0224 5B68     		ldr	r3, [r3, #4]	@ unaligned
 2412 0226 1846     		mov	r0, r3
 2413 0228 FFF7FEFF 		bl	lwip_ntohl
 2414 022c 0446     		mov	r4, r0
 2415 022e FB69     		ldr	r3, [r7, #28]
 2416 0230 DB68     		ldr	r3, [r3, #12]
 2417 0232 5B68     		ldr	r3, [r3, #4]	@ unaligned
 2418 0234 1846     		mov	r0, r3
 2419 0236 FFF7FEFF 		bl	lwip_ntohl
 2420 023a 0346     		mov	r3, r0
 2421 023c E31A     		subs	r3, r4, r3
 2422              		.loc 2 1013 0 discriminator 2
 2423 023e 002B     		cmp	r3, #0
 2424 0240 E6DB     		blt	.L152
 2425              	.L151:
 2426              		.loc 2 1017 0
 2427 0242 7B69     		ldr	r3, [r7, #20]
 2428 0244 1A68     		ldr	r2, [r3]
 2429 0246 FB69     		ldr	r3, [r7, #28]
 2430 0248 1A60     		str	r2, [r3]
 2431              		.loc 2 1018 0
 2432 024a 7B69     		ldr	r3, [r7, #20]
 2433 024c FA69     		ldr	r2, [r7, #28]
 2434 024e 1A60     		str	r2, [r3]
 2435              	.LBE9:
 2436 0250 0FE0     		b	.L153
 2437              	.L149:
 2438              		.loc 2 1021 0
 2439 0252 BB69     		ldr	r3, [r7, #24]
 2440 0254 FA69     		ldr	r2, [r7, #28]
 2441 0256 1A60     		str	r2, [r3]
 2442              		.loc 2 1022 0
 2443 0258 BB69     		ldr	r3, [r7, #24]
 2444 025a 1B68     		ldr	r3, [r3]
 2445 025c BB61     		str	r3, [r7, #24]
 2446 025e 08E0     		b	.L153
 2447              	.L157:
 2448              		.align	2
 2449              	.L156:
 2450 0260 14030000 		.word	.LC18
 2451 0264 00000000 		.word	tcp_input_pcb
 2452 0268 3C030000 		.word	.LC19
 2453              	.L146:
 2454              		.loc 2 1027 0
 2455 026c F869     		ldr	r0, [r7, #28]
 2456 026e FFF7FEFF 		bl	tcp_seg_free
 2457              	.L153:
 2458              		.loc 2 1029 0
 2459 0272 7B68     		ldr	r3, [r7, #4]
 2460 0274 DB6E     		ldr	r3, [r3, #108]
 2461 0276 FB61     		str	r3, [r7, #28]
 2462              	.L136:
 2463              		.loc 2 962 0 discriminator 1
 2464 0278 FB69     		ldr	r3, [r7, #28]
 2465 027a 002B     		cmp	r3, #0
 2466 027c 10D0     		beq	.L143
 2467              		.loc 2 963 0 discriminator 2
ARM GAS  C:\Users\Luis\AppData\Local\Temp\cc4eIE9x.s 			page 46


 2468 027e FB69     		ldr	r3, [r7, #28]
 2469 0280 DB68     		ldr	r3, [r3, #12]
 2470 0282 5B68     		ldr	r3, [r3, #4]	@ unaligned
 2471 0284 1846     		mov	r0, r3
 2472 0286 FFF7FEFF 		bl	lwip_ntohl
 2473 028a 0246     		mov	r2, r0
 2474 028c 7B68     		ldr	r3, [r7, #4]
 2475 028e 9B6C     		ldr	r3, [r3, #72]
 2476 0290 D21A     		subs	r2, r2, r3
 2477 0292 FB69     		ldr	r3, [r7, #28]
 2478 0294 1B89     		ldrh	r3, [r3, #8]
 2479 0296 1A44     		add	r2, r2, r3
 2480              		.loc 2 962 0 discriminator 2
 2481 0298 3B69     		ldr	r3, [r7, #16]
 2482 029a 9A42     		cmp	r2, r3
 2483 029c 7FF6FDAE 		bls	.L154
 2484              	.L143:
 2485              		.loc 2 1032 0
 2486 02a0 7B68     		ldr	r3, [r7, #4]
 2487 02a2 DB6E     		ldr	r3, [r3, #108]
 2488 02a4 002B     		cmp	r3, #0
 2489 02a6 03D1     		bne	.L155
 2490              		.loc 2 1034 0
 2491 02a8 7B68     		ldr	r3, [r7, #4]
 2492 02aa 0022     		movs	r2, #0
 2493 02ac A3F86A20 		strh	r2, [r3, #106]	@ movhi
 2494              	.L155:
 2495              		.loc 2 1038 0
 2496 02b0 7B68     		ldr	r3, [r7, #4]
 2497 02b2 9B7F     		ldrb	r3, [r3, #30]	@ zero_extendqisi2
 2498 02b4 03F07F03 		and	r3, r3, #127
 2499 02b8 DAB2     		uxtb	r2, r3
 2500 02ba 7B68     		ldr	r3, [r7, #4]
 2501 02bc 9A77     		strb	r2, [r3, #30]
 2502              		.loc 2 1039 0
 2503 02be 0023     		movs	r3, #0
 2504              	.L130:
 2505 02c0 5BB2     		sxtb	r3, r3
 2506              		.loc 2 1040 0
 2507 02c2 1846     		mov	r0, r3
 2508 02c4 2037     		adds	r7, r7, #32
 2509 02c6 BD46     		mov	sp, r7
 2510              		@ sp needed
 2511 02c8 B0BD     		pop	{r4, r5, r7, pc}
 2512              		.cfi_endproc
 2513              	.LFE268:
 2514              		.size	tcp_output, .-tcp_output
 2515 02ca 00BFAFF3 		.section	.text.tcp_output_segment,"ax",%progbits
 2515      0080
 2516              		.align	2
 2517              		.p2align 4,,15
 2518              		.thumb
 2519              		.thumb_func
 2520              		.type	tcp_output_segment, %function
 2521              	tcp_output_segment:
 2522              	.LFB269:
 2523              		.loc 2 1050 0
ARM GAS  C:\Users\Luis\AppData\Local\Temp\cc4eIE9x.s 			page 47


 2524              		.cfi_startproc
 2525              		@ args = 0, pretend = 0, frame = 24
 2526              		@ frame_needed = 1, uses_anonymous_args = 0
 2527 0000 90B5     		push	{r4, r7, lr}
 2528              		.cfi_def_cfa_offset 12
 2529              		.cfi_offset 4, -12
 2530              		.cfi_offset 7, -8
 2531              		.cfi_offset 14, -4
 2532 0002 89B0     		sub	sp, sp, #36
 2533              		.cfi_def_cfa_offset 48
 2534 0004 02AF     		add	r7, sp, #8
 2535              		.cfi_def_cfa 7, 40
 2536 0006 7860     		str	r0, [r7, #4]
 2537 0008 3960     		str	r1, [r7]
 2538              		.loc 2 1060 0
 2539 000a 7B68     		ldr	r3, [r7, #4]
 2540 000c DC68     		ldr	r4, [r3, #12]
 2541 000e 3B68     		ldr	r3, [r7]
 2542 0010 9B6A     		ldr	r3, [r3, #40]
 2543 0012 1846     		mov	r0, r3
 2544 0014 FFF7FEFF 		bl	lwip_htonl
 2545 0018 0346     		mov	r3, r0
 2546 001a A360     		str	r3, [r4, #8]	@ unaligned
 2547              		.loc 2 1063 0
 2548 001c 7B68     		ldr	r3, [r7, #4]
 2549 001e DC68     		ldr	r4, [r3, #12]
 2550 0020 3B68     		ldr	r3, [r7]
 2551 0022 DB8D     		ldrh	r3, [r3, #46]
 2552 0024 1846     		mov	r0, r3
 2553 0026 FFF7FEFF 		bl	lwip_htons
 2554 002a 0346     		mov	r3, r0
 2555 002c E381     		strh	r3, [r4, #14]	@ unaligned
 2556              		.loc 2 1065 0
 2557 002e 3B68     		ldr	r3, [r7]
 2558 0030 9A6A     		ldr	r2, [r3, #40]
 2559 0032 3B68     		ldr	r3, [r7]
 2560 0034 DB8D     		ldrh	r3, [r3, #46]
 2561 0036 1A44     		add	r2, r2, r3
 2562 0038 3B68     		ldr	r3, [r7]
 2563 003a 1A63     		str	r2, [r3, #48]
 2564              		.loc 2 1069 0
 2565 003c 7B68     		ldr	r3, [r7, #4]
 2566 003e DB68     		ldr	r3, [r3, #12]
 2567 0040 1433     		adds	r3, r3, #20
 2568 0042 7B61     		str	r3, [r7, #20]
 2569              		.loc 2 1070 0
 2570 0044 7B68     		ldr	r3, [r7, #4]
 2571 0046 9B7A     		ldrb	r3, [r3, #10]	@ zero_extendqisi2
 2572 0048 03F00103 		and	r3, r3, #1
 2573 004c 002B     		cmp	r3, #0
 2574 004e 14D0     		beq	.L159
 2575              	.LBB10:
 2576              		.loc 2 1073 0
 2577 0050 3B68     		ldr	r3, [r7]
 2578 0052 0433     		adds	r3, r3, #4
 2579 0054 4FF40670 		mov	r0, #536
 2580 0058 1946     		mov	r1, r3
ARM GAS  C:\Users\Luis\AppData\Local\Temp\cc4eIE9x.s 			page 48


 2581 005a FFF7FEFF 		bl	tcp_eff_send_mss
 2582 005e 0346     		mov	r3, r0
 2583 0060 7B82     		strh	r3, [r7, #18]	@ movhi
 2584              		.loc 2 1077 0
 2585 0062 7B8A     		ldrh	r3, [r7, #18]
 2586 0064 43F00173 		orr	r3, r3, #33816576
 2587 0068 1846     		mov	r0, r3
 2588 006a FFF7FEFF 		bl	lwip_htonl
 2589 006e 0246     		mov	r2, r0
 2590 0070 7B69     		ldr	r3, [r7, #20]
 2591 0072 1A60     		str	r2, [r3]
 2592              		.loc 2 1078 0
 2593 0074 7B69     		ldr	r3, [r7, #20]
 2594 0076 0433     		adds	r3, r3, #4
 2595 0078 7B61     		str	r3, [r7, #20]
 2596              	.L159:
 2597              	.LBE10:
 2598              		.loc 2 1091 0
 2599 007a 3B68     		ldr	r3, [r7]
 2600 007c 9B8E     		ldrh	r3, [r3, #52]
 2601 007e 1BB2     		sxth	r3, r3
 2602 0080 B3F1FF3F 		cmp	r3, #-1
 2603 0084 02D1     		bne	.L160
 2604              		.loc 2 1092 0
 2605 0086 3B68     		ldr	r3, [r7]
 2606 0088 0022     		movs	r2, #0
 2607 008a 9A86     		strh	r2, [r3, #52]	@ movhi
 2608              	.L160:
 2609              		.loc 2 1097 0
 2610 008c 3B68     		ldr	r3, [r7]
 2611 008e 002B     		cmp	r3, #0
 2612 0090 03D0     		beq	.L161
 2613              		.loc 2 1097 0 is_stmt 0 discriminator 1
 2614 0092 3B68     		ldr	r3, [r7]
 2615 0094 1B68     		ldr	r3, [r3]
 2616 0096 002B     		cmp	r3, #0
 2617 0098 0DD1     		bne	.L162
 2618              	.L161:
 2619              		.loc 2 1098 0 is_stmt 1
 2620 009a 3B68     		ldr	r3, [r7]
 2621 009c 0433     		adds	r3, r3, #4
 2622 009e 1846     		mov	r0, r3
 2623 00a0 FFF7FEFF 		bl	ip_route
 2624 00a4 F860     		str	r0, [r7, #12]
 2625              		.loc 2 1099 0
 2626 00a6 FB68     		ldr	r3, [r7, #12]
 2627 00a8 002B     		cmp	r3, #0
 2628 00aa 00D1     		bne	.L163
 2629              		.loc 2 1100 0
 2630 00ac 62E0     		b	.L158
 2631              	.L163:
 2632              		.loc 2 1102 0
 2633 00ae FB68     		ldr	r3, [r7, #12]
 2634 00b0 5A68     		ldr	r2, [r3, #4]
 2635 00b2 3B68     		ldr	r3, [r7]
 2636 00b4 1A60     		str	r2, [r3]
 2637              	.L162:
ARM GAS  C:\Users\Luis\AppData\Local\Temp\cc4eIE9x.s 			page 49


 2638              		.loc 2 1105 0
 2639 00b6 3B68     		ldr	r3, [r7]
 2640 00b8 9B6B     		ldr	r3, [r3, #56]
 2641 00ba 002B     		cmp	r3, #0
 2642 00bc 0CD1     		bne	.L165
 2643              		.loc 2 1106 0
 2644 00be 2F4B     		ldr	r3, .L166
 2645 00c0 1A68     		ldr	r2, [r3]
 2646 00c2 3B68     		ldr	r3, [r7]
 2647 00c4 9A63     		str	r2, [r3, #56]
 2648              		.loc 2 1107 0
 2649 00c6 7B68     		ldr	r3, [r7, #4]
 2650 00c8 DB68     		ldr	r3, [r3, #12]
 2651 00ca 5B68     		ldr	r3, [r3, #4]	@ unaligned
 2652 00cc 1846     		mov	r0, r3
 2653 00ce FFF7FEFF 		bl	lwip_ntohl
 2654 00d2 0246     		mov	r2, r0
 2655 00d4 3B68     		ldr	r3, [r7]
 2656 00d6 DA63     		str	r2, [r3, #60]
 2657              	.L165:
 2658              		.loc 2 1115 0
 2659 00d8 7B68     		ldr	r3, [r7, #4]
 2660 00da DB68     		ldr	r3, [r3, #12]
 2661 00dc 1A46     		mov	r2, r3
 2662 00de 7B68     		ldr	r3, [r7, #4]
 2663 00e0 5B68     		ldr	r3, [r3, #4]
 2664 00e2 5B68     		ldr	r3, [r3, #4]
 2665 00e4 D31A     		subs	r3, r2, r3
 2666 00e6 7B81     		strh	r3, [r7, #10]	@ movhi
 2667              		.loc 2 1117 0
 2668 00e8 7B68     		ldr	r3, [r7, #4]
 2669 00ea 5B68     		ldr	r3, [r3, #4]
 2670 00ec 7A68     		ldr	r2, [r7, #4]
 2671 00ee 5268     		ldr	r2, [r2, #4]
 2672 00f0 5189     		ldrh	r1, [r2, #10]
 2673 00f2 7A89     		ldrh	r2, [r7, #10]	@ movhi
 2674 00f4 8A1A     		subs	r2, r1, r2
 2675 00f6 92B2     		uxth	r2, r2
 2676 00f8 5A81     		strh	r2, [r3, #10]	@ movhi
 2677              		.loc 2 1118 0
 2678 00fa 7B68     		ldr	r3, [r7, #4]
 2679 00fc 5B68     		ldr	r3, [r3, #4]
 2680 00fe 7A68     		ldr	r2, [r7, #4]
 2681 0100 5268     		ldr	r2, [r2, #4]
 2682 0102 1189     		ldrh	r1, [r2, #8]
 2683 0104 7A89     		ldrh	r2, [r7, #10]	@ movhi
 2684 0106 8A1A     		subs	r2, r1, r2
 2685 0108 92B2     		uxth	r2, r2
 2686 010a 1A81     		strh	r2, [r3, #8]	@ movhi
 2687              		.loc 2 1120 0
 2688 010c 7B68     		ldr	r3, [r7, #4]
 2689 010e 5B68     		ldr	r3, [r3, #4]
 2690 0110 7A68     		ldr	r2, [r7, #4]
 2691 0112 D268     		ldr	r2, [r2, #12]
 2692 0114 5A60     		str	r2, [r3, #4]
 2693              		.loc 2 1122 0
 2694 0116 7B68     		ldr	r3, [r7, #4]
ARM GAS  C:\Users\Luis\AppData\Local\Temp\cc4eIE9x.s 			page 50


 2695 0118 DB68     		ldr	r3, [r3, #12]
 2696 011a 0022     		movs	r2, #0
 2697 011c 1A74     		strb	r2, [r3, #16]
 2698 011e 0022     		movs	r2, #0
 2699 0120 5A74     		strb	r2, [r3, #17]
 2700              		.loc 2 1158 0
 2701 0122 7B68     		ldr	r3, [r7, #4]
 2702 0124 DC68     		ldr	r4, [r3, #12]
 2703 0126 7B68     		ldr	r3, [r7, #4]
 2704 0128 5968     		ldr	r1, [r3, #4]
 2705 012a 3A68     		ldr	r2, [r7]
 2706 012c 3B68     		ldr	r3, [r7]
 2707 012e 0433     		adds	r3, r3, #4
 2708              		.loc 2 1160 0
 2709 0130 7868     		ldr	r0, [r7, #4]
 2710 0132 4068     		ldr	r0, [r0, #4]
 2711              		.loc 2 1158 0
 2712 0134 0089     		ldrh	r0, [r0, #8]
 2713 0136 0090     		str	r0, [sp]
 2714 0138 0846     		mov	r0, r1
 2715 013a 1146     		mov	r1, r2
 2716 013c 1A46     		mov	r2, r3
 2717 013e 0623     		movs	r3, #6
 2718 0140 FFF7FEFF 		bl	inet_chksum_pseudo
 2719 0144 0346     		mov	r3, r0
 2720 0146 2382     		strh	r3, [r4, #16]	@ unaligned
 2721              		.loc 2 1163 0
 2722 0148 0D4B     		ldr	r3, .L166+4
 2723 014a B3F89030 		ldrh	r3, [r3, #144]
 2724 014e 0133     		adds	r3, r3, #1
 2725 0150 9AB2     		uxth	r2, r3
 2726 0152 0B4B     		ldr	r3, .L166+4
 2727 0154 A3F89020 		strh	r2, [r3, #144]	@ movhi
 2728              		.loc 2 1169 0
 2729 0158 7B68     		ldr	r3, [r7, #4]
 2730 015a 5868     		ldr	r0, [r3, #4]
 2731 015c 3968     		ldr	r1, [r7]
 2732 015e 3B68     		ldr	r3, [r7]
 2733 0160 1A1D     		adds	r2, r3, #4
 2734 0162 3B68     		ldr	r3, [r7]
 2735 0164 9B7A     		ldrb	r3, [r3, #10]	@ zero_extendqisi2
 2736 0166 3C68     		ldr	r4, [r7]
 2737 0168 647A     		ldrb	r4, [r4, #9]	@ zero_extendqisi2
 2738 016a 0094     		str	r4, [sp]
 2739 016c 0624     		movs	r4, #6
 2740 016e 0194     		str	r4, [sp, #4]
 2741 0170 FFF7FEFF 		bl	ip_output
 2742              	.L158:
 2743              		.loc 2 1172 0
 2744 0174 1C37     		adds	r7, r7, #28
 2745 0176 BD46     		mov	sp, r7
 2746              		@ sp needed
 2747 0178 90BD     		pop	{r4, r7, pc}
 2748              	.L167:
 2749 017a 00BF     		.align	2
 2750              	.L166:
 2751 017c 00000000 		.word	tcp_ticks
ARM GAS  C:\Users\Luis\AppData\Local\Temp\cc4eIE9x.s 			page 51


 2752 0180 00000000 		.word	lwip_stats
 2753              		.cfi_endproc
 2754              	.LFE269:
 2755              		.size	tcp_output_segment, .-tcp_output_segment
 2756 0184 AFF30080 		.section	.text.tcp_rst,"ax",%progbits
 2756      AFF30080 
 2756      AFF30080 
 2757              		.align	2
 2758              		.p2align 4,,15
 2759              		.global	tcp_rst
 2760              		.thumb
 2761              		.thumb_func
 2762              		.type	tcp_rst, %function
 2763              	tcp_rst:
 2764              	.LFB270:
 2765              		.loc 2 1198 0
 2766              		.cfi_startproc
 2767              		@ args = 8, pretend = 0, frame = 24
 2768              		@ frame_needed = 1, uses_anonymous_args = 0
 2769 0000 80B5     		push	{r7, lr}
 2770              		.cfi_def_cfa_offset 8
 2771              		.cfi_offset 7, -8
 2772              		.cfi_offset 14, -4
 2773 0002 88B0     		sub	sp, sp, #32
 2774              		.cfi_def_cfa_offset 40
 2775 0004 02AF     		add	r7, sp, #8
 2776              		.cfi_def_cfa 7, 32
 2777 0006 F860     		str	r0, [r7, #12]
 2778 0008 B960     		str	r1, [r7, #8]
 2779 000a 7A60     		str	r2, [r7, #4]
 2780 000c 3B60     		str	r3, [r7]
 2781              		.loc 2 1201 0
 2782 000e 0120     		movs	r0, #1
 2783 0010 1421     		movs	r1, #20
 2784 0012 0022     		movs	r2, #0
 2785 0014 FFF7FEFF 		bl	pbuf_alloc
 2786 0018 7861     		str	r0, [r7, #20]
 2787              		.loc 2 1202 0
 2788 001a 7B69     		ldr	r3, [r7, #20]
 2789 001c 002B     		cmp	r3, #0
 2790 001e 00D1     		bne	.L169
 2791              		.loc 2 1204 0
 2792 0020 62E0     		b	.L168
 2793              	.L169:
 2794              		.loc 2 1206 0
 2795 0022 7B69     		ldr	r3, [r7, #20]
 2796 0024 5B89     		ldrh	r3, [r3, #10]
 2797 0026 132B     		cmp	r3, #19
 2798 0028 02D8     		bhi	.L171
 2799              		.loc 2 1206 0 is_stmt 0 discriminator 1
 2800 002a 3148     		ldr	r0, .L172
 2801 002c FFF7FEFF 		bl	osalSysHalt
 2802              	.L171:
 2803              		.loc 2 1209 0 is_stmt 1
 2804 0030 7B69     		ldr	r3, [r7, #20]
 2805 0032 5B68     		ldr	r3, [r3, #4]
 2806 0034 3B61     		str	r3, [r7, #16]
ARM GAS  C:\Users\Luis\AppData\Local\Temp\cc4eIE9x.s 			page 52


 2807              		.loc 2 1210 0
 2808 0036 3B8C     		ldrh	r3, [r7, #32]
 2809 0038 1846     		mov	r0, r3
 2810 003a FFF7FEFF 		bl	lwip_htons
 2811 003e 0346     		mov	r3, r0
 2812 0040 1A46     		mov	r2, r3
 2813 0042 3B69     		ldr	r3, [r7, #16]
 2814 0044 1A80     		strh	r2, [r3]	@ unaligned
 2815              		.loc 2 1211 0
 2816 0046 BB8C     		ldrh	r3, [r7, #36]
 2817 0048 1846     		mov	r0, r3
 2818 004a FFF7FEFF 		bl	lwip_htons
 2819 004e 0346     		mov	r3, r0
 2820 0050 1A46     		mov	r2, r3
 2821 0052 3B69     		ldr	r3, [r7, #16]
 2822 0054 5A80     		strh	r2, [r3, #2]	@ unaligned
 2823              		.loc 2 1212 0
 2824 0056 F868     		ldr	r0, [r7, #12]
 2825 0058 FFF7FEFF 		bl	lwip_htonl
 2826 005c 0246     		mov	r2, r0
 2827 005e 3B69     		ldr	r3, [r7, #16]
 2828 0060 5A60     		str	r2, [r3, #4]	@ unaligned
 2829              		.loc 2 1213 0
 2830 0062 B868     		ldr	r0, [r7, #8]
 2831 0064 FFF7FEFF 		bl	lwip_htonl
 2832 0068 0246     		mov	r2, r0
 2833 006a 3B69     		ldr	r3, [r7, #16]
 2834 006c 9A60     		str	r2, [r3, #8]	@ unaligned
 2835              		.loc 2 1214 0
 2836 006e 45F21400 		movw	r0, #20500
 2837 0072 FFF7FEFF 		bl	lwip_htons
 2838 0076 0346     		mov	r3, r0
 2839 0078 1A46     		mov	r2, r3
 2840 007a 3B69     		ldr	r3, [r7, #16]
 2841 007c 9A81     		strh	r2, [r3, #12]	@ unaligned
 2842              		.loc 2 1215 0
 2843 007e 3B69     		ldr	r3, [r7, #16]
 2844 0080 0022     		movs	r2, #0
 2845 0082 42F00802 		orr	r2, r2, #8
 2846 0086 9A73     		strb	r2, [r3, #14]
 2847 0088 0022     		movs	r2, #0
 2848 008a 42F06002 		orr	r2, r2, #96
 2849 008e DA73     		strb	r2, [r3, #15]
 2850              		.loc 2 1216 0
 2851 0090 3B69     		ldr	r3, [r7, #16]
 2852 0092 0022     		movs	r2, #0
 2853 0094 1A74     		strb	r2, [r3, #16]
 2854 0096 0022     		movs	r2, #0
 2855 0098 5A74     		strb	r2, [r3, #17]
 2856              		.loc 2 1217 0
 2857 009a 3B69     		ldr	r3, [r7, #16]
 2858 009c 0022     		movs	r2, #0
 2859 009e 9A74     		strb	r2, [r3, #18]
 2860 00a0 0022     		movs	r2, #0
 2861 00a2 DA74     		strb	r2, [r3, #19]
 2862              		.loc 2 1220 0
 2863 00a4 7B69     		ldr	r3, [r7, #20]
ARM GAS  C:\Users\Luis\AppData\Local\Temp\cc4eIE9x.s 			page 53


 2864 00a6 1B89     		ldrh	r3, [r3, #8]
 2865 00a8 0093     		str	r3, [sp]
 2866 00aa 7869     		ldr	r0, [r7, #20]
 2867 00ac 7968     		ldr	r1, [r7, #4]
 2868 00ae 3A68     		ldr	r2, [r7]
 2869 00b0 0623     		movs	r3, #6
 2870 00b2 FFF7FEFF 		bl	inet_chksum_pseudo
 2871 00b6 0346     		mov	r3, r0
 2872 00b8 1A46     		mov	r2, r3
 2873 00ba 3B69     		ldr	r3, [r7, #16]
 2874 00bc 1A82     		strh	r2, [r3, #16]	@ unaligned
 2875              		.loc 2 1223 0
 2876 00be 0D4B     		ldr	r3, .L172+4
 2877 00c0 B3F89030 		ldrh	r3, [r3, #144]
 2878 00c4 0133     		adds	r3, r3, #1
 2879 00c6 9AB2     		uxth	r2, r3
 2880 00c8 0A4B     		ldr	r3, .L172+4
 2881 00ca A3F89020 		strh	r2, [r3, #144]	@ movhi
 2882              		.loc 2 1226 0
 2883 00ce 0023     		movs	r3, #0
 2884 00d0 0093     		str	r3, [sp]
 2885 00d2 0623     		movs	r3, #6
 2886 00d4 0193     		str	r3, [sp, #4]
 2887 00d6 7869     		ldr	r0, [r7, #20]
 2888 00d8 7968     		ldr	r1, [r7, #4]
 2889 00da 3A68     		ldr	r2, [r7]
 2890 00dc FF23     		movs	r3, #255
 2891 00de FFF7FEFF 		bl	ip_output
 2892              		.loc 2 1227 0
 2893 00e2 7869     		ldr	r0, [r7, #20]
 2894 00e4 FFF7FEFF 		bl	pbuf_free
 2895              	.L168:
 2896              		.loc 2 1229 0
 2897 00e8 1837     		adds	r7, r7, #24
 2898 00ea BD46     		mov	sp, r7
 2899              		@ sp needed
 2900 00ec 80BD     		pop	{r7, pc}
 2901              	.L173:
 2902 00ee 00BF     		.align	2
 2903              	.L172:
 2904 00f0 00000000 		.word	.LC0
 2905 00f4 00000000 		.word	lwip_stats
 2906              		.cfi_endproc
 2907              	.LFE270:
 2908              		.size	tcp_rst, .-tcp_rst
 2909 00f8 AFF30080 		.section	.text.tcp_rexmit_rto,"ax",%progbits
 2909      AFF30080 
 2910              		.align	2
 2911              		.p2align 4,,15
 2912              		.global	tcp_rexmit_rto
 2913              		.thumb
 2914              		.thumb_func
 2915              		.type	tcp_rexmit_rto, %function
 2916              	tcp_rexmit_rto:
 2917              	.LFB271:
 2918              		.loc 2 1240 0
 2919              		.cfi_startproc
ARM GAS  C:\Users\Luis\AppData\Local\Temp\cc4eIE9x.s 			page 54


 2920              		@ args = 0, pretend = 0, frame = 16
 2921              		@ frame_needed = 1, uses_anonymous_args = 0
 2922 0000 80B5     		push	{r7, lr}
 2923              		.cfi_def_cfa_offset 8
 2924              		.cfi_offset 7, -8
 2925              		.cfi_offset 14, -4
 2926 0002 84B0     		sub	sp, sp, #16
 2927              		.cfi_def_cfa_offset 24
 2928 0004 00AF     		add	r7, sp, #0
 2929              		.cfi_def_cfa_register 7
 2930 0006 7860     		str	r0, [r7, #4]
 2931              		.loc 2 1243 0
 2932 0008 7B68     		ldr	r3, [r7, #4]
 2933 000a 1B6F     		ldr	r3, [r3, #112]
 2934 000c 002B     		cmp	r3, #0
 2935 000e 00D1     		bne	.L175
 2936              		.loc 2 1244 0
 2937 0010 23E0     		b	.L174
 2938              	.L175:
 2939              		.loc 2 1248 0
 2940 0012 7B68     		ldr	r3, [r7, #4]
 2941 0014 1B6F     		ldr	r3, [r3, #112]
 2942 0016 FB60     		str	r3, [r7, #12]
 2943 0018 02E0     		b	.L177
 2944              	.L178:
 2945              		.loc 2 1248 0 is_stmt 0 discriminator 2
 2946 001a FB68     		ldr	r3, [r7, #12]
 2947 001c 1B68     		ldr	r3, [r3]
 2948 001e FB60     		str	r3, [r7, #12]
 2949              	.L177:
 2950              		.loc 2 1248 0 discriminator 1
 2951 0020 FB68     		ldr	r3, [r7, #12]
 2952 0022 1B68     		ldr	r3, [r3]
 2953 0024 002B     		cmp	r3, #0
 2954 0026 F8D1     		bne	.L178
 2955              		.loc 2 1250 0 is_stmt 1
 2956 0028 7B68     		ldr	r3, [r7, #4]
 2957 002a DA6E     		ldr	r2, [r3, #108]
 2958 002c FB68     		ldr	r3, [r7, #12]
 2959 002e 1A60     		str	r2, [r3]
 2960              		.loc 2 1252 0
 2961 0030 7B68     		ldr	r3, [r7, #4]
 2962 0032 1A6F     		ldr	r2, [r3, #112]
 2963 0034 7B68     		ldr	r3, [r7, #4]
 2964 0036 DA66     		str	r2, [r3, #108]
 2965              		.loc 2 1254 0
 2966 0038 7B68     		ldr	r3, [r7, #4]
 2967 003a 0022     		movs	r2, #0
 2968 003c 1A67     		str	r2, [r3, #112]
 2969              		.loc 2 1258 0
 2970 003e 7B68     		ldr	r3, [r7, #4]
 2971 0040 93F84630 		ldrb	r3, [r3, #70]	@ zero_extendqisi2
 2972 0044 0133     		adds	r3, r3, #1
 2973 0046 DAB2     		uxtb	r2, r3
 2974 0048 7B68     		ldr	r3, [r7, #4]
 2975 004a 83F84620 		strb	r2, [r3, #70]
 2976              		.loc 2 1261 0
ARM GAS  C:\Users\Luis\AppData\Local\Temp\cc4eIE9x.s 			page 55


 2977 004e 7B68     		ldr	r3, [r7, #4]
 2978 0050 0022     		movs	r2, #0
 2979 0052 9A63     		str	r2, [r3, #56]
 2980              		.loc 2 1264 0
 2981 0054 7868     		ldr	r0, [r7, #4]
 2982 0056 FFF7FEFF 		bl	tcp_output
 2983              	.L174:
 2984              		.loc 2 1265 0
 2985 005a 1037     		adds	r7, r7, #16
 2986 005c BD46     		mov	sp, r7
 2987              		@ sp needed
 2988 005e 80BD     		pop	{r7, pc}
 2989              		.cfi_endproc
 2990              	.LFE271:
 2991              		.size	tcp_rexmit_rto, .-tcp_rexmit_rto
 2992              		.section	.text.tcp_rexmit,"ax",%progbits
 2993              		.align	2
 2994              		.p2align 4,,15
 2995              		.global	tcp_rexmit
 2996              		.thumb
 2997              		.thumb_func
 2998              		.type	tcp_rexmit, %function
 2999              	tcp_rexmit:
 3000              	.LFB272:
 3001              		.loc 2 1276 0
 3002              		.cfi_startproc
 3003              		@ args = 0, pretend = 0, frame = 16
 3004              		@ frame_needed = 1, uses_anonymous_args = 0
 3005 0000 90B5     		push	{r4, r7, lr}
 3006              		.cfi_def_cfa_offset 12
 3007              		.cfi_offset 4, -12
 3008              		.cfi_offset 7, -8
 3009              		.cfi_offset 14, -4
 3010 0002 85B0     		sub	sp, sp, #20
 3011              		.cfi_def_cfa_offset 32
 3012 0004 00AF     		add	r7, sp, #0
 3013              		.cfi_def_cfa_register 7
 3014 0006 7860     		str	r0, [r7, #4]
 3015              		.loc 2 1280 0
 3016 0008 7B68     		ldr	r3, [r7, #4]
 3017 000a 1B6F     		ldr	r3, [r3, #112]
 3018 000c 002B     		cmp	r3, #0
 3019 000e 00D1     		bne	.L180
 3020              		.loc 2 1281 0
 3021 0010 3DE0     		b	.L179
 3022              	.L180:
 3023              		.loc 2 1286 0
 3024 0012 7B68     		ldr	r3, [r7, #4]
 3025 0014 1B6F     		ldr	r3, [r3, #112]
 3026 0016 BB60     		str	r3, [r7, #8]
 3027              		.loc 2 1287 0
 3028 0018 BB68     		ldr	r3, [r7, #8]
 3029 001a 1A68     		ldr	r2, [r3]
 3030 001c 7B68     		ldr	r3, [r7, #4]
 3031 001e 1A67     		str	r2, [r3, #112]
 3032              		.loc 2 1289 0
 3033 0020 7B68     		ldr	r3, [r7, #4]
ARM GAS  C:\Users\Luis\AppData\Local\Temp\cc4eIE9x.s 			page 56


 3034 0022 6C33     		adds	r3, r3, #108
 3035 0024 FB60     		str	r3, [r7, #12]
 3036              		.loc 2 1290 0
 3037 0026 02E0     		b	.L182
 3038              	.L184:
 3039              		.loc 2 1292 0
 3040 0028 FB68     		ldr	r3, [r7, #12]
 3041 002a 1B68     		ldr	r3, [r3]
 3042 002c FB60     		str	r3, [r7, #12]
 3043              	.L182:
 3044              		.loc 2 1290 0 discriminator 1
 3045 002e FB68     		ldr	r3, [r7, #12]
 3046 0030 1B68     		ldr	r3, [r3]
 3047 0032 002B     		cmp	r3, #0
 3048 0034 11D0     		beq	.L183
 3049              		.loc 2 1291 0 discriminator 2
 3050 0036 FB68     		ldr	r3, [r7, #12]
 3051 0038 1B68     		ldr	r3, [r3]
 3052 003a DB68     		ldr	r3, [r3, #12]
 3053 003c 5B68     		ldr	r3, [r3, #4]	@ unaligned
 3054 003e 1846     		mov	r0, r3
 3055 0040 FFF7FEFF 		bl	lwip_ntohl
 3056 0044 0446     		mov	r4, r0
 3057 0046 BB68     		ldr	r3, [r7, #8]
 3058 0048 DB68     		ldr	r3, [r3, #12]
 3059 004a 5B68     		ldr	r3, [r3, #4]	@ unaligned
 3060 004c 1846     		mov	r0, r3
 3061 004e FFF7FEFF 		bl	lwip_ntohl
 3062 0052 0346     		mov	r3, r0
 3063 0054 E31A     		subs	r3, r4, r3
 3064              		.loc 2 1290 0 discriminator 2
 3065 0056 002B     		cmp	r3, #0
 3066 0058 E6DB     		blt	.L184
 3067              	.L183:
 3068              		.loc 2 1294 0
 3069 005a FB68     		ldr	r3, [r7, #12]
 3070 005c 1A68     		ldr	r2, [r3]
 3071 005e BB68     		ldr	r3, [r7, #8]
 3072 0060 1A60     		str	r2, [r3]
 3073              		.loc 2 1295 0
 3074 0062 FB68     		ldr	r3, [r7, #12]
 3075 0064 BA68     		ldr	r2, [r7, #8]
 3076 0066 1A60     		str	r2, [r3]
 3077              		.loc 2 1297 0
 3078 0068 BB68     		ldr	r3, [r7, #8]
 3079 006a 1B68     		ldr	r3, [r3]
 3080 006c 002B     		cmp	r3, #0
 3081 006e 03D1     		bne	.L185
 3082              		.loc 2 1299 0
 3083 0070 7B68     		ldr	r3, [r7, #4]
 3084 0072 0022     		movs	r2, #0
 3085 0074 A3F86A20 		strh	r2, [r3, #106]	@ movhi
 3086              	.L185:
 3087              		.loc 2 1303 0
 3088 0078 7B68     		ldr	r3, [r7, #4]
 3089 007a 93F84630 		ldrb	r3, [r3, #70]	@ zero_extendqisi2
 3090 007e 0133     		adds	r3, r3, #1
ARM GAS  C:\Users\Luis\AppData\Local\Temp\cc4eIE9x.s 			page 57


 3091 0080 DAB2     		uxtb	r2, r3
 3092 0082 7B68     		ldr	r3, [r7, #4]
 3093 0084 83F84620 		strb	r2, [r3, #70]
 3094              		.loc 2 1306 0
 3095 0088 7B68     		ldr	r3, [r7, #4]
 3096 008a 0022     		movs	r2, #0
 3097 008c 9A63     		str	r2, [r3, #56]
 3098              	.L179:
 3099              		.loc 2 1312 0
 3100 008e 1437     		adds	r7, r7, #20
 3101 0090 BD46     		mov	sp, r7
 3102              		@ sp needed
 3103 0092 90BD     		pop	{r4, r7, pc}
 3104              		.cfi_endproc
 3105              	.LFE272:
 3106              		.size	tcp_rexmit, .-tcp_rexmit
 3107 0094 AFF30080 		.section	.text.tcp_rexmit_fast,"ax",%progbits
 3107      AFF30080 
 3107      AFF30080 
 3108              		.align	2
 3109              		.p2align 4,,15
 3110              		.global	tcp_rexmit_fast
 3111              		.thumb
 3112              		.thumb_func
 3113              		.type	tcp_rexmit_fast, %function
 3114              	tcp_rexmit_fast:
 3115              	.LFB273:
 3116              		.loc 2 1322 0
 3117              		.cfi_startproc
 3118              		@ args = 0, pretend = 0, frame = 8
 3119              		@ frame_needed = 1, uses_anonymous_args = 0
 3120 0000 80B5     		push	{r7, lr}
 3121              		.cfi_def_cfa_offset 8
 3122              		.cfi_offset 7, -8
 3123              		.cfi_offset 14, -4
 3124 0002 82B0     		sub	sp, sp, #8
 3125              		.cfi_def_cfa_offset 16
 3126 0004 00AF     		add	r7, sp, #0
 3127              		.cfi_def_cfa_register 7
 3128 0006 7860     		str	r0, [r7, #4]
 3129              		.loc 2 1323 0
 3130 0008 7B68     		ldr	r3, [r7, #4]
 3131 000a 1B6F     		ldr	r3, [r3, #112]
 3132 000c 002B     		cmp	r3, #0
 3133 000e 46D0     		beq	.L186
 3134              		.loc 2 1323 0 is_stmt 0 discriminator 1
 3135 0010 7B68     		ldr	r3, [r7, #4]
 3136 0012 9B7F     		ldrb	r3, [r3, #30]	@ zero_extendqisi2
 3137 0014 03F00403 		and	r3, r3, #4
 3138 0018 002B     		cmp	r3, #0
 3139 001a 40D1     		bne	.L186
 3140              		.loc 2 1330 0 is_stmt 1
 3141 001c 7868     		ldr	r0, [r7, #4]
 3142 001e FFF7FEFF 		bl	tcp_rexmit
 3143              		.loc 2 1334 0
 3144 0022 7B68     		ldr	r3, [r7, #4]
 3145 0024 B3F84C20 		ldrh	r2, [r3, #76]
ARM GAS  C:\Users\Luis\AppData\Local\Temp\cc4eIE9x.s 			page 58


 3146 0028 7B68     		ldr	r3, [r7, #4]
 3147 002a B3F86030 		ldrh	r3, [r3, #96]
 3148 002e 9A42     		cmp	r2, r3
 3149 0030 08D9     		bls	.L188
 3150              		.loc 2 1335 0
 3151 0032 7B68     		ldr	r3, [r7, #4]
 3152 0034 B3F86030 		ldrh	r3, [r3, #96]
 3153 0038 5B08     		lsrs	r3, r3, #1
 3154 003a 9AB2     		uxth	r2, r3
 3155 003c 7B68     		ldr	r3, [r7, #4]
 3156 003e A3F84E20 		strh	r2, [r3, #78]	@ movhi
 3157 0042 07E0     		b	.L189
 3158              	.L188:
 3159              		.loc 2 1337 0
 3160 0044 7B68     		ldr	r3, [r7, #4]
 3161 0046 B3F84C30 		ldrh	r3, [r3, #76]
 3162 004a 5B08     		lsrs	r3, r3, #1
 3163 004c 9AB2     		uxth	r2, r3
 3164 004e 7B68     		ldr	r3, [r7, #4]
 3165 0050 A3F84E20 		strh	r2, [r3, #78]	@ movhi
 3166              	.L189:
 3167              		.loc 2 1341 0
 3168 0054 7B68     		ldr	r3, [r7, #4]
 3169 0056 B3F84E30 		ldrh	r3, [r3, #78]
 3170 005a 1A46     		mov	r2, r3
 3171 005c 7B68     		ldr	r3, [r7, #4]
 3172 005e DB8E     		ldrh	r3, [r3, #54]
 3173 0060 5B00     		lsls	r3, r3, #1
 3174 0062 9A42     		cmp	r2, r3
 3175 0064 06DA     		bge	.L190
 3176              		.loc 2 1346 0
 3177 0066 7B68     		ldr	r3, [r7, #4]
 3178 0068 DB8E     		ldrh	r3, [r3, #54]
 3179 006a 5B00     		lsls	r3, r3, #1
 3180 006c 9AB2     		uxth	r2, r3
 3181 006e 7B68     		ldr	r3, [r7, #4]
 3182 0070 A3F84E20 		strh	r2, [r3, #78]	@ movhi
 3183              	.L190:
 3184              		.loc 2 1349 0
 3185 0074 7B68     		ldr	r3, [r7, #4]
 3186 0076 B3F84E20 		ldrh	r2, [r3, #78]
 3187 007a 7B68     		ldr	r3, [r7, #4]
 3188 007c DB8E     		ldrh	r3, [r3, #54]
 3189 007e 1946     		mov	r1, r3	@ movhi
 3190 0080 4900     		lsls	r1, r1, #1
 3191 0082 0B44     		add	r3, r3, r1
 3192 0084 9BB2     		uxth	r3, r3
 3193 0086 1344     		add	r3, r3, r2
 3194 0088 9AB2     		uxth	r2, r3
 3195 008a 7B68     		ldr	r3, [r7, #4]
 3196 008c A3F84C20 		strh	r2, [r3, #76]	@ movhi
 3197              		.loc 2 1350 0
 3198 0090 7B68     		ldr	r3, [r7, #4]
 3199 0092 9B7F     		ldrb	r3, [r3, #30]	@ zero_extendqisi2
 3200 0094 43F00403 		orr	r3, r3, #4
 3201 0098 DAB2     		uxtb	r2, r3
 3202 009a 7B68     		ldr	r3, [r7, #4]
ARM GAS  C:\Users\Luis\AppData\Local\Temp\cc4eIE9x.s 			page 59


 3203 009c 9A77     		strb	r2, [r3, #30]
 3204              	.L186:
 3205              		.loc 2 1352 0
 3206 009e 0837     		adds	r7, r7, #8
 3207 00a0 BD46     		mov	sp, r7
 3208              		@ sp needed
 3209 00a2 80BD     		pop	{r7, pc}
 3210              		.cfi_endproc
 3211              	.LFE273:
 3212              		.size	tcp_rexmit_fast, .-tcp_rexmit_fast
 3213 00a4 AFF30080 		.section	.text.tcp_keepalive,"ax",%progbits
 3213      AFF30080 
 3213      AFF30080 
 3214              		.align	2
 3215              		.p2align 4,,15
 3216              		.global	tcp_keepalive
 3217              		.thumb
 3218              		.thumb_func
 3219              		.type	tcp_keepalive, %function
 3220              	tcp_keepalive:
 3221              	.LFB274:
 3222              		.loc 2 1365 0
 3223              		.cfi_startproc
 3224              		@ args = 0, pretend = 0, frame = 16
 3225              		@ frame_needed = 1, uses_anonymous_args = 0
 3226 0000 80B5     		push	{r7, lr}
 3227              		.cfi_def_cfa_offset 8
 3228              		.cfi_offset 7, -8
 3229              		.cfi_offset 14, -4
 3230 0002 86B0     		sub	sp, sp, #24
 3231              		.cfi_def_cfa_offset 32
 3232 0004 02AF     		add	r7, sp, #8
 3233              		.cfi_def_cfa 7, 24
 3234 0006 7860     		str	r0, [r7, #4]
 3235              		.loc 2 1376 0
 3236 0008 7B68     		ldr	r3, [r7, #4]
 3237 000a 1B6D     		ldr	r3, [r3, #80]
 3238 000c 013B     		subs	r3, r3, #1
 3239 000e 1846     		mov	r0, r3
 3240 0010 FFF7FEFF 		bl	lwip_htonl
 3241 0014 0346     		mov	r3, r0
 3242 0016 7868     		ldr	r0, [r7, #4]
 3243 0018 0021     		movs	r1, #0
 3244 001a 0022     		movs	r2, #0
 3245 001c FFF7FEFF 		bl	tcp_output_alloc_header
 3246 0020 F860     		str	r0, [r7, #12]
 3247              		.loc 2 1377 0
 3248 0022 FB68     		ldr	r3, [r7, #12]
 3249 0024 002B     		cmp	r3, #0
 3250 0026 00D1     		bne	.L192
 3251              		.loc 2 1380 0
 3252 0028 29E0     		b	.L191
 3253              	.L192:
 3254              		.loc 2 1382 0
 3255 002a FB68     		ldr	r3, [r7, #12]
 3256 002c 5B68     		ldr	r3, [r3, #4]
 3257 002e BB60     		str	r3, [r7, #8]
ARM GAS  C:\Users\Luis\AppData\Local\Temp\cc4eIE9x.s 			page 60


 3258              		.loc 2 1385 0
 3259 0030 7A68     		ldr	r2, [r7, #4]
 3260 0032 7B68     		ldr	r3, [r7, #4]
 3261 0034 0433     		adds	r3, r3, #4
 3262 0036 F968     		ldr	r1, [r7, #12]
 3263 0038 0989     		ldrh	r1, [r1, #8]
 3264 003a 0091     		str	r1, [sp]
 3265 003c F868     		ldr	r0, [r7, #12]
 3266 003e 1146     		mov	r1, r2
 3267 0040 1A46     		mov	r2, r3
 3268 0042 0623     		movs	r3, #6
 3269 0044 FFF7FEFF 		bl	inet_chksum_pseudo
 3270 0048 0346     		mov	r3, r0
 3271 004a 1A46     		mov	r2, r3
 3272 004c BB68     		ldr	r3, [r7, #8]
 3273 004e 1A82     		strh	r2, [r3, #16]	@ unaligned
 3274              		.loc 2 1388 0
 3275 0050 0C4B     		ldr	r3, .L194
 3276 0052 B3F89030 		ldrh	r3, [r3, #144]
 3277 0056 0133     		adds	r3, r3, #1
 3278 0058 9AB2     		uxth	r2, r3
 3279 005a 0A4B     		ldr	r3, .L194
 3280 005c A3F89020 		strh	r2, [r3, #144]	@ movhi
 3281              		.loc 2 1395 0
 3282 0060 7968     		ldr	r1, [r7, #4]
 3283 0062 7B68     		ldr	r3, [r7, #4]
 3284 0064 1A1D     		adds	r2, r3, #4
 3285 0066 7B68     		ldr	r3, [r7, #4]
 3286 0068 9B7A     		ldrb	r3, [r3, #10]	@ zero_extendqisi2
 3287 006a 0020     		movs	r0, #0
 3288 006c 0090     		str	r0, [sp]
 3289 006e 0620     		movs	r0, #6
 3290 0070 0190     		str	r0, [sp, #4]
 3291 0072 F868     		ldr	r0, [r7, #12]
 3292 0074 FFF7FEFF 		bl	ip_output
 3293              		.loc 2 1398 0
 3294 0078 F868     		ldr	r0, [r7, #12]
 3295 007a FFF7FEFF 		bl	pbuf_free
 3296              	.L191:
 3297              		.loc 2 1402 0
 3298 007e 1037     		adds	r7, r7, #16
 3299 0080 BD46     		mov	sp, r7
 3300              		@ sp needed
 3301 0082 80BD     		pop	{r7, pc}
 3302              	.L195:
 3303              		.align	2
 3304              	.L194:
 3305 0084 00000000 		.word	lwip_stats
 3306              		.cfi_endproc
 3307              	.LFE274:
 3308              		.size	tcp_keepalive, .-tcp_keepalive
 3309 0088 AFF30080 		.section	.text.tcp_zero_window_probe,"ax",%progbits
 3309      AFF30080 
 3310              		.align	2
 3311              		.p2align 4,,15
 3312              		.global	tcp_zero_window_probe
 3313              		.thumb
ARM GAS  C:\Users\Luis\AppData\Local\Temp\cc4eIE9x.s 			page 61


 3314              		.thumb_func
 3315              		.type	tcp_zero_window_probe, %function
 3316              	tcp_zero_window_probe:
 3317              	.LFB275:
 3318              		.loc 2 1415 0
 3319              		.cfi_startproc
 3320              		@ args = 0, pretend = 0, frame = 32
 3321              		@ frame_needed = 1, uses_anonymous_args = 0
 3322 0000 90B5     		push	{r4, r7, lr}
 3323              		.cfi_def_cfa_offset 12
 3324              		.cfi_offset 4, -12
 3325              		.cfi_offset 7, -8
 3326              		.cfi_offset 14, -4
 3327 0002 8BB0     		sub	sp, sp, #44
 3328              		.cfi_def_cfa_offset 56
 3329 0004 02AF     		add	r7, sp, #8
 3330              		.cfi_def_cfa 7, 48
 3331 0006 7860     		str	r0, [r7, #4]
 3332              		.loc 2 1433 0
 3333 0008 7B68     		ldr	r3, [r7, #4]
 3334 000a 1B6F     		ldr	r3, [r3, #112]
 3335 000c FB61     		str	r3, [r7, #28]
 3336              		.loc 2 1435 0
 3337 000e FB69     		ldr	r3, [r7, #28]
 3338 0010 002B     		cmp	r3, #0
 3339 0012 02D1     		bne	.L197
 3340              		.loc 2 1436 0
 3341 0014 7B68     		ldr	r3, [r7, #4]
 3342 0016 DB6E     		ldr	r3, [r3, #108]
 3343 0018 FB61     		str	r3, [r7, #28]
 3344              	.L197:
 3345              		.loc 2 1438 0
 3346 001a FB69     		ldr	r3, [r7, #28]
 3347 001c 002B     		cmp	r3, #0
 3348 001e 00D1     		bne	.L198
 3349              		.loc 2 1439 0
 3350 0020 79E0     		b	.L196
 3351              	.L198:
 3352              		.loc 2 1442 0
 3353 0022 FB69     		ldr	r3, [r7, #28]
 3354 0024 DB68     		ldr	r3, [r3, #12]
 3355 0026 9B89     		ldrh	r3, [r3, #12]	@ unaligned
 3356 0028 9BB2     		uxth	r3, r3
 3357 002a 1846     		mov	r0, r3
 3358 002c FFF7FEFF 		bl	lwip_ntohs
 3359 0030 0346     		mov	r3, r0
 3360 0032 03F00103 		and	r3, r3, #1
 3361 0036 002B     		cmp	r3, #0
 3362 0038 05D0     		beq	.L200
 3363              		.loc 2 1442 0 is_stmt 0 discriminator 1
 3364 003a FB69     		ldr	r3, [r7, #28]
 3365 003c 1B89     		ldrh	r3, [r3, #8]
 3366 003e 002B     		cmp	r3, #0
 3367 0040 01D1     		bne	.L200
 3368              		.loc 2 1442 0 discriminator 3
 3369 0042 0123     		movs	r3, #1
 3370 0044 00E0     		b	.L201
ARM GAS  C:\Users\Luis\AppData\Local\Temp\cc4eIE9x.s 			page 62


 3371              	.L200:
 3372              		.loc 2 1442 0 discriminator 2
 3373 0046 0023     		movs	r3, #0
 3374              	.L201:
 3375              		.loc 2 1442 0 discriminator 4
 3376 0048 FB76     		strb	r3, [r7, #27]
 3377              		.loc 2 1444 0 is_stmt 1 discriminator 4
 3378 004a FB7E     		ldrb	r3, [r7, #27]	@ zero_extendqisi2
 3379 004c 002B     		cmp	r3, #0
 3380 004e 14BF     		ite	ne
 3381 0050 0023     		movne	r3, #0
 3382 0052 0123     		moveq	r3, #1
 3383 0054 DBB2     		uxtb	r3, r3
 3384 0056 3B83     		strh	r3, [r7, #24]	@ movhi
 3385              		.loc 2 1446 0 discriminator 4
 3386 0058 FB69     		ldr	r3, [r7, #28]
 3387 005a DB68     		ldr	r3, [r3, #12]
 3388 005c 5B68     		ldr	r3, [r3, #4]	@ unaligned
 3389 005e 3A8B     		ldrh	r2, [r7, #24]
 3390 0060 7868     		ldr	r0, [r7, #4]
 3391 0062 0021     		movs	r1, #0
 3392 0064 FFF7FEFF 		bl	tcp_output_alloc_header
 3393 0068 7861     		str	r0, [r7, #20]
 3394              		.loc 2 1447 0 discriminator 4
 3395 006a 7B69     		ldr	r3, [r7, #20]
 3396 006c 002B     		cmp	r3, #0
 3397 006e 00D1     		bne	.L202
 3398              		.loc 2 1449 0
 3399 0070 51E0     		b	.L196
 3400              	.L202:
 3401              		.loc 2 1451 0
 3402 0072 7B69     		ldr	r3, [r7, #20]
 3403 0074 5B68     		ldr	r3, [r3, #4]
 3404 0076 3B61     		str	r3, [r7, #16]
 3405              		.loc 2 1453 0
 3406 0078 FB7E     		ldrb	r3, [r7, #27]	@ zero_extendqisi2
 3407 007a 002B     		cmp	r3, #0
 3408 007c 12D0     		beq	.L203
 3409              		.loc 2 1455 0
 3410 007e 3B69     		ldr	r3, [r7, #16]
 3411 0080 9B89     		ldrh	r3, [r3, #12]	@ unaligned
 3412 0082 9BB2     		uxth	r3, r3
 3413 0084 9BB2     		uxth	r3, r3
 3414 0086 23F47C53 		bic	r3, r3, #16128
 3415 008a 9CB2     		uxth	r4, r3
 3416 008c 1120     		movs	r0, #17
 3417 008e FFF7FEFF 		bl	lwip_htons
 3418 0092 0346     		mov	r3, r0
 3419 0094 9BB2     		uxth	r3, r3
 3420 0096 2246     		mov	r2, r4	@ movhi
 3421 0098 1343     		orrs	r3, r3, r2
 3422 009a 9BB2     		uxth	r3, r3
 3423 009c 9AB2     		uxth	r2, r3
 3424 009e 3B69     		ldr	r3, [r7, #16]
 3425 00a0 9A81     		strh	r2, [r3, #12]	@ unaligned
 3426 00a2 11E0     		b	.L204
 3427              	.L203:
ARM GAS  C:\Users\Luis\AppData\Local\Temp\cc4eIE9x.s 			page 63


 3428              	.LBB11:
 3429              		.loc 2 1458 0
 3430 00a4 7B69     		ldr	r3, [r7, #20]
 3431 00a6 5B68     		ldr	r3, [r3, #4]
 3432 00a8 1433     		adds	r3, r3, #20
 3433 00aa FB60     		str	r3, [r7, #12]
 3434              		.loc 2 1462 0
 3435 00ac FB69     		ldr	r3, [r7, #28]
 3436 00ae 5A68     		ldr	r2, [r3, #4]
 3437 00b0 FB69     		ldr	r3, [r7, #28]
 3438 00b2 5B68     		ldr	r3, [r3, #4]
 3439 00b4 1989     		ldrh	r1, [r3, #8]
 3440 00b6 FB69     		ldr	r3, [r7, #28]
 3441 00b8 1B89     		ldrh	r3, [r3, #8]
 3442 00ba CB1A     		subs	r3, r1, r3
 3443 00bc 9BB2     		uxth	r3, r3
 3444 00be 1046     		mov	r0, r2
 3445 00c0 F968     		ldr	r1, [r7, #12]
 3446 00c2 0122     		movs	r2, #1
 3447 00c4 FFF7FEFF 		bl	pbuf_copy_partial
 3448              	.L204:
 3449              	.LBE11:
 3450              		.loc 2 1466 0
 3451 00c8 7A68     		ldr	r2, [r7, #4]
 3452 00ca 7B68     		ldr	r3, [r7, #4]
 3453 00cc 0433     		adds	r3, r3, #4
 3454 00ce 7969     		ldr	r1, [r7, #20]
 3455 00d0 0989     		ldrh	r1, [r1, #8]
 3456 00d2 0091     		str	r1, [sp]
 3457 00d4 7869     		ldr	r0, [r7, #20]
 3458 00d6 1146     		mov	r1, r2
 3459 00d8 1A46     		mov	r2, r3
 3460 00da 0623     		movs	r3, #6
 3461 00dc FFF7FEFF 		bl	inet_chksum_pseudo
 3462 00e0 0346     		mov	r3, r0
 3463 00e2 1A46     		mov	r2, r3
 3464 00e4 3B69     		ldr	r3, [r7, #16]
 3465 00e6 1A82     		strh	r2, [r3, #16]	@ unaligned
 3466              		.loc 2 1469 0
 3467 00e8 0C4B     		ldr	r3, .L205
 3468 00ea B3F89030 		ldrh	r3, [r3, #144]
 3469 00ee 0133     		adds	r3, r3, #1
 3470 00f0 9AB2     		uxth	r2, r3
 3471 00f2 0A4B     		ldr	r3, .L205
 3472 00f4 A3F89020 		strh	r2, [r3, #144]	@ movhi
 3473              		.loc 2 1476 0
 3474 00f8 7968     		ldr	r1, [r7, #4]
 3475 00fa 7B68     		ldr	r3, [r7, #4]
 3476 00fc 1A1D     		adds	r2, r3, #4
 3477 00fe 7B68     		ldr	r3, [r7, #4]
 3478 0100 9B7A     		ldrb	r3, [r3, #10]	@ zero_extendqisi2
 3479 0102 0020     		movs	r0, #0
 3480 0104 0090     		str	r0, [sp]
 3481 0106 0620     		movs	r0, #6
 3482 0108 0190     		str	r0, [sp, #4]
 3483 010a 7869     		ldr	r0, [r7, #20]
 3484 010c FFF7FEFF 		bl	ip_output
ARM GAS  C:\Users\Luis\AppData\Local\Temp\cc4eIE9x.s 			page 64


 3485              		.loc 2 1479 0
 3486 0110 7869     		ldr	r0, [r7, #20]
 3487 0112 FFF7FEFF 		bl	pbuf_free
 3488              	.L196:
 3489              		.loc 2 1484 0
 3490 0116 2437     		adds	r7, r7, #36
 3491 0118 BD46     		mov	sp, r7
 3492              		@ sp needed
 3493 011a 90BD     		pop	{r4, r7, pc}
 3494              	.L206:
 3495              		.align	2
 3496              	.L205:
 3497 011c 00000000 		.word	lwip_stats
 3498              		.cfi_endproc
 3499              	.LFE275:
 3500              		.size	tcp_zero_window_probe, .-tcp_zero_window_probe
 3501              		.text
 3502              	.Letext0:
 3503              		.file 3 "c:\\emtechesdk\\gcc\\arm-none-eabi\\include\\stdint.h"
 3504              		.file 4 "../../ChibiOS/os/rt/ports/ARMCMx/compilers/GCC/chtypes.h"
 3505              		.file 5 "../../ChibiOS/os/rt/include/chsystypes.h"
 3506              		.file 6 "../../ChibiOS/os/rt/include/chschd.h"
 3507              		.file 7 "../../ChibiOS/os/rt/ports/ARMCMx/chcore.h"
 3508              		.file 8 "../../ChibiOS/os/rt/ports/ARMCMx/chcore_v7m.h"
 3509              		.file 9 "../../ChibiOS/os/rt/include/chdebug.h"
 3510              		.file 10 "../../ChibiOS/os/rt/include/chtm.h"
 3511              		.file 11 "../../ChibiOS/os/rt/include/chstats.h"
 3512              		.file 12 "../../ChibiOS/os/rt/include/chsem.h"
 3513              		.file 13 "../../ChibiOS/os/rt/include/chmtx.h"
 3514              		.file 14 "../../ChibiOS/os/various/lwip_bindings/arch/cc.h"
 3515              		.file 15 "../../ChibiOS/ext/lwip/src/include/lwip/mem.h"
 3516              		.file 16 "../../ChibiOS/ext/lwip/src/include/lwip/err.h"
 3517              		.file 17 "../../ChibiOS/ext/lwip/src/include/lwip/pbuf.h"
 3518              		.file 18 "../../ChibiOS/ext/lwip/src/include/ipv4/lwip/ip_addr.h"
 3519              		.file 19 "../../ChibiOS/ext/lwip/src/include/lwip/netif.h"
 3520              		.file 20 "../../ChibiOS/ext/lwip/src/include/lwip/tcp.h"
 3521              		.file 21 "../../ChibiOS/ext/lwip/src/include/lwip/tcp_impl.h"
 3522              		.file 22 "../../ChibiOS/ext/lwip/src/include/lwip/memp.h"
 3523              		.file 23 "../../ChibiOS/ext/lwip/src/include/lwip/stats.h"
 3524              		.file 24 "../../ChibiOS/os/ext/CMSIS/include/core_cm4.h"
 3525              		.section	.debug_info,"",%progbits
 3526              	.Ldebug_info0:
 3527 0000 51190000 		.4byte	0x1951
 3528 0004 0400     		.2byte	0x4
 3529 0006 00000000 		.4byte	.Ldebug_abbrev0
 3530 000a 04       		.byte	0x4
 3531 000b 01       		.uleb128 0x1
 3532 000c 71010000 		.4byte	.LASF329
 3533 0010 01       		.byte	0x1
 3534 0011 D8030000 		.4byte	.LASF330
 3535 0015 4A050000 		.4byte	.LASF331
 3536 0019 00000000 		.4byte	.Ldebug_ranges0+0
 3537 001d 00000000 		.4byte	0
 3538 0021 00000000 		.4byte	.Ldebug_line0
 3539 0025 02       		.uleb128 0x2
 3540 0026 04       		.byte	0x4
 3541 0027 05       		.byte	0x5
ARM GAS  C:\Users\Luis\AppData\Local\Temp\cc4eIE9x.s 			page 65


 3542 0028 696E7400 		.ascii	"int\000"
 3543 002c 03       		.uleb128 0x3
 3544 002d 04       		.byte	0x4
 3545 002e 07       		.byte	0x7
 3546 002f 04010000 		.4byte	.LASF0
 3547 0033 04       		.uleb128 0x4
 3548 0034 F6050000 		.4byte	.LASF2
 3549 0038 03       		.byte	0x3
 3550 0039 29       		.byte	0x29
 3551 003a 3E000000 		.4byte	0x3e
 3552 003e 03       		.uleb128 0x3
 3553 003f 01       		.byte	0x1
 3554 0040 06       		.byte	0x6
 3555 0041 0B0D0000 		.4byte	.LASF1
 3556 0045 04       		.uleb128 0x4
 3557 0046 D5060000 		.4byte	.LASF3
 3558 004a 03       		.byte	0x3
 3559 004b 2A       		.byte	0x2a
 3560 004c 50000000 		.4byte	0x50
 3561 0050 03       		.uleb128 0x3
 3562 0051 01       		.byte	0x1
 3563 0052 08       		.byte	0x8
 3564 0053 F80B0000 		.4byte	.LASF4
 3565 0057 04       		.uleb128 0x4
 3566 0058 D0030000 		.4byte	.LASF5
 3567 005c 03       		.byte	0x3
 3568 005d 35       		.byte	0x35
 3569 005e 62000000 		.4byte	0x62
 3570 0062 03       		.uleb128 0x3
 3571 0063 02       		.byte	0x2
 3572 0064 05       		.byte	0x5
 3573 0065 68090000 		.4byte	.LASF6
 3574 0069 04       		.uleb128 0x4
 3575 006a B3080000 		.4byte	.LASF7
 3576 006e 03       		.byte	0x3
 3577 006f 36       		.byte	0x36
 3578 0070 74000000 		.4byte	0x74
 3579 0074 03       		.uleb128 0x3
 3580 0075 02       		.byte	0x2
 3581 0076 07       		.byte	0x7
 3582 0077 1F0D0000 		.4byte	.LASF8
 3583 007b 04       		.uleb128 0x4
 3584 007c 5D0B0000 		.4byte	.LASF9
 3585 0080 03       		.byte	0x3
 3586 0081 4F       		.byte	0x4f
 3587 0082 86000000 		.4byte	0x86
 3588 0086 03       		.uleb128 0x3
 3589 0087 04       		.byte	0x4
 3590 0088 05       		.byte	0x5
 3591 0089 9D090000 		.4byte	.LASF10
 3592 008d 04       		.uleb128 0x4
 3593 008e 26030000 		.4byte	.LASF11
 3594 0092 03       		.byte	0x3
 3595 0093 50       		.byte	0x50
 3596 0094 98000000 		.4byte	0x98
 3597 0098 03       		.uleb128 0x3
 3598 0099 04       		.byte	0x4
ARM GAS  C:\Users\Luis\AppData\Local\Temp\cc4eIE9x.s 			page 66


 3599 009a 07       		.byte	0x7
 3600 009b 270B0000 		.4byte	.LASF12
 3601 009f 03       		.uleb128 0x3
 3602 00a0 08       		.byte	0x8
 3603 00a1 05       		.byte	0x5
 3604 00a2 A1060000 		.4byte	.LASF13
 3605 00a6 04       		.uleb128 0x4
 3606 00a7 B40C0000 		.4byte	.LASF14
 3607 00ab 03       		.byte	0x3
 3608 00ac 78       		.byte	0x78
 3609 00ad B1000000 		.4byte	0xb1
 3610 00b1 03       		.uleb128 0x3
 3611 00b2 08       		.byte	0x8
 3612 00b3 07       		.byte	0x7
 3613 00b4 1F040000 		.4byte	.LASF15
 3614 00b8 05       		.uleb128 0x5
 3615 00b9 7B000000 		.4byte	0x7b
 3616 00bd 04       		.uleb128 0x4
 3617 00be 01090000 		.4byte	.LASF16
 3618 00c2 04       		.byte	0x4
 3619 00c3 45       		.byte	0x45
 3620 00c4 8D000000 		.4byte	0x8d
 3621 00c8 04       		.uleb128 0x4
 3622 00c9 6C060000 		.4byte	.LASF17
 3623 00cd 04       		.byte	0x4
 3624 00ce 46       		.byte	0x46
 3625 00cf A6000000 		.4byte	0xa6
 3626 00d3 04       		.uleb128 0x4
 3627 00d4 77080000 		.4byte	.LASF18
 3628 00d8 04       		.byte	0x4
 3629 00d9 48       		.byte	0x48
 3630 00da 45000000 		.4byte	0x45
 3631 00de 04       		.uleb128 0x4
 3632 00df 92060000 		.4byte	.LASF19
 3633 00e3 04       		.byte	0x4
 3634 00e4 49       		.byte	0x49
 3635 00e5 45000000 		.4byte	0x45
 3636 00e9 04       		.uleb128 0x4
 3637 00ea 1F0B0000 		.4byte	.LASF20
 3638 00ee 04       		.byte	0x4
 3639 00ef 4A       		.byte	0x4a
 3640 00f0 45000000 		.4byte	0x45
 3641 00f4 04       		.uleb128 0x4
 3642 00f5 B7030000 		.4byte	.LASF21
 3643 00f9 04       		.byte	0x4
 3644 00fa 4C       		.byte	0x4c
 3645 00fb 8D000000 		.4byte	0x8d
 3646 00ff 04       		.uleb128 0x4
 3647 0100 94070000 		.4byte	.LASF22
 3648 0104 04       		.byte	0x4
 3649 0105 4D       		.byte	0x4d
 3650 0106 7B000000 		.4byte	0x7b
 3651 010a 04       		.uleb128 0x4
 3652 010b 50030000 		.4byte	.LASF23
 3653 010f 04       		.byte	0x4
 3654 0110 4F       		.byte	0x4f
 3655 0111 8D000000 		.4byte	0x8d
ARM GAS  C:\Users\Luis\AppData\Local\Temp\cc4eIE9x.s 			page 67


 3656 0115 04       		.uleb128 0x4
 3657 0116 70040000 		.4byte	.LASF24
 3658 011a 04       		.byte	0x4
 3659 011b 51       		.byte	0x51
 3660 011c 7B000000 		.4byte	0x7b
 3661 0120 04       		.uleb128 0x4
 3662 0121 7F080000 		.4byte	.LASF25
 3663 0125 04       		.byte	0x4
 3664 0126 52       		.byte	0x52
 3665 0127 8D000000 		.4byte	0x8d
 3666 012b 04       		.uleb128 0x4
 3667 012c C6000000 		.4byte	.LASF26
 3668 0130 05       		.byte	0x5
 3669 0131 33       		.byte	0x33
 3670 0132 8D000000 		.4byte	0x8d
 3671 0136 04       		.uleb128 0x4
 3672 0137 E3040000 		.4byte	.LASF27
 3673 013b 05       		.byte	0x5
 3674 013c 3F       		.byte	0x3f
 3675 013d 41010000 		.4byte	0x141
 3676 0141 06       		.uleb128 0x6
 3677 0142 17070000 		.4byte	.LASF50
 3678 0146 68       		.byte	0x68
 3679 0147 06       		.byte	0x6
 3680 0148 C2       		.byte	0xc2
 3681 0149 54020000 		.4byte	0x254
 3682 014d 07       		.uleb128 0x7
 3683 014e EC040000 		.4byte	.LASF28
 3684 0152 06       		.byte	0x6
 3685 0153 C3       		.byte	0xc3
 3686 0154 5F020000 		.4byte	0x25f
 3687 0158 00       		.byte	0
 3688 0159 07       		.uleb128 0x7
 3689 015a 0F0B0000 		.4byte	.LASF29
 3690 015e 06       		.byte	0x6
 3691 015f C5       		.byte	0xc5
 3692 0160 5F020000 		.4byte	0x25f
 3693 0164 04       		.byte	0x4
 3694 0165 07       		.uleb128 0x7
 3695 0166 7E000000 		.4byte	.LASF30
 3696 016a 06       		.byte	0x6
 3697 016b C7       		.byte	0xc7
 3698 016c F4000000 		.4byte	0xf4
 3699 0170 08       		.byte	0x8
 3700 0171 07       		.uleb128 0x7
 3701 0172 550A0000 		.4byte	.LASF31
 3702 0176 06       		.byte	0x6
 3703 0177 C8       		.byte	0xc8
 3704 0178 C8040000 		.4byte	0x4c8
 3705 017c 0C       		.byte	0xc
 3706 017d 07       		.uleb128 0x7
 3707 017e 8A040000 		.4byte	.LASF32
 3708 0182 06       		.byte	0x6
 3709 0183 CA       		.byte	0xca
 3710 0184 5F020000 		.4byte	0x25f
 3711 0188 10       		.byte	0x10
 3712 0189 07       		.uleb128 0x7
ARM GAS  C:\Users\Luis\AppData\Local\Temp\cc4eIE9x.s 			page 68


 3713 018a AF060000 		.4byte	.LASF33
 3714 018e 06       		.byte	0x6
 3715 018f CB       		.byte	0xcb
 3716 0190 5F020000 		.4byte	0x25f
 3717 0194 14       		.byte	0x14
 3718 0195 07       		.uleb128 0x7
 3719 0196 FD050000 		.4byte	.LASF34
 3720 019a 06       		.byte	0x6
 3721 019b D2       		.byte	0xd2
 3722 019c 6C070000 		.4byte	0x76c
 3723 01a0 18       		.byte	0x18
 3724 01a1 07       		.uleb128 0x7
 3725 01a2 C5060000 		.4byte	.LASF35
 3726 01a6 06       		.byte	0x6
 3727 01a7 D8       		.byte	0xd8
 3728 01a8 7E070000 		.4byte	0x77e
 3729 01ac 1C       		.byte	0x1c
 3730 01ad 07       		.uleb128 0x7
 3731 01ae 0F070000 		.4byte	.LASF36
 3732 01b2 06       		.byte	0x6
 3733 01b3 DD       		.byte	0xdd
 3734 01b4 DE000000 		.4byte	0xde
 3735 01b8 20       		.byte	0x20
 3736 01b9 07       		.uleb128 0x7
 3737 01ba AC070000 		.4byte	.LASF37
 3738 01be 06       		.byte	0x6
 3739 01bf E1       		.byte	0xe1
 3740 01c0 D3000000 		.4byte	0xd3
 3741 01c4 21       		.byte	0x21
 3742 01c5 07       		.uleb128 0x7
 3743 01c6 320C0000 		.4byte	.LASF38
 3744 01ca 06       		.byte	0x6
 3745 01cb E6       		.byte	0xe6
 3746 01cc E9000000 		.4byte	0xe9
 3747 01d0 22       		.byte	0x22
 3748 01d1 08       		.uleb128 0x8
 3749 01d2 705F7500 		.ascii	"p_u\000"
 3750 01d6 06       		.byte	0x6
 3751 01d7 3101     		.2byte	0x131
 3752 01d9 A7060000 		.4byte	0x6a7
 3753 01dd 24       		.byte	0x24
 3754 01de 09       		.uleb128 0x9
 3755 01df 58010000 		.4byte	.LASF39
 3756 01e3 06       		.byte	0x6
 3757 01e4 3601     		.2byte	0x136
 3758 01e6 65020000 		.4byte	0x265
 3759 01ea 28       		.byte	0x28
 3760 01eb 09       		.uleb128 0x9
 3761 01ec 5C0D0000 		.4byte	.LASF40
 3762 01f0 06       		.byte	0x6
 3763 01f1 3C01     		.2byte	0x13c
 3764 01f3 89020000 		.4byte	0x289
 3765 01f7 2C       		.byte	0x2c
 3766 01f8 09       		.uleb128 0x9
 3767 01f9 60080000 		.4byte	.LASF41
 3768 01fd 06       		.byte	0x6
 3769 01fe 4001     		.2byte	0x140
ARM GAS  C:\Users\Luis\AppData\Local\Temp\cc4eIE9x.s 			page 69


 3770 0200 FF000000 		.4byte	0xff
 3771 0204 34       		.byte	0x34
 3772 0205 09       		.uleb128 0x9
 3773 0206 81090000 		.4byte	.LASF42
 3774 020a 06       		.byte	0x6
 3775 020b 4601     		.2byte	0x146
 3776 020d 0A010000 		.4byte	0x10a
 3777 0211 38       		.byte	0x38
 3778 0212 09       		.uleb128 0x9
 3779 0213 FA060000 		.4byte	.LASF43
 3780 0217 06       		.byte	0x6
 3781 0218 4D01     		.2byte	0x14d
 3782 021a 66070000 		.4byte	0x766
 3783 021e 3C       		.byte	0x3c
 3784 021f 09       		.uleb128 0x9
 3785 0220 4A090000 		.4byte	.LASF44
 3786 0224 06       		.byte	0x6
 3787 0225 5101     		.2byte	0x151
 3788 0227 F4000000 		.4byte	0xf4
 3789 022b 40       		.byte	0x40
 3790 022c 09       		.uleb128 0x9
 3791 022d F2060000 		.4byte	.LASF45
 3792 0231 06       		.byte	0x6
 3793 0232 5801     		.2byte	0x158
 3794 0234 3C030000 		.4byte	0x33c
 3795 0238 44       		.byte	0x44
 3796 0239 09       		.uleb128 0x9
 3797 023a EA060000 		.4byte	.LASF46
 3798 023e 06       		.byte	0x6
 3799 023f 5E01     		.2byte	0x15e
 3800 0241 58060000 		.4byte	0x658
 3801 0245 48       		.byte	0x48
 3802 0246 09       		.uleb128 0x9
 3803 0247 470D0000 		.4byte	.LASF47
 3804 024b 06       		.byte	0x6
 3805 024c 6201     		.2byte	0x162
 3806 024e 3C030000 		.4byte	0x33c
 3807 0252 60       		.byte	0x60
 3808 0253 00       		.byte	0
 3809 0254 04       		.uleb128 0x4
 3810 0255 46000000 		.4byte	.LASF48
 3811 0259 05       		.byte	0x5
 3812 025a 44       		.byte	0x44
 3813 025b 5F020000 		.4byte	0x25f
 3814 025f 0A       		.uleb128 0xa
 3815 0260 04       		.byte	0x4
 3816 0261 36010000 		.4byte	0x136
 3817 0265 04       		.uleb128 0x4
 3818 0266 38010000 		.4byte	.LASF49
 3819 026a 05       		.byte	0x5
 3820 026b 49       		.byte	0x49
 3821 026c 70020000 		.4byte	0x270
 3822 0270 06       		.uleb128 0x6
 3823 0271 2D060000 		.4byte	.LASF51
 3824 0275 04       		.byte	0x4
 3825 0276 06       		.byte	0x6
 3826 0277 B0       		.byte	0xb0
ARM GAS  C:\Users\Luis\AppData\Local\Temp\cc4eIE9x.s 			page 70


 3827 0278 89020000 		.4byte	0x289
 3828 027c 07       		.uleb128 0x7
 3829 027d EC040000 		.4byte	.LASF28
 3830 0281 06       		.byte	0x6
 3831 0282 B1       		.byte	0xb1
 3832 0283 5F020000 		.4byte	0x25f
 3833 0287 00       		.byte	0
 3834 0288 00       		.byte	0
 3835 0289 04       		.uleb128 0x4
 3836 028a 00000000 		.4byte	.LASF52
 3837 028e 05       		.byte	0x5
 3838 028f 50       		.byte	0x50
 3839 0290 94020000 		.4byte	0x294
 3840 0294 06       		.uleb128 0x6
 3841 0295 5D070000 		.4byte	.LASF53
 3842 0299 08       		.byte	0x8
 3843 029a 06       		.byte	0x6
 3844 029b B7       		.byte	0xb7
 3845 029c B9020000 		.4byte	0x2b9
 3846 02a0 07       		.uleb128 0x7
 3847 02a1 EC040000 		.4byte	.LASF28
 3848 02a5 06       		.byte	0x6
 3849 02a6 B8       		.byte	0xb8
 3850 02a7 5F020000 		.4byte	0x25f
 3851 02ab 00       		.byte	0
 3852 02ac 07       		.uleb128 0x7
 3853 02ad 0F0B0000 		.4byte	.LASF29
 3854 02b1 06       		.byte	0x6
 3855 02b2 B9       		.byte	0xb9
 3856 02b3 5F020000 		.4byte	0x25f
 3857 02b7 04       		.byte	0x4
 3858 02b8 00       		.byte	0
 3859 02b9 04       		.uleb128 0x4
 3860 02ba 430B0000 		.4byte	.LASF54
 3861 02be 05       		.byte	0x5
 3862 02bf 57       		.byte	0x57
 3863 02c0 C4020000 		.4byte	0x2c4
 3864 02c4 0B       		.uleb128 0xb
 3865 02c5 5D020000 		.4byte	.LASF55
 3866 02c9 1C       		.byte	0x1c
 3867 02ca 06       		.byte	0x6
 3868 02cb 9001     		.2byte	0x190
 3869 02cd 20030000 		.4byte	0x320
 3870 02d1 09       		.uleb128 0x9
 3871 02d2 74070000 		.4byte	.LASF56
 3872 02d6 06       		.byte	0x6
 3873 02d7 9101     		.2byte	0x191
 3874 02d9 89020000 		.4byte	0x289
 3875 02dd 00       		.byte	0
 3876 02de 09       		.uleb128 0x9
 3877 02df 5C030000 		.4byte	.LASF57
 3878 02e3 06       		.byte	0x6
 3879 02e4 9201     		.2byte	0x192
 3880 02e6 F4000000 		.4byte	0xf4
 3881 02ea 08       		.byte	0x8
 3882 02eb 09       		.uleb128 0x9
 3883 02ec 320D0000 		.4byte	.LASF58
ARM GAS  C:\Users\Luis\AppData\Local\Temp\cc4eIE9x.s 			page 71


 3884 02f0 06       		.byte	0x6
 3885 02f1 9401     		.2byte	0x194
 3886 02f3 C8040000 		.4byte	0x4c8
 3887 02f7 0C       		.byte	0xc
 3888 02f8 09       		.uleb128 0x9
 3889 02f9 8C070000 		.4byte	.LASF59
 3890 02fd 06       		.byte	0x6
 3891 02fe 9701     		.2byte	0x197
 3892 0300 5F020000 		.4byte	0x25f
 3893 0304 10       		.byte	0x10
 3894 0305 09       		.uleb128 0x9
 3895 0306 1C080000 		.4byte	.LASF60
 3896 030a 06       		.byte	0x6
 3897 030b 9801     		.2byte	0x198
 3898 030d 5F020000 		.4byte	0x25f
 3899 0311 14       		.byte	0x14
 3900 0312 09       		.uleb128 0x9
 3901 0313 77090000 		.4byte	.LASF61
 3902 0317 06       		.byte	0x6
 3903 0318 9B01     		.2byte	0x19b
 3904 031a 5F020000 		.4byte	0x25f
 3905 031e 18       		.byte	0x18
 3906 031f 00       		.byte	0
 3907 0320 04       		.uleb128 0x4
 3908 0321 CE020000 		.4byte	.LASF62
 3909 0325 05       		.byte	0x5
 3910 0326 5C       		.byte	0x5c
 3911 0327 2B030000 		.4byte	0x32b
 3912 032b 0A       		.uleb128 0xa
 3913 032c 04       		.byte	0x4
 3914 032d 31030000 		.4byte	0x331
 3915 0331 0C       		.uleb128 0xc
 3916 0332 3C030000 		.4byte	0x33c
 3917 0336 0D       		.uleb128 0xd
 3918 0337 3C030000 		.4byte	0x33c
 3919 033b 00       		.byte	0
 3920 033c 0E       		.uleb128 0xe
 3921 033d 04       		.byte	0x4
 3922 033e 04       		.uleb128 0x4
 3923 033f BA070000 		.4byte	.LASF63
 3924 0343 05       		.byte	0x5
 3925 0344 61       		.byte	0x61
 3926 0345 49030000 		.4byte	0x349
 3927 0349 0B       		.uleb128 0xb
 3928 034a BF030000 		.4byte	.LASF64
 3929 034e 14       		.byte	0x14
 3930 034f 06       		.byte	0x6
 3931 0350 6B01     		.2byte	0x16b
 3932 0352 98030000 		.4byte	0x398
 3933 0356 09       		.uleb128 0x9
 3934 0357 AC0C0000 		.4byte	.LASF65
 3935 035b 06       		.byte	0x6
 3936 035c 6C01     		.2byte	0x16c
 3937 035e 84070000 		.4byte	0x784
 3938 0362 00       		.byte	0
 3939 0363 09       		.uleb128 0x9
 3940 0364 FC000000 		.4byte	.LASF66
ARM GAS  C:\Users\Luis\AppData\Local\Temp\cc4eIE9x.s 			page 72


 3941 0368 06       		.byte	0x6
 3942 0369 6D01     		.2byte	0x16d
 3943 036b 84070000 		.4byte	0x784
 3944 036f 04       		.byte	0x4
 3945 0370 09       		.uleb128 0x9
 3946 0371 A9040000 		.4byte	.LASF67
 3947 0375 06       		.byte	0x6
 3948 0376 6E01     		.2byte	0x16e
 3949 0378 2B010000 		.4byte	0x12b
 3950 037c 08       		.byte	0x8
 3951 037d 09       		.uleb128 0x9
 3952 037e 7D0D0000 		.4byte	.LASF68
 3953 0382 06       		.byte	0x6
 3954 0383 6F01     		.2byte	0x16f
 3955 0385 20030000 		.4byte	0x320
 3956 0389 0C       		.byte	0xc
 3957 038a 09       		.uleb128 0x9
 3958 038b E20B0000 		.4byte	.LASF69
 3959 038f 06       		.byte	0x6
 3960 0390 7101     		.2byte	0x171
 3961 0392 3C030000 		.4byte	0x33c
 3962 0396 10       		.byte	0x10
 3963 0397 00       		.byte	0
 3964 0398 04       		.uleb128 0x4
 3965 0399 1C0C0000 		.4byte	.LASF70
 3966 039d 05       		.byte	0x5
 3967 039e 66       		.byte	0x66
 3968 039f A3030000 		.4byte	0x3a3
 3969 03a3 0B       		.uleb128 0xb
 3970 03a4 92040000 		.4byte	.LASF71
 3971 03a8 10       		.byte	0x10
 3972 03a9 06       		.byte	0x6
 3973 03aa 7B01     		.2byte	0x17b
 3974 03ac E5030000 		.4byte	0x3e5
 3975 03b0 09       		.uleb128 0x9
 3976 03b1 AC0C0000 		.4byte	.LASF65
 3977 03b5 06       		.byte	0x6
 3978 03b6 7C01     		.2byte	0x17c
 3979 03b8 84070000 		.4byte	0x784
 3980 03bc 00       		.byte	0
 3981 03bd 09       		.uleb128 0x9
 3982 03be FC000000 		.4byte	.LASF66
 3983 03c2 06       		.byte	0x6
 3984 03c3 7E01     		.2byte	0x17e
 3985 03c5 84070000 		.4byte	0x784
 3986 03c9 04       		.byte	0x4
 3987 03ca 09       		.uleb128 0x9
 3988 03cb A9040000 		.4byte	.LASF67
 3989 03cf 06       		.byte	0x6
 3990 03d0 8001     		.2byte	0x180
 3991 03d2 2B010000 		.4byte	0x12b
 3992 03d6 08       		.byte	0x8
 3993 03d7 09       		.uleb128 0x9
 3994 03d8 75060000 		.4byte	.LASF72
 3995 03dc 06       		.byte	0x6
 3996 03dd 8801     		.2byte	0x188
 3997 03df 2B010000 		.4byte	0x12b
ARM GAS  C:\Users\Luis\AppData\Local\Temp\cc4eIE9x.s 			page 73


 3998 03e3 0C       		.byte	0xc
 3999 03e4 00       		.byte	0
 4000 03e5 04       		.uleb128 0x4
 4001 03e6 3A070000 		.4byte	.LASF73
 4002 03ea 05       		.byte	0x5
 4003 03eb 6B       		.byte	0x6b
 4004 03ec F0030000 		.4byte	0x3f0
 4005 03f0 0F       		.uleb128 0xf
 4006 03f1 DE020000 		.4byte	.LASF74
 4007 03f5 1404     		.2byte	0x414
 4008 03f7 06       		.byte	0x6
 4009 03f8 A201     		.2byte	0x1a2
 4010 03fa 33040000 		.4byte	0x433
 4011 03fe 09       		.uleb128 0x9
 4012 03ff 4F0C0000 		.4byte	.LASF75
 4013 0403 06       		.byte	0x6
 4014 0404 AA01     		.2byte	0x1aa
 4015 0406 8A070000 		.4byte	0x78a
 4016 040a 00       		.byte	0
 4017 040b 09       		.uleb128 0x9
 4018 040c 7C040000 		.4byte	.LASF76
 4019 0410 06       		.byte	0x6
 4020 0411 AF01     		.2byte	0x1af
 4021 0413 15010000 		.4byte	0x115
 4022 0417 04       		.byte	0x4
 4023 0418 09       		.uleb128 0x9
 4024 0419 11090000 		.4byte	.LASF77
 4025 041d 06       		.byte	0x6
 4026 041e B301     		.2byte	0x1b3
 4027 0420 15010000 		.4byte	0x115
 4028 0424 08       		.byte	0x8
 4029 0425 09       		.uleb128 0x9
 4030 0426 4E040000 		.4byte	.LASF78
 4031 042a 06       		.byte	0x6
 4032 042b B901     		.2byte	0x1b9
 4033 042d EA050000 		.4byte	0x5ea
 4034 0431 0C       		.byte	0xc
 4035 0432 00       		.byte	0
 4036 0433 04       		.uleb128 0x4
 4037 0434 D00C0000 		.4byte	.LASF79
 4038 0438 05       		.byte	0x5
 4039 0439 70       		.byte	0x70
 4040 043a 3E040000 		.4byte	0x43e
 4041 043e 0F       		.uleb128 0xf
 4042 043f FB090000 		.4byte	.LASF80
 4043 0443 E805     		.2byte	0x5e8
 4044 0445 06       		.byte	0x6
 4045 0446 C201     		.2byte	0x1c2
 4046 0448 AB040000 		.4byte	0x4ab
 4047 044c 09       		.uleb128 0x9
 4048 044d 600A0000 		.4byte	.LASF81
 4049 0451 06       		.byte	0x6
 4050 0452 C601     		.2byte	0x1c6
 4051 0454 B9020000 		.4byte	0x2b9
 4052 0458 00       		.byte	0
 4053 0459 09       		.uleb128 0x9
 4054 045a 43020000 		.4byte	.LASF82
ARM GAS  C:\Users\Luis\AppData\Local\Temp\cc4eIE9x.s 			page 74


 4055 045e 06       		.byte	0x6
 4056 045f CA01     		.2byte	0x1ca
 4057 0461 98030000 		.4byte	0x398
 4058 0465 1C       		.byte	0x1c
 4059 0466 08       		.uleb128 0x8
 4060 0467 64626700 		.ascii	"dbg\000"
 4061 046b 06       		.byte	0x6
 4062 046c CE01     		.2byte	0x1ce
 4063 046e E5030000 		.4byte	0x3e5
 4064 0472 2C       		.byte	0x2c
 4065 0473 10       		.uleb128 0x10
 4066 0474 86080000 		.4byte	.LASF83
 4067 0478 06       		.byte	0x6
 4068 0479 D201     		.2byte	0x1d2
 4069 047b 36010000 		.4byte	0x136
 4070 047f 4004     		.2byte	0x440
 4071 0481 11       		.uleb128 0x11
 4072 0482 746D00   		.ascii	"tm\000"
 4073 0485 06       		.byte	0x6
 4074 0486 D701     		.2byte	0x1d7
 4075 0488 0A060000 		.4byte	0x60a
 4076 048c A804     		.2byte	0x4a8
 4077 048e 10       		.uleb128 0x10
 4078 048f 6A030000 		.4byte	.LASF84
 4079 0493 06       		.byte	0x6
 4080 0494 DD01     		.2byte	0x1dd
 4081 0496 9C060000 		.4byte	0x69c
 4082 049a B004     		.2byte	0x4b0
 4083 049c 10       		.uleb128 0x10
 4084 049d 650B0000 		.4byte	.LASF85
 4085 04a1 06       		.byte	0x6
 4086 04a2 E301     		.2byte	0x1e3
 4087 04a4 8F070000 		.4byte	0x78f
 4088 04a8 E804     		.2byte	0x4e8
 4089 04aa 00       		.byte	0
 4090 04ab 03       		.uleb128 0x3
 4091 04ac 04       		.byte	0x4
 4092 04ad 07       		.byte	0x7
 4093 04ae 160B0000 		.4byte	.LASF86
 4094 04b2 04       		.uleb128 0x4
 4095 04b3 29070000 		.4byte	.LASF87
 4096 04b7 07       		.byte	0x7
 4097 04b8 65       		.byte	0x65
 4098 04b9 3C030000 		.4byte	0x33c
 4099 04bd 04       		.uleb128 0x4
 4100 04be 860C0000 		.4byte	.LASF88
 4101 04c2 07       		.byte	0x7
 4102 04c3 6D       		.byte	0x6d
 4103 04c4 A6000000 		.4byte	0xa6
 4104 04c8 06       		.uleb128 0x6
 4105 04c9 58080000 		.4byte	.LASF89
 4106 04cd 04       		.byte	0x4
 4107 04ce 07       		.byte	0x7
 4108 04cf 89       		.byte	0x89
 4109 04d0 E1040000 		.4byte	0x4e1
 4110 04d4 12       		.uleb128 0x12
 4111 04d5 72313300 		.ascii	"r13\000"
ARM GAS  C:\Users\Luis\AppData\Local\Temp\cc4eIE9x.s 			page 75


 4112 04d9 07       		.byte	0x7
 4113 04da 8A       		.byte	0x8a
 4114 04db 5C050000 		.4byte	0x55c
 4115 04df 00       		.byte	0
 4116 04e0 00       		.byte	0
 4117 04e1 06       		.uleb128 0x6
 4118 04e2 A6090000 		.4byte	.LASF90
 4119 04e6 24       		.byte	0x24
 4120 04e7 08       		.byte	0x8
 4121 04e8 F4       		.byte	0xf4
 4122 04e9 5C050000 		.4byte	0x55c
 4123 04ed 08       		.uleb128 0x8
 4124 04ee 723400   		.ascii	"r4\000"
 4125 04f1 08       		.byte	0x8
 4126 04f2 0701     		.2byte	0x107
 4127 04f4 B2040000 		.4byte	0x4b2
 4128 04f8 00       		.byte	0
 4129 04f9 08       		.uleb128 0x8
 4130 04fa 723500   		.ascii	"r5\000"
 4131 04fd 08       		.byte	0x8
 4132 04fe 0801     		.2byte	0x108
 4133 0500 B2040000 		.4byte	0x4b2
 4134 0504 04       		.byte	0x4
 4135 0505 08       		.uleb128 0x8
 4136 0506 723600   		.ascii	"r6\000"
 4137 0509 08       		.byte	0x8
 4138 050a 0901     		.2byte	0x109
 4139 050c B2040000 		.4byte	0x4b2
 4140 0510 08       		.byte	0x8
 4141 0511 08       		.uleb128 0x8
 4142 0512 723700   		.ascii	"r7\000"
 4143 0515 08       		.byte	0x8
 4144 0516 0A01     		.2byte	0x10a
 4145 0518 B2040000 		.4byte	0x4b2
 4146 051c 0C       		.byte	0xc
 4147 051d 08       		.uleb128 0x8
 4148 051e 723800   		.ascii	"r8\000"
 4149 0521 08       		.byte	0x8
 4150 0522 0B01     		.2byte	0x10b
 4151 0524 B2040000 		.4byte	0x4b2
 4152 0528 10       		.byte	0x10
 4153 0529 08       		.uleb128 0x8
 4154 052a 723900   		.ascii	"r9\000"
 4155 052d 08       		.byte	0x8
 4156 052e 0C01     		.2byte	0x10c
 4157 0530 B2040000 		.4byte	0x4b2
 4158 0534 14       		.byte	0x14
 4159 0535 08       		.uleb128 0x8
 4160 0536 72313000 		.ascii	"r10\000"
 4161 053a 08       		.byte	0x8
 4162 053b 0D01     		.2byte	0x10d
 4163 053d B2040000 		.4byte	0x4b2
 4164 0541 18       		.byte	0x18
 4165 0542 08       		.uleb128 0x8
 4166 0543 72313100 		.ascii	"r11\000"
 4167 0547 08       		.byte	0x8
 4168 0548 0E01     		.2byte	0x10e
ARM GAS  C:\Users\Luis\AppData\Local\Temp\cc4eIE9x.s 			page 76


 4169 054a B2040000 		.4byte	0x4b2
 4170 054e 1C       		.byte	0x1c
 4171 054f 08       		.uleb128 0x8
 4172 0550 6C7200   		.ascii	"lr\000"
 4173 0553 08       		.byte	0x8
 4174 0554 0F01     		.2byte	0x10f
 4175 0556 B2040000 		.4byte	0x4b2
 4176 055a 20       		.byte	0x20
 4177 055b 00       		.byte	0
 4178 055c 0A       		.uleb128 0xa
 4179 055d 04       		.byte	0x4
 4180 055e E1040000 		.4byte	0x4e1
 4181 0562 13       		.uleb128 0x13
 4182 0563 10       		.byte	0x10
 4183 0564 09       		.byte	0x9
 4184 0565 51       		.byte	0x51
 4185 0566 9B050000 		.4byte	0x59b
 4186 056a 07       		.uleb128 0x7
 4187 056b B7060000 		.4byte	.LASF91
 4188 056f 09       		.byte	0x9
 4189 0570 55       		.byte	0x55
 4190 0571 2B010000 		.4byte	0x12b
 4191 0575 00       		.byte	0
 4192 0576 07       		.uleb128 0x7
 4193 0577 9B060000 		.4byte	.LASF92
 4194 057b 09       		.byte	0x9
 4195 057c 59       		.byte	0x59
 4196 057d 5F020000 		.4byte	0x25f
 4197 0581 04       		.byte	0x4
 4198 0582 07       		.uleb128 0x7
 4199 0583 36040000 		.4byte	.LASF93
 4200 0587 09       		.byte	0x9
 4201 0588 5D       		.byte	0x5d
 4202 0589 3C030000 		.4byte	0x33c
 4203 058d 08       		.byte	0x8
 4204 058e 07       		.uleb128 0x7
 4205 058f 62010000 		.4byte	.LASF94
 4206 0593 09       		.byte	0x9
 4207 0594 61       		.byte	0x61
 4208 0595 45000000 		.4byte	0x45
 4209 0599 0C       		.byte	0xc
 4210 059a 00       		.byte	0
 4211 059b 04       		.uleb128 0x4
 4212 059c BA0B0000 		.4byte	.LASF95
 4213 05a0 09       		.byte	0x9
 4214 05a1 62       		.byte	0x62
 4215 05a2 62050000 		.4byte	0x562
 4216 05a6 14       		.uleb128 0x14
 4217 05a7 0804     		.2byte	0x408
 4218 05a9 09       		.byte	0x9
 4219 05aa 67       		.byte	0x67
 4220 05ab D4050000 		.4byte	0x5d4
 4221 05af 07       		.uleb128 0x7
 4222 05b0 21070000 		.4byte	.LASF96
 4223 05b4 09       		.byte	0x9
 4224 05b5 6B       		.byte	0x6b
 4225 05b6 2C000000 		.4byte	0x2c
ARM GAS  C:\Users\Luis\AppData\Local\Temp\cc4eIE9x.s 			page 77


 4226 05ba 00       		.byte	0
 4227 05bb 07       		.uleb128 0x7
 4228 05bc 02080000 		.4byte	.LASF97
 4229 05c0 09       		.byte	0x9
 4230 05c1 6F       		.byte	0x6f
 4231 05c2 D4050000 		.4byte	0x5d4
 4232 05c6 04       		.byte	0x4
 4233 05c7 07       		.uleb128 0x7
 4234 05c8 EB070000 		.4byte	.LASF98
 4235 05cc 09       		.byte	0x9
 4236 05cd 73       		.byte	0x73
 4237 05ce DA050000 		.4byte	0x5da
 4238 05d2 08       		.byte	0x8
 4239 05d3 00       		.byte	0
 4240 05d4 0A       		.uleb128 0xa
 4241 05d5 04       		.byte	0x4
 4242 05d6 9B050000 		.4byte	0x59b
 4243 05da 15       		.uleb128 0x15
 4244 05db 9B050000 		.4byte	0x59b
 4245 05df EA050000 		.4byte	0x5ea
 4246 05e3 16       		.uleb128 0x16
 4247 05e4 AB040000 		.4byte	0x4ab
 4248 05e8 3F       		.byte	0x3f
 4249 05e9 00       		.byte	0
 4250 05ea 04       		.uleb128 0x4
 4251 05eb F20C0000 		.4byte	.LASF99
 4252 05ef 09       		.byte	0x9
 4253 05f0 74       		.byte	0x74
 4254 05f1 A6050000 		.4byte	0x5a6
 4255 05f5 13       		.uleb128 0x13
 4256 05f6 04       		.byte	0x4
 4257 05f7 0A       		.byte	0xa
 4258 05f8 38       		.byte	0x38
 4259 05f9 0A060000 		.4byte	0x60a
 4260 05fd 07       		.uleb128 0x7
 4261 05fe 40040000 		.4byte	.LASF100
 4262 0602 0A       		.byte	0xa
 4263 0603 3C       		.byte	0x3c
 4264 0604 BD000000 		.4byte	0xbd
 4265 0608 00       		.byte	0
 4266 0609 00       		.byte	0
 4267 060a 04       		.uleb128 0x4
 4268 060b 66080000 		.4byte	.LASF101
 4269 060f 0A       		.byte	0xa
 4270 0610 3D       		.byte	0x3d
 4271 0611 F5050000 		.4byte	0x5f5
 4272 0615 13       		.uleb128 0x13
 4273 0616 18       		.byte	0x18
 4274 0617 0A       		.byte	0xa
 4275 0618 48       		.byte	0x48
 4276 0619 58060000 		.4byte	0x658
 4277 061d 07       		.uleb128 0x7
 4278 061e E90B0000 		.4byte	.LASF102
 4279 0622 0A       		.byte	0xa
 4280 0623 49       		.byte	0x49
 4281 0624 BD000000 		.4byte	0xbd
 4282 0628 00       		.byte	0
ARM GAS  C:\Users\Luis\AppData\Local\Temp\cc4eIE9x.s 			page 78


 4283 0629 07       		.uleb128 0x7
 4284 062a 84040000 		.4byte	.LASF103
 4285 062e 0A       		.byte	0xa
 4286 062f 4A       		.byte	0x4a
 4287 0630 BD000000 		.4byte	0xbd
 4288 0634 04       		.byte	0x4
 4289 0635 07       		.uleb128 0x7
 4290 0636 CE050000 		.4byte	.LASF104
 4291 063a 0A       		.byte	0xa
 4292 063b 4B       		.byte	0x4b
 4293 063c BD000000 		.4byte	0xbd
 4294 0640 08       		.byte	0x8
 4295 0641 12       		.uleb128 0x12
 4296 0642 6E00     		.ascii	"n\000"
 4297 0644 0A       		.byte	0xa
 4298 0645 4C       		.byte	0x4c
 4299 0646 20010000 		.4byte	0x120
 4300 064a 0C       		.byte	0xc
 4301 064b 07       		.uleb128 0x7
 4302 064c 4D010000 		.4byte	.LASF105
 4303 0650 0A       		.byte	0xa
 4304 0651 4D       		.byte	0x4d
 4305 0652 C8000000 		.4byte	0xc8
 4306 0656 10       		.byte	0x10
 4307 0657 00       		.byte	0
 4308 0658 04       		.uleb128 0x4
 4309 0659 E3050000 		.4byte	.LASF106
 4310 065d 0A       		.byte	0xa
 4311 065e 4E       		.byte	0x4e
 4312 065f 15060000 		.4byte	0x615
 4313 0663 13       		.uleb128 0x13
 4314 0664 38       		.byte	0x38
 4315 0665 0B       		.byte	0xb
 4316 0666 38       		.byte	0x38
 4317 0667 9C060000 		.4byte	0x69c
 4318 066b 07       		.uleb128 0x7
 4319 066c 2C090000 		.4byte	.LASF107
 4320 0670 0B       		.byte	0xb
 4321 0671 39       		.byte	0x39
 4322 0672 20010000 		.4byte	0x120
 4323 0676 00       		.byte	0
 4324 0677 07       		.uleb128 0x7
 4325 0678 33080000 		.4byte	.LASF108
 4326 067c 0B       		.byte	0xb
 4327 067d 3A       		.byte	0x3a
 4328 067e 20010000 		.4byte	0x120
 4329 0682 04       		.byte	0x4
 4330 0683 07       		.uleb128 0x7
 4331 0684 180A0000 		.4byte	.LASF109
 4332 0688 0B       		.byte	0xb
 4333 0689 3B       		.byte	0x3b
 4334 068a 58060000 		.4byte	0x658
 4335 068e 08       		.byte	0x8
 4336 068f 07       		.uleb128 0x7
 4337 0690 2D010000 		.4byte	.LASF110
 4338 0694 0B       		.byte	0xb
 4339 0695 3D       		.byte	0x3d
ARM GAS  C:\Users\Luis\AppData\Local\Temp\cc4eIE9x.s 			page 79


 4340 0696 58060000 		.4byte	0x658
 4341 069a 20       		.byte	0x20
 4342 069b 00       		.byte	0
 4343 069c 04       		.uleb128 0x4
 4344 069d 41030000 		.4byte	.LASF111
 4345 06a1 0B       		.byte	0xb
 4346 06a2 3F       		.byte	0x3f
 4347 06a3 63060000 		.4byte	0x663
 4348 06a7 17       		.uleb128 0x17
 4349 06a8 04       		.byte	0x4
 4350 06a9 06       		.byte	0x6
 4351 06aa FA       		.byte	0xfa
 4352 06ab 04070000 		.4byte	0x704
 4353 06af 18       		.uleb128 0x18
 4354 06b0 09050000 		.4byte	.LASF112
 4355 06b4 06       		.byte	0x6
 4356 06b5 0101     		.2byte	0x101
 4357 06b7 FF000000 		.4byte	0xff
 4358 06bb 18       		.uleb128 0x18
 4359 06bc DE0D0000 		.4byte	.LASF113
 4360 06c0 06       		.byte	0x6
 4361 06c1 0801     		.2byte	0x108
 4362 06c3 FF000000 		.4byte	0xff
 4363 06c7 18       		.uleb128 0x18
 4364 06c8 D7020000 		.4byte	.LASF114
 4365 06cc 06       		.byte	0x6
 4366 06cd 0F01     		.2byte	0x10f
 4367 06cf 3C030000 		.4byte	0x33c
 4368 06d3 18       		.uleb128 0x18
 4369 06d4 C70D0000 		.4byte	.LASF115
 4370 06d8 06       		.byte	0x6
 4371 06d9 1601     		.2byte	0x116
 4372 06db 04070000 		.4byte	0x704
 4373 06df 18       		.uleb128 0x18
 4374 06e0 AA0B0000 		.4byte	.LASF116
 4375 06e4 06       		.byte	0x6
 4376 06e5 1E01     		.2byte	0x11e
 4377 06e7 2F070000 		.4byte	0x72f
 4378 06eb 18       		.uleb128 0x18
 4379 06ec CD0D0000 		.4byte	.LASF117
 4380 06f0 06       		.byte	0x6
 4381 06f1 2701     		.2byte	0x127
 4382 06f3 66070000 		.4byte	0x766
 4383 06f7 18       		.uleb128 0x18
 4384 06f8 83020000 		.4byte	.LASF118
 4385 06fc 06       		.byte	0x6
 4386 06fd 2F01     		.2byte	0x12f
 4387 06ff 0A010000 		.4byte	0x10a
 4388 0703 00       		.byte	0
 4389 0704 0A       		.uleb128 0xa
 4390 0705 04       		.byte	0x4
 4391 0706 54020000 		.4byte	0x254
 4392 070a 06       		.uleb128 0x6
 4393 070b AA030000 		.4byte	.LASF119
 4394 070f 0C       		.byte	0xc
 4395 0710 0C       		.byte	0xc
 4396 0711 34       		.byte	0x34
ARM GAS  C:\Users\Luis\AppData\Local\Temp\cc4eIE9x.s 			page 80


 4397 0712 2F070000 		.4byte	0x72f
 4398 0716 07       		.uleb128 0x7
 4399 0717 EA000000 		.4byte	.LASF120
 4400 071b 0C       		.byte	0xc
 4401 071c 35       		.byte	0x35
 4402 071d 89020000 		.4byte	0x289
 4403 0721 00       		.byte	0
 4404 0722 07       		.uleb128 0x7
 4405 0723 EE020000 		.4byte	.LASF121
 4406 0727 0C       		.byte	0xc
 4407 0728 37       		.byte	0x37
 4408 0729 15010000 		.4byte	0x115
 4409 072d 08       		.byte	0x8
 4410 072e 00       		.byte	0
 4411 072f 0A       		.uleb128 0xa
 4412 0730 04       		.byte	0x4
 4413 0731 0A070000 		.4byte	0x70a
 4414 0735 06       		.uleb128 0x6
 4415 0736 A9050000 		.4byte	.LASF122
 4416 073a 10       		.byte	0x10
 4417 073b 0D       		.byte	0xd
 4418 073c 39       		.byte	0x39
 4419 073d 66070000 		.4byte	0x766
 4420 0741 07       		.uleb128 0x7
 4421 0742 95090000 		.4byte	.LASF123
 4422 0746 0D       		.byte	0xd
 4423 0747 3A       		.byte	0x3a
 4424 0748 89020000 		.4byte	0x289
 4425 074c 00       		.byte	0
 4426 074d 07       		.uleb128 0x7
 4427 074e E2000000 		.4byte	.LASF124
 4428 0752 0D       		.byte	0xd
 4429 0753 3C       		.byte	0x3c
 4430 0754 5F020000 		.4byte	0x25f
 4431 0758 08       		.byte	0x8
 4432 0759 07       		.uleb128 0x7
 4433 075a 040D0000 		.4byte	.LASF125
 4434 075e 0D       		.byte	0xd
 4435 075f 3E       		.byte	0x3e
 4436 0760 AA070000 		.4byte	0x7aa
 4437 0764 0C       		.byte	0xc
 4438 0765 00       		.byte	0
 4439 0766 0A       		.uleb128 0xa
 4440 0767 04       		.byte	0x4
 4441 0768 35070000 		.4byte	0x735
 4442 076c 0A       		.uleb128 0xa
 4443 076d 04       		.byte	0x4
 4444 076e 72070000 		.4byte	0x772
 4445 0772 19       		.uleb128 0x19
 4446 0773 77070000 		.4byte	0x777
 4447 0777 03       		.uleb128 0x3
 4448 0778 01       		.byte	0x1
 4449 0779 08       		.byte	0x8
 4450 077a 72000000 		.4byte	.LASF126
 4451 077e 0A       		.uleb128 0xa
 4452 077f 04       		.byte	0x4
 4453 0780 BD040000 		.4byte	0x4bd
ARM GAS  C:\Users\Luis\AppData\Local\Temp\cc4eIE9x.s 			page 81


 4454 0784 0A       		.uleb128 0xa
 4455 0785 04       		.byte	0x4
 4456 0786 3E030000 		.4byte	0x33e
 4457 078a 05       		.uleb128 0x5
 4458 078b 6C070000 		.4byte	0x76c
 4459 078f 15       		.uleb128 0x15
 4460 0790 BD040000 		.4byte	0x4bd
 4461 0794 9F070000 		.4byte	0x79f
 4462 0798 16       		.uleb128 0x16
 4463 0799 AB040000 		.4byte	0x4ab
 4464 079d 1F       		.byte	0x1f
 4465 079e 00       		.byte	0
 4466 079f 04       		.uleb128 0x4
 4467 07a0 D20B0000 		.4byte	.LASF127
 4468 07a4 0D       		.byte	0xd
 4469 07a5 34       		.byte	0x34
 4470 07a6 35070000 		.4byte	0x735
 4471 07aa 0A       		.uleb128 0xa
 4472 07ab 04       		.byte	0x4
 4473 07ac 9F070000 		.4byte	0x79f
 4474 07b0 03       		.uleb128 0x3
 4475 07b1 01       		.byte	0x1
 4476 07b2 02       		.byte	0x2
 4477 07b3 3D050000 		.4byte	.LASF128
 4478 07b7 04       		.uleb128 0x4
 4479 07b8 A7070000 		.4byte	.LASF129
 4480 07bc 0E       		.byte	0xe
 4481 07bd 38       		.byte	0x38
 4482 07be 45000000 		.4byte	0x45
 4483 07c2 04       		.uleb128 0x4
 4484 07c3 C3050000 		.4byte	.LASF130
 4485 07c7 0E       		.byte	0xe
 4486 07c8 39       		.byte	0x39
 4487 07c9 33000000 		.4byte	0x33
 4488 07cd 04       		.uleb128 0x4
 4489 07ce 6B010000 		.4byte	.LASF131
 4490 07d2 0E       		.byte	0xe
 4491 07d3 3A       		.byte	0x3a
 4492 07d4 69000000 		.4byte	0x69
 4493 07d8 04       		.uleb128 0x4
 4494 07d9 570B0000 		.4byte	.LASF132
 4495 07dd 0E       		.byte	0xe
 4496 07de 3B       		.byte	0x3b
 4497 07df 57000000 		.4byte	0x57
 4498 07e3 04       		.uleb128 0x4
 4499 07e4 5C090000 		.4byte	.LASF133
 4500 07e8 0E       		.byte	0xe
 4501 07e9 3C       		.byte	0x3c
 4502 07ea 8D000000 		.4byte	0x8d
 4503 07ee 04       		.uleb128 0x4
 4504 07ef C8050000 		.4byte	.LASF134
 4505 07f3 0E       		.byte	0xe
 4506 07f4 3D       		.byte	0x3d
 4507 07f5 7B000000 		.4byte	0x7b
 4508 07f9 04       		.uleb128 0x4
 4509 07fa 8C0A0000 		.4byte	.LASF135
 4510 07fe 0E       		.byte	0xe
ARM GAS  C:\Users\Luis\AppData\Local\Temp\cc4eIE9x.s 			page 82


 4511 07ff 3E       		.byte	0x3e
 4512 0800 8D000000 		.4byte	0x8d
 4513 0804 04       		.uleb128 0x4
 4514 0805 59060000 		.4byte	.LASF136
 4515 0809 0F       		.byte	0xf
 4516 080a 4C       		.byte	0x4c
 4517 080b CD070000 		.4byte	0x7cd
 4518 080f 04       		.uleb128 0x4
 4519 0810 47010000 		.4byte	.LASF137
 4520 0814 10       		.byte	0x10
 4521 0815 2F       		.byte	0x2f
 4522 0816 C2070000 		.4byte	0x7c2
 4523 081a 1A       		.uleb128 0x1a
 4524 081b 01       		.byte	0x1
 4525 081c 11       		.byte	0x11
 4526 081d 32       		.byte	0x32
 4527 081e 3B080000 		.4byte	0x83b
 4528 0822 1B       		.uleb128 0x1b
 4529 0823 F4020000 		.4byte	.LASF138
 4530 0827 00       		.sleb128 0
 4531 0828 1B       		.uleb128 0x1b
 4532 0829 18050000 		.4byte	.LASF139
 4533 082d 01       		.sleb128 1
 4534 082e 1B       		.uleb128 0x1b
 4535 082f 4E080000 		.4byte	.LASF140
 4536 0833 02       		.sleb128 2
 4537 0834 1B       		.uleb128 0x1b
 4538 0835 CE080000 		.4byte	.LASF141
 4539 0839 03       		.sleb128 3
 4540 083a 00       		.byte	0
 4541 083b 04       		.uleb128 0x4
 4542 083c 740B0000 		.4byte	.LASF142
 4543 0840 11       		.byte	0x11
 4544 0841 37       		.byte	0x37
 4545 0842 1A080000 		.4byte	0x81a
 4546 0846 1A       		.uleb128 0x1a
 4547 0847 01       		.byte	0x1
 4548 0848 11       		.byte	0x11
 4549 0849 39       		.byte	0x39
 4550 084a 67080000 		.4byte	0x867
 4551 084e 1B       		.uleb128 0x1b
 4552 084f 8E000000 		.4byte	.LASF143
 4553 0853 00       		.sleb128 0
 4554 0854 1B       		.uleb128 0x1b
 4555 0855 BE0D0000 		.4byte	.LASF144
 4556 0859 01       		.sleb128 1
 4557 085a 1B       		.uleb128 0x1b
 4558 085b B50D0000 		.4byte	.LASF145
 4559 085f 02       		.sleb128 2
 4560 0860 1B       		.uleb128 0x1b
 4561 0861 8D050000 		.4byte	.LASF146
 4562 0865 03       		.sleb128 3
 4563 0866 00       		.byte	0
 4564 0867 06       		.uleb128 0x6
 4565 0868 590C0000 		.4byte	.LASF147
 4566 086c 10       		.byte	0x10
 4567 086d 11       		.byte	0x11
ARM GAS  C:\Users\Luis\AppData\Local\Temp\cc4eIE9x.s 			page 83


 4568 086e 4F       		.byte	0x4f
 4569 086f C8080000 		.4byte	0x8c8
 4570 0873 07       		.uleb128 0x7
 4571 0874 22010000 		.4byte	.LASF148
 4572 0878 11       		.byte	0x11
 4573 0879 51       		.byte	0x51
 4574 087a C8080000 		.4byte	0x8c8
 4575 087e 00       		.byte	0
 4576 087f 07       		.uleb128 0x7
 4577 0880 10050000 		.4byte	.LASF149
 4578 0884 11       		.byte	0x11
 4579 0885 54       		.byte	0x54
 4580 0886 3C030000 		.4byte	0x33c
 4581 088a 04       		.byte	0x4
 4582 088b 07       		.uleb128 0x7
 4583 088c 01050000 		.4byte	.LASF150
 4584 0890 11       		.byte	0x11
 4585 0891 5D       		.byte	0x5d
 4586 0892 CD070000 		.4byte	0x7cd
 4587 0896 08       		.byte	0x8
 4588 0897 12       		.uleb128 0x12
 4589 0898 6C656E00 		.ascii	"len\000"
 4590 089c 11       		.byte	0x11
 4591 089d 60       		.byte	0x60
 4592 089e CD070000 		.4byte	0x7cd
 4593 08a2 0A       		.byte	0xa
 4594 08a3 07       		.uleb128 0x7
 4595 08a4 DD060000 		.4byte	.LASF151
 4596 08a8 11       		.byte	0x11
 4597 08a9 63       		.byte	0x63
 4598 08aa B7070000 		.4byte	0x7b7
 4599 08ae 0C       		.byte	0xc
 4600 08af 07       		.uleb128 0x7
 4601 08b0 C0000000 		.4byte	.LASF152
 4602 08b4 11       		.byte	0x11
 4603 08b5 66       		.byte	0x66
 4604 08b6 B7070000 		.4byte	0x7b7
 4605 08ba 0D       		.byte	0xd
 4606 08bb 12       		.uleb128 0x12
 4607 08bc 72656600 		.ascii	"ref\000"
 4608 08c0 11       		.byte	0x11
 4609 08c1 6D       		.byte	0x6d
 4610 08c2 CD070000 		.4byte	0x7cd
 4611 08c6 0E       		.byte	0xe
 4612 08c7 00       		.byte	0
 4613 08c8 0A       		.uleb128 0xa
 4614 08c9 04       		.byte	0x4
 4615 08ca 67080000 		.4byte	0x867
 4616 08ce 06       		.uleb128 0x6
 4617 08cf F00D0000 		.4byte	.LASF153
 4618 08d3 04       		.byte	0x4
 4619 08d4 12       		.byte	0x12
 4620 08d5 2C       		.byte	0x2c
 4621 08d6 E7080000 		.4byte	0x8e7
 4622 08da 07       		.uleb128 0x7
 4623 08db 9C0C0000 		.4byte	.LASF154
 4624 08df 12       		.byte	0x12
ARM GAS  C:\Users\Luis\AppData\Local\Temp\cc4eIE9x.s 			page 84


 4625 08e0 2D       		.byte	0x2d
 4626 08e1 E3070000 		.4byte	0x7e3
 4627 08e5 00       		.byte	0
 4628 08e6 00       		.byte	0
 4629 08e7 04       		.uleb128 0x4
 4630 08e8 AB0D0000 		.4byte	.LASF155
 4631 08ec 12       		.byte	0x12
 4632 08ed 40       		.byte	0x40
 4633 08ee CE080000 		.4byte	0x8ce
 4634 08f2 0A       		.uleb128 0xa
 4635 08f3 04       		.byte	0x4
 4636 08f4 F8080000 		.4byte	0x8f8
 4637 08f8 06       		.uleb128 0x6
 4638 08f9 BD0C0000 		.4byte	.LASF156
 4639 08fd 30       		.byte	0x30
 4640 08fe 13       		.byte	0x13
 4641 08ff 88       		.byte	0x88
 4642 0900 AC090000 		.4byte	0x9ac
 4643 0904 07       		.uleb128 0x7
 4644 0905 22010000 		.4byte	.LASF148
 4645 0909 13       		.byte	0x13
 4646 090a 8A       		.byte	0x8a
 4647 090b F2080000 		.4byte	0x8f2
 4648 090f 00       		.byte	0
 4649 0910 07       		.uleb128 0x7
 4650 0911 F00D0000 		.4byte	.LASF153
 4651 0915 13       		.byte	0x13
 4652 0916 8D       		.byte	0x8d
 4653 0917 E7080000 		.4byte	0x8e7
 4654 091b 04       		.byte	0x4
 4655 091c 07       		.uleb128 0x7
 4656 091d 55070000 		.4byte	.LASF157
 4657 0921 13       		.byte	0x13
 4658 0922 8E       		.byte	0x8e
 4659 0923 E7080000 		.4byte	0x8e7
 4660 0927 08       		.byte	0x8
 4661 0928 12       		.uleb128 0x12
 4662 0929 677700   		.ascii	"gw\000"
 4663 092c 13       		.byte	0x13
 4664 092d 8F       		.byte	0x8f
 4665 092e E7080000 		.4byte	0x8e7
 4666 0932 0C       		.byte	0xc
 4667 0933 07       		.uleb128 0x7
 4668 0934 48080000 		.4byte	.LASF158
 4669 0938 13       		.byte	0x13
 4670 0939 93       		.byte	0x93
 4671 093a AC090000 		.4byte	0x9ac
 4672 093e 10       		.byte	0x10
 4673 093f 07       		.uleb128 0x7
 4674 0940 77000000 		.4byte	.LASF159
 4675 0944 13       		.byte	0x13
 4676 0945 97       		.byte	0x97
 4677 0946 D1090000 		.4byte	0x9d1
 4678 094a 14       		.byte	0x14
 4679 094b 07       		.uleb128 0x7
 4680 094c 910C0000 		.4byte	.LASF160
 4681 0950 13       		.byte	0x13
ARM GAS  C:\Users\Luis\AppData\Local\Temp\cc4eIE9x.s 			page 85


 4682 0951 9B       		.byte	0x9b
 4683 0952 010A0000 		.4byte	0xa01
 4684 0956 18       		.byte	0x18
 4685 0957 07       		.uleb128 0x7
 4686 0958 A60C0000 		.4byte	.LASF161
 4687 095c 13       		.byte	0x13
 4688 095d AC       		.byte	0xac
 4689 095e 3C030000 		.4byte	0x33c
 4690 0962 1C       		.byte	0x1c
 4691 0963 12       		.uleb128 0x12
 4692 0964 6D747500 		.ascii	"mtu\000"
 4693 0968 13       		.byte	0x13
 4694 0969 BA       		.byte	0xba
 4695 096a CD070000 		.4byte	0x7cd
 4696 096e 20       		.byte	0x20
 4697 096f 07       		.uleb128 0x7
 4698 0970 9D080000 		.4byte	.LASF162
 4699 0974 13       		.byte	0x13
 4700 0975 BC       		.byte	0xbc
 4701 0976 B7070000 		.4byte	0x7b7
 4702 097a 22       		.byte	0x22
 4703 097b 07       		.uleb128 0x7
 4704 097c 09040000 		.4byte	.LASF163
 4705 0980 13       		.byte	0x13
 4706 0981 BE       		.byte	0xbe
 4707 0982 260A0000 		.4byte	0xa26
 4708 0986 23       		.byte	0x23
 4709 0987 07       		.uleb128 0x7
 4710 0988 C0000000 		.4byte	.LASF152
 4711 098c 13       		.byte	0x13
 4712 098d C0       		.byte	0xc0
 4713 098e B7070000 		.4byte	0x7b7
 4714 0992 29       		.byte	0x29
 4715 0993 07       		.uleb128 0x7
 4716 0994 2D000000 		.4byte	.LASF164
 4717 0998 13       		.byte	0x13
 4718 0999 C2       		.byte	0xc2
 4719 099a 360A0000 		.4byte	0xa36
 4720 099e 2A       		.byte	0x2a
 4721 099f 12       		.uleb128 0x12
 4722 09a0 6E756D00 		.ascii	"num\000"
 4723 09a4 13       		.byte	0x13
 4724 09a5 C4       		.byte	0xc4
 4725 09a6 B7070000 		.4byte	0x7b7
 4726 09aa 2C       		.byte	0x2c
 4727 09ab 00       		.byte	0
 4728 09ac 04       		.uleb128 0x4
 4729 09ad 17030000 		.4byte	.LASF165
 4730 09b1 13       		.byte	0x13
 4731 09b2 6D       		.byte	0x6d
 4732 09b3 B7090000 		.4byte	0x9b7
 4733 09b7 0A       		.uleb128 0xa
 4734 09b8 04       		.byte	0x4
 4735 09b9 BD090000 		.4byte	0x9bd
 4736 09bd 1C       		.uleb128 0x1c
 4737 09be 0F080000 		.4byte	0x80f
 4738 09c2 D1090000 		.4byte	0x9d1
ARM GAS  C:\Users\Luis\AppData\Local\Temp\cc4eIE9x.s 			page 86


 4739 09c6 0D       		.uleb128 0xd
 4740 09c7 C8080000 		.4byte	0x8c8
 4741 09cb 0D       		.uleb128 0xd
 4742 09cc F2080000 		.4byte	0x8f2
 4743 09d0 00       		.byte	0
 4744 09d1 04       		.uleb128 0x4
 4745 09d2 8A020000 		.4byte	.LASF166
 4746 09d6 13       		.byte	0x13
 4747 09d7 76       		.byte	0x76
 4748 09d8 DC090000 		.4byte	0x9dc
 4749 09dc 0A       		.uleb128 0xa
 4750 09dd 04       		.byte	0x4
 4751 09de E2090000 		.4byte	0x9e2
 4752 09e2 1C       		.uleb128 0x1c
 4753 09e3 0F080000 		.4byte	0x80f
 4754 09e7 FB090000 		.4byte	0x9fb
 4755 09eb 0D       		.uleb128 0xd
 4756 09ec F2080000 		.4byte	0x8f2
 4757 09f0 0D       		.uleb128 0xd
 4758 09f1 C8080000 		.4byte	0x8c8
 4759 09f5 0D       		.uleb128 0xd
 4760 09f6 FB090000 		.4byte	0x9fb
 4761 09fa 00       		.byte	0
 4762 09fb 0A       		.uleb128 0xa
 4763 09fc 04       		.byte	0x4
 4764 09fd E7080000 		.4byte	0x8e7
 4765 0a01 04       		.uleb128 0x4
 4766 0a02 BC0A0000 		.4byte	.LASF167
 4767 0a06 13       		.byte	0x13
 4768 0a07 7E       		.byte	0x7e
 4769 0a08 0C0A0000 		.4byte	0xa0c
 4770 0a0c 0A       		.uleb128 0xa
 4771 0a0d 04       		.byte	0x4
 4772 0a0e 120A0000 		.4byte	0xa12
 4773 0a12 1C       		.uleb128 0x1c
 4774 0a13 0F080000 		.4byte	0x80f
 4775 0a17 260A0000 		.4byte	0xa26
 4776 0a1b 0D       		.uleb128 0xd
 4777 0a1c F2080000 		.4byte	0x8f2
 4778 0a20 0D       		.uleb128 0xd
 4779 0a21 C8080000 		.4byte	0x8c8
 4780 0a25 00       		.byte	0
 4781 0a26 15       		.uleb128 0x15
 4782 0a27 B7070000 		.4byte	0x7b7
 4783 0a2b 360A0000 		.4byte	0xa36
 4784 0a2f 16       		.uleb128 0x16
 4785 0a30 AB040000 		.4byte	0x4ab
 4786 0a34 05       		.byte	0x5
 4787 0a35 00       		.byte	0
 4788 0a36 15       		.uleb128 0x15
 4789 0a37 77070000 		.4byte	0x777
 4790 0a3b 460A0000 		.4byte	0xa46
 4791 0a3f 16       		.uleb128 0x16
 4792 0a40 AB040000 		.4byte	0x4ab
 4793 0a44 01       		.byte	0x1
 4794 0a45 00       		.byte	0
 4795 0a46 04       		.uleb128 0x4
ARM GAS  C:\Users\Luis\AppData\Local\Temp\cc4eIE9x.s 			page 87


 4796 0a47 B2000000 		.4byte	.LASF168
 4797 0a4b 14       		.byte	0x14
 4798 0a4c 3C       		.byte	0x3c
 4799 0a4d 510A0000 		.4byte	0xa51
 4800 0a51 0A       		.uleb128 0xa
 4801 0a52 04       		.byte	0x4
 4802 0a53 570A0000 		.4byte	0xa57
 4803 0a57 1C       		.uleb128 0x1c
 4804 0a58 0F080000 		.4byte	0x80f
 4805 0a5c 700A0000 		.4byte	0xa70
 4806 0a60 0D       		.uleb128 0xd
 4807 0a61 3C030000 		.4byte	0x33c
 4808 0a65 0D       		.uleb128 0xd
 4809 0a66 700A0000 		.4byte	0xa70
 4810 0a6a 0D       		.uleb128 0xd
 4811 0a6b 0F080000 		.4byte	0x80f
 4812 0a6f 00       		.byte	0
 4813 0a70 0A       		.uleb128 0xa
 4814 0a71 04       		.byte	0x4
 4815 0a72 760A0000 		.4byte	0xa76
 4816 0a76 06       		.uleb128 0x6
 4817 0a77 170D0000 		.4byte	.LASF169
 4818 0a7b 98       		.byte	0x98
 4819 0a7c 14       		.byte	0x14
 4820 0a7d A8       		.byte	0xa8
 4821 0a7e 280D0000 		.4byte	0xd28
 4822 0a82 07       		.uleb128 0x7
 4823 0a83 4C0A0000 		.4byte	.LASF170
 4824 0a87 14       		.byte	0x14
 4825 0a88 AA       		.byte	0xaa
 4826 0a89 E7080000 		.4byte	0x8e7
 4827 0a8d 00       		.byte	0
 4828 0a8e 07       		.uleb128 0x7
 4829 0a8f 730D0000 		.4byte	.LASF171
 4830 0a93 14       		.byte	0x14
 4831 0a94 AA       		.byte	0xaa
 4832 0a95 E7080000 		.4byte	0x8e7
 4833 0a99 04       		.byte	0x4
 4834 0a9a 07       		.uleb128 0x7
 4835 0a9b 67000000 		.4byte	.LASF172
 4836 0a9f 14       		.byte	0x14
 4837 0aa0 AA       		.byte	0xaa
 4838 0aa1 B7070000 		.4byte	0x7b7
 4839 0aa5 08       		.byte	0x8
 4840 0aa6 12       		.uleb128 0x12
 4841 0aa7 746F7300 		.ascii	"tos\000"
 4842 0aab 14       		.byte	0x14
 4843 0aac AA       		.byte	0xaa
 4844 0aad B7070000 		.4byte	0x7b7
 4845 0ab1 09       		.byte	0x9
 4846 0ab2 12       		.uleb128 0x12
 4847 0ab3 74746C00 		.ascii	"ttl\000"
 4848 0ab7 14       		.byte	0x14
 4849 0ab8 AA       		.byte	0xaa
 4850 0ab9 B7070000 		.4byte	0x7b7
 4851 0abd 0A       		.byte	0xa
 4852 0abe 07       		.uleb128 0x7
ARM GAS  C:\Users\Luis\AppData\Local\Temp\cc4eIE9x.s 			page 88


 4853 0abf 22010000 		.4byte	.LASF148
 4854 0ac3 14       		.byte	0x14
 4855 0ac4 AC       		.byte	0xac
 4856 0ac5 700A0000 		.4byte	0xa70
 4857 0ac9 0C       		.byte	0xc
 4858 0aca 07       		.uleb128 0x7
 4859 0acb 720C0000 		.4byte	.LASF173
 4860 0acf 14       		.byte	0x14
 4861 0ad0 AC       		.byte	0xac
 4862 0ad1 3C030000 		.4byte	0x33c
 4863 0ad5 10       		.byte	0x10
 4864 0ad6 07       		.uleb128 0x7
 4865 0ad7 63030000 		.4byte	.LASF174
 4866 0adb 14       		.byte	0x14
 4867 0adc AC       		.byte	0xac
 4868 0add 460A0000 		.4byte	0xa46
 4869 0ae1 14       		.byte	0x14
 4870 0ae2 07       		.uleb128 0x7
 4871 0ae3 A60C0000 		.4byte	.LASF161
 4872 0ae7 14       		.byte	0x14
 4873 0ae8 AC       		.byte	0xac
 4874 0ae9 D20D0000 		.4byte	0xdd2
 4875 0aed 18       		.byte	0x18
 4876 0aee 07       		.uleb128 0x7
 4877 0aef 0C060000 		.4byte	.LASF175
 4878 0af3 14       		.byte	0x14
 4879 0af4 AC       		.byte	0xac
 4880 0af5 B7070000 		.4byte	0x7b7
 4881 0af9 19       		.byte	0x19
 4882 0afa 07       		.uleb128 0x7
 4883 0afb 91030000 		.4byte	.LASF176
 4884 0aff 14       		.byte	0x14
 4885 0b00 AC       		.byte	0xac
 4886 0b01 CD070000 		.4byte	0x7cd
 4887 0b05 1A       		.byte	0x1a
 4888 0b06 07       		.uleb128 0x7
 4889 0b07 DF070000 		.4byte	.LASF177
 4890 0b0b 14       		.byte	0x14
 4891 0b0c AF       		.byte	0xaf
 4892 0b0d CD070000 		.4byte	0x7cd
 4893 0b11 1C       		.byte	0x1c
 4894 0b12 07       		.uleb128 0x7
 4895 0b13 C0000000 		.4byte	.LASF152
 4896 0b17 14       		.byte	0x14
 4897 0b18 B1       		.byte	0xb1
 4898 0b19 B7070000 		.4byte	0x7b7
 4899 0b1d 1E       		.byte	0x1e
 4900 0b1e 07       		.uleb128 0x7
 4901 0b1f AA000000 		.4byte	.LASF178
 4902 0b23 14       		.byte	0x14
 4903 0b24 BF       		.byte	0xbf
 4904 0b25 B7070000 		.4byte	0x7b7
 4905 0b29 1F       		.byte	0x1f
 4906 0b2a 07       		.uleb128 0x7
 4907 0b2b 11060000 		.4byte	.LASF179
 4908 0b2f 14       		.byte	0x14
 4909 0b30 BF       		.byte	0xbf
ARM GAS  C:\Users\Luis\AppData\Local\Temp\cc4eIE9x.s 			page 89


 4910 0b31 B7070000 		.4byte	0x7b7
 4911 0b35 20       		.byte	0x20
 4912 0b36 07       		.uleb128 0x7
 4913 0b37 340A0000 		.4byte	.LASF180
 4914 0b3b 14       		.byte	0x14
 4915 0b3c C0       		.byte	0xc0
 4916 0b3d B7070000 		.4byte	0x7b7
 4917 0b41 21       		.byte	0x21
 4918 0b42 12       		.uleb128 0x12
 4919 0b43 746D7200 		.ascii	"tmr\000"
 4920 0b47 14       		.byte	0x14
 4921 0b48 C1       		.byte	0xc1
 4922 0b49 E3070000 		.4byte	0x7e3
 4923 0b4d 24       		.byte	0x24
 4924 0b4e 07       		.uleb128 0x7
 4925 0b4f B2040000 		.4byte	.LASF181
 4926 0b53 14       		.byte	0x14
 4927 0b54 C4       		.byte	0xc4
 4928 0b55 E3070000 		.4byte	0x7e3
 4929 0b59 28       		.byte	0x28
 4930 0b5a 07       		.uleb128 0x7
 4931 0b5b D9090000 		.4byte	.LASF182
 4932 0b5f 14       		.byte	0x14
 4933 0b60 C5       		.byte	0xc5
 4934 0b61 CD070000 		.4byte	0x7cd
 4935 0b65 2C       		.byte	0x2c
 4936 0b66 07       		.uleb128 0x7
 4937 0b67 09080000 		.4byte	.LASF183
 4938 0b6b 14       		.byte	0x14
 4939 0b6c C6       		.byte	0xc6
 4940 0b6d CD070000 		.4byte	0x7cd
 4941 0b71 2E       		.byte	0x2e
 4942 0b72 07       		.uleb128 0x7
 4943 0b73 4A020000 		.4byte	.LASF184
 4944 0b77 14       		.byte	0x14
 4945 0b78 C7       		.byte	0xc7
 4946 0b79 E3070000 		.4byte	0x7e3
 4947 0b7d 30       		.byte	0x30
 4948 0b7e 07       		.uleb128 0x7
 4949 0b7f 76040000 		.4byte	.LASF185
 4950 0b83 14       		.byte	0x14
 4951 0b84 CA       		.byte	0xca
 4952 0b85 D8070000 		.4byte	0x7d8
 4953 0b89 34       		.byte	0x34
 4954 0b8a 12       		.uleb128 0x12
 4955 0b8b 6D737300 		.ascii	"mss\000"
 4956 0b8f 14       		.byte	0x14
 4957 0b90 CC       		.byte	0xcc
 4958 0b91 CD070000 		.4byte	0x7cd
 4959 0b95 36       		.byte	0x36
 4960 0b96 07       		.uleb128 0x7
 4961 0b97 E1090000 		.4byte	.LASF186
 4962 0b9b 14       		.byte	0x14
 4963 0b9c CF       		.byte	0xcf
 4964 0b9d E3070000 		.4byte	0x7e3
 4965 0ba1 38       		.byte	0x38
 4966 0ba2 07       		.uleb128 0x7
ARM GAS  C:\Users\Luis\AppData\Local\Temp\cc4eIE9x.s 			page 90


 4967 0ba3 6A040000 		.4byte	.LASF187
 4968 0ba7 14       		.byte	0x14
 4969 0ba8 D0       		.byte	0xd0
 4970 0ba9 E3070000 		.4byte	0x7e3
 4971 0bad 3C       		.byte	0x3c
 4972 0bae 12       		.uleb128 0x12
 4973 0baf 736100   		.ascii	"sa\000"
 4974 0bb2 14       		.byte	0x14
 4975 0bb3 D1       		.byte	0xd1
 4976 0bb4 D8070000 		.4byte	0x7d8
 4977 0bb8 40       		.byte	0x40
 4978 0bb9 12       		.uleb128 0x12
 4979 0bba 737600   		.ascii	"sv\000"
 4980 0bbd 14       		.byte	0x14
 4981 0bbe D1       		.byte	0xd1
 4982 0bbf D8070000 		.4byte	0x7d8
 4983 0bc3 42       		.byte	0x42
 4984 0bc4 12       		.uleb128 0x12
 4985 0bc5 72746F00 		.ascii	"rto\000"
 4986 0bc9 14       		.byte	0x14
 4987 0bca D3       		.byte	0xd3
 4988 0bcb D8070000 		.4byte	0x7d8
 4989 0bcf 44       		.byte	0x44
 4990 0bd0 07       		.uleb128 0x7
 4991 0bd1 D40D0000 		.4byte	.LASF188
 4992 0bd5 14       		.byte	0x14
 4993 0bd6 D4       		.byte	0xd4
 4994 0bd7 B7070000 		.4byte	0x7b7
 4995 0bdb 46       		.byte	0x46
 4996 0bdc 07       		.uleb128 0x7
 4997 0bdd 04060000 		.4byte	.LASF189
 4998 0be1 14       		.byte	0x14
 4999 0be2 D7       		.byte	0xd7
 5000 0be3 B7070000 		.4byte	0x7b7
 5001 0be7 47       		.byte	0x47
 5002 0be8 07       		.uleb128 0x7
 5003 0be9 B2050000 		.4byte	.LASF190
 5004 0bed 14       		.byte	0x14
 5005 0bee D8       		.byte	0xd8
 5006 0bef E3070000 		.4byte	0x7e3
 5007 0bf3 48       		.byte	0x48
 5008 0bf4 07       		.uleb128 0x7
 5009 0bf5 3C030000 		.4byte	.LASF191
 5010 0bf9 14       		.byte	0x14
 5011 0bfa DB       		.byte	0xdb
 5012 0bfb CD070000 		.4byte	0x7cd
 5013 0bff 4C       		.byte	0x4c
 5014 0c00 07       		.uleb128 0x7
 5015 0c01 DF0A0000 		.4byte	.LASF192
 5016 0c05 14       		.byte	0x14
 5017 0c06 DC       		.byte	0xdc
 5018 0c07 CD070000 		.4byte	0x7cd
 5019 0c0b 4E       		.byte	0x4e
 5020 0c0c 07       		.uleb128 0x7
 5021 0c0d 7F0A0000 		.4byte	.LASF193
 5022 0c11 14       		.byte	0x14
 5023 0c12 DF       		.byte	0xdf
ARM GAS  C:\Users\Luis\AppData\Local\Temp\cc4eIE9x.s 			page 91


 5024 0c13 E3070000 		.4byte	0x7e3
 5025 0c17 50       		.byte	0x50
 5026 0c18 07       		.uleb128 0x7
 5027 0c19 64060000 		.4byte	.LASF194
 5028 0c1d 14       		.byte	0x14
 5029 0c1e E0       		.byte	0xe0
 5030 0c1f E3070000 		.4byte	0x7e3
 5031 0c23 54       		.byte	0x54
 5032 0c24 07       		.uleb128 0x7
 5033 0c25 E2060000 		.4byte	.LASF195
 5034 0c29 14       		.byte	0x14
 5035 0c2a E0       		.byte	0xe0
 5036 0c2b E3070000 		.4byte	0x7e3
 5037 0c2f 58       		.byte	0x58
 5038 0c30 07       		.uleb128 0x7
 5039 0c31 32070000 		.4byte	.LASF196
 5040 0c35 14       		.byte	0x14
 5041 0c36 E2       		.byte	0xe2
 5042 0c37 E3070000 		.4byte	0x7e3
 5043 0c3b 5C       		.byte	0x5c
 5044 0c3c 07       		.uleb128 0x7
 5045 0c3d D7080000 		.4byte	.LASF197
 5046 0c41 14       		.byte	0x14
 5047 0c42 E3       		.byte	0xe3
 5048 0c43 CD070000 		.4byte	0x7cd
 5049 0c47 60       		.byte	0x60
 5050 0c48 07       		.uleb128 0x7
 5051 0c49 AB0A0000 		.4byte	.LASF198
 5052 0c4d 14       		.byte	0x14
 5053 0c4e E4       		.byte	0xe4
 5054 0c4f CD070000 		.4byte	0x7cd
 5055 0c53 62       		.byte	0x62
 5056 0c54 07       		.uleb128 0x7
 5057 0c55 81060000 		.4byte	.LASF199
 5058 0c59 14       		.byte	0x14
 5059 0c5a E6       		.byte	0xe6
 5060 0c5b CD070000 		.4byte	0x7cd
 5061 0c5f 64       		.byte	0x64
 5062 0c60 07       		.uleb128 0x7
 5063 0c61 E80A0000 		.4byte	.LASF200
 5064 0c65 14       		.byte	0x14
 5065 0c66 E8       		.byte	0xe8
 5066 0c67 CD070000 		.4byte	0x7cd
 5067 0c6b 66       		.byte	0x66
 5068 0c6c 07       		.uleb128 0x7
 5069 0c6d C30C0000 		.4byte	.LASF201
 5070 0c71 14       		.byte	0x14
 5071 0c72 EA       		.byte	0xea
 5072 0c73 CD070000 		.4byte	0x7cd
 5073 0c77 68       		.byte	0x68
 5074 0c78 07       		.uleb128 0x7
 5075 0c79 660A0000 		.4byte	.LASF202
 5076 0c7d 14       		.byte	0x14
 5077 0c7e EE       		.byte	0xee
 5078 0c7f CD070000 		.4byte	0x7cd
 5079 0c83 6A       		.byte	0x6a
 5080 0c84 07       		.uleb128 0x7
ARM GAS  C:\Users\Luis\AppData\Local\Temp\cc4eIE9x.s 			page 92


 5081 0c85 D2090000 		.4byte	.LASF203
 5082 0c89 14       		.byte	0x14
 5083 0c8a F2       		.byte	0xf2
 5084 0c8b 6E0E0000 		.4byte	0xe6e
 5085 0c8f 6C       		.byte	0x6c
 5086 0c90 07       		.uleb128 0x7
 5087 0c91 CF040000 		.4byte	.LASF204
 5088 0c95 14       		.byte	0x14
 5089 0c96 F3       		.byte	0xf3
 5090 0c97 6E0E0000 		.4byte	0xe6e
 5091 0c9b 70       		.byte	0x70
 5092 0c9c 07       		.uleb128 0x7
 5093 0c9d 27010000 		.4byte	.LASF205
 5094 0ca1 14       		.byte	0x14
 5095 0ca2 F5       		.byte	0xf5
 5096 0ca3 6E0E0000 		.4byte	0xe6e
 5097 0ca7 74       		.byte	0x74
 5098 0ca8 07       		.uleb128 0x7
 5099 0ca9 880B0000 		.4byte	.LASF206
 5100 0cad 14       		.byte	0x14
 5101 0cae F8       		.byte	0xf8
 5102 0caf C8080000 		.4byte	0x8c8
 5103 0cb3 78       		.byte	0x78
 5104 0cb4 07       		.uleb128 0x7
 5105 0cb5 D0060000 		.4byte	.LASF207
 5106 0cb9 14       		.byte	0x14
 5107 0cba FC       		.byte	0xfc
 5108 0cbb 570D0000 		.4byte	0xd57
 5109 0cbf 7C       		.byte	0x7c
 5110 0cc0 07       		.uleb128 0x7
 5111 0cc1 ED0C0000 		.4byte	.LASF208
 5112 0cc5 14       		.byte	0x14
 5113 0cc6 FE       		.byte	0xfe
 5114 0cc7 280D0000 		.4byte	0xd28
 5115 0ccb 80       		.byte	0x80
 5116 0ccc 09       		.uleb128 0x9
 5117 0ccd 20050000 		.4byte	.LASF209
 5118 0cd1 14       		.byte	0x14
 5119 0cd2 0001     		.2byte	0x100
 5120 0cd4 C70D0000 		.4byte	0xdc7
 5121 0cd8 84       		.byte	0x84
 5122 0cd9 09       		.uleb128 0x9
 5123 0cda 28060000 		.4byte	.LASF210
 5124 0cde 14       		.byte	0x14
 5125 0cdf 0201     		.2byte	0x102
 5126 0ce1 810D0000 		.4byte	0xd81
 5127 0ce5 88       		.byte	0x88
 5128 0ce6 09       		.uleb128 0x9
 5129 0ce7 C9080000 		.4byte	.LASF211
 5130 0ceb 14       		.byte	0x14
 5131 0cec 0401     		.2byte	0x104
 5132 0cee A60D0000 		.4byte	0xda6
 5133 0cf2 8C       		.byte	0x8c
 5134 0cf3 09       		.uleb128 0x9
 5135 0cf4 5E0C0000 		.4byte	.LASF212
 5136 0cf8 14       		.byte	0x14
 5137 0cf9 0D01     		.2byte	0x10d
ARM GAS  C:\Users\Luis\AppData\Local\Temp\cc4eIE9x.s 			page 93


 5138 0cfb E3070000 		.4byte	0x7e3
 5139 0cff 90       		.byte	0x90
 5140 0d00 09       		.uleb128 0x9
 5141 0d01 670D0000 		.4byte	.LASF213
 5142 0d05 14       		.byte	0x14
 5143 0d06 1401     		.2byte	0x114
 5144 0d08 B7070000 		.4byte	0x7b7
 5145 0d0c 94       		.byte	0x94
 5146 0d0d 09       		.uleb128 0x9
 5147 0d0e 7C070000 		.4byte	.LASF214
 5148 0d12 14       		.byte	0x14
 5149 0d13 1601     		.2byte	0x116
 5150 0d15 B7070000 		.4byte	0x7b7
 5151 0d19 95       		.byte	0x95
 5152 0d1a 09       		.uleb128 0x9
 5153 0d1b 9A020000 		.4byte	.LASF215
 5154 0d1f 14       		.byte	0x14
 5155 0d20 1901     		.2byte	0x119
 5156 0d22 B7070000 		.4byte	0x7b7
 5157 0d26 96       		.byte	0x96
 5158 0d27 00       		.byte	0
 5159 0d28 04       		.uleb128 0x4
 5160 0d29 3C080000 		.4byte	.LASF216
 5161 0d2d 14       		.byte	0x14
 5162 0d2e 48       		.byte	0x48
 5163 0d2f 330D0000 		.4byte	0xd33
 5164 0d33 0A       		.uleb128 0xa
 5165 0d34 04       		.byte	0x4
 5166 0d35 390D0000 		.4byte	0xd39
 5167 0d39 1C       		.uleb128 0x1c
 5168 0d3a 0F080000 		.4byte	0x80f
 5169 0d3e 570D0000 		.4byte	0xd57
 5170 0d42 0D       		.uleb128 0xd
 5171 0d43 3C030000 		.4byte	0x33c
 5172 0d47 0D       		.uleb128 0xd
 5173 0d48 700A0000 		.4byte	0xa70
 5174 0d4c 0D       		.uleb128 0xd
 5175 0d4d C8080000 		.4byte	0x8c8
 5176 0d51 0D       		.uleb128 0xd
 5177 0d52 0F080000 		.4byte	0x80f
 5178 0d56 00       		.byte	0
 5179 0d57 04       		.uleb128 0x4
 5180 0d58 C2020000 		.4byte	.LASF217
 5181 0d5c 14       		.byte	0x14
 5182 0d5d 56       		.byte	0x56
 5183 0d5e 620D0000 		.4byte	0xd62
 5184 0d62 0A       		.uleb128 0xa
 5185 0d63 04       		.byte	0x4
 5186 0d64 680D0000 		.4byte	0xd68
 5187 0d68 1C       		.uleb128 0x1c
 5188 0d69 0F080000 		.4byte	0x80f
 5189 0d6d 810D0000 		.4byte	0xd81
 5190 0d71 0D       		.uleb128 0xd
 5191 0d72 3C030000 		.4byte	0x33c
 5192 0d76 0D       		.uleb128 0xd
 5193 0d77 700A0000 		.4byte	0xa70
 5194 0d7b 0D       		.uleb128 0xd
ARM GAS  C:\Users\Luis\AppData\Local\Temp\cc4eIE9x.s 			page 94


 5195 0d7c CD070000 		.4byte	0x7cd
 5196 0d80 00       		.byte	0
 5197 0d81 04       		.uleb128 0x4
 5198 0d82 91080000 		.4byte	.LASF218
 5199 0d86 14       		.byte	0x14
 5200 0d87 62       		.byte	0x62
 5201 0d88 8C0D0000 		.4byte	0xd8c
 5202 0d8c 0A       		.uleb128 0xa
 5203 0d8d 04       		.byte	0x4
 5204 0d8e 920D0000 		.4byte	0xd92
 5205 0d92 1C       		.uleb128 0x1c
 5206 0d93 0F080000 		.4byte	0x80f
 5207 0d97 A60D0000 		.4byte	0xda6
 5208 0d9b 0D       		.uleb128 0xd
 5209 0d9c 3C030000 		.4byte	0x33c
 5210 0da0 0D       		.uleb128 0xd
 5211 0da1 700A0000 		.4byte	0xa70
 5212 0da5 00       		.byte	0
 5213 0da6 04       		.uleb128 0x4
 5214 0da7 04070000 		.4byte	.LASF219
 5215 0dab 14       		.byte	0x14
 5216 0dac 6E       		.byte	0x6e
 5217 0dad B10D0000 		.4byte	0xdb1
 5218 0db1 0A       		.uleb128 0xa
 5219 0db2 04       		.byte	0x4
 5220 0db3 B70D0000 		.4byte	0xdb7
 5221 0db7 0C       		.uleb128 0xc
 5222 0db8 C70D0000 		.4byte	0xdc7
 5223 0dbc 0D       		.uleb128 0xd
 5224 0dbd 3C030000 		.4byte	0x33c
 5225 0dc1 0D       		.uleb128 0xd
 5226 0dc2 0F080000 		.4byte	0x80f
 5227 0dc6 00       		.byte	0
 5228 0dc7 04       		.uleb128 0x4
 5229 0dc8 11010000 		.4byte	.LASF220
 5230 0dcc 14       		.byte	0x14
 5231 0dcd 7C       		.byte	0x7c
 5232 0dce 510A0000 		.4byte	0xa51
 5233 0dd2 1D       		.uleb128 0x1d
 5234 0dd3 F7080000 		.4byte	.LASF332
 5235 0dd7 01       		.byte	0x1
 5236 0dd8 14       		.byte	0x14
 5237 0dd9 7E       		.byte	0x7e
 5238 0dda 210E0000 		.4byte	0xe21
 5239 0dde 1B       		.uleb128 0x1b
 5240 0ddf 55090000 		.4byte	.LASF221
 5241 0de3 00       		.sleb128 0
 5242 0de4 1B       		.uleb128 0x1b
 5243 0de5 7F0C0000 		.4byte	.LASF222
 5244 0de9 01       		.sleb128 1
 5245 0dea 1B       		.uleb128 0x1b
 5246 0deb 760A0000 		.4byte	.LASF223
 5247 0def 02       		.sleb128 2
 5248 0df0 1B       		.uleb128 0x1b
 5249 0df1 E70D0000 		.4byte	.LASF224
 5250 0df5 03       		.sleb128 3
 5251 0df6 1B       		.uleb128 0x1b
ARM GAS  C:\Users\Luis\AppData\Local\Temp\cc4eIE9x.s 			page 95


 5252 0df7 960A0000 		.4byte	.LASF225
 5253 0dfb 04       		.sleb128 4
 5254 0dfc 1B       		.uleb128 0x1b
 5255 0dfd 060C0000 		.4byte	.LASF226
 5256 0e01 05       		.sleb128 5
 5257 0e02 1B       		.uleb128 0x1b
 5258 0e03 110C0000 		.4byte	.LASF227
 5259 0e07 06       		.sleb128 6
 5260 0e08 1B       		.uleb128 0x1b
 5261 0e09 87060000 		.4byte	.LASF228
 5262 0e0d 07       		.sleb128 7
 5263 0e0e 1B       		.uleb128 0x1b
 5264 0e0f 97050000 		.4byte	.LASF229
 5265 0e13 08       		.sleb128 8
 5266 0e14 1B       		.uleb128 0x1b
 5267 0e15 B10B0000 		.4byte	.LASF230
 5268 0e19 09       		.sleb128 9
 5269 0e1a 1B       		.uleb128 0x1b
 5270 0e1b F2000000 		.4byte	.LASF231
 5271 0e1f 0A       		.sleb128 10
 5272 0e20 00       		.byte	0
 5273 0e21 0B       		.uleb128 0xb
 5274 0e22 17040000 		.4byte	.LASF232
 5275 0e26 10       		.byte	0x10
 5276 0e27 15       		.byte	0x15
 5277 0e28 1501     		.2byte	0x115
 5278 0e2a 6E0E0000 		.4byte	0xe6e
 5279 0e2e 09       		.uleb128 0x9
 5280 0e2f 22010000 		.4byte	.LASF148
 5281 0e33 15       		.byte	0x15
 5282 0e34 1601     		.2byte	0x116
 5283 0e36 6E0E0000 		.4byte	0xe6e
 5284 0e3a 00       		.byte	0
 5285 0e3b 08       		.uleb128 0x8
 5286 0e3c 7000     		.ascii	"p\000"
 5287 0e3e 15       		.byte	0x15
 5288 0e3f 1701     		.2byte	0x117
 5289 0e41 C8080000 		.4byte	0x8c8
 5290 0e45 04       		.byte	0x4
 5291 0e46 08       		.uleb128 0x8
 5292 0e47 6C656E00 		.ascii	"len\000"
 5293 0e4b 15       		.byte	0x15
 5294 0e4c 1801     		.2byte	0x118
 5295 0e4e CD070000 		.4byte	0x7cd
 5296 0e52 08       		.byte	0x8
 5297 0e53 09       		.uleb128 0x9
 5298 0e54 C0000000 		.4byte	.LASF152
 5299 0e58 15       		.byte	0x15
 5300 0e59 2201     		.2byte	0x122
 5301 0e5b B7070000 		.4byte	0x7b7
 5302 0e5f 0A       		.byte	0xa
 5303 0e60 09       		.uleb128 0x9
 5304 0e61 500B0000 		.4byte	.LASF233
 5305 0e65 15       		.byte	0x15
 5306 0e66 2701     		.2byte	0x127
 5307 0e68 E10E0000 		.4byte	0xee1
 5308 0e6c 0C       		.byte	0xc
ARM GAS  C:\Users\Luis\AppData\Local\Temp\cc4eIE9x.s 			page 96


 5309 0e6d 00       		.byte	0
 5310 0e6e 0A       		.uleb128 0xa
 5311 0e6f 04       		.byte	0x4
 5312 0e70 210E0000 		.4byte	0xe21
 5313 0e74 06       		.uleb128 0x6
 5314 0e75 DA0B0000 		.4byte	.LASF234
 5315 0e79 14       		.byte	0x14
 5316 0e7a 15       		.byte	0x15
 5317 0e7b 9F       		.byte	0x9f
 5318 0e7c E10E0000 		.4byte	0xee1
 5319 0e80 12       		.uleb128 0x12
 5320 0e81 73726300 		.ascii	"src\000"
 5321 0e85 15       		.byte	0x15
 5322 0e86 A0       		.byte	0xa0
 5323 0e87 CD070000 		.4byte	0x7cd
 5324 0e8b 00       		.byte	0
 5325 0e8c 07       		.uleb128 0x7
 5326 0e8d D90D0000 		.4byte	.LASF235
 5327 0e91 15       		.byte	0x15
 5328 0e92 A1       		.byte	0xa1
 5329 0e93 CD070000 		.4byte	0x7cd
 5330 0e97 02       		.byte	0x2
 5331 0e98 07       		.uleb128 0x7
 5332 0e99 11030000 		.4byte	.LASF236
 5333 0e9d 15       		.byte	0x15
 5334 0e9e A2       		.byte	0xa2
 5335 0e9f E3070000 		.4byte	0x7e3
 5336 0ea3 04       		.byte	0x4
 5337 0ea4 07       		.uleb128 0x7
 5338 0ea5 6E070000 		.4byte	.LASF237
 5339 0ea9 15       		.byte	0x15
 5340 0eaa A3       		.byte	0xa3
 5341 0eab E3070000 		.4byte	0x7e3
 5342 0eaf 08       		.byte	0x8
 5343 0eb0 07       		.uleb128 0x7
 5344 0eb1 F50A0000 		.4byte	.LASF238
 5345 0eb5 15       		.byte	0x15
 5346 0eb6 A4       		.byte	0xa4
 5347 0eb7 CD070000 		.4byte	0x7cd
 5348 0ebb 0C       		.byte	0xc
 5349 0ebc 12       		.uleb128 0x12
 5350 0ebd 776E6400 		.ascii	"wnd\000"
 5351 0ec1 15       		.byte	0x15
 5352 0ec2 A5       		.byte	0xa5
 5353 0ec3 CD070000 		.4byte	0x7cd
 5354 0ec7 0E       		.byte	0xe
 5355 0ec8 07       		.uleb128 0x7
 5356 0ec9 DC0C0000 		.4byte	.LASF239
 5357 0ecd 15       		.byte	0x15
 5358 0ece A6       		.byte	0xa6
 5359 0ecf CD070000 		.4byte	0x7cd
 5360 0ed3 10       		.byte	0x10
 5361 0ed4 07       		.uleb128 0x7
 5362 0ed5 97000000 		.4byte	.LASF240
 5363 0ed9 15       		.byte	0x15
 5364 0eda A7       		.byte	0xa7
 5365 0edb CD070000 		.4byte	0x7cd
ARM GAS  C:\Users\Luis\AppData\Local\Temp\cc4eIE9x.s 			page 97


 5366 0edf 12       		.byte	0x12
 5367 0ee0 00       		.byte	0
 5368 0ee1 0A       		.uleb128 0xa
 5369 0ee2 04       		.byte	0x4
 5370 0ee3 740E0000 		.4byte	0xe74
 5371 0ee7 1A       		.uleb128 0x1a
 5372 0ee8 01       		.byte	0x1
 5373 0ee9 16       		.byte	0x16
 5374 0eea 2B       		.byte	0x2b
 5375 0eeb 4A0F0000 		.4byte	0xf4a
 5376 0eef 1B       		.uleb128 0x1b
 5377 0ef0 32090000 		.4byte	.LASF241
 5378 0ef4 00       		.sleb128 0
 5379 0ef5 1B       		.uleb128 0x1b
 5380 0ef6 3F0A0000 		.4byte	.LASF242
 5381 0efa 01       		.sleb128 1
 5382 0efb 1B       		.uleb128 0x1b
 5383 0efc 9A070000 		.4byte	.LASF243
 5384 0f00 02       		.sleb128 2
 5385 0f01 1B       		.uleb128 0x1b
 5386 0f02 32000000 		.4byte	.LASF244
 5387 0f06 03       		.sleb128 3
 5388 0f07 1B       		.uleb128 0x1b
 5389 0f08 390C0000 		.4byte	.LASF245
 5390 0f0c 04       		.sleb128 4
 5391 0f0d 1B       		.uleb128 0x1b
 5392 0f0e 24080000 		.4byte	.LASF246
 5393 0f12 05       		.sleb128 5
 5394 0f13 1B       		.uleb128 0x1b
 5395 0f14 D00A0000 		.4byte	.LASF247
 5396 0f18 06       		.sleb128 6
 5397 0f19 1B       		.uleb128 0x1b
 5398 0f1a 49070000 		.4byte	.LASF248
 5399 0f1e 07       		.sleb128 7
 5400 0f1f 1B       		.uleb128 0x1b
 5401 0f20 2F030000 		.4byte	.LASF249
 5402 0f24 08       		.sleb128 8
 5403 0f25 1B       		.uleb128 0x1b
 5404 0f26 77030000 		.4byte	.LASF250
 5405 0f2a 09       		.sleb128 9
 5406 0f2b 1B       		.uleb128 0x1b
 5407 0f2c BA040000 		.4byte	.LASF251
 5408 0f30 0A       		.sleb128 10
 5409 0f31 1B       		.uleb128 0x1b
 5410 0f32 230A0000 		.4byte	.LASF252
 5411 0f36 0B       		.sleb128 11
 5412 0f37 1B       		.uleb128 0x1b
 5413 0f38 1E060000 		.4byte	.LASF253
 5414 0f3c 0C       		.sleb128 12
 5415 0f3d 1B       		.uleb128 0x1b
 5416 0f3e A8020000 		.4byte	.LASF254
 5417 0f42 0D       		.sleb128 13
 5418 0f43 1B       		.uleb128 0x1b
 5419 0f44 BA050000 		.4byte	.LASF255
 5420 0f48 0E       		.sleb128 14
 5421 0f49 00       		.byte	0
 5422 0f4a 06       		.uleb128 0x6
ARM GAS  C:\Users\Luis\AppData\Local\Temp\cc4eIE9x.s 			page 98


 5423 0f4b 21000000 		.4byte	.LASF256
 5424 0f4f 18       		.byte	0x18
 5425 0f50 17       		.byte	0x17
 5426 0f51 3A       		.byte	0x3a
 5427 0f52 E60F0000 		.4byte	0xfe6
 5428 0f56 07       		.uleb128 0x7
 5429 0f57 570D0000 		.4byte	.LASF257
 5430 0f5b 17       		.byte	0x17
 5431 0f5c 3B       		.byte	0x3b
 5432 0f5d CD070000 		.4byte	0x7cd
 5433 0f61 00       		.byte	0
 5434 0f62 07       		.uleb128 0x7
 5435 0f63 ED0C0000 		.4byte	.LASF208
 5436 0f67 17       		.byte	0x17
 5437 0f68 3C       		.byte	0x3c
 5438 0f69 CD070000 		.4byte	0x7cd
 5439 0f6d 02       		.byte	0x2
 5440 0f6e 12       		.uleb128 0x12
 5441 0f6f 667700   		.ascii	"fw\000"
 5442 0f72 17       		.byte	0x17
 5443 0f73 3D       		.byte	0x3d
 5444 0f74 CD070000 		.4byte	0x7cd
 5445 0f78 04       		.byte	0x4
 5446 0f79 07       		.uleb128 0x7
 5447 0f7a A10C0000 		.4byte	.LASF258
 5448 0f7e 17       		.byte	0x17
 5449 0f7f 3E       		.byte	0x3e
 5450 0f80 CD070000 		.4byte	0x7cd
 5451 0f84 06       		.byte	0x6
 5452 0f85 07       		.uleb128 0x7
 5453 0f86 15080000 		.4byte	.LASF259
 5454 0f8a 17       		.byte	0x17
 5455 0f8b 3F       		.byte	0x3f
 5456 0f8c CD070000 		.4byte	0x7cd
 5457 0f90 08       		.byte	0x8
 5458 0f91 07       		.uleb128 0x7
 5459 0f92 080B0000 		.4byte	.LASF260
 5460 0f96 17       		.byte	0x17
 5461 0f97 40       		.byte	0x40
 5462 0f98 CD070000 		.4byte	0x7cd
 5463 0f9c 0A       		.byte	0xa
 5464 0f9d 07       		.uleb128 0x7
 5465 0f9e 43050000 		.4byte	.LASF261
 5466 0fa2 17       		.byte	0x17
 5467 0fa3 41       		.byte	0x41
 5468 0fa4 CD070000 		.4byte	0x7cd
 5469 0fa8 0C       		.byte	0xc
 5470 0fa9 07       		.uleb128 0x7
 5471 0faa B2090000 		.4byte	.LASF262
 5472 0fae 17       		.byte	0x17
 5473 0faf 42       		.byte	0x42
 5474 0fb0 CD070000 		.4byte	0x7cd
 5475 0fb4 0E       		.byte	0xe
 5476 0fb5 07       		.uleb128 0x7
 5477 0fb6 A20B0000 		.4byte	.LASF263
 5478 0fba 17       		.byte	0x17
 5479 0fbb 43       		.byte	0x43
ARM GAS  C:\Users\Luis\AppData\Local\Temp\cc4eIE9x.s 			page 99


 5480 0fbc CD070000 		.4byte	0x7cd
 5481 0fc0 10       		.byte	0x10
 5482 0fc1 07       		.uleb128 0x7
 5483 0fc2 8A030000 		.4byte	.LASF264
 5484 0fc6 17       		.byte	0x17
 5485 0fc7 44       		.byte	0x44
 5486 0fc8 CD070000 		.4byte	0x7cd
 5487 0fcc 12       		.byte	0x12
 5488 0fcd 12       		.uleb128 0x12
 5489 0fce 65727200 		.ascii	"err\000"
 5490 0fd2 17       		.byte	0x17
 5491 0fd3 45       		.byte	0x45
 5492 0fd4 CD070000 		.4byte	0x7cd
 5493 0fd8 14       		.byte	0x14
 5494 0fd9 07       		.uleb128 0x7
 5495 0fda A20A0000 		.4byte	.LASF265
 5496 0fde 17       		.byte	0x17
 5497 0fdf 46       		.byte	0x46
 5498 0fe0 CD070000 		.4byte	0x7cd
 5499 0fe4 16       		.byte	0x16
 5500 0fe5 00       		.byte	0
 5501 0fe6 06       		.uleb128 0x6
 5502 0fe7 79020000 		.4byte	.LASF266
 5503 0feb 0A       		.byte	0xa
 5504 0fec 17       		.byte	0x17
 5505 0fed 5A       		.byte	0x5a
 5506 0fee 2F100000 		.4byte	0x102f
 5507 0ff2 07       		.uleb128 0x7
 5508 0ff3 C5090000 		.4byte	.LASF267
 5509 0ff7 17       		.byte	0x17
 5510 0ff8 5E       		.byte	0x5e
 5511 0ff9 04080000 		.4byte	0x804
 5512 0ffd 00       		.byte	0
 5513 0ffe 07       		.uleb128 0x7
 5514 0fff F5070000 		.4byte	.LASF268
 5515 1003 17       		.byte	0x17
 5516 1004 5F       		.byte	0x5f
 5517 1005 04080000 		.4byte	0x804
 5518 1009 02       		.byte	0x2
 5519 100a 12       		.uleb128 0x12
 5520 100b 6D617800 		.ascii	"max\000"
 5521 100f 17       		.byte	0x17
 5522 1010 60       		.byte	0x60
 5523 1011 04080000 		.4byte	0x804
 5524 1015 04       		.byte	0x4
 5525 1016 12       		.uleb128 0x12
 5526 1017 65727200 		.ascii	"err\000"
 5527 101b 17       		.byte	0x17
 5528 101c 61       		.byte	0x61
 5529 101d CD070000 		.4byte	0x7cd
 5530 1021 06       		.byte	0x6
 5531 1022 07       		.uleb128 0x7
 5532 1023 45060000 		.4byte	.LASF269
 5533 1027 17       		.byte	0x17
 5534 1028 62       		.byte	0x62
 5535 1029 CD070000 		.4byte	0x7cd
 5536 102d 08       		.byte	0x8
ARM GAS  C:\Users\Luis\AppData\Local\Temp\cc4eIE9x.s 			page 100


 5537 102e 00       		.byte	0
 5538 102f 06       		.uleb128 0x6
 5539 1030 03030000 		.4byte	.LASF270
 5540 1034 06       		.byte	0x6
 5541 1035 17       		.byte	0x17
 5542 1036 65       		.byte	0x65
 5543 1037 60100000 		.4byte	0x1060
 5544 103b 07       		.uleb128 0x7
 5545 103c F5070000 		.4byte	.LASF268
 5546 1040 17       		.byte	0x17
 5547 1041 66       		.byte	0x66
 5548 1042 CD070000 		.4byte	0x7cd
 5549 1046 00       		.byte	0
 5550 1047 12       		.uleb128 0x12
 5551 1048 6D617800 		.ascii	"max\000"
 5552 104c 17       		.byte	0x17
 5553 104d 67       		.byte	0x67
 5554 104e CD070000 		.4byte	0x7cd
 5555 1052 02       		.byte	0x2
 5556 1053 12       		.uleb128 0x12
 5557 1054 65727200 		.ascii	"err\000"
 5558 1058 17       		.byte	0x17
 5559 1059 68       		.byte	0x68
 5560 105a CD070000 		.4byte	0x7cd
 5561 105e 04       		.byte	0x4
 5562 105f 00       		.byte	0
 5563 1060 06       		.uleb128 0x6
 5564 1061 EE0B0000 		.4byte	.LASF271
 5565 1065 12       		.byte	0x12
 5566 1066 17       		.byte	0x17
 5567 1067 6B       		.byte	0x6b
 5568 1068 91100000 		.4byte	0x1091
 5569 106c 12       		.uleb128 0x12
 5570 106d 73656D00 		.ascii	"sem\000"
 5571 1071 17       		.byte	0x17
 5572 1072 6C       		.byte	0x6c
 5573 1073 2F100000 		.4byte	0x102f
 5574 1077 00       		.byte	0
 5575 1078 07       		.uleb128 0x7
 5576 1079 9C030000 		.4byte	.LASF272
 5577 107d 17       		.byte	0x17
 5578 107e 6D       		.byte	0x6d
 5579 107f 2F100000 		.4byte	0x102f
 5580 1083 06       		.byte	0x6
 5581 1084 07       		.uleb128 0x7
 5582 1085 5B0A0000 		.4byte	.LASF273
 5583 1089 17       		.byte	0x17
 5584 108a 6E       		.byte	0x6e
 5585 108b 2F100000 		.4byte	0x102f
 5586 108f 0C       		.byte	0xc
 5587 1090 00       		.byte	0
 5588 1091 1E       		.uleb128 0x1e
 5589 1092 DC040000 		.4byte	.LASF274
 5590 1096 5001     		.2byte	0x150
 5591 1098 17       		.byte	0x17
 5592 1099 71       		.byte	0x71
 5593 109a 17110000 		.4byte	0x1117
ARM GAS  C:\Users\Luis\AppData\Local\Temp\cc4eIE9x.s 			page 101


 5594 109e 07       		.uleb128 0x7
 5595 109f DE050000 		.4byte	.LASF275
 5596 10a3 17       		.byte	0x17
 5597 10a4 73       		.byte	0x73
 5598 10a5 4A0F0000 		.4byte	0xf4a
 5599 10a9 00       		.byte	0
 5600 10aa 07       		.uleb128 0x7
 5601 10ab 10040000 		.4byte	.LASF276
 5602 10af 17       		.byte	0x17
 5603 10b0 76       		.byte	0x76
 5604 10b1 4A0F0000 		.4byte	0xf4a
 5605 10b5 18       		.byte	0x18
 5606 10b6 07       		.uleb128 0x7
 5607 10b7 A2030000 		.4byte	.LASF277
 5608 10bb 17       		.byte	0x17
 5609 10bc 79       		.byte	0x79
 5610 10bd 4A0F0000 		.4byte	0xf4a
 5611 10c1 30       		.byte	0x30
 5612 10c2 12       		.uleb128 0x12
 5613 10c3 697000   		.ascii	"ip\000"
 5614 10c6 17       		.byte	0x17
 5615 10c7 7C       		.byte	0x7c
 5616 10c8 4A0F0000 		.4byte	0xf4a
 5617 10cc 48       		.byte	0x48
 5618 10cd 07       		.uleb128 0x7
 5619 10ce 72090000 		.4byte	.LASF278
 5620 10d2 17       		.byte	0x17
 5621 10d3 7F       		.byte	0x7f
 5622 10d4 4A0F0000 		.4byte	0xf4a
 5623 10d8 60       		.byte	0x60
 5624 10d9 12       		.uleb128 0x12
 5625 10da 75647000 		.ascii	"udp\000"
 5626 10de 17       		.byte	0x17
 5627 10df 85       		.byte	0x85
 5628 10e0 4A0F0000 		.4byte	0xf4a
 5629 10e4 78       		.byte	0x78
 5630 10e5 12       		.uleb128 0x12
 5631 10e6 74637000 		.ascii	"tcp\000"
 5632 10ea 17       		.byte	0x17
 5633 10eb 88       		.byte	0x88
 5634 10ec 4A0F0000 		.4byte	0xf4a
 5635 10f0 90       		.byte	0x90
 5636 10f1 12       		.uleb128 0x12
 5637 10f2 6D656D00 		.ascii	"mem\000"
 5638 10f6 17       		.byte	0x17
 5639 10f7 8B       		.byte	0x8b
 5640 10f8 E60F0000 		.4byte	0xfe6
 5641 10fc A8       		.byte	0xa8
 5642 10fd 07       		.uleb128 0x7
 5643 10fe F00A0000 		.4byte	.LASF279
 5644 1102 17       		.byte	0x17
 5645 1103 8E       		.byte	0x8e
 5646 1104 17110000 		.4byte	0x1117
 5647 1108 B2       		.byte	0xb2
 5648 1109 1F       		.uleb128 0x1f
 5649 110a 73797300 		.ascii	"sys\000"
 5650 110e 17       		.byte	0x17
ARM GAS  C:\Users\Luis\AppData\Local\Temp\cc4eIE9x.s 			page 102


 5651 110f 91       		.byte	0x91
 5652 1110 60100000 		.4byte	0x1060
 5653 1114 3E01     		.2byte	0x13e
 5654 1116 00       		.byte	0
 5655 1117 15       		.uleb128 0x15
 5656 1118 E60F0000 		.4byte	0xfe6
 5657 111c 27110000 		.4byte	0x1127
 5658 1120 16       		.uleb128 0x16
 5659 1121 AB040000 		.4byte	0x4ab
 5660 1125 0D       		.byte	0xd
 5661 1126 00       		.byte	0
 5662 1127 0A       		.uleb128 0xa
 5663 1128 04       		.byte	0x4
 5664 1129 77070000 		.4byte	0x777
 5665 112d 20       		.uleb128 0x20
 5666 112e CA070000 		.4byte	.LASF315
 5667 1132 01       		.byte	0x1
 5668 1133 CC01     		.2byte	0x1cc
 5669 1135 00000000 		.4byte	.LFB230
 5670 1139 14000000 		.4byte	.LFE230-.LFB230
 5671 113d 01       		.uleb128 0x1
 5672 113e 9C       		.byte	0x9c
 5673 113f 53110000 		.4byte	0x1153
 5674 1143 21       		.uleb128 0x21
 5675 1144 47040000 		.4byte	.LASF280
 5676 1148 01       		.byte	0x1
 5677 1149 CC01     		.2byte	0x1cc
 5678 114b 6C070000 		.4byte	0x76c
 5679 114f 02       		.uleb128 0x2
 5680 1150 91       		.byte	0x91
 5681 1151 74       		.sleb128 -12
 5682 1152 00       		.byte	0
 5683 1153 22       		.uleb128 0x22
 5684 1154 DF080000 		.4byte	.LASF285
 5685 1158 02       		.byte	0x2
 5686 1159 5E       		.byte	0x5e
 5687 115a C8080000 		.4byte	0x8c8
 5688 115e 00000000 		.4byte	.LFB260
 5689 1162 E8000000 		.4byte	.LFE260-.LFB260
 5690 1166 01       		.uleb128 0x1
 5691 1167 9C       		.byte	0x9c
 5692 1168 BF110000 		.4byte	0x11bf
 5693 116c 23       		.uleb128 0x23
 5694 116d 70636200 		.ascii	"pcb\000"
 5695 1171 02       		.byte	0x2
 5696 1172 5E       		.byte	0x5e
 5697 1173 700A0000 		.4byte	0xa70
 5698 1177 02       		.uleb128 0x2
 5699 1178 91       		.byte	0x91
 5700 1179 6C       		.sleb128 -20
 5701 117a 24       		.uleb128 0x24
 5702 117b 9B0B0000 		.4byte	.LASF281
 5703 117f 02       		.byte	0x2
 5704 1180 5E       		.byte	0x5e
 5705 1181 CD070000 		.4byte	0x7cd
 5706 1185 02       		.uleb128 0x2
 5707 1186 91       		.byte	0x91
ARM GAS  C:\Users\Luis\AppData\Local\Temp\cc4eIE9x.s 			page 103


 5708 1187 6A       		.sleb128 -22
 5709 1188 24       		.uleb128 0x24
 5710 1189 3D060000 		.4byte	.LASF282
 5711 118d 02       		.byte	0x2
 5712 118e 5E       		.byte	0x5e
 5713 118f CD070000 		.4byte	0x7cd
 5714 1193 02       		.uleb128 0x2
 5715 1194 91       		.byte	0x91
 5716 1195 68       		.sleb128 -24
 5717 1196 24       		.uleb128 0x24
 5718 1197 460C0000 		.4byte	.LASF283
 5719 119b 02       		.byte	0x2
 5720 119c 5F       		.byte	0x5f
 5721 119d E3070000 		.4byte	0x7e3
 5722 11a1 02       		.uleb128 0x2
 5723 11a2 91       		.byte	0x91
 5724 11a3 64       		.sleb128 -28
 5725 11a4 25       		.uleb128 0x25
 5726 11a5 500B0000 		.4byte	.LASF233
 5727 11a9 02       		.byte	0x2
 5728 11aa 61       		.byte	0x61
 5729 11ab E10E0000 		.4byte	0xee1
 5730 11af 02       		.uleb128 0x2
 5731 11b0 91       		.byte	0x91
 5732 11b1 70       		.sleb128 -16
 5733 11b2 26       		.uleb128 0x26
 5734 11b3 7000     		.ascii	"p\000"
 5735 11b5 02       		.byte	0x2
 5736 11b6 62       		.byte	0x62
 5737 11b7 C8080000 		.4byte	0x8c8
 5738 11bb 02       		.uleb128 0x2
 5739 11bc 91       		.byte	0x91
 5740 11bd 74       		.sleb128 -12
 5741 11be 00       		.byte	0
 5742 11bf 27       		.uleb128 0x27
 5743 11c0 BC080000 		.4byte	.LASF297
 5744 11c4 02       		.byte	0x2
 5745 11c5 7D       		.byte	0x7d
 5746 11c6 0F080000 		.4byte	0x80f
 5747 11ca 00000000 		.4byte	.LFB261
 5748 11ce 7E000000 		.4byte	.LFE261-.LFB261
 5749 11d2 01       		.uleb128 0x1
 5750 11d3 9C       		.byte	0x9c
 5751 11d4 FF110000 		.4byte	0x11ff
 5752 11d8 23       		.uleb128 0x23
 5753 11d9 70636200 		.ascii	"pcb\000"
 5754 11dd 02       		.byte	0x2
 5755 11de 7D       		.byte	0x7d
 5756 11df 700A0000 		.4byte	0xa70
 5757 11e3 02       		.uleb128 0x2
 5758 11e4 91       		.byte	0x91
 5759 11e5 64       		.sleb128 -28
 5760 11e6 28       		.uleb128 0x28
 5761 11e7 10000000 		.4byte	.LBB2
 5762 11eb 5A000000 		.4byte	.LBE2-.LBB2
 5763 11ef 25       		.uleb128 0x25
 5764 11f0 4D060000 		.4byte	.LASF284
ARM GAS  C:\Users\Luis\AppData\Local\Temp\cc4eIE9x.s 			page 104


 5765 11f4 02       		.byte	0x2
 5766 11f5 81       		.byte	0x81
 5767 11f6 6E0E0000 		.4byte	0xe6e
 5768 11fa 02       		.uleb128 0x2
 5769 11fb 91       		.byte	0x91
 5770 11fc 6C       		.sleb128 -20
 5771 11fd 00       		.byte	0
 5772 11fe 00       		.byte	0
 5773 11ff 22       		.uleb128 0x22
 5774 1200 050A0000 		.4byte	.LASF286
 5775 1204 02       		.byte	0x2
 5776 1205 9F       		.byte	0x9f
 5777 1206 6E0E0000 		.4byte	0xe6e
 5778 120a 00000000 		.4byte	.LFB262
 5779 120e 18010000 		.4byte	.LFE262-.LFB262
 5780 1212 01       		.uleb128 0x1
 5781 1213 9C       		.byte	0x9c
 5782 1214 79120000 		.4byte	0x1279
 5783 1218 23       		.uleb128 0x23
 5784 1219 70636200 		.ascii	"pcb\000"
 5785 121d 02       		.byte	0x2
 5786 121e 9F       		.byte	0x9f
 5787 121f 700A0000 		.4byte	0xa70
 5788 1223 02       		.uleb128 0x2
 5789 1224 91       		.byte	0x91
 5790 1225 64       		.sleb128 -28
 5791 1226 23       		.uleb128 0x23
 5792 1227 7000     		.ascii	"p\000"
 5793 1229 02       		.byte	0x2
 5794 122a 9F       		.byte	0x9f
 5795 122b C8080000 		.4byte	0x8c8
 5796 122f 02       		.uleb128 0x2
 5797 1230 91       		.byte	0x91
 5798 1231 60       		.sleb128 -32
 5799 1232 24       		.uleb128 0x24
 5800 1233 C0000000 		.4byte	.LASF152
 5801 1237 02       		.byte	0x2
 5802 1238 9F       		.byte	0x9f
 5803 1239 B7070000 		.4byte	0x7b7
 5804 123d 02       		.uleb128 0x2
 5805 123e 91       		.byte	0x91
 5806 123f 5F       		.sleb128 -33
 5807 1240 24       		.uleb128 0x24
 5808 1241 11030000 		.4byte	.LASF236
 5809 1245 02       		.byte	0x2
 5810 1246 9F       		.byte	0x9f
 5811 1247 E3070000 		.4byte	0x7e3
 5812 124b 02       		.uleb128 0x2
 5813 124c 91       		.byte	0x91
 5814 124d 58       		.sleb128 -40
 5815 124e 24       		.uleb128 0x24
 5816 124f D6070000 		.4byte	.LASF287
 5817 1253 02       		.byte	0x2
 5818 1254 9F       		.byte	0x9f
 5819 1255 B7070000 		.4byte	0x7b7
 5820 1259 02       		.uleb128 0x2
 5821 125a 91       		.byte	0x91
ARM GAS  C:\Users\Luis\AppData\Local\Temp\cc4eIE9x.s 			page 105


 5822 125b 00       		.sleb128 0
 5823 125c 26       		.uleb128 0x26
 5824 125d 73656700 		.ascii	"seg\000"
 5825 1261 02       		.byte	0x2
 5826 1262 A1       		.byte	0xa1
 5827 1263 6E0E0000 		.4byte	0xe6e
 5828 1267 02       		.uleb128 0x2
 5829 1268 91       		.byte	0x91
 5830 1269 68       		.sleb128 -24
 5831 126a 25       		.uleb128 0x25
 5832 126b 9B0B0000 		.4byte	.LASF281
 5833 126f 02       		.byte	0x2
 5834 1270 A2       		.byte	0xa2
 5835 1271 B7070000 		.4byte	0x7b7
 5836 1275 02       		.uleb128 0x2
 5837 1276 91       		.byte	0x91
 5838 1277 6F       		.sleb128 -17
 5839 1278 00       		.byte	0
 5840 1279 22       		.uleb128 0x22
 5841 127a D0000000 		.4byte	.LASF288
 5842 127e 02       		.byte	0x2
 5843 127f DB       		.byte	0xdb
 5844 1280 C8080000 		.4byte	0x8c8
 5845 1284 00000000 		.4byte	.LFB263
 5846 1288 B8000000 		.4byte	.LFE263-.LFB263
 5847 128c 01       		.uleb128 0x1
 5848 128d 9C       		.byte	0x9c
 5849 128e 0F130000 		.4byte	0x130f
 5850 1292 24       		.uleb128 0x24
 5851 1293 B4070000 		.4byte	.LASF289
 5852 1297 02       		.byte	0x2
 5853 1298 DB       		.byte	0xdb
 5854 1299 3B080000 		.4byte	0x83b
 5855 129d 02       		.uleb128 0x2
 5856 129e 91       		.byte	0x91
 5857 129f 6F       		.sleb128 -17
 5858 12a0 24       		.uleb128 0x24
 5859 12a1 CB090000 		.4byte	.LASF290
 5860 12a5 02       		.byte	0x2
 5861 12a6 DB       		.byte	0xdb
 5862 12a7 CD070000 		.4byte	0x7cd
 5863 12ab 02       		.uleb128 0x2
 5864 12ac 91       		.byte	0x91
 5865 12ad 6C       		.sleb128 -20
 5866 12ae 24       		.uleb128 0x24
 5867 12af 3F090000 		.4byte	.LASF291
 5868 12b3 02       		.byte	0x2
 5869 12b4 DB       		.byte	0xdb
 5870 12b5 CD070000 		.4byte	0x7cd
 5871 12b9 02       		.uleb128 0x2
 5872 12ba 91       		.byte	0x91
 5873 12bb 6A       		.sleb128 -22
 5874 12bc 24       		.uleb128 0x24
 5875 12bd 85000000 		.4byte	.LASF292
 5876 12c1 02       		.byte	0x2
 5877 12c2 DC       		.byte	0xdc
 5878 12c3 0F130000 		.4byte	0x130f
ARM GAS  C:\Users\Luis\AppData\Local\Temp\cc4eIE9x.s 			page 106


 5879 12c7 02       		.uleb128 0x2
 5880 12c8 91       		.byte	0x91
 5881 12c9 64       		.sleb128 -28
 5882 12ca 23       		.uleb128 0x23
 5883 12cb 70636200 		.ascii	"pcb\000"
 5884 12cf 02       		.byte	0x2
 5885 12d0 DC       		.byte	0xdc
 5886 12d1 700A0000 		.4byte	0xa70
 5887 12d5 02       		.uleb128 0x2
 5888 12d6 91       		.byte	0x91
 5889 12d7 00       		.sleb128 0
 5890 12d8 24       		.uleb128 0x24
 5891 12d9 7F0B0000 		.4byte	.LASF293
 5892 12dd 02       		.byte	0x2
 5893 12de DC       		.byte	0xdc
 5894 12df B7070000 		.4byte	0x7b7
 5895 12e3 02       		.uleb128 0x2
 5896 12e4 91       		.byte	0x91
 5897 12e5 04       		.sleb128 4
 5898 12e6 24       		.uleb128 0x24
 5899 12e7 9F050000 		.4byte	.LASF294
 5900 12eb 02       		.byte	0x2
 5901 12ec DD       		.byte	0xdd
 5902 12ed B7070000 		.4byte	0x7b7
 5903 12f1 02       		.uleb128 0x2
 5904 12f2 91       		.byte	0x91
 5905 12f3 08       		.sleb128 8
 5906 12f4 26       		.uleb128 0x26
 5907 12f5 7000     		.ascii	"p\000"
 5908 12f7 02       		.byte	0x2
 5909 12f8 DF       		.byte	0xdf
 5910 12f9 C8080000 		.4byte	0x8c8
 5911 12fd 02       		.uleb128 0x2
 5912 12fe 91       		.byte	0x91
 5913 12ff 70       		.sleb128 -16
 5914 1300 25       		.uleb128 0x25
 5915 1301 62090000 		.4byte	.LASF295
 5916 1305 02       		.byte	0x2
 5917 1306 E0       		.byte	0xe0
 5918 1307 CD070000 		.4byte	0x7cd
 5919 130b 02       		.uleb128 0x2
 5920 130c 91       		.byte	0x91
 5921 130d 76       		.sleb128 -10
 5922 130e 00       		.byte	0
 5923 130f 0A       		.uleb128 0xa
 5924 1310 04       		.byte	0x4
 5925 1311 CD070000 		.4byte	0x7cd
 5926 1315 29       		.uleb128 0x29
 5927 1316 10000000 		.4byte	.LASF296
 5928 131a 02       		.byte	0x2
 5929 131b 2601     		.2byte	0x126
 5930 131d 0F080000 		.4byte	0x80f
 5931 1321 00000000 		.4byte	.LFB264
 5932 1325 E4000000 		.4byte	.LFE264-.LFB264
 5933 1329 01       		.uleb128 0x1
 5934 132a 9C       		.byte	0x9c
 5935 132b 4E130000 		.4byte	0x134e
ARM GAS  C:\Users\Luis\AppData\Local\Temp\cc4eIE9x.s 			page 107


 5936 132f 2A       		.uleb128 0x2a
 5937 1330 70636200 		.ascii	"pcb\000"
 5938 1334 02       		.byte	0x2
 5939 1335 2601     		.2byte	0x126
 5940 1337 700A0000 		.4byte	0xa70
 5941 133b 02       		.uleb128 0x2
 5942 133c 91       		.byte	0x91
 5943 133d 74       		.sleb128 -12
 5944 133e 2A       		.uleb128 0x2a
 5945 133f 6C656E00 		.ascii	"len\000"
 5946 1343 02       		.byte	0x2
 5947 1344 2601     		.2byte	0x126
 5948 1346 CD070000 		.4byte	0x7cd
 5949 134a 02       		.uleb128 0x2
 5950 134b 91       		.byte	0x91
 5951 134c 72       		.sleb128 -14
 5952 134d 00       		.byte	0
 5953 134e 2B       		.uleb128 0x2b
 5954 134f E30C0000 		.4byte	.LASF298
 5955 1353 02       		.byte	0x2
 5956 1354 6201     		.2byte	0x162
 5957 1356 0F080000 		.4byte	0x80f
 5958 135a 00000000 		.4byte	.LFB265
 5959 135e 10050000 		.4byte	.LFE265-.LFB265
 5960 1362 01       		.uleb128 0x1
 5961 1363 9C       		.byte	0x9c
 5962 1364 38150000 		.4byte	0x1538
 5963 1368 2A       		.uleb128 0x2a
 5964 1369 70636200 		.ascii	"pcb\000"
 5965 136d 02       		.byte	0x2
 5966 136e 6201     		.2byte	0x162
 5967 1370 700A0000 		.4byte	0xa70
 5968 1374 03       		.uleb128 0x3
 5969 1375 91       		.byte	0x91
 5970 1376 AC7F     		.sleb128 -84
 5971 1378 2A       		.uleb128 0x2a
 5972 1379 61726700 		.ascii	"arg\000"
 5973 137d 02       		.byte	0x2
 5974 137e 6201     		.2byte	0x162
 5975 1380 38150000 		.4byte	0x1538
 5976 1384 03       		.uleb128 0x3
 5977 1385 91       		.byte	0x91
 5978 1386 A87F     		.sleb128 -88
 5979 1388 2A       		.uleb128 0x2a
 5980 1389 6C656E00 		.ascii	"len\000"
 5981 138d 02       		.byte	0x2
 5982 138e 6201     		.2byte	0x162
 5983 1390 CD070000 		.4byte	0x7cd
 5984 1394 03       		.uleb128 0x3
 5985 1395 91       		.byte	0x91
 5986 1396 A67F     		.sleb128 -90
 5987 1398 21       		.uleb128 0x21
 5988 1399 7F0B0000 		.4byte	.LASF293
 5989 139d 02       		.byte	0x2
 5990 139e 6201     		.2byte	0x162
 5991 13a0 B7070000 		.4byte	0x7b7
 5992 13a4 03       		.uleb128 0x3
ARM GAS  C:\Users\Luis\AppData\Local\Temp\cc4eIE9x.s 			page 108


 5993 13a5 91       		.byte	0x91
 5994 13a6 A57F     		.sleb128 -91
 5995 13a8 2C       		.uleb128 0x2c
 5996 13a9 8C090000 		.4byte	.LASF299
 5997 13ad 02       		.byte	0x2
 5998 13ae 6401     		.2byte	0x164
 5999 13b0 C8080000 		.4byte	0x8c8
 6000 13b4 02       		.uleb128 0x2
 6001 13b5 91       		.byte	0x91
 6002 13b6 6C       		.sleb128 -20
 6003 13b7 2C       		.uleb128 0x2c
 6004 13b8 4D060000 		.4byte	.LASF284
 6005 13bc 02       		.byte	0x2
 6006 13bd 6501     		.2byte	0x165
 6007 13bf 6E0E0000 		.4byte	0xe6e
 6008 13c3 02       		.uleb128 0x2
 6009 13c4 91       		.byte	0x91
 6010 13c5 68       		.sleb128 -24
 6011 13c6 2D       		.uleb128 0x2d
 6012 13c7 73656700 		.ascii	"seg\000"
 6013 13cb 02       		.byte	0x2
 6014 13cc 6501     		.2byte	0x165
 6015 13ce 6E0E0000 		.4byte	0xe6e
 6016 13d2 02       		.uleb128 0x2
 6017 13d3 91       		.byte	0x91
 6018 13d4 64       		.sleb128 -28
 6019 13d5 2C       		.uleb128 0x2c
 6020 13d6 C90B0000 		.4byte	.LASF300
 6021 13da 02       		.byte	0x2
 6022 13db 6501     		.2byte	0x165
 6023 13dd 6E0E0000 		.4byte	0xe6e
 6024 13e1 02       		.uleb128 0x2
 6025 13e2 91       		.byte	0x91
 6026 13e3 60       		.sleb128 -32
 6027 13e4 2C       		.uleb128 0x2c
 6028 13e5 950B0000 		.4byte	.LASF301
 6029 13e9 02       		.byte	0x2
 6030 13ea 6501     		.2byte	0x165
 6031 13ec 6E0E0000 		.4byte	0xe6e
 6032 13f0 02       		.uleb128 0x2
 6033 13f1 91       		.byte	0x91
 6034 13f2 5C       		.sleb128 -36
 6035 13f3 2D       		.uleb128 0x2d
 6036 13f4 706F7300 		.ascii	"pos\000"
 6037 13f8 02       		.byte	0x2
 6038 13f9 6601     		.2byte	0x166
 6039 13fb CD070000 		.4byte	0x7cd
 6040 13ff 02       		.uleb128 0x2
 6041 1400 91       		.byte	0x91
 6042 1401 5A       		.sleb128 -38
 6043 1402 2C       		.uleb128 0x2c
 6044 1403 4E0D0000 		.4byte	.LASF302
 6045 1407 02       		.byte	0x2
 6046 1408 6701     		.2byte	0x167
 6047 140a CD070000 		.4byte	0x7cd
 6048 140e 02       		.uleb128 0x2
 6049 140f 91       		.byte	0x91
ARM GAS  C:\Users\Luis\AppData\Local\Temp\cc4eIE9x.s 			page 109


 6050 1410 58       		.sleb128 -40
 6051 1411 2C       		.uleb128 0x2c
 6052 1412 9B0B0000 		.4byte	.LASF281
 6053 1416 02       		.byte	0x2
 6054 1417 6801     		.2byte	0x168
 6055 1419 B7070000 		.4byte	0x7b7
 6056 141d 02       		.uleb128 0x2
 6057 141e 91       		.byte	0x91
 6058 141f 4B       		.sleb128 -53
 6059 1420 2C       		.uleb128 0x2c
 6060 1421 D6070000 		.4byte	.LASF287
 6061 1425 02       		.byte	0x2
 6062 1426 6901     		.2byte	0x169
 6063 1428 B7070000 		.4byte	0x7b7
 6064 142c 02       		.uleb128 0x2
 6065 142d 91       		.byte	0x91
 6066 142e 4A       		.sleb128 -54
 6067 142f 2C       		.uleb128 0x2c
 6068 1430 85000000 		.4byte	.LASF292
 6069 1434 02       		.byte	0x2
 6070 1435 6B01     		.2byte	0x16b
 6071 1437 CD070000 		.4byte	0x7cd
 6072 143b 03       		.uleb128 0x3
 6073 143c 91       		.byte	0x91
 6074 143d B67F     		.sleb128 -74
 6075 143f 2C       		.uleb128 0x2c
 6076 1440 6B020000 		.4byte	.LASF303
 6077 1444 02       		.byte	0x2
 6078 1445 6C01     		.2byte	0x16c
 6079 1447 CD070000 		.4byte	0x7cd
 6080 144b 02       		.uleb128 0x2
 6081 144c 91       		.byte	0x91
 6082 144d 56       		.sleb128 -42
 6083 144e 2D       		.uleb128 0x2d
 6084 144f 65727200 		.ascii	"err\000"
 6085 1453 02       		.byte	0x2
 6086 1454 7301     		.2byte	0x173
 6087 1456 0F080000 		.4byte	0x80f
 6088 145a 02       		.uleb128 0x2
 6089 145b 91       		.byte	0x91
 6090 145c 47       		.sleb128 -57
 6091 145d 2C       		.uleb128 0x2c
 6092 145e 680C0000 		.4byte	.LASF304
 6093 1462 02       		.byte	0x2
 6094 1463 7501     		.2byte	0x175
 6095 1465 CD070000 		.4byte	0x7cd
 6096 1469 02       		.uleb128 0x2
 6097 146a 91       		.byte	0x91
 6098 146b 48       		.sleb128 -56
 6099 146c 2E       		.uleb128 0x2e
 6100 146d 43050000 		.4byte	.LASF261
 6101 1471 02       		.byte	0x2
 6102 1472 B502     		.2byte	0x2b5
 6103 1474 9C040000 		.4byte	.L61
 6104 1478 2F       		.uleb128 0x2f
 6105 1479 90000000 		.4byte	.LBB3
 6106 147d 50010000 		.4byte	.LBE3-.LBB3
ARM GAS  C:\Users\Luis\AppData\Local\Temp\cc4eIE9x.s 			page 110


 6107 1481 BD140000 		.4byte	0x14bd
 6108 1485 2C       		.uleb128 0x2c
 6109 1486 BF060000 		.4byte	.LASF305
 6110 148a 02       		.byte	0x2
 6111 148b A701     		.2byte	0x1a7
 6112 148d CD070000 		.4byte	0x7cd
 6113 1491 02       		.uleb128 0x2
 6114 1492 91       		.byte	0x91
 6115 1493 54       		.sleb128 -44
 6116 1494 2C       		.uleb128 0x2c
 6117 1495 9C000000 		.4byte	.LASF306
 6118 1499 02       		.byte	0x2
 6119 149a A801     		.2byte	0x1a8
 6120 149c CD070000 		.4byte	0x7cd
 6121 14a0 02       		.uleb128 0x2
 6122 14a1 91       		.byte	0x91
 6123 14a2 44       		.sleb128 -60
 6124 14a3 28       		.uleb128 0x28
 6125 14a4 4E010000 		.4byte	.LBB4
 6126 14a8 92000000 		.4byte	.LBE4-.LBB4
 6127 14ac 2C       		.uleb128 0x2c
 6128 14ad 380D0000 		.4byte	.LASF307
 6129 14b1 02       		.byte	0x2
 6130 14b2 D401     		.2byte	0x1d4
 6131 14b4 CD070000 		.4byte	0x7cd
 6132 14b8 02       		.uleb128 0x2
 6133 14b9 91       		.byte	0x91
 6134 14ba 42       		.sleb128 -62
 6135 14bb 00       		.byte	0
 6136 14bc 00       		.byte	0
 6137 14bd 2F       		.uleb128 0x2f
 6138 14be F8010000 		.4byte	.LBB5
 6139 14c2 72010000 		.4byte	.LBE5-.LBB5
 6140 14c6 20150000 		.4byte	0x1520
 6141 14ca 2D       		.uleb128 0x2d
 6142 14cb 7000     		.ascii	"p\000"
 6143 14cd 02       		.byte	0x2
 6144 14ce 0B02     		.2byte	0x20b
 6145 14d0 C8080000 		.4byte	0x8c8
 6146 14d4 02       		.uleb128 0x2
 6147 14d5 91       		.byte	0x91
 6148 14d6 50       		.sleb128 -48
 6149 14d7 2C       		.uleb128 0x2c
 6150 14d8 870A0000 		.4byte	.LASF308
 6151 14dc 02       		.byte	0x2
 6152 14dd 0C02     		.2byte	0x20c
 6153 14df CD070000 		.4byte	0x7cd
 6154 14e3 02       		.uleb128 0x2
 6155 14e4 91       		.byte	0x91
 6156 14e5 40       		.sleb128 -64
 6157 14e6 2C       		.uleb128 0x2c
 6158 14e7 FA070000 		.4byte	.LASF309
 6159 14eb 02       		.byte	0x2
 6160 14ec 0D02     		.2byte	0x20d
 6161 14ee CD070000 		.4byte	0x7cd
 6162 14f2 03       		.uleb128 0x3
 6163 14f3 91       		.byte	0x91
ARM GAS  C:\Users\Luis\AppData\Local\Temp\cc4eIE9x.s 			page 111


 6164 14f4 BE7F     		.sleb128 -66
 6165 14f6 2C       		.uleb128 0x2c
 6166 14f7 380D0000 		.4byte	.LASF307
 6167 14fb 02       		.byte	0x2
 6168 14fc 0E02     		.2byte	0x20e
 6169 14fe CD070000 		.4byte	0x7cd
 6170 1502 03       		.uleb128 0x3
 6171 1503 91       		.byte	0x91
 6172 1504 BC7F     		.sleb128 -68
 6173 1506 28       		.uleb128 0x28
 6174 1507 8A020000 		.4byte	.LBB6
 6175 150b 6C000000 		.4byte	.LBE6-.LBB6
 6176 150f 2D       		.uleb128 0x2d
 6177 1510 703200   		.ascii	"p2\000"
 6178 1513 02       		.byte	0x2
 6179 1514 2402     		.2byte	0x224
 6180 1516 C8080000 		.4byte	0x8c8
 6181 151a 03       		.uleb128 0x3
 6182 151b 91       		.byte	0x91
 6183 151c B87F     		.sleb128 -72
 6184 151e 00       		.byte	0
 6185 151f 00       		.byte	0
 6186 1520 28       		.uleb128 0x28
 6187 1521 7A030000 		.4byte	.LBB7
 6188 1525 5C000000 		.4byte	.LBE7-.LBB7
 6189 1529 2D       		.uleb128 0x2d
 6190 152a 7000     		.ascii	"p\000"
 6191 152c 02       		.byte	0x2
 6192 152d 7302     		.2byte	0x273
 6193 152f C8080000 		.4byte	0x8c8
 6194 1533 02       		.uleb128 0x2
 6195 1534 91       		.byte	0x91
 6196 1535 4C       		.sleb128 -52
 6197 1536 00       		.byte	0
 6198 1537 00       		.byte	0
 6199 1538 0A       		.uleb128 0xa
 6200 1539 04       		.byte	0x4
 6201 153a 3E150000 		.4byte	0x153e
 6202 153e 30       		.uleb128 0x30
 6203 153f 2B       		.uleb128 0x2b
 6204 1540 1A090000 		.4byte	.LASF310
 6205 1544 02       		.byte	0x2
 6206 1545 D202     		.2byte	0x2d2
 6207 1547 0F080000 		.4byte	0x80f
 6208 154b 00000000 		.4byte	.LFB266
 6209 154f 30020000 		.4byte	.LFE266-.LFB266
 6210 1553 01       		.uleb128 0x1
 6211 1554 9C       		.byte	0x9c
 6212 1555 CB150000 		.4byte	0x15cb
 6213 1559 2A       		.uleb128 0x2a
 6214 155a 70636200 		.ascii	"pcb\000"
 6215 155e 02       		.byte	0x2
 6216 155f D202     		.2byte	0x2d2
 6217 1561 700A0000 		.4byte	0xa70
 6218 1565 02       		.uleb128 0x2
 6219 1566 91       		.byte	0x91
 6220 1567 54       		.sleb128 -44
ARM GAS  C:\Users\Luis\AppData\Local\Temp\cc4eIE9x.s 			page 112


 6221 1568 21       		.uleb128 0x21
 6222 1569 C0000000 		.4byte	.LASF152
 6223 156d 02       		.byte	0x2
 6224 156e D202     		.2byte	0x2d2
 6225 1570 B7070000 		.4byte	0x7b7
 6226 1574 02       		.uleb128 0x2
 6227 1575 91       		.byte	0x91
 6228 1576 53       		.sleb128 -45
 6229 1577 2D       		.uleb128 0x2d
 6230 1578 7000     		.ascii	"p\000"
 6231 157a 02       		.byte	0x2
 6232 157b D402     		.2byte	0x2d4
 6233 157d C8080000 		.4byte	0x8c8
 6234 1581 02       		.uleb128 0x2
 6235 1582 91       		.byte	0x91
 6236 1583 60       		.sleb128 -32
 6237 1584 2D       		.uleb128 0x2d
 6238 1585 73656700 		.ascii	"seg\000"
 6239 1589 02       		.byte	0x2
 6240 158a D502     		.2byte	0x2d5
 6241 158c 6E0E0000 		.4byte	0xe6e
 6242 1590 02       		.uleb128 0x2
 6243 1591 91       		.byte	0x91
 6244 1592 5C       		.sleb128 -36
 6245 1593 2C       		.uleb128 0x2c
 6246 1594 D6070000 		.4byte	.LASF287
 6247 1598 02       		.byte	0x2
 6248 1599 D602     		.2byte	0x2d6
 6249 159b B7070000 		.4byte	0x7b7
 6250 159f 02       		.uleb128 0x2
 6251 15a0 91       		.byte	0x91
 6252 15a1 6F       		.sleb128 -17
 6253 15a2 2C       		.uleb128 0x2c
 6254 15a3 9B0B0000 		.4byte	.LASF281
 6255 15a7 02       		.byte	0x2
 6256 15a8 D702     		.2byte	0x2d7
 6257 15aa B7070000 		.4byte	0x7b7
 6258 15ae 02       		.uleb128 0x2
 6259 15af 91       		.byte	0x91
 6260 15b0 67       		.sleb128 -25
 6261 15b1 28       		.uleb128 0x28
 6262 15b2 64010000 		.4byte	.LBB8
 6263 15b6 1C000000 		.4byte	.LBE8-.LBB8
 6264 15ba 2C       		.uleb128 0x2c
 6265 15bb D7040000 		.4byte	.LASF311
 6266 15bf 02       		.byte	0x2
 6267 15c0 1703     		.2byte	0x317
 6268 15c2 6E0E0000 		.4byte	0xe6e
 6269 15c6 02       		.uleb128 0x2
 6270 15c7 91       		.byte	0x91
 6271 15c8 68       		.sleb128 -24
 6272 15c9 00       		.byte	0
 6273 15ca 00       		.byte	0
 6274 15cb 2B       		.uleb128 0x2b
 6275 15cc E8090000 		.4byte	.LASF312
 6276 15d0 02       		.byte	0x2
 6277 15d1 4A03     		.2byte	0x34a
ARM GAS  C:\Users\Luis\AppData\Local\Temp\cc4eIE9x.s 			page 113


 6278 15d3 0F080000 		.4byte	0x80f
 6279 15d7 00000000 		.4byte	.LFB267
 6280 15db 92000000 		.4byte	.LFE267-.LFB267
 6281 15df 01       		.uleb128 0x1
 6282 15e0 9C       		.byte	0x9c
 6283 15e1 20160000 		.4byte	0x1620
 6284 15e5 2A       		.uleb128 0x2a
 6285 15e6 70636200 		.ascii	"pcb\000"
 6286 15ea 02       		.byte	0x2
 6287 15eb 4A03     		.2byte	0x34a
 6288 15ed 700A0000 		.4byte	0xa70
 6289 15f1 02       		.uleb128 0x2
 6290 15f2 91       		.byte	0x91
 6291 15f3 5C       		.sleb128 -36
 6292 15f4 2D       		.uleb128 0x2d
 6293 15f5 7000     		.ascii	"p\000"
 6294 15f7 02       		.byte	0x2
 6295 15f8 4C03     		.2byte	0x34c
 6296 15fa C8080000 		.4byte	0x8c8
 6297 15fe 02       		.uleb128 0x2
 6298 15ff 91       		.byte	0x91
 6299 1600 68       		.sleb128 -24
 6300 1601 2C       		.uleb128 0x2c
 6301 1602 500B0000 		.4byte	.LASF233
 6302 1606 02       		.byte	0x2
 6303 1607 4D03     		.2byte	0x34d
 6304 1609 E10E0000 		.4byte	0xee1
 6305 160d 02       		.uleb128 0x2
 6306 160e 91       		.byte	0x91
 6307 160f 64       		.sleb128 -28
 6308 1610 2C       		.uleb128 0x2c
 6309 1611 9B0B0000 		.4byte	.LASF281
 6310 1615 02       		.byte	0x2
 6311 1616 4E03     		.2byte	0x34e
 6312 1618 B7070000 		.4byte	0x7b7
 6313 161c 02       		.uleb128 0x2
 6314 161d 91       		.byte	0x91
 6315 161e 6F       		.sleb128 -17
 6316 161f 00       		.byte	0
 6317 1620 2B       		.uleb128 0x2b
 6318 1621 D3050000 		.4byte	.LASF313
 6319 1625 02       		.byte	0x2
 6320 1626 8203     		.2byte	0x382
 6321 1628 0F080000 		.4byte	0x80f
 6322 162c 00000000 		.4byte	.LFB268
 6323 1630 CA020000 		.4byte	.LFE268-.LFB268
 6324 1634 01       		.uleb128 0x1
 6325 1635 9C       		.byte	0x9c
 6326 1636 9F160000 		.4byte	0x169f
 6327 163a 2A       		.uleb128 0x2a
 6328 163b 70636200 		.ascii	"pcb\000"
 6329 163f 02       		.byte	0x2
 6330 1640 8203     		.2byte	0x382
 6331 1642 700A0000 		.4byte	0xa70
 6332 1646 02       		.uleb128 0x2
 6333 1647 91       		.byte	0x91
 6334 1648 54       		.sleb128 -44
ARM GAS  C:\Users\Luis\AppData\Local\Temp\cc4eIE9x.s 			page 114


 6335 1649 2D       		.uleb128 0x2d
 6336 164a 73656700 		.ascii	"seg\000"
 6337 164e 02       		.byte	0x2
 6338 164f 8403     		.2byte	0x384
 6339 1651 6E0E0000 		.4byte	0xe6e
 6340 1655 02       		.uleb128 0x2
 6341 1656 91       		.byte	0x91
 6342 1657 6C       		.sleb128 -20
 6343 1658 2C       		.uleb128 0x2c
 6344 1659 D7040000 		.4byte	.LASF311
 6345 165d 02       		.byte	0x2
 6346 165e 8403     		.2byte	0x384
 6347 1660 6E0E0000 		.4byte	0xe6e
 6348 1664 02       		.uleb128 0x2
 6349 1665 91       		.byte	0x91
 6350 1666 68       		.sleb128 -24
 6351 1667 2D       		.uleb128 0x2d
 6352 1668 776E6400 		.ascii	"wnd\000"
 6353 166c 02       		.byte	0x2
 6354 166d 8503     		.2byte	0x385
 6355 166f E3070000 		.4byte	0x7e3
 6356 1673 02       		.uleb128 0x2
 6357 1674 91       		.byte	0x91
 6358 1675 60       		.sleb128 -32
 6359 1676 2C       		.uleb128 0x2c
 6360 1677 7F0A0000 		.4byte	.LASF193
 6361 167b 02       		.byte	0x2
 6362 167c 8503     		.2byte	0x385
 6363 167e E3070000 		.4byte	0x7e3
 6364 1682 02       		.uleb128 0x2
 6365 1683 91       		.byte	0x91
 6366 1684 5C       		.sleb128 -36
 6367 1685 28       		.uleb128 0x28
 6368 1686 08020000 		.4byte	.LBB9
 6369 168a 48000000 		.4byte	.LBE9-.LBB9
 6370 168e 2C       		.uleb128 0x2c
 6371 168f 3F0D0000 		.4byte	.LASF314
 6372 1693 02       		.byte	0x2
 6373 1694 F403     		.2byte	0x3f4
 6374 1696 9F160000 		.4byte	0x169f
 6375 169a 02       		.uleb128 0x2
 6376 169b 91       		.byte	0x91
 6377 169c 64       		.sleb128 -28
 6378 169d 00       		.byte	0
 6379 169e 00       		.byte	0
 6380 169f 0A       		.uleb128 0xa
 6381 16a0 04       		.byte	0x4
 6382 16a1 6E0E0000 		.4byte	0xe6e
 6383 16a5 20       		.uleb128 0x20
 6384 16a6 2A050000 		.4byte	.LASF316
 6385 16aa 02       		.byte	0x2
 6386 16ab 1904     		.2byte	0x419
 6387 16ad 00000000 		.4byte	.LFB269
 6388 16b1 84010000 		.4byte	.LFE269-.LFB269
 6389 16b5 01       		.uleb128 0x1
 6390 16b6 9C       		.byte	0x9c
 6391 16b7 20170000 		.4byte	0x1720
ARM GAS  C:\Users\Luis\AppData\Local\Temp\cc4eIE9x.s 			page 115


 6392 16bb 2A       		.uleb128 0x2a
 6393 16bc 73656700 		.ascii	"seg\000"
 6394 16c0 02       		.byte	0x2
 6395 16c1 1904     		.2byte	0x419
 6396 16c3 6E0E0000 		.4byte	0xe6e
 6397 16c7 02       		.uleb128 0x2
 6398 16c8 91       		.byte	0x91
 6399 16c9 5C       		.sleb128 -36
 6400 16ca 2A       		.uleb128 0x2a
 6401 16cb 70636200 		.ascii	"pcb\000"
 6402 16cf 02       		.byte	0x2
 6403 16d0 1904     		.2byte	0x419
 6404 16d2 700A0000 		.4byte	0xa70
 6405 16d6 02       		.uleb128 0x2
 6406 16d7 91       		.byte	0x91
 6407 16d8 58       		.sleb128 -40
 6408 16d9 2D       		.uleb128 0x2d
 6409 16da 6C656E00 		.ascii	"len\000"
 6410 16de 02       		.byte	0x2
 6411 16df 1B04     		.2byte	0x41b
 6412 16e1 CD070000 		.4byte	0x7cd
 6413 16e5 02       		.uleb128 0x2
 6414 16e6 91       		.byte	0x91
 6415 16e7 62       		.sleb128 -30
 6416 16e8 2C       		.uleb128 0x2c
 6417 16e9 BD0C0000 		.4byte	.LASF156
 6418 16ed 02       		.byte	0x2
 6419 16ee 1C04     		.2byte	0x41c
 6420 16f0 F2080000 		.4byte	0x8f2
 6421 16f4 02       		.uleb128 0x2
 6422 16f5 91       		.byte	0x91
 6423 16f6 64       		.sleb128 -28
 6424 16f7 2C       		.uleb128 0x2c
 6425 16f8 B70A0000 		.4byte	.LASF317
 6426 16fc 02       		.byte	0x2
 6427 16fd 1D04     		.2byte	0x41d
 6428 16ff 20170000 		.4byte	0x1720
 6429 1703 02       		.uleb128 0x2
 6430 1704 91       		.byte	0x91
 6431 1705 6C       		.sleb128 -20
 6432 1706 28       		.uleb128 0x28
 6433 1707 50000000 		.4byte	.LBB10
 6434 170b 2A000000 		.4byte	.LBE10-.LBB10
 6435 170f 2D       		.uleb128 0x2d
 6436 1710 6D737300 		.ascii	"mss\000"
 6437 1714 02       		.byte	0x2
 6438 1715 2F04     		.2byte	0x42f
 6439 1717 CD070000 		.4byte	0x7cd
 6440 171b 02       		.uleb128 0x2
 6441 171c 91       		.byte	0x91
 6442 171d 6A       		.sleb128 -22
 6443 171e 00       		.byte	0
 6444 171f 00       		.byte	0
 6445 1720 0A       		.uleb128 0xa
 6446 1721 04       		.byte	0x4
 6447 1722 E3070000 		.4byte	0x7e3
 6448 1726 31       		.uleb128 0x31
ARM GAS  C:\Users\Luis\AppData\Local\Temp\cc4eIE9x.s 			page 116


 6449 1727 09090000 		.4byte	.LASF318
 6450 172b 02       		.byte	0x2
 6451 172c AB04     		.2byte	0x4ab
 6452 172e 00000000 		.4byte	.LFB270
 6453 1732 F8000000 		.4byte	.LFE270-.LFB270
 6454 1736 01       		.uleb128 0x1
 6455 1737 9C       		.byte	0x9c
 6456 1738 B3170000 		.4byte	0x17b3
 6457 173c 21       		.uleb128 0x21
 6458 173d 11030000 		.4byte	.LASF236
 6459 1741 02       		.byte	0x2
 6460 1742 AB04     		.2byte	0x4ab
 6461 1744 E3070000 		.4byte	0x7e3
 6462 1748 02       		.uleb128 0x2
 6463 1749 91       		.byte	0x91
 6464 174a 6C       		.sleb128 -20
 6465 174b 21       		.uleb128 0x21
 6466 174c 6E070000 		.4byte	.LASF237
 6467 1750 02       		.byte	0x2
 6468 1751 AB04     		.2byte	0x4ab
 6469 1753 E3070000 		.4byte	0x7e3
 6470 1757 02       		.uleb128 0x2
 6471 1758 91       		.byte	0x91
 6472 1759 68       		.sleb128 -24
 6473 175a 21       		.uleb128 0x21
 6474 175b 4C0A0000 		.4byte	.LASF170
 6475 175f 02       		.byte	0x2
 6476 1760 AC04     		.2byte	0x4ac
 6477 1762 FB090000 		.4byte	0x9fb
 6478 1766 02       		.uleb128 0x2
 6479 1767 91       		.byte	0x91
 6480 1768 64       		.sleb128 -28
 6481 1769 21       		.uleb128 0x21
 6482 176a 730D0000 		.4byte	.LASF171
 6483 176e 02       		.byte	0x2
 6484 176f AC04     		.2byte	0x4ac
 6485 1771 FB090000 		.4byte	0x9fb
 6486 1775 02       		.uleb128 0x2
 6487 1776 91       		.byte	0x91
 6488 1777 60       		.sleb128 -32
 6489 1778 21       		.uleb128 0x21
 6490 1779 91030000 		.4byte	.LASF176
 6491 177d 02       		.byte	0x2
 6492 177e AD04     		.2byte	0x4ad
 6493 1780 CD070000 		.4byte	0x7cd
 6494 1784 02       		.uleb128 0x2
 6495 1785 91       		.byte	0x91
 6496 1786 00       		.sleb128 0
 6497 1787 21       		.uleb128 0x21
 6498 1788 DF070000 		.4byte	.LASF177
 6499 178c 02       		.byte	0x2
 6500 178d AD04     		.2byte	0x4ad
 6501 178f CD070000 		.4byte	0x7cd
 6502 1793 02       		.uleb128 0x2
 6503 1794 91       		.byte	0x91
 6504 1795 04       		.sleb128 4
 6505 1796 2D       		.uleb128 0x2d
ARM GAS  C:\Users\Luis\AppData\Local\Temp\cc4eIE9x.s 			page 117


 6506 1797 7000     		.ascii	"p\000"
 6507 1799 02       		.byte	0x2
 6508 179a AF04     		.2byte	0x4af
 6509 179c C8080000 		.4byte	0x8c8
 6510 17a0 02       		.uleb128 0x2
 6511 17a1 91       		.byte	0x91
 6512 17a2 74       		.sleb128 -12
 6513 17a3 2C       		.uleb128 0x2c
 6514 17a4 500B0000 		.4byte	.LASF233
 6515 17a8 02       		.byte	0x2
 6516 17a9 B004     		.2byte	0x4b0
 6517 17ab E10E0000 		.4byte	0xee1
 6518 17af 02       		.uleb128 0x2
 6519 17b0 91       		.byte	0x91
 6520 17b1 70       		.sleb128 -16
 6521 17b2 00       		.byte	0
 6522 17b3 31       		.uleb128 0x31
 6523 17b4 5B040000 		.4byte	.LASF319
 6524 17b8 02       		.byte	0x2
 6525 17b9 D704     		.2byte	0x4d7
 6526 17bb 00000000 		.4byte	.LFB271
 6527 17bf 60000000 		.4byte	.LFE271-.LFB271
 6528 17c3 01       		.uleb128 0x1
 6529 17c4 9C       		.byte	0x9c
 6530 17c5 E8170000 		.4byte	0x17e8
 6531 17c9 2A       		.uleb128 0x2a
 6532 17ca 70636200 		.ascii	"pcb\000"
 6533 17ce 02       		.byte	0x2
 6534 17cf D704     		.2byte	0x4d7
 6535 17d1 700A0000 		.4byte	0xa70
 6536 17d5 02       		.uleb128 0x2
 6537 17d6 91       		.byte	0x91
 6538 17d7 6C       		.sleb128 -20
 6539 17d8 2D       		.uleb128 0x2d
 6540 17d9 73656700 		.ascii	"seg\000"
 6541 17dd 02       		.byte	0x2
 6542 17de D904     		.2byte	0x4d9
 6543 17e0 6E0E0000 		.4byte	0xe6e
 6544 17e4 02       		.uleb128 0x2
 6545 17e5 91       		.byte	0x91
 6546 17e6 74       		.sleb128 -12
 6547 17e7 00       		.byte	0
 6548 17e8 31       		.uleb128 0x31
 6549 17e9 A8080000 		.4byte	.LASF320
 6550 17ed 02       		.byte	0x2
 6551 17ee FB04     		.2byte	0x4fb
 6552 17f0 00000000 		.4byte	.LFB272
 6553 17f4 94000000 		.4byte	.LFE272-.LFB272
 6554 17f8 01       		.uleb128 0x1
 6555 17f9 9C       		.byte	0x9c
 6556 17fa 2C180000 		.4byte	0x182c
 6557 17fe 2A       		.uleb128 0x2a
 6558 17ff 70636200 		.ascii	"pcb\000"
 6559 1803 02       		.byte	0x2
 6560 1804 FB04     		.2byte	0x4fb
 6561 1806 700A0000 		.4byte	0xa70
 6562 180a 02       		.uleb128 0x2
ARM GAS  C:\Users\Luis\AppData\Local\Temp\cc4eIE9x.s 			page 118


 6563 180b 91       		.byte	0x91
 6564 180c 64       		.sleb128 -28
 6565 180d 2D       		.uleb128 0x2d
 6566 180e 73656700 		.ascii	"seg\000"
 6567 1812 02       		.byte	0x2
 6568 1813 FD04     		.2byte	0x4fd
 6569 1815 6E0E0000 		.4byte	0xe6e
 6570 1819 02       		.uleb128 0x2
 6571 181a 91       		.byte	0x91
 6572 181b 68       		.sleb128 -24
 6573 181c 2C       		.uleb128 0x2c
 6574 181d 3F0D0000 		.4byte	.LASF314
 6575 1821 02       		.byte	0x2
 6576 1822 FE04     		.2byte	0x4fe
 6577 1824 9F160000 		.4byte	0x169f
 6578 1828 02       		.uleb128 0x2
 6579 1829 91       		.byte	0x91
 6580 182a 6C       		.sleb128 -20
 6581 182b 00       		.byte	0
 6582 182c 31       		.uleb128 0x31
 6583 182d 9B0D0000 		.4byte	.LASF321
 6584 1831 02       		.byte	0x2
 6585 1832 2905     		.2byte	0x529
 6586 1834 00000000 		.4byte	.LFB273
 6587 1838 A4000000 		.4byte	.LFE273-.LFB273
 6588 183c 01       		.uleb128 0x1
 6589 183d 9C       		.byte	0x9c
 6590 183e 52180000 		.4byte	0x1852
 6591 1842 2A       		.uleb128 0x2a
 6592 1843 70636200 		.ascii	"pcb\000"
 6593 1847 02       		.byte	0x2
 6594 1848 2905     		.2byte	0x529
 6595 184a 700A0000 		.4byte	0xa70
 6596 184e 02       		.uleb128 0x2
 6597 184f 91       		.byte	0x91
 6598 1850 74       		.sleb128 -12
 6599 1851 00       		.byte	0
 6600 1852 31       		.uleb128 0x31
 6601 1853 59000000 		.4byte	.LASF322
 6602 1857 02       		.byte	0x2
 6603 1858 5405     		.2byte	0x554
 6604 185a 00000000 		.4byte	.LFB274
 6605 185e 88000000 		.4byte	.LFE274-.LFB274
 6606 1862 01       		.uleb128 0x1
 6607 1863 9C       		.byte	0x9c
 6608 1864 94180000 		.4byte	0x1894
 6609 1868 2A       		.uleb128 0x2a
 6610 1869 70636200 		.ascii	"pcb\000"
 6611 186d 02       		.byte	0x2
 6612 186e 5405     		.2byte	0x554
 6613 1870 700A0000 		.4byte	0xa70
 6614 1874 02       		.uleb128 0x2
 6615 1875 91       		.byte	0x91
 6616 1876 6C       		.sleb128 -20
 6617 1877 2D       		.uleb128 0x2d
 6618 1878 7000     		.ascii	"p\000"
 6619 187a 02       		.byte	0x2
ARM GAS  C:\Users\Luis\AppData\Local\Temp\cc4eIE9x.s 			page 119


 6620 187b 5605     		.2byte	0x556
 6621 187d C8080000 		.4byte	0x8c8
 6622 1881 02       		.uleb128 0x2
 6623 1882 91       		.byte	0x91
 6624 1883 74       		.sleb128 -12
 6625 1884 2C       		.uleb128 0x2c
 6626 1885 500B0000 		.4byte	.LASF233
 6627 1889 02       		.byte	0x2
 6628 188a 5705     		.2byte	0x557
 6629 188c E10E0000 		.4byte	0xee1
 6630 1890 02       		.uleb128 0x2
 6631 1891 91       		.byte	0x91
 6632 1892 70       		.sleb128 -16
 6633 1893 00       		.byte	0
 6634 1894 31       		.uleb128 0x31
 6635 1895 850D0000 		.4byte	.LASF323
 6636 1899 02       		.byte	0x2
 6637 189a 8605     		.2byte	0x586
 6638 189c 00000000 		.4byte	.LFB275
 6639 18a0 20010000 		.4byte	.LFE275-.LFB275
 6640 18a4 01       		.uleb128 0x1
 6641 18a5 9C       		.byte	0x9c
 6642 18a6 1A190000 		.4byte	0x191a
 6643 18aa 2A       		.uleb128 0x2a
 6644 18ab 70636200 		.ascii	"pcb\000"
 6645 18af 02       		.byte	0x2
 6646 18b0 8605     		.2byte	0x586
 6647 18b2 700A0000 		.4byte	0xa70
 6648 18b6 02       		.uleb128 0x2
 6649 18b7 91       		.byte	0x91
 6650 18b8 54       		.sleb128 -44
 6651 18b9 2D       		.uleb128 0x2d
 6652 18ba 7000     		.ascii	"p\000"
 6653 18bc 02       		.byte	0x2
 6654 18bd 8805     		.2byte	0x588
 6655 18bf C8080000 		.4byte	0x8c8
 6656 18c3 02       		.uleb128 0x2
 6657 18c4 91       		.byte	0x91
 6658 18c5 64       		.sleb128 -28
 6659 18c6 2C       		.uleb128 0x2c
 6660 18c7 500B0000 		.4byte	.LASF233
 6661 18cb 02       		.byte	0x2
 6662 18cc 8905     		.2byte	0x589
 6663 18ce E10E0000 		.4byte	0xee1
 6664 18d2 02       		.uleb128 0x2
 6665 18d3 91       		.byte	0x91
 6666 18d4 60       		.sleb128 -32
 6667 18d5 2D       		.uleb128 0x2d
 6668 18d6 73656700 		.ascii	"seg\000"
 6669 18da 02       		.byte	0x2
 6670 18db 8A05     		.2byte	0x58a
 6671 18dd 6E0E0000 		.4byte	0xe6e
 6672 18e1 02       		.uleb128 0x2
 6673 18e2 91       		.byte	0x91
 6674 18e3 6C       		.sleb128 -20
 6675 18e4 2D       		.uleb128 0x2d
 6676 18e5 6C656E00 		.ascii	"len\000"
ARM GAS  C:\Users\Luis\AppData\Local\Temp\cc4eIE9x.s 			page 120


 6677 18e9 02       		.byte	0x2
 6678 18ea 8B05     		.2byte	0x58b
 6679 18ec CD070000 		.4byte	0x7cd
 6680 18f0 02       		.uleb128 0x2
 6681 18f1 91       		.byte	0x91
 6682 18f2 68       		.sleb128 -24
 6683 18f3 2C       		.uleb128 0x2c
 6684 18f4 02040000 		.4byte	.LASF324
 6685 18f8 02       		.byte	0x2
 6686 18f9 8C05     		.2byte	0x58c
 6687 18fb B7070000 		.4byte	0x7b7
 6688 18ff 02       		.uleb128 0x2
 6689 1900 91       		.byte	0x91
 6690 1901 6B       		.sleb128 -21
 6691 1902 28       		.uleb128 0x28
 6692 1903 A4000000 		.4byte	.LBB11
 6693 1907 24000000 		.4byte	.LBE11-.LBB11
 6694 190b 2D       		.uleb128 0x2d
 6695 190c 6400     		.ascii	"d\000"
 6696 190e 02       		.byte	0x2
 6697 190f B205     		.2byte	0x5b2
 6698 1911 27110000 		.4byte	0x1127
 6699 1915 02       		.uleb128 0x2
 6700 1916 91       		.byte	0x91
 6701 1917 5C       		.sleb128 -36
 6702 1918 00       		.byte	0
 6703 1919 00       		.byte	0
 6704 191a 32       		.uleb128 0x32
 6705 191b B8090000 		.4byte	.LASF325
 6706 191f 18       		.byte	0x18
 6707 1920 A706     		.2byte	0x6a7
 6708 1922 B8000000 		.4byte	0xb8
 6709 1926 33       		.uleb128 0x33
 6710 1927 636800   		.ascii	"ch\000"
 6711 192a 06       		.byte	0x6
 6712 192b 0902     		.2byte	0x209
 6713 192d 33040000 		.4byte	0x433
 6714 1931 32       		.uleb128 0x32
 6715 1932 F3040000 		.4byte	.LASF326
 6716 1936 15       		.byte	0x15
 6717 1937 3201     		.2byte	0x132
 6718 1939 700A0000 		.4byte	0xa70
 6719 193d 32       		.uleb128 0x32
 6720 193e 390B0000 		.4byte	.LASF327
 6721 1942 15       		.byte	0x15
 6722 1943 3301     		.2byte	0x133
 6723 1945 E3070000 		.4byte	0x7e3
 6724 1949 34       		.uleb128 0x34
 6725 194a B7020000 		.4byte	.LASF328
 6726 194e 17       		.byte	0x17
 6727 194f 95       		.byte	0x95
 6728 1950 91100000 		.4byte	0x1091
 6729 1954 00       		.byte	0
 6730              		.section	.debug_abbrev,"",%progbits
 6731              	.Ldebug_abbrev0:
 6732 0000 01       		.uleb128 0x1
 6733 0001 11       		.uleb128 0x11
ARM GAS  C:\Users\Luis\AppData\Local\Temp\cc4eIE9x.s 			page 121


 6734 0002 01       		.byte	0x1
 6735 0003 25       		.uleb128 0x25
 6736 0004 0E       		.uleb128 0xe
 6737 0005 13       		.uleb128 0x13
 6738 0006 0B       		.uleb128 0xb
 6739 0007 03       		.uleb128 0x3
 6740 0008 0E       		.uleb128 0xe
 6741 0009 1B       		.uleb128 0x1b
 6742 000a 0E       		.uleb128 0xe
 6743 000b 55       		.uleb128 0x55
 6744 000c 17       		.uleb128 0x17
 6745 000d 11       		.uleb128 0x11
 6746 000e 01       		.uleb128 0x1
 6747 000f 10       		.uleb128 0x10
 6748 0010 17       		.uleb128 0x17
 6749 0011 00       		.byte	0
 6750 0012 00       		.byte	0
 6751 0013 02       		.uleb128 0x2
 6752 0014 24       		.uleb128 0x24
 6753 0015 00       		.byte	0
 6754 0016 0B       		.uleb128 0xb
 6755 0017 0B       		.uleb128 0xb
 6756 0018 3E       		.uleb128 0x3e
 6757 0019 0B       		.uleb128 0xb
 6758 001a 03       		.uleb128 0x3
 6759 001b 08       		.uleb128 0x8
 6760 001c 00       		.byte	0
 6761 001d 00       		.byte	0
 6762 001e 03       		.uleb128 0x3
 6763 001f 24       		.uleb128 0x24
 6764 0020 00       		.byte	0
 6765 0021 0B       		.uleb128 0xb
 6766 0022 0B       		.uleb128 0xb
 6767 0023 3E       		.uleb128 0x3e
 6768 0024 0B       		.uleb128 0xb
 6769 0025 03       		.uleb128 0x3
 6770 0026 0E       		.uleb128 0xe
 6771 0027 00       		.byte	0
 6772 0028 00       		.byte	0
 6773 0029 04       		.uleb128 0x4
 6774 002a 16       		.uleb128 0x16
 6775 002b 00       		.byte	0
 6776 002c 03       		.uleb128 0x3
 6777 002d 0E       		.uleb128 0xe
 6778 002e 3A       		.uleb128 0x3a
 6779 002f 0B       		.uleb128 0xb
 6780 0030 3B       		.uleb128 0x3b
 6781 0031 0B       		.uleb128 0xb
 6782 0032 49       		.uleb128 0x49
 6783 0033 13       		.uleb128 0x13
 6784 0034 00       		.byte	0
 6785 0035 00       		.byte	0
 6786 0036 05       		.uleb128 0x5
 6787 0037 35       		.uleb128 0x35
 6788 0038 00       		.byte	0
 6789 0039 49       		.uleb128 0x49
 6790 003a 13       		.uleb128 0x13
ARM GAS  C:\Users\Luis\AppData\Local\Temp\cc4eIE9x.s 			page 122


 6791 003b 00       		.byte	0
 6792 003c 00       		.byte	0
 6793 003d 06       		.uleb128 0x6
 6794 003e 13       		.uleb128 0x13
 6795 003f 01       		.byte	0x1
 6796 0040 03       		.uleb128 0x3
 6797 0041 0E       		.uleb128 0xe
 6798 0042 0B       		.uleb128 0xb
 6799 0043 0B       		.uleb128 0xb
 6800 0044 3A       		.uleb128 0x3a
 6801 0045 0B       		.uleb128 0xb
 6802 0046 3B       		.uleb128 0x3b
 6803 0047 0B       		.uleb128 0xb
 6804 0048 01       		.uleb128 0x1
 6805 0049 13       		.uleb128 0x13
 6806 004a 00       		.byte	0
 6807 004b 00       		.byte	0
 6808 004c 07       		.uleb128 0x7
 6809 004d 0D       		.uleb128 0xd
 6810 004e 00       		.byte	0
 6811 004f 03       		.uleb128 0x3
 6812 0050 0E       		.uleb128 0xe
 6813 0051 3A       		.uleb128 0x3a
 6814 0052 0B       		.uleb128 0xb
 6815 0053 3B       		.uleb128 0x3b
 6816 0054 0B       		.uleb128 0xb
 6817 0055 49       		.uleb128 0x49
 6818 0056 13       		.uleb128 0x13
 6819 0057 38       		.uleb128 0x38
 6820 0058 0B       		.uleb128 0xb
 6821 0059 00       		.byte	0
 6822 005a 00       		.byte	0
 6823 005b 08       		.uleb128 0x8
 6824 005c 0D       		.uleb128 0xd
 6825 005d 00       		.byte	0
 6826 005e 03       		.uleb128 0x3
 6827 005f 08       		.uleb128 0x8
 6828 0060 3A       		.uleb128 0x3a
 6829 0061 0B       		.uleb128 0xb
 6830 0062 3B       		.uleb128 0x3b
 6831 0063 05       		.uleb128 0x5
 6832 0064 49       		.uleb128 0x49
 6833 0065 13       		.uleb128 0x13
 6834 0066 38       		.uleb128 0x38
 6835 0067 0B       		.uleb128 0xb
 6836 0068 00       		.byte	0
 6837 0069 00       		.byte	0
 6838 006a 09       		.uleb128 0x9
 6839 006b 0D       		.uleb128 0xd
 6840 006c 00       		.byte	0
 6841 006d 03       		.uleb128 0x3
 6842 006e 0E       		.uleb128 0xe
 6843 006f 3A       		.uleb128 0x3a
 6844 0070 0B       		.uleb128 0xb
 6845 0071 3B       		.uleb128 0x3b
 6846 0072 05       		.uleb128 0x5
 6847 0073 49       		.uleb128 0x49
ARM GAS  C:\Users\Luis\AppData\Local\Temp\cc4eIE9x.s 			page 123


 6848 0074 13       		.uleb128 0x13
 6849 0075 38       		.uleb128 0x38
 6850 0076 0B       		.uleb128 0xb
 6851 0077 00       		.byte	0
 6852 0078 00       		.byte	0
 6853 0079 0A       		.uleb128 0xa
 6854 007a 0F       		.uleb128 0xf
 6855 007b 00       		.byte	0
 6856 007c 0B       		.uleb128 0xb
 6857 007d 0B       		.uleb128 0xb
 6858 007e 49       		.uleb128 0x49
 6859 007f 13       		.uleb128 0x13
 6860 0080 00       		.byte	0
 6861 0081 00       		.byte	0
 6862 0082 0B       		.uleb128 0xb
 6863 0083 13       		.uleb128 0x13
 6864 0084 01       		.byte	0x1
 6865 0085 03       		.uleb128 0x3
 6866 0086 0E       		.uleb128 0xe
 6867 0087 0B       		.uleb128 0xb
 6868 0088 0B       		.uleb128 0xb
 6869 0089 3A       		.uleb128 0x3a
 6870 008a 0B       		.uleb128 0xb
 6871 008b 3B       		.uleb128 0x3b
 6872 008c 05       		.uleb128 0x5
 6873 008d 01       		.uleb128 0x1
 6874 008e 13       		.uleb128 0x13
 6875 008f 00       		.byte	0
 6876 0090 00       		.byte	0
 6877 0091 0C       		.uleb128 0xc
 6878 0092 15       		.uleb128 0x15
 6879 0093 01       		.byte	0x1
 6880 0094 27       		.uleb128 0x27
 6881 0095 19       		.uleb128 0x19
 6882 0096 01       		.uleb128 0x1
 6883 0097 13       		.uleb128 0x13
 6884 0098 00       		.byte	0
 6885 0099 00       		.byte	0
 6886 009a 0D       		.uleb128 0xd
 6887 009b 05       		.uleb128 0x5
 6888 009c 00       		.byte	0
 6889 009d 49       		.uleb128 0x49
 6890 009e 13       		.uleb128 0x13
 6891 009f 00       		.byte	0
 6892 00a0 00       		.byte	0
 6893 00a1 0E       		.uleb128 0xe
 6894 00a2 0F       		.uleb128 0xf
 6895 00a3 00       		.byte	0
 6896 00a4 0B       		.uleb128 0xb
 6897 00a5 0B       		.uleb128 0xb
 6898 00a6 00       		.byte	0
 6899 00a7 00       		.byte	0
 6900 00a8 0F       		.uleb128 0xf
 6901 00a9 13       		.uleb128 0x13
 6902 00aa 01       		.byte	0x1
 6903 00ab 03       		.uleb128 0x3
 6904 00ac 0E       		.uleb128 0xe
ARM GAS  C:\Users\Luis\AppData\Local\Temp\cc4eIE9x.s 			page 124


 6905 00ad 0B       		.uleb128 0xb
 6906 00ae 05       		.uleb128 0x5
 6907 00af 3A       		.uleb128 0x3a
 6908 00b0 0B       		.uleb128 0xb
 6909 00b1 3B       		.uleb128 0x3b
 6910 00b2 05       		.uleb128 0x5
 6911 00b3 01       		.uleb128 0x1
 6912 00b4 13       		.uleb128 0x13
 6913 00b5 00       		.byte	0
 6914 00b6 00       		.byte	0
 6915 00b7 10       		.uleb128 0x10
 6916 00b8 0D       		.uleb128 0xd
 6917 00b9 00       		.byte	0
 6918 00ba 03       		.uleb128 0x3
 6919 00bb 0E       		.uleb128 0xe
 6920 00bc 3A       		.uleb128 0x3a
 6921 00bd 0B       		.uleb128 0xb
 6922 00be 3B       		.uleb128 0x3b
 6923 00bf 05       		.uleb128 0x5
 6924 00c0 49       		.uleb128 0x49
 6925 00c1 13       		.uleb128 0x13
 6926 00c2 38       		.uleb128 0x38
 6927 00c3 05       		.uleb128 0x5
 6928 00c4 00       		.byte	0
 6929 00c5 00       		.byte	0
 6930 00c6 11       		.uleb128 0x11
 6931 00c7 0D       		.uleb128 0xd
 6932 00c8 00       		.byte	0
 6933 00c9 03       		.uleb128 0x3
 6934 00ca 08       		.uleb128 0x8
 6935 00cb 3A       		.uleb128 0x3a
 6936 00cc 0B       		.uleb128 0xb
 6937 00cd 3B       		.uleb128 0x3b
 6938 00ce 05       		.uleb128 0x5
 6939 00cf 49       		.uleb128 0x49
 6940 00d0 13       		.uleb128 0x13
 6941 00d1 38       		.uleb128 0x38
 6942 00d2 05       		.uleb128 0x5
 6943 00d3 00       		.byte	0
 6944 00d4 00       		.byte	0
 6945 00d5 12       		.uleb128 0x12
 6946 00d6 0D       		.uleb128 0xd
 6947 00d7 00       		.byte	0
 6948 00d8 03       		.uleb128 0x3
 6949 00d9 08       		.uleb128 0x8
 6950 00da 3A       		.uleb128 0x3a
 6951 00db 0B       		.uleb128 0xb
 6952 00dc 3B       		.uleb128 0x3b
 6953 00dd 0B       		.uleb128 0xb
 6954 00de 49       		.uleb128 0x49
 6955 00df 13       		.uleb128 0x13
 6956 00e0 38       		.uleb128 0x38
 6957 00e1 0B       		.uleb128 0xb
 6958 00e2 00       		.byte	0
 6959 00e3 00       		.byte	0
 6960 00e4 13       		.uleb128 0x13
 6961 00e5 13       		.uleb128 0x13
ARM GAS  C:\Users\Luis\AppData\Local\Temp\cc4eIE9x.s 			page 125


 6962 00e6 01       		.byte	0x1
 6963 00e7 0B       		.uleb128 0xb
 6964 00e8 0B       		.uleb128 0xb
 6965 00e9 3A       		.uleb128 0x3a
 6966 00ea 0B       		.uleb128 0xb
 6967 00eb 3B       		.uleb128 0x3b
 6968 00ec 0B       		.uleb128 0xb
 6969 00ed 01       		.uleb128 0x1
 6970 00ee 13       		.uleb128 0x13
 6971 00ef 00       		.byte	0
 6972 00f0 00       		.byte	0
 6973 00f1 14       		.uleb128 0x14
 6974 00f2 13       		.uleb128 0x13
 6975 00f3 01       		.byte	0x1
 6976 00f4 0B       		.uleb128 0xb
 6977 00f5 05       		.uleb128 0x5
 6978 00f6 3A       		.uleb128 0x3a
 6979 00f7 0B       		.uleb128 0xb
 6980 00f8 3B       		.uleb128 0x3b
 6981 00f9 0B       		.uleb128 0xb
 6982 00fa 01       		.uleb128 0x1
 6983 00fb 13       		.uleb128 0x13
 6984 00fc 00       		.byte	0
 6985 00fd 00       		.byte	0
 6986 00fe 15       		.uleb128 0x15
 6987 00ff 01       		.uleb128 0x1
 6988 0100 01       		.byte	0x1
 6989 0101 49       		.uleb128 0x49
 6990 0102 13       		.uleb128 0x13
 6991 0103 01       		.uleb128 0x1
 6992 0104 13       		.uleb128 0x13
 6993 0105 00       		.byte	0
 6994 0106 00       		.byte	0
 6995 0107 16       		.uleb128 0x16
 6996 0108 21       		.uleb128 0x21
 6997 0109 00       		.byte	0
 6998 010a 49       		.uleb128 0x49
 6999 010b 13       		.uleb128 0x13
 7000 010c 2F       		.uleb128 0x2f
 7001 010d 0B       		.uleb128 0xb
 7002 010e 00       		.byte	0
 7003 010f 00       		.byte	0
 7004 0110 17       		.uleb128 0x17
 7005 0111 17       		.uleb128 0x17
 7006 0112 01       		.byte	0x1
 7007 0113 0B       		.uleb128 0xb
 7008 0114 0B       		.uleb128 0xb
 7009 0115 3A       		.uleb128 0x3a
 7010 0116 0B       		.uleb128 0xb
 7011 0117 3B       		.uleb128 0x3b
 7012 0118 0B       		.uleb128 0xb
 7013 0119 01       		.uleb128 0x1
 7014 011a 13       		.uleb128 0x13
 7015 011b 00       		.byte	0
 7016 011c 00       		.byte	0
 7017 011d 18       		.uleb128 0x18
 7018 011e 0D       		.uleb128 0xd
ARM GAS  C:\Users\Luis\AppData\Local\Temp\cc4eIE9x.s 			page 126


 7019 011f 00       		.byte	0
 7020 0120 03       		.uleb128 0x3
 7021 0121 0E       		.uleb128 0xe
 7022 0122 3A       		.uleb128 0x3a
 7023 0123 0B       		.uleb128 0xb
 7024 0124 3B       		.uleb128 0x3b
 7025 0125 05       		.uleb128 0x5
 7026 0126 49       		.uleb128 0x49
 7027 0127 13       		.uleb128 0x13
 7028 0128 00       		.byte	0
 7029 0129 00       		.byte	0
 7030 012a 19       		.uleb128 0x19
 7031 012b 26       		.uleb128 0x26
 7032 012c 00       		.byte	0
 7033 012d 49       		.uleb128 0x49
 7034 012e 13       		.uleb128 0x13
 7035 012f 00       		.byte	0
 7036 0130 00       		.byte	0
 7037 0131 1A       		.uleb128 0x1a
 7038 0132 04       		.uleb128 0x4
 7039 0133 01       		.byte	0x1
 7040 0134 0B       		.uleb128 0xb
 7041 0135 0B       		.uleb128 0xb
 7042 0136 3A       		.uleb128 0x3a
 7043 0137 0B       		.uleb128 0xb
 7044 0138 3B       		.uleb128 0x3b
 7045 0139 0B       		.uleb128 0xb
 7046 013a 01       		.uleb128 0x1
 7047 013b 13       		.uleb128 0x13
 7048 013c 00       		.byte	0
 7049 013d 00       		.byte	0
 7050 013e 1B       		.uleb128 0x1b
 7051 013f 28       		.uleb128 0x28
 7052 0140 00       		.byte	0
 7053 0141 03       		.uleb128 0x3
 7054 0142 0E       		.uleb128 0xe
 7055 0143 1C       		.uleb128 0x1c
 7056 0144 0D       		.uleb128 0xd
 7057 0145 00       		.byte	0
 7058 0146 00       		.byte	0
 7059 0147 1C       		.uleb128 0x1c
 7060 0148 15       		.uleb128 0x15
 7061 0149 01       		.byte	0x1
 7062 014a 27       		.uleb128 0x27
 7063 014b 19       		.uleb128 0x19
 7064 014c 49       		.uleb128 0x49
 7065 014d 13       		.uleb128 0x13
 7066 014e 01       		.uleb128 0x1
 7067 014f 13       		.uleb128 0x13
 7068 0150 00       		.byte	0
 7069 0151 00       		.byte	0
 7070 0152 1D       		.uleb128 0x1d
 7071 0153 04       		.uleb128 0x4
 7072 0154 01       		.byte	0x1
 7073 0155 03       		.uleb128 0x3
 7074 0156 0E       		.uleb128 0xe
 7075 0157 0B       		.uleb128 0xb
ARM GAS  C:\Users\Luis\AppData\Local\Temp\cc4eIE9x.s 			page 127


 7076 0158 0B       		.uleb128 0xb
 7077 0159 3A       		.uleb128 0x3a
 7078 015a 0B       		.uleb128 0xb
 7079 015b 3B       		.uleb128 0x3b
 7080 015c 0B       		.uleb128 0xb
 7081 015d 01       		.uleb128 0x1
 7082 015e 13       		.uleb128 0x13
 7083 015f 00       		.byte	0
 7084 0160 00       		.byte	0
 7085 0161 1E       		.uleb128 0x1e
 7086 0162 13       		.uleb128 0x13
 7087 0163 01       		.byte	0x1
 7088 0164 03       		.uleb128 0x3
 7089 0165 0E       		.uleb128 0xe
 7090 0166 0B       		.uleb128 0xb
 7091 0167 05       		.uleb128 0x5
 7092 0168 3A       		.uleb128 0x3a
 7093 0169 0B       		.uleb128 0xb
 7094 016a 3B       		.uleb128 0x3b
 7095 016b 0B       		.uleb128 0xb
 7096 016c 01       		.uleb128 0x1
 7097 016d 13       		.uleb128 0x13
 7098 016e 00       		.byte	0
 7099 016f 00       		.byte	0
 7100 0170 1F       		.uleb128 0x1f
 7101 0171 0D       		.uleb128 0xd
 7102 0172 00       		.byte	0
 7103 0173 03       		.uleb128 0x3
 7104 0174 08       		.uleb128 0x8
 7105 0175 3A       		.uleb128 0x3a
 7106 0176 0B       		.uleb128 0xb
 7107 0177 3B       		.uleb128 0x3b
 7108 0178 0B       		.uleb128 0xb
 7109 0179 49       		.uleb128 0x49
 7110 017a 13       		.uleb128 0x13
 7111 017b 38       		.uleb128 0x38
 7112 017c 05       		.uleb128 0x5
 7113 017d 00       		.byte	0
 7114 017e 00       		.byte	0
 7115 017f 20       		.uleb128 0x20
 7116 0180 2E       		.uleb128 0x2e
 7117 0181 01       		.byte	0x1
 7118 0182 03       		.uleb128 0x3
 7119 0183 0E       		.uleb128 0xe
 7120 0184 3A       		.uleb128 0x3a
 7121 0185 0B       		.uleb128 0xb
 7122 0186 3B       		.uleb128 0x3b
 7123 0187 05       		.uleb128 0x5
 7124 0188 27       		.uleb128 0x27
 7125 0189 19       		.uleb128 0x19
 7126 018a 11       		.uleb128 0x11
 7127 018b 01       		.uleb128 0x1
 7128 018c 12       		.uleb128 0x12
 7129 018d 06       		.uleb128 0x6
 7130 018e 40       		.uleb128 0x40
 7131 018f 18       		.uleb128 0x18
 7132 0190 9642     		.uleb128 0x2116
ARM GAS  C:\Users\Luis\AppData\Local\Temp\cc4eIE9x.s 			page 128


 7133 0192 19       		.uleb128 0x19
 7134 0193 01       		.uleb128 0x1
 7135 0194 13       		.uleb128 0x13
 7136 0195 00       		.byte	0
 7137 0196 00       		.byte	0
 7138 0197 21       		.uleb128 0x21
 7139 0198 05       		.uleb128 0x5
 7140 0199 00       		.byte	0
 7141 019a 03       		.uleb128 0x3
 7142 019b 0E       		.uleb128 0xe
 7143 019c 3A       		.uleb128 0x3a
 7144 019d 0B       		.uleb128 0xb
 7145 019e 3B       		.uleb128 0x3b
 7146 019f 05       		.uleb128 0x5
 7147 01a0 49       		.uleb128 0x49
 7148 01a1 13       		.uleb128 0x13
 7149 01a2 02       		.uleb128 0x2
 7150 01a3 18       		.uleb128 0x18
 7151 01a4 00       		.byte	0
 7152 01a5 00       		.byte	0
 7153 01a6 22       		.uleb128 0x22
 7154 01a7 2E       		.uleb128 0x2e
 7155 01a8 01       		.byte	0x1
 7156 01a9 03       		.uleb128 0x3
 7157 01aa 0E       		.uleb128 0xe
 7158 01ab 3A       		.uleb128 0x3a
 7159 01ac 0B       		.uleb128 0xb
 7160 01ad 3B       		.uleb128 0x3b
 7161 01ae 0B       		.uleb128 0xb
 7162 01af 27       		.uleb128 0x27
 7163 01b0 19       		.uleb128 0x19
 7164 01b1 49       		.uleb128 0x49
 7165 01b2 13       		.uleb128 0x13
 7166 01b3 11       		.uleb128 0x11
 7167 01b4 01       		.uleb128 0x1
 7168 01b5 12       		.uleb128 0x12
 7169 01b6 06       		.uleb128 0x6
 7170 01b7 40       		.uleb128 0x40
 7171 01b8 18       		.uleb128 0x18
 7172 01b9 9642     		.uleb128 0x2116
 7173 01bb 19       		.uleb128 0x19
 7174 01bc 01       		.uleb128 0x1
 7175 01bd 13       		.uleb128 0x13
 7176 01be 00       		.byte	0
 7177 01bf 00       		.byte	0
 7178 01c0 23       		.uleb128 0x23
 7179 01c1 05       		.uleb128 0x5
 7180 01c2 00       		.byte	0
 7181 01c3 03       		.uleb128 0x3
 7182 01c4 08       		.uleb128 0x8
 7183 01c5 3A       		.uleb128 0x3a
 7184 01c6 0B       		.uleb128 0xb
 7185 01c7 3B       		.uleb128 0x3b
 7186 01c8 0B       		.uleb128 0xb
 7187 01c9 49       		.uleb128 0x49
 7188 01ca 13       		.uleb128 0x13
 7189 01cb 02       		.uleb128 0x2
ARM GAS  C:\Users\Luis\AppData\Local\Temp\cc4eIE9x.s 			page 129


 7190 01cc 18       		.uleb128 0x18
 7191 01cd 00       		.byte	0
 7192 01ce 00       		.byte	0
 7193 01cf 24       		.uleb128 0x24
 7194 01d0 05       		.uleb128 0x5
 7195 01d1 00       		.byte	0
 7196 01d2 03       		.uleb128 0x3
 7197 01d3 0E       		.uleb128 0xe
 7198 01d4 3A       		.uleb128 0x3a
 7199 01d5 0B       		.uleb128 0xb
 7200 01d6 3B       		.uleb128 0x3b
 7201 01d7 0B       		.uleb128 0xb
 7202 01d8 49       		.uleb128 0x49
 7203 01d9 13       		.uleb128 0x13
 7204 01da 02       		.uleb128 0x2
 7205 01db 18       		.uleb128 0x18
 7206 01dc 00       		.byte	0
 7207 01dd 00       		.byte	0
 7208 01de 25       		.uleb128 0x25
 7209 01df 34       		.uleb128 0x34
 7210 01e0 00       		.byte	0
 7211 01e1 03       		.uleb128 0x3
 7212 01e2 0E       		.uleb128 0xe
 7213 01e3 3A       		.uleb128 0x3a
 7214 01e4 0B       		.uleb128 0xb
 7215 01e5 3B       		.uleb128 0x3b
 7216 01e6 0B       		.uleb128 0xb
 7217 01e7 49       		.uleb128 0x49
 7218 01e8 13       		.uleb128 0x13
 7219 01e9 02       		.uleb128 0x2
 7220 01ea 18       		.uleb128 0x18
 7221 01eb 00       		.byte	0
 7222 01ec 00       		.byte	0
 7223 01ed 26       		.uleb128 0x26
 7224 01ee 34       		.uleb128 0x34
 7225 01ef 00       		.byte	0
 7226 01f0 03       		.uleb128 0x3
 7227 01f1 08       		.uleb128 0x8
 7228 01f2 3A       		.uleb128 0x3a
 7229 01f3 0B       		.uleb128 0xb
 7230 01f4 3B       		.uleb128 0x3b
 7231 01f5 0B       		.uleb128 0xb
 7232 01f6 49       		.uleb128 0x49
 7233 01f7 13       		.uleb128 0x13
 7234 01f8 02       		.uleb128 0x2
 7235 01f9 18       		.uleb128 0x18
 7236 01fa 00       		.byte	0
 7237 01fb 00       		.byte	0
 7238 01fc 27       		.uleb128 0x27
 7239 01fd 2E       		.uleb128 0x2e
 7240 01fe 01       		.byte	0x1
 7241 01ff 3F       		.uleb128 0x3f
 7242 0200 19       		.uleb128 0x19
 7243 0201 03       		.uleb128 0x3
 7244 0202 0E       		.uleb128 0xe
 7245 0203 3A       		.uleb128 0x3a
 7246 0204 0B       		.uleb128 0xb
ARM GAS  C:\Users\Luis\AppData\Local\Temp\cc4eIE9x.s 			page 130


 7247 0205 3B       		.uleb128 0x3b
 7248 0206 0B       		.uleb128 0xb
 7249 0207 27       		.uleb128 0x27
 7250 0208 19       		.uleb128 0x19
 7251 0209 49       		.uleb128 0x49
 7252 020a 13       		.uleb128 0x13
 7253 020b 11       		.uleb128 0x11
 7254 020c 01       		.uleb128 0x1
 7255 020d 12       		.uleb128 0x12
 7256 020e 06       		.uleb128 0x6
 7257 020f 40       		.uleb128 0x40
 7258 0210 18       		.uleb128 0x18
 7259 0211 9642     		.uleb128 0x2116
 7260 0213 19       		.uleb128 0x19
 7261 0214 01       		.uleb128 0x1
 7262 0215 13       		.uleb128 0x13
 7263 0216 00       		.byte	0
 7264 0217 00       		.byte	0
 7265 0218 28       		.uleb128 0x28
 7266 0219 0B       		.uleb128 0xb
 7267 021a 01       		.byte	0x1
 7268 021b 11       		.uleb128 0x11
 7269 021c 01       		.uleb128 0x1
 7270 021d 12       		.uleb128 0x12
 7271 021e 06       		.uleb128 0x6
 7272 021f 00       		.byte	0
 7273 0220 00       		.byte	0
 7274 0221 29       		.uleb128 0x29
 7275 0222 2E       		.uleb128 0x2e
 7276 0223 01       		.byte	0x1
 7277 0224 03       		.uleb128 0x3
 7278 0225 0E       		.uleb128 0xe
 7279 0226 3A       		.uleb128 0x3a
 7280 0227 0B       		.uleb128 0xb
 7281 0228 3B       		.uleb128 0x3b
 7282 0229 05       		.uleb128 0x5
 7283 022a 27       		.uleb128 0x27
 7284 022b 19       		.uleb128 0x19
 7285 022c 49       		.uleb128 0x49
 7286 022d 13       		.uleb128 0x13
 7287 022e 11       		.uleb128 0x11
 7288 022f 01       		.uleb128 0x1
 7289 0230 12       		.uleb128 0x12
 7290 0231 06       		.uleb128 0x6
 7291 0232 40       		.uleb128 0x40
 7292 0233 18       		.uleb128 0x18
 7293 0234 9642     		.uleb128 0x2116
 7294 0236 19       		.uleb128 0x19
 7295 0237 01       		.uleb128 0x1
 7296 0238 13       		.uleb128 0x13
 7297 0239 00       		.byte	0
 7298 023a 00       		.byte	0
 7299 023b 2A       		.uleb128 0x2a
 7300 023c 05       		.uleb128 0x5
 7301 023d 00       		.byte	0
 7302 023e 03       		.uleb128 0x3
 7303 023f 08       		.uleb128 0x8
ARM GAS  C:\Users\Luis\AppData\Local\Temp\cc4eIE9x.s 			page 131


 7304 0240 3A       		.uleb128 0x3a
 7305 0241 0B       		.uleb128 0xb
 7306 0242 3B       		.uleb128 0x3b
 7307 0243 05       		.uleb128 0x5
 7308 0244 49       		.uleb128 0x49
 7309 0245 13       		.uleb128 0x13
 7310 0246 02       		.uleb128 0x2
 7311 0247 18       		.uleb128 0x18
 7312 0248 00       		.byte	0
 7313 0249 00       		.byte	0
 7314 024a 2B       		.uleb128 0x2b
 7315 024b 2E       		.uleb128 0x2e
 7316 024c 01       		.byte	0x1
 7317 024d 3F       		.uleb128 0x3f
 7318 024e 19       		.uleb128 0x19
 7319 024f 03       		.uleb128 0x3
 7320 0250 0E       		.uleb128 0xe
 7321 0251 3A       		.uleb128 0x3a
 7322 0252 0B       		.uleb128 0xb
 7323 0253 3B       		.uleb128 0x3b
 7324 0254 05       		.uleb128 0x5
 7325 0255 27       		.uleb128 0x27
 7326 0256 19       		.uleb128 0x19
 7327 0257 49       		.uleb128 0x49
 7328 0258 13       		.uleb128 0x13
 7329 0259 11       		.uleb128 0x11
 7330 025a 01       		.uleb128 0x1
 7331 025b 12       		.uleb128 0x12
 7332 025c 06       		.uleb128 0x6
 7333 025d 40       		.uleb128 0x40
 7334 025e 18       		.uleb128 0x18
 7335 025f 9642     		.uleb128 0x2116
 7336 0261 19       		.uleb128 0x19
 7337 0262 01       		.uleb128 0x1
 7338 0263 13       		.uleb128 0x13
 7339 0264 00       		.byte	0
 7340 0265 00       		.byte	0
 7341 0266 2C       		.uleb128 0x2c
 7342 0267 34       		.uleb128 0x34
 7343 0268 00       		.byte	0
 7344 0269 03       		.uleb128 0x3
 7345 026a 0E       		.uleb128 0xe
 7346 026b 3A       		.uleb128 0x3a
 7347 026c 0B       		.uleb128 0xb
 7348 026d 3B       		.uleb128 0x3b
 7349 026e 05       		.uleb128 0x5
 7350 026f 49       		.uleb128 0x49
 7351 0270 13       		.uleb128 0x13
 7352 0271 02       		.uleb128 0x2
 7353 0272 18       		.uleb128 0x18
 7354 0273 00       		.byte	0
 7355 0274 00       		.byte	0
 7356 0275 2D       		.uleb128 0x2d
 7357 0276 34       		.uleb128 0x34
 7358 0277 00       		.byte	0
 7359 0278 03       		.uleb128 0x3
 7360 0279 08       		.uleb128 0x8
ARM GAS  C:\Users\Luis\AppData\Local\Temp\cc4eIE9x.s 			page 132


 7361 027a 3A       		.uleb128 0x3a
 7362 027b 0B       		.uleb128 0xb
 7363 027c 3B       		.uleb128 0x3b
 7364 027d 05       		.uleb128 0x5
 7365 027e 49       		.uleb128 0x49
 7366 027f 13       		.uleb128 0x13
 7367 0280 02       		.uleb128 0x2
 7368 0281 18       		.uleb128 0x18
 7369 0282 00       		.byte	0
 7370 0283 00       		.byte	0
 7371 0284 2E       		.uleb128 0x2e
 7372 0285 0A       		.uleb128 0xa
 7373 0286 00       		.byte	0
 7374 0287 03       		.uleb128 0x3
 7375 0288 0E       		.uleb128 0xe
 7376 0289 3A       		.uleb128 0x3a
 7377 028a 0B       		.uleb128 0xb
 7378 028b 3B       		.uleb128 0x3b
 7379 028c 05       		.uleb128 0x5
 7380 028d 11       		.uleb128 0x11
 7381 028e 01       		.uleb128 0x1
 7382 028f 00       		.byte	0
 7383 0290 00       		.byte	0
 7384 0291 2F       		.uleb128 0x2f
 7385 0292 0B       		.uleb128 0xb
 7386 0293 01       		.byte	0x1
 7387 0294 11       		.uleb128 0x11
 7388 0295 01       		.uleb128 0x1
 7389 0296 12       		.uleb128 0x12
 7390 0297 06       		.uleb128 0x6
 7391 0298 01       		.uleb128 0x1
 7392 0299 13       		.uleb128 0x13
 7393 029a 00       		.byte	0
 7394 029b 00       		.byte	0
 7395 029c 30       		.uleb128 0x30
 7396 029d 26       		.uleb128 0x26
 7397 029e 00       		.byte	0
 7398 029f 00       		.byte	0
 7399 02a0 00       		.byte	0
 7400 02a1 31       		.uleb128 0x31
 7401 02a2 2E       		.uleb128 0x2e
 7402 02a3 01       		.byte	0x1
 7403 02a4 3F       		.uleb128 0x3f
 7404 02a5 19       		.uleb128 0x19
 7405 02a6 03       		.uleb128 0x3
 7406 02a7 0E       		.uleb128 0xe
 7407 02a8 3A       		.uleb128 0x3a
 7408 02a9 0B       		.uleb128 0xb
 7409 02aa 3B       		.uleb128 0x3b
 7410 02ab 05       		.uleb128 0x5
 7411 02ac 27       		.uleb128 0x27
 7412 02ad 19       		.uleb128 0x19
 7413 02ae 11       		.uleb128 0x11
 7414 02af 01       		.uleb128 0x1
 7415 02b0 12       		.uleb128 0x12
 7416 02b1 06       		.uleb128 0x6
 7417 02b2 40       		.uleb128 0x40
ARM GAS  C:\Users\Luis\AppData\Local\Temp\cc4eIE9x.s 			page 133


 7418 02b3 18       		.uleb128 0x18
 7419 02b4 9642     		.uleb128 0x2116
 7420 02b6 19       		.uleb128 0x19
 7421 02b7 01       		.uleb128 0x1
 7422 02b8 13       		.uleb128 0x13
 7423 02b9 00       		.byte	0
 7424 02ba 00       		.byte	0
 7425 02bb 32       		.uleb128 0x32
 7426 02bc 34       		.uleb128 0x34
 7427 02bd 00       		.byte	0
 7428 02be 03       		.uleb128 0x3
 7429 02bf 0E       		.uleb128 0xe
 7430 02c0 3A       		.uleb128 0x3a
 7431 02c1 0B       		.uleb128 0xb
 7432 02c2 3B       		.uleb128 0x3b
 7433 02c3 05       		.uleb128 0x5
 7434 02c4 49       		.uleb128 0x49
 7435 02c5 13       		.uleb128 0x13
 7436 02c6 3F       		.uleb128 0x3f
 7437 02c7 19       		.uleb128 0x19
 7438 02c8 3C       		.uleb128 0x3c
 7439 02c9 19       		.uleb128 0x19
 7440 02ca 00       		.byte	0
 7441 02cb 00       		.byte	0
 7442 02cc 33       		.uleb128 0x33
 7443 02cd 34       		.uleb128 0x34
 7444 02ce 00       		.byte	0
 7445 02cf 03       		.uleb128 0x3
 7446 02d0 08       		.uleb128 0x8
 7447 02d1 3A       		.uleb128 0x3a
 7448 02d2 0B       		.uleb128 0xb
 7449 02d3 3B       		.uleb128 0x3b
 7450 02d4 05       		.uleb128 0x5
 7451 02d5 49       		.uleb128 0x49
 7452 02d6 13       		.uleb128 0x13
 7453 02d7 3F       		.uleb128 0x3f
 7454 02d8 19       		.uleb128 0x19
 7455 02d9 3C       		.uleb128 0x3c
 7456 02da 19       		.uleb128 0x19
 7457 02db 00       		.byte	0
 7458 02dc 00       		.byte	0
 7459 02dd 34       		.uleb128 0x34
 7460 02de 34       		.uleb128 0x34
 7461 02df 00       		.byte	0
 7462 02e0 03       		.uleb128 0x3
 7463 02e1 0E       		.uleb128 0xe
 7464 02e2 3A       		.uleb128 0x3a
 7465 02e3 0B       		.uleb128 0xb
 7466 02e4 3B       		.uleb128 0x3b
 7467 02e5 0B       		.uleb128 0xb
 7468 02e6 49       		.uleb128 0x49
 7469 02e7 13       		.uleb128 0x13
 7470 02e8 3F       		.uleb128 0x3f
 7471 02e9 19       		.uleb128 0x19
 7472 02ea 3C       		.uleb128 0x3c
 7473 02eb 19       		.uleb128 0x19
 7474 02ec 00       		.byte	0
ARM GAS  C:\Users\Luis\AppData\Local\Temp\cc4eIE9x.s 			page 134


 7475 02ed 00       		.byte	0
 7476 02ee 00       		.byte	0
 7477              		.section	.debug_aranges,"",%progbits
 7478 0000 9C000000 		.4byte	0x9c
 7479 0004 0200     		.2byte	0x2
 7480 0006 00000000 		.4byte	.Ldebug_info0
 7481 000a 04       		.byte	0x4
 7482 000b 00       		.byte	0
 7483 000c 0000     		.2byte	0
 7484 000e 0000     		.2byte	0
 7485 0010 00000000 		.4byte	.LFB230
 7486 0014 14000000 		.4byte	.LFE230-.LFB230
 7487 0018 00000000 		.4byte	.LFB260
 7488 001c E8000000 		.4byte	.LFE260-.LFB260
 7489 0020 00000000 		.4byte	.LFB261
 7490 0024 7E000000 		.4byte	.LFE261-.LFB261
 7491 0028 00000000 		.4byte	.LFB262
 7492 002c 18010000 		.4byte	.LFE262-.LFB262
 7493 0030 00000000 		.4byte	.LFB263
 7494 0034 B8000000 		.4byte	.LFE263-.LFB263
 7495 0038 00000000 		.4byte	.LFB264
 7496 003c E4000000 		.4byte	.LFE264-.LFB264
 7497 0040 00000000 		.4byte	.LFB265
 7498 0044 10050000 		.4byte	.LFE265-.LFB265
 7499 0048 00000000 		.4byte	.LFB266
 7500 004c 30020000 		.4byte	.LFE266-.LFB266
 7501 0050 00000000 		.4byte	.LFB267
 7502 0054 92000000 		.4byte	.LFE267-.LFB267
 7503 0058 00000000 		.4byte	.LFB268
 7504 005c CA020000 		.4byte	.LFE268-.LFB268
 7505 0060 00000000 		.4byte	.LFB269
 7506 0064 84010000 		.4byte	.LFE269-.LFB269
 7507 0068 00000000 		.4byte	.LFB270
 7508 006c F8000000 		.4byte	.LFE270-.LFB270
 7509 0070 00000000 		.4byte	.LFB271
 7510 0074 60000000 		.4byte	.LFE271-.LFB271
 7511 0078 00000000 		.4byte	.LFB272
 7512 007c 94000000 		.4byte	.LFE272-.LFB272
 7513 0080 00000000 		.4byte	.LFB273
 7514 0084 A4000000 		.4byte	.LFE273-.LFB273
 7515 0088 00000000 		.4byte	.LFB274
 7516 008c 88000000 		.4byte	.LFE274-.LFB274
 7517 0090 00000000 		.4byte	.LFB275
 7518 0094 20010000 		.4byte	.LFE275-.LFB275
 7519 0098 00000000 		.4byte	0
 7520 009c 00000000 		.4byte	0
 7521              		.section	.debug_ranges,"",%progbits
 7522              	.Ldebug_ranges0:
 7523 0000 00000000 		.4byte	.LFB230
 7524 0004 14000000 		.4byte	.LFE230
 7525 0008 00000000 		.4byte	.LFB260
 7526 000c E8000000 		.4byte	.LFE260
 7527 0010 00000000 		.4byte	.LFB261
 7528 0014 7E000000 		.4byte	.LFE261
 7529 0018 00000000 		.4byte	.LFB262
 7530 001c 18010000 		.4byte	.LFE262
 7531 0020 00000000 		.4byte	.LFB263
ARM GAS  C:\Users\Luis\AppData\Local\Temp\cc4eIE9x.s 			page 135


 7532 0024 B8000000 		.4byte	.LFE263
 7533 0028 00000000 		.4byte	.LFB264
 7534 002c E4000000 		.4byte	.LFE264
 7535 0030 00000000 		.4byte	.LFB265
 7536 0034 10050000 		.4byte	.LFE265
 7537 0038 00000000 		.4byte	.LFB266
 7538 003c 30020000 		.4byte	.LFE266
 7539 0040 00000000 		.4byte	.LFB267
 7540 0044 92000000 		.4byte	.LFE267
 7541 0048 00000000 		.4byte	.LFB268
 7542 004c CA020000 		.4byte	.LFE268
 7543 0050 00000000 		.4byte	.LFB269
 7544 0054 84010000 		.4byte	.LFE269
 7545 0058 00000000 		.4byte	.LFB270
 7546 005c F8000000 		.4byte	.LFE270
 7547 0060 00000000 		.4byte	.LFB271
 7548 0064 60000000 		.4byte	.LFE271
 7549 0068 00000000 		.4byte	.LFB272
 7550 006c 94000000 		.4byte	.LFE272
 7551 0070 00000000 		.4byte	.LFB273
 7552 0074 A4000000 		.4byte	.LFE273
 7553 0078 00000000 		.4byte	.LFB274
 7554 007c 88000000 		.4byte	.LFE274
 7555 0080 00000000 		.4byte	.LFB275
 7556 0084 20010000 		.4byte	.LFE275
 7557 0088 00000000 		.4byte	0
 7558 008c 00000000 		.4byte	0
 7559              		.section	.debug_line,"",%progbits
 7560              	.Ldebug_line0:
 7561 0000 BD070000 		.section	.debug_str,"MS",%progbits,1
 7561      0200A002 
 7561      00000201 
 7561      FB0E0D00 
 7561      01010101 
 7562              	.LASF52:
 7563 0000 74687265 		.ascii	"threads_queue_t\000"
 7563      6164735F 
 7563      71756575 
 7563      655F7400 
 7564              	.LASF296:
 7565 0010 7463705F 		.ascii	"tcp_write_checks\000"
 7565      77726974 
 7565      655F6368 
 7565      65636B73 
 7565      00
 7566              	.LASF256:
 7567 0021 73746174 		.ascii	"stats_proto\000"
 7567      735F7072 
 7567      6F746F00 
 7568              	.LASF164:
 7569 002d 6E616D65 		.ascii	"name\000"
 7569      00
 7570              	.LASF244:
 7571 0032 4D454D50 		.ascii	"MEMP_TCP_PCB_LISTEN\000"
 7571      5F544350 
 7571      5F504342 
 7571      5F4C4953 
ARM GAS  C:\Users\Luis\AppData\Local\Temp\cc4eIE9x.s 			page 136


 7571      54454E00 
 7572              	.LASF48:
 7573 0046 74687265 		.ascii	"thread_reference_t\000"
 7573      61645F72 
 7573      65666572 
 7573      656E6365 
 7573      5F7400
 7574              	.LASF322:
 7575 0059 7463705F 		.ascii	"tcp_keepalive\000"
 7575      6B656570 
 7575      616C6976 
 7575      6500
 7576              	.LASF172:
 7577 0067 736F5F6F 		.ascii	"so_options\000"
 7577      7074696F 
 7577      6E7300
 7578              	.LASF126:
 7579 0072 63686172 		.ascii	"char\000"
 7579      00
 7580              	.LASF159:
 7581 0077 6F757470 		.ascii	"output\000"
 7581      757400
 7582              	.LASF30:
 7583 007e 705F7072 		.ascii	"p_prio\000"
 7583      696F00
 7584              	.LASF292:
 7585 0085 6F766572 		.ascii	"oversize\000"
 7585      73697A65 
 7585      00
 7586              	.LASF143:
 7587 008e 50425546 		.ascii	"PBUF_RAM\000"
 7587      5F52414D 
 7587      00
 7588              	.LASF240:
 7589 0097 75726770 		.ascii	"urgp\000"
 7589      00
 7590              	.LASF306:
 7591 009c 756E7365 		.ascii	"unsent_optlen\000"
 7591      6E745F6F 
 7591      70746C65 
 7591      6E00
 7592              	.LASF178:
 7593 00aa 706F6C6C 		.ascii	"polltmr\000"
 7593      746D7200 
 7594              	.LASF168:
 7595 00b2 7463705F 		.ascii	"tcp_accept_fn\000"
 7595      61636365 
 7595      70745F66 
 7595      6E00
 7596              	.LASF152:
 7597 00c0 666C6167 		.ascii	"flags\000"
 7597      7300
 7598              	.LASF26:
 7599 00c6 73797374 		.ascii	"systime_t\000"
 7599      696D655F 
 7599      7400
 7600              	.LASF288:
ARM GAS  C:\Users\Luis\AppData\Local\Temp\cc4eIE9x.s 			page 137


 7601 00d0 7463705F 		.ascii	"tcp_pbuf_prealloc\000"
 7601      70627566 
 7601      5F707265 
 7601      616C6C6F 
 7601      6300
 7602              	.LASF124:
 7603 00e2 6D5F6F77 		.ascii	"m_owner\000"
 7603      6E657200 
 7604              	.LASF120:
 7605 00ea 735F7175 		.ascii	"s_queue\000"
 7605      65756500 
 7606              	.LASF231:
 7607 00f2 54494D45 		.ascii	"TIME_WAIT\000"
 7607      5F574149 
 7607      5400
 7608              	.LASF66:
 7609 00fc 76745F70 		.ascii	"vt_prev\000"
 7609      72657600 
 7610              	.LASF0:
 7611 0104 756E7369 		.ascii	"unsigned int\000"
 7611      676E6564 
 7611      20696E74 
 7611      00
 7612              	.LASF220:
 7613 0111 7463705F 		.ascii	"tcp_connected_fn\000"
 7613      636F6E6E 
 7613      65637465 
 7613      645F666E 
 7613      00
 7614              	.LASF148:
 7615 0122 6E657874 		.ascii	"next\000"
 7615      00
 7616              	.LASF205:
 7617 0127 6F6F7365 		.ascii	"ooseq\000"
 7617      7100
 7618              	.LASF110:
 7619 012d 6D5F6372 		.ascii	"m_crit_isr\000"
 7619      69745F69 
 7619      737200
 7620              	.LASF49:
 7621 0138 74687265 		.ascii	"threads_list_t\000"
 7621      6164735F 
 7621      6C697374 
 7621      5F7400
 7622              	.LASF137:
 7623 0147 6572725F 		.ascii	"err_t\000"
 7623      7400
 7624              	.LASF105:
 7625 014d 63756D75 		.ascii	"cumulative\000"
 7625      6C617469 
 7625      766500
 7626              	.LASF39:
 7627 0158 705F7761 		.ascii	"p_waiting\000"
 7627      6974696E 
 7627      6700
 7628              	.LASF94:
 7629 0162 73655F73 		.ascii	"se_state\000"
ARM GAS  C:\Users\Luis\AppData\Local\Temp\cc4eIE9x.s 			page 138


 7629      74617465 
 7629      00
 7630              	.LASF131:
 7631 016b 7531365F 		.ascii	"u16_t\000"
 7631      7400
 7632              	.LASF329:
 7633 0171 474E5520 		.ascii	"GNU C 4.8.3 20131129 (release) [ARM/embedded-4_8-br"
 7633      4320342E 
 7633      382E3320 
 7633      32303133 
 7633      31313239 
 7634 01a4 616E6368 		.ascii	"anch revision 205641] -mcpu=cortex-m4 -mapcs-frame "
 7634      20726576 
 7634      6973696F 
 7634      6E203230 
 7634      35363431 
 7635 01d7 2D6D6E6F 		.ascii	"-mno-thumb-interwork -mthumb -ggdb -O0 -falign-func"
 7635      2D746875 
 7635      6D622D69 
 7635      6E746572 
 7635      776F726B 
 7636 020a 74696F6E 		.ascii	"tions=16 -ffunction-sections -fdata-sections -fno-c"
 7636      733D3136 
 7636      202D6666 
 7636      756E6374 
 7636      696F6E2D 
 7637 023d 6F6D6D6F 		.ascii	"ommon\000"
 7637      6E00
 7638              	.LASF82:
 7639 0243 76746C69 		.ascii	"vtlist\000"
 7639      737400
 7640              	.LASF184:
 7641 024a 7263765F 		.ascii	"rcv_ann_right_edge\000"
 7641      616E6E5F 
 7641      72696768 
 7641      745F6564 
 7641      676500
 7642              	.LASF55:
 7643 025d 63685F72 		.ascii	"ch_ready_list\000"
 7643      65616479 
 7643      5F6C6973 
 7643      7400
 7644              	.LASF303:
 7645 026b 6F766572 		.ascii	"oversize_used\000"
 7645      73697A65 
 7645      5F757365 
 7645      6400
 7646              	.LASF266:
 7647 0279 73746174 		.ascii	"stats_mem\000"
 7647      735F6D65 
 7647      6D00
 7648              	.LASF118:
 7649 0283 65776D61 		.ascii	"ewmask\000"
 7649      736B00
 7650              	.LASF166:
 7651 028a 6E657469 		.ascii	"netif_output_fn\000"
 7651      665F6F75 
ARM GAS  C:\Users\Luis\AppData\Local\Temp\cc4eIE9x.s 			page 139


 7651      74707574 
 7651      5F666E00 
 7652              	.LASF215:
 7653 029a 6B656570 		.ascii	"keep_cnt_sent\000"
 7653      5F636E74 
 7653      5F73656E 
 7653      7400
 7654              	.LASF254:
 7655 02a8 4D454D50 		.ascii	"MEMP_PBUF_POOL\000"
 7655      5F504255 
 7655      465F504F 
 7655      4F4C00
 7656              	.LASF328:
 7657 02b7 6C776970 		.ascii	"lwip_stats\000"
 7657      5F737461 
 7657      747300
 7658              	.LASF217:
 7659 02c2 7463705F 		.ascii	"tcp_sent_fn\000"
 7659      73656E74 
 7659      5F666E00 
 7660              	.LASF62:
 7661 02ce 76746675 		.ascii	"vtfunc_t\000"
 7661      6E635F74 
 7661      00
 7662              	.LASF114:
 7663 02d7 77746F62 		.ascii	"wtobjp\000"
 7663      6A7000
 7664              	.LASF74:
 7665 02de 63685F73 		.ascii	"ch_system_debug\000"
 7665      79737465 
 7665      6D5F6465 
 7665      62756700 
 7666              	.LASF121:
 7667 02ee 735F636E 		.ascii	"s_cnt\000"
 7667      7400
 7668              	.LASF138:
 7669 02f4 50425546 		.ascii	"PBUF_TRANSPORT\000"
 7669      5F545241 
 7669      4E53504F 
 7669      525400
 7670              	.LASF270:
 7671 0303 73746174 		.ascii	"stats_syselem\000"
 7671      735F7379 
 7671      73656C65 
 7671      6D00
 7672              	.LASF236:
 7673 0311 7365716E 		.ascii	"seqno\000"
 7673      6F00
 7674              	.LASF165:
 7675 0317 6E657469 		.ascii	"netif_input_fn\000"
 7675      665F696E 
 7675      7075745F 
 7675      666E00
 7676              	.LASF11:
 7677 0326 75696E74 		.ascii	"uint32_t\000"
 7677      33325F74 
 7677      00
ARM GAS  C:\Users\Luis\AppData\Local\Temp\cc4eIE9x.s 			page 140


 7678              	.LASF249:
 7679 032f 4D454D50 		.ascii	"MEMP_NETCONN\000"
 7679      5F4E4554 
 7679      434F4E4E 
 7679      00
 7680              	.LASF191:
 7681 033c 63776E64 		.ascii	"cwnd\000"
 7681      00
 7682              	.LASF111:
 7683 0341 6B65726E 		.ascii	"kernel_stats_t\000"
 7683      656C5F73 
 7683      74617473 
 7683      5F7400
 7684              	.LASF23:
 7685 0350 6576656E 		.ascii	"eventmask_t\000"
 7685      746D6173 
 7685      6B5F7400 
 7686              	.LASF57:
 7687 035c 725F7072 		.ascii	"r_prio\000"
 7687      696F00
 7688              	.LASF174:
 7689 0363 61636365 		.ascii	"accept\000"
 7689      707400
 7690              	.LASF84:
 7691 036a 6B65726E 		.ascii	"kernel_stats\000"
 7691      656C5F73 
 7691      74617473 
 7691      00
 7692              	.LASF250:
 7693 0377 4D454D50 		.ascii	"MEMP_TCPIP_MSG_API\000"
 7693      5F544350 
 7693      49505F4D 
 7693      53475F41 
 7693      504900
 7694              	.LASF264:
 7695 038a 6F707465 		.ascii	"opterr\000"
 7695      727200
 7696              	.LASF176:
 7697 0391 6C6F6361 		.ascii	"local_port\000"
 7697      6C5F706F 
 7697      727400
 7698              	.LASF272:
 7699 039c 6D757465 		.ascii	"mutex\000"
 7699      7800
 7700              	.LASF277:
 7701 03a2 69705F66 		.ascii	"ip_frag\000"
 7701      72616700 
 7702              	.LASF119:
 7703 03aa 63685F73 		.ascii	"ch_semaphore\000"
 7703      656D6170 
 7703      686F7265 
 7703      00
 7704              	.LASF21:
 7705 03b7 74707269 		.ascii	"tprio_t\000"
 7705      6F5F7400 
 7706              	.LASF64:
 7707 03bf 63685F76 		.ascii	"ch_virtual_timer\000"
ARM GAS  C:\Users\Luis\AppData\Local\Temp\cc4eIE9x.s 			page 141


 7707      69727475 
 7707      616C5F74 
 7707      696D6572 
 7707      00
 7708              	.LASF5:
 7709 03d0 696E7431 		.ascii	"int16_t\000"
 7709      365F7400 
 7710              	.LASF330:
 7711 03d8 2E2E2F2E 		.ascii	"../../ChibiOS/ext/lwip/src/core/tcp_out.c\000"
 7711      2E2F4368 
 7711      6962694F 
 7711      532F6578 
 7711      742F6C77 
 7712              	.LASF324:
 7713 0402 69735F66 		.ascii	"is_fin\000"
 7713      696E00
 7714              	.LASF163:
 7715 0409 68776164 		.ascii	"hwaddr\000"
 7715      647200
 7716              	.LASF276:
 7717 0410 65746861 		.ascii	"etharp\000"
 7717      727000
 7718              	.LASF232:
 7719 0417 7463705F 		.ascii	"tcp_seg\000"
 7719      73656700 
 7720              	.LASF15:
 7721 041f 6C6F6E67 		.ascii	"long long unsigned int\000"
 7721      206C6F6E 
 7721      6720756E 
 7721      7369676E 
 7721      65642069 
 7722              	.LASF93:
 7723 0436 73655F77 		.ascii	"se_wtobjp\000"
 7723      746F626A 
 7723      7000
 7724              	.LASF100:
 7725 0440 6F666673 		.ascii	"offset\000"
 7725      657400
 7726              	.LASF280:
 7727 0447 72656173 		.ascii	"reason\000"
 7727      6F6E00
 7728              	.LASF78:
 7729 044e 74726163 		.ascii	"trace_buffer\000"
 7729      655F6275 
 7729      66666572 
 7729      00
 7730              	.LASF319:
 7731 045b 7463705F 		.ascii	"tcp_rexmit_rto\000"
 7731      7265786D 
 7731      69745F72 
 7731      746F00
 7732              	.LASF187:
 7733 046a 72747365 		.ascii	"rtseq\000"
 7733      7100
 7734              	.LASF24:
 7735 0470 636E745F 		.ascii	"cnt_t\000"
 7735      7400
ARM GAS  C:\Users\Luis\AppData\Local\Temp\cc4eIE9x.s 			page 142


 7736              	.LASF185:
 7737 0476 7274696D 		.ascii	"rtime\000"
 7737      6500
 7738              	.LASF76:
 7739 047c 6973725F 		.ascii	"isr_cnt\000"
 7739      636E7400 
 7740              	.LASF103:
 7741 0484 776F7273 		.ascii	"worst\000"
 7741      7400
 7742              	.LASF32:
 7743 048a 705F6E65 		.ascii	"p_newer\000"
 7743      77657200 
 7744              	.LASF71:
 7745 0492 63685F76 		.ascii	"ch_virtual_timers_list\000"
 7745      69727475 
 7745      616C5F74 
 7745      696D6572 
 7745      735F6C69 
 7746              	.LASF67:
 7747 04a9 76745F64 		.ascii	"vt_delta\000"
 7747      656C7461 
 7747      00
 7748              	.LASF181:
 7749 04b2 7263765F 		.ascii	"rcv_nxt\000"
 7749      6E787400 
 7750              	.LASF251:
 7751 04ba 4D454D50 		.ascii	"MEMP_TCPIP_MSG_INPKT\000"
 7751      5F544350 
 7751      49505F4D 
 7751      53475F49 
 7751      4E504B54 
 7752              	.LASF204:
 7753 04cf 756E6163 		.ascii	"unacked\000"
 7753      6B656400 
 7754              	.LASF311:
 7755 04d7 75736567 		.ascii	"useg\000"
 7755      00
 7756              	.LASF274:
 7757 04dc 73746174 		.ascii	"stats_\000"
 7757      735F00
 7758              	.LASF27:
 7759 04e3 74687265 		.ascii	"thread_t\000"
 7759      61645F74 
 7759      00
 7760              	.LASF28:
 7761 04ec 705F6E65 		.ascii	"p_next\000"
 7761      787400
 7762              	.LASF326:
 7763 04f3 7463705F 		.ascii	"tcp_input_pcb\000"
 7763      696E7075 
 7763      745F7063 
 7763      6200
 7764              	.LASF150:
 7765 0501 746F745F 		.ascii	"tot_len\000"
 7765      6C656E00 
 7766              	.LASF112:
 7767 0509 7264796D 		.ascii	"rdymsg\000"
ARM GAS  C:\Users\Luis\AppData\Local\Temp\cc4eIE9x.s 			page 143


 7767      736700
 7768              	.LASF149:
 7769 0510 7061796C 		.ascii	"payload\000"
 7769      6F616400 
 7770              	.LASF139:
 7771 0518 50425546 		.ascii	"PBUF_IP\000"
 7771      5F495000 
 7772              	.LASF209:
 7773 0520 636F6E6E 		.ascii	"connected\000"
 7773      65637465 
 7773      6400
 7774              	.LASF316:
 7775 052a 7463705F 		.ascii	"tcp_output_segment\000"
 7775      6F757470 
 7775      75745F73 
 7775      65676D65 
 7775      6E7400
 7776              	.LASF128:
 7777 053d 5F426F6F 		.ascii	"_Bool\000"
 7777      6C00
 7778              	.LASF261:
 7779 0543 6D656D65 		.ascii	"memerr\000"
 7779      727200
 7780              	.LASF331:
 7781 054a 433A5C55 		.ascii	"C:\\Users\\Luis\\git\\DSP-Library-Lanin\\examples\\"
 7781      73657273 
 7781      5C4C7569 
 7781      735C6769 
 7781      745C4453 
 7782 0577 53544D33 		.ascii	"STM32F407_EMTECH-LWIP\000"
 7782      32463430 
 7782      375F454D 
 7782      54454348 
 7782      2D4C5749 
 7783              	.LASF146:
 7784 058d 50425546 		.ascii	"PBUF_POOL\000"
 7784      5F504F4F 
 7784      4C00
 7785              	.LASF229:
 7786 0597 434C4F53 		.ascii	"CLOSING\000"
 7786      494E4700 
 7787              	.LASF294:
 7788 059f 66697273 		.ascii	"first_seg\000"
 7788      745F7365 
 7788      6700
 7789              	.LASF122:
 7790 05a9 63685F6D 		.ascii	"ch_mutex\000"
 7790      75746578 
 7790      00
 7791              	.LASF190:
 7792 05b2 6C617374 		.ascii	"lastack\000"
 7792      61636B00 
 7793              	.LASF255:
 7794 05ba 4D454D50 		.ascii	"MEMP_MAX\000"
 7794      5F4D4158 
 7794      00
 7795              	.LASF130:
ARM GAS  C:\Users\Luis\AppData\Local\Temp\cc4eIE9x.s 			page 144


 7796 05c3 73385F74 		.ascii	"s8_t\000"
 7796      00
 7797              	.LASF134:
 7798 05c8 7333325F 		.ascii	"s32_t\000"
 7798      7400
 7799              	.LASF104:
 7800 05ce 6C617374 		.ascii	"last\000"
 7800      00
 7801              	.LASF313:
 7802 05d3 7463705F 		.ascii	"tcp_output\000"
 7802      6F757470 
 7802      757400
 7803              	.LASF275:
 7804 05de 6C696E6B 		.ascii	"link\000"
 7804      00
 7805              	.LASF106:
 7806 05e3 74696D65 		.ascii	"time_measurement_t\000"
 7806      5F6D6561 
 7806      73757265 
 7806      6D656E74 
 7806      5F7400
 7807              	.LASF2:
 7808 05f6 696E7438 		.ascii	"int8_t\000"
 7808      5F7400
 7809              	.LASF34:
 7810 05fd 705F6E61 		.ascii	"p_name\000"
 7810      6D6500
 7811              	.LASF189:
 7812 0604 64757061 		.ascii	"dupacks\000"
 7812      636B7300 
 7813              	.LASF175:
 7814 060c 7072696F 		.ascii	"prio\000"
 7814      00
 7815              	.LASF179:
 7816 0611 706F6C6C 		.ascii	"pollinterval\000"
 7816      696E7465 
 7816      7276616C 
 7816      00
 7817              	.LASF253:
 7818 061e 4D454D50 		.ascii	"MEMP_PBUF\000"
 7818      5F504255 
 7818      4600
 7819              	.LASF210:
 7820 0628 706F6C6C 		.ascii	"poll\000"
 7820      00
 7821              	.LASF51:
 7822 062d 63685F74 		.ascii	"ch_threads_list\000"
 7822      68726561 
 7822      64735F6C 
 7822      69737400 
 7823              	.LASF282:
 7824 063d 64617461 		.ascii	"datalen\000"
 7824      6C656E00 
 7825              	.LASF269:
 7826 0645 696C6C65 		.ascii	"illegal\000"
 7826      67616C00 
 7827              	.LASF284:
ARM GAS  C:\Users\Luis\AppData\Local\Temp\cc4eIE9x.s 			page 145


 7828 064d 6C617374 		.ascii	"last_unsent\000"
 7828      5F756E73 
 7828      656E7400 
 7829              	.LASF136:
 7830 0659 6D656D5F 		.ascii	"mem_size_t\000"
 7830      73697A65 
 7830      5F7400
 7831              	.LASF194:
 7832 0664 736E645F 		.ascii	"snd_wl1\000"
 7832      776C3100 
 7833              	.LASF17:
 7834 066c 72747469 		.ascii	"rttime_t\000"
 7834      6D655F74 
 7834      00
 7835              	.LASF72:
 7836 0675 76745F6C 		.ascii	"vt_lasttime\000"
 7836      61737474 
 7836      696D6500 
 7837              	.LASF199:
 7838 0681 61636B65 		.ascii	"acked\000"
 7838      6400
 7839              	.LASF228:
 7840 0687 434C4F53 		.ascii	"CLOSE_WAIT\000"
 7840      455F5741 
 7840      495400
 7841              	.LASF19:
 7842 0692 74737461 		.ascii	"tstate_t\000"
 7842      74655F74 
 7842      00
 7843              	.LASF92:
 7844 069b 73655F74 		.ascii	"se_tp\000"
 7844      7000
 7845              	.LASF13:
 7846 06a1 6C6F6E67 		.ascii	"long long int\000"
 7846      206C6F6E 
 7846      6720696E 
 7846      7400
 7847              	.LASF33:
 7848 06af 705F6F6C 		.ascii	"p_older\000"
 7848      64657200 
 7849              	.LASF91:
 7850 06b7 73655F74 		.ascii	"se_time\000"
 7850      696D6500 
 7851              	.LASF305:
 7852 06bf 73706163 		.ascii	"space\000"
 7852      6500
 7853              	.LASF35:
 7854 06c5 705F7374 		.ascii	"p_stklimit\000"
 7854      6B6C696D 
 7854      697400
 7855              	.LASF207:
 7856 06d0 73656E74 		.ascii	"sent\000"
 7856      00
 7857              	.LASF3:
 7858 06d5 75696E74 		.ascii	"uint8_t\000"
 7858      385F7400 
 7859              	.LASF151:
ARM GAS  C:\Users\Luis\AppData\Local\Temp\cc4eIE9x.s 			page 146


 7860 06dd 74797065 		.ascii	"type\000"
 7860      00
 7861              	.LASF195:
 7862 06e2 736E645F 		.ascii	"snd_wl2\000"
 7862      776C3200 
 7863              	.LASF46:
 7864 06ea 705F7374 		.ascii	"p_stats\000"
 7864      61747300 
 7865              	.LASF45:
 7866 06f2 705F6D70 		.ascii	"p_mpool\000"
 7866      6F6F6C00 
 7867              	.LASF43:
 7868 06fa 705F6D74 		.ascii	"p_mtxlist\000"
 7868      786C6973 
 7868      7400
 7869              	.LASF219:
 7870 0704 7463705F 		.ascii	"tcp_err_fn\000"
 7870      6572725F 
 7870      666E00
 7871              	.LASF36:
 7872 070f 705F7374 		.ascii	"p_state\000"
 7872      61746500 
 7873              	.LASF50:
 7874 0717 63685F74 		.ascii	"ch_thread\000"
 7874      68726561 
 7874      6400
 7875              	.LASF96:
 7876 0721 74625F73 		.ascii	"tb_size\000"
 7876      697A6500 
 7877              	.LASF87:
 7878 0729 72656761 		.ascii	"regarm_t\000"
 7878      726D5F74 
 7878      00
 7879              	.LASF196:
 7880 0732 736E645F 		.ascii	"snd_lbb\000"
 7880      6C626200 
 7881              	.LASF73:
 7882 073a 73797374 		.ascii	"system_debug_t\000"
 7882      656D5F64 
 7882      65627567 
 7882      5F7400
 7883              	.LASF248:
 7884 0749 4D454D50 		.ascii	"MEMP_NETBUF\000"
 7884      5F4E4554 
 7884      42554600 
 7885              	.LASF157:
 7886 0755 6E65746D 		.ascii	"netmask\000"
 7886      61736B00 
 7887              	.LASF53:
 7888 075d 63685F74 		.ascii	"ch_threads_queue\000"
 7888      68726561 
 7888      64735F71 
 7888      75657565 
 7888      00
 7889              	.LASF237:
 7890 076e 61636B6E 		.ascii	"ackno\000"
 7890      6F00
ARM GAS  C:\Users\Luis\AppData\Local\Temp\cc4eIE9x.s 			page 147


 7891              	.LASF56:
 7892 0774 725F7175 		.ascii	"r_queue\000"
 7892      65756500 
 7893              	.LASF214:
 7894 077c 70657273 		.ascii	"persist_backoff\000"
 7894      6973745F 
 7894      6261636B 
 7894      6F666600 
 7895              	.LASF59:
 7896 078c 725F6E65 		.ascii	"r_newer\000"
 7896      77657200 
 7897              	.LASF22:
 7898 0794 6D73675F 		.ascii	"msg_t\000"
 7898      7400
 7899              	.LASF243:
 7900 079a 4D454D50 		.ascii	"MEMP_TCP_PCB\000"
 7900      5F544350 
 7900      5F504342 
 7900      00
 7901              	.LASF129:
 7902 07a7 75385F74 		.ascii	"u8_t\000"
 7902      00
 7903              	.LASF37:
 7904 07ac 705F666C 		.ascii	"p_flags\000"
 7904      61677300 
 7905              	.LASF289:
 7906 07b4 6C617965 		.ascii	"layer\000"
 7906      7200
 7907              	.LASF63:
 7908 07ba 76697274 		.ascii	"virtual_timer_t\000"
 7908      75616C5F 
 7908      74696D65 
 7908      725F7400 
 7909              	.LASF315:
 7910 07ca 6F73616C 		.ascii	"osalSysHalt\000"
 7910      53797348 
 7910      616C7400 
 7911              	.LASF287:
 7912 07d6 6F707466 		.ascii	"optflags\000"
 7912      6C616773 
 7912      00
 7913              	.LASF177:
 7914 07df 72656D6F 		.ascii	"remote_port\000"
 7914      74655F70 
 7914      6F727400 
 7915              	.LASF98:
 7916 07eb 74625F62 		.ascii	"tb_buffer\000"
 7916      75666665 
 7916      7200
 7917              	.LASF268:
 7918 07f5 75736564 		.ascii	"used\000"
 7918      00
 7919              	.LASF309:
 7920 07fa 6D61785F 		.ascii	"max_len\000"
 7920      6C656E00 
 7921              	.LASF97:
 7922 0802 74625F70 		.ascii	"tb_ptr\000"
ARM GAS  C:\Users\Luis\AppData\Local\Temp\cc4eIE9x.s 			page 148


 7922      747200
 7923              	.LASF183:
 7924 0809 7263765F 		.ascii	"rcv_ann_wnd\000"
 7924      616E6E5F 
 7924      776E6400 
 7925              	.LASF259:
 7926 0815 63686B65 		.ascii	"chkerr\000"
 7926      727200
 7927              	.LASF60:
 7928 081c 725F6F6C 		.ascii	"r_older\000"
 7928      64657200 
 7929              	.LASF246:
 7930 0824 4D454D50 		.ascii	"MEMP_REASSDATA\000"
 7930      5F524541 
 7930      53534441 
 7930      544100
 7931              	.LASF108:
 7932 0833 6E5F6374 		.ascii	"n_ctxswc\000"
 7932      78737763 
 7932      00
 7933              	.LASF216:
 7934 083c 7463705F 		.ascii	"tcp_recv_fn\000"
 7934      72656376 
 7934      5F666E00 
 7935              	.LASF158:
 7936 0848 696E7075 		.ascii	"input\000"
 7936      7400
 7937              	.LASF140:
 7938 084e 50425546 		.ascii	"PBUF_LINK\000"
 7938      5F4C494E 
 7938      4B00
 7939              	.LASF89:
 7940 0858 636F6E74 		.ascii	"context\000"
 7940      65787400 
 7941              	.LASF41:
 7942 0860 705F6D73 		.ascii	"p_msg\000"
 7942      6700
 7943              	.LASF101:
 7944 0866 746D5F63 		.ascii	"tm_calibration_t\000"
 7944      616C6962 
 7944      72617469 
 7944      6F6E5F74 
 7944      00
 7945              	.LASF18:
 7946 0877 746D6F64 		.ascii	"tmode_t\000"
 7946      655F7400 
 7947              	.LASF25:
 7948 087f 75636E74 		.ascii	"ucnt_t\000"
 7948      5F7400
 7949              	.LASF83:
 7950 0886 6D61696E 		.ascii	"mainthread\000"
 7950      74687265 
 7950      616400
 7951              	.LASF218:
 7952 0891 7463705F 		.ascii	"tcp_poll_fn\000"
 7952      706F6C6C 
 7952      5F666E00 
ARM GAS  C:\Users\Luis\AppData\Local\Temp\cc4eIE9x.s 			page 149


 7953              	.LASF162:
 7954 089d 68776164 		.ascii	"hwaddr_len\000"
 7954      64725F6C 
 7954      656E00
 7955              	.LASF320:
 7956 08a8 7463705F 		.ascii	"tcp_rexmit\000"
 7956      7265786D 
 7956      697400
 7957              	.LASF7:
 7958 08b3 75696E74 		.ascii	"uint16_t\000"
 7958      31365F74 
 7958      00
 7959              	.LASF297:
 7960 08bc 7463705F 		.ascii	"tcp_send_fin\000"
 7960      73656E64 
 7960      5F66696E 
 7960      00
 7961              	.LASF211:
 7962 08c9 65727266 		.ascii	"errf\000"
 7962      00
 7963              	.LASF141:
 7964 08ce 50425546 		.ascii	"PBUF_RAW\000"
 7964      5F524157 
 7964      00
 7965              	.LASF197:
 7966 08d7 736E645F 		.ascii	"snd_wnd\000"
 7966      776E6400 
 7967              	.LASF285:
 7968 08df 7463705F 		.ascii	"tcp_output_alloc_header\000"
 7968      6F757470 
 7968      75745F61 
 7968      6C6C6F63 
 7968      5F686561 
 7969              	.LASF332:
 7970 08f7 7463705F 		.ascii	"tcp_state\000"
 7970      73746174 
 7970      6500
 7971              	.LASF16:
 7972 0901 7274636E 		.ascii	"rtcnt_t\000"
 7972      745F7400 
 7973              	.LASF318:
 7974 0909 7463705F 		.ascii	"tcp_rst\000"
 7974      72737400 
 7975              	.LASF77:
 7976 0911 6C6F636B 		.ascii	"lock_cnt\000"
 7976      5F636E74 
 7976      00
 7977              	.LASF310:
 7978 091a 7463705F 		.ascii	"tcp_enqueue_flags\000"
 7978      656E7175 
 7978      6575655F 
 7978      666C6167 
 7978      7300
 7979              	.LASF107:
 7980 092c 6E5F6972 		.ascii	"n_irq\000"
 7980      7100
 7981              	.LASF241:
ARM GAS  C:\Users\Luis\AppData\Local\Temp\cc4eIE9x.s 			page 150


 7982 0932 4D454D50 		.ascii	"MEMP_RAW_PCB\000"
 7982      5F524157 
 7982      5F504342 
 7982      00
 7983              	.LASF291:
 7984 093f 6D61785F 		.ascii	"max_length\000"
 7984      6C656E67 
 7984      746800
 7985              	.LASF44:
 7986 094a 705F7265 		.ascii	"p_realprio\000"
 7986      616C7072 
 7986      696F00
 7987              	.LASF221:
 7988 0955 434C4F53 		.ascii	"CLOSED\000"
 7988      454400
 7989              	.LASF133:
 7990 095c 7533325F 		.ascii	"u32_t\000"
 7990      7400
 7991              	.LASF295:
 7992 0962 616C6C6F 		.ascii	"alloc\000"
 7992      6300
 7993              	.LASF6:
 7994 0968 73686F72 		.ascii	"short int\000"
 7994      7420696E 
 7994      7400
 7995              	.LASF278:
 7996 0972 69636D70 		.ascii	"icmp\000"
 7996      00
 7997              	.LASF61:
 7998 0977 725F6375 		.ascii	"r_current\000"
 7998      7272656E 
 7998      7400
 7999              	.LASF42:
 8000 0981 705F6570 		.ascii	"p_epending\000"
 8000      656E6469 
 8000      6E6700
 8001              	.LASF299:
 8002 098c 636F6E63 		.ascii	"concat_p\000"
 8002      61745F70 
 8002      00
 8003              	.LASF123:
 8004 0995 6D5F7175 		.ascii	"m_queue\000"
 8004      65756500 
 8005              	.LASF10:
 8006 099d 6C6F6E67 		.ascii	"long int\000"
 8006      20696E74 
 8006      00
 8007              	.LASF90:
 8008 09a6 706F7274 		.ascii	"port_intctx\000"
 8008      5F696E74 
 8008      63747800 
 8009              	.LASF262:
 8010 09b2 72746572 		.ascii	"rterr\000"
 8010      7200
 8011              	.LASF325:
 8012 09b8 49544D5F 		.ascii	"ITM_RxBuffer\000"
 8012      52784275 
ARM GAS  C:\Users\Luis\AppData\Local\Temp\cc4eIE9x.s 			page 151


 8012      66666572 
 8012      00
 8013              	.LASF267:
 8014 09c5 61766169 		.ascii	"avail\000"
 8014      6C00
 8015              	.LASF290:
 8016 09cb 6C656E67 		.ascii	"length\000"
 8016      746800
 8017              	.LASF203:
 8018 09d2 756E7365 		.ascii	"unsent\000"
 8018      6E7400
 8019              	.LASF182:
 8020 09d9 7263765F 		.ascii	"rcv_wnd\000"
 8020      776E6400 
 8021              	.LASF186:
 8022 09e1 72747465 		.ascii	"rttest\000"
 8022      737400
 8023              	.LASF312:
 8024 09e8 7463705F 		.ascii	"tcp_send_empty_ack\000"
 8024      73656E64 
 8024      5F656D70 
 8024      74795F61 
 8024      636B00
 8025              	.LASF80:
 8026 09fb 63685F73 		.ascii	"ch_system\000"
 8026      79737465 
 8026      6D00
 8027              	.LASF286:
 8028 0a05 7463705F 		.ascii	"tcp_create_segment\000"
 8028      63726561 
 8028      74655F73 
 8028      65676D65 
 8028      6E7400
 8029              	.LASF109:
 8030 0a18 6D5F6372 		.ascii	"m_crit_thd\000"
 8030      69745F74 
 8030      686400
 8031              	.LASF252:
 8032 0a23 4D454D50 		.ascii	"MEMP_SYS_TIMEOUT\000"
 8032      5F535953 
 8032      5F54494D 
 8032      454F5554 
 8032      00
 8033              	.LASF180:
 8034 0a34 6C617374 		.ascii	"last_timer\000"
 8034      5F74696D 
 8034      657200
 8035              	.LASF242:
 8036 0a3f 4D454D50 		.ascii	"MEMP_UDP_PCB\000"
 8036      5F554450 
 8036      5F504342 
 8036      00
 8037              	.LASF170:
 8038 0a4c 6C6F6361 		.ascii	"local_ip\000"
 8038      6C5F6970 
 8038      00
 8039              	.LASF31:
ARM GAS  C:\Users\Luis\AppData\Local\Temp\cc4eIE9x.s 			page 152


 8040 0a55 705F6374 		.ascii	"p_ctx\000"
 8040      7800
 8041              	.LASF273:
 8042 0a5b 6D626F78 		.ascii	"mbox\000"
 8042      00
 8043              	.LASF81:
 8044 0a60 726C6973 		.ascii	"rlist\000"
 8044      7400
 8045              	.LASF202:
 8046 0a66 756E7365 		.ascii	"unsent_oversize\000"
 8046      6E745F6F 
 8046      76657273 
 8046      697A6500 
 8047              	.LASF223:
 8048 0a76 53594E5F 		.ascii	"SYN_SENT\000"
 8048      53454E54 
 8048      00
 8049              	.LASF193:
 8050 0a7f 736E645F 		.ascii	"snd_nxt\000"
 8050      6E787400 
 8051              	.LASF308:
 8052 0a87 6C656674 		.ascii	"left\000"
 8052      00
 8053              	.LASF135:
 8054 0a8c 6D656D5F 		.ascii	"mem_ptr_t\000"
 8054      7074725F 
 8054      7400
 8055              	.LASF225:
 8056 0a96 45535441 		.ascii	"ESTABLISHED\000"
 8056      424C4953 
 8056      48454400 
 8057              	.LASF265:
 8058 0aa2 63616368 		.ascii	"cachehit\000"
 8058      65686974 
 8058      00
 8059              	.LASF198:
 8060 0aab 736E645F 		.ascii	"snd_wnd_max\000"
 8060      776E645F 
 8060      6D617800 
 8061              	.LASF317:
 8062 0ab7 6F707473 		.ascii	"opts\000"
 8062      00
 8063              	.LASF167:
 8064 0abc 6E657469 		.ascii	"netif_linkoutput_fn\000"
 8064      665F6C69 
 8064      6E6B6F75 
 8064      74707574 
 8064      5F666E00 
 8065              	.LASF247:
 8066 0ad0 4D454D50 		.ascii	"MEMP_FRAG_PBUF\000"
 8066      5F465241 
 8066      475F5042 
 8066      554600
 8067              	.LASF192:
 8068 0adf 73737468 		.ascii	"ssthresh\000"
 8068      72657368 
 8068      00
ARM GAS  C:\Users\Luis\AppData\Local\Temp\cc4eIE9x.s 			page 153


 8069              	.LASF200:
 8070 0ae8 736E645F 		.ascii	"snd_buf\000"
 8070      62756600 
 8071              	.LASF279:
 8072 0af0 6D656D70 		.ascii	"memp\000"
 8072      00
 8073              	.LASF238:
 8074 0af5 5F686472 		.ascii	"_hdrlen_rsvd_flags\000"
 8074      6C656E5F 
 8074      72737664 
 8074      5F666C61 
 8074      677300
 8075              	.LASF260:
 8076 0b08 6C656E65 		.ascii	"lenerr\000"
 8076      727200
 8077              	.LASF29:
 8078 0b0f 705F7072 		.ascii	"p_prev\000"
 8078      657600
 8079              	.LASF86:
 8080 0b16 73697A65 		.ascii	"sizetype\000"
 8080      74797065 
 8080      00
 8081              	.LASF20:
 8082 0b1f 74726566 		.ascii	"trefs_t\000"
 8082      735F7400 
 8083              	.LASF12:
 8084 0b27 6C6F6E67 		.ascii	"long unsigned int\000"
 8084      20756E73 
 8084      69676E65 
 8084      6420696E 
 8084      7400
 8085              	.LASF327:
 8086 0b39 7463705F 		.ascii	"tcp_ticks\000"
 8086      7469636B 
 8086      7300
 8087              	.LASF54:
 8088 0b43 72656164 		.ascii	"ready_list_t\000"
 8088      795F6C69 
 8088      73745F74 
 8088      00
 8089              	.LASF233:
 8090 0b50 74637068 		.ascii	"tcphdr\000"
 8090      647200
 8091              	.LASF132:
 8092 0b57 7331365F 		.ascii	"s16_t\000"
 8092      7400
 8093              	.LASF9:
 8094 0b5d 696E7433 		.ascii	"int32_t\000"
 8094      325F7400 
 8095              	.LASF85:
 8096 0b65 69646C65 		.ascii	"idle_thread_wa\000"
 8096      5F746872 
 8096      6561645F 
 8096      776100
 8097              	.LASF142:
 8098 0b74 70627566 		.ascii	"pbuf_layer\000"
 8098      5F6C6179 
ARM GAS  C:\Users\Luis\AppData\Local\Temp\cc4eIE9x.s 			page 154


 8098      657200
 8099              	.LASF293:
 8100 0b7f 61706966 		.ascii	"apiflags\000"
 8100      6C616773 
 8100      00
 8101              	.LASF206:
 8102 0b88 72656675 		.ascii	"refused_data\000"
 8102      7365645F 
 8102      64617461 
 8102      00
 8103              	.LASF301:
 8104 0b95 71756575 		.ascii	"queue\000"
 8104      6500
 8105              	.LASF281:
 8106 0b9b 6F70746C 		.ascii	"optlen\000"
 8106      656E00
 8107              	.LASF263:
 8108 0ba2 70726F74 		.ascii	"proterr\000"
 8108      65727200 
 8109              	.LASF116:
 8110 0baa 77747365 		.ascii	"wtsemp\000"
 8110      6D7000
 8111              	.LASF230:
 8112 0bb1 4C415354 		.ascii	"LAST_ACK\000"
 8112      5F41434B 
 8112      00
 8113              	.LASF95:
 8114 0bba 63685F73 		.ascii	"ch_swc_event_t\000"
 8114      77635F65 
 8114      76656E74 
 8114      5F7400
 8115              	.LASF300:
 8116 0bc9 70726576 		.ascii	"prev_seg\000"
 8116      5F736567 
 8116      00
 8117              	.LASF127:
 8118 0bd2 6D757465 		.ascii	"mutex_t\000"
 8118      785F7400 
 8119              	.LASF234:
 8120 0bda 7463705F 		.ascii	"tcp_hdr\000"
 8120      68647200 
 8121              	.LASF69:
 8122 0be2 76745F70 		.ascii	"vt_par\000"
 8122      617200
 8123              	.LASF102:
 8124 0be9 62657374 		.ascii	"best\000"
 8124      00
 8125              	.LASF271:
 8126 0bee 73746174 		.ascii	"stats_sys\000"
 8126      735F7379 
 8126      7300
 8127              	.LASF4:
 8128 0bf8 756E7369 		.ascii	"unsigned char\000"
 8128      676E6564 
 8128      20636861 
 8128      7200
 8129              	.LASF226:
ARM GAS  C:\Users\Luis\AppData\Local\Temp\cc4eIE9x.s 			page 155


 8130 0c06 46494E5F 		.ascii	"FIN_WAIT_1\000"
 8130      57414954 
 8130      5F3100
 8131              	.LASF227:
 8132 0c11 46494E5F 		.ascii	"FIN_WAIT_2\000"
 8132      57414954 
 8132      5F3200
 8133              	.LASF70:
 8134 0c1c 76697274 		.ascii	"virtual_timers_list_t\000"
 8134      75616C5F 
 8134      74696D65 
 8134      72735F6C 
 8134      6973745F 
 8135              	.LASF38:
 8136 0c32 705F7265 		.ascii	"p_refs\000"
 8136      667300
 8137              	.LASF245:
 8138 0c39 4D454D50 		.ascii	"MEMP_TCP_SEG\000"
 8138      5F544350 
 8138      5F534547 
 8138      00
 8139              	.LASF283:
 8140 0c46 7365716E 		.ascii	"seqno_be\000"
 8140      6F5F6265 
 8140      00
 8141              	.LASF75:
 8142 0c4f 70616E69 		.ascii	"panic_msg\000"
 8142      635F6D73 
 8142      6700
 8143              	.LASF147:
 8144 0c59 70627566 		.ascii	"pbuf\000"
 8144      00
 8145              	.LASF212:
 8146 0c5e 6B656570 		.ascii	"keep_idle\000"
 8146      5F69646C 
 8146      6500
 8147              	.LASF304:
 8148 0c68 6D73735F 		.ascii	"mss_local\000"
 8148      6C6F6361 
 8148      6C00
 8149              	.LASF173:
 8150 0c72 63616C6C 		.ascii	"callback_arg\000"
 8150      6261636B 
 8150      5F617267 
 8150      00
 8151              	.LASF222:
 8152 0c7f 4C495354 		.ascii	"LISTEN\000"
 8152      454E00
 8153              	.LASF88:
 8154 0c86 73746B61 		.ascii	"stkalign_t\000"
 8154      6C69676E 
 8154      5F7400
 8155              	.LASF160:
 8156 0c91 6C696E6B 		.ascii	"linkoutput\000"
 8156      6F757470 
 8156      757400
 8157              	.LASF154:
ARM GAS  C:\Users\Luis\AppData\Local\Temp\cc4eIE9x.s 			page 156


 8158 0c9c 61646472 		.ascii	"addr\000"
 8158      00
 8159              	.LASF258:
 8160 0ca1 64726F70 		.ascii	"drop\000"
 8160      00
 8161              	.LASF161:
 8162 0ca6 73746174 		.ascii	"state\000"
 8162      6500
 8163              	.LASF65:
 8164 0cac 76745F6E 		.ascii	"vt_next\000"
 8164      65787400 
 8165              	.LASF14:
 8166 0cb4 75696E74 		.ascii	"uint64_t\000"
 8166      36345F74 
 8166      00
 8167              	.LASF156:
 8168 0cbd 6E657469 		.ascii	"netif\000"
 8168      6600
 8169              	.LASF201:
 8170 0cc3 736E645F 		.ascii	"snd_queuelen\000"
 8170      71756575 
 8170      656C656E 
 8170      00
 8171              	.LASF79:
 8172 0cd0 63685F73 		.ascii	"ch_system_t\000"
 8172      79737465 
 8172      6D5F7400 
 8173              	.LASF239:
 8174 0cdc 63686B73 		.ascii	"chksum\000"
 8174      756D00
 8175              	.LASF298:
 8176 0ce3 7463705F 		.ascii	"tcp_write\000"
 8176      77726974 
 8176      6500
 8177              	.LASF208:
 8178 0ced 72656376 		.ascii	"recv\000"
 8178      00
 8179              	.LASF99:
 8180 0cf2 63685F74 		.ascii	"ch_trace_buffer_t\000"
 8180      72616365 
 8180      5F627566 
 8180      6665725F 
 8180      7400
 8181              	.LASF125:
 8182 0d04 6D5F6E65 		.ascii	"m_next\000"
 8182      787400
 8183              	.LASF1:
 8184 0d0b 7369676E 		.ascii	"signed char\000"
 8184      65642063 
 8184      68617200 
 8185              	.LASF169:
 8186 0d17 7463705F 		.ascii	"tcp_pcb\000"
 8186      70636200 
 8187              	.LASF8:
 8188 0d1f 73686F72 		.ascii	"short unsigned int\000"
 8188      7420756E 
 8188      7369676E 
ARM GAS  C:\Users\Luis\AppData\Local\Temp\cc4eIE9x.s 			page 157


 8188      65642069 
 8188      6E7400
 8189              	.LASF58:
 8190 0d32 725F6374 		.ascii	"r_ctx\000"
 8190      7800
 8191              	.LASF307:
 8192 0d38 7365676C 		.ascii	"seglen\000"
 8192      656E00
 8193              	.LASF314:
 8194 0d3f 6375725F 		.ascii	"cur_seg\000"
 8194      73656700 
 8195              	.LASF47:
 8196 0d47 746C7350 		.ascii	"tlsPtr\000"
 8196      747200
 8197              	.LASF302:
 8198 0d4e 71756575 		.ascii	"queuelen\000"
 8198      656C656E 
 8198      00
 8199              	.LASF257:
 8200 0d57 786D6974 		.ascii	"xmit\000"
 8200      00
 8201              	.LASF40:
 8202 0d5c 705F6D73 		.ascii	"p_msgqueue\000"
 8202      67717565 
 8202      756500
 8203              	.LASF213:
 8204 0d67 70657273 		.ascii	"persist_cnt\000"
 8204      6973745F 
 8204      636E7400 
 8205              	.LASF171:
 8206 0d73 72656D6F 		.ascii	"remote_ip\000"
 8206      74655F69 
 8206      7000
 8207              	.LASF68:
 8208 0d7d 76745F66 		.ascii	"vt_func\000"
 8208      756E6300 
 8209              	.LASF323:
 8210 0d85 7463705F 		.ascii	"tcp_zero_window_probe\000"
 8210      7A65726F 
 8210      5F77696E 
 8210      646F775F 
 8210      70726F62 
 8211              	.LASF321:
 8212 0d9b 7463705F 		.ascii	"tcp_rexmit_fast\000"
 8212      7265786D 
 8212      69745F66 
 8212      61737400 
 8213              	.LASF155:
 8214 0dab 69705F61 		.ascii	"ip_addr_t\000"
 8214      6464725F 
 8214      7400
 8215              	.LASF145:
 8216 0db5 50425546 		.ascii	"PBUF_REF\000"
 8216      5F524546 
 8216      00
 8217              	.LASF144:
 8218 0dbe 50425546 		.ascii	"PBUF_ROM\000"
ARM GAS  C:\Users\Luis\AppData\Local\Temp\cc4eIE9x.s 			page 158


 8218      5F524F4D 
 8218      00
 8219              	.LASF115:
 8220 0dc7 77747472 		.ascii	"wttrp\000"
 8220      7000
 8221              	.LASF117:
 8222 0dcd 77746D74 		.ascii	"wtmtxp\000"
 8222      787000
 8223              	.LASF188:
 8224 0dd4 6E727478 		.ascii	"nrtx\000"
 8224      00
 8225              	.LASF235:
 8226 0dd9 64657374 		.ascii	"dest\000"
 8226      00
 8227              	.LASF113:
 8228 0dde 65786974 		.ascii	"exitcode\000"
 8228      636F6465 
 8228      00
 8229              	.LASF224:
 8230 0de7 53594E5F 		.ascii	"SYN_RCVD\000"
 8230      52435644 
 8230      00
 8231              	.LASF153:
 8232 0df0 69705F61 		.ascii	"ip_addr\000"
 8232      64647200 
 8233              		.ident	"GCC: (GNU Tools for ARM Embedded Processors) 4.8.3 20131129 (release) [ARM/embedded-4_8-br
ARM GAS  C:\Users\Luis\AppData\Local\Temp\cc4eIE9x.s 			page 159


DEFINED SYMBOLS
                            *ABS*:00000000 tcp_out.c
C:\Users\Luis\AppData\Local\Temp\cc4eIE9x.s:19     .text.osalSysHalt:00000000 $t
C:\Users\Luis\AppData\Local\Temp\cc4eIE9x.s:24     .text.osalSysHalt:00000000 osalSysHalt
C:\Users\Luis\AppData\Local\Temp\cc4eIE9x.s:52     .rodata:00000000 $d
C:\Users\Luis\AppData\Local\Temp\cc4eIE9x.s:56     .text.tcp_output_alloc_header:00000000 $t
C:\Users\Luis\AppData\Local\Temp\cc4eIE9x.s:61     .text.tcp_output_alloc_header:00000000 tcp_output_alloc_header
C:\Users\Luis\AppData\Local\Temp\cc4eIE9x.s:201    .text.tcp_output_alloc_header:000000e4 $d
C:\Users\Luis\AppData\Local\Temp\cc4eIE9x.s:206    .text.tcp_send_fin:00000000 $t
C:\Users\Luis\AppData\Local\Temp\cc4eIE9x.s:212    .text.tcp_send_fin:00000000 tcp_send_fin
C:\Users\Luis\AppData\Local\Temp\cc4eIE9x.s:1629   .text.tcp_enqueue_flags:00000000 tcp_enqueue_flags
C:\Users\Luis\AppData\Local\Temp\cc4eIE9x.s:304    .text.tcp_create_segment:00000000 $t
C:\Users\Luis\AppData\Local\Temp\cc4eIE9x.s:309    .text.tcp_create_segment:00000000 tcp_create_segment
C:\Users\Luis\AppData\Local\Temp\cc4eIE9x.s:480    .text.tcp_create_segment:00000114 $d
C:\Users\Luis\AppData\Local\Temp\cc4eIE9x.s:489    .text.tcp_pbuf_prealloc:00000000 $t
C:\Users\Luis\AppData\Local\Temp\cc4eIE9x.s:494    .text.tcp_pbuf_prealloc:00000000 tcp_pbuf_prealloc
C:\Users\Luis\AppData\Local\Temp\cc4eIE9x.s:615    .text.tcp_pbuf_prealloc:000000b4 $d
C:\Users\Luis\AppData\Local\Temp\cc4eIE9x.s:628    .text.tcp_write_checks:00000000 $t
C:\Users\Luis\AppData\Local\Temp\cc4eIE9x.s:633    .text.tcp_write_checks:00000000 tcp_write_checks
C:\Users\Luis\AppData\Local\Temp\cc4eIE9x.s:779    .text.tcp_write_checks:000000d8 $d
C:\Users\Luis\AppData\Local\Temp\cc4eIE9x.s:816    .text.tcp_write:00000000 $t
C:\Users\Luis\AppData\Local\Temp\cc4eIE9x.s:822    .text.tcp_write:00000000 tcp_write
C:\Users\Luis\AppData\Local\Temp\cc4eIE9x.s:1243   .text.tcp_write:000002ac $d
C:\Users\Luis\AppData\Local\Temp\cc4eIE9x.s:1251   .text.tcp_write:000002c4 $t
C:\Users\Luis\AppData\Local\Temp\cc4eIE9x.s:1597   .text.tcp_write:00000500 $d
C:\Users\Luis\AppData\Local\Temp\cc4eIE9x.s:1623   .text.tcp_enqueue_flags:00000000 $t
C:\Users\Luis\AppData\Local\Temp\cc4eIE9x.s:1953   .text.tcp_enqueue_flags:00000218 $d
C:\Users\Luis\AppData\Local\Temp\cc4eIE9x.s:1963   .text.tcp_send_empty_ack:00000000 $t
C:\Users\Luis\AppData\Local\Temp\cc4eIE9x.s:1969   .text.tcp_send_empty_ack:00000000 tcp_send_empty_ack
C:\Users\Luis\AppData\Local\Temp\cc4eIE9x.s:2073   .text.tcp_output:00000000 $t
C:\Users\Luis\AppData\Local\Temp\cc4eIE9x.s:2079   .text.tcp_output:00000000 tcp_output
C:\Users\Luis\AppData\Local\Temp\cc4eIE9x.s:2521   .text.tcp_output_segment:00000000 tcp_output_segment
C:\Users\Luis\AppData\Local\Temp\cc4eIE9x.s:2450   .text.tcp_output:00000260 $d
C:\Users\Luis\AppData\Local\Temp\cc4eIE9x.s:2455   .text.tcp_output:0000026c $t
C:\Users\Luis\AppData\Local\Temp\cc4eIE9x.s:2516   .text.tcp_output_segment:00000000 $t
C:\Users\Luis\AppData\Local\Temp\cc4eIE9x.s:2751   .text.tcp_output_segment:0000017c $d
C:\Users\Luis\AppData\Local\Temp\cc4eIE9x.s:2757   .text.tcp_rst:00000000 $t
C:\Users\Luis\AppData\Local\Temp\cc4eIE9x.s:2763   .text.tcp_rst:00000000 tcp_rst
C:\Users\Luis\AppData\Local\Temp\cc4eIE9x.s:2904   .text.tcp_rst:000000f0 $d
C:\Users\Luis\AppData\Local\Temp\cc4eIE9x.s:2910   .text.tcp_rexmit_rto:00000000 $t
C:\Users\Luis\AppData\Local\Temp\cc4eIE9x.s:2916   .text.tcp_rexmit_rto:00000000 tcp_rexmit_rto
C:\Users\Luis\AppData\Local\Temp\cc4eIE9x.s:2993   .text.tcp_rexmit:00000000 $t
C:\Users\Luis\AppData\Local\Temp\cc4eIE9x.s:2999   .text.tcp_rexmit:00000000 tcp_rexmit
C:\Users\Luis\AppData\Local\Temp\cc4eIE9x.s:3108   .text.tcp_rexmit_fast:00000000 $t
C:\Users\Luis\AppData\Local\Temp\cc4eIE9x.s:3114   .text.tcp_rexmit_fast:00000000 tcp_rexmit_fast
C:\Users\Luis\AppData\Local\Temp\cc4eIE9x.s:3214   .text.tcp_keepalive:00000000 $t
C:\Users\Luis\AppData\Local\Temp\cc4eIE9x.s:3220   .text.tcp_keepalive:00000000 tcp_keepalive
C:\Users\Luis\AppData\Local\Temp\cc4eIE9x.s:3305   .text.tcp_keepalive:00000084 $d
C:\Users\Luis\AppData\Local\Temp\cc4eIE9x.s:3310   .text.tcp_zero_window_probe:00000000 $t
C:\Users\Luis\AppData\Local\Temp\cc4eIE9x.s:3316   .text.tcp_zero_window_probe:00000000 tcp_zero_window_probe
C:\Users\Luis\AppData\Local\Temp\cc4eIE9x.s:3497   .text.tcp_zero_window_probe:0000011c $d
                     .debug_frame:00000010 $d
C:\Users\Luis\AppData\Local\Temp\cc4eIE9x.s:205    .text.tcp_output_alloc_header:000000e8 $t
C:\Users\Luis\AppData\Local\Temp\cc4eIE9x.s:484    .text.tcp_create_segment:00000118 $t
C:\Users\Luis\AppData\Local\Temp\cc4eIE9x.s:619    .text.tcp_pbuf_prealloc:000000b8 $t
C:\Users\Luis\AppData\Local\Temp\cc4eIE9x.s:785    .text.tcp_write_checks:000000e4 $t
C:\Users\Luis\AppData\Local\Temp\cc4eIE9x.s:2756   .text.tcp_output_segment:00000184 $t
ARM GAS  C:\Users\Luis\AppData\Local\Temp\cc4eIE9x.s 			page 160


C:\Users\Luis\AppData\Local\Temp\cc4eIE9x.s:2909   .text.tcp_rst:000000f8 $t
C:\Users\Luis\AppData\Local\Temp\cc4eIE9x.s:3309   .text.tcp_keepalive:00000088 $t

UNDEFINED SYMBOLS
chSysHalt
pbuf_alloc
lwip_htons
lwip_htonl
lwip_ntohs
memp_malloc
pbuf_free
pbuf_header
tcp_seg_free
lwip_stats
memcpy
pbuf_clen
pbuf_cat
tcp_segs_free
inet_chksum_pseudo
ip_output
lwip_ntohl
tcp_input_pcb
tcp_eff_send_mss
ip_route
tcp_ticks
pbuf_copy_partial
