ARM GAS  C:\Users\Luis\AppData\Local\Temp\ccRkfmdd.s 			page 1


   1              		.syntax unified
   2              		.cpu cortex-m4
   3              		.fpu softvfp
   4              		.eabi_attribute 20, 1
   5              		.eabi_attribute 21, 1
   6              		.eabi_attribute 23, 3
   7              		.eabi_attribute 24, 1
   8              		.eabi_attribute 25, 1
   9              		.eabi_attribute 26, 1
  10              		.eabi_attribute 30, 6
  11              		.eabi_attribute 34, 1
  12              		.eabi_attribute 18, 4
  13              		.thumb
  14              		.file	"tcpip.c"
  15              		.text
  16              	.Ltext0:
  17              		.cfi_sections	.debug_frame
  18              		.section	.text.osalSysHalt,"ax",%progbits
  19              		.align	2
  20              		.p2align 4,,15
  21              		.thumb
  22              		.thumb_func
  23              		.type	osalSysHalt, %function
  24              	osalSysHalt:
  25              	.LFB230:
  26              		.file 1 "../../ChibiOS/os/hal/osal/rt/osal.h"
  27              		.loc 1 460 0
  28              		.cfi_startproc
  29              		@ args = 0, pretend = 0, frame = 8
  30              		@ frame_needed = 1, uses_anonymous_args = 0
  31 0000 80B5     		push	{r7, lr}
  32              		.cfi_def_cfa_offset 8
  33              		.cfi_offset 7, -8
  34              		.cfi_offset 14, -4
  35 0002 82B0     		sub	sp, sp, #8
  36              		.cfi_def_cfa_offset 16
  37 0004 00AF     		add	r7, sp, #0
  38              		.cfi_def_cfa_register 7
  39 0006 7860     		str	r0, [r7, #4]
  40              		.loc 1 462 0
  41 0008 7868     		ldr	r0, [r7, #4]
  42 000a FFF7FEFF 		bl	chSysHalt
  43              		.loc 1 463 0
  44 000e 0837     		adds	r7, r7, #8
  45 0010 BD46     		mov	sp, r7
  46              		@ sp needed
  47 0012 80BD     		pop	{r7, pc}
  48              		.cfi_endproc
  49              	.LFE230:
  50              		.size	osalSysHalt, .-osalSysHalt
  51 0014 AFF30080 		.section	.bss.tcpip_init_done,"aw",%nobits
  51      AFF30080 
  51      AFF30080 
  52              		.align	2
  53              		.type	tcpip_init_done, %object
  54              		.size	tcpip_init_done, 4
  55              	tcpip_init_done:
ARM GAS  C:\Users\Luis\AppData\Local\Temp\ccRkfmdd.s 			page 2


  56 0000 00000000 		.space	4
  57              		.section	.bss.tcpip_init_done_arg,"aw",%nobits
  58              		.align	2
  59              		.type	tcpip_init_done_arg, %object
  60              		.size	tcpip_init_done_arg, 4
  61              	tcpip_init_done_arg:
  62 0000 00000000 		.space	4
  63              		.section	.bss.mbox,"aw",%nobits
  64              		.align	2
  65              		.type	mbox, %object
  66              		.size	mbox, 4
  67              	mbox:
  68 0000 00000000 		.space	4
  69              		.section	.rodata
  70              		.align	2
  71              	.LC0:
  72 0000 74637069 		.ascii	"tcpip_thread: invalid message\000"
  72      705F7468 
  72      72656164 
  72      3A20696E 
  72      76616C69 
  73              		.section	.text.tcpip_thread,"ax",%progbits
  74              		.align	2
  75              		.p2align 4,,15
  76              		.thumb
  77              		.thumb_func
  78              		.type	tcpip_thread, %function
  79              	tcpip_thread:
  80              	.LFB260:
  81              		.file 2 "../../ChibiOS/ext/lwip/src/api/tcpip.c"
  82              		.loc 2 75 0
  83              		.cfi_startproc
  84              		@ args = 0, pretend = 0, frame = 16
  85              		@ frame_needed = 1, uses_anonymous_args = 0
  86 0000 80B5     		push	{r7, lr}
  87              		.cfi_def_cfa_offset 8
  88              		.cfi_offset 7, -8
  89              		.cfi_offset 14, -4
  90 0002 84B0     		sub	sp, sp, #16
  91              		.cfi_def_cfa_offset 24
  92 0004 00AF     		add	r7, sp, #0
  93              		.cfi_def_cfa_register 7
  94 0006 7860     		str	r0, [r7, #4]
  95              		.loc 2 79 0
  96 0008 414B     		ldr	r3, .L15
  97 000a 1B68     		ldr	r3, [r3]
  98 000c 002B     		cmp	r3, #0
  99 000e 05D0     		beq	.L3
 100              		.loc 2 80 0
 101 0010 3F4B     		ldr	r3, .L15
 102 0012 1B68     		ldr	r3, [r3]
 103 0014 3F4A     		ldr	r2, .L15+4
 104 0016 1268     		ldr	r2, [r2]
 105 0018 1046     		mov	r0, r2
 106 001a 9847     		blx	r3
 107              	.L3:
 108              		.loc 2 88 0
ARM GAS  C:\Users\Luis\AppData\Local\Temp\ccRkfmdd.s 			page 3


 109 001c 07F10C03 		add	r3, r7, #12
 110 0020 3D48     		ldr	r0, .L15+8
 111 0022 1946     		mov	r1, r3
 112 0024 FFF7FEFF 		bl	sys_timeouts_mbox_fetch
 113              		.loc 2 90 0
 114 0028 FB68     		ldr	r3, [r7, #12]
 115 002a 1B78     		ldrb	r3, [r3]	@ zero_extendqisi2
 116 002c 052B     		cmp	r3, #5
 117 002e 69D8     		bhi	.L4
 118 0030 01A2     		adr	r2, .L6
 119 0032 52F823F0 		ldr	pc, [r2, r3, lsl #2]
 120 0036 00BF     		.p2align 2
 121              	.L6:
 122 0038 51000000 		.word	.L5+1
 123 003c 63000000 		.word	.L7+1
 124 0040 A1000000 		.word	.L8+1
 125 0044 C3000000 		.word	.L9+1
 126 0048 DF000000 		.word	.L10+1
 127 004c F7000000 		.word	.L11+1
 128              	.L5:
 129              		.loc 2 94 0
 130 0050 FB68     		ldr	r3, [r7, #12]
 131 0052 9B68     		ldr	r3, [r3, #8]
 132 0054 1B68     		ldr	r3, [r3]
 133 0056 FA68     		ldr	r2, [r7, #12]
 134 0058 9268     		ldr	r2, [r2, #8]
 135 005a 0432     		adds	r2, r2, #4
 136 005c 1046     		mov	r0, r2
 137 005e 9847     		blx	r3
 138              		.loc 2 95 0
 139 0060 54E0     		b	.L12
 140              	.L7:
 141              		.loc 2 102 0
 142 0062 FB68     		ldr	r3, [r7, #12]
 143 0064 DB68     		ldr	r3, [r3, #12]
 144 0066 93F82930 		ldrb	r3, [r3, #41]	@ zero_extendqisi2
 145 006a 03F06003 		and	r3, r3, #96
 146 006e 002B     		cmp	r3, #0
 147 0070 08D0     		beq	.L13
 148              		.loc 2 103 0
 149 0072 FB68     		ldr	r3, [r7, #12]
 150 0074 9A68     		ldr	r2, [r3, #8]
 151 0076 FB68     		ldr	r3, [r7, #12]
 152 0078 DB68     		ldr	r3, [r3, #12]
 153 007a 1046     		mov	r0, r2
 154 007c 1946     		mov	r1, r3
 155 007e FFF7FEFF 		bl	ethernet_input
 156 0082 07E0     		b	.L14
 157              	.L13:
 158              		.loc 2 107 0
 159 0084 FB68     		ldr	r3, [r7, #12]
 160 0086 9A68     		ldr	r2, [r3, #8]
 161 0088 FB68     		ldr	r3, [r7, #12]
 162 008a DB68     		ldr	r3, [r3, #12]
 163 008c 1046     		mov	r0, r2
 164 008e 1946     		mov	r1, r3
 165 0090 FFF7FEFF 		bl	ip_input
ARM GAS  C:\Users\Luis\AppData\Local\Temp\ccRkfmdd.s 			page 4


 166              	.L14:
 167              		.loc 2 109 0
 168 0094 FB68     		ldr	r3, [r7, #12]
 169 0096 0A20     		movs	r0, #10
 170 0098 1946     		mov	r1, r3
 171 009a FFF7FEFF 		bl	memp_free
 172              		.loc 2 110 0
 173 009e 35E0     		b	.L12
 174              	.L8:
 175              		.loc 2 123 0
 176 00a0 FB68     		ldr	r3, [r7, #12]
 177 00a2 9968     		ldr	r1, [r3, #8]
 178 00a4 FB68     		ldr	r3, [r7, #12]
 179 00a6 DA68     		ldr	r2, [r3, #12]
 180 00a8 FB68     		ldr	r3, [r7, #12]
 181 00aa 1B69     		ldr	r3, [r3, #16]
 182 00ac 0846     		mov	r0, r1
 183 00ae 1146     		mov	r1, r2
 184 00b0 1A46     		mov	r2, r3
 185 00b2 FFF7FEFF 		bl	sys_timeout
 186              		.loc 2 124 0
 187 00b6 FB68     		ldr	r3, [r7, #12]
 188 00b8 0920     		movs	r0, #9
 189 00ba 1946     		mov	r1, r3
 190 00bc FFF7FEFF 		bl	memp_free
 191              		.loc 2 125 0
 192 00c0 24E0     		b	.L12
 193              	.L9:
 194              		.loc 2 128 0
 195 00c2 FB68     		ldr	r3, [r7, #12]
 196 00c4 DA68     		ldr	r2, [r3, #12]
 197 00c6 FB68     		ldr	r3, [r7, #12]
 198 00c8 1B69     		ldr	r3, [r3, #16]
 199 00ca 1046     		mov	r0, r2
 200 00cc 1946     		mov	r1, r3
 201 00ce FFF7FEFF 		bl	sys_untimeout
 202              		.loc 2 129 0
 203 00d2 FB68     		ldr	r3, [r7, #12]
 204 00d4 0920     		movs	r0, #9
 205 00d6 1946     		mov	r1, r3
 206 00d8 FFF7FEFF 		bl	memp_free
 207              		.loc 2 130 0
 208 00dc 16E0     		b	.L12
 209              	.L10:
 210              		.loc 2 135 0
 211 00de FB68     		ldr	r3, [r7, #12]
 212 00e0 9B68     		ldr	r3, [r3, #8]
 213 00e2 FA68     		ldr	r2, [r7, #12]
 214 00e4 D268     		ldr	r2, [r2, #12]
 215 00e6 1046     		mov	r0, r2
 216 00e8 9847     		blx	r3
 217              		.loc 2 136 0
 218 00ea FB68     		ldr	r3, [r7, #12]
 219 00ec 0920     		movs	r0, #9
 220 00ee 1946     		mov	r1, r3
 221 00f0 FFF7FEFF 		bl	memp_free
 222              		.loc 2 137 0
ARM GAS  C:\Users\Luis\AppData\Local\Temp\ccRkfmdd.s 			page 5


 223 00f4 0AE0     		b	.L12
 224              	.L11:
 225              		.loc 2 141 0
 226 00f6 FB68     		ldr	r3, [r7, #12]
 227 00f8 9B68     		ldr	r3, [r3, #8]
 228 00fa FA68     		ldr	r2, [r7, #12]
 229 00fc D268     		ldr	r2, [r2, #12]
 230 00fe 1046     		mov	r0, r2
 231 0100 9847     		blx	r3
 232              		.loc 2 142 0
 233 0102 03E0     		b	.L12
 234              	.L4:
 235              		.loc 2 146 0
 236 0104 0548     		ldr	r0, .L15+12
 237 0106 FFF7FEFF 		bl	osalSysHalt
 238              		.loc 2 147 0
 239 010a 00BF     		nop
 240              	.L12:
 241              		.loc 2 149 0
 242 010c 86E7     		b	.L3
 243              	.L16:
 244 010e 00BF     		.align	2
 245              	.L15:
 246 0110 00000000 		.word	tcpip_init_done
 247 0114 00000000 		.word	tcpip_init_done_arg
 248 0118 00000000 		.word	mbox
 249 011c 00000000 		.word	.LC0
 250              		.cfi_endproc
 251              	.LFE260:
 252              		.size	tcpip_thread, .-tcpip_thread
 253              		.section	.text.tcpip_input,"ax",%progbits
 254              		.align	2
 255              		.p2align 4,,15
 256              		.global	tcpip_input
 257              		.thumb
 258              		.thumb_func
 259              		.type	tcpip_input, %function
 260              	tcpip_input:
 261              	.LFB261:
 262              		.loc 2 162 0
 263              		.cfi_startproc
 264              		@ args = 0, pretend = 0, frame = 16
 265              		@ frame_needed = 1, uses_anonymous_args = 0
 266 0000 80B5     		push	{r7, lr}
 267              		.cfi_def_cfa_offset 8
 268              		.cfi_offset 7, -8
 269              		.cfi_offset 14, -4
 270 0002 84B0     		sub	sp, sp, #16
 271              		.cfi_def_cfa_offset 24
 272 0004 00AF     		add	r7, sp, #0
 273              		.cfi_def_cfa_register 7
 274 0006 7860     		str	r0, [r7, #4]
 275 0008 3960     		str	r1, [r7]
 276              		.loc 2 180 0
 277 000a 1648     		ldr	r0, .L22
 278 000c FFF7FEFF 		bl	sys_mbox_valid
 279 0010 0346     		mov	r3, r0
ARM GAS  C:\Users\Luis\AppData\Local\Temp\ccRkfmdd.s 			page 6


 280 0012 002B     		cmp	r3, #0
 281 0014 01D1     		bne	.L18
 282              		.loc 2 181 0
 283 0016 FA23     		movs	r3, #250
 284 0018 1FE0     		b	.L19
 285              	.L18:
 286              		.loc 2 183 0
 287 001a 0A20     		movs	r0, #10
 288 001c FFF7FEFF 		bl	memp_malloc
 289 0020 F860     		str	r0, [r7, #12]
 290              		.loc 2 184 0
 291 0022 FB68     		ldr	r3, [r7, #12]
 292 0024 002B     		cmp	r3, #0
 293 0026 01D1     		bne	.L20
 294              		.loc 2 185 0
 295 0028 FF23     		movs	r3, #255
 296 002a 16E0     		b	.L19
 297              	.L20:
 298              		.loc 2 188 0
 299 002c FB68     		ldr	r3, [r7, #12]
 300 002e 0122     		movs	r2, #1
 301 0030 1A70     		strb	r2, [r3]
 302              		.loc 2 189 0
 303 0032 FB68     		ldr	r3, [r7, #12]
 304 0034 7A68     		ldr	r2, [r7, #4]
 305 0036 9A60     		str	r2, [r3, #8]
 306              		.loc 2 190 0
 307 0038 FB68     		ldr	r3, [r7, #12]
 308 003a 3A68     		ldr	r2, [r7]
 309 003c DA60     		str	r2, [r3, #12]
 310              		.loc 2 191 0
 311 003e 0948     		ldr	r0, .L22
 312 0040 F968     		ldr	r1, [r7, #12]
 313 0042 FFF7FEFF 		bl	sys_mbox_trypost
 314 0046 0346     		mov	r3, r0
 315 0048 002B     		cmp	r3, #0
 316 004a 05D0     		beq	.L21
 317              		.loc 2 192 0
 318 004c 0A20     		movs	r0, #10
 319 004e F968     		ldr	r1, [r7, #12]
 320 0050 FFF7FEFF 		bl	memp_free
 321              		.loc 2 193 0
 322 0054 FF23     		movs	r3, #255
 323 0056 00E0     		b	.L19
 324              	.L21:
 325              		.loc 2 195 0
 326 0058 0023     		movs	r3, #0
 327              	.L19:
 328 005a 5BB2     		sxtb	r3, r3
 329              		.loc 2 197 0
 330 005c 1846     		mov	r0, r3
 331 005e 1037     		adds	r7, r7, #16
 332 0060 BD46     		mov	sp, r7
 333              		@ sp needed
 334 0062 80BD     		pop	{r7, pc}
 335              	.L23:
 336              		.align	2
ARM GAS  C:\Users\Luis\AppData\Local\Temp\ccRkfmdd.s 			page 7


 337              	.L22:
 338 0064 00000000 		.word	mbox
 339              		.cfi_endproc
 340              	.LFE261:
 341              		.size	tcpip_input, .-tcpip_input
 342 0068 AFF30080 		.section	.text.tcpip_callback_with_block,"ax",%progbits
 342      AFF30080 
 343              		.align	2
 344              		.p2align 4,,15
 345              		.global	tcpip_callback_with_block
 346              		.thumb
 347              		.thumb_func
 348              		.type	tcpip_callback_with_block, %function
 349              	tcpip_callback_with_block:
 350              	.LFB262:
 351              		.loc 2 212 0
 352              		.cfi_startproc
 353              		@ args = 0, pretend = 0, frame = 24
 354              		@ frame_needed = 1, uses_anonymous_args = 0
 355 0000 80B5     		push	{r7, lr}
 356              		.cfi_def_cfa_offset 8
 357              		.cfi_offset 7, -8
 358              		.cfi_offset 14, -4
 359 0002 86B0     		sub	sp, sp, #24
 360              		.cfi_def_cfa_offset 32
 361 0004 00AF     		add	r7, sp, #0
 362              		.cfi_def_cfa_register 7
 363 0006 F860     		str	r0, [r7, #12]
 364 0008 B960     		str	r1, [r7, #8]
 365 000a 1346     		mov	r3, r2
 366 000c FB71     		strb	r3, [r7, #7]
 367              		.loc 2 215 0
 368 000e 1A48     		ldr	r0, .L30
 369 0010 FFF7FEFF 		bl	sys_mbox_valid
 370 0014 0346     		mov	r3, r0
 371 0016 002B     		cmp	r3, #0
 372 0018 28D0     		beq	.L25
 373              		.loc 2 216 0
 374 001a 0920     		movs	r0, #9
 375 001c FFF7FEFF 		bl	memp_malloc
 376 0020 7861     		str	r0, [r7, #20]
 377              		.loc 2 217 0
 378 0022 7B69     		ldr	r3, [r7, #20]
 379 0024 002B     		cmp	r3, #0
 380 0026 01D1     		bne	.L26
 381              		.loc 2 218 0
 382 0028 FF23     		movs	r3, #255
 383 002a 20E0     		b	.L27
 384              	.L26:
 385              		.loc 2 221 0
 386 002c 7B69     		ldr	r3, [r7, #20]
 387 002e 0422     		movs	r2, #4
 388 0030 1A70     		strb	r2, [r3]
 389              		.loc 2 222 0
 390 0032 7B69     		ldr	r3, [r7, #20]
 391 0034 FA68     		ldr	r2, [r7, #12]
 392 0036 9A60     		str	r2, [r3, #8]
ARM GAS  C:\Users\Luis\AppData\Local\Temp\ccRkfmdd.s 			page 8


 393              		.loc 2 223 0
 394 0038 7B69     		ldr	r3, [r7, #20]
 395 003a BA68     		ldr	r2, [r7, #8]
 396 003c DA60     		str	r2, [r3, #12]
 397              		.loc 2 224 0
 398 003e FB79     		ldrb	r3, [r7, #7]	@ zero_extendqisi2
 399 0040 002B     		cmp	r3, #0
 400 0042 04D0     		beq	.L28
 401              		.loc 2 225 0
 402 0044 0C48     		ldr	r0, .L30
 403 0046 7969     		ldr	r1, [r7, #20]
 404 0048 FFF7FEFF 		bl	sys_mbox_post
 405 004c 0CE0     		b	.L29
 406              	.L28:
 407              		.loc 2 227 0
 408 004e 0A48     		ldr	r0, .L30
 409 0050 7969     		ldr	r1, [r7, #20]
 410 0052 FFF7FEFF 		bl	sys_mbox_trypost
 411 0056 0346     		mov	r3, r0
 412 0058 002B     		cmp	r3, #0
 413 005a 05D0     		beq	.L29
 414              		.loc 2 228 0
 415 005c 0920     		movs	r0, #9
 416 005e 7969     		ldr	r1, [r7, #20]
 417 0060 FFF7FEFF 		bl	memp_free
 418              		.loc 2 229 0
 419 0064 FF23     		movs	r3, #255
 420 0066 02E0     		b	.L27
 421              	.L29:
 422              		.loc 2 232 0
 423 0068 0023     		movs	r3, #0
 424 006a 00E0     		b	.L27
 425              	.L25:
 426              		.loc 2 234 0
 427 006c FA23     		movs	r3, #250
 428              	.L27:
 429 006e 5BB2     		sxtb	r3, r3
 430              		.loc 2 235 0
 431 0070 1846     		mov	r0, r3
 432 0072 1837     		adds	r7, r7, #24
 433 0074 BD46     		mov	sp, r7
 434              		@ sp needed
 435 0076 80BD     		pop	{r7, pc}
 436              	.L31:
 437              		.align	2
 438              	.L30:
 439 0078 00000000 		.word	mbox
 440              		.cfi_endproc
 441              	.LFE262:
 442              		.size	tcpip_callback_with_block, .-tcpip_callback_with_block
 443 007c AFF30080 		.section	.text.tcpip_timeout,"ax",%progbits
 444              		.align	2
 445              		.p2align 4,,15
 446              		.global	tcpip_timeout
 447              		.thumb
 448              		.thumb_func
 449              		.type	tcpip_timeout, %function
ARM GAS  C:\Users\Luis\AppData\Local\Temp\ccRkfmdd.s 			page 9


 450              	tcpip_timeout:
 451              	.LFB263:
 452              		.loc 2 248 0
 453              		.cfi_startproc
 454              		@ args = 0, pretend = 0, frame = 24
 455              		@ frame_needed = 1, uses_anonymous_args = 0
 456 0000 80B5     		push	{r7, lr}
 457              		.cfi_def_cfa_offset 8
 458              		.cfi_offset 7, -8
 459              		.cfi_offset 14, -4
 460 0002 86B0     		sub	sp, sp, #24
 461              		.cfi_def_cfa_offset 32
 462 0004 00AF     		add	r7, sp, #0
 463              		.cfi_def_cfa_register 7
 464 0006 F860     		str	r0, [r7, #12]
 465 0008 B960     		str	r1, [r7, #8]
 466 000a 7A60     		str	r2, [r7, #4]
 467              		.loc 2 251 0
 468 000c 1348     		ldr	r0, .L36
 469 000e FFF7FEFF 		bl	sys_mbox_valid
 470 0012 0346     		mov	r3, r0
 471 0014 002B     		cmp	r3, #0
 472 0016 1AD0     		beq	.L33
 473              		.loc 2 252 0
 474 0018 0920     		movs	r0, #9
 475 001a FFF7FEFF 		bl	memp_malloc
 476 001e 7861     		str	r0, [r7, #20]
 477              		.loc 2 253 0
 478 0020 7B69     		ldr	r3, [r7, #20]
 479 0022 002B     		cmp	r3, #0
 480 0024 01D1     		bne	.L34
 481              		.loc 2 254 0
 482 0026 FF23     		movs	r3, #255
 483 0028 12E0     		b	.L35
 484              	.L34:
 485              		.loc 2 257 0
 486 002a 7B69     		ldr	r3, [r7, #20]
 487 002c 0222     		movs	r2, #2
 488 002e 1A70     		strb	r2, [r3]
 489              		.loc 2 258 0
 490 0030 7B69     		ldr	r3, [r7, #20]
 491 0032 FA68     		ldr	r2, [r7, #12]
 492 0034 9A60     		str	r2, [r3, #8]
 493              		.loc 2 259 0
 494 0036 7B69     		ldr	r3, [r7, #20]
 495 0038 BA68     		ldr	r2, [r7, #8]
 496 003a DA60     		str	r2, [r3, #12]
 497              		.loc 2 260 0
 498 003c 7B69     		ldr	r3, [r7, #20]
 499 003e 7A68     		ldr	r2, [r7, #4]
 500 0040 1A61     		str	r2, [r3, #16]
 501              		.loc 2 261 0
 502 0042 0648     		ldr	r0, .L36
 503 0044 7969     		ldr	r1, [r7, #20]
 504 0046 FFF7FEFF 		bl	sys_mbox_post
 505              		.loc 2 262 0
 506 004a 0023     		movs	r3, #0
ARM GAS  C:\Users\Luis\AppData\Local\Temp\ccRkfmdd.s 			page 10


 507 004c 00E0     		b	.L35
 508              	.L33:
 509              		.loc 2 264 0
 510 004e FA23     		movs	r3, #250
 511              	.L35:
 512 0050 5BB2     		sxtb	r3, r3
 513              		.loc 2 265 0
 514 0052 1846     		mov	r0, r3
 515 0054 1837     		adds	r7, r7, #24
 516 0056 BD46     		mov	sp, r7
 517              		@ sp needed
 518 0058 80BD     		pop	{r7, pc}
 519              	.L37:
 520 005a 00BF     		.align	2
 521              	.L36:
 522 005c 00000000 		.word	mbox
 523              		.cfi_endproc
 524              	.LFE263:
 525              		.size	tcpip_timeout, .-tcpip_timeout
 526              		.section	.text.tcpip_untimeout,"ax",%progbits
 527              		.align	2
 528              		.p2align 4,,15
 529              		.global	tcpip_untimeout
 530              		.thumb
 531              		.thumb_func
 532              		.type	tcpip_untimeout, %function
 533              	tcpip_untimeout:
 534              	.LFB264:
 535              		.loc 2 277 0
 536              		.cfi_startproc
 537              		@ args = 0, pretend = 0, frame = 16
 538              		@ frame_needed = 1, uses_anonymous_args = 0
 539 0000 80B5     		push	{r7, lr}
 540              		.cfi_def_cfa_offset 8
 541              		.cfi_offset 7, -8
 542              		.cfi_offset 14, -4
 543 0002 84B0     		sub	sp, sp, #16
 544              		.cfi_def_cfa_offset 24
 545 0004 00AF     		add	r7, sp, #0
 546              		.cfi_def_cfa_register 7
 547 0006 7860     		str	r0, [r7, #4]
 548 0008 3960     		str	r1, [r7]
 549              		.loc 2 280 0
 550 000a 1248     		ldr	r0, .L42
 551 000c FFF7FEFF 		bl	sys_mbox_valid
 552 0010 0346     		mov	r3, r0
 553 0012 002B     		cmp	r3, #0
 554 0014 17D0     		beq	.L39
 555              		.loc 2 281 0
 556 0016 0920     		movs	r0, #9
 557 0018 FFF7FEFF 		bl	memp_malloc
 558 001c F860     		str	r0, [r7, #12]
 559              		.loc 2 282 0
 560 001e FB68     		ldr	r3, [r7, #12]
 561 0020 002B     		cmp	r3, #0
 562 0022 01D1     		bne	.L40
 563              		.loc 2 283 0
ARM GAS  C:\Users\Luis\AppData\Local\Temp\ccRkfmdd.s 			page 11


 564 0024 FF23     		movs	r3, #255
 565 0026 0FE0     		b	.L41
 566              	.L40:
 567              		.loc 2 286 0
 568 0028 FB68     		ldr	r3, [r7, #12]
 569 002a 0322     		movs	r2, #3
 570 002c 1A70     		strb	r2, [r3]
 571              		.loc 2 287 0
 572 002e FB68     		ldr	r3, [r7, #12]
 573 0030 7A68     		ldr	r2, [r7, #4]
 574 0032 DA60     		str	r2, [r3, #12]
 575              		.loc 2 288 0
 576 0034 FB68     		ldr	r3, [r7, #12]
 577 0036 3A68     		ldr	r2, [r7]
 578 0038 1A61     		str	r2, [r3, #16]
 579              		.loc 2 289 0
 580 003a 0648     		ldr	r0, .L42
 581 003c F968     		ldr	r1, [r7, #12]
 582 003e FFF7FEFF 		bl	sys_mbox_post
 583              		.loc 2 290 0
 584 0042 0023     		movs	r3, #0
 585 0044 00E0     		b	.L41
 586              	.L39:
 587              		.loc 2 292 0
 588 0046 FA23     		movs	r3, #250
 589              	.L41:
 590 0048 5BB2     		sxtb	r3, r3
 591              		.loc 2 293 0
 592 004a 1846     		mov	r0, r3
 593 004c 1037     		adds	r7, r7, #16
 594 004e BD46     		mov	sp, r7
 595              		@ sp needed
 596 0050 80BD     		pop	{r7, pc}
 597              	.L43:
 598 0052 00BF     		.align	2
 599              	.L42:
 600 0054 00000000 		.word	mbox
 601              		.cfi_endproc
 602              	.LFE264:
 603              		.size	tcpip_untimeout, .-tcpip_untimeout
 604 0058 AFF30080 		.section	.text.tcpip_apimsg,"ax",%progbits
 604      AFF30080 
 605              		.align	2
 606              		.p2align 4,,15
 607              		.global	tcpip_apimsg
 608              		.thumb
 609              		.thumb_func
 610              		.type	tcpip_apimsg, %function
 611              	tcpip_apimsg:
 612              	.LFB265:
 613              		.loc 2 307 0
 614              		.cfi_startproc
 615              		@ args = 0, pretend = 0, frame = 32
 616              		@ frame_needed = 1, uses_anonymous_args = 0
 617 0000 80B5     		push	{r7, lr}
 618              		.cfi_def_cfa_offset 8
 619              		.cfi_offset 7, -8
ARM GAS  C:\Users\Luis\AppData\Local\Temp\ccRkfmdd.s 			page 12


 620              		.cfi_offset 14, -4
 621 0002 88B0     		sub	sp, sp, #32
 622              		.cfi_def_cfa_offset 40
 623 0004 00AF     		add	r7, sp, #0
 624              		.cfi_def_cfa_register 7
 625 0006 7860     		str	r0, [r7, #4]
 626              		.loc 2 314 0
 627 0008 0F48     		ldr	r0, .L48
 628 000a FFF7FEFF 		bl	sys_mbox_valid
 629 000e 0346     		mov	r3, r0
 630 0010 002B     		cmp	r3, #0
 631 0012 13D0     		beq	.L45
 632              		.loc 2 315 0
 633 0014 0023     		movs	r3, #0
 634 0016 3B73     		strb	r3, [r7, #12]
 635              		.loc 2 316 0
 636 0018 7B68     		ldr	r3, [r7, #4]
 637 001a 7B61     		str	r3, [r7, #20]
 638              		.loc 2 317 0
 639 001c 07F10C03 		add	r3, r7, #12
 640 0020 0948     		ldr	r0, .L48
 641 0022 1946     		mov	r1, r3
 642 0024 FFF7FEFF 		bl	sys_mbox_post
 643              		.loc 2 318 0
 644 0028 7B68     		ldr	r3, [r7, #4]
 645 002a 5B68     		ldr	r3, [r3, #4]
 646 002c 0C33     		adds	r3, r3, #12
 647 002e 1846     		mov	r0, r3
 648 0030 0021     		movs	r1, #0
 649 0032 FFF7FEFF 		bl	sys_arch_sem_wait
 650              		.loc 2 319 0
 651 0036 7B68     		ldr	r3, [r7, #4]
 652 0038 1B7A     		ldrb	r3, [r3, #8]	@ zero_extendqisi2
 653 003a 00E0     		b	.L47
 654              	.L45:
 655              		.loc 2 321 0
 656 003c FA23     		movs	r3, #250
 657              	.L47:
 658 003e 5BB2     		sxtb	r3, r3
 659              		.loc 2 322 0
 660 0040 1846     		mov	r0, r3
 661 0042 2037     		adds	r7, r7, #32
 662 0044 BD46     		mov	sp, r7
 663              		@ sp needed
 664 0046 80BD     		pop	{r7, pc}
 665              	.L49:
 666              		.align	2
 667              	.L48:
 668 0048 00000000 		.word	mbox
 669              		.cfi_endproc
 670              	.LFE265:
 671              		.size	tcpip_apimsg, .-tcpip_apimsg
 672 004c AFF30080 		.section	.text.tcpip_callbackmsg_new,"ax",%progbits
 673              		.align	2
 674              		.p2align 4,,15
 675              		.global	tcpip_callbackmsg_new
 676              		.thumb
ARM GAS  C:\Users\Luis\AppData\Local\Temp\ccRkfmdd.s 			page 13


 677              		.thumb_func
 678              		.type	tcpip_callbackmsg_new, %function
 679              	tcpip_callbackmsg_new:
 680              	.LFB266:
 681              		.loc 2 409 0
 682              		.cfi_startproc
 683              		@ args = 0, pretend = 0, frame = 16
 684              		@ frame_needed = 1, uses_anonymous_args = 0
 685 0000 80B5     		push	{r7, lr}
 686              		.cfi_def_cfa_offset 8
 687              		.cfi_offset 7, -8
 688              		.cfi_offset 14, -4
 689 0002 84B0     		sub	sp, sp, #16
 690              		.cfi_def_cfa_offset 24
 691 0004 00AF     		add	r7, sp, #0
 692              		.cfi_def_cfa_register 7
 693 0006 7860     		str	r0, [r7, #4]
 694 0008 3960     		str	r1, [r7]
 695              		.loc 2 410 0
 696 000a 0920     		movs	r0, #9
 697 000c FFF7FEFF 		bl	memp_malloc
 698 0010 F860     		str	r0, [r7, #12]
 699              		.loc 2 411 0
 700 0012 FB68     		ldr	r3, [r7, #12]
 701 0014 002B     		cmp	r3, #0
 702 0016 01D1     		bne	.L51
 703              		.loc 2 412 0
 704 0018 0023     		movs	r3, #0
 705 001a 09E0     		b	.L52
 706              	.L51:
 707              		.loc 2 414 0
 708 001c FB68     		ldr	r3, [r7, #12]
 709 001e 0522     		movs	r2, #5
 710 0020 1A70     		strb	r2, [r3]
 711              		.loc 2 415 0
 712 0022 FB68     		ldr	r3, [r7, #12]
 713 0024 7A68     		ldr	r2, [r7, #4]
 714 0026 9A60     		str	r2, [r3, #8]
 715              		.loc 2 416 0
 716 0028 FB68     		ldr	r3, [r7, #12]
 717 002a 3A68     		ldr	r2, [r7]
 718 002c DA60     		str	r2, [r3, #12]
 719              		.loc 2 417 0
 720 002e FB68     		ldr	r3, [r7, #12]
 721              	.L52:
 722              		.loc 2 418 0
 723 0030 1846     		mov	r0, r3
 724 0032 1037     		adds	r7, r7, #16
 725 0034 BD46     		mov	sp, r7
 726              		@ sp needed
 727 0036 80BD     		pop	{r7, pc}
 728              		.cfi_endproc
 729              	.LFE266:
 730              		.size	tcpip_callbackmsg_new, .-tcpip_callbackmsg_new
 731 0038 AFF30080 		.section	.text.tcpip_callbackmsg_delete,"ax",%progbits
 731      AFF30080 
 732              		.align	2
ARM GAS  C:\Users\Luis\AppData\Local\Temp\ccRkfmdd.s 			page 14


 733              		.p2align 4,,15
 734              		.global	tcpip_callbackmsg_delete
 735              		.thumb
 736              		.thumb_func
 737              		.type	tcpip_callbackmsg_delete, %function
 738              	tcpip_callbackmsg_delete:
 739              	.LFB267:
 740              		.loc 2 426 0
 741              		.cfi_startproc
 742              		@ args = 0, pretend = 0, frame = 8
 743              		@ frame_needed = 1, uses_anonymous_args = 0
 744 0000 80B5     		push	{r7, lr}
 745              		.cfi_def_cfa_offset 8
 746              		.cfi_offset 7, -8
 747              		.cfi_offset 14, -4
 748 0002 82B0     		sub	sp, sp, #8
 749              		.cfi_def_cfa_offset 16
 750 0004 00AF     		add	r7, sp, #0
 751              		.cfi_def_cfa_register 7
 752 0006 7860     		str	r0, [r7, #4]
 753              		.loc 2 427 0
 754 0008 0920     		movs	r0, #9
 755 000a 7968     		ldr	r1, [r7, #4]
 756 000c FFF7FEFF 		bl	memp_free
 757              		.loc 2 428 0
 758 0010 0837     		adds	r7, r7, #8
 759 0012 BD46     		mov	sp, r7
 760              		@ sp needed
 761 0014 80BD     		pop	{r7, pc}
 762              		.cfi_endproc
 763              	.LFE267:
 764              		.size	tcpip_callbackmsg_delete, .-tcpip_callbackmsg_delete
 765 0016 00BFAFF3 		.section	.text.tcpip_trycallback,"ax",%progbits
 765      0080AFF3 
 765      0080
 766              		.align	2
 767              		.p2align 4,,15
 768              		.global	tcpip_trycallback
 769              		.thumb
 770              		.thumb_func
 771              		.type	tcpip_trycallback, %function
 772              	tcpip_trycallback:
 773              	.LFB268:
 774              		.loc 2 439 0
 775              		.cfi_startproc
 776              		@ args = 0, pretend = 0, frame = 8
 777              		@ frame_needed = 1, uses_anonymous_args = 0
 778 0000 80B5     		push	{r7, lr}
 779              		.cfi_def_cfa_offset 8
 780              		.cfi_offset 7, -8
 781              		.cfi_offset 14, -4
 782 0002 82B0     		sub	sp, sp, #8
 783              		.cfi_def_cfa_offset 16
 784 0004 00AF     		add	r7, sp, #0
 785              		.cfi_def_cfa_register 7
 786 0006 7860     		str	r0, [r7, #4]
 787              		.loc 2 440 0
ARM GAS  C:\Users\Luis\AppData\Local\Temp\ccRkfmdd.s 			page 15


 788 0008 0848     		ldr	r0, .L57
 789 000a FFF7FEFF 		bl	sys_mbox_valid
 790 000e 0346     		mov	r3, r0
 791 0010 002B     		cmp	r3, #0
 792 0012 01D1     		bne	.L55
 793              		.loc 2 441 0
 794 0014 FA23     		movs	r3, #250
 795 0016 04E0     		b	.L56
 796              	.L55:
 797              		.loc 2 443 0
 798 0018 0448     		ldr	r0, .L57
 799 001a 7968     		ldr	r1, [r7, #4]
 800 001c FFF7FEFF 		bl	sys_mbox_trypost
 801 0020 0346     		mov	r3, r0
 802              	.L56:
 803 0022 5BB2     		sxtb	r3, r3
 804              		.loc 2 444 0
 805 0024 1846     		mov	r0, r3
 806 0026 0837     		adds	r7, r7, #8
 807 0028 BD46     		mov	sp, r7
 808              		@ sp needed
 809 002a 80BD     		pop	{r7, pc}
 810              	.L58:
 811              		.align	2
 812              	.L57:
 813 002c 00000000 		.word	mbox
 814              		.cfi_endproc
 815              	.LFE268:
 816              		.size	tcpip_trycallback, .-tcpip_trycallback
 817              		.section	.rodata
 818 001e 0000     		.align	2
 819              	.LC1:
 820 0020 6661696C 		.ascii	"failed to create tcpip_thread mbox\000"
 820      65642074 
 820      6F206372 
 820      65617465 
 820      20746370 
 821 0043 00       		.align	2
 822              	.LC2:
 823 0044 74637069 		.ascii	"tcpip_thread\000"
 823      705F7468 
 823      72656164 
 823      00
 824 0051 000000   		.section	.text.tcpip_init,"ax",%progbits
 825              		.align	2
 826              		.p2align 4,,15
 827              		.global	tcpip_init
 828              		.thumb
 829              		.thumb_func
 830              		.type	tcpip_init, %function
 831              	tcpip_init:
 832              	.LFB269:
 833              		.loc 2 456 0
 834              		.cfi_startproc
 835              		@ args = 0, pretend = 0, frame = 8
 836              		@ frame_needed = 1, uses_anonymous_args = 0
 837 0000 80B5     		push	{r7, lr}
ARM GAS  C:\Users\Luis\AppData\Local\Temp\ccRkfmdd.s 			page 16


 838              		.cfi_def_cfa_offset 8
 839              		.cfi_offset 7, -8
 840              		.cfi_offset 14, -4
 841 0002 84B0     		sub	sp, sp, #16
 842              		.cfi_def_cfa_offset 24
 843 0004 02AF     		add	r7, sp, #8
 844              		.cfi_def_cfa 7, 16
 845 0006 7860     		str	r0, [r7, #4]
 846 0008 3960     		str	r1, [r7]
 847              		.loc 2 457 0
 848 000a FFF7FEFF 		bl	lwip_init
 849              		.loc 2 459 0
 850 000e 0E4B     		ldr	r3, .L61
 851 0010 7A68     		ldr	r2, [r7, #4]
 852 0012 1A60     		str	r2, [r3]
 853              		.loc 2 460 0
 854 0014 0D4B     		ldr	r3, .L61+4
 855 0016 3A68     		ldr	r2, [r7]
 856 0018 1A60     		str	r2, [r3]
 857              		.loc 2 461 0
 858 001a 0D48     		ldr	r0, .L61+8
 859 001c 1021     		movs	r1, #16
 860 001e FFF7FEFF 		bl	sys_mbox_new
 861 0022 0346     		mov	r3, r0
 862 0024 002B     		cmp	r3, #0
 863 0026 02D0     		beq	.L60
 864              		.loc 2 462 0 discriminator 1
 865 0028 0A48     		ldr	r0, .L61+12
 866 002a FFF7FEFF 		bl	osalSysHalt
 867              	.L60:
 868              		.loc 2 470 0
 869 002e 0323     		movs	r3, #3
 870 0030 0093     		str	r3, [sp]
 871 0032 0948     		ldr	r0, .L61+16
 872 0034 0949     		ldr	r1, .L61+20
 873 0036 0022     		movs	r2, #0
 874 0038 4FF48063 		mov	r3, #1024
 875 003c FFF7FEFF 		bl	sys_thread_new
 876              		.loc 2 471 0
 877 0040 0837     		adds	r7, r7, #8
 878 0042 BD46     		mov	sp, r7
 879              		@ sp needed
 880 0044 80BD     		pop	{r7, pc}
 881              	.L62:
 882 0046 00BF     		.align	2
 883              	.L61:
 884 0048 00000000 		.word	tcpip_init_done
 885 004c 00000000 		.word	tcpip_init_done_arg
 886 0050 00000000 		.word	mbox
 887 0054 20000000 		.word	.LC1
 888 0058 44000000 		.word	.LC2
 889 005c 00000000 		.word	tcpip_thread
 890              		.cfi_endproc
 891              	.LFE269:
 892              		.size	tcpip_init, .-tcpip_init
 893              		.section	.text.pbuf_free_int,"ax",%progbits
 894              		.align	2
ARM GAS  C:\Users\Luis\AppData\Local\Temp\ccRkfmdd.s 			page 17


 895              		.p2align 4,,15
 896              		.thumb
 897              		.thumb_func
 898              		.type	pbuf_free_int, %function
 899              	pbuf_free_int:
 900              	.LFB270:
 901              		.loc 2 481 0
 902              		.cfi_startproc
 903              		@ args = 0, pretend = 0, frame = 16
 904              		@ frame_needed = 1, uses_anonymous_args = 0
 905 0000 80B5     		push	{r7, lr}
 906              		.cfi_def_cfa_offset 8
 907              		.cfi_offset 7, -8
 908              		.cfi_offset 14, -4
 909 0002 84B0     		sub	sp, sp, #16
 910              		.cfi_def_cfa_offset 24
 911 0004 00AF     		add	r7, sp, #0
 912              		.cfi_def_cfa_register 7
 913 0006 7860     		str	r0, [r7, #4]
 914              		.loc 2 482 0
 915 0008 7B68     		ldr	r3, [r7, #4]
 916 000a FB60     		str	r3, [r7, #12]
 917              		.loc 2 483 0
 918 000c F868     		ldr	r0, [r7, #12]
 919 000e FFF7FEFF 		bl	pbuf_free
 920              		.loc 2 484 0
 921 0012 1037     		adds	r7, r7, #16
 922 0014 BD46     		mov	sp, r7
 923              		@ sp needed
 924 0016 80BD     		pop	{r7, pc}
 925              		.cfi_endproc
 926              	.LFE270:
 927              		.size	pbuf_free_int, .-pbuf_free_int
 928 0018 AFF30080 		.section	.text.pbuf_free_callback,"ax",%progbits
 928      AFF30080 
 929              		.align	2
 930              		.p2align 4,,15
 931              		.global	pbuf_free_callback
 932              		.thumb
 933              		.thumb_func
 934              		.type	pbuf_free_callback, %function
 935              	pbuf_free_callback:
 936              	.LFB271:
 937              		.loc 2 494 0
 938              		.cfi_startproc
 939              		@ args = 0, pretend = 0, frame = 8
 940              		@ frame_needed = 1, uses_anonymous_args = 0
 941 0000 80B5     		push	{r7, lr}
 942              		.cfi_def_cfa_offset 8
 943              		.cfi_offset 7, -8
 944              		.cfi_offset 14, -4
 945 0002 82B0     		sub	sp, sp, #8
 946              		.cfi_def_cfa_offset 16
 947 0004 00AF     		add	r7, sp, #0
 948              		.cfi_def_cfa_register 7
 949 0006 7860     		str	r0, [r7, #4]
 950              		.loc 2 495 0
ARM GAS  C:\Users\Luis\AppData\Local\Temp\ccRkfmdd.s 			page 18


 951 0008 0448     		ldr	r0, .L66
 952 000a 7968     		ldr	r1, [r7, #4]
 953 000c 0022     		movs	r2, #0
 954 000e FFF7FEFF 		bl	tcpip_callback_with_block
 955 0012 0346     		mov	r3, r0
 956              		.loc 2 496 0
 957 0014 1846     		mov	r0, r3
 958 0016 0837     		adds	r7, r7, #8
 959 0018 BD46     		mov	sp, r7
 960              		@ sp needed
 961 001a 80BD     		pop	{r7, pc}
 962              	.L67:
 963              		.align	2
 964              	.L66:
 965 001c 00000000 		.word	pbuf_free_int
 966              		.cfi_endproc
 967              	.LFE271:
 968              		.size	pbuf_free_callback, .-pbuf_free_callback
 969              		.section	.text.mem_free_callback,"ax",%progbits
 970              		.align	2
 971              		.p2align 4,,15
 972              		.global	mem_free_callback
 973              		.thumb
 974              		.thumb_func
 975              		.type	mem_free_callback, %function
 976              	mem_free_callback:
 977              	.LFB272:
 978              		.loc 2 507 0
 979              		.cfi_startproc
 980              		@ args = 0, pretend = 0, frame = 8
 981              		@ frame_needed = 1, uses_anonymous_args = 0
 982 0000 80B5     		push	{r7, lr}
 983              		.cfi_def_cfa_offset 8
 984              		.cfi_offset 7, -8
 985              		.cfi_offset 14, -4
 986 0002 82B0     		sub	sp, sp, #8
 987              		.cfi_def_cfa_offset 16
 988 0004 00AF     		add	r7, sp, #0
 989              		.cfi_def_cfa_register 7
 990 0006 7860     		str	r0, [r7, #4]
 991              		.loc 2 508 0
 992 0008 0448     		ldr	r0, .L70
 993 000a 7968     		ldr	r1, [r7, #4]
 994 000c 0022     		movs	r2, #0
 995 000e FFF7FEFF 		bl	tcpip_callback_with_block
 996 0012 0346     		mov	r3, r0
 997              		.loc 2 509 0
 998 0014 1846     		mov	r0, r3
 999 0016 0837     		adds	r7, r7, #8
 1000 0018 BD46     		mov	sp, r7
 1001              		@ sp needed
 1002 001a 80BD     		pop	{r7, pc}
 1003              	.L71:
 1004              		.align	2
 1005              	.L70:
 1006 001c 00000000 		.word	mem_free
 1007              		.cfi_endproc
ARM GAS  C:\Users\Luis\AppData\Local\Temp\ccRkfmdd.s 			page 19


 1008              	.LFE272:
 1009              		.size	mem_free_callback, .-mem_free_callback
 1010              		.text
 1011              	.Letext0:
 1012              		.file 3 "c:\\emtechesdk\\gcc\\lib\\gcc\\arm-none-eabi\\4.8.3\\include\\stddef.h"
 1013              		.file 4 "c:\\emtechesdk\\gcc\\arm-none-eabi\\include\\stdint.h"
 1014              		.file 5 "../../ChibiOS/os/rt/ports/ARMCMx/compilers/GCC/chtypes.h"
 1015              		.file 6 "../../ChibiOS/os/rt/include/chsystypes.h"
 1016              		.file 7 "../../ChibiOS/os/rt/include/chschd.h"
 1017              		.file 8 "../../ChibiOS/os/rt/ports/ARMCMx/chcore.h"
 1018              		.file 9 "../../ChibiOS/os/rt/ports/ARMCMx/chcore_v7m.h"
 1019              		.file 10 "../../ChibiOS/os/rt/include/chdebug.h"
 1020              		.file 11 "../../ChibiOS/os/rt/include/chtm.h"
 1021              		.file 12 "../../ChibiOS/os/rt/include/chstats.h"
 1022              		.file 13 "../../ChibiOS/os/rt/include/chsem.h"
 1023              		.file 14 "../../ChibiOS/os/rt/include/chmtx.h"
 1024              		.file 15 "../../ChibiOS/os/rt/include/chmboxes.h"
 1025              		.file 16 "../../ChibiOS/os/various/lwip_bindings/arch/cc.h"
 1026              		.file 17 "../../ChibiOS/ext/lwip/src/include/lwip/err.h"
 1027              		.file 18 "../../ChibiOS/os/various/lwip_bindings/arch/sys_arch.h"
 1028              		.file 19 "../../ChibiOS/ext/lwip/src/include/lwip/pbuf.h"
 1029              		.file 20 "../../ChibiOS/ext/lwip/src/include/ipv4/lwip/ip_addr.h"
 1030              		.file 21 "../../ChibiOS/ext/lwip/src/include/lwip/netif.h"
 1031              		.file 22 "../../ChibiOS/ext/lwip/src/include/lwip/netbuf.h"
 1032              		.file 23 "../../ChibiOS/ext/lwip/src/include/lwip/api.h"
 1033              		.file 24 "../../ChibiOS/ext/lwip/src/include/ipv4/lwip/ip.h"
 1034              		.file 25 "../../ChibiOS/ext/lwip/src/include/lwip/api_msg.h"
 1035              		.file 26 "../../ChibiOS/ext/lwip/src/include/lwip/timers.h"
 1036              		.file 27 "../../ChibiOS/ext/lwip/src/include/lwip/tcpip.h"
 1037              		.file 28 "../../ChibiOS/ext/lwip/src/include/lwip/memp.h"
 1038              		.file 29 "../../ChibiOS/os/ext/CMSIS/include/core_cm4.h"