ARM GAS  C:\Users\Luis\AppData\Local\Temp\ccRkfmdd.s 			page 1


   1              		.syntax unified
   2              		.cpu cortex-m4
   3              		.fpu softvfp
   4              		.eabi_attribute 20, 1
   5              		.eabi_attribute 21, 1
   6              		.eabi_attribute 23, 3
   7              		.eabi_attribute 24, 1
   8              		.eabi_attribute 25, 1
   9              		.eabi_attribute 26, 1
  10              		.eabi_attribute 30, 6
  11              		.eabi_attribute 34, 1
  12              		.eabi_attribute 18, 4
  13              		.thumb
  14              		.file	"tcpip.c"
  15              		.text
  16              	.Ltext0:
  17              		.cfi_sections	.debug_frame
  18              		.section	.text.osalSysHalt,"ax",%progbits
  19              		.align	2
  20              		.p2align 4,,15
  21              		.thumb
  22              		.thumb_func
  23              		.type	osalSysHalt, %function
  24              	osalSysHalt:
  25              	.LFB230:
  26              		.file 1 "../../ChibiOS/os/hal/osal/rt/osal.h"
  27              		.loc 1 460 0
  28              		.cfi_startproc
  29              		@ args = 0, pretend = 0, frame = 8
  30              		@ frame_needed = 1, uses_anonymous_args = 0
  31 0000 80B5     		push	{r7, lr}
  32              		.cfi_def_cfa_offset 8
  33              		.cfi_offset 7, -8
  34              		.cfi_offset 14, -4
  35 0002 82B0     		sub	sp, sp, #8
  36              		.cfi_def_cfa_offset 16
  37 0004 00AF     		add	r7, sp, #0
  38              		.cfi_def_cfa_register 7
  39 0006 7860     		str	r0, [r7, #4]
  40              		.loc 1 462 0
  41 0008 7868     		ldr	r0, [r7, #4]
  42 000a FFF7FEFF 		bl	chSysHalt
  43              		.loc 1 463 0
  44 000e 0837     		adds	r7, r7, #8
  45 0010 BD46     		mov	sp, r7
  46              		@ sp needed
  47 0012 80BD     		pop	{r7, pc}
  48              		.cfi_endproc
  49              	.LFE230:
  50              		.size	osalSysHalt, .-osalSysHalt
  51 0014 AFF30080 		.section	.bss.tcpip_init_done,"aw",%nobits
  51      AFF30080 
  51      AFF30080 
  52              		.align	2
  53              		.type	tcpip_init_done, %object
  54              		.size	tcpip_init_done, 4
  55              	tcpip_init_done:
ARM GAS  C:\Users\Luis\AppData\Local\Temp\ccRkfmdd.s 			page 2


  56 0000 00000000 		.space	4
  57              		.section	.bss.tcpip_init_done_arg,"aw",%nobits
  58              		.align	2
  59              		.type	tcpip_init_done_arg, %object
  60              		.size	tcpip_init_done_arg, 4
  61              	tcpip_init_done_arg:
  62 0000 00000000 		.space	4
  63              		.section	.bss.mbox,"aw",%nobits
  64              		.align	2
  65              		.type	mbox, %object
  66              		.size	mbox, 4
  67              	mbox:
  68 0000 00000000 		.space	4
  69              		.section	.rodata
  70              		.align	2
  71              	.LC0:
  72 0000 74637069 		.ascii	"tcpip_thread: invalid message\000"
  72      705F7468 
  72      72656164 
  72      3A20696E 
  72      76616C69 
  73              		.section	.text.tcpip_thread,"ax",%progbits
  74              		.align	2
  75              		.p2align 4,,15
  76              		.thumb
  77              		.thumb_func
  78              		.type	tcpip_thread, %function
  79              	tcpip_thread:
  80              	.LFB260:
  81              		.file 2 "../../ChibiOS/ext/lwip/src/api/tcpip.c"
  82              		.loc 2 75 0
  83              		.cfi_startproc
  84              		@ args = 0, pretend = 0, frame = 16
  85              		@ frame_needed = 1, uses_anonymous_args = 0
  86 0000 80B5     		push	{r7, lr}
  87              		.cfi_def_cfa_offset 8
  88              		.cfi_offset 7, -8
  89              		.cfi_offset 14, -4
  90 0002 84B0     		sub	sp, sp, #16
  91              		.cfi_def_cfa_offset 24
  92 0004 00AF     		add	r7, sp, #0
  93              		.cfi_def_cfa_register 7
  94 0006 7860     		str	r0, [r7, #4]
  95              		.loc 2 79 0
  96 0008 414B     		ldr	r3, .L15
  97 000a 1B68     		ldr	r3, [r3]
  98 000c 002B     		cmp	r3, #0
  99 000e 05D0     		beq	.L3
 100              		.loc 2 80 0
 101 0010 3F4B     		ldr	r3, .L15
 102 0012 1B68     		ldr	r3, [r3]
 103 0014 3F4A     		ldr	r2, .L15+4
 104 0016 1268     		ldr	r2, [r2]
 105 0018 1046     		mov	r0, r2
 106 001a 9847     		blx	r3
 107              	.L3:
 108              		.loc 2 88 0
ARM GAS  C:\Users\Luis\AppData\Local\Temp\ccRkfmdd.s 			page 3


 109 001c 07F10C03 		add	r3, r7, #12
 110 0020 3D48     		ldr	r0, .L15+8
 111 0022 1946     		mov	r1, r3
 112 0024 FFF7FEFF 		bl	sys_timeouts_mbox_fetch
 113              		.loc 2 90 0
 114 0028 FB68     		ldr	r3, [r7, #12]
 115 002a 1B78     		ldrb	r3, [r3]	@ zero_extendqisi2
 116 002c 052B     		cmp	r3, #5
 117 002e 69D8     		bhi	.L4
 118 0030 01A2     		adr	r2, .L6
 119 0032 52F823F0 		ldr	pc, [r2, r3, lsl #2]
 120 0036 00BF     		.p2align 2
 121              	.L6:
 122 0038 51000000 		.word	.L5+1
 123 003c 63000000 		.word	.L7+1
 124 0040 A1000000 		.word	.L8+1
 125 0044 C3000000 		.word	.L9+1
 126 0048 DF000000 		.word	.L10+1
 127 004c F7000000 		.word	.L11+1
 128              	.L5:
 129              		.loc 2 94 0
 130 0050 FB68     		ldr	r3, [r7, #12]
 131 0052 9B68     		ldr	r3, [r3, #8]
 132 0054 1B68     		ldr	r3, [r3]
 133 0056 FA68     		ldr	r2, [r7, #12]
 134 0058 9268     		ldr	r2, [r2, #8]
 135 005a 0432     		adds	r2, r2, #4
 136 005c 1046     		mov	r0, r2
 137 005e 9847     		blx	r3
 138              		.loc 2 95 0
 139 0060 54E0     		b	.L12
 140              	.L7:
 141              		.loc 2 102 0
 142 0062 FB68     		ldr	r3, [r7, #12]
 143 0064 DB68     		ldr	r3, [r3, #12]
 144 0066 93F82930 		ldrb	r3, [r3, #41]	@ zero_extendqisi2
 145 006a 03F06003 		and	r3, r3, #96
 146 006e 002B     		cmp	r3, #0
 147 0070 08D0     		beq	.L13
 148              		.loc 2 103 0
 149 0072 FB68     		ldr	r3, [r7, #12]
 150 0074 9A68     		ldr	r2, [r3, #8]
 151 0076 FB68     		ldr	r3, [r7, #12]
 152 0078 DB68     		ldr	r3, [r3, #12]
 153 007a 1046     		mov	r0, r2
 154 007c 1946     		mov	r1, r3
 155 007e FFF7FEFF 		bl	ethernet_input
 156 0082 07E0     		b	.L14
 157              	.L13:
 158              		.loc 2 107 0
 159 0084 FB68     		ldr	r3, [r7, #12]
 160 0086 9A68     		ldr	r2, [r3, #8]
 161 0088 FB68     		ldr	r3, [r7, #12]
 162 008a DB68     		ldr	r3, [r3, #12]
 163 008c 1046     		mov	r0, r2
 164 008e 1946     		mov	r1, r3
 165 0090 FFF7FEFF 		bl	ip_input
ARM GAS  C:\Users\Luis\AppData\Local\Temp\ccRkfmdd.s 			page 4


 166              	.L14:
 167              		.loc 2 109 0
 168 0094 FB68     		ldr	r3, [r7, #12]
 169 0096 0A20     		movs	r0, #10
 170 0098 1946     		mov	r1, r3
 171 009a FFF7FEFF 		bl	memp_free
 172              		.loc 2 110 0
 173 009e 35E0     		b	.L12
 174              	.L8:
 175              		.loc 2 123 0
 176 00a0 FB68     		ldr	r3, [r7, #12]
 177 00a2 9968     		ldr	r1, [r3, #8]
 178 00a4 FB68     		ldr	r3, [r7, #12]
 179 00a6 DA68     		ldr	r2, [r3, #12]
 180 00a8 FB68     		ldr	r3, [r7, #12]
 181 00aa 1B69     		ldr	r3, [r3, #16]
 182 00ac 0846     		mov	r0, r1
 183 00ae 1146     		mov	r1, r2
 184 00b0 1A46     		mov	r2, r3
 185 00b2 FFF7FEFF 		bl	sys_timeout
 186              		.loc 2 124 0
 187 00b6 FB68     		ldr	r3, [r7, #12]
 188 00b8 0920     		movs	r0, #9
 189 00ba 1946     		mov	r1, r3
 190 00bc FFF7FEFF 		bl	memp_free
 191              		.loc 2 125 0
 192 00c0 24E0     		b	.L12
 193              	.L9:
 194              		.loc 2 128 0
 195 00c2 FB68     		ldr	r3, [r7, #12]
 196 00c4 DA68     		ldr	r2, [r3, #12]
 197 00c6 FB68     		ldr	r3, [r7, #12]
 198 00c8 1B69     		ldr	r3, [r3, #16]
 199 00ca 1046     		mov	r0, r2
 200 00cc 1946     		mov	r1, r3
 201 00ce FFF7FEFF 		bl	sys_untimeout
 202              		.loc 2 129 0
 203 00d2 FB68     		ldr	r3, [r7, #12]
 204 00d4 0920     		movs	r0, #9
 205 00d6 1946     		mov	r1, r3
 206 00d8 FFF7FEFF 		bl	memp_free
 207              		.loc 2 130 0
 208 00dc 16E0     		b	.L12
 209              	.L10:
 210              		.loc 2 135 0
 211 00de FB68     		ldr	r3, [r7, #12]
 212 00e0 9B68     		ldr	r3, [r3, #8]
 213 00e2 FA68     		ldr	r2, [r7, #12]
 214 00e4 D268     		ldr	r2, [r2, #12]
 215 00e6 1046     		mov	r0, r2
 216 00e8 9847     		blx	r3
 217              		.loc 2 136 0
 218 00ea FB68     		ldr	r3, [r7, #12]
 219 00ec 0920     		movs	r0, #9
 220 00ee 1946     		mov	r1, r3
 221 00f0 FFF7FEFF 		bl	memp_free
 222              		.loc 2 137 0
ARM GAS  C:\Users\Luis\AppData\Local\Temp\ccRkfmdd.s 			page 5


 223 00f4 0AE0     		b	.L12
 224              	.L11:
 225              		.loc 2 141 0
 226 00f6 FB68     		ldr	r3, [r7, #12]
 227 00f8 9B68     		ldr	r3, [r3, #8]
 228 00fa FA68     		ldr	r2, [r7, #12]
 229 00fc D268     		ldr	r2, [r2, #12]
 230 00fe 1046     		mov	r0, r2
 231 0100 9847     		blx	r3
 232              		.loc 2 142 0
 233 0102 03E0     		b	.L12
 234              	.L4:
 235              		.loc 2 146 0
 236 0104 0548     		ldr	r0, .L15+12
 237 0106 FFF7FEFF 		bl	osalSysHalt
 238              		.loc 2 147 0
 239 010a 00BF     		nop
 240              	.L12:
 241              		.loc 2 149 0
 242 010c 86E7     		b	.L3
 243              	.L16:
 244 010e 00BF     		.align	2
 245              	.L15:
 246 0110 00000000 		.word	tcpip_init_done
 247 0114 00000000 		.word	tcpip_init_done_arg
 248 0118 00000000 		.word	mbox
 249 011c 00000000 		.word	.LC0
 250              		.cfi_endproc
 251              	.LFE260:
 252              		.size	tcpip_thread, .-tcpip_thread
 253              		.section	.text.tcpip_input,"ax",%progbits
 254              		.align	2
 255              		.p2align 4,,15
 256              		.global	tcpip_input
 257              		.thumb
 258              		.thumb_func
 259              		.type	tcpip_input, %function
 260              	tcpip_input:
 261              	.LFB261:
 262              		.loc 2 162 0
 263              		.cfi_startproc
 264              		@ args = 0, pretend = 0, frame = 16
 265              		@ frame_needed = 1, uses_anonymous_args = 0
 266 0000 80B5     		push	{r7, lr}
 267              		.cfi_def_cfa_offset 8
 268              		.cfi_offset 7, -8
 269              		.cfi_offset 14, -4
 270 0002 84B0     		sub	sp, sp, #16
 271              		.cfi_def_cfa_offset 24
 272 0004 00AF     		add	r7, sp, #0
 273              		.cfi_def_cfa_register 7
 274 0006 7860     		str	r0, [r7, #4]
 275 0008 3960     		str	r1, [r7]
 276              		.loc 2 180 0
 277 000a 1648     		ldr	r0, .L22
 278 000c FFF7FEFF 		bl	sys_mbox_valid
 279 0010 0346     		mov	r3, r0
ARM GAS  C:\Users\Luis\AppData\Local\Temp\ccRkfmdd.s 			page 6


 280 0012 002B     		cmp	r3, #0
 281 0014 01D1     		bne	.L18
 282              		.loc 2 181 0
 283 0016 FA23     		movs	r3, #250
 284 0018 1FE0     		b	.L19
 285              	.L18:
 286              		.loc 2 183 0
 287 001a 0A20     		movs	r0, #10
 288 001c FFF7FEFF 		bl	memp_malloc
 289 0020 F860     		str	r0, [r7, #12]
 290              		.loc 2 184 0
 291 0022 FB68     		ldr	r3, [r7, #12]
 292 0024 002B     		cmp	r3, #0
 293 0026 01D1     		bne	.L20
 294              		.loc 2 185 0
 295 0028 FF23     		movs	r3, #255
 296 002a 16E0     		b	.L19
 297              	.L20:
 298              		.loc 2 188 0
 299 002c FB68     		ldr	r3, [r7, #12]
 300 002e 0122     		movs	r2, #1
 301 0030 1A70     		strb	r2, [r3]
 302              		.loc 2 189 0
 303 0032 FB68     		ldr	r3, [r7, #12]
 304 0034 7A68     		ldr	r2, [r7, #4]
 305 0036 9A60     		str	r2, [r3, #8]
 306              		.loc 2 190 0
 307 0038 FB68     		ldr	r3, [r7, #12]
 308 003a 3A68     		ldr	r2, [r7]
 309 003c DA60     		str	r2, [r3, #12]
 310              		.loc 2 191 0
 311 003e 0948     		ldr	r0, .L22
 312 0040 F968     		ldr	r1, [r7, #12]
 313 0042 FFF7FEFF 		bl	sys_mbox_trypost
 314 0046 0346     		mov	r3, r0
 315 0048 002B     		cmp	r3, #0
 316 004a 05D0     		beq	.L21
 317              		.loc 2 192 0
 318 004c 0A20     		movs	r0, #10
 319 004e F968     		ldr	r1, [r7, #12]
 320 0050 FFF7FEFF 		bl	memp_free
 321              		.loc 2 193 0
 322 0054 FF23     		movs	r3, #255
 323 0056 00E0     		b	.L19
 324              	.L21:
 325              		.loc 2 195 0
 326 0058 0023     		movs	r3, #0
 327              	.L19:
 328 005a 5BB2     		sxtb	r3, r3
 329              		.loc 2 197 0
 330 005c 1846     		mov	r0, r3
 331 005e 1037     		adds	r7, r7, #16
 332 0060 BD46     		mov	sp, r7
 333              		@ sp needed
 334 0062 80BD     		pop	{r7, pc}
 335              	.L23:
 336              		.align	2
ARM GAS  C:\Users\Luis\AppData\Local\Temp\ccRkfmdd.s 			page 7


 337              	.L22:
 338 0064 00000000 		.word	mbox
 339              		.cfi_endproc
 340              	.LFE261:
 341              		.size	tcpip_input, .-tcpip_input
 342 0068 AFF30080 		.section	.text.tcpip_callback_with_block,"ax",%progbits
 342      AFF30080 
 343              		.align	2
 344              		.p2align 4,,15
 345              		.global	tcpip_callback_with_block
 346              		.thumb
 347              		.thumb_func
 348              		.type	tcpip_callback_with_block, %function
 349              	tcpip_callback_with_block:
 350              	.LFB262:
 351              		.loc 2 212 0
 352              		.cfi_startproc
 353              		@ args = 0, pretend = 0, frame = 24
 354              		@ frame_needed = 1, uses_anonymous_args = 0
 355 0000 80B5     		push	{r7, lr}
 356              		.cfi_def_cfa_offset 8
 357              		.cfi_offset 7, -8
 358              		.cfi_offset 14, -4
 359 0002 86B0     		sub	sp, sp, #24
 360              		.cfi_def_cfa_offset 32
 361 0004 00AF     		add	r7, sp, #0
 362              		.cfi_def_cfa_register 7
 363 0006 F860     		str	r0, [r7, #12]
 364 0008 B960     		str	r1, [r7, #8]
 365 000a 1346     		mov	r3, r2
 366 000c FB71     		strb	r3, [r7, #7]
 367              		.loc 2 215 0
 368 000e 1A48     		ldr	r0, .L30
 369 0010 FFF7FEFF 		bl	sys_mbox_valid
 370 0014 0346     		mov	r3, r0
 371 0016 002B     		cmp	r3, #0
 372 0018 28D0     		beq	.L25
 373              		.loc 2 216 0
 374 001a 0920     		movs	r0, #9
 375 001c FFF7FEFF 		bl	memp_malloc
 376 0020 7861     		str	r0, [r7, #20]
 377              		.loc 2 217 0
 378 0022 7B69     		ldr	r3, [r7, #20]
 379 0024 002B     		cmp	r3, #0
 380 0026 01D1     		bne	.L26
 381              		.loc 2 218 0
 382 0028 FF23     		movs	r3, #255
 383 002a 20E0     		b	.L27
 384              	.L26:
 385              		.loc 2 221 0
 386 002c 7B69     		ldr	r3, [r7, #20]
 387 002e 0422     		movs	r2, #4
 388 0030 1A70     		strb	r2, [r3]
 389              		.loc 2 222 0
 390 0032 7B69     		ldr	r3, [r7, #20]
 391 0034 FA68     		ldr	r2, [r7, #12]
 392 0036 9A60     		str	r2, [r3, #8]
ARM GAS  C:\Users\Luis\AppData\Local\Temp\ccRkfmdd.s 			page 8


 393              		.loc 2 223 0
 394 0038 7B69     		ldr	r3, [r7, #20]
 395 003a BA68     		ldr	r2, [r7, #8]
 396 003c DA60     		str	r2, [r3, #12]
 397              		.loc 2 224 0
 398 003e FB79     		ldrb	r3, [r7, #7]	@ zero_extendqisi2
 399 0040 002B     		cmp	r3, #0
 400 0042 04D0     		beq	.L28
 401              		.loc 2 225 0
 402 0044 0C48     		ldr	r0, .L30
 403 0046 7969     		ldr	r1, [r7, #20]
 404 0048 FFF7FEFF 		bl	sys_mbox_post
 405 004c 0CE0     		b	.L29
 406              	.L28:
 407              		.loc 2 227 0
 408 004e 0A48     		ldr	r0, .L30
 409 0050 7969     		ldr	r1, [r7, #20]
 410 0052 FFF7FEFF 		bl	sys_mbox_trypost
 411 0056 0346     		mov	r3, r0
 412 0058 002B     		cmp	r3, #0
 413 005a 05D0     		beq	.L29
 414              		.loc 2 228 0
 415 005c 0920     		movs	r0, #9
 416 005e 7969     		ldr	r1, [r7, #20]
 417 0060 FFF7FEFF 		bl	memp_free
 418              		.loc 2 229 0
 419 0064 FF23     		movs	r3, #255
 420 0066 02E0     		b	.L27
 421              	.L29:
 422              		.loc 2 232 0
 423 0068 0023     		movs	r3, #0
 424 006a 00E0     		b	.L27
 425              	.L25:
 426              		.loc 2 234 0
 427 006c FA23     		movs	r3, #250
 428              	.L27:
 429 006e 5BB2     		sxtb	r3, r3
 430              		.loc 2 235 0
 431 0070 1846     		mov	r0, r3
 432 0072 1837     		adds	r7, r7, #24
 433 0074 BD46     		mov	sp, r7
 434              		@ sp needed
 435 0076 80BD     		pop	{r7, pc}
 436              	.L31:
 437              		.align	2
 438              	.L30:
 439 0078 00000000 		.word	mbox
 440              		.cfi_endproc
 441              	.LFE262:
 442              		.size	tcpip_callback_with_block, .-tcpip_callback_with_block
 443 007c AFF30080 		.section	.text.tcpip_timeout,"ax",%progbits
 444              		.align	2
 445              		.p2align 4,,15
 446              		.global	tcpip_timeout
 447              		.thumb
 448              		.thumb_func
 449              		.type	tcpip_timeout, %function
ARM GAS  C:\Users\Luis\AppData\Local\Temp\ccRkfmdd.s 			page 9


 450              	tcpip_timeout:
 451              	.LFB263:
 452              		.loc 2 248 0
 453              		.cfi_startproc
 454              		@ args = 0, pretend = 0, frame = 24
 455              		@ frame_needed = 1, uses_anonymous_args = 0
 456 0000 80B5     		push	{r7, lr}
 457              		.cfi_def_cfa_offset 8
 458              		.cfi_offset 7, -8
 459              		.cfi_offset 14, -4
 460 0002 86B0     		sub	sp, sp, #24
 461              		.cfi_def_cfa_offset 32
 462 0004 00AF     		add	r7, sp, #0
 463              		.cfi_def_cfa_register 7
 464 0006 F860     		str	r0, [r7, #12]
 465 0008 B960     		str	r1, [r7, #8]
 466 000a 7A60     		str	r2, [r7, #4]
 467              		.loc 2 251 0
 468 000c 1348     		ldr	r0, .L36
 469 000e FFF7FEFF 		bl	sys_mbox_valid
 470 0012 0346     		mov	r3, r0
 471 0014 002B     		cmp	r3, #0
 472 0016 1AD0     		beq	.L33
 473              		.loc 2 252 0
 474 0018 0920     		movs	r0, #9
 475 001a FFF7FEFF 		bl	memp_malloc
 476 001e 7861     		str	r0, [r7, #20]
 477              		.loc 2 253 0
 478 0020 7B69     		ldr	r3, [r7, #20]
 479 0022 002B     		cmp	r3, #0
 480 0024 01D1     		bne	.L34
 481              		.loc 2 254 0
 482 0026 FF23     		movs	r3, #255
 483 0028 12E0     		b	.L35
 484              	.L34:
 485              		.loc 2 257 0
 486 002a 7B69     		ldr	r3, [r7, #20]
 487 002c 0222     		movs	r2, #2
 488 002e 1A70     		strb	r2, [r3]
 489              		.loc 2 258 0
 490 0030 7B69     		ldr	r3, [r7, #20]
 491 0032 FA68     		ldr	r2, [r7, #12]
 492 0034 9A60     		str	r2, [r3, #8]
 493              		.loc 2 259 0
 494 0036 7B69     		ldr	r3, [r7, #20]
 495 0038 BA68     		ldr	r2, [r7, #8]
 496 003a DA60     		str	r2, [r3, #12]
 497              		.loc 2 260 0
 498 003c 7B69     		ldr	r3, [r7, #20]
 499 003e 7A68     		ldr	r2, [r7, #4]
 500 0040 1A61     		str	r2, [r3, #16]
 501              		.loc 2 261 0
 502 0042 0648     		ldr	r0, .L36
 503 0044 7969     		ldr	r1, [r7, #20]
 504 0046 FFF7FEFF 		bl	sys_mbox_post
 505              		.loc 2 262 0
 506 004a 0023     		movs	r3, #0
ARM GAS  C:\Users\Luis\AppData\Local\Temp\ccRkfmdd.s 			page 10


 507 004c 00E0     		b	.L35
 508              	.L33:
 509              		.loc 2 264 0
 510 004e FA23     		movs	r3, #250
 511              	.L35:
 512 0050 5BB2     		sxtb	r3, r3
 513              		.loc 2 265 0
 514 0052 1846     		mov	r0, r3
 515 0054 1837     		adds	r7, r7, #24
 516 0056 BD46     		mov	sp, r7
 517              		@ sp needed
 518 0058 80BD     		pop	{r7, pc}
 519              	.L37:
 520 005a 00BF     		.align	2
 521              	.L36:
 522 005c 00000000 		.word	mbox
 523              		.cfi_endproc
 524              	.LFE263:
 525              		.size	tcpip_timeout, .-tcpip_timeout
 526              		.section	.text.tcpip_untimeout,"ax",%progbits
 527              		.align	2
 528              		.p2align 4,,15
 529              		.global	tcpip_untimeout
 530              		.thumb
 531              		.thumb_func
 532              		.type	tcpip_untimeout, %function
 533              	tcpip_untimeout:
 534              	.LFB264:
 535              		.loc 2 277 0
 536              		.cfi_startproc
 537              		@ args = 0, pretend = 0, frame = 16
 538              		@ frame_needed = 1, uses_anonymous_args = 0
 539 0000 80B5     		push	{r7, lr}
 540              		.cfi_def_cfa_offset 8
 541              		.cfi_offset 7, -8
 542              		.cfi_offset 14, -4
 543 0002 84B0     		sub	sp, sp, #16
 544              		.cfi_def_cfa_offset 24
 545 0004 00AF     		add	r7, sp, #0
 546              		.cfi_def_cfa_register 7
 547 0006 7860     		str	r0, [r7, #4]
 548 0008 3960     		str	r1, [r7]
 549              		.loc 2 280 0
 550 000a 1248     		ldr	r0, .L42
 551 000c FFF7FEFF 		bl	sys_mbox_valid
 552 0010 0346     		mov	r3, r0
 553 0012 002B     		cmp	r3, #0
 554 0014 17D0     		beq	.L39
 555              		.loc 2 281 0
 556 0016 0920     		movs	r0, #9
 557 0018 FFF7FEFF 		bl	memp_malloc
 558 001c F860     		str	r0, [r7, #12]
 559              		.loc 2 282 0
 560 001e FB68     		ldr	r3, [r7, #12]
 561 0020 002B     		cmp	r3, #0
 562 0022 01D1     		bne	.L40
 563              		.loc 2 283 0
ARM GAS  C:\Users\Luis\AppData\Local\Temp\ccRkfmdd.s 			page 11


 564 0024 FF23     		movs	r3, #255
 565 0026 0FE0     		b	.L41
 566              	.L40:
 567              		.loc 2 286 0
 568 0028 FB68     		ldr	r3, [r7, #12]
 569 002a 0322     		movs	r2, #3
 570 002c 1A70     		strb	r2, [r3]
 571              		.loc 2 287 0
 572 002e FB68     		ldr	r3, [r7, #12]
 573 0030 7A68     		ldr	r2, [r7, #4]
 574 0032 DA60     		str	r2, [r3, #12]
 575              		.loc 2 288 0
 576 0034 FB68     		ldr	r3, [r7, #12]
 577 0036 3A68     		ldr	r2, [r7]
 578 0038 1A61     		str	r2, [r3, #16]
 579              		.loc 2 289 0
 580 003a 0648     		ldr	r0, .L42
 581 003c F968     		ldr	r1, [r7, #12]
 582 003e FFF7FEFF 		bl	sys_mbox_post
 583              		.loc 2 290 0
 584 0042 0023     		movs	r3, #0
 585 0044 00E0     		b	.L41
 586              	.L39:
 587              		.loc 2 292 0
 588 0046 FA23     		movs	r3, #250
 589              	.L41:
 590 0048 5BB2     		sxtb	r3, r3
 591              		.loc 2 293 0
 592 004a 1846     		mov	r0, r3
 593 004c 1037     		adds	r7, r7, #16
 594 004e BD46     		mov	sp, r7
 595              		@ sp needed
 596 0050 80BD     		pop	{r7, pc}
 597              	.L43:
 598 0052 00BF     		.align	2
 599              	.L42:
 600 0054 00000000 		.word	mbox
 601              		.cfi_endproc
 602              	.LFE264:
 603              		.size	tcpip_untimeout, .-tcpip_untimeout
 604 0058 AFF30080 		.section	.text.tcpip_apimsg,"ax",%progbits
 604      AFF30080 
 605              		.align	2
 606              		.p2align 4,,15
 607              		.global	tcpip_apimsg
 608              		.thumb
 609              		.thumb_func
 610              		.type	tcpip_apimsg, %function
 611              	tcpip_apimsg:
 612              	.LFB265:
 613              		.loc 2 307 0
 614              		.cfi_startproc
 615              		@ args = 0, pretend = 0, frame = 32
 616              		@ frame_needed = 1, uses_anonymous_args = 0
 617 0000 80B5     		push	{r7, lr}
 618              		.cfi_def_cfa_offset 8
 619              		.cfi_offset 7, -8
ARM GAS  C:\Users\Luis\AppData\Local\Temp\ccRkfmdd.s 			page 12


 620              		.cfi_offset 14, -4
 621 0002 88B0     		sub	sp, sp, #32
 622              		.cfi_def_cfa_offset 40
 623 0004 00AF     		add	r7, sp, #0
 624              		.cfi_def_cfa_register 7
 625 0006 7860     		str	r0, [r7, #4]
 626              		.loc 2 314 0
 627 0008 0F48     		ldr	r0, .L48
 628 000a FFF7FEFF 		bl	sys_mbox_valid
 629 000e 0346     		mov	r3, r0
 630 0010 002B     		cmp	r3, #0
 631 0012 13D0     		beq	.L45
 632              		.loc 2 315 0
 633 0014 0023     		movs	r3, #0
 634 0016 3B73     		strb	r3, [r7, #12]
 635              		.loc 2 316 0
 636 0018 7B68     		ldr	r3, [r7, #4]
 637 001a 7B61     		str	r3, [r7, #20]
 638              		.loc 2 317 0
 639 001c 07F10C03 		add	r3, r7, #12
 640 0020 0948     		ldr	r0, .L48
 641 0022 1946     		mov	r1, r3
 642 0024 FFF7FEFF 		bl	sys_mbox_post
 643              		.loc 2 318 0
 644 0028 7B68     		ldr	r3, [r7, #4]
 645 002a 5B68     		ldr	r3, [r3, #4]
 646 002c 0C33     		adds	r3, r3, #12
 647 002e 1846     		mov	r0, r3
 648 0030 0021     		movs	r1, #0
 649 0032 FFF7FEFF 		bl	sys_arch_sem_wait
 650              		.loc 2 319 0
 651 0036 7B68     		ldr	r3, [r7, #4]
 652 0038 1B7A     		ldrb	r3, [r3, #8]	@ zero_extendqisi2
 653 003a 00E0     		b	.L47
 654              	.L45:
 655              		.loc 2 321 0
 656 003c FA23     		movs	r3, #250
 657              	.L47:
 658 003e 5BB2     		sxtb	r3, r3
 659              		.loc 2 322 0
 660 0040 1846     		mov	r0, r3
 661 0042 2037     		adds	r7, r7, #32
 662 0044 BD46     		mov	sp, r7
 663              		@ sp needed
 664 0046 80BD     		pop	{r7, pc}
 665              	.L49:
 666              		.align	2
 667              	.L48:
 668 0048 00000000 		.word	mbox
 669              		.cfi_endproc
 670              	.LFE265:
 671              		.size	tcpip_apimsg, .-tcpip_apimsg
 672 004c AFF30080 		.section	.text.tcpip_callbackmsg_new,"ax",%progbits
 673              		.align	2
 674              		.p2align 4,,15
 675              		.global	tcpip_callbackmsg_new
 676              		.thumb
ARM GAS  C:\Users\Luis\AppData\Local\Temp\ccRkfmdd.s 			page 13


 677              		.thumb_func
 678              		.type	tcpip_callbackmsg_new, %function
 679              	tcpip_callbackmsg_new:
 680              	.LFB266:
 681              		.loc 2 409 0
 682              		.cfi_startproc
 683              		@ args = 0, pretend = 0, frame = 16
 684              		@ frame_needed = 1, uses_anonymous_args = 0
 685 0000 80B5     		push	{r7, lr}
 686              		.cfi_def_cfa_offset 8
 687              		.cfi_offset 7, -8
 688              		.cfi_offset 14, -4
 689 0002 84B0     		sub	sp, sp, #16
 690              		.cfi_def_cfa_offset 24
 691 0004 00AF     		add	r7, sp, #0
 692              		.cfi_def_cfa_register 7
 693 0006 7860     		str	r0, [r7, #4]
 694 0008 3960     		str	r1, [r7]
 695              		.loc 2 410 0
 696 000a 0920     		movs	r0, #9
 697 000c FFF7FEFF 		bl	memp_malloc
 698 0010 F860     		str	r0, [r7, #12]
 699              		.loc 2 411 0
 700 0012 FB68     		ldr	r3, [r7, #12]
 701 0014 002B     		cmp	r3, #0
 702 0016 01D1     		bne	.L51
 703              		.loc 2 412 0
 704 0018 0023     		movs	r3, #0
 705 001a 09E0     		b	.L52
 706              	.L51:
 707              		.loc 2 414 0
 708 001c FB68     		ldr	r3, [r7, #12]
 709 001e 0522     		movs	r2, #5
 710 0020 1A70     		strb	r2, [r3]
 711              		.loc 2 415 0
 712 0022 FB68     		ldr	r3, [r7, #12]
 713 0024 7A68     		ldr	r2, [r7, #4]
 714 0026 9A60     		str	r2, [r3, #8]
 715              		.loc 2 416 0
 716 0028 FB68     		ldr	r3, [r7, #12]
 717 002a 3A68     		ldr	r2, [r7]
 718 002c DA60     		str	r2, [r3, #12]
 719              		.loc 2 417 0
 720 002e FB68     		ldr	r3, [r7, #12]
 721              	.L52:
 722              		.loc 2 418 0
 723 0030 1846     		mov	r0, r3
 724 0032 1037     		adds	r7, r7, #16
 725 0034 BD46     		mov	sp, r7
 726              		@ sp needed
 727 0036 80BD     		pop	{r7, pc}
 728              		.cfi_endproc
 729              	.LFE266:
 730              		.size	tcpip_callbackmsg_new, .-tcpip_callbackmsg_new
 731 0038 AFF30080 		.section	.text.tcpip_callbackmsg_delete,"ax",%progbits
 731      AFF30080 
 732              		.align	2
ARM GAS  C:\Users\Luis\AppData\Local\Temp\ccRkfmdd.s 			page 14


 733              		.p2align 4,,15
 734              		.global	tcpip_callbackmsg_delete
 735              		.thumb
 736              		.thumb_func
 737              		.type	tcpip_callbackmsg_delete, %function
 738              	tcpip_callbackmsg_delete:
 739              	.LFB267:
 740              		.loc 2 426 0
 741              		.cfi_startproc
 742              		@ args = 0, pretend = 0, frame = 8
 743              		@ frame_needed = 1, uses_anonymous_args = 0
 744 0000 80B5     		push	{r7, lr}
 745              		.cfi_def_cfa_offset 8
 746              		.cfi_offset 7, -8
 747              		.cfi_offset 14, -4
 748 0002 82B0     		sub	sp, sp, #8
 749              		.cfi_def_cfa_offset 16
 750 0004 00AF     		add	r7, sp, #0
 751              		.cfi_def_cfa_register 7
 752 0006 7860     		str	r0, [r7, #4]
 753              		.loc 2 427 0
 754 0008 0920     		movs	r0, #9
 755 000a 7968     		ldr	r1, [r7, #4]
 756 000c FFF7FEFF 		bl	memp_free
 757              		.loc 2 428 0
 758 0010 0837     		adds	r7, r7, #8
 759 0012 BD46     		mov	sp, r7
 760              		@ sp needed
 761 0014 80BD     		pop	{r7, pc}
 762              		.cfi_endproc
 763              	.LFE267:
 764              		.size	tcpip_callbackmsg_delete, .-tcpip_callbackmsg_delete
 765 0016 00BFAFF3 		.section	.text.tcpip_trycallback,"ax",%progbits
 765      0080AFF3 
 765      0080
 766              		.align	2
 767              		.p2align 4,,15
 768              		.global	tcpip_trycallback
 769              		.thumb
 770              		.thumb_func
 771              		.type	tcpip_trycallback, %function
 772              	tcpip_trycallback:
 773              	.LFB268:
 774              		.loc 2 439 0
 775              		.cfi_startproc
 776              		@ args = 0, pretend = 0, frame = 8
 777              		@ frame_needed = 1, uses_anonymous_args = 0
 778 0000 80B5     		push	{r7, lr}
 779              		.cfi_def_cfa_offset 8
 780              		.cfi_offset 7, -8
 781              		.cfi_offset 14, -4
 782 0002 82B0     		sub	sp, sp, #8
 783              		.cfi_def_cfa_offset 16
 784 0004 00AF     		add	r7, sp, #0
 785              		.cfi_def_cfa_register 7
 786 0006 7860     		str	r0, [r7, #4]
 787              		.loc 2 440 0
ARM GAS  C:\Users\Luis\AppData\Local\Temp\ccRkfmdd.s 			page 15


 788 0008 0848     		ldr	r0, .L57
 789 000a FFF7FEFF 		bl	sys_mbox_valid
 790 000e 0346     		mov	r3, r0
 791 0010 002B     		cmp	r3, #0
 792 0012 01D1     		bne	.L55
 793              		.loc 2 441 0
 794 0014 FA23     		movs	r3, #250
 795 0016 04E0     		b	.L56
 796              	.L55:
 797              		.loc 2 443 0
 798 0018 0448     		ldr	r0, .L57
 799 001a 7968     		ldr	r1, [r7, #4]
 800 001c FFF7FEFF 		bl	sys_mbox_trypost
 801 0020 0346     		mov	r3, r0
 802              	.L56:
 803 0022 5BB2     		sxtb	r3, r3
 804              		.loc 2 444 0
 805 0024 1846     		mov	r0, r3
 806 0026 0837     		adds	r7, r7, #8
 807 0028 BD46     		mov	sp, r7
 808              		@ sp needed
 809 002a 80BD     		pop	{r7, pc}
 810              	.L58:
 811              		.align	2
 812              	.L57:
 813 002c 00000000 		.word	mbox
 814              		.cfi_endproc
 815              	.LFE268:
 816              		.size	tcpip_trycallback, .-tcpip_trycallback
 817              		.section	.rodata
 818 001e 0000     		.align	2
 819              	.LC1:
 820 0020 6661696C 		.ascii	"failed to create tcpip_thread mbox\000"
 820      65642074 
 820      6F206372 
 820      65617465 
 820      20746370 
 821 0043 00       		.align	2
 822              	.LC2:
 823 0044 74637069 		.ascii	"tcpip_thread\000"
 823      705F7468 
 823      72656164 
 823      00
 824 0051 000000   		.section	.text.tcpip_init,"ax",%progbits
 825              		.align	2
 826              		.p2align 4,,15
 827              		.global	tcpip_init
 828              		.thumb
 829              		.thumb_func
 830              		.type	tcpip_init, %function
 831              	tcpip_init:
 832              	.LFB269:
 833              		.loc 2 456 0
 834              		.cfi_startproc
 835              		@ args = 0, pretend = 0, frame = 8
 836              		@ frame_needed = 1, uses_anonymous_args = 0
 837 0000 80B5     		push	{r7, lr}
ARM GAS  C:\Users\Luis\AppData\Local\Temp\ccRkfmdd.s 			page 16


 838              		.cfi_def_cfa_offset 8
 839              		.cfi_offset 7, -8
 840              		.cfi_offset 14, -4
 841 0002 84B0     		sub	sp, sp, #16
 842              		.cfi_def_cfa_offset 24
 843 0004 02AF     		add	r7, sp, #8
 844              		.cfi_def_cfa 7, 16
 845 0006 7860     		str	r0, [r7, #4]
 846 0008 3960     		str	r1, [r7]
 847              		.loc 2 457 0
 848 000a FFF7FEFF 		bl	lwip_init
 849              		.loc 2 459 0
 850 000e 0E4B     		ldr	r3, .L61
 851 0010 7A68     		ldr	r2, [r7, #4]
 852 0012 1A60     		str	r2, [r3]
 853              		.loc 2 460 0
 854 0014 0D4B     		ldr	r3, .L61+4
 855 0016 3A68     		ldr	r2, [r7]
 856 0018 1A60     		str	r2, [r3]
 857              		.loc 2 461 0
 858 001a 0D48     		ldr	r0, .L61+8
 859 001c 1021     		movs	r1, #16
 860 001e FFF7FEFF 		bl	sys_mbox_new
 861 0022 0346     		mov	r3, r0
 862 0024 002B     		cmp	r3, #0
 863 0026 02D0     		beq	.L60
 864              		.loc 2 462 0 discriminator 1
 865 0028 0A48     		ldr	r0, .L61+12
 866 002a FFF7FEFF 		bl	osalSysHalt
 867              	.L60:
 868              		.loc 2 470 0
 869 002e 0323     		movs	r3, #3
 870 0030 0093     		str	r3, [sp]
 871 0032 0948     		ldr	r0, .L61+16
 872 0034 0949     		ldr	r1, .L61+20
 873 0036 0022     		movs	r2, #0
 874 0038 4FF48063 		mov	r3, #1024
 875 003c FFF7FEFF 		bl	sys_thread_new
 876              		.loc 2 471 0
 877 0040 0837     		adds	r7, r7, #8
 878 0042 BD46     		mov	sp, r7
 879              		@ sp needed
 880 0044 80BD     		pop	{r7, pc}
 881              	.L62:
 882 0046 00BF     		.align	2
 883              	.L61:
 884 0048 00000000 		.word	tcpip_init_done
 885 004c 00000000 		.word	tcpip_init_done_arg
 886 0050 00000000 		.word	mbox
 887 0054 20000000 		.word	.LC1
 888 0058 44000000 		.word	.LC2
 889 005c 00000000 		.word	tcpip_thread
 890              		.cfi_endproc
 891              	.LFE269:
 892              		.size	tcpip_init, .-tcpip_init
 893              		.section	.text.pbuf_free_int,"ax",%progbits
 894              		.align	2
ARM GAS  C:\Users\Luis\AppData\Local\Temp\ccRkfmdd.s 			page 17


 895              		.p2align 4,,15
 896              		.thumb
 897              		.thumb_func
 898              		.type	pbuf_free_int, %function
 899              	pbuf_free_int:
 900              	.LFB270:
 901              		.loc 2 481 0
 902              		.cfi_startproc
 903              		@ args = 0, pretend = 0, frame = 16
 904              		@ frame_needed = 1, uses_anonymous_args = 0
 905 0000 80B5     		push	{r7, lr}
 906              		.cfi_def_cfa_offset 8
 907              		.cfi_offset 7, -8
 908              		.cfi_offset 14, -4
 909 0002 84B0     		sub	sp, sp, #16
 910              		.cfi_def_cfa_offset 24
 911 0004 00AF     		add	r7, sp, #0
 912              		.cfi_def_cfa_register 7
 913 0006 7860     		str	r0, [r7, #4]
 914              		.loc 2 482 0
 915 0008 7B68     		ldr	r3, [r7, #4]
 916 000a FB60     		str	r3, [r7, #12]
 917              		.loc 2 483 0
 918 000c F868     		ldr	r0, [r7, #12]
 919 000e FFF7FEFF 		bl	pbuf_free
 920              		.loc 2 484 0
 921 0012 1037     		adds	r7, r7, #16
 922 0014 BD46     		mov	sp, r7
 923              		@ sp needed
 924 0016 80BD     		pop	{r7, pc}
 925              		.cfi_endproc
 926              	.LFE270:
 927              		.size	pbuf_free_int, .-pbuf_free_int
 928 0018 AFF30080 		.section	.text.pbuf_free_callback,"ax",%progbits
 928      AFF30080 
 929              		.align	2
 930              		.p2align 4,,15
 931              		.global	pbuf_free_callback
 932              		.thumb
 933              		.thumb_func
 934              		.type	pbuf_free_callback, %function
 935              	pbuf_free_callback:
 936              	.LFB271:
 937              		.loc 2 494 0
 938              		.cfi_startproc
 939              		@ args = 0, pretend = 0, frame = 8
 940              		@ frame_needed = 1, uses_anonymous_args = 0
 941 0000 80B5     		push	{r7, lr}
 942              		.cfi_def_cfa_offset 8
 943              		.cfi_offset 7, -8
 944              		.cfi_offset 14, -4
 945 0002 82B0     		sub	sp, sp, #8
 946              		.cfi_def_cfa_offset 16
 947 0004 00AF     		add	r7, sp, #0
 948              		.cfi_def_cfa_register 7
 949 0006 7860     		str	r0, [r7, #4]
 950              		.loc 2 495 0
ARM GAS  C:\Users\Luis\AppData\Local\Temp\ccRkfmdd.s 			page 18


 951 0008 0448     		ldr	r0, .L66
 952 000a 7968     		ldr	r1, [r7, #4]
 953 000c 0022     		movs	r2, #0
 954 000e FFF7FEFF 		bl	tcpip_callback_with_block
 955 0012 0346     		mov	r3, r0
 956              		.loc 2 496 0
 957 0014 1846     		mov	r0, r3
 958 0016 0837     		adds	r7, r7, #8
 959 0018 BD46     		mov	sp, r7
 960              		@ sp needed
 961 001a 80BD     		pop	{r7, pc}
 962              	.L67:
 963              		.align	2
 964              	.L66:
 965 001c 00000000 		.word	pbuf_free_int
 966              		.cfi_endproc
 967              	.LFE271:
 968              		.size	pbuf_free_callback, .-pbuf_free_callback
 969              		.section	.text.mem_free_callback,"ax",%progbits
 970              		.align	2
 971              		.p2align 4,,15
 972              		.global	mem_free_callback
 973              		.thumb
 974              		.thumb_func
 975              		.type	mem_free_callback, %function
 976              	mem_free_callback:
 977              	.LFB272:
 978              		.loc 2 507 0
 979              		.cfi_startproc
 980              		@ args = 0, pretend = 0, frame = 8
 981              		@ frame_needed = 1, uses_anonymous_args = 0
 982 0000 80B5     		push	{r7, lr}
 983              		.cfi_def_cfa_offset 8
 984              		.cfi_offset 7, -8
 985              		.cfi_offset 14, -4
 986 0002 82B0     		sub	sp, sp, #8
 987              		.cfi_def_cfa_offset 16
 988 0004 00AF     		add	r7, sp, #0
 989              		.cfi_def_cfa_register 7
 990 0006 7860     		str	r0, [r7, #4]
 991              		.loc 2 508 0
 992 0008 0448     		ldr	r0, .L70
 993 000a 7968     		ldr	r1, [r7, #4]
 994 000c 0022     		movs	r2, #0
 995 000e FFF7FEFF 		bl	tcpip_callback_with_block
 996 0012 0346     		mov	r3, r0
 997              		.loc 2 509 0
 998 0014 1846     		mov	r0, r3
 999 0016 0837     		adds	r7, r7, #8
 1000 0018 BD46     		mov	sp, r7
 1001              		@ sp needed
 1002 001a 80BD     		pop	{r7, pc}
 1003              	.L71:
 1004              		.align	2
 1005              	.L70:
 1006 001c 00000000 		.word	mem_free
 1007              		.cfi_endproc
ARM GAS  C:\Users\Luis\AppData\Local\Temp\ccRkfmdd.s 			page 19


 1008              	.LFE272:
 1009              		.size	mem_free_callback, .-mem_free_callback
 1010              		.text
 1011              	.Letext0:
 1012              		.file 3 "c:\\emtechesdk\\gcc\\lib\\gcc\\arm-none-eabi\\4.8.3\\include\\stddef.h"
 1013              		.file 4 "c:\\emtechesdk\\gcc\\arm-none-eabi\\include\\stdint.h"
 1014              		.file 5 "../../ChibiOS/os/rt/ports/ARMCMx/compilers/GCC/chtypes.h"
 1015              		.file 6 "../../ChibiOS/os/rt/include/chsystypes.h"
 1016              		.file 7 "../../ChibiOS/os/rt/include/chschd.h"
 1017              		.file 8 "../../ChibiOS/os/rt/ports/ARMCMx/chcore.h"
 1018              		.file 9 "../../ChibiOS/os/rt/ports/ARMCMx/chcore_v7m.h"
 1019              		.file 10 "../../ChibiOS/os/rt/include/chdebug.h"
 1020              		.file 11 "../../ChibiOS/os/rt/include/chtm.h"
 1021              		.file 12 "../../ChibiOS/os/rt/include/chstats.h"
 1022              		.file 13 "../../ChibiOS/os/rt/include/chsem.h"
 1023              		.file 14 "../../ChibiOS/os/rt/include/chmtx.h"
 1024              		.file 15 "../../ChibiOS/os/rt/include/chmboxes.h"
 1025              		.file 16 "../../ChibiOS/os/various/lwip_bindings/arch/cc.h"
 1026              		.file 17 "../../ChibiOS/ext/lwip/src/include/lwip/err.h"
 1027              		.file 18 "../../ChibiOS/os/various/lwip_bindings/arch/sys_arch.h"
 1028              		.file 19 "../../ChibiOS/ext/lwip/src/include/lwip/pbuf.h"
 1029              		.file 20 "../../ChibiOS/ext/lwip/src/include/ipv4/lwip/ip_addr.h"
 1030              		.file 21 "../../ChibiOS/ext/lwip/src/include/lwip/netif.h"
 1031              		.file 22 "../../ChibiOS/ext/lwip/src/include/lwip/netbuf.h"
 1032              		.file 23 "../../ChibiOS/ext/lwip/src/include/lwip/api.h"
 1033              		.file 24 "../../ChibiOS/ext/lwip/src/include/ipv4/lwip/ip.h"
 1034              		.file 25 "../../ChibiOS/ext/lwip/src/include/lwip/api_msg.h"
 1035              		.file 26 "../../ChibiOS/ext/lwip/src/include/lwip/timers.h"
 1036              		.file 27 "../../ChibiOS/ext/lwip/src/include/lwip/tcpip.h"
 1037              		.file 28 "../../ChibiOS/ext/lwip/src/include/lwip/memp.h"
 1038              		.file 29 "../../ChibiOS/os/ext/CMSIS/include/core_cm4.h"
 1039              		.section	.debug_info,"",%progbits
 1040              	.Ldebug_info0:
 1041 0000 03130000 		.4byte	0x1303
 1042 0004 0400     		.2byte	0x4
 1043 0006 00000000 		.4byte	.Ldebug_abbrev0
 1044 000a 04       		.byte	0x4
 1045 000b 01       		.uleb128 0x1
 1046 000c 04070000 		.4byte	.LASF263
 1047 0010 01       		.byte	0x1
 1048 0011 25010000 		.4byte	.LASF264
 1049 0015 1B0B0000 		.4byte	.LASF265
 1050 0019 00000000 		.4byte	.Ldebug_ranges0+0
 1051 001d 00000000 		.4byte	0
 1052 0021 00000000 		.4byte	.Ldebug_line0
 1053 0025 02       		.uleb128 0x2
 1054 0026 04       		.byte	0x4
 1055 0027 05       		.byte	0x5
 1056 0028 696E7400 		.ascii	"int\000"
 1057 002c 03       		.uleb128 0x3
 1058 002d 0F000000 		.4byte	.LASF1
 1059 0031 03       		.byte	0x3
 1060 0032 D4       		.byte	0xd4
 1061 0033 37000000 		.4byte	0x37
 1062 0037 04       		.uleb128 0x4
 1063 0038 04       		.byte	0x4
 1064 0039 07       		.byte	0x7
ARM GAS  C:\Users\Luis\AppData\Local\Temp\ccRkfmdd.s 			page 20


 1065 003a A0060000 		.4byte	.LASF0
 1066 003e 03       		.uleb128 0x3
 1067 003f 00000000 		.4byte	.LASF2
 1068 0043 04       		.byte	0x4
 1069 0044 29       		.byte	0x29
 1070 0045 49000000 		.4byte	0x49
 1071 0049 04       		.uleb128 0x4
 1072 004a 01       		.byte	0x1
 1073 004b 06       		.byte	0x6
 1074 004c 31020000 		.4byte	.LASF3
 1075 0050 03       		.uleb128 0x3
 1076 0051 44020000 		.4byte	.LASF4
 1077 0055 04       		.byte	0x4
 1078 0056 2A       		.byte	0x2a
 1079 0057 5B000000 		.4byte	0x5b
 1080 005b 04       		.uleb128 0x4
 1081 005c 01       		.byte	0x1
 1082 005d 08       		.byte	0x8
 1083 005e AD020000 		.4byte	.LASF5
 1084 0062 04       		.uleb128 0x4
 1085 0063 02       		.byte	0x2
 1086 0064 05       		.byte	0x5
 1087 0065 820A0000 		.4byte	.LASF6
 1088 0069 03       		.uleb128 0x3
 1089 006a 2F090000 		.4byte	.LASF7
 1090 006e 04       		.byte	0x4
 1091 006f 36       		.byte	0x36
 1092 0070 74000000 		.4byte	0x74
 1093 0074 04       		.uleb128 0x4
 1094 0075 02       		.byte	0x2
 1095 0076 07       		.byte	0x7
 1096 0077 F70B0000 		.4byte	.LASF8
 1097 007b 03       		.uleb128 0x3
 1098 007c 74000000 		.4byte	.LASF9
 1099 0080 04       		.byte	0x4
 1100 0081 4F       		.byte	0x4f
 1101 0082 86000000 		.4byte	0x86
 1102 0086 04       		.uleb128 0x4
 1103 0087 04       		.byte	0x4
 1104 0088 05       		.byte	0x5
 1105 0089 92010000 		.4byte	.LASF10
 1106 008d 03       		.uleb128 0x3
 1107 008e A50B0000 		.4byte	.LASF11
 1108 0092 04       		.byte	0x4
 1109 0093 50       		.byte	0x50
 1110 0094 98000000 		.4byte	0x98
 1111 0098 04       		.uleb128 0x4
 1112 0099 04       		.byte	0x4
 1113 009a 07       		.byte	0x7
 1114 009b D3040000 		.4byte	.LASF12
 1115 009f 04       		.uleb128 0x4
 1116 00a0 08       		.byte	0x8
 1117 00a1 05       		.byte	0x5
 1118 00a2 FC050000 		.4byte	.LASF13
 1119 00a6 03       		.uleb128 0x3
 1120 00a7 9B0A0000 		.4byte	.LASF14
 1121 00ab 04       		.byte	0x4
ARM GAS  C:\Users\Luis\AppData\Local\Temp\ccRkfmdd.s 			page 21


 1122 00ac 78       		.byte	0x78
 1123 00ad B1000000 		.4byte	0xb1
 1124 00b1 04       		.uleb128 0x4
 1125 00b2 08       		.byte	0x8
 1126 00b3 07       		.byte	0x7
 1127 00b4 F6080000 		.4byte	.LASF15
 1128 00b8 05       		.uleb128 0x5
 1129 00b9 7B000000 		.4byte	0x7b
 1130 00bd 03       		.uleb128 0x3
 1131 00be B3060000 		.4byte	.LASF16
 1132 00c2 05       		.byte	0x5
 1133 00c3 45       		.byte	0x45
 1134 00c4 8D000000 		.4byte	0x8d
 1135 00c8 03       		.uleb128 0x3
 1136 00c9 CA010000 		.4byte	.LASF17
 1137 00cd 05       		.byte	0x5
 1138 00ce 46       		.byte	0x46
 1139 00cf A6000000 		.4byte	0xa6
 1140 00d3 03       		.uleb128 0x3
 1141 00d4 090A0000 		.4byte	.LASF18
 1142 00d8 05       		.byte	0x5
 1143 00d9 48       		.byte	0x48
 1144 00da 50000000 		.4byte	0x50
 1145 00de 03       		.uleb128 0x3
 1146 00df C1010000 		.4byte	.LASF19
 1147 00e3 05       		.byte	0x5
 1148 00e4 49       		.byte	0x49
 1149 00e5 50000000 		.4byte	0x50
 1150 00e9 03       		.uleb128 0x3
 1151 00ea 7C0B0000 		.4byte	.LASF20
 1152 00ee 05       		.byte	0x5
 1153 00ef 4A       		.byte	0x4a
 1154 00f0 50000000 		.4byte	0x50
 1155 00f4 03       		.uleb128 0x3
 1156 00f5 36000000 		.4byte	.LASF21
 1157 00f9 05       		.byte	0x5
 1158 00fa 4C       		.byte	0x4c
 1159 00fb 8D000000 		.4byte	0x8d
 1160 00ff 03       		.uleb128 0x3
 1161 0100 38090000 		.4byte	.LASF22
 1162 0104 05       		.byte	0x5
 1163 0105 4D       		.byte	0x4d
 1164 0106 7B000000 		.4byte	0x7b
 1165 010a 03       		.uleb128 0x3
 1166 010b 81020000 		.4byte	.LASF23
 1167 010f 05       		.byte	0x5
 1168 0110 4F       		.byte	0x4f
 1169 0111 8D000000 		.4byte	0x8d
 1170 0115 03       		.uleb128 0x3
 1171 0116 DF030000 		.4byte	.LASF24
 1172 011a 05       		.byte	0x5
 1173 011b 51       		.byte	0x51
 1174 011c 7B000000 		.4byte	0x7b
 1175 0120 03       		.uleb128 0x3
 1176 0121 73050000 		.4byte	.LASF25
 1177 0125 05       		.byte	0x5
 1178 0126 52       		.byte	0x52
ARM GAS  C:\Users\Luis\AppData\Local\Temp\ccRkfmdd.s 			page 22


 1179 0127 8D000000 		.4byte	0x8d
 1180 012b 03       		.uleb128 0x3
 1181 012c 26000000 		.4byte	.LASF26
 1182 0130 06       		.byte	0x6
 1183 0131 33       		.byte	0x33
 1184 0132 8D000000 		.4byte	0x8d
 1185 0136 03       		.uleb128 0x3
 1186 0137 5F080000 		.4byte	.LASF27
 1187 013b 06       		.byte	0x6
 1188 013c 3F       		.byte	0x3f
 1189 013d 41010000 		.4byte	0x141
 1190 0141 06       		.uleb128 0x6
 1191 0142 0D050000 		.4byte	.LASF50
 1192 0146 68       		.byte	0x68
 1193 0147 07       		.byte	0x7
 1194 0148 C2       		.byte	0xc2
 1195 0149 54020000 		.4byte	0x254
 1196 014d 07       		.uleb128 0x7
 1197 014e 9B010000 		.4byte	.LASF28
 1198 0152 07       		.byte	0x7
 1199 0153 C3       		.byte	0xc3
 1200 0154 5F020000 		.4byte	0x25f
 1201 0158 00       		.byte	0
 1202 0159 07       		.uleb128 0x7
 1203 015a A2010000 		.4byte	.LASF29
 1204 015e 07       		.byte	0x7
 1205 015f C5       		.byte	0xc5
 1206 0160 5F020000 		.4byte	0x25f
 1207 0164 04       		.byte	0x4
 1208 0165 07       		.uleb128 0x7
 1209 0166 25030000 		.4byte	.LASF30
 1210 016a 07       		.byte	0x7
 1211 016b C7       		.byte	0xc7
 1212 016c F4000000 		.4byte	0xf4
 1213 0170 08       		.byte	0x8
 1214 0171 07       		.uleb128 0x7
 1215 0172 30000000 		.4byte	.LASF31
 1216 0176 07       		.byte	0x7
 1217 0177 C8       		.byte	0xc8
 1218 0178 C8040000 		.4byte	0x4c8
 1219 017c 0C       		.byte	0xc
 1220 017d 07       		.uleb128 0x7
 1221 017e 78010000 		.4byte	.LASF32
 1222 0182 07       		.byte	0x7
 1223 0183 CA       		.byte	0xca
 1224 0184 5F020000 		.4byte	0x25f
 1225 0188 10       		.byte	0x10
 1226 0189 07       		.uleb128 0x7
 1227 018a 1A090000 		.4byte	.LASF33
 1228 018e 07       		.byte	0x7
 1229 018f CB       		.byte	0xcb
 1230 0190 5F020000 		.4byte	0x25f
 1231 0194 14       		.byte	0x14
 1232 0195 07       		.uleb128 0x7
 1233 0196 3E0C0000 		.4byte	.LASF34
 1234 019a 07       		.byte	0x7
 1235 019b D2       		.byte	0xd2
ARM GAS  C:\Users\Luis\AppData\Local\Temp\ccRkfmdd.s 			page 23


 1236 019c 6C070000 		.4byte	0x76c
 1237 01a0 18       		.byte	0x18
 1238 01a1 07       		.uleb128 0x7
 1239 01a2 200C0000 		.4byte	.LASF35
 1240 01a6 07       		.byte	0x7
 1241 01a7 D8       		.byte	0xd8
 1242 01a8 7E070000 		.4byte	0x77e
 1243 01ac 1C       		.byte	0x1c
 1244 01ad 07       		.uleb128 0x7
 1245 01ae 960C0000 		.4byte	.LASF36
 1246 01b2 07       		.byte	0x7
 1247 01b3 DD       		.byte	0xdd
 1248 01b4 DE000000 		.4byte	0xde
 1249 01b8 20       		.byte	0x20
 1250 01b9 07       		.uleb128 0x7
 1251 01ba 89060000 		.4byte	.LASF37
 1252 01be 07       		.byte	0x7
 1253 01bf E1       		.byte	0xe1
 1254 01c0 D3000000 		.4byte	0xd3
 1255 01c4 21       		.byte	0x21
 1256 01c5 07       		.uleb128 0x7
 1257 01c6 CF060000 		.4byte	.LASF38
 1258 01ca 07       		.byte	0x7
 1259 01cb E6       		.byte	0xe6
 1260 01cc E9000000 		.4byte	0xe9
 1261 01d0 22       		.byte	0x22
 1262 01d1 08       		.uleb128 0x8
 1263 01d2 705F7500 		.ascii	"p_u\000"
 1264 01d6 07       		.byte	0x7
 1265 01d7 3101     		.2byte	0x131
 1266 01d9 A7060000 		.4byte	0x6a7
 1267 01dd 24       		.byte	0x24
 1268 01de 09       		.uleb128 0x9
 1269 01df 70060000 		.4byte	.LASF39
 1270 01e3 07       		.byte	0x7
 1271 01e4 3601     		.2byte	0x136
 1272 01e6 65020000 		.4byte	0x265
 1273 01ea 28       		.byte	0x28
 1274 01eb 09       		.uleb128 0x9
 1275 01ec 4B000000 		.4byte	.LASF40
 1276 01f0 07       		.byte	0x7
 1277 01f1 3C01     		.2byte	0x13c
 1278 01f3 89020000 		.4byte	0x289
 1279 01f7 2C       		.byte	0x2c
 1280 01f8 09       		.uleb128 0x9
 1281 01f9 900C0000 		.4byte	.LASF41
 1282 01fd 07       		.byte	0x7
 1283 01fe 4001     		.2byte	0x140
 1284 0200 FF000000 		.4byte	0xff
 1285 0204 34       		.byte	0x34
 1286 0205 09       		.uleb128 0x9
 1287 0206 39040000 		.4byte	.LASF42
 1288 020a 07       		.byte	0x7
 1289 020b 4601     		.2byte	0x146
 1290 020d 0A010000 		.4byte	0x10a
 1291 0211 38       		.byte	0x38
 1292 0212 09       		.uleb128 0x9
ARM GAS  C:\Users\Luis\AppData\Local\Temp\ccRkfmdd.s 			page 24


 1293 0213 E3010000 		.4byte	.LASF43
 1294 0217 07       		.byte	0x7
 1295 0218 4D01     		.2byte	0x14d
 1296 021a 66070000 		.4byte	0x766
 1297 021e 3C       		.byte	0x3c
 1298 021f 09       		.uleb128 0x9
 1299 0220 7B080000 		.4byte	.LASF44
 1300 0224 07       		.byte	0x7
 1301 0225 5101     		.2byte	0x151
 1302 0227 F4000000 		.4byte	0xf4
 1303 022b 40       		.byte	0x40
 1304 022c 09       		.uleb128 0x9
 1305 022d BB060000 		.4byte	.LASF45
 1306 0231 07       		.byte	0x7
 1307 0232 5801     		.2byte	0x158
 1308 0234 3C030000 		.4byte	0x33c
 1309 0238 44       		.byte	0x44
 1310 0239 09       		.uleb128 0x9
 1311 023a 07000000 		.4byte	.LASF46
 1312 023e 07       		.byte	0x7
 1313 023f 5E01     		.2byte	0x15e
 1314 0241 58060000 		.4byte	0x658
 1315 0245 48       		.byte	0x48
 1316 0246 09       		.uleb128 0x9
 1317 0247 DD000000 		.4byte	.LASF47
 1318 024b 07       		.byte	0x7
 1319 024c 6201     		.2byte	0x162
 1320 024e 3C030000 		.4byte	0x33c
 1321 0252 60       		.byte	0x60
 1322 0253 00       		.byte	0
 1323 0254 03       		.uleb128 0x3
 1324 0255 68080000 		.4byte	.LASF48
 1325 0259 06       		.byte	0x6
 1326 025a 44       		.byte	0x44
 1327 025b 5F020000 		.4byte	0x25f
 1328 025f 0A       		.uleb128 0xa
 1329 0260 04       		.byte	0x4
 1330 0261 36010000 		.4byte	0x136
 1331 0265 03       		.uleb128 0x3
 1332 0266 840B0000 		.4byte	.LASF49
 1333 026a 06       		.byte	0x6
 1334 026b 49       		.byte	0x49
 1335 026c 70020000 		.4byte	0x270
 1336 0270 06       		.uleb128 0x6
 1337 0271 9B050000 		.4byte	.LASF51
 1338 0275 04       		.byte	0x4
 1339 0276 07       		.byte	0x7
 1340 0277 B0       		.byte	0xb0
 1341 0278 89020000 		.4byte	0x289
 1342 027c 07       		.uleb128 0x7
 1343 027d 9B010000 		.4byte	.LASF28
 1344 0281 07       		.byte	0x7
 1345 0282 B1       		.byte	0xb1
 1346 0283 5F020000 		.4byte	0x25f
 1347 0287 00       		.byte	0
 1348 0288 00       		.byte	0
 1349 0289 03       		.uleb128 0x3
ARM GAS  C:\Users\Luis\AppData\Local\Temp\ccRkfmdd.s 			page 25


 1350 028a D3010000 		.4byte	.LASF52
 1351 028e 06       		.byte	0x6
 1352 028f 50       		.byte	0x50
 1353 0290 94020000 		.4byte	0x294
 1354 0294 06       		.uleb128 0x6
 1355 0295 3E090000 		.4byte	.LASF53
 1356 0299 08       		.byte	0x8
 1357 029a 07       		.byte	0x7
 1358 029b B7       		.byte	0xb7
 1359 029c B9020000 		.4byte	0x2b9
 1360 02a0 07       		.uleb128 0x7
 1361 02a1 9B010000 		.4byte	.LASF28
 1362 02a5 07       		.byte	0x7
 1363 02a6 B8       		.byte	0xb8
 1364 02a7 5F020000 		.4byte	0x25f
 1365 02ab 00       		.byte	0
 1366 02ac 07       		.uleb128 0x7
 1367 02ad A2010000 		.4byte	.LASF29
 1368 02b1 07       		.byte	0x7
 1369 02b2 B9       		.byte	0xb9
 1370 02b3 5F020000 		.4byte	0x25f
 1371 02b7 04       		.byte	0x4
 1372 02b8 00       		.byte	0
 1373 02b9 03       		.uleb128 0x3
 1374 02ba 52050000 		.4byte	.LASF54
 1375 02be 06       		.byte	0x6
 1376 02bf 57       		.byte	0x57
 1377 02c0 C4020000 		.4byte	0x2c4
 1378 02c4 0B       		.uleb128 0xb
 1379 02c5 4B040000 		.4byte	.LASF55
 1380 02c9 1C       		.byte	0x1c
 1381 02ca 07       		.byte	0x7
 1382 02cb 9001     		.2byte	0x190
 1383 02cd 20030000 		.4byte	0x320
 1384 02d1 09       		.uleb128 0x9
 1385 02d2 C2090000 		.4byte	.LASF56
 1386 02d6 07       		.byte	0x7
 1387 02d7 9101     		.2byte	0x191
 1388 02d9 89020000 		.4byte	0x289
 1389 02dd 00       		.byte	0
 1390 02de 09       		.uleb128 0x9
 1391 02df CC0A0000 		.4byte	.LASF57
 1392 02e3 07       		.byte	0x7
 1393 02e4 9201     		.2byte	0x192
 1394 02e6 F4000000 		.4byte	0xf4
 1395 02ea 08       		.byte	0x8
 1396 02eb 09       		.uleb128 0x9
 1397 02ec 68000000 		.4byte	.LASF58
 1398 02f0 07       		.byte	0x7
 1399 02f1 9401     		.2byte	0x194
 1400 02f3 C8040000 		.4byte	0x4c8
 1401 02f7 0C       		.byte	0xc
 1402 02f8 09       		.uleb128 0x9
 1403 02f9 D2020000 		.4byte	.LASF59
 1404 02fd 07       		.byte	0x7
 1405 02fe 9701     		.2byte	0x197
 1406 0300 5F020000 		.4byte	0x25f
ARM GAS  C:\Users\Luis\AppData\Local\Temp\ccRkfmdd.s 			page 26


 1407 0304 10       		.byte	0x10
 1408 0305 09       		.uleb128 0x9
 1409 0306 390A0000 		.4byte	.LASF60
 1410 030a 07       		.byte	0x7
 1411 030b 9801     		.2byte	0x198
 1412 030d 5F020000 		.4byte	0x25f
 1413 0311 14       		.byte	0x14
 1414 0312 09       		.uleb128 0x9
 1415 0313 8C090000 		.4byte	.LASF61
 1416 0317 07       		.byte	0x7
 1417 0318 9B01     		.2byte	0x19b
 1418 031a 5F020000 		.4byte	0x25f
 1419 031e 18       		.byte	0x18
 1420 031f 00       		.byte	0
 1421 0320 03       		.uleb128 0x3
 1422 0321 7C000000 		.4byte	.LASF62
 1423 0325 06       		.byte	0x6
 1424 0326 5C       		.byte	0x5c
 1425 0327 2B030000 		.4byte	0x32b
 1426 032b 0A       		.uleb128 0xa
 1427 032c 04       		.byte	0x4
 1428 032d 31030000 		.4byte	0x331
 1429 0331 0C       		.uleb128 0xc
 1430 0332 3C030000 		.4byte	0x33c
 1431 0336 0D       		.uleb128 0xd
 1432 0337 3C030000 		.4byte	0x33c
 1433 033b 00       		.byte	0
 1434 033c 0E       		.uleb128 0xe
 1435 033d 04       		.byte	0x4
 1436 033e 03       		.uleb128 0x3
 1437 033f 42050000 		.4byte	.LASF63
 1438 0343 06       		.byte	0x6
 1439 0344 61       		.byte	0x61
 1440 0345 49030000 		.4byte	0x349
 1441 0349 0B       		.uleb128 0xb
 1442 034a C3080000 		.4byte	.LASF64
 1443 034e 14       		.byte	0x14
 1444 034f 07       		.byte	0x7
 1445 0350 6B01     		.2byte	0x16b
 1446 0352 98030000 		.4byte	0x398
 1447 0356 09       		.uleb128 0x9
 1448 0357 19060000 		.4byte	.LASF65
 1449 035b 07       		.byte	0x7
 1450 035c 6C01     		.2byte	0x16c
 1451 035e 84070000 		.4byte	0x784
 1452 0362 00       		.byte	0
 1453 0363 09       		.uleb128 0x9
 1454 0364 2A060000 		.4byte	.LASF66
 1455 0368 07       		.byte	0x7
 1456 0369 6D01     		.2byte	0x16d
 1457 036b 84070000 		.4byte	0x784
 1458 036f 04       		.byte	0x4
 1459 0370 09       		.uleb128 0x9
 1460 0371 AB080000 		.4byte	.LASF67
 1461 0375 07       		.byte	0x7
 1462 0376 6E01     		.2byte	0x16e
 1463 0378 2B010000 		.4byte	0x12b
ARM GAS  C:\Users\Luis\AppData\Local\Temp\ccRkfmdd.s 			page 27


 1464 037c 08       		.byte	0x8
 1465 037d 09       		.uleb128 0x9
 1466 037e FF030000 		.4byte	.LASF68
 1467 0382 07       		.byte	0x7
 1468 0383 6F01     		.2byte	0x16f
 1469 0385 20030000 		.4byte	0x320
 1470 0389 0C       		.byte	0xc
 1471 038a 09       		.uleb128 0x9
 1472 038b 4C010000 		.4byte	.LASF69
 1473 038f 07       		.byte	0x7
 1474 0390 7101     		.2byte	0x171
 1475 0392 3C030000 		.4byte	0x33c
 1476 0396 10       		.byte	0x10
 1477 0397 00       		.byte	0
 1478 0398 03       		.uleb128 0x3
 1479 0399 2C050000 		.4byte	.LASF70
 1480 039d 06       		.byte	0x6
 1481 039e 66       		.byte	0x66
 1482 039f A3030000 		.4byte	0x3a3
 1483 03a3 0B       		.uleb128 0xb
 1484 03a4 85000000 		.4byte	.LASF71
 1485 03a8 10       		.byte	0x10
 1486 03a9 07       		.byte	0x7
 1487 03aa 7B01     		.2byte	0x17b
 1488 03ac E5030000 		.4byte	0x3e5
 1489 03b0 09       		.uleb128 0x9
 1490 03b1 19060000 		.4byte	.LASF65
 1491 03b5 07       		.byte	0x7
 1492 03b6 7C01     		.2byte	0x17c
 1493 03b8 84070000 		.4byte	0x784
 1494 03bc 00       		.byte	0
 1495 03bd 09       		.uleb128 0x9
 1496 03be 2A060000 		.4byte	.LASF66
 1497 03c2 07       		.byte	0x7
 1498 03c3 7E01     		.2byte	0x17e
 1499 03c5 84070000 		.4byte	0x784
 1500 03c9 04       		.byte	0x4
 1501 03ca 09       		.uleb128 0x9
 1502 03cb AB080000 		.4byte	.LASF67
 1503 03cf 07       		.byte	0x7
 1504 03d0 8001     		.2byte	0x180
 1505 03d2 2B010000 		.4byte	0x12b
 1506 03d6 08       		.byte	0x8
 1507 03d7 09       		.uleb128 0x9
 1508 03d8 EB0B0000 		.4byte	.LASF72
 1509 03dc 07       		.byte	0x7
 1510 03dd 8801     		.2byte	0x188
 1511 03df 2B010000 		.4byte	0x12b
 1512 03e3 0C       		.byte	0xc
 1513 03e4 00       		.byte	0
 1514 03e5 03       		.uleb128 0x3
 1515 03e6 E6020000 		.4byte	.LASF73
 1516 03ea 06       		.byte	0x6
 1517 03eb 6B       		.byte	0x6b
 1518 03ec F0030000 		.4byte	0x3f0
 1519 03f0 0F       		.uleb128 0xf
 1520 03f1 D30A0000 		.4byte	.LASF74
ARM GAS  C:\Users\Luis\AppData\Local\Temp\ccRkfmdd.s 			page 28


 1521 03f5 1404     		.2byte	0x414
 1522 03f7 07       		.byte	0x7
 1523 03f8 A201     		.2byte	0x1a2
 1524 03fa 33040000 		.4byte	0x433
 1525 03fe 09       		.uleb128 0x9
 1526 03ff BB020000 		.4byte	.LASF75
 1527 0403 07       		.byte	0x7
 1528 0404 AA01     		.2byte	0x1aa
 1529 0406 8A070000 		.4byte	0x78a
 1530 040a 00       		.byte	0
 1531 040b 09       		.uleb128 0x9
 1532 040c 82040000 		.4byte	.LASF76
 1533 0410 07       		.byte	0x7
 1534 0411 AF01     		.2byte	0x1af
 1535 0413 15010000 		.4byte	0x115
 1536 0417 04       		.byte	0x4
 1537 0418 09       		.uleb128 0x9
 1538 0419 D4000000 		.4byte	.LASF77
 1539 041d 07       		.byte	0x7
 1540 041e B301     		.2byte	0x1b3
 1541 0420 15010000 		.4byte	0x115
 1542 0424 08       		.byte	0x8
 1543 0425 09       		.uleb128 0x9
 1544 0426 C5020000 		.4byte	.LASF78
 1545 042a 07       		.byte	0x7
 1546 042b B901     		.2byte	0x1b9
 1547 042d EA050000 		.4byte	0x5ea
 1548 0431 0C       		.byte	0xc
 1549 0432 00       		.byte	0
 1550 0433 03       		.uleb128 0x3
 1551 0434 0F0C0000 		.4byte	.LASF79
 1552 0438 06       		.byte	0x6
 1553 0439 70       		.byte	0x70
 1554 043a 3E040000 		.4byte	0x43e
 1555 043e 0F       		.uleb128 0xf
 1556 043f 9B0B0000 		.4byte	.LASF80
 1557 0443 E805     		.2byte	0x5e8
 1558 0445 07       		.byte	0x7
 1559 0446 C201     		.2byte	0x1c2
 1560 0448 AB040000 		.4byte	0x4ab
 1561 044c 09       		.uleb128 0x9
 1562 044d 030A0000 		.4byte	.LASF81
 1563 0451 07       		.byte	0x7
 1564 0452 C601     		.2byte	0x1c6
 1565 0454 B9020000 		.4byte	0x2b9
 1566 0458 00       		.byte	0
 1567 0459 09       		.uleb128 0x9
 1568 045a 0D0B0000 		.4byte	.LASF82
 1569 045e 07       		.byte	0x7
 1570 045f CA01     		.2byte	0x1ca
 1571 0461 98030000 		.4byte	0x398
 1572 0465 1C       		.byte	0x1c
 1573 0466 08       		.uleb128 0x8
 1574 0467 64626700 		.ascii	"dbg\000"
 1575 046b 07       		.byte	0x7
 1576 046c CE01     		.2byte	0x1ce
 1577 046e E5030000 		.4byte	0x3e5
ARM GAS  C:\Users\Luis\AppData\Local\Temp\ccRkfmdd.s 			page 29


 1578 0472 2C       		.byte	0x2c
 1579 0473 10       		.uleb128 0x10
 1580 0474 9D090000 		.4byte	.LASF83
 1581 0478 07       		.byte	0x7
 1582 0479 D201     		.2byte	0x1d2
 1583 047b 36010000 		.4byte	0x136
 1584 047f 4004     		.2byte	0x440
 1585 0481 11       		.uleb128 0x11
 1586 0482 746D00   		.ascii	"tm\000"
 1587 0485 07       		.byte	0x7
 1588 0486 D701     		.2byte	0x1d7
 1589 0488 0A060000 		.4byte	0x60a
 1590 048c A804     		.2byte	0x4a8
 1591 048e 10       		.uleb128 0x10
 1592 048f DA080000 		.4byte	.LASF84
 1593 0493 07       		.byte	0x7
 1594 0494 DD01     		.2byte	0x1dd
 1595 0496 9C060000 		.4byte	0x69c
 1596 049a B004     		.2byte	0x4b0
 1597 049c 10       		.uleb128 0x10
 1598 049d 91060000 		.4byte	.LASF85
 1599 04a1 07       		.byte	0x7
 1600 04a2 E301     		.2byte	0x1e3
 1601 04a4 8F070000 		.4byte	0x78f
 1602 04a8 E804     		.2byte	0x4e8
 1603 04aa 00       		.byte	0
 1604 04ab 04       		.uleb128 0x4
 1605 04ac 04       		.byte	0x4
 1606 04ad 07       		.byte	0x7
 1607 04ae 16000000 		.4byte	.LASF86
 1608 04b2 03       		.uleb128 0x3
 1609 04b3 ED010000 		.4byte	.LASF87
 1610 04b7 08       		.byte	0x8
 1611 04b8 65       		.byte	0x65
 1612 04b9 3C030000 		.4byte	0x33c
 1613 04bd 03       		.uleb128 0x3
 1614 04be 7F030000 		.4byte	.LASF88
 1615 04c2 08       		.byte	0x8
 1616 04c3 6D       		.byte	0x6d
 1617 04c4 A6000000 		.4byte	0xa6
 1618 04c8 06       		.uleb128 0x6
 1619 04c9 8D020000 		.4byte	.LASF89
 1620 04cd 04       		.byte	0x4
 1621 04ce 08       		.byte	0x8
 1622 04cf 89       		.byte	0x89
 1623 04d0 E1040000 		.4byte	0x4e1
 1624 04d4 12       		.uleb128 0x12
 1625 04d5 72313300 		.ascii	"r13\000"
 1626 04d9 08       		.byte	0x8
 1627 04da 8A       		.byte	0x8a
 1628 04db 5C050000 		.4byte	0x55c
 1629 04df 00       		.byte	0
 1630 04e0 00       		.byte	0
 1631 04e1 06       		.uleb128 0x6
 1632 04e2 86080000 		.4byte	.LASF90
 1633 04e6 24       		.byte	0x24
 1634 04e7 09       		.byte	0x9
ARM GAS  C:\Users\Luis\AppData\Local\Temp\ccRkfmdd.s 			page 30


 1635 04e8 F4       		.byte	0xf4
 1636 04e9 5C050000 		.4byte	0x55c
 1637 04ed 08       		.uleb128 0x8
 1638 04ee 723400   		.ascii	"r4\000"
 1639 04f1 09       		.byte	0x9
 1640 04f2 0701     		.2byte	0x107
 1641 04f4 B2040000 		.4byte	0x4b2
 1642 04f8 00       		.byte	0
 1643 04f9 08       		.uleb128 0x8
 1644 04fa 723500   		.ascii	"r5\000"
 1645 04fd 09       		.byte	0x9
 1646 04fe 0801     		.2byte	0x108
 1647 0500 B2040000 		.4byte	0x4b2
 1648 0504 04       		.byte	0x4
 1649 0505 08       		.uleb128 0x8
 1650 0506 723600   		.ascii	"r6\000"
 1651 0509 09       		.byte	0x9
 1652 050a 0901     		.2byte	0x109
 1653 050c B2040000 		.4byte	0x4b2
 1654 0510 08       		.byte	0x8
 1655 0511 08       		.uleb128 0x8
 1656 0512 723700   		.ascii	"r7\000"
 1657 0515 09       		.byte	0x9
 1658 0516 0A01     		.2byte	0x10a
 1659 0518 B2040000 		.4byte	0x4b2
 1660 051c 0C       		.byte	0xc
 1661 051d 08       		.uleb128 0x8
 1662 051e 723800   		.ascii	"r8\000"
 1663 0521 09       		.byte	0x9
 1664 0522 0B01     		.2byte	0x10b
 1665 0524 B2040000 		.4byte	0x4b2
 1666 0528 10       		.byte	0x10
 1667 0529 08       		.uleb128 0x8
 1668 052a 723900   		.ascii	"r9\000"
 1669 052d 09       		.byte	0x9
 1670 052e 0C01     		.2byte	0x10c
 1671 0530 B2040000 		.4byte	0x4b2
 1672 0534 14       		.byte	0x14
 1673 0535 08       		.uleb128 0x8
 1674 0536 72313000 		.ascii	"r10\000"
 1675 053a 09       		.byte	0x9
 1676 053b 0D01     		.2byte	0x10d
 1677 053d B2040000 		.4byte	0x4b2
 1678 0541 18       		.byte	0x18
 1679 0542 08       		.uleb128 0x8
 1680 0543 72313100 		.ascii	"r11\000"
 1681 0547 09       		.byte	0x9
 1682 0548 0E01     		.2byte	0x10e
 1683 054a B2040000 		.4byte	0x4b2
 1684 054e 1C       		.byte	0x1c
 1685 054f 08       		.uleb128 0x8
 1686 0550 6C7200   		.ascii	"lr\000"
 1687 0553 09       		.byte	0x9
 1688 0554 0F01     		.2byte	0x10f
 1689 0556 B2040000 		.4byte	0x4b2
 1690 055a 20       		.byte	0x20
 1691 055b 00       		.byte	0
ARM GAS  C:\Users\Luis\AppData\Local\Temp\ccRkfmdd.s 			page 31


 1692 055c 0A       		.uleb128 0xa
 1693 055d 04       		.byte	0x4
 1694 055e E1040000 		.4byte	0x4e1
 1695 0562 13       		.uleb128 0x13
 1696 0563 10       		.byte	0x10
 1697 0564 0A       		.byte	0xa
 1698 0565 51       		.byte	0x51
 1699 0566 9B050000 		.4byte	0x59b
 1700 056a 07       		.uleb128 0x7
 1701 056b 360C0000 		.4byte	.LASF91
 1702 056f 0A       		.byte	0xa
 1703 0570 55       		.byte	0x55
 1704 0571 2B010000 		.4byte	0x12b
 1705 0575 00       		.byte	0
 1706 0576 07       		.uleb128 0x7
 1707 0577 EF000000 		.4byte	.LASF92
 1708 057b 0A       		.byte	0xa
 1709 057c 59       		.byte	0x59
 1710 057d 5F020000 		.4byte	0x25f
 1711 0581 04       		.byte	0x4
 1712 0582 07       		.uleb128 0x7
 1713 0583 7F060000 		.4byte	.LASF93
 1714 0587 0A       		.byte	0xa
 1715 0588 5D       		.byte	0x5d
 1716 0589 3C030000 		.4byte	0x33c
 1717 058d 08       		.byte	0x8
 1718 058e 07       		.uleb128 0x7
 1719 058f A5040000 		.4byte	.LASF94
 1720 0593 0A       		.byte	0xa
 1721 0594 61       		.byte	0x61
 1722 0595 50000000 		.4byte	0x50
 1723 0599 0C       		.byte	0xc
 1724 059a 00       		.byte	0
 1725 059b 03       		.uleb128 0x3
 1726 059c AB050000 		.4byte	.LASF95
 1727 05a0 0A       		.byte	0xa
 1728 05a1 62       		.byte	0x62
 1729 05a2 62050000 		.4byte	0x562
 1730 05a6 14       		.uleb128 0x14
 1731 05a7 0804     		.2byte	0x408
 1732 05a9 0A       		.byte	0xa
 1733 05aa 67       		.byte	0x67
 1734 05ab D4050000 		.4byte	0x5d4
 1735 05af 07       		.uleb128 0x7
 1736 05b0 3A060000 		.4byte	.LASF96
 1737 05b4 0A       		.byte	0xa
 1738 05b5 6B       		.byte	0x6b
 1739 05b6 37000000 		.4byte	0x37
 1740 05ba 00       		.byte	0
 1741 05bb 07       		.uleb128 0x7
 1742 05bc 5B0C0000 		.4byte	.LASF97
 1743 05c0 0A       		.byte	0xa
 1744 05c1 6F       		.byte	0x6f
 1745 05c2 D4050000 		.4byte	0x5d4
 1746 05c6 04       		.byte	0x4
 1747 05c7 07       		.uleb128 0x7
 1748 05c8 DD070000 		.4byte	.LASF98
ARM GAS  C:\Users\Luis\AppData\Local\Temp\ccRkfmdd.s 			page 32


 1749 05cc 0A       		.byte	0xa
 1750 05cd 73       		.byte	0x73
 1751 05ce DA050000 		.4byte	0x5da
 1752 05d2 08       		.byte	0x8
 1753 05d3 00       		.byte	0
 1754 05d4 0A       		.uleb128 0xa
 1755 05d5 04       		.byte	0x4
 1756 05d6 9B050000 		.4byte	0x59b
 1757 05da 15       		.uleb128 0x15
 1758 05db 9B050000 		.4byte	0x59b
 1759 05df EA050000 		.4byte	0x5ea
 1760 05e3 16       		.uleb128 0x16
 1761 05e4 AB040000 		.4byte	0x4ab
 1762 05e8 3F       		.byte	0x3f
 1763 05e9 00       		.byte	0
 1764 05ea 03       		.uleb128 0x3
 1765 05eb 27040000 		.4byte	.LASF99
 1766 05ef 0A       		.byte	0xa
 1767 05f0 74       		.byte	0x74
 1768 05f1 A6050000 		.4byte	0x5a6
 1769 05f5 13       		.uleb128 0x13
 1770 05f6 04       		.byte	0x4
 1771 05f7 0B       		.byte	0xb
 1772 05f8 38       		.byte	0x38
 1773 05f9 0A060000 		.4byte	0x60a
 1774 05fd 07       		.uleb128 0x7
 1775 05fe D6070000 		.4byte	.LASF100
 1776 0602 0B       		.byte	0xb
 1777 0603 3C       		.byte	0x3c
 1778 0604 BD000000 		.4byte	0xbd
 1779 0608 00       		.byte	0
 1780 0609 00       		.byte	0
 1781 060a 03       		.uleb128 0x3
 1782 060b 410A0000 		.4byte	.LASF101
 1783 060f 0B       		.byte	0xb
 1784 0610 3D       		.byte	0x3d
 1785 0611 F5050000 		.4byte	0x5f5
 1786 0615 13       		.uleb128 0x13
 1787 0616 18       		.byte	0x18
 1788 0617 0B       		.byte	0xb
 1789 0618 48       		.byte	0x48
 1790 0619 58060000 		.4byte	0x658
 1791 061d 07       		.uleb128 0x7
 1792 061e BD090000 		.4byte	.LASF102
 1793 0622 0B       		.byte	0xb
 1794 0623 49       		.byte	0x49
 1795 0624 BD000000 		.4byte	0xbd
 1796 0628 00       		.byte	0
 1797 0629 07       		.uleb128 0x7
 1798 062a B2030000 		.4byte	.LASF103
 1799 062e 0B       		.byte	0xb
 1800 062f 4A       		.byte	0x4a
 1801 0630 BD000000 		.4byte	0xbd
 1802 0634 04       		.byte	0x4
 1803 0635 07       		.uleb128 0x7
 1804 0636 8B0C0000 		.4byte	.LASF104
 1805 063a 0B       		.byte	0xb
ARM GAS  C:\Users\Luis\AppData\Local\Temp\ccRkfmdd.s 			page 33


 1806 063b 4B       		.byte	0x4b
 1807 063c BD000000 		.4byte	0xbd
 1808 0640 08       		.byte	0x8
 1809 0641 12       		.uleb128 0x12
 1810 0642 6E00     		.ascii	"n\000"
 1811 0644 0B       		.byte	0xb
 1812 0645 4C       		.byte	0x4c
 1813 0646 20010000 		.4byte	0x120
 1814 064a 0C       		.byte	0xc
 1815 064b 07       		.uleb128 0x7
 1816 064c 26020000 		.4byte	.LASF105
 1817 0650 0B       		.byte	0xb
 1818 0651 4D       		.byte	0x4d
 1819 0652 C8000000 		.4byte	0xc8
 1820 0656 10       		.byte	0x10
 1821 0657 00       		.byte	0
 1822 0658 03       		.uleb128 0x3
 1823 0659 F5000000 		.4byte	.LASF106
 1824 065d 0B       		.byte	0xb
 1825 065e 4E       		.byte	0x4e
 1826 065f 15060000 		.4byte	0x615
 1827 0663 13       		.uleb128 0x13
 1828 0664 38       		.byte	0x38
 1829 0665 0C       		.byte	0xc
 1830 0666 38       		.byte	0x38
 1831 0667 9C060000 		.4byte	0x69c
 1832 066b 07       		.uleb128 0x7
 1833 066c BA050000 		.4byte	.LASF107
 1834 0670 0C       		.byte	0xc
 1835 0671 39       		.byte	0x39
 1836 0672 20010000 		.4byte	0x120
 1837 0676 00       		.byte	0
 1838 0677 07       		.uleb128 0x7
 1839 0678 54030000 		.4byte	.LASF108
 1840 067c 0C       		.byte	0xc
 1841 067d 3A       		.byte	0x3a
 1842 067e 20010000 		.4byte	0x120
 1843 0682 04       		.byte	0x4
 1844 0683 07       		.uleb128 0x7
 1845 0684 BC040000 		.4byte	.LASF109
 1846 0688 0C       		.byte	0xc
 1847 0689 3B       		.byte	0x3b
 1848 068a 58060000 		.4byte	0x658
 1849 068e 08       		.byte	0x8
 1850 068f 07       		.uleb128 0x7
 1851 0690 9A040000 		.4byte	.LASF110
 1852 0694 0C       		.byte	0xc
 1853 0695 3D       		.byte	0x3d
 1854 0696 58060000 		.4byte	0x658
 1855 069a 20       		.byte	0x20
 1856 069b 00       		.byte	0
 1857 069c 03       		.uleb128 0x3
 1858 069d E6060000 		.4byte	.LASF111
 1859 06a1 0C       		.byte	0xc
 1860 06a2 3F       		.byte	0x3f
 1861 06a3 63060000 		.4byte	0x663
 1862 06a7 17       		.uleb128 0x17
ARM GAS  C:\Users\Luis\AppData\Local\Temp\ccRkfmdd.s 			page 34


 1863 06a8 04       		.byte	0x4
 1864 06a9 07       		.byte	0x7
 1865 06aa FA       		.byte	0xfa
 1866 06ab 04070000 		.4byte	0x704
 1867 06af 18       		.uleb128 0x18
 1868 06b0 E40B0000 		.4byte	.LASF112
 1869 06b4 07       		.byte	0x7
 1870 06b5 0101     		.2byte	0x101
 1871 06b7 FF000000 		.4byte	0xff
 1872 06bb 18       		.uleb128 0x18
 1873 06bc 53010000 		.4byte	.LASF113
 1874 06c0 07       		.byte	0x7
 1875 06c1 0801     		.2byte	0x108
 1876 06c3 FF000000 		.4byte	0xff
 1877 06c7 18       		.uleb128 0x18
 1878 06c8 45030000 		.4byte	.LASF114
 1879 06cc 07       		.byte	0x7
 1880 06cd 0F01     		.2byte	0x10f
 1881 06cf 3C030000 		.4byte	0x33c
 1882 06d3 18       		.uleb128 0x18
 1883 06d4 A7020000 		.4byte	.LASF115
 1884 06d8 07       		.byte	0x7
 1885 06d9 1601     		.2byte	0x116
 1886 06db 04070000 		.4byte	0x704
 1887 06df 18       		.uleb128 0x18
 1888 06e0 1F000000 		.4byte	.LASF116
 1889 06e4 07       		.byte	0x7
 1890 06e5 1E01     		.2byte	0x11e
 1891 06e7 2F070000 		.4byte	0x72f
 1892 06eb 18       		.uleb128 0x18
 1893 06ec 44040000 		.4byte	.LASF117
 1894 06f0 07       		.byte	0x7
 1895 06f1 2701     		.2byte	0x127
 1896 06f3 66070000 		.4byte	0x766
 1897 06f7 18       		.uleb128 0x18
 1898 06f8 3D020000 		.4byte	.LASF118
 1899 06fc 07       		.byte	0x7
 1900 06fd 2F01     		.2byte	0x12f
 1901 06ff 0A010000 		.4byte	0x10a
 1902 0703 00       		.byte	0
 1903 0704 0A       		.uleb128 0xa
 1904 0705 04       		.byte	0x4
 1905 0706 54020000 		.4byte	0x254
 1906 070a 06       		.uleb128 0x6
 1907 070b F9040000 		.4byte	.LASF119
 1908 070f 0C       		.byte	0xc
 1909 0710 0D       		.byte	0xd
 1910 0711 34       		.byte	0x34
 1911 0712 2F070000 		.4byte	0x72f
 1912 0716 07       		.uleb128 0x7
 1913 0717 570A0000 		.4byte	.LASF120
 1914 071b 0D       		.byte	0xd
 1915 071c 35       		.byte	0x35
 1916 071d 89020000 		.4byte	0x289
 1917 0721 00       		.byte	0
 1918 0722 07       		.uleb128 0x7
 1919 0723 D4080000 		.4byte	.LASF121
ARM GAS  C:\Users\Luis\AppData\Local\Temp\ccRkfmdd.s 			page 35


 1920 0727 0D       		.byte	0xd
 1921 0728 37       		.byte	0x37
 1922 0729 15010000 		.4byte	0x115
 1923 072d 08       		.byte	0x8
 1924 072e 00       		.byte	0
 1925 072f 0A       		.uleb128 0xa
 1926 0730 04       		.byte	0x4
 1927 0731 0A070000 		.4byte	0x70a
 1928 0735 06       		.uleb128 0x6
 1929 0736 B40A0000 		.4byte	.LASF122
 1930 073a 10       		.byte	0x10
 1931 073b 0E       		.byte	0xe
 1932 073c 39       		.byte	0x39
 1933 073d 66070000 		.4byte	0x766
 1934 0741 07       		.uleb128 0x7
 1935 0742 11060000 		.4byte	.LASF123
 1936 0746 0E       		.byte	0xe
 1937 0747 3A       		.byte	0x3a
 1938 0748 89020000 		.4byte	0x289
 1939 074c 00       		.byte	0
 1940 074d 07       		.uleb128 0x7
 1941 074e 1D010000 		.4byte	.LASF124
 1942 0752 0E       		.byte	0xe
 1943 0753 3C       		.byte	0x3c
 1944 0754 5F020000 		.4byte	0x25f
 1945 0758 08       		.byte	0x8
 1946 0759 07       		.uleb128 0x7
 1947 075a 540C0000 		.4byte	.LASF125
 1948 075e 0E       		.byte	0xe
 1949 075f 3E       		.byte	0x3e
 1950 0760 B5070000 		.4byte	0x7b5
 1951 0764 0C       		.byte	0xc
 1952 0765 00       		.byte	0
 1953 0766 0A       		.uleb128 0xa
 1954 0767 04       		.byte	0x4
 1955 0768 35070000 		.4byte	0x735
 1956 076c 0A       		.uleb128 0xa
 1957 076d 04       		.byte	0x4
 1958 076e 72070000 		.4byte	0x772
 1959 0772 19       		.uleb128 0x19
 1960 0773 77070000 		.4byte	0x777
 1961 0777 04       		.uleb128 0x4
 1962 0778 01       		.byte	0x1
 1963 0779 08       		.byte	0x8
 1964 077a 07030000 		.4byte	.LASF126
 1965 077e 0A       		.uleb128 0xa
 1966 077f 04       		.byte	0x4
 1967 0780 BD040000 		.4byte	0x4bd
 1968 0784 0A       		.uleb128 0xa
 1969 0785 04       		.byte	0x4
 1970 0786 3E030000 		.4byte	0x33e
 1971 078a 05       		.uleb128 0x5
 1972 078b 6C070000 		.4byte	0x76c
 1973 078f 15       		.uleb128 0x15
 1974 0790 BD040000 		.4byte	0x4bd
 1975 0794 9F070000 		.4byte	0x79f
 1976 0798 16       		.uleb128 0x16
ARM GAS  C:\Users\Luis\AppData\Local\Temp\ccRkfmdd.s 			page 36


 1977 0799 AB040000 		.4byte	0x4ab
 1978 079d 1F       		.byte	0x1f
 1979 079e 00       		.byte	0
 1980 079f 03       		.uleb128 0x3
 1981 07a0 620C0000 		.4byte	.LASF127
 1982 07a4 0D       		.byte	0xd
 1983 07a5 38       		.byte	0x38
 1984 07a6 0A070000 		.4byte	0x70a
 1985 07aa 03       		.uleb128 0x3
 1986 07ab 740B0000 		.4byte	.LASF128
 1987 07af 0E       		.byte	0xe
 1988 07b0 34       		.byte	0x34
 1989 07b1 35070000 		.4byte	0x735
 1990 07b5 0A       		.uleb128 0xa
 1991 07b6 04       		.byte	0x4
 1992 07b7 AA070000 		.4byte	0x7aa
 1993 07bb 13       		.uleb128 0x13
 1994 07bc 28       		.byte	0x28
 1995 07bd 0F       		.byte	0xf
 1996 07be 38       		.byte	0x38
 1997 07bf 0C080000 		.4byte	0x80c
 1998 07c3 07       		.uleb128 0x7
 1999 07c4 C4000000 		.4byte	.LASF129
 2000 07c8 0F       		.byte	0xf
 2001 07c9 39       		.byte	0x39
 2002 07ca 0C080000 		.4byte	0x80c
 2003 07ce 00       		.byte	0
 2004 07cf 07       		.uleb128 0x7
 2005 07d0 A4080000 		.4byte	.LASF130
 2006 07d4 0F       		.byte	0xf
 2007 07d5 3B       		.byte	0x3b
 2008 07d6 0C080000 		.4byte	0x80c
 2009 07da 04       		.byte	0x4
 2010 07db 07       		.uleb128 0x7
 2011 07dc 21060000 		.4byte	.LASF131
 2012 07e0 0F       		.byte	0xf
 2013 07e1 3D       		.byte	0x3d
 2014 07e2 0C080000 		.4byte	0x80c
 2015 07e6 08       		.byte	0x8
 2016 07e7 07       		.uleb128 0x7
 2017 07e8 78020000 		.4byte	.LASF132
 2018 07ec 0F       		.byte	0xf
 2019 07ed 3E       		.byte	0x3e
 2020 07ee 0C080000 		.4byte	0x80c
 2021 07f2 0C       		.byte	0xc
 2022 07f3 07       		.uleb128 0x7
 2023 07f4 C0050000 		.4byte	.LASF133
 2024 07f8 0F       		.byte	0xf
 2025 07f9 3F       		.byte	0x3f
 2026 07fa 9F070000 		.4byte	0x79f
 2027 07fe 10       		.byte	0x10
 2028 07ff 07       		.uleb128 0x7
 2029 0800 39030000 		.4byte	.LASF134
 2030 0804 0F       		.byte	0xf
 2031 0805 41       		.byte	0x41
 2032 0806 9F070000 		.4byte	0x79f
 2033 080a 1C       		.byte	0x1c
ARM GAS  C:\Users\Luis\AppData\Local\Temp\ccRkfmdd.s 			page 37


 2034 080b 00       		.byte	0
 2035 080c 0A       		.uleb128 0xa
 2036 080d 04       		.byte	0x4
 2037 080e FF000000 		.4byte	0xff
 2038 0812 03       		.uleb128 0x3
 2039 0813 4A0C0000 		.4byte	.LASF135
 2040 0817 0F       		.byte	0xf
 2041 0818 43       		.byte	0x43
 2042 0819 BB070000 		.4byte	0x7bb
 2043 081d 04       		.uleb128 0x4
 2044 081e 01       		.byte	0x1
 2045 081f 02       		.byte	0x2
 2046 0820 F5020000 		.4byte	.LASF136
 2047 0824 03       		.uleb128 0x3
 2048 0825 1B0C0000 		.4byte	.LASF137
 2049 0829 10       		.byte	0x10
 2050 082a 38       		.byte	0x38
 2051 082b 50000000 		.4byte	0x50
 2052 082f 03       		.uleb128 0x3
 2053 0830 0A0C0000 		.4byte	.LASF138
 2054 0834 10       		.byte	0x10
 2055 0835 39       		.byte	0x39
 2056 0836 3E000000 		.4byte	0x3e
 2057 083a 03       		.uleb128 0x3
 2058 083b AD060000 		.4byte	.LASF139
 2059 083f 10       		.byte	0x10
 2060 0840 3A       		.byte	0x3a
 2061 0841 69000000 		.4byte	0x69
 2062 0845 03       		.uleb128 0x3
 2063 0846 FD090000 		.4byte	.LASF140
 2064 084a 10       		.byte	0x10
 2065 084b 3C       		.byte	0x3c
 2066 084c 8D000000 		.4byte	0x8d
 2067 0850 03       		.uleb128 0x3
 2068 0851 92080000 		.4byte	.LASF141
 2069 0855 11       		.byte	0x11
 2070 0856 2F       		.byte	0x2f
 2071 0857 2F080000 		.4byte	0x82f
 2072 085b 03       		.uleb128 0x3
 2073 085c B7010000 		.4byte	.LASF142
 2074 0860 12       		.byte	0x12
 2075 0861 38       		.byte	0x38
 2076 0862 66080000 		.4byte	0x866
 2077 0866 0A       		.uleb128 0xa
 2078 0867 04       		.byte	0x4
 2079 0868 9F070000 		.4byte	0x79f
 2080 086c 03       		.uleb128 0x3
 2081 086d E5050000 		.4byte	.LASF143
 2082 0871 12       		.byte	0x12
 2083 0872 39       		.byte	0x39
 2084 0873 77080000 		.4byte	0x877
 2085 0877 0A       		.uleb128 0xa
 2086 0878 04       		.byte	0x4
 2087 0879 12080000 		.4byte	0x812
 2088 087d 1A       		.uleb128 0x1a
 2089 087e 01       		.byte	0x1
 2090 087f 1C       		.byte	0x1c
ARM GAS  C:\Users\Luis\AppData\Local\Temp\ccRkfmdd.s 			page 38


 2091 0880 2B       		.byte	0x2b
 2092 0881 E0080000 		.4byte	0x8e0
 2093 0885 1B       		.uleb128 0x1b
 2094 0886 2C030000 		.4byte	.LASF144
 2095 088a 00       		.sleb128 0
 2096 088b 1B       		.uleb128 0x1b
 2097 088c 0D090000 		.4byte	.LASF145
 2098 0890 01       		.sleb128 1
 2099 0891 1B       		.uleb128 0x1b
 2100 0892 3E000000 		.4byte	.LASF146
 2101 0896 02       		.sleb128 2
 2102 0897 1B       		.uleb128 0x1b
 2103 0898 6E0C0000 		.4byte	.LASF147
 2104 089c 03       		.sleb128 3
 2105 089d 1B       		.uleb128 0x1b
 2106 089e 22090000 		.4byte	.LASF148
 2107 08a2 04       		.sleb128 4
 2108 08a3 1B       		.uleb128 0x1b
 2109 08a4 B4080000 		.4byte	.LASF149
 2110 08a8 05       		.sleb128 5
 2111 08a9 1B       		.uleb128 0x1b
 2112 08aa E7080000 		.4byte	.LASF150
 2113 08ae 06       		.sleb128 6
 2114 08af 1B       		.uleb128 0x1b
 2115 08b0 DA020000 		.4byte	.LASF151
 2116 08b4 07       		.sleb128 7
 2117 08b5 1B       		.uleb128 0x1b
 2118 08b6 1A040000 		.4byte	.LASF152
 2119 08ba 08       		.sleb128 8
 2120 08bb 1B       		.uleb128 0x1b
 2121 08bc 07040000 		.4byte	.LASF153
 2122 08c0 09       		.sleb128 9
 2123 08c1 1B       		.uleb128 0x1b
 2124 08c2 61090000 		.4byte	.LASF154
 2125 08c6 0A       		.sleb128 10
 2126 08c7 1B       		.uleb128 0x1b
 2127 08c8 A7000000 		.4byte	.LASF155
 2128 08cc 0B       		.sleb128 11
 2129 08cd 1B       		.uleb128 0x1b
 2130 08ce 640A0000 		.4byte	.LASF156
 2131 08d2 0C       		.sleb128 12
 2132 08d3 1B       		.uleb128 0x1b
 2133 08d4 BD0A0000 		.4byte	.LASF157
 2134 08d8 0D       		.sleb128 13
 2135 08d9 1B       		.uleb128 0x1b
 2136 08da CA090000 		.4byte	.LASF158
 2137 08de 0E       		.sleb128 14
 2138 08df 00       		.byte	0
 2139 08e0 06       		.uleb128 0x6
 2140 08e1 13030000 		.4byte	.LASF159
 2141 08e5 10       		.byte	0x10
 2142 08e6 13       		.byte	0x13
 2143 08e7 4F       		.byte	0x4f
 2144 08e8 41090000 		.4byte	0x941
 2145 08ec 07       		.uleb128 0x7
 2146 08ed 450C0000 		.4byte	.LASF160
 2147 08f1 13       		.byte	0x13
ARM GAS  C:\Users\Luis\AppData\Local\Temp\ccRkfmdd.s 			page 39


 2148 08f2 51       		.byte	0x51
 2149 08f3 41090000 		.4byte	0x941
 2150 08f7 00       		.byte	0
 2151 08f8 07       		.uleb128 0x7
 2152 08f9 7A050000 		.4byte	.LASF161
 2153 08fd 13       		.byte	0x13
 2154 08fe 54       		.byte	0x54
 2155 08ff 3C030000 		.4byte	0x33c
 2156 0903 04       		.byte	0x4
 2157 0904 07       		.uleb128 0x7
 2158 0905 33080000 		.4byte	.LASF162
 2159 0909 13       		.byte	0x13
 2160 090a 5D       		.byte	0x5d
 2161 090b 3A080000 		.4byte	0x83a
 2162 090f 08       		.byte	0x8
 2163 0910 12       		.uleb128 0x12
 2164 0911 6C656E00 		.ascii	"len\000"
 2165 0915 13       		.byte	0x13
 2166 0916 60       		.byte	0x60
 2167 0917 3A080000 		.4byte	0x83a
 2168 091b 0A       		.byte	0xa
 2169 091c 07       		.uleb128 0x7
 2170 091d E4000000 		.4byte	.LASF163
 2171 0921 13       		.byte	0x13
 2172 0922 63       		.byte	0x63
 2173 0923 24080000 		.4byte	0x824
 2174 0927 0C       		.byte	0xc
 2175 0928 07       		.uleb128 0x7
 2176 0929 6A030000 		.4byte	.LASF164
 2177 092d 13       		.byte	0x13
 2178 092e 66       		.byte	0x66
 2179 092f 24080000 		.4byte	0x824
 2180 0933 0D       		.byte	0xd
 2181 0934 12       		.uleb128 0x12
 2182 0935 72656600 		.ascii	"ref\000"
 2183 0939 13       		.byte	0x13
 2184 093a 6D       		.byte	0x6d
 2185 093b 3A080000 		.4byte	0x83a
 2186 093f 0E       		.byte	0xe
 2187 0940 00       		.byte	0
 2188 0941 0A       		.uleb128 0xa
 2189 0942 04       		.byte	0x4
 2190 0943 E0080000 		.4byte	0x8e0
 2191 0947 06       		.uleb128 0x6
 2192 0948 97030000 		.4byte	.LASF165
 2193 094c 04       		.byte	0x4
 2194 094d 14       		.byte	0x14
 2195 094e 2C       		.byte	0x2c
 2196 094f 60090000 		.4byte	0x960
 2197 0953 07       		.uleb128 0x7
 2198 0954 7A060000 		.4byte	.LASF166
 2199 0958 14       		.byte	0x14
 2200 0959 2D       		.byte	0x2d
 2201 095a 45080000 		.4byte	0x845
 2202 095e 00       		.byte	0
 2203 095f 00       		.byte	0
 2204 0960 03       		.uleb128 0x3
ARM GAS  C:\Users\Luis\AppData\Local\Temp\ccRkfmdd.s 			page 40


 2205 0961 3B080000 		.4byte	.LASF167
 2206 0965 14       		.byte	0x14
 2207 0966 40       		.byte	0x40
 2208 0967 47090000 		.4byte	0x947
 2209 096b 0A       		.uleb128 0xa
 2210 096c 04       		.byte	0x4
 2211 096d 71090000 		.4byte	0x971
 2212 0971 06       		.uleb128 0x6
 2213 0972 E5040000 		.4byte	.LASF168
 2214 0976 30       		.byte	0x30
 2215 0977 15       		.byte	0x15
 2216 0978 88       		.byte	0x88
 2217 0979 250A0000 		.4byte	0xa25
 2218 097d 07       		.uleb128 0x7
 2219 097e 450C0000 		.4byte	.LASF160
 2220 0982 15       		.byte	0x15
 2221 0983 8A       		.byte	0x8a
 2222 0984 6B090000 		.4byte	0x96b
 2223 0988 00       		.byte	0
 2224 0989 07       		.uleb128 0x7
 2225 098a 97030000 		.4byte	.LASF165
 2226 098e 15       		.byte	0x15
 2227 098f 8D       		.byte	0x8d
 2228 0990 60090000 		.4byte	0x960
 2229 0994 04       		.byte	0x4
 2230 0995 07       		.uleb128 0x7
 2231 0996 32060000 		.4byte	.LASF169
 2232 099a 15       		.byte	0x15
 2233 099b 8E       		.byte	0x8e
 2234 099c 60090000 		.4byte	0x960
 2235 09a0 08       		.byte	0x8
 2236 09a1 12       		.uleb128 0x12
 2237 09a2 677700   		.ascii	"gw\000"
 2238 09a5 15       		.byte	0x15
 2239 09a6 8F       		.byte	0x8f
 2240 09a7 60090000 		.4byte	0x960
 2241 09ab 0C       		.byte	0xc
 2242 09ac 07       		.uleb128 0x7
 2243 09ad D1030000 		.4byte	.LASF170
 2244 09b1 15       		.byte	0x15
 2245 09b2 93       		.byte	0x93
 2246 09b3 250A0000 		.4byte	0xa25
 2247 09b7 10       		.byte	0x10
 2248 09b8 07       		.uleb128 0x7
 2249 09b9 0C030000 		.4byte	.LASF171
 2250 09bd 15       		.byte	0x15
 2251 09be 97       		.byte	0x97
 2252 09bf 4A0A0000 		.4byte	0xa4a
 2253 09c3 14       		.byte	0x14
 2254 09c4 07       		.uleb128 0x7
 2255 09c5 10020000 		.4byte	.LASF172
 2256 09c9 15       		.byte	0x15
 2257 09ca 9B       		.byte	0x9b
 2258 09cb 7A0A0000 		.4byte	0xa7a
 2259 09cf 18       		.byte	0x18
 2260 09d0 07       		.uleb128 0x7
 2261 09d1 CE000000 		.4byte	.LASF173
ARM GAS  C:\Users\Luis\AppData\Local\Temp\ccRkfmdd.s 			page 41


 2262 09d5 15       		.byte	0x15
 2263 09d6 AC       		.byte	0xac
 2264 09d7 3C030000 		.4byte	0x33c
 2265 09db 1C       		.byte	0x1c
 2266 09dc 12       		.uleb128 0x12
 2267 09dd 6D747500 		.ascii	"mtu\000"
 2268 09e1 15       		.byte	0x15
 2269 09e2 BA       		.byte	0xba
 2270 09e3 3A080000 		.4byte	0x83a
 2271 09e7 20       		.byte	0x20
 2272 09e8 07       		.uleb128 0x7
 2273 09e9 1B020000 		.4byte	.LASF174
 2274 09ed 15       		.byte	0x15
 2275 09ee BC       		.byte	0xbc
 2276 09ef 24080000 		.4byte	0x824
 2277 09f3 22       		.byte	0x22
 2278 09f4 07       		.uleb128 0x7
 2279 09f5 06050000 		.4byte	.LASF175
 2280 09f9 15       		.byte	0x15
 2281 09fa BE       		.byte	0xbe
 2282 09fb 9F0A0000 		.4byte	0xa9f
 2283 09ff 23       		.byte	0x23
 2284 0a00 07       		.uleb128 0x7
 2285 0a01 6A030000 		.4byte	.LASF164
 2286 0a05 15       		.byte	0x15
 2287 0a06 C0       		.byte	0xc0
 2288 0a07 24080000 		.4byte	0x824
 2289 0a0b 29       		.byte	0x29
 2290 0a0c 07       		.uleb128 0x7
 2291 0a0d 520A0000 		.4byte	.LASF176
 2292 0a11 15       		.byte	0x15
 2293 0a12 C2       		.byte	0xc2
 2294 0a13 AF0A0000 		.4byte	0xaaf
 2295 0a17 2A       		.byte	0x2a
 2296 0a18 12       		.uleb128 0x12
 2297 0a19 6E756D00 		.ascii	"num\000"
 2298 0a1d 15       		.byte	0x15
 2299 0a1e C4       		.byte	0xc4
 2300 0a1f 24080000 		.4byte	0x824
 2301 0a23 2C       		.byte	0x2c
 2302 0a24 00       		.byte	0
 2303 0a25 03       		.uleb128 0x3
 2304 0a26 F5060000 		.4byte	.LASF177
 2305 0a2a 15       		.byte	0x15
 2306 0a2b 6D       		.byte	0x6d
 2307 0a2c 300A0000 		.4byte	0xa30
 2308 0a30 0A       		.uleb128 0xa
 2309 0a31 04       		.byte	0x4
 2310 0a32 360A0000 		.4byte	0xa36
 2311 0a36 1C       		.uleb128 0x1c
 2312 0a37 50080000 		.4byte	0x850
 2313 0a3b 4A0A0000 		.4byte	0xa4a
 2314 0a3f 0D       		.uleb128 0xd
 2315 0a40 41090000 		.4byte	0x941
 2316 0a44 0D       		.uleb128 0xd
 2317 0a45 6B090000 		.4byte	0x96b
 2318 0a49 00       		.byte	0
ARM GAS  C:\Users\Luis\AppData\Local\Temp\ccRkfmdd.s 			page 42


 2319 0a4a 03       		.uleb128 0x3
 2320 0a4b 13080000 		.4byte	.LASF178
 2321 0a4f 15       		.byte	0x15
 2322 0a50 76       		.byte	0x76
 2323 0a51 550A0000 		.4byte	0xa55
 2324 0a55 0A       		.uleb128 0xa
 2325 0a56 04       		.byte	0x4
 2326 0a57 5B0A0000 		.4byte	0xa5b
 2327 0a5b 1C       		.uleb128 0x1c
 2328 0a5c 50080000 		.4byte	0x850
 2329 0a60 740A0000 		.4byte	0xa74
 2330 0a64 0D       		.uleb128 0xd
 2331 0a65 6B090000 		.4byte	0x96b
 2332 0a69 0D       		.uleb128 0xd
 2333 0a6a 41090000 		.4byte	0x941
 2334 0a6e 0D       		.uleb128 0xd
 2335 0a6f 740A0000 		.4byte	0xa74
 2336 0a73 00       		.byte	0
 2337 0a74 0A       		.uleb128 0xa
 2338 0a75 04       		.byte	0x4
 2339 0a76 60090000 		.4byte	0x960
 2340 0a7a 03       		.uleb128 0x3
 2341 0a7b E7070000 		.4byte	.LASF179
 2342 0a7f 15       		.byte	0x15
 2343 0a80 7E       		.byte	0x7e
 2344 0a81 850A0000 		.4byte	0xa85
 2345 0a85 0A       		.uleb128 0xa
 2346 0a86 04       		.byte	0x4
 2347 0a87 8B0A0000 		.4byte	0xa8b
 2348 0a8b 1C       		.uleb128 0x1c
 2349 0a8c 50080000 		.4byte	0x850
 2350 0a90 9F0A0000 		.4byte	0xa9f
 2351 0a94 0D       		.uleb128 0xd
 2352 0a95 6B090000 		.4byte	0x96b
 2353 0a99 0D       		.uleb128 0xd
 2354 0a9a 41090000 		.4byte	0x941
 2355 0a9e 00       		.byte	0
 2356 0a9f 15       		.uleb128 0x15
 2357 0aa0 24080000 		.4byte	0x824
 2358 0aa4 AF0A0000 		.4byte	0xaaf
 2359 0aa8 16       		.uleb128 0x16
 2360 0aa9 AB040000 		.4byte	0x4ab
 2361 0aad 05       		.byte	0x5
 2362 0aae 00       		.byte	0
 2363 0aaf 15       		.uleb128 0x15
 2364 0ab0 77070000 		.4byte	0x777
 2365 0ab4 BF0A0000 		.4byte	0xabf
 2366 0ab8 16       		.uleb128 0x16
 2367 0ab9 AB040000 		.4byte	0x4ab
 2368 0abd 01       		.byte	0x1
 2369 0abe 00       		.byte	0
 2370 0abf 06       		.uleb128 0x6
 2371 0ac0 78030000 		.4byte	.LASF180
 2372 0ac4 10       		.byte	0x10
 2373 0ac5 16       		.byte	0x16
 2374 0ac6 30       		.byte	0x30
 2375 0ac7 FA0A0000 		.4byte	0xafa
ARM GAS  C:\Users\Luis\AppData\Local\Temp\ccRkfmdd.s 			page 43


 2376 0acb 12       		.uleb128 0x12
 2377 0acc 7000     		.ascii	"p\000"
 2378 0ace 16       		.byte	0x16
 2379 0acf 31       		.byte	0x31
 2380 0ad0 41090000 		.4byte	0x941
 2381 0ad4 00       		.byte	0
 2382 0ad5 12       		.uleb128 0x12
 2383 0ad6 70747200 		.ascii	"ptr\000"
 2384 0ada 16       		.byte	0x16
 2385 0adb 31       		.byte	0x31
 2386 0adc 41090000 		.4byte	0x941
 2387 0ae0 04       		.byte	0x4
 2388 0ae1 07       		.uleb128 0x7
 2389 0ae2 7A060000 		.4byte	.LASF166
 2390 0ae6 16       		.byte	0x16
 2391 0ae7 32       		.byte	0x32
 2392 0ae8 60090000 		.4byte	0x960
 2393 0aec 08       		.byte	0x8
 2394 0aed 07       		.uleb128 0x7
 2395 0aee 5F0A0000 		.4byte	.LASF181
 2396 0af2 16       		.byte	0x16
 2397 0af3 33       		.byte	0x33
 2398 0af4 3A080000 		.4byte	0x83a
 2399 0af8 0C       		.byte	0xc
 2400 0af9 00       		.byte	0
 2401 0afa 1D       		.uleb128 0x1d
 2402 0afb 5D030000 		.4byte	.LASF188
 2403 0aff 01       		.byte	0x1
 2404 0b00 17       		.byte	0x17
 2405 0b01 53       		.byte	0x53
 2406 0b02 2C0B0000 		.4byte	0xb2c
 2407 0b06 1B       		.uleb128 0x1b
 2408 0b07 0D010000 		.4byte	.LASF182
 2409 0b0b 00       		.sleb128 0
 2410 0b0c 1B       		.uleb128 0x1b
 2411 0b0d FB020000 		.4byte	.LASF183
 2412 0b11 10       		.sleb128 16
 2413 0b12 1B       		.uleb128 0x1b
 2414 0b13 F0050000 		.4byte	.LASF184
 2415 0b17 20       		.sleb128 32
 2416 0b18 1B       		.uleb128 0x1b
 2417 0b19 A40A0000 		.4byte	.LASF185
 2418 0b1d 21       		.sleb128 33
 2419 0b1e 1B       		.uleb128 0x1b
 2420 0b1f BD030000 		.4byte	.LASF186
 2421 0b23 22       		.sleb128 34
 2422 0b24 1B       		.uleb128 0x1b
 2423 0b25 2D0A0000 		.4byte	.LASF187
 2424 0b29 C000     		.sleb128 64
 2425 0b2b 00       		.byte	0
 2426 0b2c 1D       		.uleb128 0x1d
 2427 0b2d 62060000 		.4byte	.LASF189
 2428 0b31 01       		.byte	0x1
 2429 0b32 17       		.byte	0x17
 2430 0b33 61       		.byte	0x61
 2431 0b34 570B0000 		.4byte	0xb57
 2432 0b38 1B       		.uleb128 0x1b
ARM GAS  C:\Users\Luis\AppData\Local\Temp\ccRkfmdd.s 			page 44


 2433 0b39 000B0000 		.4byte	.LASF190
 2434 0b3d 00       		.sleb128 0
 2435 0b3e 1B       		.uleb128 0x1b
 2436 0b3f A9010000 		.4byte	.LASF191
 2437 0b43 01       		.sleb128 1
 2438 0b44 1B       		.uleb128 0x1b
 2439 0b45 8C0A0000 		.4byte	.LASF192
 2440 0b49 02       		.sleb128 2
 2441 0b4a 1B       		.uleb128 0x1b
 2442 0b4b 23080000 		.4byte	.LASF193
 2443 0b4f 03       		.sleb128 3
 2444 0b50 1B       		.uleb128 0x1b
 2445 0b51 AE040000 		.4byte	.LASF194
 2446 0b55 04       		.sleb128 4
 2447 0b56 00       		.byte	0
 2448 0b57 1D       		.uleb128 0x1d
 2449 0b58 F6010000 		.4byte	.LASF195
 2450 0b5c 01       		.byte	0x1
 2451 0b5d 17       		.byte	0x17
 2452 0b5e 6A       		.byte	0x6a
 2453 0b5f 820B0000 		.4byte	0xb82
 2454 0b63 1B       		.uleb128 0x1b
 2455 0b64 D00B0000 		.4byte	.LASF196
 2456 0b68 00       		.sleb128 0
 2457 0b69 1B       		.uleb128 0x1b
 2458 0b6a A8090000 		.4byte	.LASF197
 2459 0b6e 01       		.sleb128 1
 2460 0b6f 1B       		.uleb128 0x1b
 2461 0b70 17050000 		.4byte	.LASF198
 2462 0b74 02       		.sleb128 2
 2463 0b75 1B       		.uleb128 0x1b
 2464 0b76 76090000 		.4byte	.LASF199
 2465 0b7a 03       		.sleb128 3
 2466 0b7b 1B       		.uleb128 0x1b
 2467 0b7c 80010000 		.4byte	.LASF200
 2468 0b80 04       		.sleb128 4
 2469 0b81 00       		.byte	0
 2470 0b82 03       		.uleb128 0x3
 2471 0b83 AE0B0000 		.4byte	.LASF201
 2472 0b87 17       		.byte	0x17
 2473 0b88 83       		.byte	0x83
 2474 0b89 8D0B0000 		.4byte	0xb8d
 2475 0b8d 0A       		.uleb128 0xa
 2476 0b8e 04       		.byte	0x4
 2477 0b8f 930B0000 		.4byte	0xb93
 2478 0b93 0C       		.uleb128 0xc
 2479 0b94 A80B0000 		.4byte	0xba8
 2480 0b98 0D       		.uleb128 0xd
 2481 0b99 A80B0000 		.4byte	0xba8
 2482 0b9d 0D       		.uleb128 0xd
 2483 0b9e 570B0000 		.4byte	0xb57
 2484 0ba2 0D       		.uleb128 0xd
 2485 0ba3 3A080000 		.4byte	0x83a
 2486 0ba7 00       		.byte	0
 2487 0ba8 0A       		.uleb128 0xa
 2488 0ba9 04       		.byte	0x4
 2489 0baa AE0B0000 		.4byte	0xbae
ARM GAS  C:\Users\Luis\AppData\Local\Temp\ccRkfmdd.s 			page 45


 2490 0bae 06       		.uleb128 0x6
 2491 0baf 5C010000 		.4byte	.LASF202
 2492 0bb3 2C       		.byte	0x2c
 2493 0bb4 17       		.byte	0x17
 2494 0bb5 86       		.byte	0x86
 2495 0bb6 4B0C0000 		.4byte	0xc4b
 2496 0bba 07       		.uleb128 0x7
 2497 0bbb E4000000 		.4byte	.LASF163
 2498 0bbf 17       		.byte	0x17
 2499 0bc0 88       		.byte	0x88
 2500 0bc1 FA0A0000 		.4byte	0xafa
 2501 0bc5 00       		.byte	0
 2502 0bc6 07       		.uleb128 0x7
 2503 0bc7 CE000000 		.4byte	.LASF173
 2504 0bcb 17       		.byte	0x17
 2505 0bcc 8A       		.byte	0x8a
 2506 0bcd 2C0B0000 		.4byte	0xb2c
 2507 0bd1 01       		.byte	0x1
 2508 0bd2 12       		.uleb128 0x12
 2509 0bd3 70636200 		.ascii	"pcb\000"
 2510 0bd7 17       		.byte	0x17
 2511 0bd8 91       		.byte	0x91
 2512 0bd9 4B0C0000 		.4byte	0xc4b
 2513 0bdd 04       		.byte	0x4
 2514 0bde 07       		.uleb128 0x7
 2515 0bdf 820C0000 		.4byte	.LASF203
 2516 0be3 17       		.byte	0x17
 2517 0be4 93       		.byte	0x93
 2518 0be5 50080000 		.4byte	0x850
 2519 0be9 08       		.byte	0x8
 2520 0bea 07       		.uleb128 0x7
 2521 0beb 6B010000 		.4byte	.LASF204
 2522 0bef 17       		.byte	0x17
 2523 0bf0 95       		.byte	0x95
 2524 0bf1 5B080000 		.4byte	0x85b
 2525 0bf5 0C       		.byte	0xc
 2526 0bf6 07       		.uleb128 0x7
 2527 0bf7 C70B0000 		.4byte	.LASF205
 2528 0bfb 17       		.byte	0x17
 2529 0bfc 98       		.byte	0x98
 2530 0bfd 6C080000 		.4byte	0x86c
 2531 0c01 10       		.byte	0x10
 2532 0c02 07       		.uleb128 0x7
 2533 0c03 5F050000 		.4byte	.LASF206
 2534 0c07 17       		.byte	0x17
 2535 0c08 9C       		.byte	0x9c
 2536 0c09 6C080000 		.4byte	0x86c
 2537 0c0d 14       		.byte	0x14
 2538 0c0e 07       		.uleb128 0x7
 2539 0c0f 140B0000 		.4byte	.LASF207
 2540 0c13 17       		.byte	0x17
 2541 0c14 A0       		.byte	0xa0
 2542 0c15 25000000 		.4byte	0x25
 2543 0c19 18       		.byte	0x18
 2544 0c1a 07       		.uleb128 0x7
 2545 0c1b 6A030000 		.4byte	.LASF164
 2546 0c1f 17       		.byte	0x17
ARM GAS  C:\Users\Luis\AppData\Local\Temp\ccRkfmdd.s 			page 46


 2547 0c20 B6       		.byte	0xb6
 2548 0c21 24080000 		.4byte	0x824
 2549 0c25 1C       		.byte	0x1c
 2550 0c26 07       		.uleb128 0x7
 2551 0c27 110A0000 		.4byte	.LASF208
 2552 0c2b 17       		.byte	0x17
 2553 0c2c BA       		.byte	0xba
 2554 0c2d 2C000000 		.4byte	0x2c
 2555 0c31 20       		.byte	0x20
 2556 0c32 07       		.uleb128 0x7
 2557 0c33 C7040000 		.4byte	.LASF209
 2558 0c37 17       		.byte	0x17
 2559 0c38 BE       		.byte	0xbe
 2560 0c39 200D0000 		.4byte	0xd20
 2561 0c3d 24       		.byte	0x24
 2562 0c3e 07       		.uleb128 0x7
 2563 0c3f 6A050000 		.4byte	.LASF210
 2564 0c43 17       		.byte	0x17
 2565 0c44 C1       		.byte	0xc1
 2566 0c45 820B0000 		.4byte	0xb82
 2567 0c49 28       		.byte	0x28
 2568 0c4a 00       		.byte	0
 2569 0c4b 17       		.uleb128 0x17
 2570 0c4c 04       		.byte	0x4
 2571 0c4d 17       		.byte	0x17
 2572 0c4e 8C       		.byte	0x8c
 2573 0c4f 7F0C0000 		.4byte	0xc7f
 2574 0c53 1E       		.uleb128 0x1e
 2575 0c54 697000   		.ascii	"ip\000"
 2576 0c57 17       		.byte	0x17
 2577 0c58 8D       		.byte	0x8d
 2578 0c59 C80C0000 		.4byte	0xcc8
 2579 0c5d 1E       		.uleb128 0x1e
 2580 0c5e 74637000 		.ascii	"tcp\000"
 2581 0c62 17       		.byte	0x17
 2582 0c63 8E       		.byte	0x8e
 2583 0c64 D30C0000 		.4byte	0xcd3
 2584 0c68 1E       		.uleb128 0x1e
 2585 0c69 75647000 		.ascii	"udp\000"
 2586 0c6d 17       		.byte	0x17
 2587 0c6e 8F       		.byte	0x8f
 2588 0c6f DE0C0000 		.4byte	0xcde
 2589 0c73 1E       		.uleb128 0x1e
 2590 0c74 72617700 		.ascii	"raw\000"
 2591 0c78 17       		.byte	0x17
 2592 0c79 90       		.byte	0x90
 2593 0c7a E90C0000 		.4byte	0xce9
 2594 0c7e 00       		.byte	0
 2595 0c7f 06       		.uleb128 0x6
 2596 0c80 0A060000 		.4byte	.LASF211
 2597 0c84 0C       		.byte	0xc
 2598 0c85 18       		.byte	0x18
 2599 0c86 59       		.byte	0x59
 2600 0c87 C80C0000 		.4byte	0xcc8
 2601 0c8b 07       		.uleb128 0x7
 2602 0c8c 9E020000 		.4byte	.LASF212
 2603 0c90 18       		.byte	0x18
ARM GAS  C:\Users\Luis\AppData\Local\Temp\ccRkfmdd.s 			page 47


 2604 0c91 5B       		.byte	0x5b
 2605 0c92 60090000 		.4byte	0x960
 2606 0c96 00       		.byte	0
 2607 0c97 07       		.uleb128 0x7
 2608 0c98 F3090000 		.4byte	.LASF213
 2609 0c9c 18       		.byte	0x18
 2610 0c9d 5B       		.byte	0x5b
 2611 0c9e 60090000 		.4byte	0x960
 2612 0ca2 04       		.byte	0x4
 2613 0ca3 07       		.uleb128 0x7
 2614 0ca4 9C000000 		.4byte	.LASF214
 2615 0ca8 18       		.byte	0x18
 2616 0ca9 5B       		.byte	0x5b
 2617 0caa 24080000 		.4byte	0x824
 2618 0cae 08       		.byte	0x8
 2619 0caf 12       		.uleb128 0x12
 2620 0cb0 746F7300 		.ascii	"tos\000"
 2621 0cb4 18       		.byte	0x18
 2622 0cb5 5B       		.byte	0x5b
 2623 0cb6 24080000 		.4byte	0x824
 2624 0cba 09       		.byte	0x9
 2625 0cbb 12       		.uleb128 0x12
 2626 0cbc 74746C00 		.ascii	"ttl\000"
 2627 0cc0 18       		.byte	0x18
 2628 0cc1 5B       		.byte	0x5b
 2629 0cc2 24080000 		.4byte	0x824
 2630 0cc6 0A       		.byte	0xa
 2631 0cc7 00       		.byte	0
 2632 0cc8 0A       		.uleb128 0xa
 2633 0cc9 04       		.byte	0x4
 2634 0cca 7F0C0000 		.4byte	0xc7f
 2635 0cce 1F       		.uleb128 0x1f
 2636 0ccf 70030000 		.4byte	.LASF215
 2637 0cd3 0A       		.uleb128 0xa
 2638 0cd4 04       		.byte	0x4
 2639 0cd5 CE0C0000 		.4byte	0xcce
 2640 0cd9 1F       		.uleb128 0x1f
 2641 0cda 4C030000 		.4byte	.LASF216
 2642 0cde 0A       		.uleb128 0xa
 2643 0cdf 04       		.byte	0x4
 2644 0ce0 D90C0000 		.4byte	0xcd9
 2645 0ce4 1F       		.uleb128 0x1f
 2646 0ce5 930B0000 		.4byte	.LASF217
 2647 0ce9 0A       		.uleb128 0xa
 2648 0cea 04       		.byte	0x4
 2649 0ceb E40C0000 		.4byte	0xce4
 2650 0cef 06       		.uleb128 0x6
 2651 0cf0 D3090000 		.4byte	.LASF218
 2652 0cf4 14       		.byte	0x14
 2653 0cf5 19       		.byte	0x19
 2654 0cf6 3E       		.byte	0x3e
 2655 0cf7 200D0000 		.4byte	0xd20
 2656 0cfb 07       		.uleb128 0x7
 2657 0cfc 08010000 		.4byte	.LASF219
 2658 0d00 19       		.byte	0x19
 2659 0d01 41       		.byte	0x41
 2660 0d02 A80B0000 		.4byte	0xba8
ARM GAS  C:\Users\Luis\AppData\Local\Temp\ccRkfmdd.s 			page 48


 2661 0d06 00       		.byte	0
 2662 0d07 12       		.uleb128 0x12
 2663 0d08 65727200 		.ascii	"err\000"
 2664 0d0c 19       		.byte	0x19
 2665 0d0d 43       		.byte	0x43
 2666 0d0e 50080000 		.4byte	0x850
 2667 0d12 04       		.byte	0x4
 2668 0d13 12       		.uleb128 0x12
 2669 0d14 6D736700 		.ascii	"msg\000"
 2670 0d18 19       		.byte	0x19
 2671 0d19 75       		.byte	0x75
 2672 0d1a ED0D0000 		.4byte	0xded
 2673 0d1e 08       		.byte	0x8
 2674 0d1f 00       		.byte	0
 2675 0d20 0A       		.uleb128 0xa
 2676 0d21 04       		.byte	0x4
 2677 0d22 EF0C0000 		.4byte	0xcef
 2678 0d26 13       		.uleb128 0x13
 2679 0d27 01       		.byte	0x1
 2680 0d28 19       		.byte	0x19
 2681 0d29 49       		.byte	0x49
 2682 0d2a 3B0D0000 		.4byte	0xd3b
 2683 0d2e 07       		.uleb128 0x7
 2684 0d2f 6E000000 		.4byte	.LASF220
 2685 0d33 19       		.byte	0x19
 2686 0d34 4A       		.byte	0x4a
 2687 0d35 24080000 		.4byte	0x824
 2688 0d39 00       		.byte	0
 2689 0d3a 00       		.byte	0
 2690 0d3b 13       		.uleb128 0x13
 2691 0d3c 08       		.byte	0x8
 2692 0d3d 19       		.byte	0x19
 2693 0d3e 4D       		.byte	0x4d
 2694 0d3f 5C0D0000 		.4byte	0xd5c
 2695 0d43 07       		.uleb128 0x7
 2696 0d44 64010000 		.4byte	.LASF221
 2697 0d48 19       		.byte	0x19
 2698 0d49 4E       		.byte	0x4e
 2699 0d4a 740A0000 		.4byte	0xa74
 2700 0d4e 00       		.byte	0
 2701 0d4f 07       		.uleb128 0x7
 2702 0d50 5F0A0000 		.4byte	.LASF181
 2703 0d54 19       		.byte	0x19
 2704 0d55 4F       		.byte	0x4f
 2705 0d56 3A080000 		.4byte	0x83a
 2706 0d5a 04       		.byte	0x4
 2707 0d5b 00       		.byte	0
 2708 0d5c 13       		.uleb128 0x13
 2709 0d5d 0C       		.byte	0xc
 2710 0d5e 19       		.byte	0x19
 2711 0d5f 52       		.byte	0x52
 2712 0d60 890D0000 		.4byte	0xd89
 2713 0d64 07       		.uleb128 0x7
 2714 0d65 64010000 		.4byte	.LASF221
 2715 0d69 19       		.byte	0x19
 2716 0d6a 53       		.byte	0x53
 2717 0d6b 740A0000 		.4byte	0xa74
ARM GAS  C:\Users\Luis\AppData\Local\Temp\ccRkfmdd.s 			page 49


 2718 0d6f 00       		.byte	0
 2719 0d70 07       		.uleb128 0x7
 2720 0d71 5F0A0000 		.4byte	.LASF181
 2721 0d75 19       		.byte	0x19
 2722 0d76 54       		.byte	0x54
 2723 0d77 890D0000 		.4byte	0xd89
 2724 0d7b 04       		.byte	0x4
 2725 0d7c 07       		.uleb128 0x7
 2726 0d7d E9000000 		.4byte	.LASF222
 2727 0d81 19       		.byte	0x19
 2728 0d82 55       		.byte	0x55
 2729 0d83 24080000 		.4byte	0x824
 2730 0d87 08       		.byte	0x8
 2731 0d88 00       		.byte	0
 2732 0d89 0A       		.uleb128 0xa
 2733 0d8a 04       		.byte	0x4
 2734 0d8b 3A080000 		.4byte	0x83a
 2735 0d8f 13       		.uleb128 0x13
 2736 0d90 0C       		.byte	0xc
 2737 0d91 19       		.byte	0x19
 2738 0d92 58       		.byte	0x58
 2739 0d93 BC0D0000 		.4byte	0xdbc
 2740 0d97 07       		.uleb128 0x7
 2741 0d98 BF0B0000 		.4byte	.LASF223
 2742 0d9c 19       		.byte	0x19
 2743 0d9d 59       		.byte	0x59
 2744 0d9e BC0D0000 		.4byte	0xdbc
 2745 0da2 00       		.byte	0
 2746 0da3 12       		.uleb128 0x12
 2747 0da4 6C656E00 		.ascii	"len\000"
 2748 0da8 19       		.byte	0x19
 2749 0da9 5A       		.byte	0x5a
 2750 0daa 2C000000 		.4byte	0x2c
 2751 0dae 04       		.byte	0x4
 2752 0daf 07       		.uleb128 0x7
 2753 0db0 F70A0000 		.4byte	.LASF224
 2754 0db4 19       		.byte	0x19
 2755 0db5 5B       		.byte	0x5b
 2756 0db6 24080000 		.4byte	0x824
 2757 0dba 08       		.byte	0x8
 2758 0dbb 00       		.byte	0
 2759 0dbc 0A       		.uleb128 0xa
 2760 0dbd 04       		.byte	0x4
 2761 0dbe C20D0000 		.4byte	0xdc2
 2762 0dc2 20       		.uleb128 0x20
 2763 0dc3 13       		.uleb128 0x13
 2764 0dc4 04       		.byte	0x4
 2765 0dc5 19       		.byte	0x19
 2766 0dc6 61       		.byte	0x61
 2767 0dc7 D80D0000 		.4byte	0xdd8
 2768 0dcb 12       		.uleb128 0x12
 2769 0dcc 6C656E00 		.ascii	"len\000"
 2770 0dd0 19       		.byte	0x19
 2771 0dd1 62       		.byte	0x62
 2772 0dd2 45080000 		.4byte	0x845
 2773 0dd6 00       		.byte	0
 2774 0dd7 00       		.byte	0
ARM GAS  C:\Users\Luis\AppData\Local\Temp\ccRkfmdd.s 			page 50


 2775 0dd8 13       		.uleb128 0x13
 2776 0dd9 01       		.byte	0x1
 2777 0dda 19       		.byte	0x19
 2778 0ddb 65       		.byte	0x65
 2779 0ddc ED0D0000 		.4byte	0xded
 2780 0de0 07       		.uleb128 0x7
 2781 0de1 B8030000 		.4byte	.LASF225
 2782 0de5 19       		.byte	0x19
 2783 0de6 66       		.byte	0x66
 2784 0de7 24080000 		.4byte	0x824
 2785 0deb 00       		.byte	0
 2786 0dec 00       		.byte	0
 2787 0ded 17       		.uleb128 0x17
 2788 0dee 0C       		.byte	0xc
 2789 0def 19       		.byte	0x19
 2790 0df0 45       		.byte	0x45
 2791 0df1 380E0000 		.4byte	0xe38
 2792 0df5 1E       		.uleb128 0x1e
 2793 0df6 6200     		.ascii	"b\000"
 2794 0df8 19       		.byte	0x19
 2795 0df9 47       		.byte	0x47
 2796 0dfa 380E0000 		.4byte	0xe38
 2797 0dfe 1E       		.uleb128 0x1e
 2798 0dff 6E00     		.ascii	"n\000"
 2799 0e01 19       		.byte	0x19
 2800 0e02 4B       		.byte	0x4b
 2801 0e03 260D0000 		.4byte	0xd26
 2802 0e07 1E       		.uleb128 0x1e
 2803 0e08 626300   		.ascii	"bc\000"
 2804 0e0b 19       		.byte	0x19
 2805 0e0c 50       		.byte	0x50
 2806 0e0d 3B0D0000 		.4byte	0xd3b
 2807 0e11 1E       		.uleb128 0x1e
 2808 0e12 616400   		.ascii	"ad\000"
 2809 0e15 19       		.byte	0x19
 2810 0e16 56       		.byte	0x56
 2811 0e17 5C0D0000 		.4byte	0xd5c
 2812 0e1b 1E       		.uleb128 0x1e
 2813 0e1c 7700     		.ascii	"w\000"
 2814 0e1e 19       		.byte	0x19
 2815 0e1f 5F       		.byte	0x5f
 2816 0e20 8F0D0000 		.4byte	0xd8f
 2817 0e24 1E       		.uleb128 0x1e
 2818 0e25 7200     		.ascii	"r\000"
 2819 0e27 19       		.byte	0x19
 2820 0e28 63       		.byte	0x63
 2821 0e29 C30D0000 		.4byte	0xdc3
 2822 0e2d 1E       		.uleb128 0x1e
 2823 0e2e 736400   		.ascii	"sd\000"
 2824 0e31 19       		.byte	0x19
 2825 0e32 67       		.byte	0x67
 2826 0e33 D80D0000 		.4byte	0xdd8
 2827 0e37 00       		.byte	0
 2828 0e38 0A       		.uleb128 0xa
 2829 0e39 04       		.byte	0x4
 2830 0e3a BF0A0000 		.4byte	0xabf
 2831 0e3e 06       		.uleb128 0x6
ARM GAS  C:\Users\Luis\AppData\Local\Temp\ccRkfmdd.s 			page 51


 2832 0e3f D7030000 		.4byte	.LASF226
 2833 0e43 18       		.byte	0x18
 2834 0e44 19       		.byte	0x19
 2835 0e45 7B       		.byte	0x7b
 2836 0e46 630E0000 		.4byte	0xe63
 2837 0e4a 07       		.uleb128 0x7
 2838 0e4b 79040000 		.4byte	.LASF227
 2839 0e4f 19       		.byte	0x19
 2840 0e50 7D       		.byte	0x7d
 2841 0e51 6E0E0000 		.4byte	0xe6e
 2842 0e55 00       		.byte	0
 2843 0e56 12       		.uleb128 0x12
 2844 0e57 6D736700 		.ascii	"msg\000"
 2845 0e5b 19       		.byte	0x19
 2846 0e5c 7F       		.byte	0x7f
 2847 0e5d EF0C0000 		.4byte	0xcef
 2848 0e61 04       		.byte	0x4
 2849 0e62 00       		.byte	0
 2850 0e63 0C       		.uleb128 0xc
 2851 0e64 6E0E0000 		.4byte	0xe6e
 2852 0e68 0D       		.uleb128 0xd
 2853 0e69 200D0000 		.4byte	0xd20
 2854 0e6d 00       		.byte	0
 2855 0e6e 0A       		.uleb128 0xa
 2856 0e6f 04       		.byte	0x4
 2857 0e70 630E0000 		.4byte	0xe63
 2858 0e74 03       		.uleb128 0x3
 2859 0e75 DF090000 		.4byte	.LASF228
 2860 0e79 1A       		.byte	0x1a
 2861 0e7a 41       		.byte	0x41
 2862 0e7b 2B030000 		.4byte	0x32b
 2863 0e7f 03       		.uleb128 0x3
 2864 0e80 88050000 		.4byte	.LASF229
 2865 0e84 1B       		.byte	0x1b
 2866 0e85 4C       		.byte	0x4c
 2867 0e86 2B030000 		.4byte	0x32b
 2868 0e8a 03       		.uleb128 0x3
 2869 0e8b 01080000 		.4byte	.LASF230
 2870 0e8f 1B       		.byte	0x1b
 2871 0e90 4E       		.byte	0x4e
 2872 0e91 2B030000 		.4byte	0x32b
 2873 0e95 1D       		.uleb128 0x1d
 2874 0e96 1E0A0000 		.4byte	.LASF231
 2875 0e9a 01       		.byte	0x1
 2876 0e9b 1B       		.byte	0x1b
 2877 0e9c 75       		.byte	0x75
 2878 0e9d C60E0000 		.4byte	0xec6
 2879 0ea1 1B       		.uleb128 0x1b
 2880 0ea2 6B040000 		.4byte	.LASF232
 2881 0ea6 00       		.sleb128 0
 2882 0ea7 1B       		.uleb128 0x1b
 2883 0ea8 CB050000 		.4byte	.LASF233
 2884 0eac 01       		.sleb128 1
 2885 0ead 1B       		.uleb128 0x1b
 2886 0eae 4F090000 		.4byte	.LASF234
 2887 0eb2 02       		.sleb128 2
 2888 0eb3 1B       		.uleb128 0x1b
ARM GAS  C:\Users\Luis\AppData\Local\Temp\ccRkfmdd.s 			page 52


 2889 0eb4 E30A0000 		.4byte	.LASF235
 2890 0eb8 03       		.sleb128 3
 2891 0eb9 1B       		.uleb128 0x1b
 2892 0eba 9F030000 		.4byte	.LASF236
 2893 0ebe 04       		.sleb128 4
 2894 0ebf 1B       		.uleb128 0x1b
 2895 0ec0 45080000 		.4byte	.LASF237
 2896 0ec4 05       		.sleb128 5
 2897 0ec5 00       		.byte	0
 2898 0ec6 13       		.uleb128 0x13
 2899 0ec7 08       		.byte	0x8
 2900 0ec8 1B       		.byte	0x1b
 2901 0ec9 8F       		.byte	0x8f
 2902 0eca E50E0000 		.4byte	0xee5
 2903 0ece 12       		.uleb128 0x12
 2904 0ecf 7000     		.ascii	"p\000"
 2905 0ed1 1B       		.byte	0x1b
 2906 0ed2 90       		.byte	0x90
 2907 0ed3 41090000 		.4byte	0x941
 2908 0ed7 00       		.byte	0
 2909 0ed8 07       		.uleb128 0x7
 2910 0ed9 E5040000 		.4byte	.LASF168
 2911 0edd 1B       		.byte	0x1b
 2912 0ede 91       		.byte	0x91
 2913 0edf 6B090000 		.4byte	0x96b
 2914 0ee3 04       		.byte	0x4
 2915 0ee4 00       		.byte	0
 2916 0ee5 13       		.uleb128 0x13
 2917 0ee6 08       		.byte	0x8
 2918 0ee7 1B       		.byte	0x1b
 2919 0ee8 93       		.byte	0x93
 2920 0ee9 060F0000 		.4byte	0xf06
 2921 0eed 07       		.uleb128 0x7
 2922 0eee 79040000 		.4byte	.LASF227
 2923 0ef2 1B       		.byte	0x1b
 2924 0ef3 94       		.byte	0x94
 2925 0ef4 8A0E0000 		.4byte	0xe8a
 2926 0ef8 00       		.byte	0
 2927 0ef9 12       		.uleb128 0x12
 2928 0efa 63747800 		.ascii	"ctx\000"
 2929 0efe 1B       		.byte	0x1b
 2930 0eff 95       		.byte	0x95
 2931 0f00 3C030000 		.4byte	0x33c
 2932 0f04 04       		.byte	0x4
 2933 0f05 00       		.byte	0
 2934 0f06 13       		.uleb128 0x13
 2935 0f07 0C       		.byte	0xc
 2936 0f08 1B       		.byte	0x1b
 2937 0f09 98       		.byte	0x98
 2938 0f0a 310F0000 		.4byte	0xf31
 2939 0f0e 07       		.uleb128 0x7
 2940 0f0f 82050000 		.4byte	.LASF238
 2941 0f13 1B       		.byte	0x1b
 2942 0f14 99       		.byte	0x99
 2943 0f15 45080000 		.4byte	0x845
 2944 0f19 00       		.byte	0
 2945 0f1a 12       		.uleb128 0x12
ARM GAS  C:\Users\Luis\AppData\Local\Temp\ccRkfmdd.s 			page 53


 2946 0f1b 6800     		.ascii	"h\000"
 2947 0f1d 1B       		.byte	0x1b
 2948 0f1e 9A       		.byte	0x9a
 2949 0f1f 740E0000 		.4byte	0xe74
 2950 0f23 04       		.byte	0x4
 2951 0f24 12       		.uleb128 0x12
 2952 0f25 61726700 		.ascii	"arg\000"
 2953 0f29 1B       		.byte	0x1b
 2954 0f2a 9B       		.byte	0x9b
 2955 0f2b 3C030000 		.4byte	0x33c
 2956 0f2f 08       		.byte	0x8
 2957 0f30 00       		.byte	0
 2958 0f31 17       		.uleb128 0x17
 2959 0f32 0C       		.byte	0xc
 2960 0f33 1B       		.byte	0x1b
 2961 0f34 88       		.byte	0x88
 2962 0f35 650F0000 		.4byte	0xf65
 2963 0f39 21       		.uleb128 0x21
 2964 0f3a C8060000 		.4byte	.LASF239
 2965 0f3e 1B       		.byte	0x1b
 2966 0f3f 8A       		.byte	0x8a
 2967 0f40 650F0000 		.4byte	0xf65
 2968 0f44 1E       		.uleb128 0x1e
 2969 0f45 696E7000 		.ascii	"inp\000"
 2970 0f49 1B       		.byte	0x1b
 2971 0f4a 92       		.byte	0x92
 2972 0f4b C60E0000 		.4byte	0xec6
 2973 0f4f 1E       		.uleb128 0x1e
 2974 0f50 636200   		.ascii	"cb\000"
 2975 0f53 1B       		.byte	0x1b
 2976 0f54 96       		.byte	0x96
 2977 0f55 E50E0000 		.4byte	0xee5
 2978 0f59 1E       		.uleb128 0x1e
 2979 0f5a 746D6F00 		.ascii	"tmo\000"
 2980 0f5e 1B       		.byte	0x1b
 2981 0f5f 9C       		.byte	0x9c
 2982 0f60 060F0000 		.4byte	0xf06
 2983 0f64 00       		.byte	0
 2984 0f65 0A       		.uleb128 0xa
 2985 0f66 04       		.byte	0x4
 2986 0f67 3E0E0000 		.4byte	0xe3e
 2987 0f6b 06       		.uleb128 0x6
 2988 0f6c DB050000 		.4byte	.LASF240
 2989 0f70 14       		.byte	0x14
 2990 0f71 1B       		.byte	0x1b
 2991 0f72 85       		.byte	0x85
 2992 0f73 9C0F0000 		.4byte	0xf9c
 2993 0f77 07       		.uleb128 0x7
 2994 0f78 E4000000 		.4byte	.LASF163
 2995 0f7c 1B       		.byte	0x1b
 2996 0f7d 86       		.byte	0x86
 2997 0f7e 950E0000 		.4byte	0xe95
 2998 0f82 00       		.byte	0
 2999 0f83 12       		.uleb128 0x12
 3000 0f84 73656D00 		.ascii	"sem\000"
 3001 0f88 1B       		.byte	0x1b
 3002 0f89 87       		.byte	0x87
ARM GAS  C:\Users\Luis\AppData\Local\Temp\ccRkfmdd.s 			page 54


 3003 0f8a 9C0F0000 		.4byte	0xf9c
 3004 0f8e 04       		.byte	0x4
 3005 0f8f 12       		.uleb128 0x12
 3006 0f90 6D736700 		.ascii	"msg\000"
 3007 0f94 1B       		.byte	0x1b
 3008 0f95 9E       		.byte	0x9e
 3009 0f96 310F0000 		.4byte	0xf31
 3010 0f9a 08       		.byte	0x8
 3011 0f9b 00       		.byte	0
 3012 0f9c 0A       		.uleb128 0xa
 3013 0f9d 04       		.byte	0x4
 3014 0f9e 5B080000 		.4byte	0x85b
 3015 0fa2 22       		.uleb128 0x22
 3016 0fa3 98080000 		.4byte	.LASF241
 3017 0fa7 01       		.byte	0x1
 3018 0fa8 CC01     		.2byte	0x1cc
 3019 0faa 00000000 		.4byte	.LFB230
 3020 0fae 14000000 		.4byte	.LFE230-.LFB230
 3021 0fb2 01       		.uleb128 0x1
 3022 0fb3 9C       		.byte	0x9c
 3023 0fb4 C80F0000 		.4byte	0xfc8
 3024 0fb8 23       		.uleb128 0x23
 3025 0fb9 96090000 		.4byte	.LASF243
 3026 0fbd 01       		.byte	0x1
 3027 0fbe CC01     		.2byte	0x1cc
 3028 0fc0 6C070000 		.4byte	0x76c
 3029 0fc4 02       		.uleb128 0x2
 3030 0fc5 91       		.byte	0x91
 3031 0fc6 74       		.sleb128 -12
 3032 0fc7 00       		.byte	0
 3033 0fc8 24       		.uleb128 0x24
 3034 0fc9 8A030000 		.4byte	.LASF242
 3035 0fcd 02       		.byte	0x2
 3036 0fce 4A       		.byte	0x4a
 3037 0fcf 00000000 		.4byte	.LFB260
 3038 0fd3 20010000 		.4byte	.LFE260-.LFB260
 3039 0fd7 01       		.uleb128 0x1
 3040 0fd8 9C       		.byte	0x9c
 3041 0fd9 FA0F0000 		.4byte	0xffa
 3042 0fdd 25       		.uleb128 0x25
 3043 0fde 61726700 		.ascii	"arg\000"
 3044 0fe2 02       		.byte	0x2
 3045 0fe3 4A       		.byte	0x4a
 3046 0fe4 3C030000 		.4byte	0x33c
 3047 0fe8 02       		.uleb128 0x2
 3048 0fe9 91       		.byte	0x91
 3049 0fea 6C       		.sleb128 -20
 3050 0feb 26       		.uleb128 0x26
 3051 0fec 6D736700 		.ascii	"msg\000"
 3052 0ff0 02       		.byte	0x2
 3053 0ff1 4C       		.byte	0x4c
 3054 0ff2 FA0F0000 		.4byte	0xffa
 3055 0ff6 02       		.uleb128 0x2
 3056 0ff7 91       		.byte	0x91
 3057 0ff8 74       		.sleb128 -12
 3058 0ff9 00       		.byte	0
 3059 0ffa 0A       		.uleb128 0xa
ARM GAS  C:\Users\Luis\AppData\Local\Temp\ccRkfmdd.s 			page 55


 3060 0ffb 04       		.byte	0x4
 3061 0ffc 6B0F0000 		.4byte	0xf6b
 3062 1000 27       		.uleb128 0x27
 3063 1001 B8000000 		.4byte	.LASF244
 3064 1005 02       		.byte	0x2
 3065 1006 A1       		.byte	0xa1
 3066 1007 50080000 		.4byte	0x850
 3067 100b 00000000 		.4byte	.LFB261
 3068 100f 68000000 		.4byte	.LFE261-.LFB261
 3069 1013 01       		.uleb128 0x1
 3070 1014 9C       		.byte	0x9c
 3071 1015 42100000 		.4byte	0x1042
 3072 1019 25       		.uleb128 0x25
 3073 101a 7000     		.ascii	"p\000"
 3074 101c 02       		.byte	0x2
 3075 101d A1       		.byte	0xa1
 3076 101e 41090000 		.4byte	0x941
 3077 1022 02       		.uleb128 0x2
 3078 1023 91       		.byte	0x91
 3079 1024 6C       		.sleb128 -20
 3080 1025 25       		.uleb128 0x25
 3081 1026 696E7000 		.ascii	"inp\000"
 3082 102a 02       		.byte	0x2
 3083 102b A1       		.byte	0xa1
 3084 102c 6B090000 		.4byte	0x96b
 3085 1030 02       		.uleb128 0x2
 3086 1031 91       		.byte	0x91
 3087 1032 68       		.sleb128 -24
 3088 1033 26       		.uleb128 0x26
 3089 1034 6D736700 		.ascii	"msg\000"
 3090 1038 02       		.byte	0x2
 3091 1039 B2       		.byte	0xb2
 3092 103a FA0F0000 		.4byte	0xffa
 3093 103e 02       		.uleb128 0x2
 3094 103f 91       		.byte	0x91
 3095 1040 74       		.sleb128 -12
 3096 1041 00       		.byte	0
 3097 1042 27       		.uleb128 0x27
 3098 1043 E5030000 		.4byte	.LASF245
 3099 1047 02       		.byte	0x2
 3100 1048 D3       		.byte	0xd3
 3101 1049 50080000 		.4byte	0x850
 3102 104d 00000000 		.4byte	.LFB262
 3103 1051 7C000000 		.4byte	.LFE262-.LFB262
 3104 1055 01       		.uleb128 0x1
 3105 1056 9C       		.byte	0x9c
 3106 1057 94100000 		.4byte	0x1094
 3107 105b 28       		.uleb128 0x28
 3108 105c 79040000 		.4byte	.LASF227
 3109 1060 02       		.byte	0x2
 3110 1061 D3       		.byte	0xd3
 3111 1062 8A0E0000 		.4byte	0xe8a
 3112 1066 02       		.uleb128 0x2
 3113 1067 91       		.byte	0x91
 3114 1068 6C       		.sleb128 -20
 3115 1069 25       		.uleb128 0x25
 3116 106a 63747800 		.ascii	"ctx\000"
ARM GAS  C:\Users\Luis\AppData\Local\Temp\ccRkfmdd.s 			page 56


 3117 106e 02       		.byte	0x2
 3118 106f D3       		.byte	0xd3
 3119 1070 3C030000 		.4byte	0x33c
 3120 1074 02       		.uleb128 0x2
 3121 1075 91       		.byte	0x91
 3122 1076 68       		.sleb128 -24
 3123 1077 28       		.uleb128 0x28
 3124 1078 FB070000 		.4byte	.LASF246
 3125 107c 02       		.byte	0x2
 3126 107d D3       		.byte	0xd3
 3127 107e 24080000 		.4byte	0x824
 3128 1082 02       		.uleb128 0x2
 3129 1083 91       		.byte	0x91
 3130 1084 67       		.sleb128 -25
 3131 1085 26       		.uleb128 0x26
 3132 1086 6D736700 		.ascii	"msg\000"
 3133 108a 02       		.byte	0x2
 3134 108b D5       		.byte	0xd5
 3135 108c FA0F0000 		.4byte	0xffa
 3136 1090 02       		.uleb128 0x2
 3137 1091 91       		.byte	0x91
 3138 1092 74       		.sleb128 -12
 3139 1093 00       		.byte	0
 3140 1094 27       		.uleb128 0x27
 3141 1095 02020000 		.4byte	.LASF247
 3142 1099 02       		.byte	0x2
 3143 109a F7       		.byte	0xf7
 3144 109b 50080000 		.4byte	0x850
 3145 109f 00000000 		.4byte	.LFB263
 3146 10a3 60000000 		.4byte	.LFE263-.LFB263
 3147 10a7 01       		.uleb128 0x1
 3148 10a8 9C       		.byte	0x9c
 3149 10a9 E4100000 		.4byte	0x10e4
 3150 10ad 28       		.uleb128 0x28
 3151 10ae 82050000 		.4byte	.LASF238
 3152 10b2 02       		.byte	0x2
 3153 10b3 F7       		.byte	0xf7
 3154 10b4 45080000 		.4byte	0x845
 3155 10b8 02       		.uleb128 0x2
 3156 10b9 91       		.byte	0x91
 3157 10ba 6C       		.sleb128 -20
 3158 10bb 25       		.uleb128 0x25
 3159 10bc 6800     		.ascii	"h\000"
 3160 10be 02       		.byte	0x2
 3161 10bf F7       		.byte	0xf7
 3162 10c0 740E0000 		.4byte	0xe74
 3163 10c4 02       		.uleb128 0x2
 3164 10c5 91       		.byte	0x91
 3165 10c6 68       		.sleb128 -24
 3166 10c7 25       		.uleb128 0x25
 3167 10c8 61726700 		.ascii	"arg\000"
 3168 10cc 02       		.byte	0x2
 3169 10cd F7       		.byte	0xf7
 3170 10ce 3C030000 		.4byte	0x33c
 3171 10d2 02       		.uleb128 0x2
 3172 10d3 91       		.byte	0x91
 3173 10d4 64       		.sleb128 -28
ARM GAS  C:\Users\Luis\AppData\Local\Temp\ccRkfmdd.s 			page 57


 3174 10d5 26       		.uleb128 0x26
 3175 10d6 6D736700 		.ascii	"msg\000"
 3176 10da 02       		.byte	0x2
 3177 10db F9       		.byte	0xf9
 3178 10dc FA0F0000 		.4byte	0xffa
 3179 10e0 02       		.uleb128 0x2
 3180 10e1 91       		.byte	0x91
 3181 10e2 74       		.sleb128 -12
 3182 10e3 00       		.byte	0
 3183 10e4 29       		.uleb128 0x29
 3184 10e5 8A040000 		.4byte	.LASF248
 3185 10e9 02       		.byte	0x2
 3186 10ea 1401     		.2byte	0x114
 3187 10ec 50080000 		.4byte	0x850
 3188 10f0 00000000 		.4byte	.LFB264
 3189 10f4 58000000 		.4byte	.LFE264-.LFB264
 3190 10f8 01       		.uleb128 0x1
 3191 10f9 9C       		.byte	0x9c
 3192 10fa 2A110000 		.4byte	0x112a
 3193 10fe 2A       		.uleb128 0x2a
 3194 10ff 6800     		.ascii	"h\000"
 3195 1101 02       		.byte	0x2
 3196 1102 1401     		.2byte	0x114
 3197 1104 740E0000 		.4byte	0xe74
 3198 1108 02       		.uleb128 0x2
 3199 1109 91       		.byte	0x91
 3200 110a 6C       		.sleb128 -20
 3201 110b 2A       		.uleb128 0x2a
 3202 110c 61726700 		.ascii	"arg\000"
 3203 1110 02       		.byte	0x2
 3204 1111 1401     		.2byte	0x114
 3205 1113 3C030000 		.4byte	0x33c
 3206 1117 02       		.uleb128 0x2
 3207 1118 91       		.byte	0x91
 3208 1119 68       		.sleb128 -24
 3209 111a 2B       		.uleb128 0x2b
 3210 111b 6D736700 		.ascii	"msg\000"
 3211 111f 02       		.byte	0x2
 3212 1120 1601     		.2byte	0x116
 3213 1122 FA0F0000 		.4byte	0xffa
 3214 1126 02       		.uleb128 0x2
 3215 1127 91       		.byte	0x91
 3216 1128 74       		.sleb128 -12
 3217 1129 00       		.byte	0
 3218 112a 29       		.uleb128 0x29
 3219 112b 18030000 		.4byte	.LASF249
 3220 112f 02       		.byte	0x2
 3221 1130 3201     		.2byte	0x132
 3222 1132 50080000 		.4byte	0x850
 3223 1136 00000000 		.4byte	.LFB265
 3224 113a 4C000000 		.4byte	.LFE265-.LFB265
 3225 113e 01       		.uleb128 0x1
 3226 113f 9C       		.byte	0x9c
 3227 1140 63110000 		.4byte	0x1163
 3228 1144 23       		.uleb128 0x23
 3229 1145 C8060000 		.4byte	.LASF239
 3230 1149 02       		.byte	0x2
ARM GAS  C:\Users\Luis\AppData\Local\Temp\ccRkfmdd.s 			page 58


 3231 114a 3201     		.2byte	0x132
 3232 114c 650F0000 		.4byte	0xf65
 3233 1150 02       		.uleb128 0x2
 3234 1151 91       		.byte	0x91
 3235 1152 5C       		.sleb128 -36
 3236 1153 2B       		.uleb128 0x2b
 3237 1154 6D736700 		.ascii	"msg\000"
 3238 1158 02       		.byte	0x2
 3239 1159 3401     		.2byte	0x134
 3240 115b 6B0F0000 		.4byte	0xf6b
 3241 115f 02       		.uleb128 0x2
 3242 1160 91       		.byte	0x91
 3243 1161 64       		.sleb128 -28
 3244 1162 00       		.byte	0
 3245 1163 1F       		.uleb128 0x1f
 3246 1164 4F060000 		.4byte	.LASF250
 3247 1168 29       		.uleb128 0x29
 3248 1169 5E0B0000 		.4byte	.LASF251
 3249 116d 02       		.byte	0x2
 3250 116e 9801     		.2byte	0x198
 3251 1170 B0110000 		.4byte	0x11b0
 3252 1174 00000000 		.4byte	.LFB266
 3253 1178 38000000 		.4byte	.LFE266-.LFB266
 3254 117c 01       		.uleb128 0x1
 3255 117d 9C       		.byte	0x9c
 3256 117e B0110000 		.4byte	0x11b0
 3257 1182 23       		.uleb128 0x23
 3258 1183 79040000 		.4byte	.LASF227
 3259 1187 02       		.byte	0x2
 3260 1188 9801     		.2byte	0x198
 3261 118a 8A0E0000 		.4byte	0xe8a
 3262 118e 02       		.uleb128 0x2
 3263 118f 91       		.byte	0x91
 3264 1190 6C       		.sleb128 -20
 3265 1191 2A       		.uleb128 0x2a
 3266 1192 63747800 		.ascii	"ctx\000"
 3267 1196 02       		.byte	0x2
 3268 1197 9801     		.2byte	0x198
 3269 1199 3C030000 		.4byte	0x33c
 3270 119d 02       		.uleb128 0x2
 3271 119e 91       		.byte	0x91
 3272 119f 68       		.sleb128 -24
 3273 11a0 2B       		.uleb128 0x2b
 3274 11a1 6D736700 		.ascii	"msg\000"
 3275 11a5 02       		.byte	0x2
 3276 11a6 9A01     		.2byte	0x19a
 3277 11a8 FA0F0000 		.4byte	0xffa
 3278 11ac 02       		.uleb128 0x2
 3279 11ad 91       		.byte	0x91
 3280 11ae 74       		.sleb128 -12
 3281 11af 00       		.byte	0
 3282 11b0 0A       		.uleb128 0xa
 3283 11b1 04       		.byte	0x4
 3284 11b2 63110000 		.4byte	0x1163
 3285 11b6 2C       		.uleb128 0x2c
 3286 11b7 4C020000 		.4byte	.LASF253
 3287 11bb 02       		.byte	0x2
ARM GAS  C:\Users\Luis\AppData\Local\Temp\ccRkfmdd.s 			page 59


 3288 11bc A901     		.2byte	0x1a9
 3289 11be 00000000 		.4byte	.LFB267
 3290 11c2 16000000 		.4byte	.LFE267-.LFB267
 3291 11c6 01       		.uleb128 0x1
 3292 11c7 9C       		.byte	0x9c
 3293 11c8 DC110000 		.4byte	0x11dc
 3294 11cc 2A       		.uleb128 0x2a
 3295 11cd 6D736700 		.ascii	"msg\000"
 3296 11d1 02       		.byte	0x2
 3297 11d2 A901     		.2byte	0x1a9
 3298 11d4 B0110000 		.4byte	0x11b0
 3299 11d8 02       		.uleb128 0x2
 3300 11d9 91       		.byte	0x91
 3301 11da 74       		.sleb128 -12
 3302 11db 00       		.byte	0
 3303 11dc 29       		.uleb128 0x29
 3304 11dd 59040000 		.4byte	.LASF252
 3305 11e1 02       		.byte	0x2
 3306 11e2 B601     		.2byte	0x1b6
 3307 11e4 50080000 		.4byte	0x850
 3308 11e8 00000000 		.4byte	.LFB268
 3309 11ec 30000000 		.4byte	.LFE268-.LFB268
 3310 11f0 01       		.uleb128 0x1
 3311 11f1 9C       		.byte	0x9c
 3312 11f2 06120000 		.4byte	0x1206
 3313 11f6 2A       		.uleb128 0x2a
 3314 11f7 6D736700 		.ascii	"msg\000"
 3315 11fb 02       		.byte	0x2
 3316 11fc B601     		.2byte	0x1b6
 3317 11fe B0110000 		.4byte	0x11b0
 3318 1202 02       		.uleb128 0x2
 3319 1203 91       		.byte	0x91
 3320 1204 74       		.sleb128 -12
 3321 1205 00       		.byte	0
 3322 1206 2C       		.uleb128 0x2c
 3323 1207 2B0C0000 		.4byte	.LASF254
 3324 120b 02       		.byte	0x2
 3325 120c C701     		.2byte	0x1c7
 3326 120e 00000000 		.4byte	.LFB269
 3327 1212 60000000 		.4byte	.LFE269-.LFB269
 3328 1216 01       		.uleb128 0x1
 3329 1217 9C       		.byte	0x9c
 3330 1218 3B120000 		.4byte	0x123b
 3331 121c 23       		.uleb128 0x23
 3332 121d 95020000 		.4byte	.LASF255
 3333 1221 02       		.byte	0x2
 3334 1222 C701     		.2byte	0x1c7
 3335 1224 7F0E0000 		.4byte	0xe7f
 3336 1228 02       		.uleb128 0x2
 3337 1229 91       		.byte	0x91
 3338 122a 74       		.sleb128 -12
 3339 122b 2A       		.uleb128 0x2a
 3340 122c 61726700 		.ascii	"arg\000"
 3341 1230 02       		.byte	0x2
 3342 1231 C701     		.2byte	0x1c7
 3343 1233 3C030000 		.4byte	0x33c
 3344 1237 02       		.uleb128 0x2
ARM GAS  C:\Users\Luis\AppData\Local\Temp\ccRkfmdd.s 			page 60


 3345 1238 91       		.byte	0x91
 3346 1239 70       		.sleb128 -16
 3347 123a 00       		.byte	0
 3348 123b 22       		.uleb128 0x22
 3349 123c EB040000 		.4byte	.LASF256
 3350 1240 02       		.byte	0x2
 3351 1241 E001     		.2byte	0x1e0
 3352 1243 00000000 		.4byte	.LFB270
 3353 1247 18000000 		.4byte	.LFE270-.LFB270
 3354 124b 01       		.uleb128 0x1
 3355 124c 9C       		.byte	0x9c
 3356 124d 6C120000 		.4byte	0x126c
 3357 1251 2A       		.uleb128 0x2a
 3358 1252 7000     		.ascii	"p\000"
 3359 1254 02       		.byte	0x2
 3360 1255 E001     		.2byte	0x1e0
 3361 1257 3C030000 		.4byte	0x33c
 3362 125b 02       		.uleb128 0x2
 3363 125c 91       		.byte	0x91
 3364 125d 6C       		.sleb128 -20
 3365 125e 2B       		.uleb128 0x2b
 3366 125f 7100     		.ascii	"q\000"
 3367 1261 02       		.byte	0x2
 3368 1262 E201     		.2byte	0x1e2
 3369 1264 41090000 		.4byte	0x941
 3370 1268 02       		.uleb128 0x2
 3371 1269 91       		.byte	0x91
 3372 126a 74       		.sleb128 -12
 3373 126b 00       		.byte	0
 3374 126c 29       		.uleb128 0x29
 3375 126d 65020000 		.4byte	.LASF257
 3376 1271 02       		.byte	0x2
 3377 1272 ED01     		.2byte	0x1ed
 3378 1274 50080000 		.4byte	0x850
 3379 1278 00000000 		.4byte	.LFB271
 3380 127c 20000000 		.4byte	.LFE271-.LFB271
 3381 1280 01       		.uleb128 0x1
 3382 1281 9C       		.byte	0x9c
 3383 1282 94120000 		.4byte	0x1294
 3384 1286 2A       		.uleb128 0x2a
 3385 1287 7000     		.ascii	"p\000"
 3386 1289 02       		.byte	0x2
 3387 128a ED01     		.2byte	0x1ed
 3388 128c 41090000 		.4byte	0x941
 3389 1290 02       		.uleb128 0x2
 3390 1291 91       		.byte	0x91
 3391 1292 74       		.sleb128 -12
 3392 1293 00       		.byte	0
 3393 1294 29       		.uleb128 0x29
 3394 1295 56000000 		.4byte	.LASF258
 3395 1299 02       		.byte	0x2
 3396 129a FA01     		.2byte	0x1fa
 3397 129c 50080000 		.4byte	0x850
 3398 12a0 00000000 		.4byte	.LFB272
 3399 12a4 20000000 		.4byte	.LFE272-.LFB272
 3400 12a8 01       		.uleb128 0x1
 3401 12a9 9C       		.byte	0x9c
ARM GAS  C:\Users\Luis\AppData\Local\Temp\ccRkfmdd.s 			page 61


 3402 12aa BC120000 		.4byte	0x12bc
 3403 12ae 2A       		.uleb128 0x2a
 3404 12af 6D00     		.ascii	"m\000"
 3405 12b1 02       		.byte	0x2
 3406 12b2 FA01     		.2byte	0x1fa
 3407 12b4 3C030000 		.4byte	0x33c
 3408 12b8 02       		.uleb128 0x2
 3409 12b9 91       		.byte	0x91
 3410 12ba 74       		.sleb128 -12
 3411 12bb 00       		.byte	0
 3412 12bc 2D       		.uleb128 0x2d
 3413 12bd D6060000 		.4byte	.LASF259
 3414 12c1 02       		.byte	0x2
 3415 12c2 35       		.byte	0x35
 3416 12c3 7F0E0000 		.4byte	0xe7f
 3417 12c7 05       		.uleb128 0x5
 3418 12c8 03       		.byte	0x3
 3419 12c9 00000000 		.4byte	tcpip_init_done
 3420 12cd 2D       		.uleb128 0x2d
 3421 12ce 6E0A0000 		.4byte	.LASF260
 3422 12d2 02       		.byte	0x2
 3423 12d3 36       		.byte	0x36
 3424 12d4 3C030000 		.4byte	0x33c
 3425 12d8 05       		.uleb128 0x5
 3426 12d9 03       		.byte	0x3
 3427 12da 00000000 		.4byte	tcpip_init_done_arg
 3428 12de 2D       		.uleb128 0x2d
 3429 12df C3060000 		.4byte	.LASF261
 3430 12e3 02       		.byte	0x2
 3431 12e4 37       		.byte	0x37
 3432 12e5 6C080000 		.4byte	0x86c
 3433 12e9 05       		.uleb128 0x5
 3434 12ea 03       		.byte	0x3
 3435 12eb 00000000 		.4byte	mbox
 3436 12ef 2E       		.uleb128 0x2e
 3437 12f0 42060000 		.4byte	.LASF262
 3438 12f4 1D       		.byte	0x1d
 3439 12f5 A706     		.2byte	0x6a7
 3440 12f7 B8000000 		.4byte	0xb8
 3441 12fb 2F       		.uleb128 0x2f
 3442 12fc 636800   		.ascii	"ch\000"
 3443 12ff 07       		.byte	0x7
 3444 1300 0902     		.2byte	0x209
 3445 1302 33040000 		.4byte	0x433
 3446 1306 00       		.byte	0
 3447              		.section	.debug_abbrev,"",%progbits
 3448              	.Ldebug_abbrev0:
 3449 0000 01       		.uleb128 0x1
 3450 0001 11       		.uleb128 0x11
 3451 0002 01       		.byte	0x1
 3452 0003 25       		.uleb128 0x25
 3453 0004 0E       		.uleb128 0xe
 3454 0005 13       		.uleb128 0x13
 3455 0006 0B       		.uleb128 0xb
 3456 0007 03       		.uleb128 0x3
 3457 0008 0E       		.uleb128 0xe
 3458 0009 1B       		.uleb128 0x1b
ARM GAS  C:\Users\Luis\AppData\Local\Temp\ccRkfmdd.s 			page 62


 3459 000a 0E       		.uleb128 0xe
 3460 000b 55       		.uleb128 0x55
 3461 000c 17       		.uleb128 0x17
 3462 000d 11       		.uleb128 0x11
 3463 000e 01       		.uleb128 0x1
 3464 000f 10       		.uleb128 0x10
 3465 0010 17       		.uleb128 0x17
 3466 0011 00       		.byte	0
 3467 0012 00       		.byte	0
 3468 0013 02       		.uleb128 0x2
 3469 0014 24       		.uleb128 0x24
 3470 0015 00       		.byte	0
 3471 0016 0B       		.uleb128 0xb
 3472 0017 0B       		.uleb128 0xb
 3473 0018 3E       		.uleb128 0x3e
 3474 0019 0B       		.uleb128 0xb
 3475 001a 03       		.uleb128 0x3
 3476 001b 08       		.uleb128 0x8
 3477 001c 00       		.byte	0
 3478 001d 00       		.byte	0
 3479 001e 03       		.uleb128 0x3
 3480 001f 16       		.uleb128 0x16
 3481 0020 00       		.byte	0
 3482 0021 03       		.uleb128 0x3
 3483 0022 0E       		.uleb128 0xe
 3484 0023 3A       		.uleb128 0x3a
 3485 0024 0B       		.uleb128 0xb
 3486 0025 3B       		.uleb128 0x3b
 3487 0026 0B       		.uleb128 0xb
 3488 0027 49       		.uleb128 0x49
 3489 0028 13       		.uleb128 0x13
 3490 0029 00       		.byte	0
 3491 002a 00       		.byte	0
 3492 002b 04       		.uleb128 0x4
 3493 002c 24       		.uleb128 0x24
 3494 002d 00       		.byte	0
 3495 002e 0B       		.uleb128 0xb
 3496 002f 0B       		.uleb128 0xb
 3497 0030 3E       		.uleb128 0x3e
 3498 0031 0B       		.uleb128 0xb
 3499 0032 03       		.uleb128 0x3
 3500 0033 0E       		.uleb128 0xe
 3501 0034 00       		.byte	0
 3502 0035 00       		.byte	0
 3503 0036 05       		.uleb128 0x5
 3504 0037 35       		.uleb128 0x35
 3505 0038 00       		.byte	0
 3506 0039 49       		.uleb128 0x49
 3507 003a 13       		.uleb128 0x13
 3508 003b 00       		.byte	0
 3509 003c 00       		.byte	0
 3510 003d 06       		.uleb128 0x6
 3511 003e 13       		.uleb128 0x13
 3512 003f 01       		.byte	0x1
 3513 0040 03       		.uleb128 0x3
 3514 0041 0E       		.uleb128 0xe
 3515 0042 0B       		.uleb128 0xb
ARM GAS  C:\Users\Luis\AppData\Local\Temp\ccRkfmdd.s 			page 63


 3516 0043 0B       		.uleb128 0xb
 3517 0044 3A       		.uleb128 0x3a
 3518 0045 0B       		.uleb128 0xb
 3519 0046 3B       		.uleb128 0x3b
 3520 0047 0B       		.uleb128 0xb
 3521 0048 01       		.uleb128 0x1
 3522 0049 13       		.uleb128 0x13
 3523 004a 00       		.byte	0
 3524 004b 00       		.byte	0
 3525 004c 07       		.uleb128 0x7
 3526 004d 0D       		.uleb128 0xd
 3527 004e 00       		.byte	0
 3528 004f 03       		.uleb128 0x3
 3529 0050 0E       		.uleb128 0xe
 3530 0051 3A       		.uleb128 0x3a
 3531 0052 0B       		.uleb128 0xb
 3532 0053 3B       		.uleb128 0x3b
 3533 0054 0B       		.uleb128 0xb
 3534 0055 49       		.uleb128 0x49
 3535 0056 13       		.uleb128 0x13
 3536 0057 38       		.uleb128 0x38
 3537 0058 0B       		.uleb128 0xb
 3538 0059 00       		.byte	0
 3539 005a 00       		.byte	0
 3540 005b 08       		.uleb128 0x8
 3541 005c 0D       		.uleb128 0xd
 3542 005d 00       		.byte	0
 3543 005e 03       		.uleb128 0x3
 3544 005f 08       		.uleb128 0x8
 3545 0060 3A       		.uleb128 0x3a
 3546 0061 0B       		.uleb128 0xb
 3547 0062 3B       		.uleb128 0x3b
 3548 0063 05       		.uleb128 0x5
 3549 0064 49       		.uleb128 0x49
 3550 0065 13       		.uleb128 0x13
 3551 0066 38       		.uleb128 0x38
 3552 0067 0B       		.uleb128 0xb
 3553 0068 00       		.byte	0
 3554 0069 00       		.byte	0
 3555 006a 09       		.uleb128 0x9
 3556 006b 0D       		.uleb128 0xd
 3557 006c 00       		.byte	0
 3558 006d 03       		.uleb128 0x3
 3559 006e 0E       		.uleb128 0xe
 3560 006f 3A       		.uleb128 0x3a
 3561 0070 0B       		.uleb128 0xb
 3562 0071 3B       		.uleb128 0x3b
 3563 0072 05       		.uleb128 0x5
 3564 0073 49       		.uleb128 0x49
 3565 0074 13       		.uleb128 0x13
 3566 0075 38       		.uleb128 0x38
 3567 0076 0B       		.uleb128 0xb
 3568 0077 00       		.byte	0
 3569 0078 00       		.byte	0
 3570 0079 0A       		.uleb128 0xa
 3571 007a 0F       		.uleb128 0xf
 3572 007b 00       		.byte	0
ARM GAS  C:\Users\Luis\AppData\Local\Temp\ccRkfmdd.s 			page 64


 3573 007c 0B       		.uleb128 0xb
 3574 007d 0B       		.uleb128 0xb
 3575 007e 49       		.uleb128 0x49
 3576 007f 13       		.uleb128 0x13
 3577 0080 00       		.byte	0
 3578 0081 00       		.byte	0
 3579 0082 0B       		.uleb128 0xb
 3580 0083 13       		.uleb128 0x13
 3581 0084 01       		.byte	0x1
 3582 0085 03       		.uleb128 0x3
 3583 0086 0E       		.uleb128 0xe
 3584 0087 0B       		.uleb128 0xb
 3585 0088 0B       		.uleb128 0xb
 3586 0089 3A       		.uleb128 0x3a
 3587 008a 0B       		.uleb128 0xb
 3588 008b 3B       		.uleb128 0x3b
 3589 008c 05       		.uleb128 0x5
 3590 008d 01       		.uleb128 0x1
 3591 008e 13       		.uleb128 0x13
 3592 008f 00       		.byte	0
 3593 0090 00       		.byte	0
 3594 0091 0C       		.uleb128 0xc
 3595 0092 15       		.uleb128 0x15
 3596 0093 01       		.byte	0x1
 3597 0094 27       		.uleb128 0x27
 3598 0095 19       		.uleb128 0x19
 3599 0096 01       		.uleb128 0x1
 3600 0097 13       		.uleb128 0x13
 3601 0098 00       		.byte	0
 3602 0099 00       		.byte	0
 3603 009a 0D       		.uleb128 0xd
 3604 009b 05       		.uleb128 0x5
 3605 009c 00       		.byte	0
 3606 009d 49       		.uleb128 0x49
 3607 009e 13       		.uleb128 0x13
 3608 009f 00       		.byte	0
 3609 00a0 00       		.byte	0
 3610 00a1 0E       		.uleb128 0xe
 3611 00a2 0F       		.uleb128 0xf
 3612 00a3 00       		.byte	0
 3613 00a4 0B       		.uleb128 0xb
 3614 00a5 0B       		.uleb128 0xb
 3615 00a6 00       		.byte	0
 3616 00a7 00       		.byte	0
 3617 00a8 0F       		.uleb128 0xf
 3618 00a9 13       		.uleb128 0x13
 3619 00aa 01       		.byte	0x1
 3620 00ab 03       		.uleb128 0x3
 3621 00ac 0E       		.uleb128 0xe
 3622 00ad 0B       		.uleb128 0xb
 3623 00ae 05       		.uleb128 0x5
 3624 00af 3A       		.uleb128 0x3a
 3625 00b0 0B       		.uleb128 0xb
 3626 00b1 3B       		.uleb128 0x3b
 3627 00b2 05       		.uleb128 0x5
 3628 00b3 01       		.uleb128 0x1
 3629 00b4 13       		.uleb128 0x13
ARM GAS  C:\Users\Luis\AppData\Local\Temp\ccRkfmdd.s 			page 65


 3630 00b5 00       		.byte	0
 3631 00b6 00       		.byte	0
 3632 00b7 10       		.uleb128 0x10
 3633 00b8 0D       		.uleb128 0xd
 3634 00b9 00       		.byte	0
 3635 00ba 03       		.uleb128 0x3
 3636 00bb 0E       		.uleb128 0xe
 3637 00bc 3A       		.uleb128 0x3a
 3638 00bd 0B       		.uleb128 0xb
 3639 00be 3B       		.uleb128 0x3b
 3640 00bf 05       		.uleb128 0x5
 3641 00c0 49       		.uleb128 0x49
 3642 00c1 13       		.uleb128 0x13
 3643 00c2 38       		.uleb128 0x38
 3644 00c3 05       		.uleb128 0x5
 3645 00c4 00       		.byte	0
 3646 00c5 00       		.byte	0
 3647 00c6 11       		.uleb128 0x11
 3648 00c7 0D       		.uleb128 0xd
 3649 00c8 00       		.byte	0
 3650 00c9 03       		.uleb128 0x3
 3651 00ca 08       		.uleb128 0x8
 3652 00cb 3A       		.uleb128 0x3a
 3653 00cc 0B       		.uleb128 0xb
 3654 00cd 3B       		.uleb128 0x3b
 3655 00ce 05       		.uleb128 0x5
 3656 00cf 49       		.uleb128 0x49
 3657 00d0 13       		.uleb128 0x13
 3658 00d1 38       		.uleb128 0x38
 3659 00d2 05       		.uleb128 0x5
 3660 00d3 00       		.byte	0
 3661 00d4 00       		.byte	0
 3662 00d5 12       		.uleb128 0x12
 3663 00d6 0D       		.uleb128 0xd
 3664 00d7 00       		.byte	0
 3665 00d8 03       		.uleb128 0x3
 3666 00d9 08       		.uleb128 0x8
 3667 00da 3A       		.uleb128 0x3a
 3668 00db 0B       		.uleb128 0xb
 3669 00dc 3B       		.uleb128 0x3b
 3670 00dd 0B       		.uleb128 0xb
 3671 00de 49       		.uleb128 0x49
 3672 00df 13       		.uleb128 0x13
 3673 00e0 38       		.uleb128 0x38
 3674 00e1 0B       		.uleb128 0xb
 3675 00e2 00       		.byte	0
 3676 00e3 00       		.byte	0
 3677 00e4 13       		.uleb128 0x13
 3678 00e5 13       		.uleb128 0x13
 3679 00e6 01       		.byte	0x1
 3680 00e7 0B       		.uleb128 0xb
 3681 00e8 0B       		.uleb128 0xb
 3682 00e9 3A       		.uleb128 0x3a
 3683 00ea 0B       		.uleb128 0xb
 3684 00eb 3B       		.uleb128 0x3b
 3685 00ec 0B       		.uleb128 0xb
 3686 00ed 01       		.uleb128 0x1
ARM GAS  C:\Users\Luis\AppData\Local\Temp\ccRkfmdd.s 			page 66


 3687 00ee 13       		.uleb128 0x13
 3688 00ef 00       		.byte	0
 3689 00f0 00       		.byte	0
 3690 00f1 14       		.uleb128 0x14
 3691 00f2 13       		.uleb128 0x13
 3692 00f3 01       		.byte	0x1
 3693 00f4 0B       		.uleb128 0xb
 3694 00f5 05       		.uleb128 0x5
 3695 00f6 3A       		.uleb128 0x3a
 3696 00f7 0B       		.uleb128 0xb
 3697 00f8 3B       		.uleb128 0x3b
 3698 00f9 0B       		.uleb128 0xb
 3699 00fa 01       		.uleb128 0x1
 3700 00fb 13       		.uleb128 0x13
 3701 00fc 00       		.byte	0
 3702 00fd 00       		.byte	0
 3703 00fe 15       		.uleb128 0x15
 3704 00ff 01       		.uleb128 0x1
 3705 0100 01       		.byte	0x1
 3706 0101 49       		.uleb128 0x49
 3707 0102 13       		.uleb128 0x13
 3708 0103 01       		.uleb128 0x1
 3709 0104 13       		.uleb128 0x13
 3710 0105 00       		.byte	0
 3711 0106 00       		.byte	0
 3712 0107 16       		.uleb128 0x16
 3713 0108 21       		.uleb128 0x21
 3714 0109 00       		.byte	0
 3715 010a 49       		.uleb128 0x49
 3716 010b 13       		.uleb128 0x13
 3717 010c 2F       		.uleb128 0x2f
 3718 010d 0B       		.uleb128 0xb
 3719 010e 00       		.byte	0
 3720 010f 00       		.byte	0
 3721 0110 17       		.uleb128 0x17
 3722 0111 17       		.uleb128 0x17
 3723 0112 01       		.byte	0x1
 3724 0113 0B       		.uleb128 0xb
 3725 0114 0B       		.uleb128 0xb
 3726 0115 3A       		.uleb128 0x3a
 3727 0116 0B       		.uleb128 0xb
 3728 0117 3B       		.uleb128 0x3b
 3729 0118 0B       		.uleb128 0xb
 3730 0119 01       		.uleb128 0x1
 3731 011a 13       		.uleb128 0x13
 3732 011b 00       		.byte	0
 3733 011c 00       		.byte	0
 3734 011d 18       		.uleb128 0x18
 3735 011e 0D       		.uleb128 0xd
 3736 011f 00       		.byte	0
 3737 0120 03       		.uleb128 0x3
 3738 0121 0E       		.uleb128 0xe
 3739 0122 3A       		.uleb128 0x3a
 3740 0123 0B       		.uleb128 0xb
 3741 0124 3B       		.uleb128 0x3b
 3742 0125 05       		.uleb128 0x5
 3743 0126 49       		.uleb128 0x49
ARM GAS  C:\Users\Luis\AppData\Local\Temp\ccRkfmdd.s 			page 67


 3744 0127 13       		.uleb128 0x13
 3745 0128 00       		.byte	0
 3746 0129 00       		.byte	0
 3747 012a 19       		.uleb128 0x19
 3748 012b 26       		.uleb128 0x26
 3749 012c 00       		.byte	0
 3750 012d 49       		.uleb128 0x49
 3751 012e 13       		.uleb128 0x13
 3752 012f 00       		.byte	0
 3753 0130 00       		.byte	0
 3754 0131 1A       		.uleb128 0x1a
 3755 0132 04       		.uleb128 0x4
 3756 0133 01       		.byte	0x1
 3757 0134 0B       		.uleb128 0xb
 3758 0135 0B       		.uleb128 0xb
 3759 0136 3A       		.uleb128 0x3a
 3760 0137 0B       		.uleb128 0xb
 3761 0138 3B       		.uleb128 0x3b
 3762 0139 0B       		.uleb128 0xb
 3763 013a 01       		.uleb128 0x1
 3764 013b 13       		.uleb128 0x13
 3765 013c 00       		.byte	0
 3766 013d 00       		.byte	0
 3767 013e 1B       		.uleb128 0x1b
 3768 013f 28       		.uleb128 0x28
 3769 0140 00       		.byte	0
 3770 0141 03       		.uleb128 0x3
 3771 0142 0E       		.uleb128 0xe
 3772 0143 1C       		.uleb128 0x1c
 3773 0144 0D       		.uleb128 0xd
 3774 0145 00       		.byte	0
 3775 0146 00       		.byte	0
 3776 0147 1C       		.uleb128 0x1c
 3777 0148 15       		.uleb128 0x15
 3778 0149 01       		.byte	0x1
 3779 014a 27       		.uleb128 0x27
 3780 014b 19       		.uleb128 0x19
 3781 014c 49       		.uleb128 0x49
 3782 014d 13       		.uleb128 0x13
 3783 014e 01       		.uleb128 0x1
 3784 014f 13       		.uleb128 0x13
 3785 0150 00       		.byte	0
 3786 0151 00       		.byte	0
 3787 0152 1D       		.uleb128 0x1d
 3788 0153 04       		.uleb128 0x4
 3789 0154 01       		.byte	0x1
 3790 0155 03       		.uleb128 0x3
 3791 0156 0E       		.uleb128 0xe
 3792 0157 0B       		.uleb128 0xb
 3793 0158 0B       		.uleb128 0xb
 3794 0159 3A       		.uleb128 0x3a
 3795 015a 0B       		.uleb128 0xb
 3796 015b 3B       		.uleb128 0x3b
 3797 015c 0B       		.uleb128 0xb
 3798 015d 01       		.uleb128 0x1
 3799 015e 13       		.uleb128 0x13
 3800 015f 00       		.byte	0
ARM GAS  C:\Users\Luis\AppData\Local\Temp\ccRkfmdd.s 			page 68


 3801 0160 00       		.byte	0
 3802 0161 1E       		.uleb128 0x1e
 3803 0162 0D       		.uleb128 0xd
 3804 0163 00       		.byte	0
 3805 0164 03       		.uleb128 0x3
 3806 0165 08       		.uleb128 0x8
 3807 0166 3A       		.uleb128 0x3a
 3808 0167 0B       		.uleb128 0xb
 3809 0168 3B       		.uleb128 0x3b
 3810 0169 0B       		.uleb128 0xb
 3811 016a 49       		.uleb128 0x49
 3812 016b 13       		.uleb128 0x13
 3813 016c 00       		.byte	0
 3814 016d 00       		.byte	0
 3815 016e 1F       		.uleb128 0x1f
 3816 016f 13       		.uleb128 0x13
 3817 0170 00       		.byte	0
 3818 0171 03       		.uleb128 0x3
 3819 0172 0E       		.uleb128 0xe
 3820 0173 3C       		.uleb128 0x3c
 3821 0174 19       		.uleb128 0x19
 3822 0175 00       		.byte	0
 3823 0176 00       		.byte	0
 3824 0177 20       		.uleb128 0x20
 3825 0178 26       		.uleb128 0x26
 3826 0179 00       		.byte	0
 3827 017a 00       		.byte	0
 3828 017b 00       		.byte	0
 3829 017c 21       		.uleb128 0x21
 3830 017d 0D       		.uleb128 0xd
 3831 017e 00       		.byte	0
 3832 017f 03       		.uleb128 0x3
 3833 0180 0E       		.uleb128 0xe
 3834 0181 3A       		.uleb128 0x3a
 3835 0182 0B       		.uleb128 0xb
 3836 0183 3B       		.uleb128 0x3b
 3837 0184 0B       		.uleb128 0xb
 3838 0185 49       		.uleb128 0x49
 3839 0186 13       		.uleb128 0x13
 3840 0187 00       		.byte	0
 3841 0188 00       		.byte	0
 3842 0189 22       		.uleb128 0x22
 3843 018a 2E       		.uleb128 0x2e
 3844 018b 01       		.byte	0x1
 3845 018c 03       		.uleb128 0x3
 3846 018d 0E       		.uleb128 0xe
 3847 018e 3A       		.uleb128 0x3a
 3848 018f 0B       		.uleb128 0xb
 3849 0190 3B       		.uleb128 0x3b
 3850 0191 05       		.uleb128 0x5
 3851 0192 27       		.uleb128 0x27
 3852 0193 19       		.uleb128 0x19
 3853 0194 11       		.uleb128 0x11
 3854 0195 01       		.uleb128 0x1
 3855 0196 12       		.uleb128 0x12
 3856 0197 06       		.uleb128 0x6
 3857 0198 40       		.uleb128 0x40
ARM GAS  C:\Users\Luis\AppData\Local\Temp\ccRkfmdd.s 			page 69


 3858 0199 18       		.uleb128 0x18
 3859 019a 9642     		.uleb128 0x2116
 3860 019c 19       		.uleb128 0x19
 3861 019d 01       		.uleb128 0x1
 3862 019e 13       		.uleb128 0x13
 3863 019f 00       		.byte	0
 3864 01a0 00       		.byte	0
 3865 01a1 23       		.uleb128 0x23
 3866 01a2 05       		.uleb128 0x5
 3867 01a3 00       		.byte	0
 3868 01a4 03       		.uleb128 0x3
 3869 01a5 0E       		.uleb128 0xe
 3870 01a6 3A       		.uleb128 0x3a
 3871 01a7 0B       		.uleb128 0xb
 3872 01a8 3B       		.uleb128 0x3b
 3873 01a9 05       		.uleb128 0x5
 3874 01aa 49       		.uleb128 0x49
 3875 01ab 13       		.uleb128 0x13
 3876 01ac 02       		.uleb128 0x2
 3877 01ad 18       		.uleb128 0x18
 3878 01ae 00       		.byte	0
 3879 01af 00       		.byte	0
 3880 01b0 24       		.uleb128 0x24
 3881 01b1 2E       		.uleb128 0x2e
 3882 01b2 01       		.byte	0x1
 3883 01b3 03       		.uleb128 0x3
 3884 01b4 0E       		.uleb128 0xe
 3885 01b5 3A       		.uleb128 0x3a
 3886 01b6 0B       		.uleb128 0xb
 3887 01b7 3B       		.uleb128 0x3b
 3888 01b8 0B       		.uleb128 0xb
 3889 01b9 27       		.uleb128 0x27
 3890 01ba 19       		.uleb128 0x19
 3891 01bb 11       		.uleb128 0x11
 3892 01bc 01       		.uleb128 0x1
 3893 01bd 12       		.uleb128 0x12
 3894 01be 06       		.uleb128 0x6
 3895 01bf 40       		.uleb128 0x40
 3896 01c0 18       		.uleb128 0x18
 3897 01c1 9642     		.uleb128 0x2116
 3898 01c3 19       		.uleb128 0x19
 3899 01c4 01       		.uleb128 0x1
 3900 01c5 13       		.uleb128 0x13
 3901 01c6 00       		.byte	0
 3902 01c7 00       		.byte	0
 3903 01c8 25       		.uleb128 0x25
 3904 01c9 05       		.uleb128 0x5
 3905 01ca 00       		.byte	0
 3906 01cb 03       		.uleb128 0x3
 3907 01cc 08       		.uleb128 0x8
 3908 01cd 3A       		.uleb128 0x3a
 3909 01ce 0B       		.uleb128 0xb
 3910 01cf 3B       		.uleb128 0x3b
 3911 01d0 0B       		.uleb128 0xb
 3912 01d1 49       		.uleb128 0x49
 3913 01d2 13       		.uleb128 0x13
 3914 01d3 02       		.uleb128 0x2
ARM GAS  C:\Users\Luis\AppData\Local\Temp\ccRkfmdd.s 			page 70


 3915 01d4 18       		.uleb128 0x18
 3916 01d5 00       		.byte	0
 3917 01d6 00       		.byte	0
 3918 01d7 26       		.uleb128 0x26
 3919 01d8 34       		.uleb128 0x34
 3920 01d9 00       		.byte	0
 3921 01da 03       		.uleb128 0x3
 3922 01db 08       		.uleb128 0x8
 3923 01dc 3A       		.uleb128 0x3a
 3924 01dd 0B       		.uleb128 0xb
 3925 01de 3B       		.uleb128 0x3b
 3926 01df 0B       		.uleb128 0xb
 3927 01e0 49       		.uleb128 0x49
 3928 01e1 13       		.uleb128 0x13
 3929 01e2 02       		.uleb128 0x2
 3930 01e3 18       		.uleb128 0x18
 3931 01e4 00       		.byte	0
 3932 01e5 00       		.byte	0
 3933 01e6 27       		.uleb128 0x27
 3934 01e7 2E       		.uleb128 0x2e
 3935 01e8 01       		.byte	0x1
 3936 01e9 3F       		.uleb128 0x3f
 3937 01ea 19       		.uleb128 0x19
 3938 01eb 03       		.uleb128 0x3
 3939 01ec 0E       		.uleb128 0xe
 3940 01ed 3A       		.uleb128 0x3a
 3941 01ee 0B       		.uleb128 0xb
 3942 01ef 3B       		.uleb128 0x3b
 3943 01f0 0B       		.uleb128 0xb
 3944 01f1 27       		.uleb128 0x27
 3945 01f2 19       		.uleb128 0x19
 3946 01f3 49       		.uleb128 0x49
 3947 01f4 13       		.uleb128 0x13
 3948 01f5 11       		.uleb128 0x11
 3949 01f6 01       		.uleb128 0x1
 3950 01f7 12       		.uleb128 0x12
 3951 01f8 06       		.uleb128 0x6
 3952 01f9 40       		.uleb128 0x40
 3953 01fa 18       		.uleb128 0x18
 3954 01fb 9642     		.uleb128 0x2116
 3955 01fd 19       		.uleb128 0x19
 3956 01fe 01       		.uleb128 0x1
 3957 01ff 13       		.uleb128 0x13
 3958 0200 00       		.byte	0
 3959 0201 00       		.byte	0
 3960 0202 28       		.uleb128 0x28
 3961 0203 05       		.uleb128 0x5
 3962 0204 00       		.byte	0
 3963 0205 03       		.uleb128 0x3
 3964 0206 0E       		.uleb128 0xe
 3965 0207 3A       		.uleb128 0x3a
 3966 0208 0B       		.uleb128 0xb
 3967 0209 3B       		.uleb128 0x3b
 3968 020a 0B       		.uleb128 0xb
 3969 020b 49       		.uleb128 0x49
 3970 020c 13       		.uleb128 0x13
 3971 020d 02       		.uleb128 0x2
ARM GAS  C:\Users\Luis\AppData\Local\Temp\ccRkfmdd.s 			page 71


 3972 020e 18       		.uleb128 0x18
 3973 020f 00       		.byte	0
 3974 0210 00       		.byte	0
 3975 0211 29       		.uleb128 0x29
 3976 0212 2E       		.uleb128 0x2e
 3977 0213 01       		.byte	0x1
 3978 0214 3F       		.uleb128 0x3f
 3979 0215 19       		.uleb128 0x19
 3980 0216 03       		.uleb128 0x3
 3981 0217 0E       		.uleb128 0xe
 3982 0218 3A       		.uleb128 0x3a
 3983 0219 0B       		.uleb128 0xb
 3984 021a 3B       		.uleb128 0x3b
 3985 021b 05       		.uleb128 0x5
 3986 021c 27       		.uleb128 0x27
 3987 021d 19       		.uleb128 0x19
 3988 021e 49       		.uleb128 0x49
 3989 021f 13       		.uleb128 0x13
 3990 0220 11       		.uleb128 0x11
 3991 0221 01       		.uleb128 0x1
 3992 0222 12       		.uleb128 0x12
 3993 0223 06       		.uleb128 0x6
 3994 0224 40       		.uleb128 0x40
 3995 0225 18       		.uleb128 0x18
 3996 0226 9642     		.uleb128 0x2116
 3997 0228 19       		.uleb128 0x19
 3998 0229 01       		.uleb128 0x1
 3999 022a 13       		.uleb128 0x13
 4000 022b 00       		.byte	0
 4001 022c 00       		.byte	0
 4002 022d 2A       		.uleb128 0x2a
 4003 022e 05       		.uleb128 0x5
 4004 022f 00       		.byte	0
 4005 0230 03       		.uleb128 0x3
 4006 0231 08       		.uleb128 0x8
 4007 0232 3A       		.uleb128 0x3a
 4008 0233 0B       		.uleb128 0xb
 4009 0234 3B       		.uleb128 0x3b
 4010 0235 05       		.uleb128 0x5
 4011 0236 49       		.uleb128 0x49
 4012 0237 13       		.uleb128 0x13
 4013 0238 02       		.uleb128 0x2
 4014 0239 18       		.uleb128 0x18
 4015 023a 00       		.byte	0
 4016 023b 00       		.byte	0
 4017 023c 2B       		.uleb128 0x2b
 4018 023d 34       		.uleb128 0x34
 4019 023e 00       		.byte	0
 4020 023f 03       		.uleb128 0x3
 4021 0240 08       		.uleb128 0x8
 4022 0241 3A       		.uleb128 0x3a
 4023 0242 0B       		.uleb128 0xb
 4024 0243 3B       		.uleb128 0x3b
 4025 0244 05       		.uleb128 0x5
 4026 0245 49       		.uleb128 0x49
 4027 0246 13       		.uleb128 0x13
 4028 0247 02       		.uleb128 0x2
ARM GAS  C:\Users\Luis\AppData\Local\Temp\ccRkfmdd.s 			page 72


 4029 0248 18       		.uleb128 0x18
 4030 0249 00       		.byte	0
 4031 024a 00       		.byte	0
 4032 024b 2C       		.uleb128 0x2c
 4033 024c 2E       		.uleb128 0x2e
 4034 024d 01       		.byte	0x1
 4035 024e 3F       		.uleb128 0x3f
 4036 024f 19       		.uleb128 0x19
 4037 0250 03       		.uleb128 0x3
 4038 0251 0E       		.uleb128 0xe
 4039 0252 3A       		.uleb128 0x3a
 4040 0253 0B       		.uleb128 0xb
 4041 0254 3B       		.uleb128 0x3b
 4042 0255 05       		.uleb128 0x5
 4043 0256 27       		.uleb128 0x27
 4044 0257 19       		.uleb128 0x19
 4045 0258 11       		.uleb128 0x11
 4046 0259 01       		.uleb128 0x1
 4047 025a 12       		.uleb128 0x12
 4048 025b 06       		.uleb128 0x6
 4049 025c 40       		.uleb128 0x40
 4050 025d 18       		.uleb128 0x18
 4051 025e 9642     		.uleb128 0x2116
 4052 0260 19       		.uleb128 0x19
 4053 0261 01       		.uleb128 0x1
 4054 0262 13       		.uleb128 0x13
 4055 0263 00       		.byte	0
 4056 0264 00       		.byte	0
 4057 0265 2D       		.uleb128 0x2d
 4058 0266 34       		.uleb128 0x34
 4059 0267 00       		.byte	0
 4060 0268 03       		.uleb128 0x3
 4061 0269 0E       		.uleb128 0xe
 4062 026a 3A       		.uleb128 0x3a
 4063 026b 0B       		.uleb128 0xb
 4064 026c 3B       		.uleb128 0x3b
 4065 026d 0B       		.uleb128 0xb
 4066 026e 49       		.uleb128 0x49
 4067 026f 13       		.uleb128 0x13
 4068 0270 02       		.uleb128 0x2
 4069 0271 18       		.uleb128 0x18
 4070 0272 00       		.byte	0
 4071 0273 00       		.byte	0
 4072 0274 2E       		.uleb128 0x2e
 4073 0275 34       		.uleb128 0x34
 4074 0276 00       		.byte	0
 4075 0277 03       		.uleb128 0x3
 4076 0278 0E       		.uleb128 0xe
 4077 0279 3A       		.uleb128 0x3a
 4078 027a 0B       		.uleb128 0xb
 4079 027b 3B       		.uleb128 0x3b
 4080 027c 05       		.uleb128 0x5
 4081 027d 49       		.uleb128 0x49
 4082 027e 13       		.uleb128 0x13
 4083 027f 3F       		.uleb128 0x3f
 4084 0280 19       		.uleb128 0x19
 4085 0281 3C       		.uleb128 0x3c
ARM GAS  C:\Users\Luis\AppData\Local\Temp\ccRkfmdd.s 			page 73


 4086 0282 19       		.uleb128 0x19
 4087 0283 00       		.byte	0
 4088 0284 00       		.byte	0
 4089 0285 2F       		.uleb128 0x2f
 4090 0286 34       		.uleb128 0x34
 4091 0287 00       		.byte	0
 4092 0288 03       		.uleb128 0x3
 4093 0289 08       		.uleb128 0x8
 4094 028a 3A       		.uleb128 0x3a
 4095 028b 0B       		.uleb128 0xb
 4096 028c 3B       		.uleb128 0x3b
 4097 028d 05       		.uleb128 0x5
 4098 028e 49       		.uleb128 0x49
 4099 028f 13       		.uleb128 0x13
 4100 0290 3F       		.uleb128 0x3f
 4101 0291 19       		.uleb128 0x19
 4102 0292 3C       		.uleb128 0x3c
 4103 0293 19       		.uleb128 0x19
 4104 0294 00       		.byte	0
 4105 0295 00       		.byte	0
 4106 0296 00       		.byte	0
 4107              		.section	.debug_aranges,"",%progbits
 4108 0000 84000000 		.4byte	0x84
 4109 0004 0200     		.2byte	0x2
 4110 0006 00000000 		.4byte	.Ldebug_info0
 4111 000a 04       		.byte	0x4
 4112 000b 00       		.byte	0
 4113 000c 0000     		.2byte	0
 4114 000e 0000     		.2byte	0
 4115 0010 00000000 		.4byte	.LFB230
 4116 0014 14000000 		.4byte	.LFE230-.LFB230
 4117 0018 00000000 		.4byte	.LFB260
 4118 001c 20010000 		.4byte	.LFE260-.LFB260
 4119 0020 00000000 		.4byte	.LFB261
 4120 0024 68000000 		.4byte	.LFE261-.LFB261
 4121 0028 00000000 		.4byte	.LFB262
 4122 002c 7C000000 		.4byte	.LFE262-.LFB262
 4123 0030 00000000 		.4byte	.LFB263
 4124 0034 60000000 		.4byte	.LFE263-.LFB263
 4125 0038 00000000 		.4byte	.LFB264
 4126 003c 58000000 		.4byte	.LFE264-.LFB264
 4127 0040 00000000 		.4byte	.LFB265
 4128 0044 4C000000 		.4byte	.LFE265-.LFB265
 4129 0048 00000000 		.4byte	.LFB266
 4130 004c 38000000 		.4byte	.LFE266-.LFB266
 4131 0050 00000000 		.4byte	.LFB267
 4132 0054 16000000 		.4byte	.LFE267-.LFB267
 4133 0058 00000000 		.4byte	.LFB268
 4134 005c 30000000 		.4byte	.LFE268-.LFB268
 4135 0060 00000000 		.4byte	.LFB269
 4136 0064 60000000 		.4byte	.LFE269-.LFB269
 4137 0068 00000000 		.4byte	.LFB270
 4138 006c 18000000 		.4byte	.LFE270-.LFB270
 4139 0070 00000000 		.4byte	.LFB271
 4140 0074 20000000 		.4byte	.LFE271-.LFB271
 4141 0078 00000000 		.4byte	.LFB272
 4142 007c 20000000 		.4byte	.LFE272-.LFB272
ARM GAS  C:\Users\Luis\AppData\Local\Temp\ccRkfmdd.s 			page 74


 4143 0080 00000000 		.4byte	0
 4144 0084 00000000 		.4byte	0
 4145              		.section	.debug_ranges,"",%progbits
 4146              	.Ldebug_ranges0:
 4147 0000 00000000 		.4byte	.LFB230
 4148 0004 14000000 		.4byte	.LFE230
 4149 0008 00000000 		.4byte	.LFB260
 4150 000c 20010000 		.4byte	.LFE260
 4151 0010 00000000 		.4byte	.LFB261
 4152 0014 68000000 		.4byte	.LFE261
 4153 0018 00000000 		.4byte	.LFB262
 4154 001c 7C000000 		.4byte	.LFE262
 4155 0020 00000000 		.4byte	.LFB263
 4156 0024 60000000 		.4byte	.LFE263
 4157 0028 00000000 		.4byte	.LFB264
 4158 002c 58000000 		.4byte	.LFE264
 4159 0030 00000000 		.4byte	.LFB265
 4160 0034 4C000000 		.4byte	.LFE265
 4161 0038 00000000 		.4byte	.LFB266
 4162 003c 38000000 		.4byte	.LFE266
 4163 0040 00000000 		.4byte	.LFB267
 4164 0044 16000000 		.4byte	.LFE267
 4165 0048 00000000 		.4byte	.LFB268
 4166 004c 30000000 		.4byte	.LFE268
 4167 0050 00000000 		.4byte	.LFB269
 4168 0054 60000000 		.4byte	.LFE269
 4169 0058 00000000 		.4byte	.LFB270
 4170 005c 18000000 		.4byte	.LFE270
 4171 0060 00000000 		.4byte	.LFB271
 4172 0064 20000000 		.4byte	.LFE271
 4173 0068 00000000 		.4byte	.LFB272
 4174 006c 20000000 		.4byte	.LFE272
 4175 0070 00000000 		.4byte	0
 4176 0074 00000000 		.4byte	0
 4177              		.section	.debug_line,"",%progbits
 4178              	.Ldebug_line0:
 4179 0000 8C040000 		.section	.debug_str,"MS",%progbits,1
 4179      02001103 
 4179      00000201 
 4179      FB0E0D00 
 4179      01010101 
 4180              	.LASF2:
 4181 0000 696E7438 		.ascii	"int8_t\000"
 4181      5F7400
 4182              	.LASF46:
 4183 0007 705F7374 		.ascii	"p_stats\000"
 4183      61747300 
 4184              	.LASF1:
 4185 000f 73697A65 		.ascii	"size_t\000"
 4185      5F7400
 4186              	.LASF86:
 4187 0016 73697A65 		.ascii	"sizetype\000"
 4187      74797065 
 4187      00
 4188              	.LASF116:
 4189 001f 77747365 		.ascii	"wtsemp\000"
 4189      6D7000
ARM GAS  C:\Users\Luis\AppData\Local\Temp\ccRkfmdd.s 			page 75


 4190              	.LASF26:
 4191 0026 73797374 		.ascii	"systime_t\000"
 4191      696D655F 
 4191      7400
 4192              	.LASF31:
 4193 0030 705F6374 		.ascii	"p_ctx\000"
 4193      7800
 4194              	.LASF21:
 4195 0036 74707269 		.ascii	"tprio_t\000"
 4195      6F5F7400 
 4196              	.LASF146:
 4197 003e 4D454D50 		.ascii	"MEMP_TCP_PCB\000"
 4197      5F544350 
 4197      5F504342 
 4197      00
 4198              	.LASF40:
 4199 004b 705F6D73 		.ascii	"p_msgqueue\000"
 4199      67717565 
 4199      756500
 4200              	.LASF258:
 4201 0056 6D656D5F 		.ascii	"mem_free_callback\000"
 4201      66726565 
 4201      5F63616C 
 4201      6C626163 
 4201      6B00
 4202              	.LASF58:
 4203 0068 725F6374 		.ascii	"r_ctx\000"
 4203      7800
 4204              	.LASF220:
 4205 006e 70726F74 		.ascii	"proto\000"
 4205      6F00
 4206              	.LASF9:
 4207 0074 696E7433 		.ascii	"int32_t\000"
 4207      325F7400 
 4208              	.LASF62:
 4209 007c 76746675 		.ascii	"vtfunc_t\000"
 4209      6E635F74 
 4209      00
 4210              	.LASF71:
 4211 0085 63685F76 		.ascii	"ch_virtual_timers_list\000"
 4211      69727475 
 4211      616C5F74 
 4211      696D6572 
 4211      735F6C69 
 4212              	.LASF214:
 4213 009c 736F5F6F 		.ascii	"so_options\000"
 4213      7074696F 
 4213      6E7300
 4214              	.LASF155:
 4215 00a7 4D454D50 		.ascii	"MEMP_SYS_TIMEOUT\000"
 4215      5F535953 
 4215      5F54494D 
 4215      454F5554 
 4215      00
 4216              	.LASF244:
 4217 00b8 74637069 		.ascii	"tcpip_input\000"
 4217      705F696E 
ARM GAS  C:\Users\Luis\AppData\Local\Temp\ccRkfmdd.s 			page 76


 4217      70757400 
 4218              	.LASF129:
 4219 00c4 6D625F62 		.ascii	"mb_buffer\000"
 4219      75666665 
 4219      7200
 4220              	.LASF173:
 4221 00ce 73746174 		.ascii	"state\000"
 4221      6500
 4222              	.LASF77:
 4223 00d4 6C6F636B 		.ascii	"lock_cnt\000"
 4223      5F636E74 
 4223      00
 4224              	.LASF47:
 4225 00dd 746C7350 		.ascii	"tlsPtr\000"
 4225      747200
 4226              	.LASF163:
 4227 00e4 74797065 		.ascii	"type\000"
 4227      00
 4228              	.LASF222:
 4229 00e9 6C6F6361 		.ascii	"local\000"
 4229      6C00
 4230              	.LASF92:
 4231 00ef 73655F74 		.ascii	"se_tp\000"
 4231      7000
 4232              	.LASF106:
 4233 00f5 74696D65 		.ascii	"time_measurement_t\000"
 4233      5F6D6561 
 4233      73757265 
 4233      6D656E74 
 4233      5F7400
 4234              	.LASF219:
 4235 0108 636F6E6E 		.ascii	"conn\000"
 4235      00
 4236              	.LASF182:
 4237 010d 4E455443 		.ascii	"NETCONN_INVALID\000"
 4237      4F4E4E5F 
 4237      494E5641 
 4237      4C494400 
 4238              	.LASF124:
 4239 011d 6D5F6F77 		.ascii	"m_owner\000"
 4239      6E657200 
 4240              	.LASF264:
 4241 0125 2E2E2F2E 		.ascii	"../../ChibiOS/ext/lwip/src/api/tcpip.c\000"
 4241      2E2F4368 
 4241      6962694F 
 4241      532F6578 
 4241      742F6C77 
 4242              	.LASF69:
 4243 014c 76745F70 		.ascii	"vt_par\000"
 4243      617200
 4244              	.LASF113:
 4245 0153 65786974 		.ascii	"exitcode\000"
 4245      636F6465 
 4245      00
 4246              	.LASF202:
 4247 015c 6E657463 		.ascii	"netconn\000"
 4247      6F6E6E00 
ARM GAS  C:\Users\Luis\AppData\Local\Temp\ccRkfmdd.s 			page 77


 4248              	.LASF221:
 4249 0164 69706164 		.ascii	"ipaddr\000"
 4249      647200
 4250              	.LASF204:
 4251 016b 6F705F63 		.ascii	"op_completed\000"
 4251      6F6D706C 
 4251      65746564 
 4251      00
 4252              	.LASF32:
 4253 0178 705F6E65 		.ascii	"p_newer\000"
 4253      77657200 
 4254              	.LASF200:
 4255 0180 4E455443 		.ascii	"NETCONN_EVT_ERROR\000"
 4255      4F4E4E5F 
 4255      4556545F 
 4255      4552524F 
 4255      5200
 4256              	.LASF10:
 4257 0192 6C6F6E67 		.ascii	"long int\000"
 4257      20696E74 
 4257      00
 4258              	.LASF28:
 4259 019b 705F6E65 		.ascii	"p_next\000"
 4259      787400
 4260              	.LASF29:
 4261 01a2 705F7072 		.ascii	"p_prev\000"
 4261      657600
 4262              	.LASF191:
 4263 01a9 4E455443 		.ascii	"NETCONN_WRITE\000"
 4263      4F4E4E5F 
 4263      57524954 
 4263      4500
 4264              	.LASF142:
 4265 01b7 7379735F 		.ascii	"sys_sem_t\000"
 4265      73656D5F 
 4265      7400
 4266              	.LASF19:
 4267 01c1 74737461 		.ascii	"tstate_t\000"
 4267      74655F74 
 4267      00
 4268              	.LASF17:
 4269 01ca 72747469 		.ascii	"rttime_t\000"
 4269      6D655F74 
 4269      00
 4270              	.LASF52:
 4271 01d3 74687265 		.ascii	"threads_queue_t\000"
 4271      6164735F 
 4271      71756575 
 4271      655F7400 
 4272              	.LASF43:
 4273 01e3 705F6D74 		.ascii	"p_mtxlist\000"
 4273      786C6973 
 4273      7400
 4274              	.LASF87:
 4275 01ed 72656761 		.ascii	"regarm_t\000"
 4275      726D5F74 
 4275      00
ARM GAS  C:\Users\Luis\AppData\Local\Temp\ccRkfmdd.s 			page 78


 4276              	.LASF195:
 4277 01f6 6E657463 		.ascii	"netconn_evt\000"
 4277      6F6E6E5F 
 4277      65767400 
 4278              	.LASF247:
 4279 0202 74637069 		.ascii	"tcpip_timeout\000"
 4279      705F7469 
 4279      6D656F75 
 4279      7400
 4280              	.LASF172:
 4281 0210 6C696E6B 		.ascii	"linkoutput\000"
 4281      6F757470 
 4281      757400
 4282              	.LASF174:
 4283 021b 68776164 		.ascii	"hwaddr_len\000"
 4283      64725F6C 
 4283      656E00
 4284              	.LASF105:
 4285 0226 63756D75 		.ascii	"cumulative\000"
 4285      6C617469 
 4285      766500
 4286              	.LASF3:
 4287 0231 7369676E 		.ascii	"signed char\000"
 4287      65642063 
 4287      68617200 
 4288              	.LASF118:
 4289 023d 65776D61 		.ascii	"ewmask\000"
 4289      736B00
 4290              	.LASF4:
 4291 0244 75696E74 		.ascii	"uint8_t\000"
 4291      385F7400 
 4292              	.LASF253:
 4293 024c 74637069 		.ascii	"tcpip_callbackmsg_delete\000"
 4293      705F6361 
 4293      6C6C6261 
 4293      636B6D73 
 4293      675F6465 
 4294              	.LASF257:
 4295 0265 70627566 		.ascii	"pbuf_free_callback\000"
 4295      5F667265 
 4295      655F6361 
 4295      6C6C6261 
 4295      636B00
 4296              	.LASF132:
 4297 0278 6D625F72 		.ascii	"mb_rdptr\000"
 4297      64707472 
 4297      00
 4298              	.LASF23:
 4299 0281 6576656E 		.ascii	"eventmask_t\000"
 4299      746D6173 
 4299      6B5F7400 
 4300              	.LASF89:
 4301 028d 636F6E74 		.ascii	"context\000"
 4301      65787400 
 4302              	.LASF255:
 4303 0295 696E6974 		.ascii	"initfunc\000"
 4303      66756E63 
ARM GAS  C:\Users\Luis\AppData\Local\Temp\ccRkfmdd.s 			page 79


 4303      00
 4304              	.LASF212:
 4305 029e 6C6F6361 		.ascii	"local_ip\000"
 4305      6C5F6970 
 4305      00
 4306              	.LASF115:
 4307 02a7 77747472 		.ascii	"wttrp\000"
 4307      7000
 4308              	.LASF5:
 4309 02ad 756E7369 		.ascii	"unsigned char\000"
 4309      676E6564 
 4309      20636861 
 4309      7200
 4310              	.LASF75:
 4311 02bb 70616E69 		.ascii	"panic_msg\000"
 4311      635F6D73 
 4311      6700
 4312              	.LASF78:
 4313 02c5 74726163 		.ascii	"trace_buffer\000"
 4313      655F6275 
 4313      66666572 
 4313      00
 4314              	.LASF59:
 4315 02d2 725F6E65 		.ascii	"r_newer\000"
 4315      77657200 
 4316              	.LASF151:
 4317 02da 4D454D50 		.ascii	"MEMP_NETBUF\000"
 4317      5F4E4554 
 4317      42554600 
 4318              	.LASF73:
 4319 02e6 73797374 		.ascii	"system_debug_t\000"
 4319      656D5F64 
 4319      65627567 
 4319      5F7400
 4320              	.LASF136:
 4321 02f5 5F426F6F 		.ascii	"_Bool\000"
 4321      6C00
 4322              	.LASF183:
 4323 02fb 4E455443 		.ascii	"NETCONN_TCP\000"
 4323      4F4E4E5F 
 4323      54435000 
 4324              	.LASF126:
 4325 0307 63686172 		.ascii	"char\000"
 4325      00
 4326              	.LASF171:
 4327 030c 6F757470 		.ascii	"output\000"
 4327      757400
 4328              	.LASF159:
 4329 0313 70627566 		.ascii	"pbuf\000"
 4329      00
 4330              	.LASF249:
 4331 0318 74637069 		.ascii	"tcpip_apimsg\000"
 4331      705F6170 
 4331      696D7367 
 4331      00
 4332              	.LASF30:
 4333 0325 705F7072 		.ascii	"p_prio\000"
ARM GAS  C:\Users\Luis\AppData\Local\Temp\ccRkfmdd.s 			page 80


 4333      696F00
 4334              	.LASF144:
 4335 032c 4D454D50 		.ascii	"MEMP_RAW_PCB\000"
 4335      5F524157 
 4335      5F504342 
 4335      00
 4336              	.LASF134:
 4337 0339 6D625F65 		.ascii	"mb_emptysem\000"
 4337      6D707479 
 4337      73656D00 
 4338              	.LASF114:
 4339 0345 77746F62 		.ascii	"wtobjp\000"
 4339      6A7000
 4340              	.LASF216:
 4341 034c 7564705F 		.ascii	"udp_pcb\000"
 4341      70636200 
 4342              	.LASF108:
 4343 0354 6E5F6374 		.ascii	"n_ctxswc\000"
 4343      78737763 
 4343      00
 4344              	.LASF188:
 4345 035d 6E657463 		.ascii	"netconn_type\000"
 4345      6F6E6E5F 
 4345      74797065 
 4345      00
 4346              	.LASF164:
 4347 036a 666C6167 		.ascii	"flags\000"
 4347      7300
 4348              	.LASF215:
 4349 0370 7463705F 		.ascii	"tcp_pcb\000"
 4349      70636200 
 4350              	.LASF180:
 4351 0378 6E657462 		.ascii	"netbuf\000"
 4351      756600
 4352              	.LASF88:
 4353 037f 73746B61 		.ascii	"stkalign_t\000"
 4353      6C69676E 
 4353      5F7400
 4354              	.LASF242:
 4355 038a 74637069 		.ascii	"tcpip_thread\000"
 4355      705F7468 
 4355      72656164 
 4355      00
 4356              	.LASF165:
 4357 0397 69705F61 		.ascii	"ip_addr\000"
 4357      64647200 
 4358              	.LASF236:
 4359 039f 54435049 		.ascii	"TCPIP_MSG_CALLBACK\000"
 4359      505F4D53 
 4359      475F4341 
 4359      4C4C4241 
 4359      434B00
 4360              	.LASF103:
 4361 03b2 776F7273 		.ascii	"worst\000"
 4361      7400
 4362              	.LASF225:
 4363 03b8 73687574 		.ascii	"shut\000"
ARM GAS  C:\Users\Luis\AppData\Local\Temp\ccRkfmdd.s 			page 81


 4363      00
 4364              	.LASF186:
 4365 03bd 4E455443 		.ascii	"NETCONN_UDPNOCHKSUM\000"
 4365      4F4E4E5F 
 4365      5544504E 
 4365      4F43484B 
 4365      53554D00 
 4366              	.LASF170:
 4367 03d1 696E7075 		.ascii	"input\000"
 4367      7400
 4368              	.LASF226:
 4369 03d7 6170695F 		.ascii	"api_msg\000"
 4369      6D736700 
 4370              	.LASF24:
 4371 03df 636E745F 		.ascii	"cnt_t\000"
 4371      7400
 4372              	.LASF245:
 4373 03e5 74637069 		.ascii	"tcpip_callback_with_block\000"
 4373      705F6361 
 4373      6C6C6261 
 4373      636B5F77 
 4373      6974685F 
 4374              	.LASF68:
 4375 03ff 76745F66 		.ascii	"vt_func\000"
 4375      756E6300 
 4376              	.LASF153:
 4377 0407 4D454D50 		.ascii	"MEMP_TCPIP_MSG_API\000"
 4377      5F544350 
 4377      49505F4D 
 4377      53475F41 
 4377      504900
 4378              	.LASF152:
 4379 041a 4D454D50 		.ascii	"MEMP_NETCONN\000"
 4379      5F4E4554 
 4379      434F4E4E 
 4379      00
 4380              	.LASF99:
 4381 0427 63685F74 		.ascii	"ch_trace_buffer_t\000"
 4381      72616365 
 4381      5F627566 
 4381      6665725F 
 4381      7400
 4382              	.LASF42:
 4383 0439 705F6570 		.ascii	"p_epending\000"
 4383      656E6469 
 4383      6E6700
 4384              	.LASF117:
 4385 0444 77746D74 		.ascii	"wtmtxp\000"
 4385      787000
 4386              	.LASF55:
 4387 044b 63685F72 		.ascii	"ch_ready_list\000"
 4387      65616479 
 4387      5F6C6973 
 4387      7400
 4388              	.LASF252:
 4389 0459 74637069 		.ascii	"tcpip_trycallback\000"
 4389      705F7472 
ARM GAS  C:\Users\Luis\AppData\Local\Temp\ccRkfmdd.s 			page 82


 4389      7963616C 
 4389      6C626163 
 4389      6B00
 4390              	.LASF232:
 4391 046b 54435049 		.ascii	"TCPIP_MSG_API\000"
 4391      505F4D53 
 4391      475F4150 
 4391      4900
 4392              	.LASF227:
 4393 0479 66756E63 		.ascii	"function\000"
 4393      74696F6E 
 4393      00
 4394              	.LASF76:
 4395 0482 6973725F 		.ascii	"isr_cnt\000"
 4395      636E7400 
 4396              	.LASF248:
 4397 048a 74637069 		.ascii	"tcpip_untimeout\000"
 4397      705F756E 
 4397      74696D65 
 4397      6F757400 
 4398              	.LASF110:
 4399 049a 6D5F6372 		.ascii	"m_crit_isr\000"
 4399      69745F69 
 4399      737200
 4400              	.LASF94:
 4401 04a5 73655F73 		.ascii	"se_state\000"
 4401      74617465 
 4401      00
 4402              	.LASF194:
 4403 04ae 4E455443 		.ascii	"NETCONN_CLOSE\000"
 4403      4F4E4E5F 
 4403      434C4F53 
 4403      4500
 4404              	.LASF109:
 4405 04bc 6D5F6372 		.ascii	"m_crit_thd\000"
 4405      69745F74 
 4405      686400
 4406              	.LASF209:
 4407 04c7 63757272 		.ascii	"current_msg\000"
 4407      656E745F 
 4407      6D736700 
 4408              	.LASF12:
 4409 04d3 6C6F6E67 		.ascii	"long unsigned int\000"
 4409      20756E73 
 4409      69676E65 
 4409      6420696E 
 4409      7400
 4410              	.LASF168:
 4411 04e5 6E657469 		.ascii	"netif\000"
 4411      6600
 4412              	.LASF256:
 4413 04eb 70627566 		.ascii	"pbuf_free_int\000"
 4413      5F667265 
 4413      655F696E 
 4413      7400
 4414              	.LASF119:
 4415 04f9 63685F73 		.ascii	"ch_semaphore\000"
ARM GAS  C:\Users\Luis\AppData\Local\Temp\ccRkfmdd.s 			page 83


 4415      656D6170 
 4415      686F7265 
 4415      00
 4416              	.LASF175:
 4417 0506 68776164 		.ascii	"hwaddr\000"
 4417      647200
 4418              	.LASF50:
 4419 050d 63685F74 		.ascii	"ch_thread\000"
 4419      68726561 
 4419      6400
 4420              	.LASF198:
 4421 0517 4E455443 		.ascii	"NETCONN_EVT_SENDPLUS\000"
 4421      4F4E4E5F 
 4421      4556545F 
 4421      53454E44 
 4421      504C5553 
 4422              	.LASF70:
 4423 052c 76697274 		.ascii	"virtual_timers_list_t\000"
 4423      75616C5F 
 4423      74696D65 
 4423      72735F6C 
 4423      6973745F 
 4424              	.LASF63:
 4425 0542 76697274 		.ascii	"virtual_timer_t\000"
 4425      75616C5F 
 4425      74696D65 
 4425      725F7400 
 4426              	.LASF54:
 4427 0552 72656164 		.ascii	"ready_list_t\000"
 4427      795F6C69 
 4427      73745F74 
 4427      00
 4428              	.LASF206:
 4429 055f 61636365 		.ascii	"acceptmbox\000"
 4429      70746D62 
 4429      6F7800
 4430              	.LASF210:
 4431 056a 63616C6C 		.ascii	"callback\000"
 4431      6261636B 
 4431      00
 4432              	.LASF25:
 4433 0573 75636E74 		.ascii	"ucnt_t\000"
 4433      5F7400
 4434              	.LASF161:
 4435 057a 7061796C 		.ascii	"payload\000"
 4435      6F616400 
 4436              	.LASF238:
 4437 0582 6D736563 		.ascii	"msecs\000"
 4437      7300
 4438              	.LASF229:
 4439 0588 74637069 		.ascii	"tcpip_init_done_fn\000"
 4439      705F696E 
 4439      69745F64 
 4439      6F6E655F 
 4439      666E00
 4440              	.LASF51:
 4441 059b 63685F74 		.ascii	"ch_threads_list\000"
ARM GAS  C:\Users\Luis\AppData\Local\Temp\ccRkfmdd.s 			page 84


 4441      68726561 
 4441      64735F6C 
 4441      69737400 
 4442              	.LASF95:
 4443 05ab 63685F73 		.ascii	"ch_swc_event_t\000"
 4443      77635F65 
 4443      76656E74 
 4443      5F7400
 4444              	.LASF107:
 4445 05ba 6E5F6972 		.ascii	"n_irq\000"
 4445      7100
 4446              	.LASF133:
 4447 05c0 6D625F66 		.ascii	"mb_fullsem\000"
 4447      756C6C73 
 4447      656D00
 4448              	.LASF233:
 4449 05cb 54435049 		.ascii	"TCPIP_MSG_INPKT\000"
 4449      505F4D53 
 4449      475F494E 
 4449      504B5400 
 4450              	.LASF240:
 4451 05db 74637069 		.ascii	"tcpip_msg\000"
 4451      705F6D73 
 4451      6700
 4452              	.LASF143:
 4453 05e5 7379735F 		.ascii	"sys_mbox_t\000"
 4453      6D626F78 
 4453      5F7400
 4454              	.LASF184:
 4455 05f0 4E455443 		.ascii	"NETCONN_UDP\000"
 4455      4F4E4E5F 
 4455      55445000 
 4456              	.LASF13:
 4457 05fc 6C6F6E67 		.ascii	"long long int\000"
 4457      206C6F6E 
 4457      6720696E 
 4457      7400
 4458              	.LASF211:
 4459 060a 69705F70 		.ascii	"ip_pcb\000"
 4459      636200
 4460              	.LASF123:
 4461 0611 6D5F7175 		.ascii	"m_queue\000"
 4461      65756500 
 4462              	.LASF65:
 4463 0619 76745F6E 		.ascii	"vt_next\000"
 4463      65787400 
 4464              	.LASF131:
 4465 0621 6D625F77 		.ascii	"mb_wrptr\000"
 4465      72707472 
 4465      00
 4466              	.LASF66:
 4467 062a 76745F70 		.ascii	"vt_prev\000"
 4467      72657600 
 4468              	.LASF169:
 4469 0632 6E65746D 		.ascii	"netmask\000"
 4469      61736B00 
 4470              	.LASF96:
ARM GAS  C:\Users\Luis\AppData\Local\Temp\ccRkfmdd.s 			page 85


 4471 063a 74625F73 		.ascii	"tb_size\000"
 4471      697A6500 
 4472              	.LASF262:
 4473 0642 49544D5F 		.ascii	"ITM_RxBuffer\000"
 4473      52784275 
 4473      66666572 
 4473      00
 4474              	.LASF250:
 4475 064f 74637069 		.ascii	"tcpip_callback_msg\000"
 4475      705F6361 
 4475      6C6C6261 
 4475      636B5F6D 
 4475      736700
 4476              	.LASF189:
 4477 0662 6E657463 		.ascii	"netconn_state\000"
 4477      6F6E6E5F 
 4477      73746174 
 4477      6500
 4478              	.LASF39:
 4479 0670 705F7761 		.ascii	"p_waiting\000"
 4479      6974696E 
 4479      6700
 4480              	.LASF166:
 4481 067a 61646472 		.ascii	"addr\000"
 4481      00
 4482              	.LASF93:
 4483 067f 73655F77 		.ascii	"se_wtobjp\000"
 4483      746F626A 
 4483      7000
 4484              	.LASF37:
 4485 0689 705F666C 		.ascii	"p_flags\000"
 4485      61677300 
 4486              	.LASF85:
 4487 0691 69646C65 		.ascii	"idle_thread_wa\000"
 4487      5F746872 
 4487      6561645F 
 4487      776100
 4488              	.LASF0:
 4489 06a0 756E7369 		.ascii	"unsigned int\000"
 4489      676E6564 
 4489      20696E74 
 4489      00
 4490              	.LASF139:
 4491 06ad 7531365F 		.ascii	"u16_t\000"
 4491      7400
 4492              	.LASF16:
 4493 06b3 7274636E 		.ascii	"rtcnt_t\000"
 4493      745F7400 
 4494              	.LASF45:
 4495 06bb 705F6D70 		.ascii	"p_mpool\000"
 4495      6F6F6C00 
 4496              	.LASF261:
 4497 06c3 6D626F78 		.ascii	"mbox\000"
 4497      00
 4498              	.LASF239:
 4499 06c8 6170696D 		.ascii	"apimsg\000"
 4499      736700
ARM GAS  C:\Users\Luis\AppData\Local\Temp\ccRkfmdd.s 			page 86


 4500              	.LASF38:
 4501 06cf 705F7265 		.ascii	"p_refs\000"
 4501      667300
 4502              	.LASF259:
 4503 06d6 74637069 		.ascii	"tcpip_init_done\000"
 4503      705F696E 
 4503      69745F64 
 4503      6F6E6500 
 4504              	.LASF111:
 4505 06e6 6B65726E 		.ascii	"kernel_stats_t\000"
 4505      656C5F73 
 4505      74617473 
 4505      5F7400
 4506              	.LASF177:
 4507 06f5 6E657469 		.ascii	"netif_input_fn\000"
 4507      665F696E 
 4507      7075745F 
 4507      666E00
 4508              	.LASF263:
 4509 0704 474E5520 		.ascii	"GNU C 4.8.3 20131129 (release) [ARM/embedded-4_8-br"
 4509      4320342E 
 4509      382E3320 
 4509      32303133 
 4509      31313239 
 4510 0737 616E6368 		.ascii	"anch revision 205641] -mcpu=cortex-m4 -mapcs-frame "
 4510      20726576 
 4510      6973696F 
 4510      6E203230 
 4510      35363431 
 4511 076a 2D6D6E6F 		.ascii	"-mno-thumb-interwork -mthumb -ggdb -O0 -falign-func"
 4511      2D746875 
 4511      6D622D69 
 4511      6E746572 
 4511      776F726B 
 4512 079d 74696F6E 		.ascii	"tions=16 -ffunction-sections -fdata-sections -fno-c"
 4512      733D3136 
 4512      202D6666 
 4512      756E6374 
 4512      696F6E2D 
 4513 07d0 6F6D6D6F 		.ascii	"ommon\000"
 4513      6E00
 4514              	.LASF100:
 4515 07d6 6F666673 		.ascii	"offset\000"
 4515      657400
 4516              	.LASF98:
 4517 07dd 74625F62 		.ascii	"tb_buffer\000"
 4517      75666665 
 4517      7200
 4518              	.LASF179:
 4519 07e7 6E657469 		.ascii	"netif_linkoutput_fn\000"
 4519      665F6C69 
 4519      6E6B6F75 
 4519      74707574 
 4519      5F666E00 
 4520              	.LASF246:
 4521 07fb 626C6F63 		.ascii	"block\000"
 4521      6B00
ARM GAS  C:\Users\Luis\AppData\Local\Temp\ccRkfmdd.s 			page 87


 4522              	.LASF230:
 4523 0801 74637069 		.ascii	"tcpip_callback_fn\000"
 4523      705F6361 
 4523      6C6C6261 
 4523      636B5F66 
 4523      6E00
 4524              	.LASF178:
 4525 0813 6E657469 		.ascii	"netif_output_fn\000"
 4525      665F6F75 
 4525      74707574 
 4525      5F666E00 
 4526              	.LASF193:
 4527 0823 4E455443 		.ascii	"NETCONN_CONNECT\000"
 4527      4F4E4E5F 
 4527      434F4E4E 
 4527      45435400 
 4528              	.LASF162:
 4529 0833 746F745F 		.ascii	"tot_len\000"
 4529      6C656E00 
 4530              	.LASF167:
 4531 083b 69705F61 		.ascii	"ip_addr_t\000"
 4531      6464725F 
 4531      7400
 4532              	.LASF237:
 4533 0845 54435049 		.ascii	"TCPIP_MSG_CALLBACK_STATIC\000"
 4533      505F4D53 
 4533      475F4341 
 4533      4C4C4241 
 4533      434B5F53 
 4534              	.LASF27:
 4535 085f 74687265 		.ascii	"thread_t\000"
 4535      61645F74 
 4535      00
 4536              	.LASF48:
 4537 0868 74687265 		.ascii	"thread_reference_t\000"
 4537      61645F72 
 4537      65666572 
 4537      656E6365 
 4537      5F7400
 4538              	.LASF44:
 4539 087b 705F7265 		.ascii	"p_realprio\000"
 4539      616C7072 
 4539      696F00
 4540              	.LASF90:
 4541 0886 706F7274 		.ascii	"port_intctx\000"
 4541      5F696E74 
 4541      63747800 
 4542              	.LASF141:
 4543 0892 6572725F 		.ascii	"err_t\000"
 4543      7400
 4544              	.LASF241:
 4545 0898 6F73616C 		.ascii	"osalSysHalt\000"
 4545      53797348 
 4545      616C7400 
 4546              	.LASF130:
 4547 08a4 6D625F74 		.ascii	"mb_top\000"
 4547      6F7000
ARM GAS  C:\Users\Luis\AppData\Local\Temp\ccRkfmdd.s 			page 88


 4548              	.LASF67:
 4549 08ab 76745F64 		.ascii	"vt_delta\000"
 4549      656C7461 
 4549      00
 4550              	.LASF149:
 4551 08b4 4D454D50 		.ascii	"MEMP_REASSDATA\000"
 4551      5F524541 
 4551      53534441 
 4551      544100
 4552              	.LASF64:
 4553 08c3 63685F76 		.ascii	"ch_virtual_timer\000"
 4553      69727475 
 4553      616C5F74 
 4553      696D6572 
 4553      00
 4554              	.LASF121:
 4555 08d4 735F636E 		.ascii	"s_cnt\000"
 4555      7400
 4556              	.LASF84:
 4557 08da 6B65726E 		.ascii	"kernel_stats\000"
 4557      656C5F73 
 4557      74617473 
 4557      00
 4558              	.LASF150:
 4559 08e7 4D454D50 		.ascii	"MEMP_FRAG_PBUF\000"
 4559      5F465241 
 4559      475F5042 
 4559      554600
 4560              	.LASF15:
 4561 08f6 6C6F6E67 		.ascii	"long long unsigned int\000"
 4561      206C6F6E 
 4561      6720756E 
 4561      7369676E 
 4561      65642069 
 4562              	.LASF145:
 4563 090d 4D454D50 		.ascii	"MEMP_UDP_PCB\000"
 4563      5F554450 
 4563      5F504342 
 4563      00
 4564              	.LASF33:
 4565 091a 705F6F6C 		.ascii	"p_older\000"
 4565      64657200 
 4566              	.LASF148:
 4567 0922 4D454D50 		.ascii	"MEMP_TCP_SEG\000"
 4567      5F544350 
 4567      5F534547 
 4567      00
 4568              	.LASF7:
 4569 092f 75696E74 		.ascii	"uint16_t\000"
 4569      31365F74 
 4569      00
 4570              	.LASF22:
 4571 0938 6D73675F 		.ascii	"msg_t\000"
 4571      7400
 4572              	.LASF53:
 4573 093e 63685F74 		.ascii	"ch_threads_queue\000"
 4573      68726561 
ARM GAS  C:\Users\Luis\AppData\Local\Temp\ccRkfmdd.s 			page 89


 4573      64735F71 
 4573      75657565 
 4573      00
 4574              	.LASF234:
 4575 094f 54435049 		.ascii	"TCPIP_MSG_TIMEOUT\000"
 4575      505F4D53 
 4575      475F5449 
 4575      4D454F55 
 4575      5400
 4576              	.LASF154:
 4577 0961 4D454D50 		.ascii	"MEMP_TCPIP_MSG_INPKT\000"
 4577      5F544350 
 4577      49505F4D 
 4577      53475F49 
 4577      4E504B54 
 4578              	.LASF199:
 4579 0976 4E455443 		.ascii	"NETCONN_EVT_SENDMINUS\000"
 4579      4F4E4E5F 
 4579      4556545F 
 4579      53454E44 
 4579      4D494E55 
 4580              	.LASF61:
 4581 098c 725F6375 		.ascii	"r_current\000"
 4581      7272656E 
 4581      7400
 4582              	.LASF243:
 4583 0996 72656173 		.ascii	"reason\000"
 4583      6F6E00
 4584              	.LASF83:
 4585 099d 6D61696E 		.ascii	"mainthread\000"
 4585      74687265 
 4585      616400
 4586              	.LASF197:
 4587 09a8 4E455443 		.ascii	"NETCONN_EVT_RCVMINUS\000"
 4587      4F4E4E5F 
 4587      4556545F 
 4587      5243564D 
 4587      494E5553 
 4588              	.LASF102:
 4589 09bd 62657374 		.ascii	"best\000"
 4589      00
 4590              	.LASF56:
 4591 09c2 725F7175 		.ascii	"r_queue\000"
 4591      65756500 
 4592              	.LASF158:
 4593 09ca 4D454D50 		.ascii	"MEMP_MAX\000"
 4593      5F4D4158 
 4593      00
 4594              	.LASF218:
 4595 09d3 6170695F 		.ascii	"api_msg_msg\000"
 4595      6D73675F 
 4595      6D736700 
 4596              	.LASF228:
 4597 09df 7379735F 		.ascii	"sys_timeout_handler\000"
 4597      74696D65 
 4597      6F75745F 
 4597      68616E64 
ARM GAS  C:\Users\Luis\AppData\Local\Temp\ccRkfmdd.s 			page 90


 4597      6C657200 
 4598              	.LASF213:
 4599 09f3 72656D6F 		.ascii	"remote_ip\000"
 4599      74655F69 
 4599      7000
 4600              	.LASF140:
 4601 09fd 7533325F 		.ascii	"u32_t\000"
 4601      7400
 4602              	.LASF81:
 4603 0a03 726C6973 		.ascii	"rlist\000"
 4603      7400
 4604              	.LASF18:
 4605 0a09 746D6F64 		.ascii	"tmode_t\000"
 4605      655F7400 
 4606              	.LASF208:
 4607 0a11 77726974 		.ascii	"write_offset\000"
 4607      655F6F66 
 4607      66736574 
 4607      00
 4608              	.LASF231:
 4609 0a1e 74637069 		.ascii	"tcpip_msg_type\000"
 4609      705F6D73 
 4609      675F7479 
 4609      706500
 4610              	.LASF187:
 4611 0a2d 4E455443 		.ascii	"NETCONN_RAW\000"
 4611      4F4E4E5F 
 4611      52415700 
 4612              	.LASF60:
 4613 0a39 725F6F6C 		.ascii	"r_older\000"
 4613      64657200 
 4614              	.LASF101:
 4615 0a41 746D5F63 		.ascii	"tm_calibration_t\000"
 4615      616C6962 
 4615      72617469 
 4615      6F6E5F74 
 4615      00
 4616              	.LASF176:
 4617 0a52 6E616D65 		.ascii	"name\000"
 4617      00
 4618              	.LASF120:
 4619 0a57 735F7175 		.ascii	"s_queue\000"
 4619      65756500 
 4620              	.LASF181:
 4621 0a5f 706F7274 		.ascii	"port\000"
 4621      00
 4622              	.LASF156:
 4623 0a64 4D454D50 		.ascii	"MEMP_PBUF\000"
 4623      5F504255 
 4623      4600
 4624              	.LASF260:
 4625 0a6e 74637069 		.ascii	"tcpip_init_done_arg\000"
 4625      705F696E 
 4625      69745F64 
 4625      6F6E655F 
 4625      61726700 
 4626              	.LASF6:
ARM GAS  C:\Users\Luis\AppData\Local\Temp\ccRkfmdd.s 			page 91


 4627 0a82 73686F72 		.ascii	"short int\000"
 4627      7420696E 
 4627      7400
 4628              	.LASF192:
 4629 0a8c 4E455443 		.ascii	"NETCONN_LISTEN\000"
 4629      4F4E4E5F 
 4629      4C495354 
 4629      454E00
 4630              	.LASF14:
 4631 0a9b 75696E74 		.ascii	"uint64_t\000"
 4631      36345F74 
 4631      00
 4632              	.LASF185:
 4633 0aa4 4E455443 		.ascii	"NETCONN_UDPLITE\000"
 4633      4F4E4E5F 
 4633      5544504C 
 4633      49544500 
 4634              	.LASF122:
 4635 0ab4 63685F6D 		.ascii	"ch_mutex\000"
 4635      75746578 
 4635      00
 4636              	.LASF157:
 4637 0abd 4D454D50 		.ascii	"MEMP_PBUF_POOL\000"
 4637      5F504255 
 4637      465F504F 
 4637      4F4C00
 4638              	.LASF57:
 4639 0acc 725F7072 		.ascii	"r_prio\000"
 4639      696F00
 4640              	.LASF74:
 4641 0ad3 63685F73 		.ascii	"ch_system_debug\000"
 4641      79737465 
 4641      6D5F6465 
 4641      62756700 
 4642              	.LASF235:
 4643 0ae3 54435049 		.ascii	"TCPIP_MSG_UNTIMEOUT\000"
 4643      505F4D53 
 4643      475F554E 
 4643      54494D45 
 4643      4F555400 
 4644              	.LASF224:
 4645 0af7 61706966 		.ascii	"apiflags\000"
 4645      6C616773 
 4645      00
 4646              	.LASF190:
 4647 0b00 4E455443 		.ascii	"NETCONN_NONE\000"
 4647      4F4E4E5F 
 4647      4E4F4E45 
 4647      00
 4648              	.LASF82:
 4649 0b0d 76746C69 		.ascii	"vtlist\000"
 4649      737400
 4650              	.LASF207:
 4651 0b14 736F636B 		.ascii	"socket\000"
 4651      657400
 4652              	.LASF265:
 4653 0b1b 433A5C55 		.ascii	"C:\\Users\\Luis\\git\\DSP-Library-Lanin\\examples\\"
ARM GAS  C:\Users\Luis\AppData\Local\Temp\ccRkfmdd.s 			page 92


 4653      73657273 
 4653      5C4C7569 
 4653      735C6769 
 4653      745C4453 
 4654 0b48 53544D33 		.ascii	"STM32F407_EMTECH-LWIP\000"
 4654      32463430 
 4654      375F454D 
 4654      54454348 
 4654      2D4C5749 
 4655              	.LASF251:
 4656 0b5e 74637069 		.ascii	"tcpip_callbackmsg_new\000"
 4656      705F6361 
 4656      6C6C6261 
 4656      636B6D73 
 4656      675F6E65 
 4657              	.LASF128:
 4658 0b74 6D757465 		.ascii	"mutex_t\000"
 4658      785F7400 
 4659              	.LASF20:
 4660 0b7c 74726566 		.ascii	"trefs_t\000"
 4660      735F7400 
 4661              	.LASF49:
 4662 0b84 74687265 		.ascii	"threads_list_t\000"
 4662      6164735F 
 4662      6C697374 
 4662      5F7400
 4663              	.LASF217:
 4664 0b93 7261775F 		.ascii	"raw_pcb\000"
 4664      70636200 
 4665              	.LASF80:
 4666 0b9b 63685F73 		.ascii	"ch_system\000"
 4666      79737465 
 4666      6D00
 4667              	.LASF11:
 4668 0ba5 75696E74 		.ascii	"uint32_t\000"
 4668      33325F74 
 4668      00
 4669              	.LASF201:
 4670 0bae 6E657463 		.ascii	"netconn_callback\000"
 4670      6F6E6E5F 
 4670      63616C6C 
 4670      6261636B 
 4670      00
 4671              	.LASF223:
 4672 0bbf 64617461 		.ascii	"dataptr\000"
 4672      70747200 
 4673              	.LASF205:
 4674 0bc7 72656376 		.ascii	"recvmbox\000"
 4674      6D626F78 
 4674      00
 4675              	.LASF196:
 4676 0bd0 4E455443 		.ascii	"NETCONN_EVT_RCVPLUS\000"
 4676      4F4E4E5F 
 4676      4556545F 
 4676      52435650 
 4676      4C555300 
 4677              	.LASF112:
ARM GAS  C:\Users\Luis\AppData\Local\Temp\ccRkfmdd.s 			page 93


 4678 0be4 7264796D 		.ascii	"rdymsg\000"
 4678      736700
 4679              	.LASF72:
 4680 0beb 76745F6C 		.ascii	"vt_lasttime\000"
 4680      61737474 
 4680      696D6500 
 4681              	.LASF8:
 4682 0bf7 73686F72 		.ascii	"short unsigned int\000"
 4682      7420756E 
 4682      7369676E 
 4682      65642069 
 4682      6E7400
 4683              	.LASF138:
 4684 0c0a 73385F74 		.ascii	"s8_t\000"
 4684      00
 4685              	.LASF79:
 4686 0c0f 63685F73 		.ascii	"ch_system_t\000"
 4686      79737465 
 4686      6D5F7400 
 4687              	.LASF137:
 4688 0c1b 75385F74 		.ascii	"u8_t\000"
 4688      00
 4689              	.LASF35:
 4690 0c20 705F7374 		.ascii	"p_stklimit\000"
 4690      6B6C696D 
 4690      697400
 4691              	.LASF254:
 4692 0c2b 74637069 		.ascii	"tcpip_init\000"
 4692      705F696E 
 4692      697400
 4693              	.LASF91:
 4694 0c36 73655F74 		.ascii	"se_time\000"
 4694      696D6500 
 4695              	.LASF34:
 4696 0c3e 705F6E61 		.ascii	"p_name\000"
 4696      6D6500
 4697              	.LASF160:
 4698 0c45 6E657874 		.ascii	"next\000"
 4698      00
 4699              	.LASF135:
 4700 0c4a 6D61696C 		.ascii	"mailbox_t\000"
 4700      626F785F 
 4700      7400
 4701              	.LASF125:
 4702 0c54 6D5F6E65 		.ascii	"m_next\000"
 4702      787400
 4703              	.LASF97:
 4704 0c5b 74625F70 		.ascii	"tb_ptr\000"
 4704      747200
 4705              	.LASF127:
 4706 0c62 73656D61 		.ascii	"semaphore_t\000"
 4706      70686F72 
 4706      655F7400 
 4707              	.LASF147:
 4708 0c6e 4D454D50 		.ascii	"MEMP_TCP_PCB_LISTEN\000"
 4708      5F544350 
 4708      5F504342 
ARM GAS  C:\Users\Luis\AppData\Local\Temp\ccRkfmdd.s 			page 94


 4708      5F4C4953 
 4708      54454E00 
 4709              	.LASF203:
 4710 0c82 6C617374 		.ascii	"last_err\000"
 4710      5F657272 
 4710      00
 4711              	.LASF104:
 4712 0c8b 6C617374 		.ascii	"last\000"
 4712      00
 4713              	.LASF41:
 4714 0c90 705F6D73 		.ascii	"p_msg\000"
 4714      6700
 4715              	.LASF36:
 4716 0c96 705F7374 		.ascii	"p_state\000"
 4716      61746500 
 4717              		.ident	"GCC: (GNU Tools for ARM Embedded Processors) 4.8.3 20131129 (release) [ARM/embedded-4_8-br
ARM GAS  C:\Users\Luis\AppData\Local\Temp\ccRkfmdd.s 			page 95


DEFINED SYMBOLS
                            *ABS*:00000000 tcpip.c
C:\Users\Luis\AppData\Local\Temp\ccRkfmdd.s:19     .text.osalSysHalt:00000000 $t
C:\Users\Luis\AppData\Local\Temp\ccRkfmdd.s:24     .text.osalSysHalt:00000000 osalSysHalt
C:\Users\Luis\AppData\Local\Temp\ccRkfmdd.s:52     .bss.tcpip_init_done:00000000 $d
C:\Users\Luis\AppData\Local\Temp\ccRkfmdd.s:55     .bss.tcpip_init_done:00000000 tcpip_init_done
C:\Users\Luis\AppData\Local\Temp\ccRkfmdd.s:58     .bss.tcpip_init_done_arg:00000000 $d
C:\Users\Luis\AppData\Local\Temp\ccRkfmdd.s:61     .bss.tcpip_init_done_arg:00000000 tcpip_init_done_arg
C:\Users\Luis\AppData\Local\Temp\ccRkfmdd.s:64     .bss.mbox:00000000 $d
C:\Users\Luis\AppData\Local\Temp\ccRkfmdd.s:67     .bss.mbox:00000000 mbox
C:\Users\Luis\AppData\Local\Temp\ccRkfmdd.s:70     .rodata:00000000 $d
C:\Users\Luis\AppData\Local\Temp\ccRkfmdd.s:74     .text.tcpip_thread:00000000 $t
C:\Users\Luis\AppData\Local\Temp\ccRkfmdd.s:79     .text.tcpip_thread:00000000 tcpip_thread
C:\Users\Luis\AppData\Local\Temp\ccRkfmdd.s:122    .text.tcpip_thread:00000038 $d
C:\Users\Luis\AppData\Local\Temp\ccRkfmdd.s:130    .text.tcpip_thread:00000050 $t
C:\Users\Luis\AppData\Local\Temp\ccRkfmdd.s:246    .text.tcpip_thread:00000110 $d
C:\Users\Luis\AppData\Local\Temp\ccRkfmdd.s:254    .text.tcpip_input:00000000 $t
C:\Users\Luis\AppData\Local\Temp\ccRkfmdd.s:260    .text.tcpip_input:00000000 tcpip_input
C:\Users\Luis\AppData\Local\Temp\ccRkfmdd.s:338    .text.tcpip_input:00000064 $d
C:\Users\Luis\AppData\Local\Temp\ccRkfmdd.s:343    .text.tcpip_callback_with_block:00000000 $t
C:\Users\Luis\AppData\Local\Temp\ccRkfmdd.s:349    .text.tcpip_callback_with_block:00000000 tcpip_callback_with_block
C:\Users\Luis\AppData\Local\Temp\ccRkfmdd.s:439    .text.tcpip_callback_with_block:00000078 $d
C:\Users\Luis\AppData\Local\Temp\ccRkfmdd.s:444    .text.tcpip_timeout:00000000 $t
C:\Users\Luis\AppData\Local\Temp\ccRkfmdd.s:450    .text.tcpip_timeout:00000000 tcpip_timeout
C:\Users\Luis\AppData\Local\Temp\ccRkfmdd.s:522    .text.tcpip_timeout:0000005c $d
C:\Users\Luis\AppData\Local\Temp\ccRkfmdd.s:527    .text.tcpip_untimeout:00000000 $t
C:\Users\Luis\AppData\Local\Temp\ccRkfmdd.s:533    .text.tcpip_untimeout:00000000 tcpip_untimeout
C:\Users\Luis\AppData\Local\Temp\ccRkfmdd.s:600    .text.tcpip_untimeout:00000054 $d
C:\Users\Luis\AppData\Local\Temp\ccRkfmdd.s:605    .text.tcpip_apimsg:00000000 $t
C:\Users\Luis\AppData\Local\Temp\ccRkfmdd.s:611    .text.tcpip_apimsg:00000000 tcpip_apimsg
C:\Users\Luis\AppData\Local\Temp\ccRkfmdd.s:668    .text.tcpip_apimsg:00000048 $d
C:\Users\Luis\AppData\Local\Temp\ccRkfmdd.s:673    .text.tcpip_callbackmsg_new:00000000 $t
C:\Users\Luis\AppData\Local\Temp\ccRkfmdd.s:679    .text.tcpip_callbackmsg_new:00000000 tcpip_callbackmsg_new
C:\Users\Luis\AppData\Local\Temp\ccRkfmdd.s:732    .text.tcpip_callbackmsg_delete:00000000 $t
C:\Users\Luis\AppData\Local\Temp\ccRkfmdd.s:738    .text.tcpip_callbackmsg_delete:00000000 tcpip_callbackmsg_delete
C:\Users\Luis\AppData\Local\Temp\ccRkfmdd.s:766    .text.tcpip_trycallback:00000000 $t
C:\Users\Luis\AppData\Local\Temp\ccRkfmdd.s:772    .text.tcpip_trycallback:00000000 tcpip_trycallback
C:\Users\Luis\AppData\Local\Temp\ccRkfmdd.s:813    .text.tcpip_trycallback:0000002c $d
C:\Users\Luis\AppData\Local\Temp\ccRkfmdd.s:825    .text.tcpip_init:00000000 $t
C:\Users\Luis\AppData\Local\Temp\ccRkfmdd.s:831    .text.tcpip_init:00000000 tcpip_init
C:\Users\Luis\AppData\Local\Temp\ccRkfmdd.s:884    .text.tcpip_init:00000048 $d
C:\Users\Luis\AppData\Local\Temp\ccRkfmdd.s:894    .text.pbuf_free_int:00000000 $t
C:\Users\Luis\AppData\Local\Temp\ccRkfmdd.s:899    .text.pbuf_free_int:00000000 pbuf_free_int
C:\Users\Luis\AppData\Local\Temp\ccRkfmdd.s:929    .text.pbuf_free_callback:00000000 $t
C:\Users\Luis\AppData\Local\Temp\ccRkfmdd.s:935    .text.pbuf_free_callback:00000000 pbuf_free_callback
C:\Users\Luis\AppData\Local\Temp\ccRkfmdd.s:965    .text.pbuf_free_callback:0000001c $d
C:\Users\Luis\AppData\Local\Temp\ccRkfmdd.s:970    .text.mem_free_callback:00000000 $t
C:\Users\Luis\AppData\Local\Temp\ccRkfmdd.s:976    .text.mem_free_callback:00000000 mem_free_callback
C:\Users\Luis\AppData\Local\Temp\ccRkfmdd.s:1006   .text.mem_free_callback:0000001c $d
                     .debug_frame:00000010 $d
C:\Users\Luis\AppData\Local\Temp\ccRkfmdd.s:342    .text.tcpip_input:00000068 $t
C:\Users\Luis\AppData\Local\Temp\ccRkfmdd.s:443    .text.tcpip_callback_with_block:0000007c $t
C:\Users\Luis\AppData\Local\Temp\ccRkfmdd.s:604    .text.tcpip_untimeout:00000058 $t
C:\Users\Luis\AppData\Local\Temp\ccRkfmdd.s:672    .text.tcpip_apimsg:0000004c $t

UNDEFINED SYMBOLS
chSysHalt
ARM GAS  C:\Users\Luis\AppData\Local\Temp\ccRkfmdd.s 			page 96


sys_timeouts_mbox_fetch
ethernet_input
ip_input
memp_free
sys_timeout
sys_untimeout
sys_mbox_valid
memp_malloc
sys_mbox_trypost
sys_mbox_post
sys_arch_sem_wait
lwip_init
sys_mbox_new
sys_thread_new
pbuf_free
mem_free
